; ModuleID = 'gen/device/bluetooth/public/mojom/adapter.mojom.cc'
source_filename = "gen/device/bluetooth/public/mojom/adapter.mojom.cc"
target datalayout = "e-m:e-i64:64-f80:128-n8:16:32:64-S128"
target triple = "x86_64-unknown-linux-gnu"

module asm ".symver exp, exp@GLIBC_2.2.5"
module asm ".symver exp2, exp2@GLIBC_2.2.5"
module asm ".symver exp2f, exp2f@GLIBC_2.2.5"
module asm ".symver expf, expf@GLIBC_2.2.5"
module asm ".symver lgamma, lgamma@GLIBC_2.2.5"
module asm ".symver lgammaf, lgammaf@GLIBC_2.2.5"
module asm ".symver lgammal, lgammal@GLIBC_2.2.5"
module asm ".symver log, log@GLIBC_2.2.5"
module asm ".symver log2, log2@GLIBC_2.2.5"
module asm ".symver log2f, log2f@GLIBC_2.2.5"
module asm ".symver logf, logf@GLIBC_2.2.5"
module asm ".symver pow, pow@GLIBC_2.2.5"
module asm ".symver powf, powf@GLIBC_2.2.5"

%"struct.std::__1::pair.74" = type { i32, %"struct.mojo::internal::GenericValidationInfo" }
%"struct.mojo::internal::GenericValidationInfo" = type { i1 (i8*, %"class.mojo::internal::ValidationContext"*)*, i1 (i8*, %"class.mojo::internal::ValidationContext"*)* }
%"class.mojo::internal::ValidationContext" = type <{ %"class.mojo::Message"*, i8*, i32, [4 x i8], i64, i64, i32, i32, i32, i32, i32, [4 x i8] }>
%"class.mojo::Message" = type { %"class.mojo::ScopedHandleBase.8", %"class.mojo::internal::Buffer", %"class.std::__1::vector", %"class.std::__1::vector.15", %"class.mojo::ConnectionGroup::Ref"*, i8, i8, i8* }
%"class.mojo::ScopedHandleBase.8" = type { %"class.mojo::MessageHandle" }
%"class.mojo::MessageHandle" = type { i64 }
%"class.mojo::internal::Buffer" = type { %"class.mojo::MessageHandle", i64, i8*, i64, i64 }
%"class.std::__1::vector" = type { %"class.std::__1::__vector_base" }
%"class.std::__1::__vector_base" = type { %"class.mojo::ScopedHandleBase.9"*, %"class.mojo::ScopedHandleBase.9"*, %"class.std::__1::__compressed_pair.10" }
%"class.mojo::ScopedHandleBase.9" = type { %"class.mojo::Handle" }
%"class.mojo::Handle" = type { i32 }
%"class.std::__1::__compressed_pair.10" = type { %"struct.std::__1::__compressed_pair_elem.11" }
%"struct.std::__1::__compressed_pair_elem.11" = type { %"class.mojo::ScopedHandleBase.9"* }
%"class.std::__1::vector.15" = type { %"class.std::__1::__vector_base.16" }
%"class.std::__1::__vector_base.16" = type { %"class.mojo::ScopedInterfaceEndpointHandle"*, %"class.mojo::ScopedInterfaceEndpointHandle"*, %"class.std::__1::__compressed_pair.17" }
%"class.mojo::ScopedInterfaceEndpointHandle" = type { %class.scoped_refptr }
%class.scoped_refptr = type { %"class.mojo::ScopedInterfaceEndpointHandle::State"* }
%"class.mojo::ScopedInterfaceEndpointHandle::State" = type opaque
%"class.std::__1::__compressed_pair.17" = type { %"struct.std::__1::__compressed_pair_elem.18" }
%"struct.std::__1::__compressed_pair_elem.18" = type { %"class.mojo::ScopedInterfaceEndpointHandle"* }
%"class.mojo::ConnectionGroup::Ref" = type { i32, %class.scoped_refptr.22 }
%class.scoped_refptr.22 = type { %"class.mojo::ConnectionGroup"* }
%"class.mojo::ConnectionGroup" = type <{ i32 (...)**, %"class.base::RefCountedThreadSafe", [4 x i8], %"class.base::RepeatingCallback", %class.scoped_refptr.26, %"class.mojo::ConnectionGroup::Ref", %"struct.std::__1::atomic.28", [4 x i8] }>
%"class.base::RefCountedThreadSafe" = type { %"class.base::subtle::RefCountedThreadSafeBase" }
%"class.base::subtle::RefCountedThreadSafeBase" = type { %"class.base::AtomicRefCount" }
%"class.base::AtomicRefCount" = type { %"struct.std::__1::atomic" }
%"struct.std::__1::atomic" = type { %"struct.std::__1::__atomic_base" }
%"struct.std::__1::__atomic_base" = type { %"struct.std::__1::__atomic_base.23" }
%"struct.std::__1::__atomic_base.23" = type { %"struct.std::__1::__cxx_atomic_impl" }
%"struct.std::__1::__cxx_atomic_impl" = type { %"struct.std::__1::__cxx_atomic_base_impl" }
%"struct.std::__1::__cxx_atomic_base_impl" = type { i32 }
%"class.base::RepeatingCallback" = type { %"class.base::internal::CallbackBaseCopyable" }
%"class.base::internal::CallbackBaseCopyable" = type { %"class.base::internal::CallbackBase" }
%"class.base::internal::CallbackBase" = type { %class.scoped_refptr.24 }
%class.scoped_refptr.24 = type { %"class.base::internal::BindStateBase"* }
%"class.base::internal::BindStateBase" = type { %"class.base::RefCountedThreadSafe.25", void ()*, void (%"class.base::internal::BindStateBase"*)*, i1 (%"class.base::internal::BindStateBase"*, i32)* }
%"class.base::RefCountedThreadSafe.25" = type { %"class.base::subtle::RefCountedThreadSafeBase" }
%class.scoped_refptr.26 = type { %"class.base::SequencedTaskRunner"* }
%"class.base::SequencedTaskRunner" = type { %"class.base::TaskRunner.base", [4 x i8] }
%"class.base::TaskRunner.base" = type <{ i32 (...)**, %"class.base::RefCountedThreadSafe.27" }>
%"class.base::RefCountedThreadSafe.27" = type { %"class.base::subtle::RefCountedThreadSafeBase" }
%"struct.std::__1::atomic.28" = type { %"struct.std::__1::__atomic_base.29" }
%"struct.std::__1::__atomic_base.29" = type { %"struct.std::__1::__atomic_base.30" }
%"struct.std::__1::__atomic_base.30" = type { %"struct.std::__1::__cxx_atomic_impl.31" }
%"struct.std::__1::__cxx_atomic_impl.31" = type { %"struct.std::__1::__cxx_atomic_base_impl.32" }
%"struct.std::__1::__cxx_atomic_base_impl.32" = type { i32 }
%"class.bluetooth::mojom::ConnectToServiceResult" = type { %"class.mojo::PendingRemote", %"class.mojo::ScopedHandleBase.0", %"class.mojo::ScopedHandleBase.1" }
%"class.mojo::PendingRemote" = type { %"struct.mojo::internal::PendingRemoteState" }
%"struct.mojo::internal::PendingRemoteState" = type { %"class.mojo::ScopedHandleBase", i32 }
%"class.mojo::ScopedHandleBase" = type { %"class.mojo::MessagePipeHandle" }
%"class.mojo::MessagePipeHandle" = type { %"class.mojo::Handle" }
%"class.mojo::ScopedHandleBase.0" = type { %"class.mojo::DataPipeConsumerHandle" }
%"class.mojo::DataPipeConsumerHandle" = type { %"class.mojo::Handle" }
%"class.mojo::ScopedHandleBase.1" = type { %"class.mojo::DataPipeProducerHandle" }
%"class.mojo::DataPipeProducerHandle" = type { %"class.mojo::Handle" }
%"class.bluetooth::mojom::AcceptConnectionResult" = type { %"class.mojo::StructPtr", %"class.mojo::PendingRemote", %"class.mojo::ScopedHandleBase.0", %"class.mojo::ScopedHandleBase.1" }
%"class.mojo::StructPtr" = type { %"class.std::__1::unique_ptr" }
%"class.std::__1::unique_ptr" = type { %"class.std::__1::__compressed_pair.33" }
%"class.std::__1::__compressed_pair.33" = type { %"struct.std::__1::__compressed_pair_elem.34" }
%"struct.std::__1::__compressed_pair_elem.34" = type { %"class.bluetooth::mojom::DeviceInfo"* }
%"class.bluetooth::mojom::DeviceInfo" = type { %"class.absl::optional", %"class.std::__1::basic_string", %"class.std::__1::basic_string", i8, %"class.mojo::InlinedStructPtr", %"class.std::__1::vector.36", %"class.base::flat_map", %"class.base::flat_map.50" }
%"class.absl::optional" = type { %"class.absl::optional_internal::optional_data" }
%"class.absl::optional_internal::optional_data" = type { %"class.absl::optional_internal::optional_data_base" }
%"class.absl::optional_internal::optional_data_base" = type { %"class.absl::optional_internal::optional_data_dtor_base" }
%"class.absl::optional_internal::optional_data_dtor_base" = type { i8, %union.anon.35 }
%union.anon.35 = type { %"class.std::__1::basic_string" }
%"class.std::__1::basic_string" = type { %"class.std::__1::__compressed_pair.3" }
%"class.std::__1::__compressed_pair.3" = type { %"struct.std::__1::__compressed_pair_elem.4" }
%"struct.std::__1::__compressed_pair_elem.4" = type { %"struct.std::__1::basic_string<char, std::__1::char_traits<char>, std::__1::allocator<char> >::__rep" }
%"struct.std::__1::basic_string<char, std::__1::char_traits<char>, std::__1::allocator<char> >::__rep" = type { %union.anon }
%union.anon = type { %"struct.std::__1::basic_string<char, std::__1::char_traits<char>, std::__1::allocator<char> >::__long" }
%"struct.std::__1::basic_string<char, std::__1::char_traits<char>, std::__1::allocator<char> >::__long" = type { i8*, i64, i64 }
%"class.mojo::InlinedStructPtr" = type { %"class.bluetooth::mojom::RSSIWrapper", i32 }
%"class.bluetooth::mojom::RSSIWrapper" = type { i8 }
%"class.std::__1::vector.36" = type { %"class.std::__1::__vector_base.37" }
%"class.std::__1::__vector_base.37" = type { %"class.device::BluetoothUUID"*, %"class.device::BluetoothUUID"*, %"class.std::__1::__compressed_pair.38" }
%"class.device::BluetoothUUID" = type { i32, %"class.std::__1::basic_string", %"class.std::__1::basic_string" }
%"class.std::__1::__compressed_pair.38" = type { %"struct.std::__1::__compressed_pair_elem.39" }
%"struct.std::__1::__compressed_pair_elem.39" = type { %"class.device::BluetoothUUID"* }
%"class.base::flat_map" = type { %"class.base::internal::flat_tree" }
%"class.base::internal::flat_tree" = type { %"class.std::__1::vector.43" }
%"class.std::__1::vector.43" = type { %"class.std::__1::__vector_base.44" }
%"class.std::__1::__vector_base.44" = type { %"struct.std::__1::pair"*, %"struct.std::__1::pair"*, %"class.std::__1::__compressed_pair.45" }
%"struct.std::__1::pair" = type { i16, %"class.std::__1::vector.104" }
%"class.std::__1::vector.104" = type { %"class.std::__1::__vector_base.105" }
%"class.std::__1::__vector_base.105" = type { i8*, i8*, %"class.std::__1::__compressed_pair.106" }
%"class.std::__1::__compressed_pair.106" = type { %"struct.std::__1::__compressed_pair_elem.107" }
%"struct.std::__1::__compressed_pair_elem.107" = type { i8* }
%"class.std::__1::__compressed_pair.45" = type { %"struct.std::__1::__compressed_pair_elem.46" }
%"struct.std::__1::__compressed_pair_elem.46" = type { %"struct.std::__1::pair"* }
%"class.base::flat_map.50" = type { %"class.base::internal::flat_tree.51" }
%"class.base::internal::flat_tree.51" = type { %"class.std::__1::vector.52" }
%"class.std::__1::vector.52" = type { %"class.std::__1::__vector_base.53" }
%"class.std::__1::__vector_base.53" = type { %"struct.std::__1::pair.54"*, %"struct.std::__1::pair.54"*, %"class.std::__1::__compressed_pair.55" }
%"struct.std::__1::pair.54" = type { %"class.device::BluetoothUUID", %"class.std::__1::vector.104" }
%"class.std::__1::__compressed_pair.55" = type { %"struct.std::__1::__compressed_pair_elem.56" }
%"struct.std::__1::__compressed_pair_elem.56" = type { %"struct.std::__1::pair.54"* }
%"class.bluetooth::mojom::AdapterInfo" = type <{ %"class.std::__1::basic_string", %"class.std::__1::basic_string", %"class.std::__1::basic_string", i8, i8, i8, i8, i8, [3 x i8] }>
%"class.bluetooth::mojom::AdvertisementProxy" = type { %"class.bluetooth::mojom::Advertisement", %"class.mojo::MessageReceiverWithResponder"* }
%"class.bluetooth::mojom::Advertisement" = type { i32 (...)** }
%"class.mojo::MessageReceiverWithResponder" = type { %"class.mojo::MessageReceiver" }
%"class.mojo::MessageReceiver" = type { i32 (...)** }
%"class.bluetooth::mojom::DiscoverySessionProxy" = type { %"class.bluetooth::mojom::DiscoverySession", %"class.mojo::MessageReceiverWithResponder"* }
%"class.bluetooth::mojom::DiscoverySession" = type { i32 (...)** }
%"class.bluetooth::mojom::SocketProxy" = type { %"class.bluetooth::mojom::Socket", %"class.mojo::MessageReceiverWithResponder"* }
%"class.bluetooth::mojom::Socket" = type { i32 (...)** }
%"class.bluetooth::mojom::ServerSocketProxy" = type { %"class.bluetooth::mojom::ServerSocket", %"class.mojo::MessageReceiverWithResponder"* }
%"class.bluetooth::mojom::ServerSocket" = type { i32 (...)** }
%"class.bluetooth::mojom::AdapterProxy" = type { %"class.bluetooth::mojom::Adapter", %"class.mojo::MessageReceiverWithResponder"* }
%"class.bluetooth::mojom::Adapter" = type { i32 (...)** }
%"class.bluetooth::mojom::AdapterObserverProxy" = type { %"class.bluetooth::mojom::AdapterObserver", %"class.mojo::MessageReceiverWithResponder"* }
%"class.bluetooth::mojom::AdapterObserver" = type { i32 (...)** }
%"class.perfetto::TracedValue" = type <{ %"class.perfetto::protos::pbzero::DebugAnnotation"*, %"class.perfetto::internal::CheckedScope", [7 x i8] }>
%"class.perfetto::protos::pbzero::DebugAnnotation" = type { %"class.protozero::Message.base", [7 x i8] }
%"class.protozero::Message.base" = type <{ %"class.protozero::ScatteredStreamWriter"*, %"class.protozero::MessageArena"*, %"class.protozero::Message"*, i8*, i32, i32, i8 }>
%"class.protozero::ScatteredStreamWriter" = type { %"class.protozero::ScatteredStreamWriter::Delegate"*, %"struct.protozero::ContiguousMemoryRange", i8*, i64 }
%"class.protozero::ScatteredStreamWriter::Delegate" = type { i32 (...)** }
%"struct.protozero::ContiguousMemoryRange" = type { i8*, i8* }
%"class.protozero::MessageArena" = type { %"class.std::__1::list" }
%"class.std::__1::list" = type { %"class.std::__1::__list_imp" }
%"class.std::__1::__list_imp" = type { %"struct.std::__1::__list_node_base", %"class.std::__1::__compressed_pair" }
%"struct.std::__1::__list_node_base" = type { %"struct.std::__1::__list_node_base"*, %"struct.std::__1::__list_node_base"* }
%"class.std::__1::__compressed_pair" = type { %"struct.std::__1::__compressed_pair_elem" }
%"struct.std::__1::__compressed_pair_elem" = type { i64 }
%"class.protozero::Message" = type <{ %"class.protozero::ScatteredStreamWriter"*, %"class.protozero::MessageArena"*, %"class.protozero::Message"*, i8*, i32, i32, i8, [7 x i8] }>
%"class.perfetto::internal::CheckedScope" = type { i8 }
%"class.perfetto::TracedDictionary" = type <{ %"class.protozero::Message"*, i32, %"class.perfetto::internal::CheckedScope", [3 x i8] }>
%"struct.std::__1::basic_string<char, std::__1::char_traits<char>, std::__1::allocator<char> >::__short" = type { [23 x i8], %struct.anon }
%struct.anon = type { i8 }
%"struct.std::__1::__murmur2_or_cityhash" = type { i8 }
%"class.bluetooth::mojom::internal::Advertisement_Unregister_Params_Data" = type { %"struct.mojo::internal::StructHeader" }
%"struct.mojo::internal::StructHeader" = type { i32, i32 }
%"class.base::OnceCallback" = type { %"class.base::internal::CallbackBase" }
%"class.bluetooth::mojom::Advertisement_Unregister_ForwardToCallback" = type { %"class.mojo::MessageReceiver", %"class.base::OnceCallback" }
%"class.bluetooth::mojom::Advertisement_Unregister_ProxyToResponder" = type { i64, i8, %"class.std::__1::unique_ptr.67" }
%"class.std::__1::unique_ptr.67" = type { %"class.std::__1::__compressed_pair.68" }
%"class.std::__1::__compressed_pair.68" = type { %"struct.std::__1::__compressed_pair_elem.69" }
%"struct.std::__1::__compressed_pair_elem.69" = type { %"class.mojo::MessageReceiverWithStatus"* }
%"class.mojo::MessageReceiverWithStatus" = type { %"class.mojo::MessageReceiver" }
%"class.bluetooth::mojom::internal::Advertisement_Unregister_ResponseParams_Data" = type { %"struct.mojo::internal::StructHeader" }
%"struct.mojo::internal::MessageHeaderV1" = type { %"struct.mojo::internal::MessageHeader", i64 }
%"struct.mojo::internal::MessageHeader" = type { %"struct.mojo::internal::StructHeader", i32, i32, i32, i32 }
%"class.bluetooth::mojom::Advertisement_Unregister_HandleSyncResponse" = type { %"class.mojo::MessageReceiver", i8* }
%"class.base::TaskAnnotator::ScopedSetIpcHash" = type { %"class.base::TaskAnnotator::ScopedSetIpcHash"*, i32, i8* }
%"class.bluetooth::mojom::AdvertisementRequestValidator" = type { %"class.mojo::MessageReceiver" }
%"class.bluetooth::mojom::AdvertisementResponseValidator" = type { %"class.mojo::MessageReceiver" }
%"class.bluetooth::mojom::internal::DiscoverySession_IsActive_Params_Data" = type { %"struct.mojo::internal::StructHeader" }
%"class.base::OnceCallback.76" = type { %"class.base::internal::CallbackBase" }
%"class.bluetooth::mojom::internal::DiscoverySession_Stop_Params_Data" = type { %"struct.mojo::internal::StructHeader" }
%"class.bluetooth::mojom::DiscoverySession_IsActive_ForwardToCallback" = type { %"class.mojo::MessageReceiver", %"class.base::OnceCallback.76" }
%"class.bluetooth::mojom::DiscoverySession_IsActive_ProxyToResponder" = type { i64, i8, %"class.std::__1::unique_ptr.67" }
%"class.bluetooth::mojom::internal::DiscoverySession_IsActive_ResponseParams_Data" = type { %"struct.mojo::internal::StructHeader", i8, [7 x i8] }
%"class.bluetooth::mojom::DiscoverySession_IsActive_HandleSyncResponse" = type { %"class.mojo::MessageReceiver", i8*, i8* }
%"class.bluetooth::mojom::DiscoverySession_Stop_ForwardToCallback" = type { %"class.mojo::MessageReceiver", %"class.base::OnceCallback.76" }
%"class.bluetooth::mojom::DiscoverySession_Stop_ProxyToResponder" = type { i64, i8, %"class.std::__1::unique_ptr.67" }
%"class.bluetooth::mojom::internal::DiscoverySession_Stop_ResponseParams_Data" = type { %"struct.mojo::internal::StructHeader", i8, [7 x i8] }
%"class.bluetooth::mojom::DiscoverySession_Stop_HandleSyncResponse" = type { %"class.mojo::MessageReceiver", i8*, i8* }
%"class.bluetooth::mojom::DiscoverySessionRequestValidator" = type { %"class.mojo::MessageReceiver" }
%"class.bluetooth::mojom::DiscoverySessionResponseValidator" = type { %"class.mojo::MessageReceiver" }
%"class.bluetooth::mojom::internal::Socket_Disconnect_Params_Data" = type { %"struct.mojo::internal::StructHeader" }
%"class.bluetooth::mojom::Socket_Disconnect_ForwardToCallback" = type { %"class.mojo::MessageReceiver", %"class.base::OnceCallback" }
%"class.bluetooth::mojom::Socket_Disconnect_ProxyToResponder" = type { i64, i8, %"class.std::__1::unique_ptr.67" }
%"class.bluetooth::mojom::internal::Socket_Disconnect_ResponseParams_Data" = type { %"struct.mojo::internal::StructHeader" }
%"class.bluetooth::mojom::Socket_Disconnect_HandleSyncResponse" = type { %"class.mojo::MessageReceiver", i8* }
%"class.bluetooth::mojom::SocketRequestValidator" = type { %"class.mojo::MessageReceiver" }
%"class.bluetooth::mojom::SocketResponseValidator" = type { %"class.mojo::MessageReceiver" }
%"class.mojo::StructPtr.82" = type { %"class.std::__1::unique_ptr.83" }
%"class.std::__1::unique_ptr.83" = type { %"class.std::__1::__compressed_pair.84" }
%"class.std::__1::__compressed_pair.84" = type { %"struct.std::__1::__compressed_pair_elem.85" }
%"struct.std::__1::__compressed_pair_elem.85" = type { %"class.bluetooth::mojom::AcceptConnectionResult"* }
%"class.bluetooth::mojom::internal::ServerSocket_Accept_Params_Data" = type { %"struct.mojo::internal::StructHeader" }
%"class.base::OnceCallback.90" = type { %"class.base::internal::CallbackBase" }
%"class.bluetooth::mojom::internal::ServerSocket_Disconnect_Params_Data" = type { %"struct.mojo::internal::StructHeader" }
%"class.bluetooth::mojom::ServerSocket_Accept_ForwardToCallback" = type { %"class.mojo::MessageReceiver", %"class.base::OnceCallback.90" }
%"class.bluetooth::mojom::ServerSocket_Accept_ResponseParamsDataView" = type { %"class.bluetooth::mojom::internal::ServerSocket_Accept_ResponseParams_Data"*, %"class.mojo::Message"* }
%"class.bluetooth::mojom::internal::ServerSocket_Accept_ResponseParams_Data" = type { %"struct.mojo::internal::StructHeader", %"struct.mojo::internal::Pointer" }
%"struct.mojo::internal::Pointer" = type { i64 }
%"class.bluetooth::mojom::internal::AcceptConnectionResult_Data" = type { %"struct.mojo::internal::StructHeader", %"struct.mojo::internal::Pointer.94", %"struct.mojo::internal::Interface_Data", %"struct.mojo::internal::Handle_Data", %"struct.mojo::internal::Handle_Data" }
%"struct.mojo::internal::Pointer.94" = type { i64 }
%"struct.mojo::internal::Interface_Data" = type { %"struct.mojo::internal::Handle_Data", i32 }
%"struct.mojo::internal::Handle_Data" = type { i32 }
%"class.bluetooth::mojom::ServerSocket_Accept_ProxyToResponder" = type { i64, i8, %"class.std::__1::unique_ptr.67" }
%"class.mojo::internal::MessageFragment.93" = type { %"class.mojo::Message"*, i64 }
%"class.bluetooth::mojom::ServerSocket_Accept_HandleSyncResponse" = type { %"class.mojo::MessageReceiver", i8*, %"class.mojo::StructPtr.82"* }
%"class.bluetooth::mojom::ServerSocket_Disconnect_ForwardToCallback" = type { %"class.mojo::MessageReceiver", %"class.base::OnceCallback" }
%"class.bluetooth::mojom::ServerSocket_Disconnect_ProxyToResponder" = type { i64, i8, %"class.std::__1::unique_ptr.67" }
%"class.bluetooth::mojom::internal::ServerSocket_Disconnect_ResponseParams_Data" = type { %"struct.mojo::internal::StructHeader" }
%"class.bluetooth::mojom::ServerSocket_Disconnect_HandleSyncResponse" = type { %"class.mojo::MessageReceiver", i8* }
%"class.bluetooth::mojom::ServerSocketRequestValidator" = type { %"class.mojo::MessageReceiver" }
%"class.bluetooth::mojom::ServerSocketResponseValidator" = type { %"class.mojo::MessageReceiver" }
%"class.mojo::StructPtr.96" = type { %"class.std::__1::unique_ptr.97" }
%"class.std::__1::unique_ptr.97" = type { %"class.std::__1::__compressed_pair.98" }
%"class.std::__1::__compressed_pair.98" = type { %"struct.std::__1::__compressed_pair_elem.99" }
%"struct.std::__1::__compressed_pair_elem.99" = type { %"class.bluetooth::mojom::AdapterInfo"* }
%"class.mojo::PendingRemote.103" = type { %"struct.mojo::internal::PendingRemoteState" }
%"class.mojo::PendingRemote.111" = type { %"struct.mojo::internal::PendingRemoteState" }
%"class.mojo::PendingRemote.112" = type { %"struct.mojo::internal::PendingRemoteState" }
%"class.mojo::StructPtr.113" = type { %"class.std::__1::unique_ptr.114" }
%"class.std::__1::unique_ptr.114" = type { %"class.std::__1::__compressed_pair.115" }
%"class.std::__1::__compressed_pair.115" = type { %"struct.std::__1::__compressed_pair_elem.116" }
%"struct.std::__1::__compressed_pair_elem.116" = type { %"class.bluetooth::mojom::ConnectToServiceResult"* }
%"class.mojo::PendingRemote.120" = type { %"struct.mojo::internal::PendingRemoteState" }
%"class.base::OnceCallback.121" = type { %"class.base::internal::CallbackBase" }
%"class.mojo::internal::MessageFragment.123" = type { %"class.mojo::Message"*, i64 }
%"class.bluetooth::mojom::internal::Adapter_ConnectToDevice_Params_Data" = type { %"struct.mojo::internal::StructHeader", %"struct.mojo::internal::Pointer.124" }
%"struct.mojo::internal::Pointer.124" = type { i64 }
%"class.mojo::internal::Array_Data" = type { %"struct.mojo::internal::ArrayHeader" }
%"struct.mojo::internal::ArrayHeader" = type { i32, i32 }
%"class.base::OnceCallback.125" = type { %"class.base::internal::CallbackBase" }
%"class.bluetooth::mojom::internal::Adapter_GetDevices_Params_Data" = type { %"struct.mojo::internal::StructHeader" }
%"class.bluetooth::mojom::internal::Adapter_GetInfo_Params_Data" = type { %"struct.mojo::internal::StructHeader" }
%"class.base::OnceCallback.128" = type { %"class.base::internal::CallbackBase" }
%"class.bluetooth::mojom::internal::Adapter_AddObserver_Params_Data" = type { %"struct.mojo::internal::StructHeader", %"struct.mojo::internal::Interface_Data" }
%"class.mojo::internal::ContainerValidateParams" = type { i32, i8, %"class.mojo::internal::ContainerValidateParams"*, %"class.mojo::internal::ContainerValidateParams"*, i1 (i32, %"class.mojo::internal::ValidationContext"*)* }
%"class.bluetooth::mojom::internal::Adapter_RegisterAdvertisement_Params_Data" = type { %"struct.mojo::internal::StructHeader", %"struct.mojo::internal::Pointer.132", %"struct.mojo::internal::Pointer.133", i8, [7 x i8] }
%"struct.mojo::internal::Pointer.132" = type { i64 }
%"struct.mojo::internal::Pointer.133" = type { i64 }
%"class.bluetooth::mojom::internal::UUID_Data" = type { %"struct.mojo::internal::StructHeader", %"struct.mojo::internal::Pointer.124" }
%"class.mojo::internal::Array_Data.135" = type { %"struct.mojo::internal::ArrayHeader" }
%"class.base::OnceCallback.136" = type { %"class.base::internal::CallbackBase" }
%"class.bluetooth::mojom::internal::Adapter_SetDiscoverable_Params_Data" = type { %"struct.mojo::internal::StructHeader", i8, [7 x i8] }
%"class.bluetooth::mojom::internal::Adapter_SetName_Params_Data" = type { %"struct.mojo::internal::StructHeader", %"struct.mojo::internal::Pointer.124" }
%"class.bluetooth::mojom::internal::Adapter_StartDiscoverySession_Params_Data" = type { %"struct.mojo::internal::StructHeader" }
%"class.base::OnceCallback.140" = type { %"class.base::internal::CallbackBase" }
%"class.bluetooth::mojom::internal::Adapter_ConnectToServiceInsecurely_Params_Data" = type { %"struct.mojo::internal::StructHeader", %"struct.mojo::internal::Pointer.124", %"struct.mojo::internal::Pointer.132" }
%"class.base::OnceCallback.142" = type { %"class.base::internal::CallbackBase" }
%"class.bluetooth::mojom::internal::Adapter_CreateRfcommServiceInsecurely_Params_Data" = type { %"struct.mojo::internal::StructHeader", %"struct.mojo::internal::Pointer.124", %"struct.mojo::internal::Pointer.132" }
%"class.base::OnceCallback.144" = type { %"class.base::internal::CallbackBase" }
%"class.bluetooth::mojom::Adapter_ConnectToDevice_ForwardToCallback" = type { %"class.mojo::MessageReceiver", %"class.base::OnceCallback.121" }
%"class.bluetooth::mojom::Adapter_ConnectToDevice_ResponseParamsDataView" = type { %"class.bluetooth::mojom::internal::Adapter_ConnectToDevice_ResponseParams_Data"*, %"class.mojo::Message"* }
%"class.bluetooth::mojom::internal::Adapter_ConnectToDevice_ResponseParams_Data" = type { %"struct.mojo::internal::StructHeader", i32, %"struct.mojo::internal::Interface_Data", [4 x i8] }
%"class.mojo::PendingRemote.145" = type { %"struct.mojo::internal::PendingRemoteState" }
%"class.bluetooth::mojom::Adapter_ConnectToDevice_ProxyToResponder" = type { i64, i8, %"class.std::__1::unique_ptr.67" }
%"class.bluetooth::mojom::Adapter_GetDevices_ForwardToCallback" = type { %"class.mojo::MessageReceiver", %"class.base::OnceCallback.125" }
%"class.std::__1::vector.148" = type { %"class.std::__1::__vector_base.149" }
%"class.std::__1::__vector_base.149" = type { %"class.mojo::StructPtr"*, %"class.mojo::StructPtr"*, %"class.std::__1::__compressed_pair.150" }
%"class.std::__1::__compressed_pair.150" = type { %"struct.std::__1::__compressed_pair_elem.151" }
%"struct.std::__1::__compressed_pair_elem.151" = type { %"class.mojo::StructPtr"* }
%"class.mojo::internal::Array_Data.157" = type { %"struct.mojo::internal::ArrayHeader" }
%"class.bluetooth::mojom::internal::DeviceInfo_Data" = type { %"struct.mojo::internal::StructHeader", %"struct.mojo::internal::Pointer.124", %"struct.mojo::internal::Pointer.124", %"struct.mojo::internal::Pointer.124", i8, [7 x i8], %"struct.mojo::internal::Pointer.176", %"struct.mojo::internal::Pointer.177", %"struct.mojo::internal::Pointer.178", %"struct.mojo::internal::Pointer.179" }
%"struct.mojo::internal::Pointer.176" = type { i64 }
%"struct.mojo::internal::Pointer.177" = type { i64 }
%"struct.mojo::internal::Pointer.178" = type { i64 }
%"struct.mojo::internal::Pointer.179" = type { i64 }
%"class.bluetooth::mojom::Adapter_GetDevices_ProxyToResponder" = type { i64, i8, %"class.std::__1::unique_ptr.67" }
%"class.mojo::internal::MessageFragment.175" = type { %"class.mojo::Message"*, i64 }
%"class.bluetooth::mojom::internal::Adapter_GetDevices_ResponseParams_Data" = type { %"struct.mojo::internal::StructHeader", %"struct.mojo::internal::Pointer.147" }
%"struct.mojo::internal::Pointer.147" = type { i64 }
%"class.bluetooth::mojom::Adapter_GetInfo_ForwardToCallback" = type { %"class.mojo::MessageReceiver", %"class.base::OnceCallback.128" }
%"class.bluetooth::mojom::internal::AdapterInfo_Data" = type { %"struct.mojo::internal::StructHeader", %"struct.mojo::internal::Pointer.124", %"struct.mojo::internal::Pointer.124", %"struct.mojo::internal::Pointer.124", i8, [7 x i8] }
%"class.bluetooth::mojom::Adapter_GetInfo_ProxyToResponder" = type { i64, i8, %"class.std::__1::unique_ptr.67" }
%"class.mojo::internal::MessageFragment.160" = type { %"class.mojo::Message"*, i64 }
%"class.bluetooth::mojom::internal::Adapter_GetInfo_ResponseParams_Data" = type { %"struct.mojo::internal::StructHeader", %"struct.mojo::internal::Pointer.158" }
%"struct.mojo::internal::Pointer.158" = type { i64 }
%"class.bluetooth::mojom::Adapter_GetInfo_HandleSyncResponse" = type { %"class.mojo::MessageReceiver", i8*, %"class.mojo::StructPtr.96"* }
%"class.bluetooth::mojom::Adapter_AddObserver_ForwardToCallback" = type { %"class.mojo::MessageReceiver", %"class.base::OnceCallback" }
%"class.bluetooth::mojom::Adapter_AddObserver_ProxyToResponder" = type { i64, i8, %"class.std::__1::unique_ptr.67" }
%"class.bluetooth::mojom::internal::Adapter_AddObserver_ResponseParams_Data" = type { %"struct.mojo::internal::StructHeader" }
%"class.bluetooth::mojom::Adapter_AddObserver_HandleSyncResponse" = type { %"class.mojo::MessageReceiver", i8* }
%"class.bluetooth::mojom::Adapter_RegisterAdvertisement_ForwardToCallback" = type { %"class.mojo::MessageReceiver", %"class.base::OnceCallback.136" }
%"class.bluetooth::mojom::Adapter_RegisterAdvertisement_ResponseParamsDataView" = type { %"class.bluetooth::mojom::internal::Adapter_RegisterAdvertisement_ResponseParams_Data"*, %"class.mojo::Message"* }
%"class.bluetooth::mojom::internal::Adapter_RegisterAdvertisement_ResponseParams_Data" = type { %"struct.mojo::internal::StructHeader", %"struct.mojo::internal::Interface_Data" }
%"class.bluetooth::mojom::Adapter_RegisterAdvertisement_ProxyToResponder" = type { i64, i8, %"class.std::__1::unique_ptr.67" }
%"class.bluetooth::mojom::Adapter_RegisterAdvertisement_HandleSyncResponse" = type { %"class.mojo::MessageReceiver", i8*, %"class.mojo::PendingRemote.111"* }
%"class.bluetooth::mojom::Adapter_SetDiscoverable_ForwardToCallback" = type { %"class.mojo::MessageReceiver", %"class.base::OnceCallback.76" }
%"class.bluetooth::mojom::Adapter_SetDiscoverable_ProxyToResponder" = type { i64, i8, %"class.std::__1::unique_ptr.67" }
%"class.bluetooth::mojom::internal::Adapter_SetDiscoverable_ResponseParams_Data" = type { %"struct.mojo::internal::StructHeader", i8, [7 x i8] }
%"class.bluetooth::mojom::Adapter_SetDiscoverable_HandleSyncResponse" = type { %"class.mojo::MessageReceiver", i8*, i8* }
%"class.bluetooth::mojom::Adapter_SetName_ForwardToCallback" = type { %"class.mojo::MessageReceiver", %"class.base::OnceCallback.76" }
%"class.bluetooth::mojom::Adapter_SetName_ProxyToResponder" = type { i64, i8, %"class.std::__1::unique_ptr.67" }
%"class.bluetooth::mojom::internal::Adapter_SetName_ResponseParams_Data" = type { %"struct.mojo::internal::StructHeader", i8, [7 x i8] }
%"class.bluetooth::mojom::Adapter_SetName_HandleSyncResponse" = type { %"class.mojo::MessageReceiver", i8*, i8* }
%"class.bluetooth::mojom::Adapter_StartDiscoverySession_ForwardToCallback" = type { %"class.mojo::MessageReceiver", %"class.base::OnceCallback.140" }
%"class.bluetooth::mojom::Adapter_StartDiscoverySession_ResponseParamsDataView" = type { %"class.bluetooth::mojom::internal::Adapter_StartDiscoverySession_ResponseParams_Data"*, %"class.mojo::Message"* }
%"class.bluetooth::mojom::internal::Adapter_StartDiscoverySession_ResponseParams_Data" = type { %"struct.mojo::internal::StructHeader", %"struct.mojo::internal::Interface_Data" }
%"class.bluetooth::mojom::Adapter_StartDiscoverySession_ProxyToResponder" = type { i64, i8, %"class.std::__1::unique_ptr.67" }
%"class.bluetooth::mojom::Adapter_StartDiscoverySession_HandleSyncResponse" = type { %"class.mojo::MessageReceiver", i8*, %"class.mojo::PendingRemote.112"* }
%"class.bluetooth::mojom::Adapter_ConnectToServiceInsecurely_ForwardToCallback" = type { %"class.mojo::MessageReceiver", %"class.base::OnceCallback.142" }
%"class.bluetooth::mojom::internal::ConnectToServiceResult_Data" = type { %"struct.mojo::internal::StructHeader", %"struct.mojo::internal::Interface_Data", %"struct.mojo::internal::Handle_Data", %"struct.mojo::internal::Handle_Data" }
%"class.bluetooth::mojom::Adapter_ConnectToServiceInsecurely_ProxyToResponder" = type { i64, i8, %"class.std::__1::unique_ptr.67" }
%"class.mojo::internal::MessageFragment.168" = type { %"class.mojo::Message"*, i64 }
%"class.bluetooth::mojom::internal::Adapter_ConnectToServiceInsecurely_ResponseParams_Data" = type { %"struct.mojo::internal::StructHeader", %"struct.mojo::internal::Pointer.166" }
%"struct.mojo::internal::Pointer.166" = type { i64 }
%"class.bluetooth::mojom::Adapter_ConnectToServiceInsecurely_HandleSyncResponse" = type { %"class.mojo::MessageReceiver", i8*, %"class.mojo::StructPtr.113"* }
%"class.bluetooth::mojom::Adapter_CreateRfcommServiceInsecurely_ForwardToCallback" = type { %"class.mojo::MessageReceiver", %"class.base::OnceCallback.144" }
%"class.bluetooth::mojom::Adapter_CreateRfcommServiceInsecurely_ResponseParamsDataView" = type { %"class.bluetooth::mojom::internal::Adapter_CreateRfcommServiceInsecurely_ResponseParams_Data"*, %"class.mojo::Message"* }
%"class.bluetooth::mojom::internal::Adapter_CreateRfcommServiceInsecurely_ResponseParams_Data" = type { %"struct.mojo::internal::StructHeader", %"struct.mojo::internal::Interface_Data" }
%"class.bluetooth::mojom::Adapter_CreateRfcommServiceInsecurely_ProxyToResponder" = type { i64, i8, %"class.std::__1::unique_ptr.67" }
%"class.bluetooth::mojom::Adapter_CreateRfcommServiceInsecurely_HandleSyncResponse" = type { %"class.mojo::MessageReceiver", i8*, %"class.mojo::PendingRemote.120"* }
%"class.bluetooth::mojom::Adapter_AddObserver_ParamsDataView" = type { %"class.bluetooth::mojom::internal::Adapter_AddObserver_Params_Data"*, %"class.mojo::Message"* }
%"class.bluetooth::mojom::AdapterRequestValidator" = type { %"class.mojo::MessageReceiver" }
%"class.bluetooth::mojom::AdapterResponseValidator" = type { %"class.mojo::MessageReceiver" }
%"class.bluetooth::mojom::internal::AdapterObserver_PresentChanged_Params_Data" = type { %"struct.mojo::internal::StructHeader", i8, [7 x i8] }
%"class.bluetooth::mojom::internal::AdapterObserver_PoweredChanged_Params_Data" = type { %"struct.mojo::internal::StructHeader", i8, [7 x i8] }
%"class.bluetooth::mojom::internal::AdapterObserver_DiscoverableChanged_Params_Data" = type { %"struct.mojo::internal::StructHeader", i8, [7 x i8] }
%"class.bluetooth::mojom::internal::AdapterObserver_DiscoveringChanged_Params_Data" = type { %"struct.mojo::internal::StructHeader", i8, [7 x i8] }
%"class.bluetooth::mojom::internal::AdapterObserver_DeviceAdded_Params_Data" = type { %"struct.mojo::internal::StructHeader", %"struct.mojo::internal::Pointer.94" }
%"class.bluetooth::mojom::internal::AdapterObserver_DeviceChanged_Params_Data" = type { %"struct.mojo::internal::StructHeader", %"struct.mojo::internal::Pointer.94" }
%"class.bluetooth::mojom::internal::AdapterObserver_DeviceRemoved_Params_Data" = type { %"struct.mojo::internal::StructHeader", %"struct.mojo::internal::Pointer.94" }
%"class.bluetooth::mojom::AdapterObserverRequestValidator" = type { %"class.mojo::MessageReceiver" }
%"class.bluetooth::mojom::ConnectToServiceResultDataView" = type { %"class.bluetooth::mojom::internal::ConnectToServiceResult_Data"*, %"class.mojo::Message"* }
%"class.bluetooth::mojom::AcceptConnectionResultDataView" = type { %"class.bluetooth::mojom::internal::AcceptConnectionResult_Data"*, %"class.mojo::Message"* }
%"class.mojo::internal::ArrayIterator" = type { %"class.std::__1::vector.36"*, i64 }
%"class.mojo::internal::MessageFragment.364" = type { %"class.mojo::Message"*, i64 }
%"class.mojo::internal::MessageFragment.366" = type { %"class.mojo::Message"*, i64 }
%"class.mojo::internal::MessageFragment.369" = type { %"class.mojo::Message"*, i64 }
%"class.bluetooth::mojom::internal::RSSIWrapper_Data" = type { %"struct.mojo::internal::StructHeader", i8, [7 x i8] }
%"class.mojo::internal::Array_Data.365" = type { %"struct.mojo::internal::ArrayHeader" }
%"class.mojo::internal::Map_Data" = type { %"struct.mojo::internal::StructHeader", %"struct.mojo::internal::Pointer.367", %"struct.mojo::internal::Pointer.368" }
%"struct.mojo::internal::Pointer.367" = type { i64 }
%"struct.mojo::internal::Pointer.368" = type { i64 }
%"class.mojo::internal::Map_Data.370" = type { %"struct.mojo::internal::StructHeader", %"struct.mojo::internal::Pointer.177", %"struct.mojo::internal::Pointer.368" }
%"class.mojo::internal::Array_Data.374" = type { %"struct.mojo::internal::ArrayHeader" }
%"class.mojo::internal::MapKeyReader.378" = type { %"class.mojo::internal::MapReaderBase.379" }
%"class.mojo::internal::MapReaderBase.379" = type { %"class.base::flat_map.50"*, %"class.std::__1::__wrap_iter.380" }
%"class.std::__1::__wrap_iter.380" = type { %"struct.std::__1::pair.54"* }

$_ZN9bluetooth5mojom42ServerSocket_Accept_ResponseParamsDataView10ReadResultIN4mojo9StructPtrINS0_22AcceptConnectionResultEEEEEbPT_ = comdat any

$_ZN4mojo8internal23ContainerValidateParamsD2Ev = comdat any

$_ZN9bluetooth5mojom46Adapter_ConnectToDevice_ResponseParamsDataView10TakeDeviceIN4mojo13PendingRemoteINS0_6DeviceEEEEET_v = comdat any

$_ZN9bluetooth5mojom52Adapter_RegisterAdvertisement_ResponseParamsDataView17TakeAdvertisementIN4mojo13PendingRemoteINS0_13AdvertisementEEEEET_v = comdat any

$_ZN9bluetooth5mojom52Adapter_StartDiscoverySession_ResponseParamsDataView11TakeSessionIN4mojo13PendingRemoteINS0_16DiscoverySessionEEEEET_v = comdat any

$_ZN9bluetooth5mojom60Adapter_CreateRfcommServiceInsecurely_ResponseParamsDataView16TakeServerSocketIN4mojo13PendingRemoteINS0_12ServerSocketEEEEET_v = comdat any

$_ZN9bluetooth5mojom34Adapter_AddObserver_ParamsDataView12TakeObserverIN4mojo13PendingRemoteINS0_15AdapterObserverEEEEET_v = comdat any

$_ZN9bluetooth5mojom30ConnectToServiceResultDataView10TakeSocketIN4mojo13PendingRemoteINS0_6SocketEEEEET_v = comdat any

$_ZN9bluetooth5mojom30AcceptConnectionResultDataView10TakeSocketIN4mojo13PendingRemoteINS0_6SocketEEEEET_v = comdat any

$_ZN9bluetooth5mojom13AdvertisementD2Ev = comdat any

$_ZN9bluetooth5mojom13AdvertisementD0Ev = comdat any

$_ZN9bluetooth5mojom43Advertisement_Unregister_HandleSyncResponseD0Ev = comdat any

$_ZN9bluetooth5mojom42Advertisement_Unregister_ForwardToCallbackD2Ev = comdat any

$_ZN9bluetooth5mojom42Advertisement_Unregister_ForwardToCallbackD0Ev = comdat any

$_ZN9bluetooth5mojom18AdvertisementProxyD0Ev = comdat any

$_ZN9bluetooth5mojom29AdvertisementRequestValidatorD0Ev = comdat any

$_ZN9bluetooth5mojom30AdvertisementResponseValidatorD0Ev = comdat any

$_ZN9bluetooth5mojom16DiscoverySessionD0Ev = comdat any

$_ZN9bluetooth5mojom44DiscoverySession_IsActive_HandleSyncResponseD0Ev = comdat any

$_ZN9bluetooth5mojom43DiscoverySession_IsActive_ForwardToCallbackD2Ev = comdat any

$_ZN9bluetooth5mojom43DiscoverySession_IsActive_ForwardToCallbackD0Ev = comdat any

$_ZN9bluetooth5mojom40DiscoverySession_Stop_HandleSyncResponseD0Ev = comdat any

$_ZN9bluetooth5mojom39DiscoverySession_Stop_ForwardToCallbackD2Ev = comdat any

$_ZN9bluetooth5mojom39DiscoverySession_Stop_ForwardToCallbackD0Ev = comdat any

$_ZN9bluetooth5mojom16DiscoverySessionD2Ev = comdat any

$_ZN9bluetooth5mojom21DiscoverySessionProxyD0Ev = comdat any

$_ZN9bluetooth5mojom32DiscoverySessionRequestValidatorD0Ev = comdat any

$_ZN9bluetooth5mojom33DiscoverySessionResponseValidatorD0Ev = comdat any

$_ZN9bluetooth5mojom6SocketD2Ev = comdat any

$_ZN9bluetooth5mojom6SocketD0Ev = comdat any

$_ZN9bluetooth5mojom36Socket_Disconnect_HandleSyncResponseD0Ev = comdat any

$_ZN9bluetooth5mojom35Socket_Disconnect_ForwardToCallbackD2Ev = comdat any

$_ZN9bluetooth5mojom35Socket_Disconnect_ForwardToCallbackD0Ev = comdat any

$_ZN9bluetooth5mojom11SocketProxyD0Ev = comdat any

$_ZN4mojo15MessageReceiverD2Ev = comdat any

$_ZN9bluetooth5mojom22SocketRequestValidatorD0Ev = comdat any

$_ZN9bluetooth5mojom23SocketResponseValidatorD0Ev = comdat any

$_ZN9bluetooth5mojom12ServerSocketD0Ev = comdat any

$_ZN9bluetooth5mojom38ServerSocket_Accept_HandleSyncResponseD0Ev = comdat any

$_ZN9bluetooth5mojom37ServerSocket_Accept_ForwardToCallbackD2Ev = comdat any

$_ZN9bluetooth5mojom37ServerSocket_Accept_ForwardToCallbackD0Ev = comdat any

$_ZN9bluetooth5mojom42ServerSocket_Disconnect_HandleSyncResponseD0Ev = comdat any

$_ZN9bluetooth5mojom41ServerSocket_Disconnect_ForwardToCallbackD2Ev = comdat any

$_ZN9bluetooth5mojom41ServerSocket_Disconnect_ForwardToCallbackD0Ev = comdat any

$_ZN9bluetooth5mojom12ServerSocketD2Ev = comdat any

$_ZN9bluetooth5mojom17ServerSocketProxyD0Ev = comdat any

$_ZN9bluetooth5mojom28ServerSocketRequestValidatorD0Ev = comdat any

$_ZN9bluetooth5mojom29ServerSocketResponseValidatorD0Ev = comdat any

$_ZN9bluetooth5mojom7AdapterD0Ev = comdat any

$_ZN9bluetooth5mojom41Adapter_ConnectToDevice_ForwardToCallbackD2Ev = comdat any

$_ZN9bluetooth5mojom41Adapter_ConnectToDevice_ForwardToCallbackD0Ev = comdat any

$_ZN9bluetooth5mojom36Adapter_GetDevices_ForwardToCallbackD2Ev = comdat any

$_ZN9bluetooth5mojom36Adapter_GetDevices_ForwardToCallbackD0Ev = comdat any

$_ZN9bluetooth5mojom34Adapter_GetInfo_HandleSyncResponseD0Ev = comdat any

$_ZN9bluetooth5mojom33Adapter_GetInfo_ForwardToCallbackD2Ev = comdat any

$_ZN9bluetooth5mojom33Adapter_GetInfo_ForwardToCallbackD0Ev = comdat any

$_ZN9bluetooth5mojom38Adapter_AddObserver_HandleSyncResponseD0Ev = comdat any

$_ZN9bluetooth5mojom37Adapter_AddObserver_ForwardToCallbackD2Ev = comdat any

$_ZN9bluetooth5mojom37Adapter_AddObserver_ForwardToCallbackD0Ev = comdat any

$_ZN9bluetooth5mojom48Adapter_RegisterAdvertisement_HandleSyncResponseD0Ev = comdat any

$_ZN9bluetooth5mojom47Adapter_RegisterAdvertisement_ForwardToCallbackD2Ev = comdat any

$_ZN9bluetooth5mojom47Adapter_RegisterAdvertisement_ForwardToCallbackD0Ev = comdat any

$_ZN9bluetooth5mojom42Adapter_SetDiscoverable_HandleSyncResponseD0Ev = comdat any

$_ZN9bluetooth5mojom41Adapter_SetDiscoverable_ForwardToCallbackD2Ev = comdat any

$_ZN9bluetooth5mojom41Adapter_SetDiscoverable_ForwardToCallbackD0Ev = comdat any

$_ZN9bluetooth5mojom34Adapter_SetName_HandleSyncResponseD0Ev = comdat any

$_ZN9bluetooth5mojom33Adapter_SetName_ForwardToCallbackD2Ev = comdat any

$_ZN9bluetooth5mojom33Adapter_SetName_ForwardToCallbackD0Ev = comdat any

$_ZN9bluetooth5mojom48Adapter_StartDiscoverySession_HandleSyncResponseD0Ev = comdat any

$_ZN9bluetooth5mojom47Adapter_StartDiscoverySession_ForwardToCallbackD2Ev = comdat any

$_ZN9bluetooth5mojom47Adapter_StartDiscoverySession_ForwardToCallbackD0Ev = comdat any

$_ZN9bluetooth5mojom53Adapter_ConnectToServiceInsecurely_HandleSyncResponseD0Ev = comdat any

$_ZN9bluetooth5mojom52Adapter_ConnectToServiceInsecurely_ForwardToCallbackD2Ev = comdat any

$_ZN9bluetooth5mojom52Adapter_ConnectToServiceInsecurely_ForwardToCallbackD0Ev = comdat any

$_ZN9bluetooth5mojom56Adapter_CreateRfcommServiceInsecurely_HandleSyncResponseD0Ev = comdat any

$_ZN9bluetooth5mojom55Adapter_CreateRfcommServiceInsecurely_ForwardToCallbackD2Ev = comdat any

$_ZN9bluetooth5mojom55Adapter_CreateRfcommServiceInsecurely_ForwardToCallbackD0Ev = comdat any

$_ZN9bluetooth5mojom7AdapterD2Ev = comdat any

$_ZN9bluetooth5mojom12AdapterProxyD0Ev = comdat any

$_ZN9bluetooth5mojom23AdapterRequestValidatorD0Ev = comdat any

$_ZN9bluetooth5mojom24AdapterResponseValidatorD0Ev = comdat any

$_ZN9bluetooth5mojom20AdapterObserverProxyD0Ev = comdat any

$_ZN9bluetooth5mojom31AdapterObserverRequestValidatorD0Ev = comdat any

$_ZN4base8internal7InvokerINS0_9BindStateIMN9bluetooth5mojom41Advertisement_Unregister_ProxyToResponderEFvvEJNSt3__110unique_ptrIS5_NS8_14default_deleteIS5_EEEEEEEFvvEE7RunOnceEPNS0_13BindStateBaseE = comdat any

$_ZN4base8internal9BindStateIMN9bluetooth5mojom41Advertisement_Unregister_ProxyToResponderEFvvEJNSt3__110unique_ptrIS4_NS7_14default_deleteIS4_EEEEEE7DestroyEPKNS0_13BindStateBaseE = comdat any

$_ZN4base8internal7InvokerINS0_9BindStateIMN9bluetooth5mojom42DiscoverySession_IsActive_ProxyToResponderEFvbEJNSt3__110unique_ptrIS5_NS8_14default_deleteIS5_EEEEEEEFvbEE7RunOnceEPNS0_13BindStateBaseEb = comdat any

$_ZN4base8internal9BindStateIMN9bluetooth5mojom42DiscoverySession_IsActive_ProxyToResponderEFvbEJNSt3__110unique_ptrIS4_NS7_14default_deleteIS4_EEEEEE7DestroyEPKNS0_13BindStateBaseE = comdat any

$_ZN4base8internal7InvokerINS0_9BindStateIMN9bluetooth5mojom38DiscoverySession_Stop_ProxyToResponderEFvbEJNSt3__110unique_ptrIS5_NS8_14default_deleteIS5_EEEEEEEFvbEE7RunOnceEPNS0_13BindStateBaseEb = comdat any

$_ZN4base8internal9BindStateIMN9bluetooth5mojom38DiscoverySession_Stop_ProxyToResponderEFvbEJNSt3__110unique_ptrIS4_NS7_14default_deleteIS4_EEEEEE7DestroyEPKNS0_13BindStateBaseE = comdat any

$_ZN4base8internal7InvokerINS0_9BindStateIMN9bluetooth5mojom34Socket_Disconnect_ProxyToResponderEFvvEJNSt3__110unique_ptrIS5_NS8_14default_deleteIS5_EEEEEEEFvvEE7RunOnceEPNS0_13BindStateBaseE = comdat any

$_ZN4base8internal9BindStateIMN9bluetooth5mojom34Socket_Disconnect_ProxyToResponderEFvvEJNSt3__110unique_ptrIS4_NS7_14default_deleteIS4_EEEEEE7DestroyEPKNS0_13BindStateBaseE = comdat any

$_ZN4base8internal7InvokerINS0_9BindStateIMN9bluetooth5mojom36ServerSocket_Accept_ProxyToResponderEFvN4mojo9StructPtrINS4_22AcceptConnectionResultEEEEJNSt3__110unique_ptrIS5_NSC_14default_deleteIS5_EEEEEEEFvS9_EE7RunOnceEPNS0_13BindStateBaseEOS9_ = comdat any

$_ZN4base8internal9BindStateIMN9bluetooth5mojom36ServerSocket_Accept_ProxyToResponderEFvN4mojo9StructPtrINS3_22AcceptConnectionResultEEEEJNSt3__110unique_ptrIS4_NSB_14default_deleteIS4_EEEEEE7DestroyEPKNS0_13BindStateBaseE = comdat any

$_ZN4base8internal7InvokerINS0_9BindStateIMN9bluetooth5mojom40ServerSocket_Disconnect_ProxyToResponderEFvvEJNSt3__110unique_ptrIS5_NS8_14default_deleteIS5_EEEEEEEFvvEE7RunOnceEPNS0_13BindStateBaseE = comdat any

$_ZN4base8internal9BindStateIMN9bluetooth5mojom40ServerSocket_Disconnect_ProxyToResponderEFvvEJNSt3__110unique_ptrIS4_NS7_14default_deleteIS4_EEEEEE7DestroyEPKNS0_13BindStateBaseE = comdat any

$_ZN4base8internal7InvokerINS0_9BindStateIMN9bluetooth5mojom40Adapter_ConnectToDevice_ProxyToResponderEFvNS4_13ConnectResultEN4mojo13PendingRemoteINS4_6DeviceEEEEJNSt3__110unique_ptrIS5_NSD_14default_deleteIS5_EEEEEEEFvS6_SA_EE7RunOnceEPNS0_13BindStateBaseES6_OSA_ = comdat any

$_ZN4base8internal9BindStateIMN9bluetooth5mojom40Adapter_ConnectToDevice_ProxyToResponderEFvNS3_13ConnectResultEN4mojo13PendingRemoteINS3_6DeviceEEEEJNSt3__110unique_ptrIS4_NSC_14default_deleteIS4_EEEEEE7DestroyEPKNS0_13BindStateBaseE = comdat any

$_ZN4base8internal7InvokerINS0_9BindStateIMN9bluetooth5mojom35Adapter_GetDevices_ProxyToResponderEFvNSt3__16vectorIN4mojo9StructPtrINS4_10DeviceInfoEEENS6_9allocatorISB_EEEEEJNS6_10unique_ptrIS5_NS6_14default_deleteIS5_EEEEEEEFvSE_EE7RunOnceEPNS0_13BindStateBaseEOSE_ = comdat any

$_ZN4base8internal9BindStateIMN9bluetooth5mojom35Adapter_GetDevices_ProxyToResponderEFvNSt3__16vectorIN4mojo9StructPtrINS3_10DeviceInfoEEENS5_9allocatorISA_EEEEEJNS5_10unique_ptrIS4_NS5_14default_deleteIS4_EEEEEE7DestroyEPKNS0_13BindStateBaseE = comdat any

$_ZN4base8internal7InvokerINS0_9BindStateIMN9bluetooth5mojom32Adapter_GetInfo_ProxyToResponderEFvN4mojo9StructPtrINS4_11AdapterInfoEEEEJNSt3__110unique_ptrIS5_NSC_14default_deleteIS5_EEEEEEEFvS9_EE7RunOnceEPNS0_13BindStateBaseEOS9_ = comdat any

$_ZN4base8internal9BindStateIMN9bluetooth5mojom32Adapter_GetInfo_ProxyToResponderEFvN4mojo9StructPtrINS3_11AdapterInfoEEEEJNSt3__110unique_ptrIS4_NSB_14default_deleteIS4_EEEEEE7DestroyEPKNS0_13BindStateBaseE = comdat any

$_ZN4base8internal7InvokerINS0_9BindStateIMN9bluetooth5mojom36Adapter_AddObserver_ProxyToResponderEFvvEJNSt3__110unique_ptrIS5_NS8_14default_deleteIS5_EEEEEEEFvvEE7RunOnceEPNS0_13BindStateBaseE = comdat any

$_ZN4base8internal9BindStateIMN9bluetooth5mojom36Adapter_AddObserver_ProxyToResponderEFvvEJNSt3__110unique_ptrIS4_NS7_14default_deleteIS4_EEEEEE7DestroyEPKNS0_13BindStateBaseE = comdat any

$_ZN4base8internal7InvokerINS0_9BindStateIMN9bluetooth5mojom46Adapter_RegisterAdvertisement_ProxyToResponderEFvN4mojo13PendingRemoteINS4_13AdvertisementEEEEJNSt3__110unique_ptrIS5_NSC_14default_deleteIS5_EEEEEEEFvS9_EE7RunOnceEPNS0_13BindStateBaseEOS9_ = comdat any

$_ZN4base8internal9BindStateIMN9bluetooth5mojom46Adapter_RegisterAdvertisement_ProxyToResponderEFvN4mojo13PendingRemoteINS3_13AdvertisementEEEEJNSt3__110unique_ptrIS4_NSB_14default_deleteIS4_EEEEEE7DestroyEPKNS0_13BindStateBaseE = comdat any

$_ZN4base8internal7InvokerINS0_9BindStateIMN9bluetooth5mojom40Adapter_SetDiscoverable_ProxyToResponderEFvbEJNSt3__110unique_ptrIS5_NS8_14default_deleteIS5_EEEEEEEFvbEE7RunOnceEPNS0_13BindStateBaseEb = comdat any

$_ZN4base8internal9BindStateIMN9bluetooth5mojom40Adapter_SetDiscoverable_ProxyToResponderEFvbEJNSt3__110unique_ptrIS4_NS7_14default_deleteIS4_EEEEEE7DestroyEPKNS0_13BindStateBaseE = comdat any

$_ZN4base8internal7InvokerINS0_9BindStateIMN9bluetooth5mojom32Adapter_SetName_ProxyToResponderEFvbEJNSt3__110unique_ptrIS5_NS8_14default_deleteIS5_EEEEEEEFvbEE7RunOnceEPNS0_13BindStateBaseEb = comdat any

$_ZN4base8internal9BindStateIMN9bluetooth5mojom32Adapter_SetName_ProxyToResponderEFvbEJNSt3__110unique_ptrIS4_NS7_14default_deleteIS4_EEEEEE7DestroyEPKNS0_13BindStateBaseE = comdat any

$_ZN4base8internal7InvokerINS0_9BindStateIMN9bluetooth5mojom46Adapter_StartDiscoverySession_ProxyToResponderEFvN4mojo13PendingRemoteINS4_16DiscoverySessionEEEEJNSt3__110unique_ptrIS5_NSC_14default_deleteIS5_EEEEEEEFvS9_EE7RunOnceEPNS0_13BindStateBaseEOS9_ = comdat any

$_ZN4base8internal9BindStateIMN9bluetooth5mojom46Adapter_StartDiscoverySession_ProxyToResponderEFvN4mojo13PendingRemoteINS3_16DiscoverySessionEEEEJNSt3__110unique_ptrIS4_NSB_14default_deleteIS4_EEEEEE7DestroyEPKNS0_13BindStateBaseE = comdat any

$_ZN4base8internal7InvokerINS0_9BindStateIMN9bluetooth5mojom51Adapter_ConnectToServiceInsecurely_ProxyToResponderEFvN4mojo9StructPtrINS4_22ConnectToServiceResultEEEEJNSt3__110unique_ptrIS5_NSC_14default_deleteIS5_EEEEEEEFvS9_EE7RunOnceEPNS0_13BindStateBaseEOS9_ = comdat any

$_ZN4base8internal9BindStateIMN9bluetooth5mojom51Adapter_ConnectToServiceInsecurely_ProxyToResponderEFvN4mojo9StructPtrINS3_22ConnectToServiceResultEEEEJNSt3__110unique_ptrIS4_NSB_14default_deleteIS4_EEEEEE7DestroyEPKNS0_13BindStateBaseE = comdat any

$_ZN4base8internal7InvokerINS0_9BindStateIMN9bluetooth5mojom54Adapter_CreateRfcommServiceInsecurely_ProxyToResponderEFvN4mojo13PendingRemoteINS4_12ServerSocketEEEEJNSt3__110unique_ptrIS5_NSC_14default_deleteIS5_EEEEEEEFvS9_EE7RunOnceEPNS0_13BindStateBaseEOS9_ = comdat any

$_ZN4base8internal9BindStateIMN9bluetooth5mojom54Adapter_CreateRfcommServiceInsecurely_ProxyToResponderEFvN4mojo13PendingRemoteINS3_12ServerSocketEEEEJNSt3__110unique_ptrIS4_NSB_14default_deleteIS4_EEEEEE7DestroyEPKNS0_13BindStateBaseE = comdat any

$_ZN9bluetooth5mojom15AdapterObserverD2Ev = comdat any

$_ZNSt3__121__murmur2_or_cityhashImLm64EEclEPKvm = comdat any

$_ZNSt3__121__murmur2_or_cityhashImLm64EE18__hash_len_0_to_16EPKcm = comdat any

$_ZN4mojo8internal10SerializerIN9bluetooth5mojom30AcceptConnectionResultDataViewENS_9StructPtrINS3_22AcceptConnectionResultEEEE9SerializeERS7_RNS0_15MessageFragmentINS3_8internal27AcceptConnectionResult_DataEEE = comdat any

$_ZN4mojo8internal10SerializerIN9bluetooth5mojom18DeviceInfoDataViewEKNS_9StructPtrINS3_10DeviceInfoEEEE9SerializeERS8_RNS0_15MessageFragmentINS3_8internal15DeviceInfo_DataEEE = comdat any

$_ZN4mojo8internal15ArraySerializerINS_13ArrayDataViewIN9bluetooth5mojom12UUIDDataViewEEEKNSt3__16vectorIN6device13BluetoothUUIDENS7_9allocatorISA_EEEENS0_13ArrayIteratorINS_11ArrayTraitsISD_EESE_Lb0EEEvE17SerializeElementsEPSI_RNS0_15MessageFragmentINS0_10Array_DataINS0_7PointerINS4_8internal9UUID_DataEEEEEEEPKNS0_23ContainerValidateParamsE = comdat any

$_ZN4mojo8internal10SerializerINS_11MapDataViewItNS_13ArrayDataViewIhEEEEKN4base8flat_mapItNSt3__16vectorIhNS8_9allocatorIhEEEENS8_4lessIvEENS9_INS8_4pairItSC_EENSA_ISG_EEEEEEE9SerializeERSK_RNS0_15MessageFragmentINS0_8Map_DataItNS0_7PointerINS0_10Array_DataIhEEEEEEEEPKNS0_23ContainerValidateParamsE = comdat any

$_ZN4mojo8internal10SerializerINS_11MapDataViewIN9bluetooth5mojom12UUIDDataViewENS_13ArrayDataViewIhEEEEKN4base8flat_mapIN6device13BluetoothUUIDENSt3__16vectorIhNSD_9allocatorIhEEEENSD_4lessIvEENSE_INSD_4pairISC_SH_EENSF_ISL_EEEEEEE9SerializeERSP_RNS0_15MessageFragmentINS0_8Map_DataINS0_7PointerINS4_8internal9UUID_DataEEENSU_INS0_10Array_DataIhEEEEEEEEPKNS0_23ContainerValidateParamsE = comdat any

$_ZN4mojo8internal15ArraySerializerINS_13ArrayDataViewIN9bluetooth5mojom12UUIDDataViewEEENSt3__16vectorIN6device13BluetoothUUIDENS7_9allocatorISA_EEEENS0_12MapKeyReaderIKN4base8flat_mapISA_NS8_IhNSB_IhEEEENS7_4lessIvEENS8_INS7_4pairISA_SI_EENSB_ISM_EEEEEEEEvE17SerializeElementsEPSR_RNS0_15MessageFragmentINS0_10Array_DataINS0_7PointerINS4_8internal9UUID_DataEEEEEEEPKNS0_23ContainerValidateParamsE = comdat any

$_ZN4mojo8internal10SerializerINS_14StringDataViewEKNSt3__112basic_stringIcNS3_11char_traitsIcEENS3_9allocatorIcEEEEE9SerializeERSA_RNS0_15MessageFragmentINS0_10Array_DataIcEEEE = comdat any

$_ZN4mojo8internal10SerializerIN9bluetooth5mojom19AdapterInfoDataViewENS_9StructPtrINS3_11AdapterInfoEEEE9SerializeERS7_RNS0_15MessageFragmentINS3_8internal16AdapterInfo_DataEEE = comdat any

$_ZN4mojo8internal10SerializerIN9bluetooth5mojom30ConnectToServiceResultDataViewENS_9StructPtrINS3_22ConnectToServiceResultEEEE9SerializeERS7_RNS0_15MessageFragmentINS3_8internal27ConnectToServiceResult_DataEEE = comdat any

$_ZN4mojo12StructTraitsIN9bluetooth5mojom12UUIDDataViewEN6device13BluetoothUUIDEE4ReadES3_PS5_ = comdat any

$_ZN4mojo8internal10SerializerIN9bluetooth5mojom18DeviceInfoDataViewENS_9StructPtrINS3_10DeviceInfoEEEE9SerializeERS7_RNS0_15MessageFragmentINS3_8internal15DeviceInfo_DataEEE = comdat any

@.str = private unnamed_addr constant [7 x i8] c"socket\00", align 1
@.str.1 = private unnamed_addr constant [8 x i8] c"<value>\00", align 1
@.str.2 = private unnamed_addr constant [15 x i8] c"receive_stream\00", align 1
@.str.3 = private unnamed_addr constant [12 x i8] c"send_stream\00", align 1
@.str.4 = private unnamed_addr constant [7 x i8] c"device\00", align 1
@.str.5 = private unnamed_addr constant [8 x i8] c"address\00", align 1
@.str.6 = private unnamed_addr constant [5 x i8] c"name\00", align 1
@.str.7 = private unnamed_addr constant [12 x i8] c"system_name\00", align 1
@.str.8 = private unnamed_addr constant [12 x i8] c"initialized\00", align 1
@.str.9 = private unnamed_addr constant [8 x i8] c"present\00", align 1
@.str.10 = private unnamed_addr constant [8 x i8] c"powered\00", align 1
@.str.11 = private unnamed_addr constant [13 x i8] c"discoverable\00", align 1
@.str.12 = private unnamed_addr constant [12 x i8] c"discovering\00", align 1
@_ZN9bluetooth5mojom13Advertisement5Name_E = hidden constant [30 x i8] c"bluetooth.mojom.Advertisement\00", align 16
@_ZTVN9bluetooth5mojom18AdvertisementProxyE = hidden unnamed_addr constant { [6 x i8*] } { [6 x i8*] [i8* null, i8* null, i8* bitcast (void (%"class.bluetooth::mojom::Advertisement"*)* @_ZN9bluetooth5mojom13AdvertisementD2Ev to i8*), i8* bitcast (void (%"class.bluetooth::mojom::AdvertisementProxy"*)* @_ZN9bluetooth5mojom18AdvertisementProxyD0Ev to i8*), i8* bitcast (i1 (%"class.bluetooth::mojom::AdvertisementProxy"*)* @_ZN9bluetooth5mojom18AdvertisementProxy10UnregisterEv to i8*), i8* bitcast (void (%"class.bluetooth::mojom::AdvertisementProxy"*, %"class.base::OnceCallback"*)* @_ZN9bluetooth5mojom18AdvertisementProxy10UnregisterEN4base12OnceCallbackIFvvEEE to i8*)] }, align 8
@_ZN9bluetooth5mojomL28kAdvertisementValidationInfoE = internal constant [1 x %"struct.std::__1::pair.74"] [%"struct.std::__1::pair.74" { i32 107321638, %"struct.mojo::internal::GenericValidationInfo" { i1 (i8*, %"class.mojo::internal::ValidationContext"*)* @_ZN9bluetooth5mojom8internal36Advertisement_Unregister_Params_Data8ValidateEPKvPN4mojo8internal17ValidationContextE, i1 (i8*, %"class.mojo::internal::ValidationContext"*)* @_ZN9bluetooth5mojom8internal44Advertisement_Unregister_ResponseParams_Data8ValidateEPKvPN4mojo8internal17ValidationContextE } }], align 16
@_ZN9bluetooth5mojom16DiscoverySession5Name_E = hidden constant [33 x i8] c"bluetooth.mojom.DiscoverySession\00", align 16
@_ZTVN9bluetooth5mojom21DiscoverySessionProxyE = hidden unnamed_addr constant { [8 x i8*] } { [8 x i8*] [i8* null, i8* null, i8* bitcast (void (%"class.bluetooth::mojom::DiscoverySession"*)* @_ZN9bluetooth5mojom16DiscoverySessionD2Ev to i8*), i8* bitcast (void (%"class.bluetooth::mojom::DiscoverySessionProxy"*)* @_ZN9bluetooth5mojom21DiscoverySessionProxyD0Ev to i8*), i8* bitcast (i1 (%"class.bluetooth::mojom::DiscoverySessionProxy"*, i8*)* @_ZN9bluetooth5mojom21DiscoverySessionProxy8IsActiveEPb to i8*), i8* bitcast (void (%"class.bluetooth::mojom::DiscoverySessionProxy"*, %"class.base::OnceCallback.76"*)* @_ZN9bluetooth5mojom21DiscoverySessionProxy8IsActiveEN4base12OnceCallbackIFvbEEE to i8*), i8* bitcast (i1 (%"class.bluetooth::mojom::DiscoverySessionProxy"*, i8*)* @_ZN9bluetooth5mojom21DiscoverySessionProxy4StopEPb to i8*), i8* bitcast (void (%"class.bluetooth::mojom::DiscoverySessionProxy"*, %"class.base::OnceCallback.76"*)* @_ZN9bluetooth5mojom21DiscoverySessionProxy4StopEN4base12OnceCallbackIFvbEEE to i8*)] }, align 8
@_ZN9bluetooth5mojomL31kDiscoverySessionValidationInfoE = internal constant [2 x %"struct.std::__1::pair.74"] [%"struct.std::__1::pair.74" { i32 363555590, %"struct.mojo::internal::GenericValidationInfo" { i1 (i8*, %"class.mojo::internal::ValidationContext"*)* @_ZN9bluetooth5mojom8internal37DiscoverySession_IsActive_Params_Data8ValidateEPKvPN4mojo8internal17ValidationContextE, i1 (i8*, %"class.mojo::internal::ValidationContext"*)* @_ZN9bluetooth5mojom8internal45DiscoverySession_IsActive_ResponseParams_Data8ValidateEPKvPN4mojo8internal17ValidationContextE } }, %"struct.std::__1::pair.74" { i32 45398248, %"struct.mojo::internal::GenericValidationInfo" { i1 (i8*, %"class.mojo::internal::ValidationContext"*)* @_ZN9bluetooth5mojom8internal33DiscoverySession_Stop_Params_Data8ValidateEPKvPN4mojo8internal17ValidationContextE, i1 (i8*, %"class.mojo::internal::ValidationContext"*)* @_ZN9bluetooth5mojom8internal41DiscoverySession_Stop_ResponseParams_Data8ValidateEPKvPN4mojo8internal17ValidationContextE } }], align 16
@_ZN9bluetooth5mojom6Socket5Name_E = hidden constant [23 x i8] c"bluetooth.mojom.Socket\00", align 16
@_ZTVN9bluetooth5mojom11SocketProxyE = hidden unnamed_addr constant { [6 x i8*] } { [6 x i8*] [i8* null, i8* null, i8* bitcast (void (%"class.bluetooth::mojom::Socket"*)* @_ZN9bluetooth5mojom6SocketD2Ev to i8*), i8* bitcast (void (%"class.bluetooth::mojom::SocketProxy"*)* @_ZN9bluetooth5mojom11SocketProxyD0Ev to i8*), i8* bitcast (i1 (%"class.bluetooth::mojom::SocketProxy"*)* @_ZN9bluetooth5mojom11SocketProxy10DisconnectEv to i8*), i8* bitcast (void (%"class.bluetooth::mojom::SocketProxy"*, %"class.base::OnceCallback"*)* @_ZN9bluetooth5mojom11SocketProxy10DisconnectEN4base12OnceCallbackIFvvEEE to i8*)] }, align 8
@_ZN9bluetooth5mojomL21kSocketValidationInfoE = internal constant [1 x %"struct.std::__1::pair.74"] [%"struct.std::__1::pair.74" { i32 2095136214, %"struct.mojo::internal::GenericValidationInfo" { i1 (i8*, %"class.mojo::internal::ValidationContext"*)* @_ZN9bluetooth5mojom8internal29Socket_Disconnect_Params_Data8ValidateEPKvPN4mojo8internal17ValidationContextE, i1 (i8*, %"class.mojo::internal::ValidationContext"*)* @_ZN9bluetooth5mojom8internal37Socket_Disconnect_ResponseParams_Data8ValidateEPKvPN4mojo8internal17ValidationContextE } }], align 16
@_ZN9bluetooth5mojom12ServerSocket5Name_E = hidden constant [29 x i8] c"bluetooth.mojom.ServerSocket\00", align 16
@_ZTVN9bluetooth5mojom17ServerSocketProxyE = hidden unnamed_addr constant { [8 x i8*] } { [8 x i8*] [i8* null, i8* null, i8* bitcast (void (%"class.bluetooth::mojom::ServerSocket"*)* @_ZN9bluetooth5mojom12ServerSocketD2Ev to i8*), i8* bitcast (void (%"class.bluetooth::mojom::ServerSocketProxy"*)* @_ZN9bluetooth5mojom17ServerSocketProxyD0Ev to i8*), i8* bitcast (i1 (%"class.bluetooth::mojom::ServerSocketProxy"*, %"class.mojo::StructPtr.82"*)* @_ZN9bluetooth5mojom17ServerSocketProxy6AcceptEPN4mojo9StructPtrINS0_22AcceptConnectionResultEEE to i8*), i8* bitcast (void (%"class.bluetooth::mojom::ServerSocketProxy"*, %"class.base::OnceCallback.90"*)* @_ZN9bluetooth5mojom17ServerSocketProxy6AcceptEN4base12OnceCallbackIFvN4mojo9StructPtrINS0_22AcceptConnectionResultEEEEEE to i8*), i8* bitcast (i1 (%"class.bluetooth::mojom::ServerSocketProxy"*)* @_ZN9bluetooth5mojom17ServerSocketProxy10DisconnectEv to i8*), i8* bitcast (void (%"class.bluetooth::mojom::ServerSocketProxy"*, %"class.base::OnceCallback"*)* @_ZN9bluetooth5mojom17ServerSocketProxy10DisconnectEN4base12OnceCallbackIFvvEEE to i8*)] }, align 8
@_ZN9bluetooth5mojomL27kServerSocketValidationInfoE = internal constant [2 x %"struct.std::__1::pair.74"] [%"struct.std::__1::pair.74" { i32 356813248, %"struct.mojo::internal::GenericValidationInfo" { i1 (i8*, %"class.mojo::internal::ValidationContext"*)* @_ZN9bluetooth5mojom8internal31ServerSocket_Accept_Params_Data8ValidateEPKvPN4mojo8internal17ValidationContextE, i1 (i8*, %"class.mojo::internal::ValidationContext"*)* @_ZN9bluetooth5mojom8internal39ServerSocket_Accept_ResponseParams_Data8ValidateEPKvPN4mojo8internal17ValidationContextE } }, %"struct.std::__1::pair.74" { i32 411519172, %"struct.mojo::internal::GenericValidationInfo" { i1 (i8*, %"class.mojo::internal::ValidationContext"*)* @_ZN9bluetooth5mojom8internal35ServerSocket_Disconnect_Params_Data8ValidateEPKvPN4mojo8internal17ValidationContextE, i1 (i8*, %"class.mojo::internal::ValidationContext"*)* @_ZN9bluetooth5mojom8internal43ServerSocket_Disconnect_ResponseParams_Data8ValidateEPKvPN4mojo8internal17ValidationContextE } }], align 16
@_ZN9bluetooth5mojom7Adapter5Name_E = hidden constant [24 x i8] c"bluetooth.mojom.Adapter\00", align 16
@_ZTVN9bluetooth5mojom12AdapterProxyE = hidden unnamed_addr constant { [22 x i8*] } { [22 x i8*] [i8* null, i8* null, i8* bitcast (void (%"class.bluetooth::mojom::Adapter"*)* @_ZN9bluetooth5mojom7AdapterD2Ev to i8*), i8* bitcast (void (%"class.bluetooth::mojom::AdapterProxy"*)* @_ZN9bluetooth5mojom12AdapterProxyD0Ev to i8*), i8* bitcast (void (%"class.bluetooth::mojom::AdapterProxy"*, %"class.std::__1::basic_string"*, %"class.base::OnceCallback.121"*)* @_ZN9bluetooth5mojom12AdapterProxy15ConnectToDeviceERKNSt3__112basic_stringIcNS2_11char_traitsIcEENS2_9allocatorIcEEEEN4base12OnceCallbackIFvNS0_13ConnectResultEN4mojo13PendingRemoteINS0_6DeviceEEEEEE to i8*), i8* bitcast (void (%"class.bluetooth::mojom::AdapterProxy"*, %"class.base::OnceCallback.125"*)* @_ZN9bluetooth5mojom12AdapterProxy10GetDevicesEN4base12OnceCallbackIFvNSt3__16vectorIN4mojo9StructPtrINS0_10DeviceInfoEEENS4_9allocatorIS9_EEEEEEE to i8*), i8* bitcast (i1 (%"class.bluetooth::mojom::AdapterProxy"*, %"class.mojo::StructPtr.96"*)* @_ZN9bluetooth5mojom12AdapterProxy7GetInfoEPN4mojo9StructPtrINS0_11AdapterInfoEEE to i8*), i8* bitcast (void (%"class.bluetooth::mojom::AdapterProxy"*, %"class.base::OnceCallback.128"*)* @_ZN9bluetooth5mojom12AdapterProxy7GetInfoEN4base12OnceCallbackIFvN4mojo9StructPtrINS0_11AdapterInfoEEEEEE to i8*), i8* bitcast (i1 (%"class.bluetooth::mojom::AdapterProxy"*, %"class.mojo::PendingRemote.103"*)* @_ZN9bluetooth5mojom12AdapterProxy11AddObserverEN4mojo13PendingRemoteINS0_15AdapterObserverEEE to i8*), i8* bitcast (void (%"class.bluetooth::mojom::AdapterProxy"*, %"class.mojo::PendingRemote.103"*, %"class.base::OnceCallback"*)* @_ZN9bluetooth5mojom12AdapterProxy11AddObserverEN4mojo13PendingRemoteINS0_15AdapterObserverEEEN4base12OnceCallbackIFvvEEE to i8*), i8* bitcast (i1 (%"class.bluetooth::mojom::AdapterProxy"*, %"class.device::BluetoothUUID"*, %"class.std::__1::vector.104"*, i1, %"class.mojo::PendingRemote.111"*)* @_ZN9bluetooth5mojom12AdapterProxy21RegisterAdvertisementERKN6device13BluetoothUUIDERKNSt3__16vectorIhNS6_9allocatorIhEEEEbPN4mojo13PendingRemoteINS0_13AdvertisementEEE to i8*), i8* bitcast (void (%"class.bluetooth::mojom::AdapterProxy"*, %"class.device::BluetoothUUID"*, %"class.std::__1::vector.104"*, i1, %"class.base::OnceCallback.136"*)* @_ZN9bluetooth5mojom12AdapterProxy21RegisterAdvertisementERKN6device13BluetoothUUIDERKNSt3__16vectorIhNS6_9allocatorIhEEEEbN4base12OnceCallbackIFvN4mojo13PendingRemoteINS0_13AdvertisementEEEEEE to i8*), i8* bitcast (i1 (%"class.bluetooth::mojom::AdapterProxy"*, i1, i8*)* @_ZN9bluetooth5mojom12AdapterProxy15SetDiscoverableEbPb to i8*), i8* bitcast (void (%"class.bluetooth::mojom::AdapterProxy"*, i1, %"class.base::OnceCallback.76"*)* @_ZN9bluetooth5mojom12AdapterProxy15SetDiscoverableEbN4base12OnceCallbackIFvbEEE to i8*), i8* bitcast (i1 (%"class.bluetooth::mojom::AdapterProxy"*, %"class.std::__1::basic_string"*, i8*)* @_ZN9bluetooth5mojom12AdapterProxy7SetNameERKNSt3__112basic_stringIcNS2_11char_traitsIcEENS2_9allocatorIcEEEEPb to i8*), i8* bitcast (void (%"class.bluetooth::mojom::AdapterProxy"*, %"class.std::__1::basic_string"*, %"class.base::OnceCallback.76"*)* @_ZN9bluetooth5mojom12AdapterProxy7SetNameERKNSt3__112basic_stringIcNS2_11char_traitsIcEENS2_9allocatorIcEEEEN4base12OnceCallbackIFvbEEE to i8*), i8* bitcast (i1 (%"class.bluetooth::mojom::AdapterProxy"*, %"class.mojo::PendingRemote.112"*)* @_ZN9bluetooth5mojom12AdapterProxy21StartDiscoverySessionEPN4mojo13PendingRemoteINS0_16DiscoverySessionEEE to i8*), i8* bitcast (void (%"class.bluetooth::mojom::AdapterProxy"*, %"class.base::OnceCallback.140"*)* @_ZN9bluetooth5mojom12AdapterProxy21StartDiscoverySessionEN4base12OnceCallbackIFvN4mojo13PendingRemoteINS0_16DiscoverySessionEEEEEE to i8*), i8* bitcast (i1 (%"class.bluetooth::mojom::AdapterProxy"*, %"class.std::__1::basic_string"*, %"class.device::BluetoothUUID"*, %"class.mojo::StructPtr.113"*)* @_ZN9bluetooth5mojom12AdapterProxy26ConnectToServiceInsecurelyERKNSt3__112basic_stringIcNS2_11char_traitsIcEENS2_9allocatorIcEEEERKN6device13BluetoothUUIDEPN4mojo9StructPtrINS0_22ConnectToServiceResultEEE to i8*), i8* bitcast (void (%"class.bluetooth::mojom::AdapterProxy"*, %"class.std::__1::basic_string"*, %"class.device::BluetoothUUID"*, %"class.base::OnceCallback.142"*)* @_ZN9bluetooth5mojom12AdapterProxy26ConnectToServiceInsecurelyERKNSt3__112basic_stringIcNS2_11char_traitsIcEENS2_9allocatorIcEEEERKN6device13BluetoothUUIDEN4base12OnceCallbackIFvN4mojo9StructPtrINS0_22ConnectToServiceResultEEEEEE to i8*), i8* bitcast (i1 (%"class.bluetooth::mojom::AdapterProxy"*, %"class.std::__1::basic_string"*, %"class.device::BluetoothUUID"*, %"class.mojo::PendingRemote.120"*)* @_ZN9bluetooth5mojom12AdapterProxy29CreateRfcommServiceInsecurelyERKNSt3__112basic_stringIcNS2_11char_traitsIcEENS2_9allocatorIcEEEERKN6device13BluetoothUUIDEPN4mojo13PendingRemoteINS0_12ServerSocketEEE to i8*), i8* bitcast (void (%"class.bluetooth::mojom::AdapterProxy"*, %"class.std::__1::basic_string"*, %"class.device::BluetoothUUID"*, %"class.base::OnceCallback.144"*)* @_ZN9bluetooth5mojom12AdapterProxy29CreateRfcommServiceInsecurelyERKNSt3__112basic_stringIcNS2_11char_traitsIcEENS2_9allocatorIcEEEERKN6device13BluetoothUUIDEN4base12OnceCallbackIFvN4mojo13PendingRemoteINS0_12ServerSocketEEEEEE to i8*)] }, align 8
@_ZN9bluetooth5mojomL22kAdapterValidationInfoE = internal constant [10 x %"struct.std::__1::pair.74"] [%"struct.std::__1::pair.74" { i32 2016808551, %"struct.mojo::internal::GenericValidationInfo" { i1 (i8*, %"class.mojo::internal::ValidationContext"*)* @_ZN9bluetooth5mojom8internal35Adapter_ConnectToDevice_Params_Data8ValidateEPKvPN4mojo8internal17ValidationContextE, i1 (i8*, %"class.mojo::internal::ValidationContext"*)* @_ZN9bluetooth5mojom8internal43Adapter_ConnectToDevice_ResponseParams_Data8ValidateEPKvPN4mojo8internal17ValidationContextE } }, %"struct.std::__1::pair.74" { i32 542221953, %"struct.mojo::internal::GenericValidationInfo" { i1 (i8*, %"class.mojo::internal::ValidationContext"*)* @_ZN9bluetooth5mojom8internal30Adapter_GetDevices_Params_Data8ValidateEPKvPN4mojo8internal17ValidationContextE, i1 (i8*, %"class.mojo::internal::ValidationContext"*)* @_ZN9bluetooth5mojom8internal38Adapter_GetDevices_ResponseParams_Data8ValidateEPKvPN4mojo8internal17ValidationContextE } }, %"struct.std::__1::pair.74" { i32 1209785864, %"struct.mojo::internal::GenericValidationInfo" { i1 (i8*, %"class.mojo::internal::ValidationContext"*)* @_ZN9bluetooth5mojom8internal27Adapter_GetInfo_Params_Data8ValidateEPKvPN4mojo8internal17ValidationContextE, i1 (i8*, %"class.mojo::internal::ValidationContext"*)* @_ZN9bluetooth5mojom8internal35Adapter_GetInfo_ResponseParams_Data8ValidateEPKvPN4mojo8internal17ValidationContextE } }, %"struct.std::__1::pair.74" { i32 1420854494, %"struct.mojo::internal::GenericValidationInfo" { i1 (i8*, %"class.mojo::internal::ValidationContext"*)* @_ZN9bluetooth5mojom8internal31Adapter_AddObserver_Params_Data8ValidateEPKvPN4mojo8internal17ValidationContextE, i1 (i8*, %"class.mojo::internal::ValidationContext"*)* @_ZN9bluetooth5mojom8internal39Adapter_AddObserver_ResponseParams_Data8ValidateEPKvPN4mojo8internal17ValidationContextE } }, %"struct.std::__1::pair.74" { i32 1106433335, %"struct.mojo::internal::GenericValidationInfo" { i1 (i8*, %"class.mojo::internal::ValidationContext"*)* @_ZN9bluetooth5mojom8internal41Adapter_RegisterAdvertisement_Params_Data8ValidateEPKvPN4mojo8internal17ValidationContextE, i1 (i8*, %"class.mojo::internal::ValidationContext"*)* @_ZN9bluetooth5mojom8internal49Adapter_RegisterAdvertisement_ResponseParams_Data8ValidateEPKvPN4mojo8internal17ValidationContextE } }, %"struct.std::__1::pair.74" { i32 246863895, %"struct.mojo::internal::GenericValidationInfo" { i1 (i8*, %"class.mojo::internal::ValidationContext"*)* @_ZN9bluetooth5mojom8internal35Adapter_SetDiscoverable_Params_Data8ValidateEPKvPN4mojo8internal17ValidationContextE, i1 (i8*, %"class.mojo::internal::ValidationContext"*)* @_ZN9bluetooth5mojom8internal43Adapter_SetDiscoverable_ResponseParams_Data8ValidateEPKvPN4mojo8internal17ValidationContextE } }, %"struct.std::__1::pair.74" { i32 1939763854, %"struct.mojo::internal::GenericValidationInfo" { i1 (i8*, %"class.mojo::internal::ValidationContext"*)* @_ZN9bluetooth5mojom8internal27Adapter_SetName_Params_Data8ValidateEPKvPN4mojo8internal17ValidationContextE, i1 (i8*, %"class.mojo::internal::ValidationContext"*)* @_ZN9bluetooth5mojom8internal35Adapter_SetName_ResponseParams_Data8ValidateEPKvPN4mojo8internal17ValidationContextE } }, %"struct.std::__1::pair.74" { i32 1268654975, %"struct.mojo::internal::GenericValidationInfo" { i1 (i8*, %"class.mojo::internal::ValidationContext"*)* @_ZN9bluetooth5mojom8internal41Adapter_StartDiscoverySession_Params_Data8ValidateEPKvPN4mojo8internal17ValidationContextE, i1 (i8*, %"class.mojo::internal::ValidationContext"*)* @_ZN9bluetooth5mojom8internal49Adapter_StartDiscoverySession_ResponseParams_Data8ValidateEPKvPN4mojo8internal17ValidationContextE } }, %"struct.std::__1::pair.74" { i32 274022201, %"struct.mojo::internal::GenericValidationInfo" { i1 (i8*, %"class.mojo::internal::ValidationContext"*)* @_ZN9bluetooth5mojom8internal46Adapter_ConnectToServiceInsecurely_Params_Data8ValidateEPKvPN4mojo8internal17ValidationContextE, i1 (i8*, %"class.mojo::internal::ValidationContext"*)* @_ZN9bluetooth5mojom8internal54Adapter_ConnectToServiceInsecurely_ResponseParams_Data8ValidateEPKvPN4mojo8internal17ValidationContextE } }, %"struct.std::__1::pair.74" { i32 687622205, %"struct.mojo::internal::GenericValidationInfo" { i1 (i8*, %"class.mojo::internal::ValidationContext"*)* @_ZN9bluetooth5mojom8internal49Adapter_CreateRfcommServiceInsecurely_Params_Data8ValidateEPKvPN4mojo8internal17ValidationContextE, i1 (i8*, %"class.mojo::internal::ValidationContext"*)* @_ZN9bluetooth5mojom8internal57Adapter_CreateRfcommServiceInsecurely_ResponseParams_Data8ValidateEPKvPN4mojo8internal17ValidationContextE } }], align 16
@_ZN9bluetooth5mojom15AdapterObserver5Name_E = hidden constant [32 x i8] c"bluetooth.mojom.AdapterObserver\00", align 16
@_ZTVN9bluetooth5mojom20AdapterObserverProxyE = hidden unnamed_addr constant { [11 x i8*] } { [11 x i8*] [i8* null, i8* null, i8* bitcast (void (%"class.bluetooth::mojom::AdapterObserver"*)* @_ZN9bluetooth5mojom15AdapterObserverD2Ev to i8*), i8* bitcast (void (%"class.bluetooth::mojom::AdapterObserverProxy"*)* @_ZN9bluetooth5mojom20AdapterObserverProxyD0Ev to i8*), i8* bitcast (void (%"class.bluetooth::mojom::AdapterObserverProxy"*, i1)* @_ZN9bluetooth5mojom20AdapterObserverProxy14PresentChangedEb to i8*), i8* bitcast (void (%"class.bluetooth::mojom::AdapterObserverProxy"*, i1)* @_ZN9bluetooth5mojom20AdapterObserverProxy14PoweredChangedEb to i8*), i8* bitcast (void (%"class.bluetooth::mojom::AdapterObserverProxy"*, i1)* @_ZN9bluetooth5mojom20AdapterObserverProxy19DiscoverableChangedEb to i8*), i8* bitcast (void (%"class.bluetooth::mojom::AdapterObserverProxy"*, i1)* @_ZN9bluetooth5mojom20AdapterObserverProxy18DiscoveringChangedEb to i8*), i8* bitcast (void (%"class.bluetooth::mojom::AdapterObserverProxy"*, %"class.mojo::StructPtr"*)* @_ZN9bluetooth5mojom20AdapterObserverProxy11DeviceAddedEN4mojo9StructPtrINS0_10DeviceInfoEEE to i8*), i8* bitcast (void (%"class.bluetooth::mojom::AdapterObserverProxy"*, %"class.mojo::StructPtr"*)* @_ZN9bluetooth5mojom20AdapterObserverProxy13DeviceChangedEN4mojo9StructPtrINS0_10DeviceInfoEEE to i8*), i8* bitcast (void (%"class.bluetooth::mojom::AdapterObserverProxy"*, %"class.mojo::StructPtr"*)* @_ZN9bluetooth5mojom20AdapterObserverProxy13DeviceRemovedEN4mojo9StructPtrINS0_10DeviceInfoEEE to i8*)] }, align 8
@_ZN9bluetooth5mojomL30kAdapterObserverValidationInfoE = internal constant [7 x %"struct.std::__1::pair.74"] [%"struct.std::__1::pair.74" { i32 1385892820, %"struct.mojo::internal::GenericValidationInfo" { i1 (i8*, %"class.mojo::internal::ValidationContext"*)* @_ZN9bluetooth5mojom8internal42AdapterObserver_PresentChanged_Params_Data8ValidateEPKvPN4mojo8internal17ValidationContextE, i1 (i8*, %"class.mojo::internal::ValidationContext"*)* null } }, %"struct.std::__1::pair.74" { i32 366903182, %"struct.mojo::internal::GenericValidationInfo" { i1 (i8*, %"class.mojo::internal::ValidationContext"*)* @_ZN9bluetooth5mojom8internal42AdapterObserver_PoweredChanged_Params_Data8ValidateEPKvPN4mojo8internal17ValidationContextE, i1 (i8*, %"class.mojo::internal::ValidationContext"*)* null } }, %"struct.std::__1::pair.74" { i32 1495256408, %"struct.mojo::internal::GenericValidationInfo" { i1 (i8*, %"class.mojo::internal::ValidationContext"*)* @_ZN9bluetooth5mojom8internal47AdapterObserver_DiscoverableChanged_Params_Data8ValidateEPKvPN4mojo8internal17ValidationContextE, i1 (i8*, %"class.mojo::internal::ValidationContext"*)* null } }, %"struct.std::__1::pair.74" { i32 116367251, %"struct.mojo::internal::GenericValidationInfo" { i1 (i8*, %"class.mojo::internal::ValidationContext"*)* @_ZN9bluetooth5mojom8internal46AdapterObserver_DiscoveringChanged_Params_Data8ValidateEPKvPN4mojo8internal17ValidationContextE, i1 (i8*, %"class.mojo::internal::ValidationContext"*)* null } }, %"struct.std::__1::pair.74" { i32 1276581775, %"struct.mojo::internal::GenericValidationInfo" { i1 (i8*, %"class.mojo::internal::ValidationContext"*)* @_ZN9bluetooth5mojom8internal39AdapterObserver_DeviceAdded_Params_Data8ValidateEPKvPN4mojo8internal17ValidationContextE, i1 (i8*, %"class.mojo::internal::ValidationContext"*)* null } }, %"struct.std::__1::pair.74" { i32 348579247, %"struct.mojo::internal::GenericValidationInfo" { i1 (i8*, %"class.mojo::internal::ValidationContext"*)* @_ZN9bluetooth5mojom8internal41AdapterObserver_DeviceChanged_Params_Data8ValidateEPKvPN4mojo8internal17ValidationContextE, i1 (i8*, %"class.mojo::internal::ValidationContext"*)* null } }, %"struct.std::__1::pair.74" { i32 715199364, %"struct.mojo::internal::GenericValidationInfo" { i1 (i8*, %"class.mojo::internal::ValidationContext"*)* @_ZN9bluetooth5mojom8internal41AdapterObserver_DeviceRemoved_Params_Data8ValidateEPKvPN4mojo8internal17ValidationContextE, i1 (i8*, %"class.mojo::internal::ValidationContext"*)* null } }], align 16
@_ZTVN9bluetooth5mojom13AdvertisementE = hidden unnamed_addr constant { [6 x i8*] } { [6 x i8*] [i8* null, i8* null, i8* bitcast (void (%"class.bluetooth::mojom::Advertisement"*)* @_ZN9bluetooth5mojom13AdvertisementD2Ev to i8*), i8* bitcast (void (%"class.bluetooth::mojom::Advertisement"*)* @_ZN9bluetooth5mojom13AdvertisementD0Ev to i8*), i8* bitcast (i1 (%"class.bluetooth::mojom::Advertisement"*)* @_ZN9bluetooth5mojom13Advertisement10UnregisterEv to i8*), i8* bitcast (void ()* @__cxa_pure_virtual to i8*)] }, align 8
@_ZTVN9bluetooth5mojom43Advertisement_Unregister_HandleSyncResponseE = hidden unnamed_addr constant { [6 x i8*] } { [6 x i8*] [i8* null, i8* null, i8* bitcast (void (%"class.mojo::MessageReceiver"*)* @_ZN4mojo15MessageReceiverD2Ev to i8*), i8* bitcast (void (%"class.bluetooth::mojom::Advertisement_Unregister_HandleSyncResponse"*)* @_ZN9bluetooth5mojom43Advertisement_Unregister_HandleSyncResponseD0Ev to i8*), i8* bitcast (i1 (%"class.mojo::MessageReceiver"*)* @_ZN4mojo15MessageReceiver25PrefersSerializedMessagesEv to i8*), i8* bitcast (i1 (%"class.bluetooth::mojom::Advertisement_Unregister_HandleSyncResponse"*, %"class.mojo::Message"*)* @_ZN9bluetooth5mojom43Advertisement_Unregister_HandleSyncResponse6AcceptEPN4mojo7MessageE to i8*)] }, align 8
@_ZTVN9bluetooth5mojom42Advertisement_Unregister_ForwardToCallbackE = hidden unnamed_addr constant { [6 x i8*] } { [6 x i8*] [i8* null, i8* null, i8* bitcast (void (%"class.bluetooth::mojom::Advertisement_Unregister_ForwardToCallback"*)* @_ZN9bluetooth5mojom42Advertisement_Unregister_ForwardToCallbackD2Ev to i8*), i8* bitcast (void (%"class.bluetooth::mojom::Advertisement_Unregister_ForwardToCallback"*)* @_ZN9bluetooth5mojom42Advertisement_Unregister_ForwardToCallbackD0Ev to i8*), i8* bitcast (i1 (%"class.mojo::MessageReceiver"*)* @_ZN4mojo15MessageReceiver25PrefersSerializedMessagesEv to i8*), i8* bitcast (i1 (%"class.bluetooth::mojom::Advertisement_Unregister_ForwardToCallback"*, %"class.mojo::Message"*)* @_ZN9bluetooth5mojom42Advertisement_Unregister_ForwardToCallback6AcceptEPN4mojo7MessageE to i8*)] }, align 8
@_ZTVN9bluetooth5mojom29AdvertisementRequestValidatorE = hidden unnamed_addr constant { [6 x i8*] } { [6 x i8*] [i8* null, i8* null, i8* bitcast (void (%"class.mojo::MessageReceiver"*)* @_ZN4mojo15MessageReceiverD2Ev to i8*), i8* bitcast (void (%"class.bluetooth::mojom::AdvertisementRequestValidator"*)* @_ZN9bluetooth5mojom29AdvertisementRequestValidatorD0Ev to i8*), i8* bitcast (i1 (%"class.mojo::MessageReceiver"*)* @_ZN4mojo15MessageReceiver25PrefersSerializedMessagesEv to i8*), i8* bitcast (i1 (%"class.bluetooth::mojom::AdvertisementRequestValidator"*, %"class.mojo::Message"*)* @_ZN9bluetooth5mojom29AdvertisementRequestValidator6AcceptEPN4mojo7MessageE to i8*)] }, align 8
@_ZTVN9bluetooth5mojom30AdvertisementResponseValidatorE = hidden unnamed_addr constant { [6 x i8*] } { [6 x i8*] [i8* null, i8* null, i8* bitcast (void (%"class.mojo::MessageReceiver"*)* @_ZN4mojo15MessageReceiverD2Ev to i8*), i8* bitcast (void (%"class.bluetooth::mojom::AdvertisementResponseValidator"*)* @_ZN9bluetooth5mojom30AdvertisementResponseValidatorD0Ev to i8*), i8* bitcast (i1 (%"class.mojo::MessageReceiver"*)* @_ZN4mojo15MessageReceiver25PrefersSerializedMessagesEv to i8*), i8* bitcast (i1 (%"class.bluetooth::mojom::AdvertisementResponseValidator"*, %"class.mojo::Message"*)* @_ZN9bluetooth5mojom30AdvertisementResponseValidator6AcceptEPN4mojo7MessageE to i8*)] }, align 8
@_ZTVN9bluetooth5mojom16DiscoverySessionE = hidden unnamed_addr constant { [8 x i8*] } { [8 x i8*] [i8* null, i8* null, i8* bitcast (void (%"class.bluetooth::mojom::DiscoverySession"*)* @_ZN9bluetooth5mojom16DiscoverySessionD2Ev to i8*), i8* bitcast (void (%"class.bluetooth::mojom::DiscoverySession"*)* @_ZN9bluetooth5mojom16DiscoverySessionD0Ev to i8*), i8* bitcast (i1 (%"class.bluetooth::mojom::DiscoverySession"*, i8*)* @_ZN9bluetooth5mojom16DiscoverySession8IsActiveEPb to i8*), i8* bitcast (void ()* @__cxa_pure_virtual to i8*), i8* bitcast (i1 (%"class.bluetooth::mojom::DiscoverySession"*, i8*)* @_ZN9bluetooth5mojom16DiscoverySession4StopEPb to i8*), i8* bitcast (void ()* @__cxa_pure_virtual to i8*)] }, align 8
@_ZTVN9bluetooth5mojom44DiscoverySession_IsActive_HandleSyncResponseE = hidden unnamed_addr constant { [6 x i8*] } { [6 x i8*] [i8* null, i8* null, i8* bitcast (void (%"class.mojo::MessageReceiver"*)* @_ZN4mojo15MessageReceiverD2Ev to i8*), i8* bitcast (void (%"class.bluetooth::mojom::DiscoverySession_IsActive_HandleSyncResponse"*)* @_ZN9bluetooth5mojom44DiscoverySession_IsActive_HandleSyncResponseD0Ev to i8*), i8* bitcast (i1 (%"class.mojo::MessageReceiver"*)* @_ZN4mojo15MessageReceiver25PrefersSerializedMessagesEv to i8*), i8* bitcast (i1 (%"class.bluetooth::mojom::DiscoverySession_IsActive_HandleSyncResponse"*, %"class.mojo::Message"*)* @_ZN9bluetooth5mojom44DiscoverySession_IsActive_HandleSyncResponse6AcceptEPN4mojo7MessageE to i8*)] }, align 8
@_ZTVN9bluetooth5mojom43DiscoverySession_IsActive_ForwardToCallbackE = hidden unnamed_addr constant { [6 x i8*] } { [6 x i8*] [i8* null, i8* null, i8* bitcast (void (%"class.bluetooth::mojom::DiscoverySession_IsActive_ForwardToCallback"*)* @_ZN9bluetooth5mojom43DiscoverySession_IsActive_ForwardToCallbackD2Ev to i8*), i8* bitcast (void (%"class.bluetooth::mojom::DiscoverySession_IsActive_ForwardToCallback"*)* @_ZN9bluetooth5mojom43DiscoverySession_IsActive_ForwardToCallbackD0Ev to i8*), i8* bitcast (i1 (%"class.mojo::MessageReceiver"*)* @_ZN4mojo15MessageReceiver25PrefersSerializedMessagesEv to i8*), i8* bitcast (i1 (%"class.bluetooth::mojom::DiscoverySession_IsActive_ForwardToCallback"*, %"class.mojo::Message"*)* @_ZN9bluetooth5mojom43DiscoverySession_IsActive_ForwardToCallback6AcceptEPN4mojo7MessageE to i8*)] }, align 8
@_ZTVN9bluetooth5mojom40DiscoverySession_Stop_HandleSyncResponseE = hidden unnamed_addr constant { [6 x i8*] } { [6 x i8*] [i8* null, i8* null, i8* bitcast (void (%"class.mojo::MessageReceiver"*)* @_ZN4mojo15MessageReceiverD2Ev to i8*), i8* bitcast (void (%"class.bluetooth::mojom::DiscoverySession_Stop_HandleSyncResponse"*)* @_ZN9bluetooth5mojom40DiscoverySession_Stop_HandleSyncResponseD0Ev to i8*), i8* bitcast (i1 (%"class.mojo::MessageReceiver"*)* @_ZN4mojo15MessageReceiver25PrefersSerializedMessagesEv to i8*), i8* bitcast (i1 (%"class.bluetooth::mojom::DiscoverySession_Stop_HandleSyncResponse"*, %"class.mojo::Message"*)* @_ZN9bluetooth5mojom40DiscoverySession_Stop_HandleSyncResponse6AcceptEPN4mojo7MessageE to i8*)] }, align 8
@_ZTVN9bluetooth5mojom39DiscoverySession_Stop_ForwardToCallbackE = hidden unnamed_addr constant { [6 x i8*] } { [6 x i8*] [i8* null, i8* null, i8* bitcast (void (%"class.bluetooth::mojom::DiscoverySession_Stop_ForwardToCallback"*)* @_ZN9bluetooth5mojom39DiscoverySession_Stop_ForwardToCallbackD2Ev to i8*), i8* bitcast (void (%"class.bluetooth::mojom::DiscoverySession_Stop_ForwardToCallback"*)* @_ZN9bluetooth5mojom39DiscoverySession_Stop_ForwardToCallbackD0Ev to i8*), i8* bitcast (i1 (%"class.mojo::MessageReceiver"*)* @_ZN4mojo15MessageReceiver25PrefersSerializedMessagesEv to i8*), i8* bitcast (i1 (%"class.bluetooth::mojom::DiscoverySession_Stop_ForwardToCallback"*, %"class.mojo::Message"*)* @_ZN9bluetooth5mojom39DiscoverySession_Stop_ForwardToCallback6AcceptEPN4mojo7MessageE to i8*)] }, align 8
@_ZTVN9bluetooth5mojom32DiscoverySessionRequestValidatorE = hidden unnamed_addr constant { [6 x i8*] } { [6 x i8*] [i8* null, i8* null, i8* bitcast (void (%"class.mojo::MessageReceiver"*)* @_ZN4mojo15MessageReceiverD2Ev to i8*), i8* bitcast (void (%"class.bluetooth::mojom::DiscoverySessionRequestValidator"*)* @_ZN9bluetooth5mojom32DiscoverySessionRequestValidatorD0Ev to i8*), i8* bitcast (i1 (%"class.mojo::MessageReceiver"*)* @_ZN4mojo15MessageReceiver25PrefersSerializedMessagesEv to i8*), i8* bitcast (i1 (%"class.bluetooth::mojom::DiscoverySessionRequestValidator"*, %"class.mojo::Message"*)* @_ZN9bluetooth5mojom32DiscoverySessionRequestValidator6AcceptEPN4mojo7MessageE to i8*)] }, align 8
@_ZTVN9bluetooth5mojom33DiscoverySessionResponseValidatorE = hidden unnamed_addr constant { [6 x i8*] } { [6 x i8*] [i8* null, i8* null, i8* bitcast (void (%"class.mojo::MessageReceiver"*)* @_ZN4mojo15MessageReceiverD2Ev to i8*), i8* bitcast (void (%"class.bluetooth::mojom::DiscoverySessionResponseValidator"*)* @_ZN9bluetooth5mojom33DiscoverySessionResponseValidatorD0Ev to i8*), i8* bitcast (i1 (%"class.mojo::MessageReceiver"*)* @_ZN4mojo15MessageReceiver25PrefersSerializedMessagesEv to i8*), i8* bitcast (i1 (%"class.bluetooth::mojom::DiscoverySessionResponseValidator"*, %"class.mojo::Message"*)* @_ZN9bluetooth5mojom33DiscoverySessionResponseValidator6AcceptEPN4mojo7MessageE to i8*)] }, align 8
@_ZTVN9bluetooth5mojom6SocketE = hidden unnamed_addr constant { [6 x i8*] } { [6 x i8*] [i8* null, i8* null, i8* bitcast (void (%"class.bluetooth::mojom::Socket"*)* @_ZN9bluetooth5mojom6SocketD2Ev to i8*), i8* bitcast (void (%"class.bluetooth::mojom::Socket"*)* @_ZN9bluetooth5mojom6SocketD0Ev to i8*), i8* bitcast (i1 (%"class.bluetooth::mojom::Socket"*)* @_ZN9bluetooth5mojom6Socket10DisconnectEv to i8*), i8* bitcast (void ()* @__cxa_pure_virtual to i8*)] }, align 8
@_ZTVN9bluetooth5mojom36Socket_Disconnect_HandleSyncResponseE = hidden unnamed_addr constant { [6 x i8*] } { [6 x i8*] [i8* null, i8* null, i8* bitcast (void (%"class.mojo::MessageReceiver"*)* @_ZN4mojo15MessageReceiverD2Ev to i8*), i8* bitcast (void (%"class.bluetooth::mojom::Socket_Disconnect_HandleSyncResponse"*)* @_ZN9bluetooth5mojom36Socket_Disconnect_HandleSyncResponseD0Ev to i8*), i8* bitcast (i1 (%"class.mojo::MessageReceiver"*)* @_ZN4mojo15MessageReceiver25PrefersSerializedMessagesEv to i8*), i8* bitcast (i1 (%"class.bluetooth::mojom::Socket_Disconnect_HandleSyncResponse"*, %"class.mojo::Message"*)* @_ZN9bluetooth5mojom36Socket_Disconnect_HandleSyncResponse6AcceptEPN4mojo7MessageE to i8*)] }, align 8
@_ZTVN9bluetooth5mojom35Socket_Disconnect_ForwardToCallbackE = hidden unnamed_addr constant { [6 x i8*] } { [6 x i8*] [i8* null, i8* null, i8* bitcast (void (%"class.bluetooth::mojom::Socket_Disconnect_ForwardToCallback"*)* @_ZN9bluetooth5mojom35Socket_Disconnect_ForwardToCallbackD2Ev to i8*), i8* bitcast (void (%"class.bluetooth::mojom::Socket_Disconnect_ForwardToCallback"*)* @_ZN9bluetooth5mojom35Socket_Disconnect_ForwardToCallbackD0Ev to i8*), i8* bitcast (i1 (%"class.mojo::MessageReceiver"*)* @_ZN4mojo15MessageReceiver25PrefersSerializedMessagesEv to i8*), i8* bitcast (i1 (%"class.bluetooth::mojom::Socket_Disconnect_ForwardToCallback"*, %"class.mojo::Message"*)* @_ZN9bluetooth5mojom35Socket_Disconnect_ForwardToCallback6AcceptEPN4mojo7MessageE to i8*)] }, align 8
@_ZTVN9bluetooth5mojom22SocketRequestValidatorE = hidden unnamed_addr constant { [6 x i8*] } { [6 x i8*] [i8* null, i8* null, i8* bitcast (void (%"class.mojo::MessageReceiver"*)* @_ZN4mojo15MessageReceiverD2Ev to i8*), i8* bitcast (void (%"class.bluetooth::mojom::SocketRequestValidator"*)* @_ZN9bluetooth5mojom22SocketRequestValidatorD0Ev to i8*), i8* bitcast (i1 (%"class.mojo::MessageReceiver"*)* @_ZN4mojo15MessageReceiver25PrefersSerializedMessagesEv to i8*), i8* bitcast (i1 (%"class.bluetooth::mojom::SocketRequestValidator"*, %"class.mojo::Message"*)* @_ZN9bluetooth5mojom22SocketRequestValidator6AcceptEPN4mojo7MessageE to i8*)] }, align 8
@_ZTVN9bluetooth5mojom23SocketResponseValidatorE = hidden unnamed_addr constant { [6 x i8*] } { [6 x i8*] [i8* null, i8* null, i8* bitcast (void (%"class.mojo::MessageReceiver"*)* @_ZN4mojo15MessageReceiverD2Ev to i8*), i8* bitcast (void (%"class.bluetooth::mojom::SocketResponseValidator"*)* @_ZN9bluetooth5mojom23SocketResponseValidatorD0Ev to i8*), i8* bitcast (i1 (%"class.mojo::MessageReceiver"*)* @_ZN4mojo15MessageReceiver25PrefersSerializedMessagesEv to i8*), i8* bitcast (i1 (%"class.bluetooth::mojom::SocketResponseValidator"*, %"class.mojo::Message"*)* @_ZN9bluetooth5mojom23SocketResponseValidator6AcceptEPN4mojo7MessageE to i8*)] }, align 8
@_ZTVN9bluetooth5mojom12ServerSocketE = hidden unnamed_addr constant { [8 x i8*] } { [8 x i8*] [i8* null, i8* null, i8* bitcast (void (%"class.bluetooth::mojom::ServerSocket"*)* @_ZN9bluetooth5mojom12ServerSocketD2Ev to i8*), i8* bitcast (void (%"class.bluetooth::mojom::ServerSocket"*)* @_ZN9bluetooth5mojom12ServerSocketD0Ev to i8*), i8* bitcast (i1 (%"class.bluetooth::mojom::ServerSocket"*, %"class.mojo::StructPtr.82"*)* @_ZN9bluetooth5mojom12ServerSocket6AcceptEPN4mojo9StructPtrINS0_22AcceptConnectionResultEEE to i8*), i8* bitcast (void ()* @__cxa_pure_virtual to i8*), i8* bitcast (i1 (%"class.bluetooth::mojom::ServerSocket"*)* @_ZN9bluetooth5mojom12ServerSocket10DisconnectEv to i8*), i8* bitcast (void ()* @__cxa_pure_virtual to i8*)] }, align 8
@_ZTVN9bluetooth5mojom38ServerSocket_Accept_HandleSyncResponseE = hidden unnamed_addr constant { [6 x i8*] } { [6 x i8*] [i8* null, i8* null, i8* bitcast (void (%"class.mojo::MessageReceiver"*)* @_ZN4mojo15MessageReceiverD2Ev to i8*), i8* bitcast (void (%"class.bluetooth::mojom::ServerSocket_Accept_HandleSyncResponse"*)* @_ZN9bluetooth5mojom38ServerSocket_Accept_HandleSyncResponseD0Ev to i8*), i8* bitcast (i1 (%"class.mojo::MessageReceiver"*)* @_ZN4mojo15MessageReceiver25PrefersSerializedMessagesEv to i8*), i8* bitcast (i1 (%"class.bluetooth::mojom::ServerSocket_Accept_HandleSyncResponse"*, %"class.mojo::Message"*)* @_ZN9bluetooth5mojom38ServerSocket_Accept_HandleSyncResponse6AcceptEPN4mojo7MessageE to i8*)] }, align 8
@_ZTVN9bluetooth5mojom37ServerSocket_Accept_ForwardToCallbackE = hidden unnamed_addr constant { [6 x i8*] } { [6 x i8*] [i8* null, i8* null, i8* bitcast (void (%"class.bluetooth::mojom::ServerSocket_Accept_ForwardToCallback"*)* @_ZN9bluetooth5mojom37ServerSocket_Accept_ForwardToCallbackD2Ev to i8*), i8* bitcast (void (%"class.bluetooth::mojom::ServerSocket_Accept_ForwardToCallback"*)* @_ZN9bluetooth5mojom37ServerSocket_Accept_ForwardToCallbackD0Ev to i8*), i8* bitcast (i1 (%"class.mojo::MessageReceiver"*)* @_ZN4mojo15MessageReceiver25PrefersSerializedMessagesEv to i8*), i8* bitcast (i1 (%"class.bluetooth::mojom::ServerSocket_Accept_ForwardToCallback"*, %"class.mojo::Message"*)* @_ZN9bluetooth5mojom37ServerSocket_Accept_ForwardToCallback6AcceptEPN4mojo7MessageE to i8*)] }, align 8
@_ZTVN9bluetooth5mojom42ServerSocket_Disconnect_HandleSyncResponseE = hidden unnamed_addr constant { [6 x i8*] } { [6 x i8*] [i8* null, i8* null, i8* bitcast (void (%"class.mojo::MessageReceiver"*)* @_ZN4mojo15MessageReceiverD2Ev to i8*), i8* bitcast (void (%"class.bluetooth::mojom::ServerSocket_Disconnect_HandleSyncResponse"*)* @_ZN9bluetooth5mojom42ServerSocket_Disconnect_HandleSyncResponseD0Ev to i8*), i8* bitcast (i1 (%"class.mojo::MessageReceiver"*)* @_ZN4mojo15MessageReceiver25PrefersSerializedMessagesEv to i8*), i8* bitcast (i1 (%"class.bluetooth::mojom::ServerSocket_Disconnect_HandleSyncResponse"*, %"class.mojo::Message"*)* @_ZN9bluetooth5mojom42ServerSocket_Disconnect_HandleSyncResponse6AcceptEPN4mojo7MessageE to i8*)] }, align 8
@_ZTVN9bluetooth5mojom41ServerSocket_Disconnect_ForwardToCallbackE = hidden unnamed_addr constant { [6 x i8*] } { [6 x i8*] [i8* null, i8* null, i8* bitcast (void (%"class.bluetooth::mojom::ServerSocket_Disconnect_ForwardToCallback"*)* @_ZN9bluetooth5mojom41ServerSocket_Disconnect_ForwardToCallbackD2Ev to i8*), i8* bitcast (void (%"class.bluetooth::mojom::ServerSocket_Disconnect_ForwardToCallback"*)* @_ZN9bluetooth5mojom41ServerSocket_Disconnect_ForwardToCallbackD0Ev to i8*), i8* bitcast (i1 (%"class.mojo::MessageReceiver"*)* @_ZN4mojo15MessageReceiver25PrefersSerializedMessagesEv to i8*), i8* bitcast (i1 (%"class.bluetooth::mojom::ServerSocket_Disconnect_ForwardToCallback"*, %"class.mojo::Message"*)* @_ZN9bluetooth5mojom41ServerSocket_Disconnect_ForwardToCallback6AcceptEPN4mojo7MessageE to i8*)] }, align 8
@_ZTVN9bluetooth5mojom28ServerSocketRequestValidatorE = hidden unnamed_addr constant { [6 x i8*] } { [6 x i8*] [i8* null, i8* null, i8* bitcast (void (%"class.mojo::MessageReceiver"*)* @_ZN4mojo15MessageReceiverD2Ev to i8*), i8* bitcast (void (%"class.bluetooth::mojom::ServerSocketRequestValidator"*)* @_ZN9bluetooth5mojom28ServerSocketRequestValidatorD0Ev to i8*), i8* bitcast (i1 (%"class.mojo::MessageReceiver"*)* @_ZN4mojo15MessageReceiver25PrefersSerializedMessagesEv to i8*), i8* bitcast (i1 (%"class.bluetooth::mojom::ServerSocketRequestValidator"*, %"class.mojo::Message"*)* @_ZN9bluetooth5mojom28ServerSocketRequestValidator6AcceptEPN4mojo7MessageE to i8*)] }, align 8
@_ZTVN9bluetooth5mojom29ServerSocketResponseValidatorE = hidden unnamed_addr constant { [6 x i8*] } { [6 x i8*] [i8* null, i8* null, i8* bitcast (void (%"class.mojo::MessageReceiver"*)* @_ZN4mojo15MessageReceiverD2Ev to i8*), i8* bitcast (void (%"class.bluetooth::mojom::ServerSocketResponseValidator"*)* @_ZN9bluetooth5mojom29ServerSocketResponseValidatorD0Ev to i8*), i8* bitcast (i1 (%"class.mojo::MessageReceiver"*)* @_ZN4mojo15MessageReceiver25PrefersSerializedMessagesEv to i8*), i8* bitcast (i1 (%"class.bluetooth::mojom::ServerSocketResponseValidator"*, %"class.mojo::Message"*)* @_ZN9bluetooth5mojom29ServerSocketResponseValidator6AcceptEPN4mojo7MessageE to i8*)] }, align 8
@_ZTVN9bluetooth5mojom7AdapterE = hidden unnamed_addr constant { [22 x i8*] } { [22 x i8*] [i8* null, i8* null, i8* bitcast (void (%"class.bluetooth::mojom::Adapter"*)* @_ZN9bluetooth5mojom7AdapterD2Ev to i8*), i8* bitcast (void (%"class.bluetooth::mojom::Adapter"*)* @_ZN9bluetooth5mojom7AdapterD0Ev to i8*), i8* bitcast (void ()* @__cxa_pure_virtual to i8*), i8* bitcast (void ()* @__cxa_pure_virtual to i8*), i8* bitcast (i1 (%"class.bluetooth::mojom::Adapter"*, %"class.mojo::StructPtr.96"*)* @_ZN9bluetooth5mojom7Adapter7GetInfoEPN4mojo9StructPtrINS0_11AdapterInfoEEE to i8*), i8* bitcast (void ()* @__cxa_pure_virtual to i8*), i8* bitcast (i1 (%"class.bluetooth::mojom::Adapter"*, %"class.mojo::PendingRemote.103"*)* @_ZN9bluetooth5mojom7Adapter11AddObserverEN4mojo13PendingRemoteINS0_15AdapterObserverEEE to i8*), i8* bitcast (void ()* @__cxa_pure_virtual to i8*), i8* bitcast (i1 (%"class.bluetooth::mojom::Adapter"*, %"class.device::BluetoothUUID"*, %"class.std::__1::vector.104"*, i1, %"class.mojo::PendingRemote.111"*)* @_ZN9bluetooth5mojom7Adapter21RegisterAdvertisementERKN6device13BluetoothUUIDERKNSt3__16vectorIhNS6_9allocatorIhEEEEbPN4mojo13PendingRemoteINS0_13AdvertisementEEE to i8*), i8* bitcast (void ()* @__cxa_pure_virtual to i8*), i8* bitcast (i1 (%"class.bluetooth::mojom::Adapter"*, i1, i8*)* @_ZN9bluetooth5mojom7Adapter15SetDiscoverableEbPb to i8*), i8* bitcast (void ()* @__cxa_pure_virtual to i8*), i8* bitcast (i1 (%"class.bluetooth::mojom::Adapter"*, %"class.std::__1::basic_string"*, i8*)* @_ZN9bluetooth5mojom7Adapter7SetNameERKNSt3__112basic_stringIcNS2_11char_traitsIcEENS2_9allocatorIcEEEEPb to i8*), i8* bitcast (void ()* @__cxa_pure_virtual to i8*), i8* bitcast (i1 (%"class.bluetooth::mojom::Adapter"*, %"class.mojo::PendingRemote.112"*)* @_ZN9bluetooth5mojom7Adapter21StartDiscoverySessionEPN4mojo13PendingRemoteINS0_16DiscoverySessionEEE to i8*), i8* bitcast (void ()* @__cxa_pure_virtual to i8*), i8* bitcast (i1 (%"class.bluetooth::mojom::Adapter"*, %"class.std::__1::basic_string"*, %"class.device::BluetoothUUID"*, %"class.mojo::StructPtr.113"*)* @_ZN9bluetooth5mojom7Adapter26ConnectToServiceInsecurelyERKNSt3__112basic_stringIcNS2_11char_traitsIcEENS2_9allocatorIcEEEERKN6device13BluetoothUUIDEPN4mojo9StructPtrINS0_22ConnectToServiceResultEEE to i8*), i8* bitcast (void ()* @__cxa_pure_virtual to i8*), i8* bitcast (i1 (%"class.bluetooth::mojom::Adapter"*, %"class.std::__1::basic_string"*, %"class.device::BluetoothUUID"*, %"class.mojo::PendingRemote.120"*)* @_ZN9bluetooth5mojom7Adapter29CreateRfcommServiceInsecurelyERKNSt3__112basic_stringIcNS2_11char_traitsIcEENS2_9allocatorIcEEEERKN6device13BluetoothUUIDEPN4mojo13PendingRemoteINS0_12ServerSocketEEE to i8*), i8* bitcast (void ()* @__cxa_pure_virtual to i8*)] }, align 8
@_ZTVN9bluetooth5mojom41Adapter_ConnectToDevice_ForwardToCallbackE = hidden unnamed_addr constant { [6 x i8*] } { [6 x i8*] [i8* null, i8* null, i8* bitcast (void (%"class.bluetooth::mojom::Adapter_ConnectToDevice_ForwardToCallback"*)* @_ZN9bluetooth5mojom41Adapter_ConnectToDevice_ForwardToCallbackD2Ev to i8*), i8* bitcast (void (%"class.bluetooth::mojom::Adapter_ConnectToDevice_ForwardToCallback"*)* @_ZN9bluetooth5mojom41Adapter_ConnectToDevice_ForwardToCallbackD0Ev to i8*), i8* bitcast (i1 (%"class.mojo::MessageReceiver"*)* @_ZN4mojo15MessageReceiver25PrefersSerializedMessagesEv to i8*), i8* bitcast (i1 (%"class.bluetooth::mojom::Adapter_ConnectToDevice_ForwardToCallback"*, %"class.mojo::Message"*)* @_ZN9bluetooth5mojom41Adapter_ConnectToDevice_ForwardToCallback6AcceptEPN4mojo7MessageE to i8*)] }, align 8
@_ZTVN9bluetooth5mojom36Adapter_GetDevices_ForwardToCallbackE = hidden unnamed_addr constant { [6 x i8*] } { [6 x i8*] [i8* null, i8* null, i8* bitcast (void (%"class.bluetooth::mojom::Adapter_GetDevices_ForwardToCallback"*)* @_ZN9bluetooth5mojom36Adapter_GetDevices_ForwardToCallbackD2Ev to i8*), i8* bitcast (void (%"class.bluetooth::mojom::Adapter_GetDevices_ForwardToCallback"*)* @_ZN9bluetooth5mojom36Adapter_GetDevices_ForwardToCallbackD0Ev to i8*), i8* bitcast (i1 (%"class.mojo::MessageReceiver"*)* @_ZN4mojo15MessageReceiver25PrefersSerializedMessagesEv to i8*), i8* bitcast (i1 (%"class.bluetooth::mojom::Adapter_GetDevices_ForwardToCallback"*, %"class.mojo::Message"*)* @_ZN9bluetooth5mojom36Adapter_GetDevices_ForwardToCallback6AcceptEPN4mojo7MessageE to i8*)] }, align 8
@_ZTVN9bluetooth5mojom34Adapter_GetInfo_HandleSyncResponseE = hidden unnamed_addr constant { [6 x i8*] } { [6 x i8*] [i8* null, i8* null, i8* bitcast (void (%"class.mojo::MessageReceiver"*)* @_ZN4mojo15MessageReceiverD2Ev to i8*), i8* bitcast (void (%"class.bluetooth::mojom::Adapter_GetInfo_HandleSyncResponse"*)* @_ZN9bluetooth5mojom34Adapter_GetInfo_HandleSyncResponseD0Ev to i8*), i8* bitcast (i1 (%"class.mojo::MessageReceiver"*)* @_ZN4mojo15MessageReceiver25PrefersSerializedMessagesEv to i8*), i8* bitcast (i1 (%"class.bluetooth::mojom::Adapter_GetInfo_HandleSyncResponse"*, %"class.mojo::Message"*)* @_ZN9bluetooth5mojom34Adapter_GetInfo_HandleSyncResponse6AcceptEPN4mojo7MessageE to i8*)] }, align 8
@_ZTVN9bluetooth5mojom33Adapter_GetInfo_ForwardToCallbackE = hidden unnamed_addr constant { [6 x i8*] } { [6 x i8*] [i8* null, i8* null, i8* bitcast (void (%"class.bluetooth::mojom::Adapter_GetInfo_ForwardToCallback"*)* @_ZN9bluetooth5mojom33Adapter_GetInfo_ForwardToCallbackD2Ev to i8*), i8* bitcast (void (%"class.bluetooth::mojom::Adapter_GetInfo_ForwardToCallback"*)* @_ZN9bluetooth5mojom33Adapter_GetInfo_ForwardToCallbackD0Ev to i8*), i8* bitcast (i1 (%"class.mojo::MessageReceiver"*)* @_ZN4mojo15MessageReceiver25PrefersSerializedMessagesEv to i8*), i8* bitcast (i1 (%"class.bluetooth::mojom::Adapter_GetInfo_ForwardToCallback"*, %"class.mojo::Message"*)* @_ZN9bluetooth5mojom33Adapter_GetInfo_ForwardToCallback6AcceptEPN4mojo7MessageE to i8*)] }, align 8
@_ZTVN9bluetooth5mojom38Adapter_AddObserver_HandleSyncResponseE = hidden unnamed_addr constant { [6 x i8*] } { [6 x i8*] [i8* null, i8* null, i8* bitcast (void (%"class.mojo::MessageReceiver"*)* @_ZN4mojo15MessageReceiverD2Ev to i8*), i8* bitcast (void (%"class.bluetooth::mojom::Adapter_AddObserver_HandleSyncResponse"*)* @_ZN9bluetooth5mojom38Adapter_AddObserver_HandleSyncResponseD0Ev to i8*), i8* bitcast (i1 (%"class.mojo::MessageReceiver"*)* @_ZN4mojo15MessageReceiver25PrefersSerializedMessagesEv to i8*), i8* bitcast (i1 (%"class.bluetooth::mojom::Adapter_AddObserver_HandleSyncResponse"*, %"class.mojo::Message"*)* @_ZN9bluetooth5mojom38Adapter_AddObserver_HandleSyncResponse6AcceptEPN4mojo7MessageE to i8*)] }, align 8
@_ZTVN9bluetooth5mojom37Adapter_AddObserver_ForwardToCallbackE = hidden unnamed_addr constant { [6 x i8*] } { [6 x i8*] [i8* null, i8* null, i8* bitcast (void (%"class.bluetooth::mojom::Adapter_AddObserver_ForwardToCallback"*)* @_ZN9bluetooth5mojom37Adapter_AddObserver_ForwardToCallbackD2Ev to i8*), i8* bitcast (void (%"class.bluetooth::mojom::Adapter_AddObserver_ForwardToCallback"*)* @_ZN9bluetooth5mojom37Adapter_AddObserver_ForwardToCallbackD0Ev to i8*), i8* bitcast (i1 (%"class.mojo::MessageReceiver"*)* @_ZN4mojo15MessageReceiver25PrefersSerializedMessagesEv to i8*), i8* bitcast (i1 (%"class.bluetooth::mojom::Adapter_AddObserver_ForwardToCallback"*, %"class.mojo::Message"*)* @_ZN9bluetooth5mojom37Adapter_AddObserver_ForwardToCallback6AcceptEPN4mojo7MessageE to i8*)] }, align 8
@_ZTVN9bluetooth5mojom48Adapter_RegisterAdvertisement_HandleSyncResponseE = hidden unnamed_addr constant { [6 x i8*] } { [6 x i8*] [i8* null, i8* null, i8* bitcast (void (%"class.mojo::MessageReceiver"*)* @_ZN4mojo15MessageReceiverD2Ev to i8*), i8* bitcast (void (%"class.bluetooth::mojom::Adapter_RegisterAdvertisement_HandleSyncResponse"*)* @_ZN9bluetooth5mojom48Adapter_RegisterAdvertisement_HandleSyncResponseD0Ev to i8*), i8* bitcast (i1 (%"class.mojo::MessageReceiver"*)* @_ZN4mojo15MessageReceiver25PrefersSerializedMessagesEv to i8*), i8* bitcast (i1 (%"class.bluetooth::mojom::Adapter_RegisterAdvertisement_HandleSyncResponse"*, %"class.mojo::Message"*)* @_ZN9bluetooth5mojom48Adapter_RegisterAdvertisement_HandleSyncResponse6AcceptEPN4mojo7MessageE to i8*)] }, align 8
@_ZTVN9bluetooth5mojom47Adapter_RegisterAdvertisement_ForwardToCallbackE = hidden unnamed_addr constant { [6 x i8*] } { [6 x i8*] [i8* null, i8* null, i8* bitcast (void (%"class.bluetooth::mojom::Adapter_RegisterAdvertisement_ForwardToCallback"*)* @_ZN9bluetooth5mojom47Adapter_RegisterAdvertisement_ForwardToCallbackD2Ev to i8*), i8* bitcast (void (%"class.bluetooth::mojom::Adapter_RegisterAdvertisement_ForwardToCallback"*)* @_ZN9bluetooth5mojom47Adapter_RegisterAdvertisement_ForwardToCallbackD0Ev to i8*), i8* bitcast (i1 (%"class.mojo::MessageReceiver"*)* @_ZN4mojo15MessageReceiver25PrefersSerializedMessagesEv to i8*), i8* bitcast (i1 (%"class.bluetooth::mojom::Adapter_RegisterAdvertisement_ForwardToCallback"*, %"class.mojo::Message"*)* @_ZN9bluetooth5mojom47Adapter_RegisterAdvertisement_ForwardToCallback6AcceptEPN4mojo7MessageE to i8*)] }, align 8
@_ZTVN9bluetooth5mojom42Adapter_SetDiscoverable_HandleSyncResponseE = hidden unnamed_addr constant { [6 x i8*] } { [6 x i8*] [i8* null, i8* null, i8* bitcast (void (%"class.mojo::MessageReceiver"*)* @_ZN4mojo15MessageReceiverD2Ev to i8*), i8* bitcast (void (%"class.bluetooth::mojom::Adapter_SetDiscoverable_HandleSyncResponse"*)* @_ZN9bluetooth5mojom42Adapter_SetDiscoverable_HandleSyncResponseD0Ev to i8*), i8* bitcast (i1 (%"class.mojo::MessageReceiver"*)* @_ZN4mojo15MessageReceiver25PrefersSerializedMessagesEv to i8*), i8* bitcast (i1 (%"class.bluetooth::mojom::Adapter_SetDiscoverable_HandleSyncResponse"*, %"class.mojo::Message"*)* @_ZN9bluetooth5mojom42Adapter_SetDiscoverable_HandleSyncResponse6AcceptEPN4mojo7MessageE to i8*)] }, align 8
@_ZTVN9bluetooth5mojom41Adapter_SetDiscoverable_ForwardToCallbackE = hidden unnamed_addr constant { [6 x i8*] } { [6 x i8*] [i8* null, i8* null, i8* bitcast (void (%"class.bluetooth::mojom::Adapter_SetDiscoverable_ForwardToCallback"*)* @_ZN9bluetooth5mojom41Adapter_SetDiscoverable_ForwardToCallbackD2Ev to i8*), i8* bitcast (void (%"class.bluetooth::mojom::Adapter_SetDiscoverable_ForwardToCallback"*)* @_ZN9bluetooth5mojom41Adapter_SetDiscoverable_ForwardToCallbackD0Ev to i8*), i8* bitcast (i1 (%"class.mojo::MessageReceiver"*)* @_ZN4mojo15MessageReceiver25PrefersSerializedMessagesEv to i8*), i8* bitcast (i1 (%"class.bluetooth::mojom::Adapter_SetDiscoverable_ForwardToCallback"*, %"class.mojo::Message"*)* @_ZN9bluetooth5mojom41Adapter_SetDiscoverable_ForwardToCallback6AcceptEPN4mojo7MessageE to i8*)] }, align 8
@_ZTVN9bluetooth5mojom34Adapter_SetName_HandleSyncResponseE = hidden unnamed_addr constant { [6 x i8*] } { [6 x i8*] [i8* null, i8* null, i8* bitcast (void (%"class.mojo::MessageReceiver"*)* @_ZN4mojo15MessageReceiverD2Ev to i8*), i8* bitcast (void (%"class.bluetooth::mojom::Adapter_SetName_HandleSyncResponse"*)* @_ZN9bluetooth5mojom34Adapter_SetName_HandleSyncResponseD0Ev to i8*), i8* bitcast (i1 (%"class.mojo::MessageReceiver"*)* @_ZN4mojo15MessageReceiver25PrefersSerializedMessagesEv to i8*), i8* bitcast (i1 (%"class.bluetooth::mojom::Adapter_SetName_HandleSyncResponse"*, %"class.mojo::Message"*)* @_ZN9bluetooth5mojom34Adapter_SetName_HandleSyncResponse6AcceptEPN4mojo7MessageE to i8*)] }, align 8
@_ZTVN9bluetooth5mojom33Adapter_SetName_ForwardToCallbackE = hidden unnamed_addr constant { [6 x i8*] } { [6 x i8*] [i8* null, i8* null, i8* bitcast (void (%"class.bluetooth::mojom::Adapter_SetName_ForwardToCallback"*)* @_ZN9bluetooth5mojom33Adapter_SetName_ForwardToCallbackD2Ev to i8*), i8* bitcast (void (%"class.bluetooth::mojom::Adapter_SetName_ForwardToCallback"*)* @_ZN9bluetooth5mojom33Adapter_SetName_ForwardToCallbackD0Ev to i8*), i8* bitcast (i1 (%"class.mojo::MessageReceiver"*)* @_ZN4mojo15MessageReceiver25PrefersSerializedMessagesEv to i8*), i8* bitcast (i1 (%"class.bluetooth::mojom::Adapter_SetName_ForwardToCallback"*, %"class.mojo::Message"*)* @_ZN9bluetooth5mojom33Adapter_SetName_ForwardToCallback6AcceptEPN4mojo7MessageE to i8*)] }, align 8
@_ZTVN9bluetooth5mojom48Adapter_StartDiscoverySession_HandleSyncResponseE = hidden unnamed_addr constant { [6 x i8*] } { [6 x i8*] [i8* null, i8* null, i8* bitcast (void (%"class.mojo::MessageReceiver"*)* @_ZN4mojo15MessageReceiverD2Ev to i8*), i8* bitcast (void (%"class.bluetooth::mojom::Adapter_StartDiscoverySession_HandleSyncResponse"*)* @_ZN9bluetooth5mojom48Adapter_StartDiscoverySession_HandleSyncResponseD0Ev to i8*), i8* bitcast (i1 (%"class.mojo::MessageReceiver"*)* @_ZN4mojo15MessageReceiver25PrefersSerializedMessagesEv to i8*), i8* bitcast (i1 (%"class.bluetooth::mojom::Adapter_StartDiscoverySession_HandleSyncResponse"*, %"class.mojo::Message"*)* @_ZN9bluetooth5mojom48Adapter_StartDiscoverySession_HandleSyncResponse6AcceptEPN4mojo7MessageE to i8*)] }, align 8
@_ZTVN9bluetooth5mojom47Adapter_StartDiscoverySession_ForwardToCallbackE = hidden unnamed_addr constant { [6 x i8*] } { [6 x i8*] [i8* null, i8* null, i8* bitcast (void (%"class.bluetooth::mojom::Adapter_StartDiscoverySession_ForwardToCallback"*)* @_ZN9bluetooth5mojom47Adapter_StartDiscoverySession_ForwardToCallbackD2Ev to i8*), i8* bitcast (void (%"class.bluetooth::mojom::Adapter_StartDiscoverySession_ForwardToCallback"*)* @_ZN9bluetooth5mojom47Adapter_StartDiscoverySession_ForwardToCallbackD0Ev to i8*), i8* bitcast (i1 (%"class.mojo::MessageReceiver"*)* @_ZN4mojo15MessageReceiver25PrefersSerializedMessagesEv to i8*), i8* bitcast (i1 (%"class.bluetooth::mojom::Adapter_StartDiscoverySession_ForwardToCallback"*, %"class.mojo::Message"*)* @_ZN9bluetooth5mojom47Adapter_StartDiscoverySession_ForwardToCallback6AcceptEPN4mojo7MessageE to i8*)] }, align 8
@_ZTVN9bluetooth5mojom53Adapter_ConnectToServiceInsecurely_HandleSyncResponseE = hidden unnamed_addr constant { [6 x i8*] } { [6 x i8*] [i8* null, i8* null, i8* bitcast (void (%"class.mojo::MessageReceiver"*)* @_ZN4mojo15MessageReceiverD2Ev to i8*), i8* bitcast (void (%"class.bluetooth::mojom::Adapter_ConnectToServiceInsecurely_HandleSyncResponse"*)* @_ZN9bluetooth5mojom53Adapter_ConnectToServiceInsecurely_HandleSyncResponseD0Ev to i8*), i8* bitcast (i1 (%"class.mojo::MessageReceiver"*)* @_ZN4mojo15MessageReceiver25PrefersSerializedMessagesEv to i8*), i8* bitcast (i1 (%"class.bluetooth::mojom::Adapter_ConnectToServiceInsecurely_HandleSyncResponse"*, %"class.mojo::Message"*)* @_ZN9bluetooth5mojom53Adapter_ConnectToServiceInsecurely_HandleSyncResponse6AcceptEPN4mojo7MessageE to i8*)] }, align 8
@_ZTVN9bluetooth5mojom52Adapter_ConnectToServiceInsecurely_ForwardToCallbackE = hidden unnamed_addr constant { [6 x i8*] } { [6 x i8*] [i8* null, i8* null, i8* bitcast (void (%"class.bluetooth::mojom::Adapter_ConnectToServiceInsecurely_ForwardToCallback"*)* @_ZN9bluetooth5mojom52Adapter_ConnectToServiceInsecurely_ForwardToCallbackD2Ev to i8*), i8* bitcast (void (%"class.bluetooth::mojom::Adapter_ConnectToServiceInsecurely_ForwardToCallback"*)* @_ZN9bluetooth5mojom52Adapter_ConnectToServiceInsecurely_ForwardToCallbackD0Ev to i8*), i8* bitcast (i1 (%"class.mojo::MessageReceiver"*)* @_ZN4mojo15MessageReceiver25PrefersSerializedMessagesEv to i8*), i8* bitcast (i1 (%"class.bluetooth::mojom::Adapter_ConnectToServiceInsecurely_ForwardToCallback"*, %"class.mojo::Message"*)* @_ZN9bluetooth5mojom52Adapter_ConnectToServiceInsecurely_ForwardToCallback6AcceptEPN4mojo7MessageE to i8*)] }, align 8
@_ZTVN9bluetooth5mojom56Adapter_CreateRfcommServiceInsecurely_HandleSyncResponseE = hidden unnamed_addr constant { [6 x i8*] } { [6 x i8*] [i8* null, i8* null, i8* bitcast (void (%"class.mojo::MessageReceiver"*)* @_ZN4mojo15MessageReceiverD2Ev to i8*), i8* bitcast (void (%"class.bluetooth::mojom::Adapter_CreateRfcommServiceInsecurely_HandleSyncResponse"*)* @_ZN9bluetooth5mojom56Adapter_CreateRfcommServiceInsecurely_HandleSyncResponseD0Ev to i8*), i8* bitcast (i1 (%"class.mojo::MessageReceiver"*)* @_ZN4mojo15MessageReceiver25PrefersSerializedMessagesEv to i8*), i8* bitcast (i1 (%"class.bluetooth::mojom::Adapter_CreateRfcommServiceInsecurely_HandleSyncResponse"*, %"class.mojo::Message"*)* @_ZN9bluetooth5mojom56Adapter_CreateRfcommServiceInsecurely_HandleSyncResponse6AcceptEPN4mojo7MessageE to i8*)] }, align 8
@_ZTVN9bluetooth5mojom55Adapter_CreateRfcommServiceInsecurely_ForwardToCallbackE = hidden unnamed_addr constant { [6 x i8*] } { [6 x i8*] [i8* null, i8* null, i8* bitcast (void (%"class.bluetooth::mojom::Adapter_CreateRfcommServiceInsecurely_ForwardToCallback"*)* @_ZN9bluetooth5mojom55Adapter_CreateRfcommServiceInsecurely_ForwardToCallbackD2Ev to i8*), i8* bitcast (void (%"class.bluetooth::mojom::Adapter_CreateRfcommServiceInsecurely_ForwardToCallback"*)* @_ZN9bluetooth5mojom55Adapter_CreateRfcommServiceInsecurely_ForwardToCallbackD0Ev to i8*), i8* bitcast (i1 (%"class.mojo::MessageReceiver"*)* @_ZN4mojo15MessageReceiver25PrefersSerializedMessagesEv to i8*), i8* bitcast (i1 (%"class.bluetooth::mojom::Adapter_CreateRfcommServiceInsecurely_ForwardToCallback"*, %"class.mojo::Message"*)* @_ZN9bluetooth5mojom55Adapter_CreateRfcommServiceInsecurely_ForwardToCallback6AcceptEPN4mojo7MessageE to i8*)] }, align 8
@_ZTVN9bluetooth5mojom23AdapterRequestValidatorE = hidden unnamed_addr constant { [6 x i8*] } { [6 x i8*] [i8* null, i8* null, i8* bitcast (void (%"class.mojo::MessageReceiver"*)* @_ZN4mojo15MessageReceiverD2Ev to i8*), i8* bitcast (void (%"class.bluetooth::mojom::AdapterRequestValidator"*)* @_ZN9bluetooth5mojom23AdapterRequestValidatorD0Ev to i8*), i8* bitcast (i1 (%"class.mojo::MessageReceiver"*)* @_ZN4mojo15MessageReceiver25PrefersSerializedMessagesEv to i8*), i8* bitcast (i1 (%"class.bluetooth::mojom::AdapterRequestValidator"*, %"class.mojo::Message"*)* @_ZN9bluetooth5mojom23AdapterRequestValidator6AcceptEPN4mojo7MessageE to i8*)] }, align 8
@_ZTVN9bluetooth5mojom24AdapterResponseValidatorE = hidden unnamed_addr constant { [6 x i8*] } { [6 x i8*] [i8* null, i8* null, i8* bitcast (void (%"class.mojo::MessageReceiver"*)* @_ZN4mojo15MessageReceiverD2Ev to i8*), i8* bitcast (void (%"class.bluetooth::mojom::AdapterResponseValidator"*)* @_ZN9bluetooth5mojom24AdapterResponseValidatorD0Ev to i8*), i8* bitcast (i1 (%"class.mojo::MessageReceiver"*)* @_ZN4mojo15MessageReceiver25PrefersSerializedMessagesEv to i8*), i8* bitcast (i1 (%"class.bluetooth::mojom::AdapterResponseValidator"*, %"class.mojo::Message"*)* @_ZN9bluetooth5mojom24AdapterResponseValidator6AcceptEPN4mojo7MessageE to i8*)] }, align 8
@_ZTVN9bluetooth5mojom31AdapterObserverRequestValidatorE = hidden unnamed_addr constant { [6 x i8*] } { [6 x i8*] [i8* null, i8* null, i8* bitcast (void (%"class.mojo::MessageReceiver"*)* @_ZN4mojo15MessageReceiverD2Ev to i8*), i8* bitcast (void (%"class.bluetooth::mojom::AdapterObserverRequestValidator"*)* @_ZN9bluetooth5mojom31AdapterObserverRequestValidatorD0Ev to i8*), i8* bitcast (i1 (%"class.mojo::MessageReceiver"*)* @_ZN4mojo15MessageReceiver25PrefersSerializedMessagesEv to i8*), i8* bitcast (i1 (%"class.bluetooth::mojom::AdapterObserverRequestValidator"*, %"class.mojo::Message"*)* @_ZN9bluetooth5mojom31AdapterObserverRequestValidator6AcceptEPN4mojo7MessageE to i8*)] }, align 8

@_ZN9bluetooth5mojom22ConnectToServiceResultC1Ev = hidden unnamed_addr alias void (%"class.bluetooth::mojom::ConnectToServiceResult"*), void (%"class.bluetooth::mojom::ConnectToServiceResult"*)* @_ZN9bluetooth5mojom22ConnectToServiceResultC2Ev
@_ZN9bluetooth5mojom22ConnectToServiceResultC1EN4mojo13PendingRemoteINS0_6SocketEEENS2_16ScopedHandleBaseINS2_22DataPipeConsumerHandleEEENS6_INS2_22DataPipeProducerHandleEEE = hidden unnamed_addr alias void (%"class.bluetooth::mojom::ConnectToServiceResult"*, %"class.mojo::PendingRemote"*, %"class.mojo::ScopedHandleBase.0"*, %"class.mojo::ScopedHandleBase.1"*), void (%"class.bluetooth::mojom::ConnectToServiceResult"*, %"class.mojo::PendingRemote"*, %"class.mojo::ScopedHandleBase.0"*, %"class.mojo::ScopedHandleBase.1"*)* @_ZN9bluetooth5mojom22ConnectToServiceResultC2EN4mojo13PendingRemoteINS0_6SocketEEENS2_16ScopedHandleBaseINS2_22DataPipeConsumerHandleEEENS6_INS2_22DataPipeProducerHandleEEE
@_ZN9bluetooth5mojom22ConnectToServiceResultD1Ev = hidden unnamed_addr alias void (%"class.bluetooth::mojom::ConnectToServiceResult"*), void (%"class.bluetooth::mojom::ConnectToServiceResult"*)* @_ZN9bluetooth5mojom22ConnectToServiceResultD2Ev
@_ZN9bluetooth5mojom22AcceptConnectionResultC1Ev = hidden unnamed_addr alias void (%"class.bluetooth::mojom::AcceptConnectionResult"*), void (%"class.bluetooth::mojom::AcceptConnectionResult"*)* @_ZN9bluetooth5mojom22AcceptConnectionResultC2Ev
@_ZN9bluetooth5mojom22AcceptConnectionResultC1EN4mojo9StructPtrINS0_10DeviceInfoEEENS2_13PendingRemoteINS0_6SocketEEENS2_16ScopedHandleBaseINS2_22DataPipeConsumerHandleEEENS9_INS2_22DataPipeProducerHandleEEE = hidden unnamed_addr alias void (%"class.bluetooth::mojom::AcceptConnectionResult"*, %"class.mojo::StructPtr"*, %"class.mojo::PendingRemote"*, %"class.mojo::ScopedHandleBase.0"*, %"class.mojo::ScopedHandleBase.1"*), void (%"class.bluetooth::mojom::AcceptConnectionResult"*, %"class.mojo::StructPtr"*, %"class.mojo::PendingRemote"*, %"class.mojo::ScopedHandleBase.0"*, %"class.mojo::ScopedHandleBase.1"*)* @_ZN9bluetooth5mojom22AcceptConnectionResultC2EN4mojo9StructPtrINS0_10DeviceInfoEEENS2_13PendingRemoteINS0_6SocketEEENS2_16ScopedHandleBaseINS2_22DataPipeConsumerHandleEEENS9_INS2_22DataPipeProducerHandleEEE
@_ZN9bluetooth5mojom22AcceptConnectionResultD1Ev = hidden unnamed_addr alias void (%"class.bluetooth::mojom::AcceptConnectionResult"*), void (%"class.bluetooth::mojom::AcceptConnectionResult"*)* @_ZN9bluetooth5mojom22AcceptConnectionResultD2Ev
@_ZN9bluetooth5mojom11AdapterInfoC1Ev = hidden unnamed_addr alias void (%"class.bluetooth::mojom::AdapterInfo"*), void (%"class.bluetooth::mojom::AdapterInfo"*)* @_ZN9bluetooth5mojom11AdapterInfoC2Ev
@_ZN9bluetooth5mojom11AdapterInfoC1ERKNSt3__112basic_stringIcNS2_11char_traitsIcEENS2_9allocatorIcEEEESA_SA_bbbbb = hidden unnamed_addr alias void (%"class.bluetooth::mojom::AdapterInfo"*, %"class.std::__1::basic_string"*, %"class.std::__1::basic_string"*, %"class.std::__1::basic_string"*, i1, i1, i1, i1, i1), void (%"class.bluetooth::mojom::AdapterInfo"*, %"class.std::__1::basic_string"*, %"class.std::__1::basic_string"*, %"class.std::__1::basic_string"*, i1, i1, i1, i1, i1)* @_ZN9bluetooth5mojom11AdapterInfoC2ERKNSt3__112basic_stringIcNS2_11char_traitsIcEENS2_9allocatorIcEEEESA_SA_bbbbb
@_ZN9bluetooth5mojom11AdapterInfoD1Ev = hidden unnamed_addr alias void (%"class.bluetooth::mojom::AdapterInfo"*), void (%"class.bluetooth::mojom::AdapterInfo"*)* @_ZN9bluetooth5mojom11AdapterInfoD2Ev
@_ZN9bluetooth5mojom18AdvertisementProxyC1EPN4mojo28MessageReceiverWithResponderE = hidden unnamed_addr alias void (%"class.bluetooth::mojom::AdvertisementProxy"*, %"class.mojo::MessageReceiverWithResponder"*), void (%"class.bluetooth::mojom::AdvertisementProxy"*, %"class.mojo::MessageReceiverWithResponder"*)* @_ZN9bluetooth5mojom18AdvertisementProxyC2EPN4mojo28MessageReceiverWithResponderE
@_ZN9bluetooth5mojom21DiscoverySessionProxyC1EPN4mojo28MessageReceiverWithResponderE = hidden unnamed_addr alias void (%"class.bluetooth::mojom::DiscoverySessionProxy"*, %"class.mojo::MessageReceiverWithResponder"*), void (%"class.bluetooth::mojom::DiscoverySessionProxy"*, %"class.mojo::MessageReceiverWithResponder"*)* @_ZN9bluetooth5mojom21DiscoverySessionProxyC2EPN4mojo28MessageReceiverWithResponderE
@_ZN9bluetooth5mojom11SocketProxyC1EPN4mojo28MessageReceiverWithResponderE = hidden unnamed_addr alias void (%"class.bluetooth::mojom::SocketProxy"*, %"class.mojo::MessageReceiverWithResponder"*), void (%"class.bluetooth::mojom::SocketProxy"*, %"class.mojo::MessageReceiverWithResponder"*)* @_ZN9bluetooth5mojom11SocketProxyC2EPN4mojo28MessageReceiverWithResponderE
@_ZN9bluetooth5mojom17ServerSocketProxyC1EPN4mojo28MessageReceiverWithResponderE = hidden unnamed_addr alias void (%"class.bluetooth::mojom::ServerSocketProxy"*, %"class.mojo::MessageReceiverWithResponder"*), void (%"class.bluetooth::mojom::ServerSocketProxy"*, %"class.mojo::MessageReceiverWithResponder"*)* @_ZN9bluetooth5mojom17ServerSocketProxyC2EPN4mojo28MessageReceiverWithResponderE
@_ZN9bluetooth5mojom12AdapterProxyC1EPN4mojo28MessageReceiverWithResponderE = hidden unnamed_addr alias void (%"class.bluetooth::mojom::AdapterProxy"*, %"class.mojo::MessageReceiverWithResponder"*), void (%"class.bluetooth::mojom::AdapterProxy"*, %"class.mojo::MessageReceiverWithResponder"*)* @_ZN9bluetooth5mojom12AdapterProxyC2EPN4mojo28MessageReceiverWithResponderE
@_ZN9bluetooth5mojom20AdapterObserverProxyC1EPN4mojo28MessageReceiverWithResponderE = hidden unnamed_addr alias void (%"class.bluetooth::mojom::AdapterObserverProxy"*, %"class.mojo::MessageReceiverWithResponder"*), void (%"class.bluetooth::mojom::AdapterObserverProxy"*, %"class.mojo::MessageReceiverWithResponder"*)* @_ZN9bluetooth5mojom20AdapterObserverProxyC2EPN4mojo28MessageReceiverWithResponderE

; Function Attrs: nounwind ssp uwtable
define hidden void @_ZN9bluetooth5mojom22ConnectToServiceResultC2Ev(%"class.bluetooth::mojom::ConnectToServiceResult"*) unnamed_addr #0 align 2 {
  %2 = bitcast %"class.bluetooth::mojom::ConnectToServiceResult"* %0 to i64*
  store i64 0, i64* %2, align 4
  %3 = getelementptr inbounds %"class.bluetooth::mojom::ConnectToServiceResult", %"class.bluetooth::mojom::ConnectToServiceResult"* %0, i64 0, i32 0, i32 0
  tail call void @_ZN4mojo8internal18PendingRemoteStateC1Ev(%"struct.mojo::internal::PendingRemoteState"* %3) #12
  %4 = getelementptr inbounds %"class.bluetooth::mojom::ConnectToServiceResult", %"class.bluetooth::mojom::ConnectToServiceResult"* %0, i64 0, i32 1, i32 0, i32 0, i32 0
  store i32 0, i32* %4, align 4
  %5 = getelementptr inbounds %"class.bluetooth::mojom::ConnectToServiceResult", %"class.bluetooth::mojom::ConnectToServiceResult"* %0, i64 0, i32 2, i32 0, i32 0, i32 0
  store i32 0, i32* %5, align 4
  ret void
}

; Function Attrs: argmemonly nounwind
declare void @llvm.memset.p0i8.i64(i8* nocapture writeonly, i8, i64, i1 immarg) #1

; Function Attrs: nounwind ssp uwtable
define hidden void @_ZN9bluetooth5mojom22ConnectToServiceResultC2EN4mojo13PendingRemoteINS0_6SocketEEENS2_16ScopedHandleBaseINS2_22DataPipeConsumerHandleEEENS6_INS2_22DataPipeProducerHandleEEE(%"class.bluetooth::mojom::ConnectToServiceResult"*, %"class.mojo::PendingRemote"*, %"class.mojo::ScopedHandleBase.0"* nocapture, %"class.mojo::ScopedHandleBase.1"* nocapture) unnamed_addr #0 align 2 {
  %5 = getelementptr inbounds %"class.bluetooth::mojom::ConnectToServiceResult", %"class.bluetooth::mojom::ConnectToServiceResult"* %0, i64 0, i32 0, i32 0
  %6 = getelementptr inbounds %"class.mojo::PendingRemote", %"class.mojo::PendingRemote"* %1, i64 0, i32 0
  tail call void @_ZN4mojo8internal18PendingRemoteStateC1EOS1_(%"struct.mojo::internal::PendingRemoteState"* %5, %"struct.mojo::internal::PendingRemoteState"* dereferenceable(8) %6) #12
  %7 = getelementptr inbounds %"class.bluetooth::mojom::ConnectToServiceResult", %"class.bluetooth::mojom::ConnectToServiceResult"* %0, i64 0, i32 1, i32 0, i32 0, i32 0
  %8 = getelementptr inbounds %"class.mojo::ScopedHandleBase.0", %"class.mojo::ScopedHandleBase.0"* %2, i64 0, i32 0, i32 0, i32 0
  %9 = load i32, i32* %8, align 4, !noalias !2
  store i32 %9, i32* %7, align 4, !alias.scope !2
  store i32 0, i32* %8, align 4, !noalias !2
  %10 = getelementptr inbounds %"class.bluetooth::mojom::ConnectToServiceResult", %"class.bluetooth::mojom::ConnectToServiceResult"* %0, i64 0, i32 2, i32 0, i32 0, i32 0
  %11 = getelementptr inbounds %"class.mojo::ScopedHandleBase.1", %"class.mojo::ScopedHandleBase.1"* %3, i64 0, i32 0, i32 0, i32 0
  %12 = load i32, i32* %11, align 4, !noalias !5
  store i32 %12, i32* %10, align 4, !alias.scope !5
  store i32 0, i32* %11, align 4, !noalias !5
  ret void
}

; Function Attrs: nounwind ssp uwtable
define hidden void @_ZN9bluetooth5mojom22ConnectToServiceResultD2Ev(%"class.bluetooth::mojom::ConnectToServiceResult"*) unnamed_addr #0 align 2 {
  %2 = getelementptr inbounds %"class.bluetooth::mojom::ConnectToServiceResult", %"class.bluetooth::mojom::ConnectToServiceResult"* %0, i64 0, i32 2, i32 0, i32 0, i32 0
  %3 = load i32, i32* %2, align 4
  %4 = icmp eq i32 %3, 0
  br i1 %4, label %7, label %5

5:                                                ; preds = %1
  %6 = tail call i32 @MojoClose(i32 %3) #12
  br label %7

7:                                                ; preds = %1, %5
  %8 = getelementptr inbounds %"class.bluetooth::mojom::ConnectToServiceResult", %"class.bluetooth::mojom::ConnectToServiceResult"* %0, i64 0, i32 1, i32 0, i32 0, i32 0
  %9 = load i32, i32* %8, align 4
  %10 = icmp eq i32 %9, 0
  br i1 %10, label %13, label %11

11:                                               ; preds = %7
  %12 = tail call i32 @MojoClose(i32 %9) #12
  br label %13

13:                                               ; preds = %7, %11
  %14 = getelementptr inbounds %"class.bluetooth::mojom::ConnectToServiceResult", %"class.bluetooth::mojom::ConnectToServiceResult"* %0, i64 0, i32 0, i32 0
  tail call void @_ZN4mojo8internal18PendingRemoteStateD1Ev(%"struct.mojo::internal::PendingRemoteState"* %14) #12
  ret void
}

; Function Attrs: nounwind ssp uwtable
define hidden void @_ZNK9bluetooth5mojom22ConnectToServiceResult14WriteIntoTraceEN8perfetto11TracedValueE(%"class.bluetooth::mojom::ConnectToServiceResult"* nocapture readnone, %"class.perfetto::TracedValue"*) local_unnamed_addr #0 align 2 {
  %3 = alloca %"class.perfetto::TracedDictionary", align 8
  %4 = alloca %"class.perfetto::TracedValue", align 8
  %5 = alloca %"class.std::__1::basic_string", align 8
  %6 = alloca %"class.perfetto::TracedValue", align 8
  %7 = alloca %"class.std::__1::basic_string", align 8
  %8 = alloca %"class.perfetto::TracedValue", align 8
  %9 = alloca %"class.std::__1::basic_string", align 8
  %10 = bitcast %"class.perfetto::TracedDictionary"* %3 to i8*
  call void @llvm.lifetime.start.p0i8(i64 16, i8* nonnull %10) #12
  %11 = bitcast %"class.perfetto::TracedDictionary"* %3 to i8*
  call void @llvm.memset.p0i8.i64(i8* nonnull align 8 %11, i8 -86, i64 16, i1 false)
  call void @_ZNO8perfetto11TracedValue15WriteDictionaryEv(%"class.perfetto::TracedDictionary"* nonnull sret %3, %"class.perfetto::TracedValue"* %1) #12
  call void @_ZN8perfetto16TracedDictionary7AddItemENS_12StaticStringE(%"class.perfetto::TracedValue"* nonnull sret %4, %"class.perfetto::TracedDictionary"* nonnull %3, i8* getelementptr inbounds ([7 x i8], [7 x i8]* @.str, i64 0, i64 0)) #12
  %12 = bitcast %"class.std::__1::basic_string"* %5 to i8*
  call void @llvm.lifetime.start.p0i8(i64 24, i8* nonnull %12) #12
  %13 = bitcast %"class.std::__1::basic_string"* %5 to %"struct.std::__1::basic_string<char, std::__1::char_traits<char>, std::__1::allocator<char> >::__short"*
  %14 = getelementptr inbounds %"struct.std::__1::basic_string<char, std::__1::char_traits<char>, std::__1::allocator<char> >::__short", %"struct.std::__1::basic_string<char, std::__1::char_traits<char>, std::__1::allocator<char> >::__short"* %13, i64 0, i32 1, i32 0
  store i8 7, i8* %14, align 1
  call void @llvm.memcpy.p0i8.p0i8.i64(i8* nonnull align 8 %12, i8* align 1 getelementptr inbounds ([8 x i8], [8 x i8]* @.str.1, i64 0, i64 0), i64 7, i1 false) #12
  %15 = getelementptr inbounds i8, i8* %12, i64 7
  store i8 0, i8* %15, align 1
  call void @_ZNO8perfetto11TracedValue11WriteStringERKNSt3__112basic_stringIcNS1_11char_traitsIcEENS1_9allocatorIcEEEE(%"class.perfetto::TracedValue"* nonnull %4, %"class.std::__1::basic_string"* nonnull dereferenceable(24) %5) #12
  %16 = load i8, i8* %14, align 1
  %17 = icmp slt i8 %16, 0
  br i1 %17, label %18, label %21

18:                                               ; preds = %2
  %19 = getelementptr inbounds %"class.std::__1::basic_string", %"class.std::__1::basic_string"* %5, i64 0, i32 0, i32 0, i32 0, i32 0, i32 0, i32 0
  %20 = load i8*, i8** %19, align 8
  call void @_ZdlPv(i8* %20) #13
  br label %21

21:                                               ; preds = %2, %18
  call void @llvm.lifetime.end.p0i8(i64 24, i8* nonnull %12) #12
  call void @_ZN8perfetto16TracedDictionary7AddItemENS_12StaticStringE(%"class.perfetto::TracedValue"* nonnull sret %6, %"class.perfetto::TracedDictionary"* nonnull %3, i8* getelementptr inbounds ([15 x i8], [15 x i8]* @.str.2, i64 0, i64 0)) #12
  %22 = bitcast %"class.std::__1::basic_string"* %7 to i8*
  call void @llvm.lifetime.start.p0i8(i64 24, i8* nonnull %22) #12
  %23 = bitcast %"class.std::__1::basic_string"* %7 to %"struct.std::__1::basic_string<char, std::__1::char_traits<char>, std::__1::allocator<char> >::__short"*
  %24 = getelementptr inbounds %"struct.std::__1::basic_string<char, std::__1::char_traits<char>, std::__1::allocator<char> >::__short", %"struct.std::__1::basic_string<char, std::__1::char_traits<char>, std::__1::allocator<char> >::__short"* %23, i64 0, i32 1, i32 0
  store i8 7, i8* %24, align 1
  call void @llvm.memcpy.p0i8.p0i8.i64(i8* nonnull align 8 %22, i8* align 1 getelementptr inbounds ([8 x i8], [8 x i8]* @.str.1, i64 0, i64 0), i64 7, i1 false) #12
  %25 = getelementptr inbounds i8, i8* %22, i64 7
  store i8 0, i8* %25, align 1
  call void @_ZNO8perfetto11TracedValue11WriteStringERKNSt3__112basic_stringIcNS1_11char_traitsIcEENS1_9allocatorIcEEEE(%"class.perfetto::TracedValue"* nonnull %6, %"class.std::__1::basic_string"* nonnull dereferenceable(24) %7) #12
  %26 = load i8, i8* %24, align 1
  %27 = icmp slt i8 %26, 0
  br i1 %27, label %28, label %31

28:                                               ; preds = %21
  %29 = getelementptr inbounds %"class.std::__1::basic_string", %"class.std::__1::basic_string"* %7, i64 0, i32 0, i32 0, i32 0, i32 0, i32 0, i32 0
  %30 = load i8*, i8** %29, align 8
  call void @_ZdlPv(i8* %30) #13
  br label %31

31:                                               ; preds = %21, %28
  call void @llvm.lifetime.end.p0i8(i64 24, i8* nonnull %22) #12
  call void @_ZN8perfetto16TracedDictionary7AddItemENS_12StaticStringE(%"class.perfetto::TracedValue"* nonnull sret %8, %"class.perfetto::TracedDictionary"* nonnull %3, i8* getelementptr inbounds ([12 x i8], [12 x i8]* @.str.3, i64 0, i64 0)) #12
  %32 = bitcast %"class.std::__1::basic_string"* %9 to i8*
  call void @llvm.lifetime.start.p0i8(i64 24, i8* nonnull %32) #12
  %33 = bitcast %"class.std::__1::basic_string"* %9 to %"struct.std::__1::basic_string<char, std::__1::char_traits<char>, std::__1::allocator<char> >::__short"*
  %34 = getelementptr inbounds %"struct.std::__1::basic_string<char, std::__1::char_traits<char>, std::__1::allocator<char> >::__short", %"struct.std::__1::basic_string<char, std::__1::char_traits<char>, std::__1::allocator<char> >::__short"* %33, i64 0, i32 1, i32 0
  store i8 7, i8* %34, align 1
  call void @llvm.memcpy.p0i8.p0i8.i64(i8* nonnull align 8 %32, i8* align 1 getelementptr inbounds ([8 x i8], [8 x i8]* @.str.1, i64 0, i64 0), i64 7, i1 false) #12
  %35 = getelementptr inbounds i8, i8* %32, i64 7
  store i8 0, i8* %35, align 1
  call void @_ZNO8perfetto11TracedValue11WriteStringERKNSt3__112basic_stringIcNS1_11char_traitsIcEENS1_9allocatorIcEEEE(%"class.perfetto::TracedValue"* nonnull %8, %"class.std::__1::basic_string"* nonnull dereferenceable(24) %9) #12
  %36 = load i8, i8* %34, align 1
  %37 = icmp slt i8 %36, 0
  br i1 %37, label %38, label %41

38:                                               ; preds = %31
  %39 = getelementptr inbounds %"class.std::__1::basic_string", %"class.std::__1::basic_string"* %9, i64 0, i32 0, i32 0, i32 0, i32 0, i32 0, i32 0
  %40 = load i8*, i8** %39, align 8
  call void @_ZdlPv(i8* %40) #13
  br label %41

41:                                               ; preds = %31, %38
  call void @llvm.lifetime.end.p0i8(i64 24, i8* nonnull %32) #12
  call void @llvm.lifetime.end.p0i8(i64 16, i8* nonnull %10) #12
  ret void
}

; Function Attrs: argmemonly nounwind
declare void @llvm.lifetime.start.p0i8(i64 immarg, i8* nocapture) #1

declare void @_ZNO8perfetto11TracedValue15WriteDictionaryEv(%"class.perfetto::TracedDictionary"* sret, %"class.perfetto::TracedValue"*) local_unnamed_addr #2

declare void @_ZN8perfetto16TracedDictionary7AddItemENS_12StaticStringE(%"class.perfetto::TracedValue"* sret, %"class.perfetto::TracedDictionary"*, i8*) local_unnamed_addr #2

; Function Attrs: argmemonly nounwind
declare void @llvm.lifetime.end.p0i8(i64 immarg, i8* nocapture) #1

; Function Attrs: nounwind ssp uwtable
define hidden zeroext i1 @_ZN9bluetooth5mojom22ConnectToServiceResult8ValidateEPKvPN4mojo8internal17ValidationContextE(i8*, %"class.mojo::internal::ValidationContext"*) local_unnamed_addr #0 align 2 {
  %3 = tail call zeroext i1 @_ZN9bluetooth5mojom8internal27ConnectToServiceResult_Data8ValidateEPKvPN4mojo8internal17ValidationContextE(i8* %0, %"class.mojo::internal::ValidationContext"* %1) #12
  ret i1 %3
}

declare zeroext i1 @_ZN9bluetooth5mojom8internal27ConnectToServiceResult_Data8ValidateEPKvPN4mojo8internal17ValidationContextE(i8*, %"class.mojo::internal::ValidationContext"*) local_unnamed_addr #2

; Function Attrs: nounwind ssp uwtable
define hidden void @_ZN9bluetooth5mojom22AcceptConnectionResultC2Ev(%"class.bluetooth::mojom::AcceptConnectionResult"*) unnamed_addr #0 align 2 {
  %2 = getelementptr inbounds %"class.bluetooth::mojom::AcceptConnectionResult", %"class.bluetooth::mojom::AcceptConnectionResult"* %0, i64 0, i32 1, i32 0
  %3 = bitcast %"class.bluetooth::mojom::AcceptConnectionResult"* %0 to i8*
  call void @llvm.memset.p0i8.i64(i8* align 8 %3, i8 0, i64 16, i1 false)
  tail call void @_ZN4mojo8internal18PendingRemoteStateC1Ev(%"struct.mojo::internal::PendingRemoteState"* %2) #12
  %4 = getelementptr inbounds %"class.bluetooth::mojom::AcceptConnectionResult", %"class.bluetooth::mojom::AcceptConnectionResult"* %0, i64 0, i32 2, i32 0, i32 0, i32 0
  store i32 0, i32* %4, align 4
  %5 = getelementptr inbounds %"class.bluetooth::mojom::AcceptConnectionResult", %"class.bluetooth::mojom::AcceptConnectionResult"* %0, i64 0, i32 3, i32 0, i32 0, i32 0
  store i32 0, i32* %5, align 4
  ret void
}

; Function Attrs: nounwind ssp uwtable
define hidden void @_ZN9bluetooth5mojom22AcceptConnectionResultC2EN4mojo9StructPtrINS0_10DeviceInfoEEENS2_13PendingRemoteINS0_6SocketEEENS2_16ScopedHandleBaseINS2_22DataPipeConsumerHandleEEENS9_INS2_22DataPipeProducerHandleEEE(%"class.bluetooth::mojom::AcceptConnectionResult"*, %"class.mojo::StructPtr"* nocapture, %"class.mojo::PendingRemote"*, %"class.mojo::ScopedHandleBase.0"* nocapture, %"class.mojo::ScopedHandleBase.1"* nocapture) unnamed_addr #0 align 2 {
  %6 = bitcast %"class.bluetooth::mojom::AcceptConnectionResult"* %0 to i64*
  %7 = getelementptr inbounds %"class.bluetooth::mojom::AcceptConnectionResult", %"class.bluetooth::mojom::AcceptConnectionResult"* %0, i64 0, i32 0, i32 0, i32 0, i32 0, i32 0
  store %"class.bluetooth::mojom::DeviceInfo"* null, %"class.bluetooth::mojom::DeviceInfo"** %7, align 8
  %8 = bitcast %"class.mojo::StructPtr"* %1 to i64*
  %9 = load i64, i64* %8, align 8
  store i64 %9, i64* %6, align 8
  store i64 0, i64* %8, align 8
  %10 = getelementptr inbounds %"class.bluetooth::mojom::AcceptConnectionResult", %"class.bluetooth::mojom::AcceptConnectionResult"* %0, i64 0, i32 1, i32 0
  %11 = getelementptr inbounds %"class.mojo::PendingRemote", %"class.mojo::PendingRemote"* %2, i64 0, i32 0
  tail call void @_ZN4mojo8internal18PendingRemoteStateC1EOS1_(%"struct.mojo::internal::PendingRemoteState"* %10, %"struct.mojo::internal::PendingRemoteState"* dereferenceable(8) %11) #12
  %12 = getelementptr inbounds %"class.bluetooth::mojom::AcceptConnectionResult", %"class.bluetooth::mojom::AcceptConnectionResult"* %0, i64 0, i32 2, i32 0, i32 0, i32 0
  %13 = getelementptr inbounds %"class.mojo::ScopedHandleBase.0", %"class.mojo::ScopedHandleBase.0"* %3, i64 0, i32 0, i32 0, i32 0
  %14 = load i32, i32* %13, align 4, !noalias !8
  store i32 %14, i32* %12, align 4, !alias.scope !8
  store i32 0, i32* %13, align 4, !noalias !8
  %15 = getelementptr inbounds %"class.bluetooth::mojom::AcceptConnectionResult", %"class.bluetooth::mojom::AcceptConnectionResult"* %0, i64 0, i32 3, i32 0, i32 0, i32 0
  %16 = getelementptr inbounds %"class.mojo::ScopedHandleBase.1", %"class.mojo::ScopedHandleBase.1"* %4, i64 0, i32 0, i32 0, i32 0
  %17 = load i32, i32* %16, align 4, !noalias !11
  store i32 %17, i32* %15, align 4, !alias.scope !11
  store i32 0, i32* %16, align 4, !noalias !11
  ret void
}

; Function Attrs: nounwind ssp uwtable
define hidden void @_ZN9bluetooth5mojom22AcceptConnectionResultD2Ev(%"class.bluetooth::mojom::AcceptConnectionResult"*) unnamed_addr #0 align 2 {
  %2 = getelementptr inbounds %"class.bluetooth::mojom::AcceptConnectionResult", %"class.bluetooth::mojom::AcceptConnectionResult"* %0, i64 0, i32 3, i32 0, i32 0, i32 0
  %3 = load i32, i32* %2, align 4
  %4 = icmp eq i32 %3, 0
  br i1 %4, label %7, label %5

5:                                                ; preds = %1
  %6 = tail call i32 @MojoClose(i32 %3) #12
  br label %7

7:                                                ; preds = %1, %5
  %8 = getelementptr inbounds %"class.bluetooth::mojom::AcceptConnectionResult", %"class.bluetooth::mojom::AcceptConnectionResult"* %0, i64 0, i32 2, i32 0, i32 0, i32 0
  %9 = load i32, i32* %8, align 4
  %10 = icmp eq i32 %9, 0
  br i1 %10, label %13, label %11

11:                                               ; preds = %7
  %12 = tail call i32 @MojoClose(i32 %9) #12
  br label %13

13:                                               ; preds = %7, %11
  %14 = getelementptr inbounds %"class.bluetooth::mojom::AcceptConnectionResult", %"class.bluetooth::mojom::AcceptConnectionResult"* %0, i64 0, i32 1, i32 0
  tail call void @_ZN4mojo8internal18PendingRemoteStateD1Ev(%"struct.mojo::internal::PendingRemoteState"* %14) #12
  %15 = getelementptr inbounds %"class.bluetooth::mojom::AcceptConnectionResult", %"class.bluetooth::mojom::AcceptConnectionResult"* %0, i64 0, i32 0, i32 0, i32 0, i32 0, i32 0
  %16 = load %"class.bluetooth::mojom::DeviceInfo"*, %"class.bluetooth::mojom::DeviceInfo"** %15, align 8
  store %"class.bluetooth::mojom::DeviceInfo"* null, %"class.bluetooth::mojom::DeviceInfo"** %15, align 8
  %17 = icmp eq %"class.bluetooth::mojom::DeviceInfo"* %16, null
  br i1 %17, label %20, label %18

18:                                               ; preds = %13
  tail call void @_ZN9bluetooth5mojom10DeviceInfoD1Ev(%"class.bluetooth::mojom::DeviceInfo"* nonnull %16) #12
  %19 = getelementptr inbounds %"class.bluetooth::mojom::DeviceInfo", %"class.bluetooth::mojom::DeviceInfo"* %16, i64 0, i32 0, i32 0, i32 0, i32 0, i32 0
  tail call void @_ZdlPv(i8* %19) #13
  br label %20

20:                                               ; preds = %13, %18
  ret void
}

; Function Attrs: nounwind ssp uwtable
define hidden void @_ZNK9bluetooth5mojom22AcceptConnectionResult14WriteIntoTraceEN8perfetto11TracedValueE(%"class.bluetooth::mojom::AcceptConnectionResult"* nocapture readonly, %"class.perfetto::TracedValue"*) local_unnamed_addr #0 align 2 {
  %3 = alloca %"class.perfetto::TracedValue", align 8
  %4 = alloca %"class.perfetto::TracedValue", align 8
  %5 = alloca %"class.perfetto::TracedDictionary", align 8
  %6 = alloca %"class.perfetto::TracedValue", align 8
  %7 = alloca %"class.perfetto::TracedValue", align 8
  %8 = alloca %"class.std::__1::basic_string", align 8
  %9 = alloca %"class.perfetto::TracedValue", align 8
  %10 = alloca %"class.std::__1::basic_string", align 8
  %11 = alloca %"class.perfetto::TracedValue", align 8
  %12 = alloca %"class.std::__1::basic_string", align 8
  %13 = bitcast %"class.perfetto::TracedDictionary"* %5 to i8*
  call void @llvm.lifetime.start.p0i8(i64 16, i8* nonnull %13) #12
  %14 = bitcast %"class.perfetto::TracedDictionary"* %5 to i8*
  call void @llvm.memset.p0i8.i64(i8* nonnull align 8 %14, i8 -86, i64 16, i1 false)
  call void @_ZNO8perfetto11TracedValue15WriteDictionaryEv(%"class.perfetto::TracedDictionary"* nonnull sret %5, %"class.perfetto::TracedValue"* %1) #12
  call void @_ZN8perfetto16TracedDictionary7AddItemENS_12StaticStringE(%"class.perfetto::TracedValue"* nonnull sret %6, %"class.perfetto::TracedDictionary"* nonnull %5, i8* getelementptr inbounds ([7 x i8], [7 x i8]* @.str.4, i64 0, i64 0)) #12
  %15 = bitcast %"class.perfetto::TracedValue"* %6 to i8*
  %16 = getelementptr inbounds %"class.bluetooth::mojom::AcceptConnectionResult", %"class.bluetooth::mojom::AcceptConnectionResult"* %0, i64 0, i32 0, i32 0, i32 0, i32 0, i32 0
  %17 = load %"class.bluetooth::mojom::DeviceInfo"*, %"class.bluetooth::mojom::DeviceInfo"** %16, align 8
  %18 = bitcast %"class.perfetto::TracedValue"* %4 to i8*
  call void @llvm.lifetime.start.p0i8(i64 16, i8* nonnull %18) #12
  call void @llvm.memcpy.p0i8.p0i8.i64(i8* nonnull align 8 %18, i8* nonnull align 8 %15, i64 16, i1 false)
  %19 = icmp eq %"class.bluetooth::mojom::DeviceInfo"* %17, null
  br i1 %19, label %20, label %21

20:                                               ; preds = %2
  call void @_ZNO8perfetto11TracedValue12WritePointerEPKv(%"class.perfetto::TracedValue"* nonnull %4, i8* null) #12
  br label %23

21:                                               ; preds = %2
  %22 = bitcast %"class.perfetto::TracedValue"* %3 to i8*
  call void @llvm.lifetime.start.p0i8(i64 16, i8* nonnull %22) #12
  call void @llvm.memcpy.p0i8.p0i8.i64(i8* nonnull align 8 %22, i8* nonnull align 8 %18, i64 16, i1 false) #12
  call void @_ZNK9bluetooth5mojom10DeviceInfo14WriteIntoTraceEN8perfetto11TracedValueE(%"class.bluetooth::mojom::DeviceInfo"* nonnull %17, %"class.perfetto::TracedValue"* nonnull %3) #12
  call void @llvm.lifetime.end.p0i8(i64 16, i8* nonnull %22) #12
  br label %23

23:                                               ; preds = %21, %20
  call void @llvm.lifetime.end.p0i8(i64 16, i8* nonnull %18) #12
  call void @_ZN8perfetto16TracedDictionary7AddItemENS_12StaticStringE(%"class.perfetto::TracedValue"* nonnull sret %7, %"class.perfetto::TracedDictionary"* nonnull %5, i8* getelementptr inbounds ([7 x i8], [7 x i8]* @.str, i64 0, i64 0)) #12
  %24 = bitcast %"class.std::__1::basic_string"* %8 to i8*
  call void @llvm.lifetime.start.p0i8(i64 24, i8* nonnull %24) #12
  %25 = bitcast %"class.std::__1::basic_string"* %8 to %"struct.std::__1::basic_string<char, std::__1::char_traits<char>, std::__1::allocator<char> >::__short"*
  %26 = getelementptr inbounds %"struct.std::__1::basic_string<char, std::__1::char_traits<char>, std::__1::allocator<char> >::__short", %"struct.std::__1::basic_string<char, std::__1::char_traits<char>, std::__1::allocator<char> >::__short"* %25, i64 0, i32 1, i32 0
  store i8 7, i8* %26, align 1
  call void @llvm.memcpy.p0i8.p0i8.i64(i8* nonnull align 8 %24, i8* align 1 getelementptr inbounds ([8 x i8], [8 x i8]* @.str.1, i64 0, i64 0), i64 7, i1 false) #12
  %27 = getelementptr inbounds i8, i8* %24, i64 7
  store i8 0, i8* %27, align 1
  call void @_ZNO8perfetto11TracedValue11WriteStringERKNSt3__112basic_stringIcNS1_11char_traitsIcEENS1_9allocatorIcEEEE(%"class.perfetto::TracedValue"* nonnull %7, %"class.std::__1::basic_string"* nonnull dereferenceable(24) %8) #12
  %28 = load i8, i8* %26, align 1
  %29 = icmp slt i8 %28, 0
  br i1 %29, label %30, label %33

30:                                               ; preds = %23
  %31 = getelementptr inbounds %"class.std::__1::basic_string", %"class.std::__1::basic_string"* %8, i64 0, i32 0, i32 0, i32 0, i32 0, i32 0, i32 0
  %32 = load i8*, i8** %31, align 8
  call void @_ZdlPv(i8* %32) #13
  br label %33

33:                                               ; preds = %23, %30
  call void @llvm.lifetime.end.p0i8(i64 24, i8* nonnull %24) #12
  call void @_ZN8perfetto16TracedDictionary7AddItemENS_12StaticStringE(%"class.perfetto::TracedValue"* nonnull sret %9, %"class.perfetto::TracedDictionary"* nonnull %5, i8* getelementptr inbounds ([15 x i8], [15 x i8]* @.str.2, i64 0, i64 0)) #12
  %34 = bitcast %"class.std::__1::basic_string"* %10 to i8*
  call void @llvm.lifetime.start.p0i8(i64 24, i8* nonnull %34) #12
  %35 = bitcast %"class.std::__1::basic_string"* %10 to %"struct.std::__1::basic_string<char, std::__1::char_traits<char>, std::__1::allocator<char> >::__short"*
  %36 = getelementptr inbounds %"struct.std::__1::basic_string<char, std::__1::char_traits<char>, std::__1::allocator<char> >::__short", %"struct.std::__1::basic_string<char, std::__1::char_traits<char>, std::__1::allocator<char> >::__short"* %35, i64 0, i32 1, i32 0
  store i8 7, i8* %36, align 1
  call void @llvm.memcpy.p0i8.p0i8.i64(i8* nonnull align 8 %34, i8* align 1 getelementptr inbounds ([8 x i8], [8 x i8]* @.str.1, i64 0, i64 0), i64 7, i1 false) #12
  %37 = getelementptr inbounds i8, i8* %34, i64 7
  store i8 0, i8* %37, align 1
  call void @_ZNO8perfetto11TracedValue11WriteStringERKNSt3__112basic_stringIcNS1_11char_traitsIcEENS1_9allocatorIcEEEE(%"class.perfetto::TracedValue"* nonnull %9, %"class.std::__1::basic_string"* nonnull dereferenceable(24) %10) #12
  %38 = load i8, i8* %36, align 1
  %39 = icmp slt i8 %38, 0
  br i1 %39, label %40, label %43

40:                                               ; preds = %33
  %41 = getelementptr inbounds %"class.std::__1::basic_string", %"class.std::__1::basic_string"* %10, i64 0, i32 0, i32 0, i32 0, i32 0, i32 0, i32 0
  %42 = load i8*, i8** %41, align 8
  call void @_ZdlPv(i8* %42) #13
  br label %43

43:                                               ; preds = %33, %40
  call void @llvm.lifetime.end.p0i8(i64 24, i8* nonnull %34) #12
  call void @_ZN8perfetto16TracedDictionary7AddItemENS_12StaticStringE(%"class.perfetto::TracedValue"* nonnull sret %11, %"class.perfetto::TracedDictionary"* nonnull %5, i8* getelementptr inbounds ([12 x i8], [12 x i8]* @.str.3, i64 0, i64 0)) #12
  %44 = bitcast %"class.std::__1::basic_string"* %12 to i8*
  call void @llvm.lifetime.start.p0i8(i64 24, i8* nonnull %44) #12
  %45 = bitcast %"class.std::__1::basic_string"* %12 to %"struct.std::__1::basic_string<char, std::__1::char_traits<char>, std::__1::allocator<char> >::__short"*
  %46 = getelementptr inbounds %"struct.std::__1::basic_string<char, std::__1::char_traits<char>, std::__1::allocator<char> >::__short", %"struct.std::__1::basic_string<char, std::__1::char_traits<char>, std::__1::allocator<char> >::__short"* %45, i64 0, i32 1, i32 0
  store i8 7, i8* %46, align 1
  call void @llvm.memcpy.p0i8.p0i8.i64(i8* nonnull align 8 %44, i8* align 1 getelementptr inbounds ([8 x i8], [8 x i8]* @.str.1, i64 0, i64 0), i64 7, i1 false) #12
  %47 = getelementptr inbounds i8, i8* %44, i64 7
  store i8 0, i8* %47, align 1
  call void @_ZNO8perfetto11TracedValue11WriteStringERKNSt3__112basic_stringIcNS1_11char_traitsIcEENS1_9allocatorIcEEEE(%"class.perfetto::TracedValue"* nonnull %11, %"class.std::__1::basic_string"* nonnull dereferenceable(24) %12) #12
  %48 = load i8, i8* %46, align 1
  %49 = icmp slt i8 %48, 0
  br i1 %49, label %50, label %53

50:                                               ; preds = %43
  %51 = getelementptr inbounds %"class.std::__1::basic_string", %"class.std::__1::basic_string"* %12, i64 0, i32 0, i32 0, i32 0, i32 0, i32 0, i32 0
  %52 = load i8*, i8** %51, align 8
  call void @_ZdlPv(i8* %52) #13
  br label %53

53:                                               ; preds = %43, %50
  call void @llvm.lifetime.end.p0i8(i64 24, i8* nonnull %44) #12
  call void @llvm.lifetime.end.p0i8(i64 16, i8* nonnull %13) #12
  ret void
}

; Function Attrs: nounwind ssp uwtable
define hidden zeroext i1 @_ZN9bluetooth5mojom22AcceptConnectionResult8ValidateEPKvPN4mojo8internal17ValidationContextE(i8*, %"class.mojo::internal::ValidationContext"*) local_unnamed_addr #0 align 2 {
  %3 = tail call zeroext i1 @_ZN9bluetooth5mojom8internal27AcceptConnectionResult_Data8ValidateEPKvPN4mojo8internal17ValidationContextE(i8* %0, %"class.mojo::internal::ValidationContext"* %1) #12
  ret i1 %3
}

declare zeroext i1 @_ZN9bluetooth5mojom8internal27AcceptConnectionResult_Data8ValidateEPKvPN4mojo8internal17ValidationContextE(i8*, %"class.mojo::internal::ValidationContext"*) local_unnamed_addr #2

; Function Attrs: nounwind ssp uwtable
define hidden void @_ZN9bluetooth5mojom11AdapterInfoC2Ev(%"class.bluetooth::mojom::AdapterInfo"* nocapture) unnamed_addr #0 align 2 {
  %2 = bitcast %"class.bluetooth::mojom::AdapterInfo"* %0 to i8*
  call void @llvm.memset.p0i8.i64(i8* align 8 %2, i8 0, i64 77, i1 false)
  ret void
}

; Function Attrs: nounwind ssp uwtable
define hidden void @_ZN9bluetooth5mojom11AdapterInfoC2ERKNSt3__112basic_stringIcNS2_11char_traitsIcEENS2_9allocatorIcEEEESA_SA_bbbbb(%"class.bluetooth::mojom::AdapterInfo"*, %"class.std::__1::basic_string"* nocapture readonly dereferenceable(24), %"class.std::__1::basic_string"* nocapture readonly dereferenceable(24), %"class.std::__1::basic_string"* nocapture readonly dereferenceable(24), i1 zeroext, i1 zeroext, i1 zeroext, i1 zeroext, i1 zeroext) unnamed_addr #0 align 2 {
  %10 = zext i1 %4 to i8
  %11 = zext i1 %5 to i8
  %12 = zext i1 %6 to i8
  %13 = zext i1 %7 to i8
  %14 = zext i1 %8 to i8
  %15 = bitcast %"class.std::__1::basic_string"* %1 to %"struct.std::__1::basic_string<char, std::__1::char_traits<char>, std::__1::allocator<char> >::__short"*
  %16 = getelementptr inbounds %"struct.std::__1::basic_string<char, std::__1::char_traits<char>, std::__1::allocator<char> >::__short", %"struct.std::__1::basic_string<char, std::__1::char_traits<char>, std::__1::allocator<char> >::__short"* %15, i64 0, i32 1, i32 0
  %17 = load i8, i8* %16, align 1
  %18 = icmp slt i8 %17, 0
  br i1 %18, label %22, label %19

19:                                               ; preds = %9
  %20 = bitcast %"class.bluetooth::mojom::AdapterInfo"* %0 to i8*
  %21 = bitcast %"class.std::__1::basic_string"* %1 to i8*
  tail call void @llvm.memcpy.p0i8.p0i8.i64(i8* align 8 %20, i8* align 8 %21, i64 24, i1 false) #12
  br label %28

22:                                               ; preds = %9
  %23 = getelementptr inbounds %"class.bluetooth::mojom::AdapterInfo", %"class.bluetooth::mojom::AdapterInfo"* %0, i64 0, i32 0
  %24 = getelementptr inbounds %"class.std::__1::basic_string", %"class.std::__1::basic_string"* %1, i64 0, i32 0, i32 0, i32 0, i32 0, i32 0, i32 0
  %25 = load i8*, i8** %24, align 8
  %26 = getelementptr inbounds %"class.std::__1::basic_string", %"class.std::__1::basic_string"* %1, i64 0, i32 0, i32 0, i32 0, i32 0, i32 0, i32 1
  %27 = load i64, i64* %26, align 8
  tail call void @_ZNSt3__112basic_stringIcNS_11char_traitsIcEENS_9allocatorIcEEE25__init_copy_ctor_externalEPKcm(%"class.std::__1::basic_string"* %23, i8* %25, i64 %27) #12
  br label %28

28:                                               ; preds = %19, %22
  %29 = getelementptr inbounds %"class.bluetooth::mojom::AdapterInfo", %"class.bluetooth::mojom::AdapterInfo"* %0, i64 0, i32 1
  %30 = bitcast %"class.std::__1::basic_string"* %2 to %"struct.std::__1::basic_string<char, std::__1::char_traits<char>, std::__1::allocator<char> >::__short"*
  %31 = getelementptr inbounds %"struct.std::__1::basic_string<char, std::__1::char_traits<char>, std::__1::allocator<char> >::__short", %"struct.std::__1::basic_string<char, std::__1::char_traits<char>, std::__1::allocator<char> >::__short"* %30, i64 0, i32 1, i32 0
  %32 = load i8, i8* %31, align 1
  %33 = icmp slt i8 %32, 0
  br i1 %33, label %37, label %34

34:                                               ; preds = %28
  %35 = bitcast %"class.std::__1::basic_string"* %29 to i8*
  %36 = bitcast %"class.std::__1::basic_string"* %2 to i8*
  tail call void @llvm.memcpy.p0i8.p0i8.i64(i8* align 8 %35, i8* align 8 %36, i64 24, i1 false) #12
  br label %42

37:                                               ; preds = %28
  %38 = getelementptr inbounds %"class.std::__1::basic_string", %"class.std::__1::basic_string"* %2, i64 0, i32 0, i32 0, i32 0, i32 0, i32 0, i32 0
  %39 = load i8*, i8** %38, align 8
  %40 = getelementptr inbounds %"class.std::__1::basic_string", %"class.std::__1::basic_string"* %2, i64 0, i32 0, i32 0, i32 0, i32 0, i32 0, i32 1
  %41 = load i64, i64* %40, align 8
  tail call void @_ZNSt3__112basic_stringIcNS_11char_traitsIcEENS_9allocatorIcEEE25__init_copy_ctor_externalEPKcm(%"class.std::__1::basic_string"* %29, i8* %39, i64 %41) #12
  br label %42

42:                                               ; preds = %34, %37
  %43 = getelementptr inbounds %"class.bluetooth::mojom::AdapterInfo", %"class.bluetooth::mojom::AdapterInfo"* %0, i64 0, i32 2
  %44 = bitcast %"class.std::__1::basic_string"* %3 to %"struct.std::__1::basic_string<char, std::__1::char_traits<char>, std::__1::allocator<char> >::__short"*
  %45 = getelementptr inbounds %"struct.std::__1::basic_string<char, std::__1::char_traits<char>, std::__1::allocator<char> >::__short", %"struct.std::__1::basic_string<char, std::__1::char_traits<char>, std::__1::allocator<char> >::__short"* %44, i64 0, i32 1, i32 0
  %46 = load i8, i8* %45, align 1
  %47 = icmp slt i8 %46, 0
  br i1 %47, label %51, label %48

48:                                               ; preds = %42
  %49 = bitcast %"class.std::__1::basic_string"* %43 to i8*
  %50 = bitcast %"class.std::__1::basic_string"* %3 to i8*
  tail call void @llvm.memcpy.p0i8.p0i8.i64(i8* align 8 %49, i8* align 8 %50, i64 24, i1 false) #12
  br label %56

51:                                               ; preds = %42
  %52 = getelementptr inbounds %"class.std::__1::basic_string", %"class.std::__1::basic_string"* %3, i64 0, i32 0, i32 0, i32 0, i32 0, i32 0, i32 0
  %53 = load i8*, i8** %52, align 8
  %54 = getelementptr inbounds %"class.std::__1::basic_string", %"class.std::__1::basic_string"* %3, i64 0, i32 0, i32 0, i32 0, i32 0, i32 0, i32 1
  %55 = load i64, i64* %54, align 8
  tail call void @_ZNSt3__112basic_stringIcNS_11char_traitsIcEENS_9allocatorIcEEE25__init_copy_ctor_externalEPKcm(%"class.std::__1::basic_string"* %43, i8* %53, i64 %55) #12
  br label %56

56:                                               ; preds = %48, %51
  %57 = getelementptr inbounds %"class.bluetooth::mojom::AdapterInfo", %"class.bluetooth::mojom::AdapterInfo"* %0, i64 0, i32 3
  store i8 %10, i8* %57, align 8
  %58 = getelementptr inbounds %"class.bluetooth::mojom::AdapterInfo", %"class.bluetooth::mojom::AdapterInfo"* %0, i64 0, i32 4
  store i8 %11, i8* %58, align 1
  %59 = getelementptr inbounds %"class.bluetooth::mojom::AdapterInfo", %"class.bluetooth::mojom::AdapterInfo"* %0, i64 0, i32 5
  store i8 %12, i8* %59, align 2
  %60 = getelementptr inbounds %"class.bluetooth::mojom::AdapterInfo", %"class.bluetooth::mojom::AdapterInfo"* %0, i64 0, i32 6
  store i8 %13, i8* %60, align 1
  %61 = getelementptr inbounds %"class.bluetooth::mojom::AdapterInfo", %"class.bluetooth::mojom::AdapterInfo"* %0, i64 0, i32 7
  store i8 %14, i8* %61, align 4
  ret void
}

; Function Attrs: nounwind ssp uwtable
define hidden void @_ZN9bluetooth5mojom11AdapterInfoD2Ev(%"class.bluetooth::mojom::AdapterInfo"* nocapture readonly) unnamed_addr #0 align 2 {
  %2 = getelementptr inbounds %"class.bluetooth::mojom::AdapterInfo", %"class.bluetooth::mojom::AdapterInfo"* %0, i64 0, i32 2
  %3 = bitcast %"class.std::__1::basic_string"* %2 to %"struct.std::__1::basic_string<char, std::__1::char_traits<char>, std::__1::allocator<char> >::__short"*
  %4 = getelementptr inbounds %"struct.std::__1::basic_string<char, std::__1::char_traits<char>, std::__1::allocator<char> >::__short", %"struct.std::__1::basic_string<char, std::__1::char_traits<char>, std::__1::allocator<char> >::__short"* %3, i64 0, i32 1, i32 0
  %5 = load i8, i8* %4, align 1
  %6 = icmp slt i8 %5, 0
  br i1 %6, label %7, label %10

7:                                                ; preds = %1
  %8 = getelementptr inbounds %"class.std::__1::basic_string", %"class.std::__1::basic_string"* %2, i64 0, i32 0, i32 0, i32 0, i32 0, i32 0, i32 0
  %9 = load i8*, i8** %8, align 8
  tail call void @_ZdlPv(i8* %9) #13
  br label %10

10:                                               ; preds = %1, %7
  %11 = getelementptr inbounds %"class.bluetooth::mojom::AdapterInfo", %"class.bluetooth::mojom::AdapterInfo"* %0, i64 0, i32 1
  %12 = bitcast %"class.std::__1::basic_string"* %11 to %"struct.std::__1::basic_string<char, std::__1::char_traits<char>, std::__1::allocator<char> >::__short"*
  %13 = getelementptr inbounds %"struct.std::__1::basic_string<char, std::__1::char_traits<char>, std::__1::allocator<char> >::__short", %"struct.std::__1::basic_string<char, std::__1::char_traits<char>, std::__1::allocator<char> >::__short"* %12, i64 0, i32 1, i32 0
  %14 = load i8, i8* %13, align 1
  %15 = icmp slt i8 %14, 0
  br i1 %15, label %16, label %19

16:                                               ; preds = %10
  %17 = getelementptr inbounds %"class.std::__1::basic_string", %"class.std::__1::basic_string"* %11, i64 0, i32 0, i32 0, i32 0, i32 0, i32 0, i32 0
  %18 = load i8*, i8** %17, align 8
  tail call void @_ZdlPv(i8* %18) #13
  br label %19

19:                                               ; preds = %10, %16
  %20 = bitcast %"class.bluetooth::mojom::AdapterInfo"* %0 to %"struct.std::__1::basic_string<char, std::__1::char_traits<char>, std::__1::allocator<char> >::__short"*
  %21 = getelementptr inbounds %"struct.std::__1::basic_string<char, std::__1::char_traits<char>, std::__1::allocator<char> >::__short", %"struct.std::__1::basic_string<char, std::__1::char_traits<char>, std::__1::allocator<char> >::__short"* %20, i64 0, i32 1, i32 0
  %22 = load i8, i8* %21, align 1
  %23 = icmp slt i8 %22, 0
  br i1 %23, label %24, label %27

24:                                               ; preds = %19
  %25 = getelementptr inbounds %"class.bluetooth::mojom::AdapterInfo", %"class.bluetooth::mojom::AdapterInfo"* %0, i64 0, i32 0, i32 0, i32 0, i32 0, i32 0, i32 0, i32 0
  %26 = load i8*, i8** %25, align 8
  tail call void @_ZdlPv(i8* %26) #13
  br label %27

27:                                               ; preds = %19, %24
  ret void
}

; Function Attrs: nounwind ssp uwtable
define hidden i64 @_ZNK9bluetooth5mojom11AdapterInfo4HashEm(%"class.bluetooth::mojom::AdapterInfo"*, i64) local_unnamed_addr #0 align 2 {
  %3 = alloca %"struct.std::__1::__murmur2_or_cityhash", align 1
  %4 = alloca %"struct.std::__1::__murmur2_or_cityhash", align 1
  %5 = alloca %"struct.std::__1::__murmur2_or_cityhash", align 1
  %6 = bitcast %"class.bluetooth::mojom::AdapterInfo"* %0 to %"struct.std::__1::basic_string<char, std::__1::char_traits<char>, std::__1::allocator<char> >::__short"*
  %7 = getelementptr inbounds %"struct.std::__1::basic_string<char, std::__1::char_traits<char>, std::__1::allocator<char> >::__short", %"struct.std::__1::basic_string<char, std::__1::char_traits<char>, std::__1::allocator<char> >::__short"* %6, i64 0, i32 1, i32 0
  %8 = load i8, i8* %7, align 1
  %9 = icmp slt i8 %8, 0
  %10 = getelementptr inbounds %"class.bluetooth::mojom::AdapterInfo", %"class.bluetooth::mojom::AdapterInfo"* %0, i64 0, i32 0, i32 0, i32 0, i32 0, i32 0, i32 0, i32 0
  %11 = load i8*, i8** %10, align 8
  %12 = getelementptr inbounds %"class.bluetooth::mojom::AdapterInfo", %"class.bluetooth::mojom::AdapterInfo"* %0, i64 0, i32 0, i32 0, i32 0, i32 0, i32 0, i32 0, i32 1
  %13 = load i64, i64* %12, align 8
  %14 = bitcast %"class.bluetooth::mojom::AdapterInfo"* %0 to i8*
  %15 = zext i8 %8 to i64
  %16 = select i1 %9, i8* %11, i8* %14
  %17 = select i1 %9, i64 %13, i64 %15
  %18 = getelementptr inbounds %"struct.std::__1::__murmur2_or_cityhash", %"struct.std::__1::__murmur2_or_cityhash"* %5, i64 0, i32 0
  call void @llvm.lifetime.start.p0i8(i64 1, i8* nonnull %18) #12
  %19 = call i64 @_ZNSt3__121__murmur2_or_cityhashImLm64EEclEPKvm(%"struct.std::__1::__murmur2_or_cityhash"* nonnull %5, i8* %16, i64 %17) #12
  call void @llvm.lifetime.end.p0i8(i64 1, i8* nonnull %18) #12
  %20 = shl i64 %1, 6
  %21 = lshr i64 %1, 2
  %22 = add i64 %21, %20
  %23 = add i64 %22, %19
  %24 = xor i64 %23, %1
  %25 = getelementptr inbounds %"class.bluetooth::mojom::AdapterInfo", %"class.bluetooth::mojom::AdapterInfo"* %0, i64 0, i32 1
  %26 = bitcast %"class.std::__1::basic_string"* %25 to %"struct.std::__1::basic_string<char, std::__1::char_traits<char>, std::__1::allocator<char> >::__short"*
  %27 = getelementptr inbounds %"struct.std::__1::basic_string<char, std::__1::char_traits<char>, std::__1::allocator<char> >::__short", %"struct.std::__1::basic_string<char, std::__1::char_traits<char>, std::__1::allocator<char> >::__short"* %26, i64 0, i32 1, i32 0
  %28 = load i8, i8* %27, align 1
  %29 = icmp slt i8 %28, 0
  %30 = getelementptr inbounds %"class.std::__1::basic_string", %"class.std::__1::basic_string"* %25, i64 0, i32 0, i32 0, i32 0, i32 0, i32 0, i32 0
  %31 = load i8*, i8** %30, align 8
  %32 = getelementptr inbounds %"class.bluetooth::mojom::AdapterInfo", %"class.bluetooth::mojom::AdapterInfo"* %0, i64 0, i32 1, i32 0, i32 0, i32 0, i32 0, i32 0, i32 1
  %33 = load i64, i64* %32, align 8
  %34 = bitcast %"class.std::__1::basic_string"* %25 to i8*
  %35 = zext i8 %28 to i64
  %36 = select i1 %29, i8* %31, i8* %34
  %37 = select i1 %29, i64 %33, i64 %35
  %38 = getelementptr inbounds %"struct.std::__1::__murmur2_or_cityhash", %"struct.std::__1::__murmur2_or_cityhash"* %4, i64 0, i32 0
  call void @llvm.lifetime.start.p0i8(i64 1, i8* nonnull %38) #12
  %39 = call i64 @_ZNSt3__121__murmur2_or_cityhashImLm64EEclEPKvm(%"struct.std::__1::__murmur2_or_cityhash"* nonnull %4, i8* %36, i64 %37) #12
  call void @llvm.lifetime.end.p0i8(i64 1, i8* nonnull %38) #12
  %40 = shl i64 %24, 6
  %41 = lshr i64 %24, 2
  %42 = add i64 %41, %40
  %43 = add i64 %42, %39
  %44 = xor i64 %43, %24
  %45 = getelementptr inbounds %"class.bluetooth::mojom::AdapterInfo", %"class.bluetooth::mojom::AdapterInfo"* %0, i64 0, i32 2
  %46 = bitcast %"class.std::__1::basic_string"* %45 to %"struct.std::__1::basic_string<char, std::__1::char_traits<char>, std::__1::allocator<char> >::__short"*
  %47 = getelementptr inbounds %"struct.std::__1::basic_string<char, std::__1::char_traits<char>, std::__1::allocator<char> >::__short", %"struct.std::__1::basic_string<char, std::__1::char_traits<char>, std::__1::allocator<char> >::__short"* %46, i64 0, i32 1, i32 0
  %48 = load i8, i8* %47, align 1
  %49 = icmp slt i8 %48, 0
  %50 = getelementptr inbounds %"class.std::__1::basic_string", %"class.std::__1::basic_string"* %45, i64 0, i32 0, i32 0, i32 0, i32 0, i32 0, i32 0
  %51 = load i8*, i8** %50, align 8
  %52 = getelementptr inbounds %"class.bluetooth::mojom::AdapterInfo", %"class.bluetooth::mojom::AdapterInfo"* %0, i64 0, i32 2, i32 0, i32 0, i32 0, i32 0, i32 0, i32 1
  %53 = load i64, i64* %52, align 8
  %54 = bitcast %"class.std::__1::basic_string"* %45 to i8*
  %55 = zext i8 %48 to i64
  %56 = select i1 %49, i8* %51, i8* %54
  %57 = select i1 %49, i64 %53, i64 %55
  %58 = getelementptr inbounds %"struct.std::__1::__murmur2_or_cityhash", %"struct.std::__1::__murmur2_or_cityhash"* %3, i64 0, i32 0
  call void @llvm.lifetime.start.p0i8(i64 1, i8* nonnull %58) #12
  %59 = call i64 @_ZNSt3__121__murmur2_or_cityhashImLm64EEclEPKvm(%"struct.std::__1::__murmur2_or_cityhash"* nonnull %3, i8* %56, i64 %57) #12
  call void @llvm.lifetime.end.p0i8(i64 1, i8* nonnull %58) #12
  %60 = shl i64 %44, 6
  %61 = lshr i64 %44, 2
  %62 = add i64 %61, %60
  %63 = add i64 %62, %59
  %64 = xor i64 %63, %44
  %65 = getelementptr inbounds %"class.bluetooth::mojom::AdapterInfo", %"class.bluetooth::mojom::AdapterInfo"* %0, i64 0, i32 3
  %66 = load i8, i8* %65, align 1, !range !14
  %67 = zext i8 %66 to i64
  %68 = shl i64 %64, 6
  %69 = or i64 %68, %67
  %70 = lshr i64 %64, 2
  %71 = add i64 %69, %70
  %72 = xor i64 %71, %64
  %73 = getelementptr inbounds %"class.bluetooth::mojom::AdapterInfo", %"class.bluetooth::mojom::AdapterInfo"* %0, i64 0, i32 4
  %74 = load i8, i8* %73, align 1, !range !14
  %75 = zext i8 %74 to i64
  %76 = shl i64 %72, 6
  %77 = or i64 %76, %75
  %78 = lshr i64 %72, 2
  %79 = add i64 %77, %78
  %80 = xor i64 %79, %72
  %81 = getelementptr inbounds %"class.bluetooth::mojom::AdapterInfo", %"class.bluetooth::mojom::AdapterInfo"* %0, i64 0, i32 5
  %82 = load i8, i8* %81, align 1, !range !14
  %83 = zext i8 %82 to i64
  %84 = shl i64 %80, 6
  %85 = or i64 %84, %83
  %86 = lshr i64 %80, 2
  %87 = add i64 %85, %86
  %88 = xor i64 %87, %80
  %89 = getelementptr inbounds %"class.bluetooth::mojom::AdapterInfo", %"class.bluetooth::mojom::AdapterInfo"* %0, i64 0, i32 6
  %90 = load i8, i8* %89, align 1, !range !14
  %91 = zext i8 %90 to i64
  %92 = shl i64 %88, 6
  %93 = or i64 %92, %91
  %94 = lshr i64 %88, 2
  %95 = add i64 %93, %94
  %96 = xor i64 %95, %88
  %97 = getelementptr inbounds %"class.bluetooth::mojom::AdapterInfo", %"class.bluetooth::mojom::AdapterInfo"* %0, i64 0, i32 7
  %98 = load i8, i8* %97, align 1, !range !14
  %99 = zext i8 %98 to i64
  %100 = shl i64 %96, 6
  %101 = or i64 %100, %99
  %102 = lshr i64 %96, 2
  %103 = add i64 %101, %102
  %104 = xor i64 %103, %96
  ret i64 %104
}

; Function Attrs: nounwind ssp uwtable
define hidden void @_ZNK9bluetooth5mojom11AdapterInfo14WriteIntoTraceEN8perfetto11TracedValueE(%"class.bluetooth::mojom::AdapterInfo"*, %"class.perfetto::TracedValue"*) local_unnamed_addr #0 align 2 {
  %3 = alloca %"class.perfetto::TracedValue", align 8
  %4 = alloca %"class.perfetto::TracedValue", align 8
  %5 = alloca %"class.perfetto::TracedValue", align 8
  %6 = alloca %"class.perfetto::TracedValue", align 8
  %7 = alloca %"class.perfetto::TracedValue", align 8
  %8 = alloca %"class.perfetto::TracedValue", align 8
  %9 = alloca %"class.perfetto::TracedValue", align 8
  %10 = alloca %"class.perfetto::TracedValue", align 8
  %11 = alloca %"class.perfetto::TracedDictionary", align 8
  %12 = alloca %"class.perfetto::TracedValue", align 8
  %13 = alloca %"class.perfetto::TracedValue", align 8
  %14 = alloca %"class.perfetto::TracedValue", align 8
  %15 = alloca %"class.perfetto::TracedValue", align 8
  %16 = alloca %"class.perfetto::TracedValue", align 8
  %17 = alloca %"class.perfetto::TracedValue", align 8
  %18 = alloca %"class.perfetto::TracedValue", align 8
  %19 = alloca %"class.perfetto::TracedValue", align 8
  %20 = bitcast %"class.perfetto::TracedDictionary"* %11 to i8*
  call void @llvm.lifetime.start.p0i8(i64 16, i8* nonnull %20) #12
  %21 = bitcast %"class.perfetto::TracedDictionary"* %11 to i8*
  call void @llvm.memset.p0i8.i64(i8* nonnull align 8 %21, i8 -86, i64 16, i1 false)
  call void @_ZNO8perfetto11TracedValue15WriteDictionaryEv(%"class.perfetto::TracedDictionary"* nonnull sret %11, %"class.perfetto::TracedValue"* %1) #12
  call void @_ZN8perfetto16TracedDictionary7AddItemENS_12StaticStringE(%"class.perfetto::TracedValue"* nonnull sret %12, %"class.perfetto::TracedDictionary"* nonnull %11, i8* getelementptr inbounds ([8 x i8], [8 x i8]* @.str.5, i64 0, i64 0)) #12
  %22 = getelementptr inbounds %"class.bluetooth::mojom::AdapterInfo", %"class.bluetooth::mojom::AdapterInfo"* %0, i64 0, i32 0
  %23 = bitcast %"class.perfetto::TracedValue"* %12 to i8*
  %24 = bitcast %"class.perfetto::TracedValue"* %9 to i8*
  call void @llvm.lifetime.start.p0i8(i64 16, i8* nonnull %24) #12
  call void @llvm.memcpy.p0i8.p0i8.i64(i8* nonnull align 8 %24, i8* nonnull align 8 %23, i64 16, i1 false) #12
  call void @_ZNO8perfetto11TracedValue11WriteStringERKNSt3__112basic_stringIcNS1_11char_traitsIcEENS1_9allocatorIcEEEE(%"class.perfetto::TracedValue"* nonnull %9, %"class.std::__1::basic_string"* dereferenceable(24) %22) #12
  call void @llvm.lifetime.end.p0i8(i64 16, i8* nonnull %24) #12
  call void @_ZN8perfetto16TracedDictionary7AddItemENS_12StaticStringE(%"class.perfetto::TracedValue"* nonnull sret %13, %"class.perfetto::TracedDictionary"* nonnull %11, i8* getelementptr inbounds ([5 x i8], [5 x i8]* @.str.6, i64 0, i64 0)) #12
  %25 = getelementptr inbounds %"class.bluetooth::mojom::AdapterInfo", %"class.bluetooth::mojom::AdapterInfo"* %0, i64 0, i32 1
  %26 = bitcast %"class.perfetto::TracedValue"* %13 to i8*
  %27 = bitcast %"class.perfetto::TracedValue"* %8 to i8*
  call void @llvm.lifetime.start.p0i8(i64 16, i8* nonnull %27) #12
  call void @llvm.memcpy.p0i8.p0i8.i64(i8* nonnull align 8 %27, i8* nonnull align 8 %26, i64 16, i1 false) #12
  call void @_ZNO8perfetto11TracedValue11WriteStringERKNSt3__112basic_stringIcNS1_11char_traitsIcEENS1_9allocatorIcEEEE(%"class.perfetto::TracedValue"* nonnull %8, %"class.std::__1::basic_string"* dereferenceable(24) %25) #12
  call void @llvm.lifetime.end.p0i8(i64 16, i8* nonnull %27) #12
  call void @_ZN8perfetto16TracedDictionary7AddItemENS_12StaticStringE(%"class.perfetto::TracedValue"* nonnull sret %14, %"class.perfetto::TracedDictionary"* nonnull %11, i8* getelementptr inbounds ([12 x i8], [12 x i8]* @.str.7, i64 0, i64 0)) #12
  %28 = getelementptr inbounds %"class.bluetooth::mojom::AdapterInfo", %"class.bluetooth::mojom::AdapterInfo"* %0, i64 0, i32 2
  %29 = bitcast %"class.perfetto::TracedValue"* %14 to i8*
  %30 = bitcast %"class.perfetto::TracedValue"* %7 to i8*
  call void @llvm.lifetime.start.p0i8(i64 16, i8* nonnull %30) #12
  call void @llvm.memcpy.p0i8.p0i8.i64(i8* nonnull align 8 %30, i8* nonnull align 8 %29, i64 16, i1 false) #12
  call void @_ZNO8perfetto11TracedValue11WriteStringERKNSt3__112basic_stringIcNS1_11char_traitsIcEENS1_9allocatorIcEEEE(%"class.perfetto::TracedValue"* nonnull %7, %"class.std::__1::basic_string"* dereferenceable(24) %28) #12
  call void @llvm.lifetime.end.p0i8(i64 16, i8* nonnull %30) #12
  call void @_ZN8perfetto16TracedDictionary7AddItemENS_12StaticStringE(%"class.perfetto::TracedValue"* nonnull sret %15, %"class.perfetto::TracedDictionary"* nonnull %11, i8* getelementptr inbounds ([12 x i8], [12 x i8]* @.str.8, i64 0, i64 0)) #12
  %31 = getelementptr inbounds %"class.bluetooth::mojom::AdapterInfo", %"class.bluetooth::mojom::AdapterInfo"* %0, i64 0, i32 3
  %32 = bitcast %"class.perfetto::TracedValue"* %15 to i8*
  %33 = bitcast %"class.perfetto::TracedValue"* %6 to i8*
  call void @llvm.lifetime.start.p0i8(i64 16, i8* nonnull %33) #12
  call void @llvm.memcpy.p0i8.p0i8.i64(i8* nonnull align 8 %33, i8* nonnull align 8 %32, i64 16, i1 false) #12
  %34 = load i8, i8* %31, align 1, !range !14
  %35 = icmp ne i8 %34, 0
  call void @_ZNO8perfetto11TracedValue12WriteBooleanEb(%"class.perfetto::TracedValue"* nonnull %6, i1 zeroext %35) #12
  call void @llvm.lifetime.end.p0i8(i64 16, i8* nonnull %33) #12
  call void @_ZN8perfetto16TracedDictionary7AddItemENS_12StaticStringE(%"class.perfetto::TracedValue"* nonnull sret %16, %"class.perfetto::TracedDictionary"* nonnull %11, i8* getelementptr inbounds ([8 x i8], [8 x i8]* @.str.9, i64 0, i64 0)) #12
  %36 = getelementptr inbounds %"class.bluetooth::mojom::AdapterInfo", %"class.bluetooth::mojom::AdapterInfo"* %0, i64 0, i32 4
  %37 = bitcast %"class.perfetto::TracedValue"* %16 to i8*
  %38 = bitcast %"class.perfetto::TracedValue"* %5 to i8*
  call void @llvm.lifetime.start.p0i8(i64 16, i8* nonnull %38) #12
  call void @llvm.memcpy.p0i8.p0i8.i64(i8* nonnull align 8 %38, i8* nonnull align 8 %37, i64 16, i1 false) #12
  %39 = load i8, i8* %36, align 1, !range !14
  %40 = icmp ne i8 %39, 0
  call void @_ZNO8perfetto11TracedValue12WriteBooleanEb(%"class.perfetto::TracedValue"* nonnull %5, i1 zeroext %40) #12
  call void @llvm.lifetime.end.p0i8(i64 16, i8* nonnull %38) #12
  call void @_ZN8perfetto16TracedDictionary7AddItemENS_12StaticStringE(%"class.perfetto::TracedValue"* nonnull sret %17, %"class.perfetto::TracedDictionary"* nonnull %11, i8* getelementptr inbounds ([8 x i8], [8 x i8]* @.str.10, i64 0, i64 0)) #12
  %41 = getelementptr inbounds %"class.bluetooth::mojom::AdapterInfo", %"class.bluetooth::mojom::AdapterInfo"* %0, i64 0, i32 5
  %42 = bitcast %"class.perfetto::TracedValue"* %17 to i8*
  %43 = bitcast %"class.perfetto::TracedValue"* %4 to i8*
  call void @llvm.lifetime.start.p0i8(i64 16, i8* nonnull %43) #12
  call void @llvm.memcpy.p0i8.p0i8.i64(i8* nonnull align 8 %43, i8* nonnull align 8 %42, i64 16, i1 false) #12
  %44 = load i8, i8* %41, align 1, !range !14
  %45 = icmp ne i8 %44, 0
  call void @_ZNO8perfetto11TracedValue12WriteBooleanEb(%"class.perfetto::TracedValue"* nonnull %4, i1 zeroext %45) #12
  call void @llvm.lifetime.end.p0i8(i64 16, i8* nonnull %43) #12
  call void @_ZN8perfetto16TracedDictionary7AddItemENS_12StaticStringE(%"class.perfetto::TracedValue"* nonnull sret %18, %"class.perfetto::TracedDictionary"* nonnull %11, i8* getelementptr inbounds ([13 x i8], [13 x i8]* @.str.11, i64 0, i64 0)) #12
  %46 = getelementptr inbounds %"class.bluetooth::mojom::AdapterInfo", %"class.bluetooth::mojom::AdapterInfo"* %0, i64 0, i32 6
  %47 = bitcast %"class.perfetto::TracedValue"* %18 to i8*
  %48 = bitcast %"class.perfetto::TracedValue"* %3 to i8*
  call void @llvm.lifetime.start.p0i8(i64 16, i8* nonnull %48) #12
  call void @llvm.memcpy.p0i8.p0i8.i64(i8* nonnull align 8 %48, i8* nonnull align 8 %47, i64 16, i1 false) #12
  %49 = load i8, i8* %46, align 1, !range !14
  %50 = icmp ne i8 %49, 0
  call void @_ZNO8perfetto11TracedValue12WriteBooleanEb(%"class.perfetto::TracedValue"* nonnull %3, i1 zeroext %50) #12
  call void @llvm.lifetime.end.p0i8(i64 16, i8* nonnull %48) #12
  call void @_ZN8perfetto16TracedDictionary7AddItemENS_12StaticStringE(%"class.perfetto::TracedValue"* nonnull sret %19, %"class.perfetto::TracedDictionary"* nonnull %11, i8* getelementptr inbounds ([12 x i8], [12 x i8]* @.str.12, i64 0, i64 0)) #12
  %51 = getelementptr inbounds %"class.bluetooth::mojom::AdapterInfo", %"class.bluetooth::mojom::AdapterInfo"* %0, i64 0, i32 7
  %52 = bitcast %"class.perfetto::TracedValue"* %19 to i8*
  %53 = bitcast %"class.perfetto::TracedValue"* %10 to i8*
  call void @llvm.lifetime.start.p0i8(i64 16, i8* nonnull %53) #12
  call void @llvm.memcpy.p0i8.p0i8.i64(i8* nonnull align 8 %53, i8* nonnull align 8 %52, i64 16, i1 false) #12
  %54 = load i8, i8* %51, align 1, !range !14
  %55 = icmp ne i8 %54, 0
  call void @_ZNO8perfetto11TracedValue12WriteBooleanEb(%"class.perfetto::TracedValue"* nonnull %10, i1 zeroext %55) #12
  call void @llvm.lifetime.end.p0i8(i64 16, i8* nonnull %53) #12
  call void @llvm.lifetime.end.p0i8(i64 16, i8* nonnull %20) #12
  ret void
}

; Function Attrs: nounwind ssp uwtable
define hidden zeroext i1 @_ZN9bluetooth5mojom11AdapterInfo8ValidateEPKvPN4mojo8internal17ValidationContextE(i8*, %"class.mojo::internal::ValidationContext"*) local_unnamed_addr #0 align 2 {
  %3 = tail call zeroext i1 @_ZN9bluetooth5mojom8internal16AdapterInfo_Data8ValidateEPKvPN4mojo8internal17ValidationContextE(i8* %0, %"class.mojo::internal::ValidationContext"* %1) #12
  ret i1 %3
}

declare zeroext i1 @_ZN9bluetooth5mojom8internal16AdapterInfo_Data8ValidateEPKvPN4mojo8internal17ValidationContextE(i8*, %"class.mojo::internal::ValidationContext"*) local_unnamed_addr #2

; Function Attrs: norecurse nounwind readnone ssp uwtable
define hidden zeroext i1 @_ZN9bluetooth5mojom13Advertisement10UnregisterEv(%"class.bluetooth::mojom::Advertisement"* nocapture readnone) unnamed_addr #3 align 2 {
  ret i1 false
}

; Function Attrs: nofree norecurse nounwind ssp uwtable writeonly
define hidden void @_ZN9bluetooth5mojom18AdvertisementProxyC2EPN4mojo28MessageReceiverWithResponderE(%"class.bluetooth::mojom::AdvertisementProxy"* nocapture, %"class.mojo::MessageReceiverWithResponder"*) unnamed_addr #4 align 2 {
  %3 = getelementptr inbounds %"class.bluetooth::mojom::AdvertisementProxy", %"class.bluetooth::mojom::AdvertisementProxy"* %0, i64 0, i32 0, i32 0
  store i32 (...)** bitcast (i8** getelementptr inbounds ({ [6 x i8*] }, { [6 x i8*] }* @_ZTVN9bluetooth5mojom18AdvertisementProxyE, i64 0, inrange i32 0, i64 2) to i32 (...)**), i32 (...)*** %3, align 8
  %4 = getelementptr inbounds %"class.bluetooth::mojom::AdvertisementProxy", %"class.bluetooth::mojom::AdvertisementProxy"* %0, i64 0, i32 1
  store %"class.mojo::MessageReceiverWithResponder"* %1, %"class.mojo::MessageReceiverWithResponder"** %4, align 8
  ret void
}

; Function Attrs: nounwind ssp uwtable
define hidden zeroext i1 @_ZN9bluetooth5mojom18AdvertisementProxy10UnregisterEv(%"class.bluetooth::mojom::AdvertisementProxy"* nocapture readonly) unnamed_addr #0 align 2 {
  %2 = alloca %"class.mojo::Message", align 8
  %3 = alloca i8, align 1
  %4 = bitcast %"class.mojo::Message"* %2 to i8*
  call void @llvm.lifetime.start.p0i8(i64 120, i8* nonnull %4) #12
  call void @llvm.memset.p0i8.i64(i8* nonnull align 8 %4, i8 -86, i64 120, i1 false)
  call void @_ZN4mojo7MessageC1EjjmmPNSt3__16vectorINS_16ScopedHandleBaseINS_6HandleEEENS1_9allocatorIS5_EEEE(%"class.mojo::Message"* nonnull %2, i32 107321638, i32 5, i64 0, i64 0, %"class.std::__1::vector"* null) #12
  %5 = getelementptr inbounds %"class.mojo::Message", %"class.mojo::Message"* %2, i64 0, i32 1
  %6 = call i64 @_ZN4mojo8internal6Buffer8AllocateEm(%"class.mojo::internal::Buffer"* %5, i64 8) #12
  %7 = getelementptr inbounds %"class.mojo::Message", %"class.mojo::Message"* %2, i64 0, i32 1, i32 2
  %8 = load i8*, i8** %7, align 8
  %9 = getelementptr inbounds i8, i8* %8, i64 %6
  %10 = bitcast i8* %9 to %"class.bluetooth::mojom::internal::Advertisement_Unregister_Params_Data"*
  call void @_ZN9bluetooth5mojom8internal36Advertisement_Unregister_Params_DataC1Ev(%"class.bluetooth::mojom::internal::Advertisement_Unregister_Params_Data"* %10) #12
  call void @llvm.lifetime.start.p0i8(i64 1, i8* nonnull %3) #12
  store i8 0, i8* %3, align 1
  %11 = call i8* @_Znwm(i64 16) #13
  %12 = bitcast i8* %11 to i32 (...)***
  store i32 (...)** bitcast (i8** getelementptr inbounds ({ [6 x i8*] }, { [6 x i8*] }* @_ZTVN9bluetooth5mojom43Advertisement_Unregister_HandleSyncResponseE, i64 0, inrange i32 0, i64 2) to i32 (...)**), i32 (...)*** %12, align 8
  %13 = getelementptr inbounds i8, i8* %11, i64 8
  %14 = bitcast i8* %13 to i8**
  store i8* %3, i8** %14, align 8
  %15 = bitcast i8* %11 to %"class.mojo::MessageReceiver"*
  %16 = getelementptr inbounds %"class.bluetooth::mojom::AdvertisementProxy", %"class.bluetooth::mojom::AdvertisementProxy"* %0, i64 0, i32 1
  %17 = load %"class.mojo::MessageReceiverWithResponder"*, %"class.mojo::MessageReceiverWithResponder"** %16, align 8
  %18 = bitcast %"class.mojo::MessageReceiverWithResponder"* %17 to i1 (%"class.mojo::MessageReceiverWithResponder"*, %"class.mojo::Message"*, %"class.mojo::MessageReceiver"*)***
  %19 = load i1 (%"class.mojo::MessageReceiverWithResponder"*, %"class.mojo::Message"*, %"class.mojo::MessageReceiver"*)**, i1 (%"class.mojo::MessageReceiverWithResponder"*, %"class.mojo::Message"*, %"class.mojo::MessageReceiver"*)*** %18, align 8
  %20 = getelementptr inbounds i1 (%"class.mojo::MessageReceiverWithResponder"*, %"class.mojo::Message"*, %"class.mojo::MessageReceiver"*)*, i1 (%"class.mojo::MessageReceiverWithResponder"*, %"class.mojo::Message"*, %"class.mojo::MessageReceiver"*)** %19, i64 4
  %21 = load i1 (%"class.mojo::MessageReceiverWithResponder"*, %"class.mojo::Message"*, %"class.mojo::MessageReceiver"*)*, i1 (%"class.mojo::MessageReceiverWithResponder"*, %"class.mojo::Message"*, %"class.mojo::MessageReceiver"*)** %20, align 8
  %22 = call zeroext i1 %21(%"class.mojo::MessageReceiverWithResponder"* %17, %"class.mojo::Message"* nonnull %2, %"class.mojo::MessageReceiver"* nonnull %15) #12
  %23 = load i8, i8* %3, align 1, !range !14
  %24 = icmp ne i8 %23, 0
  call void @llvm.lifetime.end.p0i8(i64 1, i8* nonnull %3) #12
  call void @_ZN4mojo7MessageD1Ev(%"class.mojo::Message"* nonnull %2) #12
  call void @llvm.lifetime.end.p0i8(i64 120, i8* nonnull %4) #12
  ret i1 %24
}

declare void @_ZN4mojo7MessageC1EjjmmPNSt3__16vectorINS_16ScopedHandleBaseINS_6HandleEEENS1_9allocatorIS5_EEEE(%"class.mojo::Message"*, i32, i32, i64, i64, %"class.std::__1::vector"*) unnamed_addr #2

; Function Attrs: nobuiltin nofree
declare noalias nonnull i8* @_Znwm(i64) local_unnamed_addr #5

; Function Attrs: nounwind
declare void @_ZN4mojo7MessageD1Ev(%"class.mojo::Message"*) unnamed_addr #6

; Function Attrs: nounwind ssp uwtable
define hidden void @_ZN9bluetooth5mojom18AdvertisementProxy10UnregisterEN4base12OnceCallbackIFvvEEE(%"class.bluetooth::mojom::AdvertisementProxy"* nocapture readonly, %"class.base::OnceCallback"* nocapture) unnamed_addr #0 align 2 {
  %3 = alloca %"class.mojo::Message", align 8
  %4 = alloca %"class.base::OnceCallback", align 8
  %5 = bitcast %"class.mojo::Message"* %3 to i8*
  call void @llvm.lifetime.start.p0i8(i64 120, i8* nonnull %5) #12
  call void @llvm.memset.p0i8.i64(i8* nonnull align 8 %5, i8 -86, i64 120, i1 false)
  call void @_ZN4mojo7MessageC1EjjmmPNSt3__16vectorINS_16ScopedHandleBaseINS_6HandleEEENS1_9allocatorIS5_EEEE(%"class.mojo::Message"* nonnull %3, i32 107321638, i32 1, i64 0, i64 0, %"class.std::__1::vector"* null) #12
  %6 = getelementptr inbounds %"class.mojo::Message", %"class.mojo::Message"* %3, i64 0, i32 1
  %7 = call i64 @_ZN4mojo8internal6Buffer8AllocateEm(%"class.mojo::internal::Buffer"* %6, i64 8) #12
  %8 = getelementptr inbounds %"class.mojo::Message", %"class.mojo::Message"* %3, i64 0, i32 1, i32 2
  %9 = load i8*, i8** %8, align 8
  %10 = getelementptr inbounds i8, i8* %9, i64 %7
  %11 = bitcast i8* %10 to %"class.bluetooth::mojom::internal::Advertisement_Unregister_Params_Data"*
  call void @_ZN9bluetooth5mojom8internal36Advertisement_Unregister_Params_DataC1Ev(%"class.bluetooth::mojom::internal::Advertisement_Unregister_Params_Data"* %11) #12
  %12 = call i8* @_Znwm(i64 16) #13
  %13 = getelementptr inbounds %"class.base::OnceCallback", %"class.base::OnceCallback"* %1, i64 0, i32 0, i32 0, i32 0
  %14 = bitcast %"class.base::OnceCallback"* %1 to i64*
  %15 = load i64, i64* %14, align 8
  store %"class.base::internal::BindStateBase"* null, %"class.base::internal::BindStateBase"** %13, align 8
  %16 = bitcast i8* %12 to i32 (...)***
  store i32 (...)** bitcast (i8** getelementptr inbounds ({ [6 x i8*] }, { [6 x i8*] }* @_ZTVN9bluetooth5mojom42Advertisement_Unregister_ForwardToCallbackE, i64 0, inrange i32 0, i64 2) to i32 (...)**), i32 (...)*** %16, align 8
  %17 = getelementptr inbounds i8, i8* %12, i64 8
  %18 = getelementptr inbounds %"class.base::OnceCallback", %"class.base::OnceCallback"* %4, i64 0, i32 0, i32 0, i32 0
  %19 = bitcast i8* %17 to i64*
  store i64 %15, i64* %19, align 8
  store %"class.base::internal::BindStateBase"* null, %"class.base::internal::BindStateBase"** %18, align 8
  %20 = bitcast i8* %12 to %"class.mojo::MessageReceiver"*
  %21 = getelementptr inbounds %"class.base::OnceCallback", %"class.base::OnceCallback"* %4, i64 0, i32 0
  call void @_ZN4base8internal12CallbackBaseD2Ev(%"class.base::internal::CallbackBase"* nonnull %21) #12
  %22 = getelementptr inbounds %"class.bluetooth::mojom::AdvertisementProxy", %"class.bluetooth::mojom::AdvertisementProxy"* %0, i64 0, i32 1
  %23 = load %"class.mojo::MessageReceiverWithResponder"*, %"class.mojo::MessageReceiverWithResponder"** %22, align 8
  %24 = bitcast %"class.mojo::MessageReceiverWithResponder"* %23 to i1 (%"class.mojo::MessageReceiverWithResponder"*, %"class.mojo::Message"*, %"class.mojo::MessageReceiver"*)***
  %25 = load i1 (%"class.mojo::MessageReceiverWithResponder"*, %"class.mojo::Message"*, %"class.mojo::MessageReceiver"*)**, i1 (%"class.mojo::MessageReceiverWithResponder"*, %"class.mojo::Message"*, %"class.mojo::MessageReceiver"*)*** %24, align 8
  %26 = getelementptr inbounds i1 (%"class.mojo::MessageReceiverWithResponder"*, %"class.mojo::Message"*, %"class.mojo::MessageReceiver"*)*, i1 (%"class.mojo::MessageReceiverWithResponder"*, %"class.mojo::Message"*, %"class.mojo::MessageReceiver"*)** %25, i64 4
  %27 = load i1 (%"class.mojo::MessageReceiverWithResponder"*, %"class.mojo::Message"*, %"class.mojo::MessageReceiver"*)*, i1 (%"class.mojo::MessageReceiverWithResponder"*, %"class.mojo::Message"*, %"class.mojo::MessageReceiver"*)** %26, align 8
  %28 = call zeroext i1 %27(%"class.mojo::MessageReceiverWithResponder"* %23, %"class.mojo::Message"* nonnull %3, %"class.mojo::MessageReceiver"* nonnull %20) #12
  call void @_ZN4mojo7MessageD1Ev(%"class.mojo::Message"* nonnull %3) #12
  call void @llvm.lifetime.end.p0i8(i64 120, i8* nonnull %5) #12
  ret void
}

; Function Attrs: nounwind ssp uwtable
define hidden zeroext i1 @_ZN9bluetooth5mojom42Advertisement_Unregister_ForwardToCallback6AcceptEPN4mojo7MessageE(%"class.bluetooth::mojom::Advertisement_Unregister_ForwardToCallback"* nocapture, %"class.mojo::Message"*) unnamed_addr #0 align 2 {
  %3 = alloca %"class.base::OnceCallback", align 8
  %4 = tail call i8* @_ZNK4mojo7Message7payloadEv(%"class.mojo::Message"* %1) #12
  %5 = getelementptr inbounds %"class.bluetooth::mojom::Advertisement_Unregister_ForwardToCallback", %"class.bluetooth::mojom::Advertisement_Unregister_ForwardToCallback"* %0, i64 0, i32 1, i32 0, i32 0, i32 0
  %6 = load %"class.base::internal::BindStateBase"*, %"class.base::internal::BindStateBase"** %5, align 8
  %7 = icmp eq %"class.base::internal::BindStateBase"* %6, null
  br i1 %7, label %16, label %8

8:                                                ; preds = %2
  %9 = ptrtoint %"class.base::internal::BindStateBase"* %6 to i64
  %10 = bitcast %"class.base::OnceCallback"* %3 to i8*
  call void @llvm.lifetime.start.p0i8(i64 8, i8* nonnull %10) #12
  %11 = bitcast %"class.base::OnceCallback"* %3 to i64*
  store i64 %9, i64* %11, align 8
  store %"class.base::internal::BindStateBase"* null, %"class.base::internal::BindStateBase"** %5, align 8
  %12 = getelementptr inbounds %"class.base::OnceCallback", %"class.base::OnceCallback"* %3, i64 0, i32 0
  %13 = getelementptr inbounds %"class.base::internal::BindStateBase", %"class.base::internal::BindStateBase"* %6, i64 0, i32 1
  %14 = bitcast void ()** %13 to void (%"class.base::internal::BindStateBase"*)**
  %15 = load void (%"class.base::internal::BindStateBase"*)*, void (%"class.base::internal::BindStateBase"*)** %14, align 8
  tail call void %15(%"class.base::internal::BindStateBase"* nonnull %6) #12
  call void @_ZN4base8internal12CallbackBaseD2Ev(%"class.base::internal::CallbackBase"* nonnull %12) #12
  call void @llvm.lifetime.end.p0i8(i64 8, i8* nonnull %10) #12
  br label %16

16:                                               ; preds = %2, %8
  ret i1 true
}

declare void @_ZN4mojo8internal31ReportValidationErrorForMessageEPNS_7MessageENS0_15ValidationErrorEPKcjb(%"class.mojo::Message"*, i32, i8*, i32, i1 zeroext) local_unnamed_addr #2

; Function Attrs: nounwind ssp uwtable
define hidden void @_ZN9bluetooth5mojom41Advertisement_Unregister_ProxyToResponder3RunEv(%"class.bluetooth::mojom::Advertisement_Unregister_ProxyToResponder"* nocapture) #0 align 2 {
  %2 = alloca %"class.mojo::Message", align 8
  %3 = getelementptr inbounds %"class.bluetooth::mojom::Advertisement_Unregister_ProxyToResponder", %"class.bluetooth::mojom::Advertisement_Unregister_ProxyToResponder"* %0, i64 0, i32 1
  %4 = load i8, i8* %3, align 8, !range !14
  %5 = icmp eq i8 %4, 0
  %6 = select i1 %5, i32 2, i32 6
  %7 = bitcast %"class.mojo::Message"* %2 to i8*
  call void @llvm.lifetime.start.p0i8(i64 120, i8* nonnull %7) #12
  call void @llvm.memset.p0i8.i64(i8* nonnull align 8 %7, i8 -86, i64 120, i1 false)
  call void @_ZN4mojo7MessageC1EjjmmPNSt3__16vectorINS_16ScopedHandleBaseINS_6HandleEEENS1_9allocatorIS5_EEEE(%"class.mojo::Message"* nonnull %2, i32 107321638, i32 %6, i64 0, i64 0, %"class.std::__1::vector"* null) #12
  %8 = getelementptr inbounds %"class.mojo::Message", %"class.mojo::Message"* %2, i64 0, i32 1
  %9 = call i64 @_ZN4mojo8internal6Buffer8AllocateEm(%"class.mojo::internal::Buffer"* %8, i64 8) #12
  %10 = getelementptr inbounds %"class.mojo::Message", %"class.mojo::Message"* %2, i64 0, i32 1, i32 2
  %11 = load i8*, i8** %10, align 8
  %12 = getelementptr inbounds i8, i8* %11, i64 %9
  %13 = bitcast i8* %12 to %"class.bluetooth::mojom::internal::Advertisement_Unregister_ResponseParams_Data"*
  call void @_ZN9bluetooth5mojom8internal44Advertisement_Unregister_ResponseParams_DataC1Ev(%"class.bluetooth::mojom::internal::Advertisement_Unregister_ResponseParams_Data"* %13) #12
  %14 = getelementptr inbounds %"class.bluetooth::mojom::Advertisement_Unregister_ProxyToResponder", %"class.bluetooth::mojom::Advertisement_Unregister_ProxyToResponder"* %0, i64 0, i32 0
  %15 = load i64, i64* %14, align 8
  %16 = bitcast i8** %10 to %"struct.mojo::internal::MessageHeaderV1"**
  %17 = load %"struct.mojo::internal::MessageHeaderV1"*, %"struct.mojo::internal::MessageHeaderV1"** %16, align 8
  %18 = getelementptr inbounds %"struct.mojo::internal::MessageHeaderV1", %"struct.mojo::internal::MessageHeaderV1"* %17, i64 0, i32 1
  store i64 %15, i64* %18, align 1
  %19 = getelementptr inbounds %"class.bluetooth::mojom::Advertisement_Unregister_ProxyToResponder", %"class.bluetooth::mojom::Advertisement_Unregister_ProxyToResponder"* %0, i64 0, i32 2, i32 0, i32 0, i32 0
  %20 = load %"class.mojo::MessageReceiverWithStatus"*, %"class.mojo::MessageReceiverWithStatus"** %19, align 8
  %21 = getelementptr inbounds %"class.mojo::MessageReceiverWithStatus", %"class.mojo::MessageReceiverWithStatus"* %20, i64 0, i32 0
  %22 = bitcast %"class.mojo::MessageReceiverWithStatus"* %20 to i1 (%"class.mojo::MessageReceiver"*, %"class.mojo::Message"*)***
  %23 = load i1 (%"class.mojo::MessageReceiver"*, %"class.mojo::Message"*)**, i1 (%"class.mojo::MessageReceiver"*, %"class.mojo::Message"*)*** %22, align 8
  %24 = getelementptr inbounds i1 (%"class.mojo::MessageReceiver"*, %"class.mojo::Message"*)*, i1 (%"class.mojo::MessageReceiver"*, %"class.mojo::Message"*)** %23, i64 3
  %25 = load i1 (%"class.mojo::MessageReceiver"*, %"class.mojo::Message"*)*, i1 (%"class.mojo::MessageReceiver"*, %"class.mojo::Message"*)** %24, align 8
  %26 = call zeroext i1 %25(%"class.mojo::MessageReceiver"* %21, %"class.mojo::Message"* nonnull %2) #12
  %27 = load %"class.mojo::MessageReceiverWithStatus"*, %"class.mojo::MessageReceiverWithStatus"** %19, align 8
  store %"class.mojo::MessageReceiverWithStatus"* null, %"class.mojo::MessageReceiverWithStatus"** %19, align 8
  %28 = icmp eq %"class.mojo::MessageReceiverWithStatus"* %27, null
  br i1 %28, label %34, label %29

29:                                               ; preds = %1
  %30 = bitcast %"class.mojo::MessageReceiverWithStatus"* %27 to void (%"class.mojo::MessageReceiverWithStatus"*)***
  %31 = load void (%"class.mojo::MessageReceiverWithStatus"*)**, void (%"class.mojo::MessageReceiverWithStatus"*)*** %30, align 8
  %32 = getelementptr inbounds void (%"class.mojo::MessageReceiverWithStatus"*)*, void (%"class.mojo::MessageReceiverWithStatus"*)** %31, i64 1
  %33 = load void (%"class.mojo::MessageReceiverWithStatus"*)*, void (%"class.mojo::MessageReceiverWithStatus"*)** %32, align 8
  call void %33(%"class.mojo::MessageReceiverWithStatus"* nonnull %27) #12
  br label %34

34:                                               ; preds = %1, %29
  call void @_ZN4mojo7MessageD1Ev(%"class.mojo::Message"* nonnull %2) #12
  call void @llvm.lifetime.end.p0i8(i64 120, i8* nonnull %7) #12
  ret void
}

; Function Attrs: nounwind ssp uwtable
define hidden zeroext i1 @_ZN9bluetooth5mojom43Advertisement_Unregister_HandleSyncResponse6AcceptEPN4mojo7MessageE(%"class.bluetooth::mojom::Advertisement_Unregister_HandleSyncResponse"* nocapture readonly, %"class.mojo::Message"*) unnamed_addr #0 align 2 {
  %3 = tail call i8* @_ZNK4mojo7Message7payloadEv(%"class.mojo::Message"* %1) #12
  %4 = getelementptr inbounds %"class.bluetooth::mojom::Advertisement_Unregister_HandleSyncResponse", %"class.bluetooth::mojom::Advertisement_Unregister_HandleSyncResponse"* %0, i64 0, i32 1
  %5 = load i8*, i8** %4, align 8
  store i8 1, i8* %5, align 1
  ret i1 true
}

; Function Attrs: norecurse nounwind readonly ssp uwtable
define hidden zeroext i1 @_ZN9bluetooth5mojom25AdvertisementStubDispatch6AcceptEPNS0_13AdvertisementEPN4mojo7MessageE(%"class.bluetooth::mojom::Advertisement"* nocapture readnone, %"class.mojo::Message"* nocapture readonly) local_unnamed_addr #7 align 2 {
  ret i1 false
}

; Function Attrs: nounwind ssp uwtable
define hidden zeroext i1 @_ZN9bluetooth5mojom25AdvertisementStubDispatch19AcceptWithResponderEPNS0_13AdvertisementEPN4mojo7MessageENSt3__110unique_ptrINS4_25MessageReceiverWithStatusENS7_14default_deleteIS9_EEEE(%"class.bluetooth::mojom::Advertisement"*, %"class.mojo::Message"*, %"class.mojo::MessageReceiverWithStatus"*) local_unnamed_addr #0 align 2 {
  %4 = alloca %"class.base::TaskAnnotator::ScopedSetIpcHash", align 8
  %5 = alloca %"class.base::OnceCallback", align 8
  %6 = alloca %"class.base::OnceCallback", align 8
  %7 = getelementptr inbounds %"class.mojo::Message", %"class.mojo::Message"* %1, i64 0, i32 1, i32 2
  %8 = bitcast i8** %7 to %"struct.mojo::internal::MessageHeader"**
  %9 = load %"struct.mojo::internal::MessageHeader"*, %"struct.mojo::internal::MessageHeader"** %8, align 8
  %10 = getelementptr inbounds %"struct.mojo::internal::MessageHeader", %"struct.mojo::internal::MessageHeader"* %9, i64 0, i32 2
  %11 = load i32, i32* %10, align 1
  %12 = icmp eq i32 %11, 107321638
  br i1 %12, label %13, label %48

13:                                               ; preds = %3
  %14 = ptrtoint %"class.mojo::MessageReceiverWithStatus"* %2 to i64
  %15 = bitcast i8** %7 to %"struct.mojo::internal::MessageHeaderV1"**
  %16 = getelementptr inbounds %"struct.mojo::internal::MessageHeader", %"struct.mojo::internal::MessageHeader"* %9, i64 0, i32 3
  %17 = load i32, i32* %16, align 1
  %18 = bitcast %"class.base::TaskAnnotator::ScopedSetIpcHash"* %4 to i8*
  call void @llvm.lifetime.start.p0i8(i64 24, i8* nonnull %18) #12
  call void @llvm.memset.p0i8.i64(i8* nonnull align 8 %18, i8 -86, i64 24, i1 false)
  call void @_ZN4base13TaskAnnotator16ScopedSetIpcHashC1Ej(%"class.base::TaskAnnotator::ScopedSetIpcHash"* nonnull %4, i32 549398888) #12
  %19 = call i8* @_ZNK4mojo7Message7payloadEv(%"class.mojo::Message"* %1) #12
  %20 = bitcast %"class.base::OnceCallback"* %5 to i8*
  call void @llvm.lifetime.start.p0i8(i64 8, i8* nonnull %20) #12
  %21 = getelementptr inbounds %"class.base::OnceCallback", %"class.base::OnceCallback"* %5, i64 0, i32 0, i32 0, i32 0
  %22 = load %"struct.mojo::internal::MessageHeaderV1"*, %"struct.mojo::internal::MessageHeaderV1"** %15, align 8
  %23 = getelementptr inbounds %"struct.mojo::internal::MessageHeaderV1", %"struct.mojo::internal::MessageHeaderV1"* %22, i64 0, i32 1
  %24 = load i64, i64* %23, align 1
  %25 = call i8* @_Znwm(i64 24) #13, !noalias !15
  %26 = lshr i32 %17, 2
  %27 = trunc i32 %26 to i8
  %28 = and i8 %27, 1
  %29 = bitcast i8* %25 to i64*
  store i64 %24, i64* %29, align 8, !noalias !15
  %30 = getelementptr inbounds i8, i8* %25, i64 8
  store i8 %28, i8* %30, align 8, !noalias !15
  %31 = getelementptr inbounds i8, i8* %25, i64 16
  %32 = bitcast i8* %31 to i64*
  store i64 %14, i64* %32, align 8, !noalias !15
  %33 = ptrtoint i8* %25 to i64
  %34 = call i8* @_Znwm(i64 56) #13, !noalias !18
  %35 = bitcast i8* %34 to %"class.base::internal::BindStateBase"*
  call void @_ZN4base8internal13BindStateBaseC2EPFvvEPFvPKS1_E(%"class.base::internal::BindStateBase"* nonnull %35, void ()* bitcast (void (%"class.base::internal::BindStateBase"*)* @_ZN4base8internal7InvokerINS0_9BindStateIMN9bluetooth5mojom41Advertisement_Unregister_ProxyToResponderEFvvEJNSt3__110unique_ptrIS5_NS8_14default_deleteIS5_EEEEEEEFvvEE7RunOnceEPNS0_13BindStateBaseE to void ()*), void (%"class.base::internal::BindStateBase"*)* nonnull @_ZN4base8internal9BindStateIMN9bluetooth5mojom41Advertisement_Unregister_ProxyToResponderEFvvEJNSt3__110unique_ptrIS4_NS7_14default_deleteIS4_EEEEEE7DestroyEPKNS0_13BindStateBaseE) #12, !noalias !18
  %36 = getelementptr inbounds i8, i8* %34, i64 32
  %37 = bitcast i8* %36 to <2 x i64>*
  store <2 x i64> <i64 ptrtoint (void (%"class.bluetooth::mojom::Advertisement_Unregister_ProxyToResponder"*)* @_ZN9bluetooth5mojom41Advertisement_Unregister_ProxyToResponder3RunEv to i64), i64 0>, <2 x i64>* %37, align 8, !noalias !18
  %38 = getelementptr inbounds i8, i8* %34, i64 48
  %39 = bitcast i8* %38 to i64*
  store i64 %33, i64* %39, align 8, !noalias !18
  %40 = ptrtoint i8* %34 to i64
  %41 = bitcast %"class.base::OnceCallback"* %6 to i64*
  store i64 %40, i64* %41, align 8
  store %"class.base::internal::BindStateBase"* null, %"class.base::internal::BindStateBase"** %21, align 8
  %42 = bitcast %"class.bluetooth::mojom::Advertisement"* %0 to void (%"class.bluetooth::mojom::Advertisement"*, %"class.base::OnceCallback"*)***
  %43 = load void (%"class.bluetooth::mojom::Advertisement"*, %"class.base::OnceCallback"*)**, void (%"class.bluetooth::mojom::Advertisement"*, %"class.base::OnceCallback"*)*** %42, align 8
  %44 = getelementptr inbounds void (%"class.bluetooth::mojom::Advertisement"*, %"class.base::OnceCallback"*)*, void (%"class.bluetooth::mojom::Advertisement"*, %"class.base::OnceCallback"*)** %43, i64 3
  %45 = load void (%"class.bluetooth::mojom::Advertisement"*, %"class.base::OnceCallback"*)*, void (%"class.bluetooth::mojom::Advertisement"*, %"class.base::OnceCallback"*)** %44, align 8
  call void %45(%"class.bluetooth::mojom::Advertisement"* %0, %"class.base::OnceCallback"* nonnull %6) #12
  %46 = getelementptr inbounds %"class.base::OnceCallback", %"class.base::OnceCallback"* %6, i64 0, i32 0
  call void @_ZN4base8internal12CallbackBaseD2Ev(%"class.base::internal::CallbackBase"* nonnull %46) #12
  %47 = getelementptr inbounds %"class.base::OnceCallback", %"class.base::OnceCallback"* %5, i64 0, i32 0
  call void @_ZN4base8internal12CallbackBaseD2Ev(%"class.base::internal::CallbackBase"* nonnull %47) #12
  call void @llvm.lifetime.end.p0i8(i64 8, i8* nonnull %20) #12
  call void @_ZN4base13TaskAnnotator16ScopedSetIpcHashD1Ev(%"class.base::TaskAnnotator::ScopedSetIpcHash"* nonnull %4) #12
  call void @llvm.lifetime.end.p0i8(i64 24, i8* nonnull %18) #12
  br label %55

48:                                               ; preds = %3
  %49 = icmp eq %"class.mojo::MessageReceiverWithStatus"* %2, null
  br i1 %49, label %55, label %50

50:                                               ; preds = %48
  %51 = bitcast %"class.mojo::MessageReceiverWithStatus"* %2 to void (%"class.mojo::MessageReceiverWithStatus"*)***
  %52 = load void (%"class.mojo::MessageReceiverWithStatus"*)**, void (%"class.mojo::MessageReceiverWithStatus"*)*** %51, align 8
  %53 = getelementptr inbounds void (%"class.mojo::MessageReceiverWithStatus"*)*, void (%"class.mojo::MessageReceiverWithStatus"*)** %52, i64 1
  %54 = load void (%"class.mojo::MessageReceiverWithStatus"*)*, void (%"class.mojo::MessageReceiverWithStatus"*)** %53, align 8
  tail call void %54(%"class.mojo::MessageReceiverWithStatus"* nonnull %2) #12
  br label %55

55:                                               ; preds = %13, %48, %50
  %56 = phi i1 [ true, %13 ], [ false, %48 ], [ false, %50 ]
  ret i1 %56
}

; Function Attrs: argmemonly nounwind
declare void @llvm.memcpy.p0i8.p0i8.i64(i8* nocapture writeonly, i8* nocapture readonly, i64, i1 immarg) #1

declare void @_ZN4base13TaskAnnotator16ScopedSetIpcHashC1Ej(%"class.base::TaskAnnotator::ScopedSetIpcHash"*, i32) unnamed_addr #2

; Function Attrs: nounwind
declare void @_ZN4base13TaskAnnotator16ScopedSetIpcHashD1Ev(%"class.base::TaskAnnotator::ScopedSetIpcHash"*) unnamed_addr #6

; Function Attrs: nounwind ssp uwtable
define hidden zeroext i1 @_ZN9bluetooth5mojom29AdvertisementRequestValidator6AcceptEPN4mojo7MessageE(%"class.bluetooth::mojom::AdvertisementRequestValidator"* nocapture readnone, %"class.mojo::Message"*) unnamed_addr #0 align 2 {
  %3 = tail call zeroext i1 @_ZN4mojo8internal22ValidateRequestGenericEPNS_7MessageEPKcN4base4spanIKNSt3__14pairIjNS0_21GenericValidationInfoEEELm18446744073709551615EEE(%"class.mojo::Message"* %1, i8* getelementptr inbounds ([30 x i8], [30 x i8]* @_ZN9bluetooth5mojom13Advertisement5Name_E, i64 0, i64 0), i64 1, %"struct.std::__1::pair.74"* getelementptr inbounds ([1 x %"struct.std::__1::pair.74"], [1 x %"struct.std::__1::pair.74"]* @_ZN9bluetooth5mojomL28kAdvertisementValidationInfoE, i64 0, i64 0)) #12
  ret i1 %3
}

declare zeroext i1 @_ZN4mojo8internal22ValidateRequestGenericEPNS_7MessageEPKcN4base4spanIKNSt3__14pairIjNS0_21GenericValidationInfoEEELm18446744073709551615EEE(%"class.mojo::Message"*, i8*, i64, %"struct.std::__1::pair.74"*) local_unnamed_addr #2

; Function Attrs: nounwind ssp uwtable
define hidden zeroext i1 @_ZN9bluetooth5mojom30AdvertisementResponseValidator6AcceptEPN4mojo7MessageE(%"class.bluetooth::mojom::AdvertisementResponseValidator"* nocapture readnone, %"class.mojo::Message"*) unnamed_addr #0 align 2 {
  %3 = tail call zeroext i1 @_ZN4mojo8internal23ValidateResponseGenericEPNS_7MessageEPKcN4base4spanIKNSt3__14pairIjNS0_21GenericValidationInfoEEELm18446744073709551615EEE(%"class.mojo::Message"* %1, i8* getelementptr inbounds ([30 x i8], [30 x i8]* @_ZN9bluetooth5mojom13Advertisement5Name_E, i64 0, i64 0), i64 1, %"struct.std::__1::pair.74"* getelementptr inbounds ([1 x %"struct.std::__1::pair.74"], [1 x %"struct.std::__1::pair.74"]* @_ZN9bluetooth5mojomL28kAdvertisementValidationInfoE, i64 0, i64 0)) #12
  ret i1 %3
}

declare zeroext i1 @_ZN4mojo8internal23ValidateResponseGenericEPNS_7MessageEPKcN4base4spanIKNSt3__14pairIjNS0_21GenericValidationInfoEEELm18446744073709551615EEE(%"class.mojo::Message"*, i8*, i64, %"struct.std::__1::pair.74"*) local_unnamed_addr #2

; Function Attrs: norecurse nounwind readnone ssp uwtable
define hidden zeroext i1 @_ZN9bluetooth5mojom16DiscoverySession8IsActiveEPb(%"class.bluetooth::mojom::DiscoverySession"* nocapture readnone, i8* nocapture readnone) unnamed_addr #3 align 2 {
  ret i1 false
}

; Function Attrs: norecurse nounwind readnone ssp uwtable
define hidden zeroext i1 @_ZN9bluetooth5mojom16DiscoverySession4StopEPb(%"class.bluetooth::mojom::DiscoverySession"* nocapture readnone, i8* nocapture readnone) unnamed_addr #3 align 2 {
  ret i1 false
}

; Function Attrs: nofree norecurse nounwind ssp uwtable writeonly
define hidden void @_ZN9bluetooth5mojom21DiscoverySessionProxyC2EPN4mojo28MessageReceiverWithResponderE(%"class.bluetooth::mojom::DiscoverySessionProxy"* nocapture, %"class.mojo::MessageReceiverWithResponder"*) unnamed_addr #4 align 2 {
  %3 = getelementptr inbounds %"class.bluetooth::mojom::DiscoverySessionProxy", %"class.bluetooth::mojom::DiscoverySessionProxy"* %0, i64 0, i32 0, i32 0
  store i32 (...)** bitcast (i8** getelementptr inbounds ({ [8 x i8*] }, { [8 x i8*] }* @_ZTVN9bluetooth5mojom21DiscoverySessionProxyE, i64 0, inrange i32 0, i64 2) to i32 (...)**), i32 (...)*** %3, align 8
  %4 = getelementptr inbounds %"class.bluetooth::mojom::DiscoverySessionProxy", %"class.bluetooth::mojom::DiscoverySessionProxy"* %0, i64 0, i32 1
  store %"class.mojo::MessageReceiverWithResponder"* %1, %"class.mojo::MessageReceiverWithResponder"** %4, align 8
  ret void
}

; Function Attrs: nounwind ssp uwtable
define hidden zeroext i1 @_ZN9bluetooth5mojom21DiscoverySessionProxy8IsActiveEPb(%"class.bluetooth::mojom::DiscoverySessionProxy"* nocapture readonly, i8*) unnamed_addr #0 align 2 {
  %3 = alloca %"class.mojo::Message", align 8
  %4 = alloca i8, align 1
  %5 = bitcast %"class.mojo::Message"* %3 to i8*
  call void @llvm.lifetime.start.p0i8(i64 120, i8* nonnull %5) #12
  call void @llvm.memset.p0i8.i64(i8* nonnull align 8 %5, i8 -86, i64 120, i1 false)
  call void @_ZN4mojo7MessageC1EjjmmPNSt3__16vectorINS_16ScopedHandleBaseINS_6HandleEEENS1_9allocatorIS5_EEEE(%"class.mojo::Message"* nonnull %3, i32 363555590, i32 5, i64 0, i64 0, %"class.std::__1::vector"* null) #12
  %6 = getelementptr inbounds %"class.mojo::Message", %"class.mojo::Message"* %3, i64 0, i32 1
  %7 = call i64 @_ZN4mojo8internal6Buffer8AllocateEm(%"class.mojo::internal::Buffer"* %6, i64 8) #12
  %8 = getelementptr inbounds %"class.mojo::Message", %"class.mojo::Message"* %3, i64 0, i32 1, i32 2
  %9 = load i8*, i8** %8, align 8
  %10 = getelementptr inbounds i8, i8* %9, i64 %7
  %11 = bitcast i8* %10 to %"class.bluetooth::mojom::internal::DiscoverySession_IsActive_Params_Data"*
  call void @_ZN9bluetooth5mojom8internal37DiscoverySession_IsActive_Params_DataC1Ev(%"class.bluetooth::mojom::internal::DiscoverySession_IsActive_Params_Data"* %11) #12
  call void @llvm.lifetime.start.p0i8(i64 1, i8* nonnull %4) #12
  store i8 0, i8* %4, align 1
  %12 = call i8* @_Znwm(i64 24) #13
  %13 = bitcast i8* %12 to i32 (...)***
  store i32 (...)** bitcast (i8** getelementptr inbounds ({ [6 x i8*] }, { [6 x i8*] }* @_ZTVN9bluetooth5mojom44DiscoverySession_IsActive_HandleSyncResponseE, i64 0, inrange i32 0, i64 2) to i32 (...)**), i32 (...)*** %13, align 8
  %14 = getelementptr inbounds i8, i8* %12, i64 8
  %15 = bitcast i8* %14 to i8**
  store i8* %4, i8** %15, align 8
  %16 = getelementptr inbounds i8, i8* %12, i64 16
  %17 = bitcast i8* %16 to i8**
  store i8* %1, i8** %17, align 8
  %18 = bitcast i8* %12 to %"class.mojo::MessageReceiver"*
  %19 = getelementptr inbounds %"class.bluetooth::mojom::DiscoverySessionProxy", %"class.bluetooth::mojom::DiscoverySessionProxy"* %0, i64 0, i32 1
  %20 = load %"class.mojo::MessageReceiverWithResponder"*, %"class.mojo::MessageReceiverWithResponder"** %19, align 8
  %21 = bitcast %"class.mojo::MessageReceiverWithResponder"* %20 to i1 (%"class.mojo::MessageReceiverWithResponder"*, %"class.mojo::Message"*, %"class.mojo::MessageReceiver"*)***
  %22 = load i1 (%"class.mojo::MessageReceiverWithResponder"*, %"class.mojo::Message"*, %"class.mojo::MessageReceiver"*)**, i1 (%"class.mojo::MessageReceiverWithResponder"*, %"class.mojo::Message"*, %"class.mojo::MessageReceiver"*)*** %21, align 8
  %23 = getelementptr inbounds i1 (%"class.mojo::MessageReceiverWithResponder"*, %"class.mojo::Message"*, %"class.mojo::MessageReceiver"*)*, i1 (%"class.mojo::MessageReceiverWithResponder"*, %"class.mojo::Message"*, %"class.mojo::MessageReceiver"*)** %22, i64 4
  %24 = load i1 (%"class.mojo::MessageReceiverWithResponder"*, %"class.mojo::Message"*, %"class.mojo::MessageReceiver"*)*, i1 (%"class.mojo::MessageReceiverWithResponder"*, %"class.mojo::Message"*, %"class.mojo::MessageReceiver"*)** %23, align 8
  %25 = call zeroext i1 %24(%"class.mojo::MessageReceiverWithResponder"* %20, %"class.mojo::Message"* nonnull %3, %"class.mojo::MessageReceiver"* nonnull %18) #12
  %26 = load i8, i8* %4, align 1, !range !14
  %27 = icmp ne i8 %26, 0
  call void @llvm.lifetime.end.p0i8(i64 1, i8* nonnull %4) #12
  call void @_ZN4mojo7MessageD1Ev(%"class.mojo::Message"* nonnull %3) #12
  call void @llvm.lifetime.end.p0i8(i64 120, i8* nonnull %5) #12
  ret i1 %27
}

; Function Attrs: nounwind ssp uwtable
define hidden void @_ZN9bluetooth5mojom21DiscoverySessionProxy8IsActiveEN4base12OnceCallbackIFvbEEE(%"class.bluetooth::mojom::DiscoverySessionProxy"* nocapture readonly, %"class.base::OnceCallback.76"* nocapture) unnamed_addr #0 align 2 {
  %3 = alloca %"class.mojo::Message", align 8
  %4 = alloca %"class.base::OnceCallback.76", align 8
  %5 = bitcast %"class.mojo::Message"* %3 to i8*
  call void @llvm.lifetime.start.p0i8(i64 120, i8* nonnull %5) #12
  call void @llvm.memset.p0i8.i64(i8* nonnull align 8 %5, i8 -86, i64 120, i1 false)
  call void @_ZN4mojo7MessageC1EjjmmPNSt3__16vectorINS_16ScopedHandleBaseINS_6HandleEEENS1_9allocatorIS5_EEEE(%"class.mojo::Message"* nonnull %3, i32 363555590, i32 1, i64 0, i64 0, %"class.std::__1::vector"* null) #12
  %6 = getelementptr inbounds %"class.mojo::Message", %"class.mojo::Message"* %3, i64 0, i32 1
  %7 = call i64 @_ZN4mojo8internal6Buffer8AllocateEm(%"class.mojo::internal::Buffer"* %6, i64 8) #12
  %8 = getelementptr inbounds %"class.mojo::Message", %"class.mojo::Message"* %3, i64 0, i32 1, i32 2
  %9 = load i8*, i8** %8, align 8
  %10 = getelementptr inbounds i8, i8* %9, i64 %7
  %11 = bitcast i8* %10 to %"class.bluetooth::mojom::internal::DiscoverySession_IsActive_Params_Data"*
  call void @_ZN9bluetooth5mojom8internal37DiscoverySession_IsActive_Params_DataC1Ev(%"class.bluetooth::mojom::internal::DiscoverySession_IsActive_Params_Data"* %11) #12
  %12 = call i8* @_Znwm(i64 16) #13
  %13 = getelementptr inbounds %"class.base::OnceCallback.76", %"class.base::OnceCallback.76"* %1, i64 0, i32 0, i32 0, i32 0
  %14 = bitcast %"class.base::OnceCallback.76"* %1 to i64*
  %15 = load i64, i64* %14, align 8
  store %"class.base::internal::BindStateBase"* null, %"class.base::internal::BindStateBase"** %13, align 8
  %16 = bitcast i8* %12 to i32 (...)***
  store i32 (...)** bitcast (i8** getelementptr inbounds ({ [6 x i8*] }, { [6 x i8*] }* @_ZTVN9bluetooth5mojom43DiscoverySession_IsActive_ForwardToCallbackE, i64 0, inrange i32 0, i64 2) to i32 (...)**), i32 (...)*** %16, align 8
  %17 = getelementptr inbounds i8, i8* %12, i64 8
  %18 = getelementptr inbounds %"class.base::OnceCallback.76", %"class.base::OnceCallback.76"* %4, i64 0, i32 0, i32 0, i32 0
  %19 = bitcast i8* %17 to i64*
  store i64 %15, i64* %19, align 8
  store %"class.base::internal::BindStateBase"* null, %"class.base::internal::BindStateBase"** %18, align 8
  %20 = bitcast i8* %12 to %"class.mojo::MessageReceiver"*
  %21 = getelementptr inbounds %"class.base::OnceCallback.76", %"class.base::OnceCallback.76"* %4, i64 0, i32 0
  call void @_ZN4base8internal12CallbackBaseD2Ev(%"class.base::internal::CallbackBase"* nonnull %21) #12
  %22 = getelementptr inbounds %"class.bluetooth::mojom::DiscoverySessionProxy", %"class.bluetooth::mojom::DiscoverySessionProxy"* %0, i64 0, i32 1
  %23 = load %"class.mojo::MessageReceiverWithResponder"*, %"class.mojo::MessageReceiverWithResponder"** %22, align 8
  %24 = bitcast %"class.mojo::MessageReceiverWithResponder"* %23 to i1 (%"class.mojo::MessageReceiverWithResponder"*, %"class.mojo::Message"*, %"class.mojo::MessageReceiver"*)***
  %25 = load i1 (%"class.mojo::MessageReceiverWithResponder"*, %"class.mojo::Message"*, %"class.mojo::MessageReceiver"*)**, i1 (%"class.mojo::MessageReceiverWithResponder"*, %"class.mojo::Message"*, %"class.mojo::MessageReceiver"*)*** %24, align 8
  %26 = getelementptr inbounds i1 (%"class.mojo::MessageReceiverWithResponder"*, %"class.mojo::Message"*, %"class.mojo::MessageReceiver"*)*, i1 (%"class.mojo::MessageReceiverWithResponder"*, %"class.mojo::Message"*, %"class.mojo::MessageReceiver"*)** %25, i64 4
  %27 = load i1 (%"class.mojo::MessageReceiverWithResponder"*, %"class.mojo::Message"*, %"class.mojo::MessageReceiver"*)*, i1 (%"class.mojo::MessageReceiverWithResponder"*, %"class.mojo::Message"*, %"class.mojo::MessageReceiver"*)** %26, align 8
  %28 = call zeroext i1 %27(%"class.mojo::MessageReceiverWithResponder"* %23, %"class.mojo::Message"* nonnull %3, %"class.mojo::MessageReceiver"* nonnull %20) #12
  call void @_ZN4mojo7MessageD1Ev(%"class.mojo::Message"* nonnull %3) #12
  call void @llvm.lifetime.end.p0i8(i64 120, i8* nonnull %5) #12
  ret void
}

; Function Attrs: nounwind ssp uwtable
define hidden zeroext i1 @_ZN9bluetooth5mojom21DiscoverySessionProxy4StopEPb(%"class.bluetooth::mojom::DiscoverySessionProxy"* nocapture readonly, i8*) unnamed_addr #0 align 2 {
  %3 = alloca %"class.mojo::Message", align 8
  %4 = alloca i8, align 1
  %5 = bitcast %"class.mojo::Message"* %3 to i8*
  call void @llvm.lifetime.start.p0i8(i64 120, i8* nonnull %5) #12
  call void @llvm.memset.p0i8.i64(i8* nonnull align 8 %5, i8 -86, i64 120, i1 false)
  call void @_ZN4mojo7MessageC1EjjmmPNSt3__16vectorINS_16ScopedHandleBaseINS_6HandleEEENS1_9allocatorIS5_EEEE(%"class.mojo::Message"* nonnull %3, i32 45398248, i32 5, i64 0, i64 0, %"class.std::__1::vector"* null) #12
  %6 = getelementptr inbounds %"class.mojo::Message", %"class.mojo::Message"* %3, i64 0, i32 1
  %7 = call i64 @_ZN4mojo8internal6Buffer8AllocateEm(%"class.mojo::internal::Buffer"* %6, i64 8) #12
  %8 = getelementptr inbounds %"class.mojo::Message", %"class.mojo::Message"* %3, i64 0, i32 1, i32 2
  %9 = load i8*, i8** %8, align 8
  %10 = getelementptr inbounds i8, i8* %9, i64 %7
  %11 = bitcast i8* %10 to %"class.bluetooth::mojom::internal::DiscoverySession_Stop_Params_Data"*
  call void @_ZN9bluetooth5mojom8internal33DiscoverySession_Stop_Params_DataC1Ev(%"class.bluetooth::mojom::internal::DiscoverySession_Stop_Params_Data"* %11) #12
  call void @llvm.lifetime.start.p0i8(i64 1, i8* nonnull %4) #12
  store i8 0, i8* %4, align 1
  %12 = call i8* @_Znwm(i64 24) #13
  %13 = bitcast i8* %12 to i32 (...)***
  store i32 (...)** bitcast (i8** getelementptr inbounds ({ [6 x i8*] }, { [6 x i8*] }* @_ZTVN9bluetooth5mojom40DiscoverySession_Stop_HandleSyncResponseE, i64 0, inrange i32 0, i64 2) to i32 (...)**), i32 (...)*** %13, align 8
  %14 = getelementptr inbounds i8, i8* %12, i64 8
  %15 = bitcast i8* %14 to i8**
  store i8* %4, i8** %15, align 8
  %16 = getelementptr inbounds i8, i8* %12, i64 16
  %17 = bitcast i8* %16 to i8**
  store i8* %1, i8** %17, align 8
  %18 = bitcast i8* %12 to %"class.mojo::MessageReceiver"*
  %19 = getelementptr inbounds %"class.bluetooth::mojom::DiscoverySessionProxy", %"class.bluetooth::mojom::DiscoverySessionProxy"* %0, i64 0, i32 1
  %20 = load %"class.mojo::MessageReceiverWithResponder"*, %"class.mojo::MessageReceiverWithResponder"** %19, align 8
  %21 = bitcast %"class.mojo::MessageReceiverWithResponder"* %20 to i1 (%"class.mojo::MessageReceiverWithResponder"*, %"class.mojo::Message"*, %"class.mojo::MessageReceiver"*)***
  %22 = load i1 (%"class.mojo::MessageReceiverWithResponder"*, %"class.mojo::Message"*, %"class.mojo::MessageReceiver"*)**, i1 (%"class.mojo::MessageReceiverWithResponder"*, %"class.mojo::Message"*, %"class.mojo::MessageReceiver"*)*** %21, align 8
  %23 = getelementptr inbounds i1 (%"class.mojo::MessageReceiverWithResponder"*, %"class.mojo::Message"*, %"class.mojo::MessageReceiver"*)*, i1 (%"class.mojo::MessageReceiverWithResponder"*, %"class.mojo::Message"*, %"class.mojo::MessageReceiver"*)** %22, i64 4
  %24 = load i1 (%"class.mojo::MessageReceiverWithResponder"*, %"class.mojo::Message"*, %"class.mojo::MessageReceiver"*)*, i1 (%"class.mojo::MessageReceiverWithResponder"*, %"class.mojo::Message"*, %"class.mojo::MessageReceiver"*)** %23, align 8
  %25 = call zeroext i1 %24(%"class.mojo::MessageReceiverWithResponder"* %20, %"class.mojo::Message"* nonnull %3, %"class.mojo::MessageReceiver"* nonnull %18) #12
  %26 = load i8, i8* %4, align 1, !range !14
  %27 = icmp ne i8 %26, 0
  call void @llvm.lifetime.end.p0i8(i64 1, i8* nonnull %4) #12
  call void @_ZN4mojo7MessageD1Ev(%"class.mojo::Message"* nonnull %3) #12
  call void @llvm.lifetime.end.p0i8(i64 120, i8* nonnull %5) #12
  ret i1 %27
}

; Function Attrs: nounwind ssp uwtable
define hidden void @_ZN9bluetooth5mojom21DiscoverySessionProxy4StopEN4base12OnceCallbackIFvbEEE(%"class.bluetooth::mojom::DiscoverySessionProxy"* nocapture readonly, %"class.base::OnceCallback.76"* nocapture) unnamed_addr #0 align 2 {
  %3 = alloca %"class.mojo::Message", align 8
  %4 = alloca %"class.base::OnceCallback.76", align 8
  %5 = bitcast %"class.mojo::Message"* %3 to i8*
  call void @llvm.lifetime.start.p0i8(i64 120, i8* nonnull %5) #12
  call void @llvm.memset.p0i8.i64(i8* nonnull align 8 %5, i8 -86, i64 120, i1 false)
  call void @_ZN4mojo7MessageC1EjjmmPNSt3__16vectorINS_16ScopedHandleBaseINS_6HandleEEENS1_9allocatorIS5_EEEE(%"class.mojo::Message"* nonnull %3, i32 45398248, i32 1, i64 0, i64 0, %"class.std::__1::vector"* null) #12
  %6 = getelementptr inbounds %"class.mojo::Message", %"class.mojo::Message"* %3, i64 0, i32 1
  %7 = call i64 @_ZN4mojo8internal6Buffer8AllocateEm(%"class.mojo::internal::Buffer"* %6, i64 8) #12
  %8 = getelementptr inbounds %"class.mojo::Message", %"class.mojo::Message"* %3, i64 0, i32 1, i32 2
  %9 = load i8*, i8** %8, align 8
  %10 = getelementptr inbounds i8, i8* %9, i64 %7
  %11 = bitcast i8* %10 to %"class.bluetooth::mojom::internal::DiscoverySession_Stop_Params_Data"*
  call void @_ZN9bluetooth5mojom8internal33DiscoverySession_Stop_Params_DataC1Ev(%"class.bluetooth::mojom::internal::DiscoverySession_Stop_Params_Data"* %11) #12
  %12 = call i8* @_Znwm(i64 16) #13
  %13 = getelementptr inbounds %"class.base::OnceCallback.76", %"class.base::OnceCallback.76"* %1, i64 0, i32 0, i32 0, i32 0
  %14 = bitcast %"class.base::OnceCallback.76"* %1 to i64*
  %15 = load i64, i64* %14, align 8
  store %"class.base::internal::BindStateBase"* null, %"class.base::internal::BindStateBase"** %13, align 8
  %16 = bitcast i8* %12 to i32 (...)***
  store i32 (...)** bitcast (i8** getelementptr inbounds ({ [6 x i8*] }, { [6 x i8*] }* @_ZTVN9bluetooth5mojom39DiscoverySession_Stop_ForwardToCallbackE, i64 0, inrange i32 0, i64 2) to i32 (...)**), i32 (...)*** %16, align 8
  %17 = getelementptr inbounds i8, i8* %12, i64 8
  %18 = getelementptr inbounds %"class.base::OnceCallback.76", %"class.base::OnceCallback.76"* %4, i64 0, i32 0, i32 0, i32 0
  %19 = bitcast i8* %17 to i64*
  store i64 %15, i64* %19, align 8
  store %"class.base::internal::BindStateBase"* null, %"class.base::internal::BindStateBase"** %18, align 8
  %20 = bitcast i8* %12 to %"class.mojo::MessageReceiver"*
  %21 = getelementptr inbounds %"class.base::OnceCallback.76", %"class.base::OnceCallback.76"* %4, i64 0, i32 0
  call void @_ZN4base8internal12CallbackBaseD2Ev(%"class.base::internal::CallbackBase"* nonnull %21) #12
  %22 = getelementptr inbounds %"class.bluetooth::mojom::DiscoverySessionProxy", %"class.bluetooth::mojom::DiscoverySessionProxy"* %0, i64 0, i32 1
  %23 = load %"class.mojo::MessageReceiverWithResponder"*, %"class.mojo::MessageReceiverWithResponder"** %22, align 8
  %24 = bitcast %"class.mojo::MessageReceiverWithResponder"* %23 to i1 (%"class.mojo::MessageReceiverWithResponder"*, %"class.mojo::Message"*, %"class.mojo::MessageReceiver"*)***
  %25 = load i1 (%"class.mojo::MessageReceiverWithResponder"*, %"class.mojo::Message"*, %"class.mojo::MessageReceiver"*)**, i1 (%"class.mojo::MessageReceiverWithResponder"*, %"class.mojo::Message"*, %"class.mojo::MessageReceiver"*)*** %24, align 8
  %26 = getelementptr inbounds i1 (%"class.mojo::MessageReceiverWithResponder"*, %"class.mojo::Message"*, %"class.mojo::MessageReceiver"*)*, i1 (%"class.mojo::MessageReceiverWithResponder"*, %"class.mojo::Message"*, %"class.mojo::MessageReceiver"*)** %25, i64 4
  %27 = load i1 (%"class.mojo::MessageReceiverWithResponder"*, %"class.mojo::Message"*, %"class.mojo::MessageReceiver"*)*, i1 (%"class.mojo::MessageReceiverWithResponder"*, %"class.mojo::Message"*, %"class.mojo::MessageReceiver"*)** %26, align 8
  %28 = call zeroext i1 %27(%"class.mojo::MessageReceiverWithResponder"* %23, %"class.mojo::Message"* nonnull %3, %"class.mojo::MessageReceiver"* nonnull %20) #12
  call void @_ZN4mojo7MessageD1Ev(%"class.mojo::Message"* nonnull %3) #12
  call void @llvm.lifetime.end.p0i8(i64 120, i8* nonnull %5) #12
  ret void
}

; Function Attrs: nounwind ssp uwtable
define hidden zeroext i1 @_ZN9bluetooth5mojom43DiscoverySession_IsActive_ForwardToCallback6AcceptEPN4mojo7MessageE(%"class.bluetooth::mojom::DiscoverySession_IsActive_ForwardToCallback"* nocapture, %"class.mojo::Message"*) unnamed_addr #0 align 2 {
  %3 = alloca %"class.base::OnceCallback.76", align 8
  %4 = tail call i8* @_ZNK4mojo7Message7payloadEv(%"class.mojo::Message"* %1) #12
  %5 = getelementptr inbounds %"class.bluetooth::mojom::DiscoverySession_IsActive_ForwardToCallback", %"class.bluetooth::mojom::DiscoverySession_IsActive_ForwardToCallback"* %0, i64 0, i32 1, i32 0, i32 0, i32 0
  %6 = load %"class.base::internal::BindStateBase"*, %"class.base::internal::BindStateBase"** %5, align 8
  %7 = icmp eq %"class.base::internal::BindStateBase"* %6, null
  br i1 %7, label %20, label %8

8:                                                ; preds = %2
  %9 = ptrtoint %"class.base::internal::BindStateBase"* %6 to i64
  %10 = getelementptr inbounds i8, i8* %4, i64 8
  %11 = load i8, i8* %10, align 1
  %12 = and i8 %11, 1
  %13 = icmp ne i8 %12, 0
  %14 = bitcast %"class.base::OnceCallback.76"* %3 to i8*
  call void @llvm.lifetime.start.p0i8(i64 8, i8* nonnull %14) #12
  %15 = bitcast %"class.base::OnceCallback.76"* %3 to i64*
  store i64 %9, i64* %15, align 8
  store %"class.base::internal::BindStateBase"* null, %"class.base::internal::BindStateBase"** %5, align 8
  %16 = getelementptr inbounds %"class.base::OnceCallback.76", %"class.base::OnceCallback.76"* %3, i64 0, i32 0
  %17 = getelementptr inbounds %"class.base::internal::BindStateBase", %"class.base::internal::BindStateBase"* %6, i64 0, i32 1
  %18 = bitcast void ()** %17 to void (%"class.base::internal::BindStateBase"*, i1)**
  %19 = load void (%"class.base::internal::BindStateBase"*, i1)*, void (%"class.base::internal::BindStateBase"*, i1)** %18, align 8
  tail call void %19(%"class.base::internal::BindStateBase"* nonnull %6, i1 zeroext %13) #12
  call void @_ZN4base8internal12CallbackBaseD2Ev(%"class.base::internal::CallbackBase"* nonnull %16) #12
  call void @llvm.lifetime.end.p0i8(i64 8, i8* nonnull %14) #12
  br label %20

20:                                               ; preds = %2, %8
  ret i1 true
}

; Function Attrs: nounwind ssp uwtable
define hidden void @_ZN9bluetooth5mojom42DiscoverySession_IsActive_ProxyToResponder3RunEb(%"class.bluetooth::mojom::DiscoverySession_IsActive_ProxyToResponder"* nocapture, i1 zeroext) #0 align 2 {
  %3 = alloca %"class.mojo::Message", align 8
  %4 = zext i1 %1 to i8
  %5 = getelementptr inbounds %"class.bluetooth::mojom::DiscoverySession_IsActive_ProxyToResponder", %"class.bluetooth::mojom::DiscoverySession_IsActive_ProxyToResponder"* %0, i64 0, i32 1
  %6 = load i8, i8* %5, align 8, !range !14
  %7 = icmp eq i8 %6, 0
  %8 = select i1 %7, i32 2, i32 6
  %9 = bitcast %"class.mojo::Message"* %3 to i8*
  call void @llvm.lifetime.start.p0i8(i64 120, i8* nonnull %9) #12
  call void @llvm.memset.p0i8.i64(i8* nonnull align 8 %9, i8 -86, i64 120, i1 false)
  call void @_ZN4mojo7MessageC1EjjmmPNSt3__16vectorINS_16ScopedHandleBaseINS_6HandleEEENS1_9allocatorIS5_EEEE(%"class.mojo::Message"* nonnull %3, i32 363555590, i32 %8, i64 0, i64 0, %"class.std::__1::vector"* null) #12
  %10 = getelementptr inbounds %"class.mojo::Message", %"class.mojo::Message"* %3, i64 0, i32 1
  %11 = call i64 @_ZN4mojo8internal6Buffer8AllocateEm(%"class.mojo::internal::Buffer"* %10, i64 16) #12
  %12 = getelementptr inbounds %"class.mojo::Message", %"class.mojo::Message"* %3, i64 0, i32 1, i32 2
  %13 = load i8*, i8** %12, align 8
  %14 = getelementptr inbounds i8, i8* %13, i64 %11
  %15 = bitcast i8* %14 to %"class.bluetooth::mojom::internal::DiscoverySession_IsActive_ResponseParams_Data"*
  call void @_ZN9bluetooth5mojom8internal45DiscoverySession_IsActive_ResponseParams_DataC1Ev(%"class.bluetooth::mojom::internal::DiscoverySession_IsActive_ResponseParams_Data"* %15) #12
  %16 = load i8*, i8** %12, align 8
  %17 = getelementptr inbounds i8, i8* %16, i64 %11
  %18 = getelementptr inbounds i8, i8* %17, i64 8
  %19 = load i8, i8* %18, align 1
  %20 = and i8 %19, -2
  %21 = or i8 %20, %4
  store i8 %21, i8* %18, align 1
  %22 = getelementptr inbounds %"class.bluetooth::mojom::DiscoverySession_IsActive_ProxyToResponder", %"class.bluetooth::mojom::DiscoverySession_IsActive_ProxyToResponder"* %0, i64 0, i32 0
  %23 = load i64, i64* %22, align 8
  %24 = bitcast i8** %12 to %"struct.mojo::internal::MessageHeaderV1"**
  %25 = load %"struct.mojo::internal::MessageHeaderV1"*, %"struct.mojo::internal::MessageHeaderV1"** %24, align 8
  %26 = getelementptr inbounds %"struct.mojo::internal::MessageHeaderV1", %"struct.mojo::internal::MessageHeaderV1"* %25, i64 0, i32 1
  store i64 %23, i64* %26, align 1
  %27 = getelementptr inbounds %"class.bluetooth::mojom::DiscoverySession_IsActive_ProxyToResponder", %"class.bluetooth::mojom::DiscoverySession_IsActive_ProxyToResponder"* %0, i64 0, i32 2, i32 0, i32 0, i32 0
  %28 = load %"class.mojo::MessageReceiverWithStatus"*, %"class.mojo::MessageReceiverWithStatus"** %27, align 8
  %29 = getelementptr inbounds %"class.mojo::MessageReceiverWithStatus", %"class.mojo::MessageReceiverWithStatus"* %28, i64 0, i32 0
  %30 = bitcast %"class.mojo::MessageReceiverWithStatus"* %28 to i1 (%"class.mojo::MessageReceiver"*, %"class.mojo::Message"*)***
  %31 = load i1 (%"class.mojo::MessageReceiver"*, %"class.mojo::Message"*)**, i1 (%"class.mojo::MessageReceiver"*, %"class.mojo::Message"*)*** %30, align 8
  %32 = getelementptr inbounds i1 (%"class.mojo::MessageReceiver"*, %"class.mojo::Message"*)*, i1 (%"class.mojo::MessageReceiver"*, %"class.mojo::Message"*)** %31, i64 3
  %33 = load i1 (%"class.mojo::MessageReceiver"*, %"class.mojo::Message"*)*, i1 (%"class.mojo::MessageReceiver"*, %"class.mojo::Message"*)** %32, align 8
  %34 = call zeroext i1 %33(%"class.mojo::MessageReceiver"* %29, %"class.mojo::Message"* nonnull %3) #12
  %35 = load %"class.mojo::MessageReceiverWithStatus"*, %"class.mojo::MessageReceiverWithStatus"** %27, align 8
  store %"class.mojo::MessageReceiverWithStatus"* null, %"class.mojo::MessageReceiverWithStatus"** %27, align 8
  %36 = icmp eq %"class.mojo::MessageReceiverWithStatus"* %35, null
  br i1 %36, label %42, label %37

37:                                               ; preds = %2
  %38 = bitcast %"class.mojo::MessageReceiverWithStatus"* %35 to void (%"class.mojo::MessageReceiverWithStatus"*)***
  %39 = load void (%"class.mojo::MessageReceiverWithStatus"*)**, void (%"class.mojo::MessageReceiverWithStatus"*)*** %38, align 8
  %40 = getelementptr inbounds void (%"class.mojo::MessageReceiverWithStatus"*)*, void (%"class.mojo::MessageReceiverWithStatus"*)** %39, i64 1
  %41 = load void (%"class.mojo::MessageReceiverWithStatus"*)*, void (%"class.mojo::MessageReceiverWithStatus"*)** %40, align 8
  call void %41(%"class.mojo::MessageReceiverWithStatus"* nonnull %35) #12
  br label %42

42:                                               ; preds = %2, %37
  call void @_ZN4mojo7MessageD1Ev(%"class.mojo::Message"* nonnull %3) #12
  call void @llvm.lifetime.end.p0i8(i64 120, i8* nonnull %9) #12
  ret void
}

; Function Attrs: nounwind ssp uwtable
define hidden zeroext i1 @_ZN9bluetooth5mojom44DiscoverySession_IsActive_HandleSyncResponse6AcceptEPN4mojo7MessageE(%"class.bluetooth::mojom::DiscoverySession_IsActive_HandleSyncResponse"* nocapture readonly, %"class.mojo::Message"*) unnamed_addr #0 align 2 {
  %3 = tail call i8* @_ZNK4mojo7Message7payloadEv(%"class.mojo::Message"* %1) #12
  %4 = getelementptr inbounds i8, i8* %3, i64 8
  %5 = load i8, i8* %4, align 1
  %6 = and i8 %5, 1
  %7 = getelementptr inbounds %"class.bluetooth::mojom::DiscoverySession_IsActive_HandleSyncResponse", %"class.bluetooth::mojom::DiscoverySession_IsActive_HandleSyncResponse"* %0, i64 0, i32 2
  %8 = load i8*, i8** %7, align 8
  store i8 %6, i8* %8, align 1
  %9 = getelementptr inbounds %"class.bluetooth::mojom::DiscoverySession_IsActive_HandleSyncResponse", %"class.bluetooth::mojom::DiscoverySession_IsActive_HandleSyncResponse"* %0, i64 0, i32 1
  %10 = load i8*, i8** %9, align 8
  store i8 1, i8* %10, align 1
  ret i1 true
}

; Function Attrs: nounwind ssp uwtable
define hidden zeroext i1 @_ZN9bluetooth5mojom39DiscoverySession_Stop_ForwardToCallback6AcceptEPN4mojo7MessageE(%"class.bluetooth::mojom::DiscoverySession_Stop_ForwardToCallback"* nocapture, %"class.mojo::Message"*) unnamed_addr #0 align 2 {
  %3 = alloca %"class.base::OnceCallback.76", align 8
  %4 = tail call i8* @_ZNK4mojo7Message7payloadEv(%"class.mojo::Message"* %1) #12
  %5 = getelementptr inbounds %"class.bluetooth::mojom::DiscoverySession_Stop_ForwardToCallback", %"class.bluetooth::mojom::DiscoverySession_Stop_ForwardToCallback"* %0, i64 0, i32 1, i32 0, i32 0, i32 0
  %6 = load %"class.base::internal::BindStateBase"*, %"class.base::internal::BindStateBase"** %5, align 8
  %7 = icmp eq %"class.base::internal::BindStateBase"* %6, null
  br i1 %7, label %20, label %8

8:                                                ; preds = %2
  %9 = ptrtoint %"class.base::internal::BindStateBase"* %6 to i64
  %10 = getelementptr inbounds i8, i8* %4, i64 8
  %11 = load i8, i8* %10, align 1
  %12 = and i8 %11, 1
  %13 = icmp ne i8 %12, 0
  %14 = bitcast %"class.base::OnceCallback.76"* %3 to i8*
  call void @llvm.lifetime.start.p0i8(i64 8, i8* nonnull %14) #12
  %15 = bitcast %"class.base::OnceCallback.76"* %3 to i64*
  store i64 %9, i64* %15, align 8
  store %"class.base::internal::BindStateBase"* null, %"class.base::internal::BindStateBase"** %5, align 8
  %16 = getelementptr inbounds %"class.base::OnceCallback.76", %"class.base::OnceCallback.76"* %3, i64 0, i32 0
  %17 = getelementptr inbounds %"class.base::internal::BindStateBase", %"class.base::internal::BindStateBase"* %6, i64 0, i32 1
  %18 = bitcast void ()** %17 to void (%"class.base::internal::BindStateBase"*, i1)**
  %19 = load void (%"class.base::internal::BindStateBase"*, i1)*, void (%"class.base::internal::BindStateBase"*, i1)** %18, align 8
  tail call void %19(%"class.base::internal::BindStateBase"* nonnull %6, i1 zeroext %13) #12
  call void @_ZN4base8internal12CallbackBaseD2Ev(%"class.base::internal::CallbackBase"* nonnull %16) #12
  call void @llvm.lifetime.end.p0i8(i64 8, i8* nonnull %14) #12
  br label %20

20:                                               ; preds = %2, %8
  ret i1 true
}

; Function Attrs: nounwind ssp uwtable
define hidden void @_ZN9bluetooth5mojom38DiscoverySession_Stop_ProxyToResponder3RunEb(%"class.bluetooth::mojom::DiscoverySession_Stop_ProxyToResponder"* nocapture, i1 zeroext) #0 align 2 {
  %3 = alloca %"class.mojo::Message", align 8
  %4 = zext i1 %1 to i8
  %5 = getelementptr inbounds %"class.bluetooth::mojom::DiscoverySession_Stop_ProxyToResponder", %"class.bluetooth::mojom::DiscoverySession_Stop_ProxyToResponder"* %0, i64 0, i32 1
  %6 = load i8, i8* %5, align 8, !range !14
  %7 = icmp eq i8 %6, 0
  %8 = select i1 %7, i32 2, i32 6
  %9 = bitcast %"class.mojo::Message"* %3 to i8*
  call void @llvm.lifetime.start.p0i8(i64 120, i8* nonnull %9) #12
  call void @llvm.memset.p0i8.i64(i8* nonnull align 8 %9, i8 -86, i64 120, i1 false)
  call void @_ZN4mojo7MessageC1EjjmmPNSt3__16vectorINS_16ScopedHandleBaseINS_6HandleEEENS1_9allocatorIS5_EEEE(%"class.mojo::Message"* nonnull %3, i32 45398248, i32 %8, i64 0, i64 0, %"class.std::__1::vector"* null) #12
  %10 = getelementptr inbounds %"class.mojo::Message", %"class.mojo::Message"* %3, i64 0, i32 1
  %11 = call i64 @_ZN4mojo8internal6Buffer8AllocateEm(%"class.mojo::internal::Buffer"* %10, i64 16) #12
  %12 = getelementptr inbounds %"class.mojo::Message", %"class.mojo::Message"* %3, i64 0, i32 1, i32 2
  %13 = load i8*, i8** %12, align 8
  %14 = getelementptr inbounds i8, i8* %13, i64 %11
  %15 = bitcast i8* %14 to %"class.bluetooth::mojom::internal::DiscoverySession_Stop_ResponseParams_Data"*
  call void @_ZN9bluetooth5mojom8internal41DiscoverySession_Stop_ResponseParams_DataC1Ev(%"class.bluetooth::mojom::internal::DiscoverySession_Stop_ResponseParams_Data"* %15) #12
  %16 = load i8*, i8** %12, align 8
  %17 = getelementptr inbounds i8, i8* %16, i64 %11
  %18 = getelementptr inbounds i8, i8* %17, i64 8
  %19 = load i8, i8* %18, align 1
  %20 = and i8 %19, -2
  %21 = or i8 %20, %4
  store i8 %21, i8* %18, align 1
  %22 = getelementptr inbounds %"class.bluetooth::mojom::DiscoverySession_Stop_ProxyToResponder", %"class.bluetooth::mojom::DiscoverySession_Stop_ProxyToResponder"* %0, i64 0, i32 0
  %23 = load i64, i64* %22, align 8
  %24 = bitcast i8** %12 to %"struct.mojo::internal::MessageHeaderV1"**
  %25 = load %"struct.mojo::internal::MessageHeaderV1"*, %"struct.mojo::internal::MessageHeaderV1"** %24, align 8
  %26 = getelementptr inbounds %"struct.mojo::internal::MessageHeaderV1", %"struct.mojo::internal::MessageHeaderV1"* %25, i64 0, i32 1
  store i64 %23, i64* %26, align 1
  %27 = getelementptr inbounds %"class.bluetooth::mojom::DiscoverySession_Stop_ProxyToResponder", %"class.bluetooth::mojom::DiscoverySession_Stop_ProxyToResponder"* %0, i64 0, i32 2, i32 0, i32 0, i32 0
  %28 = load %"class.mojo::MessageReceiverWithStatus"*, %"class.mojo::MessageReceiverWithStatus"** %27, align 8
  %29 = getelementptr inbounds %"class.mojo::MessageReceiverWithStatus", %"class.mojo::MessageReceiverWithStatus"* %28, i64 0, i32 0
  %30 = bitcast %"class.mojo::MessageReceiverWithStatus"* %28 to i1 (%"class.mojo::MessageReceiver"*, %"class.mojo::Message"*)***
  %31 = load i1 (%"class.mojo::MessageReceiver"*, %"class.mojo::Message"*)**, i1 (%"class.mojo::MessageReceiver"*, %"class.mojo::Message"*)*** %30, align 8
  %32 = getelementptr inbounds i1 (%"class.mojo::MessageReceiver"*, %"class.mojo::Message"*)*, i1 (%"class.mojo::MessageReceiver"*, %"class.mojo::Message"*)** %31, i64 3
  %33 = load i1 (%"class.mojo::MessageReceiver"*, %"class.mojo::Message"*)*, i1 (%"class.mojo::MessageReceiver"*, %"class.mojo::Message"*)** %32, align 8
  %34 = call zeroext i1 %33(%"class.mojo::MessageReceiver"* %29, %"class.mojo::Message"* nonnull %3) #12
  %35 = load %"class.mojo::MessageReceiverWithStatus"*, %"class.mojo::MessageReceiverWithStatus"** %27, align 8
  store %"class.mojo::MessageReceiverWithStatus"* null, %"class.mojo::MessageReceiverWithStatus"** %27, align 8
  %36 = icmp eq %"class.mojo::MessageReceiverWithStatus"* %35, null
  br i1 %36, label %42, label %37

37:                                               ; preds = %2
  %38 = bitcast %"class.mojo::MessageReceiverWithStatus"* %35 to void (%"class.mojo::MessageReceiverWithStatus"*)***
  %39 = load void (%"class.mojo::MessageReceiverWithStatus"*)**, void (%"class.mojo::MessageReceiverWithStatus"*)*** %38, align 8
  %40 = getelementptr inbounds void (%"class.mojo::MessageReceiverWithStatus"*)*, void (%"class.mojo::MessageReceiverWithStatus"*)** %39, i64 1
  %41 = load void (%"class.mojo::MessageReceiverWithStatus"*)*, void (%"class.mojo::MessageReceiverWithStatus"*)** %40, align 8
  call void %41(%"class.mojo::MessageReceiverWithStatus"* nonnull %35) #12
  br label %42

42:                                               ; preds = %2, %37
  call void @_ZN4mojo7MessageD1Ev(%"class.mojo::Message"* nonnull %3) #12
  call void @llvm.lifetime.end.p0i8(i64 120, i8* nonnull %9) #12
  ret void
}

; Function Attrs: nounwind ssp uwtable
define hidden zeroext i1 @_ZN9bluetooth5mojom40DiscoverySession_Stop_HandleSyncResponse6AcceptEPN4mojo7MessageE(%"class.bluetooth::mojom::DiscoverySession_Stop_HandleSyncResponse"* nocapture readonly, %"class.mojo::Message"*) unnamed_addr #0 align 2 {
  %3 = tail call i8* @_ZNK4mojo7Message7payloadEv(%"class.mojo::Message"* %1) #12
  %4 = getelementptr inbounds i8, i8* %3, i64 8
  %5 = load i8, i8* %4, align 1
  %6 = and i8 %5, 1
  %7 = getelementptr inbounds %"class.bluetooth::mojom::DiscoverySession_Stop_HandleSyncResponse", %"class.bluetooth::mojom::DiscoverySession_Stop_HandleSyncResponse"* %0, i64 0, i32 2
  %8 = load i8*, i8** %7, align 8
  store i8 %6, i8* %8, align 1
  %9 = getelementptr inbounds %"class.bluetooth::mojom::DiscoverySession_Stop_HandleSyncResponse", %"class.bluetooth::mojom::DiscoverySession_Stop_HandleSyncResponse"* %0, i64 0, i32 1
  %10 = load i8*, i8** %9, align 8
  store i8 1, i8* %10, align 1
  ret i1 true
}

; Function Attrs: norecurse nounwind readonly ssp uwtable
define hidden zeroext i1 @_ZN9bluetooth5mojom28DiscoverySessionStubDispatch6AcceptEPNS0_16DiscoverySessionEPN4mojo7MessageE(%"class.bluetooth::mojom::DiscoverySession"* nocapture readnone, %"class.mojo::Message"* nocapture readonly) local_unnamed_addr #7 align 2 {
  ret i1 false
}

; Function Attrs: nounwind ssp uwtable
define hidden zeroext i1 @_ZN9bluetooth5mojom28DiscoverySessionStubDispatch19AcceptWithResponderEPNS0_16DiscoverySessionEPN4mojo7MessageENSt3__110unique_ptrINS4_25MessageReceiverWithStatusENS7_14default_deleteIS9_EEEE(%"class.bluetooth::mojom::DiscoverySession"*, %"class.mojo::Message"*, %"class.mojo::MessageReceiverWithStatus"*) local_unnamed_addr #0 align 2 {
  %4 = alloca %"class.base::TaskAnnotator::ScopedSetIpcHash", align 8
  %5 = alloca %"class.base::OnceCallback.76", align 8
  %6 = alloca %"class.base::OnceCallback.76", align 8
  %7 = alloca %"class.base::TaskAnnotator::ScopedSetIpcHash", align 8
  %8 = alloca %"class.base::OnceCallback.76", align 8
  %9 = alloca %"class.base::OnceCallback.76", align 8
  %10 = ptrtoint %"class.mojo::MessageReceiverWithStatus"* %2 to i64
  %11 = getelementptr inbounds %"class.mojo::Message", %"class.mojo::Message"* %1, i64 0, i32 1, i32 2
  %12 = bitcast i8** %11 to %"struct.mojo::internal::MessageHeader"**
  %13 = load %"struct.mojo::internal::MessageHeader"*, %"struct.mojo::internal::MessageHeader"** %12, align 8
  %14 = getelementptr inbounds %"struct.mojo::internal::MessageHeader", %"struct.mojo::internal::MessageHeader"* %13, i64 0, i32 3
  %15 = load i32, i32* %14, align 1
  %16 = and i32 %15, 4
  %17 = bitcast i8** %11 to %"struct.mojo::internal::MessageHeaderV1"**
  %18 = getelementptr inbounds %"struct.mojo::internal::MessageHeader", %"struct.mojo::internal::MessageHeader"* %13, i64 0, i32 2
  %19 = load i32, i32* %18, align 1
  switch i32 %19, label %80 [
    i32 363555590, label %20
    i32 45398248, label %50
  ]

20:                                               ; preds = %3
  %21 = bitcast %"class.base::TaskAnnotator::ScopedSetIpcHash"* %4 to i8*
  call void @llvm.lifetime.start.p0i8(i64 24, i8* nonnull %21) #12
  call void @llvm.memset.p0i8.i64(i8* nonnull align 8 %21, i8 -86, i64 24, i1 false)
  call void @_ZN4base13TaskAnnotator16ScopedSetIpcHashC1Ej(%"class.base::TaskAnnotator::ScopedSetIpcHash"* nonnull %4, i32 -113891844) #12
  %22 = call i8* @_ZNK4mojo7Message7payloadEv(%"class.mojo::Message"* %1) #12
  %23 = bitcast %"class.base::OnceCallback.76"* %5 to i8*
  call void @llvm.lifetime.start.p0i8(i64 8, i8* nonnull %23) #12
  %24 = getelementptr inbounds %"class.base::OnceCallback.76", %"class.base::OnceCallback.76"* %5, i64 0, i32 0, i32 0, i32 0
  %25 = load %"struct.mojo::internal::MessageHeaderV1"*, %"struct.mojo::internal::MessageHeaderV1"** %17, align 8
  %26 = getelementptr inbounds %"struct.mojo::internal::MessageHeaderV1", %"struct.mojo::internal::MessageHeaderV1"* %25, i64 0, i32 1
  %27 = load i64, i64* %26, align 1
  %28 = call i8* @_Znwm(i64 24) #13, !noalias !23
  %29 = lshr exact i32 %16, 2
  %30 = trunc i32 %29 to i8
  %31 = bitcast i8* %28 to i64*
  store i64 %27, i64* %31, align 8, !noalias !23
  %32 = getelementptr inbounds i8, i8* %28, i64 8
  store i8 %30, i8* %32, align 8, !noalias !23
  %33 = getelementptr inbounds i8, i8* %28, i64 16
  %34 = bitcast i8* %33 to i64*
  store i64 %10, i64* %34, align 8, !noalias !23
  %35 = ptrtoint i8* %28 to i64
  %36 = call i8* @_Znwm(i64 56) #13, !noalias !26
  %37 = bitcast i8* %36 to %"class.base::internal::BindStateBase"*
  call void @_ZN4base8internal13BindStateBaseC2EPFvvEPFvPKS1_E(%"class.base::internal::BindStateBase"* nonnull %37, void ()* bitcast (void (%"class.base::internal::BindStateBase"*, i1)* @_ZN4base8internal7InvokerINS0_9BindStateIMN9bluetooth5mojom42DiscoverySession_IsActive_ProxyToResponderEFvbEJNSt3__110unique_ptrIS5_NS8_14default_deleteIS5_EEEEEEEFvbEE7RunOnceEPNS0_13BindStateBaseEb to void ()*), void (%"class.base::internal::BindStateBase"*)* nonnull @_ZN4base8internal9BindStateIMN9bluetooth5mojom42DiscoverySession_IsActive_ProxyToResponderEFvbEJNSt3__110unique_ptrIS4_NS7_14default_deleteIS4_EEEEEE7DestroyEPKNS0_13BindStateBaseE) #12, !noalias !26
  %38 = getelementptr inbounds i8, i8* %36, i64 32
  %39 = bitcast i8* %38 to <2 x i64>*
  store <2 x i64> <i64 ptrtoint (void (%"class.bluetooth::mojom::DiscoverySession_IsActive_ProxyToResponder"*, i1)* @_ZN9bluetooth5mojom42DiscoverySession_IsActive_ProxyToResponder3RunEb to i64), i64 0>, <2 x i64>* %39, align 8, !noalias !26
  %40 = getelementptr inbounds i8, i8* %36, i64 48
  %41 = bitcast i8* %40 to i64*
  store i64 %35, i64* %41, align 8, !noalias !26
  %42 = ptrtoint i8* %36 to i64
  %43 = bitcast %"class.base::OnceCallback.76"* %6 to i64*
  store i64 %42, i64* %43, align 8
  store %"class.base::internal::BindStateBase"* null, %"class.base::internal::BindStateBase"** %24, align 8
  %44 = bitcast %"class.bluetooth::mojom::DiscoverySession"* %0 to void (%"class.bluetooth::mojom::DiscoverySession"*, %"class.base::OnceCallback.76"*)***
  %45 = load void (%"class.bluetooth::mojom::DiscoverySession"*, %"class.base::OnceCallback.76"*)**, void (%"class.bluetooth::mojom::DiscoverySession"*, %"class.base::OnceCallback.76"*)*** %44, align 8
  %46 = getelementptr inbounds void (%"class.bluetooth::mojom::DiscoverySession"*, %"class.base::OnceCallback.76"*)*, void (%"class.bluetooth::mojom::DiscoverySession"*, %"class.base::OnceCallback.76"*)** %45, i64 3
  %47 = load void (%"class.bluetooth::mojom::DiscoverySession"*, %"class.base::OnceCallback.76"*)*, void (%"class.bluetooth::mojom::DiscoverySession"*, %"class.base::OnceCallback.76"*)** %46, align 8
  call void %47(%"class.bluetooth::mojom::DiscoverySession"* %0, %"class.base::OnceCallback.76"* nonnull %6) #12
  %48 = getelementptr inbounds %"class.base::OnceCallback.76", %"class.base::OnceCallback.76"* %6, i64 0, i32 0
  call void @_ZN4base8internal12CallbackBaseD2Ev(%"class.base::internal::CallbackBase"* nonnull %48) #12
  %49 = getelementptr inbounds %"class.base::OnceCallback.76", %"class.base::OnceCallback.76"* %5, i64 0, i32 0
  call void @_ZN4base8internal12CallbackBaseD2Ev(%"class.base::internal::CallbackBase"* nonnull %49) #12
  call void @llvm.lifetime.end.p0i8(i64 8, i8* nonnull %23) #12
  call void @_ZN4base13TaskAnnotator16ScopedSetIpcHashD1Ev(%"class.base::TaskAnnotator::ScopedSetIpcHash"* nonnull %4) #12
  call void @llvm.lifetime.end.p0i8(i64 24, i8* nonnull %21) #12
  br label %87

50:                                               ; preds = %3
  %51 = bitcast %"class.base::TaskAnnotator::ScopedSetIpcHash"* %7 to i8*
  call void @llvm.lifetime.start.p0i8(i64 24, i8* nonnull %51) #12
  call void @llvm.memset.p0i8.i64(i8* nonnull align 8 %51, i8 -86, i64 24, i1 false)
  call void @_ZN4base13TaskAnnotator16ScopedSetIpcHashC1Ej(%"class.base::TaskAnnotator::ScopedSetIpcHash"* nonnull %7, i32 -798091731) #12
  %52 = call i8* @_ZNK4mojo7Message7payloadEv(%"class.mojo::Message"* %1) #12
  %53 = bitcast %"class.base::OnceCallback.76"* %8 to i8*
  call void @llvm.lifetime.start.p0i8(i64 8, i8* nonnull %53) #12
  %54 = getelementptr inbounds %"class.base::OnceCallback.76", %"class.base::OnceCallback.76"* %8, i64 0, i32 0, i32 0, i32 0
  %55 = load %"struct.mojo::internal::MessageHeaderV1"*, %"struct.mojo::internal::MessageHeaderV1"** %17, align 8
  %56 = getelementptr inbounds %"struct.mojo::internal::MessageHeaderV1", %"struct.mojo::internal::MessageHeaderV1"* %55, i64 0, i32 1
  %57 = load i64, i64* %56, align 1
  %58 = call i8* @_Znwm(i64 24) #13, !noalias !31
  %59 = lshr exact i32 %16, 2
  %60 = trunc i32 %59 to i8
  %61 = bitcast i8* %58 to i64*
  store i64 %57, i64* %61, align 8, !noalias !31
  %62 = getelementptr inbounds i8, i8* %58, i64 8
  store i8 %60, i8* %62, align 8, !noalias !31
  %63 = getelementptr inbounds i8, i8* %58, i64 16
  %64 = bitcast i8* %63 to i64*
  store i64 %10, i64* %64, align 8, !noalias !31
  %65 = ptrtoint i8* %58 to i64
  %66 = call i8* @_Znwm(i64 56) #13, !noalias !34
  %67 = bitcast i8* %66 to %"class.base::internal::BindStateBase"*
  call void @_ZN4base8internal13BindStateBaseC2EPFvvEPFvPKS1_E(%"class.base::internal::BindStateBase"* nonnull %67, void ()* bitcast (void (%"class.base::internal::BindStateBase"*, i1)* @_ZN4base8internal7InvokerINS0_9BindStateIMN9bluetooth5mojom38DiscoverySession_Stop_ProxyToResponderEFvbEJNSt3__110unique_ptrIS5_NS8_14default_deleteIS5_EEEEEEEFvbEE7RunOnceEPNS0_13BindStateBaseEb to void ()*), void (%"class.base::internal::BindStateBase"*)* nonnull @_ZN4base8internal9BindStateIMN9bluetooth5mojom38DiscoverySession_Stop_ProxyToResponderEFvbEJNSt3__110unique_ptrIS4_NS7_14default_deleteIS4_EEEEEE7DestroyEPKNS0_13BindStateBaseE) #12, !noalias !34
  %68 = getelementptr inbounds i8, i8* %66, i64 32
  %69 = bitcast i8* %68 to <2 x i64>*
  store <2 x i64> <i64 ptrtoint (void (%"class.bluetooth::mojom::DiscoverySession_Stop_ProxyToResponder"*, i1)* @_ZN9bluetooth5mojom38DiscoverySession_Stop_ProxyToResponder3RunEb to i64), i64 0>, <2 x i64>* %69, align 8, !noalias !34
  %70 = getelementptr inbounds i8, i8* %66, i64 48
  %71 = bitcast i8* %70 to i64*
  store i64 %65, i64* %71, align 8, !noalias !34
  %72 = ptrtoint i8* %66 to i64
  %73 = bitcast %"class.base::OnceCallback.76"* %9 to i64*
  store i64 %72, i64* %73, align 8
  store %"class.base::internal::BindStateBase"* null, %"class.base::internal::BindStateBase"** %54, align 8
  %74 = bitcast %"class.bluetooth::mojom::DiscoverySession"* %0 to void (%"class.bluetooth::mojom::DiscoverySession"*, %"class.base::OnceCallback.76"*)***
  %75 = load void (%"class.bluetooth::mojom::DiscoverySession"*, %"class.base::OnceCallback.76"*)**, void (%"class.bluetooth::mojom::DiscoverySession"*, %"class.base::OnceCallback.76"*)*** %74, align 8
  %76 = getelementptr inbounds void (%"class.bluetooth::mojom::DiscoverySession"*, %"class.base::OnceCallback.76"*)*, void (%"class.bluetooth::mojom::DiscoverySession"*, %"class.base::OnceCallback.76"*)** %75, i64 5
  %77 = load void (%"class.bluetooth::mojom::DiscoverySession"*, %"class.base::OnceCallback.76"*)*, void (%"class.bluetooth::mojom::DiscoverySession"*, %"class.base::OnceCallback.76"*)** %76, align 8
  call void %77(%"class.bluetooth::mojom::DiscoverySession"* %0, %"class.base::OnceCallback.76"* nonnull %9) #12
  %78 = getelementptr inbounds %"class.base::OnceCallback.76", %"class.base::OnceCallback.76"* %9, i64 0, i32 0
  call void @_ZN4base8internal12CallbackBaseD2Ev(%"class.base::internal::CallbackBase"* nonnull %78) #12
  %79 = getelementptr inbounds %"class.base::OnceCallback.76", %"class.base::OnceCallback.76"* %8, i64 0, i32 0
  call void @_ZN4base8internal12CallbackBaseD2Ev(%"class.base::internal::CallbackBase"* nonnull %79) #12
  call void @llvm.lifetime.end.p0i8(i64 8, i8* nonnull %53) #12
  call void @_ZN4base13TaskAnnotator16ScopedSetIpcHashD1Ev(%"class.base::TaskAnnotator::ScopedSetIpcHash"* nonnull %7) #12
  call void @llvm.lifetime.end.p0i8(i64 24, i8* nonnull %51) #12
  br label %87

80:                                               ; preds = %3
  %81 = icmp eq %"class.mojo::MessageReceiverWithStatus"* %2, null
  br i1 %81, label %87, label %82

82:                                               ; preds = %80
  %83 = bitcast %"class.mojo::MessageReceiverWithStatus"* %2 to void (%"class.mojo::MessageReceiverWithStatus"*)***
  %84 = load void (%"class.mojo::MessageReceiverWithStatus"*)**, void (%"class.mojo::MessageReceiverWithStatus"*)*** %83, align 8
  %85 = getelementptr inbounds void (%"class.mojo::MessageReceiverWithStatus"*)*, void (%"class.mojo::MessageReceiverWithStatus"*)** %84, i64 1
  %86 = load void (%"class.mojo::MessageReceiverWithStatus"*)*, void (%"class.mojo::MessageReceiverWithStatus"*)** %85, align 8
  tail call void %86(%"class.mojo::MessageReceiverWithStatus"* nonnull %2) #12
  br label %87

87:                                               ; preds = %20, %50, %80, %82
  %88 = phi i1 [ false, %80 ], [ false, %82 ], [ true, %50 ], [ true, %20 ]
  ret i1 %88
}

; Function Attrs: nounwind ssp uwtable
define hidden zeroext i1 @_ZN9bluetooth5mojom32DiscoverySessionRequestValidator6AcceptEPN4mojo7MessageE(%"class.bluetooth::mojom::DiscoverySessionRequestValidator"* nocapture readnone, %"class.mojo::Message"*) unnamed_addr #0 align 2 {
  %3 = tail call zeroext i1 @_ZN4mojo8internal22ValidateRequestGenericEPNS_7MessageEPKcN4base4spanIKNSt3__14pairIjNS0_21GenericValidationInfoEEELm18446744073709551615EEE(%"class.mojo::Message"* %1, i8* getelementptr inbounds ([33 x i8], [33 x i8]* @_ZN9bluetooth5mojom16DiscoverySession5Name_E, i64 0, i64 0), i64 2, %"struct.std::__1::pair.74"* getelementptr inbounds ([2 x %"struct.std::__1::pair.74"], [2 x %"struct.std::__1::pair.74"]* @_ZN9bluetooth5mojomL31kDiscoverySessionValidationInfoE, i64 0, i64 0)) #12
  ret i1 %3
}

; Function Attrs: nounwind ssp uwtable
define hidden zeroext i1 @_ZN9bluetooth5mojom33DiscoverySessionResponseValidator6AcceptEPN4mojo7MessageE(%"class.bluetooth::mojom::DiscoverySessionResponseValidator"* nocapture readnone, %"class.mojo::Message"*) unnamed_addr #0 align 2 {
  %3 = tail call zeroext i1 @_ZN4mojo8internal23ValidateResponseGenericEPNS_7MessageEPKcN4base4spanIKNSt3__14pairIjNS0_21GenericValidationInfoEEELm18446744073709551615EEE(%"class.mojo::Message"* %1, i8* getelementptr inbounds ([33 x i8], [33 x i8]* @_ZN9bluetooth5mojom16DiscoverySession5Name_E, i64 0, i64 0), i64 2, %"struct.std::__1::pair.74"* getelementptr inbounds ([2 x %"struct.std::__1::pair.74"], [2 x %"struct.std::__1::pair.74"]* @_ZN9bluetooth5mojomL31kDiscoverySessionValidationInfoE, i64 0, i64 0)) #12
  ret i1 %3
}

; Function Attrs: norecurse nounwind readnone ssp uwtable
define hidden zeroext i1 @_ZN9bluetooth5mojom6Socket10DisconnectEv(%"class.bluetooth::mojom::Socket"* nocapture readnone) unnamed_addr #3 align 2 {
  ret i1 false
}

; Function Attrs: nofree norecurse nounwind ssp uwtable writeonly
define hidden void @_ZN9bluetooth5mojom11SocketProxyC2EPN4mojo28MessageReceiverWithResponderE(%"class.bluetooth::mojom::SocketProxy"* nocapture, %"class.mojo::MessageReceiverWithResponder"*) unnamed_addr #4 align 2 {
  %3 = getelementptr inbounds %"class.bluetooth::mojom::SocketProxy", %"class.bluetooth::mojom::SocketProxy"* %0, i64 0, i32 0, i32 0
  store i32 (...)** bitcast (i8** getelementptr inbounds ({ [6 x i8*] }, { [6 x i8*] }* @_ZTVN9bluetooth5mojom11SocketProxyE, i64 0, inrange i32 0, i64 2) to i32 (...)**), i32 (...)*** %3, align 8
  %4 = getelementptr inbounds %"class.bluetooth::mojom::SocketProxy", %"class.bluetooth::mojom::SocketProxy"* %0, i64 0, i32 1
  store %"class.mojo::MessageReceiverWithResponder"* %1, %"class.mojo::MessageReceiverWithResponder"** %4, align 8
  ret void
}

; Function Attrs: nounwind ssp uwtable
define hidden zeroext i1 @_ZN9bluetooth5mojom11SocketProxy10DisconnectEv(%"class.bluetooth::mojom::SocketProxy"* nocapture readonly) unnamed_addr #0 align 2 {
  %2 = alloca %"class.mojo::Message", align 8
  %3 = alloca i8, align 1
  %4 = bitcast %"class.mojo::Message"* %2 to i8*
  call void @llvm.lifetime.start.p0i8(i64 120, i8* nonnull %4) #12
  call void @llvm.memset.p0i8.i64(i8* nonnull align 8 %4, i8 -86, i64 120, i1 false)
  call void @_ZN4mojo7MessageC1EjjmmPNSt3__16vectorINS_16ScopedHandleBaseINS_6HandleEEENS1_9allocatorIS5_EEEE(%"class.mojo::Message"* nonnull %2, i32 2095136214, i32 5, i64 0, i64 0, %"class.std::__1::vector"* null) #12
  %5 = getelementptr inbounds %"class.mojo::Message", %"class.mojo::Message"* %2, i64 0, i32 1
  %6 = call i64 @_ZN4mojo8internal6Buffer8AllocateEm(%"class.mojo::internal::Buffer"* %5, i64 8) #12
  %7 = getelementptr inbounds %"class.mojo::Message", %"class.mojo::Message"* %2, i64 0, i32 1, i32 2
  %8 = load i8*, i8** %7, align 8
  %9 = getelementptr inbounds i8, i8* %8, i64 %6
  %10 = bitcast i8* %9 to %"class.bluetooth::mojom::internal::Socket_Disconnect_Params_Data"*
  call void @_ZN9bluetooth5mojom8internal29Socket_Disconnect_Params_DataC1Ev(%"class.bluetooth::mojom::internal::Socket_Disconnect_Params_Data"* %10) #12
  call void @llvm.lifetime.start.p0i8(i64 1, i8* nonnull %3) #12
  store i8 0, i8* %3, align 1
  %11 = call i8* @_Znwm(i64 16) #13
  %12 = bitcast i8* %11 to i32 (...)***
  store i32 (...)** bitcast (i8** getelementptr inbounds ({ [6 x i8*] }, { [6 x i8*] }* @_ZTVN9bluetooth5mojom36Socket_Disconnect_HandleSyncResponseE, i64 0, inrange i32 0, i64 2) to i32 (...)**), i32 (...)*** %12, align 8
  %13 = getelementptr inbounds i8, i8* %11, i64 8
  %14 = bitcast i8* %13 to i8**
  store i8* %3, i8** %14, align 8
  %15 = bitcast i8* %11 to %"class.mojo::MessageReceiver"*
  %16 = getelementptr inbounds %"class.bluetooth::mojom::SocketProxy", %"class.bluetooth::mojom::SocketProxy"* %0, i64 0, i32 1
  %17 = load %"class.mojo::MessageReceiverWithResponder"*, %"class.mojo::MessageReceiverWithResponder"** %16, align 8
  %18 = bitcast %"class.mojo::MessageReceiverWithResponder"* %17 to i1 (%"class.mojo::MessageReceiverWithResponder"*, %"class.mojo::Message"*, %"class.mojo::MessageReceiver"*)***
  %19 = load i1 (%"class.mojo::MessageReceiverWithResponder"*, %"class.mojo::Message"*, %"class.mojo::MessageReceiver"*)**, i1 (%"class.mojo::MessageReceiverWithResponder"*, %"class.mojo::Message"*, %"class.mojo::MessageReceiver"*)*** %18, align 8
  %20 = getelementptr inbounds i1 (%"class.mojo::MessageReceiverWithResponder"*, %"class.mojo::Message"*, %"class.mojo::MessageReceiver"*)*, i1 (%"class.mojo::MessageReceiverWithResponder"*, %"class.mojo::Message"*, %"class.mojo::MessageReceiver"*)** %19, i64 4
  %21 = load i1 (%"class.mojo::MessageReceiverWithResponder"*, %"class.mojo::Message"*, %"class.mojo::MessageReceiver"*)*, i1 (%"class.mojo::MessageReceiverWithResponder"*, %"class.mojo::Message"*, %"class.mojo::MessageReceiver"*)** %20, align 8
  %22 = call zeroext i1 %21(%"class.mojo::MessageReceiverWithResponder"* %17, %"class.mojo::Message"* nonnull %2, %"class.mojo::MessageReceiver"* nonnull %15) #12
  %23 = load i8, i8* %3, align 1, !range !14
  %24 = icmp ne i8 %23, 0
  call void @llvm.lifetime.end.p0i8(i64 1, i8* nonnull %3) #12
  call void @_ZN4mojo7MessageD1Ev(%"class.mojo::Message"* nonnull %2) #12
  call void @llvm.lifetime.end.p0i8(i64 120, i8* nonnull %4) #12
  ret i1 %24
}

; Function Attrs: nounwind ssp uwtable
define hidden void @_ZN9bluetooth5mojom11SocketProxy10DisconnectEN4base12OnceCallbackIFvvEEE(%"class.bluetooth::mojom::SocketProxy"* nocapture readonly, %"class.base::OnceCallback"* nocapture) unnamed_addr #0 align 2 {
  %3 = alloca %"class.mojo::Message", align 8
  %4 = alloca %"class.base::OnceCallback", align 8
  %5 = bitcast %"class.mojo::Message"* %3 to i8*
  call void @llvm.lifetime.start.p0i8(i64 120, i8* nonnull %5) #12
  call void @llvm.memset.p0i8.i64(i8* nonnull align 8 %5, i8 -86, i64 120, i1 false)
  call void @_ZN4mojo7MessageC1EjjmmPNSt3__16vectorINS_16ScopedHandleBaseINS_6HandleEEENS1_9allocatorIS5_EEEE(%"class.mojo::Message"* nonnull %3, i32 2095136214, i32 1, i64 0, i64 0, %"class.std::__1::vector"* null) #12
  %6 = getelementptr inbounds %"class.mojo::Message", %"class.mojo::Message"* %3, i64 0, i32 1
  %7 = call i64 @_ZN4mojo8internal6Buffer8AllocateEm(%"class.mojo::internal::Buffer"* %6, i64 8) #12
  %8 = getelementptr inbounds %"class.mojo::Message", %"class.mojo::Message"* %3, i64 0, i32 1, i32 2
  %9 = load i8*, i8** %8, align 8
  %10 = getelementptr inbounds i8, i8* %9, i64 %7
  %11 = bitcast i8* %10 to %"class.bluetooth::mojom::internal::Socket_Disconnect_Params_Data"*
  call void @_ZN9bluetooth5mojom8internal29Socket_Disconnect_Params_DataC1Ev(%"class.bluetooth::mojom::internal::Socket_Disconnect_Params_Data"* %11) #12
  %12 = call i8* @_Znwm(i64 16) #13
  %13 = getelementptr inbounds %"class.base::OnceCallback", %"class.base::OnceCallback"* %1, i64 0, i32 0, i32 0, i32 0
  %14 = bitcast %"class.base::OnceCallback"* %1 to i64*
  %15 = load i64, i64* %14, align 8
  store %"class.base::internal::BindStateBase"* null, %"class.base::internal::BindStateBase"** %13, align 8
  %16 = bitcast i8* %12 to i32 (...)***
  store i32 (...)** bitcast (i8** getelementptr inbounds ({ [6 x i8*] }, { [6 x i8*] }* @_ZTVN9bluetooth5mojom35Socket_Disconnect_ForwardToCallbackE, i64 0, inrange i32 0, i64 2) to i32 (...)**), i32 (...)*** %16, align 8
  %17 = getelementptr inbounds i8, i8* %12, i64 8
  %18 = getelementptr inbounds %"class.base::OnceCallback", %"class.base::OnceCallback"* %4, i64 0, i32 0, i32 0, i32 0
  %19 = bitcast i8* %17 to i64*
  store i64 %15, i64* %19, align 8
  store %"class.base::internal::BindStateBase"* null, %"class.base::internal::BindStateBase"** %18, align 8
  %20 = bitcast i8* %12 to %"class.mojo::MessageReceiver"*
  %21 = getelementptr inbounds %"class.base::OnceCallback", %"class.base::OnceCallback"* %4, i64 0, i32 0
  call void @_ZN4base8internal12CallbackBaseD2Ev(%"class.base::internal::CallbackBase"* nonnull %21) #12
  %22 = getelementptr inbounds %"class.bluetooth::mojom::SocketProxy", %"class.bluetooth::mojom::SocketProxy"* %0, i64 0, i32 1
  %23 = load %"class.mojo::MessageReceiverWithResponder"*, %"class.mojo::MessageReceiverWithResponder"** %22, align 8
  %24 = bitcast %"class.mojo::MessageReceiverWithResponder"* %23 to i1 (%"class.mojo::MessageReceiverWithResponder"*, %"class.mojo::Message"*, %"class.mojo::MessageReceiver"*)***
  %25 = load i1 (%"class.mojo::MessageReceiverWithResponder"*, %"class.mojo::Message"*, %"class.mojo::MessageReceiver"*)**, i1 (%"class.mojo::MessageReceiverWithResponder"*, %"class.mojo::Message"*, %"class.mojo::MessageReceiver"*)*** %24, align 8
  %26 = getelementptr inbounds i1 (%"class.mojo::MessageReceiverWithResponder"*, %"class.mojo::Message"*, %"class.mojo::MessageReceiver"*)*, i1 (%"class.mojo::MessageReceiverWithResponder"*, %"class.mojo::Message"*, %"class.mojo::MessageReceiver"*)** %25, i64 4
  %27 = load i1 (%"class.mojo::MessageReceiverWithResponder"*, %"class.mojo::Message"*, %"class.mojo::MessageReceiver"*)*, i1 (%"class.mojo::MessageReceiverWithResponder"*, %"class.mojo::Message"*, %"class.mojo::MessageReceiver"*)** %26, align 8
  %28 = call zeroext i1 %27(%"class.mojo::MessageReceiverWithResponder"* %23, %"class.mojo::Message"* nonnull %3, %"class.mojo::MessageReceiver"* nonnull %20) #12
  call void @_ZN4mojo7MessageD1Ev(%"class.mojo::Message"* nonnull %3) #12
  call void @llvm.lifetime.end.p0i8(i64 120, i8* nonnull %5) #12
  ret void
}

; Function Attrs: nounwind ssp uwtable
define hidden zeroext i1 @_ZN9bluetooth5mojom35Socket_Disconnect_ForwardToCallback6AcceptEPN4mojo7MessageE(%"class.bluetooth::mojom::Socket_Disconnect_ForwardToCallback"* nocapture, %"class.mojo::Message"*) unnamed_addr #0 align 2 {
  %3 = alloca %"class.base::OnceCallback", align 8
  %4 = tail call i8* @_ZNK4mojo7Message7payloadEv(%"class.mojo::Message"* %1) #12
  %5 = getelementptr inbounds %"class.bluetooth::mojom::Socket_Disconnect_ForwardToCallback", %"class.bluetooth::mojom::Socket_Disconnect_ForwardToCallback"* %0, i64 0, i32 1, i32 0, i32 0, i32 0
  %6 = load %"class.base::internal::BindStateBase"*, %"class.base::internal::BindStateBase"** %5, align 8
  %7 = icmp eq %"class.base::internal::BindStateBase"* %6, null
  br i1 %7, label %16, label %8

8:                                                ; preds = %2
  %9 = ptrtoint %"class.base::internal::BindStateBase"* %6 to i64
  %10 = bitcast %"class.base::OnceCallback"* %3 to i8*
  call void @llvm.lifetime.start.p0i8(i64 8, i8* nonnull %10) #12
  %11 = bitcast %"class.base::OnceCallback"* %3 to i64*
  store i64 %9, i64* %11, align 8
  store %"class.base::internal::BindStateBase"* null, %"class.base::internal::BindStateBase"** %5, align 8
  %12 = getelementptr inbounds %"class.base::OnceCallback", %"class.base::OnceCallback"* %3, i64 0, i32 0
  %13 = getelementptr inbounds %"class.base::internal::BindStateBase", %"class.base::internal::BindStateBase"* %6, i64 0, i32 1
  %14 = bitcast void ()** %13 to void (%"class.base::internal::BindStateBase"*)**
  %15 = load void (%"class.base::internal::BindStateBase"*)*, void (%"class.base::internal::BindStateBase"*)** %14, align 8
  tail call void %15(%"class.base::internal::BindStateBase"* nonnull %6) #12
  call void @_ZN4base8internal12CallbackBaseD2Ev(%"class.base::internal::CallbackBase"* nonnull %12) #12
  call void @llvm.lifetime.end.p0i8(i64 8, i8* nonnull %10) #12
  br label %16

16:                                               ; preds = %2, %8
  ret i1 true
}

; Function Attrs: nounwind ssp uwtable
define hidden void @_ZN9bluetooth5mojom34Socket_Disconnect_ProxyToResponder3RunEv(%"class.bluetooth::mojom::Socket_Disconnect_ProxyToResponder"* nocapture) #0 align 2 {
  %2 = alloca %"class.mojo::Message", align 8
  %3 = getelementptr inbounds %"class.bluetooth::mojom::Socket_Disconnect_ProxyToResponder", %"class.bluetooth::mojom::Socket_Disconnect_ProxyToResponder"* %0, i64 0, i32 1
  %4 = load i8, i8* %3, align 8, !range !14
  %5 = icmp eq i8 %4, 0
  %6 = select i1 %5, i32 2, i32 6
  %7 = bitcast %"class.mojo::Message"* %2 to i8*
  call void @llvm.lifetime.start.p0i8(i64 120, i8* nonnull %7) #12
  call void @llvm.memset.p0i8.i64(i8* nonnull align 8 %7, i8 -86, i64 120, i1 false)
  call void @_ZN4mojo7MessageC1EjjmmPNSt3__16vectorINS_16ScopedHandleBaseINS_6HandleEEENS1_9allocatorIS5_EEEE(%"class.mojo::Message"* nonnull %2, i32 2095136214, i32 %6, i64 0, i64 0, %"class.std::__1::vector"* null) #12
  %8 = getelementptr inbounds %"class.mojo::Message", %"class.mojo::Message"* %2, i64 0, i32 1
  %9 = call i64 @_ZN4mojo8internal6Buffer8AllocateEm(%"class.mojo::internal::Buffer"* %8, i64 8) #12
  %10 = getelementptr inbounds %"class.mojo::Message", %"class.mojo::Message"* %2, i64 0, i32 1, i32 2
  %11 = load i8*, i8** %10, align 8
  %12 = getelementptr inbounds i8, i8* %11, i64 %9
  %13 = bitcast i8* %12 to %"class.bluetooth::mojom::internal::Socket_Disconnect_ResponseParams_Data"*
  call void @_ZN9bluetooth5mojom8internal37Socket_Disconnect_ResponseParams_DataC1Ev(%"class.bluetooth::mojom::internal::Socket_Disconnect_ResponseParams_Data"* %13) #12
  %14 = getelementptr inbounds %"class.bluetooth::mojom::Socket_Disconnect_ProxyToResponder", %"class.bluetooth::mojom::Socket_Disconnect_ProxyToResponder"* %0, i64 0, i32 0
  %15 = load i64, i64* %14, align 8
  %16 = bitcast i8** %10 to %"struct.mojo::internal::MessageHeaderV1"**
  %17 = load %"struct.mojo::internal::MessageHeaderV1"*, %"struct.mojo::internal::MessageHeaderV1"** %16, align 8
  %18 = getelementptr inbounds %"struct.mojo::internal::MessageHeaderV1", %"struct.mojo::internal::MessageHeaderV1"* %17, i64 0, i32 1
  store i64 %15, i64* %18, align 1
  %19 = getelementptr inbounds %"class.bluetooth::mojom::Socket_Disconnect_ProxyToResponder", %"class.bluetooth::mojom::Socket_Disconnect_ProxyToResponder"* %0, i64 0, i32 2, i32 0, i32 0, i32 0
  %20 = load %"class.mojo::MessageReceiverWithStatus"*, %"class.mojo::MessageReceiverWithStatus"** %19, align 8
  %21 = getelementptr inbounds %"class.mojo::MessageReceiverWithStatus", %"class.mojo::MessageReceiverWithStatus"* %20, i64 0, i32 0
  %22 = bitcast %"class.mojo::MessageReceiverWithStatus"* %20 to i1 (%"class.mojo::MessageReceiver"*, %"class.mojo::Message"*)***
  %23 = load i1 (%"class.mojo::MessageReceiver"*, %"class.mojo::Message"*)**, i1 (%"class.mojo::MessageReceiver"*, %"class.mojo::Message"*)*** %22, align 8
  %24 = getelementptr inbounds i1 (%"class.mojo::MessageReceiver"*, %"class.mojo::Message"*)*, i1 (%"class.mojo::MessageReceiver"*, %"class.mojo::Message"*)** %23, i64 3
  %25 = load i1 (%"class.mojo::MessageReceiver"*, %"class.mojo::Message"*)*, i1 (%"class.mojo::MessageReceiver"*, %"class.mojo::Message"*)** %24, align 8
  %26 = call zeroext i1 %25(%"class.mojo::MessageReceiver"* %21, %"class.mojo::Message"* nonnull %2) #12
  %27 = load %"class.mojo::MessageReceiverWithStatus"*, %"class.mojo::MessageReceiverWithStatus"** %19, align 8
  store %"class.mojo::MessageReceiverWithStatus"* null, %"class.mojo::MessageReceiverWithStatus"** %19, align 8
  %28 = icmp eq %"class.mojo::MessageReceiverWithStatus"* %27, null
  br i1 %28, label %34, label %29

29:                                               ; preds = %1
  %30 = bitcast %"class.mojo::MessageReceiverWithStatus"* %27 to void (%"class.mojo::MessageReceiverWithStatus"*)***
  %31 = load void (%"class.mojo::MessageReceiverWithStatus"*)**, void (%"class.mojo::MessageReceiverWithStatus"*)*** %30, align 8
  %32 = getelementptr inbounds void (%"class.mojo::MessageReceiverWithStatus"*)*, void (%"class.mojo::MessageReceiverWithStatus"*)** %31, i64 1
  %33 = load void (%"class.mojo::MessageReceiverWithStatus"*)*, void (%"class.mojo::MessageReceiverWithStatus"*)** %32, align 8
  call void %33(%"class.mojo::MessageReceiverWithStatus"* nonnull %27) #12
  br label %34

34:                                               ; preds = %1, %29
  call void @_ZN4mojo7MessageD1Ev(%"class.mojo::Message"* nonnull %2) #12
  call void @llvm.lifetime.end.p0i8(i64 120, i8* nonnull %7) #12
  ret void
}

; Function Attrs: nounwind ssp uwtable
define hidden zeroext i1 @_ZN9bluetooth5mojom36Socket_Disconnect_HandleSyncResponse6AcceptEPN4mojo7MessageE(%"class.bluetooth::mojom::Socket_Disconnect_HandleSyncResponse"* nocapture readonly, %"class.mojo::Message"*) unnamed_addr #0 align 2 {
  %3 = tail call i8* @_ZNK4mojo7Message7payloadEv(%"class.mojo::Message"* %1) #12
  %4 = getelementptr inbounds %"class.bluetooth::mojom::Socket_Disconnect_HandleSyncResponse", %"class.bluetooth::mojom::Socket_Disconnect_HandleSyncResponse"* %0, i64 0, i32 1
  %5 = load i8*, i8** %4, align 8
  store i8 1, i8* %5, align 1
  ret i1 true
}

; Function Attrs: norecurse nounwind readonly ssp uwtable
define hidden zeroext i1 @_ZN9bluetooth5mojom18SocketStubDispatch6AcceptEPNS0_6SocketEPN4mojo7MessageE(%"class.bluetooth::mojom::Socket"* nocapture readnone, %"class.mojo::Message"* nocapture readonly) local_unnamed_addr #7 align 2 {
  ret i1 false
}

; Function Attrs: nounwind ssp uwtable
define hidden zeroext i1 @_ZN9bluetooth5mojom18SocketStubDispatch19AcceptWithResponderEPNS0_6SocketEPN4mojo7MessageENSt3__110unique_ptrINS4_25MessageReceiverWithStatusENS7_14default_deleteIS9_EEEE(%"class.bluetooth::mojom::Socket"*, %"class.mojo::Message"*, %"class.mojo::MessageReceiverWithStatus"*) local_unnamed_addr #0 align 2 {
  %4 = alloca %"class.base::TaskAnnotator::ScopedSetIpcHash", align 8
  %5 = alloca %"class.base::OnceCallback", align 8
  %6 = alloca %"class.base::OnceCallback", align 8
  %7 = getelementptr inbounds %"class.mojo::Message", %"class.mojo::Message"* %1, i64 0, i32 1, i32 2
  %8 = bitcast i8** %7 to %"struct.mojo::internal::MessageHeader"**
  %9 = load %"struct.mojo::internal::MessageHeader"*, %"struct.mojo::internal::MessageHeader"** %8, align 8
  %10 = getelementptr inbounds %"struct.mojo::internal::MessageHeader", %"struct.mojo::internal::MessageHeader"* %9, i64 0, i32 2
  %11 = load i32, i32* %10, align 1
  %12 = icmp eq i32 %11, 2095136214
  br i1 %12, label %13, label %48

13:                                               ; preds = %3
  %14 = ptrtoint %"class.mojo::MessageReceiverWithStatus"* %2 to i64
  %15 = bitcast i8** %7 to %"struct.mojo::internal::MessageHeaderV1"**
  %16 = getelementptr inbounds %"struct.mojo::internal::MessageHeader", %"struct.mojo::internal::MessageHeader"* %9, i64 0, i32 3
  %17 = load i32, i32* %16, align 1
  %18 = bitcast %"class.base::TaskAnnotator::ScopedSetIpcHash"* %4 to i8*
  call void @llvm.lifetime.start.p0i8(i64 24, i8* nonnull %18) #12
  call void @llvm.memset.p0i8.i64(i8* nonnull align 8 %18, i8 -86, i64 24, i1 false)
  call void @_ZN4base13TaskAnnotator16ScopedSetIpcHashC1Ej(%"class.base::TaskAnnotator::ScopedSetIpcHash"* nonnull %4, i32 -1729815449) #12
  %19 = call i8* @_ZNK4mojo7Message7payloadEv(%"class.mojo::Message"* %1) #12
  %20 = bitcast %"class.base::OnceCallback"* %5 to i8*
  call void @llvm.lifetime.start.p0i8(i64 8, i8* nonnull %20) #12
  %21 = getelementptr inbounds %"class.base::OnceCallback", %"class.base::OnceCallback"* %5, i64 0, i32 0, i32 0, i32 0
  %22 = load %"struct.mojo::internal::MessageHeaderV1"*, %"struct.mojo::internal::MessageHeaderV1"** %15, align 8
  %23 = getelementptr inbounds %"struct.mojo::internal::MessageHeaderV1", %"struct.mojo::internal::MessageHeaderV1"* %22, i64 0, i32 1
  %24 = load i64, i64* %23, align 1
  %25 = call i8* @_Znwm(i64 24) #13, !noalias !39
  %26 = lshr i32 %17, 2
  %27 = trunc i32 %26 to i8
  %28 = and i8 %27, 1
  %29 = bitcast i8* %25 to i64*
  store i64 %24, i64* %29, align 8, !noalias !39
  %30 = getelementptr inbounds i8, i8* %25, i64 8
  store i8 %28, i8* %30, align 8, !noalias !39
  %31 = getelementptr inbounds i8, i8* %25, i64 16
  %32 = bitcast i8* %31 to i64*
  store i64 %14, i64* %32, align 8, !noalias !39
  %33 = ptrtoint i8* %25 to i64
  %34 = call i8* @_Znwm(i64 56) #13, !noalias !42
  %35 = bitcast i8* %34 to %"class.base::internal::BindStateBase"*
  call void @_ZN4base8internal13BindStateBaseC2EPFvvEPFvPKS1_E(%"class.base::internal::BindStateBase"* nonnull %35, void ()* bitcast (void (%"class.base::internal::BindStateBase"*)* @_ZN4base8internal7InvokerINS0_9BindStateIMN9bluetooth5mojom34Socket_Disconnect_ProxyToResponderEFvvEJNSt3__110unique_ptrIS5_NS8_14default_deleteIS5_EEEEEEEFvvEE7RunOnceEPNS0_13BindStateBaseE to void ()*), void (%"class.base::internal::BindStateBase"*)* nonnull @_ZN4base8internal9BindStateIMN9bluetooth5mojom34Socket_Disconnect_ProxyToResponderEFvvEJNSt3__110unique_ptrIS4_NS7_14default_deleteIS4_EEEEEE7DestroyEPKNS0_13BindStateBaseE) #12, !noalias !42
  %36 = getelementptr inbounds i8, i8* %34, i64 32
  %37 = bitcast i8* %36 to <2 x i64>*
  store <2 x i64> <i64 ptrtoint (void (%"class.bluetooth::mojom::Socket_Disconnect_ProxyToResponder"*)* @_ZN9bluetooth5mojom34Socket_Disconnect_ProxyToResponder3RunEv to i64), i64 0>, <2 x i64>* %37, align 8, !noalias !42
  %38 = getelementptr inbounds i8, i8* %34, i64 48
  %39 = bitcast i8* %38 to i64*
  store i64 %33, i64* %39, align 8, !noalias !42
  %40 = ptrtoint i8* %34 to i64
  %41 = bitcast %"class.base::OnceCallback"* %6 to i64*
  store i64 %40, i64* %41, align 8
  store %"class.base::internal::BindStateBase"* null, %"class.base::internal::BindStateBase"** %21, align 8
  %42 = bitcast %"class.bluetooth::mojom::Socket"* %0 to void (%"class.bluetooth::mojom::Socket"*, %"class.base::OnceCallback"*)***
  %43 = load void (%"class.bluetooth::mojom::Socket"*, %"class.base::OnceCallback"*)**, void (%"class.bluetooth::mojom::Socket"*, %"class.base::OnceCallback"*)*** %42, align 8
  %44 = getelementptr inbounds void (%"class.bluetooth::mojom::Socket"*, %"class.base::OnceCallback"*)*, void (%"class.bluetooth::mojom::Socket"*, %"class.base::OnceCallback"*)** %43, i64 3
  %45 = load void (%"class.bluetooth::mojom::Socket"*, %"class.base::OnceCallback"*)*, void (%"class.bluetooth::mojom::Socket"*, %"class.base::OnceCallback"*)** %44, align 8
  call void %45(%"class.bluetooth::mojom::Socket"* %0, %"class.base::OnceCallback"* nonnull %6) #12
  %46 = getelementptr inbounds %"class.base::OnceCallback", %"class.base::OnceCallback"* %6, i64 0, i32 0
  call void @_ZN4base8internal12CallbackBaseD2Ev(%"class.base::internal::CallbackBase"* nonnull %46) #12
  %47 = getelementptr inbounds %"class.base::OnceCallback", %"class.base::OnceCallback"* %5, i64 0, i32 0
  call void @_ZN4base8internal12CallbackBaseD2Ev(%"class.base::internal::CallbackBase"* nonnull %47) #12
  call void @llvm.lifetime.end.p0i8(i64 8, i8* nonnull %20) #12
  call void @_ZN4base13TaskAnnotator16ScopedSetIpcHashD1Ev(%"class.base::TaskAnnotator::ScopedSetIpcHash"* nonnull %4) #12
  call void @llvm.lifetime.end.p0i8(i64 24, i8* nonnull %18) #12
  br label %55

48:                                               ; preds = %3
  %49 = icmp eq %"class.mojo::MessageReceiverWithStatus"* %2, null
  br i1 %49, label %55, label %50

50:                                               ; preds = %48
  %51 = bitcast %"class.mojo::MessageReceiverWithStatus"* %2 to void (%"class.mojo::MessageReceiverWithStatus"*)***
  %52 = load void (%"class.mojo::MessageReceiverWithStatus"*)**, void (%"class.mojo::MessageReceiverWithStatus"*)*** %51, align 8
  %53 = getelementptr inbounds void (%"class.mojo::MessageReceiverWithStatus"*)*, void (%"class.mojo::MessageReceiverWithStatus"*)** %52, i64 1
  %54 = load void (%"class.mojo::MessageReceiverWithStatus"*)*, void (%"class.mojo::MessageReceiverWithStatus"*)** %53, align 8
  tail call void %54(%"class.mojo::MessageReceiverWithStatus"* nonnull %2) #12
  br label %55

55:                                               ; preds = %13, %48, %50
  %56 = phi i1 [ true, %13 ], [ false, %48 ], [ false, %50 ]
  ret i1 %56
}

; Function Attrs: nounwind ssp uwtable
define hidden zeroext i1 @_ZN9bluetooth5mojom22SocketRequestValidator6AcceptEPN4mojo7MessageE(%"class.bluetooth::mojom::SocketRequestValidator"* nocapture readnone, %"class.mojo::Message"*) unnamed_addr #0 align 2 {
  %3 = tail call zeroext i1 @_ZN4mojo8internal22ValidateRequestGenericEPNS_7MessageEPKcN4base4spanIKNSt3__14pairIjNS0_21GenericValidationInfoEEELm18446744073709551615EEE(%"class.mojo::Message"* %1, i8* getelementptr inbounds ([23 x i8], [23 x i8]* @_ZN9bluetooth5mojom6Socket5Name_E, i64 0, i64 0), i64 1, %"struct.std::__1::pair.74"* getelementptr inbounds ([1 x %"struct.std::__1::pair.74"], [1 x %"struct.std::__1::pair.74"]* @_ZN9bluetooth5mojomL21kSocketValidationInfoE, i64 0, i64 0)) #12
  ret i1 %3
}

; Function Attrs: nounwind ssp uwtable
define hidden zeroext i1 @_ZN9bluetooth5mojom23SocketResponseValidator6AcceptEPN4mojo7MessageE(%"class.bluetooth::mojom::SocketResponseValidator"* nocapture readnone, %"class.mojo::Message"*) unnamed_addr #0 align 2 {
  %3 = tail call zeroext i1 @_ZN4mojo8internal23ValidateResponseGenericEPNS_7MessageEPKcN4base4spanIKNSt3__14pairIjNS0_21GenericValidationInfoEEELm18446744073709551615EEE(%"class.mojo::Message"* %1, i8* getelementptr inbounds ([23 x i8], [23 x i8]* @_ZN9bluetooth5mojom6Socket5Name_E, i64 0, i64 0), i64 1, %"struct.std::__1::pair.74"* getelementptr inbounds ([1 x %"struct.std::__1::pair.74"], [1 x %"struct.std::__1::pair.74"]* @_ZN9bluetooth5mojomL21kSocketValidationInfoE, i64 0, i64 0)) #12
  ret i1 %3
}

; Function Attrs: norecurse nounwind readnone ssp uwtable
define hidden zeroext i1 @_ZN9bluetooth5mojom12ServerSocket6AcceptEPN4mojo9StructPtrINS0_22AcceptConnectionResultEEE(%"class.bluetooth::mojom::ServerSocket"* nocapture readnone, %"class.mojo::StructPtr.82"* nocapture readnone) unnamed_addr #3 align 2 {
  ret i1 false
}

; Function Attrs: norecurse nounwind readnone ssp uwtable
define hidden zeroext i1 @_ZN9bluetooth5mojom12ServerSocket10DisconnectEv(%"class.bluetooth::mojom::ServerSocket"* nocapture readnone) unnamed_addr #3 align 2 {
  ret i1 false
}

; Function Attrs: nofree norecurse nounwind ssp uwtable writeonly
define hidden void @_ZN9bluetooth5mojom17ServerSocketProxyC2EPN4mojo28MessageReceiverWithResponderE(%"class.bluetooth::mojom::ServerSocketProxy"* nocapture, %"class.mojo::MessageReceiverWithResponder"*) unnamed_addr #4 align 2 {
  %3 = getelementptr inbounds %"class.bluetooth::mojom::ServerSocketProxy", %"class.bluetooth::mojom::ServerSocketProxy"* %0, i64 0, i32 0, i32 0
  store i32 (...)** bitcast (i8** getelementptr inbounds ({ [8 x i8*] }, { [8 x i8*] }* @_ZTVN9bluetooth5mojom17ServerSocketProxyE, i64 0, inrange i32 0, i64 2) to i32 (...)**), i32 (...)*** %3, align 8
  %4 = getelementptr inbounds %"class.bluetooth::mojom::ServerSocketProxy", %"class.bluetooth::mojom::ServerSocketProxy"* %0, i64 0, i32 1
  store %"class.mojo::MessageReceiverWithResponder"* %1, %"class.mojo::MessageReceiverWithResponder"** %4, align 8
  ret void
}

; Function Attrs: nounwind ssp uwtable
define hidden zeroext i1 @_ZN9bluetooth5mojom17ServerSocketProxy6AcceptEPN4mojo9StructPtrINS0_22AcceptConnectionResultEEE(%"class.bluetooth::mojom::ServerSocketProxy"* nocapture readonly, %"class.mojo::StructPtr.82"*) unnamed_addr #0 align 2 {
  %3 = alloca %"class.mojo::Message", align 8
  %4 = alloca i8, align 1
  %5 = bitcast %"class.mojo::Message"* %3 to i8*
  call void @llvm.lifetime.start.p0i8(i64 120, i8* nonnull %5) #12
  call void @llvm.memset.p0i8.i64(i8* nonnull align 8 %5, i8 -86, i64 120, i1 false)
  call void @_ZN4mojo7MessageC1EjjmmPNSt3__16vectorINS_16ScopedHandleBaseINS_6HandleEEENS1_9allocatorIS5_EEEE(%"class.mojo::Message"* nonnull %3, i32 356813248, i32 5, i64 0, i64 0, %"class.std::__1::vector"* null) #12
  %6 = getelementptr inbounds %"class.mojo::Message", %"class.mojo::Message"* %3, i64 0, i32 1
  %7 = call i64 @_ZN4mojo8internal6Buffer8AllocateEm(%"class.mojo::internal::Buffer"* %6, i64 8) #12
  %8 = getelementptr inbounds %"class.mojo::Message", %"class.mojo::Message"* %3, i64 0, i32 1, i32 2
  %9 = load i8*, i8** %8, align 8
  %10 = getelementptr inbounds i8, i8* %9, i64 %7
  %11 = bitcast i8* %10 to %"class.bluetooth::mojom::internal::ServerSocket_Accept_Params_Data"*
  call void @_ZN9bluetooth5mojom8internal31ServerSocket_Accept_Params_DataC1Ev(%"class.bluetooth::mojom::internal::ServerSocket_Accept_Params_Data"* %11) #12
  call void @llvm.lifetime.start.p0i8(i64 1, i8* nonnull %4) #12
  store i8 0, i8* %4, align 1
  %12 = call i8* @_Znwm(i64 24) #13
  %13 = bitcast i8* %12 to i32 (...)***
  store i32 (...)** bitcast (i8** getelementptr inbounds ({ [6 x i8*] }, { [6 x i8*] }* @_ZTVN9bluetooth5mojom38ServerSocket_Accept_HandleSyncResponseE, i64 0, inrange i32 0, i64 2) to i32 (...)**), i32 (...)*** %13, align 8
  %14 = getelementptr inbounds i8, i8* %12, i64 8
  %15 = bitcast i8* %14 to i8**
  store i8* %4, i8** %15, align 8
  %16 = getelementptr inbounds i8, i8* %12, i64 16
  %17 = bitcast i8* %16 to %"class.mojo::StructPtr.82"**
  store %"class.mojo::StructPtr.82"* %1, %"class.mojo::StructPtr.82"** %17, align 8
  %18 = bitcast i8* %12 to %"class.mojo::MessageReceiver"*
  %19 = getelementptr inbounds %"class.bluetooth::mojom::ServerSocketProxy", %"class.bluetooth::mojom::ServerSocketProxy"* %0, i64 0, i32 1
  %20 = load %"class.mojo::MessageReceiverWithResponder"*, %"class.mojo::MessageReceiverWithResponder"** %19, align 8
  %21 = bitcast %"class.mojo::MessageReceiverWithResponder"* %20 to i1 (%"class.mojo::MessageReceiverWithResponder"*, %"class.mojo::Message"*, %"class.mojo::MessageReceiver"*)***
  %22 = load i1 (%"class.mojo::MessageReceiverWithResponder"*, %"class.mojo::Message"*, %"class.mojo::MessageReceiver"*)**, i1 (%"class.mojo::MessageReceiverWithResponder"*, %"class.mojo::Message"*, %"class.mojo::MessageReceiver"*)*** %21, align 8
  %23 = getelementptr inbounds i1 (%"class.mojo::MessageReceiverWithResponder"*, %"class.mojo::Message"*, %"class.mojo::MessageReceiver"*)*, i1 (%"class.mojo::MessageReceiverWithResponder"*, %"class.mojo::Message"*, %"class.mojo::MessageReceiver"*)** %22, i64 4
  %24 = load i1 (%"class.mojo::MessageReceiverWithResponder"*, %"class.mojo::Message"*, %"class.mojo::MessageReceiver"*)*, i1 (%"class.mojo::MessageReceiverWithResponder"*, %"class.mojo::Message"*, %"class.mojo::MessageReceiver"*)** %23, align 8
  %25 = call zeroext i1 %24(%"class.mojo::MessageReceiverWithResponder"* %20, %"class.mojo::Message"* nonnull %3, %"class.mojo::MessageReceiver"* nonnull %18) #12
  %26 = load i8, i8* %4, align 1, !range !14
  %27 = icmp ne i8 %26, 0
  call void @llvm.lifetime.end.p0i8(i64 1, i8* nonnull %4) #12
  call void @_ZN4mojo7MessageD1Ev(%"class.mojo::Message"* nonnull %3) #12
  call void @llvm.lifetime.end.p0i8(i64 120, i8* nonnull %5) #12
  ret i1 %27
}

; Function Attrs: nounwind ssp uwtable
define hidden void @_ZN9bluetooth5mojom17ServerSocketProxy6AcceptEN4base12OnceCallbackIFvN4mojo9StructPtrINS0_22AcceptConnectionResultEEEEEE(%"class.bluetooth::mojom::ServerSocketProxy"* nocapture readonly, %"class.base::OnceCallback.90"* nocapture) unnamed_addr #0 align 2 {
  %3 = alloca %"class.mojo::Message", align 8
  %4 = alloca %"class.base::OnceCallback.90", align 8
  %5 = bitcast %"class.mojo::Message"* %3 to i8*
  call void @llvm.lifetime.start.p0i8(i64 120, i8* nonnull %5) #12
  call void @llvm.memset.p0i8.i64(i8* nonnull align 8 %5, i8 -86, i64 120, i1 false)
  call void @_ZN4mojo7MessageC1EjjmmPNSt3__16vectorINS_16ScopedHandleBaseINS_6HandleEEENS1_9allocatorIS5_EEEE(%"class.mojo::Message"* nonnull %3, i32 356813248, i32 1, i64 0, i64 0, %"class.std::__1::vector"* null) #12
  %6 = getelementptr inbounds %"class.mojo::Message", %"class.mojo::Message"* %3, i64 0, i32 1
  %7 = call i64 @_ZN4mojo8internal6Buffer8AllocateEm(%"class.mojo::internal::Buffer"* %6, i64 8) #12
  %8 = getelementptr inbounds %"class.mojo::Message", %"class.mojo::Message"* %3, i64 0, i32 1, i32 2
  %9 = load i8*, i8** %8, align 8
  %10 = getelementptr inbounds i8, i8* %9, i64 %7
  %11 = bitcast i8* %10 to %"class.bluetooth::mojom::internal::ServerSocket_Accept_Params_Data"*
  call void @_ZN9bluetooth5mojom8internal31ServerSocket_Accept_Params_DataC1Ev(%"class.bluetooth::mojom::internal::ServerSocket_Accept_Params_Data"* %11) #12
  %12 = call i8* @_Znwm(i64 16) #13
  %13 = getelementptr inbounds %"class.base::OnceCallback.90", %"class.base::OnceCallback.90"* %1, i64 0, i32 0, i32 0, i32 0
  %14 = bitcast %"class.base::OnceCallback.90"* %1 to i64*
  %15 = load i64, i64* %14, align 8
  store %"class.base::internal::BindStateBase"* null, %"class.base::internal::BindStateBase"** %13, align 8
  %16 = bitcast i8* %12 to i32 (...)***
  store i32 (...)** bitcast (i8** getelementptr inbounds ({ [6 x i8*] }, { [6 x i8*] }* @_ZTVN9bluetooth5mojom37ServerSocket_Accept_ForwardToCallbackE, i64 0, inrange i32 0, i64 2) to i32 (...)**), i32 (...)*** %16, align 8
  %17 = getelementptr inbounds i8, i8* %12, i64 8
  %18 = getelementptr inbounds %"class.base::OnceCallback.90", %"class.base::OnceCallback.90"* %4, i64 0, i32 0, i32 0, i32 0
  %19 = bitcast i8* %17 to i64*
  store i64 %15, i64* %19, align 8
  store %"class.base::internal::BindStateBase"* null, %"class.base::internal::BindStateBase"** %18, align 8
  %20 = bitcast i8* %12 to %"class.mojo::MessageReceiver"*
  %21 = getelementptr inbounds %"class.base::OnceCallback.90", %"class.base::OnceCallback.90"* %4, i64 0, i32 0
  call void @_ZN4base8internal12CallbackBaseD2Ev(%"class.base::internal::CallbackBase"* nonnull %21) #12
  %22 = getelementptr inbounds %"class.bluetooth::mojom::ServerSocketProxy", %"class.bluetooth::mojom::ServerSocketProxy"* %0, i64 0, i32 1
  %23 = load %"class.mojo::MessageReceiverWithResponder"*, %"class.mojo::MessageReceiverWithResponder"** %22, align 8
  %24 = bitcast %"class.mojo::MessageReceiverWithResponder"* %23 to i1 (%"class.mojo::MessageReceiverWithResponder"*, %"class.mojo::Message"*, %"class.mojo::MessageReceiver"*)***
  %25 = load i1 (%"class.mojo::MessageReceiverWithResponder"*, %"class.mojo::Message"*, %"class.mojo::MessageReceiver"*)**, i1 (%"class.mojo::MessageReceiverWithResponder"*, %"class.mojo::Message"*, %"class.mojo::MessageReceiver"*)*** %24, align 8
  %26 = getelementptr inbounds i1 (%"class.mojo::MessageReceiverWithResponder"*, %"class.mojo::Message"*, %"class.mojo::MessageReceiver"*)*, i1 (%"class.mojo::MessageReceiverWithResponder"*, %"class.mojo::Message"*, %"class.mojo::MessageReceiver"*)** %25, i64 4
  %27 = load i1 (%"class.mojo::MessageReceiverWithResponder"*, %"class.mojo::Message"*, %"class.mojo::MessageReceiver"*)*, i1 (%"class.mojo::MessageReceiverWithResponder"*, %"class.mojo::Message"*, %"class.mojo::MessageReceiver"*)** %26, align 8
  %28 = call zeroext i1 %27(%"class.mojo::MessageReceiverWithResponder"* %23, %"class.mojo::Message"* nonnull %3, %"class.mojo::MessageReceiver"* nonnull %20) #12
  call void @_ZN4mojo7MessageD1Ev(%"class.mojo::Message"* nonnull %3) #12
  call void @llvm.lifetime.end.p0i8(i64 120, i8* nonnull %5) #12
  ret void
}

; Function Attrs: nounwind ssp uwtable
define hidden zeroext i1 @_ZN9bluetooth5mojom17ServerSocketProxy10DisconnectEv(%"class.bluetooth::mojom::ServerSocketProxy"* nocapture readonly) unnamed_addr #0 align 2 {
  %2 = alloca %"class.mojo::Message", align 8
  %3 = alloca i8, align 1
  %4 = bitcast %"class.mojo::Message"* %2 to i8*
  call void @llvm.lifetime.start.p0i8(i64 120, i8* nonnull %4) #12
  call void @llvm.memset.p0i8.i64(i8* nonnull align 8 %4, i8 -86, i64 120, i1 false)
  call void @_ZN4mojo7MessageC1EjjmmPNSt3__16vectorINS_16ScopedHandleBaseINS_6HandleEEENS1_9allocatorIS5_EEEE(%"class.mojo::Message"* nonnull %2, i32 411519172, i32 5, i64 0, i64 0, %"class.std::__1::vector"* null) #12
  %5 = getelementptr inbounds %"class.mojo::Message", %"class.mojo::Message"* %2, i64 0, i32 1
  %6 = call i64 @_ZN4mojo8internal6Buffer8AllocateEm(%"class.mojo::internal::Buffer"* %5, i64 8) #12
  %7 = getelementptr inbounds %"class.mojo::Message", %"class.mojo::Message"* %2, i64 0, i32 1, i32 2
  %8 = load i8*, i8** %7, align 8
  %9 = getelementptr inbounds i8, i8* %8, i64 %6
  %10 = bitcast i8* %9 to %"class.bluetooth::mojom::internal::ServerSocket_Disconnect_Params_Data"*
  call void @_ZN9bluetooth5mojom8internal35ServerSocket_Disconnect_Params_DataC1Ev(%"class.bluetooth::mojom::internal::ServerSocket_Disconnect_Params_Data"* %10) #12
  call void @llvm.lifetime.start.p0i8(i64 1, i8* nonnull %3) #12
  store i8 0, i8* %3, align 1
  %11 = call i8* @_Znwm(i64 16) #13
  %12 = bitcast i8* %11 to i32 (...)***
  store i32 (...)** bitcast (i8** getelementptr inbounds ({ [6 x i8*] }, { [6 x i8*] }* @_ZTVN9bluetooth5mojom42ServerSocket_Disconnect_HandleSyncResponseE, i64 0, inrange i32 0, i64 2) to i32 (...)**), i32 (...)*** %12, align 8
  %13 = getelementptr inbounds i8, i8* %11, i64 8
  %14 = bitcast i8* %13 to i8**
  store i8* %3, i8** %14, align 8
  %15 = bitcast i8* %11 to %"class.mojo::MessageReceiver"*
  %16 = getelementptr inbounds %"class.bluetooth::mojom::ServerSocketProxy", %"class.bluetooth::mojom::ServerSocketProxy"* %0, i64 0, i32 1
  %17 = load %"class.mojo::MessageReceiverWithResponder"*, %"class.mojo::MessageReceiverWithResponder"** %16, align 8
  %18 = bitcast %"class.mojo::MessageReceiverWithResponder"* %17 to i1 (%"class.mojo::MessageReceiverWithResponder"*, %"class.mojo::Message"*, %"class.mojo::MessageReceiver"*)***
  %19 = load i1 (%"class.mojo::MessageReceiverWithResponder"*, %"class.mojo::Message"*, %"class.mojo::MessageReceiver"*)**, i1 (%"class.mojo::MessageReceiverWithResponder"*, %"class.mojo::Message"*, %"class.mojo::MessageReceiver"*)*** %18, align 8
  %20 = getelementptr inbounds i1 (%"class.mojo::MessageReceiverWithResponder"*, %"class.mojo::Message"*, %"class.mojo::MessageReceiver"*)*, i1 (%"class.mojo::MessageReceiverWithResponder"*, %"class.mojo::Message"*, %"class.mojo::MessageReceiver"*)** %19, i64 4
  %21 = load i1 (%"class.mojo::MessageReceiverWithResponder"*, %"class.mojo::Message"*, %"class.mojo::MessageReceiver"*)*, i1 (%"class.mojo::MessageReceiverWithResponder"*, %"class.mojo::Message"*, %"class.mojo::MessageReceiver"*)** %20, align 8
  %22 = call zeroext i1 %21(%"class.mojo::MessageReceiverWithResponder"* %17, %"class.mojo::Message"* nonnull %2, %"class.mojo::MessageReceiver"* nonnull %15) #12
  %23 = load i8, i8* %3, align 1, !range !14
  %24 = icmp ne i8 %23, 0
  call void @llvm.lifetime.end.p0i8(i64 1, i8* nonnull %3) #12
  call void @_ZN4mojo7MessageD1Ev(%"class.mojo::Message"* nonnull %2) #12
  call void @llvm.lifetime.end.p0i8(i64 120, i8* nonnull %4) #12
  ret i1 %24
}

; Function Attrs: nounwind ssp uwtable
define hidden void @_ZN9bluetooth5mojom17ServerSocketProxy10DisconnectEN4base12OnceCallbackIFvvEEE(%"class.bluetooth::mojom::ServerSocketProxy"* nocapture readonly, %"class.base::OnceCallback"* nocapture) unnamed_addr #0 align 2 {
  %3 = alloca %"class.mojo::Message", align 8
  %4 = alloca %"class.base::OnceCallback", align 8
  %5 = bitcast %"class.mojo::Message"* %3 to i8*
  call void @llvm.lifetime.start.p0i8(i64 120, i8* nonnull %5) #12
  call void @llvm.memset.p0i8.i64(i8* nonnull align 8 %5, i8 -86, i64 120, i1 false)
  call void @_ZN4mojo7MessageC1EjjmmPNSt3__16vectorINS_16ScopedHandleBaseINS_6HandleEEENS1_9allocatorIS5_EEEE(%"class.mojo::Message"* nonnull %3, i32 411519172, i32 1, i64 0, i64 0, %"class.std::__1::vector"* null) #12
  %6 = getelementptr inbounds %"class.mojo::Message", %"class.mojo::Message"* %3, i64 0, i32 1
  %7 = call i64 @_ZN4mojo8internal6Buffer8AllocateEm(%"class.mojo::internal::Buffer"* %6, i64 8) #12
  %8 = getelementptr inbounds %"class.mojo::Message", %"class.mojo::Message"* %3, i64 0, i32 1, i32 2
  %9 = load i8*, i8** %8, align 8
  %10 = getelementptr inbounds i8, i8* %9, i64 %7
  %11 = bitcast i8* %10 to %"class.bluetooth::mojom::internal::ServerSocket_Disconnect_Params_Data"*
  call void @_ZN9bluetooth5mojom8internal35ServerSocket_Disconnect_Params_DataC1Ev(%"class.bluetooth::mojom::internal::ServerSocket_Disconnect_Params_Data"* %11) #12
  %12 = call i8* @_Znwm(i64 16) #13
  %13 = getelementptr inbounds %"class.base::OnceCallback", %"class.base::OnceCallback"* %1, i64 0, i32 0, i32 0, i32 0
  %14 = bitcast %"class.base::OnceCallback"* %1 to i64*
  %15 = load i64, i64* %14, align 8
  store %"class.base::internal::BindStateBase"* null, %"class.base::internal::BindStateBase"** %13, align 8
  %16 = bitcast i8* %12 to i32 (...)***
  store i32 (...)** bitcast (i8** getelementptr inbounds ({ [6 x i8*] }, { [6 x i8*] }* @_ZTVN9bluetooth5mojom41ServerSocket_Disconnect_ForwardToCallbackE, i64 0, inrange i32 0, i64 2) to i32 (...)**), i32 (...)*** %16, align 8
  %17 = getelementptr inbounds i8, i8* %12, i64 8
  %18 = getelementptr inbounds %"class.base::OnceCallback", %"class.base::OnceCallback"* %4, i64 0, i32 0, i32 0, i32 0
  %19 = bitcast i8* %17 to i64*
  store i64 %15, i64* %19, align 8
  store %"class.base::internal::BindStateBase"* null, %"class.base::internal::BindStateBase"** %18, align 8
  %20 = bitcast i8* %12 to %"class.mojo::MessageReceiver"*
  %21 = getelementptr inbounds %"class.base::OnceCallback", %"class.base::OnceCallback"* %4, i64 0, i32 0
  call void @_ZN4base8internal12CallbackBaseD2Ev(%"class.base::internal::CallbackBase"* nonnull %21) #12
  %22 = getelementptr inbounds %"class.bluetooth::mojom::ServerSocketProxy", %"class.bluetooth::mojom::ServerSocketProxy"* %0, i64 0, i32 1
  %23 = load %"class.mojo::MessageReceiverWithResponder"*, %"class.mojo::MessageReceiverWithResponder"** %22, align 8
  %24 = bitcast %"class.mojo::MessageReceiverWithResponder"* %23 to i1 (%"class.mojo::MessageReceiverWithResponder"*, %"class.mojo::Message"*, %"class.mojo::MessageReceiver"*)***
  %25 = load i1 (%"class.mojo::MessageReceiverWithResponder"*, %"class.mojo::Message"*, %"class.mojo::MessageReceiver"*)**, i1 (%"class.mojo::MessageReceiverWithResponder"*, %"class.mojo::Message"*, %"class.mojo::MessageReceiver"*)*** %24, align 8
  %26 = getelementptr inbounds i1 (%"class.mojo::MessageReceiverWithResponder"*, %"class.mojo::Message"*, %"class.mojo::MessageReceiver"*)*, i1 (%"class.mojo::MessageReceiverWithResponder"*, %"class.mojo::Message"*, %"class.mojo::MessageReceiver"*)** %25, i64 4
  %27 = load i1 (%"class.mojo::MessageReceiverWithResponder"*, %"class.mojo::Message"*, %"class.mojo::MessageReceiver"*)*, i1 (%"class.mojo::MessageReceiverWithResponder"*, %"class.mojo::Message"*, %"class.mojo::MessageReceiver"*)** %26, align 8
  %28 = call zeroext i1 %27(%"class.mojo::MessageReceiverWithResponder"* %23, %"class.mojo::Message"* nonnull %3, %"class.mojo::MessageReceiver"* nonnull %20) #12
  call void @_ZN4mojo7MessageD1Ev(%"class.mojo::Message"* nonnull %3) #12
  call void @llvm.lifetime.end.p0i8(i64 120, i8* nonnull %5) #12
  ret void
}

; Function Attrs: nounwind ssp uwtable
define hidden zeroext i1 @_ZN9bluetooth5mojom37ServerSocket_Accept_ForwardToCallback6AcceptEPN4mojo7MessageE(%"class.bluetooth::mojom::ServerSocket_Accept_ForwardToCallback"* nocapture, %"class.mojo::Message"*) unnamed_addr #0 align 2 {
  %3 = alloca %"class.base::OnceCallback.90", align 8
  %4 = alloca %"class.mojo::StructPtr.82", align 8
  %5 = alloca %"class.bluetooth::mojom::ServerSocket_Accept_ResponseParamsDataView", align 8
  %6 = alloca %"class.mojo::StructPtr.82", align 8
  %7 = tail call i8* @_ZNK4mojo7Message7payloadEv(%"class.mojo::Message"* %1) #12
  %8 = bitcast %"class.mojo::StructPtr.82"* %4 to i8*
  call void @llvm.lifetime.start.p0i8(i64 8, i8* nonnull %8) #12
  %9 = getelementptr inbounds %"class.mojo::StructPtr.82", %"class.mojo::StructPtr.82"* %4, i64 0, i32 0, i32 0, i32 0, i32 0
  %10 = bitcast %"class.mojo::StructPtr.82"* %4 to i64*
  store i64 0, i64* %10, align 8
  %11 = bitcast %"class.bluetooth::mojom::ServerSocket_Accept_ResponseParamsDataView"* %5 to i8*
  call void @llvm.lifetime.start.p0i8(i64 16, i8* nonnull %11) #12
  %12 = getelementptr inbounds %"class.bluetooth::mojom::ServerSocket_Accept_ResponseParamsDataView", %"class.bluetooth::mojom::ServerSocket_Accept_ResponseParamsDataView"* %5, i64 0, i32 1
  %13 = bitcast %"class.bluetooth::mojom::ServerSocket_Accept_ResponseParamsDataView"* %5 to i8**
  store i8* %7, i8** %13, align 8
  store %"class.mojo::Message"* %1, %"class.mojo::Message"** %12, align 8
  %14 = call zeroext i1 @_ZN9bluetooth5mojom42ServerSocket_Accept_ResponseParamsDataView10ReadResultIN4mojo9StructPtrINS0_22AcceptConnectionResultEEEEEbPT_(%"class.bluetooth::mojom::ServerSocket_Accept_ResponseParamsDataView"* nonnull %5, %"class.mojo::StructPtr.82"* nonnull %4)
  br i1 %14, label %16, label %15

15:                                               ; preds = %2
  call void @_ZN4mojo8internal31ReportValidationErrorForMessageEPNS_7MessageENS0_15ValidationErrorEPKcjb(%"class.mojo::Message"* %1, i32 17, i8* getelementptr inbounds ([29 x i8], [29 x i8]* @_ZN9bluetooth5mojom12ServerSocket5Name_E, i64 0, i64 0), i32 0, i1 zeroext true) #12
  br label %54

16:                                               ; preds = %2
  %17 = getelementptr inbounds %"class.bluetooth::mojom::ServerSocket_Accept_ForwardToCallback", %"class.bluetooth::mojom::ServerSocket_Accept_ForwardToCallback"* %0, i64 0, i32 1, i32 0, i32 0, i32 0
  %18 = load %"class.base::internal::BindStateBase"*, %"class.base::internal::BindStateBase"** %17, align 8
  %19 = icmp eq %"class.base::internal::BindStateBase"* %18, null
  br i1 %19, label %54, label %20

20:                                               ; preds = %16
  %21 = ptrtoint %"class.base::internal::BindStateBase"* %18 to i64
  %22 = bitcast %"class.mojo::StructPtr.82"* %6 to i64*
  %23 = getelementptr inbounds %"class.mojo::StructPtr.82", %"class.mojo::StructPtr.82"* %6, i64 0, i32 0, i32 0, i32 0, i32 0
  %24 = load i64, i64* %10, align 8
  store i64 %24, i64* %22, align 8
  store i64 0, i64* %10, align 8
  %25 = bitcast %"class.base::OnceCallback.90"* %3 to i8*
  call void @llvm.lifetime.start.p0i8(i64 8, i8* nonnull %25) #12
  %26 = bitcast %"class.base::OnceCallback.90"* %3 to i64*
  store i64 %21, i64* %26, align 8
  store %"class.base::internal::BindStateBase"* null, %"class.base::internal::BindStateBase"** %17, align 8
  %27 = getelementptr inbounds %"class.base::OnceCallback.90", %"class.base::OnceCallback.90"* %3, i64 0, i32 0
  %28 = getelementptr inbounds %"class.base::internal::BindStateBase", %"class.base::internal::BindStateBase"* %18, i64 0, i32 1
  %29 = bitcast void ()** %28 to void (%"class.base::internal::BindStateBase"*, %"class.mojo::StructPtr.82"*)**
  %30 = load void (%"class.base::internal::BindStateBase"*, %"class.mojo::StructPtr.82"*)*, void (%"class.base::internal::BindStateBase"*, %"class.mojo::StructPtr.82"*)** %29, align 8
  call void %30(%"class.base::internal::BindStateBase"* nonnull %18, %"class.mojo::StructPtr.82"* nonnull dereferenceable(8) %6) #12
  call void @_ZN4base8internal12CallbackBaseD2Ev(%"class.base::internal::CallbackBase"* nonnull %27) #12
  call void @llvm.lifetime.end.p0i8(i64 8, i8* nonnull %25) #12
  %31 = load %"class.bluetooth::mojom::AcceptConnectionResult"*, %"class.bluetooth::mojom::AcceptConnectionResult"** %23, align 8
  store %"class.bluetooth::mojom::AcceptConnectionResult"* null, %"class.bluetooth::mojom::AcceptConnectionResult"** %23, align 8
  %32 = icmp eq %"class.bluetooth::mojom::AcceptConnectionResult"* %31, null
  br i1 %32, label %54, label %33

33:                                               ; preds = %20
  %34 = getelementptr inbounds %"class.bluetooth::mojom::AcceptConnectionResult", %"class.bluetooth::mojom::AcceptConnectionResult"* %31, i64 0, i32 3, i32 0, i32 0, i32 0
  %35 = load i32, i32* %34, align 4
  %36 = icmp eq i32 %35, 0
  br i1 %36, label %39, label %37

37:                                               ; preds = %33
  %38 = call i32 @MojoClose(i32 %35) #12
  br label %39

39:                                               ; preds = %37, %33
  %40 = getelementptr inbounds %"class.bluetooth::mojom::AcceptConnectionResult", %"class.bluetooth::mojom::AcceptConnectionResult"* %31, i64 0, i32 2, i32 0, i32 0, i32 0
  %41 = load i32, i32* %40, align 4
  %42 = icmp eq i32 %41, 0
  br i1 %42, label %45, label %43

43:                                               ; preds = %39
  %44 = call i32 @MojoClose(i32 %41) #12
  br label %45

45:                                               ; preds = %43, %39
  %46 = getelementptr inbounds %"class.bluetooth::mojom::AcceptConnectionResult", %"class.bluetooth::mojom::AcceptConnectionResult"* %31, i64 0, i32 1, i32 0
  call void @_ZN4mojo8internal18PendingRemoteStateD1Ev(%"struct.mojo::internal::PendingRemoteState"* %46) #12
  %47 = getelementptr inbounds %"class.bluetooth::mojom::AcceptConnectionResult", %"class.bluetooth::mojom::AcceptConnectionResult"* %31, i64 0, i32 0, i32 0, i32 0, i32 0, i32 0
  %48 = load %"class.bluetooth::mojom::DeviceInfo"*, %"class.bluetooth::mojom::DeviceInfo"** %47, align 8
  store %"class.bluetooth::mojom::DeviceInfo"* null, %"class.bluetooth::mojom::DeviceInfo"** %47, align 8
  %49 = icmp eq %"class.bluetooth::mojom::DeviceInfo"* %48, null
  br i1 %49, label %52, label %50

50:                                               ; preds = %45
  call void @_ZN9bluetooth5mojom10DeviceInfoD1Ev(%"class.bluetooth::mojom::DeviceInfo"* nonnull %48) #12
  %51 = getelementptr inbounds %"class.bluetooth::mojom::DeviceInfo", %"class.bluetooth::mojom::DeviceInfo"* %48, i64 0, i32 0, i32 0, i32 0, i32 0, i32 0
  call void @_ZdlPv(i8* %51) #13
  br label %52

52:                                               ; preds = %45, %50
  %53 = bitcast %"class.bluetooth::mojom::AcceptConnectionResult"* %31 to i8*
  call void @_ZdlPv(i8* %53) #13
  br label %54

54:                                               ; preds = %52, %20, %16, %15
  %55 = phi i1 [ false, %15 ], [ true, %16 ], [ true, %20 ], [ true, %52 ]
  call void @llvm.lifetime.end.p0i8(i64 16, i8* nonnull %11) #12
  %56 = load %"class.bluetooth::mojom::AcceptConnectionResult"*, %"class.bluetooth::mojom::AcceptConnectionResult"** %9, align 8
  store %"class.bluetooth::mojom::AcceptConnectionResult"* null, %"class.bluetooth::mojom::AcceptConnectionResult"** %9, align 8
  %57 = icmp eq %"class.bluetooth::mojom::AcceptConnectionResult"* %56, null
  br i1 %57, label %79, label %58

58:                                               ; preds = %54
  %59 = getelementptr inbounds %"class.bluetooth::mojom::AcceptConnectionResult", %"class.bluetooth::mojom::AcceptConnectionResult"* %56, i64 0, i32 3, i32 0, i32 0, i32 0
  %60 = load i32, i32* %59, align 4
  %61 = icmp eq i32 %60, 0
  br i1 %61, label %64, label %62

62:                                               ; preds = %58
  %63 = call i32 @MojoClose(i32 %60) #12
  br label %64

64:                                               ; preds = %62, %58
  %65 = getelementptr inbounds %"class.bluetooth::mojom::AcceptConnectionResult", %"class.bluetooth::mojom::AcceptConnectionResult"* %56, i64 0, i32 2, i32 0, i32 0, i32 0
  %66 = load i32, i32* %65, align 4
  %67 = icmp eq i32 %66, 0
  br i1 %67, label %70, label %68

68:                                               ; preds = %64
  %69 = call i32 @MojoClose(i32 %66) #12
  br label %70

70:                                               ; preds = %68, %64
  %71 = getelementptr inbounds %"class.bluetooth::mojom::AcceptConnectionResult", %"class.bluetooth::mojom::AcceptConnectionResult"* %56, i64 0, i32 1, i32 0
  call void @_ZN4mojo8internal18PendingRemoteStateD1Ev(%"struct.mojo::internal::PendingRemoteState"* %71) #12
  %72 = getelementptr inbounds %"class.bluetooth::mojom::AcceptConnectionResult", %"class.bluetooth::mojom::AcceptConnectionResult"* %56, i64 0, i32 0, i32 0, i32 0, i32 0, i32 0
  %73 = load %"class.bluetooth::mojom::DeviceInfo"*, %"class.bluetooth::mojom::DeviceInfo"** %72, align 8
  store %"class.bluetooth::mojom::DeviceInfo"* null, %"class.bluetooth::mojom::DeviceInfo"** %72, align 8
  %74 = icmp eq %"class.bluetooth::mojom::DeviceInfo"* %73, null
  br i1 %74, label %77, label %75

75:                                               ; preds = %70
  call void @_ZN9bluetooth5mojom10DeviceInfoD1Ev(%"class.bluetooth::mojom::DeviceInfo"* nonnull %73) #12
  %76 = getelementptr inbounds %"class.bluetooth::mojom::DeviceInfo", %"class.bluetooth::mojom::DeviceInfo"* %73, i64 0, i32 0, i32 0, i32 0, i32 0, i32 0
  call void @_ZdlPv(i8* %76) #13
  br label %77

77:                                               ; preds = %70, %75
  %78 = bitcast %"class.bluetooth::mojom::AcceptConnectionResult"* %56 to i8*
  call void @_ZdlPv(i8* %78) #13
  br label %79

79:                                               ; preds = %54, %77
  call void @llvm.lifetime.end.p0i8(i64 8, i8* nonnull %8) #12
  ret i1 %55
}

; Function Attrs: nounwind ssp uwtable
define linkonce_odr hidden zeroext i1 @_ZN9bluetooth5mojom42ServerSocket_Accept_ResponseParamsDataView10ReadResultIN4mojo9StructPtrINS0_22AcceptConnectionResultEEEEEbPT_(%"class.bluetooth::mojom::ServerSocket_Accept_ResponseParamsDataView"*, %"class.mojo::StructPtr.82"*) local_unnamed_addr #0 comdat align 2 {
  %3 = getelementptr inbounds %"class.bluetooth::mojom::ServerSocket_Accept_ResponseParamsDataView", %"class.bluetooth::mojom::ServerSocket_Accept_ResponseParamsDataView"* %0, i64 0, i32 0
  %4 = load %"class.bluetooth::mojom::internal::ServerSocket_Accept_ResponseParams_Data"*, %"class.bluetooth::mojom::internal::ServerSocket_Accept_ResponseParams_Data"** %3, align 8
  %5 = getelementptr inbounds %"class.bluetooth::mojom::internal::ServerSocket_Accept_ResponseParams_Data", %"class.bluetooth::mojom::internal::ServerSocket_Accept_ResponseParams_Data"* %4, i64 0, i32 1
  %6 = getelementptr inbounds %"struct.mojo::internal::Pointer", %"struct.mojo::internal::Pointer"* %5, i64 0, i32 0
  %7 = load i64, i64* %6, align 8
  %8 = icmp eq i64 %7, 0
  %9 = bitcast %"struct.mojo::internal::Pointer"* %5 to i8*
  %10 = getelementptr inbounds i8, i8* %9, i64 %7
  %11 = icmp eq i8* %10, null
  %12 = or i1 %8, %11
  br i1 %12, label %13, label %38

13:                                               ; preds = %2
  %14 = getelementptr inbounds %"class.mojo::StructPtr.82", %"class.mojo::StructPtr.82"* %1, i64 0, i32 0, i32 0, i32 0, i32 0
  %15 = load %"class.bluetooth::mojom::AcceptConnectionResult"*, %"class.bluetooth::mojom::AcceptConnectionResult"** %14, align 8
  store %"class.bluetooth::mojom::AcceptConnectionResult"* null, %"class.bluetooth::mojom::AcceptConnectionResult"** %14, align 8
  %16 = icmp eq %"class.bluetooth::mojom::AcceptConnectionResult"* %15, null
  br i1 %16, label %43, label %17

17:                                               ; preds = %13
  %18 = getelementptr inbounds %"class.bluetooth::mojom::AcceptConnectionResult", %"class.bluetooth::mojom::AcceptConnectionResult"* %15, i64 0, i32 3, i32 0, i32 0, i32 0
  %19 = load i32, i32* %18, align 4
  %20 = icmp eq i32 %19, 0
  br i1 %20, label %23, label %21

21:                                               ; preds = %17
  %22 = tail call i32 @MojoClose(i32 %19) #12
  br label %23

23:                                               ; preds = %21, %17
  %24 = getelementptr inbounds %"class.bluetooth::mojom::AcceptConnectionResult", %"class.bluetooth::mojom::AcceptConnectionResult"* %15, i64 0, i32 2, i32 0, i32 0, i32 0
  %25 = load i32, i32* %24, align 4
  %26 = icmp eq i32 %25, 0
  br i1 %26, label %29, label %27

27:                                               ; preds = %23
  %28 = tail call i32 @MojoClose(i32 %25) #12
  br label %29

29:                                               ; preds = %27, %23
  %30 = getelementptr inbounds %"class.bluetooth::mojom::AcceptConnectionResult", %"class.bluetooth::mojom::AcceptConnectionResult"* %15, i64 0, i32 1, i32 0
  tail call void @_ZN4mojo8internal18PendingRemoteStateD1Ev(%"struct.mojo::internal::PendingRemoteState"* %30) #12
  %31 = getelementptr inbounds %"class.bluetooth::mojom::AcceptConnectionResult", %"class.bluetooth::mojom::AcceptConnectionResult"* %15, i64 0, i32 0, i32 0, i32 0, i32 0, i32 0
  %32 = load %"class.bluetooth::mojom::DeviceInfo"*, %"class.bluetooth::mojom::DeviceInfo"** %31, align 8
  store %"class.bluetooth::mojom::DeviceInfo"* null, %"class.bluetooth::mojom::DeviceInfo"** %31, align 8
  %33 = icmp eq %"class.bluetooth::mojom::DeviceInfo"* %32, null
  br i1 %33, label %36, label %34

34:                                               ; preds = %29
  tail call void @_ZN9bluetooth5mojom10DeviceInfoD1Ev(%"class.bluetooth::mojom::DeviceInfo"* nonnull %32) #12
  %35 = getelementptr inbounds %"class.bluetooth::mojom::DeviceInfo", %"class.bluetooth::mojom::DeviceInfo"* %32, i64 0, i32 0, i32 0, i32 0, i32 0, i32 0
  tail call void @_ZdlPv(i8* %35) #13
  br label %36

36:                                               ; preds = %29, %34
  %37 = bitcast %"class.bluetooth::mojom::AcceptConnectionResult"* %15 to i8*
  tail call void @_ZdlPv(i8* %37) #13
  br label %43

38:                                               ; preds = %2
  %39 = bitcast i8* %10 to %"class.bluetooth::mojom::internal::AcceptConnectionResult_Data"*
  %40 = getelementptr inbounds %"class.bluetooth::mojom::ServerSocket_Accept_ResponseParamsDataView", %"class.bluetooth::mojom::ServerSocket_Accept_ResponseParamsDataView"* %0, i64 0, i32 1
  %41 = load %"class.mojo::Message"*, %"class.mojo::Message"** %40, align 8
  %42 = tail call zeroext i1 @_ZN4mojo12StructTraitsIN9bluetooth5mojom30AcceptConnectionResultDataViewENS_9StructPtrINS2_22AcceptConnectionResultEEEE4ReadES3_PS6_(%"class.bluetooth::mojom::internal::AcceptConnectionResult_Data"* nonnull %39, %"class.mojo::Message"* %41, %"class.mojo::StructPtr.82"* %1) #12
  br label %43

43:                                               ; preds = %13, %36, %38
  %44 = phi i1 [ %42, %38 ], [ true, %13 ], [ true, %36 ]
  ret i1 %44
}

; Function Attrs: nounwind ssp uwtable
define hidden void @_ZN9bluetooth5mojom36ServerSocket_Accept_ProxyToResponder3RunEN4mojo9StructPtrINS0_22AcceptConnectionResultEEE(%"class.bluetooth::mojom::ServerSocket_Accept_ProxyToResponder"* nocapture, %"class.mojo::StructPtr.82"*) #0 align 2 {
  %3 = alloca %"class.mojo::Message", align 8
  %4 = alloca %"class.mojo::internal::MessageFragment.93", align 8
  %5 = getelementptr inbounds %"class.bluetooth::mojom::ServerSocket_Accept_ProxyToResponder", %"class.bluetooth::mojom::ServerSocket_Accept_ProxyToResponder"* %0, i64 0, i32 1
  %6 = load i8, i8* %5, align 8, !range !14
  %7 = icmp eq i8 %6, 0
  %8 = select i1 %7, i32 2, i32 6
  %9 = bitcast %"class.mojo::Message"* %3 to i8*
  call void @llvm.lifetime.start.p0i8(i64 120, i8* nonnull %9) #12
  call void @llvm.memset.p0i8.i64(i8* nonnull align 8 %9, i8 -86, i64 120, i1 false)
  call void @_ZN4mojo7MessageC1EjjmmPNSt3__16vectorINS_16ScopedHandleBaseINS_6HandleEEENS1_9allocatorIS5_EEEE(%"class.mojo::Message"* nonnull %3, i32 356813248, i32 %8, i64 0, i64 0, %"class.std::__1::vector"* null) #12
  %10 = getelementptr inbounds %"class.mojo::Message", %"class.mojo::Message"* %3, i64 0, i32 1
  %11 = call i64 @_ZN4mojo8internal6Buffer8AllocateEm(%"class.mojo::internal::Buffer"* %10, i64 16) #12
  %12 = getelementptr inbounds %"class.mojo::Message", %"class.mojo::Message"* %3, i64 0, i32 1, i32 2
  %13 = load i8*, i8** %12, align 8
  %14 = getelementptr inbounds i8, i8* %13, i64 %11
  %15 = bitcast i8* %14 to %"class.bluetooth::mojom::internal::ServerSocket_Accept_ResponseParams_Data"*
  call void @_ZN9bluetooth5mojom8internal39ServerSocket_Accept_ResponseParams_DataC1Ev(%"class.bluetooth::mojom::internal::ServerSocket_Accept_ResponseParams_Data"* %15) #12
  %16 = bitcast %"class.mojo::internal::MessageFragment.93"* %4 to i8*
  call void @llvm.lifetime.start.p0i8(i64 16, i8* nonnull %16) #12
  %17 = getelementptr inbounds %"class.mojo::internal::MessageFragment.93", %"class.mojo::internal::MessageFragment.93"* %4, i64 0, i32 0
  %18 = getelementptr inbounds %"class.mojo::internal::MessageFragment.93", %"class.mojo::internal::MessageFragment.93"* %4, i64 0, i32 1
  store %"class.mojo::Message"* %3, %"class.mojo::Message"** %17, align 8
  store i64 -1, i64* %18, align 8
  call void @_ZN4mojo8internal10SerializerIN9bluetooth5mojom30AcceptConnectionResultDataViewENS_9StructPtrINS3_22AcceptConnectionResultEEEE9SerializeERS7_RNS0_15MessageFragmentINS3_8internal27AcceptConnectionResult_DataEEE(%"class.mojo::StructPtr.82"* dereferenceable(8) %1, %"class.mojo::internal::MessageFragment.93"* nonnull dereferenceable(16) %4) #12
  %19 = load i8*, i8** %12, align 8
  %20 = getelementptr inbounds i8, i8* %19, i64 %11
  %21 = getelementptr inbounds i8, i8* %20, i64 8
  %22 = load i64, i64* %18, align 8
  %23 = icmp eq i64 %22, -1
  br i1 %23, label %30, label %24

24:                                               ; preds = %2
  %25 = load %"class.mojo::Message"*, %"class.mojo::Message"** %17, align 8
  %26 = getelementptr inbounds %"class.mojo::Message", %"class.mojo::Message"* %25, i64 0, i32 1, i32 2
  %27 = load i8*, i8** %26, align 8
  %28 = getelementptr inbounds i8, i8* %27, i64 %22
  %29 = bitcast i8* %28 to %"class.bluetooth::mojom::internal::AcceptConnectionResult_Data"*
  br label %30

30:                                               ; preds = %2, %24
  %31 = phi %"class.bluetooth::mojom::internal::AcceptConnectionResult_Data"* [ %29, %24 ], [ null, %2 ]
  %32 = bitcast i8* %21 to i64*
  %33 = icmp eq %"class.bluetooth::mojom::internal::AcceptConnectionResult_Data"* %31, null
  %34 = ptrtoint %"class.bluetooth::mojom::internal::AcceptConnectionResult_Data"* %31 to i64
  %35 = ptrtoint i8* %21 to i64
  %36 = sub i64 %34, %35
  %37 = select i1 %33, i64 0, i64 %36
  store i64 %37, i64* %32, align 8
  %38 = getelementptr inbounds %"class.bluetooth::mojom::ServerSocket_Accept_ProxyToResponder", %"class.bluetooth::mojom::ServerSocket_Accept_ProxyToResponder"* %0, i64 0, i32 0
  %39 = load i64, i64* %38, align 8
  %40 = bitcast i8** %12 to %"struct.mojo::internal::MessageHeaderV1"**
  %41 = load %"struct.mojo::internal::MessageHeaderV1"*, %"struct.mojo::internal::MessageHeaderV1"** %40, align 8
  %42 = getelementptr inbounds %"struct.mojo::internal::MessageHeaderV1", %"struct.mojo::internal::MessageHeaderV1"* %41, i64 0, i32 1
  store i64 %39, i64* %42, align 1
  %43 = getelementptr inbounds %"class.bluetooth::mojom::ServerSocket_Accept_ProxyToResponder", %"class.bluetooth::mojom::ServerSocket_Accept_ProxyToResponder"* %0, i64 0, i32 2, i32 0, i32 0, i32 0
  %44 = load %"class.mojo::MessageReceiverWithStatus"*, %"class.mojo::MessageReceiverWithStatus"** %43, align 8
  %45 = getelementptr inbounds %"class.mojo::MessageReceiverWithStatus", %"class.mojo::MessageReceiverWithStatus"* %44, i64 0, i32 0
  %46 = bitcast %"class.mojo::MessageReceiverWithStatus"* %44 to i1 (%"class.mojo::MessageReceiver"*, %"class.mojo::Message"*)***
  %47 = load i1 (%"class.mojo::MessageReceiver"*, %"class.mojo::Message"*)**, i1 (%"class.mojo::MessageReceiver"*, %"class.mojo::Message"*)*** %46, align 8
  %48 = getelementptr inbounds i1 (%"class.mojo::MessageReceiver"*, %"class.mojo::Message"*)*, i1 (%"class.mojo::MessageReceiver"*, %"class.mojo::Message"*)** %47, i64 3
  %49 = load i1 (%"class.mojo::MessageReceiver"*, %"class.mojo::Message"*)*, i1 (%"class.mojo::MessageReceiver"*, %"class.mojo::Message"*)** %48, align 8
  %50 = call zeroext i1 %49(%"class.mojo::MessageReceiver"* %45, %"class.mojo::Message"* nonnull %3) #12
  %51 = load %"class.mojo::MessageReceiverWithStatus"*, %"class.mojo::MessageReceiverWithStatus"** %43, align 8
  store %"class.mojo::MessageReceiverWithStatus"* null, %"class.mojo::MessageReceiverWithStatus"** %43, align 8
  %52 = icmp eq %"class.mojo::MessageReceiverWithStatus"* %51, null
  br i1 %52, label %58, label %53

53:                                               ; preds = %30
  %54 = bitcast %"class.mojo::MessageReceiverWithStatus"* %51 to void (%"class.mojo::MessageReceiverWithStatus"*)***
  %55 = load void (%"class.mojo::MessageReceiverWithStatus"*)**, void (%"class.mojo::MessageReceiverWithStatus"*)*** %54, align 8
  %56 = getelementptr inbounds void (%"class.mojo::MessageReceiverWithStatus"*)*, void (%"class.mojo::MessageReceiverWithStatus"*)** %55, i64 1
  %57 = load void (%"class.mojo::MessageReceiverWithStatus"*)*, void (%"class.mojo::MessageReceiverWithStatus"*)** %56, align 8
  call void %57(%"class.mojo::MessageReceiverWithStatus"* nonnull %51) #12
  br label %58

58:                                               ; preds = %30, %53
  call void @llvm.lifetime.end.p0i8(i64 16, i8* nonnull %16) #12
  call void @_ZN4mojo7MessageD1Ev(%"class.mojo::Message"* nonnull %3) #12
  call void @llvm.lifetime.end.p0i8(i64 120, i8* nonnull %9) #12
  ret void
}

; Function Attrs: nounwind ssp uwtable
define hidden zeroext i1 @_ZN9bluetooth5mojom38ServerSocket_Accept_HandleSyncResponse6AcceptEPN4mojo7MessageE(%"class.bluetooth::mojom::ServerSocket_Accept_HandleSyncResponse"* nocapture readonly, %"class.mojo::Message"*) unnamed_addr #0 align 2 {
  %3 = alloca %"class.mojo::StructPtr.82", align 8
  %4 = alloca %"class.bluetooth::mojom::ServerSocket_Accept_ResponseParamsDataView", align 8
  %5 = tail call i8* @_ZNK4mojo7Message7payloadEv(%"class.mojo::Message"* %1) #12
  %6 = bitcast %"class.mojo::StructPtr.82"* %3 to i8*
  call void @llvm.lifetime.start.p0i8(i64 8, i8* nonnull %6) #12
  %7 = getelementptr inbounds %"class.mojo::StructPtr.82", %"class.mojo::StructPtr.82"* %3, i64 0, i32 0, i32 0, i32 0, i32 0
  %8 = bitcast %"class.mojo::StructPtr.82"* %3 to i64*
  store i64 0, i64* %8, align 8
  %9 = bitcast %"class.bluetooth::mojom::ServerSocket_Accept_ResponseParamsDataView"* %4 to i8*
  call void @llvm.lifetime.start.p0i8(i64 16, i8* nonnull %9) #12
  %10 = getelementptr inbounds %"class.bluetooth::mojom::ServerSocket_Accept_ResponseParamsDataView", %"class.bluetooth::mojom::ServerSocket_Accept_ResponseParamsDataView"* %4, i64 0, i32 1
  %11 = bitcast %"class.bluetooth::mojom::ServerSocket_Accept_ResponseParamsDataView"* %4 to i8**
  store i8* %5, i8** %11, align 8
  store %"class.mojo::Message"* %1, %"class.mojo::Message"** %10, align 8
  %12 = call zeroext i1 @_ZN9bluetooth5mojom42ServerSocket_Accept_ResponseParamsDataView10ReadResultIN4mojo9StructPtrINS0_22AcceptConnectionResultEEEEEbPT_(%"class.bluetooth::mojom::ServerSocket_Accept_ResponseParamsDataView"* nonnull %4, %"class.mojo::StructPtr.82"* nonnull %3)
  br i1 %12, label %14, label %13

13:                                               ; preds = %2
  call void @_ZN4mojo8internal31ReportValidationErrorForMessageEPNS_7MessageENS0_15ValidationErrorEPKcjb(%"class.mojo::Message"* %1, i32 17, i8* getelementptr inbounds ([29 x i8], [29 x i8]* @_ZN9bluetooth5mojom12ServerSocket5Name_E, i64 0, i64 0), i32 0, i1 zeroext true) #12
  br label %51

14:                                               ; preds = %2
  %15 = getelementptr inbounds %"class.bluetooth::mojom::ServerSocket_Accept_HandleSyncResponse", %"class.bluetooth::mojom::ServerSocket_Accept_HandleSyncResponse"* %0, i64 0, i32 2
  %16 = load %"class.mojo::StructPtr.82"*, %"class.mojo::StructPtr.82"** %15, align 8
  %17 = getelementptr inbounds %"class.mojo::StructPtr.82", %"class.mojo::StructPtr.82"* %16, i64 0, i32 0, i32 0, i32 0, i32 0
  %18 = load %"class.bluetooth::mojom::AcceptConnectionResult"*, %"class.bluetooth::mojom::AcceptConnectionResult"** %17, align 8
  store %"class.bluetooth::mojom::AcceptConnectionResult"* null, %"class.bluetooth::mojom::AcceptConnectionResult"** %17, align 8
  %19 = icmp eq %"class.bluetooth::mojom::AcceptConnectionResult"* %18, null
  br i1 %19, label %20, label %22

20:                                               ; preds = %14
  %21 = bitcast %"class.mojo::StructPtr.82"* %16 to i64*
  br label %45

22:                                               ; preds = %14
  %23 = getelementptr inbounds %"class.bluetooth::mojom::AcceptConnectionResult", %"class.bluetooth::mojom::AcceptConnectionResult"* %18, i64 0, i32 3, i32 0, i32 0, i32 0
  %24 = load i32, i32* %23, align 4
  %25 = icmp eq i32 %24, 0
  br i1 %25, label %28, label %26

26:                                               ; preds = %22
  %27 = call i32 @MojoClose(i32 %24) #12
  br label %28

28:                                               ; preds = %26, %22
  %29 = getelementptr inbounds %"class.bluetooth::mojom::AcceptConnectionResult", %"class.bluetooth::mojom::AcceptConnectionResult"* %18, i64 0, i32 2, i32 0, i32 0, i32 0
  %30 = load i32, i32* %29, align 4
  %31 = icmp eq i32 %30, 0
  br i1 %31, label %34, label %32

32:                                               ; preds = %28
  %33 = call i32 @MojoClose(i32 %30) #12
  br label %34

34:                                               ; preds = %32, %28
  %35 = getelementptr inbounds %"class.bluetooth::mojom::AcceptConnectionResult", %"class.bluetooth::mojom::AcceptConnectionResult"* %18, i64 0, i32 1, i32 0
  call void @_ZN4mojo8internal18PendingRemoteStateD1Ev(%"struct.mojo::internal::PendingRemoteState"* %35) #12
  %36 = getelementptr inbounds %"class.bluetooth::mojom::AcceptConnectionResult", %"class.bluetooth::mojom::AcceptConnectionResult"* %18, i64 0, i32 0, i32 0, i32 0, i32 0, i32 0
  %37 = load %"class.bluetooth::mojom::DeviceInfo"*, %"class.bluetooth::mojom::DeviceInfo"** %36, align 8
  store %"class.bluetooth::mojom::DeviceInfo"* null, %"class.bluetooth::mojom::DeviceInfo"** %36, align 8
  %38 = icmp eq %"class.bluetooth::mojom::DeviceInfo"* %37, null
  br i1 %38, label %41, label %39

39:                                               ; preds = %34
  call void @_ZN9bluetooth5mojom10DeviceInfoD1Ev(%"class.bluetooth::mojom::DeviceInfo"* nonnull %37) #12
  %40 = getelementptr inbounds %"class.bluetooth::mojom::DeviceInfo", %"class.bluetooth::mojom::DeviceInfo"* %37, i64 0, i32 0, i32 0, i32 0, i32 0, i32 0
  call void @_ZdlPv(i8* %40) #13
  br label %41

41:                                               ; preds = %34, %39
  %42 = bitcast %"class.bluetooth::mojom::AcceptConnectionResult"* %18 to i8*
  call void @_ZdlPv(i8* %42) #13
  %43 = bitcast %"class.mojo::StructPtr.82"* %16 to i64*
  %44 = load i64, i64* %43, align 8
  br label %45

45:                                               ; preds = %20, %41
  %46 = phi i64* [ %21, %20 ], [ %43, %41 ]
  %47 = phi i64 [ 0, %20 ], [ %44, %41 ]
  %48 = load i64, i64* %8, align 8
  store i64 %48, i64* %46, align 8
  store i64 %47, i64* %8, align 8
  %49 = getelementptr inbounds %"class.bluetooth::mojom::ServerSocket_Accept_HandleSyncResponse", %"class.bluetooth::mojom::ServerSocket_Accept_HandleSyncResponse"* %0, i64 0, i32 1
  %50 = load i8*, i8** %49, align 8
  store i8 1, i8* %50, align 1
  br label %51

51:                                               ; preds = %45, %13
  %52 = phi i1 [ true, %45 ], [ false, %13 ]
  call void @llvm.lifetime.end.p0i8(i64 16, i8* nonnull %9) #12
  %53 = load %"class.bluetooth::mojom::AcceptConnectionResult"*, %"class.bluetooth::mojom::AcceptConnectionResult"** %7, align 8
  store %"class.bluetooth::mojom::AcceptConnectionResult"* null, %"class.bluetooth::mojom::AcceptConnectionResult"** %7, align 8
  %54 = icmp eq %"class.bluetooth::mojom::AcceptConnectionResult"* %53, null
  br i1 %54, label %76, label %55

55:                                               ; preds = %51
  %56 = getelementptr inbounds %"class.bluetooth::mojom::AcceptConnectionResult", %"class.bluetooth::mojom::AcceptConnectionResult"* %53, i64 0, i32 3, i32 0, i32 0, i32 0
  %57 = load i32, i32* %56, align 4
  %58 = icmp eq i32 %57, 0
  br i1 %58, label %61, label %59

59:                                               ; preds = %55
  %60 = call i32 @MojoClose(i32 %57) #12
  br label %61

61:                                               ; preds = %59, %55
  %62 = getelementptr inbounds %"class.bluetooth::mojom::AcceptConnectionResult", %"class.bluetooth::mojom::AcceptConnectionResult"* %53, i64 0, i32 2, i32 0, i32 0, i32 0
  %63 = load i32, i32* %62, align 4
  %64 = icmp eq i32 %63, 0
  br i1 %64, label %67, label %65

65:                                               ; preds = %61
  %66 = call i32 @MojoClose(i32 %63) #12
  br label %67

67:                                               ; preds = %65, %61
  %68 = getelementptr inbounds %"class.bluetooth::mojom::AcceptConnectionResult", %"class.bluetooth::mojom::AcceptConnectionResult"* %53, i64 0, i32 1, i32 0
  call void @_ZN4mojo8internal18PendingRemoteStateD1Ev(%"struct.mojo::internal::PendingRemoteState"* %68) #12
  %69 = getelementptr inbounds %"class.bluetooth::mojom::AcceptConnectionResult", %"class.bluetooth::mojom::AcceptConnectionResult"* %53, i64 0, i32 0, i32 0, i32 0, i32 0, i32 0
  %70 = load %"class.bluetooth::mojom::DeviceInfo"*, %"class.bluetooth::mojom::DeviceInfo"** %69, align 8
  store %"class.bluetooth::mojom::DeviceInfo"* null, %"class.bluetooth::mojom::DeviceInfo"** %69, align 8
  %71 = icmp eq %"class.bluetooth::mojom::DeviceInfo"* %70, null
  br i1 %71, label %74, label %72

72:                                               ; preds = %67
  call void @_ZN9bluetooth5mojom10DeviceInfoD1Ev(%"class.bluetooth::mojom::DeviceInfo"* nonnull %70) #12
  %73 = getelementptr inbounds %"class.bluetooth::mojom::DeviceInfo", %"class.bluetooth::mojom::DeviceInfo"* %70, i64 0, i32 0, i32 0, i32 0, i32 0, i32 0
  call void @_ZdlPv(i8* %73) #13
  br label %74

74:                                               ; preds = %67, %72
  %75 = bitcast %"class.bluetooth::mojom::AcceptConnectionResult"* %53 to i8*
  call void @_ZdlPv(i8* %75) #13
  br label %76

76:                                               ; preds = %51, %74
  call void @llvm.lifetime.end.p0i8(i64 8, i8* nonnull %6) #12
  ret i1 %52
}

; Function Attrs: nounwind ssp uwtable
define hidden zeroext i1 @_ZN9bluetooth5mojom41ServerSocket_Disconnect_ForwardToCallback6AcceptEPN4mojo7MessageE(%"class.bluetooth::mojom::ServerSocket_Disconnect_ForwardToCallback"* nocapture, %"class.mojo::Message"*) unnamed_addr #0 align 2 {
  %3 = alloca %"class.base::OnceCallback", align 8
  %4 = tail call i8* @_ZNK4mojo7Message7payloadEv(%"class.mojo::Message"* %1) #12
  %5 = getelementptr inbounds %"class.bluetooth::mojom::ServerSocket_Disconnect_ForwardToCallback", %"class.bluetooth::mojom::ServerSocket_Disconnect_ForwardToCallback"* %0, i64 0, i32 1, i32 0, i32 0, i32 0
  %6 = load %"class.base::internal::BindStateBase"*, %"class.base::internal::BindStateBase"** %5, align 8
  %7 = icmp eq %"class.base::internal::BindStateBase"* %6, null
  br i1 %7, label %16, label %8

8:                                                ; preds = %2
  %9 = ptrtoint %"class.base::internal::BindStateBase"* %6 to i64
  %10 = bitcast %"class.base::OnceCallback"* %3 to i8*
  call void @llvm.lifetime.start.p0i8(i64 8, i8* nonnull %10) #12
  %11 = bitcast %"class.base::OnceCallback"* %3 to i64*
  store i64 %9, i64* %11, align 8
  store %"class.base::internal::BindStateBase"* null, %"class.base::internal::BindStateBase"** %5, align 8
  %12 = getelementptr inbounds %"class.base::OnceCallback", %"class.base::OnceCallback"* %3, i64 0, i32 0
  %13 = getelementptr inbounds %"class.base::internal::BindStateBase", %"class.base::internal::BindStateBase"* %6, i64 0, i32 1
  %14 = bitcast void ()** %13 to void (%"class.base::internal::BindStateBase"*)**
  %15 = load void (%"class.base::internal::BindStateBase"*)*, void (%"class.base::internal::BindStateBase"*)** %14, align 8
  tail call void %15(%"class.base::internal::BindStateBase"* nonnull %6) #12
  call void @_ZN4base8internal12CallbackBaseD2Ev(%"class.base::internal::CallbackBase"* nonnull %12) #12
  call void @llvm.lifetime.end.p0i8(i64 8, i8* nonnull %10) #12
  br label %16

16:                                               ; preds = %2, %8
  ret i1 true
}

; Function Attrs: nounwind ssp uwtable
define hidden void @_ZN9bluetooth5mojom40ServerSocket_Disconnect_ProxyToResponder3RunEv(%"class.bluetooth::mojom::ServerSocket_Disconnect_ProxyToResponder"* nocapture) #0 align 2 {
  %2 = alloca %"class.mojo::Message", align 8
  %3 = getelementptr inbounds %"class.bluetooth::mojom::ServerSocket_Disconnect_ProxyToResponder", %"class.bluetooth::mojom::ServerSocket_Disconnect_ProxyToResponder"* %0, i64 0, i32 1
  %4 = load i8, i8* %3, align 8, !range !14
  %5 = icmp eq i8 %4, 0
  %6 = select i1 %5, i32 2, i32 6
  %7 = bitcast %"class.mojo::Message"* %2 to i8*
  call void @llvm.lifetime.start.p0i8(i64 120, i8* nonnull %7) #12
  call void @llvm.memset.p0i8.i64(i8* nonnull align 8 %7, i8 -86, i64 120, i1 false)
  call void @_ZN4mojo7MessageC1EjjmmPNSt3__16vectorINS_16ScopedHandleBaseINS_6HandleEEENS1_9allocatorIS5_EEEE(%"class.mojo::Message"* nonnull %2, i32 411519172, i32 %6, i64 0, i64 0, %"class.std::__1::vector"* null) #12
  %8 = getelementptr inbounds %"class.mojo::Message", %"class.mojo::Message"* %2, i64 0, i32 1
  %9 = call i64 @_ZN4mojo8internal6Buffer8AllocateEm(%"class.mojo::internal::Buffer"* %8, i64 8) #12
  %10 = getelementptr inbounds %"class.mojo::Message", %"class.mojo::Message"* %2, i64 0, i32 1, i32 2
  %11 = load i8*, i8** %10, align 8
  %12 = getelementptr inbounds i8, i8* %11, i64 %9
  %13 = bitcast i8* %12 to %"class.bluetooth::mojom::internal::ServerSocket_Disconnect_ResponseParams_Data"*
  call void @_ZN9bluetooth5mojom8internal43ServerSocket_Disconnect_ResponseParams_DataC1Ev(%"class.bluetooth::mojom::internal::ServerSocket_Disconnect_ResponseParams_Data"* %13) #12
  %14 = getelementptr inbounds %"class.bluetooth::mojom::ServerSocket_Disconnect_ProxyToResponder", %"class.bluetooth::mojom::ServerSocket_Disconnect_ProxyToResponder"* %0, i64 0, i32 0
  %15 = load i64, i64* %14, align 8
  %16 = bitcast i8** %10 to %"struct.mojo::internal::MessageHeaderV1"**
  %17 = load %"struct.mojo::internal::MessageHeaderV1"*, %"struct.mojo::internal::MessageHeaderV1"** %16, align 8
  %18 = getelementptr inbounds %"struct.mojo::internal::MessageHeaderV1", %"struct.mojo::internal::MessageHeaderV1"* %17, i64 0, i32 1
  store i64 %15, i64* %18, align 1
  %19 = getelementptr inbounds %"class.bluetooth::mojom::ServerSocket_Disconnect_ProxyToResponder", %"class.bluetooth::mojom::ServerSocket_Disconnect_ProxyToResponder"* %0, i64 0, i32 2, i32 0, i32 0, i32 0
  %20 = load %"class.mojo::MessageReceiverWithStatus"*, %"class.mojo::MessageReceiverWithStatus"** %19, align 8
  %21 = getelementptr inbounds %"class.mojo::MessageReceiverWithStatus", %"class.mojo::MessageReceiverWithStatus"* %20, i64 0, i32 0
  %22 = bitcast %"class.mojo::MessageReceiverWithStatus"* %20 to i1 (%"class.mojo::MessageReceiver"*, %"class.mojo::Message"*)***
  %23 = load i1 (%"class.mojo::MessageReceiver"*, %"class.mojo::Message"*)**, i1 (%"class.mojo::MessageReceiver"*, %"class.mojo::Message"*)*** %22, align 8
  %24 = getelementptr inbounds i1 (%"class.mojo::MessageReceiver"*, %"class.mojo::Message"*)*, i1 (%"class.mojo::MessageReceiver"*, %"class.mojo::Message"*)** %23, i64 3
  %25 = load i1 (%"class.mojo::MessageReceiver"*, %"class.mojo::Message"*)*, i1 (%"class.mojo::MessageReceiver"*, %"class.mojo::Message"*)** %24, align 8
  %26 = call zeroext i1 %25(%"class.mojo::MessageReceiver"* %21, %"class.mojo::Message"* nonnull %2) #12
  %27 = load %"class.mojo::MessageReceiverWithStatus"*, %"class.mojo::MessageReceiverWithStatus"** %19, align 8
  store %"class.mojo::MessageReceiverWithStatus"* null, %"class.mojo::MessageReceiverWithStatus"** %19, align 8
  %28 = icmp eq %"class.mojo::MessageReceiverWithStatus"* %27, null
  br i1 %28, label %34, label %29

29:                                               ; preds = %1
  %30 = bitcast %"class.mojo::MessageReceiverWithStatus"* %27 to void (%"class.mojo::MessageReceiverWithStatus"*)***
  %31 = load void (%"class.mojo::MessageReceiverWithStatus"*)**, void (%"class.mojo::MessageReceiverWithStatus"*)*** %30, align 8
  %32 = getelementptr inbounds void (%"class.mojo::MessageReceiverWithStatus"*)*, void (%"class.mojo::MessageReceiverWithStatus"*)** %31, i64 1
  %33 = load void (%"class.mojo::MessageReceiverWithStatus"*)*, void (%"class.mojo::MessageReceiverWithStatus"*)** %32, align 8
  call void %33(%"class.mojo::MessageReceiverWithStatus"* nonnull %27) #12
  br label %34

34:                                               ; preds = %1, %29
  call void @_ZN4mojo7MessageD1Ev(%"class.mojo::Message"* nonnull %2) #12
  call void @llvm.lifetime.end.p0i8(i64 120, i8* nonnull %7) #12
  ret void
}

; Function Attrs: nounwind ssp uwtable
define hidden zeroext i1 @_ZN9bluetooth5mojom42ServerSocket_Disconnect_HandleSyncResponse6AcceptEPN4mojo7MessageE(%"class.bluetooth::mojom::ServerSocket_Disconnect_HandleSyncResponse"* nocapture readonly, %"class.mojo::Message"*) unnamed_addr #0 align 2 {
  %3 = tail call i8* @_ZNK4mojo7Message7payloadEv(%"class.mojo::Message"* %1) #12
  %4 = getelementptr inbounds %"class.bluetooth::mojom::ServerSocket_Disconnect_HandleSyncResponse", %"class.bluetooth::mojom::ServerSocket_Disconnect_HandleSyncResponse"* %0, i64 0, i32 1
  %5 = load i8*, i8** %4, align 8
  store i8 1, i8* %5, align 1
  ret i1 true
}

; Function Attrs: norecurse nounwind readonly ssp uwtable
define hidden zeroext i1 @_ZN9bluetooth5mojom24ServerSocketStubDispatch6AcceptEPNS0_12ServerSocketEPN4mojo7MessageE(%"class.bluetooth::mojom::ServerSocket"* nocapture readnone, %"class.mojo::Message"* nocapture readonly) local_unnamed_addr #7 align 2 {
  ret i1 false
}

; Function Attrs: nounwind ssp uwtable
define hidden zeroext i1 @_ZN9bluetooth5mojom24ServerSocketStubDispatch19AcceptWithResponderEPNS0_12ServerSocketEPN4mojo7MessageENSt3__110unique_ptrINS4_25MessageReceiverWithStatusENS7_14default_deleteIS9_EEEE(%"class.bluetooth::mojom::ServerSocket"*, %"class.mojo::Message"*, %"class.mojo::MessageReceiverWithStatus"*) local_unnamed_addr #0 align 2 {
  %4 = alloca %"class.base::TaskAnnotator::ScopedSetIpcHash", align 8
  %5 = alloca %"class.base::OnceCallback.90", align 8
  %6 = alloca %"class.base::OnceCallback.90", align 8
  %7 = alloca %"class.base::TaskAnnotator::ScopedSetIpcHash", align 8
  %8 = alloca %"class.base::OnceCallback", align 8
  %9 = alloca %"class.base::OnceCallback", align 8
  %10 = ptrtoint %"class.mojo::MessageReceiverWithStatus"* %2 to i64
  %11 = getelementptr inbounds %"class.mojo::Message", %"class.mojo::Message"* %1, i64 0, i32 1, i32 2
  %12 = bitcast i8** %11 to %"struct.mojo::internal::MessageHeader"**
  %13 = load %"struct.mojo::internal::MessageHeader"*, %"struct.mojo::internal::MessageHeader"** %12, align 8
  %14 = getelementptr inbounds %"struct.mojo::internal::MessageHeader", %"struct.mojo::internal::MessageHeader"* %13, i64 0, i32 3
  %15 = load i32, i32* %14, align 1
  %16 = and i32 %15, 4
  %17 = bitcast i8** %11 to %"struct.mojo::internal::MessageHeaderV1"**
  %18 = getelementptr inbounds %"struct.mojo::internal::MessageHeader", %"struct.mojo::internal::MessageHeader"* %13, i64 0, i32 2
  %19 = load i32, i32* %18, align 1
  switch i32 %19, label %80 [
    i32 356813248, label %20
    i32 411519172, label %50
  ]

20:                                               ; preds = %3
  %21 = bitcast %"class.base::TaskAnnotator::ScopedSetIpcHash"* %4 to i8*
  call void @llvm.lifetime.start.p0i8(i64 24, i8* nonnull %21) #12
  call void @llvm.memset.p0i8.i64(i8* nonnull align 8 %21, i8 -86, i64 24, i1 false)
  call void @_ZN4base13TaskAnnotator16ScopedSetIpcHashC1Ej(%"class.base::TaskAnnotator::ScopedSetIpcHash"* nonnull %4, i32 664524157) #12
  %22 = call i8* @_ZNK4mojo7Message7payloadEv(%"class.mojo::Message"* %1) #12
  %23 = bitcast %"class.base::OnceCallback.90"* %5 to i8*
  call void @llvm.lifetime.start.p0i8(i64 8, i8* nonnull %23) #12
  %24 = getelementptr inbounds %"class.base::OnceCallback.90", %"class.base::OnceCallback.90"* %5, i64 0, i32 0, i32 0, i32 0
  %25 = load %"struct.mojo::internal::MessageHeaderV1"*, %"struct.mojo::internal::MessageHeaderV1"** %17, align 8
  %26 = getelementptr inbounds %"struct.mojo::internal::MessageHeaderV1", %"struct.mojo::internal::MessageHeaderV1"* %25, i64 0, i32 1
  %27 = load i64, i64* %26, align 1
  %28 = call i8* @_Znwm(i64 24) #13, !noalias !47
  %29 = lshr exact i32 %16, 2
  %30 = trunc i32 %29 to i8
  %31 = bitcast i8* %28 to i64*
  store i64 %27, i64* %31, align 8, !noalias !47
  %32 = getelementptr inbounds i8, i8* %28, i64 8
  store i8 %30, i8* %32, align 8, !noalias !47
  %33 = getelementptr inbounds i8, i8* %28, i64 16
  %34 = bitcast i8* %33 to i64*
  store i64 %10, i64* %34, align 8, !noalias !47
  %35 = ptrtoint i8* %28 to i64
  %36 = call i8* @_Znwm(i64 56) #13, !noalias !50
  %37 = bitcast i8* %36 to %"class.base::internal::BindStateBase"*
  call void @_ZN4base8internal13BindStateBaseC2EPFvvEPFvPKS1_E(%"class.base::internal::BindStateBase"* nonnull %37, void ()* bitcast (void (%"class.base::internal::BindStateBase"*, %"class.mojo::StructPtr.82"*)* @_ZN4base8internal7InvokerINS0_9BindStateIMN9bluetooth5mojom36ServerSocket_Accept_ProxyToResponderEFvN4mojo9StructPtrINS4_22AcceptConnectionResultEEEEJNSt3__110unique_ptrIS5_NSC_14default_deleteIS5_EEEEEEEFvS9_EE7RunOnceEPNS0_13BindStateBaseEOS9_ to void ()*), void (%"class.base::internal::BindStateBase"*)* nonnull @_ZN4base8internal9BindStateIMN9bluetooth5mojom36ServerSocket_Accept_ProxyToResponderEFvN4mojo9StructPtrINS3_22AcceptConnectionResultEEEEJNSt3__110unique_ptrIS4_NSB_14default_deleteIS4_EEEEEE7DestroyEPKNS0_13BindStateBaseE) #12, !noalias !50
  %38 = getelementptr inbounds i8, i8* %36, i64 32
  %39 = bitcast i8* %38 to <2 x i64>*
  store <2 x i64> <i64 ptrtoint (void (%"class.bluetooth::mojom::ServerSocket_Accept_ProxyToResponder"*, %"class.mojo::StructPtr.82"*)* @_ZN9bluetooth5mojom36ServerSocket_Accept_ProxyToResponder3RunEN4mojo9StructPtrINS0_22AcceptConnectionResultEEE to i64), i64 0>, <2 x i64>* %39, align 8, !noalias !50
  %40 = getelementptr inbounds i8, i8* %36, i64 48
  %41 = bitcast i8* %40 to i64*
  store i64 %35, i64* %41, align 8, !noalias !50
  %42 = ptrtoint i8* %36 to i64
  %43 = bitcast %"class.base::OnceCallback.90"* %6 to i64*
  store i64 %42, i64* %43, align 8
  store %"class.base::internal::BindStateBase"* null, %"class.base::internal::BindStateBase"** %24, align 8
  %44 = bitcast %"class.bluetooth::mojom::ServerSocket"* %0 to void (%"class.bluetooth::mojom::ServerSocket"*, %"class.base::OnceCallback.90"*)***
  %45 = load void (%"class.bluetooth::mojom::ServerSocket"*, %"class.base::OnceCallback.90"*)**, void (%"class.bluetooth::mojom::ServerSocket"*, %"class.base::OnceCallback.90"*)*** %44, align 8
  %46 = getelementptr inbounds void (%"class.bluetooth::mojom::ServerSocket"*, %"class.base::OnceCallback.90"*)*, void (%"class.bluetooth::mojom::ServerSocket"*, %"class.base::OnceCallback.90"*)** %45, i64 3
  %47 = load void (%"class.bluetooth::mojom::ServerSocket"*, %"class.base::OnceCallback.90"*)*, void (%"class.bluetooth::mojom::ServerSocket"*, %"class.base::OnceCallback.90"*)** %46, align 8
  call void %47(%"class.bluetooth::mojom::ServerSocket"* %0, %"class.base::OnceCallback.90"* nonnull %6) #12
  %48 = getelementptr inbounds %"class.base::OnceCallback.90", %"class.base::OnceCallback.90"* %6, i64 0, i32 0
  call void @_ZN4base8internal12CallbackBaseD2Ev(%"class.base::internal::CallbackBase"* nonnull %48) #12
  %49 = getelementptr inbounds %"class.base::OnceCallback.90", %"class.base::OnceCallback.90"* %5, i64 0, i32 0
  call void @_ZN4base8internal12CallbackBaseD2Ev(%"class.base::internal::CallbackBase"* nonnull %49) #12
  call void @llvm.lifetime.end.p0i8(i64 8, i8* nonnull %23) #12
  call void @_ZN4base13TaskAnnotator16ScopedSetIpcHashD1Ev(%"class.base::TaskAnnotator::ScopedSetIpcHash"* nonnull %4) #12
  call void @llvm.lifetime.end.p0i8(i64 24, i8* nonnull %21) #12
  br label %87

50:                                               ; preds = %3
  %51 = bitcast %"class.base::TaskAnnotator::ScopedSetIpcHash"* %7 to i8*
  call void @llvm.lifetime.start.p0i8(i64 24, i8* nonnull %51) #12
  call void @llvm.memset.p0i8.i64(i8* nonnull align 8 %51, i8 -86, i64 24, i1 false)
  call void @_ZN4base13TaskAnnotator16ScopedSetIpcHashC1Ej(%"class.base::TaskAnnotator::ScopedSetIpcHash"* nonnull %7, i32 -337461393) #12
  %52 = call i8* @_ZNK4mojo7Message7payloadEv(%"class.mojo::Message"* %1) #12
  %53 = bitcast %"class.base::OnceCallback"* %8 to i8*
  call void @llvm.lifetime.start.p0i8(i64 8, i8* nonnull %53) #12
  %54 = getelementptr inbounds %"class.base::OnceCallback", %"class.base::OnceCallback"* %8, i64 0, i32 0, i32 0, i32 0
  %55 = load %"struct.mojo::internal::MessageHeaderV1"*, %"struct.mojo::internal::MessageHeaderV1"** %17, align 8
  %56 = getelementptr inbounds %"struct.mojo::internal::MessageHeaderV1", %"struct.mojo::internal::MessageHeaderV1"* %55, i64 0, i32 1
  %57 = load i64, i64* %56, align 1
  %58 = call i8* @_Znwm(i64 24) #13, !noalias !55
  %59 = lshr exact i32 %16, 2
  %60 = trunc i32 %59 to i8
  %61 = bitcast i8* %58 to i64*
  store i64 %57, i64* %61, align 8, !noalias !55
  %62 = getelementptr inbounds i8, i8* %58, i64 8
  store i8 %60, i8* %62, align 8, !noalias !55
  %63 = getelementptr inbounds i8, i8* %58, i64 16
  %64 = bitcast i8* %63 to i64*
  store i64 %10, i64* %64, align 8, !noalias !55
  %65 = ptrtoint i8* %58 to i64
  %66 = call i8* @_Znwm(i64 56) #13, !noalias !58
  %67 = bitcast i8* %66 to %"class.base::internal::BindStateBase"*
  call void @_ZN4base8internal13BindStateBaseC2EPFvvEPFvPKS1_E(%"class.base::internal::BindStateBase"* nonnull %67, void ()* bitcast (void (%"class.base::internal::BindStateBase"*)* @_ZN4base8internal7InvokerINS0_9BindStateIMN9bluetooth5mojom40ServerSocket_Disconnect_ProxyToResponderEFvvEJNSt3__110unique_ptrIS5_NS8_14default_deleteIS5_EEEEEEEFvvEE7RunOnceEPNS0_13BindStateBaseE to void ()*), void (%"class.base::internal::BindStateBase"*)* nonnull @_ZN4base8internal9BindStateIMN9bluetooth5mojom40ServerSocket_Disconnect_ProxyToResponderEFvvEJNSt3__110unique_ptrIS4_NS7_14default_deleteIS4_EEEEEE7DestroyEPKNS0_13BindStateBaseE) #12, !noalias !58
  %68 = getelementptr inbounds i8, i8* %66, i64 32
  %69 = bitcast i8* %68 to <2 x i64>*
  store <2 x i64> <i64 ptrtoint (void (%"class.bluetooth::mojom::ServerSocket_Disconnect_ProxyToResponder"*)* @_ZN9bluetooth5mojom40ServerSocket_Disconnect_ProxyToResponder3RunEv to i64), i64 0>, <2 x i64>* %69, align 8, !noalias !58
  %70 = getelementptr inbounds i8, i8* %66, i64 48
  %71 = bitcast i8* %70 to i64*
  store i64 %65, i64* %71, align 8, !noalias !58
  %72 = ptrtoint i8* %66 to i64
  %73 = bitcast %"class.base::OnceCallback"* %9 to i64*
  store i64 %72, i64* %73, align 8
  store %"class.base::internal::BindStateBase"* null, %"class.base::internal::BindStateBase"** %54, align 8
  %74 = bitcast %"class.bluetooth::mojom::ServerSocket"* %0 to void (%"class.bluetooth::mojom::ServerSocket"*, %"class.base::OnceCallback"*)***
  %75 = load void (%"class.bluetooth::mojom::ServerSocket"*, %"class.base::OnceCallback"*)**, void (%"class.bluetooth::mojom::ServerSocket"*, %"class.base::OnceCallback"*)*** %74, align 8
  %76 = getelementptr inbounds void (%"class.bluetooth::mojom::ServerSocket"*, %"class.base::OnceCallback"*)*, void (%"class.bluetooth::mojom::ServerSocket"*, %"class.base::OnceCallback"*)** %75, i64 5
  %77 = load void (%"class.bluetooth::mojom::ServerSocket"*, %"class.base::OnceCallback"*)*, void (%"class.bluetooth::mojom::ServerSocket"*, %"class.base::OnceCallback"*)** %76, align 8
  call void %77(%"class.bluetooth::mojom::ServerSocket"* %0, %"class.base::OnceCallback"* nonnull %9) #12
  %78 = getelementptr inbounds %"class.base::OnceCallback", %"class.base::OnceCallback"* %9, i64 0, i32 0
  call void @_ZN4base8internal12CallbackBaseD2Ev(%"class.base::internal::CallbackBase"* nonnull %78) #12
  %79 = getelementptr inbounds %"class.base::OnceCallback", %"class.base::OnceCallback"* %8, i64 0, i32 0
  call void @_ZN4base8internal12CallbackBaseD2Ev(%"class.base::internal::CallbackBase"* nonnull %79) #12
  call void @llvm.lifetime.end.p0i8(i64 8, i8* nonnull %53) #12
  call void @_ZN4base13TaskAnnotator16ScopedSetIpcHashD1Ev(%"class.base::TaskAnnotator::ScopedSetIpcHash"* nonnull %7) #12
  call void @llvm.lifetime.end.p0i8(i64 24, i8* nonnull %51) #12
  br label %87

80:                                               ; preds = %3
  %81 = icmp eq %"class.mojo::MessageReceiverWithStatus"* %2, null
  br i1 %81, label %87, label %82

82:                                               ; preds = %80
  %83 = bitcast %"class.mojo::MessageReceiverWithStatus"* %2 to void (%"class.mojo::MessageReceiverWithStatus"*)***
  %84 = load void (%"class.mojo::MessageReceiverWithStatus"*)**, void (%"class.mojo::MessageReceiverWithStatus"*)*** %83, align 8
  %85 = getelementptr inbounds void (%"class.mojo::MessageReceiverWithStatus"*)*, void (%"class.mojo::MessageReceiverWithStatus"*)** %84, i64 1
  %86 = load void (%"class.mojo::MessageReceiverWithStatus"*)*, void (%"class.mojo::MessageReceiverWithStatus"*)** %85, align 8
  tail call void %86(%"class.mojo::MessageReceiverWithStatus"* nonnull %2) #12
  br label %87

87:                                               ; preds = %20, %50, %80, %82
  %88 = phi i1 [ false, %80 ], [ false, %82 ], [ true, %50 ], [ true, %20 ]
  ret i1 %88
}

; Function Attrs: nounwind ssp uwtable
define hidden zeroext i1 @_ZN9bluetooth5mojom28ServerSocketRequestValidator6AcceptEPN4mojo7MessageE(%"class.bluetooth::mojom::ServerSocketRequestValidator"* nocapture readnone, %"class.mojo::Message"*) unnamed_addr #0 align 2 {
  %3 = tail call zeroext i1 @_ZN4mojo8internal22ValidateRequestGenericEPNS_7MessageEPKcN4base4spanIKNSt3__14pairIjNS0_21GenericValidationInfoEEELm18446744073709551615EEE(%"class.mojo::Message"* %1, i8* getelementptr inbounds ([29 x i8], [29 x i8]* @_ZN9bluetooth5mojom12ServerSocket5Name_E, i64 0, i64 0), i64 2, %"struct.std::__1::pair.74"* getelementptr inbounds ([2 x %"struct.std::__1::pair.74"], [2 x %"struct.std::__1::pair.74"]* @_ZN9bluetooth5mojomL27kServerSocketValidationInfoE, i64 0, i64 0)) #12
  ret i1 %3
}

; Function Attrs: nounwind ssp uwtable
define hidden zeroext i1 @_ZN9bluetooth5mojom29ServerSocketResponseValidator6AcceptEPN4mojo7MessageE(%"class.bluetooth::mojom::ServerSocketResponseValidator"* nocapture readnone, %"class.mojo::Message"*) unnamed_addr #0 align 2 {
  %3 = tail call zeroext i1 @_ZN4mojo8internal23ValidateResponseGenericEPNS_7MessageEPKcN4base4spanIKNSt3__14pairIjNS0_21GenericValidationInfoEEELm18446744073709551615EEE(%"class.mojo::Message"* %1, i8* getelementptr inbounds ([29 x i8], [29 x i8]* @_ZN9bluetooth5mojom12ServerSocket5Name_E, i64 0, i64 0), i64 2, %"struct.std::__1::pair.74"* getelementptr inbounds ([2 x %"struct.std::__1::pair.74"], [2 x %"struct.std::__1::pair.74"]* @_ZN9bluetooth5mojomL27kServerSocketValidationInfoE, i64 0, i64 0)) #12
  ret i1 %3
}

; Function Attrs: norecurse nounwind readnone ssp uwtable
define hidden zeroext i1 @_ZN9bluetooth5mojom7Adapter7GetInfoEPN4mojo9StructPtrINS0_11AdapterInfoEEE(%"class.bluetooth::mojom::Adapter"* nocapture readnone, %"class.mojo::StructPtr.96"* nocapture readnone) unnamed_addr #3 align 2 {
  ret i1 false
}

; Function Attrs: norecurse nounwind readnone ssp uwtable
define hidden zeroext i1 @_ZN9bluetooth5mojom7Adapter11AddObserverEN4mojo13PendingRemoteINS0_15AdapterObserverEEE(%"class.bluetooth::mojom::Adapter"* nocapture readnone, %"class.mojo::PendingRemote.103"* nocapture readnone) unnamed_addr #3 align 2 {
  ret i1 false
}

; Function Attrs: norecurse nounwind readnone ssp uwtable
define hidden zeroext i1 @_ZN9bluetooth5mojom7Adapter21RegisterAdvertisementERKN6device13BluetoothUUIDERKNSt3__16vectorIhNS6_9allocatorIhEEEEbPN4mojo13PendingRemoteINS0_13AdvertisementEEE(%"class.bluetooth::mojom::Adapter"* nocapture readnone, %"class.device::BluetoothUUID"* nocapture readnone dereferenceable(56), %"class.std::__1::vector.104"* nocapture readnone dereferenceable(24), i1 zeroext, %"class.mojo::PendingRemote.111"* nocapture readnone) unnamed_addr #3 align 2 {
  ret i1 false
}

; Function Attrs: norecurse nounwind readnone ssp uwtable
define hidden zeroext i1 @_ZN9bluetooth5mojom7Adapter15SetDiscoverableEbPb(%"class.bluetooth::mojom::Adapter"* nocapture readnone, i1 zeroext, i8* nocapture readnone) unnamed_addr #3 align 2 {
  ret i1 false
}

; Function Attrs: norecurse nounwind readnone ssp uwtable
define hidden zeroext i1 @_ZN9bluetooth5mojom7Adapter7SetNameERKNSt3__112basic_stringIcNS2_11char_traitsIcEENS2_9allocatorIcEEEEPb(%"class.bluetooth::mojom::Adapter"* nocapture readnone, %"class.std::__1::basic_string"* nocapture readnone dereferenceable(24), i8* nocapture readnone) unnamed_addr #3 align 2 {
  ret i1 false
}

; Function Attrs: norecurse nounwind readnone ssp uwtable
define hidden zeroext i1 @_ZN9bluetooth5mojom7Adapter21StartDiscoverySessionEPN4mojo13PendingRemoteINS0_16DiscoverySessionEEE(%"class.bluetooth::mojom::Adapter"* nocapture readnone, %"class.mojo::PendingRemote.112"* nocapture readnone) unnamed_addr #3 align 2 {
  ret i1 false
}

; Function Attrs: norecurse nounwind readnone ssp uwtable
define hidden zeroext i1 @_ZN9bluetooth5mojom7Adapter26ConnectToServiceInsecurelyERKNSt3__112basic_stringIcNS2_11char_traitsIcEENS2_9allocatorIcEEEERKN6device13BluetoothUUIDEPN4mojo9StructPtrINS0_22ConnectToServiceResultEEE(%"class.bluetooth::mojom::Adapter"* nocapture readnone, %"class.std::__1::basic_string"* nocapture readnone dereferenceable(24), %"class.device::BluetoothUUID"* nocapture readnone dereferenceable(56), %"class.mojo::StructPtr.113"* nocapture readnone) unnamed_addr #3 align 2 {
  ret i1 false
}

; Function Attrs: norecurse nounwind readnone ssp uwtable
define hidden zeroext i1 @_ZN9bluetooth5mojom7Adapter29CreateRfcommServiceInsecurelyERKNSt3__112basic_stringIcNS2_11char_traitsIcEENS2_9allocatorIcEEEERKN6device13BluetoothUUIDEPN4mojo13PendingRemoteINS0_12ServerSocketEEE(%"class.bluetooth::mojom::Adapter"* nocapture readnone, %"class.std::__1::basic_string"* nocapture readnone dereferenceable(24), %"class.device::BluetoothUUID"* nocapture readnone dereferenceable(56), %"class.mojo::PendingRemote.120"* nocapture readnone) unnamed_addr #3 align 2 {
  ret i1 false
}

; Function Attrs: nofree norecurse nounwind ssp uwtable writeonly
define hidden void @_ZN9bluetooth5mojom12AdapterProxyC2EPN4mojo28MessageReceiverWithResponderE(%"class.bluetooth::mojom::AdapterProxy"* nocapture, %"class.mojo::MessageReceiverWithResponder"*) unnamed_addr #4 align 2 {
  %3 = getelementptr inbounds %"class.bluetooth::mojom::AdapterProxy", %"class.bluetooth::mojom::AdapterProxy"* %0, i64 0, i32 0, i32 0
  store i32 (...)** bitcast (i8** getelementptr inbounds ({ [22 x i8*] }, { [22 x i8*] }* @_ZTVN9bluetooth5mojom12AdapterProxyE, i64 0, inrange i32 0, i64 2) to i32 (...)**), i32 (...)*** %3, align 8
  %4 = getelementptr inbounds %"class.bluetooth::mojom::AdapterProxy", %"class.bluetooth::mojom::AdapterProxy"* %0, i64 0, i32 1
  store %"class.mojo::MessageReceiverWithResponder"* %1, %"class.mojo::MessageReceiverWithResponder"** %4, align 8
  ret void
}

; Function Attrs: nounwind ssp uwtable
define hidden void @_ZN9bluetooth5mojom12AdapterProxy15ConnectToDeviceERKNSt3__112basic_stringIcNS2_11char_traitsIcEENS2_9allocatorIcEEEEN4base12OnceCallbackIFvNS0_13ConnectResultEN4mojo13PendingRemoteINS0_6DeviceEEEEEE(%"class.bluetooth::mojom::AdapterProxy"* nocapture readonly, %"class.std::__1::basic_string"* dereferenceable(24), %"class.base::OnceCallback.121"* nocapture) unnamed_addr #0 align 2 {
  %4 = alloca %"class.mojo::Message", align 8
  %5 = alloca %"class.mojo::internal::MessageFragment.123", align 8
  %6 = alloca %"class.base::OnceCallback.121", align 8
  %7 = bitcast %"class.mojo::Message"* %4 to i8*
  call void @llvm.lifetime.start.p0i8(i64 120, i8* nonnull %7) #12
  call void @llvm.memset.p0i8.i64(i8* nonnull align 8 %7, i8 -86, i64 120, i1 false)
  call void @_ZN4mojo7MessageC1EjjmmPNSt3__16vectorINS_16ScopedHandleBaseINS_6HandleEEENS1_9allocatorIS5_EEEE(%"class.mojo::Message"* nonnull %4, i32 2016808551, i32 1, i64 0, i64 0, %"class.std::__1::vector"* null) #12
  %8 = getelementptr inbounds %"class.mojo::Message", %"class.mojo::Message"* %4, i64 0, i32 1
  %9 = call i64 @_ZN4mojo8internal6Buffer8AllocateEm(%"class.mojo::internal::Buffer"* %8, i64 16) #12
  %10 = getelementptr inbounds %"class.mojo::Message", %"class.mojo::Message"* %4, i64 0, i32 1, i32 2
  %11 = load i8*, i8** %10, align 8
  %12 = getelementptr inbounds i8, i8* %11, i64 %9
  %13 = bitcast i8* %12 to %"class.bluetooth::mojom::internal::Adapter_ConnectToDevice_Params_Data"*
  call void @_ZN9bluetooth5mojom8internal35Adapter_ConnectToDevice_Params_DataC1Ev(%"class.bluetooth::mojom::internal::Adapter_ConnectToDevice_Params_Data"* %13) #12
  %14 = bitcast %"class.mojo::internal::MessageFragment.123"* %5 to i8*
  call void @llvm.lifetime.start.p0i8(i64 16, i8* nonnull %14) #12
  %15 = getelementptr inbounds %"class.mojo::internal::MessageFragment.123", %"class.mojo::internal::MessageFragment.123"* %5, i64 0, i32 0
  %16 = getelementptr inbounds %"class.mojo::internal::MessageFragment.123", %"class.mojo::internal::MessageFragment.123"* %5, i64 0, i32 1
  store %"class.mojo::Message"* %4, %"class.mojo::Message"** %15, align 8
  store i64 -1, i64* %16, align 8
  call void @_ZN4mojo8internal10SerializerINS_14StringDataViewEKNSt3__112basic_stringIcNS3_11char_traitsIcEENS3_9allocatorIcEEEEE9SerializeERSA_RNS0_15MessageFragmentINS0_10Array_DataIcEEEE(%"class.std::__1::basic_string"* dereferenceable(24) %1, %"class.mojo::internal::MessageFragment.123"* nonnull dereferenceable(16) %5) #12
  %17 = load i8*, i8** %10, align 8
  %18 = getelementptr inbounds i8, i8* %17, i64 %9
  %19 = getelementptr inbounds i8, i8* %18, i64 8
  %20 = load i64, i64* %16, align 8
  %21 = icmp eq i64 %20, -1
  br i1 %21, label %28, label %22

22:                                               ; preds = %3
  %23 = load %"class.mojo::Message"*, %"class.mojo::Message"** %15, align 8
  %24 = getelementptr inbounds %"class.mojo::Message", %"class.mojo::Message"* %23, i64 0, i32 1, i32 2
  %25 = load i8*, i8** %24, align 8
  %26 = getelementptr inbounds i8, i8* %25, i64 %20
  %27 = bitcast i8* %26 to %"class.mojo::internal::Array_Data"*
  br label %28

28:                                               ; preds = %22, %3
  %29 = phi %"class.mojo::internal::Array_Data"* [ %27, %22 ], [ null, %3 ]
  %30 = bitcast i8* %19 to i64*
  %31 = icmp eq %"class.mojo::internal::Array_Data"* %29, null
  %32 = ptrtoint %"class.mojo::internal::Array_Data"* %29 to i64
  %33 = ptrtoint i8* %19 to i64
  %34 = sub i64 %32, %33
  %35 = select i1 %31, i64 0, i64 %34
  store i64 %35, i64* %30, align 8
  %36 = call i8* @_Znwm(i64 16) #13
  %37 = getelementptr inbounds %"class.base::OnceCallback.121", %"class.base::OnceCallback.121"* %2, i64 0, i32 0, i32 0, i32 0
  %38 = bitcast %"class.base::OnceCallback.121"* %2 to i64*
  %39 = load i64, i64* %38, align 8
  store %"class.base::internal::BindStateBase"* null, %"class.base::internal::BindStateBase"** %37, align 8
  %40 = bitcast i8* %36 to i32 (...)***
  store i32 (...)** bitcast (i8** getelementptr inbounds ({ [6 x i8*] }, { [6 x i8*] }* @_ZTVN9bluetooth5mojom41Adapter_ConnectToDevice_ForwardToCallbackE, i64 0, inrange i32 0, i64 2) to i32 (...)**), i32 (...)*** %40, align 8
  %41 = getelementptr inbounds i8, i8* %36, i64 8
  %42 = getelementptr inbounds %"class.base::OnceCallback.121", %"class.base::OnceCallback.121"* %6, i64 0, i32 0, i32 0, i32 0
  %43 = bitcast i8* %41 to i64*
  store i64 %39, i64* %43, align 8
  store %"class.base::internal::BindStateBase"* null, %"class.base::internal::BindStateBase"** %42, align 8
  %44 = bitcast i8* %36 to %"class.mojo::MessageReceiver"*
  %45 = getelementptr inbounds %"class.base::OnceCallback.121", %"class.base::OnceCallback.121"* %6, i64 0, i32 0
  call void @_ZN4base8internal12CallbackBaseD2Ev(%"class.base::internal::CallbackBase"* nonnull %45) #12
  %46 = getelementptr inbounds %"class.bluetooth::mojom::AdapterProxy", %"class.bluetooth::mojom::AdapterProxy"* %0, i64 0, i32 1
  %47 = load %"class.mojo::MessageReceiverWithResponder"*, %"class.mojo::MessageReceiverWithResponder"** %46, align 8
  %48 = bitcast %"class.mojo::MessageReceiverWithResponder"* %47 to i1 (%"class.mojo::MessageReceiverWithResponder"*, %"class.mojo::Message"*, %"class.mojo::MessageReceiver"*)***
  %49 = load i1 (%"class.mojo::MessageReceiverWithResponder"*, %"class.mojo::Message"*, %"class.mojo::MessageReceiver"*)**, i1 (%"class.mojo::MessageReceiverWithResponder"*, %"class.mojo::Message"*, %"class.mojo::MessageReceiver"*)*** %48, align 8
  %50 = getelementptr inbounds i1 (%"class.mojo::MessageReceiverWithResponder"*, %"class.mojo::Message"*, %"class.mojo::MessageReceiver"*)*, i1 (%"class.mojo::MessageReceiverWithResponder"*, %"class.mojo::Message"*, %"class.mojo::MessageReceiver"*)** %49, i64 4
  %51 = load i1 (%"class.mojo::MessageReceiverWithResponder"*, %"class.mojo::Message"*, %"class.mojo::MessageReceiver"*)*, i1 (%"class.mojo::MessageReceiverWithResponder"*, %"class.mojo::Message"*, %"class.mojo::MessageReceiver"*)** %50, align 8
  %52 = call zeroext i1 %51(%"class.mojo::MessageReceiverWithResponder"* %47, %"class.mojo::Message"* nonnull %4, %"class.mojo::MessageReceiver"* nonnull %44) #12
  call void @llvm.lifetime.end.p0i8(i64 16, i8* nonnull %14) #12
  call void @_ZN4mojo7MessageD1Ev(%"class.mojo::Message"* nonnull %4) #12
  call void @llvm.lifetime.end.p0i8(i64 120, i8* nonnull %7) #12
  ret void
}

; Function Attrs: nounwind ssp uwtable
define hidden void @_ZN9bluetooth5mojom12AdapterProxy10GetDevicesEN4base12OnceCallbackIFvNSt3__16vectorIN4mojo9StructPtrINS0_10DeviceInfoEEENS4_9allocatorIS9_EEEEEEE(%"class.bluetooth::mojom::AdapterProxy"* nocapture readonly, %"class.base::OnceCallback.125"* nocapture) unnamed_addr #0 align 2 {
  %3 = alloca %"class.mojo::Message", align 8
  %4 = alloca %"class.base::OnceCallback.125", align 8
  %5 = bitcast %"class.mojo::Message"* %3 to i8*
  call void @llvm.lifetime.start.p0i8(i64 120, i8* nonnull %5) #12
  call void @llvm.memset.p0i8.i64(i8* nonnull align 8 %5, i8 -86, i64 120, i1 false)
  call void @_ZN4mojo7MessageC1EjjmmPNSt3__16vectorINS_16ScopedHandleBaseINS_6HandleEEENS1_9allocatorIS5_EEEE(%"class.mojo::Message"* nonnull %3, i32 542221953, i32 1, i64 0, i64 0, %"class.std::__1::vector"* null) #12
  %6 = getelementptr inbounds %"class.mojo::Message", %"class.mojo::Message"* %3, i64 0, i32 1
  %7 = call i64 @_ZN4mojo8internal6Buffer8AllocateEm(%"class.mojo::internal::Buffer"* %6, i64 8) #12
  %8 = getelementptr inbounds %"class.mojo::Message", %"class.mojo::Message"* %3, i64 0, i32 1, i32 2
  %9 = load i8*, i8** %8, align 8
  %10 = getelementptr inbounds i8, i8* %9, i64 %7
  %11 = bitcast i8* %10 to %"class.bluetooth::mojom::internal::Adapter_GetDevices_Params_Data"*
  call void @_ZN9bluetooth5mojom8internal30Adapter_GetDevices_Params_DataC1Ev(%"class.bluetooth::mojom::internal::Adapter_GetDevices_Params_Data"* %11) #12
  %12 = call i8* @_Znwm(i64 16) #13
  %13 = getelementptr inbounds %"class.base::OnceCallback.125", %"class.base::OnceCallback.125"* %1, i64 0, i32 0, i32 0, i32 0
  %14 = bitcast %"class.base::OnceCallback.125"* %1 to i64*
  %15 = load i64, i64* %14, align 8
  store %"class.base::internal::BindStateBase"* null, %"class.base::internal::BindStateBase"** %13, align 8
  %16 = bitcast i8* %12 to i32 (...)***
  store i32 (...)** bitcast (i8** getelementptr inbounds ({ [6 x i8*] }, { [6 x i8*] }* @_ZTVN9bluetooth5mojom36Adapter_GetDevices_ForwardToCallbackE, i64 0, inrange i32 0, i64 2) to i32 (...)**), i32 (...)*** %16, align 8
  %17 = getelementptr inbounds i8, i8* %12, i64 8
  %18 = getelementptr inbounds %"class.base::OnceCallback.125", %"class.base::OnceCallback.125"* %4, i64 0, i32 0, i32 0, i32 0
  %19 = bitcast i8* %17 to i64*
  store i64 %15, i64* %19, align 8
  store %"class.base::internal::BindStateBase"* null, %"class.base::internal::BindStateBase"** %18, align 8
  %20 = bitcast i8* %12 to %"class.mojo::MessageReceiver"*
  %21 = getelementptr inbounds %"class.base::OnceCallback.125", %"class.base::OnceCallback.125"* %4, i64 0, i32 0
  call void @_ZN4base8internal12CallbackBaseD2Ev(%"class.base::internal::CallbackBase"* nonnull %21) #12
  %22 = getelementptr inbounds %"class.bluetooth::mojom::AdapterProxy", %"class.bluetooth::mojom::AdapterProxy"* %0, i64 0, i32 1
  %23 = load %"class.mojo::MessageReceiverWithResponder"*, %"class.mojo::MessageReceiverWithResponder"** %22, align 8
  %24 = bitcast %"class.mojo::MessageReceiverWithResponder"* %23 to i1 (%"class.mojo::MessageReceiverWithResponder"*, %"class.mojo::Message"*, %"class.mojo::MessageReceiver"*)***
  %25 = load i1 (%"class.mojo::MessageReceiverWithResponder"*, %"class.mojo::Message"*, %"class.mojo::MessageReceiver"*)**, i1 (%"class.mojo::MessageReceiverWithResponder"*, %"class.mojo::Message"*, %"class.mojo::MessageReceiver"*)*** %24, align 8
  %26 = getelementptr inbounds i1 (%"class.mojo::MessageReceiverWithResponder"*, %"class.mojo::Message"*, %"class.mojo::MessageReceiver"*)*, i1 (%"class.mojo::MessageReceiverWithResponder"*, %"class.mojo::Message"*, %"class.mojo::MessageReceiver"*)** %25, i64 4
  %27 = load i1 (%"class.mojo::MessageReceiverWithResponder"*, %"class.mojo::Message"*, %"class.mojo::MessageReceiver"*)*, i1 (%"class.mojo::MessageReceiverWithResponder"*, %"class.mojo::Message"*, %"class.mojo::MessageReceiver"*)** %26, align 8
  %28 = call zeroext i1 %27(%"class.mojo::MessageReceiverWithResponder"* %23, %"class.mojo::Message"* nonnull %3, %"class.mojo::MessageReceiver"* nonnull %20) #12
  call void @_ZN4mojo7MessageD1Ev(%"class.mojo::Message"* nonnull %3) #12
  call void @llvm.lifetime.end.p0i8(i64 120, i8* nonnull %5) #12
  ret void
}

; Function Attrs: nounwind ssp uwtable
define hidden zeroext i1 @_ZN9bluetooth5mojom12AdapterProxy7GetInfoEPN4mojo9StructPtrINS0_11AdapterInfoEEE(%"class.bluetooth::mojom::AdapterProxy"* nocapture readonly, %"class.mojo::StructPtr.96"*) unnamed_addr #0 align 2 {
  %3 = alloca %"class.mojo::Message", align 8
  %4 = alloca i8, align 1
  %5 = bitcast %"class.mojo::Message"* %3 to i8*
  call void @llvm.lifetime.start.p0i8(i64 120, i8* nonnull %5) #12
  call void @llvm.memset.p0i8.i64(i8* nonnull align 8 %5, i8 -86, i64 120, i1 false)
  call void @_ZN4mojo7MessageC1EjjmmPNSt3__16vectorINS_16ScopedHandleBaseINS_6HandleEEENS1_9allocatorIS5_EEEE(%"class.mojo::Message"* nonnull %3, i32 1209785864, i32 5, i64 0, i64 0, %"class.std::__1::vector"* null) #12
  %6 = getelementptr inbounds %"class.mojo::Message", %"class.mojo::Message"* %3, i64 0, i32 1
  %7 = call i64 @_ZN4mojo8internal6Buffer8AllocateEm(%"class.mojo::internal::Buffer"* %6, i64 8) #12
  %8 = getelementptr inbounds %"class.mojo::Message", %"class.mojo::Message"* %3, i64 0, i32 1, i32 2
  %9 = load i8*, i8** %8, align 8
  %10 = getelementptr inbounds i8, i8* %9, i64 %7
  %11 = bitcast i8* %10 to %"class.bluetooth::mojom::internal::Adapter_GetInfo_Params_Data"*
  call void @_ZN9bluetooth5mojom8internal27Adapter_GetInfo_Params_DataC1Ev(%"class.bluetooth::mojom::internal::Adapter_GetInfo_Params_Data"* %11) #12
  call void @llvm.lifetime.start.p0i8(i64 1, i8* nonnull %4) #12
  store i8 0, i8* %4, align 1
  %12 = call i8* @_Znwm(i64 24) #13
  %13 = bitcast i8* %12 to i32 (...)***
  store i32 (...)** bitcast (i8** getelementptr inbounds ({ [6 x i8*] }, { [6 x i8*] }* @_ZTVN9bluetooth5mojom34Adapter_GetInfo_HandleSyncResponseE, i64 0, inrange i32 0, i64 2) to i32 (...)**), i32 (...)*** %13, align 8
  %14 = getelementptr inbounds i8, i8* %12, i64 8
  %15 = bitcast i8* %14 to i8**
  store i8* %4, i8** %15, align 8
  %16 = getelementptr inbounds i8, i8* %12, i64 16
  %17 = bitcast i8* %16 to %"class.mojo::StructPtr.96"**
  store %"class.mojo::StructPtr.96"* %1, %"class.mojo::StructPtr.96"** %17, align 8
  %18 = bitcast i8* %12 to %"class.mojo::MessageReceiver"*
  %19 = getelementptr inbounds %"class.bluetooth::mojom::AdapterProxy", %"class.bluetooth::mojom::AdapterProxy"* %0, i64 0, i32 1
  %20 = load %"class.mojo::MessageReceiverWithResponder"*, %"class.mojo::MessageReceiverWithResponder"** %19, align 8
  %21 = bitcast %"class.mojo::MessageReceiverWithResponder"* %20 to i1 (%"class.mojo::MessageReceiverWithResponder"*, %"class.mojo::Message"*, %"class.mojo::MessageReceiver"*)***
  %22 = load i1 (%"class.mojo::MessageReceiverWithResponder"*, %"class.mojo::Message"*, %"class.mojo::MessageReceiver"*)**, i1 (%"class.mojo::MessageReceiverWithResponder"*, %"class.mojo::Message"*, %"class.mojo::MessageReceiver"*)*** %21, align 8
  %23 = getelementptr inbounds i1 (%"class.mojo::MessageReceiverWithResponder"*, %"class.mojo::Message"*, %"class.mojo::MessageReceiver"*)*, i1 (%"class.mojo::MessageReceiverWithResponder"*, %"class.mojo::Message"*, %"class.mojo::MessageReceiver"*)** %22, i64 4
  %24 = load i1 (%"class.mojo::MessageReceiverWithResponder"*, %"class.mojo::Message"*, %"class.mojo::MessageReceiver"*)*, i1 (%"class.mojo::MessageReceiverWithResponder"*, %"class.mojo::Message"*, %"class.mojo::MessageReceiver"*)** %23, align 8
  %25 = call zeroext i1 %24(%"class.mojo::MessageReceiverWithResponder"* %20, %"class.mojo::Message"* nonnull %3, %"class.mojo::MessageReceiver"* nonnull %18) #12
  %26 = load i8, i8* %4, align 1, !range !14
  %27 = icmp ne i8 %26, 0
  call void @llvm.lifetime.end.p0i8(i64 1, i8* nonnull %4) #12
  call void @_ZN4mojo7MessageD1Ev(%"class.mojo::Message"* nonnull %3) #12
  call void @llvm.lifetime.end.p0i8(i64 120, i8* nonnull %5) #12
  ret i1 %27
}

; Function Attrs: nounwind ssp uwtable
define hidden void @_ZN9bluetooth5mojom12AdapterProxy7GetInfoEN4base12OnceCallbackIFvN4mojo9StructPtrINS0_11AdapterInfoEEEEEE(%"class.bluetooth::mojom::AdapterProxy"* nocapture readonly, %"class.base::OnceCallback.128"* nocapture) unnamed_addr #0 align 2 {
  %3 = alloca %"class.mojo::Message", align 8
  %4 = alloca %"class.base::OnceCallback.128", align 8
  %5 = bitcast %"class.mojo::Message"* %3 to i8*
  call void @llvm.lifetime.start.p0i8(i64 120, i8* nonnull %5) #12
  call void @llvm.memset.p0i8.i64(i8* nonnull align 8 %5, i8 -86, i64 120, i1 false)
  call void @_ZN4mojo7MessageC1EjjmmPNSt3__16vectorINS_16ScopedHandleBaseINS_6HandleEEENS1_9allocatorIS5_EEEE(%"class.mojo::Message"* nonnull %3, i32 1209785864, i32 1, i64 0, i64 0, %"class.std::__1::vector"* null) #12
  %6 = getelementptr inbounds %"class.mojo::Message", %"class.mojo::Message"* %3, i64 0, i32 1
  %7 = call i64 @_ZN4mojo8internal6Buffer8AllocateEm(%"class.mojo::internal::Buffer"* %6, i64 8) #12
  %8 = getelementptr inbounds %"class.mojo::Message", %"class.mojo::Message"* %3, i64 0, i32 1, i32 2
  %9 = load i8*, i8** %8, align 8
  %10 = getelementptr inbounds i8, i8* %9, i64 %7
  %11 = bitcast i8* %10 to %"class.bluetooth::mojom::internal::Adapter_GetInfo_Params_Data"*
  call void @_ZN9bluetooth5mojom8internal27Adapter_GetInfo_Params_DataC1Ev(%"class.bluetooth::mojom::internal::Adapter_GetInfo_Params_Data"* %11) #12
  %12 = call i8* @_Znwm(i64 16) #13
  %13 = getelementptr inbounds %"class.base::OnceCallback.128", %"class.base::OnceCallback.128"* %1, i64 0, i32 0, i32 0, i32 0
  %14 = bitcast %"class.base::OnceCallback.128"* %1 to i64*
  %15 = load i64, i64* %14, align 8
  store %"class.base::internal::BindStateBase"* null, %"class.base::internal::BindStateBase"** %13, align 8
  %16 = bitcast i8* %12 to i32 (...)***
  store i32 (...)** bitcast (i8** getelementptr inbounds ({ [6 x i8*] }, { [6 x i8*] }* @_ZTVN9bluetooth5mojom33Adapter_GetInfo_ForwardToCallbackE, i64 0, inrange i32 0, i64 2) to i32 (...)**), i32 (...)*** %16, align 8
  %17 = getelementptr inbounds i8, i8* %12, i64 8
  %18 = getelementptr inbounds %"class.base::OnceCallback.128", %"class.base::OnceCallback.128"* %4, i64 0, i32 0, i32 0, i32 0
  %19 = bitcast i8* %17 to i64*
  store i64 %15, i64* %19, align 8
  store %"class.base::internal::BindStateBase"* null, %"class.base::internal::BindStateBase"** %18, align 8
  %20 = bitcast i8* %12 to %"class.mojo::MessageReceiver"*
  %21 = getelementptr inbounds %"class.base::OnceCallback.128", %"class.base::OnceCallback.128"* %4, i64 0, i32 0
  call void @_ZN4base8internal12CallbackBaseD2Ev(%"class.base::internal::CallbackBase"* nonnull %21) #12
  %22 = getelementptr inbounds %"class.bluetooth::mojom::AdapterProxy", %"class.bluetooth::mojom::AdapterProxy"* %0, i64 0, i32 1
  %23 = load %"class.mojo::MessageReceiverWithResponder"*, %"class.mojo::MessageReceiverWithResponder"** %22, align 8
  %24 = bitcast %"class.mojo::MessageReceiverWithResponder"* %23 to i1 (%"class.mojo::MessageReceiverWithResponder"*, %"class.mojo::Message"*, %"class.mojo::MessageReceiver"*)***
  %25 = load i1 (%"class.mojo::MessageReceiverWithResponder"*, %"class.mojo::Message"*, %"class.mojo::MessageReceiver"*)**, i1 (%"class.mojo::MessageReceiverWithResponder"*, %"class.mojo::Message"*, %"class.mojo::MessageReceiver"*)*** %24, align 8
  %26 = getelementptr inbounds i1 (%"class.mojo::MessageReceiverWithResponder"*, %"class.mojo::Message"*, %"class.mojo::MessageReceiver"*)*, i1 (%"class.mojo::MessageReceiverWithResponder"*, %"class.mojo::Message"*, %"class.mojo::MessageReceiver"*)** %25, i64 4
  %27 = load i1 (%"class.mojo::MessageReceiverWithResponder"*, %"class.mojo::Message"*, %"class.mojo::MessageReceiver"*)*, i1 (%"class.mojo::MessageReceiverWithResponder"*, %"class.mojo::Message"*, %"class.mojo::MessageReceiver"*)** %26, align 8
  %28 = call zeroext i1 %27(%"class.mojo::MessageReceiverWithResponder"* %23, %"class.mojo::Message"* nonnull %3, %"class.mojo::MessageReceiver"* nonnull %20) #12
  call void @_ZN4mojo7MessageD1Ev(%"class.mojo::Message"* nonnull %3) #12
  call void @llvm.lifetime.end.p0i8(i64 120, i8* nonnull %5) #12
  ret void
}

; Function Attrs: nounwind ssp uwtable
define hidden zeroext i1 @_ZN9bluetooth5mojom12AdapterProxy11AddObserverEN4mojo13PendingRemoteINS0_15AdapterObserverEEE(%"class.bluetooth::mojom::AdapterProxy"* nocapture readonly, %"class.mojo::PendingRemote.103"* nocapture) unnamed_addr #0 align 2 {
  %3 = alloca %"class.mojo::ScopedHandleBase", align 4
  %4 = alloca %"class.mojo::Message", align 8
  %5 = alloca i8, align 1
  %6 = bitcast %"class.mojo::Message"* %4 to i8*
  call void @llvm.lifetime.start.p0i8(i64 120, i8* nonnull %6) #12
  call void @llvm.memset.p0i8.i64(i8* nonnull align 8 %6, i8 -86, i64 120, i1 false)
  call void @_ZN4mojo7MessageC1EjjmmPNSt3__16vectorINS_16ScopedHandleBaseINS_6HandleEEENS1_9allocatorIS5_EEEE(%"class.mojo::Message"* nonnull %4, i32 1420854494, i32 5, i64 0, i64 0, %"class.std::__1::vector"* null) #12
  %7 = getelementptr inbounds %"class.mojo::Message", %"class.mojo::Message"* %4, i64 0, i32 1
  %8 = call i64 @_ZN4mojo8internal6Buffer8AllocateEm(%"class.mojo::internal::Buffer"* %7, i64 16) #12
  %9 = getelementptr inbounds %"class.mojo::Message", %"class.mojo::Message"* %4, i64 0, i32 1, i32 2
  %10 = load i8*, i8** %9, align 8
  %11 = getelementptr inbounds i8, i8* %10, i64 %8
  %12 = bitcast i8* %11 to %"class.bluetooth::mojom::internal::Adapter_AddObserver_Params_Data"*
  call void @_ZN9bluetooth5mojom8internal31Adapter_AddObserver_Params_DataC1Ev(%"class.bluetooth::mojom::internal::Adapter_AddObserver_Params_Data"* %12) #12
  %13 = load i8*, i8** %9, align 8
  %14 = getelementptr inbounds i8, i8* %13, i64 %8
  %15 = getelementptr inbounds i8, i8* %14, i64 8
  %16 = bitcast i8* %15 to %"struct.mojo::internal::Interface_Data"*
  %17 = bitcast %"class.mojo::ScopedHandleBase"* %3 to i8*
  call void @llvm.lifetime.start.p0i8(i64 4, i8* nonnull %17) #12
  %18 = getelementptr inbounds %"class.mojo::PendingRemote.103", %"class.mojo::PendingRemote.103"* %1, i64 0, i32 0, i32 1
  %19 = load i32, i32* %18, align 4
  store i32 0, i32* %18, align 4, !noalias !63
  %20 = getelementptr inbounds %"class.mojo::ScopedHandleBase", %"class.mojo::ScopedHandleBase"* %3, i64 0, i32 0, i32 0, i32 0
  %21 = getelementptr inbounds %"class.mojo::PendingRemote.103", %"class.mojo::PendingRemote.103"* %1, i64 0, i32 0, i32 0, i32 0, i32 0, i32 0
  %22 = load i32, i32* %21, align 4, !noalias !66
  store i32 %22, i32* %20, align 4, !alias.scope !66
  store i32 0, i32* %21, align 4, !noalias !66
  call void @_ZN4mojo8internal22SerializeInterfaceInfoENS_16ScopedHandleBaseINS_17MessagePipeHandleEEEjRNS_7MessageERNS0_14Interface_DataE(%"class.mojo::ScopedHandleBase"* nonnull %3, i32 %19, %"class.mojo::Message"* nonnull dereferenceable(120) %4, %"struct.mojo::internal::Interface_Data"* dereferenceable(8) %16) #12
  %23 = load i32, i32* %20, align 4
  %24 = icmp eq i32 %23, 0
  br i1 %24, label %27, label %25

25:                                               ; preds = %2
  %26 = call i32 @MojoClose(i32 %23) #12
  br label %27

27:                                               ; preds = %25, %2
  call void @llvm.lifetime.end.p0i8(i64 4, i8* nonnull %17) #12
  call void @llvm.lifetime.start.p0i8(i64 1, i8* nonnull %5) #12
  store i8 0, i8* %5, align 1
  %28 = call i8* @_Znwm(i64 16) #13
  %29 = bitcast i8* %28 to i32 (...)***
  store i32 (...)** bitcast (i8** getelementptr inbounds ({ [6 x i8*] }, { [6 x i8*] }* @_ZTVN9bluetooth5mojom38Adapter_AddObserver_HandleSyncResponseE, i64 0, inrange i32 0, i64 2) to i32 (...)**), i32 (...)*** %29, align 8
  %30 = getelementptr inbounds i8, i8* %28, i64 8
  %31 = bitcast i8* %30 to i8**
  store i8* %5, i8** %31, align 8
  %32 = bitcast i8* %28 to %"class.mojo::MessageReceiver"*
  %33 = getelementptr inbounds %"class.bluetooth::mojom::AdapterProxy", %"class.bluetooth::mojom::AdapterProxy"* %0, i64 0, i32 1
  %34 = load %"class.mojo::MessageReceiverWithResponder"*, %"class.mojo::MessageReceiverWithResponder"** %33, align 8
  %35 = bitcast %"class.mojo::MessageReceiverWithResponder"* %34 to i1 (%"class.mojo::MessageReceiverWithResponder"*, %"class.mojo::Message"*, %"class.mojo::MessageReceiver"*)***
  %36 = load i1 (%"class.mojo::MessageReceiverWithResponder"*, %"class.mojo::Message"*, %"class.mojo::MessageReceiver"*)**, i1 (%"class.mojo::MessageReceiverWithResponder"*, %"class.mojo::Message"*, %"class.mojo::MessageReceiver"*)*** %35, align 8
  %37 = getelementptr inbounds i1 (%"class.mojo::MessageReceiverWithResponder"*, %"class.mojo::Message"*, %"class.mojo::MessageReceiver"*)*, i1 (%"class.mojo::MessageReceiverWithResponder"*, %"class.mojo::Message"*, %"class.mojo::MessageReceiver"*)** %36, i64 4
  %38 = load i1 (%"class.mojo::MessageReceiverWithResponder"*, %"class.mojo::Message"*, %"class.mojo::MessageReceiver"*)*, i1 (%"class.mojo::MessageReceiverWithResponder"*, %"class.mojo::Message"*, %"class.mojo::MessageReceiver"*)** %37, align 8
  %39 = call zeroext i1 %38(%"class.mojo::MessageReceiverWithResponder"* %34, %"class.mojo::Message"* nonnull %4, %"class.mojo::MessageReceiver"* nonnull %32) #12
  %40 = load i8, i8* %5, align 1, !range !14
  %41 = icmp ne i8 %40, 0
  call void @llvm.lifetime.end.p0i8(i64 1, i8* nonnull %5) #12
  call void @_ZN4mojo7MessageD1Ev(%"class.mojo::Message"* nonnull %4) #12
  call void @llvm.lifetime.end.p0i8(i64 120, i8* nonnull %6) #12
  ret i1 %41
}

; Function Attrs: nounwind ssp uwtable
define hidden void @_ZN9bluetooth5mojom12AdapterProxy11AddObserverEN4mojo13PendingRemoteINS0_15AdapterObserverEEEN4base12OnceCallbackIFvvEEE(%"class.bluetooth::mojom::AdapterProxy"* nocapture readonly, %"class.mojo::PendingRemote.103"* nocapture, %"class.base::OnceCallback"* nocapture) unnamed_addr #0 align 2 {
  %4 = alloca %"class.mojo::ScopedHandleBase", align 4
  %5 = alloca %"class.mojo::Message", align 8
  %6 = alloca %"class.base::OnceCallback", align 8
  %7 = bitcast %"class.mojo::Message"* %5 to i8*
  call void @llvm.lifetime.start.p0i8(i64 120, i8* nonnull %7) #12
  call void @llvm.memset.p0i8.i64(i8* nonnull align 8 %7, i8 -86, i64 120, i1 false)
  call void @_ZN4mojo7MessageC1EjjmmPNSt3__16vectorINS_16ScopedHandleBaseINS_6HandleEEENS1_9allocatorIS5_EEEE(%"class.mojo::Message"* nonnull %5, i32 1420854494, i32 1, i64 0, i64 0, %"class.std::__1::vector"* null) #12
  %8 = getelementptr inbounds %"class.mojo::Message", %"class.mojo::Message"* %5, i64 0, i32 1
  %9 = call i64 @_ZN4mojo8internal6Buffer8AllocateEm(%"class.mojo::internal::Buffer"* %8, i64 16) #12
  %10 = getelementptr inbounds %"class.mojo::Message", %"class.mojo::Message"* %5, i64 0, i32 1, i32 2
  %11 = load i8*, i8** %10, align 8
  %12 = getelementptr inbounds i8, i8* %11, i64 %9
  %13 = bitcast i8* %12 to %"class.bluetooth::mojom::internal::Adapter_AddObserver_Params_Data"*
  call void @_ZN9bluetooth5mojom8internal31Adapter_AddObserver_Params_DataC1Ev(%"class.bluetooth::mojom::internal::Adapter_AddObserver_Params_Data"* %13) #12
  %14 = load i8*, i8** %10, align 8
  %15 = getelementptr inbounds i8, i8* %14, i64 %9
  %16 = getelementptr inbounds i8, i8* %15, i64 8
  %17 = bitcast i8* %16 to %"struct.mojo::internal::Interface_Data"*
  %18 = bitcast %"class.mojo::ScopedHandleBase"* %4 to i8*
  call void @llvm.lifetime.start.p0i8(i64 4, i8* nonnull %18) #12
  %19 = getelementptr inbounds %"class.mojo::PendingRemote.103", %"class.mojo::PendingRemote.103"* %1, i64 0, i32 0, i32 1
  %20 = load i32, i32* %19, align 4
  store i32 0, i32* %19, align 4, !noalias !69
  %21 = getelementptr inbounds %"class.mojo::ScopedHandleBase", %"class.mojo::ScopedHandleBase"* %4, i64 0, i32 0, i32 0, i32 0
  %22 = getelementptr inbounds %"class.mojo::PendingRemote.103", %"class.mojo::PendingRemote.103"* %1, i64 0, i32 0, i32 0, i32 0, i32 0, i32 0
  %23 = load i32, i32* %22, align 4, !noalias !72
  store i32 %23, i32* %21, align 4, !alias.scope !72
  store i32 0, i32* %22, align 4, !noalias !72
  call void @_ZN4mojo8internal22SerializeInterfaceInfoENS_16ScopedHandleBaseINS_17MessagePipeHandleEEEjRNS_7MessageERNS0_14Interface_DataE(%"class.mojo::ScopedHandleBase"* nonnull %4, i32 %20, %"class.mojo::Message"* nonnull dereferenceable(120) %5, %"struct.mojo::internal::Interface_Data"* dereferenceable(8) %17) #12
  %24 = load i32, i32* %21, align 4
  %25 = icmp eq i32 %24, 0
  br i1 %25, label %28, label %26

26:                                               ; preds = %3
  %27 = call i32 @MojoClose(i32 %24) #12
  br label %28

28:                                               ; preds = %26, %3
  call void @llvm.lifetime.end.p0i8(i64 4, i8* nonnull %18) #12
  %29 = call i8* @_Znwm(i64 16) #13
  %30 = getelementptr inbounds %"class.base::OnceCallback", %"class.base::OnceCallback"* %2, i64 0, i32 0, i32 0, i32 0
  %31 = bitcast %"class.base::OnceCallback"* %2 to i64*
  %32 = load i64, i64* %31, align 8
  store %"class.base::internal::BindStateBase"* null, %"class.base::internal::BindStateBase"** %30, align 8
  %33 = bitcast i8* %29 to i32 (...)***
  store i32 (...)** bitcast (i8** getelementptr inbounds ({ [6 x i8*] }, { [6 x i8*] }* @_ZTVN9bluetooth5mojom37Adapter_AddObserver_ForwardToCallbackE, i64 0, inrange i32 0, i64 2) to i32 (...)**), i32 (...)*** %33, align 8
  %34 = getelementptr inbounds i8, i8* %29, i64 8
  %35 = getelementptr inbounds %"class.base::OnceCallback", %"class.base::OnceCallback"* %6, i64 0, i32 0, i32 0, i32 0
  %36 = bitcast i8* %34 to i64*
  store i64 %32, i64* %36, align 8
  store %"class.base::internal::BindStateBase"* null, %"class.base::internal::BindStateBase"** %35, align 8
  %37 = bitcast i8* %29 to %"class.mojo::MessageReceiver"*
  %38 = getelementptr inbounds %"class.base::OnceCallback", %"class.base::OnceCallback"* %6, i64 0, i32 0
  call void @_ZN4base8internal12CallbackBaseD2Ev(%"class.base::internal::CallbackBase"* nonnull %38) #12
  %39 = getelementptr inbounds %"class.bluetooth::mojom::AdapterProxy", %"class.bluetooth::mojom::AdapterProxy"* %0, i64 0, i32 1
  %40 = load %"class.mojo::MessageReceiverWithResponder"*, %"class.mojo::MessageReceiverWithResponder"** %39, align 8
  %41 = bitcast %"class.mojo::MessageReceiverWithResponder"* %40 to i1 (%"class.mojo::MessageReceiverWithResponder"*, %"class.mojo::Message"*, %"class.mojo::MessageReceiver"*)***
  %42 = load i1 (%"class.mojo::MessageReceiverWithResponder"*, %"class.mojo::Message"*, %"class.mojo::MessageReceiver"*)**, i1 (%"class.mojo::MessageReceiverWithResponder"*, %"class.mojo::Message"*, %"class.mojo::MessageReceiver"*)*** %41, align 8
  %43 = getelementptr inbounds i1 (%"class.mojo::MessageReceiverWithResponder"*, %"class.mojo::Message"*, %"class.mojo::MessageReceiver"*)*, i1 (%"class.mojo::MessageReceiverWithResponder"*, %"class.mojo::Message"*, %"class.mojo::MessageReceiver"*)** %42, i64 4
  %44 = load i1 (%"class.mojo::MessageReceiverWithResponder"*, %"class.mojo::Message"*, %"class.mojo::MessageReceiver"*)*, i1 (%"class.mojo::MessageReceiverWithResponder"*, %"class.mojo::Message"*, %"class.mojo::MessageReceiver"*)** %43, align 8
  %45 = call zeroext i1 %44(%"class.mojo::MessageReceiverWithResponder"* %40, %"class.mojo::Message"* nonnull %5, %"class.mojo::MessageReceiver"* nonnull %37) #12
  call void @_ZN4mojo7MessageD1Ev(%"class.mojo::Message"* nonnull %5) #12
  call void @llvm.lifetime.end.p0i8(i64 120, i8* nonnull %7) #12
  ret void
}

; Function Attrs: nounwind ssp uwtable
define hidden zeroext i1 @_ZN9bluetooth5mojom12AdapterProxy21RegisterAdvertisementERKN6device13BluetoothUUIDERKNSt3__16vectorIhNS6_9allocatorIhEEEEbPN4mojo13PendingRemoteINS0_13AdvertisementEEE(%"class.bluetooth::mojom::AdapterProxy"* nocapture readonly, %"class.device::BluetoothUUID"* dereferenceable(56), %"class.std::__1::vector.104"* nocapture readonly dereferenceable(24), i1 zeroext, %"class.mojo::PendingRemote.111"*) unnamed_addr #0 align 2 {
  %6 = alloca %"class.mojo::internal::MessageFragment.123", align 8
  %7 = alloca %"class.mojo::Message", align 8
  %8 = alloca %"class.mojo::internal::ContainerValidateParams", align 8
  %9 = alloca i8, align 1
  %10 = zext i1 %3 to i8
  %11 = bitcast %"class.mojo::Message"* %7 to i8*
  call void @llvm.lifetime.start.p0i8(i64 120, i8* nonnull %11) #12
  call void @llvm.memset.p0i8.i64(i8* nonnull align 8 %11, i8 -86, i64 120, i1 false)
  call void @_ZN4mojo7MessageC1EjjmmPNSt3__16vectorINS_16ScopedHandleBaseINS_6HandleEEENS1_9allocatorIS5_EEEE(%"class.mojo::Message"* nonnull %7, i32 1106433335, i32 5, i64 0, i64 0, %"class.std::__1::vector"* null) #12
  %12 = getelementptr inbounds %"class.mojo::Message", %"class.mojo::Message"* %7, i64 0, i32 1
  %13 = call i64 @_ZN4mojo8internal6Buffer8AllocateEm(%"class.mojo::internal::Buffer"* %12, i64 32) #12
  %14 = getelementptr inbounds %"class.mojo::Message", %"class.mojo::Message"* %7, i64 0, i32 1, i32 2
  %15 = load i8*, i8** %14, align 8
  %16 = getelementptr inbounds i8, i8* %15, i64 %13
  %17 = bitcast i8* %16 to %"class.bluetooth::mojom::internal::Adapter_RegisterAdvertisement_Params_Data"*
  call void @_ZN9bluetooth5mojom8internal41Adapter_RegisterAdvertisement_Params_DataC1Ev(%"class.bluetooth::mojom::internal::Adapter_RegisterAdvertisement_Params_Data"* %17) #12
  %18 = ptrtoint %"class.mojo::Message"* %7 to i64
  %19 = call i64 @_ZN4mojo8internal6Buffer8AllocateEm(%"class.mojo::internal::Buffer"* %12, i64 16) #12
  %20 = load i8*, i8** %14, align 8
  %21 = getelementptr inbounds i8, i8* %20, i64 %19
  %22 = bitcast i8* %21 to %"class.bluetooth::mojom::internal::UUID_Data"*
  call void @_ZN9bluetooth5mojom8internal9UUID_DataC1Ev(%"class.bluetooth::mojom::internal::UUID_Data"* %22) #12
  %23 = getelementptr inbounds %"class.device::BluetoothUUID", %"class.device::BluetoothUUID"* %1, i64 0, i32 2
  %24 = bitcast %"class.mojo::internal::MessageFragment.123"* %6 to i8*
  call void @llvm.lifetime.start.p0i8(i64 16, i8* nonnull %24) #12
  %25 = getelementptr inbounds %"class.mojo::internal::MessageFragment.123", %"class.mojo::internal::MessageFragment.123"* %6, i64 0, i32 1
  %26 = bitcast %"class.mojo::internal::MessageFragment.123"* %6 to i64*
  store i64 %18, i64* %26, align 8
  store i64 -1, i64* %25, align 8
  call void @_ZN4mojo8internal10SerializerINS_14StringDataViewEKNSt3__112basic_stringIcNS3_11char_traitsIcEENS3_9allocatorIcEEEEE9SerializeERSA_RNS0_15MessageFragmentINS0_10Array_DataIcEEEE(%"class.std::__1::basic_string"* dereferenceable(24) %23, %"class.mojo::internal::MessageFragment.123"* nonnull dereferenceable(16) %6) #12
  %27 = load i8*, i8** %14, align 8
  %28 = getelementptr inbounds i8, i8* %27, i64 %19
  %29 = getelementptr inbounds i8, i8* %28, i64 8
  %30 = load i64, i64* %25, align 8
  %31 = icmp eq i64 %30, -1
  br i1 %31, label %39, label %32

32:                                               ; preds = %5
  %33 = getelementptr inbounds %"class.mojo::internal::MessageFragment.123", %"class.mojo::internal::MessageFragment.123"* %6, i64 0, i32 0
  %34 = load %"class.mojo::Message"*, %"class.mojo::Message"** %33, align 8
  %35 = getelementptr inbounds %"class.mojo::Message", %"class.mojo::Message"* %34, i64 0, i32 1, i32 2
  %36 = load i8*, i8** %35, align 8
  %37 = getelementptr inbounds i8, i8* %36, i64 %30
  %38 = bitcast i8* %37 to %"class.mojo::internal::Array_Data"*
  br label %39

39:                                               ; preds = %5, %32
  %40 = phi %"class.mojo::internal::Array_Data"* [ %38, %32 ], [ null, %5 ]
  %41 = bitcast i8* %29 to i64*
  %42 = icmp eq %"class.mojo::internal::Array_Data"* %40, null
  %43 = ptrtoint %"class.mojo::internal::Array_Data"* %40 to i64
  %44 = ptrtoint i8* %29 to i64
  %45 = sub i64 %43, %44
  %46 = select i1 %42, i64 0, i64 %45
  store i64 %46, i64* %41, align 8
  call void @llvm.lifetime.end.p0i8(i64 16, i8* nonnull %24) #12
  %47 = load i8*, i8** %14, align 8
  %48 = getelementptr inbounds i8, i8* %47, i64 %13
  %49 = getelementptr inbounds i8, i8* %48, i64 8
  %50 = icmp eq i64 %19, -1
  %51 = getelementptr inbounds i8, i8* %47, i64 %19
  %52 = bitcast i8* %51 to %"class.bluetooth::mojom::internal::UUID_Data"*
  %53 = select i1 %50, %"class.bluetooth::mojom::internal::UUID_Data"* null, %"class.bluetooth::mojom::internal::UUID_Data"* %52
  %54 = bitcast i8* %49 to i64*
  %55 = icmp eq %"class.bluetooth::mojom::internal::UUID_Data"* %53, null
  %56 = ptrtoint %"class.bluetooth::mojom::internal::UUID_Data"* %53 to i64
  %57 = ptrtoint i8* %49 to i64
  %58 = sub i64 %56, %57
  %59 = select i1 %55, i64 0, i64 %58
  store i64 %59, i64* %54, align 8
  %60 = bitcast %"class.mojo::internal::ContainerValidateParams"* %8 to i8*
  call void @llvm.lifetime.start.p0i8(i64 32, i8* nonnull %60) #12
  %61 = bitcast %"class.mojo::internal::ContainerValidateParams"* %8 to i64*
  store i64 -6148914691236517206, i64* %61, align 8
  %62 = getelementptr inbounds %"class.mojo::internal::ContainerValidateParams", %"class.mojo::internal::ContainerValidateParams"* %8, i64 0, i32 0
  store i32 0, i32* %62, align 8
  %63 = getelementptr inbounds %"class.mojo::internal::ContainerValidateParams", %"class.mojo::internal::ContainerValidateParams"* %8, i64 0, i32 1
  store i8 0, i8* %63, align 4
  %64 = getelementptr inbounds %"class.mojo::internal::ContainerValidateParams", %"class.mojo::internal::ContainerValidateParams"* %8, i64 0, i32 2
  %65 = getelementptr inbounds %"class.std::__1::vector.104", %"class.std::__1::vector.104"* %2, i64 0, i32 0, i32 1
  %66 = bitcast i8** %65 to i64*
  %67 = bitcast %"class.mojo::internal::ContainerValidateParams"** %64 to i8*
  call void @llvm.memset.p0i8.i64(i8* align 8 %67, i8 0, i64 24, i1 false)
  %68 = load i64, i64* %66, align 8
  %69 = bitcast %"class.std::__1::vector.104"* %2 to i64*
  %70 = load i64, i64* %69, align 8
  %71 = sub i64 %68, %70
  %72 = icmp ugt i64 %71, 4294967287
  br i1 %72, label %87, label %73

73:                                               ; preds = %39
  %74 = trunc i64 %71 to i32
  %75 = add nuw i32 %74, 8
  %76 = zext i32 %75 to i64
  %77 = call i64 @_ZN4mojo8internal6Buffer8AllocateEm(%"class.mojo::internal::Buffer"* %12, i64 %76) #12
  %78 = load i8*, i8** %14, align 8
  %79 = getelementptr inbounds i8, i8* %78, i64 %77
  %80 = bitcast i8* %79 to i32*
  store i32 %75, i32* %80, align 1
  %81 = getelementptr inbounds i8, i8* %79, i64 4
  %82 = bitcast i8* %81 to i32*
  store i32 %74, i32* %82, align 1
  %83 = load i64, i64* %69, align 8
  %84 = load i64, i64* %66, align 8
  %85 = sub i64 %84, %83
  %86 = icmp eq i64 %85, 0
  br i1 %86, label %146, label %87

87:                                               ; preds = %73, %39
  %88 = phi i64 [ -1, %39 ], [ %77, %73 ]
  %89 = phi i64 [ %70, %39 ], [ %83, %73 ]
  %90 = phi i64 [ %71, %39 ], [ %85, %73 ]
  %91 = inttoptr i64 %89 to i8*
  %92 = load i8*, i8** %14, align 8
  %93 = getelementptr inbounds i8, i8* %92, i64 %88
  %94 = icmp eq i64 %89, 0
  %95 = getelementptr inbounds i8, i8* %93, i64 8
  br i1 %94, label %96, label %107

96:                                               ; preds = %87
  %97 = getelementptr inbounds %"class.std::__1::vector.104", %"class.std::__1::vector.104"* %2, i64 0, i32 0, i32 0
  %98 = load i8, i8* %91, align 1
  store i8 %98, i8* %95, align 1
  %99 = icmp eq i64 %90, 1
  br i1 %99, label %146, label %100

100:                                              ; preds = %96
  %101 = add i64 %90, -1
  %102 = add i64 %90, -2
  %103 = and i64 %101, 3
  %104 = icmp ult i64 %102, 3
  br i1 %104, label %133, label %105

105:                                              ; preds = %100
  %106 = sub i64 %101, %103
  br label %108

107:                                              ; preds = %87
  call void @llvm.memcpy.p0i8.p0i8.i64(i8* align 1 %95, i8* nonnull align 1 %91, i64 %90, i1 false) #12
  br label %146

108:                                              ; preds = %108, %105
  %109 = phi i64 [ 1, %105 ], [ %127, %108 ]
  %110 = phi i64 [ %106, %105 ], [ %131, %108 ]
  %111 = load i8*, i8** %97, align 8
  %112 = add nuw nsw i64 %109, 1
  %113 = getelementptr inbounds i8, i8* %111, i64 %109
  %114 = load i8, i8* %113, align 1
  %115 = getelementptr inbounds i8, i8* %95, i64 %109
  store i8 %114, i8* %115, align 1
  %116 = load i8*, i8** %97, align 8
  %117 = add nuw nsw i64 %109, 2
  %118 = getelementptr inbounds i8, i8* %116, i64 %112
  %119 = load i8, i8* %118, align 1
  %120 = getelementptr inbounds i8, i8* %95, i64 %112
  store i8 %119, i8* %120, align 1
  %121 = load i8*, i8** %97, align 8
  %122 = add nuw i64 %109, 3
  %123 = getelementptr inbounds i8, i8* %121, i64 %117
  %124 = load i8, i8* %123, align 1
  %125 = getelementptr inbounds i8, i8* %95, i64 %117
  store i8 %124, i8* %125, align 1
  %126 = load i8*, i8** %97, align 8
  %127 = add nuw i64 %109, 4
  %128 = getelementptr inbounds i8, i8* %126, i64 %122
  %129 = load i8, i8* %128, align 1
  %130 = getelementptr inbounds i8, i8* %95, i64 %122
  store i8 %129, i8* %130, align 1
  %131 = add i64 %110, -4
  %132 = icmp eq i64 %131, 0
  br i1 %132, label %133, label %108

133:                                              ; preds = %108, %100
  %134 = phi i64 [ 1, %100 ], [ %127, %108 ]
  %135 = icmp eq i64 %103, 0
  br i1 %135, label %146, label %136

136:                                              ; preds = %133, %136
  %137 = phi i64 [ %140, %136 ], [ %134, %133 ]
  %138 = phi i64 [ %144, %136 ], [ %103, %133 ]
  %139 = load i8*, i8** %97, align 8
  %140 = add nuw i64 %137, 1
  %141 = getelementptr inbounds i8, i8* %139, i64 %137
  %142 = load i8, i8* %141, align 1
  %143 = getelementptr inbounds i8, i8* %95, i64 %137
  store i8 %142, i8* %143, align 1
  %144 = add i64 %138, -1
  %145 = icmp eq i64 %144, 0
  br i1 %145, label %146, label %136, !llvm.loop !75

146:                                              ; preds = %133, %136, %73, %96, %107
  %147 = phi i64 [ %88, %96 ], [ %88, %107 ], [ %77, %73 ], [ %88, %136 ], [ %88, %133 ]
  %148 = load i8*, i8** %14, align 8
  %149 = getelementptr inbounds i8, i8* %148, i64 %13
  %150 = getelementptr inbounds i8, i8* %149, i64 16
  %151 = icmp eq i64 %147, -1
  %152 = getelementptr inbounds i8, i8* %148, i64 %147
  %153 = bitcast i8* %152 to %"class.mojo::internal::Array_Data.135"*
  %154 = select i1 %151, %"class.mojo::internal::Array_Data.135"* null, %"class.mojo::internal::Array_Data.135"* %153
  %155 = bitcast i8* %150 to i64*
  %156 = icmp eq %"class.mojo::internal::Array_Data.135"* %154, null
  %157 = ptrtoint %"class.mojo::internal::Array_Data.135"* %154 to i64
  %158 = ptrtoint i8* %150 to i64
  %159 = sub i64 %157, %158
  %160 = select i1 %156, i64 0, i64 %159
  store i64 %160, i64* %155, align 8
  %161 = load i8*, i8** %14, align 8
  %162 = getelementptr inbounds i8, i8* %161, i64 %13
  %163 = getelementptr inbounds i8, i8* %162, i64 24
  %164 = load i8, i8* %163, align 1
  %165 = and i8 %164, -2
  %166 = or i8 %165, %10
  store i8 %166, i8* %163, align 1
  call void @llvm.lifetime.start.p0i8(i64 1, i8* nonnull %9) #12
  store i8 0, i8* %9, align 1
  %167 = call i8* @_Znwm(i64 24) #13
  %168 = bitcast i8* %167 to i32 (...)***
  store i32 (...)** bitcast (i8** getelementptr inbounds ({ [6 x i8*] }, { [6 x i8*] }* @_ZTVN9bluetooth5mojom48Adapter_RegisterAdvertisement_HandleSyncResponseE, i64 0, inrange i32 0, i64 2) to i32 (...)**), i32 (...)*** %168, align 8
  %169 = getelementptr inbounds i8, i8* %167, i64 8
  %170 = bitcast i8* %169 to i8**
  store i8* %9, i8** %170, align 8
  %171 = getelementptr inbounds i8, i8* %167, i64 16
  %172 = bitcast i8* %171 to %"class.mojo::PendingRemote.111"**
  store %"class.mojo::PendingRemote.111"* %4, %"class.mojo::PendingRemote.111"** %172, align 8
  %173 = bitcast i8* %167 to %"class.mojo::MessageReceiver"*
  %174 = getelementptr inbounds %"class.bluetooth::mojom::AdapterProxy", %"class.bluetooth::mojom::AdapterProxy"* %0, i64 0, i32 1
  %175 = load %"class.mojo::MessageReceiverWithResponder"*, %"class.mojo::MessageReceiverWithResponder"** %174, align 8
  %176 = bitcast %"class.mojo::MessageReceiverWithResponder"* %175 to i1 (%"class.mojo::MessageReceiverWithResponder"*, %"class.mojo::Message"*, %"class.mojo::MessageReceiver"*)***
  %177 = load i1 (%"class.mojo::MessageReceiverWithResponder"*, %"class.mojo::Message"*, %"class.mojo::MessageReceiver"*)**, i1 (%"class.mojo::MessageReceiverWithResponder"*, %"class.mojo::Message"*, %"class.mojo::MessageReceiver"*)*** %176, align 8
  %178 = getelementptr inbounds i1 (%"class.mojo::MessageReceiverWithResponder"*, %"class.mojo::Message"*, %"class.mojo::MessageReceiver"*)*, i1 (%"class.mojo::MessageReceiverWithResponder"*, %"class.mojo::Message"*, %"class.mojo::MessageReceiver"*)** %177, i64 4
  %179 = load i1 (%"class.mojo::MessageReceiverWithResponder"*, %"class.mojo::Message"*, %"class.mojo::MessageReceiver"*)*, i1 (%"class.mojo::MessageReceiverWithResponder"*, %"class.mojo::Message"*, %"class.mojo::MessageReceiver"*)** %178, align 8
  %180 = call zeroext i1 %179(%"class.mojo::MessageReceiverWithResponder"* %175, %"class.mojo::Message"* nonnull %7, %"class.mojo::MessageReceiver"* nonnull %173) #12
  %181 = load i8, i8* %9, align 1, !range !14
  %182 = icmp ne i8 %181, 0
  call void @llvm.lifetime.end.p0i8(i64 1, i8* nonnull %9) #12
  call void @_ZN4mojo8internal23ContainerValidateParamsD2Ev(%"class.mojo::internal::ContainerValidateParams"* nonnull %8) #12
  call void @llvm.lifetime.end.p0i8(i64 32, i8* nonnull %60) #12
  call void @_ZN4mojo7MessageD1Ev(%"class.mojo::Message"* nonnull %7) #12
  call void @llvm.lifetime.end.p0i8(i64 120, i8* nonnull %11) #12
  ret i1 %182
}

; Function Attrs: nounwind ssp uwtable
define linkonce_odr hidden void @_ZN4mojo8internal23ContainerValidateParamsD2Ev(%"class.mojo::internal::ContainerValidateParams"*) unnamed_addr #0 comdat align 2 {
  %2 = getelementptr inbounds %"class.mojo::internal::ContainerValidateParams", %"class.mojo::internal::ContainerValidateParams"* %0, i64 0, i32 3
  %3 = load %"class.mojo::internal::ContainerValidateParams"*, %"class.mojo::internal::ContainerValidateParams"** %2, align 8
  %4 = icmp eq %"class.mojo::internal::ContainerValidateParams"* %3, null
  br i1 %4, label %7, label %5

5:                                                ; preds = %1
  tail call void @_ZN4mojo8internal23ContainerValidateParamsD2Ev(%"class.mojo::internal::ContainerValidateParams"* nonnull %3) #12
  %6 = bitcast %"class.mojo::internal::ContainerValidateParams"* %3 to i8*
  tail call void @_ZdlPv(i8* %6) #13
  br label %7

7:                                                ; preds = %1, %5
  %8 = getelementptr inbounds %"class.mojo::internal::ContainerValidateParams", %"class.mojo::internal::ContainerValidateParams"* %0, i64 0, i32 2
  %9 = load %"class.mojo::internal::ContainerValidateParams"*, %"class.mojo::internal::ContainerValidateParams"** %8, align 8
  %10 = icmp eq %"class.mojo::internal::ContainerValidateParams"* %9, null
  br i1 %10, label %13, label %11

11:                                               ; preds = %7
  tail call void @_ZN4mojo8internal23ContainerValidateParamsD2Ev(%"class.mojo::internal::ContainerValidateParams"* nonnull %9) #12
  %12 = bitcast %"class.mojo::internal::ContainerValidateParams"* %9 to i8*
  tail call void @_ZdlPv(i8* %12) #13
  ret void

13:                                               ; preds = %7
  ret void
}

; Function Attrs: nounwind ssp uwtable
define hidden void @_ZN9bluetooth5mojom12AdapterProxy21RegisterAdvertisementERKN6device13BluetoothUUIDERKNSt3__16vectorIhNS6_9allocatorIhEEEEbN4base12OnceCallbackIFvN4mojo13PendingRemoteINS0_13AdvertisementEEEEEE(%"class.bluetooth::mojom::AdapterProxy"* nocapture readonly, %"class.device::BluetoothUUID"* dereferenceable(56), %"class.std::__1::vector.104"* nocapture readonly dereferenceable(24), i1 zeroext, %"class.base::OnceCallback.136"* nocapture) unnamed_addr #0 align 2 {
  %6 = alloca %"class.mojo::internal::MessageFragment.123", align 8
  %7 = alloca %"class.mojo::Message", align 8
  %8 = alloca %"class.mojo::internal::ContainerValidateParams", align 8
  %9 = alloca %"class.base::OnceCallback.136", align 8
  %10 = zext i1 %3 to i8
  %11 = bitcast %"class.mojo::Message"* %7 to i8*
  call void @llvm.lifetime.start.p0i8(i64 120, i8* nonnull %11) #12
  call void @llvm.memset.p0i8.i64(i8* nonnull align 8 %11, i8 -86, i64 120, i1 false)
  call void @_ZN4mojo7MessageC1EjjmmPNSt3__16vectorINS_16ScopedHandleBaseINS_6HandleEEENS1_9allocatorIS5_EEEE(%"class.mojo::Message"* nonnull %7, i32 1106433335, i32 1, i64 0, i64 0, %"class.std::__1::vector"* null) #12
  %12 = getelementptr inbounds %"class.mojo::Message", %"class.mojo::Message"* %7, i64 0, i32 1
  %13 = call i64 @_ZN4mojo8internal6Buffer8AllocateEm(%"class.mojo::internal::Buffer"* %12, i64 32) #12
  %14 = getelementptr inbounds %"class.mojo::Message", %"class.mojo::Message"* %7, i64 0, i32 1, i32 2
  %15 = load i8*, i8** %14, align 8
  %16 = getelementptr inbounds i8, i8* %15, i64 %13
  %17 = bitcast i8* %16 to %"class.bluetooth::mojom::internal::Adapter_RegisterAdvertisement_Params_Data"*
  call void @_ZN9bluetooth5mojom8internal41Adapter_RegisterAdvertisement_Params_DataC1Ev(%"class.bluetooth::mojom::internal::Adapter_RegisterAdvertisement_Params_Data"* %17) #12
  %18 = ptrtoint %"class.mojo::Message"* %7 to i64
  %19 = call i64 @_ZN4mojo8internal6Buffer8AllocateEm(%"class.mojo::internal::Buffer"* %12, i64 16) #12
  %20 = load i8*, i8** %14, align 8
  %21 = getelementptr inbounds i8, i8* %20, i64 %19
  %22 = bitcast i8* %21 to %"class.bluetooth::mojom::internal::UUID_Data"*
  call void @_ZN9bluetooth5mojom8internal9UUID_DataC1Ev(%"class.bluetooth::mojom::internal::UUID_Data"* %22) #12
  %23 = getelementptr inbounds %"class.device::BluetoothUUID", %"class.device::BluetoothUUID"* %1, i64 0, i32 2
  %24 = bitcast %"class.mojo::internal::MessageFragment.123"* %6 to i8*
  call void @llvm.lifetime.start.p0i8(i64 16, i8* nonnull %24) #12
  %25 = getelementptr inbounds %"class.mojo::internal::MessageFragment.123", %"class.mojo::internal::MessageFragment.123"* %6, i64 0, i32 1
  %26 = bitcast %"class.mojo::internal::MessageFragment.123"* %6 to i64*
  store i64 %18, i64* %26, align 8
  store i64 -1, i64* %25, align 8
  call void @_ZN4mojo8internal10SerializerINS_14StringDataViewEKNSt3__112basic_stringIcNS3_11char_traitsIcEENS3_9allocatorIcEEEEE9SerializeERSA_RNS0_15MessageFragmentINS0_10Array_DataIcEEEE(%"class.std::__1::basic_string"* dereferenceable(24) %23, %"class.mojo::internal::MessageFragment.123"* nonnull dereferenceable(16) %6) #12
  %27 = load i8*, i8** %14, align 8
  %28 = getelementptr inbounds i8, i8* %27, i64 %19
  %29 = getelementptr inbounds i8, i8* %28, i64 8
  %30 = load i64, i64* %25, align 8
  %31 = icmp eq i64 %30, -1
  br i1 %31, label %39, label %32

32:                                               ; preds = %5
  %33 = getelementptr inbounds %"class.mojo::internal::MessageFragment.123", %"class.mojo::internal::MessageFragment.123"* %6, i64 0, i32 0
  %34 = load %"class.mojo::Message"*, %"class.mojo::Message"** %33, align 8
  %35 = getelementptr inbounds %"class.mojo::Message", %"class.mojo::Message"* %34, i64 0, i32 1, i32 2
  %36 = load i8*, i8** %35, align 8
  %37 = getelementptr inbounds i8, i8* %36, i64 %30
  %38 = bitcast i8* %37 to %"class.mojo::internal::Array_Data"*
  br label %39

39:                                               ; preds = %5, %32
  %40 = phi %"class.mojo::internal::Array_Data"* [ %38, %32 ], [ null, %5 ]
  %41 = bitcast i8* %29 to i64*
  %42 = icmp eq %"class.mojo::internal::Array_Data"* %40, null
  %43 = ptrtoint %"class.mojo::internal::Array_Data"* %40 to i64
  %44 = ptrtoint i8* %29 to i64
  %45 = sub i64 %43, %44
  %46 = select i1 %42, i64 0, i64 %45
  store i64 %46, i64* %41, align 8
  call void @llvm.lifetime.end.p0i8(i64 16, i8* nonnull %24) #12
  %47 = load i8*, i8** %14, align 8
  %48 = getelementptr inbounds i8, i8* %47, i64 %13
  %49 = getelementptr inbounds i8, i8* %48, i64 8
  %50 = icmp eq i64 %19, -1
  %51 = getelementptr inbounds i8, i8* %47, i64 %19
  %52 = bitcast i8* %51 to %"class.bluetooth::mojom::internal::UUID_Data"*
  %53 = select i1 %50, %"class.bluetooth::mojom::internal::UUID_Data"* null, %"class.bluetooth::mojom::internal::UUID_Data"* %52
  %54 = bitcast i8* %49 to i64*
  %55 = icmp eq %"class.bluetooth::mojom::internal::UUID_Data"* %53, null
  %56 = ptrtoint %"class.bluetooth::mojom::internal::UUID_Data"* %53 to i64
  %57 = ptrtoint i8* %49 to i64
  %58 = sub i64 %56, %57
  %59 = select i1 %55, i64 0, i64 %58
  store i64 %59, i64* %54, align 8
  %60 = bitcast %"class.mojo::internal::ContainerValidateParams"* %8 to i8*
  call void @llvm.lifetime.start.p0i8(i64 32, i8* nonnull %60) #12
  %61 = bitcast %"class.mojo::internal::ContainerValidateParams"* %8 to i64*
  store i64 -6148914691236517206, i64* %61, align 8
  %62 = getelementptr inbounds %"class.mojo::internal::ContainerValidateParams", %"class.mojo::internal::ContainerValidateParams"* %8, i64 0, i32 0
  store i32 0, i32* %62, align 8
  %63 = getelementptr inbounds %"class.mojo::internal::ContainerValidateParams", %"class.mojo::internal::ContainerValidateParams"* %8, i64 0, i32 1
  store i8 0, i8* %63, align 4
  %64 = getelementptr inbounds %"class.mojo::internal::ContainerValidateParams", %"class.mojo::internal::ContainerValidateParams"* %8, i64 0, i32 2
  %65 = getelementptr inbounds %"class.std::__1::vector.104", %"class.std::__1::vector.104"* %2, i64 0, i32 0, i32 1
  %66 = bitcast i8** %65 to i64*
  %67 = bitcast %"class.mojo::internal::ContainerValidateParams"** %64 to i8*
  call void @llvm.memset.p0i8.i64(i8* align 8 %67, i8 0, i64 24, i1 false)
  %68 = load i64, i64* %66, align 8
  %69 = bitcast %"class.std::__1::vector.104"* %2 to i64*
  %70 = load i64, i64* %69, align 8
  %71 = sub i64 %68, %70
  %72 = icmp ugt i64 %71, 4294967287
  br i1 %72, label %87, label %73

73:                                               ; preds = %39
  %74 = trunc i64 %71 to i32
  %75 = add nuw i32 %74, 8
  %76 = zext i32 %75 to i64
  %77 = call i64 @_ZN4mojo8internal6Buffer8AllocateEm(%"class.mojo::internal::Buffer"* %12, i64 %76) #12
  %78 = load i8*, i8** %14, align 8
  %79 = getelementptr inbounds i8, i8* %78, i64 %77
  %80 = bitcast i8* %79 to i32*
  store i32 %75, i32* %80, align 1
  %81 = getelementptr inbounds i8, i8* %79, i64 4
  %82 = bitcast i8* %81 to i32*
  store i32 %74, i32* %82, align 1
  %83 = load i64, i64* %69, align 8
  %84 = load i64, i64* %66, align 8
  %85 = sub i64 %84, %83
  %86 = icmp eq i64 %85, 0
  br i1 %86, label %146, label %87

87:                                               ; preds = %73, %39
  %88 = phi i64 [ -1, %39 ], [ %77, %73 ]
  %89 = phi i64 [ %70, %39 ], [ %83, %73 ]
  %90 = phi i64 [ %71, %39 ], [ %85, %73 ]
  %91 = inttoptr i64 %89 to i8*
  %92 = load i8*, i8** %14, align 8
  %93 = getelementptr inbounds i8, i8* %92, i64 %88
  %94 = icmp eq i64 %89, 0
  %95 = getelementptr inbounds i8, i8* %93, i64 8
  br i1 %94, label %96, label %107

96:                                               ; preds = %87
  %97 = getelementptr inbounds %"class.std::__1::vector.104", %"class.std::__1::vector.104"* %2, i64 0, i32 0, i32 0
  %98 = load i8, i8* %91, align 1
  store i8 %98, i8* %95, align 1
  %99 = icmp eq i64 %90, 1
  br i1 %99, label %146, label %100

100:                                              ; preds = %96
  %101 = add i64 %90, -1
  %102 = add i64 %90, -2
  %103 = and i64 %101, 3
  %104 = icmp ult i64 %102, 3
  br i1 %104, label %133, label %105

105:                                              ; preds = %100
  %106 = sub i64 %101, %103
  br label %108

107:                                              ; preds = %87
  call void @llvm.memcpy.p0i8.p0i8.i64(i8* align 1 %95, i8* nonnull align 1 %91, i64 %90, i1 false) #12
  br label %146

108:                                              ; preds = %108, %105
  %109 = phi i64 [ 1, %105 ], [ %127, %108 ]
  %110 = phi i64 [ %106, %105 ], [ %131, %108 ]
  %111 = load i8*, i8** %97, align 8
  %112 = add nuw nsw i64 %109, 1
  %113 = getelementptr inbounds i8, i8* %111, i64 %109
  %114 = load i8, i8* %113, align 1
  %115 = getelementptr inbounds i8, i8* %95, i64 %109
  store i8 %114, i8* %115, align 1
  %116 = load i8*, i8** %97, align 8
  %117 = add nuw nsw i64 %109, 2
  %118 = getelementptr inbounds i8, i8* %116, i64 %112
  %119 = load i8, i8* %118, align 1
  %120 = getelementptr inbounds i8, i8* %95, i64 %112
  store i8 %119, i8* %120, align 1
  %121 = load i8*, i8** %97, align 8
  %122 = add nuw i64 %109, 3
  %123 = getelementptr inbounds i8, i8* %121, i64 %117
  %124 = load i8, i8* %123, align 1
  %125 = getelementptr inbounds i8, i8* %95, i64 %117
  store i8 %124, i8* %125, align 1
  %126 = load i8*, i8** %97, align 8
  %127 = add nuw i64 %109, 4
  %128 = getelementptr inbounds i8, i8* %126, i64 %122
  %129 = load i8, i8* %128, align 1
  %130 = getelementptr inbounds i8, i8* %95, i64 %122
  store i8 %129, i8* %130, align 1
  %131 = add i64 %110, -4
  %132 = icmp eq i64 %131, 0
  br i1 %132, label %133, label %108

133:                                              ; preds = %108, %100
  %134 = phi i64 [ 1, %100 ], [ %127, %108 ]
  %135 = icmp eq i64 %103, 0
  br i1 %135, label %146, label %136

136:                                              ; preds = %133, %136
  %137 = phi i64 [ %140, %136 ], [ %134, %133 ]
  %138 = phi i64 [ %144, %136 ], [ %103, %133 ]
  %139 = load i8*, i8** %97, align 8
  %140 = add nuw i64 %137, 1
  %141 = getelementptr inbounds i8, i8* %139, i64 %137
  %142 = load i8, i8* %141, align 1
  %143 = getelementptr inbounds i8, i8* %95, i64 %137
  store i8 %142, i8* %143, align 1
  %144 = add i64 %138, -1
  %145 = icmp eq i64 %144, 0
  br i1 %145, label %146, label %136, !llvm.loop !77

146:                                              ; preds = %133, %136, %73, %96, %107
  %147 = phi i64 [ %88, %96 ], [ %88, %107 ], [ %77, %73 ], [ %88, %136 ], [ %88, %133 ]
  %148 = load i8*, i8** %14, align 8
  %149 = getelementptr inbounds i8, i8* %148, i64 %13
  %150 = getelementptr inbounds i8, i8* %149, i64 16
  %151 = icmp eq i64 %147, -1
  %152 = getelementptr inbounds i8, i8* %148, i64 %147
  %153 = bitcast i8* %152 to %"class.mojo::internal::Array_Data.135"*
  %154 = select i1 %151, %"class.mojo::internal::Array_Data.135"* null, %"class.mojo::internal::Array_Data.135"* %153
  %155 = bitcast i8* %150 to i64*
  %156 = icmp eq %"class.mojo::internal::Array_Data.135"* %154, null
  %157 = ptrtoint %"class.mojo::internal::Array_Data.135"* %154 to i64
  %158 = ptrtoint i8* %150 to i64
  %159 = sub i64 %157, %158
  %160 = select i1 %156, i64 0, i64 %159
  store i64 %160, i64* %155, align 8
  %161 = load i8*, i8** %14, align 8
  %162 = getelementptr inbounds i8, i8* %161, i64 %13
  %163 = getelementptr inbounds i8, i8* %162, i64 24
  %164 = load i8, i8* %163, align 1
  %165 = and i8 %164, -2
  %166 = or i8 %165, %10
  store i8 %166, i8* %163, align 1
  %167 = call i8* @_Znwm(i64 16) #13
  %168 = getelementptr inbounds %"class.base::OnceCallback.136", %"class.base::OnceCallback.136"* %4, i64 0, i32 0, i32 0, i32 0
  %169 = bitcast %"class.base::OnceCallback.136"* %4 to i64*
  %170 = load i64, i64* %169, align 8
  store %"class.base::internal::BindStateBase"* null, %"class.base::internal::BindStateBase"** %168, align 8
  %171 = bitcast i8* %167 to i32 (...)***
  store i32 (...)** bitcast (i8** getelementptr inbounds ({ [6 x i8*] }, { [6 x i8*] }* @_ZTVN9bluetooth5mojom47Adapter_RegisterAdvertisement_ForwardToCallbackE, i64 0, inrange i32 0, i64 2) to i32 (...)**), i32 (...)*** %171, align 8
  %172 = getelementptr inbounds i8, i8* %167, i64 8
  %173 = getelementptr inbounds %"class.base::OnceCallback.136", %"class.base::OnceCallback.136"* %9, i64 0, i32 0, i32 0, i32 0
  %174 = bitcast i8* %172 to i64*
  store i64 %170, i64* %174, align 8
  store %"class.base::internal::BindStateBase"* null, %"class.base::internal::BindStateBase"** %173, align 8
  %175 = bitcast i8* %167 to %"class.mojo::MessageReceiver"*
  %176 = getelementptr inbounds %"class.base::OnceCallback.136", %"class.base::OnceCallback.136"* %9, i64 0, i32 0
  call void @_ZN4base8internal12CallbackBaseD2Ev(%"class.base::internal::CallbackBase"* nonnull %176) #12
  %177 = getelementptr inbounds %"class.bluetooth::mojom::AdapterProxy", %"class.bluetooth::mojom::AdapterProxy"* %0, i64 0, i32 1
  %178 = load %"class.mojo::MessageReceiverWithResponder"*, %"class.mojo::MessageReceiverWithResponder"** %177, align 8
  %179 = bitcast %"class.mojo::MessageReceiverWithResponder"* %178 to i1 (%"class.mojo::MessageReceiverWithResponder"*, %"class.mojo::Message"*, %"class.mojo::MessageReceiver"*)***
  %180 = load i1 (%"class.mojo::MessageReceiverWithResponder"*, %"class.mojo::Message"*, %"class.mojo::MessageReceiver"*)**, i1 (%"class.mojo::MessageReceiverWithResponder"*, %"class.mojo::Message"*, %"class.mojo::MessageReceiver"*)*** %179, align 8
  %181 = getelementptr inbounds i1 (%"class.mojo::MessageReceiverWithResponder"*, %"class.mojo::Message"*, %"class.mojo::MessageReceiver"*)*, i1 (%"class.mojo::MessageReceiverWithResponder"*, %"class.mojo::Message"*, %"class.mojo::MessageReceiver"*)** %180, i64 4
  %182 = load i1 (%"class.mojo::MessageReceiverWithResponder"*, %"class.mojo::Message"*, %"class.mojo::MessageReceiver"*)*, i1 (%"class.mojo::MessageReceiverWithResponder"*, %"class.mojo::Message"*, %"class.mojo::MessageReceiver"*)** %181, align 8
  %183 = call zeroext i1 %182(%"class.mojo::MessageReceiverWithResponder"* %178, %"class.mojo::Message"* nonnull %7, %"class.mojo::MessageReceiver"* nonnull %175) #12
  call void @_ZN4mojo8internal23ContainerValidateParamsD2Ev(%"class.mojo::internal::ContainerValidateParams"* nonnull %8) #12
  call void @llvm.lifetime.end.p0i8(i64 32, i8* nonnull %60) #12
  call void @_ZN4mojo7MessageD1Ev(%"class.mojo::Message"* nonnull %7) #12
  call void @llvm.lifetime.end.p0i8(i64 120, i8* nonnull %11) #12
  ret void
}

; Function Attrs: nounwind ssp uwtable
define hidden zeroext i1 @_ZN9bluetooth5mojom12AdapterProxy15SetDiscoverableEbPb(%"class.bluetooth::mojom::AdapterProxy"* nocapture readonly, i1 zeroext, i8*) unnamed_addr #0 align 2 {
  %4 = alloca %"class.mojo::Message", align 8
  %5 = alloca i8, align 1
  %6 = zext i1 %1 to i8
  %7 = bitcast %"class.mojo::Message"* %4 to i8*
  call void @llvm.lifetime.start.p0i8(i64 120, i8* nonnull %7) #12
  call void @llvm.memset.p0i8.i64(i8* nonnull align 8 %7, i8 -86, i64 120, i1 false)
  call void @_ZN4mojo7MessageC1EjjmmPNSt3__16vectorINS_16ScopedHandleBaseINS_6HandleEEENS1_9allocatorIS5_EEEE(%"class.mojo::Message"* nonnull %4, i32 246863895, i32 5, i64 0, i64 0, %"class.std::__1::vector"* null) #12
  %8 = getelementptr inbounds %"class.mojo::Message", %"class.mojo::Message"* %4, i64 0, i32 1
  %9 = call i64 @_ZN4mojo8internal6Buffer8AllocateEm(%"class.mojo::internal::Buffer"* %8, i64 16) #12
  %10 = getelementptr inbounds %"class.mojo::Message", %"class.mojo::Message"* %4, i64 0, i32 1, i32 2
  %11 = load i8*, i8** %10, align 8
  %12 = getelementptr inbounds i8, i8* %11, i64 %9
  %13 = bitcast i8* %12 to %"class.bluetooth::mojom::internal::Adapter_SetDiscoverable_Params_Data"*
  call void @_ZN9bluetooth5mojom8internal35Adapter_SetDiscoverable_Params_DataC1Ev(%"class.bluetooth::mojom::internal::Adapter_SetDiscoverable_Params_Data"* %13) #12
  %14 = load i8*, i8** %10, align 8
  %15 = getelementptr inbounds i8, i8* %14, i64 %9
  %16 = getelementptr inbounds i8, i8* %15, i64 8
  %17 = load i8, i8* %16, align 1
  %18 = and i8 %17, -2
  %19 = or i8 %18, %6
  store i8 %19, i8* %16, align 1
  call void @llvm.lifetime.start.p0i8(i64 1, i8* nonnull %5) #12
  store i8 0, i8* %5, align 1
  %20 = call i8* @_Znwm(i64 24) #13
  %21 = bitcast i8* %20 to i32 (...)***
  store i32 (...)** bitcast (i8** getelementptr inbounds ({ [6 x i8*] }, { [6 x i8*] }* @_ZTVN9bluetooth5mojom42Adapter_SetDiscoverable_HandleSyncResponseE, i64 0, inrange i32 0, i64 2) to i32 (...)**), i32 (...)*** %21, align 8
  %22 = getelementptr inbounds i8, i8* %20, i64 8
  %23 = bitcast i8* %22 to i8**
  store i8* %5, i8** %23, align 8
  %24 = getelementptr inbounds i8, i8* %20, i64 16
  %25 = bitcast i8* %24 to i8**
  store i8* %2, i8** %25, align 8
  %26 = bitcast i8* %20 to %"class.mojo::MessageReceiver"*
  %27 = getelementptr inbounds %"class.bluetooth::mojom::AdapterProxy", %"class.bluetooth::mojom::AdapterProxy"* %0, i64 0, i32 1
  %28 = load %"class.mojo::MessageReceiverWithResponder"*, %"class.mojo::MessageReceiverWithResponder"** %27, align 8
  %29 = bitcast %"class.mojo::MessageReceiverWithResponder"* %28 to i1 (%"class.mojo::MessageReceiverWithResponder"*, %"class.mojo::Message"*, %"class.mojo::MessageReceiver"*)***
  %30 = load i1 (%"class.mojo::MessageReceiverWithResponder"*, %"class.mojo::Message"*, %"class.mojo::MessageReceiver"*)**, i1 (%"class.mojo::MessageReceiverWithResponder"*, %"class.mojo::Message"*, %"class.mojo::MessageReceiver"*)*** %29, align 8
  %31 = getelementptr inbounds i1 (%"class.mojo::MessageReceiverWithResponder"*, %"class.mojo::Message"*, %"class.mojo::MessageReceiver"*)*, i1 (%"class.mojo::MessageReceiverWithResponder"*, %"class.mojo::Message"*, %"class.mojo::MessageReceiver"*)** %30, i64 4
  %32 = load i1 (%"class.mojo::MessageReceiverWithResponder"*, %"class.mojo::Message"*, %"class.mojo::MessageReceiver"*)*, i1 (%"class.mojo::MessageReceiverWithResponder"*, %"class.mojo::Message"*, %"class.mojo::MessageReceiver"*)** %31, align 8
  %33 = call zeroext i1 %32(%"class.mojo::MessageReceiverWithResponder"* %28, %"class.mojo::Message"* nonnull %4, %"class.mojo::MessageReceiver"* nonnull %26) #12
  %34 = load i8, i8* %5, align 1, !range !14
  %35 = icmp ne i8 %34, 0
  call void @llvm.lifetime.end.p0i8(i64 1, i8* nonnull %5) #12
  call void @_ZN4mojo7MessageD1Ev(%"class.mojo::Message"* nonnull %4) #12
  call void @llvm.lifetime.end.p0i8(i64 120, i8* nonnull %7) #12
  ret i1 %35
}

; Function Attrs: nounwind ssp uwtable
define hidden void @_ZN9bluetooth5mojom12AdapterProxy15SetDiscoverableEbN4base12OnceCallbackIFvbEEE(%"class.bluetooth::mojom::AdapterProxy"* nocapture readonly, i1 zeroext, %"class.base::OnceCallback.76"* nocapture) unnamed_addr #0 align 2 {
  %4 = alloca %"class.mojo::Message", align 8
  %5 = alloca %"class.base::OnceCallback.76", align 8
  %6 = zext i1 %1 to i8
  %7 = bitcast %"class.mojo::Message"* %4 to i8*
  call void @llvm.lifetime.start.p0i8(i64 120, i8* nonnull %7) #12
  call void @llvm.memset.p0i8.i64(i8* nonnull align 8 %7, i8 -86, i64 120, i1 false)
  call void @_ZN4mojo7MessageC1EjjmmPNSt3__16vectorINS_16ScopedHandleBaseINS_6HandleEEENS1_9allocatorIS5_EEEE(%"class.mojo::Message"* nonnull %4, i32 246863895, i32 1, i64 0, i64 0, %"class.std::__1::vector"* null) #12
  %8 = getelementptr inbounds %"class.mojo::Message", %"class.mojo::Message"* %4, i64 0, i32 1
  %9 = call i64 @_ZN4mojo8internal6Buffer8AllocateEm(%"class.mojo::internal::Buffer"* %8, i64 16) #12
  %10 = getelementptr inbounds %"class.mojo::Message", %"class.mojo::Message"* %4, i64 0, i32 1, i32 2
  %11 = load i8*, i8** %10, align 8
  %12 = getelementptr inbounds i8, i8* %11, i64 %9
  %13 = bitcast i8* %12 to %"class.bluetooth::mojom::internal::Adapter_SetDiscoverable_Params_Data"*
  call void @_ZN9bluetooth5mojom8internal35Adapter_SetDiscoverable_Params_DataC1Ev(%"class.bluetooth::mojom::internal::Adapter_SetDiscoverable_Params_Data"* %13) #12
  %14 = load i8*, i8** %10, align 8
  %15 = getelementptr inbounds i8, i8* %14, i64 %9
  %16 = getelementptr inbounds i8, i8* %15, i64 8
  %17 = load i8, i8* %16, align 1
  %18 = and i8 %17, -2
  %19 = or i8 %18, %6
  store i8 %19, i8* %16, align 1
  %20 = call i8* @_Znwm(i64 16) #13
  %21 = getelementptr inbounds %"class.base::OnceCallback.76", %"class.base::OnceCallback.76"* %2, i64 0, i32 0, i32 0, i32 0
  %22 = bitcast %"class.base::OnceCallback.76"* %2 to i64*
  %23 = load i64, i64* %22, align 8
  store %"class.base::internal::BindStateBase"* null, %"class.base::internal::BindStateBase"** %21, align 8
  %24 = bitcast i8* %20 to i32 (...)***
  store i32 (...)** bitcast (i8** getelementptr inbounds ({ [6 x i8*] }, { [6 x i8*] }* @_ZTVN9bluetooth5mojom41Adapter_SetDiscoverable_ForwardToCallbackE, i64 0, inrange i32 0, i64 2) to i32 (...)**), i32 (...)*** %24, align 8
  %25 = getelementptr inbounds i8, i8* %20, i64 8
  %26 = getelementptr inbounds %"class.base::OnceCallback.76", %"class.base::OnceCallback.76"* %5, i64 0, i32 0, i32 0, i32 0
  %27 = bitcast i8* %25 to i64*
  store i64 %23, i64* %27, align 8
  store %"class.base::internal::BindStateBase"* null, %"class.base::internal::BindStateBase"** %26, align 8
  %28 = bitcast i8* %20 to %"class.mojo::MessageReceiver"*
  %29 = getelementptr inbounds %"class.base::OnceCallback.76", %"class.base::OnceCallback.76"* %5, i64 0, i32 0
  call void @_ZN4base8internal12CallbackBaseD2Ev(%"class.base::internal::CallbackBase"* nonnull %29) #12
  %30 = getelementptr inbounds %"class.bluetooth::mojom::AdapterProxy", %"class.bluetooth::mojom::AdapterProxy"* %0, i64 0, i32 1
  %31 = load %"class.mojo::MessageReceiverWithResponder"*, %"class.mojo::MessageReceiverWithResponder"** %30, align 8
  %32 = bitcast %"class.mojo::MessageReceiverWithResponder"* %31 to i1 (%"class.mojo::MessageReceiverWithResponder"*, %"class.mojo::Message"*, %"class.mojo::MessageReceiver"*)***
  %33 = load i1 (%"class.mojo::MessageReceiverWithResponder"*, %"class.mojo::Message"*, %"class.mojo::MessageReceiver"*)**, i1 (%"class.mojo::MessageReceiverWithResponder"*, %"class.mojo::Message"*, %"class.mojo::MessageReceiver"*)*** %32, align 8
  %34 = getelementptr inbounds i1 (%"class.mojo::MessageReceiverWithResponder"*, %"class.mojo::Message"*, %"class.mojo::MessageReceiver"*)*, i1 (%"class.mojo::MessageReceiverWithResponder"*, %"class.mojo::Message"*, %"class.mojo::MessageReceiver"*)** %33, i64 4
  %35 = load i1 (%"class.mojo::MessageReceiverWithResponder"*, %"class.mojo::Message"*, %"class.mojo::MessageReceiver"*)*, i1 (%"class.mojo::MessageReceiverWithResponder"*, %"class.mojo::Message"*, %"class.mojo::MessageReceiver"*)** %34, align 8
  %36 = call zeroext i1 %35(%"class.mojo::MessageReceiverWithResponder"* %31, %"class.mojo::Message"* nonnull %4, %"class.mojo::MessageReceiver"* nonnull %28) #12
  call void @_ZN4mojo7MessageD1Ev(%"class.mojo::Message"* nonnull %4) #12
  call void @llvm.lifetime.end.p0i8(i64 120, i8* nonnull %7) #12
  ret void
}

; Function Attrs: nounwind ssp uwtable
define hidden zeroext i1 @_ZN9bluetooth5mojom12AdapterProxy7SetNameERKNSt3__112basic_stringIcNS2_11char_traitsIcEENS2_9allocatorIcEEEEPb(%"class.bluetooth::mojom::AdapterProxy"* nocapture readonly, %"class.std::__1::basic_string"* dereferenceable(24), i8*) unnamed_addr #0 align 2 {
  %4 = alloca %"class.mojo::Message", align 8
  %5 = alloca %"class.mojo::internal::MessageFragment.123", align 8
  %6 = alloca i8, align 1
  %7 = bitcast %"class.mojo::Message"* %4 to i8*
  call void @llvm.lifetime.start.p0i8(i64 120, i8* nonnull %7) #12
  call void @llvm.memset.p0i8.i64(i8* nonnull align 8 %7, i8 -86, i64 120, i1 false)
  call void @_ZN4mojo7MessageC1EjjmmPNSt3__16vectorINS_16ScopedHandleBaseINS_6HandleEEENS1_9allocatorIS5_EEEE(%"class.mojo::Message"* nonnull %4, i32 1939763854, i32 5, i64 0, i64 0, %"class.std::__1::vector"* null) #12
  %8 = getelementptr inbounds %"class.mojo::Message", %"class.mojo::Message"* %4, i64 0, i32 1
  %9 = call i64 @_ZN4mojo8internal6Buffer8AllocateEm(%"class.mojo::internal::Buffer"* %8, i64 16) #12
  %10 = getelementptr inbounds %"class.mojo::Message", %"class.mojo::Message"* %4, i64 0, i32 1, i32 2
  %11 = load i8*, i8** %10, align 8
  %12 = getelementptr inbounds i8, i8* %11, i64 %9
  %13 = bitcast i8* %12 to %"class.bluetooth::mojom::internal::Adapter_SetName_Params_Data"*
  call void @_ZN9bluetooth5mojom8internal27Adapter_SetName_Params_DataC1Ev(%"class.bluetooth::mojom::internal::Adapter_SetName_Params_Data"* %13) #12
  %14 = bitcast %"class.mojo::internal::MessageFragment.123"* %5 to i8*
  call void @llvm.lifetime.start.p0i8(i64 16, i8* nonnull %14) #12
  %15 = getelementptr inbounds %"class.mojo::internal::MessageFragment.123", %"class.mojo::internal::MessageFragment.123"* %5, i64 0, i32 0
  %16 = getelementptr inbounds %"class.mojo::internal::MessageFragment.123", %"class.mojo::internal::MessageFragment.123"* %5, i64 0, i32 1
  store %"class.mojo::Message"* %4, %"class.mojo::Message"** %15, align 8
  store i64 -1, i64* %16, align 8
  call void @_ZN4mojo8internal10SerializerINS_14StringDataViewEKNSt3__112basic_stringIcNS3_11char_traitsIcEENS3_9allocatorIcEEEEE9SerializeERSA_RNS0_15MessageFragmentINS0_10Array_DataIcEEEE(%"class.std::__1::basic_string"* dereferenceable(24) %1, %"class.mojo::internal::MessageFragment.123"* nonnull dereferenceable(16) %5) #12
  %17 = load i8*, i8** %10, align 8
  %18 = getelementptr inbounds i8, i8* %17, i64 %9
  %19 = getelementptr inbounds i8, i8* %18, i64 8
  %20 = load i64, i64* %16, align 8
  %21 = icmp eq i64 %20, -1
  br i1 %21, label %28, label %22

22:                                               ; preds = %3
  %23 = load %"class.mojo::Message"*, %"class.mojo::Message"** %15, align 8
  %24 = getelementptr inbounds %"class.mojo::Message", %"class.mojo::Message"* %23, i64 0, i32 1, i32 2
  %25 = load i8*, i8** %24, align 8
  %26 = getelementptr inbounds i8, i8* %25, i64 %20
  %27 = bitcast i8* %26 to %"class.mojo::internal::Array_Data"*
  br label %28

28:                                               ; preds = %22, %3
  %29 = phi %"class.mojo::internal::Array_Data"* [ %27, %22 ], [ null, %3 ]
  %30 = bitcast i8* %19 to i64*
  %31 = icmp eq %"class.mojo::internal::Array_Data"* %29, null
  %32 = ptrtoint %"class.mojo::internal::Array_Data"* %29 to i64
  %33 = ptrtoint i8* %19 to i64
  %34 = sub i64 %32, %33
  %35 = select i1 %31, i64 0, i64 %34
  store i64 %35, i64* %30, align 8
  call void @llvm.lifetime.start.p0i8(i64 1, i8* nonnull %6) #12
  store i8 0, i8* %6, align 1
  %36 = call i8* @_Znwm(i64 24) #13
  %37 = bitcast i8* %36 to i32 (...)***
  store i32 (...)** bitcast (i8** getelementptr inbounds ({ [6 x i8*] }, { [6 x i8*] }* @_ZTVN9bluetooth5mojom34Adapter_SetName_HandleSyncResponseE, i64 0, inrange i32 0, i64 2) to i32 (...)**), i32 (...)*** %37, align 8
  %38 = getelementptr inbounds i8, i8* %36, i64 8
  %39 = bitcast i8* %38 to i8**
  store i8* %6, i8** %39, align 8
  %40 = getelementptr inbounds i8, i8* %36, i64 16
  %41 = bitcast i8* %40 to i8**
  store i8* %2, i8** %41, align 8
  %42 = bitcast i8* %36 to %"class.mojo::MessageReceiver"*
  %43 = getelementptr inbounds %"class.bluetooth::mojom::AdapterProxy", %"class.bluetooth::mojom::AdapterProxy"* %0, i64 0, i32 1
  %44 = load %"class.mojo::MessageReceiverWithResponder"*, %"class.mojo::MessageReceiverWithResponder"** %43, align 8
  %45 = bitcast %"class.mojo::MessageReceiverWithResponder"* %44 to i1 (%"class.mojo::MessageReceiverWithResponder"*, %"class.mojo::Message"*, %"class.mojo::MessageReceiver"*)***
  %46 = load i1 (%"class.mojo::MessageReceiverWithResponder"*, %"class.mojo::Message"*, %"class.mojo::MessageReceiver"*)**, i1 (%"class.mojo::MessageReceiverWithResponder"*, %"class.mojo::Message"*, %"class.mojo::MessageReceiver"*)*** %45, align 8
  %47 = getelementptr inbounds i1 (%"class.mojo::MessageReceiverWithResponder"*, %"class.mojo::Message"*, %"class.mojo::MessageReceiver"*)*, i1 (%"class.mojo::MessageReceiverWithResponder"*, %"class.mojo::Message"*, %"class.mojo::MessageReceiver"*)** %46, i64 4
  %48 = load i1 (%"class.mojo::MessageReceiverWithResponder"*, %"class.mojo::Message"*, %"class.mojo::MessageReceiver"*)*, i1 (%"class.mojo::MessageReceiverWithResponder"*, %"class.mojo::Message"*, %"class.mojo::MessageReceiver"*)** %47, align 8
  %49 = call zeroext i1 %48(%"class.mojo::MessageReceiverWithResponder"* %44, %"class.mojo::Message"* nonnull %4, %"class.mojo::MessageReceiver"* nonnull %42) #12
  %50 = load i8, i8* %6, align 1, !range !14
  %51 = icmp ne i8 %50, 0
  call void @llvm.lifetime.end.p0i8(i64 1, i8* nonnull %6) #12
  call void @llvm.lifetime.end.p0i8(i64 16, i8* nonnull %14) #12
  call void @_ZN4mojo7MessageD1Ev(%"class.mojo::Message"* nonnull %4) #12
  call void @llvm.lifetime.end.p0i8(i64 120, i8* nonnull %7) #12
  ret i1 %51
}

; Function Attrs: nounwind ssp uwtable
define hidden void @_ZN9bluetooth5mojom12AdapterProxy7SetNameERKNSt3__112basic_stringIcNS2_11char_traitsIcEENS2_9allocatorIcEEEEN4base12OnceCallbackIFvbEEE(%"class.bluetooth::mojom::AdapterProxy"* nocapture readonly, %"class.std::__1::basic_string"* dereferenceable(24), %"class.base::OnceCallback.76"* nocapture) unnamed_addr #0 align 2 {
  %4 = alloca %"class.mojo::Message", align 8
  %5 = alloca %"class.mojo::internal::MessageFragment.123", align 8
  %6 = alloca %"class.base::OnceCallback.76", align 8
  %7 = bitcast %"class.mojo::Message"* %4 to i8*
  call void @llvm.lifetime.start.p0i8(i64 120, i8* nonnull %7) #12
  call void @llvm.memset.p0i8.i64(i8* nonnull align 8 %7, i8 -86, i64 120, i1 false)
  call void @_ZN4mojo7MessageC1EjjmmPNSt3__16vectorINS_16ScopedHandleBaseINS_6HandleEEENS1_9allocatorIS5_EEEE(%"class.mojo::Message"* nonnull %4, i32 1939763854, i32 1, i64 0, i64 0, %"class.std::__1::vector"* null) #12
  %8 = getelementptr inbounds %"class.mojo::Message", %"class.mojo::Message"* %4, i64 0, i32 1
  %9 = call i64 @_ZN4mojo8internal6Buffer8AllocateEm(%"class.mojo::internal::Buffer"* %8, i64 16) #12
  %10 = getelementptr inbounds %"class.mojo::Message", %"class.mojo::Message"* %4, i64 0, i32 1, i32 2
  %11 = load i8*, i8** %10, align 8
  %12 = getelementptr inbounds i8, i8* %11, i64 %9
  %13 = bitcast i8* %12 to %"class.bluetooth::mojom::internal::Adapter_SetName_Params_Data"*
  call void @_ZN9bluetooth5mojom8internal27Adapter_SetName_Params_DataC1Ev(%"class.bluetooth::mojom::internal::Adapter_SetName_Params_Data"* %13) #12
  %14 = bitcast %"class.mojo::internal::MessageFragment.123"* %5 to i8*
  call void @llvm.lifetime.start.p0i8(i64 16, i8* nonnull %14) #12
  %15 = getelementptr inbounds %"class.mojo::internal::MessageFragment.123", %"class.mojo::internal::MessageFragment.123"* %5, i64 0, i32 0
  %16 = getelementptr inbounds %"class.mojo::internal::MessageFragment.123", %"class.mojo::internal::MessageFragment.123"* %5, i64 0, i32 1
  store %"class.mojo::Message"* %4, %"class.mojo::Message"** %15, align 8
  store i64 -1, i64* %16, align 8
  call void @_ZN4mojo8internal10SerializerINS_14StringDataViewEKNSt3__112basic_stringIcNS3_11char_traitsIcEENS3_9allocatorIcEEEEE9SerializeERSA_RNS0_15MessageFragmentINS0_10Array_DataIcEEEE(%"class.std::__1::basic_string"* dereferenceable(24) %1, %"class.mojo::internal::MessageFragment.123"* nonnull dereferenceable(16) %5) #12
  %17 = load i8*, i8** %10, align 8
  %18 = getelementptr inbounds i8, i8* %17, i64 %9
  %19 = getelementptr inbounds i8, i8* %18, i64 8
  %20 = load i64, i64* %16, align 8
  %21 = icmp eq i64 %20, -1
  br i1 %21, label %28, label %22

22:                                               ; preds = %3
  %23 = load %"class.mojo::Message"*, %"class.mojo::Message"** %15, align 8
  %24 = getelementptr inbounds %"class.mojo::Message", %"class.mojo::Message"* %23, i64 0, i32 1, i32 2
  %25 = load i8*, i8** %24, align 8
  %26 = getelementptr inbounds i8, i8* %25, i64 %20
  %27 = bitcast i8* %26 to %"class.mojo::internal::Array_Data"*
  br label %28

28:                                               ; preds = %22, %3
  %29 = phi %"class.mojo::internal::Array_Data"* [ %27, %22 ], [ null, %3 ]
  %30 = bitcast i8* %19 to i64*
  %31 = icmp eq %"class.mojo::internal::Array_Data"* %29, null
  %32 = ptrtoint %"class.mojo::internal::Array_Data"* %29 to i64
  %33 = ptrtoint i8* %19 to i64
  %34 = sub i64 %32, %33
  %35 = select i1 %31, i64 0, i64 %34
  store i64 %35, i64* %30, align 8
  %36 = call i8* @_Znwm(i64 16) #13
  %37 = getelementptr inbounds %"class.base::OnceCallback.76", %"class.base::OnceCallback.76"* %2, i64 0, i32 0, i32 0, i32 0
  %38 = bitcast %"class.base::OnceCallback.76"* %2 to i64*
  %39 = load i64, i64* %38, align 8
  store %"class.base::internal::BindStateBase"* null, %"class.base::internal::BindStateBase"** %37, align 8
  %40 = bitcast i8* %36 to i32 (...)***
  store i32 (...)** bitcast (i8** getelementptr inbounds ({ [6 x i8*] }, { [6 x i8*] }* @_ZTVN9bluetooth5mojom33Adapter_SetName_ForwardToCallbackE, i64 0, inrange i32 0, i64 2) to i32 (...)**), i32 (...)*** %40, align 8
  %41 = getelementptr inbounds i8, i8* %36, i64 8
  %42 = getelementptr inbounds %"class.base::OnceCallback.76", %"class.base::OnceCallback.76"* %6, i64 0, i32 0, i32 0, i32 0
  %43 = bitcast i8* %41 to i64*
  store i64 %39, i64* %43, align 8
  store %"class.base::internal::BindStateBase"* null, %"class.base::internal::BindStateBase"** %42, align 8
  %44 = bitcast i8* %36 to %"class.mojo::MessageReceiver"*
  %45 = getelementptr inbounds %"class.base::OnceCallback.76", %"class.base::OnceCallback.76"* %6, i64 0, i32 0
  call void @_ZN4base8internal12CallbackBaseD2Ev(%"class.base::internal::CallbackBase"* nonnull %45) #12
  %46 = getelementptr inbounds %"class.bluetooth::mojom::AdapterProxy", %"class.bluetooth::mojom::AdapterProxy"* %0, i64 0, i32 1
  %47 = load %"class.mojo::MessageReceiverWithResponder"*, %"class.mojo::MessageReceiverWithResponder"** %46, align 8
  %48 = bitcast %"class.mojo::MessageReceiverWithResponder"* %47 to i1 (%"class.mojo::MessageReceiverWithResponder"*, %"class.mojo::Message"*, %"class.mojo::MessageReceiver"*)***
  %49 = load i1 (%"class.mojo::MessageReceiverWithResponder"*, %"class.mojo::Message"*, %"class.mojo::MessageReceiver"*)**, i1 (%"class.mojo::MessageReceiverWithResponder"*, %"class.mojo::Message"*, %"class.mojo::MessageReceiver"*)*** %48, align 8
  %50 = getelementptr inbounds i1 (%"class.mojo::MessageReceiverWithResponder"*, %"class.mojo::Message"*, %"class.mojo::MessageReceiver"*)*, i1 (%"class.mojo::MessageReceiverWithResponder"*, %"class.mojo::Message"*, %"class.mojo::MessageReceiver"*)** %49, i64 4
  %51 = load i1 (%"class.mojo::MessageReceiverWithResponder"*, %"class.mojo::Message"*, %"class.mojo::MessageReceiver"*)*, i1 (%"class.mojo::MessageReceiverWithResponder"*, %"class.mojo::Message"*, %"class.mojo::MessageReceiver"*)** %50, align 8
  %52 = call zeroext i1 %51(%"class.mojo::MessageReceiverWithResponder"* %47, %"class.mojo::Message"* nonnull %4, %"class.mojo::MessageReceiver"* nonnull %44) #12
  call void @llvm.lifetime.end.p0i8(i64 16, i8* nonnull %14) #12
  call void @_ZN4mojo7MessageD1Ev(%"class.mojo::Message"* nonnull %4) #12
  call void @llvm.lifetime.end.p0i8(i64 120, i8* nonnull %7) #12
  ret void
}

; Function Attrs: nounwind ssp uwtable
define hidden zeroext i1 @_ZN9bluetooth5mojom12AdapterProxy21StartDiscoverySessionEPN4mojo13PendingRemoteINS0_16DiscoverySessionEEE(%"class.bluetooth::mojom::AdapterProxy"* nocapture readonly, %"class.mojo::PendingRemote.112"*) unnamed_addr #0 align 2 {
  %3 = alloca %"class.mojo::Message", align 8
  %4 = alloca i8, align 1
  %5 = bitcast %"class.mojo::Message"* %3 to i8*
  call void @llvm.lifetime.start.p0i8(i64 120, i8* nonnull %5) #12
  call void @llvm.memset.p0i8.i64(i8* nonnull align 8 %5, i8 -86, i64 120, i1 false)
  call void @_ZN4mojo7MessageC1EjjmmPNSt3__16vectorINS_16ScopedHandleBaseINS_6HandleEEENS1_9allocatorIS5_EEEE(%"class.mojo::Message"* nonnull %3, i32 1268654975, i32 5, i64 0, i64 0, %"class.std::__1::vector"* null) #12
  %6 = getelementptr inbounds %"class.mojo::Message", %"class.mojo::Message"* %3, i64 0, i32 1
  %7 = call i64 @_ZN4mojo8internal6Buffer8AllocateEm(%"class.mojo::internal::Buffer"* %6, i64 8) #12
  %8 = getelementptr inbounds %"class.mojo::Message", %"class.mojo::Message"* %3, i64 0, i32 1, i32 2
  %9 = load i8*, i8** %8, align 8
  %10 = getelementptr inbounds i8, i8* %9, i64 %7
  %11 = bitcast i8* %10 to %"class.bluetooth::mojom::internal::Adapter_StartDiscoverySession_Params_Data"*
  call void @_ZN9bluetooth5mojom8internal41Adapter_StartDiscoverySession_Params_DataC1Ev(%"class.bluetooth::mojom::internal::Adapter_StartDiscoverySession_Params_Data"* %11) #12
  call void @llvm.lifetime.start.p0i8(i64 1, i8* nonnull %4) #12
  store i8 0, i8* %4, align 1
  %12 = call i8* @_Znwm(i64 24) #13
  %13 = bitcast i8* %12 to i32 (...)***
  store i32 (...)** bitcast (i8** getelementptr inbounds ({ [6 x i8*] }, { [6 x i8*] }* @_ZTVN9bluetooth5mojom48Adapter_StartDiscoverySession_HandleSyncResponseE, i64 0, inrange i32 0, i64 2) to i32 (...)**), i32 (...)*** %13, align 8
  %14 = getelementptr inbounds i8, i8* %12, i64 8
  %15 = bitcast i8* %14 to i8**
  store i8* %4, i8** %15, align 8
  %16 = getelementptr inbounds i8, i8* %12, i64 16
  %17 = bitcast i8* %16 to %"class.mojo::PendingRemote.112"**
  store %"class.mojo::PendingRemote.112"* %1, %"class.mojo::PendingRemote.112"** %17, align 8
  %18 = bitcast i8* %12 to %"class.mojo::MessageReceiver"*
  %19 = getelementptr inbounds %"class.bluetooth::mojom::AdapterProxy", %"class.bluetooth::mojom::AdapterProxy"* %0, i64 0, i32 1
  %20 = load %"class.mojo::MessageReceiverWithResponder"*, %"class.mojo::MessageReceiverWithResponder"** %19, align 8
  %21 = bitcast %"class.mojo::MessageReceiverWithResponder"* %20 to i1 (%"class.mojo::MessageReceiverWithResponder"*, %"class.mojo::Message"*, %"class.mojo::MessageReceiver"*)***
  %22 = load i1 (%"class.mojo::MessageReceiverWithResponder"*, %"class.mojo::Message"*, %"class.mojo::MessageReceiver"*)**, i1 (%"class.mojo::MessageReceiverWithResponder"*, %"class.mojo::Message"*, %"class.mojo::MessageReceiver"*)*** %21, align 8
  %23 = getelementptr inbounds i1 (%"class.mojo::MessageReceiverWithResponder"*, %"class.mojo::Message"*, %"class.mojo::MessageReceiver"*)*, i1 (%"class.mojo::MessageReceiverWithResponder"*, %"class.mojo::Message"*, %"class.mojo::MessageReceiver"*)** %22, i64 4
  %24 = load i1 (%"class.mojo::MessageReceiverWithResponder"*, %"class.mojo::Message"*, %"class.mojo::MessageReceiver"*)*, i1 (%"class.mojo::MessageReceiverWithResponder"*, %"class.mojo::Message"*, %"class.mojo::MessageReceiver"*)** %23, align 8
  %25 = call zeroext i1 %24(%"class.mojo::MessageReceiverWithResponder"* %20, %"class.mojo::Message"* nonnull %3, %"class.mojo::MessageReceiver"* nonnull %18) #12
  %26 = load i8, i8* %4, align 1, !range !14
  %27 = icmp ne i8 %26, 0
  call void @llvm.lifetime.end.p0i8(i64 1, i8* nonnull %4) #12
  call void @_ZN4mojo7MessageD1Ev(%"class.mojo::Message"* nonnull %3) #12
  call void @llvm.lifetime.end.p0i8(i64 120, i8* nonnull %5) #12
  ret i1 %27
}

; Function Attrs: nounwind ssp uwtable
define hidden void @_ZN9bluetooth5mojom12AdapterProxy21StartDiscoverySessionEN4base12OnceCallbackIFvN4mojo13PendingRemoteINS0_16DiscoverySessionEEEEEE(%"class.bluetooth::mojom::AdapterProxy"* nocapture readonly, %"class.base::OnceCallback.140"* nocapture) unnamed_addr #0 align 2 {
  %3 = alloca %"class.mojo::Message", align 8
  %4 = alloca %"class.base::OnceCallback.140", align 8
  %5 = bitcast %"class.mojo::Message"* %3 to i8*
  call void @llvm.lifetime.start.p0i8(i64 120, i8* nonnull %5) #12
  call void @llvm.memset.p0i8.i64(i8* nonnull align 8 %5, i8 -86, i64 120, i1 false)
  call void @_ZN4mojo7MessageC1EjjmmPNSt3__16vectorINS_16ScopedHandleBaseINS_6HandleEEENS1_9allocatorIS5_EEEE(%"class.mojo::Message"* nonnull %3, i32 1268654975, i32 1, i64 0, i64 0, %"class.std::__1::vector"* null) #12
  %6 = getelementptr inbounds %"class.mojo::Message", %"class.mojo::Message"* %3, i64 0, i32 1
  %7 = call i64 @_ZN4mojo8internal6Buffer8AllocateEm(%"class.mojo::internal::Buffer"* %6, i64 8) #12
  %8 = getelementptr inbounds %"class.mojo::Message", %"class.mojo::Message"* %3, i64 0, i32 1, i32 2
  %9 = load i8*, i8** %8, align 8
  %10 = getelementptr inbounds i8, i8* %9, i64 %7
  %11 = bitcast i8* %10 to %"class.bluetooth::mojom::internal::Adapter_StartDiscoverySession_Params_Data"*
  call void @_ZN9bluetooth5mojom8internal41Adapter_StartDiscoverySession_Params_DataC1Ev(%"class.bluetooth::mojom::internal::Adapter_StartDiscoverySession_Params_Data"* %11) #12
  %12 = call i8* @_Znwm(i64 16) #13
  %13 = getelementptr inbounds %"class.base::OnceCallback.140", %"class.base::OnceCallback.140"* %1, i64 0, i32 0, i32 0, i32 0
  %14 = bitcast %"class.base::OnceCallback.140"* %1 to i64*
  %15 = load i64, i64* %14, align 8
  store %"class.base::internal::BindStateBase"* null, %"class.base::internal::BindStateBase"** %13, align 8
  %16 = bitcast i8* %12 to i32 (...)***
  store i32 (...)** bitcast (i8** getelementptr inbounds ({ [6 x i8*] }, { [6 x i8*] }* @_ZTVN9bluetooth5mojom47Adapter_StartDiscoverySession_ForwardToCallbackE, i64 0, inrange i32 0, i64 2) to i32 (...)**), i32 (...)*** %16, align 8
  %17 = getelementptr inbounds i8, i8* %12, i64 8
  %18 = getelementptr inbounds %"class.base::OnceCallback.140", %"class.base::OnceCallback.140"* %4, i64 0, i32 0, i32 0, i32 0
  %19 = bitcast i8* %17 to i64*
  store i64 %15, i64* %19, align 8
  store %"class.base::internal::BindStateBase"* null, %"class.base::internal::BindStateBase"** %18, align 8
  %20 = bitcast i8* %12 to %"class.mojo::MessageReceiver"*
  %21 = getelementptr inbounds %"class.base::OnceCallback.140", %"class.base::OnceCallback.140"* %4, i64 0, i32 0
  call void @_ZN4base8internal12CallbackBaseD2Ev(%"class.base::internal::CallbackBase"* nonnull %21) #12
  %22 = getelementptr inbounds %"class.bluetooth::mojom::AdapterProxy", %"class.bluetooth::mojom::AdapterProxy"* %0, i64 0, i32 1
  %23 = load %"class.mojo::MessageReceiverWithResponder"*, %"class.mojo::MessageReceiverWithResponder"** %22, align 8
  %24 = bitcast %"class.mojo::MessageReceiverWithResponder"* %23 to i1 (%"class.mojo::MessageReceiverWithResponder"*, %"class.mojo::Message"*, %"class.mojo::MessageReceiver"*)***
  %25 = load i1 (%"class.mojo::MessageReceiverWithResponder"*, %"class.mojo::Message"*, %"class.mojo::MessageReceiver"*)**, i1 (%"class.mojo::MessageReceiverWithResponder"*, %"class.mojo::Message"*, %"class.mojo::MessageReceiver"*)*** %24, align 8
  %26 = getelementptr inbounds i1 (%"class.mojo::MessageReceiverWithResponder"*, %"class.mojo::Message"*, %"class.mojo::MessageReceiver"*)*, i1 (%"class.mojo::MessageReceiverWithResponder"*, %"class.mojo::Message"*, %"class.mojo::MessageReceiver"*)** %25, i64 4
  %27 = load i1 (%"class.mojo::MessageReceiverWithResponder"*, %"class.mojo::Message"*, %"class.mojo::MessageReceiver"*)*, i1 (%"class.mojo::MessageReceiverWithResponder"*, %"class.mojo::Message"*, %"class.mojo::MessageReceiver"*)** %26, align 8
  %28 = call zeroext i1 %27(%"class.mojo::MessageReceiverWithResponder"* %23, %"class.mojo::Message"* nonnull %3, %"class.mojo::MessageReceiver"* nonnull %20) #12
  call void @_ZN4mojo7MessageD1Ev(%"class.mojo::Message"* nonnull %3) #12
  call void @llvm.lifetime.end.p0i8(i64 120, i8* nonnull %5) #12
  ret void
}

; Function Attrs: nounwind ssp uwtable
define hidden zeroext i1 @_ZN9bluetooth5mojom12AdapterProxy26ConnectToServiceInsecurelyERKNSt3__112basic_stringIcNS2_11char_traitsIcEENS2_9allocatorIcEEEERKN6device13BluetoothUUIDEPN4mojo9StructPtrINS0_22ConnectToServiceResultEEE(%"class.bluetooth::mojom::AdapterProxy"* nocapture readonly, %"class.std::__1::basic_string"* dereferenceable(24), %"class.device::BluetoothUUID"* dereferenceable(56), %"class.mojo::StructPtr.113"*) unnamed_addr #0 align 2 {
  %5 = alloca %"class.mojo::internal::MessageFragment.123", align 8
  %6 = alloca %"class.mojo::Message", align 8
  %7 = alloca %"class.mojo::internal::MessageFragment.123", align 8
  %8 = alloca i8, align 1
  %9 = bitcast %"class.mojo::Message"* %6 to i8*
  call void @llvm.lifetime.start.p0i8(i64 120, i8* nonnull %9) #12
  call void @llvm.memset.p0i8.i64(i8* nonnull align 8 %9, i8 -86, i64 120, i1 false)
  call void @_ZN4mojo7MessageC1EjjmmPNSt3__16vectorINS_16ScopedHandleBaseINS_6HandleEEENS1_9allocatorIS5_EEEE(%"class.mojo::Message"* nonnull %6, i32 274022201, i32 5, i64 0, i64 0, %"class.std::__1::vector"* null) #12
  %10 = getelementptr inbounds %"class.mojo::Message", %"class.mojo::Message"* %6, i64 0, i32 1
  %11 = call i64 @_ZN4mojo8internal6Buffer8AllocateEm(%"class.mojo::internal::Buffer"* %10, i64 24) #12
  %12 = getelementptr inbounds %"class.mojo::Message", %"class.mojo::Message"* %6, i64 0, i32 1, i32 2
  %13 = load i8*, i8** %12, align 8
  %14 = getelementptr inbounds i8, i8* %13, i64 %11
  %15 = bitcast i8* %14 to %"class.bluetooth::mojom::internal::Adapter_ConnectToServiceInsecurely_Params_Data"*
  call void @_ZN9bluetooth5mojom8internal46Adapter_ConnectToServiceInsecurely_Params_DataC1Ev(%"class.bluetooth::mojom::internal::Adapter_ConnectToServiceInsecurely_Params_Data"* %15) #12
  %16 = bitcast %"class.mojo::internal::MessageFragment.123"* %7 to i8*
  call void @llvm.lifetime.start.p0i8(i64 16, i8* nonnull %16) #12
  %17 = getelementptr inbounds %"class.mojo::internal::MessageFragment.123", %"class.mojo::internal::MessageFragment.123"* %7, i64 0, i32 0
  %18 = getelementptr inbounds %"class.mojo::internal::MessageFragment.123", %"class.mojo::internal::MessageFragment.123"* %7, i64 0, i32 1
  store %"class.mojo::Message"* %6, %"class.mojo::Message"** %17, align 8
  store i64 -1, i64* %18, align 8
  call void @_ZN4mojo8internal10SerializerINS_14StringDataViewEKNSt3__112basic_stringIcNS3_11char_traitsIcEENS3_9allocatorIcEEEEE9SerializeERSA_RNS0_15MessageFragmentINS0_10Array_DataIcEEEE(%"class.std::__1::basic_string"* dereferenceable(24) %1, %"class.mojo::internal::MessageFragment.123"* nonnull dereferenceable(16) %7) #12
  %19 = load i8*, i8** %12, align 8
  %20 = getelementptr inbounds i8, i8* %19, i64 %11
  %21 = getelementptr inbounds i8, i8* %20, i64 8
  %22 = load i64, i64* %18, align 8
  %23 = icmp eq i64 %22, -1
  br i1 %23, label %30, label %24

24:                                               ; preds = %4
  %25 = load %"class.mojo::Message"*, %"class.mojo::Message"** %17, align 8
  %26 = getelementptr inbounds %"class.mojo::Message", %"class.mojo::Message"* %25, i64 0, i32 1, i32 2
  %27 = load i8*, i8** %26, align 8
  %28 = getelementptr inbounds i8, i8* %27, i64 %22
  %29 = bitcast i8* %28 to %"class.mojo::internal::Array_Data"*
  br label %30

30:                                               ; preds = %4, %24
  %31 = phi %"class.mojo::internal::Array_Data"* [ %29, %24 ], [ null, %4 ]
  %32 = bitcast i8* %21 to i64*
  %33 = icmp eq %"class.mojo::internal::Array_Data"* %31, null
  %34 = ptrtoint %"class.mojo::internal::Array_Data"* %31 to i64
  %35 = ptrtoint i8* %21 to i64
  %36 = sub i64 %34, %35
  %37 = select i1 %33, i64 0, i64 %36
  store i64 %37, i64* %32, align 8
  %38 = ptrtoint %"class.mojo::Message"* %6 to i64
  %39 = call i64 @_ZN4mojo8internal6Buffer8AllocateEm(%"class.mojo::internal::Buffer"* %10, i64 16) #12
  %40 = load i8*, i8** %12, align 8
  %41 = getelementptr inbounds i8, i8* %40, i64 %39
  %42 = bitcast i8* %41 to %"class.bluetooth::mojom::internal::UUID_Data"*
  call void @_ZN9bluetooth5mojom8internal9UUID_DataC1Ev(%"class.bluetooth::mojom::internal::UUID_Data"* %42) #12
  %43 = getelementptr inbounds %"class.device::BluetoothUUID", %"class.device::BluetoothUUID"* %2, i64 0, i32 2
  %44 = bitcast %"class.mojo::internal::MessageFragment.123"* %5 to i8*
  call void @llvm.lifetime.start.p0i8(i64 16, i8* nonnull %44) #12
  %45 = getelementptr inbounds %"class.mojo::internal::MessageFragment.123", %"class.mojo::internal::MessageFragment.123"* %5, i64 0, i32 1
  %46 = bitcast %"class.mojo::internal::MessageFragment.123"* %5 to i64*
  store i64 %38, i64* %46, align 8
  store i64 -1, i64* %45, align 8
  call void @_ZN4mojo8internal10SerializerINS_14StringDataViewEKNSt3__112basic_stringIcNS3_11char_traitsIcEENS3_9allocatorIcEEEEE9SerializeERSA_RNS0_15MessageFragmentINS0_10Array_DataIcEEEE(%"class.std::__1::basic_string"* dereferenceable(24) %43, %"class.mojo::internal::MessageFragment.123"* nonnull dereferenceable(16) %5) #12
  %47 = load i8*, i8** %12, align 8
  %48 = getelementptr inbounds i8, i8* %47, i64 %39
  %49 = getelementptr inbounds i8, i8* %48, i64 8
  %50 = load i64, i64* %45, align 8
  %51 = icmp eq i64 %50, -1
  br i1 %51, label %59, label %52

52:                                               ; preds = %30
  %53 = getelementptr inbounds %"class.mojo::internal::MessageFragment.123", %"class.mojo::internal::MessageFragment.123"* %5, i64 0, i32 0
  %54 = load %"class.mojo::Message"*, %"class.mojo::Message"** %53, align 8
  %55 = getelementptr inbounds %"class.mojo::Message", %"class.mojo::Message"* %54, i64 0, i32 1, i32 2
  %56 = load i8*, i8** %55, align 8
  %57 = getelementptr inbounds i8, i8* %56, i64 %50
  %58 = bitcast i8* %57 to %"class.mojo::internal::Array_Data"*
  br label %59

59:                                               ; preds = %30, %52
  %60 = phi %"class.mojo::internal::Array_Data"* [ %58, %52 ], [ null, %30 ]
  %61 = bitcast i8* %49 to i64*
  %62 = icmp eq %"class.mojo::internal::Array_Data"* %60, null
  %63 = ptrtoint %"class.mojo::internal::Array_Data"* %60 to i64
  %64 = ptrtoint i8* %49 to i64
  %65 = sub i64 %63, %64
  %66 = select i1 %62, i64 0, i64 %65
  store i64 %66, i64* %61, align 8
  call void @llvm.lifetime.end.p0i8(i64 16, i8* nonnull %44) #12
  %67 = load i8*, i8** %12, align 8
  %68 = getelementptr inbounds i8, i8* %67, i64 %11
  %69 = getelementptr inbounds i8, i8* %68, i64 16
  %70 = icmp eq i64 %39, -1
  %71 = getelementptr inbounds i8, i8* %67, i64 %39
  %72 = bitcast i8* %71 to %"class.bluetooth::mojom::internal::UUID_Data"*
  %73 = select i1 %70, %"class.bluetooth::mojom::internal::UUID_Data"* null, %"class.bluetooth::mojom::internal::UUID_Data"* %72
  %74 = bitcast i8* %69 to i64*
  %75 = icmp eq %"class.bluetooth::mojom::internal::UUID_Data"* %73, null
  %76 = ptrtoint %"class.bluetooth::mojom::internal::UUID_Data"* %73 to i64
  %77 = ptrtoint i8* %69 to i64
  %78 = sub i64 %76, %77
  %79 = select i1 %75, i64 0, i64 %78
  store i64 %79, i64* %74, align 8
  call void @llvm.lifetime.start.p0i8(i64 1, i8* nonnull %8) #12
  store i8 0, i8* %8, align 1
  %80 = call i8* @_Znwm(i64 24) #13
  %81 = bitcast i8* %80 to i32 (...)***
  store i32 (...)** bitcast (i8** getelementptr inbounds ({ [6 x i8*] }, { [6 x i8*] }* @_ZTVN9bluetooth5mojom53Adapter_ConnectToServiceInsecurely_HandleSyncResponseE, i64 0, inrange i32 0, i64 2) to i32 (...)**), i32 (...)*** %81, align 8
  %82 = getelementptr inbounds i8, i8* %80, i64 8
  %83 = bitcast i8* %82 to i8**
  store i8* %8, i8** %83, align 8
  %84 = getelementptr inbounds i8, i8* %80, i64 16
  %85 = bitcast i8* %84 to %"class.mojo::StructPtr.113"**
  store %"class.mojo::StructPtr.113"* %3, %"class.mojo::StructPtr.113"** %85, align 8
  %86 = bitcast i8* %80 to %"class.mojo::MessageReceiver"*
  %87 = getelementptr inbounds %"class.bluetooth::mojom::AdapterProxy", %"class.bluetooth::mojom::AdapterProxy"* %0, i64 0, i32 1
  %88 = load %"class.mojo::MessageReceiverWithResponder"*, %"class.mojo::MessageReceiverWithResponder"** %87, align 8
  %89 = bitcast %"class.mojo::MessageReceiverWithResponder"* %88 to i1 (%"class.mojo::MessageReceiverWithResponder"*, %"class.mojo::Message"*, %"class.mojo::MessageReceiver"*)***
  %90 = load i1 (%"class.mojo::MessageReceiverWithResponder"*, %"class.mojo::Message"*, %"class.mojo::MessageReceiver"*)**, i1 (%"class.mojo::MessageReceiverWithResponder"*, %"class.mojo::Message"*, %"class.mojo::MessageReceiver"*)*** %89, align 8
  %91 = getelementptr inbounds i1 (%"class.mojo::MessageReceiverWithResponder"*, %"class.mojo::Message"*, %"class.mojo::MessageReceiver"*)*, i1 (%"class.mojo::MessageReceiverWithResponder"*, %"class.mojo::Message"*, %"class.mojo::MessageReceiver"*)** %90, i64 4
  %92 = load i1 (%"class.mojo::MessageReceiverWithResponder"*, %"class.mojo::Message"*, %"class.mojo::MessageReceiver"*)*, i1 (%"class.mojo::MessageReceiverWithResponder"*, %"class.mojo::Message"*, %"class.mojo::MessageReceiver"*)** %91, align 8
  %93 = call zeroext i1 %92(%"class.mojo::MessageReceiverWithResponder"* %88, %"class.mojo::Message"* nonnull %6, %"class.mojo::MessageReceiver"* nonnull %86) #12
  %94 = load i8, i8* %8, align 1, !range !14
  %95 = icmp ne i8 %94, 0
  call void @llvm.lifetime.end.p0i8(i64 1, i8* nonnull %8) #12
  call void @llvm.lifetime.end.p0i8(i64 16, i8* nonnull %16) #12
  call void @_ZN4mojo7MessageD1Ev(%"class.mojo::Message"* nonnull %6) #12
  call void @llvm.lifetime.end.p0i8(i64 120, i8* nonnull %9) #12
  ret i1 %95
}

; Function Attrs: nounwind ssp uwtable
define hidden void @_ZN9bluetooth5mojom12AdapterProxy26ConnectToServiceInsecurelyERKNSt3__112basic_stringIcNS2_11char_traitsIcEENS2_9allocatorIcEEEERKN6device13BluetoothUUIDEN4base12OnceCallbackIFvN4mojo9StructPtrINS0_22ConnectToServiceResultEEEEEE(%"class.bluetooth::mojom::AdapterProxy"* nocapture readonly, %"class.std::__1::basic_string"* dereferenceable(24), %"class.device::BluetoothUUID"* dereferenceable(56), %"class.base::OnceCallback.142"* nocapture) unnamed_addr #0 align 2 {
  %5 = alloca %"class.mojo::internal::MessageFragment.123", align 8
  %6 = alloca %"class.mojo::Message", align 8
  %7 = alloca %"class.mojo::internal::MessageFragment.123", align 8
  %8 = alloca %"class.base::OnceCallback.142", align 8
  %9 = bitcast %"class.mojo::Message"* %6 to i8*
  call void @llvm.lifetime.start.p0i8(i64 120, i8* nonnull %9) #12
  call void @llvm.memset.p0i8.i64(i8* nonnull align 8 %9, i8 -86, i64 120, i1 false)
  call void @_ZN4mojo7MessageC1EjjmmPNSt3__16vectorINS_16ScopedHandleBaseINS_6HandleEEENS1_9allocatorIS5_EEEE(%"class.mojo::Message"* nonnull %6, i32 274022201, i32 1, i64 0, i64 0, %"class.std::__1::vector"* null) #12
  %10 = getelementptr inbounds %"class.mojo::Message", %"class.mojo::Message"* %6, i64 0, i32 1
  %11 = call i64 @_ZN4mojo8internal6Buffer8AllocateEm(%"class.mojo::internal::Buffer"* %10, i64 24) #12
  %12 = getelementptr inbounds %"class.mojo::Message", %"class.mojo::Message"* %6, i64 0, i32 1, i32 2
  %13 = load i8*, i8** %12, align 8
  %14 = getelementptr inbounds i8, i8* %13, i64 %11
  %15 = bitcast i8* %14 to %"class.bluetooth::mojom::internal::Adapter_ConnectToServiceInsecurely_Params_Data"*
  call void @_ZN9bluetooth5mojom8internal46Adapter_ConnectToServiceInsecurely_Params_DataC1Ev(%"class.bluetooth::mojom::internal::Adapter_ConnectToServiceInsecurely_Params_Data"* %15) #12
  %16 = bitcast %"class.mojo::internal::MessageFragment.123"* %7 to i8*
  call void @llvm.lifetime.start.p0i8(i64 16, i8* nonnull %16) #12
  %17 = getelementptr inbounds %"class.mojo::internal::MessageFragment.123", %"class.mojo::internal::MessageFragment.123"* %7, i64 0, i32 0
  %18 = getelementptr inbounds %"class.mojo::internal::MessageFragment.123", %"class.mojo::internal::MessageFragment.123"* %7, i64 0, i32 1
  store %"class.mojo::Message"* %6, %"class.mojo::Message"** %17, align 8
  store i64 -1, i64* %18, align 8
  call void @_ZN4mojo8internal10SerializerINS_14StringDataViewEKNSt3__112basic_stringIcNS3_11char_traitsIcEENS3_9allocatorIcEEEEE9SerializeERSA_RNS0_15MessageFragmentINS0_10Array_DataIcEEEE(%"class.std::__1::basic_string"* dereferenceable(24) %1, %"class.mojo::internal::MessageFragment.123"* nonnull dereferenceable(16) %7) #12
  %19 = load i8*, i8** %12, align 8
  %20 = getelementptr inbounds i8, i8* %19, i64 %11
  %21 = getelementptr inbounds i8, i8* %20, i64 8
  %22 = load i64, i64* %18, align 8
  %23 = icmp eq i64 %22, -1
  br i1 %23, label %30, label %24

24:                                               ; preds = %4
  %25 = load %"class.mojo::Message"*, %"class.mojo::Message"** %17, align 8
  %26 = getelementptr inbounds %"class.mojo::Message", %"class.mojo::Message"* %25, i64 0, i32 1, i32 2
  %27 = load i8*, i8** %26, align 8
  %28 = getelementptr inbounds i8, i8* %27, i64 %22
  %29 = bitcast i8* %28 to %"class.mojo::internal::Array_Data"*
  br label %30

30:                                               ; preds = %4, %24
  %31 = phi %"class.mojo::internal::Array_Data"* [ %29, %24 ], [ null, %4 ]
  %32 = bitcast i8* %21 to i64*
  %33 = icmp eq %"class.mojo::internal::Array_Data"* %31, null
  %34 = ptrtoint %"class.mojo::internal::Array_Data"* %31 to i64
  %35 = ptrtoint i8* %21 to i64
  %36 = sub i64 %34, %35
  %37 = select i1 %33, i64 0, i64 %36
  store i64 %37, i64* %32, align 8
  %38 = ptrtoint %"class.mojo::Message"* %6 to i64
  %39 = call i64 @_ZN4mojo8internal6Buffer8AllocateEm(%"class.mojo::internal::Buffer"* %10, i64 16) #12
  %40 = load i8*, i8** %12, align 8
  %41 = getelementptr inbounds i8, i8* %40, i64 %39
  %42 = bitcast i8* %41 to %"class.bluetooth::mojom::internal::UUID_Data"*
  call void @_ZN9bluetooth5mojom8internal9UUID_DataC1Ev(%"class.bluetooth::mojom::internal::UUID_Data"* %42) #12
  %43 = getelementptr inbounds %"class.device::BluetoothUUID", %"class.device::BluetoothUUID"* %2, i64 0, i32 2
  %44 = bitcast %"class.mojo::internal::MessageFragment.123"* %5 to i8*
  call void @llvm.lifetime.start.p0i8(i64 16, i8* nonnull %44) #12
  %45 = getelementptr inbounds %"class.mojo::internal::MessageFragment.123", %"class.mojo::internal::MessageFragment.123"* %5, i64 0, i32 1
  %46 = bitcast %"class.mojo::internal::MessageFragment.123"* %5 to i64*
  store i64 %38, i64* %46, align 8
  store i64 -1, i64* %45, align 8
  call void @_ZN4mojo8internal10SerializerINS_14StringDataViewEKNSt3__112basic_stringIcNS3_11char_traitsIcEENS3_9allocatorIcEEEEE9SerializeERSA_RNS0_15MessageFragmentINS0_10Array_DataIcEEEE(%"class.std::__1::basic_string"* dereferenceable(24) %43, %"class.mojo::internal::MessageFragment.123"* nonnull dereferenceable(16) %5) #12
  %47 = load i8*, i8** %12, align 8
  %48 = getelementptr inbounds i8, i8* %47, i64 %39
  %49 = getelementptr inbounds i8, i8* %48, i64 8
  %50 = load i64, i64* %45, align 8
  %51 = icmp eq i64 %50, -1
  br i1 %51, label %59, label %52

52:                                               ; preds = %30
  %53 = getelementptr inbounds %"class.mojo::internal::MessageFragment.123", %"class.mojo::internal::MessageFragment.123"* %5, i64 0, i32 0
  %54 = load %"class.mojo::Message"*, %"class.mojo::Message"** %53, align 8
  %55 = getelementptr inbounds %"class.mojo::Message", %"class.mojo::Message"* %54, i64 0, i32 1, i32 2
  %56 = load i8*, i8** %55, align 8
  %57 = getelementptr inbounds i8, i8* %56, i64 %50
  %58 = bitcast i8* %57 to %"class.mojo::internal::Array_Data"*
  br label %59

59:                                               ; preds = %30, %52
  %60 = phi %"class.mojo::internal::Array_Data"* [ %58, %52 ], [ null, %30 ]
  %61 = bitcast i8* %49 to i64*
  %62 = icmp eq %"class.mojo::internal::Array_Data"* %60, null
  %63 = ptrtoint %"class.mojo::internal::Array_Data"* %60 to i64
  %64 = ptrtoint i8* %49 to i64
  %65 = sub i64 %63, %64
  %66 = select i1 %62, i64 0, i64 %65
  store i64 %66, i64* %61, align 8
  call void @llvm.lifetime.end.p0i8(i64 16, i8* nonnull %44) #12
  %67 = load i8*, i8** %12, align 8
  %68 = getelementptr inbounds i8, i8* %67, i64 %11
  %69 = getelementptr inbounds i8, i8* %68, i64 16
  %70 = icmp eq i64 %39, -1
  %71 = getelementptr inbounds i8, i8* %67, i64 %39
  %72 = bitcast i8* %71 to %"class.bluetooth::mojom::internal::UUID_Data"*
  %73 = select i1 %70, %"class.bluetooth::mojom::internal::UUID_Data"* null, %"class.bluetooth::mojom::internal::UUID_Data"* %72
  %74 = bitcast i8* %69 to i64*
  %75 = icmp eq %"class.bluetooth::mojom::internal::UUID_Data"* %73, null
  %76 = ptrtoint %"class.bluetooth::mojom::internal::UUID_Data"* %73 to i64
  %77 = ptrtoint i8* %69 to i64
  %78 = sub i64 %76, %77
  %79 = select i1 %75, i64 0, i64 %78
  store i64 %79, i64* %74, align 8
  %80 = call i8* @_Znwm(i64 16) #13
  %81 = getelementptr inbounds %"class.base::OnceCallback.142", %"class.base::OnceCallback.142"* %3, i64 0, i32 0, i32 0, i32 0
  %82 = bitcast %"class.base::OnceCallback.142"* %3 to i64*
  %83 = load i64, i64* %82, align 8
  store %"class.base::internal::BindStateBase"* null, %"class.base::internal::BindStateBase"** %81, align 8
  %84 = bitcast i8* %80 to i32 (...)***
  store i32 (...)** bitcast (i8** getelementptr inbounds ({ [6 x i8*] }, { [6 x i8*] }* @_ZTVN9bluetooth5mojom52Adapter_ConnectToServiceInsecurely_ForwardToCallbackE, i64 0, inrange i32 0, i64 2) to i32 (...)**), i32 (...)*** %84, align 8
  %85 = getelementptr inbounds i8, i8* %80, i64 8
  %86 = getelementptr inbounds %"class.base::OnceCallback.142", %"class.base::OnceCallback.142"* %8, i64 0, i32 0, i32 0, i32 0
  %87 = bitcast i8* %85 to i64*
  store i64 %83, i64* %87, align 8
  store %"class.base::internal::BindStateBase"* null, %"class.base::internal::BindStateBase"** %86, align 8
  %88 = bitcast i8* %80 to %"class.mojo::MessageReceiver"*
  %89 = getelementptr inbounds %"class.base::OnceCallback.142", %"class.base::OnceCallback.142"* %8, i64 0, i32 0
  call void @_ZN4base8internal12CallbackBaseD2Ev(%"class.base::internal::CallbackBase"* nonnull %89) #12
  %90 = getelementptr inbounds %"class.bluetooth::mojom::AdapterProxy", %"class.bluetooth::mojom::AdapterProxy"* %0, i64 0, i32 1
  %91 = load %"class.mojo::MessageReceiverWithResponder"*, %"class.mojo::MessageReceiverWithResponder"** %90, align 8
  %92 = bitcast %"class.mojo::MessageReceiverWithResponder"* %91 to i1 (%"class.mojo::MessageReceiverWithResponder"*, %"class.mojo::Message"*, %"class.mojo::MessageReceiver"*)***
  %93 = load i1 (%"class.mojo::MessageReceiverWithResponder"*, %"class.mojo::Message"*, %"class.mojo::MessageReceiver"*)**, i1 (%"class.mojo::MessageReceiverWithResponder"*, %"class.mojo::Message"*, %"class.mojo::MessageReceiver"*)*** %92, align 8
  %94 = getelementptr inbounds i1 (%"class.mojo::MessageReceiverWithResponder"*, %"class.mojo::Message"*, %"class.mojo::MessageReceiver"*)*, i1 (%"class.mojo::MessageReceiverWithResponder"*, %"class.mojo::Message"*, %"class.mojo::MessageReceiver"*)** %93, i64 4
  %95 = load i1 (%"class.mojo::MessageReceiverWithResponder"*, %"class.mojo::Message"*, %"class.mojo::MessageReceiver"*)*, i1 (%"class.mojo::MessageReceiverWithResponder"*, %"class.mojo::Message"*, %"class.mojo::MessageReceiver"*)** %94, align 8
  %96 = call zeroext i1 %95(%"class.mojo::MessageReceiverWithResponder"* %91, %"class.mojo::Message"* nonnull %6, %"class.mojo::MessageReceiver"* nonnull %88) #12
  call void @llvm.lifetime.end.p0i8(i64 16, i8* nonnull %16) #12
  call void @_ZN4mojo7MessageD1Ev(%"class.mojo::Message"* nonnull %6) #12
  call void @llvm.lifetime.end.p0i8(i64 120, i8* nonnull %9) #12
  ret void
}

; Function Attrs: nounwind ssp uwtable
define hidden zeroext i1 @_ZN9bluetooth5mojom12AdapterProxy29CreateRfcommServiceInsecurelyERKNSt3__112basic_stringIcNS2_11char_traitsIcEENS2_9allocatorIcEEEERKN6device13BluetoothUUIDEPN4mojo13PendingRemoteINS0_12ServerSocketEEE(%"class.bluetooth::mojom::AdapterProxy"* nocapture readonly, %"class.std::__1::basic_string"* dereferenceable(24), %"class.device::BluetoothUUID"* dereferenceable(56), %"class.mojo::PendingRemote.120"*) unnamed_addr #0 align 2 {
  %5 = alloca %"class.mojo::internal::MessageFragment.123", align 8
  %6 = alloca %"class.mojo::Message", align 8
  %7 = alloca %"class.mojo::internal::MessageFragment.123", align 8
  %8 = alloca i8, align 1
  %9 = bitcast %"class.mojo::Message"* %6 to i8*
  call void @llvm.lifetime.start.p0i8(i64 120, i8* nonnull %9) #12
  call void @llvm.memset.p0i8.i64(i8* nonnull align 8 %9, i8 -86, i64 120, i1 false)
  call void @_ZN4mojo7MessageC1EjjmmPNSt3__16vectorINS_16ScopedHandleBaseINS_6HandleEEENS1_9allocatorIS5_EEEE(%"class.mojo::Message"* nonnull %6, i32 687622205, i32 5, i64 0, i64 0, %"class.std::__1::vector"* null) #12
  %10 = getelementptr inbounds %"class.mojo::Message", %"class.mojo::Message"* %6, i64 0, i32 1
  %11 = call i64 @_ZN4mojo8internal6Buffer8AllocateEm(%"class.mojo::internal::Buffer"* %10, i64 24) #12
  %12 = getelementptr inbounds %"class.mojo::Message", %"class.mojo::Message"* %6, i64 0, i32 1, i32 2
  %13 = load i8*, i8** %12, align 8
  %14 = getelementptr inbounds i8, i8* %13, i64 %11
  %15 = bitcast i8* %14 to %"class.bluetooth::mojom::internal::Adapter_CreateRfcommServiceInsecurely_Params_Data"*
  call void @_ZN9bluetooth5mojom8internal49Adapter_CreateRfcommServiceInsecurely_Params_DataC1Ev(%"class.bluetooth::mojom::internal::Adapter_CreateRfcommServiceInsecurely_Params_Data"* %15) #12
  %16 = bitcast %"class.mojo::internal::MessageFragment.123"* %7 to i8*
  call void @llvm.lifetime.start.p0i8(i64 16, i8* nonnull %16) #12
  %17 = getelementptr inbounds %"class.mojo::internal::MessageFragment.123", %"class.mojo::internal::MessageFragment.123"* %7, i64 0, i32 0
  %18 = getelementptr inbounds %"class.mojo::internal::MessageFragment.123", %"class.mojo::internal::MessageFragment.123"* %7, i64 0, i32 1
  store %"class.mojo::Message"* %6, %"class.mojo::Message"** %17, align 8
  store i64 -1, i64* %18, align 8
  call void @_ZN4mojo8internal10SerializerINS_14StringDataViewEKNSt3__112basic_stringIcNS3_11char_traitsIcEENS3_9allocatorIcEEEEE9SerializeERSA_RNS0_15MessageFragmentINS0_10Array_DataIcEEEE(%"class.std::__1::basic_string"* dereferenceable(24) %1, %"class.mojo::internal::MessageFragment.123"* nonnull dereferenceable(16) %7) #12
  %19 = load i8*, i8** %12, align 8
  %20 = getelementptr inbounds i8, i8* %19, i64 %11
  %21 = getelementptr inbounds i8, i8* %20, i64 8
  %22 = load i64, i64* %18, align 8
  %23 = icmp eq i64 %22, -1
  br i1 %23, label %30, label %24

24:                                               ; preds = %4
  %25 = load %"class.mojo::Message"*, %"class.mojo::Message"** %17, align 8
  %26 = getelementptr inbounds %"class.mojo::Message", %"class.mojo::Message"* %25, i64 0, i32 1, i32 2
  %27 = load i8*, i8** %26, align 8
  %28 = getelementptr inbounds i8, i8* %27, i64 %22
  %29 = bitcast i8* %28 to %"class.mojo::internal::Array_Data"*
  br label %30

30:                                               ; preds = %4, %24
  %31 = phi %"class.mojo::internal::Array_Data"* [ %29, %24 ], [ null, %4 ]
  %32 = bitcast i8* %21 to i64*
  %33 = icmp eq %"class.mojo::internal::Array_Data"* %31, null
  %34 = ptrtoint %"class.mojo::internal::Array_Data"* %31 to i64
  %35 = ptrtoint i8* %21 to i64
  %36 = sub i64 %34, %35
  %37 = select i1 %33, i64 0, i64 %36
  store i64 %37, i64* %32, align 8
  %38 = ptrtoint %"class.mojo::Message"* %6 to i64
  %39 = call i64 @_ZN4mojo8internal6Buffer8AllocateEm(%"class.mojo::internal::Buffer"* %10, i64 16) #12
  %40 = load i8*, i8** %12, align 8
  %41 = getelementptr inbounds i8, i8* %40, i64 %39
  %42 = bitcast i8* %41 to %"class.bluetooth::mojom::internal::UUID_Data"*
  call void @_ZN9bluetooth5mojom8internal9UUID_DataC1Ev(%"class.bluetooth::mojom::internal::UUID_Data"* %42) #12
  %43 = getelementptr inbounds %"class.device::BluetoothUUID", %"class.device::BluetoothUUID"* %2, i64 0, i32 2
  %44 = bitcast %"class.mojo::internal::MessageFragment.123"* %5 to i8*
  call void @llvm.lifetime.start.p0i8(i64 16, i8* nonnull %44) #12
  %45 = getelementptr inbounds %"class.mojo::internal::MessageFragment.123", %"class.mojo::internal::MessageFragment.123"* %5, i64 0, i32 1
  %46 = bitcast %"class.mojo::internal::MessageFragment.123"* %5 to i64*
  store i64 %38, i64* %46, align 8
  store i64 -1, i64* %45, align 8
  call void @_ZN4mojo8internal10SerializerINS_14StringDataViewEKNSt3__112basic_stringIcNS3_11char_traitsIcEENS3_9allocatorIcEEEEE9SerializeERSA_RNS0_15MessageFragmentINS0_10Array_DataIcEEEE(%"class.std::__1::basic_string"* dereferenceable(24) %43, %"class.mojo::internal::MessageFragment.123"* nonnull dereferenceable(16) %5) #12
  %47 = load i8*, i8** %12, align 8
  %48 = getelementptr inbounds i8, i8* %47, i64 %39
  %49 = getelementptr inbounds i8, i8* %48, i64 8
  %50 = load i64, i64* %45, align 8
  %51 = icmp eq i64 %50, -1
  br i1 %51, label %59, label %52

52:                                               ; preds = %30
  %53 = getelementptr inbounds %"class.mojo::internal::MessageFragment.123", %"class.mojo::internal::MessageFragment.123"* %5, i64 0, i32 0
  %54 = load %"class.mojo::Message"*, %"class.mojo::Message"** %53, align 8
  %55 = getelementptr inbounds %"class.mojo::Message", %"class.mojo::Message"* %54, i64 0, i32 1, i32 2
  %56 = load i8*, i8** %55, align 8
  %57 = getelementptr inbounds i8, i8* %56, i64 %50
  %58 = bitcast i8* %57 to %"class.mojo::internal::Array_Data"*
  br label %59

59:                                               ; preds = %30, %52
  %60 = phi %"class.mojo::internal::Array_Data"* [ %58, %52 ], [ null, %30 ]
  %61 = bitcast i8* %49 to i64*
  %62 = icmp eq %"class.mojo::internal::Array_Data"* %60, null
  %63 = ptrtoint %"class.mojo::internal::Array_Data"* %60 to i64
  %64 = ptrtoint i8* %49 to i64
  %65 = sub i64 %63, %64
  %66 = select i1 %62, i64 0, i64 %65
  store i64 %66, i64* %61, align 8
  call void @llvm.lifetime.end.p0i8(i64 16, i8* nonnull %44) #12
  %67 = load i8*, i8** %12, align 8
  %68 = getelementptr inbounds i8, i8* %67, i64 %11
  %69 = getelementptr inbounds i8, i8* %68, i64 16
  %70 = icmp eq i64 %39, -1
  %71 = getelementptr inbounds i8, i8* %67, i64 %39
  %72 = bitcast i8* %71 to %"class.bluetooth::mojom::internal::UUID_Data"*
  %73 = select i1 %70, %"class.bluetooth::mojom::internal::UUID_Data"* null, %"class.bluetooth::mojom::internal::UUID_Data"* %72
  %74 = bitcast i8* %69 to i64*
  %75 = icmp eq %"class.bluetooth::mojom::internal::UUID_Data"* %73, null
  %76 = ptrtoint %"class.bluetooth::mojom::internal::UUID_Data"* %73 to i64
  %77 = ptrtoint i8* %69 to i64
  %78 = sub i64 %76, %77
  %79 = select i1 %75, i64 0, i64 %78
  store i64 %79, i64* %74, align 8
  call void @llvm.lifetime.start.p0i8(i64 1, i8* nonnull %8) #12
  store i8 0, i8* %8, align 1
  %80 = call i8* @_Znwm(i64 24) #13
  %81 = bitcast i8* %80 to i32 (...)***
  store i32 (...)** bitcast (i8** getelementptr inbounds ({ [6 x i8*] }, { [6 x i8*] }* @_ZTVN9bluetooth5mojom56Adapter_CreateRfcommServiceInsecurely_HandleSyncResponseE, i64 0, inrange i32 0, i64 2) to i32 (...)**), i32 (...)*** %81, align 8
  %82 = getelementptr inbounds i8, i8* %80, i64 8
  %83 = bitcast i8* %82 to i8**
  store i8* %8, i8** %83, align 8
  %84 = getelementptr inbounds i8, i8* %80, i64 16
  %85 = bitcast i8* %84 to %"class.mojo::PendingRemote.120"**
  store %"class.mojo::PendingRemote.120"* %3, %"class.mojo::PendingRemote.120"** %85, align 8
  %86 = bitcast i8* %80 to %"class.mojo::MessageReceiver"*
  %87 = getelementptr inbounds %"class.bluetooth::mojom::AdapterProxy", %"class.bluetooth::mojom::AdapterProxy"* %0, i64 0, i32 1
  %88 = load %"class.mojo::MessageReceiverWithResponder"*, %"class.mojo::MessageReceiverWithResponder"** %87, align 8
  %89 = bitcast %"class.mojo::MessageReceiverWithResponder"* %88 to i1 (%"class.mojo::MessageReceiverWithResponder"*, %"class.mojo::Message"*, %"class.mojo::MessageReceiver"*)***
  %90 = load i1 (%"class.mojo::MessageReceiverWithResponder"*, %"class.mojo::Message"*, %"class.mojo::MessageReceiver"*)**, i1 (%"class.mojo::MessageReceiverWithResponder"*, %"class.mojo::Message"*, %"class.mojo::MessageReceiver"*)*** %89, align 8
  %91 = getelementptr inbounds i1 (%"class.mojo::MessageReceiverWithResponder"*, %"class.mojo::Message"*, %"class.mojo::MessageReceiver"*)*, i1 (%"class.mojo::MessageReceiverWithResponder"*, %"class.mojo::Message"*, %"class.mojo::MessageReceiver"*)** %90, i64 4
  %92 = load i1 (%"class.mojo::MessageReceiverWithResponder"*, %"class.mojo::Message"*, %"class.mojo::MessageReceiver"*)*, i1 (%"class.mojo::MessageReceiverWithResponder"*, %"class.mojo::Message"*, %"class.mojo::MessageReceiver"*)** %91, align 8
  %93 = call zeroext i1 %92(%"class.mojo::MessageReceiverWithResponder"* %88, %"class.mojo::Message"* nonnull %6, %"class.mojo::MessageReceiver"* nonnull %86) #12
  %94 = load i8, i8* %8, align 1, !range !14
  %95 = icmp ne i8 %94, 0
  call void @llvm.lifetime.end.p0i8(i64 1, i8* nonnull %8) #12
  call void @llvm.lifetime.end.p0i8(i64 16, i8* nonnull %16) #12
  call void @_ZN4mojo7MessageD1Ev(%"class.mojo::Message"* nonnull %6) #12
  call void @llvm.lifetime.end.p0i8(i64 120, i8* nonnull %9) #12
  ret i1 %95
}

; Function Attrs: nounwind ssp uwtable
define hidden void @_ZN9bluetooth5mojom12AdapterProxy29CreateRfcommServiceInsecurelyERKNSt3__112basic_stringIcNS2_11char_traitsIcEENS2_9allocatorIcEEEERKN6device13BluetoothUUIDEN4base12OnceCallbackIFvN4mojo13PendingRemoteINS0_12ServerSocketEEEEEE(%"class.bluetooth::mojom::AdapterProxy"* nocapture readonly, %"class.std::__1::basic_string"* dereferenceable(24), %"class.device::BluetoothUUID"* dereferenceable(56), %"class.base::OnceCallback.144"* nocapture) unnamed_addr #0 align 2 {
  %5 = alloca %"class.mojo::internal::MessageFragment.123", align 8
  %6 = alloca %"class.mojo::Message", align 8
  %7 = alloca %"class.mojo::internal::MessageFragment.123", align 8
  %8 = alloca %"class.base::OnceCallback.144", align 8
  %9 = bitcast %"class.mojo::Message"* %6 to i8*
  call void @llvm.lifetime.start.p0i8(i64 120, i8* nonnull %9) #12
  call void @llvm.memset.p0i8.i64(i8* nonnull align 8 %9, i8 -86, i64 120, i1 false)
  call void @_ZN4mojo7MessageC1EjjmmPNSt3__16vectorINS_16ScopedHandleBaseINS_6HandleEEENS1_9allocatorIS5_EEEE(%"class.mojo::Message"* nonnull %6, i32 687622205, i32 1, i64 0, i64 0, %"class.std::__1::vector"* null) #12
  %10 = getelementptr inbounds %"class.mojo::Message", %"class.mojo::Message"* %6, i64 0, i32 1
  %11 = call i64 @_ZN4mojo8internal6Buffer8AllocateEm(%"class.mojo::internal::Buffer"* %10, i64 24) #12
  %12 = getelementptr inbounds %"class.mojo::Message", %"class.mojo::Message"* %6, i64 0, i32 1, i32 2
  %13 = load i8*, i8** %12, align 8
  %14 = getelementptr inbounds i8, i8* %13, i64 %11
  %15 = bitcast i8* %14 to %"class.bluetooth::mojom::internal::Adapter_CreateRfcommServiceInsecurely_Params_Data"*
  call void @_ZN9bluetooth5mojom8internal49Adapter_CreateRfcommServiceInsecurely_Params_DataC1Ev(%"class.bluetooth::mojom::internal::Adapter_CreateRfcommServiceInsecurely_Params_Data"* %15) #12
  %16 = bitcast %"class.mojo::internal::MessageFragment.123"* %7 to i8*
  call void @llvm.lifetime.start.p0i8(i64 16, i8* nonnull %16) #12
  %17 = getelementptr inbounds %"class.mojo::internal::MessageFragment.123", %"class.mojo::internal::MessageFragment.123"* %7, i64 0, i32 0
  %18 = getelementptr inbounds %"class.mojo::internal::MessageFragment.123", %"class.mojo::internal::MessageFragment.123"* %7, i64 0, i32 1
  store %"class.mojo::Message"* %6, %"class.mojo::Message"** %17, align 8
  store i64 -1, i64* %18, align 8
  call void @_ZN4mojo8internal10SerializerINS_14StringDataViewEKNSt3__112basic_stringIcNS3_11char_traitsIcEENS3_9allocatorIcEEEEE9SerializeERSA_RNS0_15MessageFragmentINS0_10Array_DataIcEEEE(%"class.std::__1::basic_string"* dereferenceable(24) %1, %"class.mojo::internal::MessageFragment.123"* nonnull dereferenceable(16) %7) #12
  %19 = load i8*, i8** %12, align 8
  %20 = getelementptr inbounds i8, i8* %19, i64 %11
  %21 = getelementptr inbounds i8, i8* %20, i64 8
  %22 = load i64, i64* %18, align 8
  %23 = icmp eq i64 %22, -1
  br i1 %23, label %30, label %24

24:                                               ; preds = %4
  %25 = load %"class.mojo::Message"*, %"class.mojo::Message"** %17, align 8
  %26 = getelementptr inbounds %"class.mojo::Message", %"class.mojo::Message"* %25, i64 0, i32 1, i32 2
  %27 = load i8*, i8** %26, align 8
  %28 = getelementptr inbounds i8, i8* %27, i64 %22
  %29 = bitcast i8* %28 to %"class.mojo::internal::Array_Data"*
  br label %30

30:                                               ; preds = %4, %24
  %31 = phi %"class.mojo::internal::Array_Data"* [ %29, %24 ], [ null, %4 ]
  %32 = bitcast i8* %21 to i64*
  %33 = icmp eq %"class.mojo::internal::Array_Data"* %31, null
  %34 = ptrtoint %"class.mojo::internal::Array_Data"* %31 to i64
  %35 = ptrtoint i8* %21 to i64
  %36 = sub i64 %34, %35
  %37 = select i1 %33, i64 0, i64 %36
  store i64 %37, i64* %32, align 8
  %38 = ptrtoint %"class.mojo::Message"* %6 to i64
  %39 = call i64 @_ZN4mojo8internal6Buffer8AllocateEm(%"class.mojo::internal::Buffer"* %10, i64 16) #12
  %40 = load i8*, i8** %12, align 8
  %41 = getelementptr inbounds i8, i8* %40, i64 %39
  %42 = bitcast i8* %41 to %"class.bluetooth::mojom::internal::UUID_Data"*
  call void @_ZN9bluetooth5mojom8internal9UUID_DataC1Ev(%"class.bluetooth::mojom::internal::UUID_Data"* %42) #12
  %43 = getelementptr inbounds %"class.device::BluetoothUUID", %"class.device::BluetoothUUID"* %2, i64 0, i32 2
  %44 = bitcast %"class.mojo::internal::MessageFragment.123"* %5 to i8*
  call void @llvm.lifetime.start.p0i8(i64 16, i8* nonnull %44) #12
  %45 = getelementptr inbounds %"class.mojo::internal::MessageFragment.123", %"class.mojo::internal::MessageFragment.123"* %5, i64 0, i32 1
  %46 = bitcast %"class.mojo::internal::MessageFragment.123"* %5 to i64*
  store i64 %38, i64* %46, align 8
  store i64 -1, i64* %45, align 8
  call void @_ZN4mojo8internal10SerializerINS_14StringDataViewEKNSt3__112basic_stringIcNS3_11char_traitsIcEENS3_9allocatorIcEEEEE9SerializeERSA_RNS0_15MessageFragmentINS0_10Array_DataIcEEEE(%"class.std::__1::basic_string"* dereferenceable(24) %43, %"class.mojo::internal::MessageFragment.123"* nonnull dereferenceable(16) %5) #12
  %47 = load i8*, i8** %12, align 8
  %48 = getelementptr inbounds i8, i8* %47, i64 %39
  %49 = getelementptr inbounds i8, i8* %48, i64 8
  %50 = load i64, i64* %45, align 8
  %51 = icmp eq i64 %50, -1
  br i1 %51, label %59, label %52

52:                                               ; preds = %30
  %53 = getelementptr inbounds %"class.mojo::internal::MessageFragment.123", %"class.mojo::internal::MessageFragment.123"* %5, i64 0, i32 0
  %54 = load %"class.mojo::Message"*, %"class.mojo::Message"** %53, align 8
  %55 = getelementptr inbounds %"class.mojo::Message", %"class.mojo::Message"* %54, i64 0, i32 1, i32 2
  %56 = load i8*, i8** %55, align 8
  %57 = getelementptr inbounds i8, i8* %56, i64 %50
  %58 = bitcast i8* %57 to %"class.mojo::internal::Array_Data"*
  br label %59

59:                                               ; preds = %30, %52
  %60 = phi %"class.mojo::internal::Array_Data"* [ %58, %52 ], [ null, %30 ]
  %61 = bitcast i8* %49 to i64*
  %62 = icmp eq %"class.mojo::internal::Array_Data"* %60, null
  %63 = ptrtoint %"class.mojo::internal::Array_Data"* %60 to i64
  %64 = ptrtoint i8* %49 to i64
  %65 = sub i64 %63, %64
  %66 = select i1 %62, i64 0, i64 %65
  store i64 %66, i64* %61, align 8
  call void @llvm.lifetime.end.p0i8(i64 16, i8* nonnull %44) #12
  %67 = load i8*, i8** %12, align 8
  %68 = getelementptr inbounds i8, i8* %67, i64 %11
  %69 = getelementptr inbounds i8, i8* %68, i64 16
  %70 = icmp eq i64 %39, -1
  %71 = getelementptr inbounds i8, i8* %67, i64 %39
  %72 = bitcast i8* %71 to %"class.bluetooth::mojom::internal::UUID_Data"*
  %73 = select i1 %70, %"class.bluetooth::mojom::internal::UUID_Data"* null, %"class.bluetooth::mojom::internal::UUID_Data"* %72
  %74 = bitcast i8* %69 to i64*
  %75 = icmp eq %"class.bluetooth::mojom::internal::UUID_Data"* %73, null
  %76 = ptrtoint %"class.bluetooth::mojom::internal::UUID_Data"* %73 to i64
  %77 = ptrtoint i8* %69 to i64
  %78 = sub i64 %76, %77
  %79 = select i1 %75, i64 0, i64 %78
  store i64 %79, i64* %74, align 8
  %80 = call i8* @_Znwm(i64 16) #13
  %81 = getelementptr inbounds %"class.base::OnceCallback.144", %"class.base::OnceCallback.144"* %3, i64 0, i32 0, i32 0, i32 0
  %82 = bitcast %"class.base::OnceCallback.144"* %3 to i64*
  %83 = load i64, i64* %82, align 8
  store %"class.base::internal::BindStateBase"* null, %"class.base::internal::BindStateBase"** %81, align 8
  %84 = bitcast i8* %80 to i32 (...)***
  store i32 (...)** bitcast (i8** getelementptr inbounds ({ [6 x i8*] }, { [6 x i8*] }* @_ZTVN9bluetooth5mojom55Adapter_CreateRfcommServiceInsecurely_ForwardToCallbackE, i64 0, inrange i32 0, i64 2) to i32 (...)**), i32 (...)*** %84, align 8
  %85 = getelementptr inbounds i8, i8* %80, i64 8
  %86 = getelementptr inbounds %"class.base::OnceCallback.144", %"class.base::OnceCallback.144"* %8, i64 0, i32 0, i32 0, i32 0
  %87 = bitcast i8* %85 to i64*
  store i64 %83, i64* %87, align 8
  store %"class.base::internal::BindStateBase"* null, %"class.base::internal::BindStateBase"** %86, align 8
  %88 = bitcast i8* %80 to %"class.mojo::MessageReceiver"*
  %89 = getelementptr inbounds %"class.base::OnceCallback.144", %"class.base::OnceCallback.144"* %8, i64 0, i32 0
  call void @_ZN4base8internal12CallbackBaseD2Ev(%"class.base::internal::CallbackBase"* nonnull %89) #12
  %90 = getelementptr inbounds %"class.bluetooth::mojom::AdapterProxy", %"class.bluetooth::mojom::AdapterProxy"* %0, i64 0, i32 1
  %91 = load %"class.mojo::MessageReceiverWithResponder"*, %"class.mojo::MessageReceiverWithResponder"** %90, align 8
  %92 = bitcast %"class.mojo::MessageReceiverWithResponder"* %91 to i1 (%"class.mojo::MessageReceiverWithResponder"*, %"class.mojo::Message"*, %"class.mojo::MessageReceiver"*)***
  %93 = load i1 (%"class.mojo::MessageReceiverWithResponder"*, %"class.mojo::Message"*, %"class.mojo::MessageReceiver"*)**, i1 (%"class.mojo::MessageReceiverWithResponder"*, %"class.mojo::Message"*, %"class.mojo::MessageReceiver"*)*** %92, align 8
  %94 = getelementptr inbounds i1 (%"class.mojo::MessageReceiverWithResponder"*, %"class.mojo::Message"*, %"class.mojo::MessageReceiver"*)*, i1 (%"class.mojo::MessageReceiverWithResponder"*, %"class.mojo::Message"*, %"class.mojo::MessageReceiver"*)** %93, i64 4
  %95 = load i1 (%"class.mojo::MessageReceiverWithResponder"*, %"class.mojo::Message"*, %"class.mojo::MessageReceiver"*)*, i1 (%"class.mojo::MessageReceiverWithResponder"*, %"class.mojo::Message"*, %"class.mojo::MessageReceiver"*)** %94, align 8
  %96 = call zeroext i1 %95(%"class.mojo::MessageReceiverWithResponder"* %91, %"class.mojo::Message"* nonnull %6, %"class.mojo::MessageReceiver"* nonnull %88) #12
  call void @llvm.lifetime.end.p0i8(i64 16, i8* nonnull %16) #12
  call void @_ZN4mojo7MessageD1Ev(%"class.mojo::Message"* nonnull %6) #12
  call void @llvm.lifetime.end.p0i8(i64 120, i8* nonnull %9) #12
  ret void
}

; Function Attrs: nounwind
declare void @_ZN4base8internal12CallbackBaseD2Ev(%"class.base::internal::CallbackBase"*) unnamed_addr #6

; Function Attrs: nounwind ssp uwtable
define hidden zeroext i1 @_ZN9bluetooth5mojom41Adapter_ConnectToDevice_ForwardToCallback6AcceptEPN4mojo7MessageE(%"class.bluetooth::mojom::Adapter_ConnectToDevice_ForwardToCallback"* nocapture, %"class.mojo::Message"*) unnamed_addr #0 align 2 {
  %3 = alloca %"class.base::OnceCallback.121", align 8
  %4 = alloca i64, align 8
  %5 = alloca %"class.bluetooth::mojom::Adapter_ConnectToDevice_ResponseParamsDataView", align 8
  %6 = alloca %"class.mojo::PendingRemote.145", align 4
  %7 = alloca %"class.mojo::PendingRemote.145", align 4
  %8 = tail call i8* @_ZNK4mojo7Message7payloadEv(%"class.mojo::Message"* %1) #12
  %9 = bitcast i64* %4 to i8*
  call void @llvm.lifetime.start.p0i8(i64 8, i8* nonnull %9) #12
  store i64 0, i64* %4, align 8
  %10 = bitcast i64* %4 to %"struct.mojo::internal::PendingRemoteState"*
  call void @_ZN4mojo8internal18PendingRemoteStateC1Ev(%"struct.mojo::internal::PendingRemoteState"* nonnull %10) #12
  %11 = bitcast %"class.bluetooth::mojom::Adapter_ConnectToDevice_ResponseParamsDataView"* %5 to i8*
  call void @llvm.lifetime.start.p0i8(i64 16, i8* nonnull %11) #12
  %12 = getelementptr inbounds %"class.bluetooth::mojom::Adapter_ConnectToDevice_ResponseParamsDataView", %"class.bluetooth::mojom::Adapter_ConnectToDevice_ResponseParamsDataView"* %5, i64 0, i32 1
  %13 = bitcast %"class.bluetooth::mojom::Adapter_ConnectToDevice_ResponseParamsDataView"* %5 to i8**
  store i8* %8, i8** %13, align 8
  store %"class.mojo::Message"* %1, %"class.mojo::Message"** %12, align 8
  %14 = getelementptr inbounds i8, i8* %8, i64 8
  %15 = bitcast i8* %14 to i32*
  %16 = load i32, i32* %15, align 4
  %17 = bitcast %"class.mojo::PendingRemote.145"* %6 to i8*
  call void @llvm.lifetime.start.p0i8(i64 8, i8* nonnull %17) #12
  call void @_ZN9bluetooth5mojom46Adapter_ConnectToDevice_ResponseParamsDataView10TakeDeviceIN4mojo13PendingRemoteINS0_6DeviceEEEEET_v(%"class.mojo::PendingRemote.145"* nonnull sret %6, %"class.bluetooth::mojom::Adapter_ConnectToDevice_ResponseParamsDataView"* nonnull %5)
  %18 = getelementptr inbounds %"class.mojo::PendingRemote.145", %"class.mojo::PendingRemote.145"* %6, i64 0, i32 0
  %19 = call dereferenceable(8) %"struct.mojo::internal::PendingRemoteState"* @_ZN4mojo8internal18PendingRemoteStateaSEOS1_(%"struct.mojo::internal::PendingRemoteState"* nonnull %10, %"struct.mojo::internal::PendingRemoteState"* nonnull dereferenceable(8) %18) #12
  call void @_ZN4mojo8internal18PendingRemoteStateD1Ev(%"struct.mojo::internal::PendingRemoteState"* nonnull %18) #12
  call void @llvm.lifetime.end.p0i8(i64 8, i8* nonnull %17) #12
  %20 = getelementptr inbounds %"class.bluetooth::mojom::Adapter_ConnectToDevice_ForwardToCallback", %"class.bluetooth::mojom::Adapter_ConnectToDevice_ForwardToCallback"* %0, i64 0, i32 1
  %21 = getelementptr inbounds %"class.base::OnceCallback.121", %"class.base::OnceCallback.121"* %20, i64 0, i32 0, i32 0, i32 0
  %22 = load %"class.base::internal::BindStateBase"*, %"class.base::internal::BindStateBase"** %21, align 8
  %23 = icmp eq %"class.base::internal::BindStateBase"* %22, null
  br i1 %23, label %35, label %24

24:                                               ; preds = %2
  %25 = getelementptr inbounds %"class.mojo::PendingRemote.145", %"class.mojo::PendingRemote.145"* %7, i64 0, i32 0
  call void @_ZN4mojo8internal18PendingRemoteStateC1EOS1_(%"struct.mojo::internal::PendingRemoteState"* nonnull %25, %"struct.mojo::internal::PendingRemoteState"* nonnull dereferenceable(8) %10) #12
  %26 = bitcast %"class.base::OnceCallback.121"* %3 to i8*
  call void @llvm.lifetime.start.p0i8(i64 8, i8* nonnull %26) #12
  %27 = bitcast %"class.base::OnceCallback.121"* %20 to i64*
  %28 = load i64, i64* %27, align 8
  %29 = bitcast %"class.base::OnceCallback.121"* %3 to i64*
  store i64 %28, i64* %29, align 8
  store %"class.base::internal::BindStateBase"* null, %"class.base::internal::BindStateBase"** %21, align 8
  %30 = getelementptr inbounds %"class.base::OnceCallback.121", %"class.base::OnceCallback.121"* %3, i64 0, i32 0
  %31 = inttoptr i64 %28 to %"class.base::internal::BindStateBase"*
  %32 = getelementptr inbounds %"class.base::internal::BindStateBase", %"class.base::internal::BindStateBase"* %31, i64 0, i32 1
  %33 = bitcast void ()** %32 to void (%"class.base::internal::BindStateBase"*, i32, %"class.mojo::PendingRemote.145"*)**
  %34 = load void (%"class.base::internal::BindStateBase"*, i32, %"class.mojo::PendingRemote.145"*)*, void (%"class.base::internal::BindStateBase"*, i32, %"class.mojo::PendingRemote.145"*)** %33, align 8
  call void %34(%"class.base::internal::BindStateBase"* %31, i32 %16, %"class.mojo::PendingRemote.145"* nonnull dereferenceable(8) %7) #12
  call void @_ZN4base8internal12CallbackBaseD2Ev(%"class.base::internal::CallbackBase"* nonnull %30) #12
  call void @llvm.lifetime.end.p0i8(i64 8, i8* nonnull %26) #12
  call void @_ZN4mojo8internal18PendingRemoteStateD1Ev(%"struct.mojo::internal::PendingRemoteState"* nonnull %25) #12
  br label %35

35:                                               ; preds = %2, %24
  call void @llvm.lifetime.end.p0i8(i64 16, i8* nonnull %11) #12
  call void @_ZN4mojo8internal18PendingRemoteStateD1Ev(%"struct.mojo::internal::PendingRemoteState"* nonnull %10) #12
  call void @llvm.lifetime.end.p0i8(i64 8, i8* nonnull %9) #12
  ret i1 true
}

; Function Attrs: nounwind ssp uwtable
define linkonce_odr hidden void @_ZN9bluetooth5mojom46Adapter_ConnectToDevice_ResponseParamsDataView10TakeDeviceIN4mojo13PendingRemoteINS0_6DeviceEEEEET_v(%"class.mojo::PendingRemote.145"* noalias sret, %"class.bluetooth::mojom::Adapter_ConnectToDevice_ResponseParamsDataView"*) local_unnamed_addr #0 comdat align 2 {
  %3 = alloca %"class.mojo::ScopedHandleBase", align 4
  %4 = alloca %"class.mojo::ScopedHandleBase.9", align 4
  %5 = alloca %"class.mojo::PendingRemote.145", align 4
  %6 = getelementptr inbounds %"class.mojo::PendingRemote.145", %"class.mojo::PendingRemote.145"* %0, i64 0, i32 0, i32 0, i32 0, i32 0, i32 0
  store i32 -1431655766, i32* %6, align 4
  %7 = getelementptr inbounds %"class.mojo::PendingRemote.145", %"class.mojo::PendingRemote.145"* %0, i64 0, i32 0, i32 1
  store i32 -1431655766, i32* %7, align 4
  %8 = getelementptr inbounds %"class.mojo::PendingRemote.145", %"class.mojo::PendingRemote.145"* %0, i64 0, i32 0
  tail call void @_ZN4mojo8internal18PendingRemoteStateC1Ev(%"struct.mojo::internal::PendingRemoteState"* %8) #12
  %9 = getelementptr inbounds %"class.bluetooth::mojom::Adapter_ConnectToDevice_ResponseParamsDataView", %"class.bluetooth::mojom::Adapter_ConnectToDevice_ResponseParamsDataView"* %1, i64 0, i32 0
  %10 = load %"class.bluetooth::mojom::internal::Adapter_ConnectToDevice_ResponseParams_Data"*, %"class.bluetooth::mojom::internal::Adapter_ConnectToDevice_ResponseParams_Data"** %9, align 8
  %11 = getelementptr inbounds %"class.bluetooth::mojom::Adapter_ConnectToDevice_ResponseParamsDataView", %"class.bluetooth::mojom::Adapter_ConnectToDevice_ResponseParamsDataView"* %1, i64 0, i32 1
  %12 = load %"class.mojo::Message"*, %"class.mojo::Message"** %11, align 8
  %13 = bitcast %"class.mojo::PendingRemote.145"* %5 to i8*
  call void @llvm.lifetime.start.p0i8(i64 8, i8* nonnull %13) #12
  %14 = getelementptr inbounds %"class.bluetooth::mojom::internal::Adapter_ConnectToDevice_ResponseParams_Data", %"class.bluetooth::mojom::internal::Adapter_ConnectToDevice_ResponseParams_Data"* %10, i64 0, i32 2, i32 0
  %15 = bitcast %"class.mojo::ScopedHandleBase.9"* %4 to i8*
  call void @llvm.lifetime.start.p0i8(i64 4, i8* nonnull %15) #12
  call void @_ZN4mojo8internal17DeserializeHandleERKNS0_11Handle_DataERNS_7MessageE(%"class.mojo::ScopedHandleBase.9"* nonnull sret %4, %"struct.mojo::internal::Handle_Data"* dereferenceable(4) %14, %"class.mojo::Message"* dereferenceable(120) %12) #12, !noalias !78
  %16 = getelementptr inbounds %"class.mojo::ScopedHandleBase.9", %"class.mojo::ScopedHandleBase.9"* %4, i64 0, i32 0, i32 0
  %17 = load i32, i32* %16, align 4, !noalias !81
  call void @llvm.lifetime.end.p0i8(i64 4, i8* nonnull %15) #12
  %18 = getelementptr inbounds %"class.bluetooth::mojom::internal::Adapter_ConnectToDevice_ResponseParams_Data", %"class.bluetooth::mojom::internal::Adapter_ConnectToDevice_ResponseParams_Data"* %10, i64 0, i32 2, i32 1
  %19 = load i32, i32* %18, align 1
  %20 = bitcast %"class.mojo::ScopedHandleBase"* %3 to i8*
  call void @llvm.lifetime.start.p0i8(i64 4, i8* nonnull %20) #12
  %21 = getelementptr inbounds %"class.mojo::PendingRemote.145", %"class.mojo::PendingRemote.145"* %5, i64 0, i32 0
  %22 = getelementptr inbounds %"class.mojo::ScopedHandleBase", %"class.mojo::ScopedHandleBase"* %3, i64 0, i32 0, i32 0, i32 0
  store i32 %17, i32* %22, align 4, !alias.scope !86
  call void @_ZN4mojo8internal18PendingRemoteStateC1ENS_16ScopedHandleBaseINS_17MessagePipeHandleEEEj(%"struct.mojo::internal::PendingRemoteState"* nonnull %21, %"class.mojo::ScopedHandleBase"* nonnull %3, i32 %19) #12
  %23 = load i32, i32* %22, align 4
  %24 = icmp eq i32 %23, 0
  br i1 %24, label %27, label %25

25:                                               ; preds = %2
  %26 = call i32 @MojoClose(i32 %23) #12
  br label %27

27:                                               ; preds = %2, %25
  call void @llvm.lifetime.end.p0i8(i64 4, i8* nonnull %20) #12
  %28 = call dereferenceable(8) %"struct.mojo::internal::PendingRemoteState"* @_ZN4mojo8internal18PendingRemoteStateaSEOS1_(%"struct.mojo::internal::PendingRemoteState"* %8, %"struct.mojo::internal::PendingRemoteState"* nonnull dereferenceable(8) %21) #12
  call void @_ZN4mojo8internal18PendingRemoteStateD1Ev(%"struct.mojo::internal::PendingRemoteState"* nonnull %21) #12
  call void @llvm.lifetime.end.p0i8(i64 8, i8* nonnull %13) #12
  ret void
}

; Function Attrs: nounwind ssp uwtable
define hidden void @_ZN9bluetooth5mojom40Adapter_ConnectToDevice_ProxyToResponder3RunENS0_13ConnectResultEN4mojo13PendingRemoteINS0_6DeviceEEE(%"class.bluetooth::mojom::Adapter_ConnectToDevice_ProxyToResponder"* nocapture, i32, %"class.mojo::PendingRemote.145"* nocapture) #0 align 2 {
  %4 = alloca %"class.mojo::ScopedHandleBase", align 4
  %5 = alloca %"class.mojo::Message", align 8
  %6 = getelementptr inbounds %"class.bluetooth::mojom::Adapter_ConnectToDevice_ProxyToResponder", %"class.bluetooth::mojom::Adapter_ConnectToDevice_ProxyToResponder"* %0, i64 0, i32 1
  %7 = load i8, i8* %6, align 8, !range !14
  %8 = icmp eq i8 %7, 0
  %9 = select i1 %8, i32 2, i32 6
  %10 = bitcast %"class.mojo::Message"* %5 to i8*
  call void @llvm.lifetime.start.p0i8(i64 120, i8* nonnull %10) #12
  call void @llvm.memset.p0i8.i64(i8* nonnull align 8 %10, i8 -86, i64 120, i1 false)
  call void @_ZN4mojo7MessageC1EjjmmPNSt3__16vectorINS_16ScopedHandleBaseINS_6HandleEEENS1_9allocatorIS5_EEEE(%"class.mojo::Message"* nonnull %5, i32 2016808551, i32 %9, i64 0, i64 0, %"class.std::__1::vector"* null) #12
  %11 = getelementptr inbounds %"class.mojo::Message", %"class.mojo::Message"* %5, i64 0, i32 1
  %12 = call i64 @_ZN4mojo8internal6Buffer8AllocateEm(%"class.mojo::internal::Buffer"* %11, i64 24) #12
  %13 = getelementptr inbounds %"class.mojo::Message", %"class.mojo::Message"* %5, i64 0, i32 1, i32 2
  %14 = load i8*, i8** %13, align 8
  %15 = getelementptr inbounds i8, i8* %14, i64 %12
  %16 = bitcast i8* %15 to %"class.bluetooth::mojom::internal::Adapter_ConnectToDevice_ResponseParams_Data"*
  call void @_ZN9bluetooth5mojom8internal43Adapter_ConnectToDevice_ResponseParams_DataC1Ev(%"class.bluetooth::mojom::internal::Adapter_ConnectToDevice_ResponseParams_Data"* %16) #12
  %17 = load i8*, i8** %13, align 8
  %18 = getelementptr inbounds i8, i8* %17, i64 %12
  %19 = getelementptr inbounds i8, i8* %18, i64 8
  %20 = bitcast i8* %19 to i32*
  store i32 %1, i32* %20, align 4
  %21 = load i8*, i8** %13, align 8
  %22 = getelementptr inbounds i8, i8* %21, i64 %12
  %23 = getelementptr inbounds i8, i8* %22, i64 12
  %24 = bitcast i8* %23 to %"struct.mojo::internal::Interface_Data"*
  %25 = bitcast %"class.mojo::ScopedHandleBase"* %4 to i8*
  call void @llvm.lifetime.start.p0i8(i64 4, i8* nonnull %25) #12
  %26 = getelementptr inbounds %"class.mojo::PendingRemote.145", %"class.mojo::PendingRemote.145"* %2, i64 0, i32 0, i32 1
  %27 = load i32, i32* %26, align 4
  store i32 0, i32* %26, align 4, !noalias !89
  %28 = getelementptr inbounds %"class.mojo::ScopedHandleBase", %"class.mojo::ScopedHandleBase"* %4, i64 0, i32 0, i32 0, i32 0
  %29 = getelementptr inbounds %"class.mojo::PendingRemote.145", %"class.mojo::PendingRemote.145"* %2, i64 0, i32 0, i32 0, i32 0, i32 0, i32 0
  %30 = load i32, i32* %29, align 4, !noalias !92
  store i32 %30, i32* %28, align 4, !alias.scope !92
  store i32 0, i32* %29, align 4, !noalias !92
  call void @_ZN4mojo8internal22SerializeInterfaceInfoENS_16ScopedHandleBaseINS_17MessagePipeHandleEEEjRNS_7MessageERNS0_14Interface_DataE(%"class.mojo::ScopedHandleBase"* nonnull %4, i32 %27, %"class.mojo::Message"* nonnull dereferenceable(120) %5, %"struct.mojo::internal::Interface_Data"* dereferenceable(8) %24) #12
  %31 = load i32, i32* %28, align 4
  %32 = icmp eq i32 %31, 0
  br i1 %32, label %35, label %33

33:                                               ; preds = %3
  %34 = call i32 @MojoClose(i32 %31) #12
  br label %35

35:                                               ; preds = %3, %33
  call void @llvm.lifetime.end.p0i8(i64 4, i8* nonnull %25) #12
  %36 = getelementptr inbounds %"class.bluetooth::mojom::Adapter_ConnectToDevice_ProxyToResponder", %"class.bluetooth::mojom::Adapter_ConnectToDevice_ProxyToResponder"* %0, i64 0, i32 0
  %37 = load i64, i64* %36, align 8
  %38 = bitcast i8** %13 to %"struct.mojo::internal::MessageHeaderV1"**
  %39 = load %"struct.mojo::internal::MessageHeaderV1"*, %"struct.mojo::internal::MessageHeaderV1"** %38, align 8
  %40 = getelementptr inbounds %"struct.mojo::internal::MessageHeaderV1", %"struct.mojo::internal::MessageHeaderV1"* %39, i64 0, i32 1
  store i64 %37, i64* %40, align 1
  %41 = getelementptr inbounds %"class.bluetooth::mojom::Adapter_ConnectToDevice_ProxyToResponder", %"class.bluetooth::mojom::Adapter_ConnectToDevice_ProxyToResponder"* %0, i64 0, i32 2, i32 0, i32 0, i32 0
  %42 = load %"class.mojo::MessageReceiverWithStatus"*, %"class.mojo::MessageReceiverWithStatus"** %41, align 8
  %43 = getelementptr inbounds %"class.mojo::MessageReceiverWithStatus", %"class.mojo::MessageReceiverWithStatus"* %42, i64 0, i32 0
  %44 = bitcast %"class.mojo::MessageReceiverWithStatus"* %42 to i1 (%"class.mojo::MessageReceiver"*, %"class.mojo::Message"*)***
  %45 = load i1 (%"class.mojo::MessageReceiver"*, %"class.mojo::Message"*)**, i1 (%"class.mojo::MessageReceiver"*, %"class.mojo::Message"*)*** %44, align 8
  %46 = getelementptr inbounds i1 (%"class.mojo::MessageReceiver"*, %"class.mojo::Message"*)*, i1 (%"class.mojo::MessageReceiver"*, %"class.mojo::Message"*)** %45, i64 3
  %47 = load i1 (%"class.mojo::MessageReceiver"*, %"class.mojo::Message"*)*, i1 (%"class.mojo::MessageReceiver"*, %"class.mojo::Message"*)** %46, align 8
  %48 = call zeroext i1 %47(%"class.mojo::MessageReceiver"* %43, %"class.mojo::Message"* nonnull %5) #12
  %49 = load %"class.mojo::MessageReceiverWithStatus"*, %"class.mojo::MessageReceiverWithStatus"** %41, align 8
  store %"class.mojo::MessageReceiverWithStatus"* null, %"class.mojo::MessageReceiverWithStatus"** %41, align 8
  %50 = icmp eq %"class.mojo::MessageReceiverWithStatus"* %49, null
  br i1 %50, label %56, label %51

51:                                               ; preds = %35
  %52 = bitcast %"class.mojo::MessageReceiverWithStatus"* %49 to void (%"class.mojo::MessageReceiverWithStatus"*)***
  %53 = load void (%"class.mojo::MessageReceiverWithStatus"*)**, void (%"class.mojo::MessageReceiverWithStatus"*)*** %52, align 8
  %54 = getelementptr inbounds void (%"class.mojo::MessageReceiverWithStatus"*)*, void (%"class.mojo::MessageReceiverWithStatus"*)** %53, i64 1
  %55 = load void (%"class.mojo::MessageReceiverWithStatus"*)*, void (%"class.mojo::MessageReceiverWithStatus"*)** %54, align 8
  call void %55(%"class.mojo::MessageReceiverWithStatus"* nonnull %49) #12
  br label %56

56:                                               ; preds = %35, %51
  call void @_ZN4mojo7MessageD1Ev(%"class.mojo::Message"* nonnull %5) #12
  call void @llvm.lifetime.end.p0i8(i64 120, i8* nonnull %10) #12
  ret void
}

; Function Attrs: nounwind ssp uwtable
define hidden zeroext i1 @_ZN9bluetooth5mojom36Adapter_GetDevices_ForwardToCallback6AcceptEPN4mojo7MessageE(%"class.bluetooth::mojom::Adapter_GetDevices_ForwardToCallback"* nocapture, %"class.mojo::Message"*) unnamed_addr #0 align 2 {
  %3 = alloca %"class.base::OnceCallback.125", align 8
  %4 = alloca %"class.std::__1::vector.148", align 8
  %5 = tail call i8* @_ZNK4mojo7Message7payloadEv(%"class.mojo::Message"* %1) #12
  %6 = getelementptr inbounds i8, i8* %5, i64 8
  %7 = bitcast i8* %6 to i64*
  %8 = load i64, i64* %7, align 8
  %9 = icmp eq i64 %8, 0
  br i1 %9, label %60, label %10

10:                                               ; preds = %2
  %11 = getelementptr inbounds i8, i8* %6, i64 %8
  %12 = getelementptr inbounds i8, i8* %11, i64 4
  %13 = bitcast i8* %12 to i32*
  %14 = load i32, i32* %13, align 1
  %15 = zext i32 %14 to i64
  %16 = icmp eq i32 %14, 0
  br i1 %16, label %60, label %17

17:                                               ; preds = %10
  %18 = shl nuw nsw i64 %15, 3
  %19 = tail call i8* @_Znwm(i64 %18) #13
  %20 = bitcast i8* %19 to %"class.mojo::StructPtr"*
  %21 = getelementptr inbounds %"class.mojo::StructPtr", %"class.mojo::StructPtr"* %20, i64 %15
  %22 = ptrtoint i8* %19 to i64
  %23 = add nsw i64 %15, -1
  %24 = getelementptr %"class.mojo::StructPtr", %"class.mojo::StructPtr"* %20, i64 %23, i32 0, i32 0, i32 0, i32 0
  %25 = ptrtoint %"class.bluetooth::mojom::DeviceInfo"** %24 to i64
  %26 = sub i64 8, %22
  %27 = add i64 %26, %25
  %28 = and i64 %27, -8
  tail call void @llvm.memset.p0i8.i64(i8* nonnull align 8 %19, i8 0, i64 %28, i1 false) #12
  %29 = ptrtoint %"class.mojo::StructPtr"* %21 to i64
  %30 = load i32, i32* %13, align 1
  %31 = icmp eq i32 %30, 0
  br i1 %31, label %60, label %32

32:                                               ; preds = %17
  %33 = getelementptr inbounds i8, i8* %11, i64 8
  %34 = bitcast i8* %33 to %"class.mojo::internal::Array_Data.157"*
  %35 = bitcast i8* %19 to %"class.mojo::StructPtr"*
  br label %36

36:                                               ; preds = %55, %32
  %37 = phi i64 [ 0, %32 ], [ %42, %55 ]
  %38 = getelementptr inbounds %"class.mojo::internal::Array_Data.157", %"class.mojo::internal::Array_Data.157"* %34, i64 %37
  %39 = bitcast %"class.mojo::internal::Array_Data.157"* %38 to i64*
  %40 = load i64, i64* %39, align 8
  %41 = icmp eq i64 %40, 0
  %42 = add nuw nsw i64 %37, 1
  %43 = getelementptr inbounds %"class.mojo::StructPtr", %"class.mojo::StructPtr"* %35, i64 %37
  br i1 %41, label %44, label %50

44:                                               ; preds = %36
  %45 = getelementptr inbounds %"class.mojo::StructPtr", %"class.mojo::StructPtr"* %43, i64 0, i32 0, i32 0, i32 0, i32 0
  %46 = load %"class.bluetooth::mojom::DeviceInfo"*, %"class.bluetooth::mojom::DeviceInfo"** %45, align 8
  store %"class.bluetooth::mojom::DeviceInfo"* null, %"class.bluetooth::mojom::DeviceInfo"** %45, align 8
  %47 = icmp eq %"class.bluetooth::mojom::DeviceInfo"* %46, null
  br i1 %47, label %55, label %48

48:                                               ; preds = %44
  tail call void @_ZN9bluetooth5mojom10DeviceInfoD1Ev(%"class.bluetooth::mojom::DeviceInfo"* nonnull %46) #12
  %49 = getelementptr inbounds %"class.bluetooth::mojom::DeviceInfo", %"class.bluetooth::mojom::DeviceInfo"* %46, i64 0, i32 0, i32 0, i32 0, i32 0, i32 0
  tail call void @_ZdlPv(i8* %49) #13
  br label %55

50:                                               ; preds = %36
  %51 = bitcast %"class.mojo::internal::Array_Data.157"* %38 to i8*
  %52 = getelementptr inbounds i8, i8* %51, i64 %40
  %53 = bitcast i8* %52 to %"class.bluetooth::mojom::internal::DeviceInfo_Data"*
  %54 = tail call zeroext i1 @_ZN4mojo12StructTraitsIN9bluetooth5mojom18DeviceInfoDataViewENS_9StructPtrINS2_10DeviceInfoEEEE4ReadES3_PS6_(%"class.bluetooth::mojom::internal::DeviceInfo_Data"* nonnull %53, %"class.mojo::Message"* %1, %"class.mojo::StructPtr"* %43) #12
  br i1 %54, label %55, label %59

55:                                               ; preds = %50, %48, %44
  %56 = load i32, i32* %13, align 1
  %57 = zext i32 %56 to i64
  %58 = icmp ult i64 %42, %57
  br i1 %58, label %36, label %60

59:                                               ; preds = %50
  tail call void @_ZN4mojo8internal31ReportValidationErrorForMessageEPNS_7MessageENS0_15ValidationErrorEPKcjb(%"class.mojo::Message"* %1, i32 17, i8* getelementptr inbounds ([24 x i8], [24 x i8]* @_ZN9bluetooth5mojom7Adapter5Name_E, i64 0, i64 0), i32 1, i1 zeroext true) #12
  br label %104

60:                                               ; preds = %55, %10, %2, %17
  %61 = phi i64 [ 0, %2 ], [ %29, %17 ], [ 0, %10 ], [ %29, %55 ]
  %62 = phi i64 [ 0, %2 ], [ %22, %17 ], [ 0, %10 ], [ %22, %55 ]
  %63 = getelementptr inbounds %"class.bluetooth::mojom::Adapter_GetDevices_ForwardToCallback", %"class.bluetooth::mojom::Adapter_GetDevices_ForwardToCallback"* %0, i64 0, i32 1, i32 0, i32 0, i32 0
  %64 = load %"class.base::internal::BindStateBase"*, %"class.base::internal::BindStateBase"** %63, align 8
  %65 = icmp eq %"class.base::internal::BindStateBase"* %64, null
  br i1 %65, label %101, label %66

66:                                               ; preds = %60
  %67 = ptrtoint %"class.base::internal::BindStateBase"* %64 to i64
  %68 = bitcast %"class.std::__1::vector.148"* %4 to i64*
  store i64 %62, i64* %68, align 8
  %69 = getelementptr inbounds %"class.std::__1::vector.148", %"class.std::__1::vector.148"* %4, i64 0, i32 0, i32 1
  %70 = bitcast %"class.mojo::StructPtr"** %69 to i64*
  store i64 %61, i64* %70, align 8
  %71 = getelementptr inbounds %"class.std::__1::vector.148", %"class.std::__1::vector.148"* %4, i64 0, i32 0, i32 2, i32 0, i32 0
  %72 = bitcast %"class.mojo::StructPtr"** %71 to i64*
  store i64 %61, i64* %72, align 8
  %73 = bitcast %"class.base::OnceCallback.125"* %3 to i8*
  call void @llvm.lifetime.start.p0i8(i64 8, i8* nonnull %73) #12
  %74 = bitcast %"class.base::OnceCallback.125"* %3 to i64*
  store i64 %67, i64* %74, align 8
  store %"class.base::internal::BindStateBase"* null, %"class.base::internal::BindStateBase"** %63, align 8
  %75 = getelementptr inbounds %"class.base::OnceCallback.125", %"class.base::OnceCallback.125"* %3, i64 0, i32 0
  %76 = getelementptr inbounds %"class.base::internal::BindStateBase", %"class.base::internal::BindStateBase"* %64, i64 0, i32 1
  %77 = bitcast void ()** %76 to void (%"class.base::internal::BindStateBase"*, %"class.std::__1::vector.148"*)**
  %78 = load void (%"class.base::internal::BindStateBase"*, %"class.std::__1::vector.148"*)*, void (%"class.base::internal::BindStateBase"*, %"class.std::__1::vector.148"*)** %77, align 8
  call void %78(%"class.base::internal::BindStateBase"* nonnull %64, %"class.std::__1::vector.148"* nonnull dereferenceable(24) %4) #12
  call void @_ZN4base8internal12CallbackBaseD2Ev(%"class.base::internal::CallbackBase"* nonnull %75) #12
  call void @llvm.lifetime.end.p0i8(i64 8, i8* nonnull %73) #12
  %79 = getelementptr inbounds %"class.std::__1::vector.148", %"class.std::__1::vector.148"* %4, i64 0, i32 0, i32 0
  %80 = load %"class.mojo::StructPtr"*, %"class.mojo::StructPtr"** %79, align 8
  %81 = icmp eq %"class.mojo::StructPtr"* %80, null
  br i1 %81, label %123, label %82

82:                                               ; preds = %66
  %83 = bitcast %"class.mojo::StructPtr"* %80 to i8*
  %84 = load %"class.mojo::StructPtr"*, %"class.mojo::StructPtr"** %69, align 8
  %85 = icmp eq %"class.mojo::StructPtr"* %84, %80
  br i1 %85, label %99, label %86

86:                                               ; preds = %82, %94
  %87 = phi %"class.mojo::StructPtr"* [ %88, %94 ], [ %84, %82 ]
  %88 = getelementptr inbounds %"class.mojo::StructPtr", %"class.mojo::StructPtr"* %87, i64 -1
  %89 = getelementptr inbounds %"class.mojo::StructPtr", %"class.mojo::StructPtr"* %88, i64 0, i32 0, i32 0, i32 0, i32 0
  %90 = load %"class.bluetooth::mojom::DeviceInfo"*, %"class.bluetooth::mojom::DeviceInfo"** %89, align 8
  store %"class.bluetooth::mojom::DeviceInfo"* null, %"class.bluetooth::mojom::DeviceInfo"** %89, align 8
  %91 = icmp eq %"class.bluetooth::mojom::DeviceInfo"* %90, null
  br i1 %91, label %94, label %92

92:                                               ; preds = %86
  call void @_ZN9bluetooth5mojom10DeviceInfoD1Ev(%"class.bluetooth::mojom::DeviceInfo"* nonnull %90) #12
  %93 = getelementptr inbounds %"class.bluetooth::mojom::DeviceInfo", %"class.bluetooth::mojom::DeviceInfo"* %90, i64 0, i32 0, i32 0, i32 0, i32 0, i32 0
  call void @_ZdlPv(i8* %93) #13
  br label %94

94:                                               ; preds = %92, %86
  %95 = icmp eq %"class.mojo::StructPtr"* %88, %80
  br i1 %95, label %96, label %86

96:                                               ; preds = %94
  %97 = bitcast %"class.std::__1::vector.148"* %4 to i8**
  %98 = load i8*, i8** %97, align 8
  br label %99

99:                                               ; preds = %96, %82
  %100 = phi i8* [ %98, %96 ], [ %83, %82 ]
  store %"class.mojo::StructPtr"* %80, %"class.mojo::StructPtr"** %69, align 8
  call void @_ZdlPv(i8* %100) #13
  br label %123

101:                                              ; preds = %60
  %102 = inttoptr i64 %62 to %"class.mojo::StructPtr"*
  %103 = icmp eq i64 %62, 0
  br i1 %103, label %123, label %104

104:                                              ; preds = %59, %101
  %105 = phi i1 [ false, %59 ], [ true, %101 ]
  %106 = phi i64 [ %29, %59 ], [ %61, %101 ]
  %107 = phi i64 [ %22, %59 ], [ %62, %101 ]
  %108 = phi %"class.mojo::StructPtr"* [ %35, %59 ], [ %102, %101 ]
  %109 = inttoptr i64 %106 to %"class.mojo::StructPtr"*
  %110 = icmp eq %"class.mojo::StructPtr"* %108, %109
  br i1 %110, label %121, label %111

111:                                              ; preds = %104, %119
  %112 = phi %"class.mojo::StructPtr"* [ %113, %119 ], [ %109, %104 ]
  %113 = getelementptr inbounds %"class.mojo::StructPtr", %"class.mojo::StructPtr"* %112, i64 -1
  %114 = getelementptr inbounds %"class.mojo::StructPtr", %"class.mojo::StructPtr"* %113, i64 0, i32 0, i32 0, i32 0, i32 0
  %115 = load %"class.bluetooth::mojom::DeviceInfo"*, %"class.bluetooth::mojom::DeviceInfo"** %114, align 8
  store %"class.bluetooth::mojom::DeviceInfo"* null, %"class.bluetooth::mojom::DeviceInfo"** %114, align 8
  %116 = icmp eq %"class.bluetooth::mojom::DeviceInfo"* %115, null
  br i1 %116, label %119, label %117

117:                                              ; preds = %111
  tail call void @_ZN9bluetooth5mojom10DeviceInfoD1Ev(%"class.bluetooth::mojom::DeviceInfo"* nonnull %115) #12
  %118 = getelementptr inbounds %"class.bluetooth::mojom::DeviceInfo", %"class.bluetooth::mojom::DeviceInfo"* %115, i64 0, i32 0, i32 0, i32 0, i32 0, i32 0
  tail call void @_ZdlPv(i8* %118) #13
  br label %119

119:                                              ; preds = %117, %111
  %120 = icmp eq %"class.mojo::StructPtr"* %113, %108
  br i1 %120, label %121, label %111

121:                                              ; preds = %119, %104
  %122 = inttoptr i64 %107 to i8*
  tail call void @_ZdlPv(i8* %122) #13
  br label %123

123:                                              ; preds = %99, %66, %101, %121
  %124 = phi i1 [ true, %101 ], [ %105, %121 ], [ true, %66 ], [ true, %99 ]
  ret i1 %124
}

; Function Attrs: nounwind ssp uwtable
define hidden void @_ZN9bluetooth5mojom35Adapter_GetDevices_ProxyToResponder3RunENSt3__16vectorIN4mojo9StructPtrINS0_10DeviceInfoEEENS2_9allocatorIS7_EEEE(%"class.bluetooth::mojom::Adapter_GetDevices_ProxyToResponder"* nocapture, %"class.std::__1::vector.148"* nocapture readonly) #0 align 2 {
