; ModuleID = '../../net/spdy/alps_decoder.cc'
source_filename = "../../net/spdy/alps_decoder.cc"
target datalayout = "e-m:e-i64:64-f80:128-n8:16:32:64-S128"
target triple = "x86_64-unknown-linux-gnu"

module asm ".symver exp, exp@GLIBC_2.2.5"
module asm ".symver exp2, exp2@GLIBC_2.2.5"
module asm ".symver exp2f, exp2f@GLIBC_2.2.5"
module asm ".symver expf, expf@GLIBC_2.2.5"
module asm ".symver lgamma, lgamma@GLIBC_2.2.5"
module asm ".symver lgammaf, lgammaf@GLIBC_2.2.5"
module asm ".symver lgammal, lgammal@GLIBC_2.2.5"
module asm ".symver log, log@GLIBC_2.2.5"
module asm ".symver log2, log2@GLIBC_2.2.5"
module asm ".symver log2f, log2f@GLIBC_2.2.5"
module asm ".symver logf, logf@GLIBC_2.2.5"
module asm ".symver pow, pow@GLIBC_2.2.5"
module asm ".symver powf, powf@GLIBC_2.2.5"

%"class.net::AlpsDecoder" = type { %"class.net::AlpsDecoder::SettingsParser", %"class.net::AlpsDecoder::AcceptChParser", %"class.http2::Http2DecoderAdapter" }
%"class.net::AlpsDecoder::SettingsParser" = type { %"class.spdy::SpdyNoOpVisitor", i8, i8, i32, %"class.std::__1::map" }
%"class.spdy::SpdyNoOpVisitor" = type { %"class.spdy::SpdyFramerVisitorInterface", %"class.spdy::SpdyFramerDebugVisitorInterface", %"class.spdy::SpdyHeadersHandlerInterface" }
%"class.spdy::SpdyFramerVisitorInterface" = type { i32 (...)** }
%"class.spdy::SpdyFramerDebugVisitorInterface" = type { i32 (...)** }
%"class.spdy::SpdyHeadersHandlerInterface" = type { i32 (...)** }
%"class.std::__1::map" = type { %"class.std::__1::__tree" }
%"class.std::__1::__tree" = type { %"class.std::__1::__tree_end_node"*, %"class.std::__1::__compressed_pair", %"class.std::__1::__compressed_pair.1" }
%"class.std::__1::__tree_end_node" = type { %"class.std::__1::__tree_node_base"* }
%"class.std::__1::__tree_node_base" = type <{ %"class.std::__1::__tree_end_node", %"class.std::__1::__tree_node_base"*, %"class.std::__1::__tree_end_node"*, i8, [7 x i8] }>
%"class.std::__1::__compressed_pair" = type { %"struct.std::__1::__compressed_pair_elem" }
%"struct.std::__1::__compressed_pair_elem" = type { %"class.std::__1::__tree_end_node" }
%"class.std::__1::__compressed_pair.1" = type { %"struct.std::__1::__compressed_pair_elem.2" }
%"struct.std::__1::__compressed_pair_elem.2" = type { i64 }
%"class.net::AlpsDecoder::AcceptChParser" = type <{ %"class.spdy::ExtensionVisitorInterface", %"class.std::__1::vector", i32, [4 x i8] }>
%"class.spdy::ExtensionVisitorInterface" = type { i32 (...)** }
%"class.std::__1::vector" = type { %"class.std::__1::__vector_base" }
%"class.std::__1::__vector_base" = type { %"struct.spdy::AcceptChOriginValuePair"*, %"struct.spdy::AcceptChOriginValuePair"*, %"class.std::__1::__compressed_pair.9" }
%"struct.spdy::AcceptChOriginValuePair" = type { %"class.std::__1::basic_string", %"class.std::__1::basic_string" }
%"class.std::__1::basic_string" = type { %"class.std::__1::__compressed_pair.4" }
%"class.std::__1::__compressed_pair.4" = type { %"struct.std::__1::__compressed_pair_elem.5" }
%"struct.std::__1::__compressed_pair_elem.5" = type { %"struct.std::__1::basic_string<char, std::__1::char_traits<char>, std::__1::allocator<char> >::__rep" }
%"struct.std::__1::basic_string<char, std::__1::char_traits<char>, std::__1::allocator<char> >::__rep" = type { %union.anon }
%union.anon = type { %"struct.std::__1::basic_string<char, std::__1::char_traits<char>, std::__1::allocator<char> >::__long" }
%"struct.std::__1::basic_string<char, std::__1::char_traits<char>, std::__1::allocator<char> >::__long" = type { i8*, i64, i64 }
%"class.std::__1::__compressed_pair.9" = type { %"struct.std::__1::__compressed_pair_elem.10" }
%"struct.std::__1::__compressed_pair_elem.10" = type { %"struct.spdy::AcceptChOriginValuePair"* }
%"class.http2::Http2DecoderAdapter" = type { %"class.http2::Http2FrameDecoderListener", %"struct.http2::Http2FrameHeader", %"struct.http2::Http2FrameHeader", %"class.absl::optional", %"class.std::__1::basic_string", %"class.std::__1::basic_string", i32, %"class.std::__1::basic_string", %"class.http2::Http2FrameDecoderNoOpListener", %"class.spdy::SpdyFramerVisitorInterface"*, %"class.spdy::SpdyFramerDebugVisitorInterface"*, %"class.spdy::ExtensionVisitorInterface"*, %"class.std::__1::unique_ptr", %"class.std::__1::unique_ptr.44", i8, i32, i32, i64, i8, i8, i8, i8, i8, i8, i8, i8 }
%"class.http2::Http2FrameDecoderListener" = type { i32 (...)** }
%"struct.http2::Http2FrameHeader" = type { i32, i32, i8, i32 }
%"class.absl::optional" = type { %"class.absl::optional_internal::optional_data" }
%"class.absl::optional_internal::optional_data" = type { %"class.absl::optional_internal::optional_data_base" }
%"class.absl::optional_internal::optional_data_base" = type { %"class.absl::optional_internal::optional_data_dtor_base" }
%"class.absl::optional_internal::optional_data_dtor_base" = type { i8, %union.anon.14 }
%union.anon.14 = type { i64 }
%"class.http2::Http2FrameDecoderNoOpListener" = type { %"class.http2::Http2FrameDecoderListener" }
%"class.std::__1::unique_ptr" = type { %"class.std::__1::__compressed_pair.15" }
%"class.std::__1::__compressed_pair.15" = type { %"struct.std::__1::__compressed_pair_elem.16" }
%"struct.std::__1::__compressed_pair_elem.16" = type { %"class.spdy::HpackDecoderAdapter"* }
%"class.spdy::HpackDecoderAdapter" = type { %"class.spdy::HpackDecoderAdapter::ListenerAdapter", %"class.http2::HpackDecoder", i64, i64, i8, i32, %"class.std::__1::basic_string" }
%"class.spdy::HpackDecoderAdapter::ListenerAdapter" = type { %"class.http2::HpackDecoderListener", %"class.spdy::Http2HeaderBlock", %"class.spdy::SpdyHeadersHandlerInterface"*, i64, i64 }
%"class.http2::HpackDecoderListener" = type { i32 (...)** }
%"class.spdy::Http2HeaderBlock" = type { %"class.quiche::QuicheLinkedHashMap", %"class.spdy::SpdyHeaderStorage", i64, i64 }
%"class.quiche::QuicheLinkedHashMap" = type { %"class.absl::node_hash_map", %"class.std::__1::list" }
%"class.absl::node_hash_map" = type { %"class.absl::container_internal::raw_hash_map" }
%"class.absl::container_internal::raw_hash_map" = type { %"class.absl::container_internal::raw_hash_set" }
%"class.absl::container_internal::raw_hash_set" = type { i8*, %"struct.std::__1::pair"**, i64, i64, %"class.absl::container_internal::CompressedTuple" }
%"struct.std::__1::pair" = type { %"class.absl::string_view", %"class.std::__1::__list_iterator" }
%"class.absl::string_view" = type { i8*, i64 }
%"class.std::__1::__list_iterator" = type { %"struct.std::__1::__list_node_base"* }
%"struct.std::__1::__list_node_base" = type { %"struct.std::__1::__list_node_base"*, %"struct.std::__1::__list_node_base"* }
%"class.absl::container_internal::CompressedTuple" = type { %"struct.absl::container_internal::internal_compressed_tuple::CompressedTupleImpl" }
%"struct.absl::container_internal::internal_compressed_tuple::CompressedTupleImpl" = type { %"struct.absl::container_internal::internal_compressed_tuple::Storage" }
%"struct.absl::container_internal::internal_compressed_tuple::Storage" = type { i64 }
%"class.std::__1::list" = type { %"class.std::__1::__list_imp" }
%"class.std::__1::__list_imp" = type { %"struct.std::__1::__list_node_base", %"class.std::__1::__compressed_pair.23" }
%"class.std::__1::__compressed_pair.23" = type { %"struct.std::__1::__compressed_pair_elem.2" }
%"class.spdy::SpdyHeaderStorage" = type { %"class.spdy::SpdySimpleArena" }
%"class.spdy::SpdySimpleArena" = type { i64, %"class.std::__1::vector.27", %"class.spdy::SpdySimpleArena::Status" }
%"class.std::__1::vector.27" = type { %"class.std::__1::__vector_base.28" }
%"class.std::__1::__vector_base.28" = type { %"struct.spdy::SpdySimpleArena::Block"*, %"struct.spdy::SpdySimpleArena::Block"*, %"class.std::__1::__compressed_pair.33" }
%"struct.spdy::SpdySimpleArena::Block" = type { %"class.std::__1::unique_ptr.29", i64, i64 }
%"class.std::__1::unique_ptr.29" = type { %"class.std::__1::__compressed_pair.30" }
%"class.std::__1::__compressed_pair.30" = type { %"struct.std::__1::__compressed_pair_elem.31" }
%"struct.std::__1::__compressed_pair_elem.31" = type { i8* }
%"class.std::__1::__compressed_pair.33" = type { %"struct.std::__1::__compressed_pair_elem.34" }
%"struct.std::__1::__compressed_pair_elem.34" = type { %"struct.spdy::SpdySimpleArena::Block"* }
%"class.spdy::SpdySimpleArena::Status" = type { i64 }
%"class.http2::HpackDecoder" = type { i32 (...)**, %"class.http2::HpackDecoderState", %"class.http2::HpackWholeEntryBuffer", %"class.http2::HpackBlockDecoder", i32, %"class.std::__1::basic_string" }
%"class.http2::HpackDecoderState" = type { %"class.http2::HpackWholeEntryListener", %"class.http2::HpackDecoderTables", %"class.http2::HpackDecoderListener"*, i32, i32, i8, i8, i8, i32, %"class.std::__1::basic_string" }
%"class.http2::HpackWholeEntryListener" = type { i32 (...)** }
%"class.http2::HpackDecoderTables" = type { %"class.http2::HpackDecoderStaticTable", %"class.http2::HpackDecoderDynamicTable" }
%"class.http2::HpackDecoderStaticTable" = type { %"class.std::__1::vector.38"* }
%"class.std::__1::vector.38" = type opaque
%"class.http2::HpackDecoderDynamicTable" = type { %"class.quiche::QuicheCircularDeque", i64, i64, i64 }
%"class.quiche::QuicheCircularDeque" = type { i64, i64, %"struct.quiche::QuicheCircularDeque<http2::HpackStringPair, 3, std::__1::allocator<http2::HpackStringPair> >::AllocatorAndData" }
%"struct.quiche::QuicheCircularDeque<http2::HpackStringPair, 3, std::__1::allocator<http2::HpackStringPair> >::AllocatorAndData" = type { %"struct.http2::HpackStringPair"*, i64 }
%"struct.http2::HpackStringPair" = type { %"class.std::__1::basic_string", %"class.std::__1::basic_string" }
%"class.http2::HpackWholeEntryBuffer" = type <{ %"class.http2::HpackEntryDecoderListener", %"class.http2::HpackWholeEntryListener"*, %"class.http2::HpackDecoderStringBuffer", %"class.http2::HpackDecoderStringBuffer", i64, i64, i32, i8, [3 x i8] }>
%"class.http2::HpackEntryDecoderListener" = type { i32 (...)** }
%"class.http2::HpackDecoderStringBuffer" = type <{ %"class.std::__1::basic_string", %"class.absl::string_view", %"class.http2::HpackHuffmanDecoder", i64, i8, i8, i8, [5 x i8] }>
%"class.http2::HpackHuffmanDecoder" = type { %"class.http2::HuffmanBitBuffer" }
%"class.http2::HuffmanBitBuffer" = type { i64, i64 }
%"class.http2::HpackBlockDecoder" = type <{ %"class.http2::HpackEntryDecoder", %"class.http2::HpackEntryDecoderListener"*, i8, [7 x i8] }>
%"class.http2::HpackEntryDecoder" = type { %"class.http2::HpackEntryTypeDecoder", %"class.http2::HpackStringDecoder", i32, i32 }
%"class.http2::HpackEntryTypeDecoder" = type { %"class.http2::HpackVarintDecoder", i32, [4 x i8] }
%"class.http2::HpackVarintDecoder" = type <{ i64, i8, [7 x i8] }>
%"class.http2::HpackStringDecoder" = type <{ %"class.http2::HpackVarintDecoder", i64, i32, i8, [3 x i8] }>
%"class.std::__1::unique_ptr.44" = type { %"class.std::__1::__compressed_pair.45" }
%"class.std::__1::__compressed_pair.45" = type { %"struct.std::__1::__compressed_pair_elem.46" }
%"struct.std::__1::__compressed_pair_elem.46" = type { %"class.http2::Http2FrameDecoder"* }
%"class.http2::Http2FrameDecoder" = type { %"class.http2::FrameDecoderState", %union.anon.47, i32, i64, %"class.http2::Http2FrameDecoderNoOpListener" }
%"class.http2::FrameDecoderState" = type { %"class.http2::Http2FrameDecoderListener"*, %"struct.http2::Http2FrameHeader", i32, i32, %"class.http2::Http2StructureDecoder" }
%"class.http2::Http2StructureDecoder" = type <{ i32, [9 x i8], [3 x i8] }>
%union.anon.47 = type { %"class.http2::HeadersPayloadDecoder" }
%"class.http2::HeadersPayloadDecoder" = type { i32, %"struct.http2::Http2PriorityFields" }
%"struct.http2::Http2PriorityFields" = type <{ i32, i32, i8, [3 x i8] }>
%"struct.std::__1::basic_string<char, std::__1::char_traits<char>, std::__1::allocator<char> >::__short" = type { [23 x i8], %struct.anon }
%struct.anon = type { i8 }
%"class.std::__1::__tree_node" = type { %"class.std::__1::__tree_node_base.base", %"struct.std::__1::__value_type", [4 x i8] }
%"class.std::__1::__tree_node_base.base" = type <{ %"class.std::__1::__tree_end_node", %"class.std::__1::__tree_node_base"*, %"class.std::__1::__tree_end_node"*, i8 }>
%"struct.std::__1::__value_type" = type { %"struct.std::__1::pair.66" }
%"struct.std::__1::pair.66" = type { i16, i32 }
%"class.base::BasicStringPiece" = type { i8*, i64 }
%"class.std::__1::__basic_string_common" = type { i8 }
%"class.std::__1::vector.51" = type { %"class.std::__1::__vector_base.52" }
%"class.std::__1::__vector_base.52" = type { %"struct.spdy::SpdyAltSvcWireFormat::AlternativeService"*, %"struct.spdy::SpdyAltSvcWireFormat::AlternativeService"*, %"class.std::__1::__compressed_pair.59" }
%"struct.spdy::SpdyAltSvcWireFormat::AlternativeService" = type { %"class.std::__1::basic_string", %"class.std::__1::basic_string", i16, i32, %"class.absl::InlinedVector" }
%"class.absl::InlinedVector" = type { %"class.absl::inlined_vector_internal::Storage" }
%"class.absl::inlined_vector_internal::Storage" = type { %"class.absl::container_internal::CompressedTuple.53", %"union.absl::inlined_vector_internal::Storage<unsigned int, 8, std::__1::allocator<unsigned int> >::Data" }
%"class.absl::container_internal::CompressedTuple.53" = type { %"struct.absl::container_internal::internal_compressed_tuple::CompressedTupleImpl.54" }
%"struct.absl::container_internal::internal_compressed_tuple::CompressedTupleImpl.54" = type { %"struct.absl::container_internal::internal_compressed_tuple::Storage.58" }
%"struct.absl::container_internal::internal_compressed_tuple::Storage.58" = type { i64 }
%"union.absl::inlined_vector_internal::Storage<unsigned int, 8, std::__1::allocator<unsigned int> >::Data" = type { %"struct.absl::inlined_vector_internal::Storage<unsigned int, 8, std::__1::allocator<unsigned int> >::Allocated", [16 x i8] }
%"struct.absl::inlined_vector_internal::Storage<unsigned int, 8, std::__1::allocator<unsigned int> >::Allocated" = type { i32*, i64 }
%"class.std::__1::__compressed_pair.59" = type { %"struct.std::__1::__compressed_pair_elem.60" }
%"struct.std::__1::__compressed_pair_elem.60" = type { %"struct.spdy::SpdyAltSvcWireFormat::AlternativeService"* }
%"class.std::__1::__vector_base_common" = type { i8 }

$_ZN4spdy15SpdyNoOpVisitor7OnErrorEN5http219Http2DecoderAdapter15SpdyFramerErrorENSt3__112basic_stringIcNS4_11char_traitsIcEENS4_9allocatorIcEEEE = comdat any

$_ZN4spdy15SpdyNoOpVisitor17OnDataFrameHeaderEjmb = comdat any

$_ZN4spdy15SpdyNoOpVisitor17OnStreamFrameDataEjPKcm = comdat any

$_ZN4spdy15SpdyNoOpVisitor11OnStreamEndEj = comdat any

$_ZN4spdy26SpdyFramerVisitorInterface17OnStreamPadLengthEjm = comdat any

$_ZN4spdy15SpdyNoOpVisitor15OnStreamPaddingEjm = comdat any

$_ZN4spdy15SpdyNoOpVisitor16OnHeaderFrameEndEj = comdat any

$_ZN4spdy15SpdyNoOpVisitor11OnRstStreamEjNS_13SpdyErrorCodeE = comdat any

$_ZN4spdy15SpdyNoOpVisitor13OnSettingsEndEv = comdat any

$_ZN4spdy15SpdyNoOpVisitor6OnPingEmb = comdat any

$_ZN4spdy15SpdyNoOpVisitor8OnGoAwayEjNS_13SpdyErrorCodeE = comdat any

$_ZN4spdy15SpdyNoOpVisitor9OnHeadersEjbijbbb = comdat any

$_ZN4spdy15SpdyNoOpVisitor14OnWindowUpdateEji = comdat any

$_ZN4spdy15SpdyNoOpVisitor13OnPushPromiseEjjb = comdat any

$_ZN4spdy15SpdyNoOpVisitor14OnContinuationEjb = comdat any

$_ZN4spdy15SpdyNoOpVisitor8OnAltSvcEjN4absl11string_viewERKNSt3__16vectorINS_20SpdyAltSvcWireFormat18AlternativeServiceENS3_9allocatorIS6_EEEE = comdat any

$_ZN4spdy15SpdyNoOpVisitor10OnPriorityEjjib = comdat any

$_ZN4spdy15SpdyNoOpVisitor16OnPriorityUpdateEjN4absl11string_viewE = comdat any

$_ZN4spdy15SpdyNoOpVisitor21OnSendCompressedFrameEjNS_13SpdyFrameTypeEmm = comdat any

$_ZN4spdy15SpdyNoOpVisitor24OnReceiveCompressedFrameEjNS_13SpdyFrameTypeEm = comdat any

$_ZN4spdy15SpdyNoOpVisitor18OnHeaderBlockStartEv = comdat any

$_ZN4spdy15SpdyNoOpVisitor8OnHeaderEN4absl11string_viewES2_ = comdat any

$_ZN4spdy15SpdyNoOpVisitor16OnHeaderBlockEndEmm = comdat any

$_ZThn8_N4spdy15SpdyNoOpVisitor21OnSendCompressedFrameEjNS_13SpdyFrameTypeEmm = comdat any

$_ZThn8_N4spdy15SpdyNoOpVisitor24OnReceiveCompressedFrameEjNS_13SpdyFrameTypeEm = comdat any

$_ZThn16_N4spdy15SpdyNoOpVisitor18OnHeaderBlockStartEv = comdat any

$_ZThn16_N4spdy15SpdyNoOpVisitor8OnHeaderEN4absl11string_viewES2_ = comdat any

$_ZThn16_N4spdy15SpdyNoOpVisitor16OnHeaderBlockEndEmm = comdat any

$_ZN3net11AlpsDecoder14AcceptChParser9OnSettingEtj = comdat any

$_ZNSt3__127__tree_balance_after_insertIPNS_16__tree_node_baseIPvEEEEvT_S5_ = comdat any

$_ZNSt3__16__treeINS_12__value_typeItjEENS_19__map_value_compareItS2_NS_4lessItEELb1EEENS_9allocatorIS2_EEE7destroyEPNS_11__tree_nodeIS2_PvEE = comdat any

$_ZNSt3__16vectorIN4spdy23AcceptChOriginValuePairENS_9allocatorIS2_EEE21__push_back_slow_pathIS2_EEvOT_ = comdat any

@_ZTVN3net11AlpsDecoder14SettingsParserE = hidden unnamed_addr constant { [34 x i8*], [6 x i8*], [7 x i8*] } { [34 x i8*] [i8* null, i8* null, i8* bitcast (void (%"class.net::AlpsDecoder::SettingsParser"*)* @_ZN3net11AlpsDecoder14SettingsParserD2Ev to i8*), i8* bitcast (void (%"class.net::AlpsDecoder::SettingsParser"*)* @_ZN3net11AlpsDecoder14SettingsParserD0Ev to i8*), i8* bitcast (void (%"class.spdy::SpdyNoOpVisitor"*, i32, %"class.std::__1::basic_string"*)* @_ZN4spdy15SpdyNoOpVisitor7OnErrorEN5http219Http2DecoderAdapter15SpdyFramerErrorENSt3__112basic_stringIcNS4_11char_traitsIcEENS4_9allocatorIcEEEE to i8*), i8* bitcast (void (%"class.net::AlpsDecoder::SettingsParser"*, i32, i64, i8, i8)* @_ZN3net11AlpsDecoder14SettingsParser14OnCommonHeaderEjmhh to i8*), i8* bitcast (void (%"class.spdy::SpdyNoOpVisitor"*, i32, i64, i1)* @_ZN4spdy15SpdyNoOpVisitor17OnDataFrameHeaderEjmb to i8*), i8* bitcast (void (%"class.spdy::SpdyNoOpVisitor"*, i32, i8*, i64)* @_ZN4spdy15SpdyNoOpVisitor17OnStreamFrameDataEjPKcm to i8*), i8* bitcast (void (%"class.spdy::SpdyNoOpVisitor"*, i32)* @_ZN4spdy15SpdyNoOpVisitor11OnStreamEndEj to i8*), i8* bitcast (void (%"class.spdy::SpdyFramerVisitorInterface"*, i32, i64)* @_ZN4spdy26SpdyFramerVisitorInterface17OnStreamPadLengthEjm to i8*), i8* bitcast (void (%"class.spdy::SpdyNoOpVisitor"*, i32, i64)* @_ZN4spdy15SpdyNoOpVisitor15OnStreamPaddingEjm to i8*), i8* bitcast (%"class.spdy::SpdyHeadersHandlerInterface"* (%"class.spdy::SpdyNoOpVisitor"*, i32)* @_ZN4spdy15SpdyNoOpVisitor18OnHeaderFrameStartEj to i8*), i8* bitcast (void (%"class.spdy::SpdyNoOpVisitor"*, i32)* @_ZN4spdy15SpdyNoOpVisitor16OnHeaderFrameEndEj to i8*), i8* bitcast (void (%"class.spdy::SpdyNoOpVisitor"*, i32, i32)* @_ZN4spdy15SpdyNoOpVisitor11OnRstStreamEjNS_13SpdyErrorCodeE to i8*), i8* bitcast (void (%"class.net::AlpsDecoder::SettingsParser"*)* @_ZN3net11AlpsDecoder14SettingsParser10OnSettingsEv to i8*), i8* bitcast (void (%"class.net::AlpsDecoder::SettingsParser"*, i16, i32)* @_ZN3net11AlpsDecoder14SettingsParser9OnSettingEtj to i8*), i8* bitcast (void (%"class.net::AlpsDecoder::SettingsParser"*)* @_ZN3net11AlpsDecoder14SettingsParser13OnSettingsAckEv to i8*), i8* bitcast (void (%"class.spdy::SpdyNoOpVisitor"*)* @_ZN4spdy15SpdyNoOpVisitor13OnSettingsEndEv to i8*), i8* bitcast (void (%"class.spdy::SpdyNoOpVisitor"*, i64, i1)* @_ZN4spdy15SpdyNoOpVisitor6OnPingEmb to i8*), i8* bitcast (void (%"class.spdy::SpdyNoOpVisitor"*, i32, i32)* @_ZN4spdy15SpdyNoOpVisitor8OnGoAwayEjNS_13SpdyErrorCodeE to i8*), i8* bitcast (void (%"class.spdy::SpdyNoOpVisitor"*, i32, i1, i32, i32, i1, i1, i1)* @_ZN4spdy15SpdyNoOpVisitor9OnHeadersEjbijbbb to i8*), i8* bitcast (void (%"class.spdy::SpdyNoOpVisitor"*, i32, i32)* @_ZN4spdy15SpdyNoOpVisitor14OnWindowUpdateEji to i8*), i8* bitcast (i1 (%"class.spdy::SpdyFramerVisitorInterface"*, i8*, i64)* @_ZN4spdy26SpdyFramerVisitorInterface17OnGoAwayFrameDataEPKcm to i8*), i8* bitcast (void (%"class.spdy::SpdyNoOpVisitor"*, i32, i32, i1)* @_ZN4spdy15SpdyNoOpVisitor13OnPushPromiseEjjb to i8*), i8* bitcast (void (%"class.spdy::SpdyNoOpVisitor"*, i32, i1)* @_ZN4spdy15SpdyNoOpVisitor14OnContinuationEjb to i8*), i8* bitcast (void (%"class.spdy::SpdyNoOpVisitor"*, i32, i8*, i64, %"class.std::__1::vector.51"*)* @_ZN4spdy15SpdyNoOpVisitor8OnAltSvcEjN4absl11string_viewERKNSt3__16vectorINS_20SpdyAltSvcWireFormat18AlternativeServiceENS3_9allocatorIS6_EEEE to i8*), i8* bitcast (void (%"class.spdy::SpdyNoOpVisitor"*, i32, i32, i32, i1)* @_ZN4spdy15SpdyNoOpVisitor10OnPriorityEjjib to i8*), i8* bitcast (void (%"class.spdy::SpdyNoOpVisitor"*, i32, i8*, i64)* @_ZN4spdy15SpdyNoOpVisitor16OnPriorityUpdateEjN4absl11string_viewE to i8*), i8* bitcast (i1 (%"class.spdy::SpdyNoOpVisitor"*, i32, i8)* @_ZN4spdy15SpdyNoOpVisitor14OnUnknownFrameEjh to i8*), i8* bitcast (void (%"class.spdy::SpdyNoOpVisitor"*, i32, i8, i64, i64)* @_ZN4spdy15SpdyNoOpVisitor21OnSendCompressedFrameEjNS_13SpdyFrameTypeEmm to i8*), i8* bitcast (void (%"class.spdy::SpdyNoOpVisitor"*, i32, i8, i64)* @_ZN4spdy15SpdyNoOpVisitor24OnReceiveCompressedFrameEjNS_13SpdyFrameTypeEm to i8*), i8* bitcast (void (%"class.spdy::SpdyNoOpVisitor"*)* @_ZN4spdy15SpdyNoOpVisitor18OnHeaderBlockStartEv to i8*), i8* bitcast (void (%"class.spdy::SpdyNoOpVisitor"*, i8*, i64, i8*, i64)* @_ZN4spdy15SpdyNoOpVisitor8OnHeaderEN4absl11string_viewES2_ to i8*), i8* bitcast (void (%"class.spdy::SpdyNoOpVisitor"*, i64, i64)* @_ZN4spdy15SpdyNoOpVisitor16OnHeaderBlockEndEmm to i8*)], [6 x i8*] [i8* inttoptr (i64 -8 to i8*), i8* null, i8* bitcast (void (%"class.net::AlpsDecoder::SettingsParser"*)* @_ZThn8_N3net11AlpsDecoder14SettingsParserD1Ev to i8*), i8* bitcast (void (%"class.net::AlpsDecoder::SettingsParser"*)* @_ZThn8_N3net11AlpsDecoder14SettingsParserD0Ev to i8*), i8* bitcast (void (%"class.spdy::SpdyNoOpVisitor"*, i32, i8, i64, i64)* @_ZThn8_N4spdy15SpdyNoOpVisitor21OnSendCompressedFrameEjNS_13SpdyFrameTypeEmm to i8*), i8* bitcast (void (%"class.spdy::SpdyNoOpVisitor"*, i32, i8, i64)* @_ZThn8_N4spdy15SpdyNoOpVisitor24OnReceiveCompressedFrameEjNS_13SpdyFrameTypeEm to i8*)], [7 x i8*] [i8* inttoptr (i64 -16 to i8*), i8* null, i8* bitcast (void (%"class.net::AlpsDecoder::SettingsParser"*)* @_ZThn16_N3net11AlpsDecoder14SettingsParserD1Ev to i8*), i8* bitcast (void (%"class.net::AlpsDecoder::SettingsParser"*)* @_ZThn16_N3net11AlpsDecoder14SettingsParserD0Ev to i8*), i8* bitcast (void (%"class.spdy::SpdyNoOpVisitor"*)* @_ZThn16_N4spdy15SpdyNoOpVisitor18OnHeaderBlockStartEv to i8*), i8* bitcast (void (%"class.spdy::SpdyNoOpVisitor"*, i8*, i64, i8*, i64)* @_ZThn16_N4spdy15SpdyNoOpVisitor8OnHeaderEN4absl11string_viewES2_ to i8*), i8* bitcast (void (%"class.spdy::SpdyNoOpVisitor"*, i64, i64)* @_ZThn16_N4spdy15SpdyNoOpVisitor16OnHeaderBlockEndEmm to i8*)] }, align 8
@_ZTVN3net11AlpsDecoder14AcceptChParserE = hidden unnamed_addr constant { [7 x i8*] } { [7 x i8*] [i8* null, i8* null, i8* bitcast (void (%"class.net::AlpsDecoder::AcceptChParser"*)* @_ZN3net11AlpsDecoder14AcceptChParserD2Ev to i8*), i8* bitcast (void (%"class.net::AlpsDecoder::AcceptChParser"*)* @_ZN3net11AlpsDecoder14AcceptChParserD0Ev to i8*), i8* bitcast (void (%"class.net::AlpsDecoder::AcceptChParser"*, i16, i32)* @_ZN3net11AlpsDecoder14AcceptChParser9OnSettingEtj to i8*), i8* bitcast (i1 (%"class.net::AlpsDecoder::AcceptChParser"*, i32, i64, i8, i8)* @_ZN3net11AlpsDecoder14AcceptChParser13OnFrameHeaderEjmhh to i8*), i8* bitcast (void (%"class.net::AlpsDecoder::AcceptChParser"*, i8*, i64)* @_ZN3net11AlpsDecoder14AcceptChParser14OnFramePayloadEPKcm to i8*)] }, align 8

@_ZN3net11AlpsDecoderC1Ev = hidden unnamed_addr alias void (%"class.net::AlpsDecoder"*), void (%"class.net::AlpsDecoder"*)* @_ZN3net11AlpsDecoderC2Ev
@_ZN3net11AlpsDecoderD1Ev = hidden unnamed_addr alias void (%"class.net::AlpsDecoder"*), void (%"class.net::AlpsDecoder"*)* @_ZN3net11AlpsDecoderD2Ev
@_ZN3net11AlpsDecoder14SettingsParserC1Ev = hidden unnamed_addr alias void (%"class.net::AlpsDecoder::SettingsParser"*), void (%"class.net::AlpsDecoder::SettingsParser"*)* @_ZN3net11AlpsDecoder14SettingsParserC2Ev
@_ZN3net11AlpsDecoder14SettingsParserD1Ev = hidden unnamed_addr alias void (%"class.net::AlpsDecoder::SettingsParser"*), void (%"class.net::AlpsDecoder::SettingsParser"*)* @_ZN3net11AlpsDecoder14SettingsParserD2Ev
@_ZN3net11AlpsDecoder14AcceptChParserC1Ev = hidden unnamed_addr alias void (%"class.net::AlpsDecoder::AcceptChParser"*), void (%"class.net::AlpsDecoder::AcceptChParser"*)* @_ZN3net11AlpsDecoder14AcceptChParserC2Ev
@_ZN3net11AlpsDecoder14AcceptChParserD1Ev = hidden unnamed_addr alias void (%"class.net::AlpsDecoder::AcceptChParser"*), void (%"class.net::AlpsDecoder::AcceptChParser"*)* @_ZN3net11AlpsDecoder14AcceptChParserD2Ev

; Function Attrs: nounwind ssp uwtable
define hidden void @_ZN3net11AlpsDecoderC2Ev(%"class.net::AlpsDecoder"*) unnamed_addr #0 align 2 {
  %2 = getelementptr inbounds %"class.net::AlpsDecoder", %"class.net::AlpsDecoder"* %0, i64 0, i32 0, i32 0
  tail call void @_ZN4spdy15SpdyNoOpVisitorC2Ev(%"class.spdy::SpdyNoOpVisitor"* %2) #11
  %3 = bitcast %"class.net::AlpsDecoder"* %0 to <2 x i32 (...)**>*
  store <2 x i32 (...)**> <i32 (...)** bitcast (i8** getelementptr inbounds ({ [34 x i8*], [6 x i8*], [7 x i8*] }, { [34 x i8*], [6 x i8*], [7 x i8*] }* @_ZTVN3net11AlpsDecoder14SettingsParserE, i64 0, inrange i32 0, i64 2) to i32 (...)**), i32 (...)** bitcast (i8** getelementptr inbounds ({ [34 x i8*], [6 x i8*], [7 x i8*] }, { [34 x i8*], [6 x i8*], [7 x i8*] }* @_ZTVN3net11AlpsDecoder14SettingsParserE, i64 0, inrange i32 1, i64 2) to i32 (...)**)>, <2 x i32 (...)**>* %3, align 8
  %4 = getelementptr inbounds %"class.net::AlpsDecoder", %"class.net::AlpsDecoder"* %0, i64 0, i32 0, i32 0, i32 2, i32 0
  store i32 (...)** bitcast (i8** getelementptr inbounds ({ [34 x i8*], [6 x i8*], [7 x i8*] }, { [34 x i8*], [6 x i8*], [7 x i8*] }* @_ZTVN3net11AlpsDecoder14SettingsParserE, i64 0, inrange i32 2, i64 2) to i32 (...)**), i32 (...)*** %4, align 8
  %5 = getelementptr inbounds %"class.net::AlpsDecoder", %"class.net::AlpsDecoder"* %0, i64 0, i32 0, i32 1
  store i8 0, i8* %5, align 8
  %6 = getelementptr inbounds %"class.net::AlpsDecoder", %"class.net::AlpsDecoder"* %0, i64 0, i32 0, i32 2
  store i8 0, i8* %6, align 1
  %7 = getelementptr inbounds %"class.net::AlpsDecoder", %"class.net::AlpsDecoder"* %0, i64 0, i32 0, i32 3
  store i32 0, i32* %7, align 4
  %8 = getelementptr inbounds %"class.net::AlpsDecoder", %"class.net::AlpsDecoder"* %0, i64 0, i32 0, i32 4, i32 0, i32 1, i32 0, i32 0, i32 0
  %9 = getelementptr inbounds %"class.net::AlpsDecoder", %"class.net::AlpsDecoder"* %0, i64 0, i32 0, i32 4, i32 0, i32 1, i32 0, i32 0
  %10 = getelementptr inbounds %"class.net::AlpsDecoder", %"class.net::AlpsDecoder"* %0, i64 0, i32 0, i32 4, i32 0, i32 0
  %11 = bitcast %"class.std::__1::__tree_node_base"** %8 to i8*
  tail call void @llvm.memset.p0i8.i64(i8* align 8 %11, i8 0, i64 16, i1 false) #11
  store %"class.std::__1::__tree_end_node"* %9, %"class.std::__1::__tree_end_node"** %10, align 8
  %12 = getelementptr inbounds %"class.net::AlpsDecoder", %"class.net::AlpsDecoder"* %0, i64 0, i32 1
  %13 = getelementptr inbounds %"class.net::AlpsDecoder::AcceptChParser", %"class.net::AlpsDecoder::AcceptChParser"* %12, i64 0, i32 0, i32 0
  store i32 (...)** bitcast (i8** getelementptr inbounds ({ [7 x i8*] }, { [7 x i8*] }* @_ZTVN3net11AlpsDecoder14AcceptChParserE, i64 0, inrange i32 0, i64 2) to i32 (...)**), i32 (...)*** %13, align 8
  %14 = getelementptr inbounds %"class.net::AlpsDecoder", %"class.net::AlpsDecoder"* %0, i64 0, i32 1, i32 1
  %15 = bitcast %"class.std::__1::vector"* %14 to i8*
  tail call void @llvm.memset.p0i8.i64(i8* align 8 %15, i8 0, i64 28, i1 false) #11
  %16 = getelementptr inbounds %"class.net::AlpsDecoder", %"class.net::AlpsDecoder"* %0, i64 0, i32 2
  tail call void @_ZN5http219Http2DecoderAdapterC1Ev(%"class.http2::Http2DecoderAdapter"* %16) #11
  %17 = getelementptr inbounds %"class.net::AlpsDecoder", %"class.net::AlpsDecoder"* %0, i64 0, i32 0, i32 0, i32 0
  tail call void @_ZN5http219Http2DecoderAdapter11set_visitorEPN4spdy26SpdyFramerVisitorInterfaceE(%"class.http2::Http2DecoderAdapter"* %16, %"class.spdy::SpdyFramerVisitorInterface"* %17) #11
  %18 = getelementptr inbounds %"class.net::AlpsDecoder::AcceptChParser", %"class.net::AlpsDecoder::AcceptChParser"* %12, i64 0, i32 0
  tail call void @_ZN5http219Http2DecoderAdapter21set_extension_visitorEPN4spdy25ExtensionVisitorInterfaceE(%"class.http2::Http2DecoderAdapter"* %16, %"class.spdy::ExtensionVisitorInterface"* %18) #11
  ret void
}

declare void @_ZN5http219Http2DecoderAdapterC1Ev(%"class.http2::Http2DecoderAdapter"*) unnamed_addr #1

declare void @_ZN5http219Http2DecoderAdapter11set_visitorEPN4spdy26SpdyFramerVisitorInterfaceE(%"class.http2::Http2DecoderAdapter"*, %"class.spdy::SpdyFramerVisitorInterface"*) local_unnamed_addr #1

declare void @_ZN5http219Http2DecoderAdapter21set_extension_visitorEPN4spdy25ExtensionVisitorInterfaceE(%"class.http2::Http2DecoderAdapter"*, %"class.spdy::ExtensionVisitorInterface"*) local_unnamed_addr #1

; Function Attrs: nounwind ssp uwtable
define hidden void @_ZN3net11AlpsDecoderD2Ev(%"class.net::AlpsDecoder"*) unnamed_addr #0 align 2 {
  %2 = getelementptr inbounds %"class.net::AlpsDecoder", %"class.net::AlpsDecoder"* %0, i64 0, i32 2
  tail call void @_ZN5http219Http2DecoderAdapterD1Ev(%"class.http2::Http2DecoderAdapter"* %2) #11
  %3 = getelementptr inbounds %"class.net::AlpsDecoder", %"class.net::AlpsDecoder"* %0, i64 0, i32 1, i32 0, i32 0
  store i32 (...)** bitcast (i8** getelementptr inbounds ({ [7 x i8*] }, { [7 x i8*] }* @_ZTVN3net11AlpsDecoder14AcceptChParserE, i64 0, inrange i32 0, i64 2) to i32 (...)**), i32 (...)*** %3, align 8
  %4 = getelementptr inbounds %"class.net::AlpsDecoder", %"class.net::AlpsDecoder"* %0, i64 0, i32 1, i32 1
  %5 = getelementptr inbounds %"class.std::__1::vector", %"class.std::__1::vector"* %4, i64 0, i32 0, i32 0
  %6 = load %"struct.spdy::AcceptChOriginValuePair"*, %"struct.spdy::AcceptChOriginValuePair"** %5, align 8
  %7 = icmp eq %"struct.spdy::AcceptChOriginValuePair"* %6, null
  br i1 %7, label %39, label %8

8:                                                ; preds = %1
  %9 = bitcast %"struct.spdy::AcceptChOriginValuePair"* %6 to i8*
  %10 = getelementptr inbounds %"class.net::AlpsDecoder", %"class.net::AlpsDecoder"* %0, i64 0, i32 1, i32 1, i32 0, i32 1
  %11 = load %"struct.spdy::AcceptChOriginValuePair"*, %"struct.spdy::AcceptChOriginValuePair"** %10, align 8
  %12 = icmp eq %"struct.spdy::AcceptChOriginValuePair"* %11, %6
  br i1 %12, label %37, label %13

13:                                               ; preds = %8, %32
  %14 = phi %"struct.spdy::AcceptChOriginValuePair"* [ %15, %32 ], [ %11, %8 ]
  %15 = getelementptr inbounds %"struct.spdy::AcceptChOriginValuePair", %"struct.spdy::AcceptChOriginValuePair"* %14, i64 -1
  %16 = getelementptr inbounds %"struct.spdy::AcceptChOriginValuePair", %"struct.spdy::AcceptChOriginValuePair"* %14, i64 -1, i32 1
  %17 = bitcast %"class.std::__1::basic_string"* %16 to %"struct.std::__1::basic_string<char, std::__1::char_traits<char>, std::__1::allocator<char> >::__short"*
  %18 = getelementptr inbounds %"struct.std::__1::basic_string<char, std::__1::char_traits<char>, std::__1::allocator<char> >::__short", %"struct.std::__1::basic_string<char, std::__1::char_traits<char>, std::__1::allocator<char> >::__short"* %17, i64 0, i32 1, i32 0
  %19 = load i8, i8* %18, align 1
  %20 = icmp slt i8 %19, 0
  br i1 %20, label %21, label %24

21:                                               ; preds = %13
  %22 = getelementptr inbounds %"class.std::__1::basic_string", %"class.std::__1::basic_string"* %16, i64 0, i32 0, i32 0, i32 0, i32 0, i32 0, i32 0
  %23 = load i8*, i8** %22, align 8
  tail call void @_ZdlPv(i8* %23) #12
  br label %24

24:                                               ; preds = %21, %13
  %25 = bitcast %"struct.spdy::AcceptChOriginValuePair"* %15 to %"struct.std::__1::basic_string<char, std::__1::char_traits<char>, std::__1::allocator<char> >::__short"*
  %26 = getelementptr inbounds %"struct.std::__1::basic_string<char, std::__1::char_traits<char>, std::__1::allocator<char> >::__short", %"struct.std::__1::basic_string<char, std::__1::char_traits<char>, std::__1::allocator<char> >::__short"* %25, i64 0, i32 1, i32 0
  %27 = load i8, i8* %26, align 1
  %28 = icmp slt i8 %27, 0
  br i1 %28, label %29, label %32

29:                                               ; preds = %24
  %30 = getelementptr inbounds %"struct.spdy::AcceptChOriginValuePair", %"struct.spdy::AcceptChOriginValuePair"* %15, i64 0, i32 0, i32 0, i32 0, i32 0, i32 0, i32 0, i32 0
  %31 = load i8*, i8** %30, align 8
  tail call void @_ZdlPv(i8* %31) #12
  br label %32

32:                                               ; preds = %29, %24
  %33 = icmp eq %"struct.spdy::AcceptChOriginValuePair"* %15, %6
  br i1 %33, label %34, label %13

34:                                               ; preds = %32
  %35 = bitcast %"class.std::__1::vector"* %4 to i8**
  %36 = load i8*, i8** %35, align 8
  br label %37

37:                                               ; preds = %34, %8
  %38 = phi i8* [ %36, %34 ], [ %9, %8 ]
  store %"struct.spdy::AcceptChOriginValuePair"* %6, %"struct.spdy::AcceptChOriginValuePair"** %10, align 8
  tail call void @_ZdlPv(i8* %38) #12
  br label %39

39:                                               ; preds = %1, %37
  %40 = bitcast %"class.net::AlpsDecoder"* %0 to <2 x i32 (...)**>*
  store <2 x i32 (...)**> <i32 (...)** bitcast (i8** getelementptr inbounds ({ [34 x i8*], [6 x i8*], [7 x i8*] }, { [34 x i8*], [6 x i8*], [7 x i8*] }* @_ZTVN3net11AlpsDecoder14SettingsParserE, i64 0, inrange i32 0, i64 2) to i32 (...)**), i32 (...)** bitcast (i8** getelementptr inbounds ({ [34 x i8*], [6 x i8*], [7 x i8*] }, { [34 x i8*], [6 x i8*], [7 x i8*] }* @_ZTVN3net11AlpsDecoder14SettingsParserE, i64 0, inrange i32 1, i64 2) to i32 (...)**)>, <2 x i32 (...)**>* %40, align 8
  %41 = getelementptr inbounds %"class.net::AlpsDecoder", %"class.net::AlpsDecoder"* %0, i64 0, i32 0, i32 0, i32 2, i32 0
  store i32 (...)** bitcast (i8** getelementptr inbounds ({ [34 x i8*], [6 x i8*], [7 x i8*] }, { [34 x i8*], [6 x i8*], [7 x i8*] }* @_ZTVN3net11AlpsDecoder14SettingsParserE, i64 0, inrange i32 2, i64 2) to i32 (...)**), i32 (...)*** %41, align 8
  %42 = getelementptr inbounds %"class.net::AlpsDecoder", %"class.net::AlpsDecoder"* %0, i64 0, i32 0, i32 4, i32 0
  %43 = getelementptr inbounds %"class.net::AlpsDecoder", %"class.net::AlpsDecoder"* %0, i64 0, i32 0, i32 4, i32 0, i32 1, i32 0, i32 0
  %44 = bitcast %"class.std::__1::__tree_end_node"* %43 to %"class.std::__1::__tree_node"**
  %45 = load %"class.std::__1::__tree_node"*, %"class.std::__1::__tree_node"** %44, align 8
  tail call void @_ZNSt3__16__treeINS_12__value_typeItjEENS_19__map_value_compareItS2_NS_4lessItEELb1EEENS_9allocatorIS2_EEE7destroyEPNS_11__tree_nodeIS2_PvEE(%"class.std::__1::__tree"* %42, %"class.std::__1::__tree_node"* %45) #11
  %46 = getelementptr inbounds %"class.net::AlpsDecoder", %"class.net::AlpsDecoder"* %0, i64 0, i32 0, i32 0
  tail call void @_ZN4spdy15SpdyNoOpVisitorD2Ev(%"class.spdy::SpdyNoOpVisitor"* %46) #11
  ret void
}

; Function Attrs: nounwind
declare void @_ZN5http219Http2DecoderAdapterD1Ev(%"class.http2::Http2DecoderAdapter"*) unnamed_addr #2

; Function Attrs: nounwind ssp uwtable
define hidden i32 @_ZN3net11AlpsDecoder6DecodeEN4base4spanIKcLm18446744073709551615EEE(%"class.net::AlpsDecoder"*, i64, i8*) local_unnamed_addr #0 align 2 {
  %4 = getelementptr inbounds %"class.net::AlpsDecoder", %"class.net::AlpsDecoder"* %0, i64 0, i32 2
  %5 = tail call i64 @_ZN5http219Http2DecoderAdapter12ProcessInputEPKcm(%"class.http2::Http2DecoderAdapter"* %4, i8* %2, i64 %1) #11
  %6 = tail call zeroext i1 @_ZNK5http219Http2DecoderAdapter8HasErrorEv(%"class.http2::Http2DecoderAdapter"* %4) #11
  br i1 %6, label %21, label %7

7:                                                ; preds = %3
  %8 = getelementptr inbounds %"class.net::AlpsDecoder", %"class.net::AlpsDecoder"* %0, i64 0, i32 0, i32 1
  %9 = load i8, i8* %8, align 8, !range !2
  %10 = icmp eq i8 %9, 0
  br i1 %10, label %11, label %21

11:                                               ; preds = %7
  %12 = getelementptr inbounds %"class.net::AlpsDecoder", %"class.net::AlpsDecoder"* %0, i64 0, i32 0, i32 2
  %13 = load i8, i8* %12, align 1, !range !2
  %14 = icmp eq i8 %13, 0
  br i1 %14, label %15, label %21

15:                                               ; preds = %11
  %16 = tail call i32 @_ZNK5http219Http2DecoderAdapter5stateEv(%"class.http2::Http2DecoderAdapter"* %4) #11
  %17 = icmp eq i32 %16, 1
  br i1 %17, label %18, label %21

18:                                               ; preds = %15
  %19 = getelementptr inbounds %"class.net::AlpsDecoder", %"class.net::AlpsDecoder"* %0, i64 0, i32 1, i32 2
  %20 = load i32, i32* %19, align 8
  br label %21

21:                                               ; preds = %11, %7, %15, %3, %18
  %22 = phi i32 [ %20, %18 ], [ 1, %3 ], [ 2, %7 ], [ 4, %11 ], [ 3, %15 ]
  ret i32 %22
}

declare i64 @_ZN5http219Http2DecoderAdapter12ProcessInputEPKcm(%"class.http2::Http2DecoderAdapter"*, i8*, i64) local_unnamed_addr #1

declare zeroext i1 @_ZNK5http219Http2DecoderAdapter8HasErrorEv(%"class.http2::Http2DecoderAdapter"*) local_unnamed_addr #1

declare i32 @_ZNK5http219Http2DecoderAdapter5stateEv(%"class.http2::Http2DecoderAdapter"*) local_unnamed_addr #1

; Function Attrs: norecurse nounwind readonly ssp uwtable
define hidden i32 @_ZNK3net11AlpsDecoder20settings_frame_countEv(%"class.net::AlpsDecoder"* nocapture readonly) local_unnamed_addr #3 align 2 {
  %2 = getelementptr inbounds %"class.net::AlpsDecoder", %"class.net::AlpsDecoder"* %0, i64 0, i32 0, i32 3
  %3 = load i32, i32* %2, align 4
  ret i32 %3
}

; Function Attrs: nounwind ssp uwtable
define hidden void @_ZN3net11AlpsDecoder14SettingsParserC2Ev(%"class.net::AlpsDecoder::SettingsParser"*) unnamed_addr #0 align 2 {
  %2 = getelementptr inbounds %"class.net::AlpsDecoder::SettingsParser", %"class.net::AlpsDecoder::SettingsParser"* %0, i64 0, i32 0
  tail call void @_ZN4spdy15SpdyNoOpVisitorC2Ev(%"class.spdy::SpdyNoOpVisitor"* %2) #11
  %3 = bitcast %"class.net::AlpsDecoder::SettingsParser"* %0 to <2 x i32 (...)**>*
  store <2 x i32 (...)**> <i32 (...)** bitcast (i8** getelementptr inbounds ({ [34 x i8*], [6 x i8*], [7 x i8*] }, { [34 x i8*], [6 x i8*], [7 x i8*] }* @_ZTVN3net11AlpsDecoder14SettingsParserE, i64 0, inrange i32 0, i64 2) to i32 (...)**), i32 (...)** bitcast (i8** getelementptr inbounds ({ [34 x i8*], [6 x i8*], [7 x i8*] }, { [34 x i8*], [6 x i8*], [7 x i8*] }* @_ZTVN3net11AlpsDecoder14SettingsParserE, i64 0, inrange i32 1, i64 2) to i32 (...)**)>, <2 x i32 (...)**>* %3, align 8
  %4 = getelementptr inbounds %"class.net::AlpsDecoder::SettingsParser", %"class.net::AlpsDecoder::SettingsParser"* %0, i64 0, i32 0, i32 2, i32 0
  store i32 (...)** bitcast (i8** getelementptr inbounds ({ [34 x i8*], [6 x i8*], [7 x i8*] }, { [34 x i8*], [6 x i8*], [7 x i8*] }* @_ZTVN3net11AlpsDecoder14SettingsParserE, i64 0, inrange i32 2, i64 2) to i32 (...)**), i32 (...)*** %4, align 8
  %5 = getelementptr inbounds %"class.net::AlpsDecoder::SettingsParser", %"class.net::AlpsDecoder::SettingsParser"* %0, i64 0, i32 1
  store i8 0, i8* %5, align 8
  %6 = getelementptr inbounds %"class.net::AlpsDecoder::SettingsParser", %"class.net::AlpsDecoder::SettingsParser"* %0, i64 0, i32 2
  store i8 0, i8* %6, align 1
  %7 = getelementptr inbounds %"class.net::AlpsDecoder::SettingsParser", %"class.net::AlpsDecoder::SettingsParser"* %0, i64 0, i32 3
  store i32 0, i32* %7, align 4
  %8 = getelementptr inbounds %"class.net::AlpsDecoder::SettingsParser", %"class.net::AlpsDecoder::SettingsParser"* %0, i64 0, i32 4, i32 0, i32 1, i32 0, i32 0, i32 0
  %9 = getelementptr inbounds %"class.net::AlpsDecoder::SettingsParser", %"class.net::AlpsDecoder::SettingsParser"* %0, i64 0, i32 4, i32 0, i32 1, i32 0, i32 0
  %10 = getelementptr inbounds %"class.net::AlpsDecoder::SettingsParser", %"class.net::AlpsDecoder::SettingsParser"* %0, i64 0, i32 4, i32 0, i32 0
  %11 = bitcast %"class.std::__1::__tree_node_base"** %8 to i8*
  tail call void @llvm.memset.p0i8.i64(i8* align 8 %11, i8 0, i64 16, i1 false) #11
  store %"class.std::__1::__tree_end_node"* %9, %"class.std::__1::__tree_end_node"** %10, align 8
  ret void
}

declare void @_ZN4spdy15SpdyNoOpVisitorC2Ev(%"class.spdy::SpdyNoOpVisitor"*) unnamed_addr #1

; Function Attrs: nounwind ssp uwtable
define hidden void @_ZN3net11AlpsDecoder14SettingsParserD2Ev(%"class.net::AlpsDecoder::SettingsParser"*) unnamed_addr #0 align 2 {
  %2 = bitcast %"class.net::AlpsDecoder::SettingsParser"* %0 to <2 x i32 (...)**>*
  store <2 x i32 (...)**> <i32 (...)** bitcast (i8** getelementptr inbounds ({ [34 x i8*], [6 x i8*], [7 x i8*] }, { [34 x i8*], [6 x i8*], [7 x i8*] }* @_ZTVN3net11AlpsDecoder14SettingsParserE, i64 0, inrange i32 0, i64 2) to i32 (...)**), i32 (...)** bitcast (i8** getelementptr inbounds ({ [34 x i8*], [6 x i8*], [7 x i8*] }, { [34 x i8*], [6 x i8*], [7 x i8*] }* @_ZTVN3net11AlpsDecoder14SettingsParserE, i64 0, inrange i32 1, i64 2) to i32 (...)**)>, <2 x i32 (...)**>* %2, align 8
  %3 = getelementptr inbounds %"class.net::AlpsDecoder::SettingsParser", %"class.net::AlpsDecoder::SettingsParser"* %0, i64 0, i32 0, i32 2, i32 0
  store i32 (...)** bitcast (i8** getelementptr inbounds ({ [34 x i8*], [6 x i8*], [7 x i8*] }, { [34 x i8*], [6 x i8*], [7 x i8*] }* @_ZTVN3net11AlpsDecoder14SettingsParserE, i64 0, inrange i32 2, i64 2) to i32 (...)**), i32 (...)*** %3, align 8
  %4 = getelementptr inbounds %"class.net::AlpsDecoder::SettingsParser", %"class.net::AlpsDecoder::SettingsParser"* %0, i64 0, i32 4, i32 0
  %5 = getelementptr inbounds %"class.net::AlpsDecoder::SettingsParser", %"class.net::AlpsDecoder::SettingsParser"* %0, i64 0, i32 4, i32 0, i32 1, i32 0, i32 0
  %6 = bitcast %"class.std::__1::__tree_end_node"* %5 to %"class.std::__1::__tree_node"**
  %7 = load %"class.std::__1::__tree_node"*, %"class.std::__1::__tree_node"** %6, align 8
  tail call void @_ZNSt3__16__treeINS_12__value_typeItjEENS_19__map_value_compareItS2_NS_4lessItEELb1EEENS_9allocatorIS2_EEE7destroyEPNS_11__tree_nodeIS2_PvEE(%"class.std::__1::__tree"* %4, %"class.std::__1::__tree_node"* %7) #11
  %8 = getelementptr inbounds %"class.net::AlpsDecoder::SettingsParser", %"class.net::AlpsDecoder::SettingsParser"* %0, i64 0, i32 0
  tail call void @_ZN4spdy15SpdyNoOpVisitorD2Ev(%"class.spdy::SpdyNoOpVisitor"* %8) #11
  ret void
}

; Function Attrs: nounwind
declare void @_ZN4spdy15SpdyNoOpVisitorD2Ev(%"class.spdy::SpdyNoOpVisitor"*) unnamed_addr #2

; Function Attrs: nounwind ssp uwtable
define hidden void @_ZThn8_N3net11AlpsDecoder14SettingsParserD1Ev(%"class.net::AlpsDecoder::SettingsParser"*) unnamed_addr #0 align 2 {
  %2 = getelementptr inbounds %"class.net::AlpsDecoder::SettingsParser", %"class.net::AlpsDecoder::SettingsParser"* %0, i64 -1, i32 4, i32 0, i32 2
  %3 = bitcast %"class.std::__1::__compressed_pair.1"* %2 to <2 x i32 (...)**>*
  store <2 x i32 (...)**> <i32 (...)** bitcast (i8** getelementptr inbounds ({ [34 x i8*], [6 x i8*], [7 x i8*] }, { [34 x i8*], [6 x i8*], [7 x i8*] }* @_ZTVN3net11AlpsDecoder14SettingsParserE, i64 0, inrange i32 0, i64 2) to i32 (...)**), i32 (...)** bitcast (i8** getelementptr inbounds ({ [34 x i8*], [6 x i8*], [7 x i8*] }, { [34 x i8*], [6 x i8*], [7 x i8*] }* @_ZTVN3net11AlpsDecoder14SettingsParserE, i64 0, inrange i32 1, i64 2) to i32 (...)**)>, <2 x i32 (...)**>* %3, align 8
  %4 = getelementptr inbounds %"class.std::__1::__compressed_pair.1", %"class.std::__1::__compressed_pair.1"* %2, i64 2
  %5 = bitcast %"class.std::__1::__compressed_pair.1"* %4 to i32 (...)***
  store i32 (...)** bitcast (i8** getelementptr inbounds ({ [34 x i8*], [6 x i8*], [7 x i8*] }, { [34 x i8*], [6 x i8*], [7 x i8*] }* @_ZTVN3net11AlpsDecoder14SettingsParserE, i64 0, inrange i32 2, i64 2) to i32 (...)**), i32 (...)*** %5, align 8
  %6 = getelementptr inbounds %"class.std::__1::__compressed_pair.1", %"class.std::__1::__compressed_pair.1"* %2, i64 4
  %7 = bitcast %"class.std::__1::__compressed_pair.1"* %6 to %"class.std::__1::__tree"*
  %8 = getelementptr inbounds %"class.std::__1::__compressed_pair.1", %"class.std::__1::__compressed_pair.1"* %2, i64 5
  %9 = bitcast %"class.std::__1::__compressed_pair.1"* %8 to %"class.std::__1::__tree_node"**
  %10 = load %"class.std::__1::__tree_node"*, %"class.std::__1::__tree_node"** %9, align 8
  tail call void @_ZNSt3__16__treeINS_12__value_typeItjEENS_19__map_value_compareItS2_NS_4lessItEELb1EEENS_9allocatorIS2_EEE7destroyEPNS_11__tree_nodeIS2_PvEE(%"class.std::__1::__tree"* %7, %"class.std::__1::__tree_node"* %10) #11
  %11 = bitcast %"class.std::__1::__compressed_pair.1"* %2 to %"class.spdy::SpdyNoOpVisitor"*
  tail call void @_ZN4spdy15SpdyNoOpVisitorD2Ev(%"class.spdy::SpdyNoOpVisitor"* %11) #11
  ret void
}

; Function Attrs: nounwind ssp uwtable
define hidden void @_ZThn16_N3net11AlpsDecoder14SettingsParserD1Ev(%"class.net::AlpsDecoder::SettingsParser"*) unnamed_addr #0 align 2 {
  %2 = getelementptr inbounds %"class.net::AlpsDecoder::SettingsParser", %"class.net::AlpsDecoder::SettingsParser"* %0, i64 -1, i32 4, i32 0, i32 1
  %3 = bitcast %"class.std::__1::__compressed_pair"* %2 to <2 x i32 (...)**>*
  store <2 x i32 (...)**> <i32 (...)** bitcast (i8** getelementptr inbounds ({ [34 x i8*], [6 x i8*], [7 x i8*] }, { [34 x i8*], [6 x i8*], [7 x i8*] }* @_ZTVN3net11AlpsDecoder14SettingsParserE, i64 0, inrange i32 0, i64 2) to i32 (...)**), i32 (...)** bitcast (i8** getelementptr inbounds ({ [34 x i8*], [6 x i8*], [7 x i8*] }, { [34 x i8*], [6 x i8*], [7 x i8*] }* @_ZTVN3net11AlpsDecoder14SettingsParserE, i64 0, inrange i32 1, i64 2) to i32 (...)**)>, <2 x i32 (...)**>* %3, align 8
  %4 = getelementptr inbounds %"class.std::__1::__compressed_pair", %"class.std::__1::__compressed_pair"* %2, i64 2
  %5 = bitcast %"class.std::__1::__compressed_pair"* %4 to i32 (...)***
  store i32 (...)** bitcast (i8** getelementptr inbounds ({ [34 x i8*], [6 x i8*], [7 x i8*] }, { [34 x i8*], [6 x i8*], [7 x i8*] }* @_ZTVN3net11AlpsDecoder14SettingsParserE, i64 0, inrange i32 2, i64 2) to i32 (...)**), i32 (...)*** %5, align 8
  %6 = getelementptr inbounds %"class.std::__1::__compressed_pair", %"class.std::__1::__compressed_pair"* %2, i64 4
  %7 = bitcast %"class.std::__1::__compressed_pair"* %6 to %"class.std::__1::__tree"*
  %8 = getelementptr inbounds %"class.std::__1::__compressed_pair", %"class.std::__1::__compressed_pair"* %2, i64 5, i32 0, i32 0
  %9 = bitcast %"class.std::__1::__tree_end_node"* %8 to %"class.std::__1::__tree_node"**
  %10 = load %"class.std::__1::__tree_node"*, %"class.std::__1::__tree_node"** %9, align 8
  tail call void @_ZNSt3__16__treeINS_12__value_typeItjEENS_19__map_value_compareItS2_NS_4lessItEELb1EEENS_9allocatorIS2_EEE7destroyEPNS_11__tree_nodeIS2_PvEE(%"class.std::__1::__tree"* %7, %"class.std::__1::__tree_node"* %10) #11
  %11 = bitcast %"class.std::__1::__compressed_pair"* %2 to %"class.spdy::SpdyNoOpVisitor"*
  tail call void @_ZN4spdy15SpdyNoOpVisitorD2Ev(%"class.spdy::SpdyNoOpVisitor"* %11) #11
  ret void
}

; Function Attrs: nounwind ssp uwtable
define hidden void @_ZN3net11AlpsDecoder14SettingsParserD0Ev(%"class.net::AlpsDecoder::SettingsParser"*) unnamed_addr #0 align 2 {
  %2 = bitcast %"class.net::AlpsDecoder::SettingsParser"* %0 to <2 x i32 (...)**>*
  store <2 x i32 (...)**> <i32 (...)** bitcast (i8** getelementptr inbounds ({ [34 x i8*], [6 x i8*], [7 x i8*] }, { [34 x i8*], [6 x i8*], [7 x i8*] }* @_ZTVN3net11AlpsDecoder14SettingsParserE, i64 0, inrange i32 0, i64 2) to i32 (...)**), i32 (...)** bitcast (i8** getelementptr inbounds ({ [34 x i8*], [6 x i8*], [7 x i8*] }, { [34 x i8*], [6 x i8*], [7 x i8*] }* @_ZTVN3net11AlpsDecoder14SettingsParserE, i64 0, inrange i32 1, i64 2) to i32 (...)**)>, <2 x i32 (...)**>* %2, align 8
  %3 = getelementptr inbounds %"class.net::AlpsDecoder::SettingsParser", %"class.net::AlpsDecoder::SettingsParser"* %0, i64 0, i32 0, i32 2, i32 0
  store i32 (...)** bitcast (i8** getelementptr inbounds ({ [34 x i8*], [6 x i8*], [7 x i8*] }, { [34 x i8*], [6 x i8*], [7 x i8*] }* @_ZTVN3net11AlpsDecoder14SettingsParserE, i64 0, inrange i32 2, i64 2) to i32 (...)**), i32 (...)*** %3, align 8
  %4 = getelementptr inbounds %"class.net::AlpsDecoder::SettingsParser", %"class.net::AlpsDecoder::SettingsParser"* %0, i64 0, i32 4, i32 0
  %5 = getelementptr inbounds %"class.net::AlpsDecoder::SettingsParser", %"class.net::AlpsDecoder::SettingsParser"* %0, i64 0, i32 4, i32 0, i32 1, i32 0, i32 0
  %6 = bitcast %"class.std::__1::__tree_end_node"* %5 to %"class.std::__1::__tree_node"**
  %7 = load %"class.std::__1::__tree_node"*, %"class.std::__1::__tree_node"** %6, align 8
  tail call void @_ZNSt3__16__treeINS_12__value_typeItjEENS_19__map_value_compareItS2_NS_4lessItEELb1EEENS_9allocatorIS2_EEE7destroyEPNS_11__tree_nodeIS2_PvEE(%"class.std::__1::__tree"* %4, %"class.std::__1::__tree_node"* %7) #11
  %8 = getelementptr inbounds %"class.net::AlpsDecoder::SettingsParser", %"class.net::AlpsDecoder::SettingsParser"* %0, i64 0, i32 0
  tail call void @_ZN4spdy15SpdyNoOpVisitorD2Ev(%"class.spdy::SpdyNoOpVisitor"* %8) #11
  %9 = bitcast %"class.net::AlpsDecoder::SettingsParser"* %0 to i8*
  tail call void @_ZdlPv(i8* %9) #12
  ret void
}

; Function Attrs: nobuiltin nounwind
declare void @_ZdlPv(i8*) local_unnamed_addr #4

; Function Attrs: nounwind ssp uwtable
define hidden void @_ZThn8_N3net11AlpsDecoder14SettingsParserD0Ev(%"class.net::AlpsDecoder::SettingsParser"*) unnamed_addr #0 align 2 {
  %2 = getelementptr inbounds %"class.net::AlpsDecoder::SettingsParser", %"class.net::AlpsDecoder::SettingsParser"* %0, i64 -1, i32 4, i32 0, i32 2
  %3 = bitcast %"class.std::__1::__compressed_pair.1"* %2 to <2 x i32 (...)**>*
  store <2 x i32 (...)**> <i32 (...)** bitcast (i8** getelementptr inbounds ({ [34 x i8*], [6 x i8*], [7 x i8*] }, { [34 x i8*], [6 x i8*], [7 x i8*] }* @_ZTVN3net11AlpsDecoder14SettingsParserE, i64 0, inrange i32 0, i64 2) to i32 (...)**), i32 (...)** bitcast (i8** getelementptr inbounds ({ [34 x i8*], [6 x i8*], [7 x i8*] }, { [34 x i8*], [6 x i8*], [7 x i8*] }* @_ZTVN3net11AlpsDecoder14SettingsParserE, i64 0, inrange i32 1, i64 2) to i32 (...)**)>, <2 x i32 (...)**>* %3, align 8
  %4 = getelementptr inbounds %"class.std::__1::__compressed_pair.1", %"class.std::__1::__compressed_pair.1"* %2, i64 2
  %5 = bitcast %"class.std::__1::__compressed_pair.1"* %4 to i32 (...)***
  store i32 (...)** bitcast (i8** getelementptr inbounds ({ [34 x i8*], [6 x i8*], [7 x i8*] }, { [34 x i8*], [6 x i8*], [7 x i8*] }* @_ZTVN3net11AlpsDecoder14SettingsParserE, i64 0, inrange i32 2, i64 2) to i32 (...)**), i32 (...)*** %5, align 8
  %6 = getelementptr inbounds %"class.std::__1::__compressed_pair.1", %"class.std::__1::__compressed_pair.1"* %2, i64 4
  %7 = bitcast %"class.std::__1::__compressed_pair.1"* %6 to %"class.std::__1::__tree"*
  %8 = getelementptr inbounds %"class.std::__1::__compressed_pair.1", %"class.std::__1::__compressed_pair.1"* %2, i64 5
  %9 = bitcast %"class.std::__1::__compressed_pair.1"* %8 to %"class.std::__1::__tree_node"**
  %10 = load %"class.std::__1::__tree_node"*, %"class.std::__1::__tree_node"** %9, align 8
  tail call void @_ZNSt3__16__treeINS_12__value_typeItjEENS_19__map_value_compareItS2_NS_4lessItEELb1EEENS_9allocatorIS2_EEE7destroyEPNS_11__tree_nodeIS2_PvEE(%"class.std::__1::__tree"* %7, %"class.std::__1::__tree_node"* %10) #11
  %11 = bitcast %"class.std::__1::__compressed_pair.1"* %2 to %"class.spdy::SpdyNoOpVisitor"*
  tail call void @_ZN4spdy15SpdyNoOpVisitorD2Ev(%"class.spdy::SpdyNoOpVisitor"* %11) #11
  %12 = bitcast %"class.std::__1::__compressed_pair.1"* %2 to i8*
  tail call void @_ZdlPv(i8* %12) #12
  ret void
}

; Function Attrs: nounwind ssp uwtable
define hidden void @_ZThn16_N3net11AlpsDecoder14SettingsParserD0Ev(%"class.net::AlpsDecoder::SettingsParser"*) unnamed_addr #0 align 2 {
  %2 = getelementptr inbounds %"class.net::AlpsDecoder::SettingsParser", %"class.net::AlpsDecoder::SettingsParser"* %0, i64 -1, i32 4, i32 0, i32 1
  %3 = bitcast %"class.std::__1::__compressed_pair"* %2 to <2 x i32 (...)**>*
  store <2 x i32 (...)**> <i32 (...)** bitcast (i8** getelementptr inbounds ({ [34 x i8*], [6 x i8*], [7 x i8*] }, { [34 x i8*], [6 x i8*], [7 x i8*] }* @_ZTVN3net11AlpsDecoder14SettingsParserE, i64 0, inrange i32 0, i64 2) to i32 (...)**), i32 (...)** bitcast (i8** getelementptr inbounds ({ [34 x i8*], [6 x i8*], [7 x i8*] }, { [34 x i8*], [6 x i8*], [7 x i8*] }* @_ZTVN3net11AlpsDecoder14SettingsParserE, i64 0, inrange i32 1, i64 2) to i32 (...)**)>, <2 x i32 (...)**>* %3, align 8
  %4 = getelementptr inbounds %"class.std::__1::__compressed_pair", %"class.std::__1::__compressed_pair"* %2, i64 2
  %5 = bitcast %"class.std::__1::__compressed_pair"* %4 to i32 (...)***
  store i32 (...)** bitcast (i8** getelementptr inbounds ({ [34 x i8*], [6 x i8*], [7 x i8*] }, { [34 x i8*], [6 x i8*], [7 x i8*] }* @_ZTVN3net11AlpsDecoder14SettingsParserE, i64 0, inrange i32 2, i64 2) to i32 (...)**), i32 (...)*** %5, align 8
  %6 = getelementptr inbounds %"class.std::__1::__compressed_pair", %"class.std::__1::__compressed_pair"* %2, i64 4
  %7 = bitcast %"class.std::__1::__compressed_pair"* %6 to %"class.std::__1::__tree"*
  %8 = getelementptr inbounds %"class.std::__1::__compressed_pair", %"class.std::__1::__compressed_pair"* %2, i64 5, i32 0, i32 0
  %9 = bitcast %"class.std::__1::__tree_end_node"* %8 to %"class.std::__1::__tree_node"**
  %10 = load %"class.std::__1::__tree_node"*, %"class.std::__1::__tree_node"** %9, align 8
  tail call void @_ZNSt3__16__treeINS_12__value_typeItjEENS_19__map_value_compareItS2_NS_4lessItEELb1EEENS_9allocatorIS2_EEE7destroyEPNS_11__tree_nodeIS2_PvEE(%"class.std::__1::__tree"* %7, %"class.std::__1::__tree_node"* %10) #11
  %11 = bitcast %"class.std::__1::__compressed_pair"* %2 to %"class.spdy::SpdyNoOpVisitor"*
  tail call void @_ZN4spdy15SpdyNoOpVisitorD2Ev(%"class.spdy::SpdyNoOpVisitor"* %11) #11
  %12 = bitcast %"class.std::__1::__compressed_pair"* %2 to i8*
  tail call void @_ZdlPv(i8* %12) #12
  ret void
}

; Function Attrs: nofree norecurse nounwind ssp uwtable writeonly
define hidden void @_ZN3net11AlpsDecoder14SettingsParser14OnCommonHeaderEjmhh(%"class.net::AlpsDecoder::SettingsParser"* nocapture, i32, i64, i8 zeroext, i8 zeroext) unnamed_addr #5 align 2 {
  switch i8 %3, label %8 [
    i8 0, label %6
    i8 1, label %6
    i8 2, label %6
    i8 3, label %6
    i8 5, label %6
    i8 6, label %6
    i8 7, label %6
    i8 8, label %6
    i8 9, label %6
  ]

6:                                                ; preds = %5, %5, %5, %5, %5, %5, %5, %5, %5
  %7 = getelementptr inbounds %"class.net::AlpsDecoder::SettingsParser", %"class.net::AlpsDecoder::SettingsParser"* %0, i64 0, i32 1
  store i8 1, i8* %7, align 8
  br label %8

8:                                                ; preds = %5, %6
  ret void
}

; Function Attrs: nofree norecurse nounwind ssp uwtable
define hidden void @_ZN3net11AlpsDecoder14SettingsParser10OnSettingsEv(%"class.net::AlpsDecoder::SettingsParser"* nocapture) unnamed_addr #6 align 2 {
  %2 = getelementptr inbounds %"class.net::AlpsDecoder::SettingsParser", %"class.net::AlpsDecoder::SettingsParser"* %0, i64 0, i32 3
  %3 = load i32, i32* %2, align 4
  %4 = add nsw i32 %3, 1
  store i32 %4, i32* %2, align 4
  ret void
}

; Function Attrs: nounwind ssp uwtable
define hidden void @_ZN3net11AlpsDecoder14SettingsParser9OnSettingEtj(%"class.net::AlpsDecoder::SettingsParser"*, i16 zeroext, i32) unnamed_addr #0 align 2 {
  %4 = getelementptr inbounds %"class.net::AlpsDecoder::SettingsParser", %"class.net::AlpsDecoder::SettingsParser"* %0, i64 0, i32 4
  %5 = getelementptr inbounds %"class.net::AlpsDecoder::SettingsParser", %"class.net::AlpsDecoder::SettingsParser"* %0, i64 0, i32 4, i32 0, i32 1, i32 0, i32 0
  %6 = bitcast %"class.std::__1::__tree_end_node"* %5 to %"class.std::__1::__tree_node"**
  %7 = load %"class.std::__1::__tree_node"*, %"class.std::__1::__tree_node"** %6, align 8
  %8 = icmp eq %"class.std::__1::__tree_node"* %7, null
  br i1 %8, label %37, label %9

9:                                                ; preds = %3
  %10 = getelementptr inbounds %"class.net::AlpsDecoder::SettingsParser", %"class.net::AlpsDecoder::SettingsParser"* %0, i64 0, i32 4, i32 0, i32 1, i32 0, i32 0, i32 0
  br label %11

11:                                               ; preds = %33, %9
  %12 = phi %"class.std::__1::__tree_node"* [ %36, %33 ], [ %7, %9 ]
  %13 = phi %"class.std::__1::__tree_node_base"** [ %35, %33 ], [ %10, %9 ]
  %14 = getelementptr inbounds %"class.std::__1::__tree_node", %"class.std::__1::__tree_node"* %12, i64 0, i32 1, i32 0, i32 0
  %15 = load i16, i16* %14, align 2
  %16 = icmp ugt i16 %15, %1
  br i1 %16, label %17, label %23

17:                                               ; preds = %11
  %18 = getelementptr inbounds %"class.std::__1::__tree_node", %"class.std::__1::__tree_node"* %12, i64 0, i32 0, i32 0, i32 0
  %19 = load %"class.std::__1::__tree_node_base"*, %"class.std::__1::__tree_node_base"** %18, align 8
  %20 = icmp eq %"class.std::__1::__tree_node_base"* %19, null
  br i1 %20, label %21, label %33

21:                                               ; preds = %17
  %22 = getelementptr inbounds %"class.std::__1::__tree_node", %"class.std::__1::__tree_node"* %12, i64 0, i32 0, i32 0
  br label %39

23:                                               ; preds = %11
  %24 = icmp ult i16 %15, %1
  br i1 %24, label %25, label %31

25:                                               ; preds = %23
  %26 = getelementptr inbounds %"class.std::__1::__tree_node", %"class.std::__1::__tree_node"* %12, i64 0, i32 0, i32 1
  %27 = load %"class.std::__1::__tree_node_base"*, %"class.std::__1::__tree_node_base"** %26, align 8
  %28 = icmp eq %"class.std::__1::__tree_node_base"* %27, null
  br i1 %28, label %29, label %33

29:                                               ; preds = %25
  %30 = getelementptr inbounds %"class.std::__1::__tree_node", %"class.std::__1::__tree_node"* %12, i64 0, i32 0, i32 0
  br label %39

31:                                               ; preds = %23
  %32 = getelementptr inbounds %"class.std::__1::__tree_node", %"class.std::__1::__tree_node"* %12, i64 0, i32 0, i32 0
  br label %39

33:                                               ; preds = %25, %17
  %34 = phi %"class.std::__1::__tree_node_base"* [ %19, %17 ], [ %27, %25 ]
  %35 = phi %"class.std::__1::__tree_node_base"** [ %18, %17 ], [ %26, %25 ]
  %36 = bitcast %"class.std::__1::__tree_node_base"* %34 to %"class.std::__1::__tree_node"*
  br label %11

37:                                               ; preds = %3
  %38 = getelementptr inbounds %"class.std::__1::__tree_end_node", %"class.std::__1::__tree_end_node"* %5, i64 0, i32 0
  br label %39

39:                                               ; preds = %37, %31, %29, %21
  %40 = phi %"class.std::__1::__tree_end_node"* [ %5, %37 ], [ %22, %21 ], [ %30, %29 ], [ %32, %31 ]
  %41 = phi %"class.std::__1::__tree_node_base"** [ %38, %37 ], [ %18, %21 ], [ %26, %29 ], [ %13, %31 ]
  %42 = bitcast %"class.std::__1::__tree_node_base"** %41 to %"class.std::__1::__tree_node"**
  %43 = load %"class.std::__1::__tree_node"*, %"class.std::__1::__tree_node"** %42, align 8
  %44 = icmp eq %"class.std::__1::__tree_node"* %43, null
  br i1 %44, label %45, label %72

45:                                               ; preds = %39
  %46 = tail call i8* @_Znwm(i64 40) #12, !noalias !3
  %47 = getelementptr inbounds i8, i8* %46, i64 28
  %48 = bitcast i8* %47 to i16*
  store i16 %1, i16* %48, align 4, !noalias !3
  %49 = getelementptr inbounds i8, i8* %46, i64 32
  %50 = bitcast i8* %49 to i32*
  store i32 0, i32* %50, align 4, !noalias !3
  %51 = bitcast i8* %46 to %"class.std::__1::__tree_node"*
  %52 = bitcast i8* %46 to %"class.std::__1::__tree_node_base"*
  %53 = getelementptr inbounds i8, i8* %46, i64 16
  %54 = bitcast i8* %53 to %"class.std::__1::__tree_end_node"**
  tail call void @llvm.memset.p0i8.i64(i8* nonnull align 8 %46, i8 0, i64 16, i1 false) #11
  store %"class.std::__1::__tree_end_node"* %40, %"class.std::__1::__tree_end_node"** %54, align 8
  %55 = bitcast %"class.std::__1::__tree_node_base"** %41 to i8**
  store i8* %46, i8** %55, align 8
  %56 = getelementptr inbounds %"class.std::__1::map", %"class.std::__1::map"* %4, i64 0, i32 0, i32 0
  %57 = load %"class.std::__1::__tree_end_node"*, %"class.std::__1::__tree_end_node"** %56, align 8
  %58 = getelementptr inbounds %"class.std::__1::__tree_end_node", %"class.std::__1::__tree_end_node"* %57, i64 0, i32 0
  %59 = load %"class.std::__1::__tree_node_base"*, %"class.std::__1::__tree_node_base"** %58, align 8
  %60 = icmp eq %"class.std::__1::__tree_node_base"* %59, null
  br i1 %60, label %65, label %61

61:                                               ; preds = %45
  %62 = ptrtoint %"class.std::__1::__tree_node_base"* %59 to i64
  %63 = bitcast %"class.std::__1::map"* %4 to i64*
  store i64 %62, i64* %63, align 8
  %64 = load %"class.std::__1::__tree_node_base"*, %"class.std::__1::__tree_node_base"** %41, align 8
  br label %65

65:                                               ; preds = %61, %45
  %66 = phi %"class.std::__1::__tree_node_base"* [ %52, %45 ], [ %64, %61 ]
  %67 = getelementptr inbounds %"class.net::AlpsDecoder::SettingsParser", %"class.net::AlpsDecoder::SettingsParser"* %0, i64 0, i32 4, i32 0, i32 1, i32 0, i32 0, i32 0
  %68 = load %"class.std::__1::__tree_node_base"*, %"class.std::__1::__tree_node_base"** %67, align 8
  tail call void @_ZNSt3__127__tree_balance_after_insertIPNS_16__tree_node_baseIPvEEEEvT_S5_(%"class.std::__1::__tree_node_base"* %68, %"class.std::__1::__tree_node_base"* %66) #11
  %69 = getelementptr inbounds %"class.net::AlpsDecoder::SettingsParser", %"class.net::AlpsDecoder::SettingsParser"* %0, i64 0, i32 4, i32 0, i32 2, i32 0, i32 0
  %70 = load i64, i64* %69, align 8
  %71 = add i64 %70, 1
  store i64 %71, i64* %69, align 8
  br label %72

72:                                               ; preds = %39, %65
  %73 = phi %"class.std::__1::__tree_node"* [ %51, %65 ], [ %43, %39 ]
  %74 = getelementptr inbounds %"class.std::__1::__tree_node", %"class.std::__1::__tree_node"* %73, i64 0, i32 1, i32 0, i32 1
  store i32 %2, i32* %74, align 4
  ret void
}

; Function Attrs: nofree norecurse nounwind ssp uwtable writeonly
define hidden void @_ZN3net11AlpsDecoder14SettingsParser13OnSettingsAckEv(%"class.net::AlpsDecoder::SettingsParser"* nocapture) unnamed_addr #5 align 2 {
  %2 = getelementptr inbounds %"class.net::AlpsDecoder::SettingsParser", %"class.net::AlpsDecoder::SettingsParser"* %0, i64 0, i32 2
  store i8 1, i8* %2, align 1
  ret void
}

; Function Attrs: nounwind ssp uwtable
define hidden void @_ZN3net11AlpsDecoder14AcceptChParserC2Ev(%"class.net::AlpsDecoder::AcceptChParser"* nocapture) unnamed_addr #0 align 2 {
  %2 = getelementptr inbounds %"class.net::AlpsDecoder::AcceptChParser", %"class.net::AlpsDecoder::AcceptChParser"* %0, i64 0, i32 0, i32 0
  store i32 (...)** bitcast (i8** getelementptr inbounds ({ [7 x i8*] }, { [7 x i8*] }* @_ZTVN3net11AlpsDecoder14AcceptChParserE, i64 0, inrange i32 0, i64 2) to i32 (...)**), i32 (...)*** %2, align 8
  %3 = getelementptr inbounds %"class.net::AlpsDecoder::AcceptChParser", %"class.net::AlpsDecoder::AcceptChParser"* %0, i64 0, i32 1
  %4 = bitcast %"class.std::__1::vector"* %3 to i8*
  call void @llvm.memset.p0i8.i64(i8* align 8 %4, i8 0, i64 28, i1 false)
  ret void
}

; Function Attrs: nounwind ssp uwtable
define hidden void @_ZN3net11AlpsDecoder14AcceptChParserD2Ev(%"class.net::AlpsDecoder::AcceptChParser"* nocapture) unnamed_addr #0 align 2 {
  %2 = getelementptr inbounds %"class.net::AlpsDecoder::AcceptChParser", %"class.net::AlpsDecoder::AcceptChParser"* %0, i64 0, i32 0, i32 0
  store i32 (...)** bitcast (i8** getelementptr inbounds ({ [7 x i8*] }, { [7 x i8*] }* @_ZTVN3net11AlpsDecoder14AcceptChParserE, i64 0, inrange i32 0, i64 2) to i32 (...)**), i32 (...)*** %2, align 8
  %3 = getelementptr inbounds %"class.net::AlpsDecoder::AcceptChParser", %"class.net::AlpsDecoder::AcceptChParser"* %0, i64 0, i32 1
  %4 = getelementptr inbounds %"class.std::__1::vector", %"class.std::__1::vector"* %3, i64 0, i32 0, i32 0
  %5 = load %"struct.spdy::AcceptChOriginValuePair"*, %"struct.spdy::AcceptChOriginValuePair"** %4, align 8
  %6 = icmp eq %"struct.spdy::AcceptChOriginValuePair"* %5, null
  br i1 %6, label %38, label %7

7:                                                ; preds = %1
  %8 = bitcast %"struct.spdy::AcceptChOriginValuePair"* %5 to i8*
  %9 = getelementptr inbounds %"class.net::AlpsDecoder::AcceptChParser", %"class.net::AlpsDecoder::AcceptChParser"* %0, i64 0, i32 1, i32 0, i32 1
  %10 = load %"struct.spdy::AcceptChOriginValuePair"*, %"struct.spdy::AcceptChOriginValuePair"** %9, align 8
  %11 = icmp eq %"struct.spdy::AcceptChOriginValuePair"* %10, %5
  br i1 %11, label %36, label %12

12:                                               ; preds = %7, %31
  %13 = phi %"struct.spdy::AcceptChOriginValuePair"* [ %14, %31 ], [ %10, %7 ]
  %14 = getelementptr inbounds %"struct.spdy::AcceptChOriginValuePair", %"struct.spdy::AcceptChOriginValuePair"* %13, i64 -1
  %15 = getelementptr inbounds %"struct.spdy::AcceptChOriginValuePair", %"struct.spdy::AcceptChOriginValuePair"* %13, i64 -1, i32 1
  %16 = bitcast %"class.std::__1::basic_string"* %15 to %"struct.std::__1::basic_string<char, std::__1::char_traits<char>, std::__1::allocator<char> >::__short"*
  %17 = getelementptr inbounds %"struct.std::__1::basic_string<char, std::__1::char_traits<char>, std::__1::allocator<char> >::__short", %"struct.std::__1::basic_string<char, std::__1::char_traits<char>, std::__1::allocator<char> >::__short"* %16, i64 0, i32 1, i32 0
  %18 = load i8, i8* %17, align 1
  %19 = icmp slt i8 %18, 0
  br i1 %19, label %20, label %23

20:                                               ; preds = %12
  %21 = getelementptr inbounds %"class.std::__1::basic_string", %"class.std::__1::basic_string"* %15, i64 0, i32 0, i32 0, i32 0, i32 0, i32 0, i32 0
  %22 = load i8*, i8** %21, align 8
  tail call void @_ZdlPv(i8* %22) #12
  br label %23

23:                                               ; preds = %20, %12
  %24 = bitcast %"struct.spdy::AcceptChOriginValuePair"* %14 to %"struct.std::__1::basic_string<char, std::__1::char_traits<char>, std::__1::allocator<char> >::__short"*
  %25 = getelementptr inbounds %"struct.std::__1::basic_string<char, std::__1::char_traits<char>, std::__1::allocator<char> >::__short", %"struct.std::__1::basic_string<char, std::__1::char_traits<char>, std::__1::allocator<char> >::__short"* %24, i64 0, i32 1, i32 0
  %26 = load i8, i8* %25, align 1
  %27 = icmp slt i8 %26, 0
  br i1 %27, label %28, label %31

28:                                               ; preds = %23
  %29 = getelementptr inbounds %"struct.spdy::AcceptChOriginValuePair", %"struct.spdy::AcceptChOriginValuePair"* %14, i64 0, i32 0, i32 0, i32 0, i32 0, i32 0, i32 0, i32 0
  %30 = load i8*, i8** %29, align 8
  tail call void @_ZdlPv(i8* %30) #12
  br label %31

31:                                               ; preds = %28, %23
  %32 = icmp eq %"struct.spdy::AcceptChOriginValuePair"* %14, %5
  br i1 %32, label %33, label %12

33:                                               ; preds = %31
  %34 = bitcast %"class.std::__1::vector"* %3 to i8**
  %35 = load i8*, i8** %34, align 8
  br label %36

36:                                               ; preds = %33, %7
  %37 = phi i8* [ %35, %33 ], [ %8, %7 ]
  store %"struct.spdy::AcceptChOriginValuePair"* %5, %"struct.spdy::AcceptChOriginValuePair"** %9, align 8
  tail call void @_ZdlPv(i8* %37) #12
  br label %38

38:                                               ; preds = %1, %36
  ret void
}

; Function Attrs: nounwind ssp uwtable
define hidden void @_ZN3net11AlpsDecoder14AcceptChParserD0Ev(%"class.net::AlpsDecoder::AcceptChParser"*) unnamed_addr #0 align 2 {
  %2 = getelementptr inbounds %"class.net::AlpsDecoder::AcceptChParser", %"class.net::AlpsDecoder::AcceptChParser"* %0, i64 0, i32 0, i32 0
  store i32 (...)** bitcast (i8** getelementptr inbounds ({ [7 x i8*] }, { [7 x i8*] }* @_ZTVN3net11AlpsDecoder14AcceptChParserE, i64 0, inrange i32 0, i64 2) to i32 (...)**), i32 (...)*** %2, align 8
  %3 = getelementptr inbounds %"class.net::AlpsDecoder::AcceptChParser", %"class.net::AlpsDecoder::AcceptChParser"* %0, i64 0, i32 1
  %4 = getelementptr inbounds %"class.std::__1::vector", %"class.std::__1::vector"* %3, i64 0, i32 0, i32 0
  %5 = load %"struct.spdy::AcceptChOriginValuePair"*, %"struct.spdy::AcceptChOriginValuePair"** %4, align 8
  %6 = icmp eq %"struct.spdy::AcceptChOriginValuePair"* %5, null
  br i1 %6, label %38, label %7

7:                                                ; preds = %1
  %8 = bitcast %"struct.spdy::AcceptChOriginValuePair"* %5 to i8*
  %9 = getelementptr inbounds %"class.net::AlpsDecoder::AcceptChParser", %"class.net::AlpsDecoder::AcceptChParser"* %0, i64 0, i32 1, i32 0, i32 1
  %10 = load %"struct.spdy::AcceptChOriginValuePair"*, %"struct.spdy::AcceptChOriginValuePair"** %9, align 8
  %11 = icmp eq %"struct.spdy::AcceptChOriginValuePair"* %10, %5
  br i1 %11, label %36, label %12

12:                                               ; preds = %7, %31
  %13 = phi %"struct.spdy::AcceptChOriginValuePair"* [ %14, %31 ], [ %10, %7 ]
  %14 = getelementptr inbounds %"struct.spdy::AcceptChOriginValuePair", %"struct.spdy::AcceptChOriginValuePair"* %13, i64 -1
  %15 = getelementptr inbounds %"struct.spdy::AcceptChOriginValuePair", %"struct.spdy::AcceptChOriginValuePair"* %13, i64 -1, i32 1
  %16 = bitcast %"class.std::__1::basic_string"* %15 to %"struct.std::__1::basic_string<char, std::__1::char_traits<char>, std::__1::allocator<char> >::__short"*
  %17 = getelementptr inbounds %"struct.std::__1::basic_string<char, std::__1::char_traits<char>, std::__1::allocator<char> >::__short", %"struct.std::__1::basic_string<char, std::__1::char_traits<char>, std::__1::allocator<char> >::__short"* %16, i64 0, i32 1, i32 0
  %18 = load i8, i8* %17, align 1
  %19 = icmp slt i8 %18, 0
  br i1 %19, label %20, label %23

20:                                               ; preds = %12
  %21 = getelementptr inbounds %"class.std::__1::basic_string", %"class.std::__1::basic_string"* %15, i64 0, i32 0, i32 0, i32 0, i32 0, i32 0, i32 0
  %22 = load i8*, i8** %21, align 8
  tail call void @_ZdlPv(i8* %22) #12
  br label %23

23:                                               ; preds = %20, %12
  %24 = bitcast %"struct.spdy::AcceptChOriginValuePair"* %14 to %"struct.std::__1::basic_string<char, std::__1::char_traits<char>, std::__1::allocator<char> >::__short"*
  %25 = getelementptr inbounds %"struct.std::__1::basic_string<char, std::__1::char_traits<char>, std::__1::allocator<char> >::__short", %"struct.std::__1::basic_string<char, std::__1::char_traits<char>, std::__1::allocator<char> >::__short"* %24, i64 0, i32 1, i32 0
  %26 = load i8, i8* %25, align 1
  %27 = icmp slt i8 %26, 0
  br i1 %27, label %28, label %31

28:                                               ; preds = %23
  %29 = getelementptr inbounds %"struct.spdy::AcceptChOriginValuePair", %"struct.spdy::AcceptChOriginValuePair"* %14, i64 0, i32 0, i32 0, i32 0, i32 0, i32 0, i32 0, i32 0
  %30 = load i8*, i8** %29, align 8
  tail call void @_ZdlPv(i8* %30) #12
  br label %31

31:                                               ; preds = %28, %23
  %32 = icmp eq %"struct.spdy::AcceptChOriginValuePair"* %14, %5
  br i1 %32, label %33, label %12

33:                                               ; preds = %31
  %34 = bitcast %"class.std::__1::vector"* %3 to i8**
  %35 = load i8*, i8** %34, align 8
  br label %36

36:                                               ; preds = %33, %7
  %37 = phi i8* [ %35, %33 ], [ %8, %7 ]
  store %"struct.spdy::AcceptChOriginValuePair"* %5, %"struct.spdy::AcceptChOriginValuePair"** %9, align 8
  tail call void @_ZdlPv(i8* %37) #12
  br label %38

38:                                               ; preds = %1, %36
  %39 = bitcast %"class.net::AlpsDecoder::AcceptChParser"* %0 to i8*
  tail call void @_ZdlPv(i8* %39) #12
  ret void
}

; Function Attrs: nofree norecurse nounwind ssp uwtable
define hidden zeroext i1 @_ZN3net11AlpsDecoder14AcceptChParser13OnFrameHeaderEjmhh(%"class.net::AlpsDecoder::AcceptChParser"* nocapture, i32, i64, i8 zeroext, i8 zeroext) unnamed_addr #6 align 2 {
  %6 = icmp eq i8 %3, -119
  br i1 %6, label %7, label %17

7:                                                ; preds = %5
  %8 = getelementptr inbounds %"class.net::AlpsDecoder::AcceptChParser", %"class.net::AlpsDecoder::AcceptChParser"* %0, i64 0, i32 2
  %9 = load i32, i32* %8, align 8
  %10 = icmp eq i32 %9, 0
  br i1 %10, label %11, label %17

11:                                               ; preds = %7
  %12 = icmp eq i32 %1, 0
  br i1 %12, label %14, label %13

13:                                               ; preds = %11
  store i32 5, i32* %8, align 8
  br label %17

14:                                               ; preds = %11
  %15 = icmp eq i8 %4, 0
  br i1 %15, label %17, label %16

16:                                               ; preds = %14
  store i32 6, i32* %8, align 8
  br label %17

17:                                               ; preds = %14, %5, %7, %16, %13
  %18 = phi i1 [ false, %13 ], [ false, %16 ], [ false, %7 ], [ false, %5 ], [ true, %14 ]
  ret i1 %18
}

; Function Attrs: nounwind ssp uwtable
define hidden void @_ZN3net11AlpsDecoder14AcceptChParser14OnFramePayloadEPKcm(%"class.net::AlpsDecoder::AcceptChParser"*, i8*, i64) unnamed_addr #0 align 2 {
  %4 = alloca %"class.base::BasicStringPiece", align 8
  %5 = alloca %"class.base::BasicStringPiece", align 8
  %6 = alloca %"class.base::BasicStringPiece", align 8
  %7 = alloca %"struct.spdy::AcceptChOriginValuePair", align 8
  %8 = bitcast %"class.base::BasicStringPiece"* %4 to i8*
  call void @llvm.lifetime.start.p0i8(i64 16, i8* nonnull %8) #11
  %9 = getelementptr inbounds %"class.base::BasicStringPiece", %"class.base::BasicStringPiece"* %4, i64 0, i32 0
  %10 = getelementptr inbounds %"class.base::BasicStringPiece", %"class.base::BasicStringPiece"* %4, i64 0, i32 1
  store i8* %1, i8** %9, align 8
  store i64 %2, i64* %10, align 8
  %11 = icmp eq i64 %2, 0
  br i1 %11, label %105, label %12

12:                                               ; preds = %3
  %13 = bitcast %"class.base::BasicStringPiece"* %5 to i8*
  %14 = getelementptr inbounds %"class.base::BasicStringPiece", %"class.base::BasicStringPiece"* %5, i64 0, i32 0
  %15 = getelementptr inbounds %"class.base::BasicStringPiece", %"class.base::BasicStringPiece"* %5, i64 0, i32 1
  %16 = bitcast %"class.base::BasicStringPiece"* %6 to i8*
  %17 = getelementptr inbounds %"class.base::BasicStringPiece", %"class.base::BasicStringPiece"* %6, i64 0, i32 0
  %18 = getelementptr inbounds %"class.base::BasicStringPiece", %"class.base::BasicStringPiece"* %6, i64 0, i32 1
  %19 = getelementptr inbounds %"class.net::AlpsDecoder::AcceptChParser", %"class.net::AlpsDecoder::AcceptChParser"* %0, i64 0, i32 1
  %20 = bitcast %"struct.spdy::AcceptChOriginValuePair"* %7 to i8*
  %21 = getelementptr inbounds %"struct.spdy::AcceptChOriginValuePair", %"struct.spdy::AcceptChOriginValuePair"* %7, i64 0, i32 0, i32 0, i32 0, i32 0, i32 0, i32 0, i32 0
  %22 = getelementptr inbounds %"struct.spdy::AcceptChOriginValuePair", %"struct.spdy::AcceptChOriginValuePair"* %7, i64 0, i32 0, i32 0, i32 0, i32 0, i32 0, i32 0, i32 2
  %23 = getelementptr inbounds %"struct.spdy::AcceptChOriginValuePair", %"struct.spdy::AcceptChOriginValuePair"* %7, i64 0, i32 0, i32 0, i32 0, i32 0, i32 0, i32 0, i32 1
  %24 = bitcast %"struct.spdy::AcceptChOriginValuePair"* %7 to %"struct.std::__1::basic_string<char, std::__1::char_traits<char>, std::__1::allocator<char> >::__short"*
  %25 = getelementptr inbounds %"struct.std::__1::basic_string<char, std::__1::char_traits<char>, std::__1::allocator<char> >::__short", %"struct.std::__1::basic_string<char, std::__1::char_traits<char>, std::__1::allocator<char> >::__short"* %24, i64 0, i32 1, i32 0
  %26 = getelementptr inbounds %"struct.spdy::AcceptChOriginValuePair", %"struct.spdy::AcceptChOriginValuePair"* %7, i64 0, i32 1
  %27 = getelementptr inbounds %"class.std::__1::basic_string", %"class.std::__1::basic_string"* %26, i64 0, i32 0, i32 0, i32 0, i32 0, i32 0, i32 0
  %28 = getelementptr inbounds %"struct.spdy::AcceptChOriginValuePair", %"struct.spdy::AcceptChOriginValuePair"* %7, i64 0, i32 1, i32 0, i32 0, i32 0, i32 0, i32 0, i32 2
  %29 = getelementptr inbounds %"struct.spdy::AcceptChOriginValuePair", %"struct.spdy::AcceptChOriginValuePair"* %7, i64 0, i32 1, i32 0, i32 0, i32 0, i32 0, i32 0, i32 1
  %30 = bitcast %"class.std::__1::basic_string"* %26 to %"struct.std::__1::basic_string<char, std::__1::char_traits<char>, std::__1::allocator<char> >::__short"*
  %31 = getelementptr inbounds %"struct.std::__1::basic_string<char, std::__1::char_traits<char>, std::__1::allocator<char> >::__short", %"struct.std::__1::basic_string<char, std::__1::char_traits<char>, std::__1::allocator<char> >::__short"* %30, i64 0, i32 1, i32 0
  %32 = bitcast %"class.std::__1::basic_string"* %26 to i8*
  %33 = getelementptr inbounds %"class.net::AlpsDecoder::AcceptChParser", %"class.net::AlpsDecoder::AcceptChParser"* %0, i64 0, i32 1, i32 0, i32 1
  %34 = getelementptr inbounds %"class.net::AlpsDecoder::AcceptChParser", %"class.net::AlpsDecoder::AcceptChParser"* %0, i64 0, i32 1, i32 0, i32 2, i32 0, i32 0
  %35 = bitcast %"struct.spdy::AcceptChOriginValuePair"** %33 to i64*
  br label %36

36:                                               ; preds = %12, %102
  call void @llvm.lifetime.start.p0i8(i64 16, i8* nonnull %13) #11
  call void @llvm.memset.p0i8.i64(i8* nonnull align 8 %13, i8 0, i64 16, i1 false) #11
  call void @llvm.lifetime.start.p0i8(i64 16, i8* nonnull %16) #11
  call void @llvm.memset.p0i8.i64(i8* nonnull align 8 %16, i8 0, i64 16, i1 false) #11
  %37 = call fastcc zeroext i1 @_ZN3net12_GLOBAL__N_129ReadUint16PrefixedStringPieceEPN4base16BasicStringPieceIcNSt3__111char_traitsIcEEEES7_(%"class.base::BasicStringPiece"* nonnull %4, %"class.base::BasicStringPiece"* nonnull %5)
  br i1 %37, label %38, label %40

38:                                               ; preds = %36
  %39 = call fastcc zeroext i1 @_ZN3net12_GLOBAL__N_129ReadUint16PrefixedStringPieceEPN4base16BasicStringPieceIcNSt3__111char_traitsIcEEEES7_(%"class.base::BasicStringPiece"* nonnull %4, %"class.base::BasicStringPiece"* nonnull %6)
  br i1 %39, label %42, label %40

40:                                               ; preds = %38, %36
  %41 = getelementptr inbounds %"class.net::AlpsDecoder::AcceptChParser", %"class.net::AlpsDecoder::AcceptChParser"* %0, i64 0, i32 2
  store i32 7, i32* %41, align 8
  call void @llvm.lifetime.end.p0i8(i64 16, i8* nonnull %16) #11
  call void @llvm.lifetime.end.p0i8(i64 16, i8* nonnull %13) #11
  br label %105

42:                                               ; preds = %38
  call void @llvm.lifetime.start.p0i8(i64 48, i8* nonnull %20) #11
  %43 = load i8*, i8** %14, align 8, !noalias !6
  %44 = load i64, i64* %15, align 8, !noalias !6
  %45 = icmp ugt i64 %44, -17
  br i1 %45, label %46, label %48

46:                                               ; preds = %42
  %47 = bitcast %"struct.spdy::AcceptChOriginValuePair"* %7 to %"class.std::__1::__basic_string_common"*
  call void @_ZNKSt3__121__basic_string_commonILb1EE20__throw_length_errorEv(%"class.std::__1::__basic_string_common"* nonnull %47) #13
  unreachable

48:                                               ; preds = %42
  %49 = icmp ult i64 %44, 23
  br i1 %49, label %55, label %50

50:                                               ; preds = %48
  %51 = add nuw i64 %44, 16
  %52 = and i64 %51, -16
  %53 = call i8* @_Znwm(i64 %52) #12
  store i8* %53, i8** %21, align 8, !alias.scope !6
  %54 = or i64 %52, -9223372036854775808
  store i64 %54, i64* %22, align 8, !alias.scope !6
  store i64 %44, i64* %23, align 8, !alias.scope !6
  br label %58

55:                                               ; preds = %48
  %56 = trunc i64 %44 to i8
  store i8 %56, i8* %25, align 1, !alias.scope !6
  %57 = icmp eq i64 %44, 0
  br i1 %57, label %60, label %58

58:                                               ; preds = %55, %50
  %59 = phi i8* [ %53, %50 ], [ %20, %55 ]
  call void @llvm.memcpy.p0i8.p0i8.i64(i8* align 1 %59, i8* align 1 %43, i64 %44, i1 false) #11
  br label %60

60:                                               ; preds = %55, %58
  %61 = phi i8* [ %20, %55 ], [ %59, %58 ]
  %62 = getelementptr inbounds i8, i8* %61, i64 %44
  store i8 0, i8* %62, align 1
  %63 = load i8*, i8** %17, align 8, !noalias !9
  %64 = load i64, i64* %18, align 8, !noalias !9
  %65 = icmp ugt i64 %64, -17
  br i1 %65, label %66, label %68

66:                                               ; preds = %60
  %67 = bitcast %"class.std::__1::basic_string"* %26 to %"class.std::__1::__basic_string_common"*
  call void @_ZNKSt3__121__basic_string_commonILb1EE20__throw_length_errorEv(%"class.std::__1::__basic_string_common"* %67) #13
  unreachable

68:                                               ; preds = %60
  %69 = icmp ult i64 %64, 23
  br i1 %69, label %75, label %70

70:                                               ; preds = %68
  %71 = add nuw i64 %64, 16
  %72 = and i64 %71, -16
  %73 = call i8* @_Znwm(i64 %72) #12
  store i8* %73, i8** %27, align 8, !alias.scope !9
  %74 = or i64 %72, -9223372036854775808
  store i64 %74, i64* %28, align 8, !alias.scope !9
  store i64 %64, i64* %29, align 8, !alias.scope !9
  br label %78

75:                                               ; preds = %68
  %76 = trunc i64 %64 to i8
  store i8 %76, i8* %31, align 1, !alias.scope !9
  %77 = icmp eq i64 %64, 0
  br i1 %77, label %80, label %78

78:                                               ; preds = %75, %70
  %79 = phi i8* [ %73, %70 ], [ %32, %75 ]
  call void @llvm.memcpy.p0i8.p0i8.i64(i8* align 1 %79, i8* align 1 %63, i64 %64, i1 false) #11
  br label %80

80:                                               ; preds = %75, %78
  %81 = phi i8* [ %32, %75 ], [ %79, %78 ]
  %82 = getelementptr inbounds i8, i8* %81, i64 %64
  store i8 0, i8* %82, align 1
  %83 = load %"struct.spdy::AcceptChOriginValuePair"*, %"struct.spdy::AcceptChOriginValuePair"** %33, align 8
  %84 = load %"struct.spdy::AcceptChOriginValuePair"*, %"struct.spdy::AcceptChOriginValuePair"** %34, align 8
  %85 = icmp ult %"struct.spdy::AcceptChOriginValuePair"* %83, %84
  br i1 %85, label %86, label %92

86:                                               ; preds = %80
  %87 = bitcast %"struct.spdy::AcceptChOriginValuePair"* %83 to i8*
  call void @llvm.memcpy.p0i8.p0i8.i64(i8* align 8 %87, i8* nonnull align 8 %20, i64 24, i1 false) #11
  call void @llvm.memset.p0i8.i64(i8* nonnull align 8 %20, i8 0, i64 24, i1 false) #11
  %88 = getelementptr inbounds %"struct.spdy::AcceptChOriginValuePair", %"struct.spdy::AcceptChOriginValuePair"* %83, i64 0, i32 1
  %89 = bitcast %"class.std::__1::basic_string"* %88 to i8*
  call void @llvm.memcpy.p0i8.p0i8.i64(i8* align 8 %89, i8* align 8 %32, i64 24, i1 false) #11
  call void @llvm.memset.p0i8.i64(i8* align 8 %32, i8 0, i64 24, i1 false) #11
  %90 = getelementptr inbounds %"struct.spdy::AcceptChOriginValuePair", %"struct.spdy::AcceptChOriginValuePair"* %83, i64 1
  %91 = ptrtoint %"struct.spdy::AcceptChOriginValuePair"* %90 to i64
  store i64 %91, i64* %35, align 8
  br label %97

92:                                               ; preds = %80
  call void @_ZNSt3__16vectorIN4spdy23AcceptChOriginValuePairENS_9allocatorIS2_EEE21__push_back_slow_pathIS2_EEvOT_(%"class.std::__1::vector"* %19, %"struct.spdy::AcceptChOriginValuePair"* nonnull dereferenceable(48) %7) #11
  %93 = load i8, i8* %31, align 1
  %94 = icmp slt i8 %93, 0
  br i1 %94, label %95, label %97

95:                                               ; preds = %92
  %96 = load i8*, i8** %27, align 8
  call void @_ZdlPv(i8* %96) #12
  br label %97

97:                                               ; preds = %86, %95, %92
  %98 = load i8, i8* %25, align 1
  %99 = icmp slt i8 %98, 0
  br i1 %99, label %100, label %102

100:                                              ; preds = %97
  %101 = load i8*, i8** %21, align 8
  call void @_ZdlPv(i8* %101) #12
  br label %102

102:                                              ; preds = %97, %100
  call void @llvm.lifetime.end.p0i8(i64 48, i8* nonnull %20) #11
  call void @llvm.lifetime.end.p0i8(i64 16, i8* nonnull %16) #11
  call void @llvm.lifetime.end.p0i8(i64 16, i8* nonnull %13) #11
  %103 = load i64, i64* %10, align 8
  %104 = icmp eq i64 %103, 0
  br i1 %104, label %105, label %36

105:                                              ; preds = %102, %3, %40
  call void @llvm.lifetime.end.p0i8(i64 16, i8* nonnull %8) #11
  ret void
}

; Function Attrs: argmemonly nounwind
declare void @llvm.lifetime.start.p0i8(i64 immarg, i8* nocapture) #7

; Function Attrs: nounwind ssp uwtable
define internal fastcc zeroext i1 @_ZN3net12_GLOBAL__N_129ReadUint16PrefixedStringPieceEPN4base16BasicStringPieceIcNSt3__111char_traitsIcEEEES7_(%"class.base::BasicStringPiece"*, %"class.base::BasicStringPiece"* nocapture) unnamed_addr #0 {
  %3 = getelementptr inbounds %"class.base::BasicStringPiece", %"class.base::BasicStringPiece"* %0, i64 0, i32 1
  %4 = load i64, i64* %3, align 8
  %5 = icmp ult i64 %4, 2
  br i1 %5, label %24, label %6

6:                                                ; preds = %2
  %7 = tail call dereferenceable(1) i8* @_ZNK4base16BasicStringPieceIcNSt3__111char_traitsIcEEE2atEm(%"class.base::BasicStringPiece"* %0, i64 0) #11
  %8 = load i8, i8* %7, align 1
  %9 = zext i8 %8 to i64
  %10 = shl nuw nsw i64 %9, 8
  %11 = tail call dereferenceable(1) i8* @_ZNK4base16BasicStringPieceIcNSt3__111char_traitsIcEEE2atEm(%"class.base::BasicStringPiece"* %0, i64 1) #11
  %12 = load i8, i8* %11, align 1
  %13 = sext i8 %12 to i64
  %14 = add nsw i64 %10, %13
  tail call void @_ZN4base16BasicStringPieceIcNSt3__111char_traitsIcEEE13remove_prefixEm(%"class.base::BasicStringPiece"* %0, i64 2)
  %15 = load i64, i64* %3, align 8
  %16 = and i64 %14, 65535
  %17 = icmp ult i64 %15, %16
  br i1 %17, label %24, label %18

18:                                               ; preds = %6
  %19 = tail call { i8*, i64 } @_ZNK4base16BasicStringPieceIcNSt3__111char_traitsIcEEE6substrEmm(%"class.base::BasicStringPiece"* %0, i64 0, i64 %16)
  %20 = extractvalue { i8*, i64 } %19, 0
  %21 = extractvalue { i8*, i64 } %19, 1
  %22 = getelementptr inbounds %"class.base::BasicStringPiece", %"class.base::BasicStringPiece"* %1, i64 0, i32 0
  store i8* %20, i8** %22, align 8
  %23 = getelementptr inbounds %"class.base::BasicStringPiece", %"class.base::BasicStringPiece"* %1, i64 0, i32 1
  store i64 %21, i64* %23, align 8
  tail call void @_ZN4base16BasicStringPieceIcNSt3__111char_traitsIcEEE13remove_prefixEm(%"class.base::BasicStringPiece"* %0, i64 %16)
  br label %24

24:                                               ; preds = %18, %6, %2
  %25 = phi i1 [ false, %2 ], [ true, %18 ], [ false, %6 ]
  ret i1 %25
}

; Function Attrs: argmemonly nounwind
declare void @llvm.lifetime.end.p0i8(i64 immarg, i8* nocapture) #7

; Function Attrs: nounwind ssp uwtable
define linkonce_odr hidden void @_ZN4spdy15SpdyNoOpVisitor7OnErrorEN5http219Http2DecoderAdapter15SpdyFramerErrorENSt3__112basic_stringIcNS4_11char_traitsIcEENS4_9allocatorIcEEEE(%"class.spdy::SpdyNoOpVisitor"*, i32, %"class.std::__1::basic_string"*) unnamed_addr #0 comdat align 2 {
  ret void
}

; Function Attrs: nounwind ssp uwtable
define linkonce_odr hidden void @_ZN4spdy15SpdyNoOpVisitor17OnDataFrameHeaderEjmb(%"class.spdy::SpdyNoOpVisitor"*, i32, i64, i1 zeroext) unnamed_addr #0 comdat align 2 {
  ret void
}

; Function Attrs: nounwind ssp uwtable
define linkonce_odr hidden void @_ZN4spdy15SpdyNoOpVisitor17OnStreamFrameDataEjPKcm(%"class.spdy::SpdyNoOpVisitor"*, i32, i8*, i64) unnamed_addr #0 comdat align 2 {
  ret void
}

; Function Attrs: nounwind ssp uwtable
define linkonce_odr hidden void @_ZN4spdy15SpdyNoOpVisitor11OnStreamEndEj(%"class.spdy::SpdyNoOpVisitor"*, i32) unnamed_addr #0 comdat align 2 {
  ret void
}

; Function Attrs: nounwind ssp uwtable
define linkonce_odr hidden void @_ZN4spdy26SpdyFramerVisitorInterface17OnStreamPadLengthEjm(%"class.spdy::SpdyFramerVisitorInterface"*, i32, i64) unnamed_addr #0 comdat align 2 {
  ret void
}

; Function Attrs: nounwind ssp uwtable
define linkonce_odr hidden void @_ZN4spdy15SpdyNoOpVisitor15OnStreamPaddingEjm(%"class.spdy::SpdyNoOpVisitor"*, i32, i64) unnamed_addr #0 comdat align 2 {
  ret void
}

declare %"class.spdy::SpdyHeadersHandlerInterface"* @_ZN4spdy15SpdyNoOpVisitor18OnHeaderFrameStartEj(%"class.spdy::SpdyNoOpVisitor"*, i32) unnamed_addr #1

; Function Attrs: nounwind ssp uwtable
define linkonce_odr hidden void @_ZN4spdy15SpdyNoOpVisitor16OnHeaderFrameEndEj(%"class.spdy::SpdyNoOpVisitor"*, i32) unnamed_addr #0 comdat align 2 {
  ret void
}

; Function Attrs: nounwind ssp uwtable
define linkonce_odr hidden void @_ZN4spdy15SpdyNoOpVisitor11OnRstStreamEjNS_13SpdyErrorCodeE(%"class.spdy::SpdyNoOpVisitor"*, i32, i32) unnamed_addr #0 comdat align 2 {
  ret void
}

; Function Attrs: nounwind ssp uwtable
define linkonce_odr hidden void @_ZN4spdy15SpdyNoOpVisitor13OnSettingsEndEv(%"class.spdy::SpdyNoOpVisitor"*) unnamed_addr #0 comdat align 2 {
  ret void
}

; Function Attrs: nounwind ssp uwtable
define linkonce_odr hidden void @_ZN4spdy15SpdyNoOpVisitor6OnPingEmb(%"class.spdy::SpdyNoOpVisitor"*, i64, i1 zeroext) unnamed_addr #0 comdat align 2 {
  ret void
}

; Function Attrs: nounwind ssp uwtable
define linkonce_odr hidden void @_ZN4spdy15SpdyNoOpVisitor8OnGoAwayEjNS_13SpdyErrorCodeE(%"class.spdy::SpdyNoOpVisitor"*, i32, i32) unnamed_addr #0 comdat align 2 {
  ret void
}

; Function Attrs: nounwind ssp uwtable
define linkonce_odr hidden void @_ZN4spdy15SpdyNoOpVisitor9OnHeadersEjbijbbb(%"class.spdy::SpdyNoOpVisitor"*, i32, i1 zeroext, i32, i32, i1 zeroext, i1 zeroext, i1 zeroext) unnamed_addr #0 comdat align 2 {
  ret void
}

; Function Attrs: nounwind ssp uwtable
define linkonce_odr hidden void @_ZN4spdy15SpdyNoOpVisitor14OnWindowUpdateEji(%"class.spdy::SpdyNoOpVisitor"*, i32, i32) unnamed_addr #0 comdat align 2 {
  ret void
}

declare zeroext i1 @_ZN4spdy26SpdyFramerVisitorInterface17OnGoAwayFrameDataEPKcm(%"class.spdy::SpdyFramerVisitorInterface"*, i8*, i64) unnamed_addr #1

; Function Attrs: nounwind ssp uwtable
define linkonce_odr hidden void @_ZN4spdy15SpdyNoOpVisitor13OnPushPromiseEjjb(%"class.spdy::SpdyNoOpVisitor"*, i32, i32, i1 zeroext) unnamed_addr #0 comdat align 2 {
  ret void
}

; Function Attrs: nounwind ssp uwtable
define linkonce_odr hidden void @_ZN4spdy15SpdyNoOpVisitor14OnContinuationEjb(%"class.spdy::SpdyNoOpVisitor"*, i32, i1 zeroext) unnamed_addr #0 comdat align 2 {
  ret void
}

; Function Attrs: nounwind ssp uwtable
define linkonce_odr hidden void @_ZN4spdy15SpdyNoOpVisitor8OnAltSvcEjN4absl11string_viewERKNSt3__16vectorINS_20SpdyAltSvcWireFormat18AlternativeServiceENS3_9allocatorIS6_EEEE(%"class.spdy::SpdyNoOpVisitor"*, i32, i8*, i64, %"class.std::__1::vector.51"* dereferenceable(24)) unnamed_addr #0 comdat align 2 {
  ret void
}

; Function Attrs: nounwind ssp uwtable
define linkonce_odr hidden void @_ZN4spdy15SpdyNoOpVisitor10OnPriorityEjjib(%"class.spdy::SpdyNoOpVisitor"*, i32, i32, i32, i1 zeroext) unnamed_addr #0 comdat align 2 {
  ret void
}

; Function Attrs: nounwind ssp uwtable
define linkonce_odr hidden void @_ZN4spdy15SpdyNoOpVisitor16OnPriorityUpdateEjN4absl11string_viewE(%"class.spdy::SpdyNoOpVisitor"*, i32, i8*, i64) unnamed_addr #0 comdat align 2 {
  ret void
}

declare zeroext i1 @_ZN4spdy15SpdyNoOpVisitor14OnUnknownFrameEjh(%"class.spdy::SpdyNoOpVisitor"*, i32, i8 zeroext) unnamed_addr #1

; Function Attrs: nounwind ssp uwtable
define linkonce_odr hidden void @_ZN4spdy15SpdyNoOpVisitor21OnSendCompressedFrameEjNS_13SpdyFrameTypeEmm(%"class.spdy::SpdyNoOpVisitor"*, i32, i8 zeroext, i64, i64) unnamed_addr #0 comdat align 2 {
  ret void
}

; Function Attrs: nounwind ssp uwtable
define linkonce_odr hidden void @_ZN4spdy15SpdyNoOpVisitor24OnReceiveCompressedFrameEjNS_13SpdyFrameTypeEm(%"class.spdy::SpdyNoOpVisitor"*, i32, i8 zeroext, i64) unnamed_addr #0 comdat align 2 {
  ret void
}

; Function Attrs: nounwind ssp uwtable
define linkonce_odr hidden void @_ZN4spdy15SpdyNoOpVisitor18OnHeaderBlockStartEv(%"class.spdy::SpdyNoOpVisitor"*) unnamed_addr #0 comdat align 2 {
  ret void
}

; Function Attrs: nounwind ssp uwtable
define linkonce_odr hidden void @_ZN4spdy15SpdyNoOpVisitor8OnHeaderEN4absl11string_viewES2_(%"class.spdy::SpdyNoOpVisitor"*, i8*, i64, i8*, i64) unnamed_addr #0 comdat align 2 {
  ret void
}

; Function Attrs: nounwind ssp uwtable
define linkonce_odr hidden void @_ZN4spdy15SpdyNoOpVisitor16OnHeaderBlockEndEmm(%"class.spdy::SpdyNoOpVisitor"*, i64, i64) unnamed_addr #0 comdat align 2 {
  ret void
}

; Function Attrs: nounwind ssp uwtable
define linkonce_odr hidden void @_ZThn8_N4spdy15SpdyNoOpVisitor21OnSendCompressedFrameEjNS_13SpdyFrameTypeEmm(%"class.spdy::SpdyNoOpVisitor"*, i32, i8 zeroext, i64, i64) unnamed_addr #0 comdat align 2 {
  ret void
}

; Function Attrs: nounwind ssp uwtable
define linkonce_odr hidden void @_ZThn8_N4spdy15SpdyNoOpVisitor24OnReceiveCompressedFrameEjNS_13SpdyFrameTypeEm(%"class.spdy::SpdyNoOpVisitor"*, i32, i8 zeroext, i64) unnamed_addr #0 comdat align 2 {
  ret void
}

; Function Attrs: nounwind ssp uwtable
define linkonce_odr hidden void @_ZThn16_N4spdy15SpdyNoOpVisitor18OnHeaderBlockStartEv(%"class.spdy::SpdyNoOpVisitor"*) unnamed_addr #0 comdat align 2 {
  ret void
}

; Function Attrs: nounwind ssp uwtable
define linkonce_odr hidden void @_ZThn16_N4spdy15SpdyNoOpVisitor8OnHeaderEN4absl11string_viewES2_(%"class.spdy::SpdyNoOpVisitor"*, i8*, i64, i8*, i64) unnamed_addr #0 comdat align 2 {
  ret void
}

; Function Attrs: nounwind ssp uwtable
define linkonce_odr hidden void @_ZThn16_N4spdy15SpdyNoOpVisitor16OnHeaderBlockEndEmm(%"class.spdy::SpdyNoOpVisitor"*, i64, i64) unnamed_addr #0 comdat align 2 {
  ret void
}

; Function Attrs: nounwind ssp uwtable
define linkonce_odr hidden void @_ZN3net11AlpsDecoder14AcceptChParser9OnSettingEtj(%"class.net::AlpsDecoder::AcceptChParser"*, i16 zeroext, i32) unnamed_addr #0 comdat align 2 {
  ret void
}

; Function Attrs: nounwind ssp uwtable
declare void @_ZN4base16BasicStringPieceIcNSt3__111char_traitsIcEEE13remove_prefixEm(%"class.base::BasicStringPiece"*, i64) local_unnamed_addr #0 align 2

; Function Attrs: nounwind ssp uwtable
declare { i8*, i64 } @_ZNK4base16BasicStringPieceIcNSt3__111char_traitsIcEEE6substrEmm(%"class.base::BasicStringPiece"*, i64, i64) local_unnamed_addr #0 align 2

; Function Attrs: argmemonly nounwind
declare void @llvm.memcpy.p0i8.p0i8.i64(i8* nocapture writeonly, i8* nocapture readonly, i64, i1 immarg) #7

; Function Attrs: nounwind ssp uwtable
declare dereferenceable(1) i8* @_ZNK4base16BasicStringPieceIcNSt3__111char_traitsIcEEE2atEm(%"class.base::BasicStringPiece"*, i64) local_unnamed_addr #0 align 2

; Function Attrs: nobuiltin nofree
declare noalias nonnull i8* @_Znwm(i64) local_unnamed_addr #8

; Function Attrs: nounwind ssp uwtable
define linkonce_odr hidden void @_ZNSt3__127__tree_balance_after_insertIPNS_16__tree_node_baseIPvEEEEvT_S5_(%"class.std::__1::__tree_node_base"*, %"class.std::__1::__tree_node_base"*) local_unnamed_addr #0 comdat {
  %3 = icmp eq %"class.std::__1::__tree_node_base"* %1, %0
  %4 = getelementptr inbounds %"class.std::__1::__tree_node_base", %"class.std::__1::__tree_node_base"* %1, i64 0, i32 3
  %5 = zext i1 %3 to i8
  store i8 %5, i8* %4, align 8
  br i1 %3, label %156, label %6

6:                                                ; preds = %2, %149
  %7 = phi %"class.std::__1::__tree_node_base"* [ %20, %149 ], [ %1, %2 ]
  %8 = getelementptr inbounds %"class.std::__1::__tree_node_base", %"class.std::__1::__tree_node_base"* %7, i64 0, i32 2
  %9 = bitcast %"class.std::__1::__tree_end_node"** %8 to %"class.std::__1::__tree_node_base"**
  %10 = load %"class.std::__1::__tree_node_base"*, %"class.std::__1::__tree_node_base"** %9, align 8
  %11 = getelementptr inbounds %"class.std::__1::__tree_node_base", %"class.std::__1::__tree_node_base"* %10, i64 0, i32 3
  %12 = load i8, i8* %11, align 8, !range !2
  %13 = icmp eq i8 %12, 0
  br i1 %13, label %14, label %156

14:                                               ; preds = %6
  %15 = getelementptr inbounds %"class.std::__1::__tree_node_base", %"class.std::__1::__tree_node_base"* %10, i64 0, i32 2
  %16 = load %"class.std::__1::__tree_end_node"*, %"class.std::__1::__tree_end_node"** %15, align 8
  %17 = getelementptr inbounds %"class.std::__1::__tree_end_node", %"class.std::__1::__tree_end_node"* %16, i64 0, i32 0
  %18 = load %"class.std::__1::__tree_node_base"*, %"class.std::__1::__tree_node_base"** %17, align 8
  %19 = icmp eq %"class.std::__1::__tree_node_base"* %18, %10
  %20 = bitcast %"class.std::__1::__tree_end_node"* %16 to %"class.std::__1::__tree_node_base"*
  br i1 %19, label %21, label %87

21:                                               ; preds = %14
  %22 = getelementptr inbounds %"class.std::__1::__tree_end_node", %"class.std::__1::__tree_end_node"* %16, i64 1, i32 0
  %23 = load %"class.std::__1::__tree_node_base"*, %"class.std::__1::__tree_node_base"** %22, align 8
  %24 = icmp eq %"class.std::__1::__tree_node_base"* %23, null
  br i1 %24, label %29, label %25

25:                                               ; preds = %21
  %26 = getelementptr inbounds %"class.std::__1::__tree_node_base", %"class.std::__1::__tree_node_base"* %23, i64 0, i32 3
  %27 = load i8, i8* %26, align 8, !range !2
  %28 = icmp eq i8 %27, 0
  br i1 %28, label %149, label %29

29:                                               ; preds = %25, %21
  %30 = getelementptr inbounds %"class.std::__1::__tree_node_base", %"class.std::__1::__tree_node_base"* %10, i64 0, i32 2
  %31 = bitcast %"class.std::__1::__tree_end_node"* %16 to %"class.std::__1::__tree_node_base"*
  %32 = getelementptr inbounds %"class.std::__1::__tree_node_base", %"class.std::__1::__tree_node_base"* %10, i64 0, i32 0, i32 0
  %33 = load %"class.std::__1::__tree_node_base"*, %"class.std::__1::__tree_node_base"** %32, align 8
  %34 = icmp eq %"class.std::__1::__tree_node_base"* %33, %7
  br i1 %34, label %61, label %35

35:                                               ; preds = %29
  %36 = ptrtoint %"class.std::__1::__tree_end_node"* %16 to i64
  %37 = getelementptr inbounds %"class.std::__1::__tree_node_base", %"class.std::__1::__tree_node_base"* %10, i64 0, i32 1
  %38 = load %"class.std::__1::__tree_node_base"*, %"class.std::__1::__tree_node_base"** %37, align 8
  %39 = getelementptr inbounds %"class.std::__1::__tree_node_base", %"class.std::__1::__tree_node_base"* %38, i64 0, i32 0, i32 0
  %40 = load %"class.std::__1::__tree_node_base"*, %"class.std::__1::__tree_node_base"** %39, align 8
  store %"class.std::__1::__tree_node_base"* %40, %"class.std::__1::__tree_node_base"** %37, align 8
  %41 = icmp eq %"class.std::__1::__tree_node_base"* %40, null
  br i1 %41, label %47, label %42

42:                                               ; preds = %35
  %43 = getelementptr inbounds %"class.std::__1::__tree_node_base", %"class.std::__1::__tree_node_base"* %10, i64 0, i32 0
  %44 = getelementptr inbounds %"class.std::__1::__tree_node_base", %"class.std::__1::__tree_node_base"* %40, i64 0, i32 2
  store %"class.std::__1::__tree_end_node"* %43, %"class.std::__1::__tree_end_node"** %44, align 8
  %45 = bitcast %"class.std::__1::__tree_end_node"** %30 to i64*
  %46 = load i64, i64* %45, align 8
  br label %47

47:                                               ; preds = %35, %42
  %48 = phi i64 [ %46, %42 ], [ %36, %35 ]
  %49 = getelementptr inbounds %"class.std::__1::__tree_node_base", %"class.std::__1::__tree_node_base"* %38, i64 0, i32 2
  %50 = bitcast %"class.std::__1::__tree_end_node"** %49 to i64*
  store i64 %48, i64* %50, align 8
  %51 = load %"class.std::__1::__tree_end_node"*, %"class.std::__1::__tree_end_node"** %30, align 8
  %52 = getelementptr inbounds %"class.std::__1::__tree_end_node", %"class.std::__1::__tree_end_node"* %51, i64 0, i32 0
  %53 = load %"class.std::__1::__tree_node_base"*, %"class.std::__1::__tree_node_base"** %52, align 8
  %54 = icmp eq %"class.std::__1::__tree_node_base"* %53, %10
  %55 = getelementptr inbounds %"class.std::__1::__tree_end_node", %"class.std::__1::__tree_end_node"* %51, i64 1, i32 0
  %56 = select i1 %54, %"class.std::__1::__tree_node_base"** %52, %"class.std::__1::__tree_node_base"** %55
  store %"class.std::__1::__tree_node_base"* %38, %"class.std::__1::__tree_node_base"** %56, align 8
  store %"class.std::__1::__tree_node_base"* %10, %"class.std::__1::__tree_node_base"** %39, align 8
  %57 = getelementptr inbounds %"class.std::__1::__tree_node_base", %"class.std::__1::__tree_node_base"* %38, i64 0, i32 0
  store %"class.std::__1::__tree_end_node"* %57, %"class.std::__1::__tree_end_node"** %30, align 8
  %58 = getelementptr inbounds %"class.std::__1::__tree_node_base", %"class.std::__1::__tree_node_base"* %38, i64 0, i32 2
  %59 = bitcast %"class.std::__1::__tree_end_node"** %58 to %"class.std::__1::__tree_node_base"**
  %60 = load %"class.std::__1::__tree_node_base"*, %"class.std::__1::__tree_node_base"** %59, align 8
  br label %61

61:                                               ; preds = %47, %29
  %62 = phi %"class.std::__1::__tree_node_base"* [ %31, %29 ], [ %60, %47 ]
  %63 = phi %"class.std::__1::__tree_node_base"* [ %10, %29 ], [ %38, %47 ]
  %64 = getelementptr inbounds %"class.std::__1::__tree_node_base", %"class.std::__1::__tree_node_base"* %63, i64 0, i32 3
  store i8 1, i8* %64, align 8
  %65 = getelementptr inbounds %"class.std::__1::__tree_node_base", %"class.std::__1::__tree_node_base"* %62, i64 0, i32 3
  store i8 0, i8* %65, align 8
  %66 = getelementptr inbounds %"class.std::__1::__tree_node_base", %"class.std::__1::__tree_node_base"* %62, i64 0, i32 0, i32 0
  %67 = load %"class.std::__1::__tree_node_base"*, %"class.std::__1::__tree_node_base"** %66, align 8
  %68 = getelementptr inbounds %"class.std::__1::__tree_node_base", %"class.std::__1::__tree_node_base"* %67, i64 0, i32 1
  %69 = load %"class.std::__1::__tree_node_base"*, %"class.std::__1::__tree_node_base"** %68, align 8
  store %"class.std::__1::__tree_node_base"* %69, %"class.std::__1::__tree_node_base"** %66, align 8
  %70 = icmp eq %"class.std::__1::__tree_node_base"* %69, null
  br i1 %70, label %74, label %71

71:                                               ; preds = %61
  %72 = getelementptr inbounds %"class.std::__1::__tree_node_base", %"class.std::__1::__tree_node_base"* %62, i64 0, i32 0
  %73 = getelementptr inbounds %"class.std::__1::__tree_node_base", %"class.std::__1::__tree_node_base"* %69, i64 0, i32 2
  store %"class.std::__1::__tree_end_node"* %72, %"class.std::__1::__tree_end_node"** %73, align 8
  br label %74

74:                                               ; preds = %71, %61
  %75 = getelementptr inbounds %"class.std::__1::__tree_node_base", %"class.std::__1::__tree_node_base"* %62, i64 0, i32 2
  %76 = bitcast %"class.std::__1::__tree_end_node"** %75 to i64*
  %77 = load i64, i64* %76, align 8
  %78 = getelementptr inbounds %"class.std::__1::__tree_node_base", %"class.std::__1::__tree_node_base"* %67, i64 0, i32 2
  %79 = bitcast %"class.std::__1::__tree_end_node"** %78 to i64*
  store i64 %77, i64* %79, align 8
  %80 = load %"class.std::__1::__tree_end_node"*, %"class.std::__1::__tree_end_node"** %75, align 8
  %81 = getelementptr inbounds %"class.std::__1::__tree_end_node", %"class.std::__1::__tree_end_node"* %80, i64 0, i32 0
  %82 = load %"class.std::__1::__tree_node_base"*, %"class.std::__1::__tree_node_base"** %81, align 8
  %83 = icmp eq %"class.std::__1::__tree_node_base"* %82, %62
  %84 = getelementptr inbounds %"class.std::__1::__tree_end_node", %"class.std::__1::__tree_end_node"* %80, i64 1, i32 0
  %85 = select i1 %83, %"class.std::__1::__tree_node_base"** %81, %"class.std::__1::__tree_node_base"** %84
  store %"class.std::__1::__tree_node_base"* %67, %"class.std::__1::__tree_node_base"** %85, align 8
  store %"class.std::__1::__tree_node_base"* %62, %"class.std::__1::__tree_node_base"** %68, align 8
  %86 = getelementptr inbounds %"class.std::__1::__tree_node_base", %"class.std::__1::__tree_node_base"* %67, i64 0, i32 0
  store %"class.std::__1::__tree_end_node"* %86, %"class.std::__1::__tree_end_node"** %75, align 8
  br label %156

87:                                               ; preds = %14
  %88 = icmp eq %"class.std::__1::__tree_node_base"* %18, null
  br i1 %88, label %93, label %89

89:                                               ; preds = %87
  %90 = getelementptr inbounds %"class.std::__1::__tree_node_base", %"class.std::__1::__tree_node_base"* %18, i64 0, i32 3
  %91 = load i8, i8* %90, align 8, !range !2
  %92 = icmp eq i8 %91, 0
  br i1 %92, label %149, label %93

93:                                               ; preds = %89, %87
  %94 = getelementptr inbounds %"class.std::__1::__tree_node_base", %"class.std::__1::__tree_node_base"* %10, i64 0, i32 2
  %95 = bitcast %"class.std::__1::__tree_end_node"* %16 to %"class.std::__1::__tree_node_base"*
  %96 = getelementptr inbounds %"class.std::__1::__tree_node_base", %"class.std::__1::__tree_node_base"* %10, i64 0, i32 0, i32 0
  %97 = load %"class.std::__1::__tree_node_base"*, %"class.std::__1::__tree_node_base"** %96, align 8
  %98 = icmp eq %"class.std::__1::__tree_node_base"* %97, %7
  br i1 %98, label %99, label %123

99:                                               ; preds = %93
  %100 = ptrtoint %"class.std::__1::__tree_end_node"* %16 to i64
  %101 = getelementptr inbounds %"class.std::__1::__tree_node_base", %"class.std::__1::__tree_node_base"* %10, i64 0, i32 0, i32 0
  %102 = getelementptr inbounds %"class.std::__1::__tree_node_base", %"class.std::__1::__tree_node_base"* %7, i64 0, i32 1
  %103 = load %"class.std::__1::__tree_node_base"*, %"class.std::__1::__tree_node_base"** %102, align 8
  store %"class.std::__1::__tree_node_base"* %103, %"class.std::__1::__tree_node_base"** %101, align 8
  %104 = icmp eq %"class.std::__1::__tree_node_base"* %103, null
  br i1 %104, label %110, label %105

105:                                              ; preds = %99
  %106 = getelementptr inbounds %"class.std::__1::__tree_node_base", %"class.std::__1::__tree_node_base"* %10, i64 0, i32 0
  %107 = getelementptr inbounds %"class.std::__1::__tree_node_base", %"class.std::__1::__tree_node_base"* %103, i64 0, i32 2
  store %"class.std::__1::__tree_end_node"* %106, %"class.std::__1::__tree_end_node"** %107, align 8
  %108 = bitcast %"class.std::__1::__tree_end_node"** %94 to i64*
  %109 = load i64, i64* %108, align 8
  br label %110

110:                                              ; preds = %99, %105
  %111 = phi i64 [ %109, %105 ], [ %100, %99 ]
  %112 = bitcast %"class.std::__1::__tree_end_node"** %8 to i64*
  store i64 %111, i64* %112, align 8
  %113 = load %"class.std::__1::__tree_end_node"*, %"class.std::__1::__tree_end_node"** %94, align 8
  %114 = getelementptr inbounds %"class.std::__1::__tree_end_node", %"class.std::__1::__tree_end_node"* %113, i64 0, i32 0
  %115 = load %"class.std::__1::__tree_node_base"*, %"class.std::__1::__tree_node_base"** %114, align 8
  %116 = icmp eq %"class.std::__1::__tree_node_base"* %115, %10
  %117 = getelementptr inbounds %"class.std::__1::__tree_end_node", %"class.std::__1::__tree_end_node"* %113, i64 1, i32 0
  %118 = select i1 %116, %"class.std::__1::__tree_node_base"** %114, %"class.std::__1::__tree_node_base"** %117
  store %"class.std::__1::__tree_node_base"* %7, %"class.std::__1::__tree_node_base"** %118, align 8
  store %"class.std::__1::__tree_node_base"* %10, %"class.std::__1::__tree_node_base"** %102, align 8
  %119 = getelementptr inbounds %"class.std::__1::__tree_node_base", %"class.std::__1::__tree_node_base"* %7, i64 0, i32 0
  store %"class.std::__1::__tree_end_node"* %119, %"class.std::__1::__tree_end_node"** %94, align 8
  %120 = getelementptr inbounds %"class.std::__1::__tree_node_base", %"class.std::__1::__tree_node_base"* %7, i64 0, i32 2
  %121 = bitcast %"class.std::__1::__tree_end_node"** %120 to %"class.std::__1::__tree_node_base"**
  %122 = load %"class.std::__1::__tree_node_base"*, %"class.std::__1::__tree_node_base"** %121, align 8
  br label %123

123:                                              ; preds = %93, %110
  %124 = phi %"class.std::__1::__tree_node_base"* [ %122, %110 ], [ %95, %93 ]
  %125 = phi %"class.std::__1::__tree_node_base"* [ %7, %110 ], [ %10, %93 ]
  %126 = getelementptr inbounds %"class.std::__1::__tree_node_base", %"class.std::__1::__tree_node_base"* %125, i64 0, i32 3
  store i8 1, i8* %126, align 8
  %127 = getelementptr inbounds %"class.std::__1::__tree_node_base", %"class.std::__1::__tree_node_base"* %124, i64 0, i32 3
  store i8 0, i8* %127, align 8
  %128 = getelementptr inbounds %"class.std::__1::__tree_node_base", %"class.std::__1::__tree_node_base"* %124, i64 0, i32 1
  %129 = load %"class.std::__1::__tree_node_base"*, %"class.std::__1::__tree_node_base"** %128, align 8
  %130 = getelementptr inbounds %"class.std::__1::__tree_node_base", %"class.std::__1::__tree_node_base"* %129, i64 0, i32 0, i32 0
  %131 = load %"class.std::__1::__tree_node_base"*, %"class.std::__1::__tree_node_base"** %130, align 8
  store %"class.std::__1::__tree_node_base"* %131, %"class.std::__1::__tree_node_base"** %128, align 8
  %132 = icmp eq %"class.std::__1::__tree_node_base"* %131, null
  br i1 %132, label %136, label %133

133:                                              ; preds = %123
  %134 = getelementptr inbounds %"class.std::__1::__tree_node_base", %"class.std::__1::__tree_node_base"* %124, i64 0, i32 0
  %135 = getelementptr inbounds %"class.std::__1::__tree_node_base", %"class.std::__1::__tree_node_base"* %131, i64 0, i32 2
  store %"class.std::__1::__tree_end_node"* %134, %"class.std::__1::__tree_end_node"** %135, align 8
  br label %136

136:                                              ; preds = %133, %123
  %137 = getelementptr inbounds %"class.std::__1::__tree_node_base", %"class.std::__1::__tree_node_base"* %124, i64 0, i32 2
  %138 = bitcast %"class.std::__1::__tree_end_node"** %137 to i64*
  %139 = load i64, i64* %138, align 8
  %140 = getelementptr inbounds %"class.std::__1::__tree_node_base", %"class.std::__1::__tree_node_base"* %129, i64 0, i32 2
  %141 = bitcast %"class.std::__1::__tree_end_node"** %140 to i64*
  store i64 %139, i64* %141, align 8
  %142 = load %"class.std::__1::__tree_end_node"*, %"class.std::__1::__tree_end_node"** %137, align 8
  %143 = getelementptr inbounds %"class.std::__1::__tree_end_node", %"class.std::__1::__tree_end_node"* %142, i64 0, i32 0
  %144 = load %"class.std::__1::__tree_node_base"*, %"class.std::__1::__tree_node_base"** %143, align 8
  %145 = icmp eq %"class.std::__1::__tree_node_base"* %144, %124
  %146 = getelementptr inbounds %"class.std::__1::__tree_end_node", %"class.std::__1::__tree_end_node"* %142, i64 1, i32 0
  %147 = select i1 %145, %"class.std::__1::__tree_node_base"** %143, %"class.std::__1::__tree_node_base"** %146
  store %"class.std::__1::__tree_node_base"* %129, %"class.std::__1::__tree_node_base"** %147, align 8
  store %"class.std::__1::__tree_node_base"* %124, %"class.std::__1::__tree_node_base"** %130, align 8
  %148 = getelementptr inbounds %"class.std::__1::__tree_node_base", %"class.std::__1::__tree_node_base"* %129, i64 0, i32 0
  store %"class.std::__1::__tree_end_node"* %148, %"class.std::__1::__tree_end_node"** %137, align 8
  br label %156

149:                                              ; preds = %89, %25
  %150 = phi i8* [ %26, %25 ], [ %90, %89 ]
  store i8 1, i8* %11, align 8
  %151 = icmp eq %"class.std::__1::__tree_node_base"* %20, %0
  %152 = getelementptr inbounds %"class.std::__1::__tree_end_node", %"class.std::__1::__tree_end_node"* %16, i64 3
  %153 = bitcast %"class.std::__1::__tree_end_node"* %152 to i8*
  %154 = zext i1 %151 to i8
  store i8 %154, i8* %153, align 8
  store i8 1, i8* %150, align 8
  %155 = icmp eq %"class.std::__1::__tree_node_base"* %20, %0
  br i1 %155, label %156, label %6

156:                                              ; preds = %6, %149, %2, %136, %74
  ret void
}

; Function Attrs: nounwind ssp uwtable
define linkonce_odr hidden void @_ZNSt3__16__treeINS_12__value_typeItjEENS_19__map_value_compareItS2_NS_4lessItEELb1EEENS_9allocatorIS2_EEE7destroyEPNS_11__tree_nodeIS2_PvEE(%"class.std::__1::__tree"*, %"class.std::__1::__tree_node"*) local_unnamed_addr #0 comdat align 2 {
  %3 = icmp eq %"class.std::__1::__tree_node"* %1, null
  br i1 %3, label %11, label %4

4:                                                ; preds = %2
  %5 = bitcast %"class.std::__1::__tree_node"* %1 to %"class.std::__1::__tree_node"**
  %6 = load %"class.std::__1::__tree_node"*, %"class.std::__1::__tree_node"** %5, align 8
  tail call void @_ZNSt3__16__treeINS_12__value_typeItjEENS_19__map_value_compareItS2_NS_4lessItEELb1EEENS_9allocatorIS2_EEE7destroyEPNS_11__tree_nodeIS2_PvEE(%"class.std::__1::__tree"* %0, %"class.std::__1::__tree_node"* %6) #11
  %7 = getelementptr inbounds %"class.std::__1::__tree_node", %"class.std::__1::__tree_node"* %1, i64 0, i32 0, i32 1
  %8 = bitcast %"class.std::__1::__tree_node_base"** %7 to %"class.std::__1::__tree_node"**
  %9 = load %"class.std::__1::__tree_node"*, %"class.std::__1::__tree_node"** %8, align 8
  tail call void @_ZNSt3__16__treeINS_12__value_typeItjEENS_19__map_value_compareItS2_NS_4lessItEELb1EEENS_9allocatorIS2_EEE7destroyEPNS_11__tree_nodeIS2_PvEE(%"class.std::__1::__tree"* %0, %"class.std::__1::__tree_node"* %9) #11
  %10 = bitcast %"class.std::__1::__tree_node"* %1 to i8*
  tail call void @_ZdlPv(i8* %10) #12
  ret void

11:                                               ; preds = %2
  ret void
}

; Function Attrs: noreturn
declare void @_ZNKSt3__121__basic_string_commonILb1EE20__throw_length_errorEv(%"class.std::__1::__basic_string_common"*) local_unnamed_addr #9

; Function Attrs: inlinehint nounwind ssp uwtable
define linkonce_odr hidden void @_ZNSt3__16vectorIN4spdy23AcceptChOriginValuePairENS_9allocatorIS2_EEE21__push_back_slow_pathIS2_EEvOT_(%"class.std::__1::vector"*, %"struct.spdy::AcceptChOriginValuePair"* dereferenceable(48)) local_unnamed_addr #10 comdat align 2 {
  %3 = getelementptr inbounds %"class.std::__1::vector", %"class.std::__1::vector"* %0, i64 0, i32 0, i32 1
  %4 = bitcast %"struct.spdy::AcceptChOriginValuePair"** %3 to i64*
  %5 = load i64, i64* %4, align 8
  %6 = bitcast %"class.std::__1::vector"* %0 to i64*
  %7 = load i64, i64* %6, align 8
  %8 = sub i64 %5, %7
  %9 = sdiv exact i64 %8, 48
  %10 = add nsw i64 %9, 1
  %11 = icmp ugt i64 %10, 384307168202282325
  br i1 %11, label %12, label %14

12:                                               ; preds = %2
  %13 = bitcast %"class.std::__1::vector"* %0 to %"class.std::__1::__vector_base_common"*
  tail call void @_ZNKSt3__120__vector_base_commonILb1EE20__throw_length_errorEv(%"class.std::__1::__vector_base_common"* %13) #13
  unreachable

14:                                               ; preds = %2
  %15 = getelementptr inbounds %"class.std::__1::vector", %"class.std::__1::vector"* %0, i64 0, i32 0, i32 2, i32 0, i32 0
  %16 = bitcast %"struct.spdy::AcceptChOriginValuePair"** %15 to i64*
  %17 = load i64, i64* %16, align 8
  %18 = sub i64 %17, %7
  %19 = sdiv exact i64 %18, 48
  %20 = icmp ult i64 %19, 192153584101141162
  br i1 %20, label %21, label %26

21:                                               ; preds = %14
  %22 = shl nsw i64 %19, 1
  %23 = icmp ult i64 %22, %10
  %24 = select i1 %23, i64 %10, i64 %22
  %25 = icmp eq i64 %24, 0
  br i1 %25, label %31, label %26

26:                                               ; preds = %14, %21
  %27 = phi i64 [ %24, %21 ], [ 384307168202282325, %14 ]
  %28 = mul i64 %27, 48
  %29 = tail call i8* @_Znwm(i64 %28) #12
  %30 = bitcast i8* %29 to %"struct.spdy::AcceptChOriginValuePair"*
  br label %31

31:                                               ; preds = %21, %26
  %32 = phi i64 [ %27, %26 ], [ 0, %21 ]
  %33 = phi %"struct.spdy::AcceptChOriginValuePair"* [ %30, %26 ], [ null, %21 ]
  %34 = getelementptr inbounds %"struct.spdy::AcceptChOriginValuePair", %"struct.spdy::AcceptChOriginValuePair"* %33, i64 %9
  %35 = getelementptr inbounds %"struct.spdy::AcceptChOriginValuePair", %"struct.spdy::AcceptChOriginValuePair"* %33, i64 %32
  %36 = ptrtoint %"struct.spdy::AcceptChOriginValuePair"* %35 to i64
  %37 = bitcast %"struct.spdy::AcceptChOriginValuePair"* %34 to i8*
  %38 = bitcast %"struct.spdy::AcceptChOriginValuePair"* %1 to i8*
  tail call void @llvm.memcpy.p0i8.p0i8.i64(i8* align 8 %37, i8* align 8 %38, i64 24, i1 false) #11
  tail call void @llvm.memset.p0i8.i64(i8* align 8 %38, i8 0, i64 24, i1 false) #11
  %39 = getelementptr inbounds %"struct.spdy::AcceptChOriginValuePair", %"struct.spdy::AcceptChOriginValuePair"* %33, i64 %9, i32 1
  %40 = getelementptr inbounds %"struct.spdy::AcceptChOriginValuePair", %"struct.spdy::AcceptChOriginValuePair"* %1, i64 0, i32 1
  %41 = bitcast %"class.std::__1::basic_string"* %39 to i8*
  %42 = bitcast %"class.std::__1::basic_string"* %40 to i8*
  tail call void @llvm.memcpy.p0i8.p0i8.i64(i8* align 8 %41, i8* align 8 %42, i64 24, i1 false) #11
  tail call void @llvm.memset.p0i8.i64(i8* align 8 %42, i8 0, i64 24, i1 false) #11
  %43 = getelementptr inbounds %"struct.spdy::AcceptChOriginValuePair", %"struct.spdy::AcceptChOriginValuePair"* %34, i64 1
  %44 = ptrtoint %"struct.spdy::AcceptChOriginValuePair"* %43 to i64
  %45 = getelementptr inbounds %"class.std::__1::vector", %"class.std::__1::vector"* %0, i64 0, i32 0, i32 0
  %46 = load %"struct.spdy::AcceptChOriginValuePair"*, %"struct.spdy::AcceptChOriginValuePair"** %45, align 8
  %47 = load %"struct.spdy::AcceptChOriginValuePair"*, %"struct.spdy::AcceptChOriginValuePair"** %3, align 8
  %48 = icmp eq %"struct.spdy::AcceptChOriginValuePair"* %47, %46
  br i1 %48, label %49, label %51

49:                                               ; preds = %31
  %50 = ptrtoint %"struct.spdy::AcceptChOriginValuePair"* %46 to i64
  br label %66

51:                                               ; preds = %31, %51
  %52 = phi %"struct.spdy::AcceptChOriginValuePair"* [ %54, %51 ], [ %34, %31 ]
  %53 = phi %"struct.spdy::AcceptChOriginValuePair"* [ %55, %51 ], [ %47, %31 ]
  %54 = getelementptr inbounds %"struct.spdy::AcceptChOriginValuePair", %"struct.spdy::AcceptChOriginValuePair"* %52, i64 -1
  %55 = getelementptr inbounds %"struct.spdy::AcceptChOriginValuePair", %"struct.spdy::AcceptChOriginValuePair"* %53, i64 -1
  %56 = bitcast %"struct.spdy::AcceptChOriginValuePair"* %54 to i8*
  %57 = bitcast %"struct.spdy::AcceptChOriginValuePair"* %55 to i8*
  tail call void @llvm.memcpy.p0i8.p0i8.i64(i8* align 8 %56, i8* align 8 %57, i64 24, i1 false) #11
  tail call void @llvm.memset.p0i8.i64(i8* align 8 %57, i8 0, i64 24, i1 false) #11
  %58 = getelementptr inbounds %"struct.spdy::AcceptChOriginValuePair", %"struct.spdy::AcceptChOriginValuePair"* %52, i64 -1, i32 1
  %59 = getelementptr inbounds %"struct.spdy::AcceptChOriginValuePair", %"struct.spdy::AcceptChOriginValuePair"* %53, i64 -1, i32 1
  %60 = bitcast %"class.std::__1::basic_string"* %58 to i8*
  %61 = bitcast %"class.std::__1::basic_string"* %59 to i8*
  tail call void @llvm.memcpy.p0i8.p0i8.i64(i8* align 8 %60, i8* align 8 %61, i64 24, i1 false) #11
  tail call void @llvm.memset.p0i8.i64(i8* align 8 %61, i8 0, i64 24, i1 false) #11
  %62 = icmp eq %"struct.spdy::AcceptChOriginValuePair"* %55, %46
  br i1 %62, label %63, label %51

63:                                               ; preds = %51
  %64 = load i64, i64* %6, align 8
  %65 = load %"struct.spdy::AcceptChOriginValuePair"*, %"struct.spdy::AcceptChOriginValuePair"** %3, align 8
  br label %66

66:                                               ; preds = %49, %63
  %67 = phi %"struct.spdy::AcceptChOriginValuePair"* [ %46, %49 ], [ %65, %63 ]
  %68 = phi %"struct.spdy::AcceptChOriginValuePair"* [ %34, %49 ], [ %54, %63 ]
  %69 = phi i64 [ %50, %49 ], [ %64, %63 ]
  %70 = ptrtoint %"struct.spdy::AcceptChOriginValuePair"* %68 to i64
  store i64 %70, i64* %6, align 8
  store i64 %44, i64* %4, align 8
  store i64 %36, i64* %16, align 8
  %71 = inttoptr i64 %69 to %"struct.spdy::AcceptChOriginValuePair"*
  %72 = icmp eq %"struct.spdy::AcceptChOriginValuePair"* %67, %71
  br i1 %72, label %94, label %73

73:                                               ; preds = %66, %92
  %74 = phi %"struct.spdy::AcceptChOriginValuePair"* [ %75, %92 ], [ %67, %66 ]
  %75 = getelementptr inbounds %"struct.spdy::AcceptChOriginValuePair", %"struct.spdy::AcceptChOriginValuePair"* %74, i64 -1
  %76 = getelementptr inbounds %"struct.spdy::AcceptChOriginValuePair", %"struct.spdy::AcceptChOriginValuePair"* %74, i64 -1, i32 1
  %77 = bitcast %"class.std::__1::basic_string"* %76 to %"struct.std::__1::basic_string<char, std::__1::char_traits<char>, std::__1::allocator<char> >::__short"*
  %78 = getelementptr inbounds %"struct.std::__1::basic_string<char, std::__1::char_traits<char>, std::__1::allocator<char> >::__short", %"struct.std::__1::basic_string<char, std::__1::char_traits<char>, std::__1::allocator<char> >::__short"* %77, i64 0, i32 1, i32 0
  %79 = load i8, i8* %78, align 1
  %80 = icmp slt i8 %79, 0
  br i1 %80, label %81, label %84

81:                                               ; preds = %73
  %82 = getelementptr inbounds %"class.std::__1::basic_string", %"class.std::__1::basic_string"* %76, i64 0, i32 0, i32 0, i32 0, i32 0, i32 0, i32 0
  %83 = load i8*, i8** %82, align 8
  tail call void @_ZdlPv(i8* %83) #12
  br label %84

84:                                               ; preds = %81, %73
  %85 = bitcast %"struct.spdy::AcceptChOriginValuePair"* %75 to %"struct.std::__1::basic_string<char, std::__1::char_traits<char>, std::__1::allocator<char> >::__short"*
  %86 = getelementptr inbounds %"struct.std::__1::basic_string<char, std::__1::char_traits<char>, std::__1::allocator<char> >::__short", %"struct.std::__1::basic_string<char, std::__1::char_traits<char>, std::__1::allocator<char> >::__short"* %85, i64 0, i32 1, i32 0
  %87 = load i8, i8* %86, align 1
  %88 = icmp slt i8 %87, 0
  br i1 %88, label %89, label %92

89:                                               ; preds = %84
  %90 = getelementptr inbounds %"struct.spdy::AcceptChOriginValuePair", %"struct.spdy::AcceptChOriginValuePair"* %75, i64 0, i32 0, i32 0, i32 0, i32 0, i32 0, i32 0, i32 0
  %91 = load i8*, i8** %90, align 8
  tail call void @_ZdlPv(i8* %91) #12
  br label %92

92:                                               ; preds = %89, %84
  %93 = icmp eq %"struct.spdy::AcceptChOriginValuePair"* %75, %71
  br i1 %93, label %94, label %73

94:                                               ; preds = %92, %66
  %95 = icmp eq i64 %69, 0
  br i1 %95, label %98, label %96

96:                                               ; preds = %94
  %97 = inttoptr i64 %69 to i8*
  tail call void @_ZdlPv(i8* %97) #12
  br label %98

98:                                               ; preds = %94, %96
  ret void
}

; Function Attrs: argmemonly nounwind
declare void @llvm.memset.p0i8.i64(i8* nocapture writeonly, i8, i64, i1 immarg) #7

; Function Attrs: noreturn
declare void @_ZNKSt3__120__vector_base_commonILb1EE20__throw_length_errorEv(%"class.std::__1::__vector_base_common"*) local_unnamed_addr #9

attributes #0 = { nounwind ssp uwtable "correctly-rounded-divide-sqrt-fp-math"="false" "disable-tail-calls"="false" "less-precise-fpmad"="false" "min-legal-vector-width"="0" "no-frame-pointer-elim"="false" "no-frame-pointer-elim-non-leaf" "no-infs-fp-math"="false" "no-jump-tables"="false" "no-nans-fp-math"="false" "no-signed-zeros-fp-math"="false" "no-trapping-math"="false" "null-pointer-is-valid"="true" "stack-protector-buffer-size"="4" "target-cpu"="x86-64" "target-features"="+cx8,+fxsr,+mmx,+sse,+sse2,+sse3,+x87" "unsafe-fp-math"="false" "use-soft-float"="false" }
attributes #1 = { "correctly-rounded-divide-sqrt-fp-math"="false" "disable-tail-calls"="false" "less-precise-fpmad"="false" "no-frame-pointer-elim"="false" "no-frame-pointer-elim-non-leaf" "no-infs-fp-math"="false" "no-nans-fp-math"="false" "no-signed-zeros-fp-math"="false" "no-trapping-math"="false" "null-pointer-is-valid"="true" "stack-protector-buffer-size"="4" "target-cpu"="x86-64" "target-features"="+cx8,+fxsr,+mmx,+sse,+sse2,+sse3,+x87" "unsafe-fp-math"="false" "use-soft-float"="false" }
attributes #2 = { nounwind "correctly-rounded-divide-sqrt-fp-math"="false" "disable-tail-calls"="false" "less-precise-fpmad"="false" "no-frame-pointer-elim"="false" "no-frame-pointer-elim-non-leaf" "no-infs-fp-math"="false" "no-nans-fp-math"="false" "no-signed-zeros-fp-math"="false" "no-trapping-math"="false" "null-pointer-is-valid"="true" "stack-protector-buffer-size"="4" "target-cpu"="x86-64" "target-features"="+cx8,+fxsr,+mmx,+sse,+sse2,+sse3,+x87" "unsafe-fp-math"="false" "use-soft-float"="false" }
attributes #3 = { norecurse nounwind readonly ssp uwtable "correctly-rounded-divide-sqrt-fp-math"="false" "disable-tail-calls"="false" "less-precise-fpmad"="false" "min-legal-vector-width"="0" "no-frame-pointer-elim"="false" "no-frame-pointer-elim-non-leaf" "no-infs-fp-math"="false" "no-jump-tables"="false" "no-nans-fp-math"="false" "no-signed-zeros-fp-math"="false" "no-trapping-math"="false" "null-pointer-is-valid"="true" "stack-protector-buffer-size"="4" "target-cpu"="x86-64" "target-features"="+cx8,+fxsr,+mmx,+sse,+sse2,+sse3,+x87" "unsafe-fp-math"="false" "use-soft-float"="false" }
attributes #4 = { nobuiltin nounwind "correctly-rounded-divide-sqrt-fp-math"="false" "disable-tail-calls"="false" "less-precise-fpmad"="false" "no-frame-pointer-elim"="false" "no-frame-pointer-elim-non-leaf" "no-infs-fp-math"="false" "no-nans-fp-math"="false" "no-signed-zeros-fp-math"="false" "no-trapping-math"="false" "null-pointer-is-valid"="true" "stack-protector-buffer-size"="4" "target-cpu"="x86-64" "target-features"="+cx8,+fxsr,+mmx,+sse,+sse2,+sse3,+x87" "unsafe-fp-math"="false" "use-soft-float"="false" }
attributes #5 = { nofree norecurse nounwind ssp uwtable writeonly "correctly-rounded-divide-sqrt-fp-math"="false" "disable-tail-calls"="false" "less-precise-fpmad"="false" "min-legal-vector-width"="0" "no-frame-pointer-elim"="false" "no-frame-pointer-elim-non-leaf" "no-infs-fp-math"="false" "no-jump-tables"="false" "no-nans-fp-math"="false" "no-signed-zeros-fp-math"="false" "no-trapping-math"="false" "null-pointer-is-valid"="true" "stack-protector-buffer-size"="4" "target-cpu"="x86-64" "target-features"="+cx8,+fxsr,+mmx,+sse,+sse2,+sse3,+x87" "unsafe-fp-math"="false" "use-soft-float"="false" }
attributes #6 = { nofree norecurse nounwind ssp uwtable "correctly-rounded-divide-sqrt-fp-math"="false" "disable-tail-calls"="false" "less-precise-fpmad"="false" "min-legal-vector-width"="0" "no-frame-pointer-elim"="false" "no-frame-pointer-elim-non-leaf" "no-infs-fp-math"="false" "no-jump-tables"="false" "no-nans-fp-math"="false" "no-signed-zeros-fp-math"="false" "no-trapping-math"="false" "null-pointer-is-valid"="true" "stack-protector-buffer-size"="4" "target-cpu"="x86-64" "target-features"="+cx8,+fxsr,+mmx,+sse,+sse2,+sse3,+x87" "unsafe-fp-math"="false" "use-soft-float"="false" }
attributes #7 = { argmemonly nounwind }
attributes #8 = { nobuiltin nofree "correctly-rounded-divide-sqrt-fp-math"="false" "disable-tail-calls"="false" "less-precise-fpmad"="false" "no-frame-pointer-elim"="false" "no-frame-pointer-elim-non-leaf" "no-infs-fp-math"="false" "no-nans-fp-math"="false" "no-signed-zeros-fp-math"="false" "no-trapping-math"="false" "null-pointer-is-valid"="true" "stack-protector-buffer-size"="4" "target-cpu"="x86-64" "target-features"="+cx8,+fxsr,+mmx,+sse,+sse2,+sse3,+x87" "unsafe-fp-math"="false" "use-soft-float"="false" }
attributes #9 = { noreturn "correctly-rounded-divide-sqrt-fp-math"="false" "disable-tail-calls"="false" "less-precise-fpmad"="false" "no-frame-pointer-elim"="false" "no-frame-pointer-elim-non-leaf" "no-infs-fp-math"="false" "no-nans-fp-math"="false" "no-signed-zeros-fp-math"="false" "no-trapping-math"="false" "null-pointer-is-valid"="true" "stack-protector-buffer-size"="4" "target-cpu"="x86-64" "target-features"="+cx8,+fxsr,+mmx,+sse,+sse2,+sse3,+x87" "unsafe-fp-math"="false" "use-soft-float"="false" }
attributes #10 = { inlinehint nounwind ssp uwtable "correctly-rounded-divide-sqrt-fp-math"="false" "disable-tail-calls"="false" "less-precise-fpmad"="false" "min-legal-vector-width"="0" "no-frame-pointer-elim"="false" "no-frame-pointer-elim-non-leaf" "no-infs-fp-math"="false" "no-jump-tables"="false" "no-nans-fp-math"="false" "no-signed-zeros-fp-math"="false" "no-trapping-math"="false" "null-pointer-is-valid"="true" "stack-protector-buffer-size"="4" "target-cpu"="x86-64" "target-features"="+cx8,+fxsr,+mmx,+sse,+sse2,+sse3,+x87" "unsafe-fp-math"="false" "use-soft-float"="false" }
attributes #11 = { nounwind }
attributes #12 = { builtin nounwind }
attributes #13 = { noreturn nounwind }

!llvm.module.flags = !{!0, !1}

!0 = !{i32 1, !"wchar_size", i32 4}
!1 = !{i32 7, !"PIC Level", i32 2}
!2 = !{i8 0, i8 2}
!3 = !{!4}
!4 = distinct !{!4, !5, !"_ZNSt3__16__treeINS_12__value_typeItjEENS_19__map_value_compareItS2_NS_4lessItEELb1EEENS_9allocatorIS2_EEE16__construct_nodeIJRKNS_21piecewise_construct_tENS_5tupleIJRKtEEENSE_IJEEEEEENS_10unique_ptrINS_11__tree_nodeIS2_PvEENS_22__tree_node_destructorINS7_ISM_EEEEEEDpOT_: argument 0"}
!5 = distinct !{!5, !"_ZNSt3__16__treeINS_12__value_typeItjEENS_19__map_value_compareItS2_NS_4lessItEELb1EEENS_9allocatorIS2_EEE16__construct_nodeIJRKNS_21piecewise_construct_tENS_5tupleIJRKtEEENSE_IJEEEEEENS_10unique_ptrINS_11__tree_nodeIS2_PvEENS_22__tree_node_destructorINS7_ISM_EEEEEEDpOT_"}
!6 = !{!7}
!7 = distinct !{!7, !8, !"_ZNK4base16BasicStringPieceIcNSt3__111char_traitsIcEEEcvNS1_12basic_stringIcS3_NS1_9allocatorIcEEEEEv: argument 0"}
!8 = distinct !{!8, !"_ZNK4base16BasicStringPieceIcNSt3__111char_traitsIcEEEcvNS1_12basic_stringIcS3_NS1_9allocatorIcEEEEEv"}
!9 = !{!10}
!10 = distinct !{!10, !11, !"_ZNK4base16BasicStringPieceIcNSt3__111char_traitsIcEEEcvNS1_12basic_stringIcS3_NS1_9allocatorIcEEEEEv: argument 0"}
!11 = distinct !{!11, !"_ZNK4base16BasicStringPieceIcNSt3__111char_traitsIcEEEcvNS1_12basic_stringIcS3_NS1_9allocatorIcEEEEEv"}
