; ModuleID = 'gen/components/services/app_service/public/mojom/app_service.mojom.cc'
source_filename = "gen/components/services/app_service/public/mojom/app_service.mojom.cc"
target datalayout = "e-m:e-i64:64-f80:128-n8:16:32:64-S128"
target triple = "x86_64-unknown-linux-gnu"

module asm ".symver exp, exp@GLIBC_2.2.5"
module asm ".symver exp2, exp2@GLIBC_2.2.5"
module asm ".symver exp2f, exp2f@GLIBC_2.2.5"
module asm ".symver expf, expf@GLIBC_2.2.5"
module asm ".symver lgamma, lgamma@GLIBC_2.2.5"
module asm ".symver lgammaf, lgammaf@GLIBC_2.2.5"
module asm ".symver lgammal, lgammal@GLIBC_2.2.5"
module asm ".symver log, log@GLIBC_2.2.5"
module asm ".symver log2, log2@GLIBC_2.2.5"
module asm ".symver log2f, log2f@GLIBC_2.2.5"
module asm ".symver logf, logf@GLIBC_2.2.5"
module asm ".symver pow, pow@GLIBC_2.2.5"
module asm ".symver powf, powf@GLIBC_2.2.5"

%"struct.std::__1::pair.238" = type { i32, %"struct.mojo::internal::GenericValidationInfo" }
%"struct.mojo::internal::GenericValidationInfo" = type { i1 (i8*, %"class.mojo::internal::ValidationContext"*)*, i1 (i8*, %"class.mojo::internal::ValidationContext"*)* }
%"class.mojo::internal::ValidationContext" = type <{ %"class.mojo::Message"*, i8*, i32, [4 x i8], i64, i64, i32, i32, i32, i32, i32, [4 x i8] }>
%"class.mojo::Message" = type { %"class.mojo::ScopedHandleBase", %"class.mojo::internal::Buffer", %"class.std::__1::vector", %"class.std::__1::vector.7", %"class.mojo::ConnectionGroup::Ref"*, i8, i8, i8* }
%"class.mojo::ScopedHandleBase" = type { %"class.mojo::MessageHandle" }
%"class.mojo::MessageHandle" = type { i64 }
%"class.mojo::internal::Buffer" = type { %"class.mojo::MessageHandle", i64, i8*, i64, i64 }
%"class.std::__1::vector" = type { %"class.std::__1::__vector_base" }
%"class.std::__1::__vector_base" = type { %"class.mojo::ScopedHandleBase.1"*, %"class.mojo::ScopedHandleBase.1"*, %"class.std::__1::__compressed_pair.2" }
%"class.mojo::ScopedHandleBase.1" = type { %"class.mojo::Handle" }
%"class.mojo::Handle" = type { i32 }
%"class.std::__1::__compressed_pair.2" = type { %"struct.std::__1::__compressed_pair_elem.3" }
%"struct.std::__1::__compressed_pair_elem.3" = type { %"class.mojo::ScopedHandleBase.1"* }
%"class.std::__1::vector.7" = type { %"class.std::__1::__vector_base.8" }
%"class.std::__1::__vector_base.8" = type { %"class.mojo::ScopedInterfaceEndpointHandle"*, %"class.mojo::ScopedInterfaceEndpointHandle"*, %"class.std::__1::__compressed_pair.9" }
%"class.mojo::ScopedInterfaceEndpointHandle" = type { %class.scoped_refptr }
%class.scoped_refptr = type { %"class.mojo::ScopedInterfaceEndpointHandle::State"* }
%"class.mojo::ScopedInterfaceEndpointHandle::State" = type opaque
%"class.std::__1::__compressed_pair.9" = type { %"struct.std::__1::__compressed_pair_elem.10" }
%"struct.std::__1::__compressed_pair_elem.10" = type { %"class.mojo::ScopedInterfaceEndpointHandle"* }
%"class.mojo::ConnectionGroup::Ref" = type { i32, %class.scoped_refptr.14 }
%class.scoped_refptr.14 = type { %"class.mojo::ConnectionGroup"* }
%"class.mojo::ConnectionGroup" = type <{ i32 (...)**, %"class.base::RefCountedThreadSafe", [4 x i8], %"class.base::RepeatingCallback", %class.scoped_refptr.18, %"class.mojo::ConnectionGroup::Ref", %"struct.std::__1::atomic.20", [4 x i8] }>
%"class.base::RefCountedThreadSafe" = type { %"class.base::subtle::RefCountedThreadSafeBase" }
%"class.base::subtle::RefCountedThreadSafeBase" = type { %"class.base::AtomicRefCount" }
%"class.base::AtomicRefCount" = type { %"struct.std::__1::atomic" }
%"struct.std::__1::atomic" = type { %"struct.std::__1::__atomic_base" }
%"struct.std::__1::__atomic_base" = type { %"struct.std::__1::__atomic_base.15" }
%"struct.std::__1::__atomic_base.15" = type { %"struct.std::__1::__cxx_atomic_impl" }
%"struct.std::__1::__cxx_atomic_impl" = type { %"struct.std::__1::__cxx_atomic_base_impl" }
%"struct.std::__1::__cxx_atomic_base_impl" = type { i32 }
%"class.base::RepeatingCallback" = type { %"class.base::internal::CallbackBaseCopyable" }
%"class.base::internal::CallbackBaseCopyable" = type { %"class.base::internal::CallbackBase" }
%"class.base::internal::CallbackBase" = type { %class.scoped_refptr.16 }
%class.scoped_refptr.16 = type { %"class.base::internal::BindStateBase"* }
%"class.base::internal::BindStateBase" = type { %"class.base::RefCountedThreadSafe.17", void ()*, void (%"class.base::internal::BindStateBase"*)*, i1 (%"class.base::internal::BindStateBase"*, i32)* }
%"class.base::RefCountedThreadSafe.17" = type { %"class.base::subtle::RefCountedThreadSafeBase" }
%class.scoped_refptr.18 = type { %"class.base::SequencedTaskRunner"* }
%"class.base::SequencedTaskRunner" = type { %"class.base::TaskRunner.base", [4 x i8] }
%"class.base::TaskRunner.base" = type <{ i32 (...)**, %"class.base::RefCountedThreadSafe.19" }>
%"class.base::RefCountedThreadSafe.19" = type { %"class.base::subtle::RefCountedThreadSafeBase" }
%"struct.std::__1::atomic.20" = type { %"struct.std::__1::__atomic_base.21" }
%"struct.std::__1::__atomic_base.21" = type { %"struct.std::__1::__atomic_base.22" }
%"struct.std::__1::__atomic_base.22" = type { %"struct.std::__1::__cxx_atomic_impl.23" }
%"struct.std::__1::__cxx_atomic_impl.23" = type { %"struct.std::__1::__cxx_atomic_base_impl.24" }
%"struct.std::__1::__cxx_atomic_base_impl.24" = type { i32 }
%"class.apps::mojom::ConnectOptions" = type { i8 }
%"class.apps::mojom::AppServiceProxy" = type { %"class.apps::mojom::AppService", %"class.mojo::MessageReceiverWithResponder"* }
%"class.apps::mojom::AppService" = type { i32 (...)** }
%"class.mojo::MessageReceiverWithResponder" = type { %"class.mojo::MessageReceiver" }
%"class.mojo::MessageReceiver" = type { i32 (...)** }
%"class.apps::mojom::PublisherProxy" = type { %"class.apps::mojom::Publisher", %"class.mojo::MessageReceiverWithResponder"* }
%"class.apps::mojom::Publisher" = type { i32 (...)** }
%"class.apps::mojom::SubscriberProxy" = type { %"class.apps::mojom::Subscriber", %"class.mojo::MessageReceiverWithResponder"* }
%"class.apps::mojom::Subscriber" = type { i32 (...)** }
%"class.perfetto::TracedValue" = type <{ %"class.perfetto::protos::pbzero::DebugAnnotation"*, %"class.perfetto::internal::CheckedScope", [7 x i8] }>
%"class.perfetto::protos::pbzero::DebugAnnotation" = type { %"class.protozero::Message.base", [7 x i8] }
%"class.protozero::Message.base" = type <{ %"class.protozero::ScatteredStreamWriter"*, %"class.protozero::MessageArena"*, %"class.protozero::Message"*, i8*, i32, i32, i8 }>
%"class.protozero::ScatteredStreamWriter" = type { %"class.protozero::ScatteredStreamWriter::Delegate"*, %"struct.protozero::ContiguousMemoryRange", i8*, i64 }
%"class.protozero::ScatteredStreamWriter::Delegate" = type { i32 (...)** }
%"struct.protozero::ContiguousMemoryRange" = type { i8*, i8* }
%"class.protozero::MessageArena" = type { %"class.std::__1::list" }
%"class.std::__1::list" = type { %"class.std::__1::__list_imp" }
%"class.std::__1::__list_imp" = type { %"struct.std::__1::__list_node_base", %"class.std::__1::__compressed_pair" }
%"struct.std::__1::__list_node_base" = type { %"struct.std::__1::__list_node_base"*, %"struct.std::__1::__list_node_base"* }
%"class.std::__1::__compressed_pair" = type { %"struct.std::__1::__compressed_pair_elem" }
%"struct.std::__1::__compressed_pair_elem" = type { i64 }
%"class.protozero::Message" = type <{ %"class.protozero::ScatteredStreamWriter"*, %"class.protozero::MessageArena"*, %"class.protozero::Message"*, i8*, i32, i32, i8, [7 x i8] }>
%"class.perfetto::internal::CheckedScope" = type { i8 }
%"class.perfetto::TracedDictionary" = type <{ %"class.protozero::Message"*, i32, %"class.perfetto::internal::CheckedScope", [3 x i8] }>
%"class.mojo::PendingRemote" = type { %"struct.mojo::internal::PendingRemoteState" }
%"struct.mojo::internal::PendingRemoteState" = type { %"class.mojo::ScopedHandleBase.25", i32 }
%"class.mojo::ScopedHandleBase.25" = type { %"class.mojo::MessagePipeHandle" }
%"class.mojo::MessagePipeHandle" = type { %"class.mojo::Handle" }
%"class.apps::mojom::internal::AppService_RegisterPublisher_Params_Data" = type { %"struct.mojo::internal::StructHeader", %"struct.mojo::internal::Interface_Data", i32, [4 x i8] }
%"struct.mojo::internal::StructHeader" = type { i32, i32 }
%"struct.mojo::internal::Interface_Data" = type { %"struct.mojo::internal::Handle_Data", i32 }
%"struct.mojo::internal::Handle_Data" = type { i32 }
%"class.mojo::PendingRemote.26" = type { %"struct.mojo::internal::PendingRemoteState" }
%"class.mojo::InlinedStructPtr" = type { %"class.apps::mojom::ConnectOptions", i32 }
%"class.apps::mojom::internal::AppService_RegisterSubscriber_Params_Data" = type { %"struct.mojo::internal::StructHeader", %"struct.mojo::internal::Interface_Data", %"struct.mojo::internal::Pointer" }
%"struct.mojo::internal::Pointer" = type { i64 }
%"class.apps::mojom::internal::ConnectOptions_Data" = type { %"struct.mojo::internal::StructHeader" }
%"class.std::__1::basic_string" = type { %"class.std::__1::__compressed_pair.29" }
%"class.std::__1::__compressed_pair.29" = type { %"struct.std::__1::__compressed_pair_elem.30" }
%"struct.std::__1::__compressed_pair_elem.30" = type { %"struct.std::__1::basic_string<char, std::__1::char_traits<char>, std::__1::allocator<char> >::__rep" }
%"struct.std::__1::basic_string<char, std::__1::char_traits<char>, std::__1::allocator<char> >::__rep" = type { %union.anon }
%union.anon = type { %"struct.std::__1::basic_string<char, std::__1::char_traits<char>, std::__1::allocator<char> >::__long" }
%"struct.std::__1::basic_string<char, std::__1::char_traits<char>, std::__1::allocator<char> >::__long" = type { i8*, i64, i64 }
%"class.mojo::InlinedStructPtr.34" = type <{ %"class.apps::mojom::IconKey", i32, [4 x i8] }>
%"class.apps::mojom::IconKey" = type { i64, i32, i32 }
%"class.base::OnceCallback" = type { %"class.base::internal::CallbackBase" }
%"class.mojo::internal::MessageFragment.38" = type { %"class.mojo::Message"*, i64 }
%"class.apps::mojom::internal::AppService_LoadIcon_Params_Data" = type { %"struct.mojo::internal::StructHeader", i32, i32, %"struct.mojo::internal::Pointer.36", %"struct.mojo::internal::Pointer.37", i32, i8, [3 x i8] }
%"struct.mojo::internal::Pointer.36" = type { i64 }
%"struct.mojo::internal::Pointer.37" = type { i64 }
%"class.mojo::internal::Array_Data" = type { %"struct.mojo::internal::ArrayHeader" }
%"struct.mojo::internal::ArrayHeader" = type { i32, i32 }
%"class.apps::mojom::internal::IconKey_Data" = type { %"struct.mojo::internal::StructHeader", i64, i32, i32 }
%"class.mojo::StructPtr" = type { %"class.std::__1::unique_ptr.43" }
%"class.std::__1::unique_ptr.43" = type { %"class.std::__1::__compressed_pair.44" }
%"class.std::__1::__compressed_pair.44" = type { %"struct.std::__1::__compressed_pair_elem.45" }
%"struct.std::__1::__compressed_pair_elem.45" = type { %"class.apps::mojom::WindowInfo"* }
%"class.apps::mojom::WindowInfo" = type <{ i32, i32, i64, %"class.mojo::InlinedStructPtr.46", [4 x i8] }>
%"class.mojo::InlinedStructPtr.46" = type { %"class.apps::mojom::Rect", i32 }
%"class.apps::mojom::Rect" = type { i32, i32, i32, i32 }
%"class.mojo::internal::MessageFragment.52" = type { %"class.mojo::Message"*, i64 }
%"class.apps::mojom::internal::AppService_Launch_Params_Data" = type { %"struct.mojo::internal::StructHeader", i32, i32, %"struct.mojo::internal::Pointer.36", i32, [4 x i8], %"struct.mojo::internal::Pointer.51" }
%"struct.mojo::internal::Pointer.51" = type { i64 }
%"class.apps::mojom::internal::WindowInfo_Data" = type { %"struct.mojo::internal::StructHeader", i32, i32, i64, %"struct.mojo::internal::Pointer.53" }
%"struct.mojo::internal::Pointer.53" = type { i64 }
%"class.mojo::StructPtr.54" = type { %"class.std::__1::unique_ptr.55" }
%"class.std::__1::unique_ptr.55" = type { %"class.std::__1::__compressed_pair.56" }
%"class.std::__1::__compressed_pair.56" = type { %"struct.std::__1::__compressed_pair_elem.57" }
%"struct.std::__1::__compressed_pair_elem.57" = type { %"class.apps::mojom::FilePaths"* }
%"class.apps::mojom::FilePaths" = type { %"class.std::__1::vector.58" }
%"class.std::__1::vector.58" = type { %"class.std::__1::__vector_base.59" }
%"class.std::__1::__vector_base.59" = type { %"class.base::FilePath"*, %"class.base::FilePath"*, %"class.std::__1::__compressed_pair.60" }
%"class.base::FilePath" = type { %"class.std::__1::basic_string" }
%"class.std::__1::__compressed_pair.60" = type { %"struct.std::__1::__compressed_pair_elem.61" }
%"struct.std::__1::__compressed_pair_elem.61" = type { %"class.base::FilePath"* }
%"class.mojo::internal::MessageFragment.70" = type { %"class.mojo::Message"*, i64 }
%"class.apps::mojom::internal::AppService_LaunchAppWithFiles_Params_Data" = type { %"struct.mojo::internal::StructHeader", i32, i32, %"struct.mojo::internal::Pointer.36", i32, i32, %"struct.mojo::internal::Pointer.69" }
%"struct.mojo::internal::Pointer.69" = type { i64 }
%"class.apps::mojom::internal::FilePaths_Data" = type { %"struct.mojo::internal::StructHeader", %"struct.mojo::internal::Pointer.71" }
%"struct.mojo::internal::Pointer.71" = type { i64 }
%"class.mojo::StructPtr.72" = type { %"class.std::__1::unique_ptr.73" }
%"class.std::__1::unique_ptr.73" = type { %"class.std::__1::__compressed_pair.74" }
%"class.std::__1::__compressed_pair.74" = type { %"struct.std::__1::__compressed_pair_elem.75" }
%"struct.std::__1::__compressed_pair_elem.75" = type { %"class.apps::mojom::Intent"* }
%"class.apps::mojom::Intent" = type { %"class.absl::optional", %"class.absl::optional.77", %"class.absl::optional", %"class.absl::optional.88", %"class.absl::optional", %"class.absl::optional.77", %"class.absl::optional", %"class.absl::optional", %"class.absl::optional", %"class.absl::optional.99", %"class.absl::optional", i32, %"class.absl::optional.111" }
%"class.absl::optional.88" = type { %"class.absl::optional_internal::optional_data.89" }
%"class.absl::optional_internal::optional_data.89" = type { %"class.absl::optional_internal::optional_data_base.90" }
%"class.absl::optional_internal::optional_data_base.90" = type { %"class.absl::optional_internal::optional_data_dtor_base.91" }
%"class.absl::optional_internal::optional_data_dtor_base.91" = type { i8, %union.anon.92 }
%union.anon.92 = type { %"class.std::__1::vector.93" }
%"class.std::__1::vector.93" = type { %"class.std::__1::__vector_base.94" }
%"class.std::__1::__vector_base.94" = type { %class.GURL*, %class.GURL*, %"class.std::__1::__compressed_pair.95" }
%class.GURL = type { %"class.std::__1::basic_string", i8, %"struct.url::Parsed", %"class.std::__1::unique_ptr.82" }
%"struct.url::Parsed" = type { %"struct.url::Component", %"struct.url::Component", %"struct.url::Component", %"struct.url::Component", %"struct.url::Component", %"struct.url::Component", %"struct.url::Component", %"struct.url::Component", i8, %"struct.url::Parsed"* }
%"struct.url::Component" = type { i32, i32 }
%"class.std::__1::unique_ptr.82" = type { %"class.std::__1::__compressed_pair.83" }
%"class.std::__1::__compressed_pair.83" = type { %"struct.std::__1::__compressed_pair_elem.84" }
%"struct.std::__1::__compressed_pair_elem.84" = type { %class.GURL* }
%"class.std::__1::__compressed_pair.95" = type { %"struct.std::__1::__compressed_pair_elem.84" }
%"class.absl::optional.77" = type { %"class.absl::optional_internal::optional_data.78" }
%"class.absl::optional_internal::optional_data.78" = type { %"class.absl::optional_internal::optional_data_base.79" }
%"class.absl::optional_internal::optional_data_base.79" = type { %"class.absl::optional_internal::optional_data_dtor_base.80" }
%"class.absl::optional_internal::optional_data_dtor_base.80" = type { i8, %union.anon.81 }
%union.anon.81 = type { %class.GURL }
%"class.absl::optional.99" = type { %"class.absl::optional_internal::optional_data.100" }
%"class.absl::optional_internal::optional_data.100" = type { %"class.absl::optional_internal::optional_data_base.101" }
%"class.absl::optional_internal::optional_data_base.101" = type { %"class.absl::optional_internal::optional_data_dtor_base.102" }
%"class.absl::optional_internal::optional_data_dtor_base.102" = type { i8, %union.anon.103 }
%union.anon.103 = type { %"class.std::__1::vector.104" }
%"class.std::__1::vector.104" = type { %"class.std::__1::__vector_base.105" }
%"class.std::__1::__vector_base.105" = type { %"class.std::__1::basic_string"*, %"class.std::__1::basic_string"*, %"class.std::__1::__compressed_pair.106" }
%"class.std::__1::__compressed_pair.106" = type { %"struct.std::__1::__compressed_pair_elem.107" }
%"struct.std::__1::__compressed_pair_elem.107" = type { %"class.std::__1::basic_string"* }
%"class.absl::optional" = type { %"class.absl::optional_internal::optional_data" }
%"class.absl::optional_internal::optional_data" = type { %"class.absl::optional_internal::optional_data_base" }
%"class.absl::optional_internal::optional_data_base" = type { %"class.absl::optional_internal::optional_data_dtor_base" }
%"class.absl::optional_internal::optional_data_dtor_base" = type { i8, %union.anon.76 }
%union.anon.76 = type { %"class.std::__1::basic_string" }
%"class.absl::optional.111" = type { %"class.absl::optional_internal::optional_data.112" }
%"class.absl::optional_internal::optional_data.112" = type { %"class.absl::optional_internal::optional_data_base.113" }
%"class.absl::optional_internal::optional_data_base.113" = type { %"class.absl::optional_internal::optional_data_dtor_base.114" }
%"class.absl::optional_internal::optional_data_dtor_base.114" = type { i8, %union.anon.115 }
%union.anon.115 = type { %"class.base::flat_map" }
%"class.base::flat_map" = type { %"class.base::internal::flat_tree" }
%"class.base::internal::flat_tree" = type { %"class.std::__1::vector.116" }
%"class.std::__1::vector.116" = type { %"class.std::__1::__vector_base.117" }
%"class.std::__1::__vector_base.117" = type { %"struct.std::__1::pair"*, %"struct.std::__1::pair"*, %"class.std::__1::__compressed_pair.118" }
%"struct.std::__1::pair" = type { %"class.std::__1::basic_string", %"class.std::__1::basic_string" }
%"class.std::__1::__compressed_pair.118" = type { %"struct.std::__1::__compressed_pair_elem.119" }
%"struct.std::__1::__compressed_pair_elem.119" = type { %"struct.std::__1::pair"* }
%"class.mojo::internal::MessageFragment.128" = type { %"class.mojo::Message"*, i64 }
%"class.apps::mojom::internal::AppService_LaunchAppWithIntent_Params_Data" = type { %"struct.mojo::internal::StructHeader", i32, i32, %"struct.mojo::internal::Pointer.36", %"struct.mojo::internal::Pointer.127", i32, [4 x i8], %"struct.mojo::internal::Pointer.51" }
%"struct.mojo::internal::Pointer.127" = type { i64 }
%"class.apps::mojom::internal::Intent_Data" = type { %"struct.mojo::internal::StructHeader", %"struct.mojo::internal::Pointer.36", %"struct.mojo::internal::Pointer.129", %"struct.mojo::internal::Pointer.36", %"struct.mojo::internal::Pointer.130", %"struct.mojo::internal::Pointer.36", %"struct.mojo::internal::Pointer.129", %"struct.mojo::internal::Pointer.36", %"struct.mojo::internal::Pointer.36", %"struct.mojo::internal::Pointer.36", %"struct.mojo::internal::Pointer.131", %"struct.mojo::internal::Pointer.36", i32, [4 x i8], %"struct.mojo::internal::Pointer.132" }
%"struct.mojo::internal::Pointer.130" = type { i64 }
%"struct.mojo::internal::Pointer.129" = type { i64 }
%"struct.mojo::internal::Pointer.131" = type { i64 }
%"struct.mojo::internal::Pointer.132" = type { i64 }
%"class.mojo::InlinedStructPtr.133" = type { %"class.apps::mojom::Permission", i32 }
%"class.apps::mojom::Permission" = type <{ i32, i32, i32, i8, [3 x i8] }>
%"class.apps::mojom::internal::AppService_SetPermission_Params_Data" = type { %"struct.mojo::internal::StructHeader", i32, [4 x i8], %"struct.mojo::internal::Pointer.36", %"struct.mojo::internal::Pointer.135" }
%"struct.mojo::internal::Pointer.135" = type { i64 }
%"class.apps::mojom::internal::Permission_Data" = type { %"struct.mojo::internal::StructHeader", i32, i32, i32, i8, [3 x i8] }
%"class.apps::mojom::internal::AppService_Uninstall_Params_Data" = type { %"struct.mojo::internal::StructHeader", i32, i32, %"struct.mojo::internal::Pointer.36", i8, [7 x i8] }
%"class.apps::mojom::internal::AppService_PauseApp_Params_Data" = type { %"struct.mojo::internal::StructHeader", i32, [4 x i8], %"struct.mojo::internal::Pointer.36" }
%"class.apps::mojom::internal::AppService_UnpauseApps_Params_Data" = type { %"struct.mojo::internal::StructHeader", i32, [4 x i8], %"struct.mojo::internal::Pointer.36" }
%"class.apps::mojom::internal::AppService_StopApp_Params_Data" = type { %"struct.mojo::internal::StructHeader", i32, [4 x i8], %"struct.mojo::internal::Pointer.36" }
%"class.base::OnceCallback.141" = type { %"class.base::internal::CallbackBase" }
%"class.apps::mojom::internal::AppService_GetMenuModel_Params_Data" = type { %"struct.mojo::internal::StructHeader", i32, i32, %"struct.mojo::internal::Pointer.36", i64 }
%"class.apps::mojom::internal::AppService_ExecuteContextMenuCommand_Params_Data" = type { %"struct.mojo::internal::StructHeader", i32, i32, %"struct.mojo::internal::Pointer.36", %"struct.mojo::internal::Pointer.36", i64 }
%"class.apps::mojom::internal::AppService_OpenNativeSettings_Params_Data" = type { %"struct.mojo::internal::StructHeader", i32, [4 x i8], %"struct.mojo::internal::Pointer.36" }
%"class.mojo::StructPtr.145" = type { %"class.std::__1::unique_ptr.146" }
%"class.std::__1::unique_ptr.146" = type { %"class.std::__1::__compressed_pair.147" }
%"class.std::__1::__compressed_pair.147" = type { %"struct.std::__1::__compressed_pair_elem.148" }
%"struct.std::__1::__compressed_pair_elem.148" = type { %"class.apps::mojom::IntentFilter"* }
%"class.apps::mojom::IntentFilter" = type { %"class.std::__1::vector.149", %"class.absl::optional", %"class.absl::optional" }
%"class.std::__1::vector.149" = type { %"class.std::__1::__vector_base.150" }
%"class.std::__1::__vector_base.150" = type { %"class.mojo::StructPtr.151"*, %"class.mojo::StructPtr.151"*, %"class.std::__1::__compressed_pair.167" }
%"class.mojo::StructPtr.151" = type { %"class.std::__1::unique_ptr.152" }
%"class.std::__1::unique_ptr.152" = type { %"class.std::__1::__compressed_pair.153" }
%"class.std::__1::__compressed_pair.153" = type { %"struct.std::__1::__compressed_pair_elem.154" }
%"struct.std::__1::__compressed_pair_elem.154" = type { %"class.apps::mojom::Condition"* }
%"class.apps::mojom::Condition" = type { i32, %"class.std::__1::vector.155" }
%"class.std::__1::vector.155" = type { %"class.std::__1::__vector_base.156" }
%"class.std::__1::__vector_base.156" = type { %"class.mojo::InlinedStructPtr.157"*, %"class.mojo::InlinedStructPtr.157"*, %"class.std::__1::__compressed_pair.159" }
%"class.mojo::InlinedStructPtr.157" = type { %"class.apps::mojom::ConditionValue", i32, [4 x i8] }
%"class.apps::mojom::ConditionValue" = type <{ %"class.std::__1::basic_string", i32, [4 x i8] }>
%"class.std::__1::__compressed_pair.159" = type { %"struct.std::__1::__compressed_pair_elem.160" }
%"struct.std::__1::__compressed_pair_elem.160" = type { %"class.mojo::InlinedStructPtr.157"* }
%"class.std::__1::__compressed_pair.167" = type { %"struct.std::__1::__compressed_pair_elem.168" }
%"struct.std::__1::__compressed_pair_elem.168" = type { %"class.mojo::StructPtr.151"* }
%"class.mojo::internal::MessageFragment.177" = type { %"class.mojo::Message"*, i64 }
%"class.apps::mojom::internal::AppService_AddPreferredApp_Params_Data" = type { %"struct.mojo::internal::StructHeader", i32, i8, [3 x i8], %"struct.mojo::internal::Pointer.36", %"struct.mojo::internal::Pointer.176", %"struct.mojo::internal::Pointer.127" }
%"struct.mojo::internal::Pointer.176" = type { i64 }
%"class.apps::mojom::internal::IntentFilter_Data" = type { %"struct.mojo::internal::StructHeader", %"struct.mojo::internal::Pointer.178", %"struct.mojo::internal::Pointer.36", %"struct.mojo::internal::Pointer.36" }
%"struct.mojo::internal::Pointer.178" = type { i64 }
%"class.apps::mojom::internal::AppService_RemovePreferredApp_Params_Data" = type { %"struct.mojo::internal::StructHeader", i32, [4 x i8], %"struct.mojo::internal::Pointer.36" }
%"class.apps::mojom::internal::AppService_RemovePreferredAppForFilter_Params_Data" = type { %"struct.mojo::internal::StructHeader", i32, [4 x i8], %"struct.mojo::internal::Pointer.36", %"struct.mojo::internal::Pointer.176" }
%"class.apps::mojom::internal::AppService_SetResizeLocked_Params_Data" = type { %"struct.mojo::internal::StructHeader", i32, i32, %"struct.mojo::internal::Pointer.36" }
%"class.apps::mojom::AppService_LoadIcon_ForwardToCallback" = type { %"class.mojo::MessageReceiver", %"class.base::OnceCallback" }
%"class.mojo::StructPtr.183" = type { %"class.std::__1::unique_ptr.184" }
%"class.std::__1::unique_ptr.184" = type { %"class.std::__1::__compressed_pair.185" }
%"class.std::__1::__compressed_pair.185" = type { %"struct.std::__1::__compressed_pair_elem.186" }
%"struct.std::__1::__compressed_pair_elem.186" = type { %"class.apps::mojom::IconValue"* }
%"class.apps::mojom::IconValue" = type <{ i32, [4 x i8], %"class.gfx::ImageSkia", %"class.absl::optional.188", i8, [7 x i8] }>
%"class.gfx::ImageSkia" = type { %class.scoped_refptr.187 }
%class.scoped_refptr.187 = type { %"class.gfx::internal::ImageSkiaStorage"* }
%"class.gfx::internal::ImageSkiaStorage" = type opaque
%"class.absl::optional.188" = type { %"class.absl::optional_internal::optional_data.189" }
%"class.absl::optional_internal::optional_data.189" = type { %"class.absl::optional_internal::optional_data_base.190" }
%"class.absl::optional_internal::optional_data_base.190" = type { %"class.absl::optional_internal::optional_data_dtor_base.191" }
%"class.absl::optional_internal::optional_data_dtor_base.191" = type { i8, %union.anon.192 }
%union.anon.192 = type { %"class.std::__1::vector.193" }
%"class.std::__1::vector.193" = type { %"class.std::__1::__vector_base.194" }
%"class.std::__1::__vector_base.194" = type { i8*, i8*, %"class.std::__1::__compressed_pair.195" }
%"class.std::__1::__compressed_pair.195" = type { %"struct.std::__1::__compressed_pair_elem.196" }
%"struct.std::__1::__compressed_pair_elem.196" = type { i8* }
%"class.apps::mojom::internal::IconValue_Data" = type { %"struct.mojo::internal::StructHeader", i32, i8, [3 x i8], %"struct.mojo::internal::Pointer.211", %"struct.mojo::internal::Pointer.212" }
%"struct.mojo::internal::Pointer.211" = type { i64 }
%"struct.mojo::internal::Pointer.212" = type { i64 }
%"class.apps::mojom::AppService_LoadIcon_ProxyToResponder" = type { i64, i8, %"class.std::__1::unique_ptr.203" }
%"class.std::__1::unique_ptr.203" = type { %"class.std::__1::__compressed_pair.204" }
%"class.std::__1::__compressed_pair.204" = type { %"struct.std::__1::__compressed_pair_elem.205" }
%"struct.std::__1::__compressed_pair_elem.205" = type { %"class.mojo::MessageReceiverWithStatus"* }
%"class.mojo::MessageReceiverWithStatus" = type { %"class.mojo::MessageReceiver" }
%"class.mojo::internal::MessageFragment.210" = type { %"class.mojo::Message"*, i64 }
%"class.apps::mojom::internal::AppService_LoadIcon_ResponseParams_Data" = type { %"struct.mojo::internal::StructHeader", %"struct.mojo::internal::Pointer.182" }
%"struct.mojo::internal::Pointer.182" = type { i64 }
%"struct.mojo::internal::MessageHeaderV1" = type { %"struct.mojo::internal::MessageHeader", i64 }
%"struct.mojo::internal::MessageHeader" = type { %"struct.mojo::internal::StructHeader", i32, i32, i32, i32 }
%"class.apps::mojom::AppService_GetMenuModel_ForwardToCallback" = type { %"class.mojo::MessageReceiver", %"class.base::OnceCallback.141" }
%"class.mojo::StructPtr.214" = type { %"class.std::__1::unique_ptr.215" }
%"class.std::__1::unique_ptr.215" = type { %"class.std::__1::__compressed_pair.216" }
%"class.std::__1::__compressed_pair.216" = type { %"struct.std::__1::__compressed_pair_elem.217" }
%"struct.std::__1::__compressed_pair_elem.217" = type { %"class.apps::mojom::MenuItems"* }
%"class.apps::mojom::MenuItems" = type { %"class.std::__1::vector.218" }
%"class.std::__1::vector.218" = type { %"class.std::__1::__vector_base.219" }
%"class.std::__1::__vector_base.219" = type { %"class.mojo::StructPtr.220"*, %"class.mojo::StructPtr.220"*, %"class.std::__1::__compressed_pair.227" }
%"class.mojo::StructPtr.220" = type { %"class.std::__1::unique_ptr.221" }
%"class.std::__1::unique_ptr.221" = type { %"class.std::__1::__compressed_pair.222" }
%"class.std::__1::__compressed_pair.222" = type { %"struct.std::__1::__compressed_pair_elem.223" }
%"struct.std::__1::__compressed_pair_elem.223" = type { %"class.apps::mojom::MenuItem"* }
%"class.apps::mojom::MenuItem" = type { i32, i32, i32, %"class.std::__1::vector.218", i32, %"class.std::__1::basic_string", %"class.std::__1::basic_string", %"class.gfx::ImageSkia" }
%"class.std::__1::__compressed_pair.227" = type { %"struct.std::__1::__compressed_pair_elem.228" }
%"struct.std::__1::__compressed_pair_elem.228" = type { %"class.mojo::StructPtr.220"* }
%"class.apps::mojom::internal::MenuItems_Data" = type { %"struct.mojo::internal::StructHeader", %"struct.mojo::internal::Pointer.237" }
%"struct.mojo::internal::Pointer.237" = type { i64 }
%"class.apps::mojom::AppService_GetMenuModel_ProxyToResponder" = type { i64, i8, %"class.std::__1::unique_ptr.203" }
%"class.mojo::internal::MessageFragment.236" = type { %"class.mojo::Message"*, i64 }
%"class.apps::mojom::internal::AppService_GetMenuModel_ResponseParams_Data" = type { %"struct.mojo::internal::StructHeader", %"struct.mojo::internal::Pointer.213" }
%"struct.mojo::internal::Pointer.213" = type { i64 }
%"class.base::TaskAnnotator::ScopedSetIpcHash" = type { %"class.base::TaskAnnotator::ScopedSetIpcHash"*, i32, i8* }
%"class.apps::mojom::AppService_RegisterPublisher_ParamsDataView" = type { %"class.apps::mojom::internal::AppService_RegisterPublisher_Params_Data"*, %"class.mojo::Message"* }
%"class.apps::mojom::AppService_RegisterSubscriber_ParamsDataView" = type { %"class.apps::mojom::internal::AppService_RegisterSubscriber_Params_Data"*, %"class.mojo::Message"* }
%"struct.std::__1::basic_string<char, std::__1::char_traits<char>, std::__1::allocator<char> >::__short" = type { [23 x i8], %struct.anon }
%struct.anon = type { i8 }
%"class.apps::mojom::AppServiceRequestValidator" = type { %"class.mojo::MessageReceiver" }
%"class.apps::mojom::AppServiceResponseValidator" = type { %"class.mojo::MessageReceiver" }
%"class.apps::mojom::internal::Publisher_Connect_Params_Data" = type { %"struct.mojo::internal::StructHeader", %"struct.mojo::internal::Interface_Data", %"struct.mojo::internal::Pointer" }
%"class.apps::mojom::internal::Publisher_LoadIcon_Params_Data" = type { %"struct.mojo::internal::StructHeader", %"struct.mojo::internal::Pointer.36", %"struct.mojo::internal::Pointer.37", i32, i32, i8, [7 x i8] }
%"class.apps::mojom::internal::Publisher_Launch_Params_Data" = type { %"struct.mojo::internal::StructHeader", %"struct.mojo::internal::Pointer.36", i32, i32, %"struct.mojo::internal::Pointer.51" }
%"class.apps::mojom::internal::Publisher_LaunchAppWithFiles_Params_Data" = type { %"struct.mojo::internal::StructHeader", %"struct.mojo::internal::Pointer.36", i32, i32, i32, [4 x i8], %"struct.mojo::internal::Pointer.69" }
%"class.apps::mojom::internal::Publisher_LaunchAppWithIntent_Params_Data" = type { %"struct.mojo::internal::StructHeader", %"struct.mojo::internal::Pointer.36", i32, i32, %"struct.mojo::internal::Pointer.127", %"struct.mojo::internal::Pointer.51" }
%"class.apps::mojom::internal::Publisher_SetPermission_Params_Data" = type { %"struct.mojo::internal::StructHeader", %"struct.mojo::internal::Pointer.36", %"struct.mojo::internal::Pointer.135" }
%"class.apps::mojom::internal::Publisher_Uninstall_Params_Data" = type { %"struct.mojo::internal::StructHeader", %"struct.mojo::internal::Pointer.36", i32, i8, [3 x i8] }
%"class.apps::mojom::internal::Publisher_PauseApp_Params_Data" = type { %"struct.mojo::internal::StructHeader", %"struct.mojo::internal::Pointer.36" }
%"class.apps::mojom::internal::Publisher_UnpauseApps_Params_Data" = type { %"struct.mojo::internal::StructHeader", %"struct.mojo::internal::Pointer.36" }
%"class.apps::mojom::internal::Publisher_StopApp_Params_Data" = type { %"struct.mojo::internal::StructHeader", %"struct.mojo::internal::Pointer.36" }
%"class.apps::mojom::internal::Publisher_GetMenuModel_Params_Data" = type { %"struct.mojo::internal::StructHeader", %"struct.mojo::internal::Pointer.36", i32, [4 x i8], i64 }
%"class.apps::mojom::internal::Publisher_ExecuteContextMenuCommand_Params_Data" = type { %"struct.mojo::internal::StructHeader", %"struct.mojo::internal::Pointer.36", i32, [4 x i8], %"struct.mojo::internal::Pointer.36", i64 }
%"class.apps::mojom::internal::Publisher_OpenNativeSettings_Params_Data" = type { %"struct.mojo::internal::StructHeader", %"struct.mojo::internal::Pointer.36" }
%"class.mojo::StructPtr.252" = type { %"class.std::__1::unique_ptr.253" }
%"class.std::__1::unique_ptr.253" = type { %"class.std::__1::__compressed_pair.254" }
%"class.std::__1::__compressed_pair.254" = type { %"struct.std::__1::__compressed_pair_elem.255" }
%"struct.std::__1::__compressed_pair_elem.255" = type { %"class.apps::mojom::ReplacedAppPreferences"* }
%"class.apps::mojom::ReplacedAppPreferences" = type { %"class.base::flat_map.256" }
%"class.base::flat_map.256" = type { %"class.base::internal::flat_tree.257" }
%"class.base::internal::flat_tree.257" = type { %"class.std::__1::vector.258" }
%"class.std::__1::vector.258" = type { %"class.std::__1::__vector_base.259" }
%"class.std::__1::__vector_base.259" = type { %"struct.std::__1::pair.260"*, %"struct.std::__1::pair.260"*, %"class.std::__1::__compressed_pair.261" }
%"struct.std::__1::pair.260" = type { %"class.std::__1::basic_string", %"class.std::__1::vector.294" }
%"class.std::__1::vector.294" = type { %"class.std::__1::__vector_base.295" }
%"class.std::__1::__vector_base.295" = type { %"class.mojo::StructPtr.145"*, %"class.mojo::StructPtr.145"*, %"class.std::__1::__compressed_pair.296" }
%"class.std::__1::__compressed_pair.296" = type { %"struct.std::__1::__compressed_pair_elem.297" }
%"struct.std::__1::__compressed_pair_elem.297" = type { %"class.mojo::StructPtr.145"* }
%"class.std::__1::__compressed_pair.261" = type { %"struct.std::__1::__compressed_pair_elem.262" }
%"struct.std::__1::__compressed_pair_elem.262" = type { %"struct.std::__1::pair.260"* }
%"class.mojo::internal::MessageFragment.271" = type { %"class.mojo::Message"*, i64 }
%"class.apps::mojom::internal::Publisher_OnPreferredAppSet_Params_Data" = type { %"struct.mojo::internal::StructHeader", %"struct.mojo::internal::Pointer.36", %"struct.mojo::internal::Pointer.176", %"struct.mojo::internal::Pointer.127", %"struct.mojo::internal::Pointer.270" }
%"struct.mojo::internal::Pointer.270" = type { i64 }
%"class.apps::mojom::internal::ReplacedAppPreferences_Data" = type { %"struct.mojo::internal::StructHeader", %"struct.mojo::internal::Pointer.272" }
%"struct.mojo::internal::Pointer.272" = type { i64 }
%"class.apps::mojom::internal::Publisher_SetResizeLocked_Params_Data" = type { %"struct.mojo::internal::StructHeader", %"struct.mojo::internal::Pointer.36", i32, [4 x i8] }
%"class.apps::mojom::Publisher_LoadIcon_ForwardToCallback" = type { %"class.mojo::MessageReceiver", %"class.base::OnceCallback" }
%"class.apps::mojom::Publisher_LoadIcon_ProxyToResponder" = type { i64, i8, %"class.std::__1::unique_ptr.203" }
%"class.apps::mojom::internal::Publisher_LoadIcon_ResponseParams_Data" = type { %"struct.mojo::internal::StructHeader", %"struct.mojo::internal::Pointer.182" }
%"class.apps::mojom::Publisher_GetMenuModel_ForwardToCallback" = type { %"class.mojo::MessageReceiver", %"class.base::OnceCallback.141" }
%"class.apps::mojom::Publisher_GetMenuModel_ProxyToResponder" = type { i64, i8, %"class.std::__1::unique_ptr.203" }
%"class.apps::mojom::internal::Publisher_GetMenuModel_ResponseParams_Data" = type { %"struct.mojo::internal::StructHeader", %"struct.mojo::internal::Pointer.213" }
%"class.apps::mojom::Publisher_Connect_ParamsDataView" = type { %"class.apps::mojom::internal::Publisher_Connect_Params_Data"*, %"class.mojo::Message"* }
%"class.apps::mojom::PublisherRequestValidator" = type { %"class.mojo::MessageReceiver" }
%"class.apps::mojom::PublisherResponseValidator" = type { %"class.mojo::MessageReceiver" }
%"class.std::__1::vector.276" = type { %"class.std::__1::__vector_base.277" }
%"class.std::__1::__vector_base.277" = type { %"class.mojo::StructPtr.278"*, %"class.mojo::StructPtr.278"*, %"class.std::__1::__compressed_pair.304" }
%"class.mojo::StructPtr.278" = type { %"class.std::__1::unique_ptr.279" }
%"class.std::__1::unique_ptr.279" = type { %"class.std::__1::__compressed_pair.280" }
%"class.std::__1::__compressed_pair.280" = type { %"struct.std::__1::__compressed_pair_elem.281" }
%"struct.std::__1::__compressed_pair_elem.281" = type { %"class.apps::mojom::App"* }
%"class.apps::mojom::App" = type <{ i32, [4 x i8], %"class.std::__1::basic_string", i32, [4 x i8], %"class.absl::optional", %"class.absl::optional", %"class.absl::optional", %"class.absl::optional", %"class.absl::optional", %"class.std::__1::vector.104", %"class.mojo::InlinedStructPtr.34", %"class.absl::optional.282", %"class.absl::optional.282", %"class.std::__1::vector.287", i32, i32, i32, i32, i32, i32, i32, i32, i32, i32, %"class.std::__1::vector.294", i32, [4 x i8] }>
%"class.absl::optional.282" = type { %"class.absl::optional_internal::optional_data.283" }
%"class.absl::optional_internal::optional_data.283" = type { %"class.absl::optional_internal::optional_data_base.284" }
%"class.absl::optional_internal::optional_data_base.284" = type { %"class.absl::optional_internal::optional_data_dtor_base.285" }
%"class.absl::optional_internal::optional_data_dtor_base.285" = type { i8, %union.anon.286 }
%union.anon.286 = type { %"class.base::Time" }
%"class.base::Time" = type { %"class.base::time_internal::TimeBase" }
%"class.base::time_internal::TimeBase" = type { i64 }
%"class.std::__1::vector.287" = type { %"class.std::__1::__vector_base.288" }
%"class.std::__1::__vector_base.288" = type { %"class.mojo::InlinedStructPtr.133"*, %"class.mojo::InlinedStructPtr.133"*, %"class.std::__1::__compressed_pair.289" }
%"class.std::__1::__compressed_pair.289" = type { %"struct.std::__1::__compressed_pair_elem.290" }
%"struct.std::__1::__compressed_pair_elem.290" = type { %"class.mojo::InlinedStructPtr.133"* }
%"class.std::__1::__compressed_pair.304" = type { %"struct.std::__1::__compressed_pair_elem.305" }
%"struct.std::__1::__compressed_pair_elem.305" = type { %"class.mojo::StructPtr.278"* }
%"class.mojo::internal::MessageFragment.518" = type { %"class.mojo::Message"*, i64 }
%"class.mojo::internal::ContainerValidateParams" = type { i32, i8, %"class.mojo::internal::ContainerValidateParams"*, %"class.mojo::internal::ContainerValidateParams"*, i1 (i32, %"class.mojo::internal::ValidationContext"*)* }
%"class.apps::mojom::internal::Subscriber_OnApps_Params_Data" = type { %"struct.mojo::internal::StructHeader", %"struct.mojo::internal::Pointer.311", i32, i8, [3 x i8] }
%"struct.mojo::internal::Pointer.311" = type { i64 }
%"class.mojo::internal::Array_Data.312" = type { %"struct.mojo::internal::ArrayHeader" }
%"class.apps::mojom::internal::App_Data" = type { %"struct.mojo::internal::StructHeader", i32, i32, %"struct.mojo::internal::Pointer.36", %"struct.mojo::internal::Pointer.36", %"struct.mojo::internal::Pointer.36", %"struct.mojo::internal::Pointer.36", %"struct.mojo::internal::Pointer.36", %"struct.mojo::internal::Pointer.36", %"struct.mojo::internal::Pointer.131", %"struct.mojo::internal::Pointer.37", %"struct.mojo::internal::Pointer.520", %"struct.mojo::internal::Pointer.520", %"struct.mojo::internal::Pointer.521", i32, i32, i32, i32, i32, i32, i32, i32, i32, i32, %"struct.mojo::internal::Pointer.514", i32, [4 x i8] }
%"struct.mojo::internal::Pointer.520" = type { i64 }
%"struct.mojo::internal::Pointer.521" = type { i64 }
%"struct.mojo::internal::Pointer.514" = type { i64 }
%"class.std::__1::vector.313" = type { %"class.std::__1::__vector_base.314" }
%"class.std::__1::__vector_base.314" = type { %"class.mojo::InlinedStructPtr.315"*, %"class.mojo::InlinedStructPtr.315"*, %"class.std::__1::__compressed_pair.317" }
%"class.mojo::InlinedStructPtr.315" = type <{ %"class.apps::mojom::CapabilityAccess", i32, [4 x i8] }>
%"class.apps::mojom::CapabilityAccess" = type { %"class.std::__1::basic_string", i32, i32 }
%"class.std::__1::__compressed_pair.317" = type { %"struct.std::__1::__compressed_pair_elem.318" }
%"struct.std::__1::__compressed_pair_elem.318" = type { %"class.mojo::InlinedStructPtr.315"* }
%"class.mojo::internal::ArrayIterator.528" = type { %"class.std::__1::vector.313"*, i64 }
%"class.mojo::internal::MessageFragment.323" = type { %"class.mojo::Message"*, i64 }
%"class.apps::mojom::internal::Subscriber_OnCapabilityAccesses_Params_Data" = type { %"struct.mojo::internal::StructHeader", %"struct.mojo::internal::Pointer.324" }
%"struct.mojo::internal::Pointer.324" = type { i64 }
%"class.mojo::internal::Array_Data.325" = type { %"struct.mojo::internal::ArrayHeader" }
%"class.mojo::PendingReceiver" = type { %"struct.mojo::internal::PendingReceiverState" }
%"struct.mojo::internal::PendingReceiverState" = type { %"class.mojo::ScopedHandleBase.25", %"class.mojo::ConnectionGroup::Ref" }
%"class.apps::mojom::internal::Subscriber_Clone_Params_Data" = type { %"struct.mojo::internal::StructHeader", %"struct.mojo::internal::Handle_Data", [4 x i8] }
%"class.apps::mojom::internal::Subscriber_OnPreferredAppSet_Params_Data" = type { %"struct.mojo::internal::StructHeader", %"struct.mojo::internal::Pointer.36", %"struct.mojo::internal::Pointer.176" }
%"class.apps::mojom::internal::Subscriber_OnPreferredAppRemoved_Params_Data" = type { %"struct.mojo::internal::StructHeader", %"struct.mojo::internal::Pointer.36", %"struct.mojo::internal::Pointer.176" }
%"class.std::__1::vector.329" = type { %"class.std::__1::__vector_base.330" }
%"class.std::__1::__vector_base.330" = type { %"class.mojo::StructPtr.331"*, %"class.mojo::StructPtr.331"*, %"class.std::__1::__compressed_pair.338" }
%"class.mojo::StructPtr.331" = type { %"class.std::__1::unique_ptr.332" }
%"class.std::__1::unique_ptr.332" = type { %"class.std::__1::__compressed_pair.333" }
%"class.std::__1::__compressed_pair.333" = type { %"struct.std::__1::__compressed_pair_elem.334" }
%"struct.std::__1::__compressed_pair_elem.334" = type { %"class.apps::mojom::PreferredApp"* }
%"class.apps::mojom::PreferredApp" = type { %"class.mojo::StructPtr.145", %"class.std::__1::basic_string" }
%"class.std::__1::__compressed_pair.338" = type { %"struct.std::__1::__compressed_pair_elem.339" }
%"struct.std::__1::__compressed_pair_elem.339" = type { %"class.mojo::StructPtr.331"* }
%"class.mojo::internal::MessageFragment.532" = type { %"class.mojo::Message"*, i64 }
%"class.apps::mojom::internal::Subscriber_InitializePreferredApps_Params_Data" = type { %"struct.mojo::internal::StructHeader", %"struct.mojo::internal::Pointer.345" }
%"struct.mojo::internal::Pointer.345" = type { i64 }
%"class.mojo::internal::Array_Data.346" = type { %"struct.mojo::internal::ArrayHeader" }
%"class.apps::mojom::internal::PreferredApp_Data" = type { %"struct.mojo::internal::StructHeader", %"struct.mojo::internal::Pointer.176", %"struct.mojo::internal::Pointer.36" }
%"class.apps::mojom::internal::CapabilityAccess_Data" = type { %"struct.mojo::internal::StructHeader", %"struct.mojo::internal::Pointer.36", i32, i32 }
%"class.apps::mojom::SubscriberRequestValidator" = type { %"class.mojo::MessageReceiver" }
%"class.apps::mojom::internal::Rect_Data" = type { %"struct.mojo::internal::StructHeader", i32, i32, i32, i32 }
%"class.mojo::internal::ArrayIterator" = type { %"class.std::__1::vector.58"*, i64 }
%"class.mojo::internal::MessageFragment.390" = type { %"class.mojo::Message"*, i64 }
%"class.mojo::internal::Array_Data.391" = type { %"struct.mojo::internal::ArrayHeader" }
%"class.mojo_base::mojom::internal::FilePath_Data" = type { %"struct.mojo::internal::StructHeader", %"struct.mojo::internal::Pointer.36" }
%"class.mojo::internal::ArrayIterator.402" = type { %"class.std::__1::vector.93"*, i64 }
%"class.mojo::internal::MessageFragment.395" = type { %"class.mojo::Message"*, i64 }
%"class.mojo::internal::MessageFragment.399" = type { %"class.mojo::Message"*, i64 }
%"class.url::mojom::internal::Url_Data" = type { %"struct.mojo::internal::StructHeader", %"struct.mojo::internal::Pointer.36" }
%"class.mojo::internal::Array_Data.396" = type { %"struct.mojo::internal::ArrayHeader" }
%"class.mojo::internal::Array_Data.398" = type { %"struct.mojo::internal::ArrayHeader" }
%"class.mojo::internal::Map_Data" = type { %"struct.mojo::internal::StructHeader", %"struct.mojo::internal::Pointer.131", %"struct.mojo::internal::Pointer.131" }
%"class.mojo::internal::MessageFragment.415" = type { %"class.mojo::Message"*, i64 }
%"class.mojo::internal::Array_Data.413" = type { %"struct.mojo::internal::ArrayHeader" }
%"class.apps::mojom::internal::Condition_Data" = type { %"struct.mojo::internal::StructHeader", i32, [4 x i8], %"struct.mojo::internal::Pointer.417" }
%"struct.mojo::internal::Pointer.417" = type { i64 }
%"class.mojo::internal::ArrayIterator.420" = type { %"class.std::__1::vector.155"*, i64 }
%"class.mojo::internal::MessageFragment.418" = type { %"class.mojo::Message"*, i64 }
%"class.mojo::internal::Array_Data.419" = type { %"struct.mojo::internal::ArrayHeader" }
%"class.apps::mojom::internal::ConditionValue_Data" = type { %"struct.mojo::internal::StructHeader", %"struct.mojo::internal::Pointer.36", i32, [4 x i8] }
%"class.mojo::internal::MessageFragment.423" = type { %"class.mojo::Message"*, i64 }
%"class.gfx::mojom::internal::ImageSkia_Data" = type { %"struct.mojo::internal::StructHeader", %"struct.mojo::internal::Pointer.424" }
%"struct.mojo::internal::Pointer.424" = type { i64 }
%"class.mojo::internal::Array_Data.426" = type { %"struct.mojo::internal::ArrayHeader" }
%"class.mojo::internal::MessageFragment.453" = type { %"class.mojo::Message"*, i64 }
%"class.std::__1::vector.427" = type { %"class.std::__1::__vector_base.428" }
%"class.std::__1::__vector_base.428" = type { %"class.gfx::ImageSkiaRep"*, %"class.gfx::ImageSkiaRep"*, %"class.std::__1::__compressed_pair.445" }
%"class.gfx::ImageSkiaRep" = type <{ %"class.cc::PaintImage", %class.sk_sp.435, i32, %"class.gfx::Size", [4 x i8], %class.SkBitmap, float, [4 x i8] }>
%"class.cc::PaintImage" = type { %class.sk_sp, %class.sk_sp.435, %"class.gfx::Rect", i32, %class.sk_sp.440, %class.sk_sp.441, i32, i32, i32, i32, i8, i8, i32, i32, %class.sk_sp, %class.scoped_refptr.442 }
%"class.gfx::Rect" = type { %"class.gfx::Point", %"class.gfx::Size" }
%"class.gfx::Point" = type { i32, i32 }
%class.sk_sp.440 = type { %"class.cc::PaintImageGenerator"* }
%"class.cc::PaintImageGenerator" = type opaque
%class.sk_sp.441 = type { %"class.cc::TextureBacking"* }
%"class.cc::TextureBacking" = type opaque
%class.sk_sp = type { %class.SkImage* }
%class.SkImage = type <{ %class.SkRefCnt.base, [4 x i8], %struct.SkImageInfo, i32, [4 x i8] }>
%class.SkRefCnt.base = type { %class.SkRefCntBase.base }
%class.SkRefCntBase.base = type <{ i32 (...)**, %"struct.std::__1::atomic" }>
%struct.SkImageInfo = type { %class.SkColorInfo, %struct.SkISize }
%class.SkColorInfo = type { %class.sk_sp.429, i32, i32 }
%class.sk_sp.429 = type { %class.SkColorSpace* }
%class.SkColorSpace = type <{ %class.SkNVRefCnt, i32, i32, %struct.skcms_TransferFunction, %struct.skcms_Matrix3x3, %struct.skcms_TransferFunction, %struct.skcms_Matrix3x3, %class.SkOnce, [3 x i8] }>
%class.SkNVRefCnt = type { %"struct.std::__1::atomic" }
%struct.skcms_TransferFunction = type { float, float, float, float, float, float, float }
%struct.skcms_Matrix3x3 = type { [3 x [3 x float]] }
%class.SkOnce = type { %"struct.std::__1::atomic.430" }
%"struct.std::__1::atomic.430" = type { %"struct.std::__1::__atomic_base.431" }
%"struct.std::__1::__atomic_base.431" = type { %"struct.std::__1::__atomic_base.432" }
%"struct.std::__1::__atomic_base.432" = type { %"struct.std::__1::__cxx_atomic_impl.433" }
%"struct.std::__1::__cxx_atomic_impl.433" = type { %"struct.std::__1::__cxx_atomic_base_impl.434" }
%"struct.std::__1::__cxx_atomic_base_impl.434" = type { i8 }
%struct.SkISize = type { i32, i32 }
%class.scoped_refptr.442 = type { %"class.cc::PaintWorkletInput"* }
%"class.cc::PaintWorkletInput" = type opaque
%class.sk_sp.435 = type { %"class.cc::PaintOpBuffer"* }
%"class.cc::PaintOpBuffer" = type <{ %class.SkRefCnt.base, [4 x i8], %"class.std::__1::unique_ptr.436", i64, i64, i64, i64, i64, i32, i8, [3 x i8] }>
%"class.std::__1::unique_ptr.436" = type { %"class.std::__1::__compressed_pair.437" }
%"class.std::__1::__compressed_pair.437" = type { %"struct.std::__1::__compressed_pair_elem.438" }
%"struct.std::__1::__compressed_pair_elem.438" = type { i8* }
%"class.gfx::Size" = type { i32, i32 }
%class.SkBitmap = type { %class.sk_sp.443, %class.SkPixmap, %class.sk_sp.444 }
%class.sk_sp.443 = type { %class.SkPixelRef* }
%class.SkPixelRef = type opaque
%class.SkPixmap = type { i8*, i64, %struct.SkImageInfo }
%class.sk_sp.444 = type { %class.SkMipmap* }
%class.SkMipmap = type opaque
%"class.std::__1::__compressed_pair.445" = type { %"struct.std::__1::__compressed_pair_elem.446" }
%"struct.std::__1::__compressed_pair_elem.446" = type { %"class.gfx::ImageSkiaRep"* }
%"class.mojo::internal::Array_Data.451" = type { %"struct.mojo::internal::ArrayHeader" }
%"class.gfx::mojom::internal::ImageSkiaRep_Data" = type { %"struct.mojo::internal::StructHeader", %"struct.mojo::internal::Pointer.455", float, [4 x i8] }
%"struct.mojo::internal::Pointer.455" = type { i64 }
%"class.mojo::internal::MessageFragment.456" = type { %"class.mojo::Message"*, i64 }
%"class.skia::mojom::internal::BitmapWithArbitraryBpp_Data" = type { %"struct.mojo::internal::StructHeader", %"struct.mojo::internal::Pointer.457", i64, %"class.mojo_base::mojom::internal::BigBuffer_Data" }
%"struct.mojo::internal::Pointer.457" = type { i64 }
%"class.mojo_base::mojom::internal::BigBuffer_Data" = type { i32, i32, %"union.mojo_base::mojom::internal::BigBuffer_Data::Union_" }
%"union.mojo_base::mojom::internal::BigBuffer_Data::Union_" = type { %"struct.mojo::internal::Pointer.212" }
%"class.mojo::internal::MessageFragment.459" = type { %"class.mojo::Message"*, i64 }
%"class.mojo_base::BigBufferView" = type { i32, %"class.base::span.461", %"class.absl::optional.462" }
%"class.base::span.461" = type { %"struct.base::internal::ExtentStorage", i8* }
%"struct.base::internal::ExtentStorage" = type { i64 }
%"class.absl::optional.462" = type { %"class.absl::optional_internal::optional_data.463" }
%"class.absl::optional_internal::optional_data.463" = type { %"class.absl::optional_internal::optional_data_base.464" }
%"class.absl::optional_internal::optional_data_base.464" = type { %"class.absl::optional_internal::optional_data_dtor_base.465" }
%"class.absl::optional_internal::optional_data_dtor_base.465" = type { i8, %union.anon.466 }
%union.anon.466 = type { %"class.mojo_base::internal::BigBufferSharedMemoryRegion" }
%"class.mojo_base::internal::BigBufferSharedMemoryRegion" = type { i64, %"class.mojo::ScopedHandleBase.467", %"class.std::__1::unique_ptr.468" }
%"class.mojo::ScopedHandleBase.467" = type { %"class.mojo::SharedBufferHandle" }
%"class.mojo::SharedBufferHandle" = type { %"class.mojo::Handle" }
%"class.std::__1::unique_ptr.468" = type { %"class.std::__1::__compressed_pair.469" }
%"class.std::__1::__compressed_pair.469" = type { %"struct.std::__1::__compressed_pair_elem.470" }
%"struct.std::__1::__compressed_pair_elem.470" = type { i8* }
%"class.mojo::internal::MessageFragment.476" = type { %"class.mojo::Message"*, i64 }
%"class.skia::mojom::internal::ImageInfo_Data" = type { %"struct.mojo::internal::StructHeader", i32, i32, i32, i32, %"struct.mojo::internal::Pointer.460", %"struct.mojo::internal::Pointer.460" }
%"struct.mojo::internal::Pointer.460" = type { i64 }
%"class.absl::optional.477" = type { %"class.absl::optional_internal::optional_data.478" }
%"class.absl::optional_internal::optional_data.478" = type { %"class.absl::optional_internal::optional_data_base.479" }
%"class.absl::optional_internal::optional_data_base.479" = type { %"class.absl::optional_internal::optional_data_dtor_base.480" }
%"class.absl::optional_internal::optional_data_dtor_base.480" = type { i8, %union.anon.481 }
%union.anon.481 = type { %"class.std::__1::vector.482" }
%"class.std::__1::vector.482" = type { %"class.std::__1::__vector_base.483" }
%"class.std::__1::__vector_base.483" = type { float*, float*, %"class.std::__1::__compressed_pair.484" }
%"class.std::__1::__compressed_pair.484" = type { %"struct.std::__1::__compressed_pair_elem.485" }
%"struct.std::__1::__compressed_pair_elem.485" = type { float* }
%"class.mojo::internal::Array_Data.490" = type { %"struct.mojo::internal::ArrayHeader" }
%"class.mojo::internal::MessageFragment.494" = type { %"class.mojo::Message"*, i64 }
%"class.mojo_base::mojom::internal::BigBufferSharedMemoryRegion_Data" = type { %"struct.mojo::internal::StructHeader", %"struct.mojo::internal::Handle_Data", i32 }
%"class.mojo::internal::MessageFragment.502" = type { %"class.mojo::Message"*, i64 }
%"class.mojo::internal::Array_Data.500" = type { %"struct.mojo::internal::ArrayHeader" }
%"class.apps::mojom::internal::MenuItem_Data" = type { %"struct.mojo::internal::StructHeader", i32, i32, i32, i32, %"struct.mojo::internal::Pointer.237", %"struct.mojo::internal::Pointer.36", %"struct.mojo::internal::Pointer.36", %"struct.mojo::internal::Pointer.211" }
%"class.mojo::internal::MessageFragment.504" = type { %"class.mojo::Message"*, i64 }
%"class.mojo::internal::Map_Data.505" = type { %"struct.mojo::internal::StructHeader", %"struct.mojo::internal::Pointer.131", %"struct.mojo::internal::Pointer.506" }
%"struct.mojo::internal::Pointer.506" = type { i64 }
%"class.mojo::internal::MessageFragment.510" = type { %"class.mojo::Message"*, i64 }
%"class.mojo::internal::MapValueReader.511" = type { %"class.mojo::internal::MapReaderBase.508" }
%"class.mojo::internal::MapReaderBase.508" = type { %"class.base::flat_map.256"*, %"class.std::__1::__wrap_iter.509" }
%"class.std::__1::__wrap_iter.509" = type { %"struct.std::__1::pair.260"* }
%"class.mojo::internal::Array_Data.515" = type { %"struct.mojo::internal::ArrayHeader" }
%"class.mojo::internal::Array_Data.512" = type { %"struct.mojo::internal::ArrayHeader" }
%"class.mojo::internal::ArrayIterator.527" = type { %"class.std::__1::vector.287"*, i64 }
%"class.mojo::internal::MessageFragment.523" = type { %"class.mojo::Message"*, i64 }
%"class.mojo_base::mojom::internal::Time_Data" = type { %"struct.mojo::internal::StructHeader", i64 }
%"class.mojo::internal::Array_Data.524" = type { %"struct.mojo::internal::ArrayHeader" }

$_ZN4apps5mojom43AppService_RegisterPublisher_ParamsDataView13TakePublisherIN4mojo13PendingRemoteINS0_9PublisherEEEEET_v = comdat any

$_ZN4apps5mojom44AppService_RegisterSubscriber_ParamsDataView14TakeSubscriberIN4mojo13PendingRemoteINS0_10SubscriberEEEEET_v = comdat any

$_ZN4apps5mojom32Publisher_Connect_ParamsDataView14TakeSubscriberIN4mojo13PendingRemoteINS0_10SubscriberEEEEET_v = comdat any

$_ZN4mojo8internal23ContainerValidateParamsD2Ev = comdat any

$_ZN4apps5mojom37AppService_LoadIcon_ForwardToCallbackD2Ev = comdat any

$_ZN4apps5mojom37AppService_LoadIcon_ForwardToCallbackD0Ev = comdat any

$_ZN4apps5mojom41AppService_GetMenuModel_ForwardToCallbackD2Ev = comdat any

$_ZN4apps5mojom41AppService_GetMenuModel_ForwardToCallbackD0Ev = comdat any

$_ZN4apps5mojom10AppServiceD2Ev = comdat any

$_ZN4apps5mojom15AppServiceProxyD0Ev = comdat any

$_ZN4apps5mojom26AppServiceRequestValidatorD0Ev = comdat any

$_ZN4mojo15MessageReceiverD2Ev = comdat any

$_ZN4apps5mojom27AppServiceResponseValidatorD0Ev = comdat any

$_ZN4apps5mojom36Publisher_LoadIcon_ForwardToCallbackD2Ev = comdat any

$_ZN4apps5mojom36Publisher_LoadIcon_ForwardToCallbackD0Ev = comdat any

$_ZN4apps5mojom40Publisher_GetMenuModel_ForwardToCallbackD2Ev = comdat any

$_ZN4apps5mojom40Publisher_GetMenuModel_ForwardToCallbackD0Ev = comdat any

$_ZN4apps5mojom9PublisherD2Ev = comdat any

$_ZN4apps5mojom14PublisherProxyD0Ev = comdat any

$_ZN4apps5mojom25PublisherRequestValidatorD0Ev = comdat any

$_ZN4apps5mojom26PublisherResponseValidatorD0Ev = comdat any

$_ZN4apps5mojom10SubscriberD2Ev = comdat any

$_ZN4apps5mojom15SubscriberProxyD0Ev = comdat any

$_ZN4apps5mojom26SubscriberRequestValidatorD0Ev = comdat any

$_ZN4base8internal7InvokerINS0_9BindStateIMN4apps5mojom36AppService_LoadIcon_ProxyToResponderEFvN4mojo9StructPtrINS4_9IconValueEEEEJNSt3__110unique_ptrIS5_NSC_14default_deleteIS5_EEEEEEEFvS9_EE7RunOnceEPNS0_13BindStateBaseEOS9_ = comdat any

$_ZN4base8internal9BindStateIMN4apps5mojom36AppService_LoadIcon_ProxyToResponderEFvN4mojo9StructPtrINS3_9IconValueEEEEJNSt3__110unique_ptrIS4_NSB_14default_deleteIS4_EEEEEE7DestroyEPKNS0_13BindStateBaseE = comdat any

$_ZN4base8internal7InvokerINS0_9BindStateIMN4apps5mojom40AppService_GetMenuModel_ProxyToResponderEFvN4mojo9StructPtrINS4_9MenuItemsEEEEJNSt3__110unique_ptrIS5_NSC_14default_deleteIS5_EEEEEEEFvS9_EE7RunOnceEPNS0_13BindStateBaseEOS9_ = comdat any

$_ZN4base8internal9BindStateIMN4apps5mojom40AppService_GetMenuModel_ProxyToResponderEFvN4mojo9StructPtrINS3_9MenuItemsEEEEJNSt3__110unique_ptrIS4_NSB_14default_deleteIS4_EEEEEE7DestroyEPKNS0_13BindStateBaseE = comdat any

$_ZN4base8internal7InvokerINS0_9BindStateIMN4apps5mojom35Publisher_LoadIcon_ProxyToResponderEFvN4mojo9StructPtrINS4_9IconValueEEEEJNSt3__110unique_ptrIS5_NSC_14default_deleteIS5_EEEEEEEFvS9_EE7RunOnceEPNS0_13BindStateBaseEOS9_ = comdat any

$_ZN4base8internal9BindStateIMN4apps5mojom35Publisher_LoadIcon_ProxyToResponderEFvN4mojo9StructPtrINS3_9IconValueEEEEJNSt3__110unique_ptrIS4_NSB_14default_deleteIS4_EEEEEE7DestroyEPKNS0_13BindStateBaseE = comdat any

$_ZN4base8internal7InvokerINS0_9BindStateIMN4apps5mojom39Publisher_GetMenuModel_ProxyToResponderEFvN4mojo9StructPtrINS4_9MenuItemsEEEEJNSt3__110unique_ptrIS5_NSC_14default_deleteIS5_EEEEEEEFvS9_EE7RunOnceEPNS0_13BindStateBaseEOS9_ = comdat any

$_ZN4base8internal9BindStateIMN4apps5mojom39Publisher_GetMenuModel_ProxyToResponderEFvN4mojo9StructPtrINS3_9MenuItemsEEEEJNSt3__110unique_ptrIS4_NSB_14default_deleteIS4_EEEEEE7DestroyEPKNS0_13BindStateBaseE = comdat any

$_ZN4mojo8internal10SerializerINS_14StringDataViewEKNSt3__112basic_stringIcNS3_11char_traitsIcEENS3_9allocatorIcEEEEE9SerializeERSA_RNS0_15MessageFragmentINS0_10Array_DataIcEEEE = comdat any

$_ZN4mojo8internal10SerializerIN4apps5mojom18WindowInfoDataViewENS_9StructPtrINS3_10WindowInfoEEEE9SerializeERS7_RNS0_15MessageFragmentINS3_8internal15WindowInfo_DataEEE = comdat any

$_ZN4mojo8internal10SerializerIN4apps5mojom17FilePathsDataViewENS_9StructPtrINS3_9FilePathsEEEE9SerializeERS7_RNS0_15MessageFragmentINS3_8internal14FilePaths_DataEEE = comdat any

$_ZN4mojo8internal15ArraySerializerINS_13ArrayDataViewIN9mojo_base5mojom16FilePathDataViewEEEKNSt3__16vectorIN4base8FilePathENS7_9allocatorISA_EEEENS0_13ArrayIteratorINS_11ArrayTraitsISD_EESE_Lb0EEEvE17SerializeElementsEPSI_RNS0_15MessageFragmentINS0_10Array_DataINS0_7PointerINS4_8internal13FilePath_DataEEEEEEEPKNS0_23ContainerValidateParamsE = comdat any

$_ZN4mojo8internal10SerializerIN4apps5mojom14IntentDataViewENS_9StructPtrINS3_6IntentEEEE9SerializeERS7_RNS0_15MessageFragmentINS3_8internal11Intent_DataEEE = comdat any

$_ZN4mojo8internal15ArraySerializerINS_13ArrayDataViewIN3url5mojom11UrlDataViewEEEKNSt3__16vectorI4GURLNS7_9allocatorIS9_EEEENS0_13ArrayIteratorINS_11ArrayTraitsISC_EESD_Lb0EEEvE17SerializeElementsEPSH_RNS0_15MessageFragmentINS0_10Array_DataINS0_7PointerINS4_8internal8Url_DataEEEEEEEPKNS0_23ContainerValidateParamsE = comdat any

$_ZN4mojo8internal10SerializerINS_11MapDataViewINS_14StringDataViewES3_EEKN4base8flat_mapINSt3__112basic_stringIcNS7_11char_traitsIcEENS7_9allocatorIcEEEESD_NS7_4lessIvEENS7_6vectorINS7_4pairISD_SD_EENSB_ISI_EEEEEEE9SerializeERSM_RNS0_15MessageFragmentINS0_8Map_DataINS0_7PointerINS0_10Array_DataIcEEEESU_EEEEPKNS0_23ContainerValidateParamsE = comdat any

$_ZN4mojo8internal10SerializerIN4apps5mojom20IntentFilterDataViewENS_9StructPtrINS3_12IntentFilterEEEE9SerializeERS7_RNS0_15MessageFragmentINS3_8internal17IntentFilter_DataEEE = comdat any

$_ZN4mojo8internal10SerializerIN4apps5mojom17ConditionDataViewEKNS_9StructPtrINS3_9ConditionEEEE9SerializeERS8_RNS0_15MessageFragmentINS3_8internal14Condition_DataEEE = comdat any

$_ZN4mojo8internal15ArraySerializerINS_13ArrayDataViewIN4apps5mojom22ConditionValueDataViewEEEKNSt3__16vectorINS_16InlinedStructPtrINS4_14ConditionValueEEENS7_9allocatorISB_EEEENS0_13ArrayIteratorINS_11ArrayTraitsISE_EESF_Lb0EEEvE17SerializeElementsEPSJ_RNS0_15MessageFragmentINS0_10Array_DataINS0_7PointerINS4_8internal19ConditionValue_DataEEEEEEEPKNS0_23ContainerValidateParamsE = comdat any

$_ZN4mojo8internal10SerializerIN4apps5mojom17IconValueDataViewENS_9StructPtrINS3_9IconValueEEEE9SerializeERS7_RNS0_15MessageFragmentINS3_8internal14IconValue_DataEEE = comdat any

$_ZN4mojo8internal10SerializerIN3gfx5mojom17ImageSkiaDataViewENS2_9ImageSkiaEE9SerializeERS5_RNS0_15MessageFragmentINS3_8internal14ImageSkia_DataEEE = comdat any

$_ZN4mojo8internal10SerializerIN3gfx5mojom20ImageSkiaRepDataViewENS2_12ImageSkiaRepEE9SerializeERS5_RNS0_15MessageFragmentINS3_8internal17ImageSkiaRep_DataEEE = comdat any

$_ZN4mojo8internal10SerializerIN4skia5mojom30BitmapWithArbitraryBppDataViewE8SkBitmapE9SerializeERS5_RNS0_15MessageFragmentINS3_8internal27BitmapWithArbitraryBpp_DataEEE = comdat any

$_ZN4mojo8internal10SerializerIN4skia5mojom17ImageInfoDataViewEK11SkImageInfoE9SerializeERS6_RNS0_15MessageFragmentINS3_8internal14ImageInfo_DataEEE = comdat any

$_ZN4mojo8internal10SerializerIN9mojo_base5mojom17BigBufferDataViewENS2_13BigBufferViewEE9SerializeERS5_RNS0_15MessageFragmentINS3_8internal14BigBuffer_DataEEEb = comdat any

$_ZN4mojo8internal10SerializerIN9mojo_base5mojom35BigBufferSharedMemoryRegionDataViewENS2_8internal27BigBufferSharedMemoryRegionEE9SerializeERS6_RNS0_15MessageFragmentINS3_8internal32BigBufferSharedMemoryRegion_DataEEE = comdat any

$_ZN4mojo8internal10SerializerIN4apps5mojom17MenuItemsDataViewENS_9StructPtrINS3_9MenuItemsEEEE9SerializeERS7_RNS0_15MessageFragmentINS3_8internal14MenuItems_DataEEE = comdat any

$_ZN4mojo8internal10SerializerIN4apps5mojom16MenuItemDataViewENS_9StructPtrINS3_8MenuItemEEEE9SerializeERS7_RNS0_15MessageFragmentINS3_8internal13MenuItem_DataEEE = comdat any

$_ZN4mojo8internal10SerializerIN4apps5mojom30ReplacedAppPreferencesDataViewENS_9StructPtrINS3_22ReplacedAppPreferencesEEEE9SerializeERS7_RNS0_15MessageFragmentINS3_8internal27ReplacedAppPreferences_DataEEE = comdat any

$_ZN4mojo8internal10SerializerINS_11MapDataViewINS_14StringDataViewENS_13ArrayDataViewIN4apps5mojom20IntentFilterDataViewEEEEEKN4base8flat_mapINSt3__112basic_stringIcNSC_11char_traitsIcEENSC_9allocatorIcEEEENSC_6vectorINS_9StructPtrINS6_12IntentFilterEEENSG_ISM_EEEENSC_4lessIvEENSJ_INSC_4pairISI_SO_EENSG_ISS_EEEEEEE9SerializeERSW_RNS0_15MessageFragmentINS0_8Map_DataINS0_7PointerINS0_10Array_DataIcEEEENS11_INS12_INS11_INS6_8internal17IntentFilter_DataEEEEEEEEEEEPKNS0_23ContainerValidateParamsE = comdat any

$_ZN4mojo8internal15ArraySerializerINS_13ArrayDataViewINS2_IN4apps5mojom20IntentFilterDataViewEEEEENSt3__16vectorINS9_INS_9StructPtrINS4_12IntentFilterEEENS8_9allocatorISC_EEEENSD_ISF_EEEENS0_14MapValueReaderIKN4base8flat_mapINS8_12basic_stringIcNS8_11char_traitsIcEENSD_IcEEEESF_NS8_4lessIvEENS9_INS8_4pairISP_SF_EENSD_IST_EEEEEEEEvE17SerializeElementsEPSY_RNS0_15MessageFragmentINS0_10Array_DataINS0_7PointerINS12_INS13_INS4_8internal17IntentFilter_DataEEEEEEEEEEEPKNS0_23ContainerValidateParamsE = comdat any

$_ZN4mojo8internal10SerializerIN4apps5mojom20IntentFilterDataViewEKNS_9StructPtrINS3_12IntentFilterEEEE9SerializeERS8_RNS0_15MessageFragmentINS3_8internal17IntentFilter_DataEEE = comdat any

$_ZN4mojo8internal10SerializerIN4apps5mojom11AppDataViewENS_9StructPtrINS3_3AppEEEE9SerializeERS7_RNS0_15MessageFragmentINS3_8internal8App_DataEEE = comdat any

$_ZN4mojo8internal15ArraySerializerINS_13ArrayDataViewIN4apps5mojom18PermissionDataViewEEEKNSt3__16vectorINS_16InlinedStructPtrINS4_10PermissionEEENS7_9allocatorISB_EEEENS0_13ArrayIteratorINS_11ArrayTraitsISE_EESF_Lb0EEEvE17SerializeElementsEPSJ_RNS0_15MessageFragmentINS0_10Array_DataINS0_7PointerINS4_8internal15Permission_DataEEEEEEEPKNS0_23ContainerValidateParamsE = comdat any

$_ZN4mojo8internal15ArraySerializerINS_13ArrayDataViewIN4apps5mojom24CapabilityAccessDataViewEEENSt3__16vectorINS_16InlinedStructPtrINS4_16CapabilityAccessEEENS7_9allocatorISB_EEEENS0_13ArrayIteratorINS_11ArrayTraitsISE_EESE_Lb0EEEvE17SerializeElementsEPSI_RNS0_15MessageFragmentINS0_10Array_DataINS0_7PointerINS4_8internal21CapabilityAccess_DataEEEEEEEPKNS0_23ContainerValidateParamsE = comdat any

$_ZN4mojo8internal10SerializerIN4apps5mojom20PreferredAppDataViewENS_9StructPtrINS3_12PreferredAppEEEE9SerializeERS7_RNS0_15MessageFragmentINS3_8internal17PreferredApp_DataEEE = comdat any

@_ZN4apps5mojom10AppService5Name_E = hidden constant [22 x i8] c"apps.mojom.AppService\00", align 16
@_ZTVN4apps5mojom15AppServiceProxyE = hidden unnamed_addr constant { [22 x i8*] } { [22 x i8*] [i8* null, i8* null, i8* bitcast (void (%"class.apps::mojom::AppService"*)* @_ZN4apps5mojom10AppServiceD2Ev to i8*), i8* bitcast (void (%"class.apps::mojom::AppServiceProxy"*)* @_ZN4apps5mojom15AppServiceProxyD0Ev to i8*), i8* bitcast (void (%"class.apps::mojom::AppServiceProxy"*, %"class.mojo::PendingRemote"*, i32)* @_ZN4apps5mojom15AppServiceProxy17RegisterPublisherEN4mojo13PendingRemoteINS0_9PublisherEEENS0_7AppTypeE to i8*), i8* bitcast (void (%"class.apps::mojom::AppServiceProxy"*, %"class.mojo::PendingRemote.26"*, %"class.mojo::InlinedStructPtr"*)* @_ZN4apps5mojom15AppServiceProxy18RegisterSubscriberEN4mojo13PendingRemoteINS0_10SubscriberEEENS2_16InlinedStructPtrINS0_14ConnectOptionsEEE to i8*), i8* bitcast (void (%"class.apps::mojom::AppServiceProxy"*, i32, %"class.std::__1::basic_string"*, %"class.mojo::InlinedStructPtr.34"*, i32, i32, i1, %"class.base::OnceCallback"*)* @_ZN4apps5mojom15AppServiceProxy8LoadIconENS0_7AppTypeERKNSt3__112basic_stringIcNS3_11char_traitsIcEENS3_9allocatorIcEEEEN4mojo16InlinedStructPtrINS0_7IconKeyEEENS0_8IconTypeEibN4base12OnceCallbackIFvNSC_9StructPtrINS0_9IconValueEEEEEE to i8*), i8* bitcast (void (%"class.apps::mojom::AppServiceProxy"*, i32, %"class.std::__1::basic_string"*, i32, i32, %"class.mojo::StructPtr"*)* @_ZN4apps5mojom15AppServiceProxy6LaunchENS0_7AppTypeERKNSt3__112basic_stringIcNS3_11char_traitsIcEENS3_9allocatorIcEEEEiNS0_12LaunchSourceEN4mojo9StructPtrINS0_10WindowInfoEEE to i8*), i8* bitcast (void (%"class.apps::mojom::AppServiceProxy"*, i32, %"class.std::__1::basic_string"*, i32, i32, i32, %"class.mojo::StructPtr.54"*)* @_ZN4apps5mojom15AppServiceProxy18LaunchAppWithFilesENS0_7AppTypeERKNSt3__112basic_stringIcNS3_11char_traitsIcEENS3_9allocatorIcEEEENS0_15LaunchContainerEiNS0_12LaunchSourceEN4mojo9StructPtrINS0_9FilePathsEEE to i8*), i8* bitcast (void (%"class.apps::mojom::AppServiceProxy"*, i32, %"class.std::__1::basic_string"*, i32, %"class.mojo::StructPtr.72"*, i32, %"class.mojo::StructPtr"*)* @_ZN4apps5mojom15AppServiceProxy19LaunchAppWithIntentENS0_7AppTypeERKNSt3__112basic_stringIcNS3_11char_traitsIcEENS3_9allocatorIcEEEEiN4mojo9StructPtrINS0_6IntentEEENS0_12LaunchSourceENSD_INS0_10WindowInfoEEE to i8*), i8* bitcast (void (%"class.apps::mojom::AppServiceProxy"*, i32, %"class.std::__1::basic_string"*, %"class.mojo::InlinedStructPtr.133"*)* @_ZN4apps5mojom15AppServiceProxy13SetPermissionENS0_7AppTypeERKNSt3__112basic_stringIcNS3_11char_traitsIcEENS3_9allocatorIcEEEEN4mojo16InlinedStructPtrINS0_10PermissionEEE to i8*), i8* bitcast (void (%"class.apps::mojom::AppServiceProxy"*, i32, %"class.std::__1::basic_string"*, i32, i1, i1)* @_ZN4apps5mojom15AppServiceProxy9UninstallENS0_7AppTypeERKNSt3__112basic_stringIcNS3_11char_traitsIcEENS3_9allocatorIcEEEENS0_15UninstallSourceEbb to i8*), i8* bitcast (void (%"class.apps::mojom::AppServiceProxy"*, i32, %"class.std::__1::basic_string"*)* @_ZN4apps5mojom15AppServiceProxy8PauseAppENS0_7AppTypeERKNSt3__112basic_stringIcNS3_11char_traitsIcEENS3_9allocatorIcEEEE to i8*), i8* bitcast (void (%"class.apps::mojom::AppServiceProxy"*, i32, %"class.std::__1::basic_string"*)* @_ZN4apps5mojom15AppServiceProxy11UnpauseAppsENS0_7AppTypeERKNSt3__112basic_stringIcNS3_11char_traitsIcEENS3_9allocatorIcEEEE to i8*), i8* bitcast (void (%"class.apps::mojom::AppServiceProxy"*, i32, %"class.std::__1::basic_string"*)* @_ZN4apps5mojom15AppServiceProxy7StopAppENS0_7AppTypeERKNSt3__112basic_stringIcNS3_11char_traitsIcEENS3_9allocatorIcEEEE to i8*), i8* bitcast (void (%"class.apps::mojom::AppServiceProxy"*, i32, %"class.std::__1::basic_string"*, i32, i64, %"class.base::OnceCallback.141"*)* @_ZN4apps5mojom15AppServiceProxy12GetMenuModelENS0_7AppTypeERKNSt3__112basic_stringIcNS3_11char_traitsIcEENS3_9allocatorIcEEEENS0_8MenuTypeElN4base12OnceCallbackIFvN4mojo9StructPtrINS0_9MenuItemsEEEEEE to i8*), i8* bitcast (void (%"class.apps::mojom::AppServiceProxy"*, i32, %"class.std::__1::basic_string"*, i32, %"class.std::__1::basic_string"*, i64)* @_ZN4apps5mojom15AppServiceProxy25ExecuteContextMenuCommandENS0_7AppTypeERKNSt3__112basic_stringIcNS3_11char_traitsIcEENS3_9allocatorIcEEEEiSB_l to i8*), i8* bitcast (void (%"class.apps::mojom::AppServiceProxy"*, i32, %"class.std::__1::basic_string"*)* @_ZN4apps5mojom15AppServiceProxy18OpenNativeSettingsENS0_7AppTypeERKNSt3__112basic_stringIcNS3_11char_traitsIcEENS3_9allocatorIcEEEE to i8*), i8* bitcast (void (%"class.apps::mojom::AppServiceProxy"*, i32, %"class.std::__1::basic_string"*, %"class.mojo::StructPtr.145"*, %"class.mojo::StructPtr.72"*, i1)* @_ZN4apps5mojom15AppServiceProxy15AddPreferredAppENS0_7AppTypeERKNSt3__112basic_stringIcNS3_11char_traitsIcEENS3_9allocatorIcEEEEN4mojo9StructPtrINS0_12IntentFilterEEENSD_INS0_6IntentEEEb to i8*), i8* bitcast (void (%"class.apps::mojom::AppServiceProxy"*, i32, %"class.std::__1::basic_string"*)* @_ZN4apps5mojom15AppServiceProxy18RemovePreferredAppENS0_7AppTypeERKNSt3__112basic_stringIcNS3_11char_traitsIcEENS3_9allocatorIcEEEE to i8*), i8* bitcast (void (%"class.apps::mojom::AppServiceProxy"*, i32, %"class.std::__1::basic_string"*, %"class.mojo::StructPtr.145"*)* @_ZN4apps5mojom15AppServiceProxy27RemovePreferredAppForFilterENS0_7AppTypeERKNSt3__112basic_stringIcNS3_11char_traitsIcEENS3_9allocatorIcEEEEN4mojo9StructPtrINS0_12IntentFilterEEE to i8*), i8* bitcast (void (%"class.apps::mojom::AppServiceProxy"*, i32, %"class.std::__1::basic_string"*, i32)* @_ZN4apps5mojom15AppServiceProxy15SetResizeLockedENS0_7AppTypeERKNSt3__112basic_stringIcNS3_11char_traitsIcEENS3_9allocatorIcEEEENS0_12OptionalBoolE to i8*)] }, align 8
@_ZN4apps5mojomL25kAppServiceValidationInfoE = internal constant [18 x %"struct.std::__1::pair.238"] [%"struct.std::__1::pair.238" { i32 1269222429, %"struct.mojo::internal::GenericValidationInfo" { i1 (i8*, %"class.mojo::internal::ValidationContext"*)* @_ZN4apps5mojom8internal40AppService_RegisterPublisher_Params_Data8ValidateEPKvPN4mojo8internal17ValidationContextE, i1 (i8*, %"class.mojo::internal::ValidationContext"*)* null } }, %"struct.std::__1::pair.238" { i32 31622414, %"struct.mojo::internal::GenericValidationInfo" { i1 (i8*, %"class.mojo::internal::ValidationContext"*)* @_ZN4apps5mojom8internal41AppService_RegisterSubscriber_Params_Data8ValidateEPKvPN4mojo8internal17ValidationContextE, i1 (i8*, %"class.mojo::internal::ValidationContext"*)* null } }, %"struct.std::__1::pair.238" { i32 1654379519, %"struct.mojo::internal::GenericValidationInfo" { i1 (i8*, %"class.mojo::internal::ValidationContext"*)* @_ZN4apps5mojom8internal31AppService_LoadIcon_Params_Data8ValidateEPKvPN4mojo8internal17ValidationContextE, i1 (i8*, %"class.mojo::internal::ValidationContext"*)* @_ZN4apps5mojom8internal39AppService_LoadIcon_ResponseParams_Data8ValidateEPKvPN4mojo8internal17ValidationContextE } }, %"struct.std::__1::pair.238" { i32 190162557, %"struct.mojo::internal::GenericValidationInfo" { i1 (i8*, %"class.mojo::internal::ValidationContext"*)* @_ZN4apps5mojom8internal29AppService_Launch_Params_Data8ValidateEPKvPN4mojo8internal17ValidationContextE, i1 (i8*, %"class.mojo::internal::ValidationContext"*)* null } }, %"struct.std::__1::pair.238" { i32 1474195162, %"struct.mojo::internal::GenericValidationInfo" { i1 (i8*, %"class.mojo::internal::ValidationContext"*)* @_ZN4apps5mojom8internal41AppService_LaunchAppWithFiles_Params_Data8ValidateEPKvPN4mojo8internal17ValidationContextE, i1 (i8*, %"class.mojo::internal::ValidationContext"*)* null } }, %"struct.std::__1::pair.238" { i32 1452583878, %"struct.mojo::internal::GenericValidationInfo" { i1 (i8*, %"class.mojo::internal::ValidationContext"*)* @_ZN4apps5mojom8internal42AppService_LaunchAppWithIntent_Params_Data8ValidateEPKvPN4mojo8internal17ValidationContextE, i1 (i8*, %"class.mojo::internal::ValidationContext"*)* null } }, %"struct.std::__1::pair.238" { i32 925018103, %"struct.mojo::internal::GenericValidationInfo" { i1 (i8*, %"class.mojo::internal::ValidationContext"*)* @_ZN4apps5mojom8internal36AppService_SetPermission_Params_Data8ValidateEPKvPN4mojo8internal17ValidationContextE, i1 (i8*, %"class.mojo::internal::ValidationContext"*)* null } }, %"struct.std::__1::pair.238" { i32 1040415584, %"struct.mojo::internal::GenericValidationInfo" { i1 (i8*, %"class.mojo::internal::ValidationContext"*)* @_ZN4apps5mojom8internal32AppService_Uninstall_Params_Data8ValidateEPKvPN4mojo8internal17ValidationContextE, i1 (i8*, %"class.mojo::internal::ValidationContext"*)* null } }, %"struct.std::__1::pair.238" { i32 393733750, %"struct.mojo::internal::GenericValidationInfo" { i1 (i8*, %"class.mojo::internal::ValidationContext"*)* @_ZN4apps5mojom8internal31AppService_PauseApp_Params_Data8ValidateEPKvPN4mojo8internal17ValidationContextE, i1 (i8*, %"class.mojo::internal::ValidationContext"*)* null } }, %"struct.std::__1::pair.238" { i32 1408713315, %"struct.mojo::internal::GenericValidationInfo" { i1 (i8*, %"class.mojo::internal::ValidationContext"*)* @_ZN4apps5mojom8internal34AppService_UnpauseApps_Params_Data8ValidateEPKvPN4mojo8internal17ValidationContextE, i1 (i8*, %"class.mojo::internal::ValidationContext"*)* null } }, %"struct.std::__1::pair.238" { i32 639807126, %"struct.mojo::internal::GenericValidationInfo" { i1 (i8*, %"class.mojo::internal::ValidationContext"*)* @_ZN4apps5mojom8internal30AppService_StopApp_Params_Data8ValidateEPKvPN4mojo8internal17ValidationContextE, i1 (i8*, %"class.mojo::internal::ValidationContext"*)* null } }, %"struct.std::__1::pair.238" { i32 688497112, %"struct.mojo::internal::GenericValidationInfo" { i1 (i8*, %"class.mojo::internal::ValidationContext"*)* @_ZN4apps5mojom8internal35AppService_GetMenuModel_Params_Data8ValidateEPKvPN4mojo8internal17ValidationContextE, i1 (i8*, %"class.mojo::internal::ValidationContext"*)* @_ZN4apps5mojom8internal43AppService_GetMenuModel_ResponseParams_Data8ValidateEPKvPN4mojo8internal17ValidationContextE } }, %"struct.std::__1::pair.238" { i32 1058887710, %"struct.mojo::internal::GenericValidationInfo" { i1 (i8*, %"class.mojo::internal::ValidationContext"*)* @_ZN4apps5mojom8internal48AppService_ExecuteContextMenuCommand_Params_Data8ValidateEPKvPN4mojo8internal17ValidationContextE, i1 (i8*, %"class.mojo::internal::ValidationContext"*)* null } }, %"struct.std::__1::pair.238" { i32 1124174779, %"struct.mojo::internal::GenericValidationInfo" { i1 (i8*, %"class.mojo::internal::ValidationContext"*)* @_ZN4apps5mojom8internal41AppService_OpenNativeSettings_Params_Data8ValidateEPKvPN4mojo8internal17ValidationContextE, i1 (i8*, %"class.mojo::internal::ValidationContext"*)* null } }, %"struct.std::__1::pair.238" { i32 1039645618, %"struct.mojo::internal::GenericValidationInfo" { i1 (i8*, %"class.mojo::internal::ValidationContext"*)* @_ZN4apps5mojom8internal38AppService_AddPreferredApp_Params_Data8ValidateEPKvPN4mojo8internal17ValidationContextE, i1 (i8*, %"class.mojo::internal::ValidationContext"*)* null } }, %"struct.std::__1::pair.238" { i32 762693403, %"struct.mojo::internal::GenericValidationInfo" { i1 (i8*, %"class.mojo::internal::ValidationContext"*)* @_ZN4apps5mojom8internal41AppService_RemovePreferredApp_Params_Data8ValidateEPKvPN4mojo8internal17ValidationContextE, i1 (i8*, %"class.mojo::internal::ValidationContext"*)* null } }, %"struct.std::__1::pair.238" { i32 1233201, %"struct.mojo::internal::GenericValidationInfo" { i1 (i8*, %"class.mojo::internal::ValidationContext"*)* @_ZN4apps5mojom8internal50AppService_RemovePreferredAppForFilter_Params_Data8ValidateEPKvPN4mojo8internal17ValidationContextE, i1 (i8*, %"class.mojo::internal::ValidationContext"*)* null } }, %"struct.std::__1::pair.238" { i32 2115867878, %"struct.mojo::internal::GenericValidationInfo" { i1 (i8*, %"class.mojo::internal::ValidationContext"*)* @_ZN4apps5mojom8internal38AppService_SetResizeLocked_Params_Data8ValidateEPKvPN4mojo8internal17ValidationContextE, i1 (i8*, %"class.mojo::internal::ValidationContext"*)* null } }], align 16
@_ZN4apps5mojom9Publisher5Name_E = hidden constant [21 x i8] c"apps.mojom.Publisher\00", align 16
@_ZTVN4apps5mojom14PublisherProxyE = hidden unnamed_addr constant { [19 x i8*] } { [19 x i8*] [i8* null, i8* null, i8* bitcast (void (%"class.apps::mojom::Publisher"*)* @_ZN4apps5mojom9PublisherD2Ev to i8*), i8* bitcast (void (%"class.apps::mojom::PublisherProxy"*)* @_ZN4apps5mojom14PublisherProxyD0Ev to i8*), i8* bitcast (void (%"class.apps::mojom::PublisherProxy"*, %"class.mojo::PendingRemote.26"*, %"class.mojo::InlinedStructPtr"*)* @_ZN4apps5mojom14PublisherProxy7ConnectEN4mojo13PendingRemoteINS0_10SubscriberEEENS2_16InlinedStructPtrINS0_14ConnectOptionsEEE to i8*), i8* bitcast (void (%"class.apps::mojom::PublisherProxy"*, %"class.std::__1::basic_string"*, %"class.mojo::InlinedStructPtr.34"*, i32, i32, i1, %"class.base::OnceCallback"*)* @_ZN4apps5mojom14PublisherProxy8LoadIconERKNSt3__112basic_stringIcNS2_11char_traitsIcEENS2_9allocatorIcEEEEN4mojo16InlinedStructPtrINS0_7IconKeyEEENS0_8IconTypeEibN4base12OnceCallbackIFvNSB_9StructPtrINS0_9IconValueEEEEEE to i8*), i8* bitcast (void (%"class.apps::mojom::PublisherProxy"*, %"class.std::__1::basic_string"*, i32, i32, %"class.mojo::StructPtr"*)* @_ZN4apps5mojom14PublisherProxy6LaunchERKNSt3__112basic_stringIcNS2_11char_traitsIcEENS2_9allocatorIcEEEEiNS0_12LaunchSourceEN4mojo9StructPtrINS0_10WindowInfoEEE to i8*), i8* bitcast (void (%"class.apps::mojom::PublisherProxy"*, %"class.std::__1::basic_string"*, i32, i32, i32, %"class.mojo::StructPtr.54"*)* @_ZN4apps5mojom14PublisherProxy18LaunchAppWithFilesERKNSt3__112basic_stringIcNS2_11char_traitsIcEENS2_9allocatorIcEEEENS0_15LaunchContainerEiNS0_12LaunchSourceEN4mojo9StructPtrINS0_9FilePathsEEE to i8*), i8* bitcast (void (%"class.apps::mojom::PublisherProxy"*, %"class.std::__1::basic_string"*, i32, %"class.mojo::StructPtr.72"*, i32, %"class.mojo::StructPtr"*)* @_ZN4apps5mojom14PublisherProxy19LaunchAppWithIntentERKNSt3__112basic_stringIcNS2_11char_traitsIcEENS2_9allocatorIcEEEEiN4mojo9StructPtrINS0_6IntentEEENS0_12LaunchSourceENSC_INS0_10WindowInfoEEE to i8*), i8* bitcast (void (%"class.apps::mojom::PublisherProxy"*, %"class.std::__1::basic_string"*, %"class.mojo::InlinedStructPtr.133"*)* @_ZN4apps5mojom14PublisherProxy13SetPermissionERKNSt3__112basic_stringIcNS2_11char_traitsIcEENS2_9allocatorIcEEEEN4mojo16InlinedStructPtrINS0_10PermissionEEE to i8*), i8* bitcast (void (%"class.apps::mojom::PublisherProxy"*, %"class.std::__1::basic_string"*, i32, i1, i1)* @_ZN4apps5mojom14PublisherProxy9UninstallERKNSt3__112basic_stringIcNS2_11char_traitsIcEENS2_9allocatorIcEEEENS0_15UninstallSourceEbb to i8*), i8* bitcast (void (%"class.apps::mojom::PublisherProxy"*, %"class.std::__1::basic_string"*)* @_ZN4apps5mojom14PublisherProxy8PauseAppERKNSt3__112basic_stringIcNS2_11char_traitsIcEENS2_9allocatorIcEEEE to i8*), i8* bitcast (void (%"class.apps::mojom::PublisherProxy"*, %"class.std::__1::basic_string"*)* @_ZN4apps5mojom14PublisherProxy11UnpauseAppsERKNSt3__112basic_stringIcNS2_11char_traitsIcEENS2_9allocatorIcEEEE to i8*), i8* bitcast (void (%"class.apps::mojom::PublisherProxy"*, %"class.std::__1::basic_string"*)* @_ZN4apps5mojom14PublisherProxy7StopAppERKNSt3__112basic_stringIcNS2_11char_traitsIcEENS2_9allocatorIcEEEE to i8*), i8* bitcast (void (%"class.apps::mojom::PublisherProxy"*, %"class.std::__1::basic_string"*, i32, i64, %"class.base::OnceCallback.141"*)* @_ZN4apps5mojom14PublisherProxy12GetMenuModelERKNSt3__112basic_stringIcNS2_11char_traitsIcEENS2_9allocatorIcEEEENS0_8MenuTypeElN4base12OnceCallbackIFvN4mojo9StructPtrINS0_9MenuItemsEEEEEE to i8*), i8* bitcast (void (%"class.apps::mojom::PublisherProxy"*, %"class.std::__1::basic_string"*, i32, %"class.std::__1::basic_string"*, i64)* @_ZN4apps5mojom14PublisherProxy25ExecuteContextMenuCommandERKNSt3__112basic_stringIcNS2_11char_traitsIcEENS2_9allocatorIcEEEEiSA_l to i8*), i8* bitcast (void (%"class.apps::mojom::PublisherProxy"*, %"class.std::__1::basic_string"*)* @_ZN4apps5mojom14PublisherProxy18OpenNativeSettingsERKNSt3__112basic_stringIcNS2_11char_traitsIcEENS2_9allocatorIcEEEE to i8*), i8* bitcast (void (%"class.apps::mojom::PublisherProxy"*, %"class.std::__1::basic_string"*, %"class.mojo::StructPtr.145"*, %"class.mojo::StructPtr.72"*, %"class.mojo::StructPtr.252"*)* @_ZN4apps5mojom14PublisherProxy17OnPreferredAppSetERKNSt3__112basic_stringIcNS2_11char_traitsIcEENS2_9allocatorIcEEEEN4mojo9StructPtrINS0_12IntentFilterEEENSC_INS0_6IntentEEENSC_INS0_22ReplacedAppPreferencesEEE to i8*), i8* bitcast (void (%"class.apps::mojom::PublisherProxy"*, %"class.std::__1::basic_string"*, i32)* @_ZN4apps5mojom14PublisherProxy15SetResizeLockedERKNSt3__112basic_stringIcNS2_11char_traitsIcEENS2_9allocatorIcEEEENS0_12OptionalBoolE to i8*)] }, align 8
@_ZN4apps5mojomL24kPublisherValidationInfoE = internal constant [15 x %"struct.std::__1::pair.238"] [%"struct.std::__1::pair.238" { i32 758632775, %"struct.mojo::internal::GenericValidationInfo" { i1 (i8*, %"class.mojo::internal::ValidationContext"*)* @_ZN4apps5mojom8internal29Publisher_Connect_Params_Data8ValidateEPKvPN4mojo8internal17ValidationContextE, i1 (i8*, %"class.mojo::internal::ValidationContext"*)* null } }, %"struct.std::__1::pair.238" { i32 564652436, %"struct.mojo::internal::GenericValidationInfo" { i1 (i8*, %"class.mojo::internal::ValidationContext"*)* @_ZN4apps5mojom8internal30Publisher_LoadIcon_Params_Data8ValidateEPKvPN4mojo8internal17ValidationContextE, i1 (i8*, %"class.mojo::internal::ValidationContext"*)* @_ZN4apps5mojom8internal38Publisher_LoadIcon_ResponseParams_Data8ValidateEPKvPN4mojo8internal17ValidationContextE } }, %"struct.std::__1::pair.238" { i32 795981121, %"struct.mojo::internal::GenericValidationInfo" { i1 (i8*, %"class.mojo::internal::ValidationContext"*)* @_ZN4apps5mojom8internal28Publisher_Launch_Params_Data8ValidateEPKvPN4mojo8internal17ValidationContextE, i1 (i8*, %"class.mojo::internal::ValidationContext"*)* null } }, %"struct.std::__1::pair.238" { i32 11868631, %"struct.mojo::internal::GenericValidationInfo" { i1 (i8*, %"class.mojo::internal::ValidationContext"*)* @_ZN4apps5mojom8internal40Publisher_LaunchAppWithFiles_Params_Data8ValidateEPKvPN4mojo8internal17ValidationContextE, i1 (i8*, %"class.mojo::internal::ValidationContext"*)* null } }, %"struct.std::__1::pair.238" { i32 1365575316, %"struct.mojo::internal::GenericValidationInfo" { i1 (i8*, %"class.mojo::internal::ValidationContext"*)* @_ZN4apps5mojom8internal41Publisher_LaunchAppWithIntent_Params_Data8ValidateEPKvPN4mojo8internal17ValidationContextE, i1 (i8*, %"class.mojo::internal::ValidationContext"*)* null } }, %"struct.std::__1::pair.238" { i32 1494009330, %"struct.mojo::internal::GenericValidationInfo" { i1 (i8*, %"class.mojo::internal::ValidationContext"*)* @_ZN4apps5mojom8internal35Publisher_SetPermission_Params_Data8ValidateEPKvPN4mojo8internal17ValidationContextE, i1 (i8*, %"class.mojo::internal::ValidationContext"*)* null } }, %"struct.std::__1::pair.238" { i32 1744876093, %"struct.mojo::internal::GenericValidationInfo" { i1 (i8*, %"class.mojo::internal::ValidationContext"*)* @_ZN4apps5mojom8internal31Publisher_Uninstall_Params_Data8ValidateEPKvPN4mojo8internal17ValidationContextE, i1 (i8*, %"class.mojo::internal::ValidationContext"*)* null } }, %"struct.std::__1::pair.238" { i32 2077006813, %"struct.mojo::internal::GenericValidationInfo" { i1 (i8*, %"class.mojo::internal::ValidationContext"*)* @_ZN4apps5mojom8internal30Publisher_PauseApp_Params_Data8ValidateEPKvPN4mojo8internal17ValidationContextE, i1 (i8*, %"class.mojo::internal::ValidationContext"*)* null } }, %"struct.std::__1::pair.238" { i32 122204412, %"struct.mojo::internal::GenericValidationInfo" { i1 (i8*, %"class.mojo::internal::ValidationContext"*)* @_ZN4apps5mojom8internal33Publisher_UnpauseApps_Params_Data8ValidateEPKvPN4mojo8internal17ValidationContextE, i1 (i8*, %"class.mojo::internal::ValidationContext"*)* null } }, %"struct.std::__1::pair.238" { i32 1814059074, %"struct.mojo::internal::GenericValidationInfo" { i1 (i8*, %"class.mojo::internal::ValidationContext"*)* @_ZN4apps5mojom8internal29Publisher_StopApp_Params_Data8ValidateEPKvPN4mojo8internal17ValidationContextE, i1 (i8*, %"class.mojo::internal::ValidationContext"*)* null } }, %"struct.std::__1::pair.238" { i32 101876180, %"struct.mojo::internal::GenericValidationInfo" { i1 (i8*, %"class.mojo::internal::ValidationContext"*)* @_ZN4apps5mojom8internal34Publisher_GetMenuModel_Params_Data8ValidateEPKvPN4mojo8internal17ValidationContextE, i1 (i8*, %"class.mojo::internal::ValidationContext"*)* @_ZN4apps5mojom8internal42Publisher_GetMenuModel_ResponseParams_Data8ValidateEPKvPN4mojo8internal17ValidationContextE } }, %"struct.std::__1::pair.238" { i32 1090443673, %"struct.mojo::internal::GenericValidationInfo" { i1 (i8*, %"class.mojo::internal::ValidationContext"*)* @_ZN4apps5mojom8internal47Publisher_ExecuteContextMenuCommand_Params_Data8ValidateEPKvPN4mojo8internal17ValidationContextE, i1 (i8*, %"class.mojo::internal::ValidationContext"*)* null } }, %"struct.std::__1::pair.238" { i32 1697545765, %"struct.mojo::internal::GenericValidationInfo" { i1 (i8*, %"class.mojo::internal::ValidationContext"*)* @_ZN4apps5mojom8internal40Publisher_OpenNativeSettings_Params_Data8ValidateEPKvPN4mojo8internal17ValidationContextE, i1 (i8*, %"class.mojo::internal::ValidationContext"*)* null } }, %"struct.std::__1::pair.238" { i32 1793661939, %"struct.mojo::internal::GenericValidationInfo" { i1 (i8*, %"class.mojo::internal::ValidationContext"*)* @_ZN4apps5mojom8internal39Publisher_OnPreferredAppSet_Params_Data8ValidateEPKvPN4mojo8internal17ValidationContextE, i1 (i8*, %"class.mojo::internal::ValidationContext"*)* null } }, %"struct.std::__1::pair.238" { i32 1750079162, %"struct.mojo::internal::GenericValidationInfo" { i1 (i8*, %"class.mojo::internal::ValidationContext"*)* @_ZN4apps5mojom8internal37Publisher_SetResizeLocked_Params_Data8ValidateEPKvPN4mojo8internal17ValidationContextE, i1 (i8*, %"class.mojo::internal::ValidationContext"*)* null } }], align 16
@_ZN4apps5mojom10Subscriber5Name_E = hidden constant [22 x i8] c"apps.mojom.Subscriber\00", align 16
@_ZTVN4apps5mojom15SubscriberProxyE = hidden unnamed_addr constant { [10 x i8*] } { [10 x i8*] [i8* null, i8* null, i8* bitcast (void (%"class.apps::mojom::Subscriber"*)* @_ZN4apps5mojom10SubscriberD2Ev to i8*), i8* bitcast (void (%"class.apps::mojom::SubscriberProxy"*)* @_ZN4apps5mojom15SubscriberProxyD0Ev to i8*), i8* bitcast (void (%"class.apps::mojom::SubscriberProxy"*, %"class.std::__1::vector.276"*, i32, i1)* @_ZN4apps5mojom15SubscriberProxy6OnAppsENSt3__16vectorIN4mojo9StructPtrINS0_3AppEEENS2_9allocatorIS7_EEEENS0_7AppTypeEb to i8*), i8* bitcast (void (%"class.apps::mojom::SubscriberProxy"*, %"class.std::__1::vector.313"*)* @_ZN4apps5mojom15SubscriberProxy20OnCapabilityAccessesENSt3__16vectorIN4mojo16InlinedStructPtrINS0_16CapabilityAccessEEENS2_9allocatorIS7_EEEE to i8*), i8* bitcast (void (%"class.apps::mojom::SubscriberProxy"*, %"class.mojo::PendingReceiver"*)* @_ZN4apps5mojom15SubscriberProxy5CloneEN4mojo15PendingReceiverINS0_10SubscriberEEE to i8*), i8* bitcast (void (%"class.apps::mojom::SubscriberProxy"*, %"class.std::__1::basic_string"*, %"class.mojo::StructPtr.145"*)* @_ZN4apps5mojom15SubscriberProxy17OnPreferredAppSetERKNSt3__112basic_stringIcNS2_11char_traitsIcEENS2_9allocatorIcEEEEN4mojo9StructPtrINS0_12IntentFilterEEE to i8*), i8* bitcast (void (%"class.apps::mojom::SubscriberProxy"*, %"class.std::__1::basic_string"*, %"class.mojo::StructPtr.145"*)* @_ZN4apps5mojom15SubscriberProxy21OnPreferredAppRemovedERKNSt3__112basic_stringIcNS2_11char_traitsIcEENS2_9allocatorIcEEEEN4mojo9StructPtrINS0_12IntentFilterEEE to i8*), i8* bitcast (void (%"class.apps::mojom::SubscriberProxy"*, %"class.std::__1::vector.329"*)* @_ZN4apps5mojom15SubscriberProxy23InitializePreferredAppsENSt3__16vectorIN4mojo9StructPtrINS0_12PreferredAppEEENS2_9allocatorIS7_EEEE to i8*)] }, align 8
@_ZN4apps5mojomL25kSubscriberValidationInfoE = internal constant [6 x %"struct.std::__1::pair.238"] [%"struct.std::__1::pair.238" { i32 646141336, %"struct.mojo::internal::GenericValidationInfo" { i1 (i8*, %"class.mojo::internal::ValidationContext"*)* @_ZN4apps5mojom8internal29Subscriber_OnApps_Params_Data8ValidateEPKvPN4mojo8internal17ValidationContextE, i1 (i8*, %"class.mojo::internal::ValidationContext"*)* null } }, %"struct.std::__1::pair.238" { i32 574490849, %"struct.mojo::internal::GenericValidationInfo" { i1 (i8*, %"class.mojo::internal::ValidationContext"*)* @_ZN4apps5mojom8internal43Subscriber_OnCapabilityAccesses_Params_Data8ValidateEPKvPN4mojo8internal17ValidationContextE, i1 (i8*, %"class.mojo::internal::ValidationContext"*)* null } }, %"struct.std::__1::pair.238" { i32 576941919, %"struct.mojo::internal::GenericValidationInfo" { i1 (i8*, %"class.mojo::internal::ValidationContext"*)* @_ZN4apps5mojom8internal28Subscriber_Clone_Params_Data8ValidateEPKvPN4mojo8internal17ValidationContextE, i1 (i8*, %"class.mojo::internal::ValidationContext"*)* null } }, %"struct.std::__1::pair.238" { i32 195638169, %"struct.mojo::internal::GenericValidationInfo" { i1 (i8*, %"class.mojo::internal::ValidationContext"*)* @_ZN4apps5mojom8internal40Subscriber_OnPreferredAppSet_Params_Data8ValidateEPKvPN4mojo8internal17ValidationContextE, i1 (i8*, %"class.mojo::internal::ValidationContext"*)* null } }, %"struct.std::__1::pair.238" { i32 500914701, %"struct.mojo::internal::GenericValidationInfo" { i1 (i8*, %"class.mojo::internal::ValidationContext"*)* @_ZN4apps5mojom8internal44Subscriber_OnPreferredAppRemoved_Params_Data8ValidateEPKvPN4mojo8internal17ValidationContextE, i1 (i8*, %"class.mojo::internal::ValidationContext"*)* null } }, %"struct.std::__1::pair.238" { i32 582045219, %"struct.mojo::internal::GenericValidationInfo" { i1 (i8*, %"class.mojo::internal::ValidationContext"*)* @_ZN4apps5mojom8internal46Subscriber_InitializePreferredApps_Params_Data8ValidateEPKvPN4mojo8internal17ValidationContextE, i1 (i8*, %"class.mojo::internal::ValidationContext"*)* null } }], align 16
@_ZTVN4apps5mojom37AppService_LoadIcon_ForwardToCallbackE = hidden unnamed_addr constant { [6 x i8*] } { [6 x i8*] [i8* null, i8* null, i8* bitcast (void (%"class.apps::mojom::AppService_LoadIcon_ForwardToCallback"*)* @_ZN4apps5mojom37AppService_LoadIcon_ForwardToCallbackD2Ev to i8*), i8* bitcast (void (%"class.apps::mojom::AppService_LoadIcon_ForwardToCallback"*)* @_ZN4apps5mojom37AppService_LoadIcon_ForwardToCallbackD0Ev to i8*), i8* bitcast (i1 (%"class.mojo::MessageReceiver"*)* @_ZN4mojo15MessageReceiver25PrefersSerializedMessagesEv to i8*), i8* bitcast (i1 (%"class.apps::mojom::AppService_LoadIcon_ForwardToCallback"*, %"class.mojo::Message"*)* @_ZN4apps5mojom37AppService_LoadIcon_ForwardToCallback6AcceptEPN4mojo7MessageE to i8*)] }, align 8
@_ZTVN4apps5mojom41AppService_GetMenuModel_ForwardToCallbackE = hidden unnamed_addr constant { [6 x i8*] } { [6 x i8*] [i8* null, i8* null, i8* bitcast (void (%"class.apps::mojom::AppService_GetMenuModel_ForwardToCallback"*)* @_ZN4apps5mojom41AppService_GetMenuModel_ForwardToCallbackD2Ev to i8*), i8* bitcast (void (%"class.apps::mojom::AppService_GetMenuModel_ForwardToCallback"*)* @_ZN4apps5mojom41AppService_GetMenuModel_ForwardToCallbackD0Ev to i8*), i8* bitcast (i1 (%"class.mojo::MessageReceiver"*)* @_ZN4mojo15MessageReceiver25PrefersSerializedMessagesEv to i8*), i8* bitcast (i1 (%"class.apps::mojom::AppService_GetMenuModel_ForwardToCallback"*, %"class.mojo::Message"*)* @_ZN4apps5mojom41AppService_GetMenuModel_ForwardToCallback6AcceptEPN4mojo7MessageE to i8*)] }, align 8
@_ZTVN4apps5mojom26AppServiceRequestValidatorE = hidden unnamed_addr constant { [6 x i8*] } { [6 x i8*] [i8* null, i8* null, i8* bitcast (void (%"class.mojo::MessageReceiver"*)* @_ZN4mojo15MessageReceiverD2Ev to i8*), i8* bitcast (void (%"class.apps::mojom::AppServiceRequestValidator"*)* @_ZN4apps5mojom26AppServiceRequestValidatorD0Ev to i8*), i8* bitcast (i1 (%"class.mojo::MessageReceiver"*)* @_ZN4mojo15MessageReceiver25PrefersSerializedMessagesEv to i8*), i8* bitcast (i1 (%"class.apps::mojom::AppServiceRequestValidator"*, %"class.mojo::Message"*)* @_ZN4apps5mojom26AppServiceRequestValidator6AcceptEPN4mojo7MessageE to i8*)] }, align 8
@_ZTVN4apps5mojom27AppServiceResponseValidatorE = hidden unnamed_addr constant { [6 x i8*] } { [6 x i8*] [i8* null, i8* null, i8* bitcast (void (%"class.mojo::MessageReceiver"*)* @_ZN4mojo15MessageReceiverD2Ev to i8*), i8* bitcast (void (%"class.apps::mojom::AppServiceResponseValidator"*)* @_ZN4apps5mojom27AppServiceResponseValidatorD0Ev to i8*), i8* bitcast (i1 (%"class.mojo::MessageReceiver"*)* @_ZN4mojo15MessageReceiver25PrefersSerializedMessagesEv to i8*), i8* bitcast (i1 (%"class.apps::mojom::AppServiceResponseValidator"*, %"class.mojo::Message"*)* @_ZN4apps5mojom27AppServiceResponseValidator6AcceptEPN4mojo7MessageE to i8*)] }, align 8
@_ZTVN4apps5mojom36Publisher_LoadIcon_ForwardToCallbackE = hidden unnamed_addr constant { [6 x i8*] } { [6 x i8*] [i8* null, i8* null, i8* bitcast (void (%"class.apps::mojom::Publisher_LoadIcon_ForwardToCallback"*)* @_ZN4apps5mojom36Publisher_LoadIcon_ForwardToCallbackD2Ev to i8*), i8* bitcast (void (%"class.apps::mojom::Publisher_LoadIcon_ForwardToCallback"*)* @_ZN4apps5mojom36Publisher_LoadIcon_ForwardToCallbackD0Ev to i8*), i8* bitcast (i1 (%"class.mojo::MessageReceiver"*)* @_ZN4mojo15MessageReceiver25PrefersSerializedMessagesEv to i8*), i8* bitcast (i1 (%"class.apps::mojom::Publisher_LoadIcon_ForwardToCallback"*, %"class.mojo::Message"*)* @_ZN4apps5mojom36Publisher_LoadIcon_ForwardToCallback6AcceptEPN4mojo7MessageE to i8*)] }, align 8
@_ZTVN4apps5mojom40Publisher_GetMenuModel_ForwardToCallbackE = hidden unnamed_addr constant { [6 x i8*] } { [6 x i8*] [i8* null, i8* null, i8* bitcast (void (%"class.apps::mojom::Publisher_GetMenuModel_ForwardToCallback"*)* @_ZN4apps5mojom40Publisher_GetMenuModel_ForwardToCallbackD2Ev to i8*), i8* bitcast (void (%"class.apps::mojom::Publisher_GetMenuModel_ForwardToCallback"*)* @_ZN4apps5mojom40Publisher_GetMenuModel_ForwardToCallbackD0Ev to i8*), i8* bitcast (i1 (%"class.mojo::MessageReceiver"*)* @_ZN4mojo15MessageReceiver25PrefersSerializedMessagesEv to i8*), i8* bitcast (i1 (%"class.apps::mojom::Publisher_GetMenuModel_ForwardToCallback"*, %"class.mojo::Message"*)* @_ZN4apps5mojom40Publisher_GetMenuModel_ForwardToCallback6AcceptEPN4mojo7MessageE to i8*)] }, align 8
@_ZTVN4apps5mojom25PublisherRequestValidatorE = hidden unnamed_addr constant { [6 x i8*] } { [6 x i8*] [i8* null, i8* null, i8* bitcast (void (%"class.mojo::MessageReceiver"*)* @_ZN4mojo15MessageReceiverD2Ev to i8*), i8* bitcast (void (%"class.apps::mojom::PublisherRequestValidator"*)* @_ZN4apps5mojom25PublisherRequestValidatorD0Ev to i8*), i8* bitcast (i1 (%"class.mojo::MessageReceiver"*)* @_ZN4mojo15MessageReceiver25PrefersSerializedMessagesEv to i8*), i8* bitcast (i1 (%"class.apps::mojom::PublisherRequestValidator"*, %"class.mojo::Message"*)* @_ZN4apps5mojom25PublisherRequestValidator6AcceptEPN4mojo7MessageE to i8*)] }, align 8
@_ZTVN4apps5mojom26PublisherResponseValidatorE = hidden unnamed_addr constant { [6 x i8*] } { [6 x i8*] [i8* null, i8* null, i8* bitcast (void (%"class.mojo::MessageReceiver"*)* @_ZN4mojo15MessageReceiverD2Ev to i8*), i8* bitcast (void (%"class.apps::mojom::PublisherResponseValidator"*)* @_ZN4apps5mojom26PublisherResponseValidatorD0Ev to i8*), i8* bitcast (i1 (%"class.mojo::MessageReceiver"*)* @_ZN4mojo15MessageReceiver25PrefersSerializedMessagesEv to i8*), i8* bitcast (i1 (%"class.apps::mojom::PublisherResponseValidator"*, %"class.mojo::Message"*)* @_ZN4apps5mojom26PublisherResponseValidator6AcceptEPN4mojo7MessageE to i8*)] }, align 8
@_ZTVN4apps5mojom26SubscriberRequestValidatorE = hidden unnamed_addr constant { [6 x i8*] } { [6 x i8*] [i8* null, i8* null, i8* bitcast (void (%"class.mojo::MessageReceiver"*)* @_ZN4mojo15MessageReceiverD2Ev to i8*), i8* bitcast (void (%"class.apps::mojom::SubscriberRequestValidator"*)* @_ZN4apps5mojom26SubscriberRequestValidatorD0Ev to i8*), i8* bitcast (i1 (%"class.mojo::MessageReceiver"*)* @_ZN4mojo15MessageReceiver25PrefersSerializedMessagesEv to i8*), i8* bitcast (i1 (%"class.apps::mojom::SubscriberRequestValidator"*, %"class.mojo::Message"*)* @_ZN4apps5mojom26SubscriberRequestValidator6AcceptEPN4mojo7MessageE to i8*)] }, align 8

@_ZN4apps5mojom14ConnectOptionsC1Ev = hidden unnamed_addr alias void (%"class.apps::mojom::ConnectOptions"*), void (%"class.apps::mojom::ConnectOptions"*)* @_ZN4apps5mojom14ConnectOptionsC2Ev
@_ZN4apps5mojom14ConnectOptionsD1Ev = hidden unnamed_addr alias void (%"class.apps::mojom::ConnectOptions"*), void (%"class.apps::mojom::ConnectOptions"*)* @_ZN4apps5mojom14ConnectOptionsD2Ev
@_ZN4apps5mojom15AppServiceProxyC1EPN4mojo28MessageReceiverWithResponderE = hidden unnamed_addr alias void (%"class.apps::mojom::AppServiceProxy"*, %"class.mojo::MessageReceiverWithResponder"*), void (%"class.apps::mojom::AppServiceProxy"*, %"class.mojo::MessageReceiverWithResponder"*)* @_ZN4apps5mojom15AppServiceProxyC2EPN4mojo28MessageReceiverWithResponderE
@_ZN4apps5mojom14PublisherProxyC1EPN4mojo28MessageReceiverWithResponderE = hidden unnamed_addr alias void (%"class.apps::mojom::PublisherProxy"*, %"class.mojo::MessageReceiverWithResponder"*), void (%"class.apps::mojom::PublisherProxy"*, %"class.mojo::MessageReceiverWithResponder"*)* @_ZN4apps5mojom14PublisherProxyC2EPN4mojo28MessageReceiverWithResponderE
@_ZN4apps5mojom15SubscriberProxyC1EPN4mojo28MessageReceiverWithResponderE = hidden unnamed_addr alias void (%"class.apps::mojom::SubscriberProxy"*, %"class.mojo::MessageReceiverWithResponder"*), void (%"class.apps::mojom::SubscriberProxy"*, %"class.mojo::MessageReceiverWithResponder"*)* @_ZN4apps5mojom15SubscriberProxyC2EPN4mojo28MessageReceiverWithResponderE

; Function Attrs: norecurse nounwind readnone ssp uwtable
define hidden void @_ZN4apps5mojom14ConnectOptionsC2Ev(%"class.apps::mojom::ConnectOptions"* nocapture) unnamed_addr #0 align 2 {
  ret void
}

; Function Attrs: norecurse nounwind readnone ssp uwtable
define hidden void @_ZN4apps5mojom14ConnectOptionsD2Ev(%"class.apps::mojom::ConnectOptions"* nocapture) unnamed_addr #0 align 2 {
  ret void
}

; Function Attrs: norecurse nounwind readnone ssp uwtable
define hidden i64 @_ZNK4apps5mojom14ConnectOptions4HashEm(%"class.apps::mojom::ConnectOptions"* nocapture readnone, i64 returned) local_unnamed_addr #0 align 2 {
  ret i64 %1
}

; Function Attrs: nounwind ssp uwtable
define hidden void @_ZNK4apps5mojom14ConnectOptions14WriteIntoTraceEN8perfetto11TracedValueE(%"class.apps::mojom::ConnectOptions"* nocapture readnone, %"class.perfetto::TracedValue"*) local_unnamed_addr #1 align 2 {
  %3 = alloca %"class.perfetto::TracedDictionary", align 8
  %4 = bitcast %"class.perfetto::TracedDictionary"* %3 to i8*
  call void @llvm.lifetime.start.p0i8(i64 16, i8* nonnull %4) #11
  %5 = bitcast %"class.perfetto::TracedDictionary"* %3 to i8*
  call void @llvm.memset.p0i8.i64(i8* nonnull align 8 %5, i8 -86, i64 16, i1 false)
  call void @_ZNO8perfetto11TracedValue15WriteDictionaryEv(%"class.perfetto::TracedDictionary"* nonnull sret %3, %"class.perfetto::TracedValue"* %1) #11
  call void @llvm.lifetime.end.p0i8(i64 16, i8* nonnull %4) #11
  ret void
}

; Function Attrs: argmemonly nounwind
declare void @llvm.lifetime.start.p0i8(i64 immarg, i8* nocapture) #2

declare void @_ZNO8perfetto11TracedValue15WriteDictionaryEv(%"class.perfetto::TracedDictionary"* sret, %"class.perfetto::TracedValue"*) local_unnamed_addr #3

; Function Attrs: argmemonly nounwind
declare void @llvm.lifetime.end.p0i8(i64 immarg, i8* nocapture) #2

; Function Attrs: nounwind ssp uwtable
define hidden zeroext i1 @_ZN4apps5mojom14ConnectOptions8ValidateEPKvPN4mojo8internal17ValidationContextE(i8*, %"class.mojo::internal::ValidationContext"*) local_unnamed_addr #1 align 2 {
  %3 = tail call zeroext i1 @_ZN4apps5mojom8internal19ConnectOptions_Data8ValidateEPKvPN4mojo8internal17ValidationContextE(i8* %0, %"class.mojo::internal::ValidationContext"* %1) #11
  ret i1 %3
}

declare zeroext i1 @_ZN4apps5mojom8internal19ConnectOptions_Data8ValidateEPKvPN4mojo8internal17ValidationContextE(i8*, %"class.mojo::internal::ValidationContext"*) local_unnamed_addr #3

; Function Attrs: nofree norecurse nounwind ssp uwtable writeonly
define hidden void @_ZN4apps5mojom15AppServiceProxyC2EPN4mojo28MessageReceiverWithResponderE(%"class.apps::mojom::AppServiceProxy"* nocapture, %"class.mojo::MessageReceiverWithResponder"*) unnamed_addr #4 align 2 {
  %3 = getelementptr inbounds %"class.apps::mojom::AppServiceProxy", %"class.apps::mojom::AppServiceProxy"* %0, i64 0, i32 0, i32 0
  store i32 (...)** bitcast (i8** getelementptr inbounds ({ [22 x i8*] }, { [22 x i8*] }* @_ZTVN4apps5mojom15AppServiceProxyE, i64 0, inrange i32 0, i64 2) to i32 (...)**), i32 (...)*** %3, align 8
  %4 = getelementptr inbounds %"class.apps::mojom::AppServiceProxy", %"class.apps::mojom::AppServiceProxy"* %0, i64 0, i32 1
  store %"class.mojo::MessageReceiverWithResponder"* %1, %"class.mojo::MessageReceiverWithResponder"** %4, align 8
  ret void
}

; Function Attrs: nounwind ssp uwtable
define hidden void @_ZN4apps5mojom15AppServiceProxy17RegisterPublisherEN4mojo13PendingRemoteINS0_9PublisherEEENS0_7AppTypeE(%"class.apps::mojom::AppServiceProxy"* nocapture readonly, %"class.mojo::PendingRemote"* nocapture, i32) unnamed_addr #1 align 2 {
  %4 = alloca %"class.mojo::ScopedHandleBase.25", align 4
  %5 = alloca %"class.mojo::Message", align 8
  %6 = bitcast %"class.mojo::Message"* %5 to i8*
  call void @llvm.lifetime.start.p0i8(i64 120, i8* nonnull %6) #11
  call void @llvm.memset.p0i8.i64(i8* nonnull align 8 %6, i8 -86, i64 120, i1 false)
  call void @_ZN4mojo7MessageC1EjjmmPNSt3__16vectorINS_16ScopedHandleBaseINS_6HandleEEENS1_9allocatorIS5_EEEE(%"class.mojo::Message"* nonnull %5, i32 1269222429, i32 0, i64 0, i64 0, %"class.std::__1::vector"* null) #11
  %7 = getelementptr inbounds %"class.mojo::Message", %"class.mojo::Message"* %5, i64 0, i32 1
  %8 = call i64 @_ZN4mojo8internal6Buffer8AllocateEm(%"class.mojo::internal::Buffer"* %7, i64 24) #11
  %9 = getelementptr inbounds %"class.mojo::Message", %"class.mojo::Message"* %5, i64 0, i32 1, i32 2
  %10 = load i8*, i8** %9, align 8
  %11 = getelementptr inbounds i8, i8* %10, i64 %8
  %12 = bitcast i8* %11 to %"class.apps::mojom::internal::AppService_RegisterPublisher_Params_Data"*
  call void @_ZN4apps5mojom8internal40AppService_RegisterPublisher_Params_DataC1Ev(%"class.apps::mojom::internal::AppService_RegisterPublisher_Params_Data"* %12) #11
  %13 = load i8*, i8** %9, align 8
  %14 = getelementptr inbounds i8, i8* %13, i64 %8
  %15 = getelementptr inbounds i8, i8* %14, i64 8
  %16 = bitcast i8* %15 to %"struct.mojo::internal::Interface_Data"*
  %17 = bitcast %"class.mojo::ScopedHandleBase.25"* %4 to i8*
  call void @llvm.lifetime.start.p0i8(i64 4, i8* nonnull %17) #11
  %18 = getelementptr inbounds %"class.mojo::PendingRemote", %"class.mojo::PendingRemote"* %1, i64 0, i32 0, i32 1
  %19 = load i32, i32* %18, align 4
  store i32 0, i32* %18, align 4, !noalias !2
  %20 = getelementptr inbounds %"class.mojo::ScopedHandleBase.25", %"class.mojo::ScopedHandleBase.25"* %4, i64 0, i32 0, i32 0, i32 0
  %21 = getelementptr inbounds %"class.mojo::PendingRemote", %"class.mojo::PendingRemote"* %1, i64 0, i32 0, i32 0, i32 0, i32 0, i32 0
  %22 = load i32, i32* %21, align 4, !noalias !5
  store i32 %22, i32* %20, align 4, !alias.scope !5
  store i32 0, i32* %21, align 4, !noalias !5
  call void @_ZN4mojo8internal22SerializeInterfaceInfoENS_16ScopedHandleBaseINS_17MessagePipeHandleEEEjRNS_7MessageERNS0_14Interface_DataE(%"class.mojo::ScopedHandleBase.25"* nonnull %4, i32 %19, %"class.mojo::Message"* nonnull dereferenceable(120) %5, %"struct.mojo::internal::Interface_Data"* dereferenceable(8) %16) #11
  %23 = load i32, i32* %20, align 4
  %24 = icmp eq i32 %23, 0
  br i1 %24, label %27, label %25

25:                                               ; preds = %3
  %26 = call i32 @MojoClose(i32 %23) #11
  br label %27

27:                                               ; preds = %3, %25
  call void @llvm.lifetime.end.p0i8(i64 4, i8* nonnull %17) #11
  %28 = load i8*, i8** %9, align 8
  %29 = getelementptr inbounds i8, i8* %28, i64 %8
  %30 = getelementptr inbounds i8, i8* %29, i64 16
  %31 = bitcast i8* %30 to i32*
  store i32 %2, i32* %31, align 4
  %32 = getelementptr inbounds %"class.apps::mojom::AppServiceProxy", %"class.apps::mojom::AppServiceProxy"* %0, i64 0, i32 1
  %33 = bitcast %"class.mojo::MessageReceiverWithResponder"** %32 to %"class.mojo::MessageReceiver"**
  %34 = load %"class.mojo::MessageReceiver"*, %"class.mojo::MessageReceiver"** %33, align 8
  %35 = bitcast %"class.mojo::MessageReceiver"* %34 to i1 (%"class.mojo::MessageReceiver"*, %"class.mojo::Message"*)***
  %36 = load i1 (%"class.mojo::MessageReceiver"*, %"class.mojo::Message"*)**, i1 (%"class.mojo::MessageReceiver"*, %"class.mojo::Message"*)*** %35, align 8
  %37 = getelementptr inbounds i1 (%"class.mojo::MessageReceiver"*, %"class.mojo::Message"*)*, i1 (%"class.mojo::MessageReceiver"*, %"class.mojo::Message"*)** %36, i64 3
  %38 = load i1 (%"class.mojo::MessageReceiver"*, %"class.mojo::Message"*)*, i1 (%"class.mojo::MessageReceiver"*, %"class.mojo::Message"*)** %37, align 8
  %39 = call zeroext i1 %38(%"class.mojo::MessageReceiver"* %34, %"class.mojo::Message"* nonnull %5) #11
  call void @_ZN4mojo7MessageD1Ev(%"class.mojo::Message"* nonnull %5) #11
  call void @llvm.lifetime.end.p0i8(i64 120, i8* nonnull %6) #11
  ret void
}

; Function Attrs: argmemonly nounwind
declare void @llvm.memset.p0i8.i64(i8* nocapture writeonly, i8, i64, i1 immarg) #2

declare void @_ZN4mojo7MessageC1EjjmmPNSt3__16vectorINS_16ScopedHandleBaseINS_6HandleEEENS1_9allocatorIS5_EEEE(%"class.mojo::Message"*, i32, i32, i64, i64, %"class.std::__1::vector"*) unnamed_addr #3

; Function Attrs: nounwind
declare void @_ZN4mojo7MessageD1Ev(%"class.mojo::Message"*) unnamed_addr #5

; Function Attrs: nounwind ssp uwtable
define hidden void @_ZN4apps5mojom15AppServiceProxy18RegisterSubscriberEN4mojo13PendingRemoteINS0_10SubscriberEEENS2_16InlinedStructPtrINS0_14ConnectOptionsEEE(%"class.apps::mojom::AppServiceProxy"* nocapture readonly, %"class.mojo::PendingRemote.26"* nocapture, %"class.mojo::InlinedStructPtr"* nocapture readonly) unnamed_addr #1 align 2 {
  %4 = alloca %"class.mojo::ScopedHandleBase.25", align 4
  %5 = alloca %"class.mojo::Message", align 8
  %6 = bitcast %"class.mojo::Message"* %5 to i8*
  call void @llvm.lifetime.start.p0i8(i64 120, i8* nonnull %6) #11
  call void @llvm.memset.p0i8.i64(i8* nonnull align 8 %6, i8 -86, i64 120, i1 false)
  call void @_ZN4mojo7MessageC1EjjmmPNSt3__16vectorINS_16ScopedHandleBaseINS_6HandleEEENS1_9allocatorIS5_EEEE(%"class.mojo::Message"* nonnull %5, i32 31622414, i32 0, i64 0, i64 0, %"class.std::__1::vector"* null) #11
  %7 = getelementptr inbounds %"class.mojo::Message", %"class.mojo::Message"* %5, i64 0, i32 1
  %8 = call i64 @_ZN4mojo8internal6Buffer8AllocateEm(%"class.mojo::internal::Buffer"* %7, i64 24) #11
  %9 = getelementptr inbounds %"class.mojo::Message", %"class.mojo::Message"* %5, i64 0, i32 1, i32 2
  %10 = load i8*, i8** %9, align 8
  %11 = getelementptr inbounds i8, i8* %10, i64 %8
  %12 = bitcast i8* %11 to %"class.apps::mojom::internal::AppService_RegisterSubscriber_Params_Data"*
  call void @_ZN4apps5mojom8internal41AppService_RegisterSubscriber_Params_DataC1Ev(%"class.apps::mojom::internal::AppService_RegisterSubscriber_Params_Data"* %12) #11
  %13 = load i8*, i8** %9, align 8
  %14 = getelementptr inbounds i8, i8* %13, i64 %8
  %15 = getelementptr inbounds i8, i8* %14, i64 8
  %16 = bitcast i8* %15 to %"struct.mojo::internal::Interface_Data"*
  %17 = bitcast %"class.mojo::ScopedHandleBase.25"* %4 to i8*
  call void @llvm.lifetime.start.p0i8(i64 4, i8* nonnull %17) #11
  %18 = getelementptr inbounds %"class.mojo::PendingRemote.26", %"class.mojo::PendingRemote.26"* %1, i64 0, i32 0, i32 1
  %19 = load i32, i32* %18, align 4
  store i32 0, i32* %18, align 4, !noalias !8
  %20 = getelementptr inbounds %"class.mojo::ScopedHandleBase.25", %"class.mojo::ScopedHandleBase.25"* %4, i64 0, i32 0, i32 0, i32 0
  %21 = getelementptr inbounds %"class.mojo::PendingRemote.26", %"class.mojo::PendingRemote.26"* %1, i64 0, i32 0, i32 0, i32 0, i32 0, i32 0
  %22 = load i32, i32* %21, align 4, !noalias !11
  store i32 %22, i32* %20, align 4, !alias.scope !11
  store i32 0, i32* %21, align 4, !noalias !11
  call void @_ZN4mojo8internal22SerializeInterfaceInfoENS_16ScopedHandleBaseINS_17MessagePipeHandleEEEjRNS_7MessageERNS0_14Interface_DataE(%"class.mojo::ScopedHandleBase.25"* nonnull %4, i32 %19, %"class.mojo::Message"* nonnull dereferenceable(120) %5, %"struct.mojo::internal::Interface_Data"* dereferenceable(8) %16) #11
  %23 = load i32, i32* %20, align 4
  %24 = icmp eq i32 %23, 0
  br i1 %24, label %27, label %25

25:                                               ; preds = %3
  %26 = call i32 @MojoClose(i32 %23) #11
  br label %27

27:                                               ; preds = %3, %25
  call void @llvm.lifetime.end.p0i8(i64 4, i8* nonnull %17) #11
  %28 = getelementptr inbounds %"class.mojo::InlinedStructPtr", %"class.mojo::InlinedStructPtr"* %2, i64 0, i32 1
  %29 = load i32, i32* %28, align 4
  %30 = icmp eq i32 %29, 0
  br i1 %30, label %31, label %36

31:                                               ; preds = %27
  %32 = load i8*, i8** %9, align 8
  %33 = getelementptr inbounds i8, i8* %32, i64 %8
  %34 = getelementptr inbounds i8, i8* %33, i64 16
  %35 = bitcast i8* %34 to %"struct.mojo::internal::Pointer"*
  br label %49

36:                                               ; preds = %27
  %37 = call i64 @_ZN4mojo8internal6Buffer8AllocateEm(%"class.mojo::internal::Buffer"* %7, i64 8) #11
  %38 = load i8*, i8** %9, align 8
  %39 = getelementptr inbounds i8, i8* %38, i64 %37
  %40 = bitcast i8* %39 to %"class.apps::mojom::internal::ConnectOptions_Data"*
  call void @_ZN4apps5mojom8internal19ConnectOptions_DataC1Ev(%"class.apps::mojom::internal::ConnectOptions_Data"* %40) #11
  %41 = load i8*, i8** %9, align 8
  %42 = getelementptr inbounds i8, i8* %41, i64 %8
  %43 = getelementptr inbounds i8, i8* %42, i64 16
  %44 = bitcast i8* %43 to %"struct.mojo::internal::Pointer"*
  %45 = icmp eq i64 %37, -1
  br i1 %45, label %49, label %46

46:                                               ; preds = %36
  %47 = getelementptr inbounds i8, i8* %41, i64 %37
  %48 = bitcast i8* %47 to %"class.apps::mojom::internal::ConnectOptions_Data"*
  br label %49

49:                                               ; preds = %31, %36, %46
  %50 = phi %"struct.mojo::internal::Pointer"* [ %44, %46 ], [ %44, %36 ], [ %35, %31 ]
  %51 = phi %"class.apps::mojom::internal::ConnectOptions_Data"* [ %48, %46 ], [ null, %36 ], [ null, %31 ]
  %52 = getelementptr inbounds %"struct.mojo::internal::Pointer", %"struct.mojo::internal::Pointer"* %50, i64 0, i32 0
  %53 = icmp eq %"class.apps::mojom::internal::ConnectOptions_Data"* %51, null
  %54 = ptrtoint %"class.apps::mojom::internal::ConnectOptions_Data"* %51 to i64
  %55 = ptrtoint %"struct.mojo::internal::Pointer"* %50 to i64
  %56 = sub i64 %54, %55
  %57 = select i1 %53, i64 0, i64 %56
  store i64 %57, i64* %52, align 8
  %58 = getelementptr inbounds %"class.apps::mojom::AppServiceProxy", %"class.apps::mojom::AppServiceProxy"* %0, i64 0, i32 1
  %59 = bitcast %"class.mojo::MessageReceiverWithResponder"** %58 to %"class.mojo::MessageReceiver"**
  %60 = load %"class.mojo::MessageReceiver"*, %"class.mojo::MessageReceiver"** %59, align 8
  %61 = bitcast %"class.mojo::MessageReceiver"* %60 to i1 (%"class.mojo::MessageReceiver"*, %"class.mojo::Message"*)***
  %62 = load i1 (%"class.mojo::MessageReceiver"*, %"class.mojo::Message"*)**, i1 (%"class.mojo::MessageReceiver"*, %"class.mojo::Message"*)*** %61, align 8
  %63 = getelementptr inbounds i1 (%"class.mojo::MessageReceiver"*, %"class.mojo::Message"*)*, i1 (%"class.mojo::MessageReceiver"*, %"class.mojo::Message"*)** %62, i64 3
  %64 = load i1 (%"class.mojo::MessageReceiver"*, %"class.mojo::Message"*)*, i1 (%"class.mojo::MessageReceiver"*, %"class.mojo::Message"*)** %63, align 8
  %65 = call zeroext i1 %64(%"class.mojo::MessageReceiver"* %60, %"class.mojo::Message"* nonnull %5) #11
  call void @_ZN4mojo7MessageD1Ev(%"class.mojo::Message"* nonnull %5) #11
  call void @llvm.lifetime.end.p0i8(i64 120, i8* nonnull %6) #11
  ret void
}

; Function Attrs: nounwind ssp uwtable
define hidden void @_ZN4apps5mojom15AppServiceProxy8LoadIconENS0_7AppTypeERKNSt3__112basic_stringIcNS3_11char_traitsIcEENS3_9allocatorIcEEEEN4mojo16InlinedStructPtrINS0_7IconKeyEEENS0_8IconTypeEibN4base12OnceCallbackIFvNSC_9StructPtrINS0_9IconValueEEEEEE(%"class.apps::mojom::AppServiceProxy"* nocapture readonly, i32, %"class.std::__1::basic_string"* dereferenceable(24), %"class.mojo::InlinedStructPtr.34"* nocapture readonly, i32, i32, i1 zeroext, %"class.base::OnceCallback"* nocapture) unnamed_addr #1 align 2 {
  %9 = alloca %"class.mojo::Message", align 8
  %10 = alloca %"class.mojo::internal::MessageFragment.38", align 8
  %11 = alloca %"class.base::OnceCallback", align 8
  %12 = zext i1 %6 to i8
  %13 = bitcast %"class.mojo::Message"* %9 to i8*
  call void @llvm.lifetime.start.p0i8(i64 120, i8* nonnull %13) #11
  call void @llvm.memset.p0i8.i64(i8* nonnull align 8 %13, i8 -86, i64 120, i1 false)
  call void @_ZN4mojo7MessageC1EjjmmPNSt3__16vectorINS_16ScopedHandleBaseINS_6HandleEEENS1_9allocatorIS5_EEEE(%"class.mojo::Message"* nonnull %9, i32 1654379519, i32 1, i64 0, i64 0, %"class.std::__1::vector"* null) #11
  %14 = getelementptr inbounds %"class.mojo::Message", %"class.mojo::Message"* %9, i64 0, i32 1
  %15 = call i64 @_ZN4mojo8internal6Buffer8AllocateEm(%"class.mojo::internal::Buffer"* %14, i64 40) #11
  %16 = getelementptr inbounds %"class.mojo::Message", %"class.mojo::Message"* %9, i64 0, i32 1, i32 2
  %17 = load i8*, i8** %16, align 8
  %18 = getelementptr inbounds i8, i8* %17, i64 %15
  %19 = bitcast i8* %18 to %"class.apps::mojom::internal::AppService_LoadIcon_Params_Data"*
  call void @_ZN4apps5mojom8internal31AppService_LoadIcon_Params_DataC1Ev(%"class.apps::mojom::internal::AppService_LoadIcon_Params_Data"* %19) #11
  %20 = load i8*, i8** %16, align 8
  %21 = getelementptr inbounds i8, i8* %20, i64 %15
  %22 = getelementptr inbounds i8, i8* %21, i64 8
  %23 = bitcast i8* %22 to i32*
  store i32 %1, i32* %23, align 4
  %24 = bitcast %"class.mojo::internal::MessageFragment.38"* %10 to i8*
  call void @llvm.lifetime.start.p0i8(i64 16, i8* nonnull %24) #11
  %25 = getelementptr inbounds %"class.mojo::internal::MessageFragment.38", %"class.mojo::internal::MessageFragment.38"* %10, i64 0, i32 0
  %26 = getelementptr inbounds %"class.mojo::internal::MessageFragment.38", %"class.mojo::internal::MessageFragment.38"* %10, i64 0, i32 1
  store %"class.mojo::Message"* %9, %"class.mojo::Message"** %25, align 8
  store i64 -1, i64* %26, align 8
  call void @_ZN4mojo8internal10SerializerINS_14StringDataViewEKNSt3__112basic_stringIcNS3_11char_traitsIcEENS3_9allocatorIcEEEEE9SerializeERSA_RNS0_15MessageFragmentINS0_10Array_DataIcEEEE(%"class.std::__1::basic_string"* dereferenceable(24) %2, %"class.mojo::internal::MessageFragment.38"* nonnull dereferenceable(16) %10) #11
  %27 = load i8*, i8** %16, align 8
  %28 = getelementptr inbounds i8, i8* %27, i64 %15
  %29 = getelementptr inbounds i8, i8* %28, i64 16
  %30 = load i64, i64* %26, align 8
  %31 = icmp eq i64 %30, -1
  br i1 %31, label %38, label %32

32:                                               ; preds = %8
  %33 = load %"class.mojo::Message"*, %"class.mojo::Message"** %25, align 8
  %34 = getelementptr inbounds %"class.mojo::Message", %"class.mojo::Message"* %33, i64 0, i32 1, i32 2
  %35 = load i8*, i8** %34, align 8
  %36 = getelementptr inbounds i8, i8* %35, i64 %30
  %37 = bitcast i8* %36 to %"class.mojo::internal::Array_Data"*
  br label %38

38:                                               ; preds = %8, %32
  %39 = phi %"class.mojo::internal::Array_Data"* [ %37, %32 ], [ null, %8 ]
  %40 = bitcast i8* %29 to i64*
  %41 = icmp eq %"class.mojo::internal::Array_Data"* %39, null
  %42 = ptrtoint %"class.mojo::internal::Array_Data"* %39 to i64
  %43 = ptrtoint i8* %29 to i64
  %44 = sub i64 %42, %43
  %45 = select i1 %41, i64 0, i64 %44
  store i64 %45, i64* %40, align 8
  %46 = getelementptr inbounds %"class.mojo::InlinedStructPtr.34", %"class.mojo::InlinedStructPtr.34"* %3, i64 0, i32 1
  %47 = load i32, i32* %46, align 8
  %48 = icmp eq i32 %47, 0
  br i1 %48, label %49, label %54

49:                                               ; preds = %38
  %50 = load i8*, i8** %16, align 8
  %51 = getelementptr inbounds i8, i8* %50, i64 %15
  %52 = getelementptr inbounds i8, i8* %51, i64 24
  %53 = bitcast i8* %52 to %"struct.mojo::internal::Pointer.37"*
  br label %85

54:                                               ; preds = %38
  %55 = call i64 @_ZN4mojo8internal6Buffer8AllocateEm(%"class.mojo::internal::Buffer"* %14, i64 24) #11
  %56 = load i8*, i8** %16, align 8
  %57 = getelementptr inbounds i8, i8* %56, i64 %55
  %58 = bitcast i8* %57 to %"class.apps::mojom::internal::IconKey_Data"*
  call void @_ZN4apps5mojom8internal12IconKey_DataC1Ev(%"class.apps::mojom::internal::IconKey_Data"* %58) #11
  %59 = getelementptr inbounds %"class.mojo::InlinedStructPtr.34", %"class.mojo::InlinedStructPtr.34"* %3, i64 0, i32 0, i32 0
  %60 = load i64, i64* %59, align 8
  %61 = load i8*, i8** %16, align 8
  %62 = getelementptr inbounds i8, i8* %61, i64 %55
  %63 = getelementptr inbounds i8, i8* %62, i64 8
  %64 = bitcast i8* %63 to i64*
  store i64 %60, i64* %64, align 1
  %65 = getelementptr inbounds %"class.mojo::InlinedStructPtr.34", %"class.mojo::InlinedStructPtr.34"* %3, i64 0, i32 0, i32 1
  %66 = load i32, i32* %65, align 8
  %67 = load i8*, i8** %16, align 8
  %68 = getelementptr inbounds i8, i8* %67, i64 %55
  %69 = getelementptr inbounds i8, i8* %68, i64 16
  %70 = bitcast i8* %69 to i32*
  store i32 %66, i32* %70, align 1
  %71 = getelementptr inbounds %"class.mojo::InlinedStructPtr.34", %"class.mojo::InlinedStructPtr.34"* %3, i64 0, i32 0, i32 2
  %72 = load i32, i32* %71, align 4
  %73 = load i8*, i8** %16, align 8
  %74 = getelementptr inbounds i8, i8* %73, i64 %55
  %75 = getelementptr inbounds i8, i8* %74, i64 20
  %76 = bitcast i8* %75 to i32*
  store i32 %72, i32* %76, align 1
  %77 = load i8*, i8** %16, align 8
  %78 = getelementptr inbounds i8, i8* %77, i64 %15
  %79 = getelementptr inbounds i8, i8* %78, i64 24
  %80 = bitcast i8* %79 to %"struct.mojo::internal::Pointer.37"*
  %81 = icmp eq i64 %55, -1
  br i1 %81, label %85, label %82

82:                                               ; preds = %54
  %83 = getelementptr inbounds i8, i8* %77, i64 %55
  %84 = bitcast i8* %83 to %"class.apps::mojom::internal::IconKey_Data"*
  br label %85

85:                                               ; preds = %82, %54, %49
  %86 = phi %"struct.mojo::internal::Pointer.37"* [ %80, %82 ], [ %80, %54 ], [ %53, %49 ]
  %87 = phi %"class.apps::mojom::internal::IconKey_Data"* [ %84, %82 ], [ null, %54 ], [ null, %49 ]
  %88 = getelementptr inbounds %"struct.mojo::internal::Pointer.37", %"struct.mojo::internal::Pointer.37"* %86, i64 0, i32 0
  %89 = icmp eq %"class.apps::mojom::internal::IconKey_Data"* %87, null
  %90 = ptrtoint %"class.apps::mojom::internal::IconKey_Data"* %87 to i64
  %91 = ptrtoint %"struct.mojo::internal::Pointer.37"* %86 to i64
  %92 = sub i64 %90, %91
  %93 = select i1 %89, i64 0, i64 %92
  store i64 %93, i64* %88, align 8
  %94 = load i8*, i8** %16, align 8
  %95 = getelementptr inbounds i8, i8* %94, i64 %15
  %96 = getelementptr inbounds i8, i8* %95, i64 12
  %97 = bitcast i8* %96 to i32*
  store i32 %4, i32* %97, align 4
  %98 = load i8*, i8** %16, align 8
  %99 = getelementptr inbounds i8, i8* %98, i64 %15
  %100 = getelementptr inbounds i8, i8* %99, i64 32
  %101 = bitcast i8* %100 to i32*
  store i32 %5, i32* %101, align 4
  %102 = load i8*, i8** %16, align 8
  %103 = getelementptr inbounds i8, i8* %102, i64 %15
  %104 = getelementptr inbounds i8, i8* %103, i64 36
  %105 = load i8, i8* %104, align 4
  %106 = and i8 %105, -2
  %107 = or i8 %106, %12
  store i8 %107, i8* %104, align 4
  %108 = call i8* @_Znwm(i64 16) #12
  %109 = getelementptr inbounds %"class.base::OnceCallback", %"class.base::OnceCallback"* %7, i64 0, i32 0, i32 0, i32 0
  %110 = bitcast %"class.base::OnceCallback"* %7 to i64*
  %111 = load i64, i64* %110, align 8
  store %"class.base::internal::BindStateBase"* null, %"class.base::internal::BindStateBase"** %109, align 8
  %112 = bitcast i8* %108 to i32 (...)***
  store i32 (...)** bitcast (i8** getelementptr inbounds ({ [6 x i8*] }, { [6 x i8*] }* @_ZTVN4apps5mojom37AppService_LoadIcon_ForwardToCallbackE, i64 0, inrange i32 0, i64 2) to i32 (...)**), i32 (...)*** %112, align 8
  %113 = getelementptr inbounds i8, i8* %108, i64 8
  %114 = getelementptr inbounds %"class.base::OnceCallback", %"class.base::OnceCallback"* %11, i64 0, i32 0, i32 0, i32 0
  %115 = bitcast i8* %113 to i64*
  store i64 %111, i64* %115, align 8
  store %"class.base::internal::BindStateBase"* null, %"class.base::internal::BindStateBase"** %114, align 8
  %116 = bitcast i8* %108 to %"class.mojo::MessageReceiver"*
  %117 = getelementptr inbounds %"class.base::OnceCallback", %"class.base::OnceCallback"* %11, i64 0, i32 0
  call void @_ZN4base8internal12CallbackBaseD2Ev(%"class.base::internal::CallbackBase"* nonnull %117) #11
  %118 = getelementptr inbounds %"class.apps::mojom::AppServiceProxy", %"class.apps::mojom::AppServiceProxy"* %0, i64 0, i32 1
  %119 = load %"class.mojo::MessageReceiverWithResponder"*, %"class.mojo::MessageReceiverWithResponder"** %118, align 8
  %120 = bitcast %"class.mojo::MessageReceiverWithResponder"* %119 to i1 (%"class.mojo::MessageReceiverWithResponder"*, %"class.mojo::Message"*, %"class.mojo::MessageReceiver"*)***
  %121 = load i1 (%"class.mojo::MessageReceiverWithResponder"*, %"class.mojo::Message"*, %"class.mojo::MessageReceiver"*)**, i1 (%"class.mojo::MessageReceiverWithResponder"*, %"class.mojo::Message"*, %"class.mojo::MessageReceiver"*)*** %120, align 8
  %122 = getelementptr inbounds i1 (%"class.mojo::MessageReceiverWithResponder"*, %"class.mojo::Message"*, %"class.mojo::MessageReceiver"*)*, i1 (%"class.mojo::MessageReceiverWithResponder"*, %"class.mojo::Message"*, %"class.mojo::MessageReceiver"*)** %121, i64 4
  %123 = load i1 (%"class.mojo::MessageReceiverWithResponder"*, %"class.mojo::Message"*, %"class.mojo::MessageReceiver"*)*, i1 (%"class.mojo::MessageReceiverWithResponder"*, %"class.mojo::Message"*, %"class.mojo::MessageReceiver"*)** %122, align 8
  %124 = call zeroext i1 %123(%"class.mojo::MessageReceiverWithResponder"* %119, %"class.mojo::Message"* nonnull %9, %"class.mojo::MessageReceiver"* nonnull %116) #11
  call void @llvm.lifetime.end.p0i8(i64 16, i8* nonnull %24) #11
  call void @_ZN4mojo7MessageD1Ev(%"class.mojo::Message"* nonnull %9) #11
  call void @llvm.lifetime.end.p0i8(i64 120, i8* nonnull %13) #11
  ret void
}

; Function Attrs: nobuiltin nofree
declare noalias nonnull i8* @_Znwm(i64) local_unnamed_addr #6

; Function Attrs: nounwind
declare void @_ZN4base8internal12CallbackBaseD2Ev(%"class.base::internal::CallbackBase"*) unnamed_addr #5

; Function Attrs: nounwind ssp uwtable
define hidden void @_ZN4apps5mojom15AppServiceProxy6LaunchENS0_7AppTypeERKNSt3__112basic_stringIcNS3_11char_traitsIcEENS3_9allocatorIcEEEEiNS0_12LaunchSourceEN4mojo9StructPtrINS0_10WindowInfoEEE(%"class.apps::mojom::AppServiceProxy"* nocapture readonly, i32, %"class.std::__1::basic_string"* dereferenceable(24), i32, i32, %"class.mojo::StructPtr"*) unnamed_addr #1 align 2 {
  %7 = alloca %"class.mojo::Message", align 8
  %8 = alloca %"class.mojo::internal::MessageFragment.38", align 8
  %9 = alloca %"class.mojo::internal::MessageFragment.52", align 8
  %10 = bitcast %"class.mojo::Message"* %7 to i8*
  call void @llvm.lifetime.start.p0i8(i64 120, i8* nonnull %10) #11
  call void @llvm.memset.p0i8.i64(i8* nonnull align 8 %10, i8 -86, i64 120, i1 false)
  call void @_ZN4mojo7MessageC1EjjmmPNSt3__16vectorINS_16ScopedHandleBaseINS_6HandleEEENS1_9allocatorIS5_EEEE(%"class.mojo::Message"* nonnull %7, i32 190162557, i32 0, i64 0, i64 0, %"class.std::__1::vector"* null) #11
  %11 = getelementptr inbounds %"class.mojo::Message", %"class.mojo::Message"* %7, i64 0, i32 1
  %12 = call i64 @_ZN4mojo8internal6Buffer8AllocateEm(%"class.mojo::internal::Buffer"* %11, i64 40) #11
  %13 = getelementptr inbounds %"class.mojo::Message", %"class.mojo::Message"* %7, i64 0, i32 1, i32 2
  %14 = load i8*, i8** %13, align 8
  %15 = getelementptr inbounds i8, i8* %14, i64 %12
  %16 = bitcast i8* %15 to %"class.apps::mojom::internal::AppService_Launch_Params_Data"*
  call void @_ZN4apps5mojom8internal29AppService_Launch_Params_DataC1Ev(%"class.apps::mojom::internal::AppService_Launch_Params_Data"* %16) #11
  %17 = load i8*, i8** %13, align 8
  %18 = getelementptr inbounds i8, i8* %17, i64 %12
  %19 = getelementptr inbounds i8, i8* %18, i64 8
  %20 = bitcast i8* %19 to i32*
  store i32 %1, i32* %20, align 4
  %21 = bitcast %"class.mojo::internal::MessageFragment.38"* %8 to i8*
  call void @llvm.lifetime.start.p0i8(i64 16, i8* nonnull %21) #11
  %22 = getelementptr inbounds %"class.mojo::internal::MessageFragment.38", %"class.mojo::internal::MessageFragment.38"* %8, i64 0, i32 0
  %23 = getelementptr inbounds %"class.mojo::internal::MessageFragment.38", %"class.mojo::internal::MessageFragment.38"* %8, i64 0, i32 1
  store %"class.mojo::Message"* %7, %"class.mojo::Message"** %22, align 8
  store i64 -1, i64* %23, align 8
  call void @_ZN4mojo8internal10SerializerINS_14StringDataViewEKNSt3__112basic_stringIcNS3_11char_traitsIcEENS3_9allocatorIcEEEEE9SerializeERSA_RNS0_15MessageFragmentINS0_10Array_DataIcEEEE(%"class.std::__1::basic_string"* dereferenceable(24) %2, %"class.mojo::internal::MessageFragment.38"* nonnull dereferenceable(16) %8) #11
  %24 = load i8*, i8** %13, align 8
  %25 = getelementptr inbounds i8, i8* %24, i64 %12
  %26 = getelementptr inbounds i8, i8* %25, i64 16
  %27 = load i64, i64* %23, align 8
  %28 = icmp eq i64 %27, -1
  br i1 %28, label %35, label %29

29:                                               ; preds = %6
  %30 = load %"class.mojo::Message"*, %"class.mojo::Message"** %22, align 8
  %31 = getelementptr inbounds %"class.mojo::Message", %"class.mojo::Message"* %30, i64 0, i32 1, i32 2
  %32 = load i8*, i8** %31, align 8
  %33 = getelementptr inbounds i8, i8* %32, i64 %27
  %34 = bitcast i8* %33 to %"class.mojo::internal::Array_Data"*
  br label %35

35:                                               ; preds = %6, %29
  %36 = phi %"class.mojo::internal::Array_Data"* [ %34, %29 ], [ null, %6 ]
  %37 = bitcast i8* %26 to i64*
  %38 = icmp eq %"class.mojo::internal::Array_Data"* %36, null
  %39 = ptrtoint %"class.mojo::internal::Array_Data"* %36 to i64
  %40 = ptrtoint i8* %26 to i64
  %41 = sub i64 %39, %40
  %42 = select i1 %38, i64 0, i64 %41
  store i64 %42, i64* %37, align 8
  %43 = load i8*, i8** %13, align 8
  %44 = getelementptr inbounds i8, i8* %43, i64 %12
  %45 = getelementptr inbounds i8, i8* %44, i64 12
  %46 = bitcast i8* %45 to i32*
  store i32 %3, i32* %46, align 4
  %47 = load i8*, i8** %13, align 8
  %48 = getelementptr inbounds i8, i8* %47, i64 %12
  %49 = getelementptr inbounds i8, i8* %48, i64 24
  %50 = bitcast i8* %49 to i32*
  store i32 %4, i32* %50, align 4
  %51 = bitcast %"class.mojo::internal::MessageFragment.52"* %9 to i8*
  call void @llvm.lifetime.start.p0i8(i64 16, i8* nonnull %51) #11
  %52 = getelementptr inbounds %"class.mojo::internal::MessageFragment.52", %"class.mojo::internal::MessageFragment.52"* %9, i64 0, i32 0
  %53 = getelementptr inbounds %"class.mojo::internal::MessageFragment.52", %"class.mojo::internal::MessageFragment.52"* %9, i64 0, i32 1
  store %"class.mojo::Message"* %7, %"class.mojo::Message"** %52, align 8
  store i64 -1, i64* %53, align 8
  call void @_ZN4mojo8internal10SerializerIN4apps5mojom18WindowInfoDataViewENS_9StructPtrINS3_10WindowInfoEEEE9SerializeERS7_RNS0_15MessageFragmentINS3_8internal15WindowInfo_DataEEE(%"class.mojo::StructPtr"* dereferenceable(8) %5, %"class.mojo::internal::MessageFragment.52"* nonnull dereferenceable(16) %9) #11
  %54 = load i8*, i8** %13, align 8
  %55 = getelementptr inbounds i8, i8* %54, i64 %12
  %56 = getelementptr inbounds i8, i8* %55, i64 32
  %57 = load i64, i64* %53, align 8
  %58 = icmp eq i64 %57, -1
  br i1 %58, label %65, label %59

59:                                               ; preds = %35
  %60 = load %"class.mojo::Message"*, %"class.mojo::Message"** %52, align 8
  %61 = getelementptr inbounds %"class.mojo::Message", %"class.mojo::Message"* %60, i64 0, i32 1, i32 2
  %62 = load i8*, i8** %61, align 8
  %63 = getelementptr inbounds i8, i8* %62, i64 %57
  %64 = bitcast i8* %63 to %"class.apps::mojom::internal::WindowInfo_Data"*
  br label %65

65:                                               ; preds = %35, %59
  %66 = phi %"class.apps::mojom::internal::WindowInfo_Data"* [ %64, %59 ], [ null, %35 ]
  %67 = bitcast i8* %56 to i64*
  %68 = icmp eq %"class.apps::mojom::internal::WindowInfo_Data"* %66, null
  %69 = ptrtoint %"class.apps::mojom::internal::WindowInfo_Data"* %66 to i64
  %70 = ptrtoint i8* %56 to i64
  %71 = sub i64 %69, %70
  %72 = select i1 %68, i64 0, i64 %71
  store i64 %72, i64* %67, align 8
  %73 = getelementptr inbounds %"class.apps::mojom::AppServiceProxy", %"class.apps::mojom::AppServiceProxy"* %0, i64 0, i32 1
  %74 = bitcast %"class.mojo::MessageReceiverWithResponder"** %73 to %"class.mojo::MessageReceiver"**
  %75 = load %"class.mojo::MessageReceiver"*, %"class.mojo::MessageReceiver"** %74, align 8
  %76 = bitcast %"class.mojo::MessageReceiver"* %75 to i1 (%"class.mojo::MessageReceiver"*, %"class.mojo::Message"*)***
  %77 = load i1 (%"class.mojo::MessageReceiver"*, %"class.mojo::Message"*)**, i1 (%"class.mojo::MessageReceiver"*, %"class.mojo::Message"*)*** %76, align 8
  %78 = getelementptr inbounds i1 (%"class.mojo::MessageReceiver"*, %"class.mojo::Message"*)*, i1 (%"class.mojo::MessageReceiver"*, %"class.mojo::Message"*)** %77, i64 3
  %79 = load i1 (%"class.mojo::MessageReceiver"*, %"class.mojo::Message"*)*, i1 (%"class.mojo::MessageReceiver"*, %"class.mojo::Message"*)** %78, align 8
  %80 = call zeroext i1 %79(%"class.mojo::MessageReceiver"* %75, %"class.mojo::Message"* nonnull %7) #11
  call void @llvm.lifetime.end.p0i8(i64 16, i8* nonnull %51) #11
  call void @llvm.lifetime.end.p0i8(i64 16, i8* nonnull %21) #11
  call void @_ZN4mojo7MessageD1Ev(%"class.mojo::Message"* nonnull %7) #11
  call void @llvm.lifetime.end.p0i8(i64 120, i8* nonnull %10) #11
  ret void
}

; Function Attrs: nounwind ssp uwtable
define hidden void @_ZN4apps5mojom15AppServiceProxy18LaunchAppWithFilesENS0_7AppTypeERKNSt3__112basic_stringIcNS3_11char_traitsIcEENS3_9allocatorIcEEEENS0_15LaunchContainerEiNS0_12LaunchSourceEN4mojo9StructPtrINS0_9FilePathsEEE(%"class.apps::mojom::AppServiceProxy"* nocapture readonly, i32, %"class.std::__1::basic_string"* dereferenceable(24), i32, i32, i32, %"class.mojo::StructPtr.54"*) unnamed_addr #1 align 2 {
  %8 = alloca %"class.mojo::Message", align 8
  %9 = alloca %"class.mojo::internal::MessageFragment.38", align 8
  %10 = alloca %"class.mojo::internal::MessageFragment.70", align 8
  %11 = bitcast %"class.mojo::Message"* %8 to i8*
  call void @llvm.lifetime.start.p0i8(i64 120, i8* nonnull %11) #11
  call void @llvm.memset.p0i8.i64(i8* nonnull align 8 %11, i8 -86, i64 120, i1 false)
  call void @_ZN4mojo7MessageC1EjjmmPNSt3__16vectorINS_16ScopedHandleBaseINS_6HandleEEENS1_9allocatorIS5_EEEE(%"class.mojo::Message"* nonnull %8, i32 1474195162, i32 0, i64 0, i64 0, %"class.std::__1::vector"* null) #11
  %12 = getelementptr inbounds %"class.mojo::Message", %"class.mojo::Message"* %8, i64 0, i32 1
  %13 = call i64 @_ZN4mojo8internal6Buffer8AllocateEm(%"class.mojo::internal::Buffer"* %12, i64 40) #11
  %14 = getelementptr inbounds %"class.mojo::Message", %"class.mojo::Message"* %8, i64 0, i32 1, i32 2
  %15 = load i8*, i8** %14, align 8
  %16 = getelementptr inbounds i8, i8* %15, i64 %13
  %17 = bitcast i8* %16 to %"class.apps::mojom::internal::AppService_LaunchAppWithFiles_Params_Data"*
  call void @_ZN4apps5mojom8internal41AppService_LaunchAppWithFiles_Params_DataC1Ev(%"class.apps::mojom::internal::AppService_LaunchAppWithFiles_Params_Data"* %17) #11
  %18 = load i8*, i8** %14, align 8
  %19 = getelementptr inbounds i8, i8* %18, i64 %13
  %20 = getelementptr inbounds i8, i8* %19, i64 8
  %21 = bitcast i8* %20 to i32*
  store i32 %1, i32* %21, align 4
  %22 = bitcast %"class.mojo::internal::MessageFragment.38"* %9 to i8*
  call void @llvm.lifetime.start.p0i8(i64 16, i8* nonnull %22) #11
  %23 = getelementptr inbounds %"class.mojo::internal::MessageFragment.38", %"class.mojo::internal::MessageFragment.38"* %9, i64 0, i32 0
  %24 = getelementptr inbounds %"class.mojo::internal::MessageFragment.38", %"class.mojo::internal::MessageFragment.38"* %9, i64 0, i32 1
  store %"class.mojo::Message"* %8, %"class.mojo::Message"** %23, align 8
  store i64 -1, i64* %24, align 8
  call void @_ZN4mojo8internal10SerializerINS_14StringDataViewEKNSt3__112basic_stringIcNS3_11char_traitsIcEENS3_9allocatorIcEEEEE9SerializeERSA_RNS0_15MessageFragmentINS0_10Array_DataIcEEEE(%"class.std::__1::basic_string"* dereferenceable(24) %2, %"class.mojo::internal::MessageFragment.38"* nonnull dereferenceable(16) %9) #11
  %25 = load i8*, i8** %14, align 8
  %26 = getelementptr inbounds i8, i8* %25, i64 %13
  %27 = getelementptr inbounds i8, i8* %26, i64 16
  %28 = load i64, i64* %24, align 8
  %29 = icmp eq i64 %28, -1
  br i1 %29, label %36, label %30

30:                                               ; preds = %7
  %31 = load %"class.mojo::Message"*, %"class.mojo::Message"** %23, align 8
  %32 = getelementptr inbounds %"class.mojo::Message", %"class.mojo::Message"* %31, i64 0, i32 1, i32 2
  %33 = load i8*, i8** %32, align 8
  %34 = getelementptr inbounds i8, i8* %33, i64 %28
  %35 = bitcast i8* %34 to %"class.mojo::internal::Array_Data"*
  br label %36

36:                                               ; preds = %7, %30
  %37 = phi %"class.mojo::internal::Array_Data"* [ %35, %30 ], [ null, %7 ]
  %38 = bitcast i8* %27 to i64*
  %39 = icmp eq %"class.mojo::internal::Array_Data"* %37, null
  %40 = ptrtoint %"class.mojo::internal::Array_Data"* %37 to i64
  %41 = ptrtoint i8* %27 to i64
  %42 = sub i64 %40, %41
  %43 = select i1 %39, i64 0, i64 %42
  store i64 %43, i64* %38, align 8
  %44 = load i8*, i8** %14, align 8
  %45 = getelementptr inbounds i8, i8* %44, i64 %13
  %46 = getelementptr inbounds i8, i8* %45, i64 12
  %47 = bitcast i8* %46 to i32*
  store i32 %3, i32* %47, align 4
  %48 = load i8*, i8** %14, align 8
  %49 = getelementptr inbounds i8, i8* %48, i64 %13
  %50 = getelementptr inbounds i8, i8* %49, i64 24
  %51 = bitcast i8* %50 to i32*
  store i32 %4, i32* %51, align 4
  %52 = load i8*, i8** %14, align 8
  %53 = getelementptr inbounds i8, i8* %52, i64 %13
  %54 = getelementptr inbounds i8, i8* %53, i64 28
  %55 = bitcast i8* %54 to i32*
  store i32 %5, i32* %55, align 4
  %56 = bitcast %"class.mojo::internal::MessageFragment.70"* %10 to i8*
  call void @llvm.lifetime.start.p0i8(i64 16, i8* nonnull %56) #11
  %57 = getelementptr inbounds %"class.mojo::internal::MessageFragment.70", %"class.mojo::internal::MessageFragment.70"* %10, i64 0, i32 0
  %58 = getelementptr inbounds %"class.mojo::internal::MessageFragment.70", %"class.mojo::internal::MessageFragment.70"* %10, i64 0, i32 1
  store %"class.mojo::Message"* %8, %"class.mojo::Message"** %57, align 8
  store i64 -1, i64* %58, align 8
  call void @_ZN4mojo8internal10SerializerIN4apps5mojom17FilePathsDataViewENS_9StructPtrINS3_9FilePathsEEEE9SerializeERS7_RNS0_15MessageFragmentINS3_8internal14FilePaths_DataEEE(%"class.mojo::StructPtr.54"* dereferenceable(8) %6, %"class.mojo::internal::MessageFragment.70"* nonnull dereferenceable(16) %10) #11
  %59 = load i8*, i8** %14, align 8
  %60 = getelementptr inbounds i8, i8* %59, i64 %13
  %61 = getelementptr inbounds i8, i8* %60, i64 32
  %62 = load i64, i64* %58, align 8
  %63 = icmp eq i64 %62, -1
  br i1 %63, label %70, label %64

64:                                               ; preds = %36
  %65 = load %"class.mojo::Message"*, %"class.mojo::Message"** %57, align 8
  %66 = getelementptr inbounds %"class.mojo::Message", %"class.mojo::Message"* %65, i64 0, i32 1, i32 2
  %67 = load i8*, i8** %66, align 8
  %68 = getelementptr inbounds i8, i8* %67, i64 %62
  %69 = bitcast i8* %68 to %"class.apps::mojom::internal::FilePaths_Data"*
  br label %70

70:                                               ; preds = %36, %64
  %71 = phi %"class.apps::mojom::internal::FilePaths_Data"* [ %69, %64 ], [ null, %36 ]
  %72 = bitcast i8* %61 to i64*
  %73 = icmp eq %"class.apps::mojom::internal::FilePaths_Data"* %71, null
  %74 = ptrtoint %"class.apps::mojom::internal::FilePaths_Data"* %71 to i64
  %75 = ptrtoint i8* %61 to i64
  %76 = sub i64 %74, %75
  %77 = select i1 %73, i64 0, i64 %76
  store i64 %77, i64* %72, align 8
  %78 = getelementptr inbounds %"class.apps::mojom::AppServiceProxy", %"class.apps::mojom::AppServiceProxy"* %0, i64 0, i32 1
  %79 = bitcast %"class.mojo::MessageReceiverWithResponder"** %78 to %"class.mojo::MessageReceiver"**
  %80 = load %"class.mojo::MessageReceiver"*, %"class.mojo::MessageReceiver"** %79, align 8
  %81 = bitcast %"class.mojo::MessageReceiver"* %80 to i1 (%"class.mojo::MessageReceiver"*, %"class.mojo::Message"*)***
  %82 = load i1 (%"class.mojo::MessageReceiver"*, %"class.mojo::Message"*)**, i1 (%"class.mojo::MessageReceiver"*, %"class.mojo::Message"*)*** %81, align 8
  %83 = getelementptr inbounds i1 (%"class.mojo::MessageReceiver"*, %"class.mojo::Message"*)*, i1 (%"class.mojo::MessageReceiver"*, %"class.mojo::Message"*)** %82, i64 3
  %84 = load i1 (%"class.mojo::MessageReceiver"*, %"class.mojo::Message"*)*, i1 (%"class.mojo::MessageReceiver"*, %"class.mojo::Message"*)** %83, align 8
  %85 = call zeroext i1 %84(%"class.mojo::MessageReceiver"* %80, %"class.mojo::Message"* nonnull %8) #11
  call void @llvm.lifetime.end.p0i8(i64 16, i8* nonnull %56) #11
  call void @llvm.lifetime.end.p0i8(i64 16, i8* nonnull %22) #11
  call void @_ZN4mojo7MessageD1Ev(%"class.mojo::Message"* nonnull %8) #11
  call void @llvm.lifetime.end.p0i8(i64 120, i8* nonnull %11) #11
  ret void
}

; Function Attrs: nounwind ssp uwtable
define hidden void @_ZN4apps5mojom15AppServiceProxy19LaunchAppWithIntentENS0_7AppTypeERKNSt3__112basic_stringIcNS3_11char_traitsIcEENS3_9allocatorIcEEEEiN4mojo9StructPtrINS0_6IntentEEENS0_12LaunchSourceENSD_INS0_10WindowInfoEEE(%"class.apps::mojom::AppServiceProxy"* nocapture readonly, i32, %"class.std::__1::basic_string"* dereferenceable(24), i32, %"class.mojo::StructPtr.72"*, i32, %"class.mojo::StructPtr"*) unnamed_addr #1 align 2 {
  %8 = alloca %"class.mojo::Message", align 8
  %9 = alloca %"class.mojo::internal::MessageFragment.38", align 8
  %10 = alloca %"class.mojo::internal::MessageFragment.128", align 8
  %11 = alloca %"class.mojo::internal::MessageFragment.52", align 8
  %12 = bitcast %"class.mojo::Message"* %8 to i8*
  call void @llvm.lifetime.start.p0i8(i64 120, i8* nonnull %12) #11
  call void @llvm.memset.p0i8.i64(i8* nonnull align 8 %12, i8 -86, i64 120, i1 false)
  call void @_ZN4mojo7MessageC1EjjmmPNSt3__16vectorINS_16ScopedHandleBaseINS_6HandleEEENS1_9allocatorIS5_EEEE(%"class.mojo::Message"* nonnull %8, i32 1452583878, i32 0, i64 0, i64 0, %"class.std::__1::vector"* null) #11
  %13 = getelementptr inbounds %"class.mojo::Message", %"class.mojo::Message"* %8, i64 0, i32 1
  %14 = call i64 @_ZN4mojo8internal6Buffer8AllocateEm(%"class.mojo::internal::Buffer"* %13, i64 48) #11
  %15 = getelementptr inbounds %"class.mojo::Message", %"class.mojo::Message"* %8, i64 0, i32 1, i32 2
  %16 = load i8*, i8** %15, align 8
  %17 = getelementptr inbounds i8, i8* %16, i64 %14
  %18 = bitcast i8* %17 to %"class.apps::mojom::internal::AppService_LaunchAppWithIntent_Params_Data"*
  call void @_ZN4apps5mojom8internal42AppService_LaunchAppWithIntent_Params_DataC1Ev(%"class.apps::mojom::internal::AppService_LaunchAppWithIntent_Params_Data"* %18) #11
  %19 = load i8*, i8** %15, align 8
  %20 = getelementptr inbounds i8, i8* %19, i64 %14
  %21 = getelementptr inbounds i8, i8* %20, i64 8
  %22 = bitcast i8* %21 to i32*
  store i32 %1, i32* %22, align 4
  %23 = bitcast %"class.mojo::internal::MessageFragment.38"* %9 to i8*
  call void @llvm.lifetime.start.p0i8(i64 16, i8* nonnull %23) #11
  %24 = getelementptr inbounds %"class.mojo::internal::MessageFragment.38", %"class.mojo::internal::MessageFragment.38"* %9, i64 0, i32 0
  %25 = getelementptr inbounds %"class.mojo::internal::MessageFragment.38", %"class.mojo::internal::MessageFragment.38"* %9, i64 0, i32 1
  store %"class.mojo::Message"* %8, %"class.mojo::Message"** %24, align 8
  store i64 -1, i64* %25, align 8
  call void @_ZN4mojo8internal10SerializerINS_14StringDataViewEKNSt3__112basic_stringIcNS3_11char_traitsIcEENS3_9allocatorIcEEEEE9SerializeERSA_RNS0_15MessageFragmentINS0_10Array_DataIcEEEE(%"class.std::__1::basic_string"* dereferenceable(24) %2, %"class.mojo::internal::MessageFragment.38"* nonnull dereferenceable(16) %9) #11
  %26 = load i8*, i8** %15, align 8
  %27 = getelementptr inbounds i8, i8* %26, i64 %14
  %28 = getelementptr inbounds i8, i8* %27, i64 16
  %29 = load i64, i64* %25, align 8
  %30 = icmp eq i64 %29, -1
  br i1 %30, label %37, label %31

31:                                               ; preds = %7
  %32 = load %"class.mojo::Message"*, %"class.mojo::Message"** %24, align 8
  %33 = getelementptr inbounds %"class.mojo::Message", %"class.mojo::Message"* %32, i64 0, i32 1, i32 2
  %34 = load i8*, i8** %33, align 8
  %35 = getelementptr inbounds i8, i8* %34, i64 %29
  %36 = bitcast i8* %35 to %"class.mojo::internal::Array_Data"*
  br label %37

37:                                               ; preds = %7, %31
  %38 = phi %"class.mojo::internal::Array_Data"* [ %36, %31 ], [ null, %7 ]
  %39 = bitcast i8* %28 to i64*
  %40 = icmp eq %"class.mojo::internal::Array_Data"* %38, null
  %41 = ptrtoint %"class.mojo::internal::Array_Data"* %38 to i64
  %42 = ptrtoint i8* %28 to i64
  %43 = sub i64 %41, %42
  %44 = select i1 %40, i64 0, i64 %43
  store i64 %44, i64* %39, align 8
  %45 = load i8*, i8** %15, align 8
  %46 = getelementptr inbounds i8, i8* %45, i64 %14
  %47 = getelementptr inbounds i8, i8* %46, i64 12
  %48 = bitcast i8* %47 to i32*
  store i32 %3, i32* %48, align 4
  %49 = bitcast %"class.mojo::internal::MessageFragment.128"* %10 to i8*
  call void @llvm.lifetime.start.p0i8(i64 16, i8* nonnull %49) #11
  %50 = getelementptr inbounds %"class.mojo::internal::MessageFragment.128", %"class.mojo::internal::MessageFragment.128"* %10, i64 0, i32 0
  %51 = getelementptr inbounds %"class.mojo::internal::MessageFragment.128", %"class.mojo::internal::MessageFragment.128"* %10, i64 0, i32 1
  store %"class.mojo::Message"* %8, %"class.mojo::Message"** %50, align 8
  store i64 -1, i64* %51, align 8
  call void @_ZN4mojo8internal10SerializerIN4apps5mojom14IntentDataViewENS_9StructPtrINS3_6IntentEEEE9SerializeERS7_RNS0_15MessageFragmentINS3_8internal11Intent_DataEEE(%"class.mojo::StructPtr.72"* dereferenceable(8) %4, %"class.mojo::internal::MessageFragment.128"* nonnull dereferenceable(16) %10) #11
  %52 = load i8*, i8** %15, align 8
  %53 = getelementptr inbounds i8, i8* %52, i64 %14
  %54 = getelementptr inbounds i8, i8* %53, i64 24
  %55 = load i64, i64* %51, align 8
  %56 = icmp eq i64 %55, -1
  br i1 %56, label %63, label %57

57:                                               ; preds = %37
  %58 = load %"class.mojo::Message"*, %"class.mojo::Message"** %50, align 8
  %59 = getelementptr inbounds %"class.mojo::Message", %"class.mojo::Message"* %58, i64 0, i32 1, i32 2
  %60 = load i8*, i8** %59, align 8
  %61 = getelementptr inbounds i8, i8* %60, i64 %55
  %62 = bitcast i8* %61 to %"class.apps::mojom::internal::Intent_Data"*
  br label %63

63:                                               ; preds = %37, %57
  %64 = phi %"class.apps::mojom::internal::Intent_Data"* [ %62, %57 ], [ null, %37 ]
  %65 = bitcast i8* %54 to i64*
  %66 = icmp eq %"class.apps::mojom::internal::Intent_Data"* %64, null
  %67 = ptrtoint %"class.apps::mojom::internal::Intent_Data"* %64 to i64
  %68 = ptrtoint i8* %54 to i64
  %69 = sub i64 %67, %68
  %70 = select i1 %66, i64 0, i64 %69
  store i64 %70, i64* %65, align 8
  %71 = load i8*, i8** %15, align 8
  %72 = getelementptr inbounds i8, i8* %71, i64 %14
  %73 = getelementptr inbounds i8, i8* %72, i64 32
  %74 = bitcast i8* %73 to i32*
  store i32 %5, i32* %74, align 4
  %75 = bitcast %"class.mojo::internal::MessageFragment.52"* %11 to i8*
  call void @llvm.lifetime.start.p0i8(i64 16, i8* nonnull %75) #11
  %76 = getelementptr inbounds %"class.mojo::internal::MessageFragment.52", %"class.mojo::internal::MessageFragment.52"* %11, i64 0, i32 0
  %77 = getelementptr inbounds %"class.mojo::internal::MessageFragment.52", %"class.mojo::internal::MessageFragment.52"* %11, i64 0, i32 1
  store %"class.mojo::Message"* %8, %"class.mojo::Message"** %76, align 8
  store i64 -1, i64* %77, align 8
  call void @_ZN4mojo8internal10SerializerIN4apps5mojom18WindowInfoDataViewENS_9StructPtrINS3_10WindowInfoEEEE9SerializeERS7_RNS0_15MessageFragmentINS3_8internal15WindowInfo_DataEEE(%"class.mojo::StructPtr"* dereferenceable(8) %6, %"class.mojo::internal::MessageFragment.52"* nonnull dereferenceable(16) %11) #11
  %78 = load i8*, i8** %15, align 8
  %79 = getelementptr inbounds i8, i8* %78, i64 %14
  %80 = getelementptr inbounds i8, i8* %79, i64 40
  %81 = load i64, i64* %77, align 8
  %82 = icmp eq i64 %81, -1
  br i1 %82, label %89, label %83

83:                                               ; preds = %63
  %84 = load %"class.mojo::Message"*, %"class.mojo::Message"** %76, align 8
  %85 = getelementptr inbounds %"class.mojo::Message", %"class.mojo::Message"* %84, i64 0, i32 1, i32 2
  %86 = load i8*, i8** %85, align 8
  %87 = getelementptr inbounds i8, i8* %86, i64 %81
  %88 = bitcast i8* %87 to %"class.apps::mojom::internal::WindowInfo_Data"*
  br label %89

89:                                               ; preds = %63, %83
  %90 = phi %"class.apps::mojom::internal::WindowInfo_Data"* [ %88, %83 ], [ null, %63 ]
  %91 = bitcast i8* %80 to i64*
  %92 = icmp eq %"class.apps::mojom::internal::WindowInfo_Data"* %90, null
  %93 = ptrtoint %"class.apps::mojom::internal::WindowInfo_Data"* %90 to i64
  %94 = ptrtoint i8* %80 to i64
  %95 = sub i64 %93, %94
  %96 = select i1 %92, i64 0, i64 %95
  store i64 %96, i64* %91, align 8
  %97 = getelementptr inbounds %"class.apps::mojom::AppServiceProxy", %"class.apps::mojom::AppServiceProxy"* %0, i64 0, i32 1
  %98 = bitcast %"class.mojo::MessageReceiverWithResponder"** %97 to %"class.mojo::MessageReceiver"**
  %99 = load %"class.mojo::MessageReceiver"*, %"class.mojo::MessageReceiver"** %98, align 8
  %100 = bitcast %"class.mojo::MessageReceiver"* %99 to i1 (%"class.mojo::MessageReceiver"*, %"class.mojo::Message"*)***
  %101 = load i1 (%"class.mojo::MessageReceiver"*, %"class.mojo::Message"*)**, i1 (%"class.mojo::MessageReceiver"*, %"class.mojo::Message"*)*** %100, align 8
  %102 = getelementptr inbounds i1 (%"class.mojo::MessageReceiver"*, %"class.mojo::Message"*)*, i1 (%"class.mojo::MessageReceiver"*, %"class.mojo::Message"*)** %101, i64 3
  %103 = load i1 (%"class.mojo::MessageReceiver"*, %"class.mojo::Message"*)*, i1 (%"class.mojo::MessageReceiver"*, %"class.mojo::Message"*)** %102, align 8
  %104 = call zeroext i1 %103(%"class.mojo::MessageReceiver"* %99, %"class.mojo::Message"* nonnull %8) #11
  call void @llvm.lifetime.end.p0i8(i64 16, i8* nonnull %75) #11
  call void @llvm.lifetime.end.p0i8(i64 16, i8* nonnull %49) #11
  call void @llvm.lifetime.end.p0i8(i64 16, i8* nonnull %23) #11
  call void @_ZN4mojo7MessageD1Ev(%"class.mojo::Message"* nonnull %8) #11
  call void @llvm.lifetime.end.p0i8(i64 120, i8* nonnull %12) #11
  ret void
}

; Function Attrs: nounwind ssp uwtable
define hidden void @_ZN4apps5mojom15AppServiceProxy13SetPermissionENS0_7AppTypeERKNSt3__112basic_stringIcNS3_11char_traitsIcEENS3_9allocatorIcEEEEN4mojo16InlinedStructPtrINS0_10PermissionEEE(%"class.apps::mojom::AppServiceProxy"* nocapture readonly, i32, %"class.std::__1::basic_string"* dereferenceable(24), %"class.mojo::InlinedStructPtr.133"* nocapture readonly) unnamed_addr #1 align 2 {
  %5 = alloca %"class.mojo::Message", align 8
  %6 = alloca %"class.mojo::internal::MessageFragment.38", align 8
  %7 = bitcast %"class.mojo::Message"* %5 to i8*
  call void @llvm.lifetime.start.p0i8(i64 120, i8* nonnull %7) #11
  call void @llvm.memset.p0i8.i64(i8* nonnull align 8 %7, i8 -86, i64 120, i1 false)
  call void @_ZN4mojo7MessageC1EjjmmPNSt3__16vectorINS_16ScopedHandleBaseINS_6HandleEEENS1_9allocatorIS5_EEEE(%"class.mojo::Message"* nonnull %5, i32 925018103, i32 0, i64 0, i64 0, %"class.std::__1::vector"* null) #11
  %8 = getelementptr inbounds %"class.mojo::Message", %"class.mojo::Message"* %5, i64 0, i32 1
  %9 = call i64 @_ZN4mojo8internal6Buffer8AllocateEm(%"class.mojo::internal::Buffer"* %8, i64 32) #11
  %10 = getelementptr inbounds %"class.mojo::Message", %"class.mojo::Message"* %5, i64 0, i32 1, i32 2
  %11 = load i8*, i8** %10, align 8
  %12 = getelementptr inbounds i8, i8* %11, i64 %9
  %13 = bitcast i8* %12 to %"class.apps::mojom::internal::AppService_SetPermission_Params_Data"*
  call void @_ZN4apps5mojom8internal36AppService_SetPermission_Params_DataC1Ev(%"class.apps::mojom::internal::AppService_SetPermission_Params_Data"* %13) #11
  %14 = load i8*, i8** %10, align 8
  %15 = getelementptr inbounds i8, i8* %14, i64 %9
  %16 = getelementptr inbounds i8, i8* %15, i64 8
  %17 = bitcast i8* %16 to i32*
  store i32 %1, i32* %17, align 4
  %18 = bitcast %"class.mojo::internal::MessageFragment.38"* %6 to i8*
  call void @llvm.lifetime.start.p0i8(i64 16, i8* nonnull %18) #11
  %19 = getelementptr inbounds %"class.mojo::internal::MessageFragment.38", %"class.mojo::internal::MessageFragment.38"* %6, i64 0, i32 0
  %20 = getelementptr inbounds %"class.mojo::internal::MessageFragment.38", %"class.mojo::internal::MessageFragment.38"* %6, i64 0, i32 1
  store %"class.mojo::Message"* %5, %"class.mojo::Message"** %19, align 8
  store i64 -1, i64* %20, align 8
  call void @_ZN4mojo8internal10SerializerINS_14StringDataViewEKNSt3__112basic_stringIcNS3_11char_traitsIcEENS3_9allocatorIcEEEEE9SerializeERSA_RNS0_15MessageFragmentINS0_10Array_DataIcEEEE(%"class.std::__1::basic_string"* dereferenceable(24) %2, %"class.mojo::internal::MessageFragment.38"* nonnull dereferenceable(16) %6) #11
  %21 = load i8*, i8** %10, align 8
  %22 = getelementptr inbounds i8, i8* %21, i64 %9
  %23 = getelementptr inbounds i8, i8* %22, i64 16
  %24 = load i64, i64* %20, align 8
  %25 = icmp eq i64 %24, -1
  br i1 %25, label %32, label %26

26:                                               ; preds = %4
  %27 = load %"class.mojo::Message"*, %"class.mojo::Message"** %19, align 8
  %28 = getelementptr inbounds %"class.mojo::Message", %"class.mojo::Message"* %27, i64 0, i32 1, i32 2
  %29 = load i8*, i8** %28, align 8
  %30 = getelementptr inbounds i8, i8* %29, i64 %24
  %31 = bitcast i8* %30 to %"class.mojo::internal::Array_Data"*
  br label %32

32:                                               ; preds = %4, %26
  %33 = phi %"class.mojo::internal::Array_Data"* [ %31, %26 ], [ null, %4 ]
  %34 = bitcast i8* %23 to i64*
  %35 = icmp eq %"class.mojo::internal::Array_Data"* %33, null
  %36 = ptrtoint %"class.mojo::internal::Array_Data"* %33 to i64
  %37 = ptrtoint i8* %23 to i64
  %38 = sub i64 %36, %37
  %39 = select i1 %35, i64 0, i64 %38
  store i64 %39, i64* %34, align 8
  %40 = getelementptr inbounds %"class.mojo::InlinedStructPtr.133", %"class.mojo::InlinedStructPtr.133"* %3, i64 0, i32 1
  %41 = load i32, i32* %40, align 4
  %42 = icmp eq i32 %41, 0
  br i1 %42, label %43, label %48

43:                                               ; preds = %32
  %44 = load i8*, i8** %10, align 8
  %45 = getelementptr inbounds i8, i8* %44, i64 %9
  %46 = getelementptr inbounds i8, i8* %45, i64 24
  %47 = bitcast i8* %46 to %"struct.mojo::internal::Pointer.135"*
  br label %87

48:                                               ; preds = %32
  %49 = call i64 @_ZN4mojo8internal6Buffer8AllocateEm(%"class.mojo::internal::Buffer"* %8, i64 24) #11
  %50 = load i8*, i8** %10, align 8
  %51 = getelementptr inbounds i8, i8* %50, i64 %49
  %52 = bitcast i8* %51 to %"class.apps::mojom::internal::Permission_Data"*
  call void @_ZN4apps5mojom8internal15Permission_DataC1Ev(%"class.apps::mojom::internal::Permission_Data"* %52) #11
  %53 = getelementptr inbounds %"class.mojo::InlinedStructPtr.133", %"class.mojo::InlinedStructPtr.133"* %3, i64 0, i32 0, i32 0
  %54 = load i32, i32* %53, align 4
  %55 = load i8*, i8** %10, align 8
  %56 = getelementptr inbounds i8, i8* %55, i64 %49
  %57 = getelementptr inbounds i8, i8* %56, i64 8
  %58 = bitcast i8* %57 to i32*
  store i32 %54, i32* %58, align 1
  %59 = getelementptr inbounds %"class.mojo::InlinedStructPtr.133", %"class.mojo::InlinedStructPtr.133"* %3, i64 0, i32 0, i32 1
  %60 = load i32, i32* %59, align 4
  %61 = load i8*, i8** %10, align 8
  %62 = getelementptr inbounds i8, i8* %61, i64 %49
  %63 = getelementptr inbounds i8, i8* %62, i64 12
  %64 = bitcast i8* %63 to i32*
  store i32 %60, i32* %64, align 4
  %65 = getelementptr inbounds %"class.mojo::InlinedStructPtr.133", %"class.mojo::InlinedStructPtr.133"* %3, i64 0, i32 0, i32 2
  %66 = load i32, i32* %65, align 4
  %67 = load i8*, i8** %10, align 8
  %68 = getelementptr inbounds i8, i8* %67, i64 %49
  %69 = getelementptr inbounds i8, i8* %68, i64 16
  %70 = bitcast i8* %69 to i32*
  store i32 %66, i32* %70, align 1
  %71 = getelementptr inbounds %"class.mojo::InlinedStructPtr.133", %"class.mojo::InlinedStructPtr.133"* %3, i64 0, i32 0, i32 3
  %72 = load i8, i8* %71, align 4, !range !14
  %73 = load i8*, i8** %10, align 8
  %74 = getelementptr inbounds i8, i8* %73, i64 %49
  %75 = getelementptr inbounds i8, i8* %74, i64 20
  %76 = load i8, i8* %75, align 1
  %77 = and i8 %76, -2
  %78 = or i8 %77, %72
  store i8 %78, i8* %75, align 1
  %79 = load i8*, i8** %10, align 8
  %80 = getelementptr inbounds i8, i8* %79, i64 %9
  %81 = getelementptr inbounds i8, i8* %80, i64 24
  %82 = bitcast i8* %81 to %"struct.mojo::internal::Pointer.135"*
  %83 = icmp eq i64 %49, -1
  br i1 %83, label %87, label %84

84:                                               ; preds = %48
  %85 = getelementptr inbounds i8, i8* %79, i64 %49
  %86 = bitcast i8* %85 to %"class.apps::mojom::internal::Permission_Data"*
  br label %87

87:                                               ; preds = %43, %48, %84
  %88 = phi %"struct.mojo::internal::Pointer.135"* [ %82, %84 ], [ %82, %48 ], [ %47, %43 ]
  %89 = phi %"class.apps::mojom::internal::Permission_Data"* [ %86, %84 ], [ null, %48 ], [ null, %43 ]
  %90 = getelementptr inbounds %"struct.mojo::internal::Pointer.135", %"struct.mojo::internal::Pointer.135"* %88, i64 0, i32 0
  %91 = icmp eq %"class.apps::mojom::internal::Permission_Data"* %89, null
  %92 = ptrtoint %"class.apps::mojom::internal::Permission_Data"* %89 to i64
  %93 = ptrtoint %"struct.mojo::internal::Pointer.135"* %88 to i64
  %94 = sub i64 %92, %93
  %95 = select i1 %91, i64 0, i64 %94
  store i64 %95, i64* %90, align 8
  %96 = getelementptr inbounds %"class.apps::mojom::AppServiceProxy", %"class.apps::mojom::AppServiceProxy"* %0, i64 0, i32 1
  %97 = bitcast %"class.mojo::MessageReceiverWithResponder"** %96 to %"class.mojo::MessageReceiver"**
  %98 = load %"class.mojo::MessageReceiver"*, %"class.mojo::MessageReceiver"** %97, align 8
  %99 = bitcast %"class.mojo::MessageReceiver"* %98 to i1 (%"class.mojo::MessageReceiver"*, %"class.mojo::Message"*)***
  %100 = load i1 (%"class.mojo::MessageReceiver"*, %"class.mojo::Message"*)**, i1 (%"class.mojo::MessageReceiver"*, %"class.mojo::Message"*)*** %99, align 8
  %101 = getelementptr inbounds i1 (%"class.mojo::MessageReceiver"*, %"class.mojo::Message"*)*, i1 (%"class.mojo::MessageReceiver"*, %"class.mojo::Message"*)** %100, i64 3
  %102 = load i1 (%"class.mojo::MessageReceiver"*, %"class.mojo::Message"*)*, i1 (%"class.mojo::MessageReceiver"*, %"class.mojo::Message"*)** %101, align 8
  %103 = call zeroext i1 %102(%"class.mojo::MessageReceiver"* %98, %"class.mojo::Message"* nonnull %5) #11
  call void @llvm.lifetime.end.p0i8(i64 16, i8* nonnull %18) #11
  call void @_ZN4mojo7MessageD1Ev(%"class.mojo::Message"* nonnull %5) #11
  call void @llvm.lifetime.end.p0i8(i64 120, i8* nonnull %7) #11
  ret void
}

; Function Attrs: nounwind ssp uwtable
define hidden void @_ZN4apps5mojom15AppServiceProxy9UninstallENS0_7AppTypeERKNSt3__112basic_stringIcNS3_11char_traitsIcEENS3_9allocatorIcEEEENS0_15UninstallSourceEbb(%"class.apps::mojom::AppServiceProxy"* nocapture readonly, i32, %"class.std::__1::basic_string"* dereferenceable(24), i32, i1 zeroext, i1 zeroext) unnamed_addr #1 align 2 {
  %7 = alloca %"class.mojo::Message", align 8
  %8 = alloca %"class.mojo::internal::MessageFragment.38", align 8
  %9 = zext i1 %4 to i8
  %10 = zext i1 %5 to i8
  %11 = bitcast %"class.mojo::Message"* %7 to i8*
  call void @llvm.lifetime.start.p0i8(i64 120, i8* nonnull %11) #11
  call void @llvm.memset.p0i8.i64(i8* nonnull align 8 %11, i8 -86, i64 120, i1 false)
  call void @_ZN4mojo7MessageC1EjjmmPNSt3__16vectorINS_16ScopedHandleBaseINS_6HandleEEENS1_9allocatorIS5_EEEE(%"class.mojo::Message"* nonnull %7, i32 1040415584, i32 0, i64 0, i64 0, %"class.std::__1::vector"* null) #11
  %12 = getelementptr inbounds %"class.mojo::Message", %"class.mojo::Message"* %7, i64 0, i32 1
  %13 = call i64 @_ZN4mojo8internal6Buffer8AllocateEm(%"class.mojo::internal::Buffer"* %12, i64 32) #11
  %14 = getelementptr inbounds %"class.mojo::Message", %"class.mojo::Message"* %7, i64 0, i32 1, i32 2
  %15 = load i8*, i8** %14, align 8
  %16 = getelementptr inbounds i8, i8* %15, i64 %13
  %17 = bitcast i8* %16 to %"class.apps::mojom::internal::AppService_Uninstall_Params_Data"*
  call void @_ZN4apps5mojom8internal32AppService_Uninstall_Params_DataC1Ev(%"class.apps::mojom::internal::AppService_Uninstall_Params_Data"* %17) #11
  %18 = load i8*, i8** %14, align 8
  %19 = getelementptr inbounds i8, i8* %18, i64 %13
  %20 = getelementptr inbounds i8, i8* %19, i64 8
  %21 = bitcast i8* %20 to i32*
  store i32 %1, i32* %21, align 4
  %22 = bitcast %"class.mojo::internal::MessageFragment.38"* %8 to i8*
  call void @llvm.lifetime.start.p0i8(i64 16, i8* nonnull %22) #11
  %23 = getelementptr inbounds %"class.mojo::internal::MessageFragment.38", %"class.mojo::internal::MessageFragment.38"* %8, i64 0, i32 0
  %24 = getelementptr inbounds %"class.mojo::internal::MessageFragment.38", %"class.mojo::internal::MessageFragment.38"* %8, i64 0, i32 1
  store %"class.mojo::Message"* %7, %"class.mojo::Message"** %23, align 8
  store i64 -1, i64* %24, align 8
  call void @_ZN4mojo8internal10SerializerINS_14StringDataViewEKNSt3__112basic_stringIcNS3_11char_traitsIcEENS3_9allocatorIcEEEEE9SerializeERSA_RNS0_15MessageFragmentINS0_10Array_DataIcEEEE(%"class.std::__1::basic_string"* dereferenceable(24) %2, %"class.mojo::internal::MessageFragment.38"* nonnull dereferenceable(16) %8) #11
  %25 = load i8*, i8** %14, align 8
  %26 = getelementptr inbounds i8, i8* %25, i64 %13
  %27 = getelementptr inbounds i8, i8* %26, i64 16
  %28 = load i64, i64* %24, align 8
  %29 = icmp eq i64 %28, -1
  br i1 %29, label %36, label %30

30:                                               ; preds = %6
  %31 = load %"class.mojo::Message"*, %"class.mojo::Message"** %23, align 8
  %32 = getelementptr inbounds %"class.mojo::Message", %"class.mojo::Message"* %31, i64 0, i32 1, i32 2
  %33 = load i8*, i8** %32, align 8
  %34 = getelementptr inbounds i8, i8* %33, i64 %28
  %35 = bitcast i8* %34 to %"class.mojo::internal::Array_Data"*
  br label %36

36:                                               ; preds = %6, %30
  %37 = phi %"class.mojo::internal::Array_Data"* [ %35, %30 ], [ null, %6 ]
  %38 = bitcast i8* %27 to i64*
  %39 = icmp eq %"class.mojo::internal::Array_Data"* %37, null
  %40 = ptrtoint %"class.mojo::internal::Array_Data"* %37 to i64
  %41 = ptrtoint i8* %27 to i64
  %42 = sub i64 %40, %41
  %43 = select i1 %39, i64 0, i64 %42
  store i64 %43, i64* %38, align 8
  %44 = load i8*, i8** %14, align 8
  %45 = getelementptr inbounds i8, i8* %44, i64 %13
  %46 = getelementptr inbounds i8, i8* %45, i64 12
  %47 = bitcast i8* %46 to i32*
  store i32 %3, i32* %47, align 4
  %48 = load i8*, i8** %14, align 8
  %49 = getelementptr inbounds i8, i8* %48, i64 %13
  %50 = getelementptr inbounds i8, i8* %49, i64 24
  %51 = load i8, i8* %50, align 4
  %52 = and i8 %51, -2
  %53 = or i8 %52, %9
  store i8 %53, i8* %50, align 4
  %54 = load i8*, i8** %14, align 8
  %55 = getelementptr inbounds i8, i8* %54, i64 %13
  %56 = getelementptr inbounds i8, i8* %55, i64 24
  %57 = load i8, i8* %56, align 4
  %58 = shl nuw nsw i8 %10, 1
  %59 = and i8 %57, -3
  %60 = or i8 %59, %58
  store i8 %60, i8* %56, align 4
  %61 = getelementptr inbounds %"class.apps::mojom::AppServiceProxy", %"class.apps::mojom::AppServiceProxy"* %0, i64 0, i32 1
  %62 = bitcast %"class.mojo::MessageReceiverWithResponder"** %61 to %"class.mojo::MessageReceiver"**
  %63 = load %"class.mojo::MessageReceiver"*, %"class.mojo::MessageReceiver"** %62, align 8
  %64 = bitcast %"class.mojo::MessageReceiver"* %63 to i1 (%"class.mojo::MessageReceiver"*, %"class.mojo::Message"*)***
  %65 = load i1 (%"class.mojo::MessageReceiver"*, %"class.mojo::Message"*)**, i1 (%"class.mojo::MessageReceiver"*, %"class.mojo::Message"*)*** %64, align 8
  %66 = getelementptr inbounds i1 (%"class.mojo::MessageReceiver"*, %"class.mojo::Message"*)*, i1 (%"class.mojo::MessageReceiver"*, %"class.mojo::Message"*)** %65, i64 3
  %67 = load i1 (%"class.mojo::MessageReceiver"*, %"class.mojo::Message"*)*, i1 (%"class.mojo::MessageReceiver"*, %"class.mojo::Message"*)** %66, align 8
  %68 = call zeroext i1 %67(%"class.mojo::MessageReceiver"* %63, %"class.mojo::Message"* nonnull %7) #11
  call void @llvm.lifetime.end.p0i8(i64 16, i8* nonnull %22) #11
  call void @_ZN4mojo7MessageD1Ev(%"class.mojo::Message"* nonnull %7) #11
  call void @llvm.lifetime.end.p0i8(i64 120, i8* nonnull %11) #11
  ret void
}

; Function Attrs: nounwind ssp uwtable
define hidden void @_ZN4apps5mojom15AppServiceProxy8PauseAppENS0_7AppTypeERKNSt3__112basic_stringIcNS3_11char_traitsIcEENS3_9allocatorIcEEEE(%"class.apps::mojom::AppServiceProxy"* nocapture readonly, i32, %"class.std::__1::basic_string"* dereferenceable(24)) unnamed_addr #1 align 2 {
  %4 = alloca %"class.mojo::Message", align 8
  %5 = alloca %"class.mojo::internal::MessageFragment.38", align 8
  %6 = bitcast %"class.mojo::Message"* %4 to i8*
  call void @llvm.lifetime.start.p0i8(i64 120, i8* nonnull %6) #11
  call void @llvm.memset.p0i8.i64(i8* nonnull align 8 %6, i8 -86, i64 120, i1 false)
  call void @_ZN4mojo7MessageC1EjjmmPNSt3__16vectorINS_16ScopedHandleBaseINS_6HandleEEENS1_9allocatorIS5_EEEE(%"class.mojo::Message"* nonnull %4, i32 393733750, i32 0, i64 0, i64 0, %"class.std::__1::vector"* null) #11
  %7 = getelementptr inbounds %"class.mojo::Message", %"class.mojo::Message"* %4, i64 0, i32 1
  %8 = call i64 @_ZN4mojo8internal6Buffer8AllocateEm(%"class.mojo::internal::Buffer"* %7, i64 24) #11
  %9 = getelementptr inbounds %"class.mojo::Message", %"class.mojo::Message"* %4, i64 0, i32 1, i32 2
  %10 = load i8*, i8** %9, align 8
  %11 = getelementptr inbounds i8, i8* %10, i64 %8
  %12 = bitcast i8* %11 to %"class.apps::mojom::internal::AppService_PauseApp_Params_Data"*
  call void @_ZN4apps5mojom8internal31AppService_PauseApp_Params_DataC1Ev(%"class.apps::mojom::internal::AppService_PauseApp_Params_Data"* %12) #11
  %13 = load i8*, i8** %9, align 8
  %14 = getelementptr inbounds i8, i8* %13, i64 %8
  %15 = getelementptr inbounds i8, i8* %14, i64 8
  %16 = bitcast i8* %15 to i32*
  store i32 %1, i32* %16, align 4
  %17 = bitcast %"class.mojo::internal::MessageFragment.38"* %5 to i8*
  call void @llvm.lifetime.start.p0i8(i64 16, i8* nonnull %17) #11
  %18 = getelementptr inbounds %"class.mojo::internal::MessageFragment.38", %"class.mojo::internal::MessageFragment.38"* %5, i64 0, i32 0
  %19 = getelementptr inbounds %"class.mojo::internal::MessageFragment.38", %"class.mojo::internal::MessageFragment.38"* %5, i64 0, i32 1
  store %"class.mojo::Message"* %4, %"class.mojo::Message"** %18, align 8
  store i64 -1, i64* %19, align 8
  call void @_ZN4mojo8internal10SerializerINS_14StringDataViewEKNSt3__112basic_stringIcNS3_11char_traitsIcEENS3_9allocatorIcEEEEE9SerializeERSA_RNS0_15MessageFragmentINS0_10Array_DataIcEEEE(%"class.std::__1::basic_string"* dereferenceable(24) %2, %"class.mojo::internal::MessageFragment.38"* nonnull dereferenceable(16) %5) #11
  %20 = load i8*, i8** %9, align 8
  %21 = getelementptr inbounds i8, i8* %20, i64 %8
  %22 = getelementptr inbounds i8, i8* %21, i64 16
  %23 = load i64, i64* %19, align 8
  %24 = icmp eq i64 %23, -1
  br i1 %24, label %31, label %25

25:                                               ; preds = %3
  %26 = load %"class.mojo::Message"*, %"class.mojo::Message"** %18, align 8
  %27 = getelementptr inbounds %"class.mojo::Message", %"class.mojo::Message"* %26, i64 0, i32 1, i32 2
  %28 = load i8*, i8** %27, align 8
  %29 = getelementptr inbounds i8, i8* %28, i64 %23
  %30 = bitcast i8* %29 to %"class.mojo::internal::Array_Data"*
  br label %31

31:                                               ; preds = %3, %25
  %32 = phi %"class.mojo::internal::Array_Data"* [ %30, %25 ], [ null, %3 ]
  %33 = bitcast i8* %22 to i64*
  %34 = icmp eq %"class.mojo::internal::Array_Data"* %32, null
  %35 = ptrtoint %"class.mojo::internal::Array_Data"* %32 to i64
  %36 = ptrtoint i8* %22 to i64
  %37 = sub i64 %35, %36
  %38 = select i1 %34, i64 0, i64 %37
  store i64 %38, i64* %33, align 8
  %39 = getelementptr inbounds %"class.apps::mojom::AppServiceProxy", %"class.apps::mojom::AppServiceProxy"* %0, i64 0, i32 1
  %40 = bitcast %"class.mojo::MessageReceiverWithResponder"** %39 to %"class.mojo::MessageReceiver"**
  %41 = load %"class.mojo::MessageReceiver"*, %"class.mojo::MessageReceiver"** %40, align 8
  %42 = bitcast %"class.mojo::MessageReceiver"* %41 to i1 (%"class.mojo::MessageReceiver"*, %"class.mojo::Message"*)***
  %43 = load i1 (%"class.mojo::MessageReceiver"*, %"class.mojo::Message"*)**, i1 (%"class.mojo::MessageReceiver"*, %"class.mojo::Message"*)*** %42, align 8
  %44 = getelementptr inbounds i1 (%"class.mojo::MessageReceiver"*, %"class.mojo::Message"*)*, i1 (%"class.mojo::MessageReceiver"*, %"class.mojo::Message"*)** %43, i64 3
  %45 = load i1 (%"class.mojo::MessageReceiver"*, %"class.mojo::Message"*)*, i1 (%"class.mojo::MessageReceiver"*, %"class.mojo::Message"*)** %44, align 8
  %46 = call zeroext i1 %45(%"class.mojo::MessageReceiver"* %41, %"class.mojo::Message"* nonnull %4) #11
  call void @llvm.lifetime.end.p0i8(i64 16, i8* nonnull %17) #11
  call void @_ZN4mojo7MessageD1Ev(%"class.mojo::Message"* nonnull %4) #11
  call void @llvm.lifetime.end.p0i8(i64 120, i8* nonnull %6) #11
  ret void
}

; Function Attrs: nounwind ssp uwtable
define hidden void @_ZN4apps5mojom15AppServiceProxy11UnpauseAppsENS0_7AppTypeERKNSt3__112basic_stringIcNS3_11char_traitsIcEENS3_9allocatorIcEEEE(%"class.apps::mojom::AppServiceProxy"* nocapture readonly, i32, %"class.std::__1::basic_string"* dereferenceable(24)) unnamed_addr #1 align 2 {
  %4 = alloca %"class.mojo::Message", align 8
  %5 = alloca %"class.mojo::internal::MessageFragment.38", align 8
  %6 = bitcast %"class.mojo::Message"* %4 to i8*
  call void @llvm.lifetime.start.p0i8(i64 120, i8* nonnull %6) #11
  call void @llvm.memset.p0i8.i64(i8* nonnull align 8 %6, i8 -86, i64 120, i1 false)
  call void @_ZN4mojo7MessageC1EjjmmPNSt3__16vectorINS_16ScopedHandleBaseINS_6HandleEEENS1_9allocatorIS5_EEEE(%"class.mojo::Message"* nonnull %4, i32 1408713315, i32 0, i64 0, i64 0, %"class.std::__1::vector"* null) #11
  %7 = getelementptr inbounds %"class.mojo::Message", %"class.mojo::Message"* %4, i64 0, i32 1
  %8 = call i64 @_ZN4mojo8internal6Buffer8AllocateEm(%"class.mojo::internal::Buffer"* %7, i64 24) #11
  %9 = getelementptr inbounds %"class.mojo::Message", %"class.mojo::Message"* %4, i64 0, i32 1, i32 2
  %10 = load i8*, i8** %9, align 8
  %11 = getelementptr inbounds i8, i8* %10, i64 %8
  %12 = bitcast i8* %11 to %"class.apps::mojom::internal::AppService_UnpauseApps_Params_Data"*
  call void @_ZN4apps5mojom8internal34AppService_UnpauseApps_Params_DataC1Ev(%"class.apps::mojom::internal::AppService_UnpauseApps_Params_Data"* %12) #11
  %13 = load i8*, i8** %9, align 8
  %14 = getelementptr inbounds i8, i8* %13, i64 %8
  %15 = getelementptr inbounds i8, i8* %14, i64 8
  %16 = bitcast i8* %15 to i32*
  store i32 %1, i32* %16, align 4
  %17 = bitcast %"class.mojo::internal::MessageFragment.38"* %5 to i8*
  call void @llvm.lifetime.start.p0i8(i64 16, i8* nonnull %17) #11
  %18 = getelementptr inbounds %"class.mojo::internal::MessageFragment.38", %"class.mojo::internal::MessageFragment.38"* %5, i64 0, i32 0
  %19 = getelementptr inbounds %"class.mojo::internal::MessageFragment.38", %"class.mojo::internal::MessageFragment.38"* %5, i64 0, i32 1
  store %"class.mojo::Message"* %4, %"class.mojo::Message"** %18, align 8
  store i64 -1, i64* %19, align 8
  call void @_ZN4mojo8internal10SerializerINS_14StringDataViewEKNSt3__112basic_stringIcNS3_11char_traitsIcEENS3_9allocatorIcEEEEE9SerializeERSA_RNS0_15MessageFragmentINS0_10Array_DataIcEEEE(%"class.std::__1::basic_string"* dereferenceable(24) %2, %"class.mojo::internal::MessageFragment.38"* nonnull dereferenceable(16) %5) #11
  %20 = load i8*, i8** %9, align 8
  %21 = getelementptr inbounds i8, i8* %20, i64 %8
  %22 = getelementptr inbounds i8, i8* %21, i64 16
  %23 = load i64, i64* %19, align 8
  %24 = icmp eq i64 %23, -1
  br i1 %24, label %31, label %25

25:                                               ; preds = %3
  %26 = load %"class.mojo::Message"*, %"class.mojo::Message"** %18, align 8
  %27 = getelementptr inbounds %"class.mojo::Message", %"class.mojo::Message"* %26, i64 0, i32 1, i32 2
  %28 = load i8*, i8** %27, align 8
  %29 = getelementptr inbounds i8, i8* %28, i64 %23
  %30 = bitcast i8* %29 to %"class.mojo::internal::Array_Data"*
  br label %31

31:                                               ; preds = %3, %25
  %32 = phi %"class.mojo::internal::Array_Data"* [ %30, %25 ], [ null, %3 ]
  %33 = bitcast i8* %22 to i64*
  %34 = icmp eq %"class.mojo::internal::Array_Data"* %32, null
  %35 = ptrtoint %"class.mojo::internal::Array_Data"* %32 to i64
  %36 = ptrtoint i8* %22 to i64
  %37 = sub i64 %35, %36
  %38 = select i1 %34, i64 0, i64 %37
  store i64 %38, i64* %33, align 8
  %39 = getelementptr inbounds %"class.apps::mojom::AppServiceProxy", %"class.apps::mojom::AppServiceProxy"* %0, i64 0, i32 1
  %40 = bitcast %"class.mojo::MessageReceiverWithResponder"** %39 to %"class.mojo::MessageReceiver"**
  %41 = load %"class.mojo::MessageReceiver"*, %"class.mojo::MessageReceiver"** %40, align 8
  %42 = bitcast %"class.mojo::MessageReceiver"* %41 to i1 (%"class.mojo::MessageReceiver"*, %"class.mojo::Message"*)***
  %43 = load i1 (%"class.mojo::MessageReceiver"*, %"class.mojo::Message"*)**, i1 (%"class.mojo::MessageReceiver"*, %"class.mojo::Message"*)*** %42, align 8
  %44 = getelementptr inbounds i1 (%"class.mojo::MessageReceiver"*, %"class.mojo::Message"*)*, i1 (%"class.mojo::MessageReceiver"*, %"class.mojo::Message"*)** %43, i64 3
  %45 = load i1 (%"class.mojo::MessageReceiver"*, %"class.mojo::Message"*)*, i1 (%"class.mojo::MessageReceiver"*, %"class.mojo::Message"*)** %44, align 8
  %46 = call zeroext i1 %45(%"class.mojo::MessageReceiver"* %41, %"class.mojo::Message"* nonnull %4) #11
  call void @llvm.lifetime.end.p0i8(i64 16, i8* nonnull %17) #11
  call void @_ZN4mojo7MessageD1Ev(%"class.mojo::Message"* nonnull %4) #11
  call void @llvm.lifetime.end.p0i8(i64 120, i8* nonnull %6) #11
  ret void
}

; Function Attrs: nounwind ssp uwtable
define hidden void @_ZN4apps5mojom15AppServiceProxy7StopAppENS0_7AppTypeERKNSt3__112basic_stringIcNS3_11char_traitsIcEENS3_9allocatorIcEEEE(%"class.apps::mojom::AppServiceProxy"* nocapture readonly, i32, %"class.std::__1::basic_string"* dereferenceable(24)) unnamed_addr #1 align 2 {
  %4 = alloca %"class.mojo::Message", align 8
  %5 = alloca %"class.mojo::internal::MessageFragment.38", align 8
  %6 = bitcast %"class.mojo::Message"* %4 to i8*
  call void @llvm.lifetime.start.p0i8(i64 120, i8* nonnull %6) #11
  call void @llvm.memset.p0i8.i64(i8* nonnull align 8 %6, i8 -86, i64 120, i1 false)
  call void @_ZN4mojo7MessageC1EjjmmPNSt3__16vectorINS_16ScopedHandleBaseINS_6HandleEEENS1_9allocatorIS5_EEEE(%"class.mojo::Message"* nonnull %4, i32 639807126, i32 0, i64 0, i64 0, %"class.std::__1::vector"* null) #11
  %7 = getelementptr inbounds %"class.mojo::Message", %"class.mojo::Message"* %4, i64 0, i32 1
  %8 = call i64 @_ZN4mojo8internal6Buffer8AllocateEm(%"class.mojo::internal::Buffer"* %7, i64 24) #11
  %9 = getelementptr inbounds %"class.mojo::Message", %"class.mojo::Message"* %4, i64 0, i32 1, i32 2
  %10 = load i8*, i8** %9, align 8
  %11 = getelementptr inbounds i8, i8* %10, i64 %8
  %12 = bitcast i8* %11 to %"class.apps::mojom::internal::AppService_StopApp_Params_Data"*
  call void @_ZN4apps5mojom8internal30AppService_StopApp_Params_DataC1Ev(%"class.apps::mojom::internal::AppService_StopApp_Params_Data"* %12) #11
  %13 = load i8*, i8** %9, align 8
  %14 = getelementptr inbounds i8, i8* %13, i64 %8
  %15 = getelementptr inbounds i8, i8* %14, i64 8
  %16 = bitcast i8* %15 to i32*
  store i32 %1, i32* %16, align 4
  %17 = bitcast %"class.mojo::internal::MessageFragment.38"* %5 to i8*
  call void @llvm.lifetime.start.p0i8(i64 16, i8* nonnull %17) #11
  %18 = getelementptr inbounds %"class.mojo::internal::MessageFragment.38", %"class.mojo::internal::MessageFragment.38"* %5, i64 0, i32 0
  %19 = getelementptr inbounds %"class.mojo::internal::MessageFragment.38", %"class.mojo::internal::MessageFragment.38"* %5, i64 0, i32 1
  store %"class.mojo::Message"* %4, %"class.mojo::Message"** %18, align 8
  store i64 -1, i64* %19, align 8
  call void @_ZN4mojo8internal10SerializerINS_14StringDataViewEKNSt3__112basic_stringIcNS3_11char_traitsIcEENS3_9allocatorIcEEEEE9SerializeERSA_RNS0_15MessageFragmentINS0_10Array_DataIcEEEE(%"class.std::__1::basic_string"* dereferenceable(24) %2, %"class.mojo::internal::MessageFragment.38"* nonnull dereferenceable(16) %5) #11
  %20 = load i8*, i8** %9, align 8
  %21 = getelementptr inbounds i8, i8* %20, i64 %8
  %22 = getelementptr inbounds i8, i8* %21, i64 16
  %23 = load i64, i64* %19, align 8
  %24 = icmp eq i64 %23, -1
  br i1 %24, label %31, label %25

25:                                               ; preds = %3
  %26 = load %"class.mojo::Message"*, %"class.mojo::Message"** %18, align 8
  %27 = getelementptr inbounds %"class.mojo::Message", %"class.mojo::Message"* %26, i64 0, i32 1, i32 2
  %28 = load i8*, i8** %27, align 8
  %29 = getelementptr inbounds i8, i8* %28, i64 %23
  %30 = bitcast i8* %29 to %"class.mojo::internal::Array_Data"*
  br label %31

31:                                               ; preds = %3, %25
  %32 = phi %"class.mojo::internal::Array_Data"* [ %30, %25 ], [ null, %3 ]
  %33 = bitcast i8* %22 to i64*
  %34 = icmp eq %"class.mojo::internal::Array_Data"* %32, null
  %35 = ptrtoint %"class.mojo::internal::Array_Data"* %32 to i64
  %36 = ptrtoint i8* %22 to i64
  %37 = sub i64 %35, %36
  %38 = select i1 %34, i64 0, i64 %37
  store i64 %38, i64* %33, align 8
  %39 = getelementptr inbounds %"class.apps::mojom::AppServiceProxy", %"class.apps::mojom::AppServiceProxy"* %0, i64 0, i32 1
  %40 = bitcast %"class.mojo::MessageReceiverWithResponder"** %39 to %"class.mojo::MessageReceiver"**
  %41 = load %"class.mojo::MessageReceiver"*, %"class.mojo::MessageReceiver"** %40, align 8
  %42 = bitcast %"class.mojo::MessageReceiver"* %41 to i1 (%"class.mojo::MessageReceiver"*, %"class.mojo::Message"*)***
  %43 = load i1 (%"class.mojo::MessageReceiver"*, %"class.mojo::Message"*)**, i1 (%"class.mojo::MessageReceiver"*, %"class.mojo::Message"*)*** %42, align 8
  %44 = getelementptr inbounds i1 (%"class.mojo::MessageReceiver"*, %"class.mojo::Message"*)*, i1 (%"class.mojo::MessageReceiver"*, %"class.mojo::Message"*)** %43, i64 3
  %45 = load i1 (%"class.mojo::MessageReceiver"*, %"class.mojo::Message"*)*, i1 (%"class.mojo::MessageReceiver"*, %"class.mojo::Message"*)** %44, align 8
  %46 = call zeroext i1 %45(%"class.mojo::MessageReceiver"* %41, %"class.mojo::Message"* nonnull %4) #11
  call void @llvm.lifetime.end.p0i8(i64 16, i8* nonnull %17) #11
  call void @_ZN4mojo7MessageD1Ev(%"class.mojo::Message"* nonnull %4) #11
  call void @llvm.lifetime.end.p0i8(i64 120, i8* nonnull %6) #11
  ret void
}

; Function Attrs: nounwind ssp uwtable
define hidden void @_ZN4apps5mojom15AppServiceProxy12GetMenuModelENS0_7AppTypeERKNSt3__112basic_stringIcNS3_11char_traitsIcEENS3_9allocatorIcEEEENS0_8MenuTypeElN4base12OnceCallbackIFvN4mojo9StructPtrINS0_9MenuItemsEEEEEE(%"class.apps::mojom::AppServiceProxy"* nocapture readonly, i32, %"class.std::__1::basic_string"* dereferenceable(24), i32, i64, %"class.base::OnceCallback.141"* nocapture) unnamed_addr #1 align 2 {
  %7 = alloca %"class.mojo::Message", align 8
  %8 = alloca %"class.mojo::internal::MessageFragment.38", align 8
  %9 = alloca %"class.base::OnceCallback.141", align 8
  %10 = bitcast %"class.mojo::Message"* %7 to i8*
  call void @llvm.lifetime.start.p0i8(i64 120, i8* nonnull %10) #11
  call void @llvm.memset.p0i8.i64(i8* nonnull align 8 %10, i8 -86, i64 120, i1 false)
  call void @_ZN4mojo7MessageC1EjjmmPNSt3__16vectorINS_16ScopedHandleBaseINS_6HandleEEENS1_9allocatorIS5_EEEE(%"class.mojo::Message"* nonnull %7, i32 688497112, i32 1, i64 0, i64 0, %"class.std::__1::vector"* null) #11
  %11 = getelementptr inbounds %"class.mojo::Message", %"class.mojo::Message"* %7, i64 0, i32 1
  %12 = call i64 @_ZN4mojo8internal6Buffer8AllocateEm(%"class.mojo::internal::Buffer"* %11, i64 32) #11
  %13 = getelementptr inbounds %"class.mojo::Message", %"class.mojo::Message"* %7, i64 0, i32 1, i32 2
  %14 = load i8*, i8** %13, align 8
  %15 = getelementptr inbounds i8, i8* %14, i64 %12
  %16 = bitcast i8* %15 to %"class.apps::mojom::internal::AppService_GetMenuModel_Params_Data"*
  call void @_ZN4apps5mojom8internal35AppService_GetMenuModel_Params_DataC1Ev(%"class.apps::mojom::internal::AppService_GetMenuModel_Params_Data"* %16) #11
  %17 = load i8*, i8** %13, align 8
  %18 = getelementptr inbounds i8, i8* %17, i64 %12
  %19 = getelementptr inbounds i8, i8* %18, i64 8
  %20 = bitcast i8* %19 to i32*
  store i32 %1, i32* %20, align 4
  %21 = bitcast %"class.mojo::internal::MessageFragment.38"* %8 to i8*
  call void @llvm.lifetime.start.p0i8(i64 16, i8* nonnull %21) #11
  %22 = getelementptr inbounds %"class.mojo::internal::MessageFragment.38", %"class.mojo::internal::MessageFragment.38"* %8, i64 0, i32 0
  %23 = getelementptr inbounds %"class.mojo::internal::MessageFragment.38", %"class.mojo::internal::MessageFragment.38"* %8, i64 0, i32 1
  store %"class.mojo::Message"* %7, %"class.mojo::Message"** %22, align 8
  store i64 -1, i64* %23, align 8
  call void @_ZN4mojo8internal10SerializerINS_14StringDataViewEKNSt3__112basic_stringIcNS3_11char_traitsIcEENS3_9allocatorIcEEEEE9SerializeERSA_RNS0_15MessageFragmentINS0_10Array_DataIcEEEE(%"class.std::__1::basic_string"* dereferenceable(24) %2, %"class.mojo::internal::MessageFragment.38"* nonnull dereferenceable(16) %8) #11
  %24 = load i8*, i8** %13, align 8
  %25 = getelementptr inbounds i8, i8* %24, i64 %12
  %26 = getelementptr inbounds i8, i8* %25, i64 16
  %27 = load i64, i64* %23, align 8
  %28 = icmp eq i64 %27, -1
  br i1 %28, label %35, label %29

29:                                               ; preds = %6
  %30 = load %"class.mojo::Message"*, %"class.mojo::Message"** %22, align 8
  %31 = getelementptr inbounds %"class.mojo::Message", %"class.mojo::Message"* %30, i64 0, i32 1, i32 2
  %32 = load i8*, i8** %31, align 8
  %33 = getelementptr inbounds i8, i8* %32, i64 %27
  %34 = bitcast i8* %33 to %"class.mojo::internal::Array_Data"*
  br label %35

35:                                               ; preds = %29, %6
  %36 = phi %"class.mojo::internal::Array_Data"* [ %34, %29 ], [ null, %6 ]
  %37 = bitcast i8* %26 to i64*
  %38 = icmp eq %"class.mojo::internal::Array_Data"* %36, null
  %39 = ptrtoint %"class.mojo::internal::Array_Data"* %36 to i64
  %40 = ptrtoint i8* %26 to i64
  %41 = sub i64 %39, %40
  %42 = select i1 %38, i64 0, i64 %41
  store i64 %42, i64* %37, align 8
  %43 = load i8*, i8** %13, align 8
  %44 = getelementptr inbounds i8, i8* %43, i64 %12
  %45 = getelementptr inbounds i8, i8* %44, i64 12
  %46 = bitcast i8* %45 to i32*
  store i32 %3, i32* %46, align 4
  %47 = load i8*, i8** %13, align 8
  %48 = getelementptr inbounds i8, i8* %47, i64 %12
  %49 = getelementptr inbounds i8, i8* %48, i64 24
  %50 = bitcast i8* %49 to i64*
  store i64 %4, i64* %50, align 8
  %51 = call i8* @_Znwm(i64 16) #12
  %52 = getelementptr inbounds %"class.base::OnceCallback.141", %"class.base::OnceCallback.141"* %5, i64 0, i32 0, i32 0, i32 0
  %53 = bitcast %"class.base::OnceCallback.141"* %5 to i64*
  %54 = load i64, i64* %53, align 8
  store %"class.base::internal::BindStateBase"* null, %"class.base::internal::BindStateBase"** %52, align 8
  %55 = bitcast i8* %51 to i32 (...)***
  store i32 (...)** bitcast (i8** getelementptr inbounds ({ [6 x i8*] }, { [6 x i8*] }* @_ZTVN4apps5mojom41AppService_GetMenuModel_ForwardToCallbackE, i64 0, inrange i32 0, i64 2) to i32 (...)**), i32 (...)*** %55, align 8
  %56 = getelementptr inbounds i8, i8* %51, i64 8
  %57 = getelementptr inbounds %"class.base::OnceCallback.141", %"class.base::OnceCallback.141"* %9, i64 0, i32 0, i32 0, i32 0
  %58 = bitcast i8* %56 to i64*
  store i64 %54, i64* %58, align 8
  store %"class.base::internal::BindStateBase"* null, %"class.base::internal::BindStateBase"** %57, align 8
  %59 = bitcast i8* %51 to %"class.mojo::MessageReceiver"*
  %60 = getelementptr inbounds %"class.base::OnceCallback.141", %"class.base::OnceCallback.141"* %9, i64 0, i32 0
  call void @_ZN4base8internal12CallbackBaseD2Ev(%"class.base::internal::CallbackBase"* nonnull %60) #11
  %61 = getelementptr inbounds %"class.apps::mojom::AppServiceProxy", %"class.apps::mojom::AppServiceProxy"* %0, i64 0, i32 1
  %62 = load %"class.mojo::MessageReceiverWithResponder"*, %"class.mojo::MessageReceiverWithResponder"** %61, align 8
  %63 = bitcast %"class.mojo::MessageReceiverWithResponder"* %62 to i1 (%"class.mojo::MessageReceiverWithResponder"*, %"class.mojo::Message"*, %"class.mojo::MessageReceiver"*)***
  %64 = load i1 (%"class.mojo::MessageReceiverWithResponder"*, %"class.mojo::Message"*, %"class.mojo::MessageReceiver"*)**, i1 (%"class.mojo::MessageReceiverWithResponder"*, %"class.mojo::Message"*, %"class.mojo::MessageReceiver"*)*** %63, align 8
  %65 = getelementptr inbounds i1 (%"class.mojo::MessageReceiverWithResponder"*, %"class.mojo::Message"*, %"class.mojo::MessageReceiver"*)*, i1 (%"class.mojo::MessageReceiverWithResponder"*, %"class.mojo::Message"*, %"class.mojo::MessageReceiver"*)** %64, i64 4
  %66 = load i1 (%"class.mojo::MessageReceiverWithResponder"*, %"class.mojo::Message"*, %"class.mojo::MessageReceiver"*)*, i1 (%"class.mojo::MessageReceiverWithResponder"*, %"class.mojo::Message"*, %"class.mojo::MessageReceiver"*)** %65, align 8
  %67 = call zeroext i1 %66(%"class.mojo::MessageReceiverWithResponder"* %62, %"class.mojo::Message"* nonnull %7, %"class.mojo::MessageReceiver"* nonnull %59) #11
  call void @llvm.lifetime.end.p0i8(i64 16, i8* nonnull %21) #11
  call void @_ZN4mojo7MessageD1Ev(%"class.mojo::Message"* nonnull %7) #11
  call void @llvm.lifetime.end.p0i8(i64 120, i8* nonnull %10) #11
  ret void
}

; Function Attrs: nounwind ssp uwtable
define hidden void @_ZN4apps5mojom15AppServiceProxy25ExecuteContextMenuCommandENS0_7AppTypeERKNSt3__112basic_stringIcNS3_11char_traitsIcEENS3_9allocatorIcEEEEiSB_l(%"class.apps::mojom::AppServiceProxy"* nocapture readonly, i32, %"class.std::__1::basic_string"* dereferenceable(24), i32, %"class.std::__1::basic_string"* dereferenceable(24), i64) unnamed_addr #1 align 2 {
  %7 = alloca %"class.mojo::Message", align 8
  %8 = alloca %"class.mojo::internal::MessageFragment.38", align 8
  %9 = alloca %"class.mojo::internal::MessageFragment.38", align 8
  %10 = bitcast %"class.mojo::Message"* %7 to i8*
  call void @llvm.lifetime.start.p0i8(i64 120, i8* nonnull %10) #11
  call void @llvm.memset.p0i8.i64(i8* nonnull align 8 %10, i8 -86, i64 120, i1 false)
  call void @_ZN4mojo7MessageC1EjjmmPNSt3__16vectorINS_16ScopedHandleBaseINS_6HandleEEENS1_9allocatorIS5_EEEE(%"class.mojo::Message"* nonnull %7, i32 1058887710, i32 0, i64 0, i64 0, %"class.std::__1::vector"* null) #11
  %11 = getelementptr inbounds %"class.mojo::Message", %"class.mojo::Message"* %7, i64 0, i32 1
  %12 = call i64 @_ZN4mojo8internal6Buffer8AllocateEm(%"class.mojo::internal::Buffer"* %11, i64 40) #11
  %13 = getelementptr inbounds %"class.mojo::Message", %"class.mojo::Message"* %7, i64 0, i32 1, i32 2
  %14 = load i8*, i8** %13, align 8
  %15 = getelementptr inbounds i8, i8* %14, i64 %12
  %16 = bitcast i8* %15 to %"class.apps::mojom::internal::AppService_ExecuteContextMenuCommand_Params_Data"*
  call void @_ZN4apps5mojom8internal48AppService_ExecuteContextMenuCommand_Params_DataC1Ev(%"class.apps::mojom::internal::AppService_ExecuteContextMenuCommand_Params_Data"* %16) #11
  %17 = load i8*, i8** %13, align 8
  %18 = getelementptr inbounds i8, i8* %17, i64 %12
  %19 = getelementptr inbounds i8, i8* %18, i64 8
  %20 = bitcast i8* %19 to i32*
  store i32 %1, i32* %20, align 4
  %21 = bitcast %"class.mojo::internal::MessageFragment.38"* %8 to i8*
  call void @llvm.lifetime.start.p0i8(i64 16, i8* nonnull %21) #11
  %22 = getelementptr inbounds %"class.mojo::internal::MessageFragment.38", %"class.mojo::internal::MessageFragment.38"* %8, i64 0, i32 0
  %23 = getelementptr inbounds %"class.mojo::internal::MessageFragment.38", %"class.mojo::internal::MessageFragment.38"* %8, i64 0, i32 1
  store %"class.mojo::Message"* %7, %"class.mojo::Message"** %22, align 8
  store i64 -1, i64* %23, align 8
  call void @_ZN4mojo8internal10SerializerINS_14StringDataViewEKNSt3__112basic_stringIcNS3_11char_traitsIcEENS3_9allocatorIcEEEEE9SerializeERSA_RNS0_15MessageFragmentINS0_10Array_DataIcEEEE(%"class.std::__1::basic_string"* dereferenceable(24) %2, %"class.mojo::internal::MessageFragment.38"* nonnull dereferenceable(16) %8) #11
  %24 = load i8*, i8** %13, align 8
  %25 = getelementptr inbounds i8, i8* %24, i64 %12
  %26 = getelementptr inbounds i8, i8* %25, i64 16
  %27 = load i64, i64* %23, align 8
  %28 = icmp eq i64 %27, -1
  br i1 %28, label %35, label %29

29:                                               ; preds = %6
  %30 = load %"class.mojo::Message"*, %"class.mojo::Message"** %22, align 8
  %31 = getelementptr inbounds %"class.mojo::Message", %"class.mojo::Message"* %30, i64 0, i32 1, i32 2
  %32 = load i8*, i8** %31, align 8
  %33 = getelementptr inbounds i8, i8* %32, i64 %27
  %34 = bitcast i8* %33 to %"class.mojo::internal::Array_Data"*
  br label %35

35:                                               ; preds = %6, %29
  %36 = phi %"class.mojo::internal::Array_Data"* [ %34, %29 ], [ null, %6 ]
  %37 = bitcast i8* %26 to i64*
  %38 = icmp eq %"class.mojo::internal::Array_Data"* %36, null
  %39 = ptrtoint %"class.mojo::internal::Array_Data"* %36 to i64
  %40 = ptrtoint i8* %26 to i64
  %41 = sub i64 %39, %40
  %42 = select i1 %38, i64 0, i64 %41
  store i64 %42, i64* %37, align 8
  %43 = load i8*, i8** %13, align 8
  %44 = getelementptr inbounds i8, i8* %43, i64 %12
  %45 = getelementptr inbounds i8, i8* %44, i64 12
  %46 = bitcast i8* %45 to i32*
  store i32 %3, i32* %46, align 4
  %47 = bitcast %"class.mojo::internal::MessageFragment.38"* %9 to i8*
  call void @llvm.lifetime.start.p0i8(i64 16, i8* nonnull %47) #11
  %48 = getelementptr inbounds %"class.mojo::internal::MessageFragment.38", %"class.mojo::internal::MessageFragment.38"* %9, i64 0, i32 0
  %49 = getelementptr inbounds %"class.mojo::internal::MessageFragment.38", %"class.mojo::internal::MessageFragment.38"* %9, i64 0, i32 1
  store %"class.mojo::Message"* %7, %"class.mojo::Message"** %48, align 8
  store i64 -1, i64* %49, align 8
  call void @_ZN4mojo8internal10SerializerINS_14StringDataViewEKNSt3__112basic_stringIcNS3_11char_traitsIcEENS3_9allocatorIcEEEEE9SerializeERSA_RNS0_15MessageFragmentINS0_10Array_DataIcEEEE(%"class.std::__1::basic_string"* dereferenceable(24) %4, %"class.mojo::internal::MessageFragment.38"* nonnull dereferenceable(16) %9) #11
  %50 = load i8*, i8** %13, align 8
  %51 = getelementptr inbounds i8, i8* %50, i64 %12
  %52 = getelementptr inbounds i8, i8* %51, i64 24
  %53 = load i64, i64* %49, align 8
  %54 = icmp eq i64 %53, -1
  br i1 %54, label %61, label %55

55:                                               ; preds = %35
  %56 = load %"class.mojo::Message"*, %"class.mojo::Message"** %48, align 8
  %57 = getelementptr inbounds %"class.mojo::Message", %"class.mojo::Message"* %56, i64 0, i32 1, i32 2
  %58 = load i8*, i8** %57, align 8
  %59 = getelementptr inbounds i8, i8* %58, i64 %53
  %60 = bitcast i8* %59 to %"class.mojo::internal::Array_Data"*
  br label %61

61:                                               ; preds = %35, %55
  %62 = phi %"class.mojo::internal::Array_Data"* [ %60, %55 ], [ null, %35 ]
  %63 = bitcast i8* %52 to i64*
  %64 = icmp eq %"class.mojo::internal::Array_Data"* %62, null
  %65 = ptrtoint %"class.mojo::internal::Array_Data"* %62 to i64
  %66 = ptrtoint i8* %52 to i64
  %67 = sub i64 %65, %66
  %68 = select i1 %64, i64 0, i64 %67
  store i64 %68, i64* %63, align 8
  %69 = load i8*, i8** %13, align 8
  %70 = getelementptr inbounds i8, i8* %69, i64 %12
  %71 = getelementptr inbounds i8, i8* %70, i64 32
  %72 = bitcast i8* %71 to i64*
  store i64 %5, i64* %72, align 8
  %73 = getelementptr inbounds %"class.apps::mojom::AppServiceProxy", %"class.apps::mojom::AppServiceProxy"* %0, i64 0, i32 1
  %74 = bitcast %"class.mojo::MessageReceiverWithResponder"** %73 to %"class.mojo::MessageReceiver"**
  %75 = load %"class.mojo::MessageReceiver"*, %"class.mojo::MessageReceiver"** %74, align 8
  %76 = bitcast %"class.mojo::MessageReceiver"* %75 to i1 (%"class.mojo::MessageReceiver"*, %"class.mojo::Message"*)***
  %77 = load i1 (%"class.mojo::MessageReceiver"*, %"class.mojo::Message"*)**, i1 (%"class.mojo::MessageReceiver"*, %"class.mojo::Message"*)*** %76, align 8
  %78 = getelementptr inbounds i1 (%"class.mojo::MessageReceiver"*, %"class.mojo::Message"*)*, i1 (%"class.mojo::MessageReceiver"*, %"class.mojo::Message"*)** %77, i64 3
  %79 = load i1 (%"class.mojo::MessageReceiver"*, %"class.mojo::Message"*)*, i1 (%"class.mojo::MessageReceiver"*, %"class.mojo::Message"*)** %78, align 8
  %80 = call zeroext i1 %79(%"class.mojo::MessageReceiver"* %75, %"class.mojo::Message"* nonnull %7) #11
  call void @llvm.lifetime.end.p0i8(i64 16, i8* nonnull %47) #11
  call void @llvm.lifetime.end.p0i8(i64 16, i8* nonnull %21) #11
  call void @_ZN4mojo7MessageD1Ev(%"class.mojo::Message"* nonnull %7) #11
  call void @llvm.lifetime.end.p0i8(i64 120, i8* nonnull %10) #11
  ret void
}

; Function Attrs: nounwind ssp uwtable
define hidden void @_ZN4apps5mojom15AppServiceProxy18OpenNativeSettingsENS0_7AppTypeERKNSt3__112basic_stringIcNS3_11char_traitsIcEENS3_9allocatorIcEEEE(%"class.apps::mojom::AppServiceProxy"* nocapture readonly, i32, %"class.std::__1::basic_string"* dereferenceable(24)) unnamed_addr #1 align 2 {
  %4 = alloca %"class.mojo::Message", align 8
  %5 = alloca %"class.mojo::internal::MessageFragment.38", align 8
  %6 = bitcast %"class.mojo::Message"* %4 to i8*
  call void @llvm.lifetime.start.p0i8(i64 120, i8* nonnull %6) #11
  call void @llvm.memset.p0i8.i64(i8* nonnull align 8 %6, i8 -86, i64 120, i1 false)
  call void @_ZN4mojo7MessageC1EjjmmPNSt3__16vectorINS_16ScopedHandleBaseINS_6HandleEEENS1_9allocatorIS5_EEEE(%"class.mojo::Message"* nonnull %4, i32 1124174779, i32 0, i64 0, i64 0, %"class.std::__1::vector"* null) #11
  %7 = getelementptr inbounds %"class.mojo::Message", %"class.mojo::Message"* %4, i64 0, i32 1
  %8 = call i64 @_ZN4mojo8internal6Buffer8AllocateEm(%"class.mojo::internal::Buffer"* %7, i64 24) #11
  %9 = getelementptr inbounds %"class.mojo::Message", %"class.mojo::Message"* %4, i64 0, i32 1, i32 2
  %10 = load i8*, i8** %9, align 8
  %11 = getelementptr inbounds i8, i8* %10, i64 %8
  %12 = bitcast i8* %11 to %"class.apps::mojom::internal::AppService_OpenNativeSettings_Params_Data"*
  call void @_ZN4apps5mojom8internal41AppService_OpenNativeSettings_Params_DataC1Ev(%"class.apps::mojom::internal::AppService_OpenNativeSettings_Params_Data"* %12) #11
  %13 = load i8*, i8** %9, align 8
  %14 = getelementptr inbounds i8, i8* %13, i64 %8
  %15 = getelementptr inbounds i8, i8* %14, i64 8
  %16 = bitcast i8* %15 to i32*
  store i32 %1, i32* %16, align 4
  %17 = bitcast %"class.mojo::internal::MessageFragment.38"* %5 to i8*
  call void @llvm.lifetime.start.p0i8(i64 16, i8* nonnull %17) #11
  %18 = getelementptr inbounds %"class.mojo::internal::MessageFragment.38", %"class.mojo::internal::MessageFragment.38"* %5, i64 0, i32 0
  %19 = getelementptr inbounds %"class.mojo::internal::MessageFragment.38", %"class.mojo::internal::MessageFragment.38"* %5, i64 0, i32 1
  store %"class.mojo::Message"* %4, %"class.mojo::Message"** %18, align 8
  store i64 -1, i64* %19, align 8
  call void @_ZN4mojo8internal10SerializerINS_14StringDataViewEKNSt3__112basic_stringIcNS3_11char_traitsIcEENS3_9allocatorIcEEEEE9SerializeERSA_RNS0_15MessageFragmentINS0_10Array_DataIcEEEE(%"class.std::__1::basic_string"* dereferenceable(24) %2, %"class.mojo::internal::MessageFragment.38"* nonnull dereferenceable(16) %5) #11
  %20 = load i8*, i8** %9, align 8
  %21 = getelementptr inbounds i8, i8* %20, i64 %8
  %22 = getelementptr inbounds i8, i8* %21, i64 16
  %23 = load i64, i64* %19, align 8
  %24 = icmp eq i64 %23, -1
  br i1 %24, label %31, label %25

25:                                               ; preds = %3
  %26 = load %"class.mojo::Message"*, %"class.mojo::Message"** %18, align 8
  %27 = getelementptr inbounds %"class.mojo::Message", %"class.mojo::Message"* %26, i64 0, i32 1, i32 2
  %28 = load i8*, i8** %27, align 8
  %29 = getelementptr inbounds i8, i8* %28, i64 %23
  %30 = bitcast i8* %29 to %"class.mojo::internal::Array_Data"*
  br label %31

31:                                               ; preds = %3, %25
  %32 = phi %"class.mojo::internal::Array_Data"* [ %30, %25 ], [ null, %3 ]
  %33 = bitcast i8* %22 to i64*
  %34 = icmp eq %"class.mojo::internal::Array_Data"* %32, null
  %35 = ptrtoint %"class.mojo::internal::Array_Data"* %32 to i64
  %36 = ptrtoint i8* %22 to i64
  %37 = sub i64 %35, %36
  %38 = select i1 %34, i64 0, i64 %37
  store i64 %38, i64* %33, align 8
  %39 = getelementptr inbounds %"class.apps::mojom::AppServiceProxy", %"class.apps::mojom::AppServiceProxy"* %0, i64 0, i32 1
  %40 = bitcast %"class.mojo::MessageReceiverWithResponder"** %39 to %"class.mojo::MessageReceiver"**
  %41 = load %"class.mojo::MessageReceiver"*, %"class.mojo::MessageReceiver"** %40, align 8
  %42 = bitcast %"class.mojo::MessageReceiver"* %41 to i1 (%"class.mojo::MessageReceiver"*, %"class.mojo::Message"*)***
  %43 = load i1 (%"class.mojo::MessageReceiver"*, %"class.mojo::Message"*)**, i1 (%"class.mojo::MessageReceiver"*, %"class.mojo::Message"*)*** %42, align 8
  %44 = getelementptr inbounds i1 (%"class.mojo::MessageReceiver"*, %"class.mojo::Message"*)*, i1 (%"class.mojo::MessageReceiver"*, %"class.mojo::Message"*)** %43, i64 3
  %45 = load i1 (%"class.mojo::MessageReceiver"*, %"class.mojo::Message"*)*, i1 (%"class.mojo::MessageReceiver"*, %"class.mojo::Message"*)** %44, align 8
  %46 = call zeroext i1 %45(%"class.mojo::MessageReceiver"* %41, %"class.mojo::Message"* nonnull %4) #11
  call void @llvm.lifetime.end.p0i8(i64 16, i8* nonnull %17) #11
  call void @_ZN4mojo7MessageD1Ev(%"class.mojo::Message"* nonnull %4) #11
  call void @llvm.lifetime.end.p0i8(i64 120, i8* nonnull %6) #11
  ret void
}

; Function Attrs: nounwind ssp uwtable
define hidden void @_ZN4apps5mojom15AppServiceProxy15AddPreferredAppENS0_7AppTypeERKNSt3__112basic_stringIcNS3_11char_traitsIcEENS3_9allocatorIcEEEEN4mojo9StructPtrINS0_12IntentFilterEEENSD_INS0_6IntentEEEb(%"class.apps::mojom::AppServiceProxy"* nocapture readonly, i32, %"class.std::__1::basic_string"* dereferenceable(24), %"class.mojo::StructPtr.145"*, %"class.mojo::StructPtr.72"*, i1 zeroext) unnamed_addr #1 align 2 {
  %7 = alloca %"class.mojo::Message", align 8
  %8 = alloca %"class.mojo::internal::MessageFragment.38", align 8
  %9 = alloca %"class.mojo::internal::MessageFragment.177", align 8
  %10 = alloca %"class.mojo::internal::MessageFragment.128", align 8
  %11 = zext i1 %5 to i8
  %12 = bitcast %"class.mojo::Message"* %7 to i8*
  call void @llvm.lifetime.start.p0i8(i64 120, i8* nonnull %12) #11
  call void @llvm.memset.p0i8.i64(i8* nonnull align 8 %12, i8 -86, i64 120, i1 false)
  call void @_ZN4mojo7MessageC1EjjmmPNSt3__16vectorINS_16ScopedHandleBaseINS_6HandleEEENS1_9allocatorIS5_EEEE(%"class.mojo::Message"* nonnull %7, i32 1039645618, i32 0, i64 0, i64 0, %"class.std::__1::vector"* null) #11
  %13 = getelementptr inbounds %"class.mojo::Message", %"class.mojo::Message"* %7, i64 0, i32 1
  %14 = call i64 @_ZN4mojo8internal6Buffer8AllocateEm(%"class.mojo::internal::Buffer"* %13, i64 40) #11
  %15 = getelementptr inbounds %"class.mojo::Message", %"class.mojo::Message"* %7, i64 0, i32 1, i32 2
  %16 = load i8*, i8** %15, align 8
  %17 = getelementptr inbounds i8, i8* %16, i64 %14
  %18 = bitcast i8* %17 to %"class.apps::mojom::internal::AppService_AddPreferredApp_Params_Data"*
  call void @_ZN4apps5mojom8internal38AppService_AddPreferredApp_Params_DataC1Ev(%"class.apps::mojom::internal::AppService_AddPreferredApp_Params_Data"* %18) #11
  %19 = load i8*, i8** %15, align 8
  %20 = getelementptr inbounds i8, i8* %19, i64 %14
  %21 = getelementptr inbounds i8, i8* %20, i64 8
  %22 = bitcast i8* %21 to i32*
  store i32 %1, i32* %22, align 4
  %23 = bitcast %"class.mojo::internal::MessageFragment.38"* %8 to i8*
  call void @llvm.lifetime.start.p0i8(i64 16, i8* nonnull %23) #11
  %24 = getelementptr inbounds %"class.mojo::internal::MessageFragment.38", %"class.mojo::internal::MessageFragment.38"* %8, i64 0, i32 0
  %25 = getelementptr inbounds %"class.mojo::internal::MessageFragment.38", %"class.mojo::internal::MessageFragment.38"* %8, i64 0, i32 1
  store %"class.mojo::Message"* %7, %"class.mojo::Message"** %24, align 8
  store i64 -1, i64* %25, align 8
  call void @_ZN4mojo8internal10SerializerINS_14StringDataViewEKNSt3__112basic_stringIcNS3_11char_traitsIcEENS3_9allocatorIcEEEEE9SerializeERSA_RNS0_15MessageFragmentINS0_10Array_DataIcEEEE(%"class.std::__1::basic_string"* dereferenceable(24) %2, %"class.mojo::internal::MessageFragment.38"* nonnull dereferenceable(16) %8) #11
  %26 = load i8*, i8** %15, align 8
  %27 = getelementptr inbounds i8, i8* %26, i64 %14
  %28 = getelementptr inbounds i8, i8* %27, i64 16
  %29 = load i64, i64* %25, align 8
  %30 = icmp eq i64 %29, -1
  br i1 %30, label %37, label %31

31:                                               ; preds = %6
  %32 = load %"class.mojo::Message"*, %"class.mojo::Message"** %24, align 8
  %33 = getelementptr inbounds %"class.mojo::Message", %"class.mojo::Message"* %32, i64 0, i32 1, i32 2
  %34 = load i8*, i8** %33, align 8
  %35 = getelementptr inbounds i8, i8* %34, i64 %29
  %36 = bitcast i8* %35 to %"class.mojo::internal::Array_Data"*
  br label %37

37:                                               ; preds = %6, %31
  %38 = phi %"class.mojo::internal::Array_Data"* [ %36, %31 ], [ null, %6 ]
  %39 = bitcast i8* %28 to i64*
  %40 = icmp eq %"class.mojo::internal::Array_Data"* %38, null
  %41 = ptrtoint %"class.mojo::internal::Array_Data"* %38 to i64
  %42 = ptrtoint i8* %28 to i64
  %43 = sub i64 %41, %42
  %44 = select i1 %40, i64 0, i64 %43
  store i64 %44, i64* %39, align 8
  %45 = bitcast %"class.mojo::internal::MessageFragment.177"* %9 to i8*
  call void @llvm.lifetime.start.p0i8(i64 16, i8* nonnull %45) #11
  %46 = getelementptr inbounds %"class.mojo::internal::MessageFragment.177", %"class.mojo::internal::MessageFragment.177"* %9, i64 0, i32 0
  %47 = getelementptr inbounds %"class.mojo::internal::MessageFragment.177", %"class.mojo::internal::MessageFragment.177"* %9, i64 0, i32 1
  store %"class.mojo::Message"* %7, %"class.mojo::Message"** %46, align 8
  store i64 -1, i64* %47, align 8
  call void @_ZN4mojo8internal10SerializerIN4apps5mojom20IntentFilterDataViewENS_9StructPtrINS3_12IntentFilterEEEE9SerializeERS7_RNS0_15MessageFragmentINS3_8internal17IntentFilter_DataEEE(%"class.mojo::StructPtr.145"* dereferenceable(8) %3, %"class.mojo::internal::MessageFragment.177"* nonnull dereferenceable(16) %9) #11
  %48 = load i8*, i8** %15, align 8
  %49 = getelementptr inbounds i8, i8* %48, i64 %14
  %50 = getelementptr inbounds i8, i8* %49, i64 24
  %51 = load i64, i64* %47, align 8
  %52 = icmp eq i64 %51, -1
  br i1 %52, label %59, label %53

53:                                               ; preds = %37
  %54 = load %"class.mojo::Message"*, %"class.mojo::Message"** %46, align 8
  %55 = getelementptr inbounds %"class.mojo::Message", %"class.mojo::Message"* %54, i64 0, i32 1, i32 2
  %56 = load i8*, i8** %55, align 8
  %57 = getelementptr inbounds i8, i8* %56, i64 %51
  %58 = bitcast i8* %57 to %"class.apps::mojom::internal::IntentFilter_Data"*
  br label %59

59:                                               ; preds = %37, %53
  %60 = phi %"class.apps::mojom::internal::IntentFilter_Data"* [ %58, %53 ], [ null, %37 ]
  %61 = bitcast i8* %50 to i64*
  %62 = icmp eq %"class.apps::mojom::internal::IntentFilter_Data"* %60, null
  %63 = ptrtoint %"class.apps::mojom::internal::IntentFilter_Data"* %60 to i64
  %64 = ptrtoint i8* %50 to i64
  %65 = sub i64 %63, %64
  %66 = select i1 %62, i64 0, i64 %65
  store i64 %66, i64* %61, align 8
  %67 = bitcast %"class.mojo::internal::MessageFragment.128"* %10 to i8*
  call void @llvm.lifetime.start.p0i8(i64 16, i8* nonnull %67) #11
  %68 = getelementptr inbounds %"class.mojo::internal::MessageFragment.128", %"class.mojo::internal::MessageFragment.128"* %10, i64 0, i32 0
  %69 = getelementptr inbounds %"class.mojo::internal::MessageFragment.128", %"class.mojo::internal::MessageFragment.128"* %10, i64 0, i32 1
  store %"class.mojo::Message"* %7, %"class.mojo::Message"** %68, align 8
  store i64 -1, i64* %69, align 8
  call void @_ZN4mojo8internal10SerializerIN4apps5mojom14IntentDataViewENS_9StructPtrINS3_6IntentEEEE9SerializeERS7_RNS0_15MessageFragmentINS3_8internal11Intent_DataEEE(%"class.mojo::StructPtr.72"* dereferenceable(8) %4, %"class.mojo::internal::MessageFragment.128"* nonnull dereferenceable(16) %10) #11
  %70 = load i8*, i8** %15, align 8
  %71 = getelementptr inbounds i8, i8* %70, i64 %14
  %72 = getelementptr inbounds i8, i8* %71, i64 32
  %73 = load i64, i64* %69, align 8
  %74 = icmp eq i64 %73, -1
  br i1 %74, label %81, label %75

75:                                               ; preds = %59
  %76 = load %"class.mojo::Message"*, %"class.mojo::Message"** %68, align 8
  %77 = getelementptr inbounds %"class.mojo::Message", %"class.mojo::Message"* %76, i64 0, i32 1, i32 2
  %78 = load i8*, i8** %77, align 8
  %79 = getelementptr inbounds i8, i8* %78, i64 %73
  %80 = bitcast i8* %79 to %"class.apps::mojom::internal::Intent_Data"*
  br label %81

81:                                               ; preds = %59, %75
  %82 = phi %"class.apps::mojom::internal::Intent_Data"* [ %80, %75 ], [ null, %59 ]
  %83 = bitcast i8* %72 to i64*
  %84 = icmp eq %"class.apps::mojom::internal::Intent_Data"* %82, null
  %85 = ptrtoint %"class.apps::mojom::internal::Intent_Data"* %82 to i64
  %86 = ptrtoint i8* %72 to i64
  %87 = sub i64 %85, %86
  %88 = select i1 %84, i64 0, i64 %87
  store i64 %88, i64* %83, align 8
  %89 = load i8*, i8** %15, align 8
  %90 = getelementptr inbounds i8, i8* %89, i64 %14
  %91 = getelementptr inbounds i8, i8* %90, i64 12
  %92 = load i8, i8* %91, align 4
  %93 = and i8 %92, -2
  %94 = or i8 %93, %11
  store i8 %94, i8* %91, align 4
  %95 = getelementptr inbounds %"class.apps::mojom::AppServiceProxy", %"class.apps::mojom::AppServiceProxy"* %0, i64 0, i32 1
  %96 = bitcast %"class.mojo::MessageReceiverWithResponder"** %95 to %"class.mojo::MessageReceiver"**
  %97 = load %"class.mojo::MessageReceiver"*, %"class.mojo::MessageReceiver"** %96, align 8
  %98 = bitcast %"class.mojo::MessageReceiver"* %97 to i1 (%"class.mojo::MessageReceiver"*, %"class.mojo::Message"*)***
  %99 = load i1 (%"class.mojo::MessageReceiver"*, %"class.mojo::Message"*)**, i1 (%"class.mojo::MessageReceiver"*, %"class.mojo::Message"*)*** %98, align 8
  %100 = getelementptr inbounds i1 (%"class.mojo::MessageReceiver"*, %"class.mojo::Message"*)*, i1 (%"class.mojo::MessageReceiver"*, %"class.mojo::Message"*)** %99, i64 3
  %101 = load i1 (%"class.mojo::MessageReceiver"*, %"class.mojo::Message"*)*, i1 (%"class.mojo::MessageReceiver"*, %"class.mojo::Message"*)** %100, align 8
  %102 = call zeroext i1 %101(%"class.mojo::MessageReceiver"* %97, %"class.mojo::Message"* nonnull %7) #11
  call void @llvm.lifetime.end.p0i8(i64 16, i8* nonnull %67) #11
  call void @llvm.lifetime.end.p0i8(i64 16, i8* nonnull %45) #11
  call void @llvm.lifetime.end.p0i8(i64 16, i8* nonnull %23) #11
  call void @_ZN4mojo7MessageD1Ev(%"class.mojo::Message"* nonnull %7) #11
  call void @llvm.lifetime.end.p0i8(i64 120, i8* nonnull %12) #11
  ret void
}

; Function Attrs: nounwind ssp uwtable
define hidden void @_ZN4apps5mojom15AppServiceProxy18RemovePreferredAppENS0_7AppTypeERKNSt3__112basic_stringIcNS3_11char_traitsIcEENS3_9allocatorIcEEEE(%"class.apps::mojom::AppServiceProxy"* nocapture readonly, i32, %"class.std::__1::basic_string"* dereferenceable(24)) unnamed_addr #1 align 2 {
  %4 = alloca %"class.mojo::Message", align 8
  %5 = alloca %"class.mojo::internal::MessageFragment.38", align 8
  %6 = bitcast %"class.mojo::Message"* %4 to i8*
  call void @llvm.lifetime.start.p0i8(i64 120, i8* nonnull %6) #11
  call void @llvm.memset.p0i8.i64(i8* nonnull align 8 %6, i8 -86, i64 120, i1 false)
  call void @_ZN4mojo7MessageC1EjjmmPNSt3__16vectorINS_16ScopedHandleBaseINS_6HandleEEENS1_9allocatorIS5_EEEE(%"class.mojo::Message"* nonnull %4, i32 762693403, i32 0, i64 0, i64 0, %"class.std::__1::vector"* null) #11
  %7 = getelementptr inbounds %"class.mojo::Message", %"class.mojo::Message"* %4, i64 0, i32 1
  %8 = call i64 @_ZN4mojo8internal6Buffer8AllocateEm(%"class.mojo::internal::Buffer"* %7, i64 24) #11
  %9 = getelementptr inbounds %"class.mojo::Message", %"class.mojo::Message"* %4, i64 0, i32 1, i32 2
  %10 = load i8*, i8** %9, align 8
  %11 = getelementptr inbounds i8, i8* %10, i64 %8
  %12 = bitcast i8* %11 to %"class.apps::mojom::internal::AppService_RemovePreferredApp_Params_Data"*
  call void @_ZN4apps5mojom8internal41AppService_RemovePreferredApp_Params_DataC1Ev(%"class.apps::mojom::internal::AppService_RemovePreferredApp_Params_Data"* %12) #11
  %13 = load i8*, i8** %9, align 8
  %14 = getelementptr inbounds i8, i8* %13, i64 %8
  %15 = getelementptr inbounds i8, i8* %14, i64 8
  %16 = bitcast i8* %15 to i32*
  store i32 %1, i32* %16, align 4
  %17 = bitcast %"class.mojo::internal::MessageFragment.38"* %5 to i8*
  call void @llvm.lifetime.start.p0i8(i64 16, i8* nonnull %17) #11
  %18 = getelementptr inbounds %"class.mojo::internal::MessageFragment.38", %"class.mojo::internal::MessageFragment.38"* %5, i64 0, i32 0
  %19 = getelementptr inbounds %"class.mojo::internal::MessageFragment.38", %"class.mojo::internal::MessageFragment.38"* %5, i64 0, i32 1
  store %"class.mojo::Message"* %4, %"class.mojo::Message"** %18, align 8
  store i64 -1, i64* %19, align 8
  call void @_ZN4mojo8internal10SerializerINS_14StringDataViewEKNSt3__112basic_stringIcNS3_11char_traitsIcEENS3_9allocatorIcEEEEE9SerializeERSA_RNS0_15MessageFragmentINS0_10Array_DataIcEEEE(%"class.std::__1::basic_string"* dereferenceable(24) %2, %"class.mojo::internal::MessageFragment.38"* nonnull dereferenceable(16) %5) #11
  %20 = load i8*, i8** %9, align 8
  %21 = getelementptr inbounds i8, i8* %20, i64 %8
  %22 = getelementptr inbounds i8, i8* %21, i64 16
  %23 = load i64, i64* %19, align 8
  %24 = icmp eq i64 %23, -1
  br i1 %24, label %31, label %25

25:                                               ; preds = %3
  %26 = load %"class.mojo::Message"*, %"class.mojo::Message"** %18, align 8
  %27 = getelementptr inbounds %"class.mojo::Message", %"class.mojo::Message"* %26, i64 0, i32 1, i32 2
  %28 = load i8*, i8** %27, align 8
  %29 = getelementptr inbounds i8, i8* %28, i64 %23
  %30 = bitcast i8* %29 to %"class.mojo::internal::Array_Data"*
  br label %31

31:                                               ; preds = %3, %25
  %32 = phi %"class.mojo::internal::Array_Data"* [ %30, %25 ], [ null, %3 ]
  %33 = bitcast i8* %22 to i64*
  %34 = icmp eq %"class.mojo::internal::Array_Data"* %32, null
  %35 = ptrtoint %"class.mojo::internal::Array_Data"* %32 to i64
  %36 = ptrtoint i8* %22 to i64
  %37 = sub i64 %35, %36
  %38 = select i1 %34, i64 0, i64 %37
  store i64 %38, i64* %33, align 8
  %39 = getelementptr inbounds %"class.apps::mojom::AppServiceProxy", %"class.apps::mojom::AppServiceProxy"* %0, i64 0, i32 1
  %40 = bitcast %"class.mojo::MessageReceiverWithResponder"** %39 to %"class.mojo::MessageReceiver"**
  %41 = load %"class.mojo::MessageReceiver"*, %"class.mojo::MessageReceiver"** %40, align 8
  %42 = bitcast %"class.mojo::MessageReceiver"* %41 to i1 (%"class.mojo::MessageReceiver"*, %"class.mojo::Message"*)***
  %43 = load i1 (%"class.mojo::MessageReceiver"*, %"class.mojo::Message"*)**, i1 (%"class.mojo::MessageReceiver"*, %"class.mojo::Message"*)*** %42, align 8
  %44 = getelementptr inbounds i1 (%"class.mojo::MessageReceiver"*, %"class.mojo::Message"*)*, i1 (%"class.mojo::MessageReceiver"*, %"class.mojo::Message"*)** %43, i64 3
  %45 = load i1 (%"class.mojo::MessageReceiver"*, %"class.mojo::Message"*)*, i1 (%"class.mojo::MessageReceiver"*, %"class.mojo::Message"*)** %44, align 8
  %46 = call zeroext i1 %45(%"class.mojo::MessageReceiver"* %41, %"class.mojo::Message"* nonnull %4) #11
  call void @llvm.lifetime.end.p0i8(i64 16, i8* nonnull %17) #11
  call void @_ZN4mojo7MessageD1Ev(%"class.mojo::Message"* nonnull %4) #11
  call void @llvm.lifetime.end.p0i8(i64 120, i8* nonnull %6) #11
  ret void
}

; Function Attrs: nounwind ssp uwtable
define hidden void @_ZN4apps5mojom15AppServiceProxy27RemovePreferredAppForFilterENS0_7AppTypeERKNSt3__112basic_stringIcNS3_11char_traitsIcEENS3_9allocatorIcEEEEN4mojo9StructPtrINS0_12IntentFilterEEE(%"class.apps::mojom::AppServiceProxy"* nocapture readonly, i32, %"class.std::__1::basic_string"* dereferenceable(24), %"class.mojo::StructPtr.145"*) unnamed_addr #1 align 2 {
  %5 = alloca %"class.mojo::Message", align 8
  %6 = alloca %"class.mojo::internal::MessageFragment.38", align 8
  %7 = alloca %"class.mojo::internal::MessageFragment.177", align 8
  %8 = bitcast %"class.mojo::Message"* %5 to i8*
  call void @llvm.lifetime.start.p0i8(i64 120, i8* nonnull %8) #11
  call void @llvm.memset.p0i8.i64(i8* nonnull align 8 %8, i8 -86, i64 120, i1 false)
  call void @_ZN4mojo7MessageC1EjjmmPNSt3__16vectorINS_16ScopedHandleBaseINS_6HandleEEENS1_9allocatorIS5_EEEE(%"class.mojo::Message"* nonnull %5, i32 1233201, i32 0, i64 0, i64 0, %"class.std::__1::vector"* null) #11
  %9 = getelementptr inbounds %"class.mojo::Message", %"class.mojo::Message"* %5, i64 0, i32 1
  %10 = call i64 @_ZN4mojo8internal6Buffer8AllocateEm(%"class.mojo::internal::Buffer"* %9, i64 32) #11
  %11 = getelementptr inbounds %"class.mojo::Message", %"class.mojo::Message"* %5, i64 0, i32 1, i32 2
  %12 = load i8*, i8** %11, align 8
  %13 = getelementptr inbounds i8, i8* %12, i64 %10
  %14 = bitcast i8* %13 to %"class.apps::mojom::internal::AppService_RemovePreferredAppForFilter_Params_Data"*
  call void @_ZN4apps5mojom8internal50AppService_RemovePreferredAppForFilter_Params_DataC1Ev(%"class.apps::mojom::internal::AppService_RemovePreferredAppForFilter_Params_Data"* %14) #11
  %15 = load i8*, i8** %11, align 8
  %16 = getelementptr inbounds i8, i8* %15, i64 %10
  %17 = getelementptr inbounds i8, i8* %16, i64 8
  %18 = bitcast i8* %17 to i32*
  store i32 %1, i32* %18, align 4
  %19 = bitcast %"class.mojo::internal::MessageFragment.38"* %6 to i8*
  call void @llvm.lifetime.start.p0i8(i64 16, i8* nonnull %19) #11
  %20 = getelementptr inbounds %"class.mojo::internal::MessageFragment.38", %"class.mojo::internal::MessageFragment.38"* %6, i64 0, i32 0
  %21 = getelementptr inbounds %"class.mojo::internal::MessageFragment.38", %"class.mojo::internal::MessageFragment.38"* %6, i64 0, i32 1
  store %"class.mojo::Message"* %5, %"class.mojo::Message"** %20, align 8
  store i64 -1, i64* %21, align 8
  call void @_ZN4mojo8internal10SerializerINS_14StringDataViewEKNSt3__112basic_stringIcNS3_11char_traitsIcEENS3_9allocatorIcEEEEE9SerializeERSA_RNS0_15MessageFragmentINS0_10Array_DataIcEEEE(%"class.std::__1::basic_string"* dereferenceable(24) %2, %"class.mojo::internal::MessageFragment.38"* nonnull dereferenceable(16) %6) #11
  %22 = load i8*, i8** %11, align 8
  %23 = getelementptr inbounds i8, i8* %22, i64 %10
  %24 = getelementptr inbounds i8, i8* %23, i64 16
  %25 = load i64, i64* %21, align 8
  %26 = icmp eq i64 %25, -1
  br i1 %26, label %33, label %27

27:                                               ; preds = %4
  %28 = load %"class.mojo::Message"*, %"class.mojo::Message"** %20, align 8
  %29 = getelementptr inbounds %"class.mojo::Message", %"class.mojo::Message"* %28, i64 0, i32 1, i32 2
  %30 = load i8*, i8** %29, align 8
  %31 = getelementptr inbounds i8, i8* %30, i64 %25
  %32 = bitcast i8* %31 to %"class.mojo::internal::Array_Data"*
  br label %33

33:                                               ; preds = %4, %27
  %34 = phi %"class.mojo::internal::Array_Data"* [ %32, %27 ], [ null, %4 ]
  %35 = bitcast i8* %24 to i64*
  %36 = icmp eq %"class.mojo::internal::Array_Data"* %34, null
  %37 = ptrtoint %"class.mojo::internal::Array_Data"* %34 to i64
  %38 = ptrtoint i8* %24 to i64
  %39 = sub i64 %37, %38
  %40 = select i1 %36, i64 0, i64 %39
  store i64 %40, i64* %35, align 8
  %41 = bitcast %"class.mojo::internal::MessageFragment.177"* %7 to i8*
  call void @llvm.lifetime.start.p0i8(i64 16, i8* nonnull %41) #11
  %42 = getelementptr inbounds %"class.mojo::internal::MessageFragment.177", %"class.mojo::internal::MessageFragment.177"* %7, i64 0, i32 0
  %43 = getelementptr inbounds %"class.mojo::internal::MessageFragment.177", %"class.mojo::internal::MessageFragment.177"* %7, i64 0, i32 1
  store %"class.mojo::Message"* %5, %"class.mojo::Message"** %42, align 8
  store i64 -1, i64* %43, align 8
  call void @_ZN4mojo8internal10SerializerIN4apps5mojom20IntentFilterDataViewENS_9StructPtrINS3_12IntentFilterEEEE9SerializeERS7_RNS0_15MessageFragmentINS3_8internal17IntentFilter_DataEEE(%"class.mojo::StructPtr.145"* dereferenceable(8) %3, %"class.mojo::internal::MessageFragment.177"* nonnull dereferenceable(16) %7) #11
  %44 = load i8*, i8** %11, align 8
  %45 = getelementptr inbounds i8, i8* %44, i64 %10
  %46 = getelementptr inbounds i8, i8* %45, i64 24
  %47 = load i64, i64* %43, align 8
  %48 = icmp eq i64 %47, -1
  br i1 %48, label %55, label %49

49:                                               ; preds = %33
  %50 = load %"class.mojo::Message"*, %"class.mojo::Message"** %42, align 8
  %51 = getelementptr inbounds %"class.mojo::Message", %"class.mojo::Message"* %50, i64 0, i32 1, i32 2
  %52 = load i8*, i8** %51, align 8
  %53 = getelementptr inbounds i8, i8* %52, i64 %47
  %54 = bitcast i8* %53 to %"class.apps::mojom::internal::IntentFilter_Data"*
  br label %55

55:                                               ; preds = %33, %49
  %56 = phi %"class.apps::mojom::internal::IntentFilter_Data"* [ %54, %49 ], [ null, %33 ]
  %57 = bitcast i8* %46 to i64*
  %58 = icmp eq %"class.apps::mojom::internal::IntentFilter_Data"* %56, null
  %59 = ptrtoint %"class.apps::mojom::internal::IntentFilter_Data"* %56 to i64
  %60 = ptrtoint i8* %46 to i64
  %61 = sub i64 %59, %60
  %62 = select i1 %58, i64 0, i64 %61
  store i64 %62, i64* %57, align 8
  %63 = getelementptr inbounds %"class.apps::mojom::AppServiceProxy", %"class.apps::mojom::AppServiceProxy"* %0, i64 0, i32 1
  %64 = bitcast %"class.mojo::MessageReceiverWithResponder"** %63 to %"class.mojo::MessageReceiver"**
  %65 = load %"class.mojo::MessageReceiver"*, %"class.mojo::MessageReceiver"** %64, align 8
  %66 = bitcast %"class.mojo::MessageReceiver"* %65 to i1 (%"class.mojo::MessageReceiver"*, %"class.mojo::Message"*)***
  %67 = load i1 (%"class.mojo::MessageReceiver"*, %"class.mojo::Message"*)**, i1 (%"class.mojo::MessageReceiver"*, %"class.mojo::Message"*)*** %66, align 8
  %68 = getelementptr inbounds i1 (%"class.mojo::MessageReceiver"*, %"class.mojo::Message"*)*, i1 (%"class.mojo::MessageReceiver"*, %"class.mojo::Message"*)** %67, i64 3
  %69 = load i1 (%"class.mojo::MessageReceiver"*, %"class.mojo::Message"*)*, i1 (%"class.mojo::MessageReceiver"*, %"class.mojo::Message"*)** %68, align 8
  %70 = call zeroext i1 %69(%"class.mojo::MessageReceiver"* %65, %"class.mojo::Message"* nonnull %5) #11
  call void @llvm.lifetime.end.p0i8(i64 16, i8* nonnull %41) #11
  call void @llvm.lifetime.end.p0i8(i64 16, i8* nonnull %19) #11
  call void @_ZN4mojo7MessageD1Ev(%"class.mojo::Message"* nonnull %5) #11
  call void @llvm.lifetime.end.p0i8(i64 120, i8* nonnull %8) #11
  ret void
}

; Function Attrs: nounwind ssp uwtable
define hidden void @_ZN4apps5mojom15AppServiceProxy15SetResizeLockedENS0_7AppTypeERKNSt3__112basic_stringIcNS3_11char_traitsIcEENS3_9allocatorIcEEEENS0_12OptionalBoolE(%"class.apps::mojom::AppServiceProxy"* nocapture readonly, i32, %"class.std::__1::basic_string"* dereferenceable(24), i32) unnamed_addr #1 align 2 {
  %5 = alloca %"class.mojo::Message", align 8
  %6 = alloca %"class.mojo::internal::MessageFragment.38", align 8
  %7 = bitcast %"class.mojo::Message"* %5 to i8*
  call void @llvm.lifetime.start.p0i8(i64 120, i8* nonnull %7) #11
  call void @llvm.memset.p0i8.i64(i8* nonnull align 8 %7, i8 -86, i64 120, i1 false)
  call void @_ZN4mojo7MessageC1EjjmmPNSt3__16vectorINS_16ScopedHandleBaseINS_6HandleEEENS1_9allocatorIS5_EEEE(%"class.mojo::Message"* nonnull %5, i32 2115867878, i32 0, i64 0, i64 0, %"class.std::__1::vector"* null) #11
  %8 = getelementptr inbounds %"class.mojo::Message", %"class.mojo::Message"* %5, i64 0, i32 1
  %9 = call i64 @_ZN4mojo8internal6Buffer8AllocateEm(%"class.mojo::internal::Buffer"* %8, i64 24) #11
  %10 = getelementptr inbounds %"class.mojo::Message", %"class.mojo::Message"* %5, i64 0, i32 1, i32 2
  %11 = load i8*, i8** %10, align 8
  %12 = getelementptr inbounds i8, i8* %11, i64 %9
  %13 = bitcast i8* %12 to %"class.apps::mojom::internal::AppService_SetResizeLocked_Params_Data"*
  call void @_ZN4apps5mojom8internal38AppService_SetResizeLocked_Params_DataC1Ev(%"class.apps::mojom::internal::AppService_SetResizeLocked_Params_Data"* %13) #11
  %14 = load i8*, i8** %10, align 8
  %15 = getelementptr inbounds i8, i8* %14, i64 %9
  %16 = getelementptr inbounds i8, i8* %15, i64 8
  %17 = bitcast i8* %16 to i32*
  store i32 %1, i32* %17, align 4
  %18 = bitcast %"class.mojo::internal::MessageFragment.38"* %6 to i8*
  call void @llvm.lifetime.start.p0i8(i64 16, i8* nonnull %18) #11
  %19 = getelementptr inbounds %"class.mojo::internal::MessageFragment.38", %"class.mojo::internal::MessageFragment.38"* %6, i64 0, i32 0
  %20 = getelementptr inbounds %"class.mojo::internal::MessageFragment.38", %"class.mojo::internal::MessageFragment.38"* %6, i64 0, i32 1
  store %"class.mojo::Message"* %5, %"class.mojo::Message"** %19, align 8
  store i64 -1, i64* %20, align 8
  call void @_ZN4mojo8internal10SerializerINS_14StringDataViewEKNSt3__112basic_stringIcNS3_11char_traitsIcEENS3_9allocatorIcEEEEE9SerializeERSA_RNS0_15MessageFragmentINS0_10Array_DataIcEEEE(%"class.std::__1::basic_string"* dereferenceable(24) %2, %"class.mojo::internal::MessageFragment.38"* nonnull dereferenceable(16) %6) #11
  %21 = load i8*, i8** %10, align 8
  %22 = getelementptr inbounds i8, i8* %21, i64 %9
  %23 = getelementptr inbounds i8, i8* %22, i64 16
  %24 = load i64, i64* %20, align 8
  %25 = icmp eq i64 %24, -1
  br i1 %25, label %32, label %26

26:                                               ; preds = %4
  %27 = load %"class.mojo::Message"*, %"class.mojo::Message"** %19, align 8
  %28 = getelementptr inbounds %"class.mojo::Message", %"class.mojo::Message"* %27, i64 0, i32 1, i32 2
  %29 = load i8*, i8** %28, align 8
  %30 = getelementptr inbounds i8, i8* %29, i64 %24
  %31 = bitcast i8* %30 to %"class.mojo::internal::Array_Data"*
  br label %32

32:                                               ; preds = %4, %26
  %33 = phi %"class.mojo::internal::Array_Data"* [ %31, %26 ], [ null, %4 ]
  %34 = bitcast i8* %23 to i64*
  %35 = icmp eq %"class.mojo::internal::Array_Data"* %33, null
  %36 = ptrtoint %"class.mojo::internal::Array_Data"* %33 to i64
  %37 = ptrtoint i8* %23 to i64
  %38 = sub i64 %36, %37
  %39 = select i1 %35, i64 0, i64 %38
  store i64 %39, i64* %34, align 8
  %40 = load i8*, i8** %10, align 8
  %41 = getelementptr inbounds i8, i8* %40, i64 %9
  %42 = getelementptr inbounds i8, i8* %41, i64 12
  %43 = bitcast i8* %42 to i32*
  store i32 %3, i32* %43, align 4
  %44 = getelementptr inbounds %"class.apps::mojom::AppServiceProxy", %"class.apps::mojom::AppServiceProxy"* %0, i64 0, i32 1
  %45 = bitcast %"class.mojo::MessageReceiverWithResponder"** %44 to %"class.mojo::MessageReceiver"**
  %46 = load %"class.mojo::MessageReceiver"*, %"class.mojo::MessageReceiver"** %45, align 8
  %47 = bitcast %"class.mojo::MessageReceiver"* %46 to i1 (%"class.mojo::MessageReceiver"*, %"class.mojo::Message"*)***
  %48 = load i1 (%"class.mojo::MessageReceiver"*, %"class.mojo::Message"*)**, i1 (%"class.mojo::MessageReceiver"*, %"class.mojo::Message"*)*** %47, align 8
  %49 = getelementptr inbounds i1 (%"class.mojo::MessageReceiver"*, %"class.mojo::Message"*)*, i1 (%"class.mojo::MessageReceiver"*, %"class.mojo::Message"*)** %48, i64 3
  %50 = load i1 (%"class.mojo::MessageReceiver"*, %"class.mojo::Message"*)*, i1 (%"class.mojo::MessageReceiver"*, %"class.mojo::Message"*)** %49, align 8
  %51 = call zeroext i1 %50(%"class.mojo::MessageReceiver"* %46, %"class.mojo::Message"* nonnull %5) #11
  call void @llvm.lifetime.end.p0i8(i64 16, i8* nonnull %18) #11
  call void @_ZN4mojo7MessageD1Ev(%"class.mojo::Message"* nonnull %5) #11
  call void @llvm.lifetime.end.p0i8(i64 120, i8* nonnull %7) #11
  ret void
}

; Function Attrs: nounwind ssp uwtable
define hidden zeroext i1 @_ZN4apps5mojom37AppService_LoadIcon_ForwardToCallback6AcceptEPN4mojo7MessageE(%"class.apps::mojom::AppService_LoadIcon_ForwardToCallback"* nocapture, %"class.mojo::Message"*) unnamed_addr #1 align 2 {
  %3 = alloca %"class.base::OnceCallback", align 8
  %4 = alloca %"class.mojo::StructPtr.183", align 8
  %5 = alloca %"class.mojo::StructPtr.183", align 8
  %6 = tail call i8* @_ZNK4mojo7Message7payloadEv(%"class.mojo::Message"* %1) #11
  %7 = bitcast %"class.mojo::StructPtr.183"* %4 to i8*
  call void @llvm.lifetime.start.p0i8(i64 8, i8* nonnull %7) #11
  %8 = getelementptr inbounds %"class.mojo::StructPtr.183", %"class.mojo::StructPtr.183"* %4, i64 0, i32 0, i32 0, i32 0, i32 0
  %9 = bitcast %"class.mojo::StructPtr.183"* %4 to i64*
  store i64 0, i64* %9, align 8
  %10 = getelementptr inbounds i8, i8* %6, i64 8
  %11 = bitcast i8* %10 to i64*
  %12 = load i64, i64* %11, align 8
  %13 = icmp eq i64 %12, 0
  br i1 %13, label %14, label %15

14:                                               ; preds = %2
  store %"class.apps::mojom::IconValue"* null, %"class.apps::mojom::IconValue"** %8, align 8
  br label %20

15:                                               ; preds = %2
  %16 = getelementptr inbounds i8, i8* %10, i64 %12
  %17 = bitcast i8* %16 to %"class.apps::mojom::internal::IconValue_Data"*
  %18 = call zeroext i1 @_ZN4mojo12StructTraitsIN4apps5mojom17IconValueDataViewENS_9StructPtrINS2_9IconValueEEEE4ReadES3_PS6_(%"class.apps::mojom::internal::IconValue_Data"* nonnull %17, %"class.mojo::Message"* %1, %"class.mojo::StructPtr.183"* nonnull %4) #11
  br i1 %18, label %20, label %19

19:                                               ; preds = %15
  call void @_ZN4mojo8internal31ReportValidationErrorForMessageEPNS_7MessageENS0_15ValidationErrorEPKcjb(%"class.mojo::Message"* %1, i32 17, i8* getelementptr inbounds ([22 x i8], [22 x i8]* @_ZN4apps5mojom10AppService5Name_E, i64 0, i64 0), i32 2, i1 zeroext true) #11
  br label %39

20:                                               ; preds = %14, %15
  %21 = getelementptr inbounds %"class.apps::mojom::AppService_LoadIcon_ForwardToCallback", %"class.apps::mojom::AppService_LoadIcon_ForwardToCallback"* %0, i64 0, i32 1, i32 0, i32 0, i32 0
  %22 = load %"class.base::internal::BindStateBase"*, %"class.base::internal::BindStateBase"** %21, align 8
  %23 = icmp eq %"class.base::internal::BindStateBase"* %22, null
  br i1 %23, label %39, label %24

24:                                               ; preds = %20
  %25 = ptrtoint %"class.base::internal::BindStateBase"* %22 to i64
  %26 = bitcast %"class.mojo::StructPtr.183"* %5 to i64*
  %27 = getelementptr inbounds %"class.mojo::StructPtr.183", %"class.mojo::StructPtr.183"* %5, i64 0, i32 0, i32 0, i32 0, i32 0
  %28 = load i64, i64* %9, align 8
  store i64 %28, i64* %26, align 8
  store i64 0, i64* %9, align 8
  %29 = bitcast %"class.base::OnceCallback"* %3 to i8*
  call void @llvm.lifetime.start.p0i8(i64 8, i8* nonnull %29) #11
  %30 = bitcast %"class.base::OnceCallback"* %3 to i64*
  store i64 %25, i64* %30, align 8
  store %"class.base::internal::BindStateBase"* null, %"class.base::internal::BindStateBase"** %21, align 8
  %31 = getelementptr inbounds %"class.base::OnceCallback", %"class.base::OnceCallback"* %3, i64 0, i32 0
  %32 = getelementptr inbounds %"class.base::internal::BindStateBase", %"class.base::internal::BindStateBase"* %22, i64 0, i32 1
  %33 = bitcast void ()** %32 to void (%"class.base::internal::BindStateBase"*, %"class.mojo::StructPtr.183"*)**
  %34 = load void (%"class.base::internal::BindStateBase"*, %"class.mojo::StructPtr.183"*)*, void (%"class.base::internal::BindStateBase"*, %"class.mojo::StructPtr.183"*)** %33, align 8
  call void %34(%"class.base::internal::BindStateBase"* nonnull %22, %"class.mojo::StructPtr.183"* nonnull dereferenceable(8) %5) #11
  call void @_ZN4base8internal12CallbackBaseD2Ev(%"class.base::internal::CallbackBase"* nonnull %31) #11
  call void @llvm.lifetime.end.p0i8(i64 8, i8* nonnull %29) #11
  %35 = load %"class.apps::mojom::IconValue"*, %"class.apps::mojom::IconValue"** %27, align 8
  store %"class.apps::mojom::IconValue"* null, %"class.apps::mojom::IconValue"** %27, align 8
  %36 = icmp eq %"class.apps::mojom::IconValue"* %35, null
  br i1 %36, label %39, label %37

37:                                               ; preds = %24
  call void @_ZN4apps5mojom9IconValueD1Ev(%"class.apps::mojom::IconValue"* nonnull %35) #11
  %38 = bitcast %"class.apps::mojom::IconValue"* %35 to i8*
  call void @_ZdlPv(i8* %38) #12
  br label %39

39:                                               ; preds = %37, %24, %20, %19
  %40 = phi i1 [ false, %19 ], [ true, %20 ], [ true, %24 ], [ true, %37 ]
  %41 = load %"class.apps::mojom::IconValue"*, %"class.apps::mojom::IconValue"** %8, align 8
  store %"class.apps::mojom::IconValue"* null, %"class.apps::mojom::IconValue"** %8, align 8
  %42 = icmp eq %"class.apps::mojom::IconValue"* %41, null
  br i1 %42, label %45, label %43

43:                                               ; preds = %39
  call void @_ZN4apps5mojom9IconValueD1Ev(%"class.apps::mojom::IconValue"* nonnull %41) #11
  %44 = bitcast %"class.apps::mojom::IconValue"* %41 to i8*
  call void @_ZdlPv(i8* %44) #12
  br label %45

45:                                               ; preds = %39, %43
  call void @llvm.lifetime.end.p0i8(i64 8, i8* nonnull %7) #11
  ret i1 %40
}

declare void @_ZN4mojo8internal31ReportValidationErrorForMessageEPNS_7MessageENS0_15ValidationErrorEPKcjb(%"class.mojo::Message"*, i32, i8*, i32, i1 zeroext) local_unnamed_addr #3

; Function Attrs: nounwind ssp uwtable
define hidden void @_ZN4apps5mojom36AppService_LoadIcon_ProxyToResponder3RunEN4mojo9StructPtrINS0_9IconValueEEE(%"class.apps::mojom::AppService_LoadIcon_ProxyToResponder"* nocapture, %"class.mojo::StructPtr.183"*) #1 align 2 {
  %3 = alloca %"class.mojo::Message", align 8
  %4 = alloca %"class.mojo::internal::MessageFragment.210", align 8
  %5 = getelementptr inbounds %"class.apps::mojom::AppService_LoadIcon_ProxyToResponder", %"class.apps::mojom::AppService_LoadIcon_ProxyToResponder"* %0, i64 0, i32 1
  %6 = load i8, i8* %5, align 8, !range !14
  %7 = icmp eq i8 %6, 0
  %8 = select i1 %7, i32 2, i32 6
  %9 = bitcast %"class.mojo::Message"* %3 to i8*
  call void @llvm.lifetime.start.p0i8(i64 120, i8* nonnull %9) #11
  call void @llvm.memset.p0i8.i64(i8* nonnull align 8 %9, i8 -86, i64 120, i1 false)
  call void @_ZN4mojo7MessageC1EjjmmPNSt3__16vectorINS_16ScopedHandleBaseINS_6HandleEEENS1_9allocatorIS5_EEEE(%"class.mojo::Message"* nonnull %3, i32 1654379519, i32 %8, i64 0, i64 0, %"class.std::__1::vector"* null) #11
  %10 = getelementptr inbounds %"class.mojo::Message", %"class.mojo::Message"* %3, i64 0, i32 1
  %11 = call i64 @_ZN4mojo8internal6Buffer8AllocateEm(%"class.mojo::internal::Buffer"* %10, i64 16) #11
  %12 = getelementptr inbounds %"class.mojo::Message", %"class.mojo::Message"* %3, i64 0, i32 1, i32 2
  %13 = load i8*, i8** %12, align 8
  %14 = getelementptr inbounds i8, i8* %13, i64 %11
  %15 = bitcast i8* %14 to %"class.apps::mojom::internal::AppService_LoadIcon_ResponseParams_Data"*
  call void @_ZN4apps5mojom8internal39AppService_LoadIcon_ResponseParams_DataC1Ev(%"class.apps::mojom::internal::AppService_LoadIcon_ResponseParams_Data"* %15) #11
  %16 = bitcast %"class.mojo::internal::MessageFragment.210"* %4 to i8*
  call void @llvm.lifetime.start.p0i8(i64 16, i8* nonnull %16) #11
  %17 = getelementptr inbounds %"class.mojo::internal::MessageFragment.210", %"class.mojo::internal::MessageFragment.210"* %4, i64 0, i32 0
  %18 = getelementptr inbounds %"class.mojo::internal::MessageFragment.210", %"class.mojo::internal::MessageFragment.210"* %4, i64 0, i32 1
  store %"class.mojo::Message"* %3, %"class.mojo::Message"** %17, align 8
  store i64 -1, i64* %18, align 8
  call void @_ZN4mojo8internal10SerializerIN4apps5mojom17IconValueDataViewENS_9StructPtrINS3_9IconValueEEEE9SerializeERS7_RNS0_15MessageFragmentINS3_8internal14IconValue_DataEEE(%"class.mojo::StructPtr.183"* dereferenceable(8) %1, %"class.mojo::internal::MessageFragment.210"* nonnull dereferenceable(16) %4) #11
  %19 = load i8*, i8** %12, align 8
  %20 = getelementptr inbounds i8, i8* %19, i64 %11
  %21 = getelementptr inbounds i8, i8* %20, i64 8
  %22 = load i64, i64* %18, align 8
  %23 = icmp eq i64 %22, -1
  br i1 %23, label %30, label %24

24:                                               ; preds = %2
  %25 = load %"class.mojo::Message"*, %"class.mojo::Message"** %17, align 8
  %26 = getelementptr inbounds %"class.mojo::Message", %"class.mojo::Message"* %25, i64 0, i32 1, i32 2
  %27 = load i8*, i8** %26, align 8
  %28 = getelementptr inbounds i8, i8* %27, i64 %22
  %29 = bitcast i8* %28 to %"class.apps::mojom::internal::IconValue_Data"*
  br label %30

30:                                               ; preds = %2, %24
  %31 = phi %"class.apps::mojom::internal::IconValue_Data"* [ %29, %24 ], [ null, %2 ]
  %32 = bitcast i8* %21 to i64*
  %33 = icmp eq %"class.apps::mojom::internal::IconValue_Data"* %31, null
  %34 = ptrtoint %"class.apps::mojom::internal::IconValue_Data"* %31 to i64
  %35 = ptrtoint i8* %21 to i64
  %36 = sub i64 %34, %35
  %37 = select i1 %33, i64 0, i64 %36
  store i64 %37, i64* %32, align 8
  %38 = getelementptr inbounds %"class.apps::mojom::AppService_LoadIcon_ProxyToResponder", %"class.apps::mojom::AppService_LoadIcon_ProxyToResponder"* %0, i64 0, i32 0
  %39 = load i64, i64* %38, align 8
  %40 = bitcast i8** %12 to %"struct.mojo::internal::MessageHeaderV1"**
  %41 = load %"struct.mojo::internal::MessageHeaderV1"*, %"struct.mojo::internal::MessageHeaderV1"** %40, align 8
  %42 = getelementptr inbounds %"struct.mojo::internal::MessageHeaderV1", %"struct.mojo::internal::MessageHeaderV1"* %41, i64 0, i32 1
  store i64 %39, i64* %42, align 1
  %43 = getelementptr inbounds %"class.apps::mojom::AppService_LoadIcon_ProxyToResponder", %"class.apps::mojom::AppService_LoadIcon_ProxyToResponder"* %0, i64 0, i32 2, i32 0, i32 0, i32 0
  %44 = load %"class.mojo::MessageReceiverWithStatus"*, %"class.mojo::MessageReceiverWithStatus"** %43, align 8
  %45 = getelementptr inbounds %"class.mojo::MessageReceiverWithStatus", %"class.mojo::MessageReceiverWithStatus"* %44, i64 0, i32 0
  %46 = bitcast %"class.mojo::MessageReceiverWithStatus"* %44 to i1 (%"class.mojo::MessageReceiver"*, %"class.mojo::Message"*)***
  %47 = load i1 (%"class.mojo::MessageReceiver"*, %"class.mojo::Message"*)**, i1 (%"class.mojo::MessageReceiver"*, %"class.mojo::Message"*)*** %46, align 8
  %48 = getelementptr inbounds i1 (%"class.mojo::MessageReceiver"*, %"class.mojo::Message"*)*, i1 (%"class.mojo::MessageReceiver"*, %"class.mojo::Message"*)** %47, i64 3
  %49 = load i1 (%"class.mojo::MessageReceiver"*, %"class.mojo::Message"*)*, i1 (%"class.mojo::MessageReceiver"*, %"class.mojo::Message"*)** %48, align 8
  %50 = call zeroext i1 %49(%"class.mojo::MessageReceiver"* %45, %"class.mojo::Message"* nonnull %3) #11
  %51 = load %"class.mojo::MessageReceiverWithStatus"*, %"class.mojo::MessageReceiverWithStatus"** %43, align 8
  store %"class.mojo::MessageReceiverWithStatus"* null, %"class.mojo::MessageReceiverWithStatus"** %43, align 8
  %52 = icmp eq %"class.mojo::MessageReceiverWithStatus"* %51, null
  br i1 %52, label %58, label %53

53:                                               ; preds = %30
  %54 = bitcast %"class.mojo::MessageReceiverWithStatus"* %51 to void (%"class.mojo::MessageReceiverWithStatus"*)***
  %55 = load void (%"class.mojo::MessageReceiverWithStatus"*)**, void (%"class.mojo::MessageReceiverWithStatus"*)*** %54, align 8
  %56 = getelementptr inbounds void (%"class.mojo::MessageReceiverWithStatus"*)*, void (%"class.mojo::MessageReceiverWithStatus"*)** %55, i64 1
  %57 = load void (%"class.mojo::MessageReceiverWithStatus"*)*, void (%"class.mojo::MessageReceiverWithStatus"*)** %56, align 8
  call void %57(%"class.mojo::MessageReceiverWithStatus"* nonnull %51) #11
  br label %58

58:                                               ; preds = %30, %53
  call void @llvm.lifetime.end.p0i8(i64 16, i8* nonnull %16) #11
  call void @_ZN4mojo7MessageD1Ev(%"class.mojo::Message"* nonnull %3) #11
  call void @llvm.lifetime.end.p0i8(i64 120, i8* nonnull %9) #11
  ret void
}

; Function Attrs: nounwind ssp uwtable
define hidden zeroext i1 @_ZN4apps5mojom41AppService_GetMenuModel_ForwardToCallback6AcceptEPN4mojo7MessageE(%"class.apps::mojom::AppService_GetMenuModel_ForwardToCallback"* nocapture, %"class.mojo::Message"*) unnamed_addr #1 align 2 {
  %3 = alloca %"class.base::OnceCallback.141", align 8
  %4 = alloca %"class.mojo::StructPtr.214", align 8
  %5 = alloca %"class.mojo::StructPtr.214", align 8
  %6 = tail call i8* @_ZNK4mojo7Message7payloadEv(%"class.mojo::Message"* %1) #11
  %7 = bitcast %"class.mojo::StructPtr.214"* %4 to i8*
  call void @llvm.lifetime.start.p0i8(i64 8, i8* nonnull %7) #11
  %8 = getelementptr inbounds %"class.mojo::StructPtr.214", %"class.mojo::StructPtr.214"* %4, i64 0, i32 0, i32 0, i32 0, i32 0
  %9 = bitcast %"class.mojo::StructPtr.214"* %4 to i64*
  store i64 0, i64* %9, align 8
  %10 = getelementptr inbounds i8, i8* %6, i64 8
  %11 = bitcast i8* %10 to i64*
  %12 = load i64, i64* %11, align 8
  %13 = icmp eq i64 %12, 0
  br i1 %13, label %14, label %15

14:                                               ; preds = %2
  store %"class.apps::mojom::MenuItems"* null, %"class.apps::mojom::MenuItems"** %8, align 8
  br label %20

15:                                               ; preds = %2
  %16 = getelementptr inbounds i8, i8* %10, i64 %12
  %17 = bitcast i8* %16 to %"class.apps::mojom::internal::MenuItems_Data"*
  %18 = call zeroext i1 @_ZN4mojo12StructTraitsIN4apps5mojom17MenuItemsDataViewENS_9StructPtrINS2_9MenuItemsEEEE4ReadES3_PS6_(%"class.apps::mojom::internal::MenuItems_Data"* nonnull %17, %"class.mojo::Message"* %1, %"class.mojo::StructPtr.214"* nonnull %4) #11
  br i1 %18, label %20, label %19

19:                                               ; preds = %15
  call void @_ZN4mojo8internal31ReportValidationErrorForMessageEPNS_7MessageENS0_15ValidationErrorEPKcjb(%"class.mojo::Message"* %1, i32 17, i8* getelementptr inbounds ([22 x i8], [22 x i8]* @_ZN4apps5mojom10AppService5Name_E, i64 0, i64 0), i32 11, i1 zeroext true) #11
  br label %39

20:                                               ; preds = %14, %15
  %21 = getelementptr inbounds %"class.apps::mojom::AppService_GetMenuModel_ForwardToCallback", %"class.apps::mojom::AppService_GetMenuModel_ForwardToCallback"* %0, i64 0, i32 1, i32 0, i32 0, i32 0
  %22 = load %"class.base::internal::BindStateBase"*, %"class.base::internal::BindStateBase"** %21, align 8
  %23 = icmp eq %"class.base::internal::BindStateBase"* %22, null
  br i1 %23, label %39, label %24

24:                                               ; preds = %20
  %25 = ptrtoint %"class.base::internal::BindStateBase"* %22 to i64
  %26 = bitcast %"class.mojo::StructPtr.214"* %5 to i64*
  %27 = getelementptr inbounds %"class.mojo::StructPtr.214", %"class.mojo::StructPtr.214"* %5, i64 0, i32 0, i32 0, i32 0, i32 0
  %28 = load i64, i64* %9, align 8
  store i64 %28, i64* %26, align 8
  store i64 0, i64* %9, align 8
  %29 = bitcast %"class.base::OnceCallback.141"* %3 to i8*
  call void @llvm.lifetime.start.p0i8(i64 8, i8* nonnull %29) #11
  %30 = bitcast %"class.base::OnceCallback.141"* %3 to i64*
  store i64 %25, i64* %30, align 8
  store %"class.base::internal::BindStateBase"* null, %"class.base::internal::BindStateBase"** %21, align 8
  %31 = getelementptr inbounds %"class.base::OnceCallback.141", %"class.base::OnceCallback.141"* %3, i64 0, i32 0
  %32 = getelementptr inbounds %"class.base::internal::BindStateBase", %"class.base::internal::BindStateBase"* %22, i64 0, i32 1
  %33 = bitcast void ()** %32 to void (%"class.base::internal::BindStateBase"*, %"class.mojo::StructPtr.214"*)**
  %34 = load void (%"class.base::internal::BindStateBase"*, %"class.mojo::StructPtr.214"*)*, void (%"class.base::internal::BindStateBase"*, %"class.mojo::StructPtr.214"*)** %33, align 8
  call void %34(%"class.base::internal::BindStateBase"* nonnull %22, %"class.mojo::StructPtr.214"* nonnull dereferenceable(8) %5) #11
  call void @_ZN4base8internal12CallbackBaseD2Ev(%"class.base::internal::CallbackBase"* nonnull %31) #11
  call void @llvm.lifetime.end.p0i8(i64 8, i8* nonnull %29) #11
  %35 = load %"class.apps::mojom::MenuItems"*, %"class.apps::mojom::MenuItems"** %27, align 8
  store %"class.apps::mojom::MenuItems"* null, %"class.apps::mojom::MenuItems"** %27, align 8
  %36 = icmp eq %"class.apps::mojom::MenuItems"* %35, null
  br i1 %36, label %39, label %37

37:                                               ; preds = %24
  call void @_ZN4apps5mojom9MenuItemsD1Ev(%"class.apps::mojom::MenuItems"* nonnull %35) #11
  %38 = bitcast %"class.apps::mojom::MenuItems"* %35 to i8*
  call void @_ZdlPv(i8* %38) #12
  br label %39

39:                                               ; preds = %37, %24, %20, %19
  %40 = phi i1 [ false, %19 ], [ true, %20 ], [ true, %24 ], [ true, %37 ]
  %41 = load %"class.apps::mojom::MenuItems"*, %"class.apps::mojom::MenuItems"** %8, align 8
  store %"class.apps::mojom::MenuItems"* null, %"class.apps::mojom::MenuItems"** %8, align 8
  %42 = icmp eq %"class.apps::mojom::MenuItems"* %41, null
  br i1 %42, label %45, label %43

43:                                               ; preds = %39
  call void @_ZN4apps5mojom9MenuItemsD1Ev(%"class.apps::mojom::MenuItems"* nonnull %41) #11
  %44 = bitcast %"class.apps::mojom::MenuItems"* %41 to i8*
  call void @_ZdlPv(i8* %44) #12
  br label %45

45:                                               ; preds = %39, %43
  call void @llvm.lifetime.end.p0i8(i64 8, i8* nonnull %7) #11
  ret i1 %40
}

; Function Attrs: nounwind ssp uwtable
define hidden void @_ZN4apps5mojom40AppService_GetMenuModel_ProxyToResponder3RunEN4mojo9StructPtrINS0_9MenuItemsEEE(%"class.apps::mojom::AppService_GetMenuModel_ProxyToResponder"* nocapture, %"class.mojo::StructPtr.214"*) #1 align 2 {
  %3 = alloca %"class.mojo::Message", align 8
  %4 = alloca %"class.mojo::internal::MessageFragment.236", align 8
  %5 = getelementptr inbounds %"class.apps::mojom::AppService_GetMenuModel_ProxyToResponder", %"class.apps::mojom::AppService_GetMenuModel_ProxyToResponder"* %0, i64 0, i32 1
  %6 = load i8, i8* %5, align 8, !range !14
  %7 = icmp eq i8 %6, 0
  %8 = select i1 %7, i32 2, i32 6
  %9 = bitcast %"class.mojo::Message"* %3 to i8*
  call void @llvm.lifetime.start.p0i8(i64 120, i8* nonnull %9) #11
  call void @llvm.memset.p0i8.i64(i8* nonnull align 8 %9, i8 -86, i64 120, i1 false)
  call void @_ZN4mojo7MessageC1EjjmmPNSt3__16vectorINS_16ScopedHandleBaseINS_6HandleEEENS1_9allocatorIS5_EEEE(%"class.mojo::Message"* nonnull %3, i32 688497112, i32 %8, i64 0, i64 0, %"class.std::__1::vector"* null) #11
  %10 = getelementptr inbounds %"class.mojo::Message", %"class.mojo::Message"* %3, i64 0, i32 1
  %11 = call i64 @_ZN4mojo8internal6Buffer8AllocateEm(%"class.mojo::internal::Buffer"* %10, i64 16) #11
  %12 = getelementptr inbounds %"class.mojo::Message", %"class.mojo::Message"* %3, i64 0, i32 1, i32 2
  %13 = load i8*, i8** %12, align 8
  %14 = getelementptr inbounds i8, i8* %13, i64 %11
  %15 = bitcast i8* %14 to %"class.apps::mojom::internal::AppService_GetMenuModel_ResponseParams_Data"*
  call void @_ZN4apps5mojom8internal43AppService_GetMenuModel_ResponseParams_DataC1Ev(%"class.apps::mojom::internal::AppService_GetMenuModel_ResponseParams_Data"* %15) #11
  %16 = bitcast %"class.mojo::internal::MessageFragment.236"* %4 to i8*
  call void @llvm.lifetime.start.p0i8(i64 16, i8* nonnull %16) #11
  %17 = getelementptr inbounds %"class.mojo::internal::MessageFragment.236", %"class.mojo::internal::MessageFragment.236"* %4, i64 0, i32 0
  %18 = getelementptr inbounds %"class.mojo::internal::MessageFragment.236", %"class.mojo::internal::MessageFragment.236"* %4, i64 0, i32 1
  store %"class.mojo::Message"* %3, %"class.mojo::Message"** %17, align 8
  store i64 -1, i64* %18, align 8
  call void @_ZN4mojo8internal10SerializerIN4apps5mojom17MenuItemsDataViewENS_9StructPtrINS3_9MenuItemsEEEE9SerializeERS7_RNS0_15MessageFragmentINS3_8internal14MenuItems_DataEEE(%"class.mojo::StructPtr.214"* dereferenceable(8) %1, %"class.mojo::internal::MessageFragment.236"* nonnull dereferenceable(16) %4) #11
  %19 = load i8*, i8** %12, align 8
  %20 = getelementptr inbounds i8, i8* %19, i64 %11
  %21 = getelementptr inbounds i8, i8* %20, i64 8
  %22 = load i64, i64* %18, align 8
  %23 = icmp eq i64 %22, -1
  br i1 %23, label %30, label %24

24:                                               ; preds = %2
  %25 = load %"class.mojo::Message"*, %"class.mojo::Message"** %17, align 8
  %26 = getelementptr inbounds %"class.mojo::Message", %"class.mojo::Message"* %25, i64 0, i32 1, i32 2
  %27 = load i8*, i8** %26, align 8
  %28 = getelementptr inbounds i8, i8* %27, i64 %22
  %29 = bitcast i8* %28 to %"class.apps::mojom::internal::MenuItems_Data"*
  br label %30

30:                                               ; preds = %2, %24
  %31 = phi %"class.apps::mojom::internal::MenuItems_Data"* [ %29, %24 ], [ null, %2 ]
  %32 = bitcast i8* %21 to i64*
  %33 = icmp eq %"class.apps::mojom::internal::MenuItems_Data"* %31, null
  %34 = ptrtoint %"class.apps::mojom::internal::MenuItems_Data"* %31 to i64
  %35 = ptrtoint i8* %21 to i64
  %36 = sub i64 %34, %35
  %37 = select i1 %33, i64 0, i64 %36
  store i64 %37, i64* %32, align 8
  %38 = getelementptr inbounds %"class.apps::mojom::AppService_GetMenuModel_ProxyToResponder", %"class.apps::mojom::AppService_GetMenuModel_ProxyToResponder"* %0, i64 0, i32 0
  %39 = load i64, i64* %38, align 8
  %40 = bitcast i8** %12 to %"struct.mojo::internal::MessageHeaderV1"**
  %41 = load %"struct.mojo::internal::MessageHeaderV1"*, %"struct.mojo::internal::MessageHeaderV1"** %40, align 8
  %42 = getelementptr inbounds %"struct.mojo::internal::MessageHeaderV1", %"struct.mojo::internal::MessageHeaderV1"* %41, i64 0, i32 1
  store i64 %39, i64* %42, align 1
  %43 = getelementptr inbounds %"class.apps::mojom::AppService_GetMenuModel_ProxyToResponder", %"class.apps::mojom::AppService_GetMenuModel_ProxyToResponder"* %0, i64 0, i32 2, i32 0, i32 0, i32 0
  %44 = load %"class.mojo::MessageReceiverWithStatus"*, %"class.mojo::MessageReceiverWithStatus"** %43, align 8
  %45 = getelementptr inbounds %"class.mojo::MessageReceiverWithStatus", %"class.mojo::MessageReceiverWithStatus"* %44, i64 0, i32 0
  %46 = bitcast %"class.mojo::MessageReceiverWithStatus"* %44 to i1 (%"class.mojo::MessageReceiver"*, %"class.mojo::Message"*)***
  %47 = load i1 (%"class.mojo::MessageReceiver"*, %"class.mojo::Message"*)**, i1 (%"class.mojo::MessageReceiver"*, %"class.mojo::Message"*)*** %46, align 8
  %48 = getelementptr inbounds i1 (%"class.mojo::MessageReceiver"*, %"class.mojo::Message"*)*, i1 (%"class.mojo::MessageReceiver"*, %"class.mojo::Message"*)** %47, i64 3
  %49 = load i1 (%"class.mojo::MessageReceiver"*, %"class.mojo::Message"*)*, i1 (%"class.mojo::MessageReceiver"*, %"class.mojo::Message"*)** %48, align 8
  %50 = call zeroext i1 %49(%"class.mojo::MessageReceiver"* %45, %"class.mojo::Message"* nonnull %3) #11
  %51 = load %"class.mojo::MessageReceiverWithStatus"*, %"class.mojo::MessageReceiverWithStatus"** %43, align 8
  store %"class.mojo::MessageReceiverWithStatus"* null, %"class.mojo::MessageReceiverWithStatus"** %43, align 8
  %52 = icmp eq %"class.mojo::MessageReceiverWithStatus"* %51, null
  br i1 %52, label %58, label %53

53:                                               ; preds = %30
  %54 = bitcast %"class.mojo::MessageReceiverWithStatus"* %51 to void (%"class.mojo::MessageReceiverWithStatus"*)***
  %55 = load void (%"class.mojo::MessageReceiverWithStatus"*)**, void (%"class.mojo::MessageReceiverWithStatus"*)*** %54, align 8
  %56 = getelementptr inbounds void (%"class.mojo::MessageReceiverWithStatus"*)*, void (%"class.mojo::MessageReceiverWithStatus"*)** %55, i64 1
  %57 = load void (%"class.mojo::MessageReceiverWithStatus"*)*, void (%"class.mojo::MessageReceiverWithStatus"*)** %56, align 8
  call void %57(%"class.mojo::MessageReceiverWithStatus"* nonnull %51) #11
  br label %58

58:                                               ; preds = %30, %53
  call void @llvm.lifetime.end.p0i8(i64 16, i8* nonnull %16) #11
  call void @_ZN4mojo7MessageD1Ev(%"class.mojo::Message"* nonnull %3) #11
  call void @llvm.lifetime.end.p0i8(i64 120, i8* nonnull %9) #11
  ret void
}

; Function Attrs: nounwind ssp uwtable
define hidden zeroext i1 @_ZN4apps5mojom22AppServiceStubDispatch6AcceptEPNS0_10AppServiceEPN4mojo7MessageE(%"class.apps::mojom::AppService"*, %"class.mojo::Message"*) local_unnamed_addr #1 align 2 {
  %3 = alloca %"class.apps::mojom::Permission", align 4
  %4 = alloca %"class.base::TaskAnnotator::ScopedSetIpcHash", align 8
  %5 = alloca i64, align 8
  %6 = alloca %"class.apps::mojom::AppService_RegisterPublisher_ParamsDataView", align 8
  %7 = alloca %"class.mojo::PendingRemote", align 4
  %8 = alloca %"class.mojo::PendingRemote", align 4
  %9 = alloca %"class.base::TaskAnnotator::ScopedSetIpcHash", align 8
  %10 = alloca i64, align 8
  %11 = alloca %"class.apps::mojom::AppService_RegisterSubscriber_ParamsDataView", align 8
  %12 = alloca %"class.mojo::PendingRemote.26", align 4
  %13 = alloca %"class.mojo::PendingRemote.26", align 4
