; ModuleID = '../../chrome/browser/ui/toolbar/app_menu_icon_controller.cc'
source_filename = "../../chrome/browser/ui/toolbar/app_menu_icon_controller.cc"
target datalayout = "e-m:e-i64:64-f80:128-n8:16:32:64-S128"
target triple = "x86_64-unknown-linux-gnu"

module asm ".symver exp, exp@GLIBC_2.2.5"
module asm ".symver exp2, exp2@GLIBC_2.2.5"
module asm ".symver exp2f, exp2f@GLIBC_2.2.5"
module asm ".symver expf, expf@GLIBC_2.2.5"
module asm ".symver lgamma, lgamma@GLIBC_2.2.5"
module asm ".symver lgammaf, lgammaf@GLIBC_2.2.5"
module asm ".symver lgammal, lgammal@GLIBC_2.2.5"
module asm ".symver log, log@GLIBC_2.2.5"
module asm ".symver log2, log2@GLIBC_2.2.5"
module asm ".symver log2f, log2f@GLIBC_2.2.5"
module asm ".symver logf, logf@GLIBC_2.2.5"
module asm ".symver pow, pow@GLIBC_2.2.5"
module asm ".symver powf, powf@GLIBC_2.2.5"

%class.AppMenuIconController = type { %class.GlobalErrorObserver, %class.UpgradeObserver, i8, %class.UpgradeDetector*, %class.Profile*, %"class.AppMenuIconController::Delegate"*, %"class.base::ScopedObservation" }
%class.GlobalErrorObserver = type { %"class.base::CheckedObserver" }
%"class.base::CheckedObserver" = type { i32 (...)**, %"class.base::WeakPtrFactory" }
%"class.base::WeakPtrFactory" = type { %"class.base::internal::WeakPtrFactoryBase" }
%"class.base::internal::WeakPtrFactoryBase" = type { %"class.base::internal::WeakReferenceOwner", i64 }
%"class.base::internal::WeakReferenceOwner" = type { %class.scoped_refptr }
%class.scoped_refptr = type { %"class.base::internal::WeakReference::Flag"* }
%"class.base::internal::WeakReference::Flag" = type <{ %"class.base::RefCountedThreadSafe", %"class.base::AtomicFlag", [3 x i8] }>
%"class.base::RefCountedThreadSafe" = type { %"class.base::subtle::RefCountedThreadSafeBase" }
%"class.base::subtle::RefCountedThreadSafeBase" = type { %"class.base::AtomicRefCount" }
%"class.base::AtomicRefCount" = type { %"struct.std::__1::atomic" }
%"struct.std::__1::atomic" = type { %"struct.std::__1::__atomic_base" }
%"struct.std::__1::__atomic_base" = type { %"struct.std::__1::__atomic_base.0" }
%"struct.std::__1::__atomic_base.0" = type { %"struct.std::__1::__cxx_atomic_impl" }
%"struct.std::__1::__cxx_atomic_impl" = type { %"struct.std::__1::__cxx_atomic_base_impl" }
%"struct.std::__1::__cxx_atomic_base_impl" = type { i32 }
%"class.base::AtomicFlag" = type { %"struct.std::__1::atomic.1" }
%"struct.std::__1::atomic.1" = type { %"struct.std::__1::__atomic_base.2" }
%"struct.std::__1::__atomic_base.2" = type { %"struct.std::__1::__atomic_base.3" }
%"struct.std::__1::__atomic_base.3" = type { %"struct.std::__1::__cxx_atomic_impl.4" }
%"struct.std::__1::__cxx_atomic_impl.4" = type { %"struct.std::__1::__cxx_atomic_base_impl.5" }
%"struct.std::__1::__cxx_atomic_base_impl.5" = type { i8 }
%class.UpgradeObserver = type { i32 (...)** }
%class.UpgradeDetector = type { i32 (...)**, %"class.base::Clock"*, %"class.base::TickClock"*, %class.PrefChangeRegistrar, i32, %"class.base::Time", i8, i8, i8, %"class.base::RepeatingTimer", i32, i8, [3 x i8], %"class.base::ObserverList" }
%"class.base::Clock" = type opaque
%"class.base::TickClock" = type { i32 (...)** }
%class.PrefChangeRegistrar = type { %class.PrefObserver, %"class.std::__1::map", %class.PrefService* }
%class.PrefObserver = type { i32 (...)** }
%"class.std::__1::map" = type { %"class.std::__1::__tree" }
%"class.std::__1::__tree" = type { %"class.std::__1::__tree_end_node"*, %"class.std::__1::__compressed_pair", %"class.std::__1::__compressed_pair.7" }
%"class.std::__1::__tree_end_node" = type { %"class.std::__1::__tree_node_base"* }
%"class.std::__1::__tree_node_base" = type opaque
%"class.std::__1::__compressed_pair" = type { %"struct.std::__1::__compressed_pair_elem" }
%"struct.std::__1::__compressed_pair_elem" = type { %"class.std::__1::__tree_end_node" }
%"class.std::__1::__compressed_pair.7" = type { %"struct.std::__1::__compressed_pair_elem.8" }
%"struct.std::__1::__compressed_pair_elem.8" = type { i64 }
%class.PrefService = type opaque
%"class.base::Time" = type { %"class.base::time_internal::TimeBase" }
%"class.base::time_internal::TimeBase" = type { i64 }
%"class.base::RepeatingTimer" = type { %"class.base::internal::TimerBase", %"class.base::RepeatingCallback" }
%"class.base::internal::TimerBase" = type { i32 (...)**, %class.scoped_refptr.10, %"class.base::SequenceCheckerDoNothing", %"class.base::internal::TaskDestructionDetector"*, %"class.base::Location", %"class.base::TimeDelta", %"class.base::TimeTicks", %"class.base::TimeTicks", %"class.base::TickClock"*, i8, %"class.base::WeakPtrFactory.13" }
%class.scoped_refptr.10 = type { %"class.base::SequencedTaskRunner"* }
%"class.base::SequencedTaskRunner" = type { %"class.base::TaskRunner.base", [4 x i8] }
%"class.base::TaskRunner.base" = type <{ i32 (...)**, %"class.base::RefCountedThreadSafe.11" }>
%"class.base::RefCountedThreadSafe.11" = type { %"class.base::subtle::RefCountedThreadSafeBase" }
%"class.base::SequenceCheckerDoNothing" = type { i8 }
%"class.base::internal::TaskDestructionDetector" = type opaque
%"class.base::Location" = type { i8*, i8*, i32, i8* }
%"class.base::TimeDelta" = type { i64 }
%"class.base::TimeTicks" = type { %"class.base::time_internal::TimeBase.12" }
%"class.base::time_internal::TimeBase.12" = type { i64 }
%"class.base::WeakPtrFactory.13" = type { %"class.base::internal::WeakPtrFactoryBase" }
%"class.base::RepeatingCallback" = type { %"class.base::internal::CallbackBaseCopyable" }
%"class.base::internal::CallbackBaseCopyable" = type { %"class.base::internal::CallbackBase" }
%"class.base::internal::CallbackBase" = type { %class.scoped_refptr.14 }
%class.scoped_refptr.14 = type { %"class.base::internal::BindStateBase"* }
%"class.base::internal::BindStateBase" = type { %"class.base::RefCountedThreadSafe.15", void ()*, void (%"class.base::internal::BindStateBase"*)*, i1 (%"class.base::internal::BindStateBase"*, i32)* }
%"class.base::RefCountedThreadSafe.15" = type { %"class.base::subtle::RefCountedThreadSafeBase" }
%"class.base::ObserverList" = type <{ %"class.std::__1::vector", %"class.base::LinkedList", i64, i32, [4 x i8] }>
%"class.std::__1::vector" = type { %"class.std::__1::__vector_base" }
%"class.std::__1::__vector_base" = type { %"class.base::internal::UncheckedObserverAdapter"*, %"class.base::internal::UncheckedObserverAdapter"*, %"class.std::__1::__compressed_pair.16" }
%"class.base::internal::UncheckedObserverAdapter" = type { i8* }
%"class.std::__1::__compressed_pair.16" = type { %"struct.std::__1::__compressed_pair_elem.17" }
%"struct.std::__1::__compressed_pair_elem.17" = type { %"class.base::internal::UncheckedObserverAdapter"* }
%"class.base::LinkedList" = type { %"class.base::LinkNode" }
%"class.base::LinkNode" = type { %"class.base::internal::LinkNodeBase" }
%"class.base::internal::LinkNodeBase" = type { %"class.base::internal::LinkNodeBase"*, %"class.base::internal::LinkNodeBase"* }
%"class.base::ScopedObservation" = type { %class.GlobalErrorObserver*, %class.GlobalErrorService* }
%class.GlobalErrorService = type { %class.KeyedService, %"class.base::ObserverList.21", %"class.std::__1::vector.33", %"class.std::__1::map.40" }
%class.KeyedService = type { i32 (...)** }
%"class.base::ObserverList.21" = type <{ %"class.std::__1::vector.22", %"class.base::LinkedList.30", i64, i32, [4 x i8] }>
%"class.std::__1::vector.22" = type { %"class.std::__1::__vector_base.23" }
%"class.std::__1::__vector_base.23" = type { %"class.base::internal::CheckedObserverAdapter"*, %"class.base::internal::CheckedObserverAdapter"*, %"class.std::__1::__compressed_pair.25" }
%"class.base::internal::CheckedObserverAdapter" = type { %"class.base::WeakPtr" }
%"class.base::WeakPtr" = type { %"class.base::internal::WeakPtrBase" }
%"class.base::internal::WeakPtrBase" = type { %"class.base::internal::WeakReference", i64 }
%"class.base::internal::WeakReference" = type { %class.scoped_refptr.24 }
%class.scoped_refptr.24 = type { %"class.base::internal::WeakReference::Flag"* }
%"class.std::__1::__compressed_pair.25" = type { %"struct.std::__1::__compressed_pair_elem.26" }
%"struct.std::__1::__compressed_pair_elem.26" = type { %"class.base::internal::CheckedObserverAdapter"* }
%"class.base::LinkedList.30" = type { %"class.base::LinkNode.31" }
%"class.base::LinkNode.31" = type { %"class.base::internal::LinkNodeBase" }
%"class.std::__1::vector.33" = type { %"class.std::__1::__vector_base.34" }
%"class.std::__1::__vector_base.34" = type { %class.GlobalError**, %class.GlobalError**, %"class.std::__1::__compressed_pair.35" }
%class.GlobalError = type opaque
%"class.std::__1::__compressed_pair.35" = type { %"struct.std::__1::__compressed_pair_elem.36" }
%"struct.std::__1::__compressed_pair_elem.36" = type { %class.GlobalError** }
%"class.std::__1::map.40" = type { %"class.std::__1::__tree.41" }
%"class.std::__1::__tree.41" = type { %"class.std::__1::__tree_end_node"*, %"class.std::__1::__compressed_pair.42", %"class.std::__1::__compressed_pair.46" }
%"class.std::__1::__compressed_pair.42" = type { %"struct.std::__1::__compressed_pair_elem" }
%"class.std::__1::__compressed_pair.46" = type { %"struct.std::__1::__compressed_pair_elem.8" }
%class.Profile = type opaque
%"class.AppMenuIconController::Delegate" = type { i32 (...)** }
%"class.logging::CheckOpResult" = type { i8* }
%"class.logging::CheckError" = type { %"class.logging::LogMessage"* }
%"class.logging::LogMessage" = type { i32 (...)**, i32, %"class.std::__1::basic_ostringstream", i64, i8*, i32, %"class.base::ScopedClearLastErrorBase" }
%"class.std::__1::basic_ostringstream" = type { %"class.std::__1::basic_ostream.base", %"class.std::__1::basic_stringbuf", %"class.std::__1::basic_ios.base" }
%"class.std::__1::basic_ostream.base" = type { i32 (...)** }
%"class.std::__1::basic_stringbuf" = type <{ %"class.std::__1::basic_streambuf", %"class.std::__1::basic_string", i8*, i32, [4 x i8] }>
%"class.std::__1::basic_streambuf" = type { i32 (...)**, %"class.std::__1::locale", i8*, i8*, i8*, i8*, i8*, i8* }
%"class.std::__1::locale" = type { %"class.std::__1::locale::__imp"* }
%"class.std::__1::locale::__imp" = type opaque
%"class.std::__1::basic_string" = type { %"class.std::__1::__compressed_pair.51" }
%"class.std::__1::__compressed_pair.51" = type { %"struct.std::__1::__compressed_pair_elem.52" }
%"struct.std::__1::__compressed_pair_elem.52" = type { %"struct.std::__1::basic_string<char, std::__1::char_traits<char>, std::__1::allocator<char> >::__rep" }
%"struct.std::__1::basic_string<char, std::__1::char_traits<char>, std::__1::allocator<char> >::__rep" = type { %union.anon.53 }
%union.anon.53 = type { %"struct.std::__1::basic_string<char, std::__1::char_traits<char>, std::__1::allocator<char> >::__long" }
%"struct.std::__1::basic_string<char, std::__1::char_traits<char>, std::__1::allocator<char> >::__long" = type { i8*, i64, i64 }
%"class.std::__1::basic_ios.base" = type <{ %"class.std::__1::ios_base", %"class.std::__1::basic_ostream"*, i32 }>
%"class.std::__1::ios_base" = type { i32 (...)**, i32, i64, i64, i32, i32, i8*, i8*, void (i32, %"class.std::__1::ios_base"*, i32)**, i32*, i64, i64, i64*, i64, i64, i8**, i64, i64 }
%"class.std::__1::basic_ostream" = type { i32 (...)**, %"class.std::__1::basic_ios.base" }
%"class.base::ScopedClearLastErrorBase" = type { i32 }
%"class.absl::optional" = type { %"class.absl::optional_internal::optional_data" }
%"class.absl::optional_internal::optional_data" = type { %"class.absl::optional_internal::optional_data_base" }
%"class.absl::optional_internal::optional_data_base" = type { %"class.absl::optional_internal::optional_data_dtor_base" }
%"class.absl::optional_internal::optional_data_dtor_base" = type { i8, %union.anon }
%union.anon = type { i32 }

$_ZN4base17ScopedObservationI18GlobalErrorService19GlobalErrorObserverXadL_ZNS1_11AddObserverEPS2_EEXadL_ZNS1_14RemoveObserverES3_EEE7ObserveEPS1_ = comdat any

$_ZN15UpgradeObserver29OnUpdateOverCellularAvailableEv = comdat any

$_ZN15UpgradeObserver44OnUpdateOverCellularOneTimePermissionGrantedEv = comdat any

$_ZN15UpgradeObserver26OnCriticalUpgradeInstalledEv = comdat any

$_ZN15UpgradeObserver17OnOutdatedInstallEv = comdat any

$_ZN15UpgradeObserver29OnOutdatedInstallNoAutoUpdateEv = comdat any

$_ZN15UpgradeObserver30OnRelaunchOverriddenToRequiredEb = comdat any

$_ZZN7logging15CheckOpValueStrIP18GlobalErrorServiceEENSt3__19enable_ifIXaasr4base8internal23SupportsOstreamOperatorIRKT_EE5valuentsr3std11is_functionINS3_14remove_pointerIS5_E4typeEEE5valueEPcE4typeES7_ENUlRNS3_13basic_ostreamIcNS3_11char_traitsIcEEEEPKvE_8__invokeESI_SK_ = comdat any

@_ZTV21AppMenuIconController = hidden unnamed_addr constant { [6 x i8*], [11 x i8*] } { [6 x i8*] [i8* null, i8* null, i8* bitcast (void (%class.AppMenuIconController*)* @_ZN21AppMenuIconControllerD2Ev to i8*), i8* bitcast (void (%class.AppMenuIconController*)* @_ZN21AppMenuIconControllerD0Ev to i8*), i8* bitcast (void (%class.AppMenuIconController*)* @_ZN21AppMenuIconController21OnGlobalErrorsChangedEv to i8*), i8* bitcast (void (%class.AppMenuIconController*)* @_ZN21AppMenuIconController20OnUpgradeRecommendedEv to i8*)], [11 x i8*] [i8* inttoptr (i64 -24 to i8*), i8* null, i8* bitcast (void (%class.UpgradeObserver*)* @_ZN15UpgradeObserver29OnUpdateOverCellularAvailableEv to i8*), i8* bitcast (void (%class.UpgradeObserver*)* @_ZN15UpgradeObserver44OnUpdateOverCellularOneTimePermissionGrantedEv to i8*), i8* bitcast (void (%class.AppMenuIconController*)* @_ZThn24_N21AppMenuIconController20OnUpgradeRecommendedEv to i8*), i8* bitcast (void (%class.UpgradeObserver*)* @_ZN15UpgradeObserver26OnCriticalUpgradeInstalledEv to i8*), i8* bitcast (void (%class.UpgradeObserver*)* @_ZN15UpgradeObserver17OnOutdatedInstallEv to i8*), i8* bitcast (void (%class.UpgradeObserver*)* @_ZN15UpgradeObserver29OnOutdatedInstallNoAutoUpdateEv to i8*), i8* bitcast (void (%class.UpgradeObserver*, i1)* @_ZN15UpgradeObserver30OnRelaunchOverriddenToRequiredEb to i8*), i8* bitcast (void (%class.AppMenuIconController*)* @_ZThn24_N21AppMenuIconControllerD1Ev to i8*), i8* bitcast (void (%class.AppMenuIconController*)* @_ZThn24_N21AppMenuIconControllerD0Ev to i8*)] }, align 8
@_ZN16browser_defaults20kShowUpgradeMenuItemE = external local_unnamed_addr constant i8, align 1
@.str = private unnamed_addr constant [19 x i8] c"source_ == nullptr\00", align 1
@.str.1 = private unnamed_addr constant [32 x i8] c"../../base/scoped_observation.h\00", align 1
@switch.table._ZNK21AppMenuIconController12GetIconColorERKN4absl8optionalIjEE = private unnamed_addr constant [6 x i32] [i32 1, i32 1, i32 1, i32 3, i32 3, i32 1], align 4
@switch.table._ZNK21AppMenuIconController12GetIconColorERKN4absl8optionalIjEE.4 = private unnamed_addr constant [5 x i32] [i32 1, i32 2, i32 3, i32 3, i32 3], align 4
@switch.table._ZThn24_N21AppMenuIconController20OnUpgradeRecommendedEv = private unnamed_addr constant [6 x i64] [i64 4294967296, i64 4294967296, i64 4294967296, i64 12884901888, i64 12884901888, i64 4294967296], align 8
@switch.table._ZThn24_N21AppMenuIconController20OnUpgradeRecommendedEv.7 = private unnamed_addr constant [5 x i64] [i64 4294967296, i64 8589934592, i64 12884901888, i64 12884901888, i64 12884901888], align 8

@_ZN21AppMenuIconControllerC1EP7ProfilePNS_8DelegateE = hidden unnamed_addr alias void (%class.AppMenuIconController*, %class.Profile*, %"class.AppMenuIconController::Delegate"*), void (%class.AppMenuIconController*, %class.Profile*, %"class.AppMenuIconController::Delegate"*)* @_ZN21AppMenuIconControllerC2EP7ProfilePNS_8DelegateE
@_ZN21AppMenuIconControllerC1EP15UpgradeDetectorP7ProfilePNS_8DelegateE = hidden unnamed_addr alias void (%class.AppMenuIconController*, %class.UpgradeDetector*, %class.Profile*, %"class.AppMenuIconController::Delegate"*), void (%class.AppMenuIconController*, %class.UpgradeDetector*, %class.Profile*, %"class.AppMenuIconController::Delegate"*)* @_ZN21AppMenuIconControllerC2EP15UpgradeDetectorP7ProfilePNS_8DelegateE
@_ZN21AppMenuIconControllerD1Ev = hidden unnamed_addr alias void (%class.AppMenuIconController*), void (%class.AppMenuIconController*)* @_ZN21AppMenuIconControllerD2Ev

; Function Attrs: nounwind ssp uwtable
define hidden void @_ZN21AppMenuIconControllerC2EP7ProfilePNS_8DelegateE(%class.AppMenuIconController*, %class.Profile*, %"class.AppMenuIconController::Delegate"*) unnamed_addr #0 align 2 {
  %4 = tail call %class.UpgradeDetector* @_ZN15UpgradeDetector11GetInstanceEv() #6
  %5 = getelementptr inbounds %class.AppMenuIconController, %class.AppMenuIconController* %0, i64 0, i32 0
  %6 = getelementptr inbounds %class.AppMenuIconController, %class.AppMenuIconController* %0, i64 0, i32 0, i32 0
  tail call void @_ZN4base15CheckedObserverC2Ev(%"class.base::CheckedObserver"* %6) #6
  %7 = getelementptr inbounds %class.AppMenuIconController, %class.AppMenuIconController* %0, i64 0, i32 0, i32 0, i32 0
  %8 = getelementptr inbounds %class.AppMenuIconController, %class.AppMenuIconController* %0, i64 0, i32 1
  %9 = getelementptr inbounds %class.UpgradeObserver, %class.UpgradeObserver* %8, i64 0, i32 0
  store i32 (...)** bitcast (i8** getelementptr inbounds ({ [6 x i8*], [11 x i8*] }, { [6 x i8*], [11 x i8*] }* @_ZTV21AppMenuIconController, i64 0, inrange i32 0, i64 2) to i32 (...)**), i32 (...)*** %7, align 8
  store i32 (...)** bitcast (i8** getelementptr inbounds ({ [6 x i8*], [11 x i8*] }, { [6 x i8*], [11 x i8*] }* @_ZTV21AppMenuIconController, i64 0, inrange i32 1, i64 2) to i32 (...)**), i32 (...)*** %9, align 8
  %10 = getelementptr inbounds %class.AppMenuIconController, %class.AppMenuIconController* %0, i64 0, i32 2
  %11 = tail call i32 @_ZN6chrome10GetChannelEv() #6
  %12 = add i32 %11, -1
  %13 = icmp ult i32 %12, 2
  %14 = zext i1 %13 to i8
  store i8 %14, i8* %10, align 8
  %15 = getelementptr inbounds %class.AppMenuIconController, %class.AppMenuIconController* %0, i64 0, i32 3
  store %class.UpgradeDetector* %4, %class.UpgradeDetector** %15, align 8
  %16 = getelementptr inbounds %class.AppMenuIconController, %class.AppMenuIconController* %0, i64 0, i32 4
  store %class.Profile* %1, %class.Profile** %16, align 8
  %17 = getelementptr inbounds %class.AppMenuIconController, %class.AppMenuIconController* %0, i64 0, i32 5
  store %"class.AppMenuIconController::Delegate"* %2, %"class.AppMenuIconController::Delegate"** %17, align 8
  %18 = getelementptr inbounds %class.AppMenuIconController, %class.AppMenuIconController* %0, i64 0, i32 6
  %19 = getelementptr inbounds %"class.base::ScopedObservation", %"class.base::ScopedObservation"* %18, i64 0, i32 0
  store %class.GlobalErrorObserver* %5, %class.GlobalErrorObserver** %19, align 8
  %20 = getelementptr inbounds %class.AppMenuIconController, %class.AppMenuIconController* %0, i64 0, i32 6, i32 1
  store %class.GlobalErrorService* null, %class.GlobalErrorService** %20, align 8
  %21 = tail call %class.GlobalErrorService* @_ZN25GlobalErrorServiceFactory13GetForProfileEP7Profile(%class.Profile* %1) #6
  tail call void @_ZN4base17ScopedObservationI18GlobalErrorService19GlobalErrorObserverXadL_ZNS1_11AddObserverEPS2_EEXadL_ZNS1_14RemoveObserverES3_EEE7ObserveEPS1_(%"class.base::ScopedObservation"* %18, %class.GlobalErrorService* %21) #6
  %22 = load %class.UpgradeDetector*, %class.UpgradeDetector** %15, align 8
  tail call void @_ZN15UpgradeDetector11AddObserverEP15UpgradeObserver(%class.UpgradeDetector* %22, %class.UpgradeObserver* %8) #6
  ret void
}

declare %class.UpgradeDetector* @_ZN15UpgradeDetector11GetInstanceEv() local_unnamed_addr #1

; Function Attrs: nounwind ssp uwtable
define hidden void @_ZN21AppMenuIconControllerC2EP15UpgradeDetectorP7ProfilePNS_8DelegateE(%class.AppMenuIconController*, %class.UpgradeDetector*, %class.Profile*, %"class.AppMenuIconController::Delegate"*) unnamed_addr #0 align 2 {
  %5 = getelementptr inbounds %class.AppMenuIconController, %class.AppMenuIconController* %0, i64 0, i32 0
  %6 = getelementptr inbounds %class.AppMenuIconController, %class.AppMenuIconController* %0, i64 0, i32 0, i32 0
  tail call void @_ZN4base15CheckedObserverC2Ev(%"class.base::CheckedObserver"* %6) #6
  %7 = getelementptr inbounds %class.AppMenuIconController, %class.AppMenuIconController* %0, i64 0, i32 0, i32 0, i32 0
  %8 = getelementptr inbounds %class.AppMenuIconController, %class.AppMenuIconController* %0, i64 0, i32 1
  %9 = getelementptr inbounds %class.UpgradeObserver, %class.UpgradeObserver* %8, i64 0, i32 0
  store i32 (...)** bitcast (i8** getelementptr inbounds ({ [6 x i8*], [11 x i8*] }, { [6 x i8*], [11 x i8*] }* @_ZTV21AppMenuIconController, i64 0, inrange i32 0, i64 2) to i32 (...)**), i32 (...)*** %7, align 8
  store i32 (...)** bitcast (i8** getelementptr inbounds ({ [6 x i8*], [11 x i8*] }, { [6 x i8*], [11 x i8*] }* @_ZTV21AppMenuIconController, i64 0, inrange i32 1, i64 2) to i32 (...)**), i32 (...)*** %9, align 8
  %10 = getelementptr inbounds %class.AppMenuIconController, %class.AppMenuIconController* %0, i64 0, i32 2
  %11 = tail call i32 @_ZN6chrome10GetChannelEv() #6
  %12 = add i32 %11, -1
  %13 = icmp ult i32 %12, 2
  %14 = zext i1 %13 to i8
  store i8 %14, i8* %10, align 8
  %15 = getelementptr inbounds %class.AppMenuIconController, %class.AppMenuIconController* %0, i64 0, i32 3
  store %class.UpgradeDetector* %1, %class.UpgradeDetector** %15, align 8
  %16 = getelementptr inbounds %class.AppMenuIconController, %class.AppMenuIconController* %0, i64 0, i32 4
  store %class.Profile* %2, %class.Profile** %16, align 8
  %17 = getelementptr inbounds %class.AppMenuIconController, %class.AppMenuIconController* %0, i64 0, i32 5
  store %"class.AppMenuIconController::Delegate"* %3, %"class.AppMenuIconController::Delegate"** %17, align 8
  %18 = getelementptr inbounds %class.AppMenuIconController, %class.AppMenuIconController* %0, i64 0, i32 6
  %19 = getelementptr inbounds %"class.base::ScopedObservation", %"class.base::ScopedObservation"* %18, i64 0, i32 0
  store %class.GlobalErrorObserver* %5, %class.GlobalErrorObserver** %19, align 8
  %20 = getelementptr inbounds %class.AppMenuIconController, %class.AppMenuIconController* %0, i64 0, i32 6, i32 1
  store %class.GlobalErrorService* null, %class.GlobalErrorService** %20, align 8
  %21 = tail call %class.GlobalErrorService* @_ZN25GlobalErrorServiceFactory13GetForProfileEP7Profile(%class.Profile* %2) #6
  tail call void @_ZN4base17ScopedObservationI18GlobalErrorService19GlobalErrorObserverXadL_ZNS1_11AddObserverEPS2_EEXadL_ZNS1_14RemoveObserverES3_EEE7ObserveEPS1_(%"class.base::ScopedObservation"* %18, %class.GlobalErrorService* %21)
  %22 = load %class.UpgradeDetector*, %class.UpgradeDetector** %15, align 8
  tail call void @_ZN15UpgradeDetector11AddObserverEP15UpgradeObserver(%class.UpgradeDetector* %22, %class.UpgradeObserver* %8) #6
  ret void
}

; Function Attrs: nounwind ssp uwtable
define linkonce_odr hidden void @_ZN4base17ScopedObservationI18GlobalErrorService19GlobalErrorObserverXadL_ZNS1_11AddObserverEPS2_EEXadL_ZNS1_14RemoveObserverES3_EEE7ObserveEPS1_(%"class.base::ScopedObservation"*, %class.GlobalErrorService*) local_unnamed_addr #0 comdat align 2 {
  %3 = alloca %"class.logging::CheckOpResult", align 8
  %4 = alloca %"class.logging::CheckOpResult", align 8
  %5 = alloca %"class.logging::CheckError", align 8
  %6 = bitcast %"class.logging::CheckOpResult"* %4 to i8*
  call void @llvm.lifetime.start.p0i8(i64 8, i8* nonnull %6) #6
  %7 = getelementptr inbounds %"class.logging::CheckOpResult", %"class.logging::CheckOpResult"* %4, i64 0, i32 0
  store i8* inttoptr (i64 -6148914691236517206 to i8*), i8** %7, align 8
  %8 = getelementptr inbounds %"class.base::ScopedObservation", %"class.base::ScopedObservation"* %0, i64 0, i32 1
  %9 = bitcast %"class.logging::CheckOpResult"* %3 to i8*
  call void @llvm.lifetime.start.p0i8(i64 8, i8* nonnull %9)
  %10 = load %class.GlobalErrorService*, %class.GlobalErrorService** %8, align 8
  %11 = icmp eq %class.GlobalErrorService* %10, null
  br i1 %11, label %12, label %13

12:                                               ; preds = %2
  call void @llvm.lifetime.end.p0i8(i64 8, i8* nonnull %9)
  store i8* null, i8** %7, align 8
  br label %23

13:                                               ; preds = %2
  %14 = bitcast %class.GlobalErrorService** %8 to i8*
  %15 = tail call i8* @_ZN7logging14StreamValToStrEPKvPFvRNSt3__113basic_ostreamIcNS2_11char_traitsIcEEEES1_E(i8* %14, void (%"class.std::__1::basic_ostream"*, i8*)* nonnull @_ZZN7logging15CheckOpValueStrIP18GlobalErrorServiceEENSt3__19enable_ifIXaasr4base8internal23SupportsOstreamOperatorIRKT_EE5valuentsr3std11is_functionINS3_14remove_pointerIS5_E4typeEEE5valueEPcE4typeES7_ENUlRNS3_13basic_ostreamIcNS3_11char_traitsIcEEEEPKvE_8__invokeESI_SK_) #6
  %16 = tail call i8* @_ZN7logging15CheckOpValueStrEDn(i8* null) #6
  call void @_ZN7logging13CheckOpResultC1EPKcPcS3_(%"class.logging::CheckOpResult"* nonnull %3, i8* getelementptr inbounds ([19 x i8], [19 x i8]* @.str, i64 0, i64 0), i8* %15, i8* %16) #6
  %17 = getelementptr inbounds %"class.logging::CheckOpResult", %"class.logging::CheckOpResult"* %3, i64 0, i32 0
  %18 = load i8*, i8** %17, align 8
  call void @llvm.lifetime.end.p0i8(i64 8, i8* nonnull %9)
  store i8* %18, i8** %7, align 8
  %19 = icmp eq i8* %18, null
  br i1 %19, label %23, label %20

20:                                               ; preds = %13
  %21 = bitcast %"class.logging::CheckError"* %5 to i8*
  call void @llvm.lifetime.start.p0i8(i64 8, i8* nonnull %21) #6
  call void @_ZN7logging10CheckError7CheckOpEPKciPNS_13CheckOpResultE(%"class.logging::CheckError"* nonnull sret %5, i8* getelementptr inbounds ([32 x i8], [32 x i8]* @.str.1, i64 0, i64 0), i32 61, %"class.logging::CheckOpResult"* nonnull %4) #6
  %22 = call dereferenceable(160) %"class.std::__1::basic_ostream"* @_ZN7logging10CheckError6streamEv(%"class.logging::CheckError"* nonnull %5) #6
  call void @_ZN7logging10CheckErrorD1Ev(%"class.logging::CheckError"* nonnull %5) #6
  call void @llvm.lifetime.end.p0i8(i64 8, i8* nonnull %21) #6
  br label %23

23:                                               ; preds = %12, %13, %20
  call void @llvm.lifetime.end.p0i8(i64 8, i8* nonnull %6) #6
  store %class.GlobalErrorService* %1, %class.GlobalErrorService** %8, align 8
  %24 = getelementptr inbounds %"class.base::ScopedObservation", %"class.base::ScopedObservation"* %0, i64 0, i32 0
  %25 = load %class.GlobalErrorObserver*, %class.GlobalErrorObserver** %24, align 8
  call void @_ZN18GlobalErrorService11AddObserverEP19GlobalErrorObserver(%class.GlobalErrorService* %1, %class.GlobalErrorObserver* %25) #6
  ret void
}

declare %class.GlobalErrorService* @_ZN25GlobalErrorServiceFactory13GetForProfileEP7Profile(%class.Profile*) local_unnamed_addr #1

declare void @_ZN15UpgradeDetector11AddObserverEP15UpgradeObserver(%class.UpgradeDetector*, %class.UpgradeObserver*) local_unnamed_addr #1

; Function Attrs: nounwind ssp uwtable
define hidden void @_ZN21AppMenuIconControllerD2Ev(%class.AppMenuIconController*) unnamed_addr #0 align 2 {
  %2 = getelementptr inbounds %class.AppMenuIconController, %class.AppMenuIconController* %0, i64 0, i32 0, i32 0, i32 0
  store i32 (...)** bitcast (i8** getelementptr inbounds ({ [6 x i8*], [11 x i8*] }, { [6 x i8*], [11 x i8*] }* @_ZTV21AppMenuIconController, i64 0, inrange i32 0, i64 2) to i32 (...)**), i32 (...)*** %2, align 8
  %3 = getelementptr inbounds %class.AppMenuIconController, %class.AppMenuIconController* %0, i64 0, i32 1
  %4 = getelementptr inbounds %class.UpgradeObserver, %class.UpgradeObserver* %3, i64 0, i32 0
  store i32 (...)** bitcast (i8** getelementptr inbounds ({ [6 x i8*], [11 x i8*] }, { [6 x i8*], [11 x i8*] }* @_ZTV21AppMenuIconController, i64 0, inrange i32 1, i64 2) to i32 (...)**), i32 (...)*** %4, align 8
  %5 = getelementptr inbounds %class.AppMenuIconController, %class.AppMenuIconController* %0, i64 0, i32 3
  %6 = load %class.UpgradeDetector*, %class.UpgradeDetector** %5, align 8
  tail call void @_ZN15UpgradeDetector14RemoveObserverEP15UpgradeObserver(%class.UpgradeDetector* %6, %class.UpgradeObserver* %3) #6
  %7 = getelementptr inbounds %class.AppMenuIconController, %class.AppMenuIconController* %0, i64 0, i32 6, i32 1
  %8 = load %class.GlobalErrorService*, %class.GlobalErrorService** %7, align 8
  %9 = icmp eq %class.GlobalErrorService* %8, null
  br i1 %9, label %13, label %10

10:                                               ; preds = %1
  %11 = getelementptr inbounds %class.AppMenuIconController, %class.AppMenuIconController* %0, i64 0, i32 6, i32 0
  %12 = load %class.GlobalErrorObserver*, %class.GlobalErrorObserver** %11, align 8
  tail call void @_ZN18GlobalErrorService14RemoveObserverEP19GlobalErrorObserver(%class.GlobalErrorService* nonnull %8, %class.GlobalErrorObserver* %12) #6
  store %class.GlobalErrorService* null, %class.GlobalErrorService** %7, align 8
  br label %13

13:                                               ; preds = %1, %10
  %14 = getelementptr inbounds %class.AppMenuIconController, %class.AppMenuIconController* %0, i64 0, i32 0, i32 0
  tail call void @_ZN4base15CheckedObserverD2Ev(%"class.base::CheckedObserver"* %14) #6
  ret void
}

declare void @_ZN15UpgradeDetector14RemoveObserverEP15UpgradeObserver(%class.UpgradeDetector*, %class.UpgradeObserver*) local_unnamed_addr #1

; Function Attrs: nounwind ssp uwtable
define hidden void @_ZThn24_N21AppMenuIconControllerD1Ev(%class.AppMenuIconController*) unnamed_addr #0 align 2 {
  %2 = getelementptr inbounds %class.AppMenuIconController, %class.AppMenuIconController* %0, i64 -1, i32 5
  %3 = bitcast %"class.AppMenuIconController::Delegate"** %2 to i32 (...)***
  store i32 (...)** bitcast (i8** getelementptr inbounds ({ [6 x i8*], [11 x i8*] }, { [6 x i8*], [11 x i8*] }* @_ZTV21AppMenuIconController, i64 0, inrange i32 0, i64 2) to i32 (...)**), i32 (...)*** %3, align 8
  %4 = getelementptr inbounds %"class.AppMenuIconController::Delegate"*, %"class.AppMenuIconController::Delegate"** %2, i64 3
  %5 = bitcast %"class.AppMenuIconController::Delegate"** %4 to %class.UpgradeObserver*
  %6 = bitcast %"class.AppMenuIconController::Delegate"** %4 to i32 (...)***
  store i32 (...)** bitcast (i8** getelementptr inbounds ({ [6 x i8*], [11 x i8*] }, { [6 x i8*], [11 x i8*] }* @_ZTV21AppMenuIconController, i64 0, inrange i32 1, i64 2) to i32 (...)**), i32 (...)*** %6, align 8
  %7 = getelementptr inbounds %"class.AppMenuIconController::Delegate"*, %"class.AppMenuIconController::Delegate"** %2, i64 5
  %8 = bitcast %"class.AppMenuIconController::Delegate"** %7 to %class.UpgradeDetector**
  %9 = load %class.UpgradeDetector*, %class.UpgradeDetector** %8, align 8
  tail call void @_ZN15UpgradeDetector14RemoveObserverEP15UpgradeObserver(%class.UpgradeDetector* %9, %class.UpgradeObserver* %5) #6
  %10 = getelementptr inbounds %"class.AppMenuIconController::Delegate"*, %"class.AppMenuIconController::Delegate"** %2, i64 9
  %11 = bitcast %"class.AppMenuIconController::Delegate"** %10 to %class.GlobalErrorService**
  %12 = load %class.GlobalErrorService*, %class.GlobalErrorService** %11, align 8
  %13 = icmp eq %class.GlobalErrorService* %12, null
  br i1 %13, label %18, label %14

14:                                               ; preds = %1
  %15 = getelementptr inbounds %"class.AppMenuIconController::Delegate"*, %"class.AppMenuIconController::Delegate"** %2, i64 8
  %16 = bitcast %"class.AppMenuIconController::Delegate"** %15 to %class.GlobalErrorObserver**
  %17 = load %class.GlobalErrorObserver*, %class.GlobalErrorObserver** %16, align 8
  tail call void @_ZN18GlobalErrorService14RemoveObserverEP19GlobalErrorObserver(%class.GlobalErrorService* nonnull %12, %class.GlobalErrorObserver* %17) #6
  store %class.GlobalErrorService* null, %class.GlobalErrorService** %11, align 8
  br label %18

18:                                               ; preds = %1, %14
  %19 = bitcast %"class.AppMenuIconController::Delegate"** %2 to %"class.base::CheckedObserver"*
  tail call void @_ZN4base15CheckedObserverD2Ev(%"class.base::CheckedObserver"* %19) #6
  ret void
}

; Function Attrs: nounwind ssp uwtable
define hidden void @_ZN21AppMenuIconControllerD0Ev(%class.AppMenuIconController*) unnamed_addr #0 align 2 {
  %2 = getelementptr inbounds %class.AppMenuIconController, %class.AppMenuIconController* %0, i64 0, i32 0, i32 0, i32 0
  store i32 (...)** bitcast (i8** getelementptr inbounds ({ [6 x i8*], [11 x i8*] }, { [6 x i8*], [11 x i8*] }* @_ZTV21AppMenuIconController, i64 0, inrange i32 0, i64 2) to i32 (...)**), i32 (...)*** %2, align 8
  %3 = getelementptr inbounds %class.AppMenuIconController, %class.AppMenuIconController* %0, i64 0, i32 1
  %4 = getelementptr inbounds %class.UpgradeObserver, %class.UpgradeObserver* %3, i64 0, i32 0
  store i32 (...)** bitcast (i8** getelementptr inbounds ({ [6 x i8*], [11 x i8*] }, { [6 x i8*], [11 x i8*] }* @_ZTV21AppMenuIconController, i64 0, inrange i32 1, i64 2) to i32 (...)**), i32 (...)*** %4, align 8
  %5 = getelementptr inbounds %class.AppMenuIconController, %class.AppMenuIconController* %0, i64 0, i32 3
  %6 = load %class.UpgradeDetector*, %class.UpgradeDetector** %5, align 8
  tail call void @_ZN15UpgradeDetector14RemoveObserverEP15UpgradeObserver(%class.UpgradeDetector* %6, %class.UpgradeObserver* %3) #6
  %7 = getelementptr inbounds %class.AppMenuIconController, %class.AppMenuIconController* %0, i64 0, i32 6, i32 1
  %8 = load %class.GlobalErrorService*, %class.GlobalErrorService** %7, align 8
  %9 = icmp eq %class.GlobalErrorService* %8, null
  br i1 %9, label %13, label %10

10:                                               ; preds = %1
  %11 = getelementptr inbounds %class.AppMenuIconController, %class.AppMenuIconController* %0, i64 0, i32 6, i32 0
  %12 = load %class.GlobalErrorObserver*, %class.GlobalErrorObserver** %11, align 8
  tail call void @_ZN18GlobalErrorService14RemoveObserverEP19GlobalErrorObserver(%class.GlobalErrorService* nonnull %8, %class.GlobalErrorObserver* %12) #6
  store %class.GlobalErrorService* null, %class.GlobalErrorService** %7, align 8
  br label %13

13:                                               ; preds = %1, %10
  %14 = getelementptr inbounds %class.AppMenuIconController, %class.AppMenuIconController* %0, i64 0, i32 0, i32 0
  tail call void @_ZN4base15CheckedObserverD2Ev(%"class.base::CheckedObserver"* %14) #6
  %15 = bitcast %class.AppMenuIconController* %0 to i8*
  tail call void @_ZdlPv(i8* %15) #7
  ret void
}

; Function Attrs: nobuiltin nounwind
declare void @_ZdlPv(i8*) local_unnamed_addr #2

; Function Attrs: nounwind ssp uwtable
define hidden void @_ZThn24_N21AppMenuIconControllerD0Ev(%class.AppMenuIconController*) unnamed_addr #0 align 2 {
  %2 = getelementptr inbounds %class.AppMenuIconController, %class.AppMenuIconController* %0, i64 -1, i32 5
  %3 = bitcast %"class.AppMenuIconController::Delegate"** %2 to i32 (...)***
  store i32 (...)** bitcast (i8** getelementptr inbounds ({ [6 x i8*], [11 x i8*] }, { [6 x i8*], [11 x i8*] }* @_ZTV21AppMenuIconController, i64 0, inrange i32 0, i64 2) to i32 (...)**), i32 (...)*** %3, align 8
  %4 = getelementptr inbounds %"class.AppMenuIconController::Delegate"*, %"class.AppMenuIconController::Delegate"** %2, i64 3
  %5 = bitcast %"class.AppMenuIconController::Delegate"** %4 to %class.UpgradeObserver*
  %6 = bitcast %"class.AppMenuIconController::Delegate"** %4 to i32 (...)***
  store i32 (...)** bitcast (i8** getelementptr inbounds ({ [6 x i8*], [11 x i8*] }, { [6 x i8*], [11 x i8*] }* @_ZTV21AppMenuIconController, i64 0, inrange i32 1, i64 2) to i32 (...)**), i32 (...)*** %6, align 8
  %7 = getelementptr inbounds %"class.AppMenuIconController::Delegate"*, %"class.AppMenuIconController::Delegate"** %2, i64 5
  %8 = bitcast %"class.AppMenuIconController::Delegate"** %7 to %class.UpgradeDetector**
  %9 = load %class.UpgradeDetector*, %class.UpgradeDetector** %8, align 8
  tail call void @_ZN15UpgradeDetector14RemoveObserverEP15UpgradeObserver(%class.UpgradeDetector* %9, %class.UpgradeObserver* %5) #6
  %10 = getelementptr inbounds %"class.AppMenuIconController::Delegate"*, %"class.AppMenuIconController::Delegate"** %2, i64 9
  %11 = bitcast %"class.AppMenuIconController::Delegate"** %10 to %class.GlobalErrorService**
  %12 = load %class.GlobalErrorService*, %class.GlobalErrorService** %11, align 8
  %13 = icmp eq %class.GlobalErrorService* %12, null
  br i1 %13, label %18, label %14

14:                                               ; preds = %1
  %15 = getelementptr inbounds %"class.AppMenuIconController::Delegate"*, %"class.AppMenuIconController::Delegate"** %2, i64 8
  %16 = bitcast %"class.AppMenuIconController::Delegate"** %15 to %class.GlobalErrorObserver**
  %17 = load %class.GlobalErrorObserver*, %class.GlobalErrorObserver** %16, align 8
  tail call void @_ZN18GlobalErrorService14RemoveObserverEP19GlobalErrorObserver(%class.GlobalErrorService* nonnull %12, %class.GlobalErrorObserver* %17) #6
  store %class.GlobalErrorService* null, %class.GlobalErrorService** %11, align 8
  br label %18

18:                                               ; preds = %1, %14
  %19 = bitcast %"class.AppMenuIconController::Delegate"** %2 to %"class.base::CheckedObserver"*
  tail call void @_ZN4base15CheckedObserverD2Ev(%"class.base::CheckedObserver"* %19) #6
  %20 = bitcast %"class.AppMenuIconController::Delegate"** %2 to i8*
  tail call void @_ZdlPv(i8* %20) #7
  ret void
}

; Function Attrs: nounwind ssp uwtable
define hidden void @_ZN21AppMenuIconController14UpdateDelegateEv(%class.AppMenuIconController* nocapture readonly) local_unnamed_addr #0 align 2 {
  %2 = getelementptr inbounds %class.AppMenuIconController, %class.AppMenuIconController* %0, i64 0, i32 5
  %3 = load %"class.AppMenuIconController::Delegate"*, %"class.AppMenuIconController::Delegate"** %2, align 8
  %4 = load i8, i8* @_ZN16browser_defaults20kShowUpgradeMenuItemE, align 1, !range !2
  %5 = icmp eq i8 %4, 0
  br i1 %5, label %23, label %6

6:                                                ; preds = %1
  %7 = getelementptr inbounds %class.AppMenuIconController, %class.AppMenuIconController* %0, i64 0, i32 3
  %8 = load %class.UpgradeDetector*, %class.UpgradeDetector** %7, align 8
  %9 = getelementptr inbounds %class.UpgradeDetector, %class.UpgradeDetector* %8, i64 0, i32 11
  %10 = load i8, i8* %9, align 4, !range !2
  %11 = icmp eq i8 %10, 0
  br i1 %11, label %23, label %12

12:                                               ; preds = %6
  %13 = getelementptr inbounds %class.UpgradeDetector, %class.UpgradeDetector* %8, i64 0, i32 10
  %14 = load i32, i32* %13, align 8
  %15 = getelementptr inbounds %class.AppMenuIconController, %class.AppMenuIconController* %0, i64 0, i32 2
  %16 = load i8, i8* %15, align 8, !range !2
  %17 = icmp eq i8 %16, 0
  %18 = add i32 %14, -1
  br i1 %17, label %21, label %19

19:                                               ; preds = %12
  %20 = icmp ult i32 %18, 6
  br i1 %20, label %31, label %23

21:                                               ; preds = %12
  %22 = icmp ult i32 %18, 5
  br i1 %22, label %40, label %23

23:                                               ; preds = %40, %31, %21, %19, %6, %1
  %24 = getelementptr inbounds %class.AppMenuIconController, %class.AppMenuIconController* %0, i64 0, i32 4
  %25 = load %class.Profile*, %class.Profile** %24, align 8
  %26 = tail call %class.GlobalErrorService* @_ZN25GlobalErrorServiceFactory13GetForProfileEP7Profile(%class.Profile* %25) #6
  %27 = tail call %class.GlobalError* @_ZNK18GlobalErrorService44GetHighestSeverityGlobalErrorWithAppMenuItemEv(%class.GlobalErrorService* %26) #6
  %28 = icmp eq %class.GlobalError* %27, null
  %29 = select i1 %28, i64 0, i64 2
  %30 = select i1 %28, i64 0, i64 8589934592
  br label %49

31:                                               ; preds = %19
  %32 = trunc i32 %18 to i8
  %33 = lshr i8 55, %32
  %34 = and i8 %33, 1
  %35 = icmp eq i8 %34, 0
  br i1 %35, label %23, label %36

36:                                               ; preds = %31
  %37 = sext i32 %18 to i64
  %38 = getelementptr inbounds [6 x i64], [6 x i64]* @switch.table._ZThn24_N21AppMenuIconController20OnUpgradeRecommendedEv, i64 0, i64 %37
  %39 = load i64, i64* %38, align 8
  br label %49

40:                                               ; preds = %21
  %41 = trunc i32 %18 to i8
  %42 = lshr i8 23, %41
  %43 = and i8 %42, 1
  %44 = icmp eq i8 %43, 0
  br i1 %44, label %23, label %45

45:                                               ; preds = %40
  %46 = sext i32 %18 to i64
  %47 = getelementptr inbounds [5 x i64], [5 x i64]* @switch.table._ZThn24_N21AppMenuIconController20OnUpgradeRecommendedEv.7, i64 0, i64 %46
  %48 = load i64, i64* %47, align 8
  br label %49

49:                                               ; preds = %45, %36, %23
  %50 = phi i64 [ %29, %23 ], [ 1, %36 ], [ 1, %45 ]
  %51 = phi i64 [ %30, %23 ], [ %39, %36 ], [ %48, %45 ]
  %52 = or i64 %51, %50
  %53 = bitcast %"class.AppMenuIconController::Delegate"* %3 to void (%"class.AppMenuIconController::Delegate"*, i64)***
  %54 = load void (%"class.AppMenuIconController::Delegate"*, i64)**, void (%"class.AppMenuIconController::Delegate"*, i64)*** %53, align 8
  %55 = load void (%"class.AppMenuIconController::Delegate"*, i64)*, void (%"class.AppMenuIconController::Delegate"*, i64)** %54, align 8
  tail call void %55(%"class.AppMenuIconController::Delegate"* %3, i64 %52) #6
  ret void
}

; Function Attrs: nounwind ssp uwtable
define hidden i64 @_ZNK21AppMenuIconController18GetTypeAndSeverityEv(%class.AppMenuIconController* nocapture readonly) local_unnamed_addr #0 align 2 {
  %2 = load i8, i8* @_ZN16browser_defaults20kShowUpgradeMenuItemE, align 1, !range !2
  %3 = icmp eq i8 %2, 0
  br i1 %3, label %21, label %4

4:                                                ; preds = %1
  %5 = getelementptr inbounds %class.AppMenuIconController, %class.AppMenuIconController* %0, i64 0, i32 3
  %6 = load %class.UpgradeDetector*, %class.UpgradeDetector** %5, align 8
  %7 = getelementptr inbounds %class.UpgradeDetector, %class.UpgradeDetector* %6, i64 0, i32 11
  %8 = load i8, i8* %7, align 4, !range !2
  %9 = icmp eq i8 %8, 0
  br i1 %9, label %21, label %10

10:                                               ; preds = %4
  %11 = getelementptr inbounds %class.UpgradeDetector, %class.UpgradeDetector* %6, i64 0, i32 10
  %12 = load i32, i32* %11, align 8
  %13 = getelementptr inbounds %class.AppMenuIconController, %class.AppMenuIconController* %0, i64 0, i32 2
  %14 = load i8, i8* %13, align 8, !range !2
  %15 = icmp eq i8 %14, 0
  %16 = add i32 %12, -1
  br i1 %15, label %19, label %17

17:                                               ; preds = %10
  %18 = icmp ult i32 %16, 6
  br i1 %18, label %29, label %21

19:                                               ; preds = %10
  %20 = icmp ult i32 %16, 5
  br i1 %20, label %38, label %21

21:                                               ; preds = %38, %29, %19, %17, %4, %1
  %22 = getelementptr inbounds %class.AppMenuIconController, %class.AppMenuIconController* %0, i64 0, i32 4
  %23 = load %class.Profile*, %class.Profile** %22, align 8
  %24 = tail call %class.GlobalErrorService* @_ZN25GlobalErrorServiceFactory13GetForProfileEP7Profile(%class.Profile* %23) #6
  %25 = tail call %class.GlobalError* @_ZNK18GlobalErrorService44GetHighestSeverityGlobalErrorWithAppMenuItemEv(%class.GlobalErrorService* %24) #6
  %26 = icmp eq %class.GlobalError* %25, null
  %27 = select i1 %26, i64 0, i64 2
  %28 = select i1 %26, i64 0, i64 8589934592
  br label %47

29:                                               ; preds = %17
  %30 = trunc i32 %16 to i8
  %31 = lshr i8 55, %30
  %32 = and i8 %31, 1
  %33 = icmp eq i8 %32, 0
  br i1 %33, label %21, label %34

34:                                               ; preds = %29
  %35 = sext i32 %16 to i64
  %36 = getelementptr inbounds [6 x i64], [6 x i64]* @switch.table._ZThn24_N21AppMenuIconController20OnUpgradeRecommendedEv, i64 0, i64 %35
  %37 = load i64, i64* %36, align 8
  br label %47

38:                                               ; preds = %19
  %39 = trunc i32 %16 to i8
  %40 = lshr i8 23, %39
  %41 = and i8 %40, 1
  %42 = icmp eq i8 %41, 0
  br i1 %42, label %21, label %43

43:                                               ; preds = %38
  %44 = sext i32 %16 to i64
  %45 = getelementptr inbounds [5 x i64], [5 x i64]* @switch.table._ZThn24_N21AppMenuIconController20OnUpgradeRecommendedEv.7, i64 0, i64 %44
  %46 = load i64, i64* %45, align 8
  br label %47

47:                                               ; preds = %43, %34, %21
  %48 = phi i64 [ %27, %21 ], [ 1, %34 ], [ 1, %43 ]
  %49 = phi i64 [ %28, %21 ], [ %37, %34 ], [ %46, %43 ]
  %50 = or i64 %49, %48
  ret i64 %50
}

; Function Attrs: argmemonly nounwind
declare void @llvm.lifetime.start.p0i8(i64 immarg, i8* nocapture) #3

; Function Attrs: argmemonly nounwind
declare void @llvm.lifetime.end.p0i8(i64 immarg, i8* nocapture) #3

declare %class.GlobalError* @_ZNK18GlobalErrorService44GetHighestSeverityGlobalErrorWithAppMenuItemEv(%class.GlobalErrorService*) local_unnamed_addr #1

; Function Attrs: nounwind ssp uwtable
define hidden i32 @_ZNK21AppMenuIconController12GetIconColorERKN4absl8optionalIjEE(%class.AppMenuIconController* nocapture readonly, %"class.absl::optional"* nocapture readonly dereferenceable(8)) local_unnamed_addr #0 align 2 {
  %3 = load i8, i8* @_ZN16browser_defaults20kShowUpgradeMenuItemE, align 1, !range !2
  %4 = icmp eq i8 %3, 0
  br i1 %4, label %22, label %5

5:                                                ; preds = %2
  %6 = getelementptr inbounds %class.AppMenuIconController, %class.AppMenuIconController* %0, i64 0, i32 3
  %7 = load %class.UpgradeDetector*, %class.UpgradeDetector** %6, align 8
  %8 = getelementptr inbounds %class.UpgradeDetector, %class.UpgradeDetector* %7, i64 0, i32 11
  %9 = load i8, i8* %8, align 4, !range !2
  %10 = icmp eq i8 %9, 0
  br i1 %10, label %22, label %11

11:                                               ; preds = %5
  %12 = getelementptr inbounds %class.UpgradeDetector, %class.UpgradeDetector* %7, i64 0, i32 10
  %13 = load i32, i32* %12, align 8
  %14 = getelementptr inbounds %class.AppMenuIconController, %class.AppMenuIconController* %0, i64 0, i32 2
  %15 = load i8, i8* %14, align 8, !range !2
  %16 = icmp eq i8 %15, 0
  %17 = add i32 %13, -1
  br i1 %16, label %20, label %18

18:                                               ; preds = %11
  %19 = icmp ult i32 %17, 6
  br i1 %19, label %35, label %22

20:                                               ; preds = %11
  %21 = icmp ult i32 %17, 5
  br i1 %21, label %44, label %22

22:                                               ; preds = %44, %35, %20, %18, %5, %2
  %23 = getelementptr inbounds %class.AppMenuIconController, %class.AppMenuIconController* %0, i64 0, i32 4
  %24 = load %class.Profile*, %class.Profile** %23, align 8
  %25 = tail call %class.GlobalErrorService* @_ZN25GlobalErrorServiceFactory13GetForProfileEP7Profile(%class.Profile* %24) #6
  %26 = tail call %class.GlobalError* @_ZNK18GlobalErrorService44GetHighestSeverityGlobalErrorWithAppMenuItemEv(%class.GlobalErrorService* %25) #6
  %27 = icmp eq %class.GlobalError* %26, null
  br i1 %27, label %28, label %53

28:                                               ; preds = %22
  %29 = getelementptr inbounds %"class.absl::optional", %"class.absl::optional"* %1, i64 0, i32 0, i32 0, i32 0, i32 0
  %30 = load i8, i8* %29, align 4, !range !2
  %31 = icmp eq i8 %30, 0
  br i1 %31, label %53, label %32

32:                                               ; preds = %28
  %33 = getelementptr inbounds %"class.absl::optional", %"class.absl::optional"* %1, i64 0, i32 0, i32 0, i32 0, i32 1, i32 0
  %34 = load i32, i32* %33, align 4
  br label %62

35:                                               ; preds = %18
  %36 = trunc i32 %17 to i8
  %37 = lshr i8 55, %36
  %38 = and i8 %37, 1
  %39 = icmp eq i8 %38, 0
  br i1 %39, label %22, label %40

40:                                               ; preds = %35
  %41 = sext i32 %17 to i64
  %42 = getelementptr inbounds [6 x i32], [6 x i32]* @switch.table._ZNK21AppMenuIconController12GetIconColorERKN4absl8optionalIjEE, i64 0, i64 %41
  %43 = load i32, i32* %42, align 4
  br label %53

44:                                               ; preds = %20
  %45 = trunc i32 %17 to i8
  %46 = lshr i8 23, %45
  %47 = and i8 %46, 1
  %48 = icmp eq i8 %47, 0
  br i1 %48, label %22, label %49

49:                                               ; preds = %44
  %50 = sext i32 %17 to i64
  %51 = getelementptr inbounds [5 x i32], [5 x i32]* @switch.table._ZNK21AppMenuIconController12GetIconColorERKN4absl8optionalIjEE.4, i64 0, i64 %50
  %52 = load i32, i32* %51, align 4
  br label %53

53:                                               ; preds = %49, %40, %22, %28
  %54 = phi i32 [ 0, %28 ], [ 2, %22 ], [ %43, %40 ], [ %52, %49 ]
  %55 = getelementptr inbounds %class.AppMenuIconController, %class.AppMenuIconController* %0, i64 0, i32 5
  %56 = load %"class.AppMenuIconController::Delegate"*, %"class.AppMenuIconController::Delegate"** %55, align 8
  %57 = bitcast %"class.AppMenuIconController::Delegate"* %56 to i32 (%"class.AppMenuIconController::Delegate"*, i32)***
  %58 = load i32 (%"class.AppMenuIconController::Delegate"*, i32)**, i32 (%"class.AppMenuIconController::Delegate"*, i32)*** %57, align 8
  %59 = getelementptr inbounds i32 (%"class.AppMenuIconController::Delegate"*, i32)*, i32 (%"class.AppMenuIconController::Delegate"*, i32)** %58, i64 1
  %60 = load i32 (%"class.AppMenuIconController::Delegate"*, i32)*, i32 (%"class.AppMenuIconController::Delegate"*, i32)** %59, align 8
  %61 = tail call i32 %60(%"class.AppMenuIconController::Delegate"* %56, i32 %54) #6
  br label %62

62:                                               ; preds = %53, %32
  %63 = phi i32 [ %34, %32 ], [ %61, %53 ]
  ret i32 %63
}

; Function Attrs: nounwind ssp uwtable
define hidden void @_ZN21AppMenuIconController21OnGlobalErrorsChangedEv(%class.AppMenuIconController* nocapture readonly) unnamed_addr #0 align 2 {
  %2 = getelementptr inbounds %class.AppMenuIconController, %class.AppMenuIconController* %0, i64 0, i32 5
  %3 = load %"class.AppMenuIconController::Delegate"*, %"class.AppMenuIconController::Delegate"** %2, align 8
  %4 = load i8, i8* @_ZN16browser_defaults20kShowUpgradeMenuItemE, align 1, !range !2
  %5 = icmp eq i8 %4, 0
  br i1 %5, label %23, label %6

6:                                                ; preds = %1
  %7 = getelementptr inbounds %class.AppMenuIconController, %class.AppMenuIconController* %0, i64 0, i32 3
  %8 = load %class.UpgradeDetector*, %class.UpgradeDetector** %7, align 8
  %9 = getelementptr inbounds %class.UpgradeDetector, %class.UpgradeDetector* %8, i64 0, i32 11
  %10 = load i8, i8* %9, align 4, !range !2
  %11 = icmp eq i8 %10, 0
  br i1 %11, label %23, label %12

12:                                               ; preds = %6
  %13 = getelementptr inbounds %class.UpgradeDetector, %class.UpgradeDetector* %8, i64 0, i32 10
  %14 = load i32, i32* %13, align 8
  %15 = getelementptr inbounds %class.AppMenuIconController, %class.AppMenuIconController* %0, i64 0, i32 2
  %16 = load i8, i8* %15, align 8, !range !2
  %17 = icmp eq i8 %16, 0
  %18 = add i32 %14, -1
  br i1 %17, label %21, label %19

19:                                               ; preds = %12
  %20 = icmp ult i32 %18, 6
  br i1 %20, label %31, label %23

21:                                               ; preds = %12
  %22 = icmp ult i32 %18, 5
  br i1 %22, label %40, label %23

23:                                               ; preds = %40, %31, %21, %19, %6, %1
  %24 = getelementptr inbounds %class.AppMenuIconController, %class.AppMenuIconController* %0, i64 0, i32 4
  %25 = load %class.Profile*, %class.Profile** %24, align 8
  %26 = tail call %class.GlobalErrorService* @_ZN25GlobalErrorServiceFactory13GetForProfileEP7Profile(%class.Profile* %25) #6
  %27 = tail call %class.GlobalError* @_ZNK18GlobalErrorService44GetHighestSeverityGlobalErrorWithAppMenuItemEv(%class.GlobalErrorService* %26) #6
  %28 = icmp eq %class.GlobalError* %27, null
  %29 = select i1 %28, i64 0, i64 2
  %30 = select i1 %28, i64 0, i64 8589934592
  br label %49

31:                                               ; preds = %19
  %32 = trunc i32 %18 to i8
  %33 = lshr i8 55, %32
  %34 = and i8 %33, 1
  %35 = icmp eq i8 %34, 0
  br i1 %35, label %23, label %36

36:                                               ; preds = %31
  %37 = sext i32 %18 to i64
  %38 = getelementptr inbounds [6 x i64], [6 x i64]* @switch.table._ZThn24_N21AppMenuIconController20OnUpgradeRecommendedEv, i64 0, i64 %37
  %39 = load i64, i64* %38, align 8
  br label %49

40:                                               ; preds = %21
  %41 = trunc i32 %18 to i8
  %42 = lshr i8 23, %41
  %43 = and i8 %42, 1
  %44 = icmp eq i8 %43, 0
  br i1 %44, label %23, label %45

45:                                               ; preds = %40
  %46 = sext i32 %18 to i64
  %47 = getelementptr inbounds [5 x i64], [5 x i64]* @switch.table._ZThn24_N21AppMenuIconController20OnUpgradeRecommendedEv.7, i64 0, i64 %46
  %48 = load i64, i64* %47, align 8
  br label %49

49:                                               ; preds = %45, %36, %23
  %50 = phi i64 [ %29, %23 ], [ 1, %36 ], [ 1, %45 ]
  %51 = phi i64 [ %30, %23 ], [ %39, %36 ], [ %48, %45 ]
  %52 = or i64 %51, %50
  %53 = bitcast %"class.AppMenuIconController::Delegate"* %3 to void (%"class.AppMenuIconController::Delegate"*, i64)***
  %54 = load void (%"class.AppMenuIconController::Delegate"*, i64)**, void (%"class.AppMenuIconController::Delegate"*, i64)*** %53, align 8
  %55 = load void (%"class.AppMenuIconController::Delegate"*, i64)*, void (%"class.AppMenuIconController::Delegate"*, i64)** %54, align 8
  tail call void %55(%"class.AppMenuIconController::Delegate"* %3, i64 %52) #6
  ret void
}

; Function Attrs: nounwind ssp uwtable
define hidden void @_ZN21AppMenuIconController20OnUpgradeRecommendedEv(%class.AppMenuIconController* nocapture readonly) unnamed_addr #0 align 2 {
  %2 = getelementptr inbounds %class.AppMenuIconController, %class.AppMenuIconController* %0, i64 0, i32 5
  %3 = load %"class.AppMenuIconController::Delegate"*, %"class.AppMenuIconController::Delegate"** %2, align 8
  %4 = load i8, i8* @_ZN16browser_defaults20kShowUpgradeMenuItemE, align 1, !range !2
  %5 = icmp eq i8 %4, 0
  br i1 %5, label %23, label %6

6:                                                ; preds = %1
  %7 = getelementptr inbounds %class.AppMenuIconController, %class.AppMenuIconController* %0, i64 0, i32 3
  %8 = load %class.UpgradeDetector*, %class.UpgradeDetector** %7, align 8
  %9 = getelementptr inbounds %class.UpgradeDetector, %class.UpgradeDetector* %8, i64 0, i32 11
  %10 = load i8, i8* %9, align 4, !range !2
  %11 = icmp eq i8 %10, 0
  br i1 %11, label %23, label %12

12:                                               ; preds = %6
  %13 = getelementptr inbounds %class.UpgradeDetector, %class.UpgradeDetector* %8, i64 0, i32 10
  %14 = load i32, i32* %13, align 8
  %15 = getelementptr inbounds %class.AppMenuIconController, %class.AppMenuIconController* %0, i64 0, i32 2
  %16 = load i8, i8* %15, align 8, !range !2
  %17 = icmp eq i8 %16, 0
  %18 = add i32 %14, -1
  br i1 %17, label %21, label %19

19:                                               ; preds = %12
  %20 = icmp ult i32 %18, 6
  br i1 %20, label %31, label %23

21:                                               ; preds = %12
  %22 = icmp ult i32 %18, 5
  br i1 %22, label %40, label %23

23:                                               ; preds = %40, %31, %21, %19, %6, %1
  %24 = getelementptr inbounds %class.AppMenuIconController, %class.AppMenuIconController* %0, i64 0, i32 4
  %25 = load %class.Profile*, %class.Profile** %24, align 8
  %26 = tail call %class.GlobalErrorService* @_ZN25GlobalErrorServiceFactory13GetForProfileEP7Profile(%class.Profile* %25) #6
  %27 = tail call %class.GlobalError* @_ZNK18GlobalErrorService44GetHighestSeverityGlobalErrorWithAppMenuItemEv(%class.GlobalErrorService* %26) #6
  %28 = icmp eq %class.GlobalError* %27, null
  %29 = select i1 %28, i64 0, i64 2
  %30 = select i1 %28, i64 0, i64 8589934592
  br label %49

31:                                               ; preds = %19
  %32 = trunc i32 %18 to i8
  %33 = lshr i8 55, %32
  %34 = and i8 %33, 1
  %35 = icmp eq i8 %34, 0
  br i1 %35, label %23, label %36

36:                                               ; preds = %31
  %37 = sext i32 %18 to i64
  %38 = getelementptr inbounds [6 x i64], [6 x i64]* @switch.table._ZThn24_N21AppMenuIconController20OnUpgradeRecommendedEv, i64 0, i64 %37
  %39 = load i64, i64* %38, align 8
  br label %49

40:                                               ; preds = %21
  %41 = trunc i32 %18 to i8
  %42 = lshr i8 23, %41
  %43 = and i8 %42, 1
  %44 = icmp eq i8 %43, 0
  br i1 %44, label %23, label %45

45:                                               ; preds = %40
  %46 = sext i32 %18 to i64
  %47 = getelementptr inbounds [5 x i64], [5 x i64]* @switch.table._ZThn24_N21AppMenuIconController20OnUpgradeRecommendedEv.7, i64 0, i64 %46
  %48 = load i64, i64* %47, align 8
  br label %49

49:                                               ; preds = %45, %36, %23
  %50 = phi i64 [ %29, %23 ], [ 1, %36 ], [ 1, %45 ]
  %51 = phi i64 [ %30, %23 ], [ %39, %36 ], [ %48, %45 ]
  %52 = or i64 %51, %50
  %53 = bitcast %"class.AppMenuIconController::Delegate"* %3 to void (%"class.AppMenuIconController::Delegate"*, i64)***
  %54 = load void (%"class.AppMenuIconController::Delegate"*, i64)**, void (%"class.AppMenuIconController::Delegate"*, i64)*** %53, align 8
  %55 = load void (%"class.AppMenuIconController::Delegate"*, i64)*, void (%"class.AppMenuIconController::Delegate"*, i64)** %54, align 8
  tail call void %55(%"class.AppMenuIconController::Delegate"* %3, i64 %52) #6
  ret void
}

; Function Attrs: nounwind ssp uwtable
define hidden void @_ZThn24_N21AppMenuIconController20OnUpgradeRecommendedEv(%class.AppMenuIconController* nocapture readonly) unnamed_addr #0 align 2 {
  %2 = getelementptr inbounds %class.AppMenuIconController, %class.AppMenuIconController* %0, i64 -1, i32 5
  %3 = getelementptr inbounds %"class.AppMenuIconController::Delegate"*, %"class.AppMenuIconController::Delegate"** %2, i64 7
  %4 = load %"class.AppMenuIconController::Delegate"*, %"class.AppMenuIconController::Delegate"** %3, align 8
  %5 = load i8, i8* @_ZN16browser_defaults20kShowUpgradeMenuItemE, align 1, !range !2
  %6 = icmp eq i8 %5, 0
  br i1 %6, label %26, label %7

7:                                                ; preds = %1
  %8 = getelementptr inbounds %"class.AppMenuIconController::Delegate"*, %"class.AppMenuIconController::Delegate"** %2, i64 5
  %9 = bitcast %"class.AppMenuIconController::Delegate"** %8 to %class.UpgradeDetector**
  %10 = load %class.UpgradeDetector*, %class.UpgradeDetector** %9, align 8
  %11 = getelementptr inbounds %class.UpgradeDetector, %class.UpgradeDetector* %10, i64 0, i32 11
  %12 = load i8, i8* %11, align 4, !range !2
  %13 = icmp eq i8 %12, 0
  br i1 %13, label %26, label %14

14:                                               ; preds = %7
  %15 = getelementptr inbounds %class.UpgradeDetector, %class.UpgradeDetector* %10, i64 0, i32 10
  %16 = load i32, i32* %15, align 8
  %17 = getelementptr inbounds %"class.AppMenuIconController::Delegate"*, %"class.AppMenuIconController::Delegate"** %2, i64 4
  %18 = bitcast %"class.AppMenuIconController::Delegate"** %17 to i8*
  %19 = load i8, i8* %18, align 8, !range !2
  %20 = icmp eq i8 %19, 0
  %21 = add i32 %16, -1
  br i1 %20, label %24, label %22

22:                                               ; preds = %14
  %23 = icmp ult i32 %21, 6
  br i1 %23, label %35, label %26

24:                                               ; preds = %14
  %25 = icmp ult i32 %21, 5
  br i1 %25, label %44, label %26

26:                                               ; preds = %44, %35, %24, %22, %7, %1
  %27 = getelementptr inbounds %"class.AppMenuIconController::Delegate"*, %"class.AppMenuIconController::Delegate"** %2, i64 6
  %28 = bitcast %"class.AppMenuIconController::Delegate"** %27 to %class.Profile**
  %29 = load %class.Profile*, %class.Profile** %28, align 8
  %30 = tail call %class.GlobalErrorService* @_ZN25GlobalErrorServiceFactory13GetForProfileEP7Profile(%class.Profile* %29) #6
  %31 = tail call %class.GlobalError* @_ZNK18GlobalErrorService44GetHighestSeverityGlobalErrorWithAppMenuItemEv(%class.GlobalErrorService* %30) #6
  %32 = icmp eq %class.GlobalError* %31, null
  %33 = select i1 %32, i64 0, i64 2
  %34 = select i1 %32, i64 0, i64 8589934592
  br label %53

35:                                               ; preds = %22
  %36 = trunc i32 %21 to i8
  %37 = lshr i8 55, %36
  %38 = and i8 %37, 1
  %39 = icmp eq i8 %38, 0
  br i1 %39, label %26, label %40

40:                                               ; preds = %35
  %41 = sext i32 %21 to i64
  %42 = getelementptr inbounds [6 x i64], [6 x i64]* @switch.table._ZThn24_N21AppMenuIconController20OnUpgradeRecommendedEv, i64 0, i64 %41
  %43 = load i64, i64* %42, align 8
  br label %53

44:                                               ; preds = %24
  %45 = trunc i32 %21 to i8
  %46 = lshr i8 23, %45
  %47 = and i8 %46, 1
  %48 = icmp eq i8 %47, 0
  br i1 %48, label %26, label %49

49:                                               ; preds = %44
  %50 = sext i32 %21 to i64
  %51 = getelementptr inbounds [5 x i64], [5 x i64]* @switch.table._ZThn24_N21AppMenuIconController20OnUpgradeRecommendedEv.7, i64 0, i64 %50
  %52 = load i64, i64* %51, align 8
  br label %53

53:                                               ; preds = %49, %40, %26
  %54 = phi i64 [ %33, %26 ], [ 1, %40 ], [ 1, %49 ]
  %55 = phi i64 [ %34, %26 ], [ %43, %40 ], [ %52, %49 ]
  %56 = or i64 %55, %54
  %57 = bitcast %"class.AppMenuIconController::Delegate"* %4 to void (%"class.AppMenuIconController::Delegate"*, i64)***
  %58 = load void (%"class.AppMenuIconController::Delegate"*, i64)**, void (%"class.AppMenuIconController::Delegate"*, i64)*** %57, align 8
  %59 = load void (%"class.AppMenuIconController::Delegate"*, i64)*, void (%"class.AppMenuIconController::Delegate"*, i64)** %58, align 8
  tail call void %59(%"class.AppMenuIconController::Delegate"* %4, i64 %56) #6
  ret void
}

; Function Attrs: nounwind ssp uwtable
define linkonce_odr hidden void @_ZN15UpgradeObserver29OnUpdateOverCellularAvailableEv(%class.UpgradeObserver*) unnamed_addr #0 comdat align 2 {
  ret void
}

; Function Attrs: nounwind ssp uwtable
define linkonce_odr hidden void @_ZN15UpgradeObserver44OnUpdateOverCellularOneTimePermissionGrantedEv(%class.UpgradeObserver*) unnamed_addr #0 comdat align 2 {
  ret void
}

; Function Attrs: nounwind ssp uwtable
define linkonce_odr hidden void @_ZN15UpgradeObserver26OnCriticalUpgradeInstalledEv(%class.UpgradeObserver*) unnamed_addr #0 comdat align 2 {
  ret void
}

; Function Attrs: nounwind ssp uwtable
define linkonce_odr hidden void @_ZN15UpgradeObserver17OnOutdatedInstallEv(%class.UpgradeObserver*) unnamed_addr #0 comdat align 2 {
  ret void
}

; Function Attrs: nounwind ssp uwtable
define linkonce_odr hidden void @_ZN15UpgradeObserver29OnOutdatedInstallNoAutoUpdateEv(%class.UpgradeObserver*) unnamed_addr #0 comdat align 2 {
  ret void
}

; Function Attrs: nounwind ssp uwtable
define linkonce_odr hidden void @_ZN15UpgradeObserver30OnRelaunchOverriddenToRequiredEb(%class.UpgradeObserver*, i1 zeroext) unnamed_addr #0 comdat align 2 {
  ret void
}

declare void @_ZN4base15CheckedObserverC2Ev(%"class.base::CheckedObserver"*) unnamed_addr #1

; Function Attrs: nounwind
declare void @_ZN4base15CheckedObserverD2Ev(%"class.base::CheckedObserver"*) unnamed_addr #4

declare i32 @_ZN6chrome10GetChannelEv() local_unnamed_addr #1

declare void @_ZN18GlobalErrorService14RemoveObserverEP19GlobalErrorObserver(%class.GlobalErrorService*, %class.GlobalErrorObserver*) local_unnamed_addr #1

declare void @_ZN7logging10CheckError7CheckOpEPKciPNS_13CheckOpResultE(%"class.logging::CheckError"* sret, i8*, i32, %"class.logging::CheckOpResult"*) local_unnamed_addr #1

declare dereferenceable(160) %"class.std::__1::basic_ostream"* @_ZN7logging10CheckError6streamEv(%"class.logging::CheckError"*) local_unnamed_addr #1

; Function Attrs: nounwind
declare void @_ZN7logging10CheckErrorD1Ev(%"class.logging::CheckError"*) unnamed_addr #4

declare void @_ZN18GlobalErrorService11AddObserverEP19GlobalErrorObserver(%class.GlobalErrorService*, %class.GlobalErrorObserver*) local_unnamed_addr #1

declare i8* @_ZN7logging15CheckOpValueStrEDn(i8*) local_unnamed_addr #1

declare void @_ZN7logging13CheckOpResultC1EPKcPcS3_(%"class.logging::CheckOpResult"*, i8*, i8*, i8*) unnamed_addr #1

declare i8* @_ZN7logging14StreamValToStrEPKvPFvRNSt3__113basic_ostreamIcNS2_11char_traitsIcEEEES1_E(i8*, void (%"class.std::__1::basic_ostream"*, i8*)*) local_unnamed_addr #1

; Function Attrs: inlinehint nounwind ssp uwtable
define linkonce_odr hidden void @_ZZN7logging15CheckOpValueStrIP18GlobalErrorServiceEENSt3__19enable_ifIXaasr4base8internal23SupportsOstreamOperatorIRKT_EE5valuentsr3std11is_functionINS3_14remove_pointerIS5_E4typeEEE5valueEPcE4typeES7_ENUlRNS3_13basic_ostreamIcNS3_11char_traitsIcEEEEPKvE_8__invokeESI_SK_(%"class.std::__1::basic_ostream"* dereferenceable(160), i8*) #5 comdat align 2 {
  %3 = bitcast i8* %1 to i8**
  %4 = load i8*, i8** %3, align 8
  %5 = tail call dereferenceable(160) %"class.std::__1::basic_ostream"* @_ZNSt3__113basic_ostreamIcNS_11char_traitsIcEEElsEPKv(%"class.std::__1::basic_ostream"* %0, i8* %4) #6
  ret void
}

declare dereferenceable(160) %"class.std::__1::basic_ostream"* @_ZNSt3__113basic_ostreamIcNS_11char_traitsIcEEElsEPKv(%"class.std::__1::basic_ostream"*, i8*) local_unnamed_addr #1

attributes #0 = { nounwind ssp uwtable "correctly-rounded-divide-sqrt-fp-math"="false" "disable-tail-calls"="false" "less-precise-fpmad"="false" "min-legal-vector-width"="0" "no-frame-pointer-elim"="false" "no-frame-pointer-elim-non-leaf" "no-infs-fp-math"="false" "no-jump-tables"="false" "no-nans-fp-math"="false" "no-signed-zeros-fp-math"="false" "no-trapping-math"="false" "null-pointer-is-valid"="true" "stack-protector-buffer-size"="4" "target-cpu"="x86-64" "target-features"="+cx8,+fxsr,+mmx,+sse,+sse2,+sse3,+x87" "unsafe-fp-math"="false" "use-soft-float"="false" }
attributes #1 = { "correctly-rounded-divide-sqrt-fp-math"="false" "disable-tail-calls"="false" "less-precise-fpmad"="false" "no-frame-pointer-elim"="false" "no-frame-pointer-elim-non-leaf" "no-infs-fp-math"="false" "no-nans-fp-math"="false" "no-signed-zeros-fp-math"="false" "no-trapping-math"="false" "null-pointer-is-valid"="true" "stack-protector-buffer-size"="4" "target-cpu"="x86-64" "target-features"="+cx8,+fxsr,+mmx,+sse,+sse2,+sse3,+x87" "unsafe-fp-math"="false" "use-soft-float"="false" }
attributes #2 = { nobuiltin nounwind "correctly-rounded-divide-sqrt-fp-math"="false" "disable-tail-calls"="false" "less-precise-fpmad"="false" "no-frame-pointer-elim"="false" "no-frame-pointer-elim-non-leaf" "no-infs-fp-math"="false" "no-nans-fp-math"="false" "no-signed-zeros-fp-math"="false" "no-trapping-math"="false" "null-pointer-is-valid"="true" "stack-protector-buffer-size"="4" "target-cpu"="x86-64" "target-features"="+cx8,+fxsr,+mmx,+sse,+sse2,+sse3,+x87" "unsafe-fp-math"="false" "use-soft-float"="false" }
attributes #3 = { argmemonly nounwind }
attributes #4 = { nounwind "correctly-rounded-divide-sqrt-fp-math"="false" "disable-tail-calls"="false" "less-precise-fpmad"="false" "no-frame-pointer-elim"="false" "no-frame-pointer-elim-non-leaf" "no-infs-fp-math"="false" "no-nans-fp-math"="false" "no-signed-zeros-fp-math"="false" "no-trapping-math"="false" "null-pointer-is-valid"="true" "stack-protector-buffer-size"="4" "target-cpu"="x86-64" "target-features"="+cx8,+fxsr,+mmx,+sse,+sse2,+sse3,+x87" "unsafe-fp-math"="false" "use-soft-float"="false" }
attributes #5 = { inlinehint nounwind ssp uwtable "correctly-rounded-divide-sqrt-fp-math"="false" "disable-tail-calls"="false" "less-precise-fpmad"="false" "min-legal-vector-width"="0" "no-frame-pointer-elim"="false" "no-frame-pointer-elim-non-leaf" "no-infs-fp-math"="false" "no-jump-tables"="false" "no-nans-fp-math"="false" "no-signed-zeros-fp-math"="false" "no-trapping-math"="false" "null-pointer-is-valid"="true" "stack-protector-buffer-size"="4" "target-cpu"="x86-64" "target-features"="+cx8,+fxsr,+mmx,+sse,+sse2,+sse3,+x87" "unsafe-fp-math"="false" "use-soft-float"="false" }
attributes #6 = { nounwind }
attributes #7 = { builtin nounwind }

!llvm.module.flags = !{!0, !1}

!0 = !{i32 1, !"wchar_size", i32 4}
!1 = !{i32 7, !"PIC Level", i32 2}
!2 = !{i8 0, i8 2}
