; ModuleID = '../../chrome/browser/apps/platform_apps/app_termination_observer.cc'
source_filename = "../../chrome/browser/apps/platform_apps/app_termination_observer.cc"
target datalayout = "e-m:e-i64:64-f80:128-n8:16:32:64-S128"
target triple = "x86_64-unknown-linux-gnu"

module asm ".symver exp, exp@GLIBC_2.2.5"
module asm ".symver exp2, exp2@GLIBC_2.2.5"
module asm ".symver exp2f, exp2f@GLIBC_2.2.5"
module asm ".symver expf, expf@GLIBC_2.2.5"
module asm ".symver lgamma, lgamma@GLIBC_2.2.5"
module asm ".symver lgammaf, lgammaf@GLIBC_2.2.5"
module asm ".symver lgammal, lgammal@GLIBC_2.2.5"
module asm ".symver log, log@GLIBC_2.2.5"
module asm ".symver log2, log2@GLIBC_2.2.5"
module asm ".symver log2f, log2f@GLIBC_2.2.5"
module asm ".symver logf, logf@GLIBC_2.2.5"
module asm ".symver pow, pow@GLIBC_2.2.5"
module asm ".symver powf, powf@GLIBC_2.2.5"

%"class.base::NoDestructor" = type { [80 x i8] }
%"class.chrome_apps::AppTerminationObserver" = type { %"class.content::NotificationObserver", %class.KeyedService, %"class.content::BrowserContext"*, %"class.content::NotificationRegistrar" }
%"class.content::NotificationObserver" = type { i32 (...)** }
%class.KeyedService = type { i32 (...)** }
%"class.content::NotificationRegistrar" = type { %"class.std::__1::vector" }
%"class.std::__1::vector" = type { %"class.std::__1::__vector_base" }
%"class.std::__1::__vector_base" = type { %"struct.content::NotificationRegistrar::Record"*, %"struct.content::NotificationRegistrar::Record"*, %"class.std::__1::__compressed_pair.7" }
%"struct.content::NotificationRegistrar::Record" = type opaque
%"class.std::__1::__compressed_pair.7" = type { %"struct.std::__1::__compressed_pair_elem.8" }
%"struct.std::__1::__compressed_pair_elem.8" = type { %"struct.content::NotificationRegistrar::Record"* }
%"class.content::BrowserContext" = type { %"class.base::SupportsUserData.base", %"class.std::__1::unique_ptr" }
%"class.base::SupportsUserData.base" = type <{ i32 (...)**, %"class.std::__1::map", %"class.base::SequenceCheckerDoNothing" }>
%"class.std::__1::map" = type { %"class.std::__1::__tree" }
%"class.std::__1::__tree" = type { %"class.std::__1::__tree_end_node"*, %"class.std::__1::__compressed_pair", %"class.std::__1::__compressed_pair.1" }
%"class.std::__1::__tree_end_node" = type { %"class.std::__1::__tree_node_base"* }
%"class.std::__1::__tree_node_base" = type opaque
%"class.std::__1::__compressed_pair" = type { %"struct.std::__1::__compressed_pair_elem" }
%"struct.std::__1::__compressed_pair_elem" = type { %"class.std::__1::__tree_end_node" }
%"class.std::__1::__compressed_pair.1" = type { %"struct.std::__1::__compressed_pair_elem.2" }
%"struct.std::__1::__compressed_pair_elem.2" = type { i64 }
%"class.base::SequenceCheckerDoNothing" = type { i8 }
%"class.std::__1::unique_ptr" = type { %"class.std::__1::__compressed_pair.4" }
%"class.std::__1::__compressed_pair.4" = type { %"struct.std::__1::__compressed_pair_elem.5" }
%"struct.std::__1::__compressed_pair_elem.5" = type { %"class.content::BrowserContext::Impl"* }
%"class.content::BrowserContext::Impl" = type opaque
%"class.content::Source" = type { %"class.content::NotificationSource" }
%"class.content::NotificationSource" = type { i8* }
%class.BrowserContextKeyedServiceFactory = type { %class.KeyedServiceFactory }
%class.KeyedServiceFactory = type { %class.KeyedServiceBaseFactory.base, %"class.std::__1::map.38", %"class.std::__1::map.47" }
%class.KeyedServiceBaseFactory.base = type <{ i32 (...)**, %class.DependencyManager*, i8*, i32 }>
%class.DependencyManager = type { i32 (...)**, %class.DependencyGraph, %"class.std::__1::set" }
%class.DependencyGraph = type { %"class.std::__1::vector.12", %"class.std::__1::multimap", %"class.std::__1::vector.12" }
%"class.std::__1::multimap" = type { %"class.std::__1::__tree.19" }
%"class.std::__1::__tree.19" = type { %"class.std::__1::__tree_end_node"*, %"class.std::__1::__compressed_pair.20", %"class.std::__1::__compressed_pair.24" }
%"class.std::__1::__compressed_pair.20" = type { %"struct.std::__1::__compressed_pair_elem" }
%"class.std::__1::__compressed_pair.24" = type { %"struct.std::__1::__compressed_pair_elem.2" }
%"class.std::__1::vector.12" = type { %"class.std::__1::__vector_base.13" }
%"class.std::__1::__vector_base.13" = type { %class.DependencyNode**, %class.DependencyNode**, %"class.std::__1::__compressed_pair.14" }
%class.DependencyNode = type { i8 }
%"class.std::__1::__compressed_pair.14" = type { %"struct.std::__1::__compressed_pair_elem.15" }
%"struct.std::__1::__compressed_pair_elem.15" = type { %class.DependencyNode** }
%"class.std::__1::set" = type { %"class.std::__1::__tree.29" }
%"class.std::__1::__tree.29" = type { %"class.std::__1::__tree_end_node"*, %"class.std::__1::__compressed_pair.30", %"class.std::__1::__compressed_pair.34" }
%"class.std::__1::__compressed_pair.30" = type { %"struct.std::__1::__compressed_pair_elem" }
%"class.std::__1::__compressed_pair.34" = type { %"struct.std::__1::__compressed_pair_elem.2" }
%"class.std::__1::map.38" = type { %"class.std::__1::__tree.39" }
%"class.std::__1::__tree.39" = type { %"class.std::__1::__tree_end_node"*, %"class.std::__1::__compressed_pair.40", %"class.std::__1::__compressed_pair.44" }
%"class.std::__1::__compressed_pair.40" = type { %"struct.std::__1::__compressed_pair_elem" }
%"class.std::__1::__compressed_pair.44" = type { %"struct.std::__1::__compressed_pair_elem.2" }
%"class.std::__1::map.47" = type { %"class.std::__1::__tree.48" }
%"class.std::__1::__tree.48" = type { %"class.std::__1::__tree_end_node"*, %"class.std::__1::__compressed_pair.49", %"class.std::__1::__compressed_pair.53" }
%"class.std::__1::__compressed_pair.49" = type { %"struct.std::__1::__compressed_pair_elem" }
%"class.std::__1::__compressed_pair.53" = type { %"struct.std::__1::__compressed_pair_elem.2" }
%class.BrowserContextDependencyManager = type { %class.DependencyManager, %"class.base::RepeatingCallbackList" }
%"class.base::RepeatingCallbackList" = type { %"class.base::internal::CallbackListBase" }
%"class.base::internal::CallbackListBase" = type { %"class.std::__1::list", i8, %"class.base::RepeatingCallback", %"class.base::WeakPtrFactory" }
%"class.std::__1::list" = type { %"class.std::__1::__list_imp" }
%"class.std::__1::__list_imp" = type { %"struct.std::__1::__list_node_base", %"class.std::__1::__compressed_pair.56" }
%"struct.std::__1::__list_node_base" = type { %"struct.std::__1::__list_node_base"*, %"struct.std::__1::__list_node_base"* }
%"class.std::__1::__compressed_pair.56" = type { %"struct.std::__1::__compressed_pair_elem.2" }
%"class.base::RepeatingCallback" = type { %"class.base::internal::CallbackBaseCopyable" }
%"class.base::internal::CallbackBaseCopyable" = type { %"class.base::internal::CallbackBase" }
%"class.base::internal::CallbackBase" = type { %class.scoped_refptr }
%class.scoped_refptr = type { %"class.base::internal::BindStateBase"* }
%"class.base::internal::BindStateBase" = type { %"class.base::RefCountedThreadSafe", void ()*, void (%"class.base::internal::BindStateBase"*)*, i1 (%"class.base::internal::BindStateBase"*, i32)* }
%"class.base::RefCountedThreadSafe" = type { %"class.base::subtle::RefCountedThreadSafeBase" }
%"class.base::subtle::RefCountedThreadSafeBase" = type { %"class.base::AtomicRefCount" }
%"class.base::AtomicRefCount" = type { %"struct.std::__1::atomic" }
%"struct.std::__1::atomic" = type { %"struct.std::__1::__atomic_base" }
%"struct.std::__1::__atomic_base" = type { %"struct.std::__1::__atomic_base.60" }
%"struct.std::__1::__atomic_base.60" = type { %"struct.std::__1::__cxx_atomic_impl" }
%"struct.std::__1::__cxx_atomic_impl" = type { %"struct.std::__1::__cxx_atomic_base_impl" }
%"struct.std::__1::__cxx_atomic_base_impl" = type { i32 }
%"class.base::WeakPtrFactory" = type { %"class.base::internal::WeakPtrFactoryBase" }
%"class.base::internal::WeakPtrFactoryBase" = type { %"class.base::internal::WeakReferenceOwner", i64 }
%"class.base::internal::WeakReferenceOwner" = type { %class.scoped_refptr.61 }
%class.scoped_refptr.61 = type { %"class.base::internal::WeakReference::Flag"* }
%"class.base::internal::WeakReference::Flag" = type <{ %"class.base::RefCountedThreadSafe.62", %"class.base::AtomicFlag", [3 x i8] }>
%"class.base::RefCountedThreadSafe.62" = type { %"class.base::subtle::RefCountedThreadSafeBase" }
%"class.base::AtomicFlag" = type { %"struct.std::__1::atomic.63" }
%"struct.std::__1::atomic.63" = type { %"struct.std::__1::__atomic_base.64" }
%"struct.std::__1::__atomic_base.64" = type { %"struct.std::__1::__atomic_base.65" }
%"struct.std::__1::__atomic_base.65" = type { %"struct.std::__1::__cxx_atomic_impl.66" }
%"struct.std::__1::__cxx_atomic_impl.66" = type { %"struct.std::__1::__cxx_atomic_base_impl.67" }
%"struct.std::__1::__cxx_atomic_base_impl.67" = type { i8 }
%"class.content::NotificationDetails" = type { i8* }
%"class.chrome_apps::(anonymous namespace)::AppTerminationObserverFactory" = type { %class.BrowserContextKeyedServiceFactory }
%"class.user_prefs::PrefRegistrySyncable" = type opaque
%class.Profile = type { %"class.content::BrowserContext", %"class.std::__1::unique_ptr.68", i8, i8, i32, %"class.base::ObserverList", %"class.std::__1::unique_ptr.82" }
%"class.std::__1::unique_ptr.68" = type { %"class.std::__1::__compressed_pair.69" }
%"class.std::__1::__compressed_pair.69" = type { %"struct.std::__1::__compressed_pair_elem.70" }
%"struct.std::__1::__compressed_pair_elem.70" = type { %"class.content::ResourceContext"* }
%"class.content::ResourceContext" = type opaque
%"class.base::ObserverList" = type <{ %"class.std::__1::vector.74", %"class.base::LinkedList", i64, i32, [4 x i8] }>
%"class.std::__1::vector.74" = type { %"class.std::__1::__vector_base.75" }
%"class.std::__1::__vector_base.75" = type { %"class.base::internal::CheckedObserverAdapter"*, %"class.base::internal::CheckedObserverAdapter"*, %"class.std::__1::__compressed_pair.77" }
%"class.base::internal::CheckedObserverAdapter" = type { %"class.base::WeakPtr" }
%"class.base::WeakPtr" = type { %"class.base::internal::WeakPtrBase" }
%"class.base::internal::WeakPtrBase" = type { %"class.base::internal::WeakReference", i64 }
%"class.base::internal::WeakReference" = type { %class.scoped_refptr.76 }
%class.scoped_refptr.76 = type { %"class.base::internal::WeakReference::Flag"* }
%"class.std::__1::__compressed_pair.77" = type { %"struct.std::__1::__compressed_pair_elem.78" }
%"struct.std::__1::__compressed_pair_elem.78" = type { %"class.base::internal::CheckedObserverAdapter"* }
%"class.base::LinkedList" = type { %"class.base::LinkNode" }
%"class.base::LinkNode" = type { %"class.base::internal::LinkNodeBase" }
%"class.base::internal::LinkNodeBase" = type { %"class.base::internal::LinkNodeBase"*, %"class.base::internal::LinkNodeBase"* }
%"class.std::__1::unique_ptr.82" = type { %"class.std::__1::__compressed_pair.83" }
%"class.std::__1::__compressed_pair.83" = type { %"struct.std::__1::__compressed_pair_elem.84" }
%"struct.std::__1::__compressed_pair_elem.84" = type { %"class.variations::VariationsClient"* }
%"class.variations::VariationsClient" = type opaque

$_ZN7content20NotificationObserverD2Ev = comdat any

$_ZN7content20NotificationObserverD0Ev = comdat any

$_ZN33BrowserContextKeyedServiceFactory20RegisterProfilePrefsEPN10user_prefs20PrefRegistrySyncableE = comdat any

$_ZTVN7content20NotificationObserverE = comdat any

@_ZTVN11chrome_apps22AppTerminationObserverE = hidden unnamed_addr constant { [5 x i8*], [5 x i8*] } { [5 x i8*] [i8* null, i8* null, i8* bitcast (void (%"class.chrome_apps::AppTerminationObserver"*, i32, %"class.content::NotificationSource"*, %"class.content::NotificationDetails"*)* @_ZN11chrome_apps22AppTerminationObserver7ObserveEiRKN7content18NotificationSourceERKNS1_19NotificationDetailsE to i8*), i8* bitcast (void (%"class.chrome_apps::AppTerminationObserver"*)* @_ZN11chrome_apps22AppTerminationObserverD2Ev to i8*), i8* bitcast (void (%"class.chrome_apps::AppTerminationObserver"*)* @_ZN11chrome_apps22AppTerminationObserverD0Ev to i8*)], [5 x i8*] [i8* inttoptr (i64 -8 to i8*), i8* null, i8* bitcast (void (%"class.chrome_apps::AppTerminationObserver"*)* @_ZThn8_N11chrome_apps22AppTerminationObserverD1Ev to i8*), i8* bitcast (void (%"class.chrome_apps::AppTerminationObserver"*)* @_ZThn8_N11chrome_apps22AppTerminationObserverD0Ev to i8*), i8* bitcast (void (%class.KeyedService*)* @_ZN12KeyedService8ShutdownEv to i8*)] }, align 8
@_ZZN11chrome_apps22AppTerminationObserver18GetFactoryInstanceEvE7factory = internal global %"class.base::NoDestructor" zeroinitializer, align 8
@_ZGVZN11chrome_apps22AppTerminationObserver18GetFactoryInstanceEvE7factory = internal global i64 0, align 8
@_ZTVN7content20NotificationObserverE = linkonce_odr hidden unnamed_addr constant { [5 x i8*] } { [5 x i8*] [i8* null, i8* null, i8* bitcast (void ()* @__cxa_pure_virtual to i8*), i8* bitcast (void (%"class.content::NotificationObserver"*)* @_ZN7content20NotificationObserverD2Ev to i8*), i8* bitcast (void (%"class.content::NotificationObserver"*)* @_ZN7content20NotificationObserverD0Ev to i8*)] }, comdat, align 8
@.str = private unnamed_addr constant [23 x i8] c"AppTerminationObserver\00", align 1
@_ZTVN11chrome_apps12_GLOBAL__N_129AppTerminationObserverFactoryE = internal unnamed_addr constant { [20 x i8*] } { [20 x i8*] [i8* null, i8* null, i8* bitcast (void (%class.BrowserContextKeyedServiceFactory*)* @_ZN33BrowserContextKeyedServiceFactoryD2Ev to i8*), i8* bitcast (void (%"class.chrome_apps::(anonymous namespace)::AppTerminationObserverFactory"*)* @_ZN11chrome_apps12_GLOBAL__N_129AppTerminationObserverFactoryD0Ev to i8*), i8* bitcast (i8* (%class.BrowserContextKeyedServiceFactory*, i8*)* @_ZNK33BrowserContextKeyedServiceFactory15GetContextToUseEPv to i8*), i8* bitcast (i1 (%class.BrowserContextKeyedServiceFactory*)* @_ZNK33BrowserContextKeyedServiceFactory27ServiceIsCreatedWithContextEv to i8*), i8* bitcast (i1 (%class.BrowserContextKeyedServiceFactory*)* @_ZNK33BrowserContextKeyedServiceFactory25ServiceIsNULLWhileTestingEv to i8*), i8* bitcast (void (%class.BrowserContextKeyedServiceFactory*, i8*)* @_ZN33BrowserContextKeyedServiceFactory15ContextShutdownEPv to i8*), i8* bitcast (void (%class.BrowserContextKeyedServiceFactory*, i8*)* @_ZN33BrowserContextKeyedServiceFactory16ContextDestroyedEPv to i8*), i8* bitcast (void (%class.BrowserContextKeyedServiceFactory*, %"class.user_prefs::PrefRegistrySyncable"*)* @_ZN33BrowserContextKeyedServiceFactory13RegisterPrefsEPN10user_prefs20PrefRegistrySyncableE to i8*), i8* bitcast (void (%class.KeyedServiceFactory*, i8*)* @_ZN19KeyedServiceFactory22SetEmptyTestingFactoryEPv to i8*), i8* bitcast (i1 (%class.KeyedServiceFactory*, i8*)* @_ZN19KeyedServiceFactory17HasTestingFactoryEPv to i8*), i8* bitcast (void (%class.BrowserContextKeyedServiceFactory*, i8*)* @_ZN33BrowserContextKeyedServiceFactory16CreateServiceNowEPv to i8*), i8* bitcast (void ()* @_ZNK33BrowserContextKeyedServiceFactory23BuildServiceInstanceForEPv to i8*), i8* bitcast (i1 (%class.BrowserContextKeyedServiceFactory*, i8*)* @_ZNK33BrowserContextKeyedServiceFactory14IsOffTheRecordEPv to i8*), i8* bitcast (%"class.content::BrowserContext"* (%"class.chrome_apps::(anonymous namespace)::AppTerminationObserverFactory"*, %"class.content::BrowserContext"*)* @_ZNK11chrome_apps12_GLOBAL__N_129AppTerminationObserverFactory22GetBrowserContextToUseEPN7content14BrowserContextE to i8*), i8* bitcast (i1 (%"class.chrome_apps::(anonymous namespace)::AppTerminationObserverFactory"*)* @_ZNK11chrome_apps12_GLOBAL__N_129AppTerminationObserverFactory34ServiceIsCreatedWithBrowserContextEv to i8*), i8* bitcast (%class.KeyedService* (%"class.chrome_apps::(anonymous namespace)::AppTerminationObserverFactory"*, %"class.content::BrowserContext"*)* @_ZNK11chrome_apps12_GLOBAL__N_129AppTerminationObserverFactory23BuildServiceInstanceForEPN7content14BrowserContextE to i8*), i8* bitcast (void (%class.BrowserContextKeyedServiceFactory*, %"class.content::BrowserContext"*)* @_ZN33BrowserContextKeyedServiceFactory22BrowserContextShutdownEPN7content14BrowserContextE to i8*), i8* bitcast (void (%class.BrowserContextKeyedServiceFactory*, %"class.user_prefs::PrefRegistrySyncable"*)* @_ZN33BrowserContextKeyedServiceFactory20RegisterProfilePrefsEPN10user_prefs20PrefRegistrySyncableE to i8*)] }, align 8

@_ZN11chrome_apps22AppTerminationObserverC1EPN7content14BrowserContextE = hidden unnamed_addr alias void (%"class.chrome_apps::AppTerminationObserver"*, %"class.content::BrowserContext"*), void (%"class.chrome_apps::AppTerminationObserver"*, %"class.content::BrowserContext"*)* @_ZN11chrome_apps22AppTerminationObserverC2EPN7content14BrowserContextE
@_ZN11chrome_apps22AppTerminationObserverD1Ev = hidden unnamed_addr alias void (%"class.chrome_apps::AppTerminationObserver"*), void (%"class.chrome_apps::AppTerminationObserver"*)* @_ZN11chrome_apps22AppTerminationObserverD2Ev

; Function Attrs: nounwind ssp uwtable
define hidden void @_ZN11chrome_apps22AppTerminationObserverC2EPN7content14BrowserContextE(%"class.chrome_apps::AppTerminationObserver"*, %"class.content::BrowserContext"*) unnamed_addr #0 align 2 {
  %3 = alloca %"class.content::Source", align 8
  %4 = getelementptr inbounds %"class.chrome_apps::AppTerminationObserver", %"class.chrome_apps::AppTerminationObserver"* %0, i64 0, i32 0
  %5 = getelementptr inbounds %"class.chrome_apps::AppTerminationObserver", %"class.chrome_apps::AppTerminationObserver"* %0, i64 0, i32 0, i32 0
  store i32 (...)** bitcast (i8** getelementptr inbounds ({ [5 x i8*] }, { [5 x i8*] }* @_ZTVN7content20NotificationObserverE, i64 0, inrange i32 0, i64 2) to i32 (...)**), i32 (...)*** %5, align 8
  %6 = getelementptr inbounds %"class.chrome_apps::AppTerminationObserver", %"class.chrome_apps::AppTerminationObserver"* %0, i64 0, i32 1
  tail call void @_ZN12KeyedServiceC2Ev(%class.KeyedService* %6) #9
  %7 = bitcast %"class.chrome_apps::AppTerminationObserver"* %0 to <2 x i32 (...)**>*
  store <2 x i32 (...)**> <i32 (...)** bitcast (i8** getelementptr inbounds ({ [5 x i8*], [5 x i8*] }, { [5 x i8*], [5 x i8*] }* @_ZTVN11chrome_apps22AppTerminationObserverE, i64 0, inrange i32 0, i64 2) to i32 (...)**), i32 (...)** bitcast (i8** getelementptr inbounds ({ [5 x i8*], [5 x i8*] }, { [5 x i8*], [5 x i8*] }* @_ZTVN11chrome_apps22AppTerminationObserverE, i64 0, inrange i32 1, i64 2) to i32 (...)**)>, <2 x i32 (...)**>* %7, align 8
  %8 = getelementptr inbounds %"class.chrome_apps::AppTerminationObserver", %"class.chrome_apps::AppTerminationObserver"* %0, i64 0, i32 2
  store %"class.content::BrowserContext"* %1, %"class.content::BrowserContext"** %8, align 8
  %9 = getelementptr inbounds %"class.chrome_apps::AppTerminationObserver", %"class.chrome_apps::AppTerminationObserver"* %0, i64 0, i32 3
  tail call void @_ZN7content21NotificationRegistrarC1Ev(%"class.content::NotificationRegistrar"* %9) #9
  %10 = bitcast %"class.content::Source"* %3 to i8*
  call void @llvm.lifetime.start.p0i8(i64 8, i8* nonnull %10) #9
  %11 = getelementptr inbounds %"class.content::Source", %"class.content::Source"* %3, i64 0, i32 0, i32 0
  store i8* null, i8** %11, align 8, !alias.scope !2
  %12 = getelementptr inbounds %"class.content::Source", %"class.content::Source"* %3, i64 0, i32 0
  call void @_ZN7content21NotificationRegistrar3AddEPNS_20NotificationObserverEiRKNS_18NotificationSourceE(%"class.content::NotificationRegistrar"* %9, %"class.content::NotificationObserver"* %4, i32 31, %"class.content::NotificationSource"* nonnull dereferenceable(8) %12) #9
  call void @llvm.lifetime.end.p0i8(i64 8, i8* nonnull %10) #9
  ret void
}

declare void @_ZN12KeyedServiceC2Ev(%class.KeyedService*) unnamed_addr #1

declare void @_ZN7content21NotificationRegistrarC1Ev(%"class.content::NotificationRegistrar"*) unnamed_addr #1

declare void @_ZN7content21NotificationRegistrar3AddEPNS_20NotificationObserverEiRKNS_18NotificationSourceE(%"class.content::NotificationRegistrar"*, %"class.content::NotificationObserver"*, i32, %"class.content::NotificationSource"* dereferenceable(8)) local_unnamed_addr #1

; Function Attrs: argmemonly nounwind
declare void @llvm.lifetime.start.p0i8(i64 immarg, i8* nocapture) #2

; Function Attrs: argmemonly nounwind
declare void @llvm.lifetime.end.p0i8(i64 immarg, i8* nocapture) #2

; Function Attrs: nounwind ssp uwtable
define hidden void @_ZN11chrome_apps22AppTerminationObserverD2Ev(%"class.chrome_apps::AppTerminationObserver"*) unnamed_addr #0 align 2 {
  %2 = getelementptr inbounds %"class.chrome_apps::AppTerminationObserver", %"class.chrome_apps::AppTerminationObserver"* %0, i64 0, i32 1
  %3 = bitcast %"class.chrome_apps::AppTerminationObserver"* %0 to <2 x i32 (...)**>*
  store <2 x i32 (...)**> <i32 (...)** bitcast (i8** getelementptr inbounds ({ [5 x i8*], [5 x i8*] }, { [5 x i8*], [5 x i8*] }* @_ZTVN11chrome_apps22AppTerminationObserverE, i64 0, inrange i32 0, i64 2) to i32 (...)**), i32 (...)** bitcast (i8** getelementptr inbounds ({ [5 x i8*], [5 x i8*] }, { [5 x i8*], [5 x i8*] }* @_ZTVN11chrome_apps22AppTerminationObserverE, i64 0, inrange i32 1, i64 2) to i32 (...)**)>, <2 x i32 (...)**>* %3, align 8
  %4 = getelementptr inbounds %"class.chrome_apps::AppTerminationObserver", %"class.chrome_apps::AppTerminationObserver"* %0, i64 0, i32 3
  tail call void @_ZN7content21NotificationRegistrarD1Ev(%"class.content::NotificationRegistrar"* %4) #9
  tail call void @_ZN12KeyedServiceD2Ev(%class.KeyedService* %2) #9
  ret void
}

; Function Attrs: nounwind
declare void @_ZN7content21NotificationRegistrarD1Ev(%"class.content::NotificationRegistrar"*) unnamed_addr #3

; Function Attrs: nounwind
declare void @_ZN12KeyedServiceD2Ev(%class.KeyedService*) unnamed_addr #3

; Function Attrs: nounwind ssp uwtable
define hidden void @_ZThn8_N11chrome_apps22AppTerminationObserverD1Ev(%"class.chrome_apps::AppTerminationObserver"*) unnamed_addr #0 align 2 {
  %2 = getelementptr inbounds %"class.chrome_apps::AppTerminationObserver", %"class.chrome_apps::AppTerminationObserver"* %0, i64 -1, i32 3, i32 0, i32 0, i32 2
  %3 = getelementptr inbounds %"class.std::__1::__compressed_pair.7", %"class.std::__1::__compressed_pair.7"* %2, i64 1
  %4 = bitcast %"class.std::__1::__compressed_pair.7"* %3 to %class.KeyedService*
  %5 = bitcast %"class.std::__1::__compressed_pair.7"* %2 to <2 x i32 (...)**>*
  store <2 x i32 (...)**> <i32 (...)** bitcast (i8** getelementptr inbounds ({ [5 x i8*], [5 x i8*] }, { [5 x i8*], [5 x i8*] }* @_ZTVN11chrome_apps22AppTerminationObserverE, i64 0, inrange i32 0, i64 2) to i32 (...)**), i32 (...)** bitcast (i8** getelementptr inbounds ({ [5 x i8*], [5 x i8*] }, { [5 x i8*], [5 x i8*] }* @_ZTVN11chrome_apps22AppTerminationObserverE, i64 0, inrange i32 1, i64 2) to i32 (...)**)>, <2 x i32 (...)**>* %5, align 8
  %6 = getelementptr inbounds %"class.std::__1::__compressed_pair.7", %"class.std::__1::__compressed_pair.7"* %2, i64 3
  %7 = bitcast %"class.std::__1::__compressed_pair.7"* %6 to %"class.content::NotificationRegistrar"*
  tail call void @_ZN7content21NotificationRegistrarD1Ev(%"class.content::NotificationRegistrar"* %7) #9
  tail call void @_ZN12KeyedServiceD2Ev(%class.KeyedService* %4) #9
  ret void
}

; Function Attrs: nounwind ssp uwtable
define hidden void @_ZN11chrome_apps22AppTerminationObserverD0Ev(%"class.chrome_apps::AppTerminationObserver"*) unnamed_addr #0 align 2 {
  %2 = getelementptr inbounds %"class.chrome_apps::AppTerminationObserver", %"class.chrome_apps::AppTerminationObserver"* %0, i64 0, i32 1
  %3 = bitcast %"class.chrome_apps::AppTerminationObserver"* %0 to <2 x i32 (...)**>*
  store <2 x i32 (...)**> <i32 (...)** bitcast (i8** getelementptr inbounds ({ [5 x i8*], [5 x i8*] }, { [5 x i8*], [5 x i8*] }* @_ZTVN11chrome_apps22AppTerminationObserverE, i64 0, inrange i32 0, i64 2) to i32 (...)**), i32 (...)** bitcast (i8** getelementptr inbounds ({ [5 x i8*], [5 x i8*] }, { [5 x i8*], [5 x i8*] }* @_ZTVN11chrome_apps22AppTerminationObserverE, i64 0, inrange i32 1, i64 2) to i32 (...)**)>, <2 x i32 (...)**>* %3, align 8
  %4 = getelementptr inbounds %"class.chrome_apps::AppTerminationObserver", %"class.chrome_apps::AppTerminationObserver"* %0, i64 0, i32 3
  tail call void @_ZN7content21NotificationRegistrarD1Ev(%"class.content::NotificationRegistrar"* %4) #9
  tail call void @_ZN12KeyedServiceD2Ev(%class.KeyedService* %2) #9
  %5 = bitcast %"class.chrome_apps::AppTerminationObserver"* %0 to i8*
  tail call void @_ZdlPv(i8* %5) #10
  ret void
}

; Function Attrs: nobuiltin nounwind
declare void @_ZdlPv(i8*) local_unnamed_addr #4

; Function Attrs: nounwind ssp uwtable
define hidden void @_ZThn8_N11chrome_apps22AppTerminationObserverD0Ev(%"class.chrome_apps::AppTerminationObserver"*) unnamed_addr #0 align 2 {
  %2 = getelementptr inbounds %"class.chrome_apps::AppTerminationObserver", %"class.chrome_apps::AppTerminationObserver"* %0, i64 -1, i32 3, i32 0, i32 0, i32 2
  %3 = getelementptr inbounds %"class.std::__1::__compressed_pair.7", %"class.std::__1::__compressed_pair.7"* %2, i64 1
  %4 = bitcast %"class.std::__1::__compressed_pair.7"* %3 to %class.KeyedService*
  %5 = bitcast %"class.std::__1::__compressed_pair.7"* %2 to <2 x i32 (...)**>*
  store <2 x i32 (...)**> <i32 (...)** bitcast (i8** getelementptr inbounds ({ [5 x i8*], [5 x i8*] }, { [5 x i8*], [5 x i8*] }* @_ZTVN11chrome_apps22AppTerminationObserverE, i64 0, inrange i32 0, i64 2) to i32 (...)**), i32 (...)** bitcast (i8** getelementptr inbounds ({ [5 x i8*], [5 x i8*] }, { [5 x i8*], [5 x i8*] }* @_ZTVN11chrome_apps22AppTerminationObserverE, i64 0, inrange i32 1, i64 2) to i32 (...)**)>, <2 x i32 (...)**>* %5, align 8
  %6 = getelementptr inbounds %"class.std::__1::__compressed_pair.7", %"class.std::__1::__compressed_pair.7"* %2, i64 3
  %7 = bitcast %"class.std::__1::__compressed_pair.7"* %6 to %"class.content::NotificationRegistrar"*
  tail call void @_ZN7content21NotificationRegistrarD1Ev(%"class.content::NotificationRegistrar"* %7) #9
  tail call void @_ZN12KeyedServiceD2Ev(%class.KeyedService* %4) #9
  %8 = bitcast %"class.std::__1::__compressed_pair.7"* %2 to i8*
  tail call void @_ZdlPv(i8* %8) #10
  ret void
}

; Function Attrs: nounwind ssp uwtable
define hidden %class.BrowserContextKeyedServiceFactory* @_ZN11chrome_apps22AppTerminationObserver18GetFactoryInstanceEv() local_unnamed_addr #0 align 2 {
  %1 = load atomic i8, i8* bitcast (i64* @_ZGVZN11chrome_apps22AppTerminationObserver18GetFactoryInstanceEvE7factory to i8*) acquire, align 8
  %2 = icmp eq i8 %1, 0
  br i1 %2, label %3, label %8, !prof !5

3:                                                ; preds = %0
  %4 = tail call i32 @__cxa_guard_acquire(i64* nonnull @_ZGVZN11chrome_apps22AppTerminationObserver18GetFactoryInstanceEvE7factory) #9
  %5 = icmp eq i32 %4, 0
  br i1 %5, label %8, label %6

6:                                                ; preds = %3
  %7 = tail call %class.BrowserContextDependencyManager* @_ZN31BrowserContextDependencyManager11GetInstanceEv() #9
  tail call void @_ZN33BrowserContextKeyedServiceFactoryC2EPKcP31BrowserContextDependencyManager(%class.BrowserContextKeyedServiceFactory* bitcast (%"class.base::NoDestructor"* @_ZZN11chrome_apps22AppTerminationObserver18GetFactoryInstanceEvE7factory to %class.BrowserContextKeyedServiceFactory*), i8* getelementptr inbounds ([23 x i8], [23 x i8]* @.str, i64 0, i64 0), %class.BrowserContextDependencyManager* %7) #9
  store i32 (...)** bitcast (i8** getelementptr inbounds ({ [20 x i8*] }, { [20 x i8*] }* @_ZTVN11chrome_apps12_GLOBAL__N_129AppTerminationObserverFactoryE, i64 0, inrange i32 0, i64 2) to i32 (...)**), i32 (...)*** bitcast (%"class.base::NoDestructor"* @_ZZN11chrome_apps22AppTerminationObserver18GetFactoryInstanceEvE7factory to i32 (...)***), align 8
  tail call void @__cxa_guard_release(i64* nonnull @_ZGVZN11chrome_apps22AppTerminationObserver18GetFactoryInstanceEvE7factory) #9
  br label %8

8:                                                ; preds = %3, %6, %0
  ret %class.BrowserContextKeyedServiceFactory* bitcast (%"class.base::NoDestructor"* @_ZZN11chrome_apps22AppTerminationObserver18GetFactoryInstanceEvE7factory to %class.BrowserContextKeyedServiceFactory*)
}

; Function Attrs: nofree nounwind
declare i32 @__cxa_guard_acquire(i64*) local_unnamed_addr #5

; Function Attrs: nofree nounwind
declare void @__cxa_guard_release(i64*) local_unnamed_addr #5

; Function Attrs: nounwind ssp uwtable
define hidden void @_ZN11chrome_apps22AppTerminationObserver7ObserveEiRKN7content18NotificationSourceERKNS1_19NotificationDetailsE(%"class.chrome_apps::AppTerminationObserver"* nocapture readonly, i32, %"class.content::NotificationSource"* nocapture readnone dereferenceable(8), %"class.content::NotificationDetails"* nocapture readnone dereferenceable(8)) unnamed_addr #0 align 2 {
  %5 = getelementptr inbounds %"class.chrome_apps::AppTerminationObserver", %"class.chrome_apps::AppTerminationObserver"* %0, i64 0, i32 2
  %6 = load %"class.content::BrowserContext"*, %"class.content::BrowserContext"** %5, align 8
  tail call void @_ZN4apps28NotifyApplicationTerminatingEPN7content14BrowserContextE(%"class.content::BrowserContext"* %6) #9
  ret void
}

declare void @_ZN4apps28NotifyApplicationTerminatingEPN7content14BrowserContextE(%"class.content::BrowserContext"*) local_unnamed_addr #1

declare void @_ZN12KeyedService8ShutdownEv(%class.KeyedService*) unnamed_addr #1

declare void @__cxa_pure_virtual() unnamed_addr

; Function Attrs: nounwind ssp uwtable
define linkonce_odr hidden void @_ZN7content20NotificationObserverD2Ev(%"class.content::NotificationObserver"*) unnamed_addr #0 comdat align 2 {
  ret void
}

; Function Attrs: nounwind ssp uwtable
define linkonce_odr hidden void @_ZN7content20NotificationObserverD0Ev(%"class.content::NotificationObserver"*) unnamed_addr #0 comdat align 2 {
  tail call void @llvm.trap() #11
  unreachable
}

; Function Attrs: cold noreturn nounwind
declare void @llvm.trap() #6

declare %class.BrowserContextDependencyManager* @_ZN31BrowserContextDependencyManager11GetInstanceEv() local_unnamed_addr #1

declare void @_ZN33BrowserContextKeyedServiceFactoryC2EPKcP31BrowserContextDependencyManager(%class.BrowserContextKeyedServiceFactory*, i8*, %class.BrowserContextDependencyManager*) unnamed_addr #1

; Function Attrs: nounwind
declare void @_ZN33BrowserContextKeyedServiceFactoryD2Ev(%class.BrowserContextKeyedServiceFactory*) unnamed_addr #3

; Function Attrs: nounwind ssp uwtable
define internal void @_ZN11chrome_apps12_GLOBAL__N_129AppTerminationObserverFactoryD0Ev(%"class.chrome_apps::(anonymous namespace)::AppTerminationObserverFactory"*) unnamed_addr #0 align 2 {
  %2 = getelementptr inbounds %"class.chrome_apps::(anonymous namespace)::AppTerminationObserverFactory", %"class.chrome_apps::(anonymous namespace)::AppTerminationObserverFactory"* %0, i64 0, i32 0
  tail call void @_ZN33BrowserContextKeyedServiceFactoryD2Ev(%class.BrowserContextKeyedServiceFactory* %2) #9
  %3 = bitcast %"class.chrome_apps::(anonymous namespace)::AppTerminationObserverFactory"* %0 to i8*
  tail call void @_ZdlPv(i8* %3) #10
  ret void
}

declare i8* @_ZNK33BrowserContextKeyedServiceFactory15GetContextToUseEPv(%class.BrowserContextKeyedServiceFactory*, i8*) unnamed_addr #1

declare zeroext i1 @_ZNK33BrowserContextKeyedServiceFactory27ServiceIsCreatedWithContextEv(%class.BrowserContextKeyedServiceFactory*) unnamed_addr #1

declare zeroext i1 @_ZNK33BrowserContextKeyedServiceFactory25ServiceIsNULLWhileTestingEv(%class.BrowserContextKeyedServiceFactory*) unnamed_addr #1

declare void @_ZN33BrowserContextKeyedServiceFactory15ContextShutdownEPv(%class.BrowserContextKeyedServiceFactory*, i8*) unnamed_addr #1

declare void @_ZN33BrowserContextKeyedServiceFactory16ContextDestroyedEPv(%class.BrowserContextKeyedServiceFactory*, i8*) unnamed_addr #1

declare void @_ZN33BrowserContextKeyedServiceFactory13RegisterPrefsEPN10user_prefs20PrefRegistrySyncableE(%class.BrowserContextKeyedServiceFactory*, %"class.user_prefs::PrefRegistrySyncable"*) unnamed_addr #1

declare void @_ZN19KeyedServiceFactory22SetEmptyTestingFactoryEPv(%class.KeyedServiceFactory*, i8*) unnamed_addr #1

declare zeroext i1 @_ZN19KeyedServiceFactory17HasTestingFactoryEPv(%class.KeyedServiceFactory*, i8*) unnamed_addr #1

declare void @_ZN33BrowserContextKeyedServiceFactory16CreateServiceNowEPv(%class.BrowserContextKeyedServiceFactory*, i8*) unnamed_addr #1

declare void @_ZNK33BrowserContextKeyedServiceFactory23BuildServiceInstanceForEPv() unnamed_addr

declare zeroext i1 @_ZNK33BrowserContextKeyedServiceFactory14IsOffTheRecordEPv(%class.BrowserContextKeyedServiceFactory*, i8*) unnamed_addr #1

; Function Attrs: nounwind ssp uwtable
define internal %"class.content::BrowserContext"* @_ZNK11chrome_apps12_GLOBAL__N_129AppTerminationObserverFactory22GetBrowserContextToUseEPN7content14BrowserContextE(%"class.chrome_apps::(anonymous namespace)::AppTerminationObserverFactory"* nocapture readnone, %"class.content::BrowserContext"*) unnamed_addr #0 align 2 {
  %3 = tail call %class.Profile* @_ZN7Profile18FromBrowserContextEPN7content14BrowserContextE(%"class.content::BrowserContext"* %1) #9
  %4 = bitcast %class.Profile* %3 to %class.Profile* (%class.Profile*)***
  %5 = load %class.Profile* (%class.Profile*)**, %class.Profile* (%class.Profile*)*** %4, align 8
  %6 = getelementptr inbounds %class.Profile* (%class.Profile*)*, %class.Profile* (%class.Profile*)** %5, i64 40
  %7 = load %class.Profile* (%class.Profile*)*, %class.Profile* (%class.Profile*)** %6, align 8
  %8 = tail call %class.Profile* %7(%class.Profile* %3) #9
  %9 = getelementptr inbounds %class.Profile, %class.Profile* %8, i64 0, i32 0
  ret %"class.content::BrowserContext"* %9
}

; Function Attrs: norecurse nounwind readnone ssp uwtable
define internal zeroext i1 @_ZNK11chrome_apps12_GLOBAL__N_129AppTerminationObserverFactory34ServiceIsCreatedWithBrowserContextEv(%"class.chrome_apps::(anonymous namespace)::AppTerminationObserverFactory"* nocapture readnone) unnamed_addr #7 align 2 {
  ret i1 true
}

; Function Attrs: nounwind ssp uwtable
define internal nonnull %class.KeyedService* @_ZNK11chrome_apps12_GLOBAL__N_129AppTerminationObserverFactory23BuildServiceInstanceForEPN7content14BrowserContextE(%"class.chrome_apps::(anonymous namespace)::AppTerminationObserverFactory"* nocapture readnone, %"class.content::BrowserContext"*) unnamed_addr #0 align 2 {
  %3 = alloca %"class.content::Source", align 8
  %4 = tail call i8* @_Znwm(i64 48) #10
  %5 = bitcast i8* %4 to %"class.content::NotificationObserver"*
  %6 = bitcast i8* %4 to i32 (...)***
  store i32 (...)** bitcast (i8** getelementptr inbounds ({ [5 x i8*] }, { [5 x i8*] }* @_ZTVN7content20NotificationObserverE, i64 0, inrange i32 0, i64 2) to i32 (...)**), i32 (...)*** %6, align 8
  %7 = getelementptr inbounds i8, i8* %4, i64 8
  %8 = bitcast i8* %7 to %class.KeyedService*
  tail call void @_ZN12KeyedServiceC2Ev(%class.KeyedService* %8) #9
  %9 = bitcast i8* %4 to <2 x i32 (...)**>*
  store <2 x i32 (...)**> <i32 (...)** bitcast (i8** getelementptr inbounds ({ [5 x i8*], [5 x i8*] }, { [5 x i8*], [5 x i8*] }* @_ZTVN11chrome_apps22AppTerminationObserverE, i64 0, inrange i32 0, i64 2) to i32 (...)**), i32 (...)** bitcast (i8** getelementptr inbounds ({ [5 x i8*], [5 x i8*] }, { [5 x i8*], [5 x i8*] }* @_ZTVN11chrome_apps22AppTerminationObserverE, i64 0, inrange i32 1, i64 2) to i32 (...)**)>, <2 x i32 (...)**>* %9, align 8
  %10 = getelementptr inbounds i8, i8* %4, i64 16
  %11 = bitcast i8* %10 to %"class.content::BrowserContext"**
  store %"class.content::BrowserContext"* %1, %"class.content::BrowserContext"** %11, align 8
  %12 = getelementptr inbounds i8, i8* %4, i64 24
  %13 = bitcast i8* %12 to %"class.content::NotificationRegistrar"*
  tail call void @_ZN7content21NotificationRegistrarC1Ev(%"class.content::NotificationRegistrar"* %13) #9
  %14 = bitcast %"class.content::Source"* %3 to i8*
  call void @llvm.lifetime.start.p0i8(i64 8, i8* nonnull %14) #9
  %15 = getelementptr inbounds %"class.content::Source", %"class.content::Source"* %3, i64 0, i32 0, i32 0
  store i8* null, i8** %15, align 8, !alias.scope !6
  %16 = getelementptr inbounds %"class.content::Source", %"class.content::Source"* %3, i64 0, i32 0
  call void @_ZN7content21NotificationRegistrar3AddEPNS_20NotificationObserverEiRKNS_18NotificationSourceE(%"class.content::NotificationRegistrar"* %13, %"class.content::NotificationObserver"* nonnull %5, i32 31, %"class.content::NotificationSource"* nonnull dereferenceable(8) %16) #9
  call void @llvm.lifetime.end.p0i8(i64 8, i8* nonnull %14) #9
  ret %class.KeyedService* %8
}

declare void @_ZN33BrowserContextKeyedServiceFactory22BrowserContextShutdownEPN7content14BrowserContextE(%class.BrowserContextKeyedServiceFactory*, %"class.content::BrowserContext"*) unnamed_addr #1

; Function Attrs: nounwind ssp uwtable
define linkonce_odr hidden void @_ZN33BrowserContextKeyedServiceFactory20RegisterProfilePrefsEPN10user_prefs20PrefRegistrySyncableE(%class.BrowserContextKeyedServiceFactory*, %"class.user_prefs::PrefRegistrySyncable"*) unnamed_addr #0 comdat align 2 {
  ret void
}

declare %class.Profile* @_ZN7Profile18FromBrowserContextEPN7content14BrowserContextE(%"class.content::BrowserContext"*) local_unnamed_addr #1

; Function Attrs: nobuiltin nofree
declare noalias nonnull i8* @_Znwm(i64) local_unnamed_addr #8

attributes #0 = { nounwind ssp uwtable "correctly-rounded-divide-sqrt-fp-math"="false" "disable-tail-calls"="false" "less-precise-fpmad"="false" "min-legal-vector-width"="0" "no-frame-pointer-elim"="false" "no-frame-pointer-elim-non-leaf" "no-infs-fp-math"="false" "no-jump-tables"="false" "no-nans-fp-math"="false" "no-signed-zeros-fp-math"="false" "no-trapping-math"="false" "null-pointer-is-valid"="true" "stack-protector-buffer-size"="4" "target-cpu"="x86-64" "target-features"="+cx8,+fxsr,+mmx,+sse,+sse2,+sse3,+x87" "unsafe-fp-math"="false" "use-soft-float"="false" }
attributes #1 = { "correctly-rounded-divide-sqrt-fp-math"="false" "disable-tail-calls"="false" "less-precise-fpmad"="false" "no-frame-pointer-elim"="false" "no-frame-pointer-elim-non-leaf" "no-infs-fp-math"="false" "no-nans-fp-math"="false" "no-signed-zeros-fp-math"="false" "no-trapping-math"="false" "null-pointer-is-valid"="true" "stack-protector-buffer-size"="4" "target-cpu"="x86-64" "target-features"="+cx8,+fxsr,+mmx,+sse,+sse2,+sse3,+x87" "unsafe-fp-math"="false" "use-soft-float"="false" }
attributes #2 = { argmemonly nounwind }
attributes #3 = { nounwind "correctly-rounded-divide-sqrt-fp-math"="false" "disable-tail-calls"="false" "less-precise-fpmad"="false" "no-frame-pointer-elim"="false" "no-frame-pointer-elim-non-leaf" "no-infs-fp-math"="false" "no-nans-fp-math"="false" "no-signed-zeros-fp-math"="false" "no-trapping-math"="false" "null-pointer-is-valid"="true" "stack-protector-buffer-size"="4" "target-cpu"="x86-64" "target-features"="+cx8,+fxsr,+mmx,+sse,+sse2,+sse3,+x87" "unsafe-fp-math"="false" "use-soft-float"="false" }
attributes #4 = { nobuiltin nounwind "correctly-rounded-divide-sqrt-fp-math"="false" "disable-tail-calls"="false" "less-precise-fpmad"="false" "no-frame-pointer-elim"="false" "no-frame-pointer-elim-non-leaf" "no-infs-fp-math"="false" "no-nans-fp-math"="false" "no-signed-zeros-fp-math"="false" "no-trapping-math"="false" "null-pointer-is-valid"="true" "stack-protector-buffer-size"="4" "target-cpu"="x86-64" "target-features"="+cx8,+fxsr,+mmx,+sse,+sse2,+sse3,+x87" "unsafe-fp-math"="false" "use-soft-float"="false" }
attributes #5 = { nofree nounwind }
attributes #6 = { cold noreturn nounwind }
attributes #7 = { norecurse nounwind readnone ssp uwtable "correctly-rounded-divide-sqrt-fp-math"="false" "disable-tail-calls"="false" "less-precise-fpmad"="false" "min-legal-vector-width"="0" "no-frame-pointer-elim"="false" "no-frame-pointer-elim-non-leaf" "no-infs-fp-math"="false" "no-jump-tables"="false" "no-nans-fp-math"="false" "no-signed-zeros-fp-math"="false" "no-trapping-math"="false" "null-pointer-is-valid"="true" "stack-protector-buffer-size"="4" "target-cpu"="x86-64" "target-features"="+cx8,+fxsr,+mmx,+sse,+sse2,+sse3,+x87" "unsafe-fp-math"="false" "use-soft-float"="false" }
attributes #8 = { nobuiltin nofree "correctly-rounded-divide-sqrt-fp-math"="false" "disable-tail-calls"="false" "less-precise-fpmad"="false" "no-frame-pointer-elim"="false" "no-frame-pointer-elim-non-leaf" "no-infs-fp-math"="false" "no-nans-fp-math"="false" "no-signed-zeros-fp-math"="false" "no-trapping-math"="false" "null-pointer-is-valid"="true" "stack-protector-buffer-size"="4" "target-cpu"="x86-64" "target-features"="+cx8,+fxsr,+mmx,+sse,+sse2,+sse3,+x87" "unsafe-fp-math"="false" "use-soft-float"="false" }
attributes #9 = { nounwind }
attributes #10 = { builtin nounwind }
attributes #11 = { noreturn nounwind }

!llvm.module.flags = !{!0, !1}

!0 = !{i32 1, !"wchar_size", i32 4}
!1 = !{i32 7, !"PIC Level", i32 2}
!2 = !{!3}
!3 = distinct !{!3, !4, !"_ZN7content19NotificationService10AllSourcesEv: argument 0"}
!4 = distinct !{!4, !"_ZN7content19NotificationService10AllSourcesEv"}
!5 = !{!"branch_weights", i32 1, i32 1048575}
!6 = !{!7}
!7 = distinct !{!7, !8, !"_ZN7content19NotificationService10AllSourcesEv: argument 0"}
!8 = distinct !{!8, !"_ZN7content19NotificationService10AllSourcesEv"}
