; ModuleID = '../../content/browser/appcache/appcache_disk_cache_ops.cc'
source_filename = "../../content/browser/appcache/appcache_disk_cache_ops.cc"
target datalayout = "e-m:e-i64:64-f80:128-n8:16:32:64-S128"
target triple = "x86_64-unknown-linux-gnu"

module asm ".symver exp, exp@GLIBC_2.2.5"
module asm ".symver exp2, exp2@GLIBC_2.2.5"
module asm ".symver exp2f, exp2f@GLIBC_2.2.5"
module asm ".symver expf, expf@GLIBC_2.2.5"
module asm ".symver lgamma, lgamma@GLIBC_2.2.5"
module asm ".symver lgammaf, lgammaf@GLIBC_2.2.5"
module asm ".symver lgammal, lgammal@GLIBC_2.2.5"
module asm ".symver log, log@GLIBC_2.2.5"
module asm ".symver log2, log2@GLIBC_2.2.5"
module asm ".symver log2f, log2f@GLIBC_2.2.5"
module asm ".symver logf, logf@GLIBC_2.2.5"
module asm ".symver pow, pow@GLIBC_2.2.5"
module asm ".symver powf, powf@GLIBC_2.2.5"

%"struct.content::HttpResponseInfoIOBuffer" = type <{ %"class.base::RefCountedThreadSafe", [4 x i8], %"class.std::__1::unique_ptr", i32, [4 x i8] }>
%"class.base::RefCountedThreadSafe" = type { %"class.base::subtle::RefCountedThreadSafeBase" }
%"class.base::subtle::RefCountedThreadSafeBase" = type { %"class.base::AtomicRefCount" }
%"class.base::AtomicRefCount" = type { %"struct.std::__1::atomic" }
%"struct.std::__1::atomic" = type { %"struct.std::__1::__atomic_base" }
%"struct.std::__1::__atomic_base" = type { %"struct.std::__1::__atomic_base.0" }
%"struct.std::__1::__atomic_base.0" = type { %"struct.std::__1::__cxx_atomic_impl" }
%"struct.std::__1::__cxx_atomic_impl" = type { %"struct.std::__1::__cxx_atomic_base_impl" }
%"struct.std::__1::__cxx_atomic_base_impl" = type { i32 }
%"class.std::__1::unique_ptr" = type { %"class.std::__1::__compressed_pair" }
%"class.std::__1::__compressed_pair" = type { %"struct.std::__1::__compressed_pair_elem" }
%"struct.std::__1::__compressed_pair_elem" = type { %"class.net::HttpResponseInfo"* }
%"class.net::HttpResponseInfo" = type { i8, i32, i8, i8, i8, i8, i8, %"class.net::ProxyServer", i8, i8, i8, i8, %"class.base::Time", %"class.net::IPEndPoint", %"class.std::__1::basic_string", i32, %"class.base::Time", %"class.base::Time", %"struct.net::ResolveErrorInfo", %"class.absl::optional", %class.scoped_refptr, %"class.net::SSLInfo", %class.scoped_refptr.45, %"class.net::HttpVaryData", %"class.std::__1::vector" }
%"class.net::ProxyServer" = type { i32, [4 x i8], %"class.net::HostPortPair" }
%"class.net::HostPortPair" = type <{ %"class.std::__1::basic_string", i16, [6 x i8] }>
%"class.net::IPEndPoint" = type { %"class.net::IPAddress", i16 }
%"class.net::IPAddress" = type { %"class.net::IPAddressBytes" }
%"class.net::IPAddressBytes" = type { %"struct.std::__1::array", i8 }
%"struct.std::__1::array" = type { [16 x i8] }
%"class.std::__1::basic_string" = type { %"class.std::__1::__compressed_pair.1" }
%"class.std::__1::__compressed_pair.1" = type { %"struct.std::__1::__compressed_pair_elem.2" }
%"struct.std::__1::__compressed_pair_elem.2" = type { %"struct.std::__1::basic_string<char, std::__1::char_traits<char>, std::__1::allocator<char> >::__rep" }
%"struct.std::__1::basic_string<char, std::__1::char_traits<char>, std::__1::allocator<char> >::__rep" = type { %union.anon }
%union.anon = type { %"struct.std::__1::basic_string<char, std::__1::char_traits<char>, std::__1::allocator<char> >::__long" }
%"struct.std::__1::basic_string<char, std::__1::char_traits<char>, std::__1::allocator<char> >::__long" = type { i8*, i64, i64 }
%"class.base::Time" = type { %"class.base::time_internal::TimeBase" }
%"class.base::time_internal::TimeBase" = type { i64 }
%"struct.net::ResolveErrorInfo" = type <{ i32, i8, [3 x i8] }>
%"class.absl::optional" = type { %"class.absl::optional_internal::optional_data" }
%"class.absl::optional_internal::optional_data" = type { %"class.absl::optional_internal::optional_data_base" }
%"class.absl::optional_internal::optional_data_base" = type { %"class.absl::optional_internal::optional_data_dtor_base" }
%"class.absl::optional_internal::optional_data_dtor_base" = type { i8, %union.anon.4 }
%union.anon.4 = type { %"class.net::AuthChallengeInfo" }
%"class.net::AuthChallengeInfo" = type { i8, %"class.url::Origin", %"class.std::__1::basic_string", %"class.std::__1::basic_string", %"class.std::__1::basic_string", %"class.std::__1::basic_string" }
%"class.url::Origin" = type { %"class.url::SchemeHostPort", %"class.absl::optional.5" }
%"class.url::SchemeHostPort" = type <{ %"class.std::__1::basic_string", %"class.std::__1::basic_string", i16, [6 x i8] }>
%"class.absl::optional.5" = type { %"class.absl::optional_internal::optional_data.6" }
%"class.absl::optional_internal::optional_data.6" = type { %"class.absl::optional_internal::optional_data_base.7" }
%"class.absl::optional_internal::optional_data_base.7" = type { %"class.absl::optional_internal::optional_data_dtor_base.8" }
%"class.absl::optional_internal::optional_data_dtor_base.8" = type { i8, %union.anon.9 }
%union.anon.9 = type { %"class.url::Origin::Nonce" }
%"class.url::Origin::Nonce" = type { %"class.base::UnguessableToken" }
%"class.base::UnguessableToken" = type { %"class.base::Token" }
%"class.base::Token" = type { i64, i64 }
%class.scoped_refptr = type { %"class.net::SSLCertRequestInfo"* }
%"class.net::SSLCertRequestInfo" = type opaque
%"class.net::SSLInfo" = type <{ %class.scoped_refptr.10, %class.scoped_refptr.10, i32, i16, i16, i32, i8, i8, i8, i8, i32, [4 x i8], %"class.std::__1::vector.28", %"class.std::__1::basic_string", %"class.std::__1::vector.36", i32, %"struct.net::OCSPVerifyResult", i8, [3 x i8] }>
%class.scoped_refptr.10 = type { %"class.net::X509Certificate"* }
%"class.net::X509Certificate" = type { %"class.base::RefCountedThreadSafe.11", %"struct.net::CertPrincipal", %"struct.net::CertPrincipal", %"class.base::Time", %"class.base::Time", %"class.std::__1::basic_string", %"class.std::__1::unique_ptr.17", %"class.std::__1::vector.21" }
%"class.base::RefCountedThreadSafe.11" = type { %"class.base::subtle::RefCountedThreadSafeBase" }
%"struct.net::CertPrincipal" = type { %"class.std::__1::basic_string", %"class.std::__1::basic_string", %"class.std::__1::basic_string", %"class.std::__1::basic_string", %"class.std::__1::vector", %"class.std::__1::vector", %"class.std::__1::vector", %"class.std::__1::vector" }
%"class.std::__1::unique_ptr.17" = type { %"class.std::__1::__compressed_pair.18" }
%"class.std::__1::__compressed_pair.18" = type { %"struct.std::__1::__compressed_pair_elem.19" }
%"struct.std::__1::__compressed_pair_elem.19" = type { %struct.crypto_buffer_st* }
%struct.crypto_buffer_st = type opaque
%"class.std::__1::vector.21" = type { %"class.std::__1::__vector_base.22" }
%"class.std::__1::__vector_base.22" = type { %"class.std::__1::unique_ptr.17"*, %"class.std::__1::unique_ptr.17"*, %"class.std::__1::__compressed_pair.23" }
%"class.std::__1::__compressed_pair.23" = type { %"struct.std::__1::__compressed_pair_elem.24" }
%"struct.std::__1::__compressed_pair_elem.24" = type { %"class.std::__1::unique_ptr.17"* }
%"class.std::__1::vector.28" = type { %"class.std::__1::__vector_base.29" }
%"class.std::__1::__vector_base.29" = type { %"class.net::HashValue"*, %"class.net::HashValue"*, %"class.std::__1::__compressed_pair.31" }
%"class.net::HashValue" = type { i32, %union.anon.30 }
%union.anon.30 = type { %"struct.net::SHA256HashValue" }
%"struct.net::SHA256HashValue" = type { [32 x i8] }
%"class.std::__1::__compressed_pair.31" = type { %"struct.std::__1::__compressed_pair_elem.32" }
%"struct.std::__1::__compressed_pair_elem.32" = type { %"class.net::HashValue"* }
%"class.std::__1::vector.36" = type { %"class.std::__1::__vector_base.37" }
%"class.std::__1::__vector_base.37" = type { %"struct.net::SignedCertificateTimestampAndStatus"*, %"struct.net::SignedCertificateTimestampAndStatus"*, %"class.std::__1::__compressed_pair.40" }
%"struct.net::SignedCertificateTimestampAndStatus" = type <{ %class.scoped_refptr.38, i32, [4 x i8] }>
%class.scoped_refptr.38 = type { %"struct.net::ct::SignedCertificateTimestamp"* }
%"struct.net::ct::SignedCertificateTimestamp" = type { %"class.base::RefCountedThreadSafe.39", i32, %"class.std::__1::basic_string", %"class.base::Time", %"class.std::__1::basic_string", %"struct.net::ct::DigitallySigned", i32, %"class.std::__1::basic_string" }
%"class.base::RefCountedThreadSafe.39" = type { %"class.base::subtle::RefCountedThreadSafeBase" }
%"struct.net::ct::DigitallySigned" = type { i32, i32, %"class.std::__1::basic_string" }
%"class.std::__1::__compressed_pair.40" = type { %"struct.std::__1::__compressed_pair_elem.41" }
%"struct.std::__1::__compressed_pair_elem.41" = type { %"struct.net::SignedCertificateTimestampAndStatus"* }
%"struct.net::OCSPVerifyResult" = type { i32, i32 }
%class.scoped_refptr.45 = type { %"class.net::HttpResponseHeaders"* }
%"class.net::HttpResponseHeaders" = type opaque
%"class.net::HttpVaryData" = type { %"struct.base::MD5Digest", i8 }
%"struct.base::MD5Digest" = type { [16 x i8] }
%"class.std::__1::vector" = type { %"class.std::__1::__vector_base" }
%"class.std::__1::__vector_base" = type { %"class.std::__1::basic_string"*, %"class.std::__1::basic_string"*, %"class.std::__1::__compressed_pair.12" }
%"class.std::__1::__compressed_pair.12" = type { %"struct.std::__1::__compressed_pair_elem.13" }
%"struct.std::__1::__compressed_pair_elem.13" = type { %"class.std::__1::basic_string"* }
%"class.content::AppCacheResponseIO" = type { i32 (...)**, i64, %"class.base::WeakPtr", %"class.content::AppCacheDiskCacheEntry"*, %class.scoped_refptr.79, %class.scoped_refptr.80, %class.scoped_refptr.82, i32, %"class.base::OnceCallback", %"class.base::OnceCallback" }
%"class.base::WeakPtr" = type { %"class.base::internal::WeakPtrBase" }
%"class.base::internal::WeakPtrBase" = type { %"class.base::internal::WeakReference", i64 }
%"class.base::internal::WeakReference" = type { %class.scoped_refptr.47 }
%class.scoped_refptr.47 = type { %"class.base::internal::WeakReference::Flag"* }
%"class.base::internal::WeakReference::Flag" = type <{ %"class.base::RefCountedThreadSafe.48", %"class.base::AtomicFlag", [3 x i8] }>
%"class.base::RefCountedThreadSafe.48" = type { %"class.base::subtle::RefCountedThreadSafeBase" }
%"class.base::AtomicFlag" = type { %"struct.std::__1::atomic.49" }
%"struct.std::__1::atomic.49" = type { %"struct.std::__1::__atomic_base.50" }
%"struct.std::__1::__atomic_base.50" = type { %"struct.std::__1::__atomic_base.51" }
%"struct.std::__1::__atomic_base.51" = type { %"struct.std::__1::__cxx_atomic_impl.52" }
%"struct.std::__1::__cxx_atomic_impl.52" = type { %"struct.std::__1::__cxx_atomic_base_impl.53" }
%"struct.std::__1::__cxx_atomic_base_impl.53" = type { i8 }
%"class.content::AppCacheDiskCacheEntry" = type { %"class.disk_cache::Entry"*, %"class.content::AppCacheDiskCache"* }
%"class.disk_cache::Entry" = type { i32 (...)** }
%"class.content::AppCacheDiskCache" = type { i32 (...)**, i8, i8, i8, %"class.base::OnceCallback", %class.scoped_refptr.56, %"class.std::__1::vector.57", %"class.std::__1::set", %"class.std::__1::unique_ptr.72", %"class.base::WeakPtrFactory" }
%class.scoped_refptr.56 = type { %"class.content::AppCacheDiskCache::CreateBackendCallbackShim"* }
%"class.content::AppCacheDiskCache::CreateBackendCallbackShim" = type opaque
%"class.std::__1::vector.57" = type { %"class.std::__1::__vector_base.58" }
%"class.std::__1::__vector_base.58" = type { %"struct.content::AppCacheDiskCache::PendingCall"*, %"struct.content::AppCacheDiskCache::PendingCall"*, %"class.std::__1::__compressed_pair.59" }
%"struct.content::AppCacheDiskCache::PendingCall" = type { i32, i64, %"class.content::AppCacheDiskCacheEntry"**, %"class.base::OnceCallback" }
%"class.std::__1::__compressed_pair.59" = type { %"struct.std::__1::__compressed_pair_elem.60" }
%"struct.std::__1::__compressed_pair_elem.60" = type { %"struct.content::AppCacheDiskCache::PendingCall"* }
%"class.std::__1::set" = type { %"class.std::__1::__tree" }
%"class.std::__1::__tree" = type { %"class.std::__1::__tree_end_node"*, %"class.std::__1::__compressed_pair.64", %"class.std::__1::__compressed_pair.69" }
%"class.std::__1::__tree_end_node" = type { %"class.std::__1::__tree_node_base"* }
%"class.std::__1::__tree_node_base" = type <{ %"class.std::__1::__tree_end_node", %"class.std::__1::__tree_node_base"*, %"class.std::__1::__tree_end_node"*, i8, [7 x i8] }>
%"class.std::__1::__compressed_pair.64" = type { %"struct.std::__1::__compressed_pair_elem.65" }
%"struct.std::__1::__compressed_pair_elem.65" = type { %"class.std::__1::__tree_end_node" }
%"class.std::__1::__compressed_pair.69" = type { %"struct.std::__1::__compressed_pair_elem.70" }
%"struct.std::__1::__compressed_pair_elem.70" = type { i64 }
%"class.std::__1::unique_ptr.72" = type { %"class.std::__1::__compressed_pair.73" }
%"class.std::__1::__compressed_pair.73" = type { %"struct.std::__1::__compressed_pair_elem.74" }
%"struct.std::__1::__compressed_pair_elem.74" = type { %"class.disk_cache::Backend"* }
%"class.disk_cache::Backend" = type <{ i32 (...)**, i32, [4 x i8] }>
%"class.base::WeakPtrFactory" = type { %"class.base::internal::WeakPtrFactoryBase" }
%"class.base::internal::WeakPtrFactoryBase" = type { %"class.base::internal::WeakReferenceOwner", i64 }
%"class.base::internal::WeakReferenceOwner" = type { %class.scoped_refptr.78 }
%class.scoped_refptr.78 = type { %"class.base::internal::WeakReference::Flag"* }
%class.scoped_refptr.79 = type { %"struct.content::HttpResponseInfoIOBuffer"* }
%class.scoped_refptr.80 = type { %"class.net::IOBuffer"* }
%"class.net::IOBuffer" = type { i32 (...)**, %"class.base::RefCountedThreadSafe.81", i8* }
%"class.base::RefCountedThreadSafe.81" = type { %"class.base::subtle::RefCountedThreadSafeBase" }
%class.scoped_refptr.82 = type { %"class.net::IOBufferWithSize"* }
%"class.net::IOBufferWithSize" = type <{ %"class.net::IOBuffer", i32, [4 x i8] }>
%"class.base::OnceCallback" = type { %"class.base::internal::CallbackBase" }
%"class.base::internal::CallbackBase" = type { %class.scoped_refptr.54 }
%class.scoped_refptr.54 = type { %"class.base::internal::BindStateBase"* }
%"class.base::internal::BindStateBase" = type { %"class.base::RefCountedThreadSafe.55", void ()*, void (%"class.base::internal::BindStateBase"*)*, i1 (%"class.base::internal::BindStateBase"*, i32)* }
%"class.base::RefCountedThreadSafe.55" = type { %"class.base::subtle::RefCountedThreadSafeBase" }
%"class.content::AppCacheResponseReader" = type { %"class.content::AppCacheResponseIO", i32, i32, i32, i32, %"class.base::WeakPtrFactory.87" }
%"class.base::WeakPtrFactory.87" = type { %"class.base::internal::WeakPtrFactoryBase" }
%"class.content::AppCacheResponseWriter" = type { %"class.content::AppCacheResponseIO", i32, i32, i32, i32, %"class.base::WeakPtrFactory.89" }
%"class.base::WeakPtrFactory.89" = type { %"class.base::internal::WeakPtrFactoryBase" }
%"class.content::AppCacheResponseMetadataWriter" = type { %"class.content::AppCacheResponseIO", i32, %"class.base::WeakPtrFactory.104" }
%"class.base::WeakPtrFactory.104" = type { %"class.base::internal::WeakPtrFactoryBase" }
%"class.base::Location" = type { i8*, i8*, i32, i8* }
%"class.base::OnceCallback.85" = type { %"class.base::internal::CallbackBase" }
%"class.base::WeakPtr.86" = type { %"class.base::internal::WeakPtrBase" }
%class.scoped_refptr.83 = type { %"class.base::SingleThreadTaskRunner"* }
%"class.base::SingleThreadTaskRunner" = type { %"class.base::SequencedTaskRunner.base", [4 x i8] }
%"class.base::SequencedTaskRunner.base" = type { %"class.base::TaskRunner.base" }
%"class.base::TaskRunner.base" = type <{ i32 (...)**, %"class.base::RefCountedThreadSafe.84" }>
%"class.base::RefCountedThreadSafe.84" = type { %"class.base::subtle::RefCountedThreadSafeBase" }
%"class.base::TaskRunner" = type <{ i32 (...)**, %"class.base::RefCountedThreadSafe.84", [4 x i8] }>
%"class.logging::CheckError" = type { %"class.logging::LogMessage"* }
%"class.logging::LogMessage" = type { i32 (...)**, i32, %"class.std::__1::basic_ostringstream", i64, i8*, i32, %"class.base::ScopedClearLastErrorBase" }
%"class.std::__1::basic_ostringstream" = type { %"class.std::__1::basic_ostream.base", %"class.std::__1::basic_stringbuf", %"class.std::__1::basic_ios.base" }
%"class.std::__1::basic_ostream.base" = type { i32 (...)** }
%"class.std::__1::basic_stringbuf" = type <{ %"class.std::__1::basic_streambuf", %"class.std::__1::basic_string", i8*, i32, [4 x i8] }>
%"class.std::__1::basic_streambuf" = type { i32 (...)**, %"class.std::__1::locale", i8*, i8*, i8*, i8*, i8*, i8* }
%"class.std::__1::locale" = type { %"class.std::__1::locale::__imp"* }
%"class.std::__1::locale::__imp" = type opaque
%"class.std::__1::basic_ios.base" = type <{ %"class.std::__1::ios_base", %"class.std::__1::basic_ostream"*, i32 }>
%"class.std::__1::ios_base" = type { i32 (...)**, i32, i64, i64, i32, i32, i8*, i8*, void (i32, %"class.std::__1::ios_base"*, i32)**, i32*, i64, i64, i64*, i64, i64, i8**, i64, i64 }
%"class.std::__1::basic_ostream" = type { i32 (...)**, %"class.std::__1::basic_ios.base" }
%"class.base::ScopedClearLastErrorBase" = type { i32 }
%"class.base::Pickle" = type { i32 (...)**, %"struct.base::Pickle::Header"*, i64, i64, i64 }
%"struct.base::Pickle::Header" = type { i32 }
%"class.base::WeakPtr.88" = type { %"class.base::internal::WeakPtrBase" }
%"class.base::WeakPtr.103" = type { %"class.base::internal::WeakPtrBase" }
%"class.net::WrappedIOBuffer" = type { %"class.net::IOBuffer" }
%"class.base::WeakPtr.105" = type { %"class.base::internal::WeakPtrBase" }
%"class.content::(anonymous namespace)::WrappedPickleIOBuffer" = type { %"class.net::WrappedIOBuffer", %"class.std::__1::unique_ptr.97" }
%"class.std::__1::unique_ptr.97" = type { %"class.std::__1::__compressed_pair.98" }
%"class.std::__1::__compressed_pair.98" = type { %"struct.std::__1::__compressed_pair_elem.99" }
%"struct.std::__1::__compressed_pair_elem.99" = type { %"class.base::Pickle"* }

$_ZN7content18AppCacheResponseIO19OnOpenEntryCompleteEv = comdat any

$_ZN4base8internal7InvokerINS0_9BindStateIMN7content18AppCacheResponseIOEFviEJNS_7WeakPtrIS4_EEiEEEFvvEE7RunOnceEPNS0_13BindStateBaseE = comdat any

$_ZN4base8internal9BindStateIMN7content18AppCacheResponseIOEFviEJNS_7WeakPtrIS3_EEiEE7DestroyEPKNS0_13BindStateBaseE = comdat any

$_ZN4base8internal23QueryCancellationTraitsINS0_9BindStateIMN7content18AppCacheResponseIOEFviEJNS_7WeakPtrIS4_EEiEEEEEbPKNS0_13BindStateBaseENSA_21CancellationQueryModeE = comdat any

$_ZN4base8internal7InvokerINS0_9BindStateIMN7content18AppCacheResponseIOEFviEJNS_7WeakPtrIS4_EEEEEFviEE7RunOnceEPNS0_13BindStateBaseEi = comdat any

$_ZN4base8internal9BindStateIMN7content18AppCacheResponseIOEFviEJNS_7WeakPtrIS3_EEEE7DestroyEPKNS0_13BindStateBaseE = comdat any

$_ZN4base8internal23QueryCancellationTraitsINS0_9BindStateIMN7content18AppCacheResponseIOEFviEJNS_7WeakPtrIS4_EEEEEEEbPKNS0_13BindStateBaseENSA_21CancellationQueryModeE = comdat any

$_ZN4base8internal7InvokerINS0_9BindStateIPFvNS_7WeakPtrIN7content18AppCacheResponseIOEEEPPNS4_22AppCacheDiskCacheEntryEiEJS6_S9_EEEFviEE7RunOnceEPNS0_13BindStateBaseEi = comdat any

$_ZN4base8internal9BindStateIPFvNS_7WeakPtrIN7content18AppCacheResponseIOEEEPPNS3_22AppCacheDiskCacheEntryEiEJS5_S8_EE7DestroyEPKNS0_13BindStateBaseE = comdat any

$_ZN4base8internal7InvokerINS0_9BindStateIPFvNS_7WeakPtrIN7content22AppCacheResponseWriterEEEPPNS4_22AppCacheDiskCacheEntryEiEJS6_S9_EEEFviEE7RunOnceEPNS0_13BindStateBaseEi = comdat any

$_ZN4base8internal9BindStateIPFvNS_7WeakPtrIN7content22AppCacheResponseWriterEEEPPNS3_22AppCacheDiskCacheEntryEiEJS5_S8_EE7DestroyEPKNS0_13BindStateBaseE = comdat any

$_ZN4base8internal7InvokerINS0_9BindStateIPFvNS_7WeakPtrIN7content22AppCacheResponseWriterEEEPPNS4_22AppCacheDiskCacheEntryEiEJS6_DnEEEFviEE7RunOnceEPNS0_13BindStateBaseEi = comdat any

$_ZN4base8internal9BindStateIPFvNS_7WeakPtrIN7content22AppCacheResponseWriterEEEPPNS3_22AppCacheDiskCacheEntryEiEJS5_DnEE7DestroyEPKNS0_13BindStateBaseE = comdat any

@_ZN7content24HttpResponseInfoIOBuffer24kUnknownResponseDataSizeE = hidden local_unnamed_addr constant i32 -1, align 4
@_ZTVN7content18AppCacheResponseIOE = hidden unnamed_addr constant { [7 x i8*] } { [7 x i8*] [i8* null, i8* null, i8* bitcast (void (%"class.content::AppCacheResponseIO"*)* @_ZN7content18AppCacheResponseIOD2Ev to i8*), i8* bitcast (void (%"class.content::AppCacheResponseIO"*)* @_ZN7content18AppCacheResponseIOD0Ev to i8*), i8* bitcast (void ()* @__cxa_pure_virtual to i8*), i8* bitcast (void (%"class.content::AppCacheResponseIO"*)* @_ZN7content18AppCacheResponseIO19OnOpenEntryCompleteEv to i8*), i8* bitcast (void ()* @__cxa_pure_virtual to i8*)] }, align 8
@.str = private unnamed_addr constant [29 x i8] c"ScheduleIOCompletionCallback\00", align 1
@.str.1 = private unnamed_addr constant [58 x i8] c"../../content/browser/appcache/appcache_disk_cache_ops.cc\00", align 1
@_ZTVN7content22AppCacheResponseReaderE = hidden unnamed_addr constant { [9 x i8*] } { [9 x i8*] [i8* null, i8* null, i8* bitcast (void (%"class.content::AppCacheResponseReader"*)* @_ZN7content22AppCacheResponseReaderD2Ev to i8*), i8* bitcast (void (%"class.content::AppCacheResponseReader"*)* @_ZN7content22AppCacheResponseReaderD0Ev to i8*), i8* bitcast (void (%"class.content::AppCacheResponseReader"*, i32)* @_ZN7content22AppCacheResponseReader12OnIOCompleteEi to i8*), i8* bitcast (void (%"class.content::AppCacheResponseReader"*)* @_ZN7content22AppCacheResponseReader19OnOpenEntryCompleteEv to i8*), i8* bitcast (void (%"class.base::WeakPtr.86"*, %"class.content::AppCacheResponseReader"*)* @_ZN7content22AppCacheResponseReader10GetWeakPtrEv to i8*), i8* bitcast (void (%"class.content::AppCacheResponseReader"*, %"struct.content::HttpResponseInfoIOBuffer"*, %"class.base::OnceCallback"*)* @_ZN7content22AppCacheResponseReader8ReadInfoEPNS_24HttpResponseInfoIOBufferEN4base12OnceCallbackIFviEEE to i8*), i8* bitcast (void (%"class.content::AppCacheResponseReader"*, %"class.net::IOBuffer"*, i32, %"class.base::OnceCallback"*)* @_ZN7content22AppCacheResponseReader8ReadDataEPN3net8IOBufferEiN4base12OnceCallbackIFviEEE to i8*)] }, align 8
@_ZTVN7content22AppCacheResponseWriterE = hidden unnamed_addr constant { [9 x i8*] } { [9 x i8*] [i8* null, i8* null, i8* bitcast (void (%"class.content::AppCacheResponseWriter"*)* @_ZN7content22AppCacheResponseWriterD2Ev to i8*), i8* bitcast (void (%"class.content::AppCacheResponseWriter"*)* @_ZN7content22AppCacheResponseWriterD0Ev to i8*), i8* bitcast (void (%"class.content::AppCacheResponseWriter"*, i32)* @_ZN7content22AppCacheResponseWriter12OnIOCompleteEi to i8*), i8* bitcast (void (%"class.content::AppCacheResponseIO"*)* @_ZN7content18AppCacheResponseIO19OnOpenEntryCompleteEv to i8*), i8* bitcast (void (%"class.base::WeakPtr.86"*, %"class.content::AppCacheResponseWriter"*)* @_ZN7content22AppCacheResponseWriter10GetWeakPtrEv to i8*), i8* bitcast (void (%"class.content::AppCacheResponseWriter"*, %"struct.content::HttpResponseInfoIOBuffer"*, %"class.base::OnceCallback"*)* @_ZN7content22AppCacheResponseWriter9WriteInfoEPNS_24HttpResponseInfoIOBufferEN4base12OnceCallbackIFviEEE to i8*), i8* bitcast (void (%"class.content::AppCacheResponseWriter"*, %"class.net::IOBuffer"*, i32, %"class.base::OnceCallback"*)* @_ZN7content22AppCacheResponseWriter9WriteDataEPN3net8IOBufferEiN4base12OnceCallbackIFviEEE to i8*)] }, align 8
@_ZTVN7content30AppCacheResponseMetadataWriterE = hidden unnamed_addr constant { [7 x i8*] } { [7 x i8*] [i8* null, i8* null, i8* bitcast (void (%"class.content::AppCacheResponseMetadataWriter"*)* @_ZN7content30AppCacheResponseMetadataWriterD2Ev to i8*), i8* bitcast (void (%"class.content::AppCacheResponseMetadataWriter"*)* @_ZN7content30AppCacheResponseMetadataWriterD0Ev to i8*), i8* bitcast (void (%"class.content::AppCacheResponseMetadataWriter"*, i32)* @_ZN7content30AppCacheResponseMetadataWriter12OnIOCompleteEi to i8*), i8* bitcast (void (%"class.content::AppCacheResponseMetadataWriter"*)* @_ZN7content30AppCacheResponseMetadataWriter19OnOpenEntryCompleteEv to i8*), i8* bitcast (void (%"class.base::WeakPtr.86"*, %"class.content::AppCacheResponseMetadataWriter"*)* @_ZN7content30AppCacheResponseMetadataWriter10GetWeakPtrEv to i8*)] }, align 8
@.str.2 = private unnamed_addr constant [29 x i8] c"../../base/memory/weak_ptr.h\00", align 1
@.str.3 = private unnamed_addr constant [15 x i8] c"ref_.IsValid()\00", align 1
@_ZTVN7content12_GLOBAL__N_121WrappedPickleIOBufferE = internal unnamed_addr constant { [4 x i8*] } { [4 x i8*] [i8* null, i8* null, i8* bitcast (void (%"class.content::(anonymous namespace)::WrappedPickleIOBuffer"*)* @_ZN7content12_GLOBAL__N_121WrappedPickleIOBufferD2Ev to i8*), i8* bitcast (void (%"class.content::(anonymous namespace)::WrappedPickleIOBuffer"*)* @_ZN7content12_GLOBAL__N_121WrappedPickleIOBufferD0Ev to i8*)] }, align 8

@_ZN7content24HttpResponseInfoIOBufferC1Ev = hidden unnamed_addr alias void (%"struct.content::HttpResponseInfoIOBuffer"*), void (%"struct.content::HttpResponseInfoIOBuffer"*)* @_ZN7content24HttpResponseInfoIOBufferC2Ev
@_ZN7content24HttpResponseInfoIOBufferC1ENSt3__110unique_ptrIN3net16HttpResponseInfoENS1_14default_deleteIS4_EEEE = hidden unnamed_addr alias void (%"struct.content::HttpResponseInfoIOBuffer"*, %"class.net::HttpResponseInfo"*), void (%"struct.content::HttpResponseInfoIOBuffer"*, %"class.net::HttpResponseInfo"*)* @_ZN7content24HttpResponseInfoIOBufferC2ENSt3__110unique_ptrIN3net16HttpResponseInfoENS1_14default_deleteIS4_EEEE
@_ZN7content24HttpResponseInfoIOBufferD1Ev = hidden unnamed_addr alias void (%"struct.content::HttpResponseInfoIOBuffer"*), void (%"struct.content::HttpResponseInfoIOBuffer"*)* @_ZN7content24HttpResponseInfoIOBufferD2Ev
@_ZN7content18AppCacheResponseIOD1Ev = hidden unnamed_addr alias void (%"class.content::AppCacheResponseIO"*), void (%"class.content::AppCacheResponseIO"*)* @_ZN7content18AppCacheResponseIOD2Ev
@_ZN7content22AppCacheResponseReaderC1ElN4base7WeakPtrINS_17AppCacheDiskCacheEEE = hidden unnamed_addr alias void (%"class.content::AppCacheResponseReader"*, i64, %"class.base::WeakPtr"*), void (%"class.content::AppCacheResponseReader"*, i64, %"class.base::WeakPtr"*)* @_ZN7content22AppCacheResponseReaderC2ElN4base7WeakPtrINS_17AppCacheDiskCacheEEE
@_ZN7content22AppCacheResponseReaderD1Ev = hidden unnamed_addr alias void (%"class.content::AppCacheResponseReader"*), void (%"class.content::AppCacheResponseReader"*)* @_ZN7content22AppCacheResponseReaderD2Ev
@_ZN7content22AppCacheResponseWriterC1ElN4base7WeakPtrINS_17AppCacheDiskCacheEEE = hidden unnamed_addr alias void (%"class.content::AppCacheResponseWriter"*, i64, %"class.base::WeakPtr"*), void (%"class.content::AppCacheResponseWriter"*, i64, %"class.base::WeakPtr"*)* @_ZN7content22AppCacheResponseWriterC2ElN4base7WeakPtrINS_17AppCacheDiskCacheEEE
@_ZN7content22AppCacheResponseWriterD1Ev = hidden unnamed_addr alias void (%"class.content::AppCacheResponseWriter"*), void (%"class.content::AppCacheResponseWriter"*)* @_ZN7content22AppCacheResponseWriterD2Ev
@_ZN7content30AppCacheResponseMetadataWriterC1ElN4base7WeakPtrINS_17AppCacheDiskCacheEEE = hidden unnamed_addr alias void (%"class.content::AppCacheResponseMetadataWriter"*, i64, %"class.base::WeakPtr"*), void (%"class.content::AppCacheResponseMetadataWriter"*, i64, %"class.base::WeakPtr"*)* @_ZN7content30AppCacheResponseMetadataWriterC2ElN4base7WeakPtrINS_17AppCacheDiskCacheEEE
@_ZN7content30AppCacheResponseMetadataWriterD1Ev = hidden unnamed_addr alias void (%"class.content::AppCacheResponseMetadataWriter"*), void (%"class.content::AppCacheResponseMetadataWriter"*)* @_ZN7content30AppCacheResponseMetadataWriterD2Ev

; Function Attrs: nofree norecurse nounwind ssp uwtable writeonly
define hidden void @_ZN7content24HttpResponseInfoIOBufferC2Ev(%"struct.content::HttpResponseInfoIOBuffer"* nocapture) unnamed_addr #0 align 2 {
  %2 = getelementptr inbounds %"struct.content::HttpResponseInfoIOBuffer", %"struct.content::HttpResponseInfoIOBuffer"* %0, i64 0, i32 0, i32 0, i32 0, i32 0, i32 0, i32 0, i32 0, i32 0, i32 0
  store i32 0, i32* %2, align 4
  %3 = getelementptr inbounds %"struct.content::HttpResponseInfoIOBuffer", %"struct.content::HttpResponseInfoIOBuffer"* %0, i64 0, i32 2
  %4 = bitcast %"class.std::__1::unique_ptr"* %3 to i64*
  store i64 0, i64* %4, align 8
  %5 = getelementptr inbounds %"struct.content::HttpResponseInfoIOBuffer", %"struct.content::HttpResponseInfoIOBuffer"* %0, i64 0, i32 3
  store i32 -1, i32* %5, align 8
  ret void
}

; Function Attrs: nounwind ssp uwtable
define hidden void @_ZN7content24HttpResponseInfoIOBufferC2ENSt3__110unique_ptrIN3net16HttpResponseInfoENS1_14default_deleteIS4_EEEE(%"struct.content::HttpResponseInfoIOBuffer"* nocapture, %"class.net::HttpResponseInfo"*) unnamed_addr #1 align 2 {
  %3 = ptrtoint %"class.net::HttpResponseInfo"* %1 to i64
  %4 = getelementptr inbounds %"struct.content::HttpResponseInfoIOBuffer", %"struct.content::HttpResponseInfoIOBuffer"* %0, i64 0, i32 0, i32 0, i32 0, i32 0, i32 0, i32 0, i32 0, i32 0, i32 0
  store i32 0, i32* %4, align 4
  %5 = getelementptr inbounds %"struct.content::HttpResponseInfoIOBuffer", %"struct.content::HttpResponseInfoIOBuffer"* %0, i64 0, i32 2
  %6 = bitcast %"class.std::__1::unique_ptr"* %5 to i64*
  store i64 %3, i64* %6, align 8
  %7 = getelementptr inbounds %"struct.content::HttpResponseInfoIOBuffer", %"struct.content::HttpResponseInfoIOBuffer"* %0, i64 0, i32 3
  store i32 -1, i32* %7, align 8
  ret void
}

; Function Attrs: nounwind ssp uwtable
define hidden void @_ZN7content24HttpResponseInfoIOBufferD2Ev(%"struct.content::HttpResponseInfoIOBuffer"* nocapture) unnamed_addr #1 align 2 {
  %2 = getelementptr inbounds %"struct.content::HttpResponseInfoIOBuffer", %"struct.content::HttpResponseInfoIOBuffer"* %0, i64 0, i32 2, i32 0, i32 0, i32 0
  %3 = load %"class.net::HttpResponseInfo"*, %"class.net::HttpResponseInfo"** %2, align 8
  store %"class.net::HttpResponseInfo"* null, %"class.net::HttpResponseInfo"** %2, align 8
  %4 = icmp eq %"class.net::HttpResponseInfo"* %3, null
  br i1 %4, label %7, label %5

5:                                                ; preds = %1
  tail call void @_ZN3net16HttpResponseInfoD1Ev(%"class.net::HttpResponseInfo"* nonnull %3) #9
  %6 = getelementptr inbounds %"class.net::HttpResponseInfo", %"class.net::HttpResponseInfo"* %3, i64 0, i32 0
  tail call void @_ZdlPv(i8* %6) #10
  br label %7

7:                                                ; preds = %1, %5
  ret void
}

; Function Attrs: nounwind ssp uwtable
define hidden void @_ZN7content18AppCacheResponseIOC2ElN4base7WeakPtrINS_17AppCacheDiskCacheEEE(%"class.content::AppCacheResponseIO"*, i64, %"class.base::WeakPtr"*) unnamed_addr #1 align 2 {
  %4 = getelementptr inbounds %"class.content::AppCacheResponseIO", %"class.content::AppCacheResponseIO"* %0, i64 0, i32 0
  store i32 (...)** bitcast (i8** getelementptr inbounds ({ [7 x i8*] }, { [7 x i8*] }* @_ZTVN7content18AppCacheResponseIOE, i64 0, inrange i32 0, i64 2) to i32 (...)**), i32 (...)*** %4, align 8
  %5 = getelementptr inbounds %"class.content::AppCacheResponseIO", %"class.content::AppCacheResponseIO"* %0, i64 0, i32 1
  store i64 %1, i64* %5, align 8
  %6 = getelementptr inbounds %"class.content::AppCacheResponseIO", %"class.content::AppCacheResponseIO"* %0, i64 0, i32 2, i32 0, i32 0
  %7 = getelementptr inbounds %"class.base::WeakPtr", %"class.base::WeakPtr"* %2, i64 0, i32 0, i32 0
  tail call void @_ZN4base8internal13WeakReferenceC1EOS1_(%"class.base::internal::WeakReference"* %6, %"class.base::internal::WeakReference"* dereferenceable(8) %7) #9
  %8 = getelementptr inbounds %"class.content::AppCacheResponseIO", %"class.content::AppCacheResponseIO"* %0, i64 0, i32 2, i32 0, i32 1
  %9 = getelementptr inbounds %"class.base::WeakPtr", %"class.base::WeakPtr"* %2, i64 0, i32 0, i32 1
  %10 = load i64, i64* %9, align 8
  store i64 %10, i64* %8, align 8
  %11 = getelementptr inbounds %"class.content::AppCacheResponseIO", %"class.content::AppCacheResponseIO"* %0, i64 0, i32 3
  %12 = getelementptr inbounds %"class.content::AppCacheResponseIO", %"class.content::AppCacheResponseIO"* %0, i64 0, i32 8, i32 0, i32 0, i32 0
  %13 = bitcast %"class.content::AppCacheDiskCacheEntry"** %11 to i8*
  call void @llvm.memset.p0i8.i64(i8* align 8 %13, i8 0, i64 36, i1 false)
  %14 = bitcast %"class.base::internal::BindStateBase"** %12 to i8*
  call void @llvm.memset.p0i8.i64(i8* align 8 %14, i8 0, i64 16, i1 false)
  ret void
}

; Function Attrs: nounwind ssp uwtable
define hidden void @_ZN7content18AppCacheResponseIOD2Ev(%"class.content::AppCacheResponseIO"*) unnamed_addr #1 align 2 {
  %2 = getelementptr inbounds %"class.content::AppCacheResponseIO", %"class.content::AppCacheResponseIO"* %0, i64 0, i32 0
  store i32 (...)** bitcast (i8** getelementptr inbounds ({ [7 x i8*] }, { [7 x i8*] }* @_ZTVN7content18AppCacheResponseIOE, i64 0, inrange i32 0, i64 2) to i32 (...)**), i32 (...)*** %2, align 8
  %3 = getelementptr inbounds %"class.content::AppCacheResponseIO", %"class.content::AppCacheResponseIO"* %0, i64 0, i32 3
  %4 = load %"class.content::AppCacheDiskCacheEntry"*, %"class.content::AppCacheDiskCacheEntry"** %3, align 8
  %5 = icmp eq %"class.content::AppCacheDiskCacheEntry"* %4, null
  br i1 %5, label %7, label %6

6:                                                ; preds = %1
  tail call void @_ZN7content22AppCacheDiskCacheEntry5CloseEv(%"class.content::AppCacheDiskCacheEntry"* nonnull %4) #9
  br label %7

7:                                                ; preds = %1, %6
  %8 = getelementptr inbounds %"class.content::AppCacheResponseIO", %"class.content::AppCacheResponseIO"* %0, i64 0, i32 9, i32 0
  tail call void @_ZN4base8internal12CallbackBaseD2Ev(%"class.base::internal::CallbackBase"* %8) #9
  %9 = getelementptr inbounds %"class.content::AppCacheResponseIO", %"class.content::AppCacheResponseIO"* %0, i64 0, i32 8, i32 0
  tail call void @_ZN4base8internal12CallbackBaseD2Ev(%"class.base::internal::CallbackBase"* %9) #9
  %10 = getelementptr inbounds %"class.content::AppCacheResponseIO", %"class.content::AppCacheResponseIO"* %0, i64 0, i32 6, i32 0
  %11 = load %"class.net::IOBufferWithSize"*, %"class.net::IOBufferWithSize"** %10, align 8
  %12 = icmp eq %"class.net::IOBufferWithSize"* %11, null
  br i1 %12, label %25, label %13

13:                                               ; preds = %7
  %14 = getelementptr inbounds %"class.net::IOBufferWithSize", %"class.net::IOBufferWithSize"* %11, i64 0, i32 0, i32 1
  %15 = getelementptr inbounds %"class.base::RefCountedThreadSafe.81", %"class.base::RefCountedThreadSafe.81"* %14, i64 0, i32 0, i32 0, i32 0, i32 0, i32 0, i32 0, i32 0, i32 0
  %16 = atomicrmw sub i32* %15, i32 1 acq_rel
  %17 = icmp eq i32 %16, 1
  br i1 %17, label %18, label %25

18:                                               ; preds = %13
  %19 = getelementptr inbounds %"class.base::RefCountedThreadSafe.81", %"class.base::RefCountedThreadSafe.81"* %14, i64 -2
  %20 = bitcast %"class.base::RefCountedThreadSafe.81"* %19 to %"class.net::IOBuffer"*
  %21 = bitcast %"class.base::RefCountedThreadSafe.81"* %19 to void (%"class.net::IOBuffer"*)***
  %22 = load void (%"class.net::IOBuffer"*)**, void (%"class.net::IOBuffer"*)*** %21, align 8
  %23 = getelementptr inbounds void (%"class.net::IOBuffer"*)*, void (%"class.net::IOBuffer"*)** %22, i64 1
  %24 = load void (%"class.net::IOBuffer"*)*, void (%"class.net::IOBuffer"*)** %23, align 8
  tail call void %24(%"class.net::IOBuffer"* nonnull %20) #9
  br label %25

25:                                               ; preds = %7, %13, %18
  %26 = getelementptr inbounds %"class.content::AppCacheResponseIO", %"class.content::AppCacheResponseIO"* %0, i64 0, i32 5, i32 0
  %27 = load %"class.net::IOBuffer"*, %"class.net::IOBuffer"** %26, align 8
  %28 = icmp eq %"class.net::IOBuffer"* %27, null
  br i1 %28, label %41, label %29

29:                                               ; preds = %25
  %30 = getelementptr inbounds %"class.net::IOBuffer", %"class.net::IOBuffer"* %27, i64 0, i32 1
  %31 = getelementptr inbounds %"class.base::RefCountedThreadSafe.81", %"class.base::RefCountedThreadSafe.81"* %30, i64 0, i32 0, i32 0, i32 0, i32 0, i32 0, i32 0, i32 0, i32 0
  %32 = atomicrmw sub i32* %31, i32 1 acq_rel
  %33 = icmp eq i32 %32, 1
  br i1 %33, label %34, label %41

34:                                               ; preds = %29
  %35 = getelementptr inbounds %"class.base::RefCountedThreadSafe.81", %"class.base::RefCountedThreadSafe.81"* %30, i64 -2
  %36 = bitcast %"class.base::RefCountedThreadSafe.81"* %35 to %"class.net::IOBuffer"*
  %37 = bitcast %"class.base::RefCountedThreadSafe.81"* %35 to void (%"class.net::IOBuffer"*)***
  %38 = load void (%"class.net::IOBuffer"*)**, void (%"class.net::IOBuffer"*)*** %37, align 8
  %39 = getelementptr inbounds void (%"class.net::IOBuffer"*)*, void (%"class.net::IOBuffer"*)** %38, i64 1
  %40 = load void (%"class.net::IOBuffer"*)*, void (%"class.net::IOBuffer"*)** %39, align 8
  tail call void %40(%"class.net::IOBuffer"* nonnull %36) #9
  br label %41

41:                                               ; preds = %25, %29, %34
  %42 = getelementptr inbounds %"class.content::AppCacheResponseIO", %"class.content::AppCacheResponseIO"* %0, i64 0, i32 4, i32 0
  %43 = load %"struct.content::HttpResponseInfoIOBuffer"*, %"struct.content::HttpResponseInfoIOBuffer"** %42, align 8
  %44 = icmp eq %"struct.content::HttpResponseInfoIOBuffer"* %43, null
  br i1 %44, label %59, label %45

45:                                               ; preds = %41
  %46 = getelementptr inbounds %"struct.content::HttpResponseInfoIOBuffer", %"struct.content::HttpResponseInfoIOBuffer"* %43, i64 0, i32 0, i32 0, i32 0, i32 0, i32 0, i32 0, i32 0, i32 0, i32 0
  %47 = atomicrmw sub i32* %46, i32 1 acq_rel
  %48 = icmp eq i32 %47, 1
  br i1 %48, label %49, label %59

49:                                               ; preds = %45
  %50 = getelementptr inbounds %"struct.content::HttpResponseInfoIOBuffer", %"struct.content::HttpResponseInfoIOBuffer"* %43, i64 0, i32 0
  %51 = getelementptr inbounds %"class.base::RefCountedThreadSafe", %"class.base::RefCountedThreadSafe"* %50, i64 2
  %52 = bitcast %"class.base::RefCountedThreadSafe"* %51 to %"class.net::HttpResponseInfo"**
  %53 = load %"class.net::HttpResponseInfo"*, %"class.net::HttpResponseInfo"** %52, align 8
  store %"class.net::HttpResponseInfo"* null, %"class.net::HttpResponseInfo"** %52, align 8
  %54 = icmp eq %"class.net::HttpResponseInfo"* %53, null
  br i1 %54, label %57, label %55

55:                                               ; preds = %49
  tail call void @_ZN3net16HttpResponseInfoD1Ev(%"class.net::HttpResponseInfo"* nonnull %53) #9
  %56 = getelementptr inbounds %"class.net::HttpResponseInfo", %"class.net::HttpResponseInfo"* %53, i64 0, i32 0
  tail call void @_ZdlPv(i8* %56) #10
  br label %57

57:                                               ; preds = %55, %49
  %58 = bitcast %"struct.content::HttpResponseInfoIOBuffer"* %43 to i8*
  tail call void @_ZdlPv(i8* %58) #10
  br label %59

59:                                               ; preds = %41, %45, %57
  %60 = getelementptr inbounds %"class.content::AppCacheResponseIO", %"class.content::AppCacheResponseIO"* %0, i64 0, i32 2, i32 0
  tail call void @_ZN4base8internal11WeakPtrBaseD2Ev(%"class.base::internal::WeakPtrBase"* %60) #9
  ret void
}

declare void @_ZN7content22AppCacheDiskCacheEntry5CloseEv(%"class.content::AppCacheDiskCacheEntry"*) local_unnamed_addr #2

; Function Attrs: nounwind
declare void @_ZN4base8internal12CallbackBaseD2Ev(%"class.base::internal::CallbackBase"*) unnamed_addr #3

; Function Attrs: noreturn nounwind ssp uwtable
define hidden void @_ZN7content18AppCacheResponseIOD0Ev(%"class.content::AppCacheResponseIO"* nocapture readnone) unnamed_addr #4 align 2 {
  tail call void @llvm.trap() #11
  unreachable
}

; Function Attrs: cold noreturn nounwind
declare void @llvm.trap() #5

; Function Attrs: nounwind ssp uwtable
define hidden void @_ZN7content18AppCacheResponseIO28ScheduleIOCompletionCallbackEi(%"class.content::AppCacheResponseIO"*, i32) local_unnamed_addr #1 align 2 {
  %3 = alloca %"class.base::Location", align 8
  %4 = alloca %"class.base::OnceCallback.85", align 8
  %5 = alloca %"class.base::WeakPtr.86", align 8
  %6 = tail call dereferenceable(8) %class.scoped_refptr.83* @_ZN4base22ThreadTaskRunnerHandle3GetEv() #9
  %7 = bitcast %class.scoped_refptr.83* %6 to %"class.base::TaskRunner"**
  %8 = load %"class.base::TaskRunner"*, %"class.base::TaskRunner"** %7, align 8
  %9 = bitcast %"class.base::Location"* %3 to i8*
  call void @llvm.lifetime.start.p0i8(i64 32, i8* nonnull %9) #9
  call void @_ZN4base8Location7CurrentEPKcS2_i(%"class.base::Location"* nonnull sret %3, i8* getelementptr inbounds ([29 x i8], [29 x i8]* @.str, i64 0, i64 0), i8* getelementptr inbounds ([58 x i8], [58 x i8]* @.str.1, i64 0, i64 0), i32 78) #9
  %10 = bitcast %"class.base::WeakPtr.86"* %5 to i8*
  call void @llvm.lifetime.start.p0i8(i64 16, i8* nonnull %10) #9
  %11 = bitcast %"class.content::AppCacheResponseIO"* %0 to void (%"class.base::WeakPtr.86"*, %"class.content::AppCacheResponseIO"*)***
  %12 = load void (%"class.base::WeakPtr.86"*, %"class.content::AppCacheResponseIO"*)**, void (%"class.base::WeakPtr.86"*, %"class.content::AppCacheResponseIO"*)*** %11, align 8
  %13 = getelementptr inbounds void (%"class.base::WeakPtr.86"*, %"class.content::AppCacheResponseIO"*)*, void (%"class.base::WeakPtr.86"*, %"class.content::AppCacheResponseIO"*)** %12, i64 4
  %14 = load void (%"class.base::WeakPtr.86"*, %"class.content::AppCacheResponseIO"*)*, void (%"class.base::WeakPtr.86"*, %"class.content::AppCacheResponseIO"*)** %13, align 8
  call void %14(%"class.base::WeakPtr.86"* nonnull sret %5, %"class.content::AppCacheResponseIO"* %0) #9
  %15 = call i8* @_Znwm(i64 72) #10, !noalias !2
  %16 = bitcast i8* %15 to %"class.base::internal::BindStateBase"*
  call void @_ZN4base8internal13BindStateBaseC2EPFvvEPFvPKS1_EPFbS5_NS1_21CancellationQueryModeEE(%"class.base::internal::BindStateBase"* nonnull %16, void ()* bitcast (void (%"class.base::internal::BindStateBase"*)* @_ZN4base8internal7InvokerINS0_9BindStateIMN7content18AppCacheResponseIOEFviEJNS_7WeakPtrIS4_EEiEEEFvvEE7RunOnceEPNS0_13BindStateBaseE to void ()*), void (%"class.base::internal::BindStateBase"*)* nonnull @_ZN4base8internal9BindStateIMN7content18AppCacheResponseIOEFviEJNS_7WeakPtrIS3_EEiEE7DestroyEPKNS0_13BindStateBaseE, i1 (%"class.base::internal::BindStateBase"*, i32)* nonnull @_ZN4base8internal23QueryCancellationTraitsINS0_9BindStateIMN7content18AppCacheResponseIOEFviEJNS_7WeakPtrIS4_EEiEEEEEbPKNS0_13BindStateBaseENSA_21CancellationQueryModeE) #9, !noalias !2
  %17 = getelementptr inbounds i8, i8* %15, i64 32
  %18 = bitcast i8* %17 to <2 x i64>*
  store <2 x i64> <i64 17, i64 0>, <2 x i64>* %18, align 8, !noalias !2
  %19 = getelementptr inbounds i8, i8* %15, i64 48
  %20 = bitcast i8* %19 to %"class.base::internal::WeakReference"*
  %21 = getelementptr inbounds %"class.base::WeakPtr.86", %"class.base::WeakPtr.86"* %5, i64 0, i32 0, i32 0
  call void @_ZN4base8internal13WeakReferenceC1EOS1_(%"class.base::internal::WeakReference"* %20, %"class.base::internal::WeakReference"* nonnull dereferenceable(8) %21) #9, !noalias !2
  %22 = getelementptr inbounds i8, i8* %15, i64 56
  %23 = bitcast i8* %22 to i64*
  %24 = getelementptr inbounds %"class.base::WeakPtr.86", %"class.base::WeakPtr.86"* %5, i64 0, i32 0, i32 1
  %25 = load i64, i64* %24, align 8, !noalias !2
  store i64 %25, i64* %23, align 8, !noalias !2
  %26 = getelementptr inbounds i8, i8* %15, i64 64
  %27 = bitcast i8* %26 to i32*
  store i32 %1, i32* %27, align 4, !noalias !2
  %28 = bitcast %"class.base::OnceCallback.85"* %4 to i8**
  store i8* %15, i8** %28, align 8, !alias.scope !2
  %29 = call zeroext i1 @_ZN4base10TaskRunner8PostTaskERKNS_8LocationENS_12OnceCallbackIFvvEEE(%"class.base::TaskRunner"* %8, %"class.base::Location"* nonnull dereferenceable(32) %3, %"class.base::OnceCallback.85"* nonnull %4) #9
  %30 = getelementptr inbounds %"class.base::OnceCallback.85", %"class.base::OnceCallback.85"* %4, i64 0, i32 0
  call void @_ZN4base8internal12CallbackBaseD2Ev(%"class.base::internal::CallbackBase"* nonnull %30) #9
  %31 = getelementptr inbounds %"class.base::WeakPtr.86", %"class.base::WeakPtr.86"* %5, i64 0, i32 0
  call void @_ZN4base8internal11WeakPtrBaseD2Ev(%"class.base::internal::WeakPtrBase"* nonnull %31) #9
  call void @llvm.lifetime.end.p0i8(i64 16, i8* nonnull %10) #9
  call void @llvm.lifetime.end.p0i8(i64 32, i8* nonnull %9) #9
  ret void
}

declare dereferenceable(8) %class.scoped_refptr.83* @_ZN4base22ThreadTaskRunnerHandle3GetEv() local_unnamed_addr #2

declare zeroext i1 @_ZN4base10TaskRunner8PostTaskERKNS_8LocationENS_12OnceCallbackIFvvEEE(%"class.base::TaskRunner"*, %"class.base::Location"* dereferenceable(32), %"class.base::OnceCallback.85"*) local_unnamed_addr #2

; Function Attrs: argmemonly nounwind
declare void @llvm.lifetime.start.p0i8(i64 immarg, i8* nocapture) #6

declare void @_ZN4base8Location7CurrentEPKcS2_i(%"class.base::Location"* sret, i8*, i8*, i32) local_unnamed_addr #2

; Function Attrs: argmemonly nounwind
declare void @llvm.lifetime.end.p0i8(i64 immarg, i8* nocapture) #6

; Function Attrs: nounwind ssp uwtable
define hidden void @_ZN7content18AppCacheResponseIO28InvokeUserCompletionCallbackEi(%"class.content::AppCacheResponseIO"*, i32) local_unnamed_addr #1 align 2 {
  %3 = alloca %"class.base::OnceCallback", align 8
  %4 = alloca %"class.base::OnceCallback", align 8
  %5 = getelementptr inbounds %"class.content::AppCacheResponseIO", %"class.content::AppCacheResponseIO"* %0, i64 0, i32 5
  %6 = bitcast %class.scoped_refptr.80* %5 to i64*
  %7 = getelementptr inbounds %class.scoped_refptr.80, %class.scoped_refptr.80* %5, i64 0, i32 0
  %8 = load %"class.net::IOBuffer"*, %"class.net::IOBuffer"** %7, align 8
  store i64 0, i64* %6, align 8
  %9 = icmp eq %"class.net::IOBuffer"* %8, null
  br i1 %9, label %22, label %10

10:                                               ; preds = %2
  %11 = getelementptr inbounds %"class.net::IOBuffer", %"class.net::IOBuffer"* %8, i64 0, i32 1
  %12 = getelementptr inbounds %"class.base::RefCountedThreadSafe.81", %"class.base::RefCountedThreadSafe.81"* %11, i64 0, i32 0, i32 0, i32 0, i32 0, i32 0, i32 0, i32 0, i32 0
  %13 = atomicrmw sub i32* %12, i32 1 acq_rel
  %14 = icmp eq i32 %13, 1
  br i1 %14, label %15, label %22

15:                                               ; preds = %10
  %16 = getelementptr inbounds %"class.base::RefCountedThreadSafe.81", %"class.base::RefCountedThreadSafe.81"* %11, i64 -2
  %17 = bitcast %"class.base::RefCountedThreadSafe.81"* %16 to %"class.net::IOBuffer"*
  %18 = bitcast %"class.base::RefCountedThreadSafe.81"* %16 to void (%"class.net::IOBuffer"*)***
  %19 = load void (%"class.net::IOBuffer"*)**, void (%"class.net::IOBuffer"*)*** %18, align 8
  %20 = getelementptr inbounds void (%"class.net::IOBuffer"*)*, void (%"class.net::IOBuffer"*)** %19, i64 1
  %21 = load void (%"class.net::IOBuffer"*)*, void (%"class.net::IOBuffer"*)** %20, align 8
  tail call void %21(%"class.net::IOBuffer"* nonnull %17) #9
  br label %22

22:                                               ; preds = %2, %10, %15
  %23 = getelementptr inbounds %"class.content::AppCacheResponseIO", %"class.content::AppCacheResponseIO"* %0, i64 0, i32 4
  %24 = bitcast %class.scoped_refptr.79* %23 to i64*
  %25 = getelementptr inbounds %class.scoped_refptr.79, %class.scoped_refptr.79* %23, i64 0, i32 0
  %26 = load %"struct.content::HttpResponseInfoIOBuffer"*, %"struct.content::HttpResponseInfoIOBuffer"** %25, align 8
  store i64 0, i64* %24, align 8
  %27 = icmp eq %"struct.content::HttpResponseInfoIOBuffer"* %26, null
  br i1 %27, label %42, label %28

28:                                               ; preds = %22
  %29 = getelementptr inbounds %"struct.content::HttpResponseInfoIOBuffer", %"struct.content::HttpResponseInfoIOBuffer"* %26, i64 0, i32 0, i32 0, i32 0, i32 0, i32 0, i32 0, i32 0, i32 0, i32 0
  %30 = atomicrmw sub i32* %29, i32 1 acq_rel
  %31 = icmp eq i32 %30, 1
  br i1 %31, label %32, label %42

32:                                               ; preds = %28
  %33 = getelementptr inbounds %"struct.content::HttpResponseInfoIOBuffer", %"struct.content::HttpResponseInfoIOBuffer"* %26, i64 0, i32 0
  %34 = getelementptr inbounds %"class.base::RefCountedThreadSafe", %"class.base::RefCountedThreadSafe"* %33, i64 2
  %35 = bitcast %"class.base::RefCountedThreadSafe"* %34 to %"class.net::HttpResponseInfo"**
  %36 = load %"class.net::HttpResponseInfo"*, %"class.net::HttpResponseInfo"** %35, align 8
  store %"class.net::HttpResponseInfo"* null, %"class.net::HttpResponseInfo"** %35, align 8
  %37 = icmp eq %"class.net::HttpResponseInfo"* %36, null
  br i1 %37, label %40, label %38

38:                                               ; preds = %32
  tail call void @_ZN3net16HttpResponseInfoD1Ev(%"class.net::HttpResponseInfo"* nonnull %36) #9
  %39 = getelementptr inbounds %"class.net::HttpResponseInfo", %"class.net::HttpResponseInfo"* %36, i64 0, i32 0
  tail call void @_ZdlPv(i8* %39) #10
  br label %40

40:                                               ; preds = %38, %32
  %41 = bitcast %"struct.content::HttpResponseInfoIOBuffer"* %26 to i8*
  tail call void @_ZdlPv(i8* %41) #10
  br label %42

42:                                               ; preds = %22, %28, %40
  %43 = bitcast %"class.base::OnceCallback"* %4 to i8*
  call void @llvm.lifetime.start.p0i8(i64 8, i8* nonnull %43) #9
  %44 = getelementptr inbounds %"class.base::OnceCallback", %"class.base::OnceCallback"* %4, i64 0, i32 0, i32 0, i32 0
  %45 = getelementptr inbounds %"class.content::AppCacheResponseIO", %"class.content::AppCacheResponseIO"* %0, i64 0, i32 8
  %46 = getelementptr inbounds %"class.base::OnceCallback", %"class.base::OnceCallback"* %45, i64 0, i32 0, i32 0, i32 0
  %47 = bitcast %"class.base::OnceCallback"* %45 to i64*
  %48 = load i64, i64* %47, align 8
  store %"class.base::internal::BindStateBase"* null, %"class.base::internal::BindStateBase"** %46, align 8
  %49 = getelementptr inbounds %"class.base::OnceCallback", %"class.base::OnceCallback"* %45, i64 0, i32 0
  tail call void @_ZN4base8internal12CallbackBase5ResetEv(%"class.base::internal::CallbackBase"* %49) #9
  %50 = bitcast %"class.base::OnceCallback"* %3 to i8*
  call void @llvm.lifetime.start.p0i8(i64 8, i8* nonnull %50) #9
  %51 = bitcast %"class.base::OnceCallback"* %3 to i64*
  store i64 %48, i64* %51, align 8
  store %"class.base::internal::BindStateBase"* null, %"class.base::internal::BindStateBase"** %44, align 8
  %52 = getelementptr inbounds %"class.base::OnceCallback", %"class.base::OnceCallback"* %3, i64 0, i32 0
  %53 = inttoptr i64 %48 to %"class.base::internal::BindStateBase"*
  %54 = getelementptr inbounds %"class.base::internal::BindStateBase", %"class.base::internal::BindStateBase"* %53, i64 0, i32 1
  %55 = bitcast void ()** %54 to void (%"class.base::internal::BindStateBase"*, i32)**
  %56 = load void (%"class.base::internal::BindStateBase"*, i32)*, void (%"class.base::internal::BindStateBase"*, i32)** %55, align 8
  tail call void %56(%"class.base::internal::BindStateBase"* %53, i32 %1) #9
  call void @_ZN4base8internal12CallbackBaseD2Ev(%"class.base::internal::CallbackBase"* nonnull %52) #9
  call void @llvm.lifetime.end.p0i8(i64 8, i8* nonnull %50) #9
  %57 = getelementptr inbounds %"class.base::OnceCallback", %"class.base::OnceCallback"* %4, i64 0, i32 0
  call void @_ZN4base8internal12CallbackBaseD2Ev(%"class.base::internal::CallbackBase"* nonnull %57) #9
  call void @llvm.lifetime.end.p0i8(i64 8, i8* nonnull %43) #9
  ret void
}

declare void @_ZN4base8internal12CallbackBase5ResetEv(%"class.base::internal::CallbackBase"*) local_unnamed_addr #2

; Function Attrs: nounwind ssp uwtable
define hidden void @_ZN7content18AppCacheResponseIO7ReadRawEiiPN3net8IOBufferEi(%"class.content::AppCacheResponseIO"*, i32, i32, %"class.net::IOBuffer"*, i32) local_unnamed_addr #1 align 2 {
  %6 = alloca %"class.base::OnceCallback", align 8
  %7 = alloca %"class.base::WeakPtr.86", align 8
  %8 = getelementptr inbounds %"class.content::AppCacheResponseIO", %"class.content::AppCacheResponseIO"* %0, i64 0, i32 3
  %9 = load %"class.content::AppCacheDiskCacheEntry"*, %"class.content::AppCacheDiskCacheEntry"** %8, align 8
  %10 = sext i32 %2 to i64
  %11 = bitcast %"class.base::WeakPtr.86"* %7 to i8*
  call void @llvm.lifetime.start.p0i8(i64 16, i8* nonnull %11) #9
  %12 = bitcast %"class.content::AppCacheResponseIO"* %0 to void (%"class.base::WeakPtr.86"*, %"class.content::AppCacheResponseIO"*)***
  %13 = load void (%"class.base::WeakPtr.86"*, %"class.content::AppCacheResponseIO"*)**, void (%"class.base::WeakPtr.86"*, %"class.content::AppCacheResponseIO"*)*** %12, align 8
  %14 = getelementptr inbounds void (%"class.base::WeakPtr.86"*, %"class.content::AppCacheResponseIO"*)*, void (%"class.base::WeakPtr.86"*, %"class.content::AppCacheResponseIO"*)** %13, i64 4
  %15 = load void (%"class.base::WeakPtr.86"*, %"class.content::AppCacheResponseIO"*)*, void (%"class.base::WeakPtr.86"*, %"class.content::AppCacheResponseIO"*)** %14, align 8
  call void %15(%"class.base::WeakPtr.86"* nonnull sret %7, %"class.content::AppCacheResponseIO"* %0) #9
  %16 = call i8* @_Znwm(i64 64) #10, !noalias !7
  %17 = bitcast i8* %16 to %"class.base::internal::BindStateBase"*
  call void @_ZN4base8internal13BindStateBaseC2EPFvvEPFvPKS1_EPFbS5_NS1_21CancellationQueryModeEE(%"class.base::internal::BindStateBase"* nonnull %17, void ()* bitcast (void (%"class.base::internal::BindStateBase"*, i32)* @_ZN4base8internal7InvokerINS0_9BindStateIMN7content18AppCacheResponseIOEFviEJNS_7WeakPtrIS4_EEEEEFviEE7RunOnceEPNS0_13BindStateBaseEi to void ()*), void (%"class.base::internal::BindStateBase"*)* nonnull @_ZN4base8internal9BindStateIMN7content18AppCacheResponseIOEFviEJNS_7WeakPtrIS3_EEEE7DestroyEPKNS0_13BindStateBaseE, i1 (%"class.base::internal::BindStateBase"*, i32)* nonnull @_ZN4base8internal23QueryCancellationTraitsINS0_9BindStateIMN7content18AppCacheResponseIOEFviEJNS_7WeakPtrIS4_EEEEEEEbPKNS0_13BindStateBaseENSA_21CancellationQueryModeE) #9, !noalias !7
  %18 = getelementptr inbounds i8, i8* %16, i64 32
  %19 = bitcast i8* %18 to <2 x i64>*
  store <2 x i64> <i64 ptrtoint (void (%"class.content::AppCacheResponseIO"*, i32)* @_ZN7content18AppCacheResponseIO15OnRawIOCompleteEi to i64), i64 0>, <2 x i64>* %19, align 8, !noalias !7
  %20 = getelementptr inbounds i8, i8* %16, i64 48
  %21 = bitcast i8* %20 to %"class.base::internal::WeakReference"*
  %22 = getelementptr inbounds %"class.base::WeakPtr.86", %"class.base::WeakPtr.86"* %7, i64 0, i32 0, i32 0
  call void @_ZN4base8internal13WeakReferenceC1EOS1_(%"class.base::internal::WeakReference"* %21, %"class.base::internal::WeakReference"* nonnull dereferenceable(8) %22) #9, !noalias !7
  %23 = getelementptr inbounds i8, i8* %16, i64 56
  %24 = bitcast i8* %23 to i64*
  %25 = getelementptr inbounds %"class.base::WeakPtr.86", %"class.base::WeakPtr.86"* %7, i64 0, i32 0, i32 1
  %26 = load i64, i64* %25, align 8, !noalias !7
  store i64 %26, i64* %24, align 8, !noalias !7
  %27 = bitcast %"class.base::OnceCallback"* %6 to i8**
  store i8* %16, i8** %27, align 8, !alias.scope !7
  %28 = call i32 @_ZN7content22AppCacheDiskCacheEntry4ReadEilPN3net8IOBufferEiN4base12OnceCallbackIFviEEE(%"class.content::AppCacheDiskCacheEntry"* %9, i32 %1, i64 %10, %"class.net::IOBuffer"* %3, i32 %4, %"class.base::OnceCallback"* nonnull %6) #9
  %29 = getelementptr inbounds %"class.base::OnceCallback", %"class.base::OnceCallback"* %6, i64 0, i32 0
  call void @_ZN4base8internal12CallbackBaseD2Ev(%"class.base::internal::CallbackBase"* nonnull %29) #9
  %30 = getelementptr inbounds %"class.base::WeakPtr.86", %"class.base::WeakPtr.86"* %7, i64 0, i32 0
  call void @_ZN4base8internal11WeakPtrBaseD2Ev(%"class.base::internal::WeakPtrBase"* nonnull %30) #9
  call void @llvm.lifetime.end.p0i8(i64 16, i8* nonnull %11) #9
  %31 = icmp eq i32 %28, -1
  br i1 %31, label %33, label %32

32:                                               ; preds = %5
  call void @_ZN7content18AppCacheResponseIO28ScheduleIOCompletionCallbackEi(%"class.content::AppCacheResponseIO"* %0, i32 %28)
  br label %33

33:                                               ; preds = %5, %32
  ret void
}

declare i32 @_ZN7content22AppCacheDiskCacheEntry4ReadEilPN3net8IOBufferEiN4base12OnceCallbackIFviEEE(%"class.content::AppCacheDiskCacheEntry"*, i32, i64, %"class.net::IOBuffer"*, i32, %"class.base::OnceCallback"*) local_unnamed_addr #2

; Function Attrs: nounwind ssp uwtable
define hidden void @_ZN7content18AppCacheResponseIO15OnRawIOCompleteEi(%"class.content::AppCacheResponseIO"*, i32) #1 align 2 {
  %3 = bitcast %"class.content::AppCacheResponseIO"* %0 to void (%"class.content::AppCacheResponseIO"*, i32)***
  %4 = load void (%"class.content::AppCacheResponseIO"*, i32)**, void (%"class.content::AppCacheResponseIO"*, i32)*** %3, align 8
  %5 = getelementptr inbounds void (%"class.content::AppCacheResponseIO"*, i32)*, void (%"class.content::AppCacheResponseIO"*, i32)** %4, i64 2
  %6 = load void (%"class.content::AppCacheResponseIO"*, i32)*, void (%"class.content::AppCacheResponseIO"*, i32)** %5, align 8
  tail call void %6(%"class.content::AppCacheResponseIO"* %0, i32 %1) #9
  ret void
}

; Function Attrs: nounwind ssp uwtable
define hidden void @_ZN7content18AppCacheResponseIO8WriteRawEiiPN3net8IOBufferEi(%"class.content::AppCacheResponseIO"*, i32, i32, %"class.net::IOBuffer"*, i32) local_unnamed_addr #1 align 2 {
  %6 = alloca %"class.base::OnceCallback", align 8
  %7 = alloca %"class.base::WeakPtr.86", align 8
  %8 = getelementptr inbounds %"class.content::AppCacheResponseIO", %"class.content::AppCacheResponseIO"* %0, i64 0, i32 3
  %9 = load %"class.content::AppCacheDiskCacheEntry"*, %"class.content::AppCacheDiskCacheEntry"** %8, align 8
  %10 = sext i32 %2 to i64
  %11 = bitcast %"class.base::WeakPtr.86"* %7 to i8*
  call void @llvm.lifetime.start.p0i8(i64 16, i8* nonnull %11) #9
  %12 = bitcast %"class.content::AppCacheResponseIO"* %0 to void (%"class.base::WeakPtr.86"*, %"class.content::AppCacheResponseIO"*)***
  %13 = load void (%"class.base::WeakPtr.86"*, %"class.content::AppCacheResponseIO"*)**, void (%"class.base::WeakPtr.86"*, %"class.content::AppCacheResponseIO"*)*** %12, align 8
  %14 = getelementptr inbounds void (%"class.base::WeakPtr.86"*, %"class.content::AppCacheResponseIO"*)*, void (%"class.base::WeakPtr.86"*, %"class.content::AppCacheResponseIO"*)** %13, i64 4
  %15 = load void (%"class.base::WeakPtr.86"*, %"class.content::AppCacheResponseIO"*)*, void (%"class.base::WeakPtr.86"*, %"class.content::AppCacheResponseIO"*)** %14, align 8
  call void %15(%"class.base::WeakPtr.86"* nonnull sret %7, %"class.content::AppCacheResponseIO"* %0) #9
  %16 = call i8* @_Znwm(i64 64) #10, !noalias !12
  %17 = bitcast i8* %16 to %"class.base::internal::BindStateBase"*
  call void @_ZN4base8internal13BindStateBaseC2EPFvvEPFvPKS1_EPFbS5_NS1_21CancellationQueryModeEE(%"class.base::internal::BindStateBase"* nonnull %17, void ()* bitcast (void (%"class.base::internal::BindStateBase"*, i32)* @_ZN4base8internal7InvokerINS0_9BindStateIMN7content18AppCacheResponseIOEFviEJNS_7WeakPtrIS4_EEEEEFviEE7RunOnceEPNS0_13BindStateBaseEi to void ()*), void (%"class.base::internal::BindStateBase"*)* nonnull @_ZN4base8internal9BindStateIMN7content18AppCacheResponseIOEFviEJNS_7WeakPtrIS3_EEEE7DestroyEPKNS0_13BindStateBaseE, i1 (%"class.base::internal::BindStateBase"*, i32)* nonnull @_ZN4base8internal23QueryCancellationTraitsINS0_9BindStateIMN7content18AppCacheResponseIOEFviEJNS_7WeakPtrIS4_EEEEEEEbPKNS0_13BindStateBaseENSA_21CancellationQueryModeE) #9, !noalias !12
  %18 = getelementptr inbounds i8, i8* %16, i64 32
  %19 = bitcast i8* %18 to <2 x i64>*
  store <2 x i64> <i64 ptrtoint (void (%"class.content::AppCacheResponseIO"*, i32)* @_ZN7content18AppCacheResponseIO15OnRawIOCompleteEi to i64), i64 0>, <2 x i64>* %19, align 8, !noalias !12
  %20 = getelementptr inbounds i8, i8* %16, i64 48
  %21 = bitcast i8* %20 to %"class.base::internal::WeakReference"*
  %22 = getelementptr inbounds %"class.base::WeakPtr.86", %"class.base::WeakPtr.86"* %7, i64 0, i32 0, i32 0
  call void @_ZN4base8internal13WeakReferenceC1EOS1_(%"class.base::internal::WeakReference"* %21, %"class.base::internal::WeakReference"* nonnull dereferenceable(8) %22) #9, !noalias !12
  %23 = getelementptr inbounds i8, i8* %16, i64 56
  %24 = bitcast i8* %23 to i64*
  %25 = getelementptr inbounds %"class.base::WeakPtr.86", %"class.base::WeakPtr.86"* %7, i64 0, i32 0, i32 1
  %26 = load i64, i64* %25, align 8, !noalias !12
  store i64 %26, i64* %24, align 8, !noalias !12
  %27 = bitcast %"class.base::OnceCallback"* %6 to i8**
  store i8* %16, i8** %27, align 8, !alias.scope !12
  %28 = call i32 @_ZN7content22AppCacheDiskCacheEntry5WriteEilPN3net8IOBufferEiN4base12OnceCallbackIFviEEE(%"class.content::AppCacheDiskCacheEntry"* %9, i32 %1, i64 %10, %"class.net::IOBuffer"* %3, i32 %4, %"class.base::OnceCallback"* nonnull %6) #9
  %29 = getelementptr inbounds %"class.base::OnceCallback", %"class.base::OnceCallback"* %6, i64 0, i32 0
  call void @_ZN4base8internal12CallbackBaseD2Ev(%"class.base::internal::CallbackBase"* nonnull %29) #9
  %30 = getelementptr inbounds %"class.base::WeakPtr.86", %"class.base::WeakPtr.86"* %7, i64 0, i32 0
  call void @_ZN4base8internal11WeakPtrBaseD2Ev(%"class.base::internal::WeakPtrBase"* nonnull %30) #9
  call void @llvm.lifetime.end.p0i8(i64 16, i8* nonnull %11) #9
  %31 = icmp eq i32 %28, -1
  br i1 %31, label %33, label %32

32:                                               ; preds = %5
  call void @_ZN7content18AppCacheResponseIO28ScheduleIOCompletionCallbackEi(%"class.content::AppCacheResponseIO"* %0, i32 %28)
  br label %33

33:                                               ; preds = %5, %32
  ret void
}

declare i32 @_ZN7content22AppCacheDiskCacheEntry5WriteEilPN3net8IOBufferEiN4base12OnceCallbackIFviEEE(%"class.content::AppCacheDiskCacheEntry"*, i32, i64, %"class.net::IOBuffer"*, i32, %"class.base::OnceCallback"*) local_unnamed_addr #2

; Function Attrs: nounwind ssp uwtable
define hidden void @_ZN7content18AppCacheResponseIO17OpenEntryIfNeededEv(%"class.content::AppCacheResponseIO"*) local_unnamed_addr #1 align 2 {
  %2 = alloca %"class.logging::CheckError", align 8
  %3 = alloca %"class.base::OnceCallback", align 8
  %4 = alloca %"class.base::WeakPtr.86", align 8
  %5 = alloca %"class.base::WeakPtr.86", align 8
  %6 = getelementptr inbounds %"class.content::AppCacheResponseIO", %"class.content::AppCacheResponseIO"* %0, i64 0, i32 3
  %7 = load %"class.content::AppCacheDiskCacheEntry"*, %"class.content::AppCacheDiskCacheEntry"** %6, align 8
  %8 = icmp eq %"class.content::AppCacheDiskCacheEntry"* %7, null
  br i1 %8, label %9, label %56

9:                                                ; preds = %1
  %10 = getelementptr inbounds %"class.content::AppCacheResponseIO", %"class.content::AppCacheResponseIO"* %0, i64 0, i32 2, i32 0, i32 0
  %11 = tail call zeroext i1 @_ZNK4base8internal13WeakReference7IsValidEv(%"class.base::internal::WeakReference"* %10) #9
  br i1 %11, label %12, label %56

12:                                               ; preds = %9
  %13 = getelementptr inbounds %"class.content::AppCacheResponseIO", %"class.content::AppCacheResponseIO"* %0, i64 0, i32 2, i32 0, i32 1
  %14 = bitcast i64* %13 to %"class.content::AppCacheDiskCache"**
  %15 = load %"class.content::AppCacheDiskCache"*, %"class.content::AppCacheDiskCache"** %14, align 8
  %16 = icmp eq %"class.content::AppCacheDiskCache"* %15, null
  br i1 %16, label %56, label %17

17:                                               ; preds = %12
  %18 = tail call i8* @_Znwm(i64 8) #10
  %19 = ptrtoint i8* %18 to i64
  %20 = tail call zeroext i1 @_ZNK4base8internal13WeakReference7IsValidEv(%"class.base::internal::WeakReference"* %10) #9
  br i1 %20, label %24, label %21

21:                                               ; preds = %17
  %22 = bitcast %"class.logging::CheckError"* %2 to i8*
  call void @llvm.lifetime.start.p0i8(i64 8, i8* nonnull %22) #9
  call void @_ZN7logging10CheckError5CheckEPKciS2_(%"class.logging::CheckError"* nonnull sret %2, i8* getelementptr inbounds ([29 x i8], [29 x i8]* @.str.2, i64 0, i64 0), i32 255, i8* getelementptr inbounds ([15 x i8], [15 x i8]* @.str.3, i64 0, i64 0)) #9
  %23 = call dereferenceable(160) %"class.std::__1::basic_ostream"* @_ZN7logging10CheckError6streamEv(%"class.logging::CheckError"* nonnull %2) #9
  call void @_ZN7logging10CheckErrorD1Ev(%"class.logging::CheckError"* nonnull %2) #9
  call void @llvm.lifetime.end.p0i8(i64 8, i8* nonnull %22) #9
  br label %24

24:                                               ; preds = %21, %17
  %25 = call zeroext i1 @_ZNK4base8internal13WeakReference7IsValidEv(%"class.base::internal::WeakReference"* %10) #9
  br i1 %25, label %26, label %28

26:                                               ; preds = %24
  %27 = load %"class.content::AppCacheDiskCache"*, %"class.content::AppCacheDiskCache"** %14, align 8
  br label %28

28:                                               ; preds = %26, %24
  %29 = phi %"class.content::AppCacheDiskCache"* [ %27, %26 ], [ null, %24 ]
  %30 = getelementptr inbounds %"class.content::AppCacheResponseIO", %"class.content::AppCacheResponseIO"* %0, i64 0, i32 1
  %31 = load i64, i64* %30, align 8
  %32 = bitcast i8* %18 to %"class.content::AppCacheDiskCacheEntry"**
  %33 = bitcast %"class.base::WeakPtr.86"* %4 to i8*
  call void @llvm.lifetime.start.p0i8(i64 16, i8* nonnull %33) #9
  %34 = bitcast %"class.content::AppCacheResponseIO"* %0 to void (%"class.base::WeakPtr.86"*, %"class.content::AppCacheResponseIO"*)***
  %35 = load void (%"class.base::WeakPtr.86"*, %"class.content::AppCacheResponseIO"*)**, void (%"class.base::WeakPtr.86"*, %"class.content::AppCacheResponseIO"*)*** %34, align 8
  %36 = getelementptr inbounds void (%"class.base::WeakPtr.86"*, %"class.content::AppCacheResponseIO"*)*, void (%"class.base::WeakPtr.86"*, %"class.content::AppCacheResponseIO"*)** %35, i64 4
  %37 = load void (%"class.base::WeakPtr.86"*, %"class.content::AppCacheResponseIO"*)*, void (%"class.base::WeakPtr.86"*, %"class.content::AppCacheResponseIO"*)** %36, align 8
  call void %37(%"class.base::WeakPtr.86"* nonnull sret %4, %"class.content::AppCacheResponseIO"* %0) #9
  %38 = call i8* @_Znwm(i64 64) #10, !noalias !17
  %39 = bitcast i8* %38 to %"class.base::internal::BindStateBase"*
  call void @_ZN4base8internal13BindStateBaseC2EPFvvEPFvPKS1_E(%"class.base::internal::BindStateBase"* nonnull %39, void ()* bitcast (void (%"class.base::internal::BindStateBase"*, i32)* @_ZN4base8internal7InvokerINS0_9BindStateIPFvNS_7WeakPtrIN7content18AppCacheResponseIOEEEPPNS4_22AppCacheDiskCacheEntryEiEJS6_S9_EEEFviEE7RunOnceEPNS0_13BindStateBaseEi to void ()*), void (%"class.base::internal::BindStateBase"*)* nonnull @_ZN4base8internal9BindStateIPFvNS_7WeakPtrIN7content18AppCacheResponseIOEEEPPNS3_22AppCacheDiskCacheEntryEiEJS5_S8_EE7DestroyEPKNS0_13BindStateBaseE) #9, !noalias !17
  %40 = getelementptr inbounds i8, i8* %38, i64 32
  %41 = bitcast i8* %40 to i64*
  store i64 ptrtoint (void (%"class.base::WeakPtr.86"*, %"class.content::AppCacheDiskCacheEntry"**, i32)* @_ZN7content18AppCacheResponseIO17OpenEntryCallbackEN4base7WeakPtrIS0_EEPPNS_22AppCacheDiskCacheEntryEi to i64), i64* %41, align 8, !noalias !17
  %42 = getelementptr inbounds i8, i8* %38, i64 40
  %43 = bitcast i8* %42 to %"class.base::internal::WeakReference"*
  %44 = getelementptr inbounds %"class.base::WeakPtr.86", %"class.base::WeakPtr.86"* %4, i64 0, i32 0, i32 0
  call void @_ZN4base8internal13WeakReferenceC1EOS1_(%"class.base::internal::WeakReference"* %43, %"class.base::internal::WeakReference"* nonnull dereferenceable(8) %44) #9, !noalias !17
  %45 = getelementptr inbounds i8, i8* %38, i64 48
  %46 = bitcast i8* %45 to i64*
  %47 = getelementptr inbounds %"class.base::WeakPtr.86", %"class.base::WeakPtr.86"* %4, i64 0, i32 0, i32 1
  %48 = load i64, i64* %47, align 8, !noalias !17
  store i64 %48, i64* %46, align 8, !noalias !17
  %49 = getelementptr inbounds i8, i8* %38, i64 56
  %50 = bitcast i8* %49 to i64*
  store i64 %19, i64* %50, align 8, !noalias !17
  %51 = bitcast %"class.base::OnceCallback"* %3 to i8**
  store i8* %38, i8** %51, align 8, !alias.scope !17
  %52 = call i32 @_ZN7content17AppCacheDiskCache9OpenEntryElPPNS_22AppCacheDiskCacheEntryEN4base12OnceCallbackIFviEEE(%"class.content::AppCacheDiskCache"* %29, i64 %31, %"class.content::AppCacheDiskCacheEntry"** nonnull %32, %"class.base::OnceCallback"* nonnull %3) #9
  %53 = getelementptr inbounds %"class.base::OnceCallback", %"class.base::OnceCallback"* %3, i64 0, i32 0
  call void @_ZN4base8internal12CallbackBaseD2Ev(%"class.base::internal::CallbackBase"* nonnull %53) #9
  %54 = getelementptr inbounds %"class.base::WeakPtr.86", %"class.base::WeakPtr.86"* %4, i64 0, i32 0
  call void @_ZN4base8internal11WeakPtrBaseD2Ev(%"class.base::internal::WeakPtrBase"* nonnull %54) #9
  call void @llvm.lifetime.end.p0i8(i64 16, i8* nonnull %33) #9
  %55 = icmp eq i32 %52, -1
  br i1 %55, label %65, label %56

56:                                               ; preds = %12, %9, %1, %28
  %57 = phi i32 [ %52, %28 ], [ -2, %12 ], [ 0, %1 ], [ -2, %9 ]
  %58 = phi i64 [ %19, %28 ], [ 0, %12 ], [ 0, %1 ], [ 0, %9 ]
  %59 = bitcast %"class.content::AppCacheResponseIO"* %0 to void (%"class.base::WeakPtr.86"*, %"class.content::AppCacheResponseIO"*)***
  %60 = load void (%"class.base::WeakPtr.86"*, %"class.content::AppCacheResponseIO"*)**, void (%"class.base::WeakPtr.86"*, %"class.content::AppCacheResponseIO"*)*** %59, align 8
  %61 = getelementptr inbounds void (%"class.base::WeakPtr.86"*, %"class.content::AppCacheResponseIO"*)*, void (%"class.base::WeakPtr.86"*, %"class.content::AppCacheResponseIO"*)** %60, i64 4
  %62 = load void (%"class.base::WeakPtr.86"*, %"class.content::AppCacheResponseIO"*)*, void (%"class.base::WeakPtr.86"*, %"class.content::AppCacheResponseIO"*)** %61, align 8
  call void %62(%"class.base::WeakPtr.86"* nonnull sret %5, %"class.content::AppCacheResponseIO"* %0) #9
  %63 = inttoptr i64 %58 to %"class.content::AppCacheDiskCacheEntry"**
  call void @_ZN7content18AppCacheResponseIO17OpenEntryCallbackEN4base7WeakPtrIS0_EEPPNS_22AppCacheDiskCacheEntryEi(%"class.base::WeakPtr.86"* nonnull %5, %"class.content::AppCacheDiskCacheEntry"** %63, i32 %57)
  %64 = getelementptr inbounds %"class.base::WeakPtr.86", %"class.base::WeakPtr.86"* %5, i64 0, i32 0
  call void @_ZN4base8internal11WeakPtrBaseD2Ev(%"class.base::internal::WeakPtrBase"* nonnull %64) #9
  br label %65

65:                                               ; preds = %28, %56
  ret void
}

; Function Attrs: nobuiltin nofree
declare noalias nonnull i8* @_Znwm(i64) local_unnamed_addr #7

declare i32 @_ZN7content17AppCacheDiskCache9OpenEntryElPPNS_22AppCacheDiskCacheEntryEN4base12OnceCallbackIFviEEE(%"class.content::AppCacheDiskCache"*, i64, %"class.content::AppCacheDiskCacheEntry"**, %"class.base::OnceCallback"*) local_unnamed_addr #2

; Function Attrs: nounwind ssp uwtable
define hidden void @_ZN7content18AppCacheResponseIO17OpenEntryCallbackEN4base7WeakPtrIS0_EEPPNS_22AppCacheDiskCacheEntryEi(%"class.base::WeakPtr.86"*, %"class.content::AppCacheDiskCacheEntry"**, i32) #1 align 2 {
  %4 = alloca %"class.logging::CheckError", align 8
  %5 = alloca %"class.logging::CheckError", align 8
  %6 = alloca %"class.logging::CheckError", align 8
  %7 = getelementptr inbounds %"class.base::WeakPtr.86", %"class.base::WeakPtr.86"* %0, i64 0, i32 0, i32 0
  %8 = tail call zeroext i1 @_ZNK4base8internal13WeakReference7IsValidEv(%"class.base::internal::WeakReference"* %7) #9
  br i1 %8, label %9, label %14

9:                                                ; preds = %3
  %10 = getelementptr inbounds %"class.base::WeakPtr.86", %"class.base::WeakPtr.86"* %0, i64 0, i32 0, i32 1
  %11 = bitcast i64* %10 to %"class.content::AppCacheResponseIO"**
  %12 = load %"class.content::AppCacheResponseIO"*, %"class.content::AppCacheResponseIO"** %11, align 8
  %13 = icmp eq %"class.content::AppCacheResponseIO"* %12, null
  br i1 %13, label %14, label %18

14:                                               ; preds = %9, %3
  %15 = icmp eq %"class.content::AppCacheDiskCacheEntry"** %1, null
  br i1 %15, label %69, label %16

16:                                               ; preds = %14
  %17 = bitcast %"class.content::AppCacheDiskCacheEntry"** %1 to i8*
  tail call void @_ZdlPv(i8* %17) #10
  br label %69

18:                                               ; preds = %9
  %19 = tail call zeroext i1 @_ZNK4base8internal13WeakReference7IsValidEv(%"class.base::internal::WeakReference"* %7) #9
  br i1 %19, label %23, label %20

20:                                               ; preds = %18
  %21 = bitcast %"class.logging::CheckError"* %6 to i8*
  call void @llvm.lifetime.start.p0i8(i64 8, i8* nonnull %21) #9
  call void @_ZN7logging10CheckError5CheckEPKciS2_(%"class.logging::CheckError"* nonnull sret %6, i8* getelementptr inbounds ([29 x i8], [29 x i8]* @.str.2, i64 0, i64 0), i32 255, i8* getelementptr inbounds ([15 x i8], [15 x i8]* @.str.3, i64 0, i64 0)) #9
  %22 = call dereferenceable(160) %"class.std::__1::basic_ostream"* @_ZN7logging10CheckError6streamEv(%"class.logging::CheckError"* nonnull %6) #9
  call void @_ZN7logging10CheckErrorD1Ev(%"class.logging::CheckError"* nonnull %6) #9
  call void @llvm.lifetime.end.p0i8(i64 8, i8* nonnull %21) #9
  br label %23

23:                                               ; preds = %20, %18
  %24 = call zeroext i1 @_ZNK4base8internal13WeakReference7IsValidEv(%"class.base::internal::WeakReference"* %7) #9
  br i1 %24, label %25, label %27

25:                                               ; preds = %23
  %26 = load %"class.content::AppCacheResponseIO"*, %"class.content::AppCacheResponseIO"** %11, align 8
  br label %27

27:                                               ; preds = %23, %25
  %28 = phi %"class.content::AppCacheResponseIO"* [ %26, %25 ], [ null, %23 ]
  %29 = getelementptr inbounds %"class.content::AppCacheResponseIO", %"class.content::AppCacheResponseIO"* %28, i64 0, i32 3
  %30 = load %"class.content::AppCacheDiskCacheEntry"*, %"class.content::AppCacheDiskCacheEntry"** %29, align 8
  %31 = icmp eq %"class.content::AppCacheDiskCacheEntry"* %30, null
  %32 = icmp eq i32 %2, 0
  %33 = and i1 %32, %31
  br i1 %33, label %34, label %49

34:                                               ; preds = %27
  %35 = bitcast %"class.content::AppCacheDiskCacheEntry"** %1 to i64*
  %36 = load i64, i64* %35, align 8
  %37 = call zeroext i1 @_ZNK4base8internal13WeakReference7IsValidEv(%"class.base::internal::WeakReference"* %7) #9
  br i1 %37, label %41, label %38

38:                                               ; preds = %34
  %39 = bitcast %"class.logging::CheckError"* %5 to i8*
  call void @llvm.lifetime.start.p0i8(i64 8, i8* nonnull %39) #9
  call void @_ZN7logging10CheckError5CheckEPKciS2_(%"class.logging::CheckError"* nonnull sret %5, i8* getelementptr inbounds ([29 x i8], [29 x i8]* @.str.2, i64 0, i64 0), i32 255, i8* getelementptr inbounds ([15 x i8], [15 x i8]* @.str.3, i64 0, i64 0)) #9
  %40 = call dereferenceable(160) %"class.std::__1::basic_ostream"* @_ZN7logging10CheckError6streamEv(%"class.logging::CheckError"* nonnull %5) #9
  call void @_ZN7logging10CheckErrorD1Ev(%"class.logging::CheckError"* nonnull %5) #9
  call void @llvm.lifetime.end.p0i8(i64 8, i8* nonnull %39) #9
  br label %41

41:                                               ; preds = %38, %34
  %42 = call zeroext i1 @_ZNK4base8internal13WeakReference7IsValidEv(%"class.base::internal::WeakReference"* %7) #9
  br i1 %42, label %43, label %45

43:                                               ; preds = %41
  %44 = load %"class.content::AppCacheResponseIO"*, %"class.content::AppCacheResponseIO"** %11, align 8
  br label %45

45:                                               ; preds = %41, %43
  %46 = phi %"class.content::AppCacheResponseIO"* [ %44, %43 ], [ null, %41 ]
  %47 = getelementptr inbounds %"class.content::AppCacheResponseIO", %"class.content::AppCacheResponseIO"* %46, i64 0, i32 3
  %48 = bitcast %"class.content::AppCacheDiskCacheEntry"** %47 to i64*
  store i64 %36, i64* %48, align 8
  br label %49

49:                                               ; preds = %27, %45
  %50 = icmp eq %"class.content::AppCacheDiskCacheEntry"** %1, null
  br i1 %50, label %53, label %51

51:                                               ; preds = %49
  %52 = bitcast %"class.content::AppCacheDiskCacheEntry"** %1 to i8*
  call void @_ZdlPv(i8* %52) #10
  br label %53

53:                                               ; preds = %51, %49
  %54 = call zeroext i1 @_ZNK4base8internal13WeakReference7IsValidEv(%"class.base::internal::WeakReference"* %7) #9
  br i1 %54, label %58, label %55

55:                                               ; preds = %53
  %56 = bitcast %"class.logging::CheckError"* %4 to i8*
  call void @llvm.lifetime.start.p0i8(i64 8, i8* nonnull %56) #9
  call void @_ZN7logging10CheckError5CheckEPKciS2_(%"class.logging::CheckError"* nonnull sret %4, i8* getelementptr inbounds ([29 x i8], [29 x i8]* @.str.2, i64 0, i64 0), i32 255, i8* getelementptr inbounds ([15 x i8], [15 x i8]* @.str.3, i64 0, i64 0)) #9
  %57 = call dereferenceable(160) %"class.std::__1::basic_ostream"* @_ZN7logging10CheckError6streamEv(%"class.logging::CheckError"* nonnull %4) #9
  call void @_ZN7logging10CheckErrorD1Ev(%"class.logging::CheckError"* nonnull %4) #9
  call void @llvm.lifetime.end.p0i8(i64 8, i8* nonnull %56) #9
  br label %58

58:                                               ; preds = %55, %53
  %59 = call zeroext i1 @_ZNK4base8internal13WeakReference7IsValidEv(%"class.base::internal::WeakReference"* %7) #9
  br i1 %59, label %60, label %63

60:                                               ; preds = %58
  %61 = load %"class.content::AppCacheResponseIO"*, %"class.content::AppCacheResponseIO"** %11, align 8
  %62 = bitcast %"class.content::AppCacheResponseIO"* %61 to void (%"class.content::AppCacheResponseIO"*)***
  br label %63

63:                                               ; preds = %58, %60
  %64 = phi void (%"class.content::AppCacheResponseIO"*)*** [ %62, %60 ], [ null, %58 ]
  %65 = phi %"class.content::AppCacheResponseIO"* [ %61, %60 ], [ null, %58 ]
  %66 = load void (%"class.content::AppCacheResponseIO"*)**, void (%"class.content::AppCacheResponseIO"*)*** %64, align 8
  %67 = getelementptr inbounds void (%"class.content::AppCacheResponseIO"*)*, void (%"class.content::AppCacheResponseIO"*)** %66, i64 3
  %68 = load void (%"class.content::AppCacheResponseIO"*)*, void (%"class.content::AppCacheResponseIO"*)** %67, align 8
  call void %68(%"class.content::AppCacheResponseIO"* %65) #9
  br label %69

69:                                               ; preds = %14, %16, %63
  ret void
}

; Function Attrs: nobuiltin nounwind
declare void @_ZdlPv(i8*) local_unnamed_addr #8

; Function Attrs: nounwind ssp uwtable
define hidden void @_ZN7content22AppCacheResponseReaderC2ElN4base7WeakPtrINS_17AppCacheDiskCacheEEE(%"class.content::AppCacheResponseReader"*, i64, %"class.base::WeakPtr"*) unnamed_addr #1 align 2 {
  %4 = alloca %"class.base::WeakPtr", align 8
  %5 = getelementptr inbounds %"class.base::WeakPtr", %"class.base::WeakPtr"* %4, i64 0, i32 0, i32 0
  %6 = getelementptr inbounds %"class.base::WeakPtr", %"class.base::WeakPtr"* %2, i64 0, i32 0, i32 0
  call void @_ZN4base8internal13WeakReferenceC1EOS1_(%"class.base::internal::WeakReference"* nonnull %5, %"class.base::internal::WeakReference"* dereferenceable(8) %6) #9
  %7 = getelementptr inbounds %"class.base::WeakPtr", %"class.base::WeakPtr"* %4, i64 0, i32 0, i32 1
  %8 = getelementptr inbounds %"class.base::WeakPtr", %"class.base::WeakPtr"* %2, i64 0, i32 0, i32 1
  %9 = load i64, i64* %8, align 8
  store i64 %9, i64* %7, align 8
  %10 = getelementptr inbounds %"class.content::AppCacheResponseReader", %"class.content::AppCacheResponseReader"* %0, i64 0, i32 0, i32 0
  store i32 (...)** bitcast (i8** getelementptr inbounds ({ [7 x i8*] }, { [7 x i8*] }* @_ZTVN7content18AppCacheResponseIOE, i64 0, inrange i32 0, i64 2) to i32 (...)**), i32 (...)*** %10, align 8
  %11 = getelementptr inbounds %"class.content::AppCacheResponseReader", %"class.content::AppCacheResponseReader"* %0, i64 0, i32 0, i32 1
  store i64 %1, i64* %11, align 8
  %12 = getelementptr inbounds %"class.content::AppCacheResponseReader", %"class.content::AppCacheResponseReader"* %0, i64 0, i32 0, i32 2, i32 0, i32 0
  call void @_ZN4base8internal13WeakReferenceC1EOS1_(%"class.base::internal::WeakReference"* %12, %"class.base::internal::WeakReference"* nonnull dereferenceable(8) %5) #9
  %13 = getelementptr inbounds %"class.content::AppCacheResponseReader", %"class.content::AppCacheResponseReader"* %0, i64 0, i32 0, i32 2, i32 0, i32 1
  %14 = load i64, i64* %7, align 8
  store i64 %14, i64* %13, align 8
  %15 = getelementptr inbounds %"class.content::AppCacheResponseReader", %"class.content::AppCacheResponseReader"* %0, i64 0, i32 0, i32 3
  %16 = getelementptr inbounds %"class.content::AppCacheResponseReader", %"class.content::AppCacheResponseReader"* %0, i64 0, i32 0, i32 8, i32 0, i32 0, i32 0
  %17 = bitcast %"class.content::AppCacheDiskCacheEntry"** %15 to i8*
  call void @llvm.memset.p0i8.i64(i8* align 8 %17, i8 0, i64 36, i1 false) #9
  %18 = bitcast %"class.base::internal::BindStateBase"** %16 to i8*
  call void @llvm.memset.p0i8.i64(i8* align 8 %18, i8 0, i64 16, i1 false) #9
  %19 = getelementptr inbounds %"class.base::WeakPtr", %"class.base::WeakPtr"* %4, i64 0, i32 0
  call void @_ZN4base8internal11WeakPtrBaseD2Ev(%"class.base::internal::WeakPtrBase"* nonnull %19) #9
  store i32 (...)** bitcast (i8** getelementptr inbounds ({ [9 x i8*] }, { [9 x i8*] }* @_ZTVN7content22AppCacheResponseReaderE, i64 0, inrange i32 0, i64 2) to i32 (...)**), i32 (...)*** %10, align 8
  %20 = getelementptr inbounds %"class.content::AppCacheResponseReader", %"class.content::AppCacheResponseReader"* %0, i64 0, i32 1
  %21 = bitcast i32* %20 to <4 x i32>*
  store <4 x i32> <i32 0, i32 2147483647, i32 0, i32 0>, <4 x i32>* %21, align 8
  %22 = getelementptr inbounds %"class.content::AppCacheResponseReader", %"class.content::AppCacheResponseReader"* %0, i64 0, i32 5, i32 0
  %23 = ptrtoint %"class.content::AppCacheResponseReader"* %0 to i64
  call void @_ZN4base8internal18WeakPtrFactoryBaseC2Em(%"class.base::internal::WeakPtrFactoryBase"* %22, i64 %23) #9
  ret void
}

; Function Attrs: nounwind ssp uwtable
define hidden void @_ZN7content22AppCacheResponseReaderD2Ev(%"class.content::AppCacheResponseReader"*) unnamed_addr #1 align 2 {
  %2 = getelementptr inbounds %"class.content::AppCacheResponseReader", %"class.content::AppCacheResponseReader"* %0, i64 0, i32 0, i32 0
  store i32 (...)** bitcast (i8** getelementptr inbounds ({ [9 x i8*] }, { [9 x i8*] }* @_ZTVN7content22AppCacheResponseReaderE, i64 0, inrange i32 0, i64 2) to i32 (...)**), i32 (...)*** %2, align 8
  %3 = getelementptr inbounds %"class.content::AppCacheResponseReader", %"class.content::AppCacheResponseReader"* %0, i64 0, i32 5, i32 0
  tail call void @_ZN4base8internal18WeakPtrFactoryBaseD2Ev(%"class.base::internal::WeakPtrFactoryBase"* %3) #9
  %4 = getelementptr inbounds %"class.content::AppCacheResponseReader", %"class.content::AppCacheResponseReader"* %0, i64 0, i32 0
  tail call void @_ZN7content18AppCacheResponseIOD2Ev(%"class.content::AppCacheResponseIO"* %4) #9
  ret void
}

; Function Attrs: nounwind ssp uwtable
define hidden void @_ZN7content22AppCacheResponseReaderD0Ev(%"class.content::AppCacheResponseReader"*) unnamed_addr #1 align 2 {
  %2 = getelementptr inbounds %"class.content::AppCacheResponseReader", %"class.content::AppCacheResponseReader"* %0, i64 0, i32 0, i32 0
  store i32 (...)** bitcast (i8** getelementptr inbounds ({ [9 x i8*] }, { [9 x i8*] }* @_ZTVN7content22AppCacheResponseReaderE, i64 0, inrange i32 0, i64 2) to i32 (...)**), i32 (...)*** %2, align 8
  %3 = getelementptr inbounds %"class.content::AppCacheResponseReader", %"class.content::AppCacheResponseReader"* %0, i64 0, i32 5, i32 0
  tail call void @_ZN4base8internal18WeakPtrFactoryBaseD2Ev(%"class.base::internal::WeakPtrFactoryBase"* %3) #9
  %4 = getelementptr inbounds %"class.content::AppCacheResponseReader", %"class.content::AppCacheResponseReader"* %0, i64 0, i32 0
  tail call void @_ZN7content18AppCacheResponseIOD2Ev(%"class.content::AppCacheResponseIO"* %4) #9
  %5 = bitcast %"class.content::AppCacheResponseReader"* %0 to i8*
  tail call void @_ZdlPv(i8* %5) #10
  ret void
}

; Function Attrs: nounwind ssp uwtable
define hidden void @_ZN7content22AppCacheResponseReader8ReadInfoEPNS_24HttpResponseInfoIOBufferEN4base12OnceCallbackIFviEEE(%"class.content::AppCacheResponseReader"*, %"struct.content::HttpResponseInfoIOBuffer"*, %"class.base::OnceCallback"*) unnamed_addr #1 align 2 {
  %4 = getelementptr inbounds %"class.content::AppCacheResponseReader", %"class.content::AppCacheResponseReader"* %0, i64 0, i32 0
  %5 = getelementptr inbounds %"class.content::AppCacheResponseReader", %"class.content::AppCacheResponseReader"* %0, i64 0, i32 0, i32 4
  %6 = icmp eq %"struct.content::HttpResponseInfoIOBuffer"* %1, null
  br i1 %6, label %10, label %7

7:                                                ; preds = %3
  %8 = getelementptr inbounds %"struct.content::HttpResponseInfoIOBuffer", %"struct.content::HttpResponseInfoIOBuffer"* %1, i64 0, i32 0, i32 0, i32 0, i32 0, i32 0, i32 0, i32 0, i32 0, i32 0
  %9 = atomicrmw add i32* %8, i32 1 monotonic
  br label %10

10:                                               ; preds = %7, %3
  %11 = ptrtoint %"struct.content::HttpResponseInfoIOBuffer"* %1 to i64
  %12 = bitcast %class.scoped_refptr.79* %5 to i64*
  %13 = getelementptr inbounds %class.scoped_refptr.79, %class.scoped_refptr.79* %5, i64 0, i32 0
  %14 = load %"struct.content::HttpResponseInfoIOBuffer"*, %"struct.content::HttpResponseInfoIOBuffer"** %13, align 8
  store i64 %11, i64* %12, align 8
  %15 = icmp eq %"struct.content::HttpResponseInfoIOBuffer"* %14, null
  br i1 %15, label %30, label %16

16:                                               ; preds = %10
  %17 = getelementptr inbounds %"struct.content::HttpResponseInfoIOBuffer", %"struct.content::HttpResponseInfoIOBuffer"* %14, i64 0, i32 0, i32 0, i32 0, i32 0, i32 0, i32 0, i32 0, i32 0, i32 0
  %18 = atomicrmw sub i32* %17, i32 1 acq_rel
  %19 = icmp eq i32 %18, 1
  br i1 %19, label %20, label %30

20:                                               ; preds = %16
  %21 = getelementptr inbounds %"struct.content::HttpResponseInfoIOBuffer", %"struct.content::HttpResponseInfoIOBuffer"* %14, i64 0, i32 0
  %22 = getelementptr inbounds %"class.base::RefCountedThreadSafe", %"class.base::RefCountedThreadSafe"* %21, i64 2
  %23 = bitcast %"class.base::RefCountedThreadSafe"* %22 to %"class.net::HttpResponseInfo"**
  %24 = load %"class.net::HttpResponseInfo"*, %"class.net::HttpResponseInfo"** %23, align 8
  store %"class.net::HttpResponseInfo"* null, %"class.net::HttpResponseInfo"** %23, align 8
  %25 = icmp eq %"class.net::HttpResponseInfo"* %24, null
  br i1 %25, label %28, label %26

26:                                               ; preds = %20
  tail call void @_ZN3net16HttpResponseInfoD1Ev(%"class.net::HttpResponseInfo"* nonnull %24) #9
  %27 = getelementptr inbounds %"class.net::HttpResponseInfo", %"class.net::HttpResponseInfo"* %24, i64 0, i32 0
  tail call void @_ZdlPv(i8* %27) #10
  br label %28

28:                                               ; preds = %26, %20
  %29 = bitcast %"struct.content::HttpResponseInfoIOBuffer"* %14 to i8*
  tail call void @_ZdlPv(i8* %29) #10
  br label %30

30:                                               ; preds = %10, %16, %28
  %31 = getelementptr inbounds %"class.content::AppCacheResponseReader", %"class.content::AppCacheResponseReader"* %0, i64 0, i32 0, i32 8, i32 0
  %32 = getelementptr inbounds %"class.base::OnceCallback", %"class.base::OnceCallback"* %2, i64 0, i32 0
  %33 = tail call dereferenceable(8) %"class.base::internal::CallbackBase"* @_ZN4base8internal12CallbackBaseaSEOS1_(%"class.base::internal::CallbackBase"* %31, %"class.base::internal::CallbackBase"* dereferenceable(8) %32) #9
  tail call void @_ZN7content18AppCacheResponseIO17OpenEntryIfNeededEv(%"class.content::AppCacheResponseIO"* %4)
  ret void
}

; Function Attrs: nounwind ssp uwtable
define hidden void @_ZN7content22AppCacheResponseReader16ContinueReadInfoEv(%"class.content::AppCacheResponseReader"*) local_unnamed_addr #1 align 2 {
  %2 = getelementptr inbounds %"class.content::AppCacheResponseReader", %"class.content::AppCacheResponseReader"* %0, i64 0, i32 0
  %3 = getelementptr inbounds %"class.content::AppCacheResponseReader", %"class.content::AppCacheResponseReader"* %0, i64 0, i32 0, i32 3
  %4 = load %"class.content::AppCacheDiskCacheEntry"*, %"class.content::AppCacheDiskCacheEntry"** %3, align 8
  %5 = tail call i64 @_ZN7content22AppCacheDiskCacheEntry7GetSizeEi(%"class.content::AppCacheDiskCacheEntry"* %4, i32 0) #9
  %6 = trunc i64 %5 to i32
  %7 = icmp slt i32 %6, 1
  br i1 %7, label %8, label %9

8:                                                ; preds = %1
  tail call void @_ZN7content18AppCacheResponseIO28ScheduleIOCompletionCallbackEi(%"class.content::AppCacheResponseIO"* %2, i32 -400)
  br label %37

9:                                                ; preds = %1
  %10 = tail call i8* @_Znwm(i64 24) #10
  %11 = bitcast i8* %10 to %"class.net::IOBuffer"*
  %12 = shl i64 %5, 32
  %13 = ashr exact i64 %12, 32
  tail call void @_ZN3net8IOBufferC1Em(%"class.net::IOBuffer"* nonnull %11, i64 %13) #9
  %14 = getelementptr inbounds i8, i8* %10, i64 8
  %15 = bitcast i8* %14 to i32*
  %16 = atomicrmw add i32* %15, i32 1 monotonic
  %17 = getelementptr inbounds %"class.content::AppCacheResponseReader", %"class.content::AppCacheResponseReader"* %0, i64 0, i32 0, i32 5
  %18 = ptrtoint i8* %10 to i64
  %19 = bitcast %class.scoped_refptr.80* %17 to i64*
  %20 = getelementptr inbounds %class.scoped_refptr.80, %class.scoped_refptr.80* %17, i64 0, i32 0
  %21 = load %"class.net::IOBuffer"*, %"class.net::IOBuffer"** %20, align 8
  store i64 %18, i64* %19, align 8
  %22 = icmp eq %"class.net::IOBuffer"* %21, null
  br i1 %22, label %35, label %23

23:                                               ; preds = %9
  %24 = getelementptr inbounds %"class.net::IOBuffer", %"class.net::IOBuffer"* %21, i64 0, i32 1
  %25 = getelementptr inbounds %"class.base::RefCountedThreadSafe.81", %"class.base::RefCountedThreadSafe.81"* %24, i64 0, i32 0, i32 0, i32 0, i32 0, i32 0, i32 0, i32 0, i32 0
  %26 = atomicrmw sub i32* %25, i32 1 acq_rel
  %27 = icmp eq i32 %26, 1
  br i1 %27, label %28, label %35

28:                                               ; preds = %23
  %29 = getelementptr inbounds %"class.base::RefCountedThreadSafe.81", %"class.base::RefCountedThreadSafe.81"* %24, i64 -2
  %30 = bitcast %"class.base::RefCountedThreadSafe.81"* %29 to %"class.net::IOBuffer"*
  %31 = bitcast %"class.base::RefCountedThreadSafe.81"* %29 to void (%"class.net::IOBuffer"*)***
  %32 = load void (%"class.net::IOBuffer"*)**, void (%"class.net::IOBuffer"*)*** %31, align 8
  %33 = getelementptr inbounds void (%"class.net::IOBuffer"*)*, void (%"class.net::IOBuffer"*)** %32, i64 1
  %34 = load void (%"class.net::IOBuffer"*)*, void (%"class.net::IOBuffer"*)** %33, align 8
  tail call void %34(%"class.net::IOBuffer"* nonnull %30) #9
  br label %35

35:                                               ; preds = %9, %23, %28
  %36 = load %"class.net::IOBuffer"*, %"class.net::IOBuffer"** %20, align 8
  tail call void @_ZN7content18AppCacheResponseIO7ReadRawEiiPN3net8IOBufferEi(%"class.content::AppCacheResponseIO"* %2, i32 0, i32 0, %"class.net::IOBuffer"* %36, i32 %6)
  br label %37

37:                                               ; preds = %35, %8
  ret void
}

declare i64 @_ZN7content22AppCacheDiskCacheEntry7GetSizeEi(%"class.content::AppCacheDiskCacheEntry"*, i32) local_unnamed_addr #2

; Function Attrs: nounwind ssp uwtable
define hidden void @_ZN7content22AppCacheResponseReader8ReadDataEPN3net8IOBufferEiN4base12OnceCallbackIFviEEE(%"class.content::AppCacheResponseReader"*, %"class.net::IOBuffer"*, i32, %"class.base::OnceCallback"*) unnamed_addr #1 align 2 {
  %5 = getelementptr inbounds %"class.content::AppCacheResponseReader", %"class.content::AppCacheResponseReader"* %0, i64 0, i32 0
  %6 = getelementptr inbounds %"class.content::AppCacheResponseReader", %"class.content::AppCacheResponseReader"* %0, i64 0, i32 0, i32 5
  %7 = icmp eq %"class.net::IOBuffer"* %1, null
  br i1 %7, label %11, label %8

8:                                                ; preds = %4
  %9 = getelementptr inbounds %"class.net::IOBuffer", %"class.net::IOBuffer"* %1, i64 0, i32 1, i32 0, i32 0, i32 0, i32 0, i32 0, i32 0, i32 0, i32 0
  %10 = atomicrmw add i32* %9, i32 1 monotonic
  br label %11

11:                                               ; preds = %8, %4
  %12 = ptrtoint %"class.net::IOBuffer"* %1 to i64
  %13 = bitcast %class.scoped_refptr.80* %6 to i64*
  %14 = getelementptr inbounds %class.scoped_refptr.80, %class.scoped_refptr.80* %6, i64 0, i32 0
  %15 = load %"class.net::IOBuffer"*, %"class.net::IOBuffer"** %14, align 8
  store i64 %12, i64* %13, align 8
  %16 = icmp eq %"class.net::IOBuffer"* %15, null
  br i1 %16, label %29, label %17

17:                                               ; preds = %11
  %18 = getelementptr inbounds %"class.net::IOBuffer", %"class.net::IOBuffer"* %15, i64 0, i32 1
  %19 = getelementptr inbounds %"class.base::RefCountedThreadSafe.81", %"class.base::RefCountedThreadSafe.81"* %18, i64 0, i32 0, i32 0, i32 0, i32 0, i32 0, i32 0, i32 0, i32 0
  %20 = atomicrmw sub i32* %19, i32 1 acq_rel
  %21 = icmp eq i32 %20, 1
  br i1 %21, label %22, label %29

22:                                               ; preds = %17
  %23 = getelementptr inbounds %"class.base::RefCountedThreadSafe.81", %"class.base::RefCountedThreadSafe.81"* %18, i64 -2
  %24 = bitcast %"class.base::RefCountedThreadSafe.81"* %23 to %"class.net::IOBuffer"*
  %25 = bitcast %"class.base::RefCountedThreadSafe.81"* %23 to void (%"class.net::IOBuffer"*)***
  %26 = load void (%"class.net::IOBuffer"*)**, void (%"class.net::IOBuffer"*)*** %25, align 8
  %27 = getelementptr inbounds void (%"class.net::IOBuffer"*)*, void (%"class.net::IOBuffer"*)** %26, i64 1
  %28 = load void (%"class.net::IOBuffer"*)*, void (%"class.net::IOBuffer"*)** %27, align 8
  tail call void %28(%"class.net::IOBuffer"* nonnull %24) #9
  br label %29

29:                                               ; preds = %11, %17, %22
  %30 = getelementptr inbounds %"class.content::AppCacheResponseReader", %"class.content::AppCacheResponseReader"* %0, i64 0, i32 0, i32 7
  store i32 %2, i32* %30, align 8
  %31 = getelementptr inbounds %"class.content::AppCacheResponseReader", %"class.content::AppCacheResponseReader"* %0, i64 0, i32 0, i32 8, i32 0
  %32 = getelementptr inbounds %"class.base::OnceCallback", %"class.base::OnceCallback"* %3, i64 0, i32 0
  %33 = tail call dereferenceable(8) %"class.base::internal::CallbackBase"* @_ZN4base8internal12CallbackBaseaSEOS1_(%"class.base::internal::CallbackBase"* %31, %"class.base::internal::CallbackBase"* dereferenceable(8) %32) #9
  tail call void @_ZN7content18AppCacheResponseIO17OpenEntryIfNeededEv(%"class.content::AppCacheResponseIO"* %5)
  ret void
}

; Function Attrs: nounwind ssp uwtable
define hidden void @_ZN7content22AppCacheResponseReader16ContinueReadDataEv(%"class.content::AppCacheResponseReader"*) local_unnamed_addr #1 align 2 {
  %2 = getelementptr inbounds %"class.content::AppCacheResponseReader", %"class.content::AppCacheResponseReader"* %0, i64 0, i32 2
  %3 = load i32, i32* %2, align 4
  %4 = getelementptr inbounds %"class.content::AppCacheResponseReader", %"class.content::AppCacheResponseReader"* %0, i64 0, i32 3
  %5 = load i32, i32* %4, align 8
  %6 = sub nsw i32 %3, %5
  %7 = getelementptr inbounds %"class.content::AppCacheResponseReader", %"class.content::AppCacheResponseReader"* %0, i64 0, i32 0
  %8 = getelementptr inbounds %"class.content::AppCacheResponseReader", %"class.content::AppCacheResponseReader"* %0, i64 0, i32 0, i32 7
  %9 = load i32, i32* %8, align 8
  %10 = icmp slt i32 %6, %9
  br i1 %10, label %11, label %12

11:                                               ; preds = %1
  store i32 %6, i32* %8, align 8
  br label %12

12:                                               ; preds = %11, %1
  %13 = phi i32 [ %6, %11 ], [ %9, %1 ]
  %14 = getelementptr inbounds %"class.content::AppCacheResponseReader", %"class.content::AppCacheResponseReader"* %0, i64 0, i32 1
  %15 = load i32, i32* %14, align 8
  %16 = add nsw i32 %15, %5
  %17 = getelementptr inbounds %"class.content::AppCacheResponseReader", %"class.content::AppCacheResponseReader"* %0, i64 0, i32 0, i32 5, i32 0
  %18 = load %"class.net::IOBuffer"*, %"class.net::IOBuffer"** %17, align 8
  tail call void @_ZN7content18AppCacheResponseIO7ReadRawEiiPN3net8IOBufferEi(%"class.content::AppCacheResponseIO"* %7, i32 1, i32 %16, %"class.net::IOBuffer"* %18, i32 %13)
  ret void
}

; Function Attrs: nofree norecurse nounwind ssp uwtable writeonly
define hidden void @_ZN7content22AppCacheResponseReader12SetReadRangeEii(%"class.content::AppCacheResponseReader"* nocapture, i32, i32) local_unnamed_addr #0 align 2 {
  %4 = getelementptr inbounds %"class.content::AppCacheResponseReader", %"class.content::AppCacheResponseReader"* %0, i64 0, i32 1
  store i32 %1, i32* %4, align 8
  %5 = getelementptr inbounds %"class.content::AppCacheResponseReader", %"class.content::AppCacheResponseReader"* %0, i64 0, i32 2
  store i32 %2, i32* %5, align 4
  ret void
}

; Function Attrs: nounwind ssp uwtable
define hidden void @_ZN7content22AppCacheResponseReader12OnIOCompleteEi(%"class.content::AppCacheResponseReader"*, i32) unnamed_addr #1 align 2 {
  %3 = alloca %"class.base::Pickle", align 8
  %4 = alloca i8, align 1
  %5 = icmp sgt i32 %1, -1
  br i1 %5, label %6, label %90

6:                                                ; preds = %2
  %7 = getelementptr inbounds %"class.content::AppCacheResponseReader", %"class.content::AppCacheResponseReader"* %0, i64 0, i32 4
  %8 = load i32, i32* %7, align 4
  %9 = icmp eq i32 %8, 0
  br i1 %9, label %11, label %10

10:                                               ; preds = %6
  store i32 0, i32* %7, align 4
  br label %90

11:                                               ; preds = %6
  %12 = getelementptr inbounds %"class.content::AppCacheResponseReader", %"class.content::AppCacheResponseReader"* %0, i64 0, i32 0
  %13 = getelementptr inbounds %"class.content::AppCacheResponseReader", %"class.content::AppCacheResponseReader"* %0, i64 0, i32 0, i32 4, i32 0
  %14 = load %"struct.content::HttpResponseInfoIOBuffer"*, %"struct.content::HttpResponseInfoIOBuffer"** %13, align 8
  %15 = icmp eq %"struct.content::HttpResponseInfoIOBuffer"* %14, null
  br i1 %15, label %86, label %16

16:                                               ; preds = %11
  %17 = bitcast %"class.base::Pickle"* %3 to i8*
  call void @llvm.lifetime.start.p0i8(i64 40, i8* nonnull %17) #9
  %18 = getelementptr inbounds %"class.content::AppCacheResponseReader", %"class.content::AppCacheResponseReader"* %0, i64 0, i32 0, i32 5, i32 0
  %19 = bitcast %"class.base::Pickle"* %3 to i8*
  call void @llvm.memset.p0i8.i64(i8* nonnull align 8 %19, i8 -86, i64 40, i1 false)
  %20 = load %"class.net::IOBuffer"*, %"class.net::IOBuffer"** %18, align 8
  %21 = getelementptr inbounds %"class.net::IOBuffer", %"class.net::IOBuffer"* %20, i64 0, i32 2
  %22 = load i8*, i8** %21, align 8
  %23 = sext i32 %1 to i64
  call void @_ZN4base6PickleC1EPKcm(%"class.base::Pickle"* nonnull %3, i8* %22, i64 %23) #9
  %24 = call i8* @_Znwm(i64 536) #10
  %25 = bitcast i8* %24 to %"class.net::HttpResponseInfo"*
  call void @_ZN3net16HttpResponseInfoC1Ev(%"class.net::HttpResponseInfo"* nonnull %25) #9
  %26 = ptrtoint i8* %24 to i64
  call void @llvm.lifetime.start.p0i8(i64 1, i8* nonnull %4) #9
  store i8 0, i8* %4, align 1
  %27 = call zeroext i1 @_ZN3net16HttpResponseInfo14InitFromPickleERKN4base6PickleEPb(%"class.net::HttpResponseInfo"* nonnull %25, %"class.base::Pickle"* nonnull dereferenceable(40) %3, i8* nonnull %4) #9
  br i1 %27, label %28, label %82

28:                                               ; preds = %16
  %29 = getelementptr inbounds i8, i8* %24, i64 480
  %30 = bitcast i8* %29 to %"class.net::HttpResponseHeaders"**
  %31 = load %"class.net::HttpResponseHeaders"*, %"class.net::HttpResponseHeaders"** %30, align 8
  %32 = icmp eq %"class.net::HttpResponseHeaders"* %31, null
  br i1 %32, label %82, label %33

33:                                               ; preds = %28
  %34 = load %"struct.content::HttpResponseInfoIOBuffer"*, %"struct.content::HttpResponseInfoIOBuffer"** %13, align 8
  %35 = getelementptr inbounds %"struct.content::HttpResponseInfoIOBuffer", %"struct.content::HttpResponseInfoIOBuffer"* %34, i64 0, i32 2
  %36 = getelementptr inbounds %"class.std::__1::unique_ptr", %"class.std::__1::unique_ptr"* %35, i64 0, i32 0, i32 0, i32 0
  %37 = load %"class.net::HttpResponseInfo"*, %"class.net::HttpResponseInfo"** %36, align 8
  %38 = bitcast %"class.std::__1::unique_ptr"* %35 to i64*
  store i64 %26, i64* %38, align 8
  %39 = icmp eq %"class.net::HttpResponseInfo"* %37, null
  br i1 %39, label %42, label %40

40:                                               ; preds = %33
  call void @_ZN3net16HttpResponseInfoD1Ev(%"class.net::HttpResponseInfo"* nonnull %37) #9
  %41 = getelementptr inbounds %"class.net::HttpResponseInfo", %"class.net::HttpResponseInfo"* %37, i64 0, i32 0
  call void @_ZdlPv(i8* %41) #10
  br label %42

42:                                               ; preds = %33, %40
  %43 = getelementptr inbounds %"class.content::AppCacheResponseReader", %"class.content::AppCacheResponseReader"* %0, i64 0, i32 0, i32 3
  %44 = load %"class.content::AppCacheDiskCacheEntry"*, %"class.content::AppCacheDiskCacheEntry"** %43, align 8
  %45 = call i64 @_ZN7content22AppCacheDiskCacheEntry7GetSizeEi(%"class.content::AppCacheDiskCacheEntry"* %44, i32 1) #9
  %46 = trunc i64 %45 to i32
  %47 = load %"struct.content::HttpResponseInfoIOBuffer"*, %"struct.content::HttpResponseInfoIOBuffer"** %13, align 8
  %48 = getelementptr inbounds %"struct.content::HttpResponseInfoIOBuffer", %"struct.content::HttpResponseInfoIOBuffer"* %47, i64 0, i32 3
  store i32 %46, i32* %48, align 8
  %49 = load %"class.content::AppCacheDiskCacheEntry"*, %"class.content::AppCacheDiskCacheEntry"** %43, align 8
  %50 = call i64 @_ZN7content22AppCacheDiskCacheEntry7GetSizeEi(%"class.content::AppCacheDiskCacheEntry"* %49, i32 2) #9
  %51 = icmp sgt i64 %50, 0
  br i1 %51, label %52, label %80

52:                                               ; preds = %42
  %53 = trunc i64 %50 to i32
  store i32 %53, i32* %7, align 4
  %54 = call i8* @_Znwm(i64 32) #10
  %55 = bitcast i8* %54 to %"class.net::IOBufferWithSize"*
  call void @_ZN3net16IOBufferWithSizeC1Em(%"class.net::IOBufferWithSize"* nonnull %55, i64 %50) #9
  %56 = getelementptr inbounds i8, i8* %54, i64 8
  %57 = bitcast i8* %56 to i32*
  %58 = atomicrmw add i32* %57, i32 1 monotonic
  %59 = getelementptr inbounds %"class.content::AppCacheResponseReader", %"class.content::AppCacheResponseReader"* %0, i64 0, i32 0, i32 6
  %60 = ptrtoint i8* %54 to i64
  %61 = bitcast %class.scoped_refptr.82* %59 to i64*
  %62 = getelementptr inbounds %class.scoped_refptr.82, %class.scoped_refptr.82* %59, i64 0, i32 0
  %63 = load %"class.net::IOBufferWithSize"*, %"class.net::IOBufferWithSize"** %62, align 8
  store i64 %60, i64* %61, align 8
  %64 = icmp eq %"class.net::IOBufferWithSize"* %63, null
  br i1 %64, label %77, label %65

65:                                               ; preds = %52
  %66 = getelementptr inbounds %"class.net::IOBufferWithSize", %"class.net::IOBufferWithSize"* %63, i64 0, i32 0, i32 1
  %67 = getelementptr inbounds %"class.base::RefCountedThreadSafe.81", %"class.base::RefCountedThreadSafe.81"* %66, i64 0, i32 0, i32 0, i32 0, i32 0, i32 0, i32 0, i32 0, i32 0
  %68 = atomicrmw sub i32* %67, i32 1 acq_rel
  %69 = icmp eq i32 %68, 1
  br i1 %69, label %70, label %77

70:                                               ; preds = %65
  %71 = getelementptr inbounds %"class.base::RefCountedThreadSafe.81", %"class.base::RefCountedThreadSafe.81"* %66, i64 -2
  %72 = bitcast %"class.base::RefCountedThreadSafe.81"* %71 to %"class.net::IOBuffer"*
  %73 = bitcast %"class.base::RefCountedThreadSafe.81"* %71 to void (%"class.net::IOBuffer"*)***
  %74 = load void (%"class.net::IOBuffer"*)**, void (%"class.net::IOBuffer"*)*** %73, align 8
  %75 = getelementptr inbounds void (%"class.net::IOBuffer"*)*, void (%"class.net::IOBuffer"*)** %74, i64 1
  %76 = load void (%"class.net::IOBuffer"*)*, void (%"class.net::IOBuffer"*)** %75, align 8
  call void %76(%"class.net::IOBuffer"* nonnull %72) #9
  br label %77

77:                                               ; preds = %52, %65, %70
  %78 = load %"class.net::IOBufferWithSize"*, %"class.net::IOBufferWithSize"** %62, align 8
  %79 = getelementptr inbounds %"class.net::IOBufferWithSize", %"class.net::IOBufferWithSize"* %78, i64 0, i32 0
  call void @_ZN7content18AppCacheResponseIO7ReadRawEiiPN3net8IOBufferEi(%"class.content::AppCacheResponseIO"* %12, i32 2, i32 0, %"class.net::IOBuffer"* %79, i32 %53)
  br label %80

80:                                               ; preds = %77, %42
  %81 = phi i32 [ 0, %42 ], [ 1, %77 ]
  call void @llvm.lifetime.end.p0i8(i64 1, i8* nonnull %4) #9
  br label %83

82:                                               ; preds = %28, %16
  call void @_ZN7content18AppCacheResponseIO28InvokeUserCompletionCallbackEi(%"class.content::AppCacheResponseIO"* %12, i32 -2)
  call void @llvm.lifetime.end.p0i8(i64 1, i8* nonnull %4) #9
  call void @_ZN3net16HttpResponseInfoD1Ev(%"class.net::HttpResponseInfo"* nonnull %25) #9
  call void @_ZdlPv(i8* nonnull %24) #10
  br label %83

83:                                               ; preds = %80, %82
  %84 = phi i32 [ %81, %80 ], [ 1, %82 ]
  call void @_ZN4base6PickleD1Ev(%"class.base::Pickle"* nonnull %3) #9
  call void @llvm.lifetime.end.p0i8(i64 40, i8* nonnull %17) #9
  %85 = icmp eq i32 %84, 0
  br i1 %85, label %90, label %92

86:                                               ; preds = %11
  %87 = getelementptr inbounds %"class.content::AppCacheResponseReader", %"class.content::AppCacheResponseReader"* %0, i64 0, i32 3
  %88 = load i32, i32* %87, align 8
  %89 = add nsw i32 %88, %1
  store i32 %89, i32* %87, align 8
  br label %90

90:                                               ; preds = %10, %83, %86, %2
  %91 = getelementptr inbounds %"class.content::AppCacheResponseReader", %"class.content::AppCacheResponseReader"* %0, i64 0, i32 0
  call void @_ZN7content18AppCacheResponseIO28InvokeUserCompletionCallbackEi(%"class.content::AppCacheResponseIO"* %91, i32 %1)
  br label %92

92:                                               ; preds = %83, %90
  ret void
}

; Function Attrs: argmemonly nounwind
declare void @llvm.memset.p0i8.i64(i8* nocapture writeonly, i8, i64, i1 immarg) #6

declare void @_ZN4base6PickleC1EPKcm(%"class.base::Pickle"*, i8*, i64) unnamed_addr #2

declare zeroext i1 @_ZN3net16HttpResponseInfo14InitFromPickleERKN4base6PickleEPb(%"class.net::HttpResponseInfo"*, %"class.base::Pickle"* dereferenceable(40), i8*) local_unnamed_addr #2

; Function Attrs: nounwind
declare void @_ZN4base6PickleD1Ev(%"class.base::Pickle"*) unnamed_addr #3

; Function Attrs: nounwind ssp uwtable
define hidden void @_ZN7content22AppCacheResponseReader19OnOpenEntryCompleteEv(%"class.content::AppCacheResponseReader"*) unnamed_addr #1 align 2 {
  %2 = getelementptr inbounds %"class.content::AppCacheResponseReader", %"class.content::AppCacheResponseReader"* %0, i64 0, i32 0, i32 3
  %3 = load %"class.content::AppCacheDiskCacheEntry"*, %"class.content::AppCacheDiskCacheEntry"** %2, align 8
  %4 = icmp eq %"class.content::AppCacheDiskCacheEntry"* %3, null
  br i1 %4, label %5, label %7

5:                                                ; preds = %1
  %6 = getelementptr inbounds %"class.content::AppCacheResponseReader", %"class.content::AppCacheResponseReader"* %0, i64 0, i32 0
  tail call void @_ZN7content18AppCacheResponseIO28ScheduleIOCompletionCallbackEi(%"class.content::AppCacheResponseIO"* %6, i32 -400)
  br label %30

7:                                                ; preds = %1
  %8 = getelementptr inbounds %"class.content::AppCacheResponseReader", %"class.content::AppCacheResponseReader"* %0, i64 0, i32 0, i32 4, i32 0
  %9 = load %"struct.content::HttpResponseInfoIOBuffer"*, %"struct.content::HttpResponseInfoIOBuffer"** %8, align 8
  %10 = icmp eq %"struct.content::HttpResponseInfoIOBuffer"* %9, null
  br i1 %10, label %12, label %11

11:                                               ; preds = %7
  tail call void @_ZN7content22AppCacheResponseReader16ContinueReadInfoEv(%"class.content::AppCacheResponseReader"* %0)
  br label %30

12:                                               ; preds = %7
  %13 = getelementptr inbounds %"class.content::AppCacheResponseReader", %"class.content::AppCacheResponseReader"* %0, i64 0, i32 2
  %14 = load i32, i32* %13, align 4
  %15 = getelementptr inbounds %"class.content::AppCacheResponseReader", %"class.content::AppCacheResponseReader"* %0, i64 0, i32 3
  %16 = load i32, i32* %15, align 8
  %17 = sub nsw i32 %14, %16
  %18 = getelementptr inbounds %"class.content::AppCacheResponseReader", %"class.content::AppCacheResponseReader"* %0, i64 0, i32 0
  %19 = getelementptr inbounds %"class.content::AppCacheResponseReader", %"class.content::AppCacheResponseReader"* %0, i64 0, i32 0, i32 7
  %20 = load i32, i32* %19, align 8
  %21 = icmp slt i32 %17, %20
  br i1 %21, label %22, label %23

22:                                               ; preds = %12
  store i32 %17, i32* %19, align 8
  br label %23

23:                                               ; preds = %12, %22
  %24 = phi i32 [ %17, %22 ], [ %20, %12 ]
  %25 = getelementptr inbounds %"class.content::AppCacheResponseReader", %"class.content::AppCacheResponseReader"* %0, i64 0, i32 1
  %26 = load i32, i32* %25, align 8
  %27 = add nsw i32 %26, %16
  %28 = getelementptr inbounds %"class.content::AppCacheResponseReader", %"class.content::AppCacheResponseReader"* %0, i64 0, i32 0, i32 5, i32 0
  %29 = load %"class.net::IOBuffer"*, %"class.net::IOBuffer"** %28, align 8
  tail call void @_ZN7content18AppCacheResponseIO7ReadRawEiiPN3net8IOBufferEi(%"class.content::AppCacheResponseIO"* %18, i32 1, i32 %27, %"class.net::IOBuffer"* %29, i32 %24) #9
  br label %30

30:                                               ; preds = %5, %23, %11
  ret void
}

; Function Attrs: nounwind ssp uwtable
define hidden void @_ZN7content22AppCacheResponseReader10GetWeakPtrEv(%"class.base::WeakPtr.86"* noalias sret, %"class.content::AppCacheResponseReader"*) unnamed_addr #1 align 2 {
  %3 = alloca %"class.base::internal::WeakReference", align 8
  %4 = alloca %"class.base::WeakPtr.88", align 8
  %5 = bitcast %"class.base::WeakPtr.88"* %4 to i8*
  call void @llvm.lifetime.start.p0i8(i64 16, i8* nonnull %5) #9
  %6 = bitcast %"class.base::internal::WeakReference"* %3 to i8*
  call void @llvm.lifetime.start.p0i8(i64 8, i8* nonnull %6) #9, !noalias !22
  %7 = getelementptr inbounds %"class.content::AppCacheResponseReader", %"class.content::AppCacheResponseReader"* %1, i64 0, i32 5, i32 0, i32 0
  call void @_ZNK4base8internal18WeakReferenceOwner6GetRefEv(%"class.base::internal::WeakReference"* nonnull sret %3, %"class.base::internal::WeakReferenceOwner"* %7) #9, !noalias !22
  %8 = getelementptr inbounds %"class.content::AppCacheResponseReader", %"class.content::AppCacheResponseReader"* %1, i64 0, i32 5, i32 0, i32 1
  %9 = load i64, i64* %8, align 8, !noalias !22
  %10 = getelementptr inbounds %"class.base::WeakPtr.88", %"class.base::WeakPtr.88"* %4, i64 0, i32 0
  call void @_ZN4base8internal11WeakPtrBaseC2ERKNS0_13WeakReferenceEm(%"class.base::internal::WeakPtrBase"* nonnull %10, %"class.base::internal::WeakReference"* nonnull dereferenceable(8) %3, i64 %9) #9
  call void @_ZN4base8internal13WeakReferenceD1Ev(%"class.base::internal::WeakReference"* nonnull %3) #9
  call void @llvm.lifetime.end.p0i8(i64 8, i8* nonnull %6) #9, !noalias !22
  %11 = getelementptr inbounds %"class.base::WeakPtr.86", %"class.base::WeakPtr.86"* %0, i64 0, i32 0, i32 0
  %12 = getelementptr inbounds %"class.base::WeakPtr.88", %"class.base::WeakPtr.88"* %4, i64 0, i32 0, i32 0
  call void @_ZN4base8internal13WeakReferenceC1EOS1_(%"class.base::internal::WeakReference"* %11, %"class.base::internal::WeakReference"* nonnull dereferenceable(8) %12) #9
  %13 = getelementptr inbounds %"class.base::WeakPtr.86", %"class.base::WeakPtr.86"* %0, i64 0, i32 0, i32 1
  %14 = getelementptr inbounds %"class.base::WeakPtr.88", %"class.base::WeakPtr.88"* %4, i64 0, i32 0, i32 1
  %15 = load i64, i64* %14, align 8
  store i64 %15, i64* %13, align 8
  call void @_ZN4base8internal11WeakPtrBaseD2Ev(%"class.base::internal::WeakPtrBase"* nonnull %10) #9
  call void @llvm.lifetime.end.p0i8(i64 16, i8* nonnull %5) #9
  ret void
}

; Function Attrs: nounwind ssp uwtable
define hidden void @_ZN7content22AppCacheResponseWriterC2ElN4base7WeakPtrINS_17AppCacheDiskCacheEEE(%"class.content::AppCacheResponseWriter"*, i64, %"class.base::WeakPtr"*) unnamed_addr #1 align 2 {
  %4 = alloca %"class.base::WeakPtr", align 8
  %5 = getelementptr inbounds %"class.base::WeakPtr", %"class.base::WeakPtr"* %4, i64 0, i32 0, i32 0
  %6 = getelementptr inbounds %"class.base::WeakPtr", %"class.base::WeakPtr"* %2, i64 0, i32 0, i32 0
  call void @_ZN4base8internal13WeakReferenceC1EOS1_(%"class.base::internal::WeakReference"* nonnull %5, %"class.base::internal::WeakReference"* dereferenceable(8) %6) #9
  %7 = getelementptr inbounds %"class.base::WeakPtr", %"class.base::WeakPtr"* %4, i64 0, i32 0, i32 1
  %8 = getelementptr inbounds %"class.base::WeakPtr", %"class.base::WeakPtr"* %2, i64 0, i32 0, i32 1
  %9 = load i64, i64* %8, align 8
  store i64 %9, i64* %7, align 8
  %10 = getelementptr inbounds %"class.content::AppCacheResponseWriter", %"class.content::AppCacheResponseWriter"* %0, i64 0, i32 0, i32 0
  store i32 (...)** bitcast (i8** getelementptr inbounds ({ [7 x i8*] }, { [7 x i8*] }* @_ZTVN7content18AppCacheResponseIOE, i64 0, inrange i32 0, i64 2) to i32 (...)**), i32 (...)*** %10, align 8
  %11 = getelementptr inbounds %"class.content::AppCacheResponseWriter", %"class.content::AppCacheResponseWriter"* %0, i64 0, i32 0, i32 1
  store i64 %1, i64* %11, align 8
  %12 = getelementptr inbounds %"class.content::AppCacheResponseWriter", %"class.content::AppCacheResponseWriter"* %0, i64 0, i32 0, i32 2, i32 0, i32 0
  call void @_ZN4base8internal13WeakReferenceC1EOS1_(%"class.base::internal::WeakReference"* %12, %"class.base::internal::WeakReference"* nonnull dereferenceable(8) %5) #9
  %13 = getelementptr inbounds %"class.content::AppCacheResponseWriter", %"class.content::AppCacheResponseWriter"* %0, i64 0, i32 0, i32 2, i32 0, i32 1
  %14 = load i64, i64* %7, align 8
  store i64 %14, i64* %13, align 8
  %15 = getelementptr inbounds %"class.content::AppCacheResponseWriter", %"class.content::AppCacheResponseWriter"* %0, i64 0, i32 0, i32 3
  %16 = getelementptr inbounds %"class.content::AppCacheResponseWriter", %"class.content::AppCacheResponseWriter"* %0, i64 0, i32 0, i32 8, i32 0, i32 0, i32 0
  %17 = bitcast %"class.content::AppCacheDiskCacheEntry"** %15 to i8*
  call void @llvm.memset.p0i8.i64(i8* align 8 %17, i8 0, i64 36, i1 false) #9
  %18 = bitcast %"class.base::internal::BindStateBase"** %16 to i8*
  call void @llvm.memset.p0i8.i64(i8* align 8 %18, i8 0, i64 16, i1 false) #9
  %19 = getelementptr inbounds %"class.base::WeakPtr", %"class.base::WeakPtr"* %4, i64 0, i32 0
  call void @_ZN4base8internal11WeakPtrBaseD2Ev(%"class.base::internal::WeakPtrBase"* nonnull %19) #9
  store i32 (...)** bitcast (i8** getelementptr inbounds ({ [9 x i8*] }, { [9 x i8*] }* @_ZTVN7content22AppCacheResponseWriterE, i64 0, inrange i32 0, i64 2) to i32 (...)**), i32 (...)*** %10, align 8
  %20 = getelementptr inbounds %"class.content::AppCacheResponseWriter", %"class.content::AppCacheResponseWriter"* %0, i64 0, i32 1
  %21 = bitcast i32* %20 to <4 x i32>*
  store <4 x i32> <i32 0, i32 0, i32 0, i32 1>, <4 x i32>* %21, align 8
  %22 = getelementptr inbounds %"class.content::AppCacheResponseWriter", %"class.content::AppCacheResponseWriter"* %0, i64 0, i32 5, i32 0
  %23 = ptrtoint %"class.content::AppCacheResponseWriter"* %0 to i64
  call void @_ZN4base8internal18WeakPtrFactoryBaseC2Em(%"class.base::internal::WeakPtrFactoryBase"* %22, i64 %23) #9
  ret void
}

; Function Attrs: nounwind ssp uwtable
define hidden void @_ZN7content22AppCacheResponseWriterD2Ev(%"class.content::AppCacheResponseWriter"*) unnamed_addr #1 align 2 {
  %2 = getelementptr inbounds %"class.content::AppCacheResponseWriter", %"class.content::AppCacheResponseWriter"* %0, i64 0, i32 0, i32 0
  store i32 (...)** bitcast (i8** getelementptr inbounds ({ [9 x i8*] }, { [9 x i8*] }* @_ZTVN7content22AppCacheResponseWriterE, i64 0, inrange i32 0, i64 2) to i32 (...)**), i32 (...)*** %2, align 8
  %3 = getelementptr inbounds %"class.content::AppCacheResponseWriter", %"class.content::AppCacheResponseWriter"* %0, i64 0, i32 5, i32 0
  tail call void @_ZN4base8internal18WeakPtrFactoryBaseD2Ev(%"class.base::internal::WeakPtrFactoryBase"* %3) #9
  %4 = getelementptr inbounds %"class.content::AppCacheResponseWriter", %"class.content::AppCacheResponseWriter"* %0, i64 0, i32 0
  tail call void @_ZN7content18AppCacheResponseIOD2Ev(%"class.content::AppCacheResponseIO"* %4) #9
  ret void
}

; Function Attrs: nounwind
declare void @_ZN4base8internal18WeakPtrFactoryBaseD2Ev(%"class.base::internal::WeakPtrFactoryBase"*) unnamed_addr #3

; Function Attrs: nounwind ssp uwtable
define hidden void @_ZN7content22AppCacheResponseWriterD0Ev(%"class.content::AppCacheResponseWriter"*) unnamed_addr #1 align 2 {
  %2 = getelementptr inbounds %"class.content::AppCacheResponseWriter", %"class.content::AppCacheResponseWriter"* %0, i64 0, i32 0, i32 0
  store i32 (...)** bitcast (i8** getelementptr inbounds ({ [9 x i8*] }, { [9 x i8*] }* @_ZTVN7content22AppCacheResponseWriterE, i64 0, inrange i32 0, i64 2) to i32 (...)**), i32 (...)*** %2, align 8
  %3 = getelementptr inbounds %"class.content::AppCacheResponseWriter", %"class.content::AppCacheResponseWriter"* %0, i64 0, i32 5, i32 0
  tail call void @_ZN4base8internal18WeakPtrFactoryBaseD2Ev(%"class.base::internal::WeakPtrFactoryBase"* %3) #9
  %4 = getelementptr inbounds %"class.content::AppCacheResponseWriter", %"class.content::AppCacheResponseWriter"* %0, i64 0, i32 0
  tail call void @_ZN7content18AppCacheResponseIOD2Ev(%"class.content::AppCacheResponseIO"* %4) #9
  %5 = bitcast %"class.content::AppCacheResponseWriter"* %0 to i8*
  tail call void @_ZdlPv(i8* %5) #10
  ret void
}

; Function Attrs: nounwind ssp uwtable
define hidden void @_ZN7content22AppCacheResponseWriter9WriteInfoEPNS_24HttpResponseInfoIOBufferEN4base12OnceCallbackIFviEEE(%"class.content::AppCacheResponseWriter"*, %"struct.content::HttpResponseInfoIOBuffer"*, %"class.base::OnceCallback"*) unnamed_addr #1 align 2 {
  %4 = getelementptr inbounds %"class.content::AppCacheResponseWriter", %"class.content::AppCacheResponseWriter"* %0, i64 0, i32 0, i32 4
  %5 = icmp eq %"struct.content::HttpResponseInfoIOBuffer"* %1, null
  br i1 %5, label %9, label %6

6:                                                ; preds = %3
  %7 = getelementptr inbounds %"struct.content::HttpResponseInfoIOBuffer", %"struct.content::HttpResponseInfoIOBuffer"* %1, i64 0, i32 0, i32 0, i32 0, i32 0, i32 0, i32 0, i32 0, i32 0, i32 0
  %8 = atomicrmw add i32* %7, i32 1 monotonic
  br label %9

9:                                                ; preds = %6, %3
  %10 = ptrtoint %"struct.content::HttpResponseInfoIOBuffer"* %1 to i64
  %11 = bitcast %class.scoped_refptr.79* %4 to i64*
  %12 = getelementptr inbounds %class.scoped_refptr.79, %class.scoped_refptr.79* %4, i64 0, i32 0
  %13 = load %"struct.content::HttpResponseInfoIOBuffer"*, %"struct.content::HttpResponseInfoIOBuffer"** %12, align 8
  store i64 %10, i64* %11, align 8
  %14 = icmp eq %"struct.content::HttpResponseInfoIOBuffer"* %13, null
  br i1 %14, label %29, label %15

15:                                               ; preds = %9
  %16 = getelementptr inbounds %"struct.content::HttpResponseInfoIOBuffer", %"struct.content::HttpResponseInfoIOBuffer"* %13, i64 0, i32 0, i32 0, i32 0, i32 0, i32 0, i32 0, i32 0, i32 0, i32 0
  %17 = atomicrmw sub i32* %16, i32 1 acq_rel
  %18 = icmp eq i32 %17, 1
  br i1 %18, label %19, label %29

19:                                               ; preds = %15
  %20 = getelementptr inbounds %"struct.content::HttpResponseInfoIOBuffer", %"struct.content::HttpResponseInfoIOBuffer"* %13, i64 0, i32 0
  %21 = getelementptr inbounds %"class.base::RefCountedThreadSafe", %"class.base::RefCountedThreadSafe"* %20, i64 2
  %22 = bitcast %"class.base::RefCountedThreadSafe"* %21 to %"class.net::HttpResponseInfo"**
  %23 = load %"class.net::HttpResponseInfo"*, %"class.net::HttpResponseInfo"** %22, align 8
  store %"class.net::HttpResponseInfo"* null, %"class.net::HttpResponseInfo"** %22, align 8
  %24 = icmp eq %"class.net::HttpResponseInfo"* %23, null
  br i1 %24, label %27, label %25

25:                                               ; preds = %19
  tail call void @_ZN3net16HttpResponseInfoD1Ev(%"class.net::HttpResponseInfo"* nonnull %23) #9
  %26 = getelementptr inbounds %"class.net::HttpResponseInfo", %"class.net::HttpResponseInfo"* %23, i64 0, i32 0
  tail call void @_ZdlPv(i8* %26) #10
  br label %27

27:                                               ; preds = %25, %19
  %28 = bitcast %"struct.content::HttpResponseInfoIOBuffer"* %13 to i8*
  tail call void @_ZdlPv(i8* %28) #10
  br label %29

29:                                               ; preds = %9, %15, %27
  %30 = getelementptr inbounds %"class.content::AppCacheResponseWriter", %"class.content::AppCacheResponseWriter"* %0, i64 0, i32 0, i32 8, i32 0
  %31 = getelementptr inbounds %"class.base::OnceCallback", %"class.base::OnceCallback"* %2, i64 0, i32 0
  %32 = tail call dereferenceable(8) %"class.base::internal::CallbackBase"* @_ZN4base8internal12CallbackBaseaSEOS1_(%"class.base::internal::CallbackBase"* %30, %"class.base::internal::CallbackBase"* dereferenceable(8) %31) #9
  tail call void @_ZN7content22AppCacheResponseWriter30CreateEntryIfNeededAndContinueEv(%"class.content::AppCacheResponseWriter"* %0)
  ret void
}

; Function Attrs: nounwind ssp uwtable
define hidden void @_ZN7content22AppCacheResponseWriter30CreateEntryIfNeededAndContinueEv(%"class.content::AppCacheResponseWriter"*) local_unnamed_addr #1 align 2 {
  %2 = alloca %"class.base::internal::WeakReference", align 8
  %3 = alloca %"class.base::internal::WeakReference", align 8
  %4 = alloca %"class.logging::CheckError", align 8
  %5 = alloca %"class.base::OnceCallback", align 8
  %6 = alloca %"class.base::WeakPtr.103", align 8
  %7 = alloca %"class.base::WeakPtr.103", align 8
  %8 = getelementptr inbounds %"class.content::AppCacheResponseWriter", %"class.content::AppCacheResponseWriter"* %0, i64 0, i32 0, i32 3
  %9 = load %"class.content::AppCacheDiskCacheEntry"*, %"class.content::AppCacheDiskCacheEntry"** %8, align 8
  %10 = icmp eq %"class.content::AppCacheDiskCacheEntry"* %9, null
  br i1 %10, label %13, label %11

11:                                               ; preds = %1
  %12 = getelementptr inbounds %"class.content::AppCacheResponseWriter", %"class.content::AppCacheResponseWriter"* %0, i64 0, i32 4
  br label %63

13:                                               ; preds = %1
  %14 = getelementptr inbounds %"class.content::AppCacheResponseWriter", %"class.content::AppCacheResponseWriter"* %0, i64 0, i32 0, i32 2, i32 0, i32 0
  %15 = tail call zeroext i1 @_ZNK4base8internal13WeakReference7IsValidEv(%"class.base::internal::WeakReference"* %14) #9
  br i1 %15, label %18, label %16

16:                                               ; preds = %13
  %17 = getelementptr inbounds %"class.content::AppCacheResponseWriter", %"class.content::AppCacheResponseWriter"* %0, i64 0, i32 4
  br label %63

18:                                               ; preds = %13
  %19 = getelementptr inbounds %"class.content::AppCacheResponseWriter", %"class.content::AppCacheResponseWriter"* %0, i64 0, i32 0, i32 2, i32 0, i32 1
  %20 = bitcast i64* %19 to %"class.content::AppCacheDiskCache"**
  %21 = load %"class.content::AppCacheDiskCache"*, %"class.content::AppCacheDiskCache"** %20, align 8
  %22 = icmp eq %"class.content::AppCacheDiskCache"* %21, null
  %23 = getelementptr inbounds %"class.content::AppCacheResponseWriter", %"class.content::AppCacheResponseWriter"* %0, i64 0, i32 4
  br i1 %22, label %63, label %24

24:                                               ; preds = %18
  store i32 1, i32* %23, align 4
  %25 = tail call i8* @_Znwm(i64 8) #10
  %26 = ptrtoint i8* %25 to i64
  %27 = tail call zeroext i1 @_ZNK4base8internal13WeakReference7IsValidEv(%"class.base::internal::WeakReference"* %14) #9
  br i1 %27, label %31, label %28

28:                                               ; preds = %24
  %29 = bitcast %"class.logging::CheckError"* %4 to i8*
  call void @llvm.lifetime.start.p0i8(i64 8, i8* nonnull %29) #9
  call void @_ZN7logging10CheckError5CheckEPKciS2_(%"class.logging::CheckError"* nonnull sret %4, i8* getelementptr inbounds ([29 x i8], [29 x i8]* @.str.2, i64 0, i64 0), i32 255, i8* getelementptr inbounds ([15 x i8], [15 x i8]* @.str.3, i64 0, i64 0)) #9
  %30 = call dereferenceable(160) %"class.std::__1::basic_ostream"* @_ZN7logging10CheckError6streamEv(%"class.logging::CheckError"* nonnull %4) #9
  call void @_ZN7logging10CheckErrorD1Ev(%"class.logging::CheckError"* nonnull %4) #9
  call void @llvm.lifetime.end.p0i8(i64 8, i8* nonnull %29) #9
  br label %31

31:                                               ; preds = %28, %24
  %32 = call zeroext i1 @_ZNK4base8internal13WeakReference7IsValidEv(%"class.base::internal::WeakReference"* %14) #9
  br i1 %32, label %33, label %35

33:                                               ; preds = %31
  %34 = load %"class.content::AppCacheDiskCache"*, %"class.content::AppCacheDiskCache"** %20, align 8
  br label %35

35:                                               ; preds = %33, %31
  %36 = phi %"class.content::AppCacheDiskCache"* [ %34, %33 ], [ null, %31 ]
  %37 = getelementptr inbounds %"class.content::AppCacheResponseWriter", %"class.content::AppCacheResponseWriter"* %0, i64 0, i32 0, i32 1
  %38 = load i64, i64* %37, align 8
  %39 = bitcast i8* %25 to %"class.content::AppCacheDiskCacheEntry"**
  %40 = bitcast %"class.base::WeakPtr.103"* %6 to i8*
  call void @llvm.lifetime.start.p0i8(i64 16, i8* nonnull %40) #9
  %41 = bitcast %"class.base::internal::WeakReference"* %3 to i8*
  call void @llvm.lifetime.start.p0i8(i64 8, i8* nonnull %41) #9, !noalias !25
  %42 = getelementptr inbounds %"class.content::AppCacheResponseWriter", %"class.content::AppCacheResponseWriter"* %0, i64 0, i32 5, i32 0, i32 0
  call void @_ZNK4base8internal18WeakReferenceOwner6GetRefEv(%"class.base::internal::WeakReference"* nonnull sret %3, %"class.base::internal::WeakReferenceOwner"* %42) #9, !noalias !25
  %43 = getelementptr inbounds %"class.content::AppCacheResponseWriter", %"class.content::AppCacheResponseWriter"* %0, i64 0, i32 5, i32 0, i32 1
  %44 = load i64, i64* %43, align 8, !noalias !25
  %45 = getelementptr inbounds %"class.base::WeakPtr.103", %"class.base::WeakPtr.103"* %6, i64 0, i32 0
  call void @_ZN4base8internal11WeakPtrBaseC2ERKNS0_13WeakReferenceEm(%"class.base::internal::WeakPtrBase"* nonnull %45, %"class.base::internal::WeakReference"* nonnull dereferenceable(8) %3, i64 %44) #9
  call void @_ZN4base8internal13WeakReferenceD1Ev(%"class.base::internal::WeakReference"* nonnull %3) #9
  call void @llvm.lifetime.end.p0i8(i64 8, i8* nonnull %41) #9, !noalias !25
  %46 = call i8* @_Znwm(i64 64) #10, !noalias !28
  %47 = bitcast i8* %46 to %"class.base::internal::BindStateBase"*
  call void @_ZN4base8internal13BindStateBaseC2EPFvvEPFvPKS1_E(%"class.base::internal::BindStateBase"* nonnull %47, void ()* bitcast (void (%"class.base::internal::BindStateBase"*, i32)* @_ZN4base8internal7InvokerINS0_9BindStateIPFvNS_7WeakPtrIN7content22AppCacheResponseWriterEEEPPNS4_22AppCacheDiskCacheEntryEiEJS6_S9_EEEFviEE7RunOnceEPNS0_13BindStateBaseEi to void ()*), void (%"class.base::internal::BindStateBase"*)* nonnull @_ZN4base8internal9BindStateIPFvNS_7WeakPtrIN7content22AppCacheResponseWriterEEEPPNS3_22AppCacheDiskCacheEntryEiEJS5_S8_EE7DestroyEPKNS0_13BindStateBaseE) #9, !noalias !28
  %48 = getelementptr inbounds i8, i8* %46, i64 32
  %49 = bitcast i8* %48 to i64*
  store i64 ptrtoint (void (%"class.base::WeakPtr.103"*, %"class.content::AppCacheDiskCacheEntry"**, i32)* @_ZN7content22AppCacheResponseWriter21OnCreateEntryCompleteEN4base7WeakPtrIS0_EEPPNS_22AppCacheDiskCacheEntryEi to i64), i64* %49, align 8, !noalias !28
  %50 = getelementptr inbounds i8, i8* %46, i64 40
  %51 = bitcast i8* %50 to %"class.base::internal::WeakReference"*
  %52 = getelementptr inbounds %"class.base::WeakPtr.103", %"class.base::WeakPtr.103"* %6, i64 0, i32 0, i32 0
  call void @_ZN4base8internal13WeakReferenceC1EOS1_(%"class.base::internal::WeakReference"* %51, %"class.base::internal::WeakReference"* nonnull dereferenceable(8) %52) #9, !noalias !28
  %53 = getelementptr inbounds i8, i8* %46, i64 48
  %54 = bitcast i8* %53 to i64*
  %55 = getelementptr inbounds %"class.base::WeakPtr.103", %"class.base::WeakPtr.103"* %6, i64 0, i32 0, i32 1
  %56 = load i64, i64* %55, align 8, !noalias !28
  store i64 %56, i64* %54, align 8, !noalias !28
  %57 = getelementptr inbounds i8, i8* %46, i64 56
  %58 = bitcast i8* %57 to i64*
  store i64 %26, i64* %58, align 8, !noalias !28
  %59 = bitcast %"class.base::OnceCallback"* %5 to i8**
  store i8* %46, i8** %59, align 8, !alias.scope !28
  %60 = call i32 @_ZN7content17AppCacheDiskCache11CreateEntryElPPNS_22AppCacheDiskCacheEntryEN4base12OnceCallbackIFviEEE(%"class.content::AppCacheDiskCache"* %36, i64 %38, %"class.content::AppCacheDiskCacheEntry"** nonnull %39, %"class.base::OnceCallback"* nonnull %5) #9
  %61 = getelementptr inbounds %"class.base::OnceCallback", %"class.base::OnceCallback"* %5, i64 0, i32 0
  call void @_ZN4base8internal12CallbackBaseD2Ev(%"class.base::internal::CallbackBase"* nonnull %61) #9
  call void @_ZN4base8internal11WeakPtrBaseD2Ev(%"class.base::internal::WeakPtrBase"* nonnull %45) #9
  call void @llvm.lifetime.end.p0i8(i64 16, i8* nonnull %40) #9
  %62 = icmp eq i32 %60, -1
  br i1 %62, label %75, label %66

63:                                               ; preds = %16, %18, %11
  %64 = phi i32* [ %12, %11 ], [ %17, %16 ], [ %23, %18 ]
  %65 = phi i32 [ 0, %11 ], [ -2, %16 ], [ -2, %18 ]
  store i32 0, i32* %64, align 4
  br label %66

66:                                               ; preds = %63, %35
  %67 = phi i32 [ %60, %35 ], [ %65, %63 ]
  %68 = phi i64 [ %26, %35 ], [ 0, %63 ]
  %69 = bitcast %"class.base::internal::WeakReference"* %2 to i8*
  call void @llvm.lifetime.start.p0i8(i64 8, i8* nonnull %69) #9, !noalias !33
  %70 = getelementptr inbounds %"class.content::AppCacheResponseWriter", %"class.content::AppCacheResponseWriter"* %0, i64 0, i32 5, i32 0, i32 0
  call void @_ZNK4base8internal18WeakReferenceOwner6GetRefEv(%"class.base::internal::WeakReference"* nonnull sret %2, %"class.base::internal::WeakReferenceOwner"* %70) #9, !noalias !33
  %71 = getelementptr inbounds %"class.content::AppCacheResponseWriter", %"class.content::AppCacheResponseWriter"* %0, i64 0, i32 5, i32 0, i32 1
  %72 = load i64, i64* %71, align 8, !noalias !33
  %73 = getelementptr inbounds %"class.base::WeakPtr.103", %"class.base::WeakPtr.103"* %7, i64 0, i32 0
  call void @_ZN4base8internal11WeakPtrBaseC2ERKNS0_13WeakReferenceEm(%"class.base::internal::WeakPtrBase"* nonnull %73, %"class.base::internal::WeakReference"* nonnull dereferenceable(8) %2, i64 %72) #9
  call void @_ZN4base8internal13WeakReferenceD1Ev(%"class.base::internal::WeakReference"* nonnull %2) #9
  call void @llvm.lifetime.end.p0i8(i64 8, i8* nonnull %69) #9, !noalias !33
  %74 = inttoptr i64 %68 to %"class.content::AppCacheDiskCacheEntry"**
  call void @_ZN7content22AppCacheResponseWriter21OnCreateEntryCompleteEN4base7WeakPtrIS0_EEPPNS_22AppCacheDiskCacheEntryEi(%"class.base::WeakPtr.103"* nonnull %7, %"class.content::AppCacheDiskCacheEntry"** %74, i32 %67)
  call void @_ZN4base8internal11WeakPtrBaseD2Ev(%"class.base::internal::WeakPtrBase"* nonnull %73) #9
  br label %75

75:                                               ; preds = %35, %66
  ret void
}

; Function Attrs: nounwind ssp uwtable
define hidden void @_ZN7content22AppCacheResponseWriter17ContinueWriteInfoEv(%"class.content::AppCacheResponseWriter"*) local_unnamed_addr #1 align 2 {
  %2 = getelementptr inbounds %"class.content::AppCacheResponseWriter", %"class.content::AppCacheResponseWriter"* %0, i64 0, i32 0
  %3 = getelementptr inbounds %"class.content::AppCacheResponseWriter", %"class.content::AppCacheResponseWriter"* %0, i64 0, i32 0, i32 3
  %4 = load %"class.content::AppCacheDiskCacheEntry"*, %"class.content::AppCacheDiskCacheEntry"** %3, align 8
  %5 = icmp eq %"class.content::AppCacheDiskCacheEntry"* %4, null
  br i1 %5, label %6, label %7

6:                                                ; preds = %1
  tail call void @_ZN7content18AppCacheResponseIO28ScheduleIOCompletionCallbackEi(%"class.content::AppCacheResponseIO"* %2, i32 -2)
  br label %56

7:                                                ; preds = %1
  %8 = tail call i8* @_Znwm(i64 40) #10
  %9 = bitcast i8* %8 to %"class.base::Pickle"*
  tail call void @_ZN4base6PickleC1Ev(%"class.base::Pickle"* nonnull %9) #9
  %10 = ptrtoint i8* %8 to i64
  %11 = getelementptr inbounds %"class.content::AppCacheResponseWriter", %"class.content::AppCacheResponseWriter"* %0, i64 0, i32 0, i32 4, i32 0
  %12 = load %"struct.content::HttpResponseInfoIOBuffer"*, %"struct.content::HttpResponseInfoIOBuffer"** %11, align 8
  %13 = getelementptr inbounds %"struct.content::HttpResponseInfoIOBuffer", %"struct.content::HttpResponseInfoIOBuffer"* %12, i64 0, i32 2, i32 0, i32 0, i32 0
  %14 = load %"class.net::HttpResponseInfo"*, %"class.net::HttpResponseInfo"** %13, align 8
  tail call void @_ZNK3net16HttpResponseInfo7PersistEPN4base6PickleEbb(%"class.net::HttpResponseInfo"* %14, %"class.base::Pickle"* nonnull %9, i1 zeroext true, i1 zeroext false) #9
  %15 = getelementptr inbounds i8, i8* %8, i64 16
  %16 = bitcast i8* %15 to i64*
  %17 = load i64, i64* %16, align 8
  %18 = getelementptr inbounds i8, i8* %8, i64 8
  %19 = bitcast i8* %18 to %"struct.base::Pickle::Header"**
  %20 = load %"struct.base::Pickle::Header"*, %"struct.base::Pickle::Header"** %19, align 8
  %21 = getelementptr inbounds %"struct.base::Pickle::Header", %"struct.base::Pickle::Header"* %20, i64 0, i32 0
  %22 = load i32, i32* %21, align 4
  %23 = trunc i64 %17 to i32
  %24 = add i32 %22, %23
  %25 = getelementptr inbounds %"class.content::AppCacheResponseWriter", %"class.content::AppCacheResponseWriter"* %0, i64 0, i32 3
  store i32 %24, i32* %25, align 8
  %26 = tail call i8* @_Znwm(i64 32) #10
  %27 = bitcast i8* %26 to %"class.net::WrappedIOBuffer"*
  %28 = bitcast %"struct.base::Pickle::Header"* %20 to i8*
  tail call void @_ZN3net15WrappedIOBufferC2EPKc(%"class.net::WrappedIOBuffer"* nonnull %27, i8* %28) #9
  %29 = bitcast i8* %26 to i32 (...)***
  store i32 (...)** bitcast (i8** getelementptr inbounds ({ [4 x i8*] }, { [4 x i8*] }* @_ZTVN7content12_GLOBAL__N_121WrappedPickleIOBufferE, i64 0, inrange i32 0, i64 2) to i32 (...)**), i32 (...)*** %29, align 8
  %30 = getelementptr inbounds i8, i8* %26, i64 24
  %31 = bitcast i8* %30 to i64*
  store i64 %10, i64* %31, align 8
  %32 = getelementptr inbounds i8, i8* %26, i64 8
  %33 = bitcast i8* %32 to i32*
  %34 = atomicrmw add i32* %33, i32 1 monotonic
  %35 = ptrtoint i8* %26 to i64
  %36 = getelementptr inbounds %"class.content::AppCacheResponseWriter", %"class.content::AppCacheResponseWriter"* %0, i64 0, i32 0, i32 5
  %37 = bitcast %class.scoped_refptr.80* %36 to i64*
  %38 = getelementptr inbounds %class.scoped_refptr.80, %class.scoped_refptr.80* %36, i64 0, i32 0
  %39 = load %"class.net::IOBuffer"*, %"class.net::IOBuffer"** %38, align 8
  store i64 %35, i64* %37, align 8
  %40 = icmp eq %"class.net::IOBuffer"* %39, null
  br i1 %40, label %53, label %41

41:                                               ; preds = %7
  %42 = getelementptr inbounds %"class.net::IOBuffer", %"class.net::IOBuffer"* %39, i64 0, i32 1
  %43 = getelementptr inbounds %"class.base::RefCountedThreadSafe.81", %"class.base::RefCountedThreadSafe.81"* %42, i64 0, i32 0, i32 0, i32 0, i32 0, i32 0, i32 0, i32 0, i32 0
  %44 = atomicrmw sub i32* %43, i32 1 acq_rel
  %45 = icmp eq i32 %44, 1
  br i1 %45, label %46, label %53

46:                                               ; preds = %41
  %47 = getelementptr inbounds %"class.base::RefCountedThreadSafe.81", %"class.base::RefCountedThreadSafe.81"* %42, i64 -2
  %48 = bitcast %"class.base::RefCountedThreadSafe.81"* %47 to %"class.net::IOBuffer"*
  %49 = bitcast %"class.base::RefCountedThreadSafe.81"* %47 to void (%"class.net::IOBuffer"*)***
  %50 = load void (%"class.net::IOBuffer"*)**, void (%"class.net::IOBuffer"*)*** %49, align 8
  %51 = getelementptr inbounds void (%"class.net::IOBuffer"*)*, void (%"class.net::IOBuffer"*)** %50, i64 1
  %52 = load void (%"class.net::IOBuffer"*)*, void (%"class.net::IOBuffer"*)** %51, align 8
  tail call void %52(%"class.net::IOBuffer"* nonnull %48) #9
  br label %53

53:                                               ; preds = %7, %41, %46
  %54 = load %"class.net::IOBuffer"*, %"class.net::IOBuffer"** %38, align 8
  %55 = load i32, i32* %25, align 8
  tail call void @_ZN7content18AppCacheResponseIO8WriteRawEiiPN3net8IOBufferEi(%"class.content::AppCacheResponseIO"* %2, i32 0, i32 0, %"class.net::IOBuffer"* %54, i32 %55)
  br label %56

56:                                               ; preds = %53, %6
  ret void
}

declare void @_ZNK3net16HttpResponseInfo7PersistEPN4base6PickleEbb(%"class.net::HttpResponseInfo"*, %"class.base::Pickle"*, i1 zeroext, i1 zeroext) local_unnamed_addr #2

; Function Attrs: nounwind ssp uwtable
define hidden void @_ZN7content22AppCacheResponseWriter9WriteDataEPN3net8IOBufferEiN4base12OnceCallbackIFviEEE(%"class.content::AppCacheResponseWriter"*, %"class.net::IOBuffer"*, i32, %"class.base::OnceCallback"*) unnamed_addr #1 align 2 {
  %5 = getelementptr inbounds %"class.content::AppCacheResponseWriter", %"class.content::AppCacheResponseWriter"* %0, i64 0, i32 0, i32 5
  %6 = icmp eq %"class.net::IOBuffer"* %1, null
  br i1 %6, label %10, label %7

7:                                                ; preds = %4
  %8 = getelementptr inbounds %"class.net::IOBuffer", %"class.net::IOBuffer"* %1, i64 0, i32 1, i32 0, i32 0, i32 0, i32 0, i32 0, i32 0, i32 0, i32 0
  %9 = atomicrmw add i32* %8, i32 1 monotonic
  br label %10

10:                                               ; preds = %7, %4
  %11 = ptrtoint %"class.net::IOBuffer"* %1 to i64
  %12 = bitcast %class.scoped_refptr.80* %5 to i64*
  %13 = getelementptr inbounds %class.scoped_refptr.80, %class.scoped_refptr.80* %5, i64 0, i32 0
  %14 = load %"class.net::IOBuffer"*, %"class.net::IOBuffer"** %13, align 8
  store i64 %11, i64* %12, align 8
  %15 = icmp eq %"class.net::IOBuffer"* %14, null
  br i1 %15, label %28, label %16

16:                                               ; preds = %10
  %17 = getelementptr inbounds %"class.net::IOBuffer", %"class.net::IOBuffer"* %14, i64 0, i32 1
  %18 = getelementptr inbounds %"class.base::RefCountedThreadSafe.81", %"class.base::RefCountedThreadSafe.81"* %17, i64 0, i32 0, i32 0, i32 0, i32 0, i32 0, i32 0, i32 0, i32 0
  %19 = atomicrmw sub i32* %18, i32 1 acq_rel
  %20 = icmp eq i32 %19, 1
  br i1 %20, label %21, label %28

21:                                               ; preds = %16
  %22 = getelementptr inbounds %"class.base::RefCountedThreadSafe.81", %"class.base::RefCountedThreadSafe.81"* %17, i64 -2
  %23 = bitcast %"class.base::RefCountedThreadSafe.81"* %22 to %"class.net::IOBuffer"*
  %24 = bitcast %"class.base::RefCountedThreadSafe.81"* %22 to void (%"class.net::IOBuffer"*)***
  %25 = load void (%"class.net::IOBuffer"*)**, void (%"class.net::IOBuffer"*)*** %24, align 8
  %26 = getelementptr inbounds void (%"class.net::IOBuffer"*)*, void (%"class.net::IOBuffer"*)** %25, i64 1
  %27 = load void (%"class.net::IOBuffer"*)*, void (%"class.net::IOBuffer"*)** %26, align 8
  tail call void %27(%"class.net::IOBuffer"* nonnull %23) #9
  br label %28

28:                                               ; preds = %10, %16, %21
  %29 = getelementptr inbounds %"class.content::AppCacheResponseWriter", %"class.content::AppCacheResponseWriter"* %0, i64 0, i32 3
  store i32 %2, i32* %29, align 8
  %30 = getelementptr inbounds %"class.content::AppCacheResponseWriter", %"class.content::AppCacheResponseWriter"* %0, i64 0, i32 0, i32 8, i32 0
  %31 = getelementptr inbounds %"class.base::OnceCallback", %"class.base::OnceCallback"* %3, i64 0, i32 0
  %32 = tail call dereferenceable(8) %"class.base::internal::CallbackBase"* @_ZN4base8internal12CallbackBaseaSEOS1_(%"class.base::internal::CallbackBase"* %30, %"class.base::internal::CallbackBase"* dereferenceable(8) %31) #9
  tail call void @_ZN7content22AppCacheResponseWriter30CreateEntryIfNeededAndContinueEv(%"class.content::AppCacheResponseWriter"* %0)
  ret void
}

; Function Attrs: nounwind ssp uwtable
define hidden void @_ZN7content22AppCacheResponseWriter17ContinueWriteDataEv(%"class.content::AppCacheResponseWriter"*) local_unnamed_addr #1 align 2 {
  %2 = getelementptr inbounds %"class.content::AppCacheResponseWriter", %"class.content::AppCacheResponseWriter"* %0, i64 0, i32 0
  %3 = getelementptr inbounds %"class.content::AppCacheResponseWriter", %"class.content::AppCacheResponseWriter"* %0, i64 0, i32 0, i32 3
  %4 = load %"class.content::AppCacheDiskCacheEntry"*, %"class.content::AppCacheDiskCacheEntry"** %3, align 8
  %5 = icmp eq %"class.content::AppCacheDiskCacheEntry"* %4, null
  br i1 %5, label %6, label %7

6:                                                ; preds = %1
  tail call void @_ZN7content18AppCacheResponseIO28ScheduleIOCompletionCallbackEi(%"class.content::AppCacheResponseIO"* %2, i32 -2)
  br label %14

7:                                                ; preds = %1
  %8 = getelementptr inbounds %"class.content::AppCacheResponseWriter", %"class.content::AppCacheResponseWriter"* %0, i64 0, i32 2
  %9 = load i32, i32* %8, align 4
  %10 = getelementptr inbounds %"class.content::AppCacheResponseWriter", %"class.content::AppCacheResponseWriter"* %0, i64 0, i32 0, i32 5, i32 0
  %11 = load %"class.net::IOBuffer"*, %"class.net::IOBuffer"** %10, align 8
  %12 = getelementptr inbounds %"class.content::AppCacheResponseWriter", %"class.content::AppCacheResponseWriter"* %0, i64 0, i32 3
  %13 = load i32, i32* %12, align 8
  tail call void @_ZN7content18AppCacheResponseIO8WriteRawEiiPN3net8IOBufferEi(%"class.content::AppCacheResponseIO"* %2, i32 1, i32 %9, %"class.net::IOBuffer"* %11, i32 %13)
  br label %14

14:                                               ; preds = %7, %6
  ret void
}

; Function Attrs: nounwind ssp uwtable
define hidden void @_ZN7content22AppCacheResponseWriter12OnIOCompleteEi(%"class.content::AppCacheResponseWriter"*, i32) unnamed_addr #1 align 2 {
  %3 = icmp sgt i32 %1, -1
  br i1 %3, label %4, label %14

4:                                                ; preds = %2
  %5 = getelementptr inbounds %"class.content::AppCacheResponseWriter", %"class.content::AppCacheResponseWriter"* %0, i64 0, i32 0, i32 4, i32 0
  %6 = load %"struct.content::HttpResponseInfoIOBuffer"*, %"struct.content::HttpResponseInfoIOBuffer"** %5, align 8
  %7 = icmp eq %"struct.content::HttpResponseInfoIOBuffer"* %6, null
  br i1 %7, label %8, label %12

8:                                                ; preds = %4
  %9 = getelementptr inbounds %"class.content::AppCacheResponseWriter", %"class.content::AppCacheResponseWriter"* %0, i64 0, i32 2
  %10 = load i32, i32* %9, align 4
  %11 = add nsw i32 %10, %1
  store i32 %11, i32* %9, align 4
  br label %14

12:                                               ; preds = %4
  %13 = getelementptr inbounds %"class.content::AppCacheResponseWriter", %"class.content::AppCacheResponseWriter"* %0, i64 0, i32 1
  store i32 %1, i32* %13, align 8
  br label %14

14:                                               ; preds = %8, %12, %2
  %15 = getelementptr inbounds %"class.content::AppCacheResponseWriter", %"class.content::AppCacheResponseWriter"* %0, i64 0, i32 0
  tail call void @_ZN7content18AppCacheResponseIO28InvokeUserCompletionCallbackEi(%"class.content::AppCacheResponseIO"* %15, i32 %1)
  ret void
}

declare i32 @_ZN7content17AppCacheDiskCache11CreateEntryElPPNS_22AppCacheDiskCacheEntryEN4base12OnceCallbackIFviEEE(%"class.content::AppCacheDiskCache"*, i64, %"class.content::AppCacheDiskCacheEntry"**, %"class.base::OnceCallback"*) local_unnamed_addr #2

; Function Attrs: nounwind ssp uwtable
define hidden void @_ZN7content22AppCacheResponseWriter21OnCreateEntryCompleteEN4base7WeakPtrIS0_EEPPNS_22AppCacheDiskCacheEntryEi(%"class.base::WeakPtr.103"*, %"class.content::AppCacheDiskCacheEntry"**, i32) #1 align 2 {
  %4 = alloca %"class.logging::CheckError", align 8
  %5 = alloca %"class.logging::CheckError", align 8
  %6 = alloca %"class.logging::CheckError", align 8
  %7 = alloca %"class.logging::CheckError", align 8
  %8 = alloca %"class.logging::CheckError", align 8
  %9 = alloca %"class.logging::CheckError", align 8
  %10 = alloca %"class.logging::CheckError", align 8
  %11 = alloca %"class.logging::CheckError", align 8
  %12 = alloca %"class.logging::CheckError", align 8
  %13 = alloca %"class.logging::CheckError", align 8
  %14 = alloca %"class.logging::CheckError", align 8
  %15 = alloca %"class.logging::CheckError", align 8
  %16 = alloca %"class.logging::CheckError", align 8
  %17 = alloca %"class.logging::CheckError", align 8
  %18 = alloca %"class.logging::CheckError", align 8
  %19 = alloca %"class.logging::CheckError", align 8
  %20 = alloca %"class.base::OnceCallback", align 8
  %21 = alloca %"class.base::WeakPtr.103", align 8
  %22 = alloca %"class.base::OnceCallback", align 8
  %23 = alloca %"class.base::WeakPtr.103", align 8
  %24 = getelementptr inbounds %"class.base::WeakPtr.103", %"class.base::WeakPtr.103"* %0, i64 0, i32 0, i32 0
  %25 = tail call zeroext i1 @_ZNK4base8internal13WeakReference7IsValidEv(%"class.base::internal::WeakReference"* %24) #9
  br i1 %25, label %26, label %31

26:                                               ; preds = %3
  %27 = getelementptr inbounds %"class.base::WeakPtr.103", %"class.base::WeakPtr.103"* %0, i64 0, i32 0, i32 1
  %28 = bitcast i64* %27 to %"class.content::AppCacheResponseWriter"**
  %29 = load %"class.content::AppCacheResponseWriter"*, %"class.content::AppCacheResponseWriter"** %28, align 8
  %30 = icmp eq %"class.content::AppCacheResponseWriter"* %29, null
  br i1 %30, label %31, label %35

31:                                               ; preds = %26, %3
  %32 = icmp eq %"class.content::AppCacheDiskCacheEntry"** %1, null
  br i1 %32, label %313, label %33

33:                                               ; preds = %31
  %34 = bitcast %"class.content::AppCacheDiskCacheEntry"** %1 to i8*
  tail call void @_ZdlPv(i8* %34) #10
  br label %313

35:                                               ; preds = %26
  %36 = tail call zeroext i1 @_ZNK4base8internal13WeakReference7IsValidEv(%"class.base::internal::WeakReference"* %24) #9
  br i1 %36, label %40, label %37

37:                                               ; preds = %35
  %38 = bitcast %"class.logging::CheckError"* %19 to i8*
  call void @llvm.lifetime.start.p0i8(i64 8, i8* nonnull %38) #9
  call void @_ZN7logging10CheckError5CheckEPKciS2_(%"class.logging::CheckError"* nonnull sret %19, i8* getelementptr inbounds ([29 x i8], [29 x i8]* @.str.2, i64 0, i64 0), i32 255, i8* getelementptr inbounds ([15 x i8], [15 x i8]* @.str.3, i64 0, i64 0)) #9
  %39 = call dereferenceable(160) %"class.std::__1::basic_ostream"* @_ZN7logging10CheckError6streamEv(%"class.logging::CheckError"* nonnull %19) #9
  call void @_ZN7logging10CheckErrorD1Ev(%"class.logging::CheckError"* nonnull %19) #9
  call void @llvm.lifetime.end.p0i8(i64 8, i8* nonnull %38) #9
  br label %40

40:                                               ; preds = %37, %35
  %41 = call zeroext i1 @_ZNK4base8internal13WeakReference7IsValidEv(%"class.base::internal::WeakReference"* %24) #9
  br i1 %41, label %42, label %44

42:                                               ; preds = %40
  %43 = load %"class.content::AppCacheResponseWriter"*, %"class.content::AppCacheResponseWriter"** %28, align 8
  br label %44

44:                                               ; preds = %40, %42
  %45 = phi %"class.content::AppCacheResponseWriter"* [ %43, %42 ], [ null, %40 ]
  %46 = getelementptr inbounds %"class.content::AppCacheResponseWriter", %"class.content::AppCacheResponseWriter"* %45, i64 0, i32 0, i32 2, i32 0, i32 0
  %47 = call zeroext i1 @_ZNK4base8internal13WeakReference7IsValidEv(%"class.base::internal::WeakReference"* %46) #9
  br i1 %47, label %48, label %53

48:                                               ; preds = %44
  %49 = getelementptr inbounds %"class.content::AppCacheResponseWriter", %"class.content::AppCacheResponseWriter"* %45, i64 0, i32 0, i32 2, i32 0, i32 1
  %50 = bitcast i64* %49 to %"class.content::AppCacheDiskCache"**
  %51 = load %"class.content::AppCacheDiskCache"*, %"class.content::AppCacheDiskCache"** %50, align 8
  %52 = icmp eq %"class.content::AppCacheDiskCache"* %51, null
  br i1 %52, label %53, label %69

53:                                               ; preds = %48, %44
  %54 = icmp eq %"class.content::AppCacheDiskCacheEntry"** %1, null
  br i1 %54, label %57, label %55

55:                                               ; preds = %53
  %56 = bitcast %"class.content::AppCacheDiskCacheEntry"** %1 to i8*
  call void @_ZdlPv(i8* %56) #10
  br label %57

57:                                               ; preds = %53, %55
  %58 = call zeroext i1 @_ZNK4base8internal13WeakReference7IsValidEv(%"class.base::internal::WeakReference"* %24) #9
  br i1 %58, label %62, label %59

59:                                               ; preds = %57
  %60 = bitcast %"class.logging::CheckError"* %18 to i8*
  call void @llvm.lifetime.start.p0i8(i64 8, i8* nonnull %60) #9
  call void @_ZN7logging10CheckError5CheckEPKciS2_(%"class.logging::CheckError"* nonnull sret %18, i8* getelementptr inbounds ([29 x i8], [29 x i8]* @.str.2, i64 0, i64 0), i32 255, i8* getelementptr inbounds ([15 x i8], [15 x i8]* @.str.3, i64 0, i64 0)) #9
  %61 = call dereferenceable(160) %"class.std::__1::basic_ostream"* @_ZN7logging10CheckError6streamEv(%"class.logging::CheckError"* nonnull %18) #9
  call void @_ZN7logging10CheckErrorD1Ev(%"class.logging::CheckError"* nonnull %18) #9
  call void @llvm.lifetime.end.p0i8(i64 8, i8* nonnull %60) #9
  br label %62

62:                                               ; preds = %59, %57
  %63 = call zeroext i1 @_ZNK4base8internal13WeakReference7IsValidEv(%"class.base::internal::WeakReference"* %24) #9
  br i1 %63, label %64, label %66

64:                                               ; preds = %62
  %65 = load %"class.content::AppCacheResponseWriter"*, %"class.content::AppCacheResponseWriter"** %28, align 8
  br label %66

66:                                               ; preds = %62, %64
  %67 = phi %"class.content::AppCacheResponseWriter"* [ %65, %64 ], [ null, %62 ]
  %68 = getelementptr inbounds %"class.content::AppCacheResponseWriter", %"class.content::AppCacheResponseWriter"* %67, i64 0, i32 0
  call void @_ZN7content18AppCacheResponseIO28ScheduleIOCompletionCallbackEi(%"class.content::AppCacheResponseIO"* %68, i32 -2)
  br label %313

69:                                               ; preds = %48
  %70 = call zeroext i1 @_ZNK4base8internal13WeakReference7IsValidEv(%"class.base::internal::WeakReference"* %24) #9
  br i1 %70, label %74, label %71

71:                                               ; preds = %69
  %72 = bitcast %"class.logging::CheckError"* %17 to i8*
  call void @llvm.lifetime.start.p0i8(i64 8, i8* nonnull %72) #9
  call void @_ZN7logging10CheckError5CheckEPKciS2_(%"class.logging::CheckError"* nonnull sret %17, i8* getelementptr inbounds ([29 x i8], [29 x i8]* @.str.2, i64 0, i64 0), i32 255, i8* getelementptr inbounds ([15 x i8], [15 x i8]* @.str.3, i64 0, i64 0)) #9
  %73 = call dereferenceable(160) %"class.std::__1::basic_ostream"* @_ZN7logging10CheckError6streamEv(%"class.logging::CheckError"* nonnull %17) #9
  call void @_ZN7logging10CheckErrorD1Ev(%"class.logging::CheckError"* nonnull %17) #9
  call void @llvm.lifetime.end.p0i8(i64 8, i8* nonnull %72) #9
  br label %74

74:                                               ; preds = %71, %69
  %75 = call zeroext i1 @_ZNK4base8internal13WeakReference7IsValidEv(%"class.base::internal::WeakReference"* %24) #9
  br i1 %75, label %76, label %78

76:                                               ; preds = %74
  %77 = load %"class.content::AppCacheResponseWriter"*, %"class.content::AppCacheResponseWriter"** %28, align 8
  br label %78

78:                                               ; preds = %74, %76
  %79 = phi %"class.content::AppCacheResponseWriter"* [ %77, %76 ], [ null, %74 ]
  %80 = getelementptr inbounds %"class.content::AppCacheResponseWriter", %"class.content::AppCacheResponseWriter"* %79, i64 0, i32 4
  %81 = load i32, i32* %80, align 4
  %82 = icmp eq i32 %81, 1
  br i1 %82, label %83, label %156

83:                                               ; preds = %78
  %84 = icmp eq i32 %2, 0
  br i1 %84, label %240, label %85

85:                                               ; preds = %83
  %86 = icmp eq %"class.content::AppCacheDiskCacheEntry"** %1, null
  br i1 %86, label %89, label %87

87:                                               ; preds = %85
  %88 = bitcast %"class.content::AppCacheDiskCacheEntry"** %1 to i8*
  call void @_ZdlPv(i8* %88) #10
  br label %89

89:                                               ; preds = %87, %85
  %90 = call zeroext i1 @_ZNK4base8internal13WeakReference7IsValidEv(%"class.base::internal::WeakReference"* %24) #9
  br i1 %90, label %94, label %91

91:                                               ; preds = %89
  %92 = bitcast %"class.logging::CheckError"* %16 to i8*
  call void @llvm.lifetime.start.p0i8(i64 8, i8* nonnull %92) #9
  call void @_ZN7logging10CheckError5CheckEPKciS2_(%"class.logging::CheckError"* nonnull sret %16, i8* getelementptr inbounds ([29 x i8], [29 x i8]* @.str.2, i64 0, i64 0), i32 255, i8* getelementptr inbounds ([15 x i8], [15 x i8]* @.str.3, i64 0, i64 0)) #9
  %93 = call dereferenceable(160) %"class.std::__1::basic_ostream"* @_ZN7logging10CheckError6streamEv(%"class.logging::CheckError"* nonnull %16) #9
  call void @_ZN7logging10CheckErrorD1Ev(%"class.logging::CheckError"* nonnull %16) #9
  call void @llvm.lifetime.end.p0i8(i64 8, i8* nonnull %92) #9
  br label %94

94:                                               ; preds = %91, %89
  %95 = call zeroext i1 @_ZNK4base8internal13WeakReference7IsValidEv(%"class.base::internal::WeakReference"* %24) #9
  br i1 %95, label %96, label %98

96:                                               ; preds = %94
  %97 = load %"class.content::AppCacheResponseWriter"*, %"class.content::AppCacheResponseWriter"** %28, align 8
  br label %98

98:                                               ; preds = %94, %96
  %99 = phi %"class.content::AppCacheResponseWriter"* [ %97, %96 ], [ null, %94 ]
  %100 = getelementptr inbounds %"class.content::AppCacheResponseWriter", %"class.content::AppCacheResponseWriter"* %99, i64 0, i32 4
  store i32 2, i32* %100, align 4
  %101 = call zeroext i1 @_ZNK4base8internal13WeakReference7IsValidEv(%"class.base::internal::WeakReference"* %24) #9
  br i1 %101, label %105, label %102

102:                                              ; preds = %98
  %103 = bitcast %"class.logging::CheckError"* %15 to i8*
  call void @llvm.lifetime.start.p0i8(i64 8, i8* nonnull %103) #9
  call void @_ZN7logging10CheckError5CheckEPKciS2_(%"class.logging::CheckError"* nonnull sret %15, i8* getelementptr inbounds ([29 x i8], [29 x i8]* @.str.2, i64 0, i64 0), i32 255, i8* getelementptr inbounds ([15 x i8], [15 x i8]* @.str.3, i64 0, i64 0)) #9
  %104 = call dereferenceable(160) %"class.std::__1::basic_ostream"* @_ZN7logging10CheckError6streamEv(%"class.logging::CheckError"* nonnull %15) #9
  call void @_ZN7logging10CheckErrorD1Ev(%"class.logging::CheckError"* nonnull %15) #9
  call void @llvm.lifetime.end.p0i8(i64 8, i8* nonnull %103) #9
  br label %105

105:                                              ; preds = %102, %98
  %106 = call zeroext i1 @_ZNK4base8internal13WeakReference7IsValidEv(%"class.base::internal::WeakReference"* %24) #9
  br i1 %106, label %107, label %109

107:                                              ; preds = %105
  %108 = load %"class.content::AppCacheResponseWriter"*, %"class.content::AppCacheResponseWriter"** %28, align 8
  br label %109

109:                                              ; preds = %105, %107
  %110 = phi %"class.content::AppCacheResponseWriter"* [ %108, %107 ], [ null, %105 ]
  %111 = getelementptr inbounds %"class.content::AppCacheResponseWriter", %"class.content::AppCacheResponseWriter"* %110, i64 0, i32 0, i32 2, i32 0, i32 0
  %112 = call zeroext i1 @_ZNK4base8internal13WeakReference7IsValidEv(%"class.base::internal::WeakReference"* %111) #9
  br i1 %112, label %116, label %113

113:                                              ; preds = %109
  %114 = bitcast %"class.logging::CheckError"* %14 to i8*
  call void @llvm.lifetime.start.p0i8(i64 8, i8* nonnull %114) #9
  call void @_ZN7logging10CheckError5CheckEPKciS2_(%"class.logging::CheckError"* nonnull sret %14, i8* getelementptr inbounds ([29 x i8], [29 x i8]* @.str.2, i64 0, i64 0), i32 255, i8* getelementptr inbounds ([15 x i8], [15 x i8]* @.str.3, i64 0, i64 0)) #9
  %115 = call dereferenceable(160) %"class.std::__1::basic_ostream"* @_ZN7logging10CheckError6streamEv(%"class.logging::CheckError"* nonnull %14) #9
  call void @_ZN7logging10CheckErrorD1Ev(%"class.logging::CheckError"* nonnull %14) #9
  call void @llvm.lifetime.end.p0i8(i64 8, i8* nonnull %114) #9
  br label %116

116:                                              ; preds = %113, %109
  %117 = call zeroext i1 @_ZNK4base8internal13WeakReference7IsValidEv(%"class.base::internal::WeakReference"* %111) #9
  br i1 %117, label %118, label %122

118:                                              ; preds = %116
  %119 = getelementptr inbounds %"class.content::AppCacheResponseWriter", %"class.content::AppCacheResponseWriter"* %110, i64 0, i32 0, i32 2, i32 0, i32 1
  %120 = bitcast i64* %119 to %"class.content::AppCacheDiskCache"**
  %121 = load %"class.content::AppCacheDiskCache"*, %"class.content::AppCacheDiskCache"** %120, align 8
  br label %122

122:                                              ; preds = %116, %118
  %123 = phi %"class.content::AppCacheDiskCache"* [ %121, %118 ], [ null, %116 ]
  %124 = call zeroext i1 @_ZNK4base8internal13WeakReference7IsValidEv(%"class.base::internal::WeakReference"* %24) #9
  br i1 %124, label %128, label %125

125:                                              ; preds = %122
  %126 = bitcast %"class.logging::CheckError"* %13 to i8*
  call void @llvm.lifetime.start.p0i8(i64 8, i8* nonnull %126) #9
  call void @_ZN7logging10CheckError5CheckEPKciS2_(%"class.logging::CheckError"* nonnull sret %13, i8* getelementptr inbounds ([29 x i8], [29 x i8]* @.str.2, i64 0, i64 0), i32 255, i8* getelementptr inbounds ([15 x i8], [15 x i8]* @.str.3, i64 0, i64 0)) #9
  %127 = call dereferenceable(160) %"class.std::__1::basic_ostream"* @_ZN7logging10CheckError6streamEv(%"class.logging::CheckError"* nonnull %13) #9
  call void @_ZN7logging10CheckErrorD1Ev(%"class.logging::CheckError"* nonnull %13) #9
  call void @llvm.lifetime.end.p0i8(i64 8, i8* nonnull %126) #9
  br label %128

128:                                              ; preds = %125, %122
  %129 = call zeroext i1 @_ZNK4base8internal13WeakReference7IsValidEv(%"class.base::internal::WeakReference"* %24) #9
  br i1 %129, label %130, label %132

130:                                              ; preds = %128
  %131 = load %"class.content::AppCacheResponseWriter"*, %"class.content::AppCacheResponseWriter"** %28, align 8
  br label %132

132:                                              ; preds = %128, %130
  %133 = phi %"class.content::AppCacheResponseWriter"* [ %131, %130 ], [ null, %128 ]
  %134 = getelementptr inbounds %"class.content::AppCacheResponseWriter", %"class.content::AppCacheResponseWriter"* %133, i64 0, i32 0, i32 1
  %135 = load i64, i64* %134, align 8
  %136 = call i8* @_Znwm(i64 64) #10, !noalias !36
  %137 = bitcast i8* %136 to %"class.base::internal::BindStateBase"*
  call void @_ZN4base8internal13BindStateBaseC2EPFvvEPFvPKS1_E(%"class.base::internal::BindStateBase"* nonnull %137, void ()* bitcast (void (%"class.base::internal::BindStateBase"*, i32)* @_ZN4base8internal7InvokerINS0_9BindStateIPFvNS_7WeakPtrIN7content22AppCacheResponseWriterEEEPPNS4_22AppCacheDiskCacheEntryEiEJS6_DnEEEFviEE7RunOnceEPNS0_13BindStateBaseEi to void ()*), void (%"class.base::internal::BindStateBase"*)* nonnull @_ZN4base8internal9BindStateIPFvNS_7WeakPtrIN7content22AppCacheResponseWriterEEEPPNS3_22AppCacheDiskCacheEntryEiEJS5_DnEE7DestroyEPKNS0_13BindStateBaseE) #9, !noalias !36
  %138 = getelementptr inbounds i8, i8* %136, i64 32
  %139 = bitcast i8* %138 to i64*
  store i64 ptrtoint (void (%"class.base::WeakPtr.103"*, %"class.content::AppCacheDiskCacheEntry"**, i32)* @_ZN7content22AppCacheResponseWriter21OnCreateEntryCompleteEN4base7WeakPtrIS0_EEPPNS_22AppCacheDiskCacheEntryEi to i64), i64* %139, align 8, !noalias !36
  %140 = getelementptr inbounds i8, i8* %136, i64 40
  %141 = bitcast i8* %140 to %"class.base::internal::WeakReference"*
  call void @_ZN4base8internal13WeakReferenceC1ERKS1_(%"class.base::internal::WeakReference"* %141, %"class.base::internal::WeakReference"* dereferenceable(8) %24) #9, !noalias !36
  %142 = getelementptr inbounds i8, i8* %136, i64 48
  %143 = bitcast i8* %142 to i64*
  %144 = load i64, i64* %27, align 8, !noalias !36
  store i64 %144, i64* %143, align 8, !noalias !36
  %145 = getelementptr inbounds i8, i8* %136, i64 56
  %146 = bitcast i8* %145 to i8**
  store i8* null, i8** %146, align 8, !noalias !36
  %147 = bitcast %"class.base::OnceCallback"* %20 to i8**
  store i8* %136, i8** %147, align 8, !alias.scope !36
  %148 = call i32 @_ZN7content17AppCacheDiskCache9DoomEntryElN4base12OnceCallbackIFviEEE(%"class.content::AppCacheDiskCache"* %123, i64 %135, %"class.base::OnceCallback"* nonnull %20) #9
  %149 = getelementptr inbounds %"class.base::OnceCallback", %"class.base::OnceCallback"* %20, i64 0, i32 0
  call void @_ZN4base8internal12CallbackBaseD2Ev(%"class.base::internal::CallbackBase"* nonnull %149) #9
  %150 = icmp eq i32 %148, -1
  br i1 %150, label %313, label %151

151:                                              ; preds = %132
  %152 = getelementptr inbounds %"class.base::WeakPtr.103", %"class.base::WeakPtr.103"* %21, i64 0, i32 0, i32 0
  call void @_ZN4base8internal13WeakReferenceC1ERKS1_(%"class.base::internal::WeakReference"* nonnull %152, %"class.base::internal::WeakReference"* dereferenceable(8) %24) #9
  %153 = getelementptr inbounds %"class.base::WeakPtr.103", %"class.base::WeakPtr.103"* %21, i64 0, i32 0, i32 1
  %154 = load i64, i64* %27, align 8
  store i64 %154, i64* %153, align 8
  call void @_ZN7content22AppCacheResponseWriter21OnCreateEntryCompleteEN4base7WeakPtrIS0_EEPPNS_22AppCacheDiskCacheEntryEi(%"class.base::WeakPtr.103"* nonnull %21, %"class.content::AppCacheDiskCacheEntry"** null, i32 %148)
  %155 = getelementptr inbounds %"class.base::WeakPtr.103", %"class.base::WeakPtr.103"* %21, i64 0, i32 0
  call void @_ZN4base8internal11WeakPtrBaseD2Ev(%"class.base::internal::WeakPtrBase"* nonnull %155) #9
  br label %313

156:                                              ; preds = %78
  %157 = call zeroext i1 @_ZNK4base8internal13WeakReference7IsValidEv(%"class.base::internal::WeakReference"* %24) #9
  br i1 %157, label %161, label %158

158:                                              ; preds = %156
  %159 = bitcast %"class.logging::CheckError"* %12 to i8*
  call void @llvm.lifetime.start.p0i8(i64 8, i8* nonnull %159) #9
  call void @_ZN7logging10CheckError5CheckEPKciS2_(%"class.logging::CheckError"* nonnull sret %12, i8* getelementptr inbounds ([29 x i8], [29 x i8]* @.str.2, i64 0, i64 0), i32 255, i8* getelementptr inbounds ([15 x i8], [15 x i8]* @.str.3, i64 0, i64 0)) #9
  %160 = call dereferenceable(160) %"class.std::__1::basic_ostream"* @_ZN7logging10CheckError6streamEv(%"class.logging::CheckError"* nonnull %12) #9
  call void @_ZN7logging10CheckErrorD1Ev(%"class.logging::CheckError"* nonnull %12) #9
  call void @llvm.lifetime.end.p0i8(i64 8, i8* nonnull %159) #9
  br label %161

161:                                              ; preds = %158, %156
  %162 = call zeroext i1 @_ZNK4base8internal13WeakReference7IsValidEv(%"class.base::internal::WeakReference"* %24) #9
  br i1 %162, label %163, label %165

163:                                              ; preds = %161
  %164 = load %"class.content::AppCacheResponseWriter"*, %"class.content::AppCacheResponseWriter"** %28, align 8
  br label %165

165:                                              ; preds = %161, %163
  %166 = phi %"class.content::AppCacheResponseWriter"* [ %164, %163 ], [ null, %161 ]
  %167 = getelementptr inbounds %"class.content::AppCacheResponseWriter", %"class.content::AppCacheResponseWriter"* %166, i64 0, i32 4
  %168 = load i32, i32* %167, align 4
  %169 = icmp eq i32 %168, 2
  br i1 %169, label %170, label %240

170:                                              ; preds = %165
  %171 = call zeroext i1 @_ZNK4base8internal13WeakReference7IsValidEv(%"class.base::internal::WeakReference"* %24) #9
  br i1 %171, label %175, label %172

172:                                              ; preds = %170
  %173 = bitcast %"class.logging::CheckError"* %11 to i8*
  call void @llvm.lifetime.start.p0i8(i64 8, i8* nonnull %173) #9
  call void @_ZN7logging10CheckError5CheckEPKciS2_(%"class.logging::CheckError"* nonnull sret %11, i8* getelementptr inbounds ([29 x i8], [29 x i8]* @.str.2, i64 0, i64 0), i32 255, i8* getelementptr inbounds ([15 x i8], [15 x i8]* @.str.3, i64 0, i64 0)) #9
  %174 = call dereferenceable(160) %"class.std::__1::basic_ostream"* @_ZN7logging10CheckError6streamEv(%"class.logging::CheckError"* nonnull %11) #9
  call void @_ZN7logging10CheckErrorD1Ev(%"class.logging::CheckError"* nonnull %11) #9
  call void @llvm.lifetime.end.p0i8(i64 8, i8* nonnull %173) #9
  br label %175

175:                                              ; preds = %172, %170
  %176 = call zeroext i1 @_ZNK4base8internal13WeakReference7IsValidEv(%"class.base::internal::WeakReference"* %24) #9
  br i1 %176, label %177, label %179

177:                                              ; preds = %175
  %178 = load %"class.content::AppCacheResponseWriter"*, %"class.content::AppCacheResponseWriter"** %28, align 8
  br label %179

179:                                              ; preds = %175, %177
  %180 = phi %"class.content::AppCacheResponseWriter"* [ %178, %177 ], [ null, %175 ]
  %181 = getelementptr inbounds %"class.content::AppCacheResponseWriter", %"class.content::AppCacheResponseWriter"* %180, i64 0, i32 4
  store i32 3, i32* %181, align 4
  %182 = call i8* @_Znwm(i64 8) #10
  %183 = ptrtoint i8* %182 to i64
  %184 = call zeroext i1 @_ZNK4base8internal13WeakReference7IsValidEv(%"class.base::internal::WeakReference"* %24) #9
  br i1 %184, label %188, label %185

185:                                              ; preds = %179
  %186 = bitcast %"class.logging::CheckError"* %10 to i8*
  call void @llvm.lifetime.start.p0i8(i64 8, i8* nonnull %186) #9
  call void @_ZN7logging10CheckError5CheckEPKciS2_(%"class.logging::CheckError"* nonnull sret %10, i8* getelementptr inbounds ([29 x i8], [29 x i8]* @.str.2, i64 0, i64 0), i32 255, i8* getelementptr inbounds ([15 x i8], [15 x i8]* @.str.3, i64 0, i64 0)) #9
  %187 = call dereferenceable(160) %"class.std::__1::basic_ostream"* @_ZN7logging10CheckError6streamEv(%"class.logging::CheckError"* nonnull %10) #9
  call void @_ZN7logging10CheckErrorD1Ev(%"class.logging::CheckError"* nonnull %10) #9
  call void @llvm.lifetime.end.p0i8(i64 8, i8* nonnull %186) #9
  br label %188

188:                                              ; preds = %185, %179
  %189 = call zeroext i1 @_ZNK4base8internal13WeakReference7IsValidEv(%"class.base::internal::WeakReference"* %24) #9
  br i1 %189, label %190, label %192

190:                                              ; preds = %188
  %191 = load %"class.content::AppCacheResponseWriter"*, %"class.content::AppCacheResponseWriter"** %28, align 8
  br label %192

192:                                              ; preds = %188, %190
  %193 = phi %"class.content::AppCacheResponseWriter"* [ %191, %190 ], [ null, %188 ]
  %194 = getelementptr inbounds %"class.content::AppCacheResponseWriter", %"class.content::AppCacheResponseWriter"* %193, i64 0, i32 0, i32 2, i32 0, i32 0
  %195 = call zeroext i1 @_ZNK4base8internal13WeakReference7IsValidEv(%"class.base::internal::WeakReference"* %194) #9
  br i1 %195, label %199, label %196

196:                                              ; preds = %192
  %197 = bitcast %"class.logging::CheckError"* %9 to i8*
  call void @llvm.lifetime.start.p0i8(i64 8, i8* nonnull %197) #9
  call void @_ZN7logging10CheckError5CheckEPKciS2_(%"class.logging::CheckError"* nonnull sret %9, i8* getelementptr inbounds ([29 x i8], [29 x i8]* @.str.2, i64 0, i64 0), i32 255, i8* getelementptr inbounds ([15 x i8], [15 x i8]* @.str.3, i64 0, i64 0)) #9
  %198 = call dereferenceable(160) %"class.std::__1::basic_ostream"* @_ZN7logging10CheckError6streamEv(%"class.logging::CheckError"* nonnull %9) #9
  call void @_ZN7logging10CheckErrorD1Ev(%"class.logging::CheckError"* nonnull %9) #9
  call void @llvm.lifetime.end.p0i8(i64 8, i8* nonnull %197) #9
  br label %199

199:                                              ; preds = %196, %192
  %200 = call zeroext i1 @_ZNK4base8internal13WeakReference7IsValidEv(%"class.base::internal::WeakReference"* %194) #9
  br i1 %200, label %201, label %205

201:                                              ; preds = %199
  %202 = getelementptr inbounds %"class.content::AppCacheResponseWriter", %"class.content::AppCacheResponseWriter"* %193, i64 0, i32 0, i32 2, i32 0, i32 1
  %203 = bitcast i64* %202 to %"class.content::AppCacheDiskCache"**
  %204 = load %"class.content::AppCacheDiskCache"*, %"class.content::AppCacheDiskCache"** %203, align 8
  br label %205

205:                                              ; preds = %199, %201
  %206 = phi %"class.content::AppCacheDiskCache"* [ %204, %201 ], [ null, %199 ]
  %207 = call zeroext i1 @_ZNK4base8internal13WeakReference7IsValidEv(%"class.base::internal::WeakReference"* %24) #9
  br i1 %207, label %211, label %208

208:                                              ; preds = %205
  %209 = bitcast %"class.logging::CheckError"* %8 to i8*
  call void @llvm.lifetime.start.p0i8(i64 8, i8* nonnull %209) #9
  call void @_ZN7logging10CheckError5CheckEPKciS2_(%"class.logging::CheckError"* nonnull sret %8, i8* getelementptr inbounds ([29 x i8], [29 x i8]* @.str.2, i64 0, i64 0), i32 255, i8* getelementptr inbounds ([15 x i8], [15 x i8]* @.str.3, i64 0, i64 0)) #9
  %210 = call dereferenceable(160) %"class.std::__1::basic_ostream"* @_ZN7logging10CheckError6streamEv(%"class.logging::CheckError"* nonnull %8) #9
  call void @_ZN7logging10CheckErrorD1Ev(%"class.logging::CheckError"* nonnull %8) #9
  call void @llvm.lifetime.end.p0i8(i64 8, i8* nonnull %209) #9
  br label %211

211:                                              ; preds = %208, %205
  %212 = call zeroext i1 @_ZNK4base8internal13WeakReference7IsValidEv(%"class.base::internal::WeakReference"* %24) #9
  br i1 %212, label %213, label %215

213:                                              ; preds = %211
  %214 = load %"class.content::AppCacheResponseWriter"*, %"class.content::AppCacheResponseWriter"** %28, align 8
  br label %215

215:                                              ; preds = %211, %213
  %216 = phi %"class.content::AppCacheResponseWriter"* [ %214, %213 ], [ null, %211 ]
  %217 = getelementptr inbounds %"class.content::AppCacheResponseWriter", %"class.content::AppCacheResponseWriter"* %216, i64 0, i32 0, i32 1
  %218 = load i64, i64* %217, align 8
  %219 = bitcast i8* %182 to %"class.content::AppCacheDiskCacheEntry"**
  %220 = call i8* @_Znwm(i64 64) #10, !noalias !41
  %221 = bitcast i8* %220 to %"class.base::internal::BindStateBase"*
  call void @_ZN4base8internal13BindStateBaseC2EPFvvEPFvPKS1_E(%"class.base::internal::BindStateBase"* nonnull %221, void ()* bitcast (void (%"class.base::internal::BindStateBase"*, i32)* @_ZN4base8internal7InvokerINS0_9BindStateIPFvNS_7WeakPtrIN7content22AppCacheResponseWriterEEEPPNS4_22AppCacheDiskCacheEntryEiEJS6_S9_EEEFviEE7RunOnceEPNS0_13BindStateBaseEi to void ()*), void (%"class.base::internal::BindStateBase"*)* nonnull @_ZN4base8internal9BindStateIPFvNS_7WeakPtrIN7content22AppCacheResponseWriterEEEPPNS3_22AppCacheDiskCacheEntryEiEJS5_S8_EE7DestroyEPKNS0_13BindStateBaseE) #9, !noalias !41
  %222 = getelementptr inbounds i8, i8* %220, i64 32
  %223 = bitcast i8* %222 to i64*
  store i64 ptrtoint (void (%"class.base::WeakPtr.103"*, %"class.content::AppCacheDiskCacheEntry"**, i32)* @_ZN7content22AppCacheResponseWriter21OnCreateEntryCompleteEN4base7WeakPtrIS0_EEPPNS_22AppCacheDiskCacheEntryEi to i64), i64* %223, align 8, !noalias !41
  %224 = getelementptr inbounds i8, i8* %220, i64 40
  %225 = bitcast i8* %224 to %"class.base::internal::WeakReference"*
  call void @_ZN4base8internal13WeakReferenceC1ERKS1_(%"class.base::internal::WeakReference"* %225, %"class.base::internal::WeakReference"* dereferenceable(8) %24) #9, !noalias !41
  %226 = getelementptr inbounds i8, i8* %220, i64 48
  %227 = bitcast i8* %226 to i64*
  %228 = load i64, i64* %27, align 8, !noalias !41
  store i64 %228, i64* %227, align 8, !noalias !41
  %229 = getelementptr inbounds i8, i8* %220, i64 56
  %230 = bitcast i8* %229 to i64*
  store i64 %183, i64* %230, align 8, !noalias !41
  %231 = bitcast %"class.base::OnceCallback"* %22 to i8**
  store i8* %220, i8** %231, align 8, !alias.scope !41
  %232 = call i32 @_ZN7content17AppCacheDiskCache11CreateEntryElPPNS_22AppCacheDiskCacheEntryEN4base12OnceCallbackIFviEEE(%"class.content::AppCacheDiskCache"* %206, i64 %218, %"class.content::AppCacheDiskCacheEntry"** nonnull %219, %"class.base::OnceCallback"* nonnull %22) #9
  %233 = getelementptr inbounds %"class.base::OnceCallback", %"class.base::OnceCallback"* %22, i64 0, i32 0
  call void @_ZN4base8internal12CallbackBaseD2Ev(%"class.base::internal::CallbackBase"* nonnull %233) #9
  %234 = icmp eq i32 %232, -1
  br i1 %234, label %313, label %235

235:                                              ; preds = %215
  %236 = getelementptr inbounds %"class.base::WeakPtr.103", %"class.base::WeakPtr.103"* %23, i64 0, i32 0, i32 0
  call void @_ZN4base8internal13WeakReferenceC1ERKS1_(%"class.base::internal::WeakReference"* nonnull %236, %"class.base::internal::WeakReference"* dereferenceable(8) %24) #9
  %237 = getelementptr inbounds %"class.base::WeakPtr.103", %"class.base::WeakPtr.103"* %23, i64 0, i32 0, i32 1
  %238 = load i64, i64* %27, align 8
  store i64 %238, i64* %237, align 8
  call void @_ZN7content22AppCacheResponseWriter21OnCreateEntryCompleteEN4base7WeakPtrIS0_EEPPNS_22AppCacheDiskCacheEntryEi(%"class.base::WeakPtr.103"* nonnull %23, %"class.content::AppCacheDiskCacheEntry"** nonnull %219, i32 %232)
  %239 = getelementptr inbounds %"class.base::WeakPtr.103", %"class.base::WeakPtr.103"* %23, i64 0, i32 0
  call void @_ZN4base8internal11WeakPtrBaseD2Ev(%"class.base::internal::WeakPtrBase"* nonnull %239) #9
  br label %313

240:                                              ; preds = %83, %165
  %241 = call zeroext i1 @_ZNK4base8internal13WeakReference7IsValidEv(%"class.base::internal::WeakReference"* %24) #9
  br i1 %241, label %245, label %242

242:                                              ; preds = %240
  %243 = bitcast %"class.logging::CheckError"* %7 to i8*
  call void @llvm.lifetime.start.p0i8(i64 8, i8* nonnull %243) #9
  call void @_ZN7logging10CheckError5CheckEPKciS2_(%"class.logging::CheckError"* nonnull sret %7, i8* getelementptr inbounds ([29 x i8], [29 x i8]* @.str.2, i64 0, i64 0), i32 255, i8* getelementptr inbounds ([15 x i8], [15 x i8]* @.str.3, i64 0, i64 0)) #9
  %244 = call dereferenceable(160) %"class.std::__1::basic_ostream"* @_ZN7logging10CheckError6streamEv(%"class.logging::CheckError"* nonnull %7) #9
  call void @_ZN7logging10CheckErrorD1Ev(%"class.logging::CheckError"* nonnull %7) #9
  call void @llvm.lifetime.end.p0i8(i64 8, i8* nonnull %243) #9
  br label %245

245:                                              ; preds = %242, %240
  %246 = call zeroext i1 @_ZNK4base8internal13WeakReference7IsValidEv(%"class.base::internal::WeakReference"* %24) #9
  br i1 %246, label %247, label %249

247:                                              ; preds = %245
  %248 = load %"class.content::AppCacheResponseWriter"*, %"class.content::AppCacheResponseWriter"** %28, align 8
  br label %249

249:                                              ; preds = %245, %247
  %250 = phi %"class.content::AppCacheResponseWriter"* [ %248, %247 ], [ null, %245 ]
  %251 = getelementptr inbounds %"class.content::AppCacheResponseWriter", %"class.content::AppCacheResponseWriter"* %250, i64 0, i32 0, i32 3
  %252 = load %"class.content::AppCacheDiskCacheEntry"*, %"class.content::AppCacheDiskCacheEntry"** %251, align 8
  %253 = icmp eq %"class.content::AppCacheDiskCacheEntry"* %252, null
  %254 = icmp eq i32 %2, 0
  %255 = and i1 %254, %253
  br i1 %255, label %256, label %271

256:                                              ; preds = %249
  %257 = bitcast %"class.content::AppCacheDiskCacheEntry"** %1 to i64*
  %258 = load i64, i64* %257, align 8
  %259 = call zeroext i1 @_ZNK4base8internal13WeakReference7IsValidEv(%"class.base::internal::WeakReference"* %24) #9
  br i1 %259, label %263, label %260

260:                                              ; preds = %256
  %261 = bitcast %"class.logging::CheckError"* %6 to i8*
  call void @llvm.lifetime.start.p0i8(i64 8, i8* nonnull %261) #9
  call void @_ZN7logging10CheckError5CheckEPKciS2_(%"class.logging::CheckError"* nonnull sret %6, i8* getelementptr inbounds ([29 x i8], [29 x i8]* @.str.2, i64 0, i64 0), i32 255, i8* getelementptr inbounds ([15 x i8], [15 x i8]* @.str.3, i64 0, i64 0)) #9
  %262 = call dereferenceable(160) %"class.std::__1::basic_ostream"* @_ZN7logging10CheckError6streamEv(%"class.logging::CheckError"* nonnull %6) #9
  call void @_ZN7logging10CheckErrorD1Ev(%"class.logging::CheckError"* nonnull %6) #9
  call void @llvm.lifetime.end.p0i8(i64 8, i8* nonnull %261) #9
  br label %263

263:                                              ; preds = %260, %256
  %264 = call zeroext i1 @_ZNK4base8internal13WeakReference7IsValidEv(%"class.base::internal::WeakReference"* %24) #9
  br i1 %264, label %265, label %267

265:                                              ; preds = %263
  %266 = load %"class.content::AppCacheResponseWriter"*, %"class.content::AppCacheResponseWriter"** %28, align 8
  br label %267

267:                                              ; preds = %263, %265
  %268 = phi %"class.content::AppCacheResponseWriter"* [ %266, %265 ], [ null, %263 ]
  %269 = getelementptr inbounds %"class.content::AppCacheResponseWriter", %"class.content::AppCacheResponseWriter"* %268, i64 0, i32 0, i32 3
  %270 = bitcast %"class.content::AppCacheDiskCacheEntry"** %269 to i64*
  store i64 %258, i64* %270, align 8
  br label %271

271:                                              ; preds = %249, %267
  %272 = icmp eq %"class.content::AppCacheDiskCacheEntry"** %1, null
  br i1 %272, label %275, label %273

273:                                              ; preds = %271
  %274 = bitcast %"class.content::AppCacheDiskCacheEntry"** %1 to i8*
  call void @_ZdlPv(i8* %274) #10
  br label %275

275:                                              ; preds = %273, %271
  %276 = call zeroext i1 @_ZNK4base8internal13WeakReference7IsValidEv(%"class.base::internal::WeakReference"* %24) #9
  br i1 %276, label %280, label %277

277:                                              ; preds = %275
  %278 = bitcast %"class.logging::CheckError"* %5 to i8*
  call void @llvm.lifetime.start.p0i8(i64 8, i8* nonnull %278) #9
  call void @_ZN7logging10CheckError5CheckEPKciS2_(%"class.logging::CheckError"* nonnull sret %5, i8* getelementptr inbounds ([29 x i8], [29 x i8]* @.str.2, i64 0, i64 0), i32 255, i8* getelementptr inbounds ([15 x i8], [15 x i8]* @.str.3, i64 0, i64 0)) #9
  %279 = call dereferenceable(160) %"class.std::__1::basic_ostream"* @_ZN7logging10CheckError6streamEv(%"class.logging::CheckError"* nonnull %5) #9
  call void @_ZN7logging10CheckErrorD1Ev(%"class.logging::CheckError"* nonnull %5) #9
  call void @llvm.lifetime.end.p0i8(i64 8, i8* nonnull %278) #9
  br label %280

280:                                              ; preds = %277, %275
  %281 = call zeroext i1 @_ZNK4base8internal13WeakReference7IsValidEv(%"class.base::internal::WeakReference"* %24) #9
  br i1 %281, label %282, label %284

282:                                              ; preds = %280
  %283 = load %"class.content::AppCacheResponseWriter"*, %"class.content::AppCacheResponseWriter"** %28, align 8
  br label %284

284:                                              ; preds = %280, %282
  %285 = phi %"class.content::AppCacheResponseWriter"* [ %283, %282 ], [ null, %280 ]
  %286 = getelementptr inbounds %"class.content::AppCacheResponseWriter", %"class.content::AppCacheResponseWriter"* %285, i64 0, i32 0, i32 4, i32 0
  %287 = load %"struct.content::HttpResponseInfoIOBuffer"*, %"struct.content::HttpResponseInfoIOBuffer"** %286, align 8
  %288 = icmp eq %"struct.content::HttpResponseInfoIOBuffer"* %287, null
  %289 = call zeroext i1 @_ZNK4base8internal13WeakReference7IsValidEv(%"class.base::internal::WeakReference"* %24) #9
  br i1 %289, label %293, label %290

290:                                              ; preds = %284
  %291 = bitcast %"class.logging::CheckError"* %4 to i8*
  call void @llvm.lifetime.start.p0i8(i64 8, i8* nonnull %291) #9
  call void @_ZN7logging10CheckError5CheckEPKciS2_(%"class.logging::CheckError"* nonnull sret %4, i8* getelementptr inbounds ([29 x i8], [29 x i8]* @.str.2, i64 0, i64 0), i32 255, i8* getelementptr inbounds ([15 x i8], [15 x i8]* @.str.3, i64 0, i64 0)) #9
  %292 = call dereferenceable(160) %"class.std::__1::basic_ostream"* @_ZN7logging10CheckError6streamEv(%"class.logging::CheckError"* nonnull %4) #9
  call void @_ZN7logging10CheckErrorD1Ev(%"class.logging::CheckError"* nonnull %4) #9
  call void @llvm.lifetime.end.p0i8(i64 8, i8* nonnull %291) #9
  br label %293

293:                                              ; preds = %290, %284
  %294 = call zeroext i1 @_ZNK4base8internal13WeakReference7IsValidEv(%"class.base::internal::WeakReference"* %24) #9
  br i1 %294, label %295, label %297

295:                                              ; preds = %293
  %296 = load %"class.content::AppCacheResponseWriter"*, %"class.content::AppCacheResponseWriter"** %28, align 8
  br label %297

297:                                              ; preds = %293, %295
  %298 = phi %"class.content::AppCacheResponseWriter"* [ %296, %295 ], [ null, %293 ]
  br i1 %288, label %300, label %299

299:                                              ; preds = %297
  call void @_ZN7content22AppCacheResponseWriter17ContinueWriteInfoEv(%"class.content::AppCacheResponseWriter"* %298)
  br label %313

300:                                              ; preds = %297
  %301 = getelementptr inbounds %"class.content::AppCacheResponseWriter", %"class.content::AppCacheResponseWriter"* %298, i64 0, i32 0
  %302 = getelementptr inbounds %"class.content::AppCacheResponseWriter", %"class.content::AppCacheResponseWriter"* %298, i64 0, i32 0, i32 3
  %303 = load %"class.content::AppCacheDiskCacheEntry"*, %"class.content::AppCacheDiskCacheEntry"** %302, align 8
  %304 = icmp eq %"class.content::AppCacheDiskCacheEntry"* %303, null
  br i1 %304, label %305, label %306

305:                                              ; preds = %300
  call void @_ZN7content18AppCacheResponseIO28ScheduleIOCompletionCallbackEi(%"class.content::AppCacheResponseIO"* %301, i32 -2) #9
  br label %313

306:                                              ; preds = %300
  %307 = getelementptr inbounds %"class.content::AppCacheResponseWriter", %"class.content::AppCacheResponseWriter"* %298, i64 0, i32 2
  %308 = load i32, i32* %307, align 4
  %309 = getelementptr inbounds %"class.content::AppCacheResponseWriter", %"class.content::AppCacheResponseWriter"* %298, i64 0, i32 0, i32 5, i32 0
  %310 = load %"class.net::IOBuffer"*, %"class.net::IOBuffer"** %309, align 8
  %311 = getelementptr inbounds %"class.content::AppCacheResponseWriter", %"class.content::AppCacheResponseWriter"* %298, i64 0, i32 3
  %312 = load i32, i32* %311, align 8
  call void @_ZN7content18AppCacheResponseIO8WriteRawEiiPN3net8IOBufferEi(%"class.content::AppCacheResponseIO"* %301, i32 1, i32 %308, %"class.net::IOBuffer"* %310, i32 %312) #9
  br label %313

313:                                              ; preds = %306, %305, %235, %215, %132, %31, %151, %33, %66, %299
  ret void
}

; Function Attrs: nounwind
declare void @_ZN4base8internal11WeakPtrBaseD2Ev(%"class.base::internal::WeakPtrBase"*) unnamed_addr #3

declare i32 @_ZN7content17AppCacheDiskCache9DoomEntryElN4base12OnceCallbackIFviEEE(%"class.content::AppCacheDiskCache"*, i64, %"class.base::OnceCallback"*) local_unnamed_addr #2

; Function Attrs: nounwind ssp uwtable
define hidden void @_ZN7content22AppCacheResponseWriter10GetWeakPtrEv(%"class.base::WeakPtr.86"* noalias sret, %"class.content::AppCacheResponseWriter"*) unnamed_addr #1 align 2 {
  %3 = alloca %"class.base::internal::WeakReference", align 8
  %4 = alloca %"class.base::WeakPtr.103", align 8
  %5 = bitcast %"class.base::WeakPtr.103"* %4 to i8*
  call void @llvm.lifetime.start.p0i8(i64 16, i8* nonnull %5) #9
  %6 = bitcast %"class.base::internal::WeakReference"* %3 to i8*
  call void @llvm.lifetime.start.p0i8(i64 8, i8* nonnull %6) #9, !noalias !46
  %7 = getelementptr inbounds %"class.content::AppCacheResponseWriter", %"class.content::AppCacheResponseWriter"* %1, i64 0, i32 5, i32 0, i32 0
  call void @_ZNK4base8internal18WeakReferenceOwner6GetRefEv(%"class.base::internal::WeakReference"* nonnull sret %3, %"class.base::internal::WeakReferenceOwner"* %7) #9, !noalias !46
  %8 = getelementptr inbounds %"class.content::AppCacheResponseWriter", %"class.content::AppCacheResponseWriter"* %1, i64 0, i32 5, i32 0, i32 1
  %9 = load i64, i64* %8, align 8, !noalias !46
  %10 = getelementptr inbounds %"class.base::WeakPtr.103", %"class.base::WeakPtr.103"* %4, i64 0, i32 0
  call void @_ZN4base8internal11WeakPtrBaseC2ERKNS0_13WeakReferenceEm(%"class.base::internal::WeakPtrBase"* nonnull %10, %"class.base::internal::WeakReference"* nonnull dereferenceable(8) %3, i64 %9) #9
  call void @_ZN4base8internal13WeakReferenceD1Ev(%"class.base::internal::WeakReference"* nonnull %3) #9
  call void @llvm.lifetime.end.p0i8(i64 8, i8* nonnull %6) #9, !noalias !46
  %11 = getelementptr inbounds %"class.base::WeakPtr.86", %"class.base::WeakPtr.86"* %0, i64 0, i32 0, i32 0
  %12 = getelementptr inbounds %"class.base::WeakPtr.103", %"class.base::WeakPtr.103"* %4, i64 0, i32 0, i32 0
  call void @_ZN4base8internal13WeakReferenceC1EOS1_(%"class.base::internal::WeakReference"* %11, %"class.base::internal::WeakReference"* nonnull dereferenceable(8) %12) #9
  %13 = getelementptr inbounds %"class.base::WeakPtr.86", %"class.base::WeakPtr.86"* %0, i64 0, i32 0, i32 1
  %14 = getelementptr inbounds %"class.base::WeakPtr.103", %"class.base::WeakPtr.103"* %4, i64 0, i32 0, i32 1
  %15 = load i64, i64* %14, align 8
  store i64 %15, i64* %13, align 8
  call void @_ZN4base8internal11WeakPtrBaseD2Ev(%"class.base::internal::WeakPtrBase"* nonnull %10) #9
  call void @llvm.lifetime.end.p0i8(i64 16, i8* nonnull %5) #9
  ret void
}

; Function Attrs: nounwind ssp uwtable
define hidden void @_ZN7content30AppCacheResponseMetadataWriterC2ElN4base7WeakPtrINS_17AppCacheDiskCacheEEE(%"class.content::AppCacheResponseMetadataWriter"*, i64, %"class.base::WeakPtr"*) unnamed_addr #1 align 2 {
  %4 = alloca %"class.base::WeakPtr", align 8
  %5 = getelementptr inbounds %"class.base::WeakPtr", %"class.base::WeakPtr"* %4, i64 0, i32 0, i32 0
  %6 = getelementptr inbounds %"class.base::WeakPtr", %"class.base::WeakPtr"* %2, i64 0, i32 0, i32 0
  call void @_ZN4base8internal13WeakReferenceC1EOS1_(%"class.base::internal::WeakReference"* nonnull %5, %"class.base::internal::WeakReference"* dereferenceable(8) %6) #9
  %7 = getelementptr inbounds %"class.base::WeakPtr", %"class.base::WeakPtr"* %4, i64 0, i32 0, i32 1
  %8 = getelementptr inbounds %"class.base::WeakPtr", %"class.base::WeakPtr"* %2, i64 0, i32 0, i32 1
  %9 = load i64, i64* %8, align 8
  store i64 %9, i64* %7, align 8
  %10 = getelementptr inbounds %"class.content::AppCacheResponseMetadataWriter", %"class.content::AppCacheResponseMetadataWriter"* %0, i64 0, i32 0, i32 0
  store i32 (...)** bitcast (i8** getelementptr inbounds ({ [7 x i8*] }, { [7 x i8*] }* @_ZTVN7content18AppCacheResponseIOE, i64 0, inrange i32 0, i64 2) to i32 (...)**), i32 (...)*** %10, align 8
  %11 = getelementptr inbounds %"class.content::AppCacheResponseMetadataWriter", %"class.content::AppCacheResponseMetadataWriter"* %0, i64 0, i32 0, i32 1
  store i64 %1, i64* %11, align 8
  %12 = getelementptr inbounds %"class.content::AppCacheResponseMetadataWriter", %"class.content::AppCacheResponseMetadataWriter"* %0, i64 0, i32 0, i32 2, i32 0, i32 0
  call void @_ZN4base8internal13WeakReferenceC1EOS1_(%"class.base::internal::WeakReference"* %12, %"class.base::internal::WeakReference"* nonnull dereferenceable(8) %5) #9
  %13 = getelementptr inbounds %"class.content::AppCacheResponseMetadataWriter", %"class.content::AppCacheResponseMetadataWriter"* %0, i64 0, i32 0, i32 2, i32 0, i32 1
  %14 = load i64, i64* %7, align 8
  store i64 %14, i64* %13, align 8
  %15 = getelementptr inbounds %"class.content::AppCacheResponseMetadataWriter", %"class.content::AppCacheResponseMetadataWriter"* %0, i64 0, i32 0, i32 3
  %16 = getelementptr inbounds %"class.content::AppCacheResponseMetadataWriter", %"class.content::AppCacheResponseMetadataWriter"* %0, i64 0, i32 0, i32 8, i32 0, i32 0, i32 0
  %17 = bitcast %"class.content::AppCacheDiskCacheEntry"** %15 to i8*
  call void @llvm.memset.p0i8.i64(i8* align 8 %17, i8 0, i64 36, i1 false) #9
  %18 = bitcast %"class.base::internal::BindStateBase"** %16 to i8*
  call void @llvm.memset.p0i8.i64(i8* align 8 %18, i8 0, i64 16, i1 false) #9
  %19 = getelementptr inbounds %"class.base::WeakPtr", %"class.base::WeakPtr"* %4, i64 0, i32 0
  call void @_ZN4base8internal11WeakPtrBaseD2Ev(%"class.base::internal::WeakPtrBase"* nonnull %19) #9
  store i32 (...)** bitcast (i8** getelementptr inbounds ({ [7 x i8*] }, { [7 x i8*] }* @_ZTVN7content30AppCacheResponseMetadataWriterE, i64 0, inrange i32 0, i64 2) to i32 (...)**), i32 (...)*** %10, align 8
  %20 = getelementptr inbounds %"class.content::AppCacheResponseMetadataWriter", %"class.content::AppCacheResponseMetadataWriter"* %0, i64 0, i32 1
  store i32 0, i32* %20, align 8
  %21 = getelementptr inbounds %"class.content::AppCacheResponseMetadataWriter", %"class.content::AppCacheResponseMetadataWriter"* %0, i64 0, i32 2, i32 0
  %22 = ptrtoint %"class.content::AppCacheResponseMetadataWriter"* %0 to i64
  call void @_ZN4base8internal18WeakPtrFactoryBaseC2Em(%"class.base::internal::WeakPtrFactoryBase"* %21, i64 %22) #9
  ret void
}

; Function Attrs: nounwind ssp uwtable
define hidden void @_ZN7content30AppCacheResponseMetadataWriterD2Ev(%"class.content::AppCacheResponseMetadataWriter"*) unnamed_addr #1 align 2 {
  %2 = getelementptr inbounds %"class.content::AppCacheResponseMetadataWriter", %"class.content::AppCacheResponseMetadataWriter"* %0, i64 0, i32 0, i32 0
  store i32 (...)** bitcast (i8** getelementptr inbounds ({ [7 x i8*] }, { [7 x i8*] }* @_ZTVN7content30AppCacheResponseMetadataWriterE, i64 0, inrange i32 0, i64 2) to i32 (...)**), i32 (...)*** %2, align 8
  %3 = getelementptr inbounds %"class.content::AppCacheResponseMetadataWriter", %"class.content::AppCacheResponseMetadataWriter"* %0, i64 0, i32 2, i32 0
  tail call void @_ZN4base8internal18WeakPtrFactoryBaseD2Ev(%"class.base::internal::WeakPtrFactoryBase"* %3) #9
  %4 = getelementptr inbounds %"class.content::AppCacheResponseMetadataWriter", %"class.content::AppCacheResponseMetadataWriter"* %0, i64 0, i32 0
  tail call void @_ZN7content18AppCacheResponseIOD2Ev(%"class.content::AppCacheResponseIO"* %4) #9
  ret void
}

; Function Attrs: nounwind ssp uwtable
define hidden void @_ZN7content30AppCacheResponseMetadataWriterD0Ev(%"class.content::AppCacheResponseMetadataWriter"*) unnamed_addr #1 align 2 {
  %2 = getelementptr inbounds %"class.content::AppCacheResponseMetadataWriter", %"class.content::AppCacheResponseMetadataWriter"* %0, i64 0, i32 0, i32 0
  store i32 (...)** bitcast (i8** getelementptr inbounds ({ [7 x i8*] }, { [7 x i8*] }* @_ZTVN7content30AppCacheResponseMetadataWriterE, i64 0, inrange i32 0, i64 2) to i32 (...)**), i32 (...)*** %2, align 8
  %3 = getelementptr inbounds %"class.content::AppCacheResponseMetadataWriter", %"class.content::AppCacheResponseMetadataWriter"* %0, i64 0, i32 2, i32 0
  tail call void @_ZN4base8internal18WeakPtrFactoryBaseD2Ev(%"class.base::internal::WeakPtrFactoryBase"* %3) #9
  %4 = getelementptr inbounds %"class.content::AppCacheResponseMetadataWriter", %"class.content::AppCacheResponseMetadataWriter"* %0, i64 0, i32 0
  tail call void @_ZN7content18AppCacheResponseIOD2Ev(%"class.content::AppCacheResponseIO"* %4) #9
  %5 = bitcast %"class.content::AppCacheResponseMetadataWriter"* %0 to i8*
  tail call void @_ZdlPv(i8* %5) #10
  ret void
}

; Function Attrs: nounwind ssp uwtable
define hidden void @_ZN7content30AppCacheResponseMetadataWriter13WriteMetadataEPN3net8IOBufferEiN4base12OnceCallbackIFviEEE(%"class.content::AppCacheResponseMetadataWriter"*, %"class.net::IOBuffer"*, i32, %"class.base::OnceCallback"*) local_unnamed_addr #1 align 2 {
  %5 = getelementptr inbounds %"class.content::AppCacheResponseMetadataWriter", %"class.content::AppCacheResponseMetadataWriter"* %0, i64 0, i32 0
  %6 = getelementptr inbounds %"class.content::AppCacheResponseMetadataWriter", %"class.content::AppCacheResponseMetadataWriter"* %0, i64 0, i32 0, i32 5
  %7 = icmp eq %"class.net::IOBuffer"* %1, null
  br i1 %7, label %11, label %8

8:                                                ; preds = %4
  %9 = getelementptr inbounds %"class.net::IOBuffer", %"class.net::IOBuffer"* %1, i64 0, i32 1, i32 0, i32 0, i32 0, i32 0, i32 0, i32 0, i32 0, i32 0
  %10 = atomicrmw add i32* %9, i32 1 monotonic
  br label %11

11:                                               ; preds = %8, %4
  %12 = ptrtoint %"class.net::IOBuffer"* %1 to i64
  %13 = bitcast %class.scoped_refptr.80* %6 to i64*
  %14 = getelementptr inbounds %class.scoped_refptr.80, %class.scoped_refptr.80* %6, i64 0, i32 0
  %15 = load %"class.net::IOBuffer"*, %"class.net::IOBuffer"** %14, align 8
  store i64 %12, i64* %13, align 8
  %16 = icmp eq %"class.net::IOBuffer"* %15, null
  br i1 %16, label %29, label %17

17:                                               ; preds = %11
  %18 = getelementptr inbounds %"class.net::IOBuffer", %"class.net::IOBuffer"* %15, i64 0, i32 1
  %19 = getelementptr inbounds %"class.base::RefCountedThreadSafe.81", %"class.base::RefCountedThreadSafe.81"* %18, i64 0, i32 0, i32 0, i32 0, i32 0, i32 0, i32 0, i32 0, i32 0
  %20 = atomicrmw sub i32* %19, i32 1 acq_rel
  %21 = icmp eq i32 %20, 1
  br i1 %21, label %22, label %29

22:                                               ; preds = %17
  %23 = getelementptr inbounds %"class.base::RefCountedThreadSafe.81", %"class.base::RefCountedThreadSafe.81"* %18, i64 -2
  %24 = bitcast %"class.base::RefCountedThreadSafe.81"* %23 to %"class.net::IOBuffer"*
  %25 = bitcast %"class.base::RefCountedThreadSafe.81"* %23 to void (%"class.net::IOBuffer"*)***
  %26 = load void (%"class.net::IOBuffer"*)**, void (%"class.net::IOBuffer"*)*** %25, align 8
  %27 = getelementptr inbounds void (%"class.net::IOBuffer"*)*, void (%"class.net::IOBuffer"*)** %26, i64 1
  %28 = load void (%"class.net::IOBuffer"*)*, void (%"class.net::IOBuffer"*)** %27, align 8
  tail call void %28(%"class.net::IOBuffer"* nonnull %24) #9
  br label %29

29:                                               ; preds = %11, %17, %22
  %30 = getelementptr inbounds %"class.content::AppCacheResponseMetadataWriter", %"class.content::AppCacheResponseMetadataWriter"* %0, i64 0, i32 1
  store i32 %2, i32* %30, align 8
  %31 = getelementptr inbounds %"class.content::AppCacheResponseMetadataWriter", %"class.content::AppCacheResponseMetadataWriter"* %0, i64 0, i32 0, i32 8, i32 0
  %32 = getelementptr inbounds %"class.base::OnceCallback", %"class.base::OnceCallback"* %3, i64 0, i32 0
  %33 = tail call dereferenceable(8) %"class.base::internal::CallbackBase"* @_ZN4base8internal12CallbackBaseaSEOS1_(%"class.base::internal::CallbackBase"* %31, %"class.base::internal::CallbackBase"* dereferenceable(8) %32) #9
  tail call void @_ZN7content18AppCacheResponseIO17OpenEntryIfNeededEv(%"class.content::AppCacheResponseIO"* %5)
  ret void
}

; Function Attrs: nounwind ssp uwtable
define hidden void @_ZN7content30AppCacheResponseMetadataWriter19OnOpenEntryCompleteEv(%"class.content::AppCacheResponseMetadataWriter"*) unnamed_addr #1 align 2 {
  %2 = getelementptr inbounds %"class.content::AppCacheResponseMetadataWriter", %"class.content::AppCacheResponseMetadataWriter"* %0, i64 0, i32 0
  %3 = getelementptr inbounds %"class.content::AppCacheResponseMetadataWriter", %"class.content::AppCacheResponseMetadataWriter"* %0, i64 0, i32 0, i32 3
  %4 = load %"class.content::AppCacheDiskCacheEntry"*, %"class.content::AppCacheDiskCacheEntry"** %3, align 8
  %5 = icmp eq %"class.content::AppCacheDiskCacheEntry"* %4, null
  br i1 %5, label %6, label %7

6:                                                ; preds = %1
  tail call void @_ZN7content18AppCacheResponseIO28ScheduleIOCompletionCallbackEi(%"class.content::AppCacheResponseIO"* %2, i32 -2)
  br label %12

7:                                                ; preds = %1
  %8 = getelementptr inbounds %"class.content::AppCacheResponseMetadataWriter", %"class.content::AppCacheResponseMetadataWriter"* %0, i64 0, i32 0, i32 5, i32 0
  %9 = load %"class.net::IOBuffer"*, %"class.net::IOBuffer"** %8, align 8
  %10 = getelementptr inbounds %"class.content::AppCacheResponseMetadataWriter", %"class.content::AppCacheResponseMetadataWriter"* %0, i64 0, i32 1
  %11 = load i32, i32* %10, align 8
  tail call void @_ZN7content18AppCacheResponseIO8WriteRawEiiPN3net8IOBufferEi(%"class.content::AppCacheResponseIO"* %2, i32 2, i32 0, %"class.net::IOBuffer"* %9, i32 %11)
  br label %12

12:                                               ; preds = %7, %6
  ret void
}

; Function Attrs: nounwind ssp uwtable
define hidden void @_ZN7content30AppCacheResponseMetadataWriter12OnIOCompleteEi(%"class.content::AppCacheResponseMetadataWriter"*, i32) unnamed_addr #1 align 2 {
  %3 = getelementptr inbounds %"class.content::AppCacheResponseMetadataWriter", %"class.content::AppCacheResponseMetadataWriter"* %0, i64 0, i32 0
  tail call void @_ZN7content18AppCacheResponseIO28InvokeUserCompletionCallbackEi(%"class.content::AppCacheResponseIO"* %3, i32 %1)
  ret void
}

; Function Attrs: nounwind ssp uwtable
define hidden void @_ZN7content30AppCacheResponseMetadataWriter10GetWeakPtrEv(%"class.base::WeakPtr.86"* noalias sret, %"class.content::AppCacheResponseMetadataWriter"*) unnamed_addr #1 align 2 {
  %3 = alloca %"class.base::internal::WeakReference", align 8
  %4 = alloca %"class.base::WeakPtr.105", align 8
  %5 = bitcast %"class.base::WeakPtr.105"* %4 to i8*
  call void @llvm.lifetime.start.p0i8(i64 16, i8* nonnull %5) #9
  %6 = bitcast %"class.base::internal::WeakReference"* %3 to i8*
  call void @llvm.lifetime.start.p0i8(i64 8, i8* nonnull %6) #9, !noalias !49
  %7 = getelementptr inbounds %"class.content::AppCacheResponseMetadataWriter", %"class.content::AppCacheResponseMetadataWriter"* %1, i64 0, i32 2, i32 0, i32 0
  call void @_ZNK4base8internal18WeakReferenceOwner6GetRefEv(%"class.base::internal::WeakReference"* nonnull sret %3, %"class.base::internal::WeakReferenceOwner"* %7) #9, !noalias !49
  %8 = getelementptr inbounds %"class.content::AppCacheResponseMetadataWriter", %"class.content::AppCacheResponseMetadataWriter"* %1, i64 0, i32 2, i32 0, i32 1
  %9 = load i64, i64* %8, align 8, !noalias !49
  %10 = getelementptr inbounds %"class.base::WeakPtr.105", %"class.base::WeakPtr.105"* %4, i64 0, i32 0
  call void @_ZN4base8internal11WeakPtrBaseC2ERKNS0_13WeakReferenceEm(%"class.base::internal::WeakPtrBase"* nonnull %10, %"class.base::internal::WeakReference"* nonnull dereferenceable(8) %3, i64 %9) #9
  call void @_ZN4base8internal13WeakReferenceD1Ev(%"class.base::internal::WeakReference"* nonnull %3) #9
  call void @llvm.lifetime.end.p0i8(i64 8, i8* nonnull %6) #9, !noalias !49
  %11 = getelementptr inbounds %"class.base::WeakPtr.86", %"class.base::WeakPtr.86"* %0, i64 0, i32 0, i32 0
  %12 = getelementptr inbounds %"class.base::WeakPtr.105", %"class.base::WeakPtr.105"* %4, i64 0, i32 0, i32 0
  call void @_ZN4base8internal13WeakReferenceC1EOS1_(%"class.base::internal::WeakReference"* %11, %"class.base::internal::WeakReference"* nonnull dereferenceable(8) %12) #9
  %13 = getelementptr inbounds %"class.base::WeakPtr.86", %"class.base::WeakPtr.86"* %0, i64 0, i32 0, i32 1
  %14 = getelementptr inbounds %"class.base::WeakPtr.105", %"class.base::WeakPtr.105"* %4, i64 0, i32 0, i32 1
  %15 = load i64, i64* %14, align 8
  store i64 %15, i64* %13, align 8
  call void @_ZN4base8internal11WeakPtrBaseD2Ev(%"class.base::internal::WeakPtrBase"* nonnull %10) #9
  call void @llvm.lifetime.end.p0i8(i64 16, i8* nonnull %5) #9
  ret void
}

declare void @__cxa_pure_virtual() unnamed_addr

; Function Attrs: nounwind ssp uwtable
define linkonce_odr hidden void @_ZN7content18AppCacheResponseIO19OnOpenEntryCompleteEv(%"class.content::AppCacheResponseIO"*) unnamed_addr #1 comdat align 2 {
  ret void
}

; Function Attrs: nounwind
declare void @_ZN4base8internal13WeakReferenceC1EOS1_(%"class.base::internal::WeakReference"*, %"class.base::internal::WeakReference"* dereferenceable(8)) unnamed_addr #3

; Function Attrs: nounwind
declare dereferenceable(8) %"class.base::internal::CallbackBase"* @_ZN4base8internal12CallbackBaseaSEOS1_(%"class.base::internal::CallbackBase"*, %"class.base::internal::CallbackBase"* dereferenceable(8)) local_unnamed_addr #3

declare void @_ZN4base8internal13WeakReferenceC1ERKS1_(%"class.base::internal::WeakReference"*, %"class.base::internal::WeakReference"* dereferenceable(8)) unnamed_addr #2

declare void @_ZN4base8internal18WeakPtrFactoryBaseC2Em(%"class.base::internal::WeakPtrFactoryBase"*, i64) unnamed_addr #2

; Function Attrs: nounwind
declare void @_ZN3net16HttpResponseInfoD1Ev(%"class.net::HttpResponseInfo"*) unnamed_addr #3

; Function Attrs: nounwind ssp uwtable
define linkonce_odr hidden void @_ZN4base8internal7InvokerINS0_9BindStateIMN7content18AppCacheResponseIOEFviEJNS_7WeakPtrIS4_EEiEEEFvvEE7RunOnceEPNS0_13BindStateBaseE(%"class.base::internal::BindStateBase"*) #1 comdat align 2 {
  %2 = alloca %"class.logging::CheckError", align 8
  %3 = getelementptr inbounds %"class.base::internal::BindStateBase", %"class.base::internal::BindStateBase"* %0, i64 1
  %4 = getelementptr inbounds %"class.base::internal::BindStateBase", %"class.base::internal::BindStateBase"* %0, i64 1, i32 2
  %5 = getelementptr inbounds void (%"class.base::internal::BindStateBase"*)*, void (%"class.base::internal::BindStateBase"*)** %4, i64 2
  %6 = bitcast void (%"class.base::internal::BindStateBase"*)** %5 to i32*
  %7 = bitcast void (%"class.base::internal::BindStateBase"*)** %4 to %"class.base::internal::WeakReference"*
  %8 = tail call zeroext i1 @_ZNK4base8internal13WeakReference7IsValidEv(%"class.base::internal::WeakReference"* %7) #9
  br i1 %8, label %9, label %45

9:                                                ; preds = %1
  %10 = getelementptr inbounds void (%"class.base::internal::BindStateBase"*)*, void (%"class.base::internal::BindStateBase"*)** %4, i64 1
  %11 = bitcast void (%"class.base::internal::BindStateBase"*)** %10 to %"class.content::AppCacheResponseIO"**
  %12 = load %"class.content::AppCacheResponseIO"*, %"class.content::AppCacheResponseIO"** %11, align 8
  %13 = icmp eq %"class.content::AppCacheResponseIO"* %12, null
  br i1 %13, label %45, label %14

14:                                               ; preds = %9
  %15 = bitcast %"class.base::internal::BindStateBase"* %3 to i64*
  %16 = load i64, i64* %15, align 8
  %17 = getelementptr inbounds %"class.base::internal::BindStateBase", %"class.base::internal::BindStateBase"* %0, i64 1, i32 1
  %18 = bitcast void ()** %17 to i64*
  %19 = load i64, i64* %18, align 8
  %20 = tail call zeroext i1 @_ZNK4base8internal13WeakReference7IsValidEv(%"class.base::internal::WeakReference"* %7) #9
  br i1 %20, label %24, label %21

21:                                               ; preds = %14
  %22 = bitcast %"class.logging::CheckError"* %2 to i8*
  call void @llvm.lifetime.start.p0i8(i64 8, i8* nonnull %22) #9
  call void @_ZN7logging10CheckError5CheckEPKciS2_(%"class.logging::CheckError"* nonnull sret %2, i8* getelementptr inbounds ([29 x i8], [29 x i8]* @.str.2, i64 0, i64 0), i32 251, i8* getelementptr inbounds ([15 x i8], [15 x i8]* @.str.3, i64 0, i64 0)) #9
  %23 = call dereferenceable(160) %"class.std::__1::basic_ostream"* @_ZN7logging10CheckError6streamEv(%"class.logging::CheckError"* nonnull %2) #9
  call void @_ZN7logging10CheckErrorD1Ev(%"class.logging::CheckError"* nonnull %2) #9
  call void @llvm.lifetime.end.p0i8(i64 8, i8* nonnull %22) #9
  br label %24

24:                                               ; preds = %21, %14
  %25 = call zeroext i1 @_ZNK4base8internal13WeakReference7IsValidEv(%"class.base::internal::WeakReference"* %7) #9
  %26 = bitcast void (%"class.base::internal::BindStateBase"*)** %10 to i8**
  %27 = load i8*, i8** %26, align 8
  %28 = select i1 %25, i8* %27, i8* null
  %29 = getelementptr inbounds i8, i8* %28, i64 %19
  %30 = bitcast i8* %29 to %"class.content::AppCacheResponseIO"*
  %31 = and i64 %16, 1
  %32 = icmp eq i64 %31, 0
  br i1 %32, label %40, label %33

33:                                               ; preds = %24
  %34 = bitcast i8* %29 to i8**
  %35 = load i8*, i8** %34, align 8
  %36 = add i64 %16, -1
  %37 = getelementptr i8, i8* %35, i64 %36
  %38 = bitcast i8* %37 to void (%"class.content::AppCacheResponseIO"*, i32)**
  %39 = load void (%"class.content::AppCacheResponseIO"*, i32)*, void (%"class.content::AppCacheResponseIO"*, i32)** %38, align 8
  br label %42

40:                                               ; preds = %24
  %41 = inttoptr i64 %16 to void (%"class.content::AppCacheResponseIO"*, i32)*
  br label %42

42:                                               ; preds = %40, %33
  %43 = phi void (%"class.content::AppCacheResponseIO"*, i32)* [ %39, %33 ], [ %41, %40 ]
  %44 = load i32, i32* %6, align 4
  call void %43(%"class.content::AppCacheResponseIO"* %30, i32 %44) #9
  br label %45

45:                                               ; preds = %1, %9, %42
  ret void
}

declare zeroext i1 @_ZNK4base8internal13WeakReference7IsValidEv(%"class.base::internal::WeakReference"*) local_unnamed_addr #2

declare void @_ZN7logging10CheckError5CheckEPKciS2_(%"class.logging::CheckError"* sret, i8*, i32, i8*) local_unnamed_addr #2

declare dereferenceable(160) %"class.std::__1::basic_ostream"* @_ZN7logging10CheckError6streamEv(%"class.logging::CheckError"*) local_unnamed_addr #2

; Function Attrs: nounwind
declare void @_ZN7logging10CheckErrorD1Ev(%"class.logging::CheckError"*) unnamed_addr #3

; Function Attrs: nounwind ssp uwtable
define linkonce_odr hidden void @_ZN4base8internal9BindStateIMN7content18AppCacheResponseIOEFviEJNS_7WeakPtrIS3_EEiEE7DestroyEPKNS0_13BindStateBaseE(%"class.base::internal::BindStateBase"*) #1 comdat align 2 {
  %2 = icmp eq %"class.base::internal::BindStateBase"* %0, null
  br i1 %2, label %7, label %3

3:                                                ; preds = %1
  %4 = getelementptr inbounds %"class.base::internal::BindStateBase", %"class.base::internal::BindStateBase"* %0, i64 1, i32 2
  %5 = bitcast void (%"class.base::internal::BindStateBase"*)** %4 to %"class.base::internal::WeakPtrBase"*
  tail call void @_ZN4base8internal11WeakPtrBaseD2Ev(%"class.base::internal::WeakPtrBase"* %5) #9
  %6 = bitcast %"class.base::internal::BindStateBase"* %0 to i8*
  tail call void @_ZdlPv(i8* %6) #10
  br label %7

7:                                                ; preds = %3, %1
  ret void
}

; Function Attrs: nounwind ssp uwtable
define linkonce_odr hidden zeroext i1 @_ZN4base8internal23QueryCancellationTraitsINS0_9BindStateIMN7content18AppCacheResponseIOEFviEJNS_7WeakPtrIS4_EEiEEEEEbPKNS0_13BindStateBaseENSA_21CancellationQueryModeE(%"class.base::internal::BindStateBase"*, i32) #1 comdat {
  %3 = getelementptr inbounds %"class.base::internal::BindStateBase", %"class.base::internal::BindStateBase"* %0, i64 1, i32 2
  switch i32 %1, label %16 [
    i32 0, label %4
    i32 1, label %13
  ]

4:                                                ; preds = %2
  %5 = bitcast void (%"class.base::internal::BindStateBase"*)** %3 to %"class.base::internal::WeakReference"*
  %6 = tail call zeroext i1 @_ZNK4base8internal13WeakReference7IsValidEv(%"class.base::internal::WeakReference"* %5) #9
  %7 = getelementptr inbounds void (%"class.base::internal::BindStateBase"*)*, void (%"class.base::internal::BindStateBase"*)** %3, i64 1
  %8 = bitcast void (%"class.base::internal::BindStateBase"*)** %7 to %"class.content::AppCacheResponseIO"**
  %9 = load %"class.content::AppCacheResponseIO"*, %"class.content::AppCacheResponseIO"** %8, align 8
  %10 = icmp ne %"class.content::AppCacheResponseIO"* %9, null
  %11 = and i1 %6, %10
  %12 = xor i1 %11, true
  br label %16

13:                                               ; preds = %2
  %14 = bitcast void (%"class.base::internal::BindStateBase"*)** %3 to %"class.base::internal::WeakReference"*
  %15 = tail call zeroext i1 @_ZNK4base8internal13WeakReference10MaybeValidEv(%"class.base::internal::WeakReference"* %14) #9
  br label %16

16:                                               ; preds = %2, %4, %13
  %17 = phi i1 [ %15, %13 ], [ %12, %4 ], [ false, %2 ]
  ret i1 %17
}

declare void @_ZN4base8internal13BindStateBaseC2EPFvvEPFvPKS1_EPFbS5_NS1_21CancellationQueryModeEE(%"class.base::internal::BindStateBase"*, void ()*, void (%"class.base::internal::BindStateBase"*)*, i1 (%"class.base::internal::BindStateBase"*, i32)*) unnamed_addr #2

declare zeroext i1 @_ZNK4base8internal13WeakReference10MaybeValidEv(%"class.base::internal::WeakReference"*) local_unnamed_addr #2

; Function Attrs: nounwind ssp uwtable
define linkonce_odr hidden void @_ZN4base8internal7InvokerINS0_9BindStateIMN7content18AppCacheResponseIOEFviEJNS_7WeakPtrIS4_EEEEEFviEE7RunOnceEPNS0_13BindStateBaseEi(%"class.base::internal::BindStateBase"*, i32) #1 comdat align 2 {
  %3 = alloca %"class.logging::CheckError", align 8
  %4 = getelementptr inbounds %"class.base::internal::BindStateBase", %"class.base::internal::BindStateBase"* %0, i64 1
  %5 = getelementptr inbounds %"class.base::internal::BindStateBase", %"class.base::internal::BindStateBase"* %0, i64 1, i32 2
  %6 = bitcast void (%"class.base::internal::BindStateBase"*)** %5 to %"class.base::internal::WeakReference"*
  %7 = tail call zeroext i1 @_ZNK4base8internal13WeakReference7IsValidEv(%"class.base::internal::WeakReference"* %6) #9
  br i1 %7, label %8, label %43

8:                                                ; preds = %2
  %9 = getelementptr inbounds void (%"class.base::internal::BindStateBase"*)*, void (%"class.base::internal::BindStateBase"*)** %5, i64 1
  %10 = bitcast void (%"class.base::internal::BindStateBase"*)** %9 to %"class.content::AppCacheResponseIO"**
  %11 = load %"class.content::AppCacheResponseIO"*, %"class.content::AppCacheResponseIO"** %10, align 8
  %12 = icmp eq %"class.content::AppCacheResponseIO"* %11, null
  br i1 %12, label %43, label %13

13:                                               ; preds = %8
  %14 = bitcast %"class.base::internal::BindStateBase"* %4 to i64*
  %15 = load i64, i64* %14, align 8
  %16 = getelementptr inbounds %"class.base::internal::BindStateBase", %"class.base::internal::BindStateBase"* %0, i64 1, i32 1
  %17 = bitcast void ()** %16 to i64*
  %18 = load i64, i64* %17, align 8
  %19 = tail call zeroext i1 @_ZNK4base8internal13WeakReference7IsValidEv(%"class.base::internal::WeakReference"* %6) #9
  br i1 %19, label %23, label %20

20:                                               ; preds = %13
  %21 = bitcast %"class.logging::CheckError"* %3 to i8*
  call void @llvm.lifetime.start.p0i8(i64 8, i8* nonnull %21) #9
  call void @_ZN7logging10CheckError5CheckEPKciS2_(%"class.logging::CheckError"* nonnull sret %3, i8* getelementptr inbounds ([29 x i8], [29 x i8]* @.str.2, i64 0, i64 0), i32 251, i8* getelementptr inbounds ([15 x i8], [15 x i8]* @.str.3, i64 0, i64 0)) #9
  %22 = call dereferenceable(160) %"class.std::__1::basic_ostream"* @_ZN7logging10CheckError6streamEv(%"class.logging::CheckError"* nonnull %3) #9
  call void @_ZN7logging10CheckErrorD1Ev(%"class.logging::CheckError"* nonnull %3) #9
  call void @llvm.lifetime.end.p0i8(i64 8, i8* nonnull %21) #9
  br label %23

23:                                               ; preds = %20, %13
  %24 = call zeroext i1 @_ZNK4base8internal13WeakReference7IsValidEv(%"class.base::internal::WeakReference"* %6) #9
  %25 = bitcast void (%"class.base::internal::BindStateBase"*)** %9 to i8**
  %26 = load i8*, i8** %25, align 8
  %27 = select i1 %24, i8* %26, i8* null
  %28 = getelementptr inbounds i8, i8* %27, i64 %18
  %29 = bitcast i8* %28 to %"class.content::AppCacheResponseIO"*
  %30 = and i64 %15, 1
  %31 = icmp eq i64 %30, 0
  br i1 %31, label %39, label %32

32:                                               ; preds = %23
  %33 = bitcast i8* %28 to i8**
  %34 = load i8*, i8** %33, align 8
  %35 = add i64 %15, -1
  %36 = getelementptr i8, i8* %34, i64 %35
  %37 = bitcast i8* %36 to void (%"class.content::AppCacheResponseIO"*, i32)**
  %38 = load void (%"class.content::AppCacheResponseIO"*, i32)*, void (%"class.content::AppCacheResponseIO"*, i32)** %37, align 8
  br label %41

39:                                               ; preds = %23
  %40 = inttoptr i64 %15 to void (%"class.content::AppCacheResponseIO"*, i32)*
  br label %41

41:                                               ; preds = %39, %32
  %42 = phi void (%"class.content::AppCacheResponseIO"*, i32)* [ %38, %32 ], [ %40, %39 ]
  call void %42(%"class.content::AppCacheResponseIO"* %29, i32 %1) #9
  br label %43

43:                                               ; preds = %2, %8, %41
  ret void
}

; Function Attrs: nounwind ssp uwtable
define linkonce_odr hidden void @_ZN4base8internal9BindStateIMN7content18AppCacheResponseIOEFviEJNS_7WeakPtrIS3_EEEE7DestroyEPKNS0_13BindStateBaseE(%"class.base::internal::BindStateBase"*) #1 comdat align 2 {
  %2 = icmp eq %"class.base::internal::BindStateBase"* %0, null
  br i1 %2, label %7, label %3

3:                                                ; preds = %1
  %4 = getelementptr inbounds %"class.base::internal::BindStateBase", %"class.base::internal::BindStateBase"* %0, i64 1, i32 2
  %5 = bitcast void (%"class.base::internal::BindStateBase"*)** %4 to %"class.base::internal::WeakPtrBase"*
  tail call void @_ZN4base8internal11WeakPtrBaseD2Ev(%"class.base::internal::WeakPtrBase"* %5) #9
  %6 = bitcast %"class.base::internal::BindStateBase"* %0 to i8*
  tail call void @_ZdlPv(i8* %6) #10
  br label %7

7:                                                ; preds = %3, %1
  ret void
}

; Function Attrs: nounwind ssp uwtable
define linkonce_odr hidden zeroext i1 @_ZN4base8internal23QueryCancellationTraitsINS0_9BindStateIMN7content18AppCacheResponseIOEFviEJNS_7WeakPtrIS4_EEEEEEEbPKNS0_13BindStateBaseENSA_21CancellationQueryModeE(%"class.base::internal::BindStateBase"*, i32) #1 comdat {
  %3 = getelementptr inbounds %"class.base::internal::BindStateBase", %"class.base::internal::BindStateBase"* %0, i64 1, i32 2
  switch i32 %1, label %16 [
    i32 0, label %4
    i32 1, label %13
  ]

4:                                                ; preds = %2
  %5 = bitcast void (%"class.base::internal::BindStateBase"*)** %3 to %"class.base::internal::WeakReference"*
  %6 = tail call zeroext i1 @_ZNK4base8internal13WeakReference7IsValidEv(%"class.base::internal::WeakReference"* %5) #9
  %7 = getelementptr inbounds void (%"class.base::internal::BindStateBase"*)*, void (%"class.base::internal::BindStateBase"*)** %3, i64 1
  %8 = bitcast void (%"class.base::internal::BindStateBase"*)** %7 to %"class.content::AppCacheResponseIO"**
  %9 = load %"class.content::AppCacheResponseIO"*, %"class.content::AppCacheResponseIO"** %8, align 8
  %10 = icmp ne %"class.content::AppCacheResponseIO"* %9, null
  %11 = and i1 %6, %10
  %12 = xor i1 %11, true
  br label %16

13:                                               ; preds = %2
  %14 = bitcast void (%"class.base::internal::BindStateBase"*)** %3 to %"class.base::internal::WeakReference"*
  %15 = tail call zeroext i1 @_ZNK4base8internal13WeakReference10MaybeValidEv(%"class.base::internal::WeakReference"* %14) #9
  br label %16

16:                                               ; preds = %2, %4, %13
  %17 = phi i1 [ %15, %13 ], [ %12, %4 ], [ false, %2 ]
  ret i1 %17
}

; Function Attrs: nounwind ssp uwtable
define linkonce_odr hidden void @_ZN4base8internal7InvokerINS0_9BindStateIPFvNS_7WeakPtrIN7content18AppCacheResponseIOEEEPPNS4_22AppCacheDiskCacheEntryEiEJS6_S9_EEEFviEE7RunOnceEPNS0_13BindStateBaseEi(%"class.base::internal::BindStateBase"*, i32) #1 comdat align 2 {
  %3 = alloca %"class.base::WeakPtr.86", align 8
  %4 = getelementptr inbounds %"class.base::internal::BindStateBase", %"class.base::internal::BindStateBase"* %0, i64 1
  %5 = bitcast %"class.base::internal::BindStateBase"* %4 to void (%"class.base::WeakPtr.86"*, %"class.content::AppCacheDiskCacheEntry"**, i32)**
  %6 = getelementptr inbounds %"class.base::internal::BindStateBase", %"class.base::internal::BindStateBase"* %0, i64 1, i32 1
  %7 = getelementptr inbounds void ()*, void ()** %6, i64 2
  %8 = bitcast void ()** %7 to %"class.content::AppCacheDiskCacheEntry"***
  %9 = bitcast %"class.base::WeakPtr.86"* %3 to i8*
  call void @llvm.lifetime.start.p0i8(i64 16, i8* nonnull %9) #9
  %10 = load void (%"class.base::WeakPtr.86"*, %"class.content::AppCacheDiskCacheEntry"**, i32)*, void (%"class.base::WeakPtr.86"*, %"class.content::AppCacheDiskCacheEntry"**, i32)** %5, align 8
  %11 = getelementptr inbounds %"class.base::WeakPtr.86", %"class.base::WeakPtr.86"* %3, i64 0, i32 0, i32 0
  %12 = bitcast void ()** %6 to %"class.base::internal::WeakReference"*
  call void @_ZN4base8internal13WeakReferenceC1EOS1_(%"class.base::internal::WeakReference"* nonnull %11, %"class.base::internal::WeakReference"* dereferenceable(8) %12) #9
  %13 = getelementptr inbounds %"class.base::WeakPtr.86", %"class.base::WeakPtr.86"* %3, i64 0, i32 0, i32 1
  %14 = getelementptr inbounds void ()*, void ()** %6, i64 1
  %15 = bitcast void ()** %14 to i64*
  %16 = load i64, i64* %15, align 8
  store i64 %16, i64* %13, align 8
  %17 = load %"class.content::AppCacheDiskCacheEntry"**, %"class.content::AppCacheDiskCacheEntry"*** %8, align 8
  call void %10(%"class.base::WeakPtr.86"* nonnull %3, %"class.content::AppCacheDiskCacheEntry"** %17, i32 %1) #9
  %18 = getelementptr inbounds %"class.base::WeakPtr.86", %"class.base::WeakPtr.86"* %3, i64 0, i32 0
  call void @_ZN4base8internal11WeakPtrBaseD2Ev(%"class.base::internal::WeakPtrBase"* nonnull %18) #9
  call void @llvm.lifetime.end.p0i8(i64 16, i8* nonnull %9) #9
  ret void
}

; Function Attrs: nounwind ssp uwtable
define linkonce_odr hidden void @_ZN4base8internal9BindStateIPFvNS_7WeakPtrIN7content18AppCacheResponseIOEEEPPNS3_22AppCacheDiskCacheEntryEiEJS5_S8_EE7DestroyEPKNS0_13BindStateBaseE(%"class.base::internal::BindStateBase"*) #1 comdat align 2 {
  %2 = icmp eq %"class.base::internal::BindStateBase"* %0, null
  br i1 %2, label %7, label %3

3:                                                ; preds = %1
  %4 = getelementptr inbounds %"class.base::internal::BindStateBase", %"class.base::internal::BindStateBase"* %0, i64 1, i32 1
  %5 = bitcast void ()** %4 to %"class.base::internal::WeakPtrBase"*
  tail call void @_ZN4base8internal11WeakPtrBaseD2Ev(%"class.base::internal::WeakPtrBase"* %5) #9
  %6 = bitcast %"class.base::internal::BindStateBase"* %0 to i8*
  tail call void @_ZdlPv(i8* %6) #10
  br label %7

7:                                                ; preds = %3, %1
  ret void
}

declare void @_ZN4base8internal13BindStateBaseC2EPFvvEPFvPKS1_E(%"class.base::internal::BindStateBase"*, void ()*, void (%"class.base::internal::BindStateBase"*)*) unnamed_addr #2

declare void @_ZN3net8IOBufferC1Em(%"class.net::IOBuffer"*, i64) unnamed_addr #2

declare void @_ZN3net16HttpResponseInfoC1Ev(%"class.net::HttpResponseInfo"*) unnamed_addr #2

declare void @_ZN3net16IOBufferWithSizeC1Em(%"class.net::IOBufferWithSize"*, i64) unnamed_addr #2

declare void @_ZNK4base8internal18WeakReferenceOwner6GetRefEv(%"class.base::internal::WeakReference"* sret, %"class.base::internal::WeakReferenceOwner"*) local_unnamed_addr #2

; Function Attrs: nounwind
declare void @_ZN4base8internal13WeakReferenceD1Ev(%"class.base::internal::WeakReference"*) unnamed_addr #3

declare void @_ZN4base8internal11WeakPtrBaseC2ERKNS0_13WeakReferenceEm(%"class.base::internal::WeakPtrBase"*, %"class.base::internal::WeakReference"* dereferenceable(8), i64) unnamed_addr #2

declare void @_ZN4base6PickleC1Ev(%"class.base::Pickle"*) unnamed_addr #2

declare void @_ZN3net15WrappedIOBufferC2EPKc(%"class.net::WrappedIOBuffer"*, i8*) unnamed_addr #2

; Function Attrs: nounwind ssp uwtable
define internal void @_ZN7content12_GLOBAL__N_121WrappedPickleIOBufferD2Ev(%"class.content::(anonymous namespace)::WrappedPickleIOBuffer"*) unnamed_addr #1 align 2 {
  %2 = getelementptr inbounds %"class.content::(anonymous namespace)::WrappedPickleIOBuffer", %"class.content::(anonymous namespace)::WrappedPickleIOBuffer"* %0, i64 0, i32 0, i32 0, i32 0
  store i32 (...)** bitcast (i8** getelementptr inbounds ({ [4 x i8*] }, { [4 x i8*] }* @_ZTVN7content12_GLOBAL__N_121WrappedPickleIOBufferE, i64 0, inrange i32 0, i64 2) to i32 (...)**), i32 (...)*** %2, align 8
  %3 = getelementptr inbounds %"class.content::(anonymous namespace)::WrappedPickleIOBuffer", %"class.content::(anonymous namespace)::WrappedPickleIOBuffer"* %0, i64 0, i32 1, i32 0, i32 0, i32 0
  %4 = load %"class.base::Pickle"*, %"class.base::Pickle"** %3, align 8
  store %"class.base::Pickle"* null, %"class.base::Pickle"** %3, align 8
  %5 = icmp eq %"class.base::Pickle"* %4, null
  br i1 %5, label %11, label %6

6:                                                ; preds = %1
  %7 = bitcast %"class.base::Pickle"* %4 to void (%"class.base::Pickle"*)***
  %8 = load void (%"class.base::Pickle"*)**, void (%"class.base::Pickle"*)*** %7, align 8
  %9 = getelementptr inbounds void (%"class.base::Pickle"*)*, void (%"class.base::Pickle"*)** %8, i64 1
  %10 = load void (%"class.base::Pickle"*)*, void (%"class.base::Pickle"*)** %9, align 8
  tail call void %10(%"class.base::Pickle"* nonnull %4) #9
  br label %11

11:                                               ; preds = %1, %6
  %12 = getelementptr inbounds %"class.content::(anonymous namespace)::WrappedPickleIOBuffer", %"class.content::(anonymous namespace)::WrappedPickleIOBuffer"* %0, i64 0, i32 0
  tail call void @_ZN3net15WrappedIOBufferD2Ev(%"class.net::WrappedIOBuffer"* %12) #9
  ret void
}

; Function Attrs: nounwind ssp uwtable
define internal void @_ZN7content12_GLOBAL__N_121WrappedPickleIOBufferD0Ev(%"class.content::(anonymous namespace)::WrappedPickleIOBuffer"*) unnamed_addr #1 align 2 {
  %2 = getelementptr inbounds %"class.content::(anonymous namespace)::WrappedPickleIOBuffer", %"class.content::(anonymous namespace)::WrappedPickleIOBuffer"* %0, i64 0, i32 0, i32 0, i32 0
  store i32 (...)** bitcast (i8** getelementptr inbounds ({ [4 x i8*] }, { [4 x i8*] }* @_ZTVN7content12_GLOBAL__N_121WrappedPickleIOBufferE, i64 0, inrange i32 0, i64 2) to i32 (...)**), i32 (...)*** %2, align 8
  %3 = getelementptr inbounds %"class.content::(anonymous namespace)::WrappedPickleIOBuffer", %"class.content::(anonymous namespace)::WrappedPickleIOBuffer"* %0, i64 0, i32 1, i32 0, i32 0, i32 0
  %4 = load %"class.base::Pickle"*, %"class.base::Pickle"** %3, align 8
  store %"class.base::Pickle"* null, %"class.base::Pickle"** %3, align 8
  %5 = icmp eq %"class.base::Pickle"* %4, null
  br i1 %5, label %11, label %6

6:                                                ; preds = %1
  %7 = bitcast %"class.base::Pickle"* %4 to void (%"class.base::Pickle"*)***
  %8 = load void (%"class.base::Pickle"*)**, void (%"class.base::Pickle"*)*** %7, align 8
  %9 = getelementptr inbounds void (%"class.base::Pickle"*)*, void (%"class.base::Pickle"*)** %8, i64 1
  %10 = load void (%"class.base::Pickle"*)*, void (%"class.base::Pickle"*)** %9, align 8
  tail call void %10(%"class.base::Pickle"* nonnull %4) #9
  br label %11

11:                                               ; preds = %1, %6
  %12 = getelementptr inbounds %"class.content::(anonymous namespace)::WrappedPickleIOBuffer", %"class.content::(anonymous namespace)::WrappedPickleIOBuffer"* %0, i64 0, i32 0
  tail call void @_ZN3net15WrappedIOBufferD2Ev(%"class.net::WrappedIOBuffer"* %12) #9
  %13 = bitcast %"class.content::(anonymous namespace)::WrappedPickleIOBuffer"* %0 to i8*
  tail call void @_ZdlPv(i8* %13) #10
  ret void
}

; Function Attrs: nounwind
declare void @_ZN3net15WrappedIOBufferD2Ev(%"class.net::WrappedIOBuffer"*) unnamed_addr #3

; Function Attrs: nounwind ssp uwtable
define linkonce_odr hidden void @_ZN4base8internal7InvokerINS0_9BindStateIPFvNS_7WeakPtrIN7content22AppCacheResponseWriterEEEPPNS4_22AppCacheDiskCacheEntryEiEJS6_S9_EEEFviEE7RunOnceEPNS0_13BindStateBaseEi(%"class.base::internal::BindStateBase"*, i32) #1 comdat align 2 {
  %3 = alloca %"class.base::WeakPtr.103", align 8
  %4 = getelementptr inbounds %"class.base::internal::BindStateBase", %"class.base::internal::BindStateBase"* %0, i64 1
  %5 = bitcast %"class.base::internal::BindStateBase"* %4 to void (%"class.base::WeakPtr.103"*, %"class.content::AppCacheDiskCacheEntry"**, i32)**
  %6 = getelementptr inbounds %"class.base::internal::BindStateBase", %"class.base::internal::BindStateBase"* %0, i64 1, i32 1
  %7 = getelementptr inbounds void ()*, void ()** %6, i64 2
  %8 = bitcast void ()** %7 to %"class.content::AppCacheDiskCacheEntry"***
  %9 = bitcast %"class.base::WeakPtr.103"* %3 to i8*
  call void @llvm.lifetime.start.p0i8(i64 16, i8* nonnull %9) #9
  %10 = load void (%"class.base::WeakPtr.103"*, %"class.content::AppCacheDiskCacheEntry"**, i32)*, void (%"class.base::WeakPtr.103"*, %"class.content::AppCacheDiskCacheEntry"**, i32)** %5, align 8
  %11 = getelementptr inbounds %"class.base::WeakPtr.103", %"class.base::WeakPtr.103"* %3, i64 0, i32 0, i32 0
  %12 = bitcast void ()** %6 to %"class.base::internal::WeakReference"*
  call void @_ZN4base8internal13WeakReferenceC1EOS1_(%"class.base::internal::WeakReference"* nonnull %11, %"class.base::internal::WeakReference"* dereferenceable(8) %12) #9
  %13 = getelementptr inbounds %"class.base::WeakPtr.103", %"class.base::WeakPtr.103"* %3, i64 0, i32 0, i32 1
  %14 = getelementptr inbounds void ()*, void ()** %6, i64 1
  %15 = bitcast void ()** %14 to i64*
  %16 = load i64, i64* %15, align 8
  store i64 %16, i64* %13, align 8
  %17 = load %"class.content::AppCacheDiskCacheEntry"**, %"class.content::AppCacheDiskCacheEntry"*** %8, align 8
  call void %10(%"class.base::WeakPtr.103"* nonnull %3, %"class.content::AppCacheDiskCacheEntry"** %17, i32 %1) #9
  %18 = getelementptr inbounds %"class.base::WeakPtr.103", %"class.base::WeakPtr.103"* %3, i64 0, i32 0
  call void @_ZN4base8internal11WeakPtrBaseD2Ev(%"class.base::internal::WeakPtrBase"* nonnull %18) #9
  call void @llvm.lifetime.end.p0i8(i64 16, i8* nonnull %9) #9
  ret void
}

; Function Attrs: nounwind ssp uwtable
define linkonce_odr hidden void @_ZN4base8internal9BindStateIPFvNS_7WeakPtrIN7content22AppCacheResponseWriterEEEPPNS3_22AppCacheDiskCacheEntryEiEJS5_S8_EE7DestroyEPKNS0_13BindStateBaseE(%"class.base::internal::BindStateBase"*) #1 comdat align 2 {
  %2 = icmp eq %"class.base::internal::BindStateBase"* %0, null
  br i1 %2, label %7, label %3

3:                                                ; preds = %1
  %4 = getelementptr inbounds %"class.base::internal::BindStateBase", %"class.base::internal::BindStateBase"* %0, i64 1, i32 1
  %5 = bitcast void ()** %4 to %"class.base::internal::WeakPtrBase"*
  tail call void @_ZN4base8internal11WeakPtrBaseD2Ev(%"class.base::internal::WeakPtrBase"* %5) #9
  %6 = bitcast %"class.base::internal::BindStateBase"* %0 to i8*
  tail call void @_ZdlPv(i8* %6) #10
  br label %7

7:                                                ; preds = %3, %1
  ret void
}

; Function Attrs: nounwind ssp uwtable
define linkonce_odr hidden void @_ZN4base8internal7InvokerINS0_9BindStateIPFvNS_7WeakPtrIN7content22AppCacheResponseWriterEEEPPNS4_22AppCacheDiskCacheEntryEiEJS6_DnEEEFviEE7RunOnceEPNS0_13BindStateBaseEi(%"class.base::internal::BindStateBase"*, i32) #1 comdat align 2 {
  %3 = alloca %"class.base::WeakPtr.103", align 8
  %4 = getelementptr inbounds %"class.base::internal::BindStateBase", %"class.base::internal::BindStateBase"* %0, i64 1
  %5 = bitcast %"class.base::internal::BindStateBase"* %4 to void (%"class.base::WeakPtr.103"*, %"class.content::AppCacheDiskCacheEntry"**, i32)**
  %6 = getelementptr inbounds %"class.base::internal::BindStateBase", %"class.base::internal::BindStateBase"* %0, i64 1, i32 1
  %7 = bitcast %"class.base::WeakPtr.103"* %3 to i8*
  call void @llvm.lifetime.start.p0i8(i64 16, i8* nonnull %7) #9
  %8 = load void (%"class.base::WeakPtr.103"*, %"class.content::AppCacheDiskCacheEntry"**, i32)*, void (%"class.base::WeakPtr.103"*, %"class.content::AppCacheDiskCacheEntry"**, i32)** %5, align 8
  %9 = getelementptr inbounds %"class.base::WeakPtr.103", %"class.base::WeakPtr.103"* %3, i64 0, i32 0, i32 0
  %10 = bitcast void ()** %6 to %"class.base::internal::WeakReference"*
  call void @_ZN4base8internal13WeakReferenceC1EOS1_(%"class.base::internal::WeakReference"* nonnull %9, %"class.base::internal::WeakReference"* dereferenceable(8) %10) #9
  %11 = getelementptr inbounds %"class.base::WeakPtr.103", %"class.base::WeakPtr.103"* %3, i64 0, i32 0, i32 1
  %12 = getelementptr inbounds void ()*, void ()** %6, i64 1
  %13 = bitcast void ()** %12 to i64*
  %14 = load i64, i64* %13, align 8
  store i64 %14, i64* %11, align 8
  call void %8(%"class.base::WeakPtr.103"* nonnull %3, %"class.content::AppCacheDiskCacheEntry"** null, i32 %1) #9
  %15 = getelementptr inbounds %"class.base::WeakPtr.103", %"class.base::WeakPtr.103"* %3, i64 0, i32 0
  call void @_ZN4base8internal11WeakPtrBaseD2Ev(%"class.base::internal::WeakPtrBase"* nonnull %15) #9
  call void @llvm.lifetime.end.p0i8(i64 16, i8* nonnull %7) #9
  ret void
}

; Function Attrs: nounwind ssp uwtable
define linkonce_odr hidden void @_ZN4base8internal9BindStateIPFvNS_7WeakPtrIN7content22AppCacheResponseWriterEEEPPNS3_22AppCacheDiskCacheEntryEiEJS5_DnEE7DestroyEPKNS0_13BindStateBaseE(%"class.base::internal::BindStateBase"*) #1 comdat align 2 {
  %2 = icmp eq %"class.base::internal::BindStateBase"* %0, null
  br i1 %2, label %7, label %3

3:                                                ; preds = %1
  %4 = getelementptr inbounds %"class.base::internal::BindStateBase", %"class.base::internal::BindStateBase"* %0, i64 1, i32 1
  %5 = bitcast void ()** %4 to %"class.base::internal::WeakPtrBase"*
  tail call void @_ZN4base8internal11WeakPtrBaseD2Ev(%"class.base::internal::WeakPtrBase"* %5) #9
  %6 = bitcast %"class.base::internal::BindStateBase"* %0 to i8*
  tail call void @_ZdlPv(i8* %6) #10
  br label %7

7:                                                ; preds = %3, %1
  ret void
}

attributes #0 = { nofree norecurse nounwind ssp uwtable writeonly "correctly-rounded-divide-sqrt-fp-math"="false" "disable-tail-calls"="false" "less-precise-fpmad"="false" "min-legal-vector-width"="0" "no-frame-pointer-elim"="false" "no-frame-pointer-elim-non-leaf" "no-infs-fp-math"="false" "no-jump-tables"="false" "no-nans-fp-math"="false" "no-signed-zeros-fp-math"="false" "no-trapping-math"="false" "null-pointer-is-valid"="true" "stack-protector-buffer-size"="4" "target-cpu"="x86-64" "target-features"="+cx8,+fxsr,+mmx,+sse,+sse2,+sse3,+x87" "unsafe-fp-math"="false" "use-soft-float"="false" }
attributes #1 = { nounwind ssp uwtable "correctly-rounded-divide-sqrt-fp-math"="false" "disable-tail-calls"="false" "less-precise-fpmad"="false" "min-legal-vector-width"="0" "no-frame-pointer-elim"="false" "no-frame-pointer-elim-non-leaf" "no-infs-fp-math"="false" "no-jump-tables"="false" "no-nans-fp-math"="false" "no-signed-zeros-fp-math"="false" "no-trapping-math"="false" "null-pointer-is-valid"="true" "stack-protector-buffer-size"="4" "target-cpu"="x86-64" "target-features"="+cx8,+fxsr,+mmx,+sse,+sse2,+sse3,+x87" "unsafe-fp-math"="false" "use-soft-float"="false" }
attributes #2 = { "correctly-rounded-divide-sqrt-fp-math"="false" "disable-tail-calls"="false" "less-precise-fpmad"="false" "no-frame-pointer-elim"="false" "no-frame-pointer-elim-non-leaf" "no-infs-fp-math"="false" "no-nans-fp-math"="false" "no-signed-zeros-fp-math"="false" "no-trapping-math"="false" "null-pointer-is-valid"="true" "stack-protector-buffer-size"="4" "target-cpu"="x86-64" "target-features"="+cx8,+fxsr,+mmx,+sse,+sse2,+sse3,+x87" "unsafe-fp-math"="false" "use-soft-float"="false" }
attributes #3 = { nounwind "correctly-rounded-divide-sqrt-fp-math"="false" "disable-tail-calls"="false" "less-precise-fpmad"="false" "no-frame-pointer-elim"="false" "no-frame-pointer-elim-non-leaf" "no-infs-fp-math"="false" "no-nans-fp-math"="false" "no-signed-zeros-fp-math"="false" "no-trapping-math"="false" "null-pointer-is-valid"="true" "stack-protector-buffer-size"="4" "target-cpu"="x86-64" "target-features"="+cx8,+fxsr,+mmx,+sse,+sse2,+sse3,+x87" "unsafe-fp-math"="false" "use-soft-float"="false" }
attributes #4 = { noreturn nounwind ssp uwtable "correctly-rounded-divide-sqrt-fp-math"="false" "disable-tail-calls"="false" "less-precise-fpmad"="false" "min-legal-vector-width"="0" "no-frame-pointer-elim"="false" "no-frame-pointer-elim-non-leaf" "no-infs-fp-math"="false" "no-jump-tables"="false" "no-nans-fp-math"="false" "no-signed-zeros-fp-math"="false" "no-trapping-math"="false" "null-pointer-is-valid"="true" "stack-protector-buffer-size"="4" "target-cpu"="x86-64" "target-features"="+cx8,+fxsr,+mmx,+sse,+sse2,+sse3,+x87" "unsafe-fp-math"="false" "use-soft-float"="false" }
attributes #5 = { cold noreturn nounwind }
attributes #6 = { argmemonly nounwind }
attributes #7 = { nobuiltin nofree "correctly-rounded-divide-sqrt-fp-math"="false" "disable-tail-calls"="false" "less-precise-fpmad"="false" "no-frame-pointer-elim"="false" "no-frame-pointer-elim-non-leaf" "no-infs-fp-math"="false" "no-nans-fp-math"="false" "no-signed-zeros-fp-math"="false" "no-trapping-math"="false" "null-pointer-is-valid"="true" "stack-protector-buffer-size"="4" "target-cpu"="x86-64" "target-features"="+cx8,+fxsr,+mmx,+sse,+sse2,+sse3,+x87" "unsafe-fp-math"="false" "use-soft-float"="false" }
attributes #8 = { nobuiltin nounwind "correctly-rounded-divide-sqrt-fp-math"="false" "disable-tail-calls"="false" "less-precise-fpmad"="false" "no-frame-pointer-elim"="false" "no-frame-pointer-elim-non-leaf" "no-infs-fp-math"="false" "no-nans-fp-math"="false" "no-signed-zeros-fp-math"="false" "no-trapping-math"="false" "null-pointer-is-valid"="true" "stack-protector-buffer-size"="4" "target-cpu"="x86-64" "target-features"="+cx8,+fxsr,+mmx,+sse,+sse2,+sse3,+x87" "unsafe-fp-math"="false" "use-soft-float"="false" }
attributes #9 = { nounwind }
attributes #10 = { builtin nounwind }
attributes #11 = { noreturn nounwind }

!llvm.module.flags = !{!0, !1}

!0 = !{i32 1, !"wchar_size", i32 4}
!1 = !{i32 7, !"PIC Level", i32 2}
!2 = !{!3, !5}
!3 = distinct !{!3, !4, !"_ZN4base8internal8BindImplINS_12OnceCallbackEMN7content18AppCacheResponseIOEFviEJNS_7WeakPtrIS4_EERiEEEDcOT0_DpOT1_: argument 0"}
!4 = distinct !{!4, !"_ZN4base8internal8BindImplINS_12OnceCallbackEMN7content18AppCacheResponseIOEFviEJNS_7WeakPtrIS4_EERiEEEDcOT0_DpOT1_"}
!5 = distinct !{!5, !6, !"_ZN4base8BindOnceIMN7content18AppCacheResponseIOEFviEJNS_7WeakPtrIS2_EERiEEENS_12OnceCallbackINS_8internal14BindTypeHelperIT_JDpT0_EE14UnboundRunTypeEEEOSB_DpOSC_: argument 0"}
!6 = distinct !{!6, !"_ZN4base8BindOnceIMN7content18AppCacheResponseIOEFviEJNS_7WeakPtrIS2_EERiEEENS_12OnceCallbackINS_8internal14BindTypeHelperIT_JDpT0_EE14UnboundRunTypeEEEOSB_DpOSC_"}
!7 = !{!8, !10}
!8 = distinct !{!8, !9, !"_ZN4base8internal8BindImplINS_12OnceCallbackEMN7content18AppCacheResponseIOEFviEJNS_7WeakPtrIS4_EEEEEDcOT0_DpOT1_: argument 0"}
!9 = distinct !{!9, !"_ZN4base8internal8BindImplINS_12OnceCallbackEMN7content18AppCacheResponseIOEFviEJNS_7WeakPtrIS4_EEEEEDcOT0_DpOT1_"}
!10 = distinct !{!10, !11, !"_ZN4base8BindOnceIMN7content18AppCacheResponseIOEFviEJNS_7WeakPtrIS2_EEEEENS_12OnceCallbackINS_8internal14BindTypeHelperIT_JDpT0_EE14UnboundRunTypeEEEOSA_DpOSB_: argument 0"}
!11 = distinct !{!11, !"_ZN4base8BindOnceIMN7content18AppCacheResponseIOEFviEJNS_7WeakPtrIS2_EEEEENS_12OnceCallbackINS_8internal14BindTypeHelperIT_JDpT0_EE14UnboundRunTypeEEEOSA_DpOSB_"}
!12 = !{!13, !15}
!13 = distinct !{!13, !14, !"_ZN4base8internal8BindImplINS_12OnceCallbackEMN7content18AppCacheResponseIOEFviEJNS_7WeakPtrIS4_EEEEEDcOT0_DpOT1_: argument 0"}
!14 = distinct !{!14, !"_ZN4base8internal8BindImplINS_12OnceCallbackEMN7content18AppCacheResponseIOEFviEJNS_7WeakPtrIS4_EEEEEDcOT0_DpOT1_"}
!15 = distinct !{!15, !16, !"_ZN4base8BindOnceIMN7content18AppCacheResponseIOEFviEJNS_7WeakPtrIS2_EEEEENS_12OnceCallbackINS_8internal14BindTypeHelperIT_JDpT0_EE14UnboundRunTypeEEEOSA_DpOSB_: argument 0"}
!16 = distinct !{!16, !"_ZN4base8BindOnceIMN7content18AppCacheResponseIOEFviEJNS_7WeakPtrIS2_EEEEENS_12OnceCallbackINS_8internal14BindTypeHelperIT_JDpT0_EE14UnboundRunTypeEEEOSA_DpOSB_"}
!17 = !{!18, !20}
!18 = distinct !{!18, !19, !"_ZN4base8internal8BindImplINS_12OnceCallbackEPFvNS_7WeakPtrIN7content18AppCacheResponseIOEEEPPNS4_22AppCacheDiskCacheEntryEiEJS6_RS9_EEEDcOT0_DpOT1_: argument 0"}
!19 = distinct !{!19, !"_ZN4base8internal8BindImplINS_12OnceCallbackEPFvNS_7WeakPtrIN7content18AppCacheResponseIOEEEPPNS4_22AppCacheDiskCacheEntryEiEJS6_RS9_EEEDcOT0_DpOT1_"}
!20 = distinct !{!20, !21, !"_ZN4base8BindOnceIPFvNS_7WeakPtrIN7content18AppCacheResponseIOEEEPPNS2_22AppCacheDiskCacheEntryEiEJS4_RS7_EEENS_12OnceCallbackINS_8internal14BindTypeHelperIT_JDpT0_EE14UnboundRunTypeEEEOSE_DpOSF_: argument 0"}
!21 = distinct !{!21, !"_ZN4base8BindOnceIPFvNS_7WeakPtrIN7content18AppCacheResponseIOEEEPPNS2_22AppCacheDiskCacheEntryEiEJS4_RS7_EEENS_12OnceCallbackINS_8internal14BindTypeHelperIT_JDpT0_EE14UnboundRunTypeEEEOSE_DpOSF_"}
!22 = !{!23}
!23 = distinct !{!23, !24, !"_ZNK4base14WeakPtrFactoryIN7content22AppCacheResponseReaderEE10GetWeakPtrEv: argument 0"}
!24 = distinct !{!24, !"_ZNK4base14WeakPtrFactoryIN7content22AppCacheResponseReaderEE10GetWeakPtrEv"}
!25 = !{!26}
!26 = distinct !{!26, !27, !"_ZNK4base14WeakPtrFactoryIN7content22AppCacheResponseWriterEE10GetWeakPtrEv: argument 0"}
!27 = distinct !{!27, !"_ZNK4base14WeakPtrFactoryIN7content22AppCacheResponseWriterEE10GetWeakPtrEv"}
!28 = !{!29, !31}
!29 = distinct !{!29, !30, !"_ZN4base8internal8BindImplINS_12OnceCallbackEPFvNS_7WeakPtrIN7content22AppCacheResponseWriterEEEPPNS4_22AppCacheDiskCacheEntryEiEJS6_RS9_EEEDcOT0_DpOT1_: argument 0"}
!30 = distinct !{!30, !"_ZN4base8internal8BindImplINS_12OnceCallbackEPFvNS_7WeakPtrIN7content22AppCacheResponseWriterEEEPPNS4_22AppCacheDiskCacheEntryEiEJS6_RS9_EEEDcOT0_DpOT1_"}
!31 = distinct !{!31, !32, !"_ZN4base8BindOnceIPFvNS_7WeakPtrIN7content22AppCacheResponseWriterEEEPPNS2_22AppCacheDiskCacheEntryEiEJS4_RS7_EEENS_12OnceCallbackINS_8internal14BindTypeHelperIT_JDpT0_EE14UnboundRunTypeEEEOSE_DpOSF_: argument 0"}
!32 = distinct !{!32, !"_ZN4base8BindOnceIPFvNS_7WeakPtrIN7content22AppCacheResponseWriterEEEPPNS2_22AppCacheDiskCacheEntryEiEJS4_RS7_EEENS_12OnceCallbackINS_8internal14BindTypeHelperIT_JDpT0_EE14UnboundRunTypeEEEOSE_DpOSF_"}
!33 = !{!34}
!34 = distinct !{!34, !35, !"_ZNK4base14WeakPtrFactoryIN7content22AppCacheResponseWriterEE10GetWeakPtrEv: argument 0"}
!35 = distinct !{!35, !"_ZNK4base14WeakPtrFactoryIN7content22AppCacheResponseWriterEE10GetWeakPtrEv"}
!36 = !{!37, !39}
!37 = distinct !{!37, !38, !"_ZN4base8internal8BindImplINS_12OnceCallbackEPFvNS_7WeakPtrIN7content22AppCacheResponseWriterEEEPPNS4_22AppCacheDiskCacheEntryEiEJRS6_DnEEEDcOT0_DpOT1_: argument 0"}
!38 = distinct !{!38, !"_ZN4base8internal8BindImplINS_12OnceCallbackEPFvNS_7WeakPtrIN7content22AppCacheResponseWriterEEEPPNS4_22AppCacheDiskCacheEntryEiEJRS6_DnEEEDcOT0_DpOT1_"}
!39 = distinct !{!39, !40, !"_ZN4base8BindOnceIPFvNS_7WeakPtrIN7content22AppCacheResponseWriterEEEPPNS2_22AppCacheDiskCacheEntryEiEJRS4_DnEEENS_12OnceCallbackINS_8internal14BindTypeHelperIT_JDpT0_EE14UnboundRunTypeEEEOSE_DpOSF_: argument 0"}
!40 = distinct !{!40, !"_ZN4base8BindOnceIPFvNS_7WeakPtrIN7content22AppCacheResponseWriterEEEPPNS2_22AppCacheDiskCacheEntryEiEJRS4_DnEEENS_12OnceCallbackINS_8internal14BindTypeHelperIT_JDpT0_EE14UnboundRunTypeEEEOSE_DpOSF_"}
!41 = !{!42, !44}
!42 = distinct !{!42, !43, !"_ZN4base8internal8BindImplINS_12OnceCallbackEPFvNS_7WeakPtrIN7content22AppCacheResponseWriterEEEPPNS4_22AppCacheDiskCacheEntryEiEJRS6_RS9_EEEDcOT0_DpOT1_: argument 0"}
!43 = distinct !{!43, !"_ZN4base8internal8BindImplINS_12OnceCallbackEPFvNS_7WeakPtrIN7content22AppCacheResponseWriterEEEPPNS4_22AppCacheDiskCacheEntryEiEJRS6_RS9_EEEDcOT0_DpOT1_"}
!44 = distinct !{!44, !45, !"_ZN4base8BindOnceIPFvNS_7WeakPtrIN7content22AppCacheResponseWriterEEEPPNS2_22AppCacheDiskCacheEntryEiEJRS4_RS7_EEENS_12OnceCallbackINS_8internal14BindTypeHelperIT_JDpT0_EE14UnboundRunTypeEEEOSF_DpOSG_: argument 0"}
!45 = distinct !{!45, !"_ZN4base8BindOnceIPFvNS_7WeakPtrIN7content22AppCacheResponseWriterEEEPPNS2_22AppCacheDiskCacheEntryEiEJRS4_RS7_EEENS_12OnceCallbackINS_8internal14BindTypeHelperIT_JDpT0_EE14UnboundRunTypeEEEOSF_DpOSG_"}
!46 = !{!47}
!47 = distinct !{!47, !48, !"_ZNK4base14WeakPtrFactoryIN7content22AppCacheResponseWriterEE10GetWeakPtrEv: argument 0"}
!48 = distinct !{!48, !"_ZNK4base14WeakPtrFactoryIN7content22AppCacheResponseWriterEE10GetWeakPtrEv"}
!49 = !{!50}
!50 = distinct !{!50, !51, !"_ZNK4base14WeakPtrFactoryIN7content30AppCacheResponseMetadataWriterEE10GetWeakPtrEv: argument 0"}
!51 = distinct !{!51, !"_ZNK4base14WeakPtrFactoryIN7content30AppCacheResponseMetadataWriterEE10GetWeakPtrEv"}
