; ModuleID = '../../components/omnibox/browser/autocomplete_classifier.cc'
source_filename = "../../components/omnibox/browser/autocomplete_classifier.cc"
target datalayout = "e-m:e-i64:64-f80:128-n8:16:32:64-S128"
target triple = "x86_64-unknown-linux-gnu"

module asm ".symver exp, exp@GLIBC_2.2.5"
module asm ".symver exp2, exp2@GLIBC_2.2.5"
module asm ".symver exp2f, exp2f@GLIBC_2.2.5"
module asm ".symver expf, expf@GLIBC_2.2.5"
module asm ".symver lgamma, lgamma@GLIBC_2.2.5"
module asm ".symver lgammaf, lgammaf@GLIBC_2.2.5"
module asm ".symver lgammal, lgammal@GLIBC_2.2.5"
module asm ".symver log, log@GLIBC_2.2.5"
module asm ".symver log2, log2@GLIBC_2.2.5"
module asm ".symver log2f, log2f@GLIBC_2.2.5"
module asm ".symver logf, logf@GLIBC_2.2.5"
module asm ".symver pow, pow@GLIBC_2.2.5"
module asm ".symver powf, powf@GLIBC_2.2.5"

%"struct.base::Feature" = type { i8*, i32 }
%class.AutocompleteClassifier = type <{ %class.KeyedService, %"class.std::__1::unique_ptr", %"class.std::__1::unique_ptr.355", i8, [7 x i8] }>
%class.KeyedService = type { i32 (...)** }
%"class.std::__1::unique_ptr" = type { %"class.std::__1::__compressed_pair" }
%"class.std::__1::__compressed_pair" = type { %"struct.std::__1::__compressed_pair_elem" }
%"struct.std::__1::__compressed_pair_elem" = type { %class.AutocompleteController* }
%"class.std::__1::unique_ptr.355" = type { %"class.std::__1::__compressed_pair.356" }
%"class.std::__1::__compressed_pair.356" = type { %"struct.std::__1::__compressed_pair_elem.357" }
%"struct.std::__1::__compressed_pair_elem.357" = type { %class.AutocompleteSchemeClassifier* }
%class.AutocompleteController = type { %class.AutocompleteProviderListener, %"class.base::trace_event::MemoryDumpProvider", %"class.base::ObserverList", %"class.std::__1::unique_ptr.9", %"class.std::__1::vector.13", %class.DocumentProvider*, %class.HistoryURLProvider*, %class.KeywordProvider*, %class.SearchProvider*, %class.ZeroSuggestProvider*, %class.OnDeviceHeadProvider*, %class.ClipboardProvider*, %class.VoiceSuggestProvider*, %class.AutocompleteInput, %class.AutocompleteResult, %"class.base::TimeTicks", %"class.base::OneShotTimer", %"class.base::OneShotTimer", %"class.base::TimeDelta", i8, i8, i8, %class.TemplateURLService* }
%class.AutocompleteProviderListener = type { i32 (...)** }
%"class.base::trace_event::MemoryDumpProvider" = type { i32 (...)** }
%"class.base::ObserverList" = type <{ %"class.std::__1::vector", %"class.base::LinkedList", i64, i32, [4 x i8] }>
%"class.std::__1::vector" = type { %"class.std::__1::__vector_base" }
%"class.std::__1::__vector_base" = type { %"class.base::internal::CheckedObserverAdapter"*, %"class.base::internal::CheckedObserverAdapter"*, %"class.std::__1::__compressed_pair.6" }
%"class.base::internal::CheckedObserverAdapter" = type { %"class.base::WeakPtr" }
%"class.base::WeakPtr" = type { %"class.base::internal::WeakPtrBase" }
%"class.base::internal::WeakPtrBase" = type { %"class.base::internal::WeakReference", i64 }
%"class.base::internal::WeakReference" = type { %class.scoped_refptr }
%class.scoped_refptr = type { %"class.base::internal::WeakReference::Flag"* }
%"class.base::internal::WeakReference::Flag" = type <{ %"class.base::RefCountedThreadSafe", %"class.base::AtomicFlag", [3 x i8] }>
%"class.base::RefCountedThreadSafe" = type { %"class.base::subtle::RefCountedThreadSafeBase" }
%"class.base::subtle::RefCountedThreadSafeBase" = type { %"class.base::AtomicRefCount" }
%"class.base::AtomicRefCount" = type { %"struct.std::__1::atomic" }
%"struct.std::__1::atomic" = type { %"struct.std::__1::__atomic_base" }
%"struct.std::__1::__atomic_base" = type { %"struct.std::__1::__atomic_base.0" }
%"struct.std::__1::__atomic_base.0" = type { %"struct.std::__1::__cxx_atomic_impl" }
%"struct.std::__1::__cxx_atomic_impl" = type { %"struct.std::__1::__cxx_atomic_base_impl" }
%"struct.std::__1::__cxx_atomic_base_impl" = type { i32 }
%"class.base::AtomicFlag" = type { %"struct.std::__1::atomic.1" }
%"struct.std::__1::atomic.1" = type { %"struct.std::__1::__atomic_base.2" }
%"struct.std::__1::__atomic_base.2" = type { %"struct.std::__1::__atomic_base.3" }
%"struct.std::__1::__atomic_base.3" = type { %"struct.std::__1::__cxx_atomic_impl.4" }
%"struct.std::__1::__cxx_atomic_impl.4" = type { %"struct.std::__1::__cxx_atomic_base_impl.5" }
%"struct.std::__1::__cxx_atomic_base_impl.5" = type { i8 }
%"class.std::__1::__compressed_pair.6" = type { %"struct.std::__1::__compressed_pair_elem.7" }
%"struct.std::__1::__compressed_pair_elem.7" = type { %"class.base::internal::CheckedObserverAdapter"* }
%"class.base::LinkedList" = type { %"class.base::LinkNode" }
%"class.base::LinkNode" = type { %"class.base::internal::LinkNodeBase" }
%"class.base::internal::LinkNodeBase" = type { %"class.base::internal::LinkNodeBase"*, %"class.base::internal::LinkNodeBase"* }
%"class.std::__1::unique_ptr.9" = type { %"class.std::__1::__compressed_pair.10" }
%"class.std::__1::__compressed_pair.10" = type { %"struct.std::__1::__compressed_pair_elem.11" }
%"struct.std::__1::__compressed_pair_elem.11" = type { %class.AutocompleteProviderClient* }
%class.AutocompleteProviderClient = type { i32 (...)** }
%"class.std::__1::vector.13" = type { %"class.std::__1::__vector_base.14" }
%"class.std::__1::__vector_base.14" = type { %class.scoped_refptr.15*, %class.scoped_refptr.15*, %"class.std::__1::__compressed_pair.16" }
%class.scoped_refptr.15 = type opaque
%"class.std::__1::__compressed_pair.16" = type { %"struct.std::__1::__compressed_pair_elem.17" }
%"struct.std::__1::__compressed_pair_elem.17" = type { %class.scoped_refptr.15* }
%class.DocumentProvider = type { %class.AutocompleteProvider, i64, i64, i64, i64, i64, i64, i8, i8, i8, %class.AutocompleteProviderClient*, %class.AutocompleteProviderListener*, %class.AutocompleteInput, %"class.std::__1::unique_ptr.57", i64, %"class.base::MRUCache", %"class.std::__1::unique_ptr.75", %"class.base::WeakPtrFactory.86" }
%class.AutocompleteProvider = type { i32 (...)**, %"class.base::RefCountedThreadSafe.21", i64, %"class.std::__1::vector.22", i8, i32 }
%"class.base::RefCountedThreadSafe.21" = type { %"class.base::subtle::RefCountedThreadSafeBase" }
%"class.std::__1::vector.22" = type { %"class.std::__1::__vector_base.23" }
%"class.std::__1::__vector_base.23" = type { %struct.AutocompleteMatch*, %struct.AutocompleteMatch*, %"class.std::__1::__compressed_pair.24" }
%struct.AutocompleteMatch = type { %class.AutocompleteProvider*, i32, i32, i8, %"class.std::__1::basic_string", %"class.std::__1::basic_string", %"class.std::__1::basic_string", i8, %"class.std::__1::basic_string", %struct.SplitAutocompletion, i8, %class.GURL, %class.GURL, %"class.std::__1::basic_string.34", %class.GURL, i32, %"class.std::__1::basic_string", %"class.std::__1::basic_string", %"class.std::__1::vector.271", %"class.std::__1::basic_string", %"class.std::__1::vector.271", %"class.std::__1::basic_string", %"class.std::__1::vector.271", %"class.absl::optional.285", i8, [7 x i8], %"class.absl::optional.290", i32, i32, i8, %"class.base::internal::flat_tree", %"class.std::__1::unique_ptr.368", %"class.std::__1::basic_string", i8, %class.scoped_refptr.373, i8, %"class.std::__1::unique_ptr.374", %"class.std::__1::unique_ptr.380", %"class.std::__1::map.387", %"class.std::__1::vector.22", %"class.std::__1::vector.396", %"class.std::__1::vector.418" }
%struct.SplitAutocompletion = type { %"class.std::__1::basic_string", %"class.std::__1::vector.361" }
%"class.std::__1::vector.361" = type { %"class.std::__1::__vector_base.362" }
%"class.std::__1::__vector_base.362" = type { %"class.gfx::Range"*, %"class.gfx::Range"*, %"class.std::__1::__compressed_pair.363" }
%"class.gfx::Range" = type { i32, i32 }
%"class.std::__1::__compressed_pair.363" = type { %"struct.std::__1::__compressed_pair_elem.364" }
%"struct.std::__1::__compressed_pair_elem.364" = type { %"class.gfx::Range"* }
%"class.std::__1::basic_string.34" = type { %"class.std::__1::__compressed_pair.35" }
%"class.std::__1::__compressed_pair.35" = type { %"struct.std::__1::__compressed_pair_elem.36" }
%"struct.std::__1::__compressed_pair_elem.36" = type { %"struct.std::__1::basic_string<char, std::__1::char_traits<char>, std::__1::allocator<char> >::__rep" }
%"struct.std::__1::basic_string<char, std::__1::char_traits<char>, std::__1::allocator<char> >::__rep" = type { %union.anon.37 }
%union.anon.37 = type { %"struct.std::__1::basic_string<char, std::__1::char_traits<char>, std::__1::allocator<char> >::__long" }
%"struct.std::__1::basic_string<char, std::__1::char_traits<char>, std::__1::allocator<char> >::__long" = type { i8*, i64, i64 }
%class.GURL = type { %"class.std::__1::basic_string.34", i8, %"struct.url::Parsed", %"class.std::__1::unique_ptr.43" }
%"struct.url::Parsed" = type { %"struct.url::Component", %"struct.url::Component", %"struct.url::Component", %"struct.url::Component", %"struct.url::Component", %"struct.url::Component", %"struct.url::Component", %"struct.url::Component", i8, %"struct.url::Parsed"* }
%"struct.url::Component" = type { i32, i32 }
%"class.std::__1::unique_ptr.43" = type { %"class.std::__1::__compressed_pair.44" }
%"class.std::__1::__compressed_pair.44" = type { %"struct.std::__1::__compressed_pair_elem.45" }
%"struct.std::__1::__compressed_pair_elem.45" = type { %class.GURL* }
%"class.std::__1::vector.271" = type { %"class.std::__1::__vector_base.272" }
%"class.std::__1::__vector_base.272" = type { %"struct.AutocompleteMatch::ACMatchClassification"*, %"struct.AutocompleteMatch::ACMatchClassification"*, %"class.std::__1::__compressed_pair.273" }
%"struct.AutocompleteMatch::ACMatchClassification" = type <{ i64, i32, [4 x i8] }>
%"class.std::__1::__compressed_pair.273" = type { %"struct.std::__1::__compressed_pair_elem.274" }
%"struct.std::__1::__compressed_pair_elem.274" = type { %"struct.AutocompleteMatch::ACMatchClassification"* }
%"class.absl::optional.285" = type { %"class.absl::optional_internal::optional_data.286" }
%"class.absl::optional_internal::optional_data.286" = type { %"class.absl::optional_internal::optional_data_base.287" }
%"class.absl::optional_internal::optional_data_base.287" = type { %"class.absl::optional_internal::optional_data_dtor_base.288" }
%"class.absl::optional_internal::optional_data_dtor_base.288" = type { i8, %union.anon.289 }
%union.anon.289 = type { i32 }
%"class.absl::optional.290" = type { %"class.absl::optional_internal::optional_data.291" }
%"class.absl::optional_internal::optional_data.291" = type { %"class.absl::optional_internal::optional_data_base.292" }
%"class.absl::optional_internal::optional_data_base.292" = type { %"class.absl::optional_internal::optional_data_dtor_base.293" }
%"class.absl::optional_internal::optional_data_dtor_base.293" = type { i8, [7 x i8], %union.anon.294 }
%union.anon.294 = type { %class.SuggestionAnswer }
%class.SuggestionAnswer = type <{ %class.GURL, %"class.SuggestionAnswer::ImageLine", %"class.SuggestionAnswer::ImageLine", i32, [4 x i8] }>
%"class.SuggestionAnswer::ImageLine" = type { %"class.std::__1::vector.295", i32, %"class.absl::optional.302", %"class.absl::optional.302", %class.GURL }
%"class.std::__1::vector.295" = type { %"class.std::__1::__vector_base.296" }
%"class.std::__1::__vector_base.296" = type { %"class.SuggestionAnswer::TextField"*, %"class.SuggestionAnswer::TextField"*, %"class.std::__1::__compressed_pair.297" }
%"class.SuggestionAnswer::TextField" = type { %"class.std::__1::basic_string", i32, i8, i32, i32 }
%"class.std::__1::__compressed_pair.297" = type { %"struct.std::__1::__compressed_pair_elem.298" }
%"struct.std::__1::__compressed_pair_elem.298" = type { %"class.SuggestionAnswer::TextField"* }
%"class.absl::optional.302" = type { %"class.absl::optional_internal::optional_data.303" }
%"class.absl::optional_internal::optional_data.303" = type { %"class.absl::optional_internal::optional_data_base.304" }
%"class.absl::optional_internal::optional_data_base.304" = type { %"class.absl::optional_internal::optional_data_dtor_base.305" }
%"class.absl::optional_internal::optional_data_dtor_base.305" = type { i8, %union.anon.306 }
%union.anon.306 = type { %"class.SuggestionAnswer::TextField" }
%"class.base::internal::flat_tree" = type { %"class.std::__1::vector.278" }
%"class.std::__1::vector.278" = type { %"class.std::__1::__vector_base.279" }
%"class.std::__1::__vector_base.279" = type { i32*, i32*, %"class.std::__1::__compressed_pair.280" }
%"class.std::__1::__compressed_pair.280" = type { %"struct.std::__1::__compressed_pair_elem.281" }
%"struct.std::__1::__compressed_pair_elem.281" = type { i32* }
%"class.std::__1::unique_ptr.368" = type { %"class.std::__1::__compressed_pair.369" }
%"class.std::__1::__compressed_pair.369" = type { %"struct.std::__1::__compressed_pair_elem.25" }
%"struct.std::__1::__compressed_pair_elem.25" = type { %struct.AutocompleteMatch* }
%"class.std::__1::basic_string" = type { %"class.std::__1::__compressed_pair.29" }
%"class.std::__1::__compressed_pair.29" = type { %"struct.std::__1::__compressed_pair_elem.30" }
%"struct.std::__1::__compressed_pair_elem.30" = type { %"struct.std::__1::basic_string<char16_t, std::__1::char_traits<char16_t>, std::__1::allocator<char16_t> >::__rep" }
%"struct.std::__1::basic_string<char16_t, std::__1::char_traits<char16_t>, std::__1::allocator<char16_t> >::__rep" = type { %union.anon }
%union.anon = type { %"struct.std::__1::basic_string<char16_t, std::__1::char_traits<char16_t>, std::__1::allocator<char16_t> >::__long" }
%"struct.std::__1::basic_string<char16_t, std::__1::char_traits<char16_t>, std::__1::allocator<char16_t> >::__long" = type { i16*, i64, i64 }
%class.scoped_refptr.373 = type { %class.OmniboxAction* }
%class.OmniboxAction = type opaque
%"class.std::__1::unique_ptr.374" = type { %"class.std::__1::__compressed_pair.375" }
%"class.std::__1::__compressed_pair.375" = type { %"struct.std::__1::__compressed_pair_elem.376" }
%"struct.std::__1::__compressed_pair_elem.376" = type { %"struct.TemplateURLRef::SearchTermsArgs"* }
%"struct.TemplateURLRef::SearchTermsArgs" = type { %"class.std::__1::basic_string", %"class.std::__1::basic_string", i32, i32, %"class.std::__1::basic_string.34", i32, i64, %"class.std::__1::basic_string.34", i32, %"class.std::__1::basic_string.34", %"class.std::__1::basic_string.34", %"class.std::__1::basic_string.34", %"class.std::__1::basic_string.34", i8, %"class.std::__1::basic_string.34", %class.GURL, %"class.gfx::Size", i32, i8, %"struct.TemplateURLRef::SearchTermsArgs::ContextualSearchParams" }
%"class.gfx::Size" = type { i32, i32 }
%"struct.TemplateURLRef::SearchTermsArgs::ContextualSearchParams" = type { i32, i32, %"class.std::__1::basic_string.34", i64, i32, i8, %"class.std::__1::basic_string.34", %"class.std::__1::basic_string.34", %"class.std::__1::basic_string.34", %"class.std::__1::basic_string.34" }
%"class.std::__1::unique_ptr.380" = type { %"class.std::__1::__compressed_pair.381" }
%"class.std::__1::__compressed_pair.381" = type { %"struct.std::__1::__compressed_pair_elem.382" }
%"struct.std::__1::__compressed_pair_elem.382" = type { %"struct.std::__1::pair.383"* }
%"struct.std::__1::pair.383" = type opaque
%"class.std::__1::map.387" = type { %"class.std::__1::__tree.388" }
%"class.std::__1::__tree.388" = type { %"class.std::__1::__tree_end_node"*, %"class.std::__1::__compressed_pair.389", %"class.std::__1::__compressed_pair.393" }
%"class.std::__1::__tree_end_node" = type { %"class.std::__1::__tree_node_base"* }
%"class.std::__1::__tree_node_base" = type <{ %"class.std::__1::__tree_end_node", %"class.std::__1::__tree_node_base"*, %"class.std::__1::__tree_end_node"*, i8, [7 x i8] }>
%"class.std::__1::__compressed_pair.389" = type { %"struct.std::__1::__compressed_pair_elem.69" }
%"struct.std::__1::__compressed_pair_elem.69" = type { %"class.std::__1::__tree_end_node" }
%"class.std::__1::__compressed_pair.393" = type { %"struct.std::__1::__compressed_pair_elem.64" }
%"struct.std::__1::__compressed_pair_elem.64" = type { i64 }
%"class.std::__1::vector.396" = type { %"class.std::__1::__vector_base.397" }
%"class.std::__1::__vector_base.397" = type { %"struct.query_tiles::Tile"*, %"struct.query_tiles::Tile"*, %"class.std::__1::__compressed_pair.413" }
%"struct.query_tiles::Tile" = type { %"class.std::__1::basic_string.34", %"class.std::__1::basic_string.34", %"class.std::__1::basic_string.34", %"class.std::__1::basic_string.34", %"class.std::__1::vector.398", %"class.std::__1::vector.405", %"class.std::__1::vector.152" }
%"class.std::__1::vector.398" = type { %"class.std::__1::__vector_base.399" }
%"class.std::__1::__vector_base.399" = type { %"struct.query_tiles::ImageMetadata"*, %"struct.query_tiles::ImageMetadata"*, %"class.std::__1::__compressed_pair.400" }
%"struct.query_tiles::ImageMetadata" = type { %class.GURL }
%"class.std::__1::__compressed_pair.400" = type { %"struct.std::__1::__compressed_pair_elem.401" }
%"struct.std::__1::__compressed_pair_elem.401" = type { %"struct.query_tiles::ImageMetadata"* }
%"class.std::__1::vector.405" = type { %"class.std::__1::__vector_base.406" }
%"class.std::__1::__vector_base.406" = type { %"class.std::__1::unique_ptr.407"*, %"class.std::__1::unique_ptr.407"*, %"class.std::__1::__compressed_pair.408" }
%"class.std::__1::unique_ptr.407" = type opaque
%"class.std::__1::__compressed_pair.408" = type { %"struct.std::__1::__compressed_pair_elem.409" }
%"struct.std::__1::__compressed_pair_elem.409" = type { %"class.std::__1::unique_ptr.407"* }
%"class.std::__1::vector.152" = type { %"class.std::__1::__vector_base.153" }
%"class.std::__1::__vector_base.153" = type { %"class.std::__1::basic_string.34"*, %"class.std::__1::basic_string.34"*, %"class.std::__1::__compressed_pair.154" }
%"class.std::__1::__compressed_pair.154" = type { %"struct.std::__1::__compressed_pair_elem.155" }
%"struct.std::__1::__compressed_pair_elem.155" = type { %"class.std::__1::basic_string.34"* }
%"class.std::__1::__compressed_pair.413" = type { %"struct.std::__1::__compressed_pair_elem.414" }
%"struct.std::__1::__compressed_pair_elem.414" = type { %"struct.query_tiles::Tile"* }
%"class.std::__1::vector.418" = type { %"class.std::__1::__vector_base.419" }
%"class.std::__1::__vector_base.419" = type { %"struct.AutocompleteMatch::NavsuggestTile"*, %"struct.AutocompleteMatch::NavsuggestTile"*, %"class.std::__1::__compressed_pair.420" }
%"struct.AutocompleteMatch::NavsuggestTile" = type { %class.GURL, %"class.std::__1::basic_string" }
%"class.std::__1::__compressed_pair.420" = type { %"struct.std::__1::__compressed_pair_elem.421" }
%"struct.std::__1::__compressed_pair_elem.421" = type { %"struct.AutocompleteMatch::NavsuggestTile"* }
%"class.std::__1::__compressed_pair.24" = type { %"struct.std::__1::__compressed_pair_elem.25" }
%"class.std::__1::unique_ptr.57" = type { %"class.std::__1::__compressed_pair.58" }
%"class.std::__1::__compressed_pair.58" = type { %"struct.std::__1::__compressed_pair_elem.59" }
%"struct.std::__1::__compressed_pair_elem.59" = type { %"class.network::SimpleURLLoader"* }
%"class.network::SimpleURLLoader" = type opaque
%"class.base::MRUCache" = type { %"class.base::MRUCacheBase" }
%"class.base::MRUCacheBase" = type { i32 (...)**, %"class.std::__1::list", %"class.std::__1::map", i64 }
%"class.std::__1::list" = type { %"class.std::__1::__list_imp" }
%"class.std::__1::__list_imp" = type { %"struct.std::__1::__list_node_base", %"class.std::__1::__compressed_pair.63" }
%"struct.std::__1::__list_node_base" = type { %"struct.std::__1::__list_node_base"*, %"struct.std::__1::__list_node_base"* }
%"class.std::__1::__compressed_pair.63" = type { %"struct.std::__1::__compressed_pair_elem.64" }
%"class.std::__1::map" = type { %"class.std::__1::__tree" }
%"class.std::__1::__tree" = type { %"class.std::__1::__tree_end_node"*, %"class.std::__1::__compressed_pair.68", %"class.std::__1::__compressed_pair.73" }
%"class.std::__1::__compressed_pair.68" = type { %"struct.std::__1::__compressed_pair_elem.69" }
%"class.std::__1::__compressed_pair.73" = type { %"struct.std::__1::__compressed_pair_elem.64" }
%"class.std::__1::unique_ptr.75" = type { %"class.std::__1::__compressed_pair.76" }
%"class.std::__1::__compressed_pair.76" = type { %"struct.std::__1::__compressed_pair_elem.77" }
%"struct.std::__1::__compressed_pair_elem.77" = type { %class.AutocompleteProviderDebouncer* }
%class.AutocompleteProviderDebouncer = type { i8, i32, %"class.base::OneShotTimer", %"class.base::TimeTicks", %"class.base::OnceCallback" }
%"class.base::OnceCallback" = type { %"class.base::internal::CallbackBase" }
%"class.base::internal::CallbackBase" = type { %class.scoped_refptr.81 }
%class.scoped_refptr.81 = type { %"class.base::internal::BindStateBase"* }
%"class.base::internal::BindStateBase" = type { %"class.base::RefCountedThreadSafe.82", void ()*, void (%"class.base::internal::BindStateBase"*)*, i1 (%"class.base::internal::BindStateBase"*, i32)* }
%"class.base::RefCountedThreadSafe.82" = type { %"class.base::subtle::RefCountedThreadSafeBase" }
%"class.base::WeakPtrFactory.86" = type { %"class.base::internal::WeakPtrFactoryBase" }
%"class.base::internal::WeakPtrFactoryBase" = type { %"class.base::internal::WeakReferenceOwner", i64 }
%"class.base::internal::WeakReferenceOwner" = type { %class.scoped_refptr.80 }
%class.scoped_refptr.80 = type { %"class.base::internal::WeakReference::Flag"* }
%class.HistoryURLProvider = type opaque
%class.KeywordProvider = type opaque
%class.SearchProvider = type { %class.BaseSearchProvider, %class.TemplateURLServiceObserver, %class.AutocompleteProviderListener*, %"class.SearchProvider::Providers", %class.AutocompleteInput, %class.AutocompleteInput, %"class.std::__1::vector.262", %"class.std::__1::vector.262", %"class.std::__1::vector.269", %"class.std::__1::vector.269", %"class.base::OneShotTimer", %"class.base::TimeTicks", %"class.std::__1::unique_ptr.57", %"class.std::__1::unique_ptr.57", %"struct.SearchSuggestionParser::Results", %"struct.SearchSuggestionParser::Results", %"class.std::__1::basic_string", %class.GURL, %class.AnswersCache, %struct.AnswersQueryData, %"class.base::ScopedObservation" }
%class.BaseSearchProvider = type { %class.AutocompleteProvider, %class.AutocompleteProviderClient*, i8, i8, %"class.std::__1::vector.87" }
%"class.std::__1::vector.87" = type { %"class.std::__1::__vector_base.88" }
%"class.std::__1::__vector_base.88" = type { %"class.std::__1::unique_ptr.89"*, %"class.std::__1::unique_ptr.89"*, %"class.std::__1::__compressed_pair.90" }
%"class.std::__1::unique_ptr.89" = type opaque
%"class.std::__1::__compressed_pair.90" = type { %"struct.std::__1::__compressed_pair_elem.91" }
%"struct.std::__1::__compressed_pair_elem.91" = type { %"class.std::__1::unique_ptr.89"* }
%class.TemplateURLServiceObserver = type { %"class.base::CheckedObserver" }
%"class.base::CheckedObserver" = type { i32 (...)**, %"class.base::WeakPtrFactory.95" }
%"class.base::WeakPtrFactory.95" = type { %"class.base::internal::WeakPtrFactoryBase" }
%"class.SearchProvider::Providers" = type { %class.TemplateURLService*, %"class.std::__1::basic_string", %"class.std::__1::basic_string" }
%"class.std::__1::vector.262" = type { %"class.std::__1::__vector_base.263" }
%"class.std::__1::__vector_base.263" = type { %"struct.history::KeywordSearchTermVisit"*, %"struct.history::KeywordSearchTermVisit"*, %"class.std::__1::__compressed_pair.264" }
%"struct.history::KeywordSearchTermVisit" = type opaque
%"class.std::__1::__compressed_pair.264" = type { %"struct.std::__1::__compressed_pair_elem.265" }
%"struct.std::__1::__compressed_pair_elem.265" = type { %"struct.history::KeywordSearchTermVisit"* }
%"class.std::__1::vector.269" = type { %"class.std::__1::__vector_base.270" }
%"class.std::__1::__vector_base.270" = type { %"class.SearchSuggestionParser::SuggestResult"*, %"class.SearchSuggestionParser::SuggestResult"*, %"class.std::__1::__compressed_pair.307" }
%"class.SearchSuggestionParser::SuggestResult" = type <{ %"class.SearchSuggestionParser::Result", %"class.std::__1::basic_string", %"class.std::__1::basic_string", %"class.std::__1::basic_string", %"class.std::__1::basic_string.34", %"class.absl::optional.285", %"class.absl::optional.290", %"class.std::__1::basic_string.34", %class.GURL, i8, [7 x i8] }>
%"class.SearchSuggestionParser::Result" = type { i32 (...)**, %"class.std::__1::basic_string", %"class.std::__1::vector.271", i8, i32, %"class.std::__1::vector.278", i32, i8, i8, %"class.std::__1::basic_string.34" }
%"class.std::__1::__compressed_pair.307" = type { %"struct.std::__1::__compressed_pair_elem.308" }
%"struct.std::__1::__compressed_pair_elem.308" = type { %"class.SearchSuggestionParser::SuggestResult"* }
%"struct.SearchSuggestionParser::Results" = type { %"class.std::__1::vector.269", %"class.std::__1::vector.312", i32, %"class.std::__1::basic_string.34", i8, %"class.std::__1::vector.319", i8, %"class.std::__1::map.326", %"class.std::__1::vector.278" }
%"class.std::__1::vector.312" = type { %"class.std::__1::__vector_base.313" }
%"class.std::__1::__vector_base.313" = type { %"class.SearchSuggestionParser::NavigationResult"*, %"class.SearchSuggestionParser::NavigationResult"*, %"class.std::__1::__compressed_pair.314" }
%"class.SearchSuggestionParser::NavigationResult" = type { %"class.SearchSuggestionParser::Result", %class.GURL, %"class.std::__1::basic_string", %"class.std::__1::basic_string", %"class.std::__1::vector.271" }
%"class.std::__1::__compressed_pair.314" = type { %"struct.std::__1::__compressed_pair_elem.315" }
%"struct.std::__1::__compressed_pair_elem.315" = type { %"class.SearchSuggestionParser::NavigationResult"* }
%"class.std::__1::vector.319" = type { %"class.std::__1::__vector_base.320" }
%"class.std::__1::__vector_base.320" = type { %"class.base::Value"*, %"class.base::Value"*, %"class.std::__1::__compressed_pair.321" }
%"class.base::Value" = type opaque
%"class.std::__1::__compressed_pair.321" = type { %"struct.std::__1::__compressed_pair_elem.322" }
%"struct.std::__1::__compressed_pair_elem.322" = type { %"class.base::Value"* }
%"class.std::__1::map.326" = type { %"class.std::__1::__tree.327" }
%"class.std::__1::__tree.327" = type { %"class.std::__1::__tree_end_node"*, %"class.std::__1::__compressed_pair.328", %"class.std::__1::__compressed_pair.332" }
%"class.std::__1::__compressed_pair.328" = type { %"struct.std::__1::__compressed_pair_elem.69" }
%"class.std::__1::__compressed_pair.332" = type { %"struct.std::__1::__compressed_pair_elem.64" }
%class.AnswersCache = type { i64, %"class.std::__1::list.337" }
%"class.std::__1::list.337" = type { %"class.std::__1::__list_imp.338" }
%"class.std::__1::__list_imp.338" = type { %"struct.std::__1::__list_node_base.339", %"class.std::__1::__compressed_pair.340" }
%"struct.std::__1::__list_node_base.339" = type { %"struct.std::__1::__list_node_base.339"*, %"struct.std::__1::__list_node_base.339"* }
%"class.std::__1::__compressed_pair.340" = type { %"struct.std::__1::__compressed_pair_elem.64" }
%struct.AnswersQueryData = type <{ %"class.std::__1::basic_string", i32, [4 x i8] }>
%"class.base::ScopedObservation" = type { %class.TemplateURLServiceObserver*, %class.TemplateURLService* }
%class.ZeroSuggestProvider = type opaque
%class.OnDeviceHeadProvider = type opaque
%class.ClipboardProvider = type opaque
%class.VoiceSuggestProvider = type opaque
%class.AutocompleteInput = type { %"class.std::__1::basic_string", i64, %class.GURL, %"class.std::__1::basic_string", i32, i32, %"struct.url::Parsed", %"class.std::__1::basic_string", %class.GURL, %"class.std::__1::basic_string.34", i8, i8, i8, i32, i8, i32, %"class.std::__1::vector.49", %"class.absl::optional", i8, i8, i32 }
%"class.std::__1::vector.49" = type { %"class.std::__1::__vector_base.50" }
%"class.std::__1::__vector_base.50" = type { %"class.std::__1::basic_string"*, %"class.std::__1::basic_string"*, %"class.std::__1::__compressed_pair.51" }
%"class.std::__1::__compressed_pair.51" = type { %"struct.std::__1::__compressed_pair_elem.52" }
%"struct.std::__1::__compressed_pair_elem.52" = type { %"class.std::__1::basic_string"* }
%"class.absl::optional" = type { %"class.absl::optional_internal::optional_data" }
%"class.absl::optional_internal::optional_data" = type { %"class.absl::optional_internal::optional_data_base" }
%"class.absl::optional_internal::optional_data_base" = type { %"class.absl::optional_internal::optional_data_dtor_base" }
%"class.absl::optional_internal::optional_data_dtor_base" = type { i8, %union.anon.56 }
%union.anon.56 = type { %"class.std::__1::basic_string.34" }
%class.AutocompleteResult = type { %"class.std::__1::vector.22", %"class.std::__1::map.326", %"class.std::__1::set.344" }
%"class.std::__1::set.344" = type { %"class.std::__1::__tree.345" }
%"class.std::__1::__tree.345" = type { %"class.std::__1::__tree_end_node"*, %"class.std::__1::__compressed_pair.346", %"class.std::__1::__compressed_pair.350" }
%"class.std::__1::__compressed_pair.346" = type { %"struct.std::__1::__compressed_pair_elem.69" }
%"class.std::__1::__compressed_pair.350" = type { %"struct.std::__1::__compressed_pair_elem.64" }
%"class.base::TimeTicks" = type { %"class.base::time_internal::TimeBase" }
%"class.base::time_internal::TimeBase" = type { i64 }
%"class.base::OneShotTimer" = type { %"class.base::internal::TimerBase", %"class.base::OnceCallback" }
%"class.base::internal::TimerBase" = type { i32 (...)**, %class.scoped_refptr.78, %"class.base::SequenceCheckerDoNothing", %"class.base::internal::TaskDestructionDetector"*, %"class.base::Location", %"class.base::TimeDelta", %"class.base::TimeTicks", %"class.base::TimeTicks", %"class.base::TickClock"*, i8, %"class.base::WeakPtrFactory" }
%class.scoped_refptr.78 = type { %"class.base::SequencedTaskRunner"* }
%"class.base::SequencedTaskRunner" = type { %"class.base::TaskRunner.base", [4 x i8] }
%"class.base::TaskRunner.base" = type <{ i32 (...)**, %"class.base::RefCountedThreadSafe.79" }>
%"class.base::RefCountedThreadSafe.79" = type { %"class.base::subtle::RefCountedThreadSafeBase" }
%"class.base::SequenceCheckerDoNothing" = type { i8 }
%"class.base::internal::TaskDestructionDetector" = type opaque
%"class.base::Location" = type { i8*, i8*, i32, i8* }
%"class.base::TickClock" = type opaque
%"class.base::WeakPtrFactory" = type { %"class.base::internal::WeakPtrFactoryBase" }
%"class.base::TimeDelta" = type { i64 }
%class.TemplateURLService = type { %class.WebDataServiceConsumer, %class.KeyedService, %"class.syncer::SyncableService", %class.PrefService*, %"class.std::__1::unique_ptr.96", %class.scoped_refptr.102, %"class.std::__1::unique_ptr.111", %"class.base::RepeatingCallback", %class.PrefChangeRegistrar, %"class.std::__1::multimap", %"class.std::__1::map.138", %"class.std::__1::vector.147", %"class.base::ObserverList.195", %"class.std::__1::unique_ptr.199", i8, i8, i8, i32, %"class.std::__1::vector.215", %class.TemplateURL*, %"class.std::__1::unique_ptr.149", i32, i64, %"class.std::__1::unique_ptr.222", i8, i8, i8, %"class.std::__1::unique_ptr.228", %"class.std::__1::unique_ptr.234", %"class.std::__1::set", i32, %"class.base::OnceCallbackList", %"class.base::OnceCallback", %class.DefaultSearchManager, i32, i8, %"class.std::__1::basic_string.34", %"class.base::TimeTicks" }
%class.WebDataServiceConsumer = type { i32 (...)** }
%"class.syncer::SyncableService" = type { i32 (...)**, %"class.base::SupportsWeakPtr" }
%"class.base::SupportsWeakPtr" = type { %"class.base::internal::WeakReferenceOwner" }
%class.PrefService = type opaque
%"class.std::__1::unique_ptr.96" = type { %"class.std::__1::__compressed_pair.97" }
%"class.std::__1::__compressed_pair.97" = type { %"struct.std::__1::__compressed_pair_elem.98" }
%"struct.std::__1::__compressed_pair_elem.98" = type { %class.SearchTermsData* }
%class.SearchTermsData = type { i32 (...)** }
%class.scoped_refptr.102 = type { %class.KeywordWebDataService* }
%class.KeywordWebDataService = type { %class.WebDataServiceBase, i64, %"class.std::__1::vector.104", %"class.base::RetainingOneShotTimer" }
%class.WebDataServiceBase = type { i32 (...)**, %"class.base::RefCountedDeleteOnSequence", %class.scoped_refptr.103 }
%"class.base::RefCountedDeleteOnSequence" = type { %"class.base::subtle::RefCountedThreadSafeBase", %class.scoped_refptr.78 }
%class.scoped_refptr.103 = type { %class.WebDatabaseService* }
%class.WebDatabaseService = type opaque
%"class.std::__1::vector.104" = type { %"class.std::__1::__vector_base.105" }
%"class.std::__1::__vector_base.105" = type { %"struct.std::__1::pair"*, %"struct.std::__1::pair"*, %"class.std::__1::__compressed_pair.106" }
%"struct.std::__1::pair" = type opaque
%"class.std::__1::__compressed_pair.106" = type { %"struct.std::__1::__compressed_pair_elem.107" }
%"struct.std::__1::__compressed_pair_elem.107" = type { %"struct.std::__1::pair"* }
%"class.base::RetainingOneShotTimer" = type { %"class.base::internal::TimerBase", %"class.base::RepeatingCallback" }
%"class.std::__1::unique_ptr.111" = type { %"class.std::__1::__compressed_pair.112" }
%"class.std::__1::__compressed_pair.112" = type { %"struct.std::__1::__compressed_pair_elem.113" }
%"struct.std::__1::__compressed_pair_elem.113" = type { %class.TemplateURLServiceClient* }
%class.TemplateURLServiceClient = type opaque
%"class.base::RepeatingCallback" = type { %"class.base::internal::CallbackBaseCopyable" }
%"class.base::internal::CallbackBaseCopyable" = type { %"class.base::internal::CallbackBase" }
%class.PrefChangeRegistrar = type { %class.PrefObserver, %"class.std::__1::map.117", %class.PrefService* }
%class.PrefObserver = type { i32 (...)** }
%"class.std::__1::map.117" = type { %"class.std::__1::__tree.118" }
%"class.std::__1::__tree.118" = type { %"class.std::__1::__tree_end_node"*, %"class.std::__1::__compressed_pair.119", %"class.std::__1::__compressed_pair.123" }
%"class.std::__1::__compressed_pair.119" = type { %"struct.std::__1::__compressed_pair_elem.69" }
%"class.std::__1::__compressed_pair.123" = type { %"struct.std::__1::__compressed_pair_elem.64" }
%"class.std::__1::multimap" = type { %"class.std::__1::__tree.128" }
%"class.std::__1::__tree.128" = type { %"class.std::__1::__tree_end_node"*, %"class.std::__1::__compressed_pair.129", %"class.std::__1::__compressed_pair.133" }
%"class.std::__1::__compressed_pair.129" = type { %"struct.std::__1::__compressed_pair_elem.69" }
%"class.std::__1::__compressed_pair.133" = type { %"struct.std::__1::__compressed_pair_elem.64" }
%"class.std::__1::map.138" = type { %"class.std::__1::__tree.139" }
%"class.std::__1::__tree.139" = type { %"class.std::__1::__tree_end_node"*, %"class.std::__1::__compressed_pair.140", %"class.std::__1::__compressed_pair.144" }
%"class.std::__1::__compressed_pair.140" = type { %"struct.std::__1::__compressed_pair_elem.69" }
%"class.std::__1::__compressed_pair.144" = type { %"struct.std::__1::__compressed_pair_elem.64" }
%"class.std::__1::vector.147" = type { %"class.std::__1::__vector_base.148" }
%"class.std::__1::__vector_base.148" = type { %"class.std::__1::unique_ptr.149"*, %"class.std::__1::unique_ptr.149"*, %"class.std::__1::__compressed_pair.190" }
%"class.std::__1::__compressed_pair.190" = type { %"struct.std::__1::__compressed_pair_elem.191" }
%"struct.std::__1::__compressed_pair_elem.191" = type { %"class.std::__1::unique_ptr.149"* }
%"class.base::ObserverList.195" = type <{ %"class.std::__1::vector", %"class.base::LinkedList.196", i64, i32, [4 x i8] }>
%"class.base::LinkedList.196" = type { %"class.base::LinkNode.197" }
%"class.base::LinkNode.197" = type { %"class.base::internal::LinkNodeBase" }
%"class.std::__1::unique_ptr.199" = type { %"class.std::__1::__compressed_pair.200" }
%"class.std::__1::__compressed_pair.200" = type { %"struct.std::__1::__compressed_pair_elem.201" }
%"struct.std::__1::__compressed_pair_elem.201" = type { %class.SearchHostToURLsMap* }
%class.SearchHostToURLsMap = type <{ %"class.std::__1::map.202", %"class.std::__1::basic_string.34", i8, [7 x i8] }>
%"class.std::__1::map.202" = type { %"class.std::__1::__tree.203" }
%"class.std::__1::__tree.203" = type { %"class.std::__1::__tree_end_node"*, %"class.std::__1::__compressed_pair.204", %"class.std::__1::__compressed_pair.208" }
%"class.std::__1::__compressed_pair.204" = type { %"struct.std::__1::__compressed_pair_elem.69" }
%"class.std::__1::__compressed_pair.208" = type { %"struct.std::__1::__compressed_pair_elem.64" }
%"class.std::__1::vector.215" = type { %"class.std::__1::__vector_base.216" }
%"class.std::__1::__vector_base.216" = type { %"struct.TemplateURLService::URLVisitedDetails"*, %"struct.TemplateURLService::URLVisitedDetails"*, %"class.std::__1::__compressed_pair.217" }
%"struct.TemplateURLService::URLVisitedDetails" = type <{ %class.GURL, i8, [7 x i8] }>
%"class.std::__1::__compressed_pair.217" = type { %"struct.std::__1::__compressed_pair_elem.218" }
%"struct.std::__1::__compressed_pair_elem.218" = type { %"struct.TemplateURLService::URLVisitedDetails"* }
%class.TemplateURL = type { %struct.TemplateURLData, %"class.std::__1::vector.160", %class.TemplateURLRef, %class.TemplateURLRef, %class.TemplateURLRef, %class.TemplateURLRef, %"class.std::__1::unique_ptr.181", i32, i32 }
%struct.TemplateURLData = type { %"class.std::__1::basic_string.34", %"class.std::__1::basic_string.34", %"class.std::__1::basic_string.34", %"class.std::__1::basic_string.34", %class.GURL, %class.GURL, %"class.std::__1::basic_string.34", %"class.std::__1::basic_string.34", %"class.std::__1::basic_string.34", %class.GURL, %class.GURL, i8, %"class.std::__1::vector.152", i64, %"class.base::Time", %"class.base::Time", %"class.base::Time", i8, i8, i32, i32, %"class.std::__1::basic_string.34", %"class.std::__1::vector.152", %"class.std::__1::basic_string", %"class.std::__1::basic_string", %"class.std::__1::basic_string.34" }
%"class.base::Time" = type { %"class.base::time_internal::TimeBase.159" }
%"class.base::time_internal::TimeBase.159" = type { i64 }
%"class.std::__1::vector.160" = type { %"class.std::__1::__vector_base.161" }
%"class.std::__1::__vector_base.161" = type { %class.TemplateURLRef*, %class.TemplateURLRef*, %"class.std::__1::__compressed_pair.176" }
%"class.std::__1::__compressed_pair.176" = type { %"struct.std::__1::__compressed_pair_elem.177" }
%"struct.std::__1::__compressed_pair_elem.177" = type { %class.TemplateURLRef* }
%class.TemplateURLRef = type <{ %class.TemplateURL*, i32, [4 x i8], i64, i8, i8, [6 x i8], %"class.std::__1::basic_string.34", i8, [7 x i8], %"class.std::__1::vector.162", i8, [7 x i8], %"class.std::__1::basic_string.34", %"class.std::__1::basic_string.34", %"class.std::__1::basic_string.34", %"class.std::__1::basic_string.34", %"class.std::__1::basic_string.34", i32, [4 x i8], %"class.std::__1::basic_string.34", %"class.std::__1::basic_string.34", %"class.std::__1::vector.169", i8, [7 x i8] }>
%"class.std::__1::vector.162" = type { %"class.std::__1::__vector_base.163" }
%"class.std::__1::__vector_base.163" = type { %"struct.TemplateURLRef::Replacement"*, %"struct.TemplateURLRef::Replacement"*, %"class.std::__1::__compressed_pair.164" }
%"struct.TemplateURLRef::Replacement" = type <{ i32, [4 x i8], i64, i8, [7 x i8] }>
%"class.std::__1::__compressed_pair.164" = type { %"struct.std::__1::__compressed_pair_elem.165" }
%"struct.std::__1::__compressed_pair_elem.165" = type { %"struct.TemplateURLRef::Replacement"* }
%"class.std::__1::vector.169" = type { %"class.std::__1::__vector_base.170" }
%"class.std::__1::__vector_base.170" = type { %"struct.TemplateURLRef::PostParam"*, %"struct.TemplateURLRef::PostParam"*, %"class.std::__1::__compressed_pair.171" }
%"struct.TemplateURLRef::PostParam" = type { %"class.std::__1::basic_string.34", %"class.std::__1::basic_string.34", %"class.std::__1::basic_string.34" }
%"class.std::__1::__compressed_pair.171" = type { %"struct.std::__1::__compressed_pair_elem.172" }
%"struct.std::__1::__compressed_pair_elem.172" = type { %"struct.TemplateURLRef::PostParam"* }
%"class.std::__1::unique_ptr.181" = type { %"class.std::__1::__compressed_pair.182" }
%"class.std::__1::__compressed_pair.182" = type { %"struct.std::__1::__compressed_pair_elem.183" }
%"struct.std::__1::__compressed_pair_elem.183" = type { %"struct.TemplateURL::AssociatedExtensionInfo"* }
%"struct.TemplateURL::AssociatedExtensionInfo" = type <{ %"class.std::__1::basic_string.34", %"class.base::Time", i8, [7 x i8] }>
%"class.std::__1::unique_ptr.149" = type { %"class.std::__1::__compressed_pair.150" }
%"class.std::__1::__compressed_pair.150" = type { %"struct.std::__1::__compressed_pair_elem.151" }
%"struct.std::__1::__compressed_pair_elem.151" = type { %class.TemplateURL* }
%"class.std::__1::unique_ptr.222" = type { %"class.std::__1::__compressed_pair.223" }
%"class.std::__1::__compressed_pair.223" = type { %"struct.std::__1::__compressed_pair_elem.224" }
%"struct.std::__1::__compressed_pair_elem.224" = type { %"class.base::Clock"* }
%"class.base::Clock" = type { i32 (...)** }
%"class.std::__1::unique_ptr.228" = type { %"class.std::__1::__compressed_pair.229" }
%"class.std::__1::__compressed_pair.229" = type { %"struct.std::__1::__compressed_pair_elem.230" }
%"struct.std::__1::__compressed_pair_elem.230" = type { %"class.syncer::SyncChangeProcessor"* }
%"class.syncer::SyncChangeProcessor" = type opaque
%"class.std::__1::unique_ptr.234" = type { %"class.std::__1::__compressed_pair.235" }
%"class.std::__1::__compressed_pair.235" = type { %"struct.std::__1::__compressed_pair_elem.236" }
%"struct.std::__1::__compressed_pair_elem.236" = type { %"class.syncer::SyncErrorFactory"* }
%"class.syncer::SyncErrorFactory" = type opaque
%"class.std::__1::set" = type { %"class.std::__1::__tree.240" }
%"class.std::__1::__tree.240" = type { %"class.std::__1::__tree_end_node"*, %"class.std::__1::__compressed_pair.241", %"class.std::__1::__compressed_pair.245" }
%"class.std::__1::__compressed_pair.241" = type { %"struct.std::__1::__compressed_pair_elem.69" }
%"class.std::__1::__compressed_pair.245" = type { %"struct.std::__1::__compressed_pair_elem.64" }
%"class.base::OnceCallbackList" = type { %"class.base::internal::CallbackListBase", %"class.std::__1::list.247" }
%"class.base::internal::CallbackListBase" = type { %"class.std::__1::list.247", i8, %"class.base::RepeatingCallback", %"class.base::WeakPtrFactory.254" }
%"class.base::WeakPtrFactory.254" = type { %"class.base::internal::WeakPtrFactoryBase" }
%"class.std::__1::list.247" = type { %"class.std::__1::__list_imp.248" }
%"class.std::__1::__list_imp.248" = type { %"struct.std::__1::__list_node_base.249", %"class.std::__1::__compressed_pair.250" }
%"struct.std::__1::__list_node_base.249" = type { %"struct.std::__1::__list_node_base.249"*, %"struct.std::__1::__list_node_base.249"* }
%"class.std::__1::__compressed_pair.250" = type { %"struct.std::__1::__compressed_pair_elem.64" }
%class.DefaultSearchManager = type <{ %class.PrefService*, %"class.base::RepeatingCallback.255", %class.PrefChangeRegistrar, %"class.std::__1::unique_ptr.256", %"class.std::__1::unique_ptr.256", %"class.std::__1::unique_ptr.256", i8, [7 x i8] }>
%"class.base::RepeatingCallback.255" = type { %"class.base::internal::CallbackBaseCopyable" }
%"class.std::__1::unique_ptr.256" = type { %"class.std::__1::__compressed_pair.257" }
%"class.std::__1::__compressed_pair.257" = type { %"struct.std::__1::__compressed_pair_elem.258" }
%"struct.std::__1::__compressed_pair_elem.258" = type { %struct.TemplateURLData* }
%class.AutocompleteSchemeClassifier = type { i32 (...)** }

@_ZTV22AutocompleteClassifier = hidden unnamed_addr constant { [5 x i8*] } { [5 x i8*] [i8* null, i8* null, i8* bitcast (void (%class.AutocompleteClassifier*)* @_ZN22AutocompleteClassifierD2Ev to i8*), i8* bitcast (void (%class.AutocompleteClassifier*)* @_ZN22AutocompleteClassifierD0Ev to i8*), i8* bitcast (void (%class.AutocompleteClassifier*)* @_ZN22AutocompleteClassifier8ShutdownEv to i8*)] }, align 8
@_ZN7omnibox17kDocumentProviderE = external global %"struct.base::Feature", align 8

@_ZN22AutocompleteClassifierC1ENSt3__110unique_ptrI22AutocompleteControllerNS0_14default_deleteIS2_EEEENS1_I28AutocompleteSchemeClassifierNS3_IS6_EEEE = hidden unnamed_addr alias void (%class.AutocompleteClassifier*, %class.AutocompleteController*, %class.AutocompleteSchemeClassifier*), void (%class.AutocompleteClassifier*, %class.AutocompleteController*, %class.AutocompleteSchemeClassifier*)* @_ZN22AutocompleteClassifierC2ENSt3__110unique_ptrI22AutocompleteControllerNS0_14default_deleteIS2_EEEENS1_I28AutocompleteSchemeClassifierNS3_IS6_EEEE
@_ZN22AutocompleteClassifierD1Ev = hidden unnamed_addr alias void (%class.AutocompleteClassifier*), void (%class.AutocompleteClassifier*)* @_ZN22AutocompleteClassifierD2Ev

; Function Attrs: nounwind ssp uwtable
define hidden void @_ZN22AutocompleteClassifierC2ENSt3__110unique_ptrI22AutocompleteControllerNS0_14default_deleteIS2_EEEENS1_I28AutocompleteSchemeClassifierNS3_IS6_EEEE(%class.AutocompleteClassifier*, %class.AutocompleteController*, %class.AutocompleteSchemeClassifier*) unnamed_addr #0 align 2 {
  %4 = ptrtoint %class.AutocompleteController* %1 to i64
  %5 = ptrtoint %class.AutocompleteSchemeClassifier* %2 to i64
  %6 = getelementptr inbounds %class.AutocompleteClassifier, %class.AutocompleteClassifier* %0, i64 0, i32 0
  tail call void @_ZN12KeyedServiceC2Ev(%class.KeyedService* %6) #5
  %7 = getelementptr inbounds %class.AutocompleteClassifier, %class.AutocompleteClassifier* %0, i64 0, i32 0, i32 0
  store i32 (...)** bitcast (i8** getelementptr inbounds ({ [5 x i8*] }, { [5 x i8*] }* @_ZTV22AutocompleteClassifier, i64 0, inrange i32 0, i64 2) to i32 (...)**), i32 (...)*** %7, align 8
  %8 = getelementptr inbounds %class.AutocompleteClassifier, %class.AutocompleteClassifier* %0, i64 0, i32 1
  %9 = bitcast %"class.std::__1::unique_ptr"* %8 to i64*
  store i64 %4, i64* %9, align 8
  %10 = getelementptr inbounds %class.AutocompleteClassifier, %class.AutocompleteClassifier* %0, i64 0, i32 2
  %11 = bitcast %"class.std::__1::unique_ptr.355"* %10 to i64*
  store i64 %5, i64* %11, align 8
  %12 = getelementptr inbounds %class.AutocompleteClassifier, %class.AutocompleteClassifier* %0, i64 0, i32 3
  store i8 0, i8* %12, align 8
  ret void
}

declare void @_ZN12KeyedServiceC2Ev(%class.KeyedService*) unnamed_addr #1

; Function Attrs: nounwind ssp uwtable
define hidden void @_ZN22AutocompleteClassifierD2Ev(%class.AutocompleteClassifier*) unnamed_addr #0 align 2 {
  %2 = getelementptr inbounds %class.AutocompleteClassifier, %class.AutocompleteClassifier* %0, i64 0, i32 0, i32 0
  store i32 (...)** bitcast (i8** getelementptr inbounds ({ [5 x i8*] }, { [5 x i8*] }* @_ZTV22AutocompleteClassifier, i64 0, inrange i32 0, i64 2) to i32 (...)**), i32 (...)*** %2, align 8
  %3 = getelementptr inbounds %class.AutocompleteClassifier, %class.AutocompleteClassifier* %0, i64 0, i32 2, i32 0, i32 0, i32 0
  %4 = load %class.AutocompleteSchemeClassifier*, %class.AutocompleteSchemeClassifier** %3, align 8
  store %class.AutocompleteSchemeClassifier* null, %class.AutocompleteSchemeClassifier** %3, align 8
  %5 = icmp eq %class.AutocompleteSchemeClassifier* %4, null
  br i1 %5, label %11, label %6

6:                                                ; preds = %1
  %7 = bitcast %class.AutocompleteSchemeClassifier* %4 to void (%class.AutocompleteSchemeClassifier*)***
  %8 = load void (%class.AutocompleteSchemeClassifier*)**, void (%class.AutocompleteSchemeClassifier*)*** %7, align 8
  %9 = getelementptr inbounds void (%class.AutocompleteSchemeClassifier*)*, void (%class.AutocompleteSchemeClassifier*)** %8, i64 1
  %10 = load void (%class.AutocompleteSchemeClassifier*)*, void (%class.AutocompleteSchemeClassifier*)** %9, align 8
  tail call void %10(%class.AutocompleteSchemeClassifier* nonnull %4) #5
  br label %11

11:                                               ; preds = %1, %6
  %12 = getelementptr inbounds %class.AutocompleteClassifier, %class.AutocompleteClassifier* %0, i64 0, i32 1, i32 0, i32 0, i32 0
  %13 = load %class.AutocompleteController*, %class.AutocompleteController** %12, align 8
  store %class.AutocompleteController* null, %class.AutocompleteController** %12, align 8
  %14 = icmp eq %class.AutocompleteController* %13, null
  br i1 %14, label %20, label %15

15:                                               ; preds = %11
  %16 = bitcast %class.AutocompleteController* %13 to void (%class.AutocompleteController*)***
  %17 = load void (%class.AutocompleteController*)**, void (%class.AutocompleteController*)*** %16, align 8
  %18 = getelementptr inbounds void (%class.AutocompleteController*)*, void (%class.AutocompleteController*)** %17, i64 2
  %19 = load void (%class.AutocompleteController*)*, void (%class.AutocompleteController*)** %18, align 8
  tail call void %19(%class.AutocompleteController* nonnull %13) #5
  br label %20

20:                                               ; preds = %11, %15
  %21 = getelementptr inbounds %class.AutocompleteClassifier, %class.AutocompleteClassifier* %0, i64 0, i32 0
  tail call void @_ZN12KeyedServiceD2Ev(%class.KeyedService* %21) #5
  ret void
}

; Function Attrs: nounwind
declare void @_ZN12KeyedServiceD2Ev(%class.KeyedService*) unnamed_addr #2

; Function Attrs: nounwind ssp uwtable
define hidden void @_ZN22AutocompleteClassifierD0Ev(%class.AutocompleteClassifier*) unnamed_addr #0 align 2 {
  %2 = getelementptr inbounds %class.AutocompleteClassifier, %class.AutocompleteClassifier* %0, i64 0, i32 0, i32 0
  store i32 (...)** bitcast (i8** getelementptr inbounds ({ [5 x i8*] }, { [5 x i8*] }* @_ZTV22AutocompleteClassifier, i64 0, inrange i32 0, i64 2) to i32 (...)**), i32 (...)*** %2, align 8
  %3 = getelementptr inbounds %class.AutocompleteClassifier, %class.AutocompleteClassifier* %0, i64 0, i32 2, i32 0, i32 0, i32 0
  %4 = load %class.AutocompleteSchemeClassifier*, %class.AutocompleteSchemeClassifier** %3, align 8
  store %class.AutocompleteSchemeClassifier* null, %class.AutocompleteSchemeClassifier** %3, align 8
  %5 = icmp eq %class.AutocompleteSchemeClassifier* %4, null
  br i1 %5, label %11, label %6

6:                                                ; preds = %1
  %7 = bitcast %class.AutocompleteSchemeClassifier* %4 to void (%class.AutocompleteSchemeClassifier*)***
  %8 = load void (%class.AutocompleteSchemeClassifier*)**, void (%class.AutocompleteSchemeClassifier*)*** %7, align 8
  %9 = getelementptr inbounds void (%class.AutocompleteSchemeClassifier*)*, void (%class.AutocompleteSchemeClassifier*)** %8, i64 1
  %10 = load void (%class.AutocompleteSchemeClassifier*)*, void (%class.AutocompleteSchemeClassifier*)** %9, align 8
  tail call void %10(%class.AutocompleteSchemeClassifier* nonnull %4) #5
  br label %11

11:                                               ; preds = %6, %1
  %12 = getelementptr inbounds %class.AutocompleteClassifier, %class.AutocompleteClassifier* %0, i64 0, i32 1, i32 0, i32 0, i32 0
  %13 = load %class.AutocompleteController*, %class.AutocompleteController** %12, align 8
  store %class.AutocompleteController* null, %class.AutocompleteController** %12, align 8
  %14 = icmp eq %class.AutocompleteController* %13, null
  br i1 %14, label %20, label %15

15:                                               ; preds = %11
  %16 = bitcast %class.AutocompleteController* %13 to void (%class.AutocompleteController*)***
  %17 = load void (%class.AutocompleteController*)**, void (%class.AutocompleteController*)*** %16, align 8
  %18 = getelementptr inbounds void (%class.AutocompleteController*)*, void (%class.AutocompleteController*)** %17, i64 2
  %19 = load void (%class.AutocompleteController*)*, void (%class.AutocompleteController*)** %18, align 8
  tail call void %19(%class.AutocompleteController* nonnull %13) #5
  br label %20

20:                                               ; preds = %11, %15
  %21 = getelementptr inbounds %class.AutocompleteClassifier, %class.AutocompleteClassifier* %0, i64 0, i32 0
  tail call void @_ZN12KeyedServiceD2Ev(%class.KeyedService* %21) #5
  %22 = bitcast %class.AutocompleteClassifier* %0 to i8*
  tail call void @_ZdlPv(i8* %22) #6
  ret void
}

; Function Attrs: nobuiltin nounwind
declare void @_ZdlPv(i8*) local_unnamed_addr #3

; Function Attrs: nounwind ssp uwtable
define hidden void @_ZN22AutocompleteClassifier8ShutdownEv(%class.AutocompleteClassifier* nocapture) unnamed_addr #0 align 2 {
  %2 = getelementptr inbounds %class.AutocompleteClassifier, %class.AutocompleteClassifier* %0, i64 0, i32 1, i32 0, i32 0, i32 0
  %3 = load %class.AutocompleteController*, %class.AutocompleteController** %2, align 8
  store %class.AutocompleteController* null, %class.AutocompleteController** %2, align 8
  %4 = icmp eq %class.AutocompleteController* %3, null
  br i1 %4, label %10, label %5

5:                                                ; preds = %1
  %6 = bitcast %class.AutocompleteController* %3 to void (%class.AutocompleteController*)***
  %7 = load void (%class.AutocompleteController*)**, void (%class.AutocompleteController*)*** %6, align 8
  %8 = getelementptr inbounds void (%class.AutocompleteController*)*, void (%class.AutocompleteController*)** %7, i64 2
  %9 = load void (%class.AutocompleteController*)*, void (%class.AutocompleteController*)** %8, align 8
  tail call void %9(%class.AutocompleteController* nonnull %3) #5
  br label %10

10:                                               ; preds = %1, %5
  ret void
}

; Function Attrs: nounwind ssp uwtable
define hidden i32 @_ZN22AutocompleteClassifier23DefaultOmniboxProvidersEv() local_unnamed_addr #0 align 2 {
  %1 = tail call zeroext i1 @_ZN4base11FeatureList9IsEnabledERKNS_7FeatureE(%"struct.base::Feature"* nonnull dereferenceable(16) @_ZN7omnibox17kDocumentProviderE) #5
  %2 = tail call zeroext i1 @_ZN17OmniboxFieldTrial38IsOnDeviceHeadSuggestEnabledForAnyModeEv() #5
  %3 = select i1 %2, i32 1024, i32 0
  %4 = tail call zeroext i1 @_ZN11query_tiles8features28IsEnabledQueryTilesInOmniboxEv() #5
  %5 = select i1 %4, i32 4096, i32 0
  %6 = select i1 %1, i32 2815, i32 2303
  %7 = or i32 %6, %3
  %8 = or i32 %7, %5
  ret i32 %8
}

declare zeroext i1 @_ZN4base11FeatureList9IsEnabledERKNS_7FeatureE(%"struct.base::Feature"* dereferenceable(16)) local_unnamed_addr #1

declare zeroext i1 @_ZN17OmniboxFieldTrial38IsOnDeviceHeadSuggestEnabledForAnyModeEv() local_unnamed_addr #1

declare zeroext i1 @_ZN11query_tiles8features28IsEnabledQueryTilesInOmniboxEv() local_unnamed_addr #1

; Function Attrs: nounwind ssp uwtable
define hidden void @_ZN22AutocompleteClassifier8ClassifyERKNSt3__112basic_stringIDsNS0_11char_traitsIDsEENS0_9allocatorIDsEEEEbbN7metrics36OmniboxEventProto_PageClassificationEP17AutocompleteMatchP4GURL(%class.AutocompleteClassifier*, %"class.std::__1::basic_string"* dereferenceable(24), i1 zeroext, i1 zeroext, i32, %struct.AutocompleteMatch*, %class.GURL*) local_unnamed_addr #0 align 2 {
  %8 = alloca %class.AutocompleteInput, align 8
  %9 = alloca %class.GURL, align 8
  %10 = alloca %class.GURL, align 8
  %11 = getelementptr inbounds %class.AutocompleteClassifier, %class.AutocompleteClassifier* %0, i64 0, i32 3
  %12 = load i8, i8* %11, align 1, !range !2
  store i8 1, i8* %11, align 1
  %13 = bitcast %class.AutocompleteInput* %8 to i8*
  call void @llvm.lifetime.start.p0i8(i64 512, i8* nonnull %13) #5
  call void @llvm.memset.p0i8.i64(i8* nonnull align 8 %13, i8 -86, i64 512, i1 false)
  %14 = getelementptr inbounds %class.AutocompleteClassifier, %class.AutocompleteClassifier* %0, i64 0, i32 2, i32 0, i32 0, i32 0
  %15 = load %class.AutocompleteSchemeClassifier*, %class.AutocompleteSchemeClassifier** %14, align 8
  call void @_ZN17AutocompleteInputC1ERKNSt3__112basic_stringIDsNS0_11char_traitsIDsEENS0_9allocatorIDsEEEEN7metrics36OmniboxEventProto_PageClassificationERK28AutocompleteSchemeClassifierbi(%class.AutocompleteInput* nonnull %8, %"class.std::__1::basic_string"* dereferenceable(24) %1, i32 %4, %class.AutocompleteSchemeClassifier* dereferenceable(8) %15, i1 zeroext false, i32 0) #5
  %16 = getelementptr inbounds %class.AutocompleteInput, %class.AutocompleteInput* %8, i64 0, i32 10
  store i8 1, i8* %16, align 8
  %17 = zext i1 %2 to i8
  %18 = getelementptr inbounds %class.AutocompleteInput, %class.AutocompleteInput* %8, i64 0, i32 11
  store i8 %17, i8* %18, align 1
  %19 = zext i1 %3 to i8
  %20 = getelementptr inbounds %class.AutocompleteInput, %class.AutocompleteInput* %8, i64 0, i32 12
  store i8 %19, i8* %20, align 2
  %21 = getelementptr inbounds %class.AutocompleteInput, %class.AutocompleteInput* %8, i64 0, i32 14
  store i8 0, i8* %21, align 8
  %22 = getelementptr inbounds %class.AutocompleteClassifier, %class.AutocompleteClassifier* %0, i64 0, i32 1, i32 0, i32 0, i32 0
  %23 = load %class.AutocompleteController*, %class.AutocompleteController** %22, align 8
  call void @_ZN22AutocompleteController5StartERK17AutocompleteInput(%class.AutocompleteController* %23, %class.AutocompleteInput* nonnull dereferenceable(512) %8) #5
  %24 = load %class.AutocompleteController*, %class.AutocompleteController** %22, align 8
  %25 = getelementptr inbounds %class.AutocompleteController, %class.AutocompleteController* %24, i64 0, i32 14
  %26 = call %struct.AutocompleteMatch* @_ZNK18AutocompleteResult13default_matchEv(%class.AutocompleteResult* %25) #5
  %27 = icmp eq %struct.AutocompleteMatch* %26, null
  br i1 %27, label %28, label %33

28:                                               ; preds = %7
  %29 = icmp eq %class.GURL* %6, null
  br i1 %29, label %42, label %30

30:                                               ; preds = %28
  %31 = bitcast %class.GURL* %9 to i8*
  call void @llvm.lifetime.start.p0i8(i64 120, i8* nonnull %31) #5
  call void @_ZN4GURLC1Ev(%class.GURL* nonnull %9) #5
  %32 = call dereferenceable(120) %class.GURL* @_ZN4GURLaSEOS_(%class.GURL* nonnull %6, %class.GURL* nonnull dereferenceable(120) %9) #5
  call void @_ZN4GURLD1Ev(%class.GURL* nonnull %9) #5
  call void @llvm.lifetime.end.p0i8(i64 120, i8* nonnull %31) #5
  br label %42

33:                                               ; preds = %7
  %34 = call dereferenceable(1600) %struct.AutocompleteMatch* @_ZN17AutocompleteMatchaSERKS_(%struct.AutocompleteMatch* %5, %struct.AutocompleteMatch* nonnull dereferenceable(1600) %26) #5
  %35 = icmp eq %class.GURL* %6, null
  br i1 %35, label %42, label %36

36:                                               ; preds = %33
  %37 = bitcast %class.GURL* %10 to i8*
  call void @llvm.lifetime.start.p0i8(i64 120, i8* nonnull %37) #5
  %38 = load %class.AutocompleteController*, %class.AutocompleteController** %22, align 8
  %39 = getelementptr inbounds %class.AutocompleteController, %class.AutocompleteController* %38, i64 0, i32 3, i32 0, i32 0, i32 0
  %40 = load %class.AutocompleteProviderClient*, %class.AutocompleteProviderClient** %39, align 8
  call void @_ZN18AutocompleteResult22ComputeAlternateNavUrlERK17AutocompleteInputRK17AutocompleteMatchP26AutocompleteProviderClient(%class.GURL* nonnull sret %10, %class.AutocompleteInput* nonnull dereferenceable(512) %8, %struct.AutocompleteMatch* dereferenceable(1600) %5, %class.AutocompleteProviderClient* %40) #5
  %41 = call dereferenceable(120) %class.GURL* @_ZN4GURLaSEOS_(%class.GURL* nonnull %6, %class.GURL* nonnull dereferenceable(120) %10) #5
  call void @_ZN4GURLD1Ev(%class.GURL* nonnull %10) #5
  call void @llvm.lifetime.end.p0i8(i64 120, i8* nonnull %37) #5
  br label %42

42:                                               ; preds = %36, %33, %30, %28
  call void @_ZN17AutocompleteInputD1Ev(%class.AutocompleteInput* nonnull %8) #5
  call void @llvm.lifetime.end.p0i8(i64 512, i8* nonnull %13) #5
  %43 = icmp eq i8* %11, null
  br i1 %43, label %45, label %44

44:                                               ; preds = %42
  store i8 %12, i8* %11, align 1
  br label %45

45:                                               ; preds = %42, %44
  ret void
}

; Function Attrs: argmemonly nounwind
declare void @llvm.lifetime.start.p0i8(i64 immarg, i8* nocapture) #4

; Function Attrs: argmemonly nounwind
declare void @llvm.lifetime.end.p0i8(i64 immarg, i8* nocapture) #4

; Function Attrs: argmemonly nounwind
declare void @llvm.memset.p0i8.i64(i8* nocapture writeonly, i8, i64, i1 immarg) #4

declare void @_ZN17AutocompleteInputC1ERKNSt3__112basic_stringIDsNS0_11char_traitsIDsEENS0_9allocatorIDsEEEEN7metrics36OmniboxEventProto_PageClassificationERK28AutocompleteSchemeClassifierbi(%class.AutocompleteInput*, %"class.std::__1::basic_string"* dereferenceable(24), i32, %class.AutocompleteSchemeClassifier* dereferenceable(8), i1 zeroext, i32) unnamed_addr #1

declare void @_ZN22AutocompleteController5StartERK17AutocompleteInput(%class.AutocompleteController*, %class.AutocompleteInput* dereferenceable(512)) local_unnamed_addr #1

declare %struct.AutocompleteMatch* @_ZNK18AutocompleteResult13default_matchEv(%class.AutocompleteResult*) local_unnamed_addr #1

declare void @_ZN4GURLC1Ev(%class.GURL*) unnamed_addr #1

; Function Attrs: nounwind
declare dereferenceable(120) %class.GURL* @_ZN4GURLaSEOS_(%class.GURL*, %class.GURL* dereferenceable(120)) local_unnamed_addr #2

; Function Attrs: nounwind
declare void @_ZN4GURLD1Ev(%class.GURL*) unnamed_addr #2

declare dereferenceable(1600) %struct.AutocompleteMatch* @_ZN17AutocompleteMatchaSERKS_(%struct.AutocompleteMatch*, %struct.AutocompleteMatch* dereferenceable(1600)) local_unnamed_addr #1

declare void @_ZN18AutocompleteResult22ComputeAlternateNavUrlERK17AutocompleteInputRK17AutocompleteMatchP26AutocompleteProviderClient(%class.GURL* sret, %class.AutocompleteInput* dereferenceable(512), %struct.AutocompleteMatch* dereferenceable(1600), %class.AutocompleteProviderClient*) local_unnamed_addr #1

; Function Attrs: nounwind
declare void @_ZN17AutocompleteInputD1Ev(%class.AutocompleteInput*) unnamed_addr #2

attributes #0 = { nounwind ssp uwtable "correctly-rounded-divide-sqrt-fp-math"="false" "disable-tail-calls"="false" "less-precise-fpmad"="false" "min-legal-vector-width"="0" "no-frame-pointer-elim"="false" "no-frame-pointer-elim-non-leaf" "no-infs-fp-math"="false" "no-jump-tables"="false" "no-nans-fp-math"="false" "no-signed-zeros-fp-math"="false" "no-trapping-math"="false" "null-pointer-is-valid"="true" "stack-protector-buffer-size"="4" "target-cpu"="x86-64" "target-features"="+cx8,+fxsr,+mmx,+sse,+sse2,+sse3,+x87" "unsafe-fp-math"="false" "use-soft-float"="false" }
attributes #1 = { "correctly-rounded-divide-sqrt-fp-math"="false" "disable-tail-calls"="false" "less-precise-fpmad"="false" "no-frame-pointer-elim"="false" "no-frame-pointer-elim-non-leaf" "no-infs-fp-math"="false" "no-nans-fp-math"="false" "no-signed-zeros-fp-math"="false" "no-trapping-math"="false" "null-pointer-is-valid"="true" "stack-protector-buffer-size"="4" "target-cpu"="x86-64" "target-features"="+cx8,+fxsr,+mmx,+sse,+sse2,+sse3,+x87" "unsafe-fp-math"="false" "use-soft-float"="false" }
attributes #2 = { nounwind "correctly-rounded-divide-sqrt-fp-math"="false" "disable-tail-calls"="false" "less-precise-fpmad"="false" "no-frame-pointer-elim"="false" "no-frame-pointer-elim-non-leaf" "no-infs-fp-math"="false" "no-nans-fp-math"="false" "no-signed-zeros-fp-math"="false" "no-trapping-math"="false" "null-pointer-is-valid"="true" "stack-protector-buffer-size"="4" "target-cpu"="x86-64" "target-features"="+cx8,+fxsr,+mmx,+sse,+sse2,+sse3,+x87" "unsafe-fp-math"="false" "use-soft-float"="false" }
attributes #3 = { nobuiltin nounwind "correctly-rounded-divide-sqrt-fp-math"="false" "disable-tail-calls"="false" "less-precise-fpmad"="false" "no-frame-pointer-elim"="false" "no-frame-pointer-elim-non-leaf" "no-infs-fp-math"="false" "no-nans-fp-math"="false" "no-signed-zeros-fp-math"="false" "no-trapping-math"="false" "null-pointer-is-valid"="true" "stack-protector-buffer-size"="4" "target-cpu"="x86-64" "target-features"="+cx8,+fxsr,+mmx,+sse,+sse2,+sse3,+x87" "unsafe-fp-math"="false" "use-soft-float"="false" }
attributes #4 = { argmemonly nounwind }
attributes #5 = { nounwind }
attributes #6 = { builtin nounwind }

!llvm.module.flags = !{!0, !1}

!0 = !{i32 1, !"wchar_size", i32 4}
!1 = !{i32 7, !"PIC Level", i32 2}
!2 = !{i8 0, i8 2}
