; ModuleID = '../../components/autofill/core/browser/data_model/autofill_structured_address.cc'
source_filename = "../../components/autofill/core/browser/data_model/autofill_structured_address.cc"
target datalayout = "e-m:e-i64:64-f80:128-n8:16:32:64-S128"
target triple = "x86_64-unknown-linux-gnu"

module asm ".symver exp, exp@GLIBC_2.2.5"
module asm ".symver exp2, exp2@GLIBC_2.2.5"
module asm ".symver exp2f, exp2f@GLIBC_2.2.5"
module asm ".symver expf, expf@GLIBC_2.2.5"
module asm ".symver lgamma, lgamma@GLIBC_2.2.5"
module asm ".symver lgammaf, lgammaf@GLIBC_2.2.5"
module asm ".symver lgammal, lgammal@GLIBC_2.2.5"
module asm ".symver log, log@GLIBC_2.2.5"
module asm ".symver log2, log2@GLIBC_2.2.5"
module asm ".symver log2f, log2f@GLIBC_2.2.5"
module asm ".symver logf, logf@GLIBC_2.2.5"
module asm ".symver pow, pow@GLIBC_2.2.5"
module asm ".symver powf, powf@GLIBC_2.2.5"

%"class.autofill::structured_address::StreetName" = type { %"class.autofill::structured_address::AddressComponent.base", [4 x i8] }
%"class.autofill::structured_address::AddressComponent.base" = type <{ i32 (...)**, %"class.absl::optional", i32, i32, %"class.std::__1::vector", %"class.absl::optional.7", %"class.autofill::structured_address::AddressComponent"*, i32 }>
%"class.absl::optional" = type { %"class.absl::optional_internal::optional_data" }
%"class.absl::optional_internal::optional_data" = type { %"class.absl::optional_internal::optional_data_base" }
%"class.absl::optional_internal::optional_data_base" = type { %"class.absl::optional_internal::optional_data_dtor_base" }
%"class.absl::optional_internal::optional_data_dtor_base" = type { i8, %union.anon }
%union.anon = type { %"class.std::__1::basic_string" }
%"class.std::__1::basic_string" = type { %"class.std::__1::__compressed_pair" }
%"class.std::__1::__compressed_pair" = type { %"struct.std::__1::__compressed_pair_elem" }
%"struct.std::__1::__compressed_pair_elem" = type { %"struct.std::__1::basic_string<char16_t, std::__1::char_traits<char16_t>, std::__1::allocator<char16_t> >::__rep" }
%"struct.std::__1::basic_string<char16_t, std::__1::char_traits<char16_t>, std::__1::allocator<char16_t> >::__rep" = type { %union.anon.0 }
%union.anon.0 = type { %"struct.std::__1::basic_string<char16_t, std::__1::char_traits<char16_t>, std::__1::allocator<char16_t> >::__long" }
%"struct.std::__1::basic_string<char16_t, std::__1::char_traits<char16_t>, std::__1::allocator<char16_t> >::__long" = type { i16*, i64, i64 }
%"class.std::__1::vector" = type { %"class.std::__1::__vector_base" }
%"class.std::__1::__vector_base" = type { %"class.autofill::structured_address::AddressComponent"**, %"class.autofill::structured_address::AddressComponent"**, %"class.std::__1::__compressed_pair.2" }
%"class.std::__1::__compressed_pair.2" = type { %"struct.std::__1::__compressed_pair_elem.3" }
%"struct.std::__1::__compressed_pair_elem.3" = type { %"class.autofill::structured_address::AddressComponent"** }
%"class.absl::optional.7" = type { %"class.absl::optional_internal::optional_data.8" }
%"class.absl::optional_internal::optional_data.8" = type { %"class.absl::optional_internal::optional_data_base.9" }
%"class.absl::optional_internal::optional_data_base.9" = type { %"class.absl::optional_internal::optional_data_dtor_base.10" }
%"class.absl::optional_internal::optional_data_dtor_base.10" = type { i8, %union.anon.11 }
%union.anon.11 = type { %"class.std::__1::vector.12" }
%"class.std::__1::vector.12" = type { %"class.std::__1::__vector_base.13" }
%"class.std::__1::__vector_base.13" = type { %"struct.autofill::structured_address::AddressToken"*, %"struct.autofill::structured_address::AddressToken"*, %"class.std::__1::__compressed_pair.14" }
%"struct.autofill::structured_address::AddressToken" = type <{ %"class.std::__1::basic_string", %"class.std::__1::basic_string", i32, [4 x i8] }>
%"class.std::__1::__compressed_pair.14" = type { %"struct.std::__1::__compressed_pair_elem.15" }
%"struct.std::__1::__compressed_pair_elem.15" = type { %"struct.autofill::structured_address::AddressToken"* }
%"class.autofill::structured_address::AddressComponent" = type <{ i32 (...)**, %"class.absl::optional", i32, i32, %"class.std::__1::vector", %"class.absl::optional.7", %"class.autofill::structured_address::AddressComponent"*, i32, [4 x i8] }>
%"class.autofill::structured_address::DependentStreetName" = type { %"class.autofill::structured_address::AddressComponent.base", [4 x i8] }
%"class.autofill::structured_address::StreetAndDependentStreetName" = type { %"class.autofill::structured_address::AddressComponent.base", [4 x i8], %"class.autofill::structured_address::StreetName", %"class.autofill::structured_address::DependentStreetName" }
%"class.autofill::structured_address::HouseNumber" = type { %"class.autofill::structured_address::AddressComponent.base", [4 x i8] }
%"class.autofill::structured_address::Premise" = type { %"class.autofill::structured_address::AddressComponent.base", [4 x i8] }
%"class.autofill::structured_address::Floor" = type { %"class.autofill::structured_address::AddressComponent.base", [4 x i8] }
%"class.autofill::structured_address::Apartment" = type { %"class.autofill::structured_address::AddressComponent.base", [4 x i8] }
%"class.autofill::structured_address::SubPremise" = type { %"class.autofill::structured_address::AddressComponent.base", [4 x i8], %"class.autofill::structured_address::Floor", %"class.autofill::structured_address::Apartment" }
%"class.autofill::structured_address::StreetAddress" = type { %"class.autofill::structured_address::AddressComponentWithRewriter.base", [4 x i8], %"class.autofill::structured_address::StreetAndDependentStreetName", %"class.autofill::structured_address::HouseNumber", %"class.autofill::structured_address::Premise", %"class.autofill::structured_address::SubPremise", %"class.std::__1::vector.19" }
%"class.autofill::structured_address::AddressComponentWithRewriter.base" = type { %"class.autofill::structured_address::AddressComponent.base" }
%"class.std::__1::vector.19" = type { %"class.std::__1::__vector_base.20" }
%"class.std::__1::__vector_base.20" = type { %"class.std::__1::basic_string"*, %"class.std::__1::basic_string"*, %"class.std::__1::__compressed_pair.21" }
%"class.std::__1::__compressed_pair.21" = type { %"struct.std::__1::__compressed_pair_elem.22" }
%"struct.std::__1::__compressed_pair_elem.22" = type { %"class.std::__1::basic_string"* }
%"class.autofill::structured_address::CountryCode" = type { %"class.autofill::structured_address::AddressComponent.base", [4 x i8] }
%"class.autofill::structured_address::DependentLocality" = type { %"class.autofill::structured_address::AddressComponent.base", [4 x i8] }
%"class.autofill::structured_address::City" = type { %"class.autofill::structured_address::AddressComponent.base", [4 x i8] }
%"class.autofill::structured_address::State" = type { %"class.autofill::structured_address::AddressComponentWithRewriter.base", [4 x i8] }
%"class.autofill::structured_address::PostalCode" = type { %"class.autofill::structured_address::AddressComponentWithRewriter.base", [4 x i8] }
%"class.autofill::structured_address::SortingCode" = type { %"class.autofill::structured_address::AddressComponent.base", [4 x i8] }
%"class.autofill::structured_address::Address" = type { %"class.autofill::structured_address::AddressComponent.base", %"class.autofill::structured_address::StreetAddress", %"class.autofill::structured_address::PostalCode", %"class.autofill::structured_address::SortingCode", %"class.autofill::structured_address::DependentLocality", %"class.autofill::structured_address::City", %"class.autofill::structured_address::State", %"class.autofill::structured_address::CountryCode" }
%"class.autofill::structured_address::AddressComponentWithRewriter" = type { %"class.autofill::structured_address::AddressComponent.base", [4 x i8] }
%"struct.std::__1::basic_string<char16_t, std::__1::char_traits<char16_t>, std::__1::allocator<char16_t> >::__short" = type { [11 x i16], %struct.anon }
%struct.anon = type { %"struct.std::__1::__padding", i8 }
%"struct.std::__1::__padding" = type { [1 x i8] }
%"class.std::__1::__basic_string_common" = type { i8 }
%"class.std::__1::vector.26" = type { %"class.std::__1::__vector_base.27" }
%"class.std::__1::__vector_base.27" = type { %"class.re2::RE2"**, %"class.re2::RE2"**, %"class.std::__1::__compressed_pair.38" }
%"class.re2::RE2" = type { %"class.std::__1::basic_string.28", %"class.re2::RE2::Options", %"class.re2::Regexp"*, %"class.std::__1::basic_string.28"*, i32, %"class.std::__1::basic_string.28", %"class.std::__1::basic_string.28", i8, %"class.re2::Regexp"*, %"class.re2::Prog"*, i32, i8, %"class.re2::Prog"*, %"class.std::__1::map"*, %"class.std::__1::map.37"*, %"struct.std::__1::once_flag", %"struct.std::__1::once_flag", %"struct.std::__1::once_flag" }
%"class.re2::RE2::Options" = type { i32, i8, i8, i8, i64, i8, i8, i8, i8, i8, i8, i8, i8 }
%"class.std::__1::basic_string.28" = type { %"class.std::__1::__compressed_pair.29" }
%"class.std::__1::__compressed_pair.29" = type { %"struct.std::__1::__compressed_pair_elem.30" }
%"struct.std::__1::__compressed_pair_elem.30" = type { %"struct.std::__1::basic_string<char, std::__1::char_traits<char>, std::__1::allocator<char> >::__rep" }
%"struct.std::__1::basic_string<char, std::__1::char_traits<char>, std::__1::allocator<char> >::__rep" = type { %union.anon.31 }
%union.anon.31 = type { %"struct.std::__1::basic_string<char, std::__1::char_traits<char>, std::__1::allocator<char> >::__long" }
%"struct.std::__1::basic_string<char, std::__1::char_traits<char>, std::__1::allocator<char> >::__long" = type { i8*, i64, i64 }
%"class.re2::Regexp" = type opaque
%"class.re2::Prog" = type opaque
%"class.std::__1::map" = type opaque
%"class.std::__1::map.37" = type opaque
%"struct.std::__1::once_flag" = type { i64 }
%"class.std::__1::__compressed_pair.38" = type { %"struct.std::__1::__compressed_pair_elem.39" }
%"struct.std::__1::__compressed_pair_elem.39" = type { %"class.re2::RE2"** }
%"class.autofill::structured_address::StructuredAddressesRegExProvider" = type { i32 (...)**, %"class.base::flat_map", %"class.base::Lock" }
%"class.base::flat_map" = type { %"class.base::internal::flat_tree" }
%"class.base::internal::flat_tree" = type { %"class.std::__1::vector.43" }
%"class.std::__1::vector.43" = type { %"class.std::__1::__vector_base.44" }
%"class.std::__1::__vector_base.44" = type { %"struct.std::__1::pair"*, %"struct.std::__1::pair"*, %"class.std::__1::__compressed_pair.45" }
%"struct.std::__1::pair" = type opaque
%"class.std::__1::__compressed_pair.45" = type { %"struct.std::__1::__compressed_pair_elem.46" }
%"struct.std::__1::__compressed_pair_elem.46" = type { %"struct.std::__1::pair"* }
%"class.base::Lock" = type { %"class.base::internal::LockImpl" }
%"class.base::internal::LockImpl" = type { %union.pthread_mutex_t }
%union.pthread_mutex_t = type { %struct.__pthread_mutex_s }
%struct.__pthread_mutex_s = type { i32, i32, i32, i32, i32, i16, i16, %struct.__pthread_internal_list }
%struct.__pthread_internal_list = type { %struct.__pthread_internal_list*, %struct.__pthread_internal_list* }
%"class.std::__1::__vector_base_common" = type { i8 }
%"struct.std::__1::basic_string<char, std::__1::char_traits<char>, std::__1::allocator<char> >::__short" = type { [23 x i8], %struct.anon.32 }
%struct.anon.32 = type { i8 }
%"class.autofill::DenseSet" = type { %"class.std::__1::bitset" }
%"class.std::__1::bitset" = type { %"class.std::__1::__bitset" }
%"class.std::__1::__bitset" = type { [2 x i64] }

$_ZNSt3__112basic_stringIDsNS_11char_traitsIDsEENS_9allocatorIDsEEEaSERKS5_ = comdat any

$_ZN8autofill18structured_address28AddressComponentWithRewriterD0Ev = comdat any

$_ZN8autofill18structured_address16AddressComponent22MigrateLegacyStructureEb = comdat any

$_ZNK8autofill18structured_address16AddressComponent32GetAdditionalSupportedFieldTypesEPNS_8DenseSetINS_15ServerFieldTypeELS3_118EEE = comdat any

$_ZN8autofill18structured_address16AddressComponent22PostAssignSanitizationEv = comdat any

$_ZNSt3__112basic_stringIDsNS_11char_traitsIDsEENS_9allocatorIDsEEE21__grow_by_and_replaceEmmmmmmPKDs = comdat any

$_ZNSt3__16vectorINS_12basic_stringIDsNS_11char_traitsIDsEENS_9allocatorIDsEEEENS4_IS6_EEE8__appendEmRKS6_ = comdat any

@_ZTVN8autofill18structured_address10StreetNameE = hidden unnamed_addr constant { [27 x i8*] } { [27 x i8*] [i8* null, i8* null, i8* bitcast (void (%"class.autofill::structured_address::StreetName"*)* @_ZN8autofill18structured_address10StreetNameD2Ev to i8*), i8* bitcast (void (%"class.autofill::structured_address::StreetName"*)* @_ZN8autofill18structured_address10StreetNameD0Ev to i8*), i8* bitcast (void (%"class.autofill::structured_address::AddressComponent"*, i1)* @_ZN8autofill18structured_address16AddressComponent22MigrateLegacyStructureEb to i8*), i8* bitcast (void (%"class.autofill::structured_address::AddressComponent"*, %"class.std::__1::basic_string"*, i32)* @_ZN8autofill18structured_address16AddressComponent8SetValueENSt3__112basic_stringIDsNS2_11char_traitsIDsEENS2_9allocatorIDsEEEENS0_18VerificationStatusE to i8*), i8* bitcast (void (%"class.autofill::structured_address::AddressComponent"*)* @_ZN8autofill18structured_address16AddressComponent10UnsetValueEv to i8*), i8* bitcast (void (%"class.autofill::structured_address::AddressComponent"*)* @_ZN8autofill18structured_address16AddressComponent23RecursivelyCompleteTreeEv to i8*), i8* bitcast (i1 (%"class.autofill::structured_address::AddressComponent"*)* @_ZN8autofill18structured_address16AddressComponent16CompleteFullTreeEv to i8*), i8* bitcast (void (%"class.autofill::structured_address::AddressComponent"*, %"class.autofill::DenseSet"*)* @_ZNK8autofill18structured_address16AddressComponent32GetAdditionalSupportedFieldTypesEPNS_8DenseSetINS_15ServerFieldTypeELS3_118EEE to i8*), i8* bitcast (i1 (%"class.autofill::structured_address::AddressComponent"*, %"class.autofill::structured_address::AddressComponent"*)* @_ZNK8autofill18structured_address16AddressComponent24IsMergeableWithComponentERKS1_ to i8*), i8* bitcast (void (%"class.autofill::structured_address::AddressComponent"*, %"class.autofill::structured_address::AddressComponent"*)* @_ZN8autofill18structured_address16AddressComponent25MergeVerificationStatusesERKS1_ to i8*), i8* bitcast (i1 (%"class.autofill::structured_address::AddressComponent"*, %"class.autofill::structured_address::AddressComponent"*, i1)* @_ZN8autofill18structured_address16AddressComponent18MergeWithComponentERKS1_b to i8*), i8* bitcast (i1 (%"class.autofill::structured_address::AddressComponent"*)* @_ZN8autofill18structured_address16AddressComponent20WipeInvalidStructureEv to i8*), i8* bitcast (i32 (%"class.autofill::structured_address::AddressComponent"*)* @_ZNK8autofill18structured_address16AddressComponent29GetStructureVerificationScoreEv to i8*), i8* bitcast (void (%"class.std::__1::basic_string"*, %"class.autofill::structured_address::AddressComponent"*)* @_ZNK8autofill18structured_address16AddressComponent19GetBestFormatStringEv to i8*), i8* bitcast (void (%"class.std::__1::vector.26"*, %"class.autofill::structured_address::AddressComponent"*)* @_ZNK8autofill18structured_address16AddressComponent37GetParseRegularExpressionsByRelevanceEv to i8*), i8* bitcast (i1 (%"class.autofill::structured_address::AddressComponent"*)* @_ZN8autofill18structured_address16AddressComponent40ParseValueAndAssignSubcomponentsByMethodEv to i8*), i8* bitcast (void (%"class.autofill::structured_address::AddressComponent"*)* @_ZN8autofill18structured_address16AddressComponent48ParseValueAndAssignSubcomponentsByFallbackMethodEv to i8*), i8* bitcast (i1 (%"class.autofill::structured_address::AddressComponent"*, %"class.std::__1::basic_string.28"*, %"class.std::__1::basic_string"*, i32*)* @_ZN8autofill18structured_address16AddressComponent44ConvertAndSetValueForAdditionalFieldTypeNameERKNSt3__112basic_stringIcNS2_11char_traitsIcEENS2_9allocatorIcEEEERKNS3_IDsNS4_IDsEENS6_IDsEEEERKNS0_18VerificationStatusE to i8*), i8* bitcast (i1 (%"class.autofill::structured_address::AddressComponent"*, %"class.std::__1::basic_string.28"*, %"class.std::__1::basic_string"*)* @_ZNK8autofill18structured_address16AddressComponent47ConvertAndGetTheValueForAdditionalFieldTypeNameERKNSt3__112basic_stringIcNS2_11char_traitsIcEENS2_9allocatorIcEEEEPNS3_IDsNS4_IDsEENS6_IDsEEEE to i8*), i8* bitcast (void (%"class.autofill::structured_address::AddressComponent"*, %"class.std::__1::basic_string"*)* @_ZN8autofill18structured_address16AddressComponent22ConsumeAdditionalTokenERKNSt3__112basic_stringIDsNS2_11char_traitsIDsEENS2_9allocatorIDsEEEE to i8*), i8* bitcast (i1 (%"class.autofill::structured_address::AddressComponent"*)* @_ZNK8autofill18structured_address16AddressComponent12IsValueValidEv to i8*), i8* bitcast (void (%"class.autofill::structured_address::AddressComponent"*)* @_ZN8autofill18structured_address16AddressComponent22PostAssignSanitizationEv to i8*), i8* bitcast (void (%"class.std::__1::basic_string"*, %"class.autofill::structured_address::AddressComponent"*)* @_ZNK8autofill18structured_address16AddressComponent15NormalizedValueEv to i8*), i8* bitcast (void (%"class.std::__1::basic_string"*, %"class.autofill::structured_address::AddressComponent"*)* @_ZNK8autofill18structured_address16AddressComponent18ValueForComparisonEv to i8*), i8* bitcast (i1 (%"class.autofill::structured_address::AddressComponent"*, %"class.autofill::structured_address::AddressComponent"*)* @_ZNK8autofill18structured_address16AddressComponent33HasNewerValuePrecendenceInMergingERKS1_ to i8*)] }, align 8
@_ZTVN8autofill18structured_address19DependentStreetNameE = hidden unnamed_addr constant { [27 x i8*] } { [27 x i8*] [i8* null, i8* null, i8* bitcast (void (%"class.autofill::structured_address::DependentStreetName"*)* @_ZN8autofill18structured_address19DependentStreetNameD2Ev to i8*), i8* bitcast (void (%"class.autofill::structured_address::DependentStreetName"*)* @_ZN8autofill18structured_address19DependentStreetNameD0Ev to i8*), i8* bitcast (void (%"class.autofill::structured_address::AddressComponent"*, i1)* @_ZN8autofill18structured_address16AddressComponent22MigrateLegacyStructureEb to i8*), i8* bitcast (void (%"class.autofill::structured_address::AddressComponent"*, %"class.std::__1::basic_string"*, i32)* @_ZN8autofill18structured_address16AddressComponent8SetValueENSt3__112basic_stringIDsNS2_11char_traitsIDsEENS2_9allocatorIDsEEEENS0_18VerificationStatusE to i8*), i8* bitcast (void (%"class.autofill::structured_address::AddressComponent"*)* @_ZN8autofill18structured_address16AddressComponent10UnsetValueEv to i8*), i8* bitcast (void (%"class.autofill::structured_address::AddressComponent"*)* @_ZN8autofill18structured_address16AddressComponent23RecursivelyCompleteTreeEv to i8*), i8* bitcast (i1 (%"class.autofill::structured_address::AddressComponent"*)* @_ZN8autofill18structured_address16AddressComponent16CompleteFullTreeEv to i8*), i8* bitcast (void (%"class.autofill::structured_address::AddressComponent"*, %"class.autofill::DenseSet"*)* @_ZNK8autofill18structured_address16AddressComponent32GetAdditionalSupportedFieldTypesEPNS_8DenseSetINS_15ServerFieldTypeELS3_118EEE to i8*), i8* bitcast (i1 (%"class.autofill::structured_address::AddressComponent"*, %"class.autofill::structured_address::AddressComponent"*)* @_ZNK8autofill18structured_address16AddressComponent24IsMergeableWithComponentERKS1_ to i8*), i8* bitcast (void (%"class.autofill::structured_address::AddressComponent"*, %"class.autofill::structured_address::AddressComponent"*)* @_ZN8autofill18structured_address16AddressComponent25MergeVerificationStatusesERKS1_ to i8*), i8* bitcast (i1 (%"class.autofill::structured_address::AddressComponent"*, %"class.autofill::structured_address::AddressComponent"*, i1)* @_ZN8autofill18structured_address16AddressComponent18MergeWithComponentERKS1_b to i8*), i8* bitcast (i1 (%"class.autofill::structured_address::AddressComponent"*)* @_ZN8autofill18structured_address16AddressComponent20WipeInvalidStructureEv to i8*), i8* bitcast (i32 (%"class.autofill::structured_address::AddressComponent"*)* @_ZNK8autofill18structured_address16AddressComponent29GetStructureVerificationScoreEv to i8*), i8* bitcast (void (%"class.std::__1::basic_string"*, %"class.autofill::structured_address::AddressComponent"*)* @_ZNK8autofill18structured_address16AddressComponent19GetBestFormatStringEv to i8*), i8* bitcast (void (%"class.std::__1::vector.26"*, %"class.autofill::structured_address::AddressComponent"*)* @_ZNK8autofill18structured_address16AddressComponent37GetParseRegularExpressionsByRelevanceEv to i8*), i8* bitcast (i1 (%"class.autofill::structured_address::AddressComponent"*)* @_ZN8autofill18structured_address16AddressComponent40ParseValueAndAssignSubcomponentsByMethodEv to i8*), i8* bitcast (void (%"class.autofill::structured_address::AddressComponent"*)* @_ZN8autofill18structured_address16AddressComponent48ParseValueAndAssignSubcomponentsByFallbackMethodEv to i8*), i8* bitcast (i1 (%"class.autofill::structured_address::AddressComponent"*, %"class.std::__1::basic_string.28"*, %"class.std::__1::basic_string"*, i32*)* @_ZN8autofill18structured_address16AddressComponent44ConvertAndSetValueForAdditionalFieldTypeNameERKNSt3__112basic_stringIcNS2_11char_traitsIcEENS2_9allocatorIcEEEERKNS3_IDsNS4_IDsEENS6_IDsEEEERKNS0_18VerificationStatusE to i8*), i8* bitcast (i1 (%"class.autofill::structured_address::AddressComponent"*, %"class.std::__1::basic_string.28"*, %"class.std::__1::basic_string"*)* @_ZNK8autofill18structured_address16AddressComponent47ConvertAndGetTheValueForAdditionalFieldTypeNameERKNSt3__112basic_stringIcNS2_11char_traitsIcEENS2_9allocatorIcEEEEPNS3_IDsNS4_IDsEENS6_IDsEEEE to i8*), i8* bitcast (void (%"class.autofill::structured_address::AddressComponent"*, %"class.std::__1::basic_string"*)* @_ZN8autofill18structured_address16AddressComponent22ConsumeAdditionalTokenERKNSt3__112basic_stringIDsNS2_11char_traitsIDsEENS2_9allocatorIDsEEEE to i8*), i8* bitcast (i1 (%"class.autofill::structured_address::AddressComponent"*)* @_ZNK8autofill18structured_address16AddressComponent12IsValueValidEv to i8*), i8* bitcast (void (%"class.autofill::structured_address::AddressComponent"*)* @_ZN8autofill18structured_address16AddressComponent22PostAssignSanitizationEv to i8*), i8* bitcast (void (%"class.std::__1::basic_string"*, %"class.autofill::structured_address::AddressComponent"*)* @_ZNK8autofill18structured_address16AddressComponent15NormalizedValueEv to i8*), i8* bitcast (void (%"class.std::__1::basic_string"*, %"class.autofill::structured_address::AddressComponent"*)* @_ZNK8autofill18structured_address16AddressComponent18ValueForComparisonEv to i8*), i8* bitcast (i1 (%"class.autofill::structured_address::AddressComponent"*, %"class.autofill::structured_address::AddressComponent"*)* @_ZNK8autofill18structured_address16AddressComponent33HasNewerValuePrecendenceInMergingERKS1_ to i8*)] }, align 8
@_ZTVN8autofill18structured_address28StreetAndDependentStreetNameE = hidden unnamed_addr constant { [27 x i8*] } { [27 x i8*] [i8* null, i8* null, i8* bitcast (void (%"class.autofill::structured_address::StreetAndDependentStreetName"*)* @_ZN8autofill18structured_address28StreetAndDependentStreetNameD2Ev to i8*), i8* bitcast (void (%"class.autofill::structured_address::StreetAndDependentStreetName"*)* @_ZN8autofill18structured_address28StreetAndDependentStreetNameD0Ev to i8*), i8* bitcast (void (%"class.autofill::structured_address::AddressComponent"*, i1)* @_ZN8autofill18structured_address16AddressComponent22MigrateLegacyStructureEb to i8*), i8* bitcast (void (%"class.autofill::structured_address::AddressComponent"*, %"class.std::__1::basic_string"*, i32)* @_ZN8autofill18structured_address16AddressComponent8SetValueENSt3__112basic_stringIDsNS2_11char_traitsIDsEENS2_9allocatorIDsEEEENS0_18VerificationStatusE to i8*), i8* bitcast (void (%"class.autofill::structured_address::AddressComponent"*)* @_ZN8autofill18structured_address16AddressComponent10UnsetValueEv to i8*), i8* bitcast (void (%"class.autofill::structured_address::AddressComponent"*)* @_ZN8autofill18structured_address16AddressComponent23RecursivelyCompleteTreeEv to i8*), i8* bitcast (i1 (%"class.autofill::structured_address::AddressComponent"*)* @_ZN8autofill18structured_address16AddressComponent16CompleteFullTreeEv to i8*), i8* bitcast (void (%"class.autofill::structured_address::AddressComponent"*, %"class.autofill::DenseSet"*)* @_ZNK8autofill18structured_address16AddressComponent32GetAdditionalSupportedFieldTypesEPNS_8DenseSetINS_15ServerFieldTypeELS3_118EEE to i8*), i8* bitcast (i1 (%"class.autofill::structured_address::AddressComponent"*, %"class.autofill::structured_address::AddressComponent"*)* @_ZNK8autofill18structured_address16AddressComponent24IsMergeableWithComponentERKS1_ to i8*), i8* bitcast (void (%"class.autofill::structured_address::AddressComponent"*, %"class.autofill::structured_address::AddressComponent"*)* @_ZN8autofill18structured_address16AddressComponent25MergeVerificationStatusesERKS1_ to i8*), i8* bitcast (i1 (%"class.autofill::structured_address::AddressComponent"*, %"class.autofill::structured_address::AddressComponent"*, i1)* @_ZN8autofill18structured_address16AddressComponent18MergeWithComponentERKS1_b to i8*), i8* bitcast (i1 (%"class.autofill::structured_address::AddressComponent"*)* @_ZN8autofill18structured_address16AddressComponent20WipeInvalidStructureEv to i8*), i8* bitcast (i32 (%"class.autofill::structured_address::AddressComponent"*)* @_ZNK8autofill18structured_address16AddressComponent29GetStructureVerificationScoreEv to i8*), i8* bitcast (void (%"class.std::__1::basic_string"*, %"class.autofill::structured_address::AddressComponent"*)* @_ZNK8autofill18structured_address16AddressComponent19GetBestFormatStringEv to i8*), i8* bitcast (void (%"class.std::__1::vector.26"*, %"class.autofill::structured_address::AddressComponent"*)* @_ZNK8autofill18structured_address16AddressComponent37GetParseRegularExpressionsByRelevanceEv to i8*), i8* bitcast (i1 (%"class.autofill::structured_address::AddressComponent"*)* @_ZN8autofill18structured_address16AddressComponent40ParseValueAndAssignSubcomponentsByMethodEv to i8*), i8* bitcast (void (%"class.autofill::structured_address::AddressComponent"*)* @_ZN8autofill18structured_address16AddressComponent48ParseValueAndAssignSubcomponentsByFallbackMethodEv to i8*), i8* bitcast (i1 (%"class.autofill::structured_address::AddressComponent"*, %"class.std::__1::basic_string.28"*, %"class.std::__1::basic_string"*, i32*)* @_ZN8autofill18structured_address16AddressComponent44ConvertAndSetValueForAdditionalFieldTypeNameERKNSt3__112basic_stringIcNS2_11char_traitsIcEENS2_9allocatorIcEEEERKNS3_IDsNS4_IDsEENS6_IDsEEEERKNS0_18VerificationStatusE to i8*), i8* bitcast (i1 (%"class.autofill::structured_address::AddressComponent"*, %"class.std::__1::basic_string.28"*, %"class.std::__1::basic_string"*)* @_ZNK8autofill18structured_address16AddressComponent47ConvertAndGetTheValueForAdditionalFieldTypeNameERKNSt3__112basic_stringIcNS2_11char_traitsIcEENS2_9allocatorIcEEEEPNS3_IDsNS4_IDsEENS6_IDsEEEE to i8*), i8* bitcast (void (%"class.autofill::structured_address::AddressComponent"*, %"class.std::__1::basic_string"*)* @_ZN8autofill18structured_address16AddressComponent22ConsumeAdditionalTokenERKNSt3__112basic_stringIDsNS2_11char_traitsIDsEENS2_9allocatorIDsEEEE to i8*), i8* bitcast (i1 (%"class.autofill::structured_address::AddressComponent"*)* @_ZNK8autofill18structured_address16AddressComponent12IsValueValidEv to i8*), i8* bitcast (void (%"class.autofill::structured_address::AddressComponent"*)* @_ZN8autofill18structured_address16AddressComponent22PostAssignSanitizationEv to i8*), i8* bitcast (void (%"class.std::__1::basic_string"*, %"class.autofill::structured_address::AddressComponent"*)* @_ZNK8autofill18structured_address16AddressComponent15NormalizedValueEv to i8*), i8* bitcast (void (%"class.std::__1::basic_string"*, %"class.autofill::structured_address::AddressComponent"*)* @_ZNK8autofill18structured_address16AddressComponent18ValueForComparisonEv to i8*), i8* bitcast (i1 (%"class.autofill::structured_address::AddressComponent"*, %"class.autofill::structured_address::AddressComponent"*)* @_ZNK8autofill18structured_address16AddressComponent33HasNewerValuePrecendenceInMergingERKS1_ to i8*)] }, align 8
@_ZTVN8autofill18structured_address11HouseNumberE = hidden unnamed_addr constant { [27 x i8*] } { [27 x i8*] [i8* null, i8* null, i8* bitcast (void (%"class.autofill::structured_address::HouseNumber"*)* @_ZN8autofill18structured_address11HouseNumberD2Ev to i8*), i8* bitcast (void (%"class.autofill::structured_address::HouseNumber"*)* @_ZN8autofill18structured_address11HouseNumberD0Ev to i8*), i8* bitcast (void (%"class.autofill::structured_address::AddressComponent"*, i1)* @_ZN8autofill18structured_address16AddressComponent22MigrateLegacyStructureEb to i8*), i8* bitcast (void (%"class.autofill::structured_address::AddressComponent"*, %"class.std::__1::basic_string"*, i32)* @_ZN8autofill18structured_address16AddressComponent8SetValueENSt3__112basic_stringIDsNS2_11char_traitsIDsEENS2_9allocatorIDsEEEENS0_18VerificationStatusE to i8*), i8* bitcast (void (%"class.autofill::structured_address::AddressComponent"*)* @_ZN8autofill18structured_address16AddressComponent10UnsetValueEv to i8*), i8* bitcast (void (%"class.autofill::structured_address::AddressComponent"*)* @_ZN8autofill18structured_address16AddressComponent23RecursivelyCompleteTreeEv to i8*), i8* bitcast (i1 (%"class.autofill::structured_address::AddressComponent"*)* @_ZN8autofill18structured_address16AddressComponent16CompleteFullTreeEv to i8*), i8* bitcast (void (%"class.autofill::structured_address::AddressComponent"*, %"class.autofill::DenseSet"*)* @_ZNK8autofill18structured_address16AddressComponent32GetAdditionalSupportedFieldTypesEPNS_8DenseSetINS_15ServerFieldTypeELS3_118EEE to i8*), i8* bitcast (i1 (%"class.autofill::structured_address::AddressComponent"*, %"class.autofill::structured_address::AddressComponent"*)* @_ZNK8autofill18structured_address16AddressComponent24IsMergeableWithComponentERKS1_ to i8*), i8* bitcast (void (%"class.autofill::structured_address::AddressComponent"*, %"class.autofill::structured_address::AddressComponent"*)* @_ZN8autofill18structured_address16AddressComponent25MergeVerificationStatusesERKS1_ to i8*), i8* bitcast (i1 (%"class.autofill::structured_address::AddressComponent"*, %"class.autofill::structured_address::AddressComponent"*, i1)* @_ZN8autofill18structured_address16AddressComponent18MergeWithComponentERKS1_b to i8*), i8* bitcast (i1 (%"class.autofill::structured_address::AddressComponent"*)* @_ZN8autofill18structured_address16AddressComponent20WipeInvalidStructureEv to i8*), i8* bitcast (i32 (%"class.autofill::structured_address::AddressComponent"*)* @_ZNK8autofill18structured_address16AddressComponent29GetStructureVerificationScoreEv to i8*), i8* bitcast (void (%"class.std::__1::basic_string"*, %"class.autofill::structured_address::AddressComponent"*)* @_ZNK8autofill18structured_address16AddressComponent19GetBestFormatStringEv to i8*), i8* bitcast (void (%"class.std::__1::vector.26"*, %"class.autofill::structured_address::AddressComponent"*)* @_ZNK8autofill18structured_address16AddressComponent37GetParseRegularExpressionsByRelevanceEv to i8*), i8* bitcast (i1 (%"class.autofill::structured_address::AddressComponent"*)* @_ZN8autofill18structured_address16AddressComponent40ParseValueAndAssignSubcomponentsByMethodEv to i8*), i8* bitcast (void (%"class.autofill::structured_address::AddressComponent"*)* @_ZN8autofill18structured_address16AddressComponent48ParseValueAndAssignSubcomponentsByFallbackMethodEv to i8*), i8* bitcast (i1 (%"class.autofill::structured_address::AddressComponent"*, %"class.std::__1::basic_string.28"*, %"class.std::__1::basic_string"*, i32*)* @_ZN8autofill18structured_address16AddressComponent44ConvertAndSetValueForAdditionalFieldTypeNameERKNSt3__112basic_stringIcNS2_11char_traitsIcEENS2_9allocatorIcEEEERKNS3_IDsNS4_IDsEENS6_IDsEEEERKNS0_18VerificationStatusE to i8*), i8* bitcast (i1 (%"class.autofill::structured_address::AddressComponent"*, %"class.std::__1::basic_string.28"*, %"class.std::__1::basic_string"*)* @_ZNK8autofill18structured_address16AddressComponent47ConvertAndGetTheValueForAdditionalFieldTypeNameERKNSt3__112basic_stringIcNS2_11char_traitsIcEENS2_9allocatorIcEEEEPNS3_IDsNS4_IDsEENS6_IDsEEEE to i8*), i8* bitcast (void (%"class.autofill::structured_address::AddressComponent"*, %"class.std::__1::basic_string"*)* @_ZN8autofill18structured_address16AddressComponent22ConsumeAdditionalTokenERKNSt3__112basic_stringIDsNS2_11char_traitsIDsEENS2_9allocatorIDsEEEE to i8*), i8* bitcast (i1 (%"class.autofill::structured_address::AddressComponent"*)* @_ZNK8autofill18structured_address16AddressComponent12IsValueValidEv to i8*), i8* bitcast (void (%"class.autofill::structured_address::AddressComponent"*)* @_ZN8autofill18structured_address16AddressComponent22PostAssignSanitizationEv to i8*), i8* bitcast (void (%"class.std::__1::basic_string"*, %"class.autofill::structured_address::AddressComponent"*)* @_ZNK8autofill18structured_address16AddressComponent15NormalizedValueEv to i8*), i8* bitcast (void (%"class.std::__1::basic_string"*, %"class.autofill::structured_address::AddressComponent"*)* @_ZNK8autofill18structured_address16AddressComponent18ValueForComparisonEv to i8*), i8* bitcast (i1 (%"class.autofill::structured_address::AddressComponent"*, %"class.autofill::structured_address::AddressComponent"*)* @_ZNK8autofill18structured_address16AddressComponent33HasNewerValuePrecendenceInMergingERKS1_ to i8*)] }, align 8
@_ZTVN8autofill18structured_address7PremiseE = hidden unnamed_addr constant { [27 x i8*] } { [27 x i8*] [i8* null, i8* null, i8* bitcast (void (%"class.autofill::structured_address::Premise"*)* @_ZN8autofill18structured_address7PremiseD2Ev to i8*), i8* bitcast (void (%"class.autofill::structured_address::Premise"*)* @_ZN8autofill18structured_address7PremiseD0Ev to i8*), i8* bitcast (void (%"class.autofill::structured_address::AddressComponent"*, i1)* @_ZN8autofill18structured_address16AddressComponent22MigrateLegacyStructureEb to i8*), i8* bitcast (void (%"class.autofill::structured_address::AddressComponent"*, %"class.std::__1::basic_string"*, i32)* @_ZN8autofill18structured_address16AddressComponent8SetValueENSt3__112basic_stringIDsNS2_11char_traitsIDsEENS2_9allocatorIDsEEEENS0_18VerificationStatusE to i8*), i8* bitcast (void (%"class.autofill::structured_address::AddressComponent"*)* @_ZN8autofill18structured_address16AddressComponent10UnsetValueEv to i8*), i8* bitcast (void (%"class.autofill::structured_address::AddressComponent"*)* @_ZN8autofill18structured_address16AddressComponent23RecursivelyCompleteTreeEv to i8*), i8* bitcast (i1 (%"class.autofill::structured_address::AddressComponent"*)* @_ZN8autofill18structured_address16AddressComponent16CompleteFullTreeEv to i8*), i8* bitcast (void (%"class.autofill::structured_address::AddressComponent"*, %"class.autofill::DenseSet"*)* @_ZNK8autofill18structured_address16AddressComponent32GetAdditionalSupportedFieldTypesEPNS_8DenseSetINS_15ServerFieldTypeELS3_118EEE to i8*), i8* bitcast (i1 (%"class.autofill::structured_address::AddressComponent"*, %"class.autofill::structured_address::AddressComponent"*)* @_ZNK8autofill18structured_address16AddressComponent24IsMergeableWithComponentERKS1_ to i8*), i8* bitcast (void (%"class.autofill::structured_address::AddressComponent"*, %"class.autofill::structured_address::AddressComponent"*)* @_ZN8autofill18structured_address16AddressComponent25MergeVerificationStatusesERKS1_ to i8*), i8* bitcast (i1 (%"class.autofill::structured_address::AddressComponent"*, %"class.autofill::structured_address::AddressComponent"*, i1)* @_ZN8autofill18structured_address16AddressComponent18MergeWithComponentERKS1_b to i8*), i8* bitcast (i1 (%"class.autofill::structured_address::AddressComponent"*)* @_ZN8autofill18structured_address16AddressComponent20WipeInvalidStructureEv to i8*), i8* bitcast (i32 (%"class.autofill::structured_address::AddressComponent"*)* @_ZNK8autofill18structured_address16AddressComponent29GetStructureVerificationScoreEv to i8*), i8* bitcast (void (%"class.std::__1::basic_string"*, %"class.autofill::structured_address::AddressComponent"*)* @_ZNK8autofill18structured_address16AddressComponent19GetBestFormatStringEv to i8*), i8* bitcast (void (%"class.std::__1::vector.26"*, %"class.autofill::structured_address::AddressComponent"*)* @_ZNK8autofill18structured_address16AddressComponent37GetParseRegularExpressionsByRelevanceEv to i8*), i8* bitcast (i1 (%"class.autofill::structured_address::AddressComponent"*)* @_ZN8autofill18structured_address16AddressComponent40ParseValueAndAssignSubcomponentsByMethodEv to i8*), i8* bitcast (void (%"class.autofill::structured_address::AddressComponent"*)* @_ZN8autofill18structured_address16AddressComponent48ParseValueAndAssignSubcomponentsByFallbackMethodEv to i8*), i8* bitcast (i1 (%"class.autofill::structured_address::AddressComponent"*, %"class.std::__1::basic_string.28"*, %"class.std::__1::basic_string"*, i32*)* @_ZN8autofill18structured_address16AddressComponent44ConvertAndSetValueForAdditionalFieldTypeNameERKNSt3__112basic_stringIcNS2_11char_traitsIcEENS2_9allocatorIcEEEERKNS3_IDsNS4_IDsEENS6_IDsEEEERKNS0_18VerificationStatusE to i8*), i8* bitcast (i1 (%"class.autofill::structured_address::AddressComponent"*, %"class.std::__1::basic_string.28"*, %"class.std::__1::basic_string"*)* @_ZNK8autofill18structured_address16AddressComponent47ConvertAndGetTheValueForAdditionalFieldTypeNameERKNSt3__112basic_stringIcNS2_11char_traitsIcEENS2_9allocatorIcEEEEPNS3_IDsNS4_IDsEENS6_IDsEEEE to i8*), i8* bitcast (void (%"class.autofill::structured_address::AddressComponent"*, %"class.std::__1::basic_string"*)* @_ZN8autofill18structured_address16AddressComponent22ConsumeAdditionalTokenERKNSt3__112basic_stringIDsNS2_11char_traitsIDsEENS2_9allocatorIDsEEEE to i8*), i8* bitcast (i1 (%"class.autofill::structured_address::AddressComponent"*)* @_ZNK8autofill18structured_address16AddressComponent12IsValueValidEv to i8*), i8* bitcast (void (%"class.autofill::structured_address::AddressComponent"*)* @_ZN8autofill18structured_address16AddressComponent22PostAssignSanitizationEv to i8*), i8* bitcast (void (%"class.std::__1::basic_string"*, %"class.autofill::structured_address::AddressComponent"*)* @_ZNK8autofill18structured_address16AddressComponent15NormalizedValueEv to i8*), i8* bitcast (void (%"class.std::__1::basic_string"*, %"class.autofill::structured_address::AddressComponent"*)* @_ZNK8autofill18structured_address16AddressComponent18ValueForComparisonEv to i8*), i8* bitcast (i1 (%"class.autofill::structured_address::AddressComponent"*, %"class.autofill::structured_address::AddressComponent"*)* @_ZNK8autofill18structured_address16AddressComponent33HasNewerValuePrecendenceInMergingERKS1_ to i8*)] }, align 8
@_ZTVN8autofill18structured_address5FloorE = hidden unnamed_addr constant { [27 x i8*] } { [27 x i8*] [i8* null, i8* null, i8* bitcast (void (%"class.autofill::structured_address::Floor"*)* @_ZN8autofill18structured_address5FloorD2Ev to i8*), i8* bitcast (void (%"class.autofill::structured_address::Floor"*)* @_ZN8autofill18structured_address5FloorD0Ev to i8*), i8* bitcast (void (%"class.autofill::structured_address::AddressComponent"*, i1)* @_ZN8autofill18structured_address16AddressComponent22MigrateLegacyStructureEb to i8*), i8* bitcast (void (%"class.autofill::structured_address::AddressComponent"*, %"class.std::__1::basic_string"*, i32)* @_ZN8autofill18structured_address16AddressComponent8SetValueENSt3__112basic_stringIDsNS2_11char_traitsIDsEENS2_9allocatorIDsEEEENS0_18VerificationStatusE to i8*), i8* bitcast (void (%"class.autofill::structured_address::AddressComponent"*)* @_ZN8autofill18structured_address16AddressComponent10UnsetValueEv to i8*), i8* bitcast (void (%"class.autofill::structured_address::AddressComponent"*)* @_ZN8autofill18structured_address16AddressComponent23RecursivelyCompleteTreeEv to i8*), i8* bitcast (i1 (%"class.autofill::structured_address::AddressComponent"*)* @_ZN8autofill18structured_address16AddressComponent16CompleteFullTreeEv to i8*), i8* bitcast (void (%"class.autofill::structured_address::AddressComponent"*, %"class.autofill::DenseSet"*)* @_ZNK8autofill18structured_address16AddressComponent32GetAdditionalSupportedFieldTypesEPNS_8DenseSetINS_15ServerFieldTypeELS3_118EEE to i8*), i8* bitcast (i1 (%"class.autofill::structured_address::AddressComponent"*, %"class.autofill::structured_address::AddressComponent"*)* @_ZNK8autofill18structured_address16AddressComponent24IsMergeableWithComponentERKS1_ to i8*), i8* bitcast (void (%"class.autofill::structured_address::AddressComponent"*, %"class.autofill::structured_address::AddressComponent"*)* @_ZN8autofill18structured_address16AddressComponent25MergeVerificationStatusesERKS1_ to i8*), i8* bitcast (i1 (%"class.autofill::structured_address::AddressComponent"*, %"class.autofill::structured_address::AddressComponent"*, i1)* @_ZN8autofill18structured_address16AddressComponent18MergeWithComponentERKS1_b to i8*), i8* bitcast (i1 (%"class.autofill::structured_address::AddressComponent"*)* @_ZN8autofill18structured_address16AddressComponent20WipeInvalidStructureEv to i8*), i8* bitcast (i32 (%"class.autofill::structured_address::AddressComponent"*)* @_ZNK8autofill18structured_address16AddressComponent29GetStructureVerificationScoreEv to i8*), i8* bitcast (void (%"class.std::__1::basic_string"*, %"class.autofill::structured_address::AddressComponent"*)* @_ZNK8autofill18structured_address16AddressComponent19GetBestFormatStringEv to i8*), i8* bitcast (void (%"class.std::__1::vector.26"*, %"class.autofill::structured_address::AddressComponent"*)* @_ZNK8autofill18structured_address16AddressComponent37GetParseRegularExpressionsByRelevanceEv to i8*), i8* bitcast (i1 (%"class.autofill::structured_address::AddressComponent"*)* @_ZN8autofill18structured_address16AddressComponent40ParseValueAndAssignSubcomponentsByMethodEv to i8*), i8* bitcast (void (%"class.autofill::structured_address::AddressComponent"*)* @_ZN8autofill18structured_address16AddressComponent48ParseValueAndAssignSubcomponentsByFallbackMethodEv to i8*), i8* bitcast (i1 (%"class.autofill::structured_address::AddressComponent"*, %"class.std::__1::basic_string.28"*, %"class.std::__1::basic_string"*, i32*)* @_ZN8autofill18structured_address16AddressComponent44ConvertAndSetValueForAdditionalFieldTypeNameERKNSt3__112basic_stringIcNS2_11char_traitsIcEENS2_9allocatorIcEEEERKNS3_IDsNS4_IDsEENS6_IDsEEEERKNS0_18VerificationStatusE to i8*), i8* bitcast (i1 (%"class.autofill::structured_address::AddressComponent"*, %"class.std::__1::basic_string.28"*, %"class.std::__1::basic_string"*)* @_ZNK8autofill18structured_address16AddressComponent47ConvertAndGetTheValueForAdditionalFieldTypeNameERKNSt3__112basic_stringIcNS2_11char_traitsIcEENS2_9allocatorIcEEEEPNS3_IDsNS4_IDsEENS6_IDsEEEE to i8*), i8* bitcast (void (%"class.autofill::structured_address::AddressComponent"*, %"class.std::__1::basic_string"*)* @_ZN8autofill18structured_address16AddressComponent22ConsumeAdditionalTokenERKNSt3__112basic_stringIDsNS2_11char_traitsIDsEENS2_9allocatorIDsEEEE to i8*), i8* bitcast (i1 (%"class.autofill::structured_address::AddressComponent"*)* @_ZNK8autofill18structured_address16AddressComponent12IsValueValidEv to i8*), i8* bitcast (void (%"class.autofill::structured_address::AddressComponent"*)* @_ZN8autofill18structured_address16AddressComponent22PostAssignSanitizationEv to i8*), i8* bitcast (void (%"class.std::__1::basic_string"*, %"class.autofill::structured_address::AddressComponent"*)* @_ZNK8autofill18structured_address16AddressComponent15NormalizedValueEv to i8*), i8* bitcast (void (%"class.std::__1::basic_string"*, %"class.autofill::structured_address::AddressComponent"*)* @_ZNK8autofill18structured_address16AddressComponent18ValueForComparisonEv to i8*), i8* bitcast (i1 (%"class.autofill::structured_address::AddressComponent"*, %"class.autofill::structured_address::AddressComponent"*)* @_ZNK8autofill18structured_address16AddressComponent33HasNewerValuePrecendenceInMergingERKS1_ to i8*)] }, align 8
@_ZTVN8autofill18structured_address9ApartmentE = hidden unnamed_addr constant { [27 x i8*] } { [27 x i8*] [i8* null, i8* null, i8* bitcast (void (%"class.autofill::structured_address::Apartment"*)* @_ZN8autofill18structured_address9ApartmentD2Ev to i8*), i8* bitcast (void (%"class.autofill::structured_address::Apartment"*)* @_ZN8autofill18structured_address9ApartmentD0Ev to i8*), i8* bitcast (void (%"class.autofill::structured_address::AddressComponent"*, i1)* @_ZN8autofill18structured_address16AddressComponent22MigrateLegacyStructureEb to i8*), i8* bitcast (void (%"class.autofill::structured_address::AddressComponent"*, %"class.std::__1::basic_string"*, i32)* @_ZN8autofill18structured_address16AddressComponent8SetValueENSt3__112basic_stringIDsNS2_11char_traitsIDsEENS2_9allocatorIDsEEEENS0_18VerificationStatusE to i8*), i8* bitcast (void (%"class.autofill::structured_address::AddressComponent"*)* @_ZN8autofill18structured_address16AddressComponent10UnsetValueEv to i8*), i8* bitcast (void (%"class.autofill::structured_address::AddressComponent"*)* @_ZN8autofill18structured_address16AddressComponent23RecursivelyCompleteTreeEv to i8*), i8* bitcast (i1 (%"class.autofill::structured_address::AddressComponent"*)* @_ZN8autofill18structured_address16AddressComponent16CompleteFullTreeEv to i8*), i8* bitcast (void (%"class.autofill::structured_address::AddressComponent"*, %"class.autofill::DenseSet"*)* @_ZNK8autofill18structured_address16AddressComponent32GetAdditionalSupportedFieldTypesEPNS_8DenseSetINS_15ServerFieldTypeELS3_118EEE to i8*), i8* bitcast (i1 (%"class.autofill::structured_address::AddressComponent"*, %"class.autofill::structured_address::AddressComponent"*)* @_ZNK8autofill18structured_address16AddressComponent24IsMergeableWithComponentERKS1_ to i8*), i8* bitcast (void (%"class.autofill::structured_address::AddressComponent"*, %"class.autofill::structured_address::AddressComponent"*)* @_ZN8autofill18structured_address16AddressComponent25MergeVerificationStatusesERKS1_ to i8*), i8* bitcast (i1 (%"class.autofill::structured_address::AddressComponent"*, %"class.autofill::structured_address::AddressComponent"*, i1)* @_ZN8autofill18structured_address16AddressComponent18MergeWithComponentERKS1_b to i8*), i8* bitcast (i1 (%"class.autofill::structured_address::AddressComponent"*)* @_ZN8autofill18structured_address16AddressComponent20WipeInvalidStructureEv to i8*), i8* bitcast (i32 (%"class.autofill::structured_address::AddressComponent"*)* @_ZNK8autofill18structured_address16AddressComponent29GetStructureVerificationScoreEv to i8*), i8* bitcast (void (%"class.std::__1::basic_string"*, %"class.autofill::structured_address::AddressComponent"*)* @_ZNK8autofill18structured_address16AddressComponent19GetBestFormatStringEv to i8*), i8* bitcast (void (%"class.std::__1::vector.26"*, %"class.autofill::structured_address::AddressComponent"*)* @_ZNK8autofill18structured_address16AddressComponent37GetParseRegularExpressionsByRelevanceEv to i8*), i8* bitcast (i1 (%"class.autofill::structured_address::AddressComponent"*)* @_ZN8autofill18structured_address16AddressComponent40ParseValueAndAssignSubcomponentsByMethodEv to i8*), i8* bitcast (void (%"class.autofill::structured_address::AddressComponent"*)* @_ZN8autofill18structured_address16AddressComponent48ParseValueAndAssignSubcomponentsByFallbackMethodEv to i8*), i8* bitcast (i1 (%"class.autofill::structured_address::AddressComponent"*, %"class.std::__1::basic_string.28"*, %"class.std::__1::basic_string"*, i32*)* @_ZN8autofill18structured_address16AddressComponent44ConvertAndSetValueForAdditionalFieldTypeNameERKNSt3__112basic_stringIcNS2_11char_traitsIcEENS2_9allocatorIcEEEERKNS3_IDsNS4_IDsEENS6_IDsEEEERKNS0_18VerificationStatusE to i8*), i8* bitcast (i1 (%"class.autofill::structured_address::AddressComponent"*, %"class.std::__1::basic_string.28"*, %"class.std::__1::basic_string"*)* @_ZNK8autofill18structured_address16AddressComponent47ConvertAndGetTheValueForAdditionalFieldTypeNameERKNSt3__112basic_stringIcNS2_11char_traitsIcEENS2_9allocatorIcEEEEPNS3_IDsNS4_IDsEENS6_IDsEEEE to i8*), i8* bitcast (void (%"class.autofill::structured_address::AddressComponent"*, %"class.std::__1::basic_string"*)* @_ZN8autofill18structured_address16AddressComponent22ConsumeAdditionalTokenERKNSt3__112basic_stringIDsNS2_11char_traitsIDsEENS2_9allocatorIDsEEEE to i8*), i8* bitcast (i1 (%"class.autofill::structured_address::AddressComponent"*)* @_ZNK8autofill18structured_address16AddressComponent12IsValueValidEv to i8*), i8* bitcast (void (%"class.autofill::structured_address::AddressComponent"*)* @_ZN8autofill18structured_address16AddressComponent22PostAssignSanitizationEv to i8*), i8* bitcast (void (%"class.std::__1::basic_string"*, %"class.autofill::structured_address::AddressComponent"*)* @_ZNK8autofill18structured_address16AddressComponent15NormalizedValueEv to i8*), i8* bitcast (void (%"class.std::__1::basic_string"*, %"class.autofill::structured_address::AddressComponent"*)* @_ZNK8autofill18structured_address16AddressComponent18ValueForComparisonEv to i8*), i8* bitcast (i1 (%"class.autofill::structured_address::AddressComponent"*, %"class.autofill::structured_address::AddressComponent"*)* @_ZNK8autofill18structured_address16AddressComponent33HasNewerValuePrecendenceInMergingERKS1_ to i8*)] }, align 8
@_ZTVN8autofill18structured_address10SubPremiseE = hidden unnamed_addr constant { [27 x i8*] } { [27 x i8*] [i8* null, i8* null, i8* bitcast (void (%"class.autofill::structured_address::SubPremise"*)* @_ZN8autofill18structured_address10SubPremiseD2Ev to i8*), i8* bitcast (void (%"class.autofill::structured_address::SubPremise"*)* @_ZN8autofill18structured_address10SubPremiseD0Ev to i8*), i8* bitcast (void (%"class.autofill::structured_address::AddressComponent"*, i1)* @_ZN8autofill18structured_address16AddressComponent22MigrateLegacyStructureEb to i8*), i8* bitcast (void (%"class.autofill::structured_address::AddressComponent"*, %"class.std::__1::basic_string"*, i32)* @_ZN8autofill18structured_address16AddressComponent8SetValueENSt3__112basic_stringIDsNS2_11char_traitsIDsEENS2_9allocatorIDsEEEENS0_18VerificationStatusE to i8*), i8* bitcast (void (%"class.autofill::structured_address::AddressComponent"*)* @_ZN8autofill18structured_address16AddressComponent10UnsetValueEv to i8*), i8* bitcast (void (%"class.autofill::structured_address::AddressComponent"*)* @_ZN8autofill18structured_address16AddressComponent23RecursivelyCompleteTreeEv to i8*), i8* bitcast (i1 (%"class.autofill::structured_address::AddressComponent"*)* @_ZN8autofill18structured_address16AddressComponent16CompleteFullTreeEv to i8*), i8* bitcast (void (%"class.autofill::structured_address::AddressComponent"*, %"class.autofill::DenseSet"*)* @_ZNK8autofill18structured_address16AddressComponent32GetAdditionalSupportedFieldTypesEPNS_8DenseSetINS_15ServerFieldTypeELS3_118EEE to i8*), i8* bitcast (i1 (%"class.autofill::structured_address::AddressComponent"*, %"class.autofill::structured_address::AddressComponent"*)* @_ZNK8autofill18structured_address16AddressComponent24IsMergeableWithComponentERKS1_ to i8*), i8* bitcast (void (%"class.autofill::structured_address::AddressComponent"*, %"class.autofill::structured_address::AddressComponent"*)* @_ZN8autofill18structured_address16AddressComponent25MergeVerificationStatusesERKS1_ to i8*), i8* bitcast (i1 (%"class.autofill::structured_address::AddressComponent"*, %"class.autofill::structured_address::AddressComponent"*, i1)* @_ZN8autofill18structured_address16AddressComponent18MergeWithComponentERKS1_b to i8*), i8* bitcast (i1 (%"class.autofill::structured_address::AddressComponent"*)* @_ZN8autofill18structured_address16AddressComponent20WipeInvalidStructureEv to i8*), i8* bitcast (i32 (%"class.autofill::structured_address::AddressComponent"*)* @_ZNK8autofill18structured_address16AddressComponent29GetStructureVerificationScoreEv to i8*), i8* bitcast (void (%"class.std::__1::basic_string"*, %"class.autofill::structured_address::AddressComponent"*)* @_ZNK8autofill18structured_address16AddressComponent19GetBestFormatStringEv to i8*), i8* bitcast (void (%"class.std::__1::vector.26"*, %"class.autofill::structured_address::AddressComponent"*)* @_ZNK8autofill18structured_address16AddressComponent37GetParseRegularExpressionsByRelevanceEv to i8*), i8* bitcast (i1 (%"class.autofill::structured_address::AddressComponent"*)* @_ZN8autofill18structured_address16AddressComponent40ParseValueAndAssignSubcomponentsByMethodEv to i8*), i8* bitcast (void (%"class.autofill::structured_address::AddressComponent"*)* @_ZN8autofill18structured_address16AddressComponent48ParseValueAndAssignSubcomponentsByFallbackMethodEv to i8*), i8* bitcast (i1 (%"class.autofill::structured_address::AddressComponent"*, %"class.std::__1::basic_string.28"*, %"class.std::__1::basic_string"*, i32*)* @_ZN8autofill18structured_address16AddressComponent44ConvertAndSetValueForAdditionalFieldTypeNameERKNSt3__112basic_stringIcNS2_11char_traitsIcEENS2_9allocatorIcEEEERKNS3_IDsNS4_IDsEENS6_IDsEEEERKNS0_18VerificationStatusE to i8*), i8* bitcast (i1 (%"class.autofill::structured_address::AddressComponent"*, %"class.std::__1::basic_string.28"*, %"class.std::__1::basic_string"*)* @_ZNK8autofill18structured_address16AddressComponent47ConvertAndGetTheValueForAdditionalFieldTypeNameERKNSt3__112basic_stringIcNS2_11char_traitsIcEENS2_9allocatorIcEEEEPNS3_IDsNS4_IDsEENS6_IDsEEEE to i8*), i8* bitcast (void (%"class.autofill::structured_address::AddressComponent"*, %"class.std::__1::basic_string"*)* @_ZN8autofill18structured_address16AddressComponent22ConsumeAdditionalTokenERKNSt3__112basic_stringIDsNS2_11char_traitsIDsEENS2_9allocatorIDsEEEE to i8*), i8* bitcast (i1 (%"class.autofill::structured_address::AddressComponent"*)* @_ZNK8autofill18structured_address16AddressComponent12IsValueValidEv to i8*), i8* bitcast (void (%"class.autofill::structured_address::AddressComponent"*)* @_ZN8autofill18structured_address16AddressComponent22PostAssignSanitizationEv to i8*), i8* bitcast (void (%"class.std::__1::basic_string"*, %"class.autofill::structured_address::AddressComponent"*)* @_ZNK8autofill18structured_address16AddressComponent15NormalizedValueEv to i8*), i8* bitcast (void (%"class.std::__1::basic_string"*, %"class.autofill::structured_address::AddressComponent"*)* @_ZNK8autofill18structured_address16AddressComponent18ValueForComparisonEv to i8*), i8* bitcast (i1 (%"class.autofill::structured_address::AddressComponent"*, %"class.autofill::structured_address::AddressComponent"*)* @_ZNK8autofill18structured_address16AddressComponent33HasNewerValuePrecendenceInMergingERKS1_ to i8*)] }, align 8
@_ZTVN8autofill18structured_address13StreetAddressE = hidden unnamed_addr constant { [27 x i8*] } { [27 x i8*] [i8* null, i8* null, i8* bitcast (void (%"class.autofill::structured_address::StreetAddress"*)* @_ZN8autofill18structured_address13StreetAddressD2Ev to i8*), i8* bitcast (void (%"class.autofill::structured_address::StreetAddress"*)* @_ZN8autofill18structured_address13StreetAddressD0Ev to i8*), i8* bitcast (void (%"class.autofill::structured_address::AddressComponent"*, i1)* @_ZN8autofill18structured_address16AddressComponent22MigrateLegacyStructureEb to i8*), i8* bitcast (void (%"class.autofill::structured_address::StreetAddress"*, %"class.std::__1::basic_string"*, i32)* @_ZN8autofill18structured_address13StreetAddress8SetValueENSt3__112basic_stringIDsNS2_11char_traitsIDsEENS2_9allocatorIDsEEEENS0_18VerificationStatusE to i8*), i8* bitcast (void (%"class.autofill::structured_address::StreetAddress"*)* @_ZN8autofill18structured_address13StreetAddress10UnsetValueEv to i8*), i8* bitcast (void (%"class.autofill::structured_address::AddressComponent"*)* @_ZN8autofill18structured_address16AddressComponent23RecursivelyCompleteTreeEv to i8*), i8* bitcast (i1 (%"class.autofill::structured_address::AddressComponent"*)* @_ZN8autofill18structured_address16AddressComponent16CompleteFullTreeEv to i8*), i8* bitcast (void (%"class.autofill::structured_address::StreetAddress"*, %"class.autofill::DenseSet"*)* @_ZNK8autofill18structured_address13StreetAddress32GetAdditionalSupportedFieldTypesEPNS_8DenseSetINS_15ServerFieldTypeELS3_118EEE to i8*), i8* bitcast (i1 (%"class.autofill::structured_address::AddressComponent"*, %"class.autofill::structured_address::AddressComponent"*)* @_ZNK8autofill18structured_address16AddressComponent24IsMergeableWithComponentERKS1_ to i8*), i8* bitcast (void (%"class.autofill::structured_address::AddressComponent"*, %"class.autofill::structured_address::AddressComponent"*)* @_ZN8autofill18structured_address16AddressComponent25MergeVerificationStatusesERKS1_ to i8*), i8* bitcast (i1 (%"class.autofill::structured_address::AddressComponent"*, %"class.autofill::structured_address::AddressComponent"*, i1)* @_ZN8autofill18structured_address16AddressComponent18MergeWithComponentERKS1_b to i8*), i8* bitcast (i1 (%"class.autofill::structured_address::AddressComponent"*)* @_ZN8autofill18structured_address16AddressComponent20WipeInvalidStructureEv to i8*), i8* bitcast (i32 (%"class.autofill::structured_address::AddressComponent"*)* @_ZNK8autofill18structured_address16AddressComponent29GetStructureVerificationScoreEv to i8*), i8* bitcast (void (%"class.std::__1::basic_string"*, %"class.autofill::structured_address::StreetAddress"*)* @_ZNK8autofill18structured_address13StreetAddress19GetBestFormatStringEv to i8*), i8* bitcast (void (%"class.std::__1::vector.26"*, %"class.autofill::structured_address::StreetAddress"*)* @_ZNK8autofill18structured_address13StreetAddress37GetParseRegularExpressionsByRelevanceEv to i8*), i8* bitcast (i1 (%"class.autofill::structured_address::AddressComponent"*)* @_ZN8autofill18structured_address16AddressComponent40ParseValueAndAssignSubcomponentsByMethodEv to i8*), i8* bitcast (void (%"class.autofill::structured_address::StreetAddress"*)* @_ZN8autofill18structured_address13StreetAddress48ParseValueAndAssignSubcomponentsByFallbackMethodEv to i8*), i8* bitcast (i1 (%"class.autofill::structured_address::StreetAddress"*, %"class.std::__1::basic_string.28"*, %"class.std::__1::basic_string"*, i32*)* @_ZN8autofill18structured_address13StreetAddress44ConvertAndSetValueForAdditionalFieldTypeNameERKNSt3__112basic_stringIcNS2_11char_traitsIcEENS2_9allocatorIcEEEERKNS3_IDsNS4_IDsEENS6_IDsEEEERKNS0_18VerificationStatusE to i8*), i8* bitcast (i1 (%"class.autofill::structured_address::StreetAddress"*, %"class.std::__1::basic_string.28"*, %"class.std::__1::basic_string"*)* @_ZNK8autofill18structured_address13StreetAddress47ConvertAndGetTheValueForAdditionalFieldTypeNameERKNSt3__112basic_stringIcNS2_11char_traitsIcEENS2_9allocatorIcEEEEPNS3_IDsNS4_IDsEENS6_IDsEEEE to i8*), i8* bitcast (void (%"class.autofill::structured_address::AddressComponent"*, %"class.std::__1::basic_string"*)* @_ZN8autofill18structured_address16AddressComponent22ConsumeAdditionalTokenERKNSt3__112basic_stringIDsNS2_11char_traitsIDsEENS2_9allocatorIDsEEEE to i8*), i8* bitcast (i1 (%"class.autofill::structured_address::StreetAddress"*)* @_ZNK8autofill18structured_address13StreetAddress12IsValueValidEv to i8*), i8* bitcast (void (%"class.autofill::structured_address::StreetAddress"*)* @_ZN8autofill18structured_address13StreetAddress22PostAssignSanitizationEv to i8*), i8* bitcast (void (%"class.std::__1::basic_string"*, %"class.autofill::structured_address::AddressComponent"*)* @_ZNK8autofill18structured_address16AddressComponent15NormalizedValueEv to i8*), i8* bitcast (void (%"class.std::__1::basic_string"*, %"class.autofill::structured_address::AddressComponentWithRewriter"*)* @_ZNK8autofill18structured_address28AddressComponentWithRewriter18ValueForComparisonEv to i8*), i8* bitcast (i1 (%"class.autofill::structured_address::StreetAddress"*, %"class.autofill::structured_address::AddressComponent"*)* @_ZNK8autofill18structured_address13StreetAddress33HasNewerValuePrecendenceInMergingERKNS0_16AddressComponentE to i8*)] }, align 8
@.str.1 = private unnamed_addr constant [3 x i8] c"BR\00", align 1
@.str.2 = private unnamed_addr constant [123 x i16] [i16 36, i16 123, i16 65, i16 68, i16 68, i16 82, i16 69, i16 83, i16 83, i16 95, i16 72, i16 79, i16 77, i16 69, i16 95, i16 83, i16 84, i16 82, i16 69, i16 69, i16 84, i16 95, i16 78, i16 65, i16 77, i16 69, i16 125, i16 36, i16 123, i16 65, i16 68, i16 68, i16 82, i16 69, i16 83, i16 83, i16 95, i16 72, i16 79, i16 77, i16 69, i16 95, i16 72, i16 79, i16 85, i16 83, i16 69, i16 95, i16 78, i16 85, i16 77, i16 66, i16 69, i16 82, i16 59, i16 44, i16 32, i16 125, i16 36, i16 123, i16 65, i16 68, i16 68, i16 82, i16 69, i16 83, i16 83, i16 95, i16 72, i16 79, i16 77, i16 69, i16 95, i16 70, i16 76, i16 79, i16 79, i16 82, i16 59, i16 44, i16 32, i16 59, i16 186, i16 32, i16 97, i16 110, i16 100, i16 97, i16 114, i16 125, i16 36, i16 123, i16 65, i16 68, i16 68, i16 82, i16 69, i16 83, i16 83, i16 95, i16 72, i16 79, i16 77, i16 69, i16 95, i16 65, i16 80, i16 84, i16 95, i16 78, i16 85, i16 77, i16 59, i16 44, i16 32, i16 97, i16 112, i16 116, i16 111, i16 32, i16 59, i16 125, i16 0], align 2
@.str.3 = private unnamed_addr constant [3 x i8] c"DE\00", align 1
@.str.4 = private unnamed_addr constant [125 x i16] [i16 36, i16 123, i16 65, i16 68, i16 68, i16 82, i16 69, i16 83, i16 83, i16 95, i16 72, i16 79, i16 77, i16 69, i16 95, i16 83, i16 84, i16 82, i16 69, i16 69, i16 84, i16 95, i16 78, i16 65, i16 77, i16 69, i16 125, i16 32, i16 36, i16 123, i16 65, i16 68, i16 68, i16 82, i16 69, i16 83, i16 83, i16 95, i16 72, i16 79, i16 77, i16 69, i16 95, i16 72, i16 79, i16 85, i16 83, i16 69, i16 95, i16 78, i16 85, i16 77, i16 66, i16 69, i16 82, i16 125, i16 36, i16 123, i16 65, i16 68, i16 68, i16 82, i16 69, i16 83, i16 83, i16 95, i16 72, i16 79, i16 77, i16 69, i16 95, i16 70, i16 76, i16 79, i16 79, i16 82, i16 59, i16 44, i16 32, i16 59, i16 46, i16 32, i16 83, i16 116, i16 111, i16 99, i16 107, i16 125, i16 36, i16 123, i16 65, i16 68, i16 68, i16 82, i16 69, i16 83, i16 83, i16 95, i16 72, i16 79, i16 77, i16 69, i16 95, i16 65, i16 80, i16 84, i16 95, i16 78, i16 85, i16 77, i16 59, i16 44, i16 32, i16 59, i16 46, i16 32, i16 87, i16 111, i16 104, i16 110, i16 117, i16 110, i16 103, i16 125, i16 0], align 2
@.str.5 = private unnamed_addr constant [3 x i8] c"MX\00", align 1
@.str.6 = private unnamed_addr constant [116 x i16] [i16 36, i16 123, i16 65, i16 68, i16 68, i16 82, i16 69, i16 83, i16 83, i16 95, i16 72, i16 79, i16 77, i16 69, i16 95, i16 83, i16 84, i16 82, i16 69, i16 69, i16 84, i16 95, i16 78, i16 65, i16 77, i16 69, i16 125, i16 32, i16 36, i16 123, i16 65, i16 68, i16 68, i16 82, i16 69, i16 83, i16 83, i16 95, i16 72, i16 79, i16 77, i16 69, i16 95, i16 72, i16 79, i16 85, i16 83, i16 69, i16 95, i16 78, i16 85, i16 77, i16 66, i16 69, i16 82, i16 125, i16 36, i16 123, i16 65, i16 68, i16 68, i16 82, i16 69, i16 83, i16 83, i16 95, i16 72, i16 79, i16 77, i16 69, i16 95, i16 70, i16 76, i16 79, i16 79, i16 82, i16 59, i16 32, i16 45, i16 32, i16 80, i16 105, i16 115, i16 111, i16 32, i16 59, i16 125, i16 36, i16 123, i16 65, i16 68, i16 68, i16 82, i16 69, i16 83, i16 83, i16 95, i16 72, i16 79, i16 77, i16 69, i16 95, i16 65, i16 80, i16 84, i16 95, i16 78, i16 85, i16 77, i16 59, i16 32, i16 45, i16 32, i16 59, i16 125, i16 0], align 2
@.str.7 = private unnamed_addr constant [3 x i8] c"ES\00", align 1
@.str.8 = private unnamed_addr constant [111 x i16] [i16 36, i16 123, i16 65, i16 68, i16 68, i16 82, i16 69, i16 83, i16 83, i16 95, i16 72, i16 79, i16 77, i16 69, i16 95, i16 83, i16 84, i16 82, i16 69, i16 69, i16 84, i16 95, i16 78, i16 65, i16 77, i16 69, i16 125, i16 32, i16 36, i16 123, i16 65, i16 68, i16 68, i16 82, i16 69, i16 83, i16 83, i16 95, i16 72, i16 79, i16 77, i16 69, i16 95, i16 72, i16 79, i16 85, i16 83, i16 69, i16 95, i16 78, i16 85, i16 77, i16 66, i16 69, i16 82, i16 125, i16 36, i16 123, i16 65, i16 68, i16 68, i16 82, i16 69, i16 83, i16 83, i16 95, i16 72, i16 79, i16 77, i16 69, i16 95, i16 70, i16 76, i16 79, i16 79, i16 82, i16 59, i16 44, i16 32, i16 59, i16 186, i16 125, i16 36, i16 123, i16 65, i16 68, i16 68, i16 82, i16 69, i16 83, i16 83, i16 95, i16 72, i16 79, i16 77, i16 69, i16 95, i16 65, i16 80, i16 84, i16 95, i16 78, i16 85, i16 77, i16 59, i16 44, i16 32, i16 59, i16 170, i16 125, i16 0], align 2
@.str.9 = private unnamed_addr constant [112 x i16] [i16 36, i16 123, i16 65, i16 68, i16 68, i16 82, i16 69, i16 83, i16 83, i16 95, i16 72, i16 79, i16 77, i16 69, i16 95, i16 72, i16 79, i16 85, i16 83, i16 69, i16 95, i16 78, i16 85, i16 77, i16 66, i16 69, i16 82, i16 125, i16 32, i16 36, i16 123, i16 65, i16 68, i16 68, i16 82, i16 69, i16 83, i16 83, i16 95, i16 72, i16 79, i16 77, i16 69, i16 95, i16 83, i16 84, i16 82, i16 69, i16 69, i16 84, i16 95, i16 78, i16 65, i16 77, i16 69, i16 125, i16 32, i16 36, i16 123, i16 65, i16 68, i16 68, i16 82, i16 69, i16 83, i16 83, i16 95, i16 72, i16 79, i16 77, i16 69, i16 95, i16 70, i16 76, i16 79, i16 79, i16 82, i16 59, i16 70, i16 76, i16 32, i16 125, i16 32, i16 36, i16 123, i16 65, i16 68, i16 68, i16 82, i16 69, i16 83, i16 83, i16 95, i16 72, i16 79, i16 77, i16 69, i16 95, i16 65, i16 80, i16 84, i16 95, i16 78, i16 85, i16 77, i16 59, i16 65, i16 80, i16 84, i16 32, i16 125, i16 0], align 2
@.str.10 = private unnamed_addr constant [2 x i16] [i16 10, i16 0], align 2
@.str.11 = private unnamed_addr constant [2 x i16] [i16 32, i16 0], align 2
@_ZTVN8autofill18structured_address11CountryCodeE = hidden unnamed_addr constant { [27 x i8*] } { [27 x i8*] [i8* null, i8* null, i8* bitcast (void (%"class.autofill::structured_address::CountryCode"*)* @_ZN8autofill18structured_address11CountryCodeD2Ev to i8*), i8* bitcast (void (%"class.autofill::structured_address::CountryCode"*)* @_ZN8autofill18structured_address11CountryCodeD0Ev to i8*), i8* bitcast (void (%"class.autofill::structured_address::AddressComponent"*, i1)* @_ZN8autofill18structured_address16AddressComponent22MigrateLegacyStructureEb to i8*), i8* bitcast (void (%"class.autofill::structured_address::AddressComponent"*, %"class.std::__1::basic_string"*, i32)* @_ZN8autofill18structured_address16AddressComponent8SetValueENSt3__112basic_stringIDsNS2_11char_traitsIDsEENS2_9allocatorIDsEEEENS0_18VerificationStatusE to i8*), i8* bitcast (void (%"class.autofill::structured_address::AddressComponent"*)* @_ZN8autofill18structured_address16AddressComponent10UnsetValueEv to i8*), i8* bitcast (void (%"class.autofill::structured_address::AddressComponent"*)* @_ZN8autofill18structured_address16AddressComponent23RecursivelyCompleteTreeEv to i8*), i8* bitcast (i1 (%"class.autofill::structured_address::AddressComponent"*)* @_ZN8autofill18structured_address16AddressComponent16CompleteFullTreeEv to i8*), i8* bitcast (void (%"class.autofill::structured_address::AddressComponent"*, %"class.autofill::DenseSet"*)* @_ZNK8autofill18structured_address16AddressComponent32GetAdditionalSupportedFieldTypesEPNS_8DenseSetINS_15ServerFieldTypeELS3_118EEE to i8*), i8* bitcast (i1 (%"class.autofill::structured_address::AddressComponent"*, %"class.autofill::structured_address::AddressComponent"*)* @_ZNK8autofill18structured_address16AddressComponent24IsMergeableWithComponentERKS1_ to i8*), i8* bitcast (void (%"class.autofill::structured_address::AddressComponent"*, %"class.autofill::structured_address::AddressComponent"*)* @_ZN8autofill18structured_address16AddressComponent25MergeVerificationStatusesERKS1_ to i8*), i8* bitcast (i1 (%"class.autofill::structured_address::AddressComponent"*, %"class.autofill::structured_address::AddressComponent"*, i1)* @_ZN8autofill18structured_address16AddressComponent18MergeWithComponentERKS1_b to i8*), i8* bitcast (i1 (%"class.autofill::structured_address::AddressComponent"*)* @_ZN8autofill18structured_address16AddressComponent20WipeInvalidStructureEv to i8*), i8* bitcast (i32 (%"class.autofill::structured_address::AddressComponent"*)* @_ZNK8autofill18structured_address16AddressComponent29GetStructureVerificationScoreEv to i8*), i8* bitcast (void (%"class.std::__1::basic_string"*, %"class.autofill::structured_address::AddressComponent"*)* @_ZNK8autofill18structured_address16AddressComponent19GetBestFormatStringEv to i8*), i8* bitcast (void (%"class.std::__1::vector.26"*, %"class.autofill::structured_address::AddressComponent"*)* @_ZNK8autofill18structured_address16AddressComponent37GetParseRegularExpressionsByRelevanceEv to i8*), i8* bitcast (i1 (%"class.autofill::structured_address::AddressComponent"*)* @_ZN8autofill18structured_address16AddressComponent40ParseValueAndAssignSubcomponentsByMethodEv to i8*), i8* bitcast (void (%"class.autofill::structured_address::AddressComponent"*)* @_ZN8autofill18structured_address16AddressComponent48ParseValueAndAssignSubcomponentsByFallbackMethodEv to i8*), i8* bitcast (i1 (%"class.autofill::structured_address::AddressComponent"*, %"class.std::__1::basic_string.28"*, %"class.std::__1::basic_string"*, i32*)* @_ZN8autofill18structured_address16AddressComponent44ConvertAndSetValueForAdditionalFieldTypeNameERKNSt3__112basic_stringIcNS2_11char_traitsIcEENS2_9allocatorIcEEEERKNS3_IDsNS4_IDsEENS6_IDsEEEERKNS0_18VerificationStatusE to i8*), i8* bitcast (i1 (%"class.autofill::structured_address::AddressComponent"*, %"class.std::__1::basic_string.28"*, %"class.std::__1::basic_string"*)* @_ZNK8autofill18structured_address16AddressComponent47ConvertAndGetTheValueForAdditionalFieldTypeNameERKNSt3__112basic_stringIcNS2_11char_traitsIcEENS2_9allocatorIcEEEEPNS3_IDsNS4_IDsEENS6_IDsEEEE to i8*), i8* bitcast (void (%"class.autofill::structured_address::AddressComponent"*, %"class.std::__1::basic_string"*)* @_ZN8autofill18structured_address16AddressComponent22ConsumeAdditionalTokenERKNSt3__112basic_stringIDsNS2_11char_traitsIDsEENS2_9allocatorIDsEEEE to i8*), i8* bitcast (i1 (%"class.autofill::structured_address::AddressComponent"*)* @_ZNK8autofill18structured_address16AddressComponent12IsValueValidEv to i8*), i8* bitcast (void (%"class.autofill::structured_address::AddressComponent"*)* @_ZN8autofill18structured_address16AddressComponent22PostAssignSanitizationEv to i8*), i8* bitcast (void (%"class.std::__1::basic_string"*, %"class.autofill::structured_address::AddressComponent"*)* @_ZNK8autofill18structured_address16AddressComponent15NormalizedValueEv to i8*), i8* bitcast (void (%"class.std::__1::basic_string"*, %"class.autofill::structured_address::AddressComponent"*)* @_ZNK8autofill18structured_address16AddressComponent18ValueForComparisonEv to i8*), i8* bitcast (i1 (%"class.autofill::structured_address::AddressComponent"*, %"class.autofill::structured_address::AddressComponent"*)* @_ZNK8autofill18structured_address16AddressComponent33HasNewerValuePrecendenceInMergingERKS1_ to i8*)] }, align 8
@_ZTVN8autofill18structured_address17DependentLocalityE = hidden unnamed_addr constant { [27 x i8*] } { [27 x i8*] [i8* null, i8* null, i8* bitcast (void (%"class.autofill::structured_address::DependentLocality"*)* @_ZN8autofill18structured_address17DependentLocalityD2Ev to i8*), i8* bitcast (void (%"class.autofill::structured_address::DependentLocality"*)* @_ZN8autofill18structured_address17DependentLocalityD0Ev to i8*), i8* bitcast (void (%"class.autofill::structured_address::AddressComponent"*, i1)* @_ZN8autofill18structured_address16AddressComponent22MigrateLegacyStructureEb to i8*), i8* bitcast (void (%"class.autofill::structured_address::AddressComponent"*, %"class.std::__1::basic_string"*, i32)* @_ZN8autofill18structured_address16AddressComponent8SetValueENSt3__112basic_stringIDsNS2_11char_traitsIDsEENS2_9allocatorIDsEEEENS0_18VerificationStatusE to i8*), i8* bitcast (void (%"class.autofill::structured_address::AddressComponent"*)* @_ZN8autofill18structured_address16AddressComponent10UnsetValueEv to i8*), i8* bitcast (void (%"class.autofill::structured_address::AddressComponent"*)* @_ZN8autofill18structured_address16AddressComponent23RecursivelyCompleteTreeEv to i8*), i8* bitcast (i1 (%"class.autofill::structured_address::AddressComponent"*)* @_ZN8autofill18structured_address16AddressComponent16CompleteFullTreeEv to i8*), i8* bitcast (void (%"class.autofill::structured_address::AddressComponent"*, %"class.autofill::DenseSet"*)* @_ZNK8autofill18structured_address16AddressComponent32GetAdditionalSupportedFieldTypesEPNS_8DenseSetINS_15ServerFieldTypeELS3_118EEE to i8*), i8* bitcast (i1 (%"class.autofill::structured_address::AddressComponent"*, %"class.autofill::structured_address::AddressComponent"*)* @_ZNK8autofill18structured_address16AddressComponent24IsMergeableWithComponentERKS1_ to i8*), i8* bitcast (void (%"class.autofill::structured_address::AddressComponent"*, %"class.autofill::structured_address::AddressComponent"*)* @_ZN8autofill18structured_address16AddressComponent25MergeVerificationStatusesERKS1_ to i8*), i8* bitcast (i1 (%"class.autofill::structured_address::AddressComponent"*, %"class.autofill::structured_address::AddressComponent"*, i1)* @_ZN8autofill18structured_address16AddressComponent18MergeWithComponentERKS1_b to i8*), i8* bitcast (i1 (%"class.autofill::structured_address::AddressComponent"*)* @_ZN8autofill18structured_address16AddressComponent20WipeInvalidStructureEv to i8*), i8* bitcast (i32 (%"class.autofill::structured_address::AddressComponent"*)* @_ZNK8autofill18structured_address16AddressComponent29GetStructureVerificationScoreEv to i8*), i8* bitcast (void (%"class.std::__1::basic_string"*, %"class.autofill::structured_address::AddressComponent"*)* @_ZNK8autofill18structured_address16AddressComponent19GetBestFormatStringEv to i8*), i8* bitcast (void (%"class.std::__1::vector.26"*, %"class.autofill::structured_address::AddressComponent"*)* @_ZNK8autofill18structured_address16AddressComponent37GetParseRegularExpressionsByRelevanceEv to i8*), i8* bitcast (i1 (%"class.autofill::structured_address::AddressComponent"*)* @_ZN8autofill18structured_address16AddressComponent40ParseValueAndAssignSubcomponentsByMethodEv to i8*), i8* bitcast (void (%"class.autofill::structured_address::AddressComponent"*)* @_ZN8autofill18structured_address16AddressComponent48ParseValueAndAssignSubcomponentsByFallbackMethodEv to i8*), i8* bitcast (i1 (%"class.autofill::structured_address::AddressComponent"*, %"class.std::__1::basic_string.28"*, %"class.std::__1::basic_string"*, i32*)* @_ZN8autofill18structured_address16AddressComponent44ConvertAndSetValueForAdditionalFieldTypeNameERKNSt3__112basic_stringIcNS2_11char_traitsIcEENS2_9allocatorIcEEEERKNS3_IDsNS4_IDsEENS6_IDsEEEERKNS0_18VerificationStatusE to i8*), i8* bitcast (i1 (%"class.autofill::structured_address::AddressComponent"*, %"class.std::__1::basic_string.28"*, %"class.std::__1::basic_string"*)* @_ZNK8autofill18structured_address16AddressComponent47ConvertAndGetTheValueForAdditionalFieldTypeNameERKNSt3__112basic_stringIcNS2_11char_traitsIcEENS2_9allocatorIcEEEEPNS3_IDsNS4_IDsEENS6_IDsEEEE to i8*), i8* bitcast (void (%"class.autofill::structured_address::AddressComponent"*, %"class.std::__1::basic_string"*)* @_ZN8autofill18structured_address16AddressComponent22ConsumeAdditionalTokenERKNSt3__112basic_stringIDsNS2_11char_traitsIDsEENS2_9allocatorIDsEEEE to i8*), i8* bitcast (i1 (%"class.autofill::structured_address::AddressComponent"*)* @_ZNK8autofill18structured_address16AddressComponent12IsValueValidEv to i8*), i8* bitcast (void (%"class.autofill::structured_address::AddressComponent"*)* @_ZN8autofill18structured_address16AddressComponent22PostAssignSanitizationEv to i8*), i8* bitcast (void (%"class.std::__1::basic_string"*, %"class.autofill::structured_address::AddressComponent"*)* @_ZNK8autofill18structured_address16AddressComponent15NormalizedValueEv to i8*), i8* bitcast (void (%"class.std::__1::basic_string"*, %"class.autofill::structured_address::AddressComponent"*)* @_ZNK8autofill18structured_address16AddressComponent18ValueForComparisonEv to i8*), i8* bitcast (i1 (%"class.autofill::structured_address::AddressComponent"*, %"class.autofill::structured_address::AddressComponent"*)* @_ZNK8autofill18structured_address16AddressComponent33HasNewerValuePrecendenceInMergingERKS1_ to i8*)] }, align 8
@_ZTVN8autofill18structured_address4CityE = hidden unnamed_addr constant { [27 x i8*] } { [27 x i8*] [i8* null, i8* null, i8* bitcast (void (%"class.autofill::structured_address::City"*)* @_ZN8autofill18structured_address4CityD2Ev to i8*), i8* bitcast (void (%"class.autofill::structured_address::City"*)* @_ZN8autofill18structured_address4CityD0Ev to i8*), i8* bitcast (void (%"class.autofill::structured_address::AddressComponent"*, i1)* @_ZN8autofill18structured_address16AddressComponent22MigrateLegacyStructureEb to i8*), i8* bitcast (void (%"class.autofill::structured_address::AddressComponent"*, %"class.std::__1::basic_string"*, i32)* @_ZN8autofill18structured_address16AddressComponent8SetValueENSt3__112basic_stringIDsNS2_11char_traitsIDsEENS2_9allocatorIDsEEEENS0_18VerificationStatusE to i8*), i8* bitcast (void (%"class.autofill::structured_address::AddressComponent"*)* @_ZN8autofill18structured_address16AddressComponent10UnsetValueEv to i8*), i8* bitcast (void (%"class.autofill::structured_address::AddressComponent"*)* @_ZN8autofill18structured_address16AddressComponent23RecursivelyCompleteTreeEv to i8*), i8* bitcast (i1 (%"class.autofill::structured_address::AddressComponent"*)* @_ZN8autofill18structured_address16AddressComponent16CompleteFullTreeEv to i8*), i8* bitcast (void (%"class.autofill::structured_address::AddressComponent"*, %"class.autofill::DenseSet"*)* @_ZNK8autofill18structured_address16AddressComponent32GetAdditionalSupportedFieldTypesEPNS_8DenseSetINS_15ServerFieldTypeELS3_118EEE to i8*), i8* bitcast (i1 (%"class.autofill::structured_address::AddressComponent"*, %"class.autofill::structured_address::AddressComponent"*)* @_ZNK8autofill18structured_address16AddressComponent24IsMergeableWithComponentERKS1_ to i8*), i8* bitcast (void (%"class.autofill::structured_address::AddressComponent"*, %"class.autofill::structured_address::AddressComponent"*)* @_ZN8autofill18structured_address16AddressComponent25MergeVerificationStatusesERKS1_ to i8*), i8* bitcast (i1 (%"class.autofill::structured_address::AddressComponent"*, %"class.autofill::structured_address::AddressComponent"*, i1)* @_ZN8autofill18structured_address16AddressComponent18MergeWithComponentERKS1_b to i8*), i8* bitcast (i1 (%"class.autofill::structured_address::AddressComponent"*)* @_ZN8autofill18structured_address16AddressComponent20WipeInvalidStructureEv to i8*), i8* bitcast (i32 (%"class.autofill::structured_address::AddressComponent"*)* @_ZNK8autofill18structured_address16AddressComponent29GetStructureVerificationScoreEv to i8*), i8* bitcast (void (%"class.std::__1::basic_string"*, %"class.autofill::structured_address::AddressComponent"*)* @_ZNK8autofill18structured_address16AddressComponent19GetBestFormatStringEv to i8*), i8* bitcast (void (%"class.std::__1::vector.26"*, %"class.autofill::structured_address::AddressComponent"*)* @_ZNK8autofill18structured_address16AddressComponent37GetParseRegularExpressionsByRelevanceEv to i8*), i8* bitcast (i1 (%"class.autofill::structured_address::AddressComponent"*)* @_ZN8autofill18structured_address16AddressComponent40ParseValueAndAssignSubcomponentsByMethodEv to i8*), i8* bitcast (void (%"class.autofill::structured_address::AddressComponent"*)* @_ZN8autofill18structured_address16AddressComponent48ParseValueAndAssignSubcomponentsByFallbackMethodEv to i8*), i8* bitcast (i1 (%"class.autofill::structured_address::AddressComponent"*, %"class.std::__1::basic_string.28"*, %"class.std::__1::basic_string"*, i32*)* @_ZN8autofill18structured_address16AddressComponent44ConvertAndSetValueForAdditionalFieldTypeNameERKNSt3__112basic_stringIcNS2_11char_traitsIcEENS2_9allocatorIcEEEERKNS3_IDsNS4_IDsEENS6_IDsEEEERKNS0_18VerificationStatusE to i8*), i8* bitcast (i1 (%"class.autofill::structured_address::AddressComponent"*, %"class.std::__1::basic_string.28"*, %"class.std::__1::basic_string"*)* @_ZNK8autofill18structured_address16AddressComponent47ConvertAndGetTheValueForAdditionalFieldTypeNameERKNSt3__112basic_stringIcNS2_11char_traitsIcEENS2_9allocatorIcEEEEPNS3_IDsNS4_IDsEENS6_IDsEEEE to i8*), i8* bitcast (void (%"class.autofill::structured_address::AddressComponent"*, %"class.std::__1::basic_string"*)* @_ZN8autofill18structured_address16AddressComponent22ConsumeAdditionalTokenERKNSt3__112basic_stringIDsNS2_11char_traitsIDsEENS2_9allocatorIDsEEEE to i8*), i8* bitcast (i1 (%"class.autofill::structured_address::AddressComponent"*)* @_ZNK8autofill18structured_address16AddressComponent12IsValueValidEv to i8*), i8* bitcast (void (%"class.autofill::structured_address::AddressComponent"*)* @_ZN8autofill18structured_address16AddressComponent22PostAssignSanitizationEv to i8*), i8* bitcast (void (%"class.std::__1::basic_string"*, %"class.autofill::structured_address::AddressComponent"*)* @_ZNK8autofill18structured_address16AddressComponent15NormalizedValueEv to i8*), i8* bitcast (void (%"class.std::__1::basic_string"*, %"class.autofill::structured_address::AddressComponent"*)* @_ZNK8autofill18structured_address16AddressComponent18ValueForComparisonEv to i8*), i8* bitcast (i1 (%"class.autofill::structured_address::AddressComponent"*, %"class.autofill::structured_address::AddressComponent"*)* @_ZNK8autofill18structured_address16AddressComponent33HasNewerValuePrecendenceInMergingERKS1_ to i8*)] }, align 8
@_ZTVN8autofill18structured_address5StateE = hidden unnamed_addr constant { [27 x i8*] } { [27 x i8*] [i8* null, i8* null, i8* bitcast (void (%"class.autofill::structured_address::State"*)* @_ZN8autofill18structured_address5StateD2Ev to i8*), i8* bitcast (void (%"class.autofill::structured_address::State"*)* @_ZN8autofill18structured_address5StateD0Ev to i8*), i8* bitcast (void (%"class.autofill::structured_address::AddressComponent"*, i1)* @_ZN8autofill18structured_address16AddressComponent22MigrateLegacyStructureEb to i8*), i8* bitcast (void (%"class.autofill::structured_address::AddressComponent"*, %"class.std::__1::basic_string"*, i32)* @_ZN8autofill18structured_address16AddressComponent8SetValueENSt3__112basic_stringIDsNS2_11char_traitsIDsEENS2_9allocatorIDsEEEENS0_18VerificationStatusE to i8*), i8* bitcast (void (%"class.autofill::structured_address::AddressComponent"*)* @_ZN8autofill18structured_address16AddressComponent10UnsetValueEv to i8*), i8* bitcast (void (%"class.autofill::structured_address::AddressComponent"*)* @_ZN8autofill18structured_address16AddressComponent23RecursivelyCompleteTreeEv to i8*), i8* bitcast (i1 (%"class.autofill::structured_address::AddressComponent"*)* @_ZN8autofill18structured_address16AddressComponent16CompleteFullTreeEv to i8*), i8* bitcast (void (%"class.autofill::structured_address::AddressComponent"*, %"class.autofill::DenseSet"*)* @_ZNK8autofill18structured_address16AddressComponent32GetAdditionalSupportedFieldTypesEPNS_8DenseSetINS_15ServerFieldTypeELS3_118EEE to i8*), i8* bitcast (i1 (%"class.autofill::structured_address::AddressComponent"*, %"class.autofill::structured_address::AddressComponent"*)* @_ZNK8autofill18structured_address16AddressComponent24IsMergeableWithComponentERKS1_ to i8*), i8* bitcast (void (%"class.autofill::structured_address::AddressComponent"*, %"class.autofill::structured_address::AddressComponent"*)* @_ZN8autofill18structured_address16AddressComponent25MergeVerificationStatusesERKS1_ to i8*), i8* bitcast (i1 (%"class.autofill::structured_address::AddressComponent"*, %"class.autofill::structured_address::AddressComponent"*, i1)* @_ZN8autofill18structured_address16AddressComponent18MergeWithComponentERKS1_b to i8*), i8* bitcast (i1 (%"class.autofill::structured_address::AddressComponent"*)* @_ZN8autofill18structured_address16AddressComponent20WipeInvalidStructureEv to i8*), i8* bitcast (i32 (%"class.autofill::structured_address::AddressComponent"*)* @_ZNK8autofill18structured_address16AddressComponent29GetStructureVerificationScoreEv to i8*), i8* bitcast (void (%"class.std::__1::basic_string"*, %"class.autofill::structured_address::AddressComponent"*)* @_ZNK8autofill18structured_address16AddressComponent19GetBestFormatStringEv to i8*), i8* bitcast (void (%"class.std::__1::vector.26"*, %"class.autofill::structured_address::AddressComponent"*)* @_ZNK8autofill18structured_address16AddressComponent37GetParseRegularExpressionsByRelevanceEv to i8*), i8* bitcast (i1 (%"class.autofill::structured_address::AddressComponent"*)* @_ZN8autofill18structured_address16AddressComponent40ParseValueAndAssignSubcomponentsByMethodEv to i8*), i8* bitcast (void (%"class.autofill::structured_address::AddressComponent"*)* @_ZN8autofill18structured_address16AddressComponent48ParseValueAndAssignSubcomponentsByFallbackMethodEv to i8*), i8* bitcast (i1 (%"class.autofill::structured_address::AddressComponent"*, %"class.std::__1::basic_string.28"*, %"class.std::__1::basic_string"*, i32*)* @_ZN8autofill18structured_address16AddressComponent44ConvertAndSetValueForAdditionalFieldTypeNameERKNSt3__112basic_stringIcNS2_11char_traitsIcEENS2_9allocatorIcEEEERKNS3_IDsNS4_IDsEENS6_IDsEEEERKNS0_18VerificationStatusE to i8*), i8* bitcast (i1 (%"class.autofill::structured_address::AddressComponent"*, %"class.std::__1::basic_string.28"*, %"class.std::__1::basic_string"*)* @_ZNK8autofill18structured_address16AddressComponent47ConvertAndGetTheValueForAdditionalFieldTypeNameERKNSt3__112basic_stringIcNS2_11char_traitsIcEENS2_9allocatorIcEEEEPNS3_IDsNS4_IDsEENS6_IDsEEEE to i8*), i8* bitcast (void (%"class.autofill::structured_address::AddressComponent"*, %"class.std::__1::basic_string"*)* @_ZN8autofill18structured_address16AddressComponent22ConsumeAdditionalTokenERKNSt3__112basic_stringIDsNS2_11char_traitsIDsEENS2_9allocatorIDsEEEE to i8*), i8* bitcast (i1 (%"class.autofill::structured_address::AddressComponent"*)* @_ZNK8autofill18structured_address16AddressComponent12IsValueValidEv to i8*), i8* bitcast (void (%"class.autofill::structured_address::AddressComponent"*)* @_ZN8autofill18structured_address16AddressComponent22PostAssignSanitizationEv to i8*), i8* bitcast (void (%"class.std::__1::basic_string"*, %"class.autofill::structured_address::AddressComponent"*)* @_ZNK8autofill18structured_address16AddressComponent15NormalizedValueEv to i8*), i8* bitcast (void (%"class.std::__1::basic_string"*, %"class.autofill::structured_address::AddressComponentWithRewriter"*)* @_ZNK8autofill18structured_address28AddressComponentWithRewriter18ValueForComparisonEv to i8*), i8* bitcast (i1 (%"class.autofill::structured_address::AddressComponent"*, %"class.autofill::structured_address::AddressComponent"*)* @_ZNK8autofill18structured_address16AddressComponent33HasNewerValuePrecendenceInMergingERKS1_ to i8*)] }, align 8
@_ZTVN8autofill18structured_address10PostalCodeE = hidden unnamed_addr constant { [27 x i8*] } { [27 x i8*] [i8* null, i8* null, i8* bitcast (void (%"class.autofill::structured_address::PostalCode"*)* @_ZN8autofill18structured_address10PostalCodeD2Ev to i8*), i8* bitcast (void (%"class.autofill::structured_address::PostalCode"*)* @_ZN8autofill18structured_address10PostalCodeD0Ev to i8*), i8* bitcast (void (%"class.autofill::structured_address::AddressComponent"*, i1)* @_ZN8autofill18structured_address16AddressComponent22MigrateLegacyStructureEb to i8*), i8* bitcast (void (%"class.autofill::structured_address::AddressComponent"*, %"class.std::__1::basic_string"*, i32)* @_ZN8autofill18structured_address16AddressComponent8SetValueENSt3__112basic_stringIDsNS2_11char_traitsIDsEENS2_9allocatorIDsEEEENS0_18VerificationStatusE to i8*), i8* bitcast (void (%"class.autofill::structured_address::AddressComponent"*)* @_ZN8autofill18structured_address16AddressComponent10UnsetValueEv to i8*), i8* bitcast (void (%"class.autofill::structured_address::AddressComponent"*)* @_ZN8autofill18structured_address16AddressComponent23RecursivelyCompleteTreeEv to i8*), i8* bitcast (i1 (%"class.autofill::structured_address::AddressComponent"*)* @_ZN8autofill18structured_address16AddressComponent16CompleteFullTreeEv to i8*), i8* bitcast (void (%"class.autofill::structured_address::AddressComponent"*, %"class.autofill::DenseSet"*)* @_ZNK8autofill18structured_address16AddressComponent32GetAdditionalSupportedFieldTypesEPNS_8DenseSetINS_15ServerFieldTypeELS3_118EEE to i8*), i8* bitcast (i1 (%"class.autofill::structured_address::AddressComponent"*, %"class.autofill::structured_address::AddressComponent"*)* @_ZNK8autofill18structured_address16AddressComponent24IsMergeableWithComponentERKS1_ to i8*), i8* bitcast (void (%"class.autofill::structured_address::AddressComponent"*, %"class.autofill::structured_address::AddressComponent"*)* @_ZN8autofill18structured_address16AddressComponent25MergeVerificationStatusesERKS1_ to i8*), i8* bitcast (i1 (%"class.autofill::structured_address::AddressComponent"*, %"class.autofill::structured_address::AddressComponent"*, i1)* @_ZN8autofill18structured_address16AddressComponent18MergeWithComponentERKS1_b to i8*), i8* bitcast (i1 (%"class.autofill::structured_address::AddressComponent"*)* @_ZN8autofill18structured_address16AddressComponent20WipeInvalidStructureEv to i8*), i8* bitcast (i32 (%"class.autofill::structured_address::AddressComponent"*)* @_ZNK8autofill18structured_address16AddressComponent29GetStructureVerificationScoreEv to i8*), i8* bitcast (void (%"class.std::__1::basic_string"*, %"class.autofill::structured_address::AddressComponent"*)* @_ZNK8autofill18structured_address16AddressComponent19GetBestFormatStringEv to i8*), i8* bitcast (void (%"class.std::__1::vector.26"*, %"class.autofill::structured_address::AddressComponent"*)* @_ZNK8autofill18structured_address16AddressComponent37GetParseRegularExpressionsByRelevanceEv to i8*), i8* bitcast (i1 (%"class.autofill::structured_address::AddressComponent"*)* @_ZN8autofill18structured_address16AddressComponent40ParseValueAndAssignSubcomponentsByMethodEv to i8*), i8* bitcast (void (%"class.autofill::structured_address::AddressComponent"*)* @_ZN8autofill18structured_address16AddressComponent48ParseValueAndAssignSubcomponentsByFallbackMethodEv to i8*), i8* bitcast (i1 (%"class.autofill::structured_address::AddressComponent"*, %"class.std::__1::basic_string.28"*, %"class.std::__1::basic_string"*, i32*)* @_ZN8autofill18structured_address16AddressComponent44ConvertAndSetValueForAdditionalFieldTypeNameERKNSt3__112basic_stringIcNS2_11char_traitsIcEENS2_9allocatorIcEEEERKNS3_IDsNS4_IDsEENS6_IDsEEEERKNS0_18VerificationStatusE to i8*), i8* bitcast (i1 (%"class.autofill::structured_address::AddressComponent"*, %"class.std::__1::basic_string.28"*, %"class.std::__1::basic_string"*)* @_ZNK8autofill18structured_address16AddressComponent47ConvertAndGetTheValueForAdditionalFieldTypeNameERKNSt3__112basic_stringIcNS2_11char_traitsIcEENS2_9allocatorIcEEEEPNS3_IDsNS4_IDsEENS6_IDsEEEE to i8*), i8* bitcast (void (%"class.autofill::structured_address::AddressComponent"*, %"class.std::__1::basic_string"*)* @_ZN8autofill18structured_address16AddressComponent22ConsumeAdditionalTokenERKNSt3__112basic_stringIDsNS2_11char_traitsIDsEENS2_9allocatorIDsEEEE to i8*), i8* bitcast (i1 (%"class.autofill::structured_address::AddressComponent"*)* @_ZNK8autofill18structured_address16AddressComponent12IsValueValidEv to i8*), i8* bitcast (void (%"class.autofill::structured_address::AddressComponent"*)* @_ZN8autofill18structured_address16AddressComponent22PostAssignSanitizationEv to i8*), i8* bitcast (void (%"class.std::__1::basic_string"*, %"class.autofill::structured_address::PostalCode"*)* @_ZNK8autofill18structured_address10PostalCode15NormalizedValueEv to i8*), i8* bitcast (void (%"class.std::__1::basic_string"*, %"class.autofill::structured_address::AddressComponentWithRewriter"*)* @_ZNK8autofill18structured_address28AddressComponentWithRewriter18ValueForComparisonEv to i8*), i8* bitcast (i1 (%"class.autofill::structured_address::AddressComponent"*, %"class.autofill::structured_address::AddressComponent"*)* @_ZNK8autofill18structured_address16AddressComponent33HasNewerValuePrecendenceInMergingERKS1_ to i8*)] }, align 8
@_ZTVN8autofill18structured_address11SortingCodeE = hidden unnamed_addr constant { [27 x i8*] } { [27 x i8*] [i8* null, i8* null, i8* bitcast (void (%"class.autofill::structured_address::SortingCode"*)* @_ZN8autofill18structured_address11SortingCodeD2Ev to i8*), i8* bitcast (void (%"class.autofill::structured_address::SortingCode"*)* @_ZN8autofill18structured_address11SortingCodeD0Ev to i8*), i8* bitcast (void (%"class.autofill::structured_address::AddressComponent"*, i1)* @_ZN8autofill18structured_address16AddressComponent22MigrateLegacyStructureEb to i8*), i8* bitcast (void (%"class.autofill::structured_address::AddressComponent"*, %"class.std::__1::basic_string"*, i32)* @_ZN8autofill18structured_address16AddressComponent8SetValueENSt3__112basic_stringIDsNS2_11char_traitsIDsEENS2_9allocatorIDsEEEENS0_18VerificationStatusE to i8*), i8* bitcast (void (%"class.autofill::structured_address::AddressComponent"*)* @_ZN8autofill18structured_address16AddressComponent10UnsetValueEv to i8*), i8* bitcast (void (%"class.autofill::structured_address::AddressComponent"*)* @_ZN8autofill18structured_address16AddressComponent23RecursivelyCompleteTreeEv to i8*), i8* bitcast (i1 (%"class.autofill::structured_address::AddressComponent"*)* @_ZN8autofill18structured_address16AddressComponent16CompleteFullTreeEv to i8*), i8* bitcast (void (%"class.autofill::structured_address::AddressComponent"*, %"class.autofill::DenseSet"*)* @_ZNK8autofill18structured_address16AddressComponent32GetAdditionalSupportedFieldTypesEPNS_8DenseSetINS_15ServerFieldTypeELS3_118EEE to i8*), i8* bitcast (i1 (%"class.autofill::structured_address::AddressComponent"*, %"class.autofill::structured_address::AddressComponent"*)* @_ZNK8autofill18structured_address16AddressComponent24IsMergeableWithComponentERKS1_ to i8*), i8* bitcast (void (%"class.autofill::structured_address::AddressComponent"*, %"class.autofill::structured_address::AddressComponent"*)* @_ZN8autofill18structured_address16AddressComponent25MergeVerificationStatusesERKS1_ to i8*), i8* bitcast (i1 (%"class.autofill::structured_address::AddressComponent"*, %"class.autofill::structured_address::AddressComponent"*, i1)* @_ZN8autofill18structured_address16AddressComponent18MergeWithComponentERKS1_b to i8*), i8* bitcast (i1 (%"class.autofill::structured_address::AddressComponent"*)* @_ZN8autofill18structured_address16AddressComponent20WipeInvalidStructureEv to i8*), i8* bitcast (i32 (%"class.autofill::structured_address::AddressComponent"*)* @_ZNK8autofill18structured_address16AddressComponent29GetStructureVerificationScoreEv to i8*), i8* bitcast (void (%"class.std::__1::basic_string"*, %"class.autofill::structured_address::AddressComponent"*)* @_ZNK8autofill18structured_address16AddressComponent19GetBestFormatStringEv to i8*), i8* bitcast (void (%"class.std::__1::vector.26"*, %"class.autofill::structured_address::AddressComponent"*)* @_ZNK8autofill18structured_address16AddressComponent37GetParseRegularExpressionsByRelevanceEv to i8*), i8* bitcast (i1 (%"class.autofill::structured_address::AddressComponent"*)* @_ZN8autofill18structured_address16AddressComponent40ParseValueAndAssignSubcomponentsByMethodEv to i8*), i8* bitcast (void (%"class.autofill::structured_address::AddressComponent"*)* @_ZN8autofill18structured_address16AddressComponent48ParseValueAndAssignSubcomponentsByFallbackMethodEv to i8*), i8* bitcast (i1 (%"class.autofill::structured_address::AddressComponent"*, %"class.std::__1::basic_string.28"*, %"class.std::__1::basic_string"*, i32*)* @_ZN8autofill18structured_address16AddressComponent44ConvertAndSetValueForAdditionalFieldTypeNameERKNSt3__112basic_stringIcNS2_11char_traitsIcEENS2_9allocatorIcEEEERKNS3_IDsNS4_IDsEENS6_IDsEEEERKNS0_18VerificationStatusE to i8*), i8* bitcast (i1 (%"class.autofill::structured_address::AddressComponent"*, %"class.std::__1::basic_string.28"*, %"class.std::__1::basic_string"*)* @_ZNK8autofill18structured_address16AddressComponent47ConvertAndGetTheValueForAdditionalFieldTypeNameERKNSt3__112basic_stringIcNS2_11char_traitsIcEENS2_9allocatorIcEEEEPNS3_IDsNS4_IDsEENS6_IDsEEEE to i8*), i8* bitcast (void (%"class.autofill::structured_address::AddressComponent"*, %"class.std::__1::basic_string"*)* @_ZN8autofill18structured_address16AddressComponent22ConsumeAdditionalTokenERKNSt3__112basic_stringIDsNS2_11char_traitsIDsEENS2_9allocatorIDsEEEE to i8*), i8* bitcast (i1 (%"class.autofill::structured_address::AddressComponent"*)* @_ZNK8autofill18structured_address16AddressComponent12IsValueValidEv to i8*), i8* bitcast (void (%"class.autofill::structured_address::AddressComponent"*)* @_ZN8autofill18structured_address16AddressComponent22PostAssignSanitizationEv to i8*), i8* bitcast (void (%"class.std::__1::basic_string"*, %"class.autofill::structured_address::AddressComponent"*)* @_ZNK8autofill18structured_address16AddressComponent15NormalizedValueEv to i8*), i8* bitcast (void (%"class.std::__1::basic_string"*, %"class.autofill::structured_address::AddressComponent"*)* @_ZNK8autofill18structured_address16AddressComponent18ValueForComparisonEv to i8*), i8* bitcast (i1 (%"class.autofill::structured_address::AddressComponent"*, %"class.autofill::structured_address::AddressComponent"*)* @_ZNK8autofill18structured_address16AddressComponent33HasNewerValuePrecendenceInMergingERKS1_ to i8*)] }, align 8
@_ZTVN8autofill18structured_address7AddressE = hidden unnamed_addr constant { [27 x i8*] } { [27 x i8*] [i8* null, i8* null, i8* bitcast (void (%"class.autofill::structured_address::Address"*)* @_ZN8autofill18structured_address7AddressD2Ev to i8*), i8* bitcast (void (%"class.autofill::structured_address::Address"*)* @_ZN8autofill18structured_address7AddressD0Ev to i8*), i8* bitcast (void (%"class.autofill::structured_address::Address"*, i1)* @_ZN8autofill18structured_address7Address22MigrateLegacyStructureEb to i8*), i8* bitcast (void (%"class.autofill::structured_address::AddressComponent"*, %"class.std::__1::basic_string"*, i32)* @_ZN8autofill18structured_address16AddressComponent8SetValueENSt3__112basic_stringIDsNS2_11char_traitsIDsEENS2_9allocatorIDsEEEENS0_18VerificationStatusE to i8*), i8* bitcast (void (%"class.autofill::structured_address::AddressComponent"*)* @_ZN8autofill18structured_address16AddressComponent10UnsetValueEv to i8*), i8* bitcast (void (%"class.autofill::structured_address::AddressComponent"*)* @_ZN8autofill18structured_address16AddressComponent23RecursivelyCompleteTreeEv to i8*), i8* bitcast (i1 (%"class.autofill::structured_address::AddressComponent"*)* @_ZN8autofill18structured_address16AddressComponent16CompleteFullTreeEv to i8*), i8* bitcast (void (%"class.autofill::structured_address::AddressComponent"*, %"class.autofill::DenseSet"*)* @_ZNK8autofill18structured_address16AddressComponent32GetAdditionalSupportedFieldTypesEPNS_8DenseSetINS_15ServerFieldTypeELS3_118EEE to i8*), i8* bitcast (i1 (%"class.autofill::structured_address::AddressComponent"*, %"class.autofill::structured_address::AddressComponent"*)* @_ZNK8autofill18structured_address16AddressComponent24IsMergeableWithComponentERKS1_ to i8*), i8* bitcast (void (%"class.autofill::structured_address::AddressComponent"*, %"class.autofill::structured_address::AddressComponent"*)* @_ZN8autofill18structured_address16AddressComponent25MergeVerificationStatusesERKS1_ to i8*), i8* bitcast (i1 (%"class.autofill::structured_address::AddressComponent"*, %"class.autofill::structured_address::AddressComponent"*, i1)* @_ZN8autofill18structured_address16AddressComponent18MergeWithComponentERKS1_b to i8*), i8* bitcast (i1 (%"class.autofill::structured_address::Address"*)* @_ZN8autofill18structured_address7Address20WipeInvalidStructureEv to i8*), i8* bitcast (i32 (%"class.autofill::structured_address::AddressComponent"*)* @_ZNK8autofill18structured_address16AddressComponent29GetStructureVerificationScoreEv to i8*), i8* bitcast (void (%"class.std::__1::basic_string"*, %"class.autofill::structured_address::AddressComponent"*)* @_ZNK8autofill18structured_address16AddressComponent19GetBestFormatStringEv to i8*), i8* bitcast (void (%"class.std::__1::vector.26"*, %"class.autofill::structured_address::AddressComponent"*)* @_ZNK8autofill18structured_address16AddressComponent37GetParseRegularExpressionsByRelevanceEv to i8*), i8* bitcast (i1 (%"class.autofill::structured_address::AddressComponent"*)* @_ZN8autofill18structured_address16AddressComponent40ParseValueAndAssignSubcomponentsByMethodEv to i8*), i8* bitcast (void (%"class.autofill::structured_address::AddressComponent"*)* @_ZN8autofill18structured_address16AddressComponent48ParseValueAndAssignSubcomponentsByFallbackMethodEv to i8*), i8* bitcast (i1 (%"class.autofill::structured_address::AddressComponent"*, %"class.std::__1::basic_string.28"*, %"class.std::__1::basic_string"*, i32*)* @_ZN8autofill18structured_address16AddressComponent44ConvertAndSetValueForAdditionalFieldTypeNameERKNSt3__112basic_stringIcNS2_11char_traitsIcEENS2_9allocatorIcEEEERKNS3_IDsNS4_IDsEENS6_IDsEEEERKNS0_18VerificationStatusE to i8*), i8* bitcast (i1 (%"class.autofill::structured_address::AddressComponent"*, %"class.std::__1::basic_string.28"*, %"class.std::__1::basic_string"*)* @_ZNK8autofill18structured_address16AddressComponent47ConvertAndGetTheValueForAdditionalFieldTypeNameERKNSt3__112basic_stringIcNS2_11char_traitsIcEENS2_9allocatorIcEEEEPNS3_IDsNS4_IDsEENS6_IDsEEEE to i8*), i8* bitcast (void (%"class.autofill::structured_address::AddressComponent"*, %"class.std::__1::basic_string"*)* @_ZN8autofill18structured_address16AddressComponent22ConsumeAdditionalTokenERKNSt3__112basic_stringIDsNS2_11char_traitsIDsEENS2_9allocatorIDsEEEE to i8*), i8* bitcast (i1 (%"class.autofill::structured_address::AddressComponent"*)* @_ZNK8autofill18structured_address16AddressComponent12IsValueValidEv to i8*), i8* bitcast (void (%"class.autofill::structured_address::AddressComponent"*)* @_ZN8autofill18structured_address16AddressComponent22PostAssignSanitizationEv to i8*), i8* bitcast (void (%"class.std::__1::basic_string"*, %"class.autofill::structured_address::AddressComponent"*)* @_ZNK8autofill18structured_address16AddressComponent15NormalizedValueEv to i8*), i8* bitcast (void (%"class.std::__1::basic_string"*, %"class.autofill::structured_address::AddressComponent"*)* @_ZNK8autofill18structured_address16AddressComponent18ValueForComparisonEv to i8*), i8* bitcast (i1 (%"class.autofill::structured_address::AddressComponent"*, %"class.autofill::structured_address::AddressComponent"*)* @_ZNK8autofill18structured_address16AddressComponent33HasNewerValuePrecendenceInMergingERKS1_ to i8*)] }, align 8
@_ZTVN8autofill18structured_address28AddressComponentWithRewriterE = hidden unnamed_addr constant { [27 x i8*] } { [27 x i8*] [i8* null, i8* null, i8* bitcast (void (%"class.autofill::structured_address::AddressComponent"*)* @_ZN8autofill18structured_address16AddressComponentD2Ev to i8*), i8* bitcast (void (%"class.autofill::structured_address::AddressComponentWithRewriter"*)* @_ZN8autofill18structured_address28AddressComponentWithRewriterD0Ev to i8*), i8* bitcast (void (%"class.autofill::structured_address::AddressComponent"*, i1)* @_ZN8autofill18structured_address16AddressComponent22MigrateLegacyStructureEb to i8*), i8* bitcast (void (%"class.autofill::structured_address::AddressComponent"*, %"class.std::__1::basic_string"*, i32)* @_ZN8autofill18structured_address16AddressComponent8SetValueENSt3__112basic_stringIDsNS2_11char_traitsIDsEENS2_9allocatorIDsEEEENS0_18VerificationStatusE to i8*), i8* bitcast (void (%"class.autofill::structured_address::AddressComponent"*)* @_ZN8autofill18structured_address16AddressComponent10UnsetValueEv to i8*), i8* bitcast (void (%"class.autofill::structured_address::AddressComponent"*)* @_ZN8autofill18structured_address16AddressComponent23RecursivelyCompleteTreeEv to i8*), i8* bitcast (i1 (%"class.autofill::structured_address::AddressComponent"*)* @_ZN8autofill18structured_address16AddressComponent16CompleteFullTreeEv to i8*), i8* bitcast (void (%"class.autofill::structured_address::AddressComponent"*, %"class.autofill::DenseSet"*)* @_ZNK8autofill18structured_address16AddressComponent32GetAdditionalSupportedFieldTypesEPNS_8DenseSetINS_15ServerFieldTypeELS3_118EEE to i8*), i8* bitcast (i1 (%"class.autofill::structured_address::AddressComponent"*, %"class.autofill::structured_address::AddressComponent"*)* @_ZNK8autofill18structured_address16AddressComponent24IsMergeableWithComponentERKS1_ to i8*), i8* bitcast (void (%"class.autofill::structured_address::AddressComponent"*, %"class.autofill::structured_address::AddressComponent"*)* @_ZN8autofill18structured_address16AddressComponent25MergeVerificationStatusesERKS1_ to i8*), i8* bitcast (i1 (%"class.autofill::structured_address::AddressComponent"*, %"class.autofill::structured_address::AddressComponent"*, i1)* @_ZN8autofill18structured_address16AddressComponent18MergeWithComponentERKS1_b to i8*), i8* bitcast (i1 (%"class.autofill::structured_address::AddressComponent"*)* @_ZN8autofill18structured_address16AddressComponent20WipeInvalidStructureEv to i8*), i8* bitcast (i32 (%"class.autofill::structured_address::AddressComponent"*)* @_ZNK8autofill18structured_address16AddressComponent29GetStructureVerificationScoreEv to i8*), i8* bitcast (void (%"class.std::__1::basic_string"*, %"class.autofill::structured_address::AddressComponent"*)* @_ZNK8autofill18structured_address16AddressComponent19GetBestFormatStringEv to i8*), i8* bitcast (void (%"class.std::__1::vector.26"*, %"class.autofill::structured_address::AddressComponent"*)* @_ZNK8autofill18structured_address16AddressComponent37GetParseRegularExpressionsByRelevanceEv to i8*), i8* bitcast (i1 (%"class.autofill::structured_address::AddressComponent"*)* @_ZN8autofill18structured_address16AddressComponent40ParseValueAndAssignSubcomponentsByMethodEv to i8*), i8* bitcast (void (%"class.autofill::structured_address::AddressComponent"*)* @_ZN8autofill18structured_address16AddressComponent48ParseValueAndAssignSubcomponentsByFallbackMethodEv to i8*), i8* bitcast (i1 (%"class.autofill::structured_address::AddressComponent"*, %"class.std::__1::basic_string.28"*, %"class.std::__1::basic_string"*, i32*)* @_ZN8autofill18structured_address16AddressComponent44ConvertAndSetValueForAdditionalFieldTypeNameERKNSt3__112basic_stringIcNS2_11char_traitsIcEENS2_9allocatorIcEEEERKNS3_IDsNS4_IDsEENS6_IDsEEEERKNS0_18VerificationStatusE to i8*), i8* bitcast (i1 (%"class.autofill::structured_address::AddressComponent"*, %"class.std::__1::basic_string.28"*, %"class.std::__1::basic_string"*)* @_ZNK8autofill18structured_address16AddressComponent47ConvertAndGetTheValueForAdditionalFieldTypeNameERKNSt3__112basic_stringIcNS2_11char_traitsIcEENS2_9allocatorIcEEEEPNS3_IDsNS4_IDsEENS6_IDsEEEE to i8*), i8* bitcast (void (%"class.autofill::structured_address::AddressComponent"*, %"class.std::__1::basic_string"*)* @_ZN8autofill18structured_address16AddressComponent22ConsumeAdditionalTokenERKNSt3__112basic_stringIDsNS2_11char_traitsIDsEENS2_9allocatorIDsEEEE to i8*), i8* bitcast (i1 (%"class.autofill::structured_address::AddressComponent"*)* @_ZNK8autofill18structured_address16AddressComponent12IsValueValidEv to i8*), i8* bitcast (void (%"class.autofill::structured_address::AddressComponent"*)* @_ZN8autofill18structured_address16AddressComponent22PostAssignSanitizationEv to i8*), i8* bitcast (void (%"class.std::__1::basic_string"*, %"class.autofill::structured_address::AddressComponent"*)* @_ZNK8autofill18structured_address16AddressComponent15NormalizedValueEv to i8*), i8* bitcast (void (%"class.std::__1::basic_string"*, %"class.autofill::structured_address::AddressComponentWithRewriter"*)* @_ZNK8autofill18structured_address28AddressComponentWithRewriter18ValueForComparisonEv to i8*), i8* bitcast (i1 (%"class.autofill::structured_address::AddressComponent"*, %"class.autofill::structured_address::AddressComponent"*)* @_ZNK8autofill18structured_address16AddressComponent33HasNewerValuePrecendenceInMergingERKS1_ to i8*)] }, align 8

@_ZN8autofill18structured_address10StreetNameC1EPNS0_16AddressComponentE = hidden unnamed_addr alias void (%"class.autofill::structured_address::StreetName"*, %"class.autofill::structured_address::AddressComponent"*), void (%"class.autofill::structured_address::StreetName"*, %"class.autofill::structured_address::AddressComponent"*)* @_ZN8autofill18structured_address10StreetNameC2EPNS0_16AddressComponentE
@_ZN8autofill18structured_address10StreetNameD1Ev = hidden unnamed_addr alias void (%"class.autofill::structured_address::StreetName"*), void (%"class.autofill::structured_address::StreetName"*)* @_ZN8autofill18structured_address10StreetNameD2Ev
@_ZN8autofill18structured_address19DependentStreetNameC1EPNS0_16AddressComponentE = hidden unnamed_addr alias void (%"class.autofill::structured_address::DependentStreetName"*, %"class.autofill::structured_address::AddressComponent"*), void (%"class.autofill::structured_address::DependentStreetName"*, %"class.autofill::structured_address::AddressComponent"*)* @_ZN8autofill18structured_address19DependentStreetNameC2EPNS0_16AddressComponentE
@_ZN8autofill18structured_address19DependentStreetNameD1Ev = hidden unnamed_addr alias void (%"class.autofill::structured_address::DependentStreetName"*), void (%"class.autofill::structured_address::DependentStreetName"*)* @_ZN8autofill18structured_address19DependentStreetNameD2Ev
@_ZN8autofill18structured_address28StreetAndDependentStreetNameC1EPNS0_16AddressComponentE = hidden unnamed_addr alias void (%"class.autofill::structured_address::StreetAndDependentStreetName"*, %"class.autofill::structured_address::AddressComponent"*), void (%"class.autofill::structured_address::StreetAndDependentStreetName"*, %"class.autofill::structured_address::AddressComponent"*)* @_ZN8autofill18structured_address28StreetAndDependentStreetNameC2EPNS0_16AddressComponentE
@_ZN8autofill18structured_address28StreetAndDependentStreetNameD1Ev = hidden unnamed_addr alias void (%"class.autofill::structured_address::StreetAndDependentStreetName"*), void (%"class.autofill::structured_address::StreetAndDependentStreetName"*)* @_ZN8autofill18structured_address28StreetAndDependentStreetNameD2Ev
@_ZN8autofill18structured_address11HouseNumberC1EPNS0_16AddressComponentE = hidden unnamed_addr alias void (%"class.autofill::structured_address::HouseNumber"*, %"class.autofill::structured_address::AddressComponent"*), void (%"class.autofill::structured_address::HouseNumber"*, %"class.autofill::structured_address::AddressComponent"*)* @_ZN8autofill18structured_address11HouseNumberC2EPNS0_16AddressComponentE
@_ZN8autofill18structured_address11HouseNumberD1Ev = hidden unnamed_addr alias void (%"class.autofill::structured_address::HouseNumber"*), void (%"class.autofill::structured_address::HouseNumber"*)* @_ZN8autofill18structured_address11HouseNumberD2Ev
@_ZN8autofill18structured_address7PremiseC1EPNS0_16AddressComponentE = hidden unnamed_addr alias void (%"class.autofill::structured_address::Premise"*, %"class.autofill::structured_address::AddressComponent"*), void (%"class.autofill::structured_address::Premise"*, %"class.autofill::structured_address::AddressComponent"*)* @_ZN8autofill18structured_address7PremiseC2EPNS0_16AddressComponentE
@_ZN8autofill18structured_address7PremiseD1Ev = hidden unnamed_addr alias void (%"class.autofill::structured_address::Premise"*), void (%"class.autofill::structured_address::Premise"*)* @_ZN8autofill18structured_address7PremiseD2Ev
@_ZN8autofill18structured_address5FloorC1EPNS0_16AddressComponentE = hidden unnamed_addr alias void (%"class.autofill::structured_address::Floor"*, %"class.autofill::structured_address::AddressComponent"*), void (%"class.autofill::structured_address::Floor"*, %"class.autofill::structured_address::AddressComponent"*)* @_ZN8autofill18structured_address5FloorC2EPNS0_16AddressComponentE
@_ZN8autofill18structured_address5FloorD1Ev = hidden unnamed_addr alias void (%"class.autofill::structured_address::Floor"*), void (%"class.autofill::structured_address::Floor"*)* @_ZN8autofill18structured_address5FloorD2Ev
@_ZN8autofill18structured_address9ApartmentC1EPNS0_16AddressComponentE = hidden unnamed_addr alias void (%"class.autofill::structured_address::Apartment"*, %"class.autofill::structured_address::AddressComponent"*), void (%"class.autofill::structured_address::Apartment"*, %"class.autofill::structured_address::AddressComponent"*)* @_ZN8autofill18structured_address9ApartmentC2EPNS0_16AddressComponentE
@_ZN8autofill18structured_address9ApartmentD1Ev = hidden unnamed_addr alias void (%"class.autofill::structured_address::Apartment"*), void (%"class.autofill::structured_address::Apartment"*)* @_ZN8autofill18structured_address9ApartmentD2Ev
@_ZN8autofill18structured_address10SubPremiseC1EPNS0_16AddressComponentE = hidden unnamed_addr alias void (%"class.autofill::structured_address::SubPremise"*, %"class.autofill::structured_address::AddressComponent"*), void (%"class.autofill::structured_address::SubPremise"*, %"class.autofill::structured_address::AddressComponent"*)* @_ZN8autofill18structured_address10SubPremiseC2EPNS0_16AddressComponentE
@_ZN8autofill18structured_address10SubPremiseD1Ev = hidden unnamed_addr alias void (%"class.autofill::structured_address::SubPremise"*), void (%"class.autofill::structured_address::SubPremise"*)* @_ZN8autofill18structured_address10SubPremiseD2Ev
@_ZN8autofill18structured_address13StreetAddressC1EPNS0_16AddressComponentE = hidden unnamed_addr alias void (%"class.autofill::structured_address::StreetAddress"*, %"class.autofill::structured_address::AddressComponent"*), void (%"class.autofill::structured_address::StreetAddress"*, %"class.autofill::structured_address::AddressComponent"*)* @_ZN8autofill18structured_address13StreetAddressC2EPNS0_16AddressComponentE
@_ZN8autofill18structured_address13StreetAddressD1Ev = hidden unnamed_addr alias void (%"class.autofill::structured_address::StreetAddress"*), void (%"class.autofill::structured_address::StreetAddress"*)* @_ZN8autofill18structured_address13StreetAddressD2Ev
@_ZN8autofill18structured_address11CountryCodeC1EPNS0_16AddressComponentE = hidden unnamed_addr alias void (%"class.autofill::structured_address::CountryCode"*, %"class.autofill::structured_address::AddressComponent"*), void (%"class.autofill::structured_address::CountryCode"*, %"class.autofill::structured_address::AddressComponent"*)* @_ZN8autofill18structured_address11CountryCodeC2EPNS0_16AddressComponentE
@_ZN8autofill18structured_address11CountryCodeD1Ev = hidden unnamed_addr alias void (%"class.autofill::structured_address::CountryCode"*), void (%"class.autofill::structured_address::CountryCode"*)* @_ZN8autofill18structured_address11CountryCodeD2Ev
@_ZN8autofill18structured_address17DependentLocalityC1EPNS0_16AddressComponentE = hidden unnamed_addr alias void (%"class.autofill::structured_address::DependentLocality"*, %"class.autofill::structured_address::AddressComponent"*), void (%"class.autofill::structured_address::DependentLocality"*, %"class.autofill::structured_address::AddressComponent"*)* @_ZN8autofill18structured_address17DependentLocalityC2EPNS0_16AddressComponentE
@_ZN8autofill18structured_address17DependentLocalityD1Ev = hidden unnamed_addr alias void (%"class.autofill::structured_address::DependentLocality"*), void (%"class.autofill::structured_address::DependentLocality"*)* @_ZN8autofill18structured_address17DependentLocalityD2Ev
@_ZN8autofill18structured_address4CityC1EPNS0_16AddressComponentE = hidden unnamed_addr alias void (%"class.autofill::structured_address::City"*, %"class.autofill::structured_address::AddressComponent"*), void (%"class.autofill::structured_address::City"*, %"class.autofill::structured_address::AddressComponent"*)* @_ZN8autofill18structured_address4CityC2EPNS0_16AddressComponentE
@_ZN8autofill18structured_address4CityD1Ev = hidden unnamed_addr alias void (%"class.autofill::structured_address::City"*), void (%"class.autofill::structured_address::City"*)* @_ZN8autofill18structured_address4CityD2Ev
@_ZN8autofill18structured_address5StateC1EPNS0_16AddressComponentE = hidden unnamed_addr alias void (%"class.autofill::structured_address::State"*, %"class.autofill::structured_address::AddressComponent"*), void (%"class.autofill::structured_address::State"*, %"class.autofill::structured_address::AddressComponent"*)* @_ZN8autofill18structured_address5StateC2EPNS0_16AddressComponentE
@_ZN8autofill18structured_address5StateD1Ev = hidden unnamed_addr alias void (%"class.autofill::structured_address::State"*), void (%"class.autofill::structured_address::State"*)* @_ZN8autofill18structured_address5StateD2Ev
@_ZN8autofill18structured_address10PostalCodeC1EPNS0_16AddressComponentE = hidden unnamed_addr alias void (%"class.autofill::structured_address::PostalCode"*, %"class.autofill::structured_address::AddressComponent"*), void (%"class.autofill::structured_address::PostalCode"*, %"class.autofill::structured_address::AddressComponent"*)* @_ZN8autofill18structured_address10PostalCodeC2EPNS0_16AddressComponentE
@_ZN8autofill18structured_address10PostalCodeD1Ev = hidden unnamed_addr alias void (%"class.autofill::structured_address::PostalCode"*), void (%"class.autofill::structured_address::PostalCode"*)* @_ZN8autofill18structured_address10PostalCodeD2Ev
@_ZN8autofill18structured_address11SortingCodeC1EPNS0_16AddressComponentE = hidden unnamed_addr alias void (%"class.autofill::structured_address::SortingCode"*, %"class.autofill::structured_address::AddressComponent"*), void (%"class.autofill::structured_address::SortingCode"*, %"class.autofill::structured_address::AddressComponent"*)* @_ZN8autofill18structured_address11SortingCodeC2EPNS0_16AddressComponentE
@_ZN8autofill18structured_address11SortingCodeD1Ev = hidden unnamed_addr alias void (%"class.autofill::structured_address::SortingCode"*), void (%"class.autofill::structured_address::SortingCode"*)* @_ZN8autofill18structured_address11SortingCodeD2Ev
@_ZN8autofill18structured_address7AddressC1Ev = hidden unnamed_addr alias void (%"class.autofill::structured_address::Address"*), void (%"class.autofill::structured_address::Address"*)* @_ZN8autofill18structured_address7AddressC2Ev
@_ZN8autofill18structured_address7AddressC1ERKS1_ = hidden unnamed_addr alias void (%"class.autofill::structured_address::Address"*, %"class.autofill::structured_address::Address"*), void (%"class.autofill::structured_address::Address"*, %"class.autofill::structured_address::Address"*)* @_ZN8autofill18structured_address7AddressC2ERKS1_
@_ZN8autofill18structured_address7AddressC1EPNS0_16AddressComponentE = hidden unnamed_addr alias void (%"class.autofill::structured_address::Address"*, %"class.autofill::structured_address::AddressComponent"*), void (%"class.autofill::structured_address::Address"*, %"class.autofill::structured_address::AddressComponent"*)* @_ZN8autofill18structured_address7AddressC2EPNS0_16AddressComponentE
@_ZN8autofill18structured_address7AddressD1Ev = hidden unnamed_addr alias void (%"class.autofill::structured_address::Address"*), void (%"class.autofill::structured_address::Address"*)* @_ZN8autofill18structured_address7AddressD2Ev

; Function Attrs: nounwind ssp uwtable
define hidden void @_ZNK8autofill18structured_address28AddressComponentWithRewriter12RewriteValueERKNSt3__112basic_stringIDsNS2_11char_traitsIDsEENS2_9allocatorIDsEEEE(%"class.std::__1::basic_string"* noalias sret, %"class.autofill::structured_address::AddressComponentWithRewriter"*, %"class.std::__1::basic_string"* dereferenceable(24)) local_unnamed_addr #0 align 2 {
  %4 = alloca %"class.std::__1::basic_string", align 8
  %5 = alloca i32, align 4
  %6 = alloca %"class.std::__1::basic_string", align 8
  %7 = bitcast %"class.std::__1::basic_string"* %4 to i8*
  call void @llvm.lifetime.start.p0i8(i64 24, i8* nonnull %7) #10
  %8 = getelementptr inbounds %"class.std::__1::basic_string", %"class.std::__1::basic_string"* %4, i64 0, i32 0, i32 0, i32 0, i32 0, i32 0, i32 0
  %9 = getelementptr inbounds %"class.std::__1::basic_string", %"class.std::__1::basic_string"* %4, i64 0, i32 0, i32 0, i32 0, i32 0, i32 0, i32 1
  %10 = bitcast %"class.autofill::structured_address::AddressComponentWithRewriter"* %1 to %"class.autofill::structured_address::AddressComponent"*
  %11 = bitcast %"class.std::__1::basic_string"* %4 to i8*
  call void @llvm.memset.p0i8.i64(i8* nonnull align 8 %11, i8 -86, i64 24, i1 false)
  %12 = tail call dereferenceable(120) %"class.autofill::structured_address::AddressComponent"* @_ZNK8autofill18structured_address16AddressComponent11GetRootNodeEv(%"class.autofill::structured_address::AddressComponent"* %10) #10
  %13 = bitcast i32* %5 to i8*
  call void @llvm.lifetime.start.p0i8(i64 4, i8* nonnull %13) #10
  store i32 36, i32* %5, align 4
  call void @_ZNK8autofill18structured_address16AddressComponent15GetValueForTypeERKNS_15ServerFieldTypeE(%"class.std::__1::basic_string"* nonnull sret %4, %"class.autofill::structured_address::AddressComponent"* %12, i32* nonnull dereferenceable(4) %5) #10
  call void @llvm.lifetime.end.p0i8(i64 4, i8* nonnull %13) #10
  %14 = bitcast %"class.std::__1::basic_string"* %6 to i8*
  call void @llvm.lifetime.start.p0i8(i64 24, i8* nonnull %14) #10
  %15 = bitcast %"class.std::__1::basic_string"* %4 to %"struct.std::__1::basic_string<char16_t, std::__1::char_traits<char16_t>, std::__1::allocator<char16_t> >::__short"*
  %16 = getelementptr inbounds %"struct.std::__1::basic_string<char16_t, std::__1::char_traits<char16_t>, std::__1::allocator<char16_t> >::__short", %"struct.std::__1::basic_string<char16_t, std::__1::char_traits<char16_t>, std::__1::allocator<char16_t> >::__short"* %15, i64 0, i32 1, i32 1
  %17 = load i8, i8* %16, align 1
  %18 = icmp slt i8 %17, 0
  %19 = load i64, i64* %9, align 8
  %20 = zext i8 %17 to i64
  %21 = select i1 %18, i64 %19, i64 %20
  %22 = icmp eq i64 %21, 0
  br i1 %22, label %197, label %23

23:                                               ; preds = %3
  br i1 %18, label %25, label %24

24:                                               ; preds = %23
  call void @llvm.memcpy.p0i8.p0i8.i64(i8* nonnull align 8 %14, i8* nonnull align 8 %7, i64 24, i1 false) #10
  br label %203

25:                                               ; preds = %23
  %26 = load i16*, i16** %8, align 8
  %27 = icmp ult i64 %19, 11
  br i1 %27, label %28, label %33

28:                                               ; preds = %25
  %29 = bitcast %"class.std::__1::basic_string"* %6 to i16*
  %30 = trunc i64 %19 to i8
  %31 = bitcast %"class.std::__1::basic_string"* %6 to %"struct.std::__1::basic_string<char16_t, std::__1::char_traits<char16_t>, std::__1::allocator<char16_t> >::__short"*
  %32 = getelementptr inbounds %"struct.std::__1::basic_string<char16_t, std::__1::char_traits<char16_t>, std::__1::allocator<char16_t> >::__short", %"struct.std::__1::basic_string<char16_t, std::__1::char_traits<char16_t>, std::__1::allocator<char16_t> >::__short"* %31, i64 0, i32 1, i32 1
  store i8 %30, i8* %32, align 1
  br label %50

33:                                               ; preds = %25
  %34 = icmp ugt i64 %19, 9223372036854775791
  br i1 %34, label %35, label %37

35:                                               ; preds = %33
  %36 = bitcast %"class.std::__1::basic_string"* %6 to %"class.std::__1::__basic_string_common"*
  call void @_ZNKSt3__121__basic_string_commonILb1EE20__throw_length_errorEv(%"class.std::__1::__basic_string_common"* nonnull %36) #11
  unreachable

37:                                               ; preds = %33
  %38 = add nuw nsw i64 %19, 8
  %39 = and i64 %38, -8
  %40 = icmp slt i64 %39, 0
  br i1 %40, label %41, label %42

41:                                               ; preds = %37
  call void @abort() #11
  unreachable

42:                                               ; preds = %37
  %43 = shl i64 %39, 1
  %44 = call i8* @_Znwm(i64 %43) #12
  %45 = bitcast i8* %44 to i16*
  %46 = bitcast %"class.std::__1::basic_string"* %6 to i8**
  store i8* %44, i8** %46, align 8
  %47 = or i64 %39, -9223372036854775808
  %48 = getelementptr inbounds %"class.std::__1::basic_string", %"class.std::__1::basic_string"* %6, i64 0, i32 0, i32 0, i32 0, i32 0, i32 0, i32 2
  store i64 %47, i64* %48, align 8
  %49 = getelementptr inbounds %"class.std::__1::basic_string", %"class.std::__1::basic_string"* %6, i64 0, i32 0, i32 0, i32 0, i32 0, i32 0, i32 1
  store i64 %19, i64* %49, align 8
  br label %50

50:                                               ; preds = %42, %28
  %51 = phi i16* [ %29, %28 ], [ %45, %42 ]
  %52 = add nuw nsw i64 %19, 1
  %53 = add i64 %19, 1
  %54 = icmp ult i64 %53, 16
  br i1 %54, label %144, label %55

55:                                               ; preds = %50
  %56 = add i64 %19, 1
  %57 = getelementptr i16, i16* %51, i64 %56
  %58 = getelementptr i16, i16* %26, i64 %56
  %59 = icmp ult i16* %51, %58
  %60 = icmp ult i16* %26, %57
  %61 = and i1 %59, %60
  br i1 %61, label %144, label %62

62:                                               ; preds = %55
  %63 = and i64 %53, -16
  %64 = sub i64 %52, %63
  %65 = getelementptr i16, i16* %26, i64 %63
  %66 = getelementptr i16, i16* %51, i64 %63
  %67 = add i64 %63, -16
  %68 = lshr exact i64 %67, 4
  %69 = add nuw nsw i64 %68, 1
  %70 = and i64 %69, 3
  %71 = icmp ult i64 %67, 48
  br i1 %71, label %123, label %72

72:                                               ; preds = %62
  %73 = sub nsw i64 %69, %70
  br label %74

74:                                               ; preds = %74, %72
  %75 = phi i64 [ 0, %72 ], [ %120, %74 ]
  %76 = phi i64 [ %73, %72 ], [ %121, %74 ]
  %77 = getelementptr i16, i16* %26, i64 %75
  %78 = getelementptr i16, i16* %51, i64 %75
  %79 = bitcast i16* %77 to <8 x i16>*
  %80 = load <8 x i16>, <8 x i16>* %79, align 2, !alias.scope !2
  %81 = getelementptr i16, i16* %77, i64 8
  %82 = bitcast i16* %81 to <8 x i16>*
  %83 = load <8 x i16>, <8 x i16>* %82, align 2, !alias.scope !2
  %84 = bitcast i16* %78 to <8 x i16>*
  store <8 x i16> %80, <8 x i16>* %84, align 2, !alias.scope !5, !noalias !2
  %85 = getelementptr i16, i16* %78, i64 8
  %86 = bitcast i16* %85 to <8 x i16>*
  store <8 x i16> %83, <8 x i16>* %86, align 2, !alias.scope !5, !noalias !2
  %87 = or i64 %75, 16
  %88 = getelementptr i16, i16* %26, i64 %87
  %89 = getelementptr i16, i16* %51, i64 %87
  %90 = bitcast i16* %88 to <8 x i16>*
  %91 = load <8 x i16>, <8 x i16>* %90, align 2, !alias.scope !2
  %92 = getelementptr i16, i16* %88, i64 8
  %93 = bitcast i16* %92 to <8 x i16>*
  %94 = load <8 x i16>, <8 x i16>* %93, align 2, !alias.scope !2
  %95 = bitcast i16* %89 to <8 x i16>*
  store <8 x i16> %91, <8 x i16>* %95, align 2, !alias.scope !5, !noalias !2
  %96 = getelementptr i16, i16* %89, i64 8
  %97 = bitcast i16* %96 to <8 x i16>*
  store <8 x i16> %94, <8 x i16>* %97, align 2, !alias.scope !5, !noalias !2
  %98 = or i64 %75, 32
  %99 = getelementptr i16, i16* %26, i64 %98
  %100 = getelementptr i16, i16* %51, i64 %98
  %101 = bitcast i16* %99 to <8 x i16>*
  %102 = load <8 x i16>, <8 x i16>* %101, align 2, !alias.scope !2
  %103 = getelementptr i16, i16* %99, i64 8
  %104 = bitcast i16* %103 to <8 x i16>*
  %105 = load <8 x i16>, <8 x i16>* %104, align 2, !alias.scope !2
  %106 = bitcast i16* %100 to <8 x i16>*
  store <8 x i16> %102, <8 x i16>* %106, align 2, !alias.scope !5, !noalias !2
  %107 = getelementptr i16, i16* %100, i64 8
  %108 = bitcast i16* %107 to <8 x i16>*
  store <8 x i16> %105, <8 x i16>* %108, align 2, !alias.scope !5, !noalias !2
  %109 = or i64 %75, 48
  %110 = getelementptr i16, i16* %26, i64 %109
  %111 = getelementptr i16, i16* %51, i64 %109
  %112 = bitcast i16* %110 to <8 x i16>*
  %113 = load <8 x i16>, <8 x i16>* %112, align 2, !alias.scope !2
  %114 = getelementptr i16, i16* %110, i64 8
  %115 = bitcast i16* %114 to <8 x i16>*
  %116 = load <8 x i16>, <8 x i16>* %115, align 2, !alias.scope !2
  %117 = bitcast i16* %111 to <8 x i16>*
  store <8 x i16> %113, <8 x i16>* %117, align 2, !alias.scope !5, !noalias !2
  %118 = getelementptr i16, i16* %111, i64 8
  %119 = bitcast i16* %118 to <8 x i16>*
  store <8 x i16> %116, <8 x i16>* %119, align 2, !alias.scope !5, !noalias !2
  %120 = add i64 %75, 64
  %121 = add i64 %76, -4
  %122 = icmp eq i64 %121, 0
  br i1 %122, label %123, label %74, !llvm.loop !7

123:                                              ; preds = %74, %62
  %124 = phi i64 [ 0, %62 ], [ %120, %74 ]
  %125 = icmp eq i64 %70, 0
  br i1 %125, label %142, label %126

126:                                              ; preds = %123, %126
  %127 = phi i64 [ %139, %126 ], [ %124, %123 ]
  %128 = phi i64 [ %140, %126 ], [ %70, %123 ]
  %129 = getelementptr i16, i16* %26, i64 %127
  %130 = getelementptr i16, i16* %51, i64 %127
  %131 = bitcast i16* %129 to <8 x i16>*
  %132 = load <8 x i16>, <8 x i16>* %131, align 2, !alias.scope !2
  %133 = getelementptr i16, i16* %129, i64 8
  %134 = bitcast i16* %133 to <8 x i16>*
  %135 = load <8 x i16>, <8 x i16>* %134, align 2, !alias.scope !2
  %136 = bitcast i16* %130 to <8 x i16>*
  store <8 x i16> %132, <8 x i16>* %136, align 2, !alias.scope !5, !noalias !2
  %137 = getelementptr i16, i16* %130, i64 8
  %138 = bitcast i16* %137 to <8 x i16>*
  store <8 x i16> %135, <8 x i16>* %138, align 2, !alias.scope !5, !noalias !2
  %139 = add i64 %127, 16
  %140 = add i64 %128, -1
  %141 = icmp eq i64 %140, 0
  br i1 %141, label %142, label %126, !llvm.loop !9

142:                                              ; preds = %126, %123
  %143 = icmp eq i64 %53, %63
  br i1 %143, label %203, label %144

144:                                              ; preds = %142, %55, %50
  %145 = phi i64 [ %52, %55 ], [ %52, %50 ], [ %64, %142 ]
  %146 = phi i16* [ %26, %55 ], [ %26, %50 ], [ %65, %142 ]
  %147 = phi i16* [ %51, %55 ], [ %51, %50 ], [ %66, %142 ]
  %148 = add i64 %145, -1
  %149 = and i64 %145, 7
  %150 = icmp eq i64 %149, 0
  br i1 %150, label %162, label %151

151:                                              ; preds = %144, %151
  %152 = phi i64 [ %157, %151 ], [ %145, %144 ]
  %153 = phi i16* [ %159, %151 ], [ %146, %144 ]
  %154 = phi i16* [ %158, %151 ], [ %147, %144 ]
  %155 = phi i64 [ %160, %151 ], [ %149, %144 ]
  %156 = load i16, i16* %153, align 2
  store i16 %156, i16* %154, align 2
  %157 = add i64 %152, -1
  %158 = getelementptr inbounds i16, i16* %154, i64 1
  %159 = getelementptr inbounds i16, i16* %153, i64 1
  %160 = add i64 %155, -1
  %161 = icmp eq i64 %160, 0
  br i1 %161, label %162, label %151, !llvm.loop !11

162:                                              ; preds = %151, %144
  %163 = phi i64 [ %145, %144 ], [ %157, %151 ]
  %164 = phi i16* [ %146, %144 ], [ %159, %151 ]
  %165 = phi i16* [ %147, %144 ], [ %158, %151 ]
  %166 = icmp ult i64 %148, 7
  br i1 %166, label %203, label %167

167:                                              ; preds = %162, %167
  %168 = phi i64 [ %193, %167 ], [ %163, %162 ]
  %169 = phi i16* [ %195, %167 ], [ %164, %162 ]
  %170 = phi i16* [ %194, %167 ], [ %165, %162 ]
  %171 = load i16, i16* %169, align 2
  store i16 %171, i16* %170, align 2
  %172 = getelementptr inbounds i16, i16* %170, i64 1
  %173 = getelementptr inbounds i16, i16* %169, i64 1
  %174 = load i16, i16* %173, align 2
  store i16 %174, i16* %172, align 2
  %175 = getelementptr inbounds i16, i16* %170, i64 2
  %176 = getelementptr inbounds i16, i16* %169, i64 2
  %177 = load i16, i16* %176, align 2
  store i16 %177, i16* %175, align 2
  %178 = getelementptr inbounds i16, i16* %170, i64 3
  %179 = getelementptr inbounds i16, i16* %169, i64 3
  %180 = load i16, i16* %179, align 2
  store i16 %180, i16* %178, align 2
  %181 = getelementptr inbounds i16, i16* %170, i64 4
  %182 = getelementptr inbounds i16, i16* %169, i64 4
  %183 = load i16, i16* %182, align 2
  store i16 %183, i16* %181, align 2
  %184 = getelementptr inbounds i16, i16* %170, i64 5
  %185 = getelementptr inbounds i16, i16* %169, i64 5
  %186 = load i16, i16* %185, align 2
  store i16 %186, i16* %184, align 2
  %187 = getelementptr inbounds i16, i16* %170, i64 6
  %188 = getelementptr inbounds i16, i16* %169, i64 6
  %189 = load i16, i16* %188, align 2
  store i16 %189, i16* %187, align 2
  %190 = getelementptr inbounds i16, i16* %170, i64 7
  %191 = getelementptr inbounds i16, i16* %169, i64 7
  %192 = load i16, i16* %191, align 2
  store i16 %192, i16* %190, align 2
  %193 = add i64 %168, -8
  %194 = getelementptr inbounds i16, i16* %170, i64 8
  %195 = getelementptr inbounds i16, i16* %169, i64 8
  %196 = icmp eq i64 %193, 0
  br i1 %196, label %203, label %167, !llvm.loop !12

197:                                              ; preds = %3
  %198 = bitcast %"class.std::__1::basic_string"* %6 to %"struct.std::__1::basic_string<char16_t, std::__1::char_traits<char16_t>, std::__1::allocator<char16_t> >::__short"*
  %199 = getelementptr inbounds %"struct.std::__1::basic_string<char16_t, std::__1::char_traits<char16_t>, std::__1::allocator<char16_t> >::__short", %"struct.std::__1::basic_string<char16_t, std::__1::char_traits<char16_t>, std::__1::allocator<char16_t> >::__short"* %198, i64 0, i32 1, i32 1
  store i8 2, i8* %199, align 1
  %200 = bitcast %"class.std::__1::basic_string"* %6 to i16*
  store i16 85, i16* %200, align 8
  %201 = getelementptr inbounds i16, i16* %200, i64 1
  store i16 83, i16* %201, align 2
  %202 = getelementptr inbounds i16, i16* %200, i64 2
  store i16 0, i16* %202, align 4
  br label %203

203:                                              ; preds = %162, %167, %142, %24, %197
  call void @_ZN8autofill18structured_address13RewriterCache7RewriteERKNSt3__112basic_stringIDsNS2_11char_traitsIDsEENS2_9allocatorIDsEEEESA_(%"class.std::__1::basic_string"* sret %0, %"class.std::__1::basic_string"* nonnull dereferenceable(24) %6, %"class.std::__1::basic_string"* dereferenceable(24) %2) #10
  %204 = bitcast %"class.std::__1::basic_string"* %6 to %"struct.std::__1::basic_string<char16_t, std::__1::char_traits<char16_t>, std::__1::allocator<char16_t> >::__short"*
  %205 = getelementptr inbounds %"struct.std::__1::basic_string<char16_t, std::__1::char_traits<char16_t>, std::__1::allocator<char16_t> >::__short", %"struct.std::__1::basic_string<char16_t, std::__1::char_traits<char16_t>, std::__1::allocator<char16_t> >::__short"* %204, i64 0, i32 1, i32 1
  %206 = load i8, i8* %205, align 1
  %207 = icmp slt i8 %206, 0
  br i1 %207, label %208, label %211

208:                                              ; preds = %203
  %209 = bitcast %"class.std::__1::basic_string"* %6 to i8**
  %210 = load i8*, i8** %209, align 8
  call void @_ZdlPv(i8* %210) #12
  br label %211

211:                                              ; preds = %203, %208
  call void @llvm.lifetime.end.p0i8(i64 24, i8* nonnull %14) #10
  %212 = load i8, i8* %16, align 1
  %213 = icmp slt i8 %212, 0
  br i1 %213, label %214, label %217

214:                                              ; preds = %211
  %215 = bitcast %"class.std::__1::basic_string"* %4 to i8**
  %216 = load i8*, i8** %215, align 8
  call void @_ZdlPv(i8* %216) #12
  br label %217

217:                                              ; preds = %211, %214
  call void @llvm.lifetime.end.p0i8(i64 24, i8* nonnull %7) #10
  ret void
}

; Function Attrs: argmemonly nounwind
declare void @llvm.lifetime.start.p0i8(i64 immarg, i8* nocapture) #1

declare dereferenceable(120) %"class.autofill::structured_address::AddressComponent"* @_ZNK8autofill18structured_address16AddressComponent11GetRootNodeEv(%"class.autofill::structured_address::AddressComponent"*) local_unnamed_addr #2

declare void @_ZNK8autofill18structured_address16AddressComponent15GetValueForTypeERKNS_15ServerFieldTypeE(%"class.std::__1::basic_string"* sret, %"class.autofill::structured_address::AddressComponent"*, i32* dereferenceable(4)) local_unnamed_addr #2

; Function Attrs: argmemonly nounwind
declare void @llvm.lifetime.end.p0i8(i64 immarg, i8* nocapture) #1

declare void @_ZN8autofill18structured_address13RewriterCache7RewriteERKNSt3__112basic_stringIDsNS2_11char_traitsIDsEENS2_9allocatorIDsEEEESA_(%"class.std::__1::basic_string"* sret, %"class.std::__1::basic_string"* dereferenceable(24), %"class.std::__1::basic_string"* dereferenceable(24)) local_unnamed_addr #2

; Function Attrs: nounwind ssp uwtable
define hidden void @_ZNK8autofill18structured_address28AddressComponentWithRewriter18ValueForComparisonEv(%"class.std::__1::basic_string"* noalias sret, %"class.autofill::structured_address::AddressComponentWithRewriter"*) unnamed_addr #0 align 2 {
  %3 = alloca %"class.std::__1::basic_string", align 8
  %4 = bitcast %"class.std::__1::basic_string"* %3 to i8*
  call void @llvm.lifetime.start.p0i8(i64 24, i8* nonnull %4) #10
  %5 = bitcast %"class.autofill::structured_address::AddressComponentWithRewriter"* %1 to %"class.autofill::structured_address::AddressComponent"*
  %6 = bitcast %"class.autofill::structured_address::AddressComponentWithRewriter"* %1 to void (%"class.std::__1::basic_string"*, %"class.autofill::structured_address::AddressComponent"*)***
  %7 = load void (%"class.std::__1::basic_string"*, %"class.autofill::structured_address::AddressComponent"*)**, void (%"class.std::__1::basic_string"*, %"class.autofill::structured_address::AddressComponent"*)*** %6, align 8
  %8 = getelementptr inbounds void (%"class.std::__1::basic_string"*, %"class.autofill::structured_address::AddressComponent"*)*, void (%"class.std::__1::basic_string"*, %"class.autofill::structured_address::AddressComponent"*)** %7, i64 22
  %9 = load void (%"class.std::__1::basic_string"*, %"class.autofill::structured_address::AddressComponent"*)*, void (%"class.std::__1::basic_string"*, %"class.autofill::structured_address::AddressComponent"*)** %8, align 8
  call void %9(%"class.std::__1::basic_string"* nonnull sret %3, %"class.autofill::structured_address::AddressComponent"* %5) #10
  call void @_ZNK8autofill18structured_address28AddressComponentWithRewriter12RewriteValueERKNSt3__112basic_stringIDsNS2_11char_traitsIDsEENS2_9allocatorIDsEEEE(%"class.std::__1::basic_string"* sret %0, %"class.autofill::structured_address::AddressComponentWithRewriter"* %1, %"class.std::__1::basic_string"* nonnull dereferenceable(24) %3)
  %10 = bitcast %"class.std::__1::basic_string"* %3 to %"struct.std::__1::basic_string<char16_t, std::__1::char_traits<char16_t>, std::__1::allocator<char16_t> >::__short"*
  %11 = getelementptr inbounds %"struct.std::__1::basic_string<char16_t, std::__1::char_traits<char16_t>, std::__1::allocator<char16_t> >::__short", %"struct.std::__1::basic_string<char16_t, std::__1::char_traits<char16_t>, std::__1::allocator<char16_t> >::__short"* %10, i64 0, i32 1, i32 1
  %12 = load i8, i8* %11, align 1
  %13 = icmp slt i8 %12, 0
  br i1 %13, label %14, label %17

14:                                               ; preds = %2
  %15 = bitcast %"class.std::__1::basic_string"* %3 to i8**
  %16 = load i8*, i8** %15, align 8
  call void @_ZdlPv(i8* %16) #12
  br label %17

17:                                               ; preds = %2, %14
  call void @llvm.lifetime.end.p0i8(i64 24, i8* nonnull %4) #10
  ret void
}

; Function Attrs: nounwind ssp uwtable
define hidden void @_ZN8autofill18structured_address10StreetNameC2EPNS0_16AddressComponentE(%"class.autofill::structured_address::StreetName"*, %"class.autofill::structured_address::AddressComponent"*) unnamed_addr #0 align 2 {
  %3 = bitcast %"class.autofill::structured_address::StreetName"* %0 to %"class.autofill::structured_address::AddressComponent"*
  tail call void @_ZN8autofill18structured_address16AddressComponentC2ENS_15ServerFieldTypeEPS1_j(%"class.autofill::structured_address::AddressComponent"* %3, i32 103, %"class.autofill::structured_address::AddressComponent"* %1, i32 2) #10
  %4 = getelementptr inbounds %"class.autofill::structured_address::StreetName", %"class.autofill::structured_address::StreetName"* %0, i64 0, i32 0, i32 0
  store i32 (...)** bitcast (i8** getelementptr inbounds ({ [27 x i8*] }, { [27 x i8*] }* @_ZTVN8autofill18structured_address10StreetNameE, i64 0, inrange i32 0, i64 2) to i32 (...)**), i32 (...)*** %4, align 8
  ret void
}

declare void @_ZN8autofill18structured_address16AddressComponentC2ENS_15ServerFieldTypeEPS1_j(%"class.autofill::structured_address::AddressComponent"*, i32, %"class.autofill::structured_address::AddressComponent"*, i32) unnamed_addr #2

; Function Attrs: nounwind ssp uwtable
define hidden void @_ZN8autofill18structured_address10StreetNameD2Ev(%"class.autofill::structured_address::StreetName"*) unnamed_addr #0 align 2 {
  %2 = bitcast %"class.autofill::structured_address::StreetName"* %0 to %"class.autofill::structured_address::AddressComponent"*
  tail call void @_ZN8autofill18structured_address16AddressComponentD2Ev(%"class.autofill::structured_address::AddressComponent"* %2) #10
  ret void
}

; Function Attrs: nounwind ssp uwtable
define hidden void @_ZN8autofill18structured_address10StreetNameD0Ev(%"class.autofill::structured_address::StreetName"*) unnamed_addr #0 align 2 {
  %2 = bitcast %"class.autofill::structured_address::StreetName"* %0 to %"class.autofill::structured_address::AddressComponent"*
  tail call void @_ZN8autofill18structured_address16AddressComponentD2Ev(%"class.autofill::structured_address::AddressComponent"* %2) #10
  %3 = bitcast %"class.autofill::structured_address::StreetName"* %0 to i8*
  tail call void @_ZdlPv(i8* %3) #12
  ret void
}

; Function Attrs: nobuiltin nounwind
declare void @_ZdlPv(i8*) local_unnamed_addr #3

; Function Attrs: nounwind ssp uwtable
define hidden void @_ZN8autofill18structured_address19DependentStreetNameC2EPNS0_16AddressComponentE(%"class.autofill::structured_address::DependentStreetName"*, %"class.autofill::structured_address::AddressComponent"*) unnamed_addr #0 align 2 {
  %3 = bitcast %"class.autofill::structured_address::DependentStreetName"* %0 to %"class.autofill::structured_address::AddressComponent"*
  tail call void @_ZN8autofill18structured_address16AddressComponentC2ENS_15ServerFieldTypeEPS1_j(%"class.autofill::structured_address::AddressComponent"* %3, i32 112, %"class.autofill::structured_address::AddressComponent"* %1, i32 2) #10
  %4 = getelementptr inbounds %"class.autofill::structured_address::DependentStreetName", %"class.autofill::structured_address::DependentStreetName"* %0, i64 0, i32 0, i32 0
  store i32 (...)** bitcast (i8** getelementptr inbounds ({ [27 x i8*] }, { [27 x i8*] }* @_ZTVN8autofill18structured_address19DependentStreetNameE, i64 0, inrange i32 0, i64 2) to i32 (...)**), i32 (...)*** %4, align 8
  ret void
}

; Function Attrs: nounwind ssp uwtable
define hidden void @_ZN8autofill18structured_address19DependentStreetNameD2Ev(%"class.autofill::structured_address::DependentStreetName"*) unnamed_addr #0 align 2 {
  %2 = bitcast %"class.autofill::structured_address::DependentStreetName"* %0 to %"class.autofill::structured_address::AddressComponent"*
  tail call void @_ZN8autofill18structured_address16AddressComponentD2Ev(%"class.autofill::structured_address::AddressComponent"* %2) #10
  ret void
}

; Function Attrs: nounwind ssp uwtable
define hidden void @_ZN8autofill18structured_address19DependentStreetNameD0Ev(%"class.autofill::structured_address::DependentStreetName"*) unnamed_addr #0 align 2 {
  %2 = bitcast %"class.autofill::structured_address::DependentStreetName"* %0 to %"class.autofill::structured_address::AddressComponent"*
  tail call void @_ZN8autofill18structured_address16AddressComponentD2Ev(%"class.autofill::structured_address::AddressComponent"* %2) #10
  %3 = bitcast %"class.autofill::structured_address::DependentStreetName"* %0 to i8*
  tail call void @_ZdlPv(i8* %3) #12
  ret void
}

; Function Attrs: nounwind ssp uwtable
define hidden void @_ZN8autofill18structured_address28StreetAndDependentStreetNameC2EPNS0_16AddressComponentE(%"class.autofill::structured_address::StreetAndDependentStreetName"*, %"class.autofill::structured_address::AddressComponent"*) unnamed_addr #0 align 2 {
  %3 = bitcast %"class.autofill::structured_address::StreetAndDependentStreetName"* %0 to %"class.autofill::structured_address::AddressComponent"*
  tail call void @_ZN8autofill18structured_address16AddressComponentC2ENS_15ServerFieldTypeEPS1_j(%"class.autofill::structured_address::AddressComponent"* %3, i32 113, %"class.autofill::structured_address::AddressComponent"* %1, i32 2) #10
  %4 = getelementptr inbounds %"class.autofill::structured_address::StreetAndDependentStreetName", %"class.autofill::structured_address::StreetAndDependentStreetName"* %0, i64 0, i32 0, i32 0
  store i32 (...)** bitcast (i8** getelementptr inbounds ({ [27 x i8*] }, { [27 x i8*] }* @_ZTVN8autofill18structured_address28StreetAndDependentStreetNameE, i64 0, inrange i32 0, i64 2) to i32 (...)**), i32 (...)*** %4, align 8
  %5 = getelementptr inbounds %"class.autofill::structured_address::StreetAndDependentStreetName", %"class.autofill::structured_address::StreetAndDependentStreetName"* %0, i64 0, i32 2
  %6 = bitcast %"class.autofill::structured_address::StreetName"* %5 to %"class.autofill::structured_address::AddressComponent"*
  tail call void @_ZN8autofill18structured_address16AddressComponentC2ENS_15ServerFieldTypeEPS1_j(%"class.autofill::structured_address::AddressComponent"* %6, i32 103, %"class.autofill::structured_address::AddressComponent"* %3, i32 2) #10
  %7 = getelementptr inbounds %"class.autofill::structured_address::StreetName", %"class.autofill::structured_address::StreetName"* %5, i64 0, i32 0, i32 0
  store i32 (...)** bitcast (i8** getelementptr inbounds ({ [27 x i8*] }, { [27 x i8*] }* @_ZTVN8autofill18structured_address10StreetNameE, i64 0, inrange i32 0, i64 2) to i32 (...)**), i32 (...)*** %7, align 8
  %8 = getelementptr inbounds %"class.autofill::structured_address::StreetAndDependentStreetName", %"class.autofill::structured_address::StreetAndDependentStreetName"* %0, i64 0, i32 3
  %9 = bitcast %"class.autofill::structured_address::DependentStreetName"* %8 to %"class.autofill::structured_address::AddressComponent"*
  tail call void @_ZN8autofill18structured_address16AddressComponentC2ENS_15ServerFieldTypeEPS1_j(%"class.autofill::structured_address::AddressComponent"* %9, i32 112, %"class.autofill::structured_address::AddressComponent"* %3, i32 2) #10
  %10 = getelementptr inbounds %"class.autofill::structured_address::DependentStreetName", %"class.autofill::structured_address::DependentStreetName"* %8, i64 0, i32 0, i32 0
  store i32 (...)** bitcast (i8** getelementptr inbounds ({ [27 x i8*] }, { [27 x i8*] }* @_ZTVN8autofill18structured_address19DependentStreetNameE, i64 0, inrange i32 0, i64 2) to i32 (...)**), i32 (...)*** %10, align 8
  ret void
}

; Function Attrs: nounwind ssp uwtable
define hidden void @_ZN8autofill18structured_address28StreetAndDependentStreetNameD2Ev(%"class.autofill::structured_address::StreetAndDependentStreetName"*) unnamed_addr #0 align 2 {
  %2 = getelementptr inbounds %"class.autofill::structured_address::StreetAndDependentStreetName", %"class.autofill::structured_address::StreetAndDependentStreetName"* %0, i64 0, i32 0, i32 0
  store i32 (...)** bitcast (i8** getelementptr inbounds ({ [27 x i8*] }, { [27 x i8*] }* @_ZTVN8autofill18structured_address28StreetAndDependentStreetNameE, i64 0, inrange i32 0, i64 2) to i32 (...)**), i32 (...)*** %2, align 8
  %3 = getelementptr inbounds %"class.autofill::structured_address::StreetAndDependentStreetName", %"class.autofill::structured_address::StreetAndDependentStreetName"* %0, i64 0, i32 3
  %4 = bitcast %"class.autofill::structured_address::DependentStreetName"* %3 to %"class.autofill::structured_address::AddressComponent"*
  tail call void @_ZN8autofill18structured_address16AddressComponentD2Ev(%"class.autofill::structured_address::AddressComponent"* %4) #10
  %5 = getelementptr inbounds %"class.autofill::structured_address::StreetAndDependentStreetName", %"class.autofill::structured_address::StreetAndDependentStreetName"* %0, i64 0, i32 2
  %6 = bitcast %"class.autofill::structured_address::StreetName"* %5 to %"class.autofill::structured_address::AddressComponent"*
  tail call void @_ZN8autofill18structured_address16AddressComponentD2Ev(%"class.autofill::structured_address::AddressComponent"* %6) #10
  %7 = bitcast %"class.autofill::structured_address::StreetAndDependentStreetName"* %0 to %"class.autofill::structured_address::AddressComponent"*
  tail call void @_ZN8autofill18structured_address16AddressComponentD2Ev(%"class.autofill::structured_address::AddressComponent"* %7) #10
  ret void
}

; Function Attrs: nounwind ssp uwtable
define hidden void @_ZN8autofill18structured_address28StreetAndDependentStreetNameD0Ev(%"class.autofill::structured_address::StreetAndDependentStreetName"*) unnamed_addr #0 align 2 {
  %2 = getelementptr inbounds %"class.autofill::structured_address::StreetAndDependentStreetName", %"class.autofill::structured_address::StreetAndDependentStreetName"* %0, i64 0, i32 0, i32 0
  store i32 (...)** bitcast (i8** getelementptr inbounds ({ [27 x i8*] }, { [27 x i8*] }* @_ZTVN8autofill18structured_address28StreetAndDependentStreetNameE, i64 0, inrange i32 0, i64 2) to i32 (...)**), i32 (...)*** %2, align 8
  %3 = getelementptr inbounds %"class.autofill::structured_address::StreetAndDependentStreetName", %"class.autofill::structured_address::StreetAndDependentStreetName"* %0, i64 0, i32 3
  %4 = bitcast %"class.autofill::structured_address::DependentStreetName"* %3 to %"class.autofill::structured_address::AddressComponent"*
  tail call void @_ZN8autofill18structured_address16AddressComponentD2Ev(%"class.autofill::structured_address::AddressComponent"* %4) #10
  %5 = getelementptr inbounds %"class.autofill::structured_address::StreetAndDependentStreetName", %"class.autofill::structured_address::StreetAndDependentStreetName"* %0, i64 0, i32 2
  %6 = bitcast %"class.autofill::structured_address::StreetName"* %5 to %"class.autofill::structured_address::AddressComponent"*
  tail call void @_ZN8autofill18structured_address16AddressComponentD2Ev(%"class.autofill::structured_address::AddressComponent"* %6) #10
  %7 = bitcast %"class.autofill::structured_address::StreetAndDependentStreetName"* %0 to %"class.autofill::structured_address::AddressComponent"*
  tail call void @_ZN8autofill18structured_address16AddressComponentD2Ev(%"class.autofill::structured_address::AddressComponent"* %7) #10
  %8 = bitcast %"class.autofill::structured_address::StreetAndDependentStreetName"* %0 to i8*
  tail call void @_ZdlPv(i8* %8) #12
  ret void
}

; Function Attrs: nounwind ssp uwtable
define hidden void @_ZN8autofill18structured_address11HouseNumberC2EPNS0_16AddressComponentE(%"class.autofill::structured_address::HouseNumber"*, %"class.autofill::structured_address::AddressComponent"*) unnamed_addr #0 align 2 {
  %3 = bitcast %"class.autofill::structured_address::HouseNumber"* %0 to %"class.autofill::structured_address::AddressComponent"*
  tail call void @_ZN8autofill18structured_address16AddressComponentC2ENS_15ServerFieldTypeEPS1_j(%"class.autofill::structured_address::AddressComponent"* %3, i32 104, %"class.autofill::structured_address::AddressComponent"* %1, i32 2) #10
  %4 = getelementptr inbounds %"class.autofill::structured_address::HouseNumber", %"class.autofill::structured_address::HouseNumber"* %0, i64 0, i32 0, i32 0
  store i32 (...)** bitcast (i8** getelementptr inbounds ({ [27 x i8*] }, { [27 x i8*] }* @_ZTVN8autofill18structured_address11HouseNumberE, i64 0, inrange i32 0, i64 2) to i32 (...)**), i32 (...)*** %4, align 8
  ret void
}

; Function Attrs: nounwind ssp uwtable
define hidden void @_ZN8autofill18structured_address11HouseNumberD2Ev(%"class.autofill::structured_address::HouseNumber"*) unnamed_addr #0 align 2 {
  %2 = bitcast %"class.autofill::structured_address::HouseNumber"* %0 to %"class.autofill::structured_address::AddressComponent"*
  tail call void @_ZN8autofill18structured_address16AddressComponentD2Ev(%"class.autofill::structured_address::AddressComponent"* %2) #10
  ret void
}

; Function Attrs: nounwind ssp uwtable
define hidden void @_ZN8autofill18structured_address11HouseNumberD0Ev(%"class.autofill::structured_address::HouseNumber"*) unnamed_addr #0 align 2 {
  %2 = bitcast %"class.autofill::structured_address::HouseNumber"* %0 to %"class.autofill::structured_address::AddressComponent"*
  tail call void @_ZN8autofill18structured_address16AddressComponentD2Ev(%"class.autofill::structured_address::AddressComponent"* %2) #10
  %3 = bitcast %"class.autofill::structured_address::HouseNumber"* %0 to i8*
  tail call void @_ZdlPv(i8* %3) #12
  ret void
}

; Function Attrs: nounwind ssp uwtable
define hidden void @_ZN8autofill18structured_address7PremiseC2EPNS0_16AddressComponentE(%"class.autofill::structured_address::Premise"*, %"class.autofill::structured_address::AddressComponent"*) unnamed_addr #0 align 2 {
  %3 = bitcast %"class.autofill::structured_address::Premise"* %0 to %"class.autofill::structured_address::AddressComponent"*
  tail call void @_ZN8autofill18structured_address16AddressComponentC2ENS_15ServerFieldTypeEPS1_j(%"class.autofill::structured_address::AddressComponent"* %3, i32 111, %"class.autofill::structured_address::AddressComponent"* %1, i32 2) #10
  %4 = getelementptr inbounds %"class.autofill::structured_address::Premise", %"class.autofill::structured_address::Premise"* %0, i64 0, i32 0, i32 0
  store i32 (...)** bitcast (i8** getelementptr inbounds ({ [27 x i8*] }, { [27 x i8*] }* @_ZTVN8autofill18structured_address7PremiseE, i64 0, inrange i32 0, i64 2) to i32 (...)**), i32 (...)*** %4, align 8
  ret void
}

; Function Attrs: nounwind ssp uwtable
define hidden void @_ZN8autofill18structured_address7PremiseD2Ev(%"class.autofill::structured_address::Premise"*) unnamed_addr #0 align 2 {
  %2 = bitcast %"class.autofill::structured_address::Premise"* %0 to %"class.autofill::structured_address::AddressComponent"*
  tail call void @_ZN8autofill18structured_address16AddressComponentD2Ev(%"class.autofill::structured_address::AddressComponent"* %2) #10
  ret void
}

; Function Attrs: nounwind ssp uwtable
define hidden void @_ZN8autofill18structured_address7PremiseD0Ev(%"class.autofill::structured_address::Premise"*) unnamed_addr #0 align 2 {
  %2 = bitcast %"class.autofill::structured_address::Premise"* %0 to %"class.autofill::structured_address::AddressComponent"*
  tail call void @_ZN8autofill18structured_address16AddressComponentD2Ev(%"class.autofill::structured_address::AddressComponent"* %2) #10
  %3 = bitcast %"class.autofill::structured_address::Premise"* %0 to i8*
  tail call void @_ZdlPv(i8* %3) #12
  ret void
}

; Function Attrs: nounwind ssp uwtable
define hidden void @_ZN8autofill18structured_address5FloorC2EPNS0_16AddressComponentE(%"class.autofill::structured_address::Floor"*, %"class.autofill::structured_address::AddressComponent"*) unnamed_addr #0 align 2 {
  %3 = bitcast %"class.autofill::structured_address::Floor"* %0 to %"class.autofill::structured_address::AddressComponent"*
  tail call void @_ZN8autofill18structured_address16AddressComponentC2ENS_15ServerFieldTypeEPS1_j(%"class.autofill::structured_address::AddressComponent"* %3, i32 116, %"class.autofill::structured_address::AddressComponent"* %1, i32 2) #10
  %4 = getelementptr inbounds %"class.autofill::structured_address::Floor", %"class.autofill::structured_address::Floor"* %0, i64 0, i32 0, i32 0
  store i32 (...)** bitcast (i8** getelementptr inbounds ({ [27 x i8*] }, { [27 x i8*] }* @_ZTVN8autofill18structured_address5FloorE, i64 0, inrange i32 0, i64 2) to i32 (...)**), i32 (...)*** %4, align 8
  ret void
}

; Function Attrs: nounwind ssp uwtable
define hidden void @_ZN8autofill18structured_address5FloorD2Ev(%"class.autofill::structured_address::Floor"*) unnamed_addr #0 align 2 {
  %2 = bitcast %"class.autofill::structured_address::Floor"* %0 to %"class.autofill::structured_address::AddressComponent"*
  tail call void @_ZN8autofill18structured_address16AddressComponentD2Ev(%"class.autofill::structured_address::AddressComponent"* %2) #10
  ret void
}

; Function Attrs: nounwind ssp uwtable
define hidden void @_ZN8autofill18structured_address5FloorD0Ev(%"class.autofill::structured_address::Floor"*) unnamed_addr #0 align 2 {
  %2 = bitcast %"class.autofill::structured_address::Floor"* %0 to %"class.autofill::structured_address::AddressComponent"*
  tail call void @_ZN8autofill18structured_address16AddressComponentD2Ev(%"class.autofill::structured_address::AddressComponent"* %2) #10
  %3 = bitcast %"class.autofill::structured_address::Floor"* %0 to i8*
  tail call void @_ZdlPv(i8* %3) #12
  ret void
}

; Function Attrs: nounwind ssp uwtable
define hidden void @_ZN8autofill18structured_address9ApartmentC2EPNS0_16AddressComponentE(%"class.autofill::structured_address::Apartment"*, %"class.autofill::structured_address::AddressComponent"*) unnamed_addr #0 align 2 {
  %3 = bitcast %"class.autofill::structured_address::Apartment"* %0 to %"class.autofill::structured_address::AddressComponent"*
  tail call void @_ZN8autofill18structured_address16AddressComponentC2ENS_15ServerFieldTypeEPS1_j(%"class.autofill::structured_address::AddressComponent"* %3, i32 32, %"class.autofill::structured_address::AddressComponent"* %1, i32 2) #10
  %4 = getelementptr inbounds %"class.autofill::structured_address::Apartment", %"class.autofill::structured_address::Apartment"* %0, i64 0, i32 0, i32 0
  store i32 (...)** bitcast (i8** getelementptr inbounds ({ [27 x i8*] }, { [27 x i8*] }* @_ZTVN8autofill18structured_address9ApartmentE, i64 0, inrange i32 0, i64 2) to i32 (...)**), i32 (...)*** %4, align 8
  ret void
}

; Function Attrs: nounwind ssp uwtable
define hidden void @_ZN8autofill18structured_address9ApartmentD2Ev(%"class.autofill::structured_address::Apartment"*) unnamed_addr #0 align 2 {
  %2 = bitcast %"class.autofill::structured_address::Apartment"* %0 to %"class.autofill::structured_address::AddressComponent"*
  tail call void @_ZN8autofill18structured_address16AddressComponentD2Ev(%"class.autofill::structured_address::AddressComponent"* %2) #10
  ret void
}

; Function Attrs: nounwind ssp uwtable
define hidden void @_ZN8autofill18structured_address9ApartmentD0Ev(%"class.autofill::structured_address::Apartment"*) unnamed_addr #0 align 2 {
  %2 = bitcast %"class.autofill::structured_address::Apartment"* %0 to %"class.autofill::structured_address::AddressComponent"*
  tail call void @_ZN8autofill18structured_address16AddressComponentD2Ev(%"class.autofill::structured_address::AddressComponent"* %2) #10
  %3 = bitcast %"class.autofill::structured_address::Apartment"* %0 to i8*
  tail call void @_ZdlPv(i8* %3) #12
  ret void
}

; Function Attrs: nounwind ssp uwtable
define hidden void @_ZN8autofill18structured_address10SubPremiseC2EPNS0_16AddressComponentE(%"class.autofill::structured_address::SubPremise"*, %"class.autofill::structured_address::AddressComponent"*) unnamed_addr #0 align 2 {
  %3 = bitcast %"class.autofill::structured_address::SubPremise"* %0 to %"class.autofill::structured_address::AddressComponent"*
  tail call void @_ZN8autofill18structured_address16AddressComponentC2ENS_15ServerFieldTypeEPS1_j(%"class.autofill::structured_address::AddressComponent"* %3, i32 105, %"class.autofill::structured_address::AddressComponent"* %1, i32 2) #10
  %4 = getelementptr inbounds %"class.autofill::structured_address::SubPremise", %"class.autofill::structured_address::SubPremise"* %0, i64 0, i32 0, i32 0
  store i32 (...)** bitcast (i8** getelementptr inbounds ({ [27 x i8*] }, { [27 x i8*] }* @_ZTVN8autofill18structured_address10SubPremiseE, i64 0, inrange i32 0, i64 2) to i32 (...)**), i32 (...)*** %4, align 8
  %5 = getelementptr inbounds %"class.autofill::structured_address::SubPremise", %"class.autofill::structured_address::SubPremise"* %0, i64 0, i32 2
  %6 = bitcast %"class.autofill::structured_address::Floor"* %5 to %"class.autofill::structured_address::AddressComponent"*
  tail call void @_ZN8autofill18structured_address16AddressComponentC2ENS_15ServerFieldTypeEPS1_j(%"class.autofill::structured_address::AddressComponent"* %6, i32 116, %"class.autofill::structured_address::AddressComponent"* %3, i32 2) #10
  %7 = getelementptr inbounds %"class.autofill::structured_address::Floor", %"class.autofill::structured_address::Floor"* %5, i64 0, i32 0, i32 0
  store i32 (...)** bitcast (i8** getelementptr inbounds ({ [27 x i8*] }, { [27 x i8*] }* @_ZTVN8autofill18structured_address5FloorE, i64 0, inrange i32 0, i64 2) to i32 (...)**), i32 (...)*** %7, align 8
  %8 = getelementptr inbounds %"class.autofill::structured_address::SubPremise", %"class.autofill::structured_address::SubPremise"* %0, i64 0, i32 3
  %9 = bitcast %"class.autofill::structured_address::Apartment"* %8 to %"class.autofill::structured_address::AddressComponent"*
  tail call void @_ZN8autofill18structured_address16AddressComponentC2ENS_15ServerFieldTypeEPS1_j(%"class.autofill::structured_address::AddressComponent"* %9, i32 32, %"class.autofill::structured_address::AddressComponent"* %3, i32 2) #10
  %10 = getelementptr inbounds %"class.autofill::structured_address::Apartment", %"class.autofill::structured_address::Apartment"* %8, i64 0, i32 0, i32 0
  store i32 (...)** bitcast (i8** getelementptr inbounds ({ [27 x i8*] }, { [27 x i8*] }* @_ZTVN8autofill18structured_address9ApartmentE, i64 0, inrange i32 0, i64 2) to i32 (...)**), i32 (...)*** %10, align 8
  ret void
}

; Function Attrs: nounwind ssp uwtable
define hidden void @_ZN8autofill18structured_address10SubPremiseD2Ev(%"class.autofill::structured_address::SubPremise"*) unnamed_addr #0 align 2 {
  %2 = getelementptr inbounds %"class.autofill::structured_address::SubPremise", %"class.autofill::structured_address::SubPremise"* %0, i64 0, i32 0, i32 0
  store i32 (...)** bitcast (i8** getelementptr inbounds ({ [27 x i8*] }, { [27 x i8*] }* @_ZTVN8autofill18structured_address10SubPremiseE, i64 0, inrange i32 0, i64 2) to i32 (...)**), i32 (...)*** %2, align 8
  %3 = getelementptr inbounds %"class.autofill::structured_address::SubPremise", %"class.autofill::structured_address::SubPremise"* %0, i64 0, i32 3
  %4 = bitcast %"class.autofill::structured_address::Apartment"* %3 to %"class.autofill::structured_address::AddressComponent"*
  tail call void @_ZN8autofill18structured_address16AddressComponentD2Ev(%"class.autofill::structured_address::AddressComponent"* %4) #10
  %5 = getelementptr inbounds %"class.autofill::structured_address::SubPremise", %"class.autofill::structured_address::SubPremise"* %0, i64 0, i32 2
  %6 = bitcast %"class.autofill::structured_address::Floor"* %5 to %"class.autofill::structured_address::AddressComponent"*
  tail call void @_ZN8autofill18structured_address16AddressComponentD2Ev(%"class.autofill::structured_address::AddressComponent"* %6) #10
  %7 = bitcast %"class.autofill::structured_address::SubPremise"* %0 to %"class.autofill::structured_address::AddressComponent"*
  tail call void @_ZN8autofill18structured_address16AddressComponentD2Ev(%"class.autofill::structured_address::AddressComponent"* %7) #10
  ret void
}

; Function Attrs: nounwind ssp uwtable
define hidden void @_ZN8autofill18structured_address10SubPremiseD0Ev(%"class.autofill::structured_address::SubPremise"*) unnamed_addr #0 align 2 {
  %2 = getelementptr inbounds %"class.autofill::structured_address::SubPremise", %"class.autofill::structured_address::SubPremise"* %0, i64 0, i32 0, i32 0
  store i32 (...)** bitcast (i8** getelementptr inbounds ({ [27 x i8*] }, { [27 x i8*] }* @_ZTVN8autofill18structured_address10SubPremiseE, i64 0, inrange i32 0, i64 2) to i32 (...)**), i32 (...)*** %2, align 8
  %3 = getelementptr inbounds %"class.autofill::structured_address::SubPremise", %"class.autofill::structured_address::SubPremise"* %0, i64 0, i32 3
  %4 = bitcast %"class.autofill::structured_address::Apartment"* %3 to %"class.autofill::structured_address::AddressComponent"*
  tail call void @_ZN8autofill18structured_address16AddressComponentD2Ev(%"class.autofill::structured_address::AddressComponent"* %4) #10
  %5 = getelementptr inbounds %"class.autofill::structured_address::SubPremise", %"class.autofill::structured_address::SubPremise"* %0, i64 0, i32 2
  %6 = bitcast %"class.autofill::structured_address::Floor"* %5 to %"class.autofill::structured_address::AddressComponent"*
  tail call void @_ZN8autofill18structured_address16AddressComponentD2Ev(%"class.autofill::structured_address::AddressComponent"* %6) #10
  %7 = bitcast %"class.autofill::structured_address::SubPremise"* %0 to %"class.autofill::structured_address::AddressComponent"*
  tail call void @_ZN8autofill18structured_address16AddressComponentD2Ev(%"class.autofill::structured_address::AddressComponent"* %7) #10
  %8 = bitcast %"class.autofill::structured_address::SubPremise"* %0 to i8*
  tail call void @_ZdlPv(i8* %8) #12
  ret void
}

; Function Attrs: nounwind ssp uwtable
define hidden void @_ZN8autofill18structured_address13StreetAddressC2EPNS0_16AddressComponentE(%"class.autofill::structured_address::StreetAddress"*, %"class.autofill::structured_address::AddressComponent"*) unnamed_addr #0 align 2 {
  %3 = bitcast %"class.autofill::structured_address::StreetAddress"* %0 to %"class.autofill::structured_address::AddressComponent"*
  tail call void @_ZN8autofill18structured_address16AddressComponentC2ENS_15ServerFieldTypeEPS1_j(%"class.autofill::structured_address::AddressComponent"* %3, i32 77, %"class.autofill::structured_address::AddressComponent"* %1, i32 19) #10
  %4 = getelementptr inbounds %"class.autofill::structured_address::StreetAddress", %"class.autofill::structured_address::StreetAddress"* %0, i64 0, i32 0, i32 0, i32 0
  store i32 (...)** bitcast (i8** getelementptr inbounds ({ [27 x i8*] }, { [27 x i8*] }* @_ZTVN8autofill18structured_address13StreetAddressE, i64 0, inrange i32 0, i64 2) to i32 (...)**), i32 (...)*** %4, align 8
  %5 = getelementptr inbounds %"class.autofill::structured_address::StreetAddress", %"class.autofill::structured_address::StreetAddress"* %0, i64 0, i32 2
  %6 = bitcast %"class.autofill::structured_address::StreetAndDependentStreetName"* %5 to %"class.autofill::structured_address::AddressComponent"*
  tail call void @_ZN8autofill18structured_address16AddressComponentC2ENS_15ServerFieldTypeEPS1_j(%"class.autofill::structured_address::AddressComponent"* %6, i32 113, %"class.autofill::structured_address::AddressComponent"* %3, i32 2) #10
  %7 = getelementptr inbounds %"class.autofill::structured_address::StreetAndDependentStreetName", %"class.autofill::structured_address::StreetAndDependentStreetName"* %5, i64 0, i32 0, i32 0
  store i32 (...)** bitcast (i8** getelementptr inbounds ({ [27 x i8*] }, { [27 x i8*] }* @_ZTVN8autofill18structured_address28StreetAndDependentStreetNameE, i64 0, inrange i32 0, i64 2) to i32 (...)**), i32 (...)*** %7, align 8
  %8 = getelementptr inbounds %"class.autofill::structured_address::StreetAddress", %"class.autofill::structured_address::StreetAddress"* %0, i64 0, i32 2, i32 2
  %9 = bitcast %"class.autofill::structured_address::StreetName"* %8 to %"class.autofill::structured_address::AddressComponent"*
  tail call void @_ZN8autofill18structured_address16AddressComponentC2ENS_15ServerFieldTypeEPS1_j(%"class.autofill::structured_address::AddressComponent"* %9, i32 103, %"class.autofill::structured_address::AddressComponent"* %6, i32 2) #10
  %10 = getelementptr inbounds %"class.autofill::structured_address::StreetName", %"class.autofill::structured_address::StreetName"* %8, i64 0, i32 0, i32 0
  store i32 (...)** bitcast (i8** getelementptr inbounds ({ [27 x i8*] }, { [27 x i8*] }* @_ZTVN8autofill18structured_address10StreetNameE, i64 0, inrange i32 0, i64 2) to i32 (...)**), i32 (...)*** %10, align 8
  %11 = getelementptr inbounds %"class.autofill::structured_address::StreetAddress", %"class.autofill::structured_address::StreetAddress"* %0, i64 0, i32 2, i32 3
  %12 = bitcast %"class.autofill::structured_address::DependentStreetName"* %11 to %"class.autofill::structured_address::AddressComponent"*
  tail call void @_ZN8autofill18structured_address16AddressComponentC2ENS_15ServerFieldTypeEPS1_j(%"class.autofill::structured_address::AddressComponent"* %12, i32 112, %"class.autofill::structured_address::AddressComponent"* %6, i32 2) #10
  %13 = getelementptr inbounds %"class.autofill::structured_address::DependentStreetName", %"class.autofill::structured_address::DependentStreetName"* %11, i64 0, i32 0, i32 0
  store i32 (...)** bitcast (i8** getelementptr inbounds ({ [27 x i8*] }, { [27 x i8*] }* @_ZTVN8autofill18structured_address19DependentStreetNameE, i64 0, inrange i32 0, i64 2) to i32 (...)**), i32 (...)*** %13, align 8
  %14 = getelementptr inbounds %"class.autofill::structured_address::StreetAddress", %"class.autofill::structured_address::StreetAddress"* %0, i64 0, i32 3
  %15 = bitcast %"class.autofill::structured_address::HouseNumber"* %14 to %"class.autofill::structured_address::AddressComponent"*
  tail call void @_ZN8autofill18structured_address16AddressComponentC2ENS_15ServerFieldTypeEPS1_j(%"class.autofill::structured_address::AddressComponent"* %15, i32 104, %"class.autofill::structured_address::AddressComponent"* %3, i32 2) #10
  %16 = getelementptr inbounds %"class.autofill::structured_address::HouseNumber", %"class.autofill::structured_address::HouseNumber"* %14, i64 0, i32 0, i32 0
  store i32 (...)** bitcast (i8** getelementptr inbounds ({ [27 x i8*] }, { [27 x i8*] }* @_ZTVN8autofill18structured_address11HouseNumberE, i64 0, inrange i32 0, i64 2) to i32 (...)**), i32 (...)*** %16, align 8
  %17 = getelementptr inbounds %"class.autofill::structured_address::StreetAddress", %"class.autofill::structured_address::StreetAddress"* %0, i64 0, i32 4
  %18 = bitcast %"class.autofill::structured_address::Premise"* %17 to %"class.autofill::structured_address::AddressComponent"*
  tail call void @_ZN8autofill18structured_address16AddressComponentC2ENS_15ServerFieldTypeEPS1_j(%"class.autofill::structured_address::AddressComponent"* %18, i32 111, %"class.autofill::structured_address::AddressComponent"* %3, i32 2) #10
  %19 = getelementptr inbounds %"class.autofill::structured_address::Premise", %"class.autofill::structured_address::Premise"* %17, i64 0, i32 0, i32 0
  store i32 (...)** bitcast (i8** getelementptr inbounds ({ [27 x i8*] }, { [27 x i8*] }* @_ZTVN8autofill18structured_address7PremiseE, i64 0, inrange i32 0, i64 2) to i32 (...)**), i32 (...)*** %19, align 8
  %20 = getelementptr inbounds %"class.autofill::structured_address::StreetAddress", %"class.autofill::structured_address::StreetAddress"* %0, i64 0, i32 5
  %21 = bitcast %"class.autofill::structured_address::SubPremise"* %20 to %"class.autofill::structured_address::AddressComponent"*
  tail call void @_ZN8autofill18structured_address16AddressComponentC2ENS_15ServerFieldTypeEPS1_j(%"class.autofill::structured_address::AddressComponent"* %21, i32 105, %"class.autofill::structured_address::AddressComponent"* %3, i32 2) #10
  %22 = getelementptr inbounds %"class.autofill::structured_address::SubPremise", %"class.autofill::structured_address::SubPremise"* %20, i64 0, i32 0, i32 0
  store i32 (...)** bitcast (i8** getelementptr inbounds ({ [27 x i8*] }, { [27 x i8*] }* @_ZTVN8autofill18structured_address10SubPremiseE, i64 0, inrange i32 0, i64 2) to i32 (...)**), i32 (...)*** %22, align 8
  %23 = getelementptr inbounds %"class.autofill::structured_address::StreetAddress", %"class.autofill::structured_address::StreetAddress"* %0, i64 0, i32 5, i32 2
  %24 = bitcast %"class.autofill::structured_address::Floor"* %23 to %"class.autofill::structured_address::AddressComponent"*
  tail call void @_ZN8autofill18structured_address16AddressComponentC2ENS_15ServerFieldTypeEPS1_j(%"class.autofill::structured_address::AddressComponent"* %24, i32 116, %"class.autofill::structured_address::AddressComponent"* %21, i32 2) #10
  %25 = getelementptr inbounds %"class.autofill::structured_address::Floor", %"class.autofill::structured_address::Floor"* %23, i64 0, i32 0, i32 0
  store i32 (...)** bitcast (i8** getelementptr inbounds ({ [27 x i8*] }, { [27 x i8*] }* @_ZTVN8autofill18structured_address5FloorE, i64 0, inrange i32 0, i64 2) to i32 (...)**), i32 (...)*** %25, align 8
  %26 = getelementptr inbounds %"class.autofill::structured_address::StreetAddress", %"class.autofill::structured_address::StreetAddress"* %0, i64 0, i32 5, i32 3
  %27 = bitcast %"class.autofill::structured_address::Apartment"* %26 to %"class.autofill::structured_address::AddressComponent"*
  tail call void @_ZN8autofill18structured_address16AddressComponentC2ENS_15ServerFieldTypeEPS1_j(%"class.autofill::structured_address::AddressComponent"* %27, i32 32, %"class.autofill::structured_address::AddressComponent"* %21, i32 2) #10
  %28 = getelementptr inbounds %"class.autofill::structured_address::Apartment", %"class.autofill::structured_address::Apartment"* %26, i64 0, i32 0, i32 0
  store i32 (...)** bitcast (i8** getelementptr inbounds ({ [27 x i8*] }, { [27 x i8*] }* @_ZTVN8autofill18structured_address9ApartmentE, i64 0, inrange i32 0, i64 2) to i32 (...)**), i32 (...)*** %28, align 8
  %29 = getelementptr inbounds %"class.autofill::structured_address::StreetAddress", %"class.autofill::structured_address::StreetAddress"* %0, i64 0, i32 6
  %30 = bitcast %"class.std::__1::vector.19"* %29 to i8*
  tail call void @llvm.memset.p0i8.i64(i8* align 8 %30, i8 0, i64 24, i1 false) #10
  ret void
}

; Function Attrs: nounwind ssp uwtable
define hidden void @_ZN8autofill18structured_address13StreetAddressD2Ev(%"class.autofill::structured_address::StreetAddress"*) unnamed_addr #0 align 2 {
  %2 = getelementptr inbounds %"class.autofill::structured_address::StreetAddress", %"class.autofill::structured_address::StreetAddress"* %0, i64 0, i32 0, i32 0, i32 0
  store i32 (...)** bitcast (i8** getelementptr inbounds ({ [27 x i8*] }, { [27 x i8*] }* @_ZTVN8autofill18structured_address13StreetAddressE, i64 0, inrange i32 0, i64 2) to i32 (...)**), i32 (...)*** %2, align 8
  %3 = getelementptr inbounds %"class.autofill::structured_address::StreetAddress", %"class.autofill::structured_address::StreetAddress"* %0, i64 0, i32 6
  %4 = getelementptr inbounds %"class.std::__1::vector.19", %"class.std::__1::vector.19"* %3, i64 0, i32 0, i32 0
  %5 = load %"class.std::__1::basic_string"*, %"class.std::__1::basic_string"** %4, align 8
  %6 = icmp eq %"class.std::__1::basic_string"* %5, null
  br i1 %6, label %29, label %7

7:                                                ; preds = %1
  %8 = bitcast %"class.std::__1::basic_string"* %5 to i8*
  %9 = getelementptr inbounds %"class.autofill::structured_address::StreetAddress", %"class.autofill::structured_address::StreetAddress"* %0, i64 0, i32 6, i32 0, i32 1
  %10 = load %"class.std::__1::basic_string"*, %"class.std::__1::basic_string"** %9, align 8
  %11 = icmp eq %"class.std::__1::basic_string"* %10, %5
  br i1 %11, label %27, label %12

12:                                               ; preds = %7, %22
  %13 = phi %"class.std::__1::basic_string"* [ %14, %22 ], [ %10, %7 ]
  %14 = getelementptr inbounds %"class.std::__1::basic_string", %"class.std::__1::basic_string"* %13, i64 -1
  %15 = bitcast %"class.std::__1::basic_string"* %14 to %"struct.std::__1::basic_string<char16_t, std::__1::char_traits<char16_t>, std::__1::allocator<char16_t> >::__short"*
  %16 = getelementptr inbounds %"struct.std::__1::basic_string<char16_t, std::__1::char_traits<char16_t>, std::__1::allocator<char16_t> >::__short", %"struct.std::__1::basic_string<char16_t, std::__1::char_traits<char16_t>, std::__1::allocator<char16_t> >::__short"* %15, i64 0, i32 1, i32 1
  %17 = load i8, i8* %16, align 1
  %18 = icmp slt i8 %17, 0
  br i1 %18, label %19, label %22

19:                                               ; preds = %12
  %20 = bitcast %"class.std::__1::basic_string"* %14 to i8**
  %21 = load i8*, i8** %20, align 8
  tail call void @_ZdlPv(i8* %21) #12
  br label %22

22:                                               ; preds = %19, %12
  %23 = icmp eq %"class.std::__1::basic_string"* %14, %5
  br i1 %23, label %24, label %12

24:                                               ; preds = %22
  %25 = bitcast %"class.std::__1::vector.19"* %3 to i8**
  %26 = load i8*, i8** %25, align 8
  br label %27

27:                                               ; preds = %24, %7
  %28 = phi i8* [ %26, %24 ], [ %8, %7 ]
  store %"class.std::__1::basic_string"* %5, %"class.std::__1::basic_string"** %9, align 8
  tail call void @_ZdlPv(i8* %28) #12
  br label %29

29:                                               ; preds = %1, %27
  %30 = getelementptr inbounds %"class.autofill::structured_address::StreetAddress", %"class.autofill::structured_address::StreetAddress"* %0, i64 0, i32 5
  %31 = getelementptr inbounds %"class.autofill::structured_address::SubPremise", %"class.autofill::structured_address::SubPremise"* %30, i64 0, i32 0, i32 0
  store i32 (...)** bitcast (i8** getelementptr inbounds ({ [27 x i8*] }, { [27 x i8*] }* @_ZTVN8autofill18structured_address10SubPremiseE, i64 0, inrange i32 0, i64 2) to i32 (...)**), i32 (...)*** %31, align 8
  %32 = getelementptr inbounds %"class.autofill::structured_address::StreetAddress", %"class.autofill::structured_address::StreetAddress"* %0, i64 0, i32 5, i32 3
  %33 = bitcast %"class.autofill::structured_address::Apartment"* %32 to %"class.autofill::structured_address::AddressComponent"*
  tail call void @_ZN8autofill18structured_address16AddressComponentD2Ev(%"class.autofill::structured_address::AddressComponent"* %33) #10
  %34 = getelementptr inbounds %"class.autofill::structured_address::StreetAddress", %"class.autofill::structured_address::StreetAddress"* %0, i64 0, i32 5, i32 2
  %35 = bitcast %"class.autofill::structured_address::Floor"* %34 to %"class.autofill::structured_address::AddressComponent"*
  tail call void @_ZN8autofill18structured_address16AddressComponentD2Ev(%"class.autofill::structured_address::AddressComponent"* %35) #10
  %36 = bitcast %"class.autofill::structured_address::SubPremise"* %30 to %"class.autofill::structured_address::AddressComponent"*
  tail call void @_ZN8autofill18structured_address16AddressComponentD2Ev(%"class.autofill::structured_address::AddressComponent"* %36) #10
  %37 = getelementptr inbounds %"class.autofill::structured_address::StreetAddress", %"class.autofill::structured_address::StreetAddress"* %0, i64 0, i32 4
  %38 = bitcast %"class.autofill::structured_address::Premise"* %37 to %"class.autofill::structured_address::AddressComponent"*
  tail call void @_ZN8autofill18structured_address16AddressComponentD2Ev(%"class.autofill::structured_address::AddressComponent"* %38) #10
  %39 = getelementptr inbounds %"class.autofill::structured_address::StreetAddress", %"class.autofill::structured_address::StreetAddress"* %0, i64 0, i32 3
  %40 = bitcast %"class.autofill::structured_address::HouseNumber"* %39 to %"class.autofill::structured_address::AddressComponent"*
  tail call void @_ZN8autofill18structured_address16AddressComponentD2Ev(%"class.autofill::structured_address::AddressComponent"* %40) #10
  %41 = getelementptr inbounds %"class.autofill::structured_address::StreetAddress", %"class.autofill::structured_address::StreetAddress"* %0, i64 0, i32 2
  %42 = getelementptr inbounds %"class.autofill::structured_address::StreetAndDependentStreetName", %"class.autofill::structured_address::StreetAndDependentStreetName"* %41, i64 0, i32 0, i32 0
  store i32 (...)** bitcast (i8** getelementptr inbounds ({ [27 x i8*] }, { [27 x i8*] }* @_ZTVN8autofill18structured_address28StreetAndDependentStreetNameE, i64 0, inrange i32 0, i64 2) to i32 (...)**), i32 (...)*** %42, align 8
  %43 = getelementptr inbounds %"class.autofill::structured_address::StreetAddress", %"class.autofill::structured_address::StreetAddress"* %0, i64 0, i32 2, i32 3
  %44 = bitcast %"class.autofill::structured_address::DependentStreetName"* %43 to %"class.autofill::structured_address::AddressComponent"*
  tail call void @_ZN8autofill18structured_address16AddressComponentD2Ev(%"class.autofill::structured_address::AddressComponent"* %44) #10
  %45 = getelementptr inbounds %"class.autofill::structured_address::StreetAddress", %"class.autofill::structured_address::StreetAddress"* %0, i64 0, i32 2, i32 2
  %46 = bitcast %"class.autofill::structured_address::StreetName"* %45 to %"class.autofill::structured_address::AddressComponent"*
  tail call void @_ZN8autofill18structured_address16AddressComponentD2Ev(%"class.autofill::structured_address::AddressComponent"* %46) #10
  %47 = bitcast %"class.autofill::structured_address::StreetAndDependentStreetName"* %41 to %"class.autofill::structured_address::AddressComponent"*
  tail call void @_ZN8autofill18structured_address16AddressComponentD2Ev(%"class.autofill::structured_address::AddressComponent"* %47) #10
  %48 = bitcast %"class.autofill::structured_address::StreetAddress"* %0 to %"class.autofill::structured_address::AddressComponent"*
  tail call void @_ZN8autofill18structured_address16AddressComponentD2Ev(%"class.autofill::structured_address::AddressComponent"* %48) #10
  ret void
}

; Function Attrs: nounwind ssp uwtable
define hidden void @_ZN8autofill18structured_address13StreetAddressD0Ev(%"class.autofill::structured_address::StreetAddress"*) unnamed_addr #0 align 2 {
  tail call void @_ZN8autofill18structured_address13StreetAddressD2Ev(%"class.autofill::structured_address::StreetAddress"* %0) #10
  %2 = bitcast %"class.autofill::structured_address::StreetAddress"* %0 to i8*
  tail call void @_ZdlPv(i8* %2) #12
  ret void
}

; Function Attrs: nounwind ssp uwtable
define hidden void @_ZNK8autofill18structured_address13StreetAddress37GetParseRegularExpressionsByRelevanceEv(%"class.std::__1::vector.26"* noalias nocapture sret, %"class.autofill::structured_address::StreetAddress"* nocapture readnone) unnamed_addr #0 align 2 {
  %3 = tail call %"class.autofill::structured_address::StructuredAddressesRegExProvider"* @_ZN8autofill18structured_address32StructuredAddressesRegExProvider8InstanceEv() #10
  %4 = tail call %"class.re2::RE2"* @_ZN8autofill18structured_address32StructuredAddressesRegExProvider8GetRegExENS0_5RegExE(%"class.autofill::structured_address::StructuredAddressesRegExProvider"* %3, i32 18) #10
  %5 = tail call %"class.re2::RE2"* @_ZN8autofill18structured_address32StructuredAddressesRegExProvider8GetRegExENS0_5RegExE(%"class.autofill::structured_address::StructuredAddressesRegExProvider"* %3, i32 15) #10
  %6 = tail call %"class.re2::RE2"* @_ZN8autofill18structured_address32StructuredAddressesRegExProvider8GetRegExENS0_5RegExE(%"class.autofill::structured_address::StructuredAddressesRegExProvider"* %3, i32 16) #10
  %7 = tail call %"class.re2::RE2"* @_ZN8autofill18structured_address32StructuredAddressesRegExProvider8GetRegExENS0_5RegExE(%"class.autofill::structured_address::StructuredAddressesRegExProvider"* %3, i32 17) #10
  %8 = tail call i8* @_Znwm(i64 32) #12
  %9 = bitcast i8* %8 to %"class.re2::RE2"**
  %10 = getelementptr inbounds %"class.std::__1::vector.26", %"class.std::__1::vector.26"* %0, i64 0, i32 0, i32 1
  %11 = bitcast %"class.std::__1::vector.26"* %0 to i8**
  store i8* %8, i8** %11, align 8
  %12 = getelementptr inbounds i8, i8* %8, i64 32
  %13 = getelementptr inbounds %"class.std::__1::vector.26", %"class.std::__1::vector.26"* %0, i64 0, i32 0, i32 2, i32 0, i32 0
  %14 = bitcast %"class.re2::RE2"*** %13 to i8**
  store i8* %12, i8** %14, align 8
  %15 = bitcast %"class.re2::RE2"*** %10 to i64*
  store %"class.re2::RE2"* %4, %"class.re2::RE2"** %9, align 8
  %16 = getelementptr inbounds i8, i8* %8, i64 8
  %17 = bitcast i8* %16 to %"class.re2::RE2"**
  store %"class.re2::RE2"* %5, %"class.re2::RE2"** %17, align 8
  %18 = getelementptr inbounds i8, i8* %8, i64 16
  %19 = bitcast i8* %18 to %"class.re2::RE2"**
  store %"class.re2::RE2"* %6, %"class.re2::RE2"** %19, align 8
  %20 = getelementptr inbounds i8, i8* %8, i64 24
  %21 = bitcast i8* %20 to %"class.re2::RE2"**
  store %"class.re2::RE2"* %7, %"class.re2::RE2"** %21, align 8
  %22 = ptrtoint i8* %12 to i64
  store i64 %22, i64* %15, align 8
  ret void
}

declare %"class.autofill::structured_address::StructuredAddressesRegExProvider"* @_ZN8autofill18structured_address32StructuredAddressesRegExProvider8InstanceEv() local_unnamed_addr #2

declare %"class.re2::RE2"* @_ZN8autofill18structured_address32StructuredAddressesRegExProvider8GetRegExENS0_5RegExE(%"class.autofill::structured_address::StructuredAddressesRegExProvider"*, i32) local_unnamed_addr #2

; Function Attrs: nounwind ssp uwtable
define hidden void @_ZN8autofill18structured_address13StreetAddress48ParseValueAndAssignSubcomponentsByFallbackMethodEv(%"class.autofill::structured_address::StreetAddress"*) unnamed_addr #0 align 2 {
  %2 = alloca %"class.std::__1::vector.26", align 8
  %3 = getelementptr inbounds %"class.autofill::structured_address::StreetAddress", %"class.autofill::structured_address::StreetAddress"* %0, i64 0, i32 6
  %4 = getelementptr inbounds %"class.autofill::structured_address::StreetAddress", %"class.autofill::structured_address::StreetAddress"* %0, i64 0, i32 6, i32 0, i32 1
  %5 = bitcast %"class.std::__1::basic_string"** %4 to i64*
  %6 = load i64, i64* %5, align 8
  %7 = bitcast %"class.std::__1::vector.19"* %3 to i64*
  %8 = load i64, i64* %7, align 8
  %9 = sub i64 %6, %8
  %10 = sdiv exact i64 %9, 24
  %11 = icmp ult i64 %10, 2
  br i1 %11, label %49, label %12

12:                                               ; preds = %1
  %13 = bitcast %"class.std::__1::vector.26"* %2 to i8*
  call void @llvm.lifetime.start.p0i8(i64 24, i8* nonnull %13) #10
  %14 = bitcast %"class.autofill::structured_address::StreetAddress"* %0 to void (%"class.std::__1::vector.26"*, %"class.autofill::structured_address::StreetAddress"*)***
  %15 = load void (%"class.std::__1::vector.26"*, %"class.autofill::structured_address::StreetAddress"*)**, void (%"class.std::__1::vector.26"*, %"class.autofill::structured_address::StreetAddress"*)*** %14, align 8
  %16 = getelementptr inbounds void (%"class.std::__1::vector.26"*, %"class.autofill::structured_address::StreetAddress"*)*, void (%"class.std::__1::vector.26"*, %"class.autofill::structured_address::StreetAddress"*)** %15, i64 14
  %17 = load void (%"class.std::__1::vector.26"*, %"class.autofill::structured_address::StreetAddress"*)*, void (%"class.std::__1::vector.26"*, %"class.autofill::structured_address::StreetAddress"*)** %16, align 8
  call void %17(%"class.std::__1::vector.26"* nonnull sret %2, %"class.autofill::structured_address::StreetAddress"* %0) #10
  %18 = getelementptr inbounds %"class.std::__1::vector.26", %"class.std::__1::vector.26"* %2, i64 0, i32 0, i32 0
  %19 = load %"class.re2::RE2"**, %"class.re2::RE2"*** %18, align 8
  %20 = getelementptr inbounds %"class.std::__1::vector.26", %"class.std::__1::vector.26"* %2, i64 0, i32 0, i32 1
  %21 = load %"class.re2::RE2"**, %"class.re2::RE2"*** %20, align 8
  %22 = icmp eq %"class.re2::RE2"** %19, %21
  br i1 %22, label %41, label %23

23:                                               ; preds = %12
  %24 = bitcast %"class.autofill::structured_address::StreetAddress"* %0 to %"class.autofill::structured_address::AddressComponent"*
  br label %25

25:                                               ; preds = %32, %23
  %26 = phi %"class.re2::RE2"** [ %19, %23 ], [ %36, %32 ]
  %27 = load i64, i64* %5, align 8
  %28 = load i64, i64* %7, align 8
  %29 = icmp eq i64 %27, %28
  br i1 %29, label %30, label %32

30:                                               ; preds = %25
  %31 = bitcast %"class.std::__1::vector.19"* %3 to %"class.std::__1::__vector_base_common"*
  call void @_ZNKSt3__120__vector_base_commonILb1EE20__throw_out_of_rangeEv(%"class.std::__1::__vector_base_common"* %31) #11
  unreachable

32:                                               ; preds = %25
  %33 = load %"class.re2::RE2"*, %"class.re2::RE2"** %26, align 8
  %34 = inttoptr i64 %28 to %"class.std::__1::basic_string"*
  %35 = call zeroext i1 @_ZN8autofill18structured_address16AddressComponent51ParseValueAndAssignSubcomponentsByRegularExpressionERKNSt3__112basic_stringIDsNS2_11char_traitsIDsEENS2_9allocatorIDsEEEEPKN3re23RE2E(%"class.autofill::structured_address::AddressComponent"* %24, %"class.std::__1::basic_string"* dereferenceable(24) %34, %"class.re2::RE2"* %33) #10
  %36 = getelementptr inbounds %"class.re2::RE2"*, %"class.re2::RE2"** %26, i64 1
  %37 = icmp eq %"class.re2::RE2"** %36, %21
  %38 = or i1 %35, %37
  br i1 %38, label %39, label %25

39:                                               ; preds = %32
  %40 = load %"class.re2::RE2"**, %"class.re2::RE2"*** %18, align 8
  br label %41

41:                                               ; preds = %39, %12
  %42 = phi %"class.re2::RE2"** [ %40, %39 ], [ %19, %12 ]
  %43 = icmp eq %"class.re2::RE2"** %42, null
  br i1 %43, label %48, label %44

44:                                               ; preds = %41
  %45 = ptrtoint %"class.re2::RE2"** %42 to i64
  %46 = bitcast %"class.re2::RE2"*** %20 to i64*
  store i64 %45, i64* %46, align 8
  %47 = bitcast %"class.re2::RE2"** %42 to i8*
  call void @_ZdlPv(i8* %47) #12
  br label %48

48:                                               ; preds = %41, %44
  call void @llvm.lifetime.end.p0i8(i64 24, i8* nonnull %13) #10
  br label %49

49:                                               ; preds = %1, %48
  ret void
}

declare zeroext i1 @_ZN8autofill18structured_address16AddressComponent51ParseValueAndAssignSubcomponentsByRegularExpressionERKNSt3__112basic_stringIDsNS2_11char_traitsIDsEENS2_9allocatorIDsEEEEPKN3re23RE2E(%"class.autofill::structured_address::AddressComponent"*, %"class.std::__1::basic_string"* dereferenceable(24), %"class.re2::RE2"*) local_unnamed_addr #2

; Function Attrs: nounwind ssp uwtable
define hidden zeroext i1 @_ZNK8autofill18structured_address13StreetAddress33HasNewerValuePrecendenceInMergingERKNS0_16AddressComponentE(%"class.autofill::structured_address::StreetAddress"*, %"class.autofill::structured_address::AddressComponent"* dereferenceable(120)) unnamed_addr #0 align 2 {
  %3 = bitcast %"class.autofill::structured_address::StreetAddress"* %0 to %"class.autofill::structured_address::AddressComponent"*
  %4 = tail call i32 @_ZNK8autofill18structured_address16AddressComponent21GetVerificationStatusEv(%"class.autofill::structured_address::AddressComponent"* %3) #10
  %5 = tail call i32 @_ZNK8autofill18structured_address16AddressComponent21GetVerificationStatusEv(%"class.autofill::structured_address::AddressComponent"* %1) #10
  %6 = tail call zeroext i1 @_ZN8autofill18structured_address35IsLessSignificantVerificationStatusENS0_18VerificationStatusES1_(i32 %4, i32 %5) #10
  br i1 %6, label %74, label %7

7:                                                ; preds = %2
  %8 = tail call i32 @_ZNK8autofill18structured_address16AddressComponent21GetVerificationStatusEv(%"class.autofill::structured_address::AddressComponent"* %3) #10
  %9 = tail call i32 @_ZNK8autofill18structured_address16AddressComponent21GetVerificationStatusEv(%"class.autofill::structured_address::AddressComponent"* %1) #10
  %10 = icmp eq i32 %8, %9
  br i1 %10, label %11, label %74

11:                                               ; preds = %7
  %12 = tail call dereferenceable(24) %"class.std::__1::basic_string"* @_ZNK8autofill18structured_address16AddressComponent8GetValueEv(%"class.autofill::structured_address::AddressComponent"* %3) #10
  %13 = bitcast %"class.std::__1::basic_string"* %12 to %"struct.std::__1::basic_string<char16_t, std::__1::char_traits<char16_t>, std::__1::allocator<char16_t> >::__short"*
  %14 = getelementptr inbounds %"struct.std::__1::basic_string<char16_t, std::__1::char_traits<char16_t>, std::__1::allocator<char16_t> >::__short", %"struct.std::__1::basic_string<char16_t, std::__1::char_traits<char16_t>, std::__1::allocator<char16_t> >::__short"* %13, i64 0, i32 1, i32 1
  %15 = load i8, i8* %14, align 1
  %16 = icmp slt i8 %15, 0
  %17 = getelementptr inbounds %"class.std::__1::basic_string", %"class.std::__1::basic_string"* %12, i64 0, i32 0, i32 0, i32 0, i32 0, i32 0, i32 0
  %18 = load i16*, i16** %17, align 8
  %19 = getelementptr inbounds %"class.std::__1::basic_string", %"class.std::__1::basic_string"* %12, i64 0, i32 0, i32 0, i32 0, i32 0, i32 0, i32 1
  %20 = load i64, i64* %19, align 8
  %21 = bitcast %"class.std::__1::basic_string"* %12 to i16*
  %22 = zext i8 %15 to i64
  %23 = select i1 %16, i16* %18, i16* %21
  %24 = select i1 %16, i64 %20, i64 %22
  %25 = icmp eq i64 %24, 0
  br i1 %25, label %73, label %26

26:                                               ; preds = %11, %31
  %27 = phi i64 [ %33, %31 ], [ %24, %11 ]
  %28 = phi i16* [ %32, %31 ], [ %23, %11 ]
  %29 = load i16, i16* %28, align 2
  %30 = icmp eq i16 %29, 10
  br i1 %30, label %35, label %31

31:                                               ; preds = %26
  %32 = getelementptr inbounds i16, i16* %28, i64 1
  %33 = add i64 %27, -1
  %34 = icmp eq i64 %33, 0
  br i1 %34, label %73, label %26

35:                                               ; preds = %26
  %36 = icmp eq i16* %28, null
  %37 = ptrtoint i16* %28 to i64
  %38 = ptrtoint i16* %23 to i64
  %39 = sub i64 %37, %38
  %40 = icmp eq i64 %39, -2
  %41 = or i1 %36, %40
  br i1 %41, label %73, label %42

42:                                               ; preds = %35
  %43 = tail call dereferenceable(24) %"class.std::__1::basic_string"* @_ZNK8autofill18structured_address16AddressComponent8GetValueEv(%"class.autofill::structured_address::AddressComponent"* %1) #10
  %44 = bitcast %"class.std::__1::basic_string"* %43 to %"struct.std::__1::basic_string<char16_t, std::__1::char_traits<char16_t>, std::__1::allocator<char16_t> >::__short"*
  %45 = getelementptr inbounds %"struct.std::__1::basic_string<char16_t, std::__1::char_traits<char16_t>, std::__1::allocator<char16_t> >::__short", %"struct.std::__1::basic_string<char16_t, std::__1::char_traits<char16_t>, std::__1::allocator<char16_t> >::__short"* %44, i64 0, i32 1, i32 1
  %46 = load i8, i8* %45, align 1
  %47 = icmp slt i8 %46, 0
  %48 = getelementptr inbounds %"class.std::__1::basic_string", %"class.std::__1::basic_string"* %43, i64 0, i32 0, i32 0, i32 0, i32 0, i32 0, i32 0
  %49 = load i16*, i16** %48, align 8
  %50 = getelementptr inbounds %"class.std::__1::basic_string", %"class.std::__1::basic_string"* %43, i64 0, i32 0, i32 0, i32 0, i32 0, i32 0, i32 1
  %51 = load i64, i64* %50, align 8
  %52 = bitcast %"class.std::__1::basic_string"* %43 to i16*
  %53 = zext i8 %46 to i64
  %54 = select i1 %47, i16* %49, i16* %52
  %55 = select i1 %47, i64 %51, i64 %53
  %56 = icmp eq i64 %55, 0
  br i1 %56, label %74, label %57

57:                                               ; preds = %42, %62
  %58 = phi i64 [ %64, %62 ], [ %55, %42 ]
  %59 = phi i16* [ %63, %62 ], [ %54, %42 ]
  %60 = load i16, i16* %59, align 2
  %61 = icmp eq i16 %60, 10
  br i1 %61, label %66, label %62

62:                                               ; preds = %57
  %63 = getelementptr inbounds i16, i16* %59, i64 1
  %64 = add i64 %58, -1
  %65 = icmp eq i64 %64, 0
  br i1 %65, label %74, label %57

66:                                               ; preds = %57
  %67 = icmp eq i16* %59, null
  %68 = ptrtoint i16* %59 to i64
  %69 = ptrtoint i16* %54 to i64
  %70 = sub i64 %68, %69
  %71 = icmp eq i64 %70, -2
  %72 = or i1 %67, %71
  br i1 %72, label %74, label %73

73:                                               ; preds = %31, %11, %66, %35
  br label %74

74:                                               ; preds = %62, %42, %66, %7, %2, %73
  %75 = phi i1 [ true, %73 ], [ true, %2 ], [ false, %7 ], [ false, %42 ], [ false, %66 ], [ false, %62 ]
  ret i1 %75
}

declare zeroext i1 @_ZN8autofill18structured_address35IsLessSignificantVerificationStatusENS0_18VerificationStatusES1_(i32, i32) local_unnamed_addr #2

declare i32 @_ZNK8autofill18structured_address16AddressComponent21GetVerificationStatusEv(%"class.autofill::structured_address::AddressComponent"*) local_unnamed_addr #2

declare dereferenceable(24) %"class.std::__1::basic_string"* @_ZNK8autofill18structured_address16AddressComponent8GetValueEv(%"class.autofill::structured_address::AddressComponent"*) local_unnamed_addr #2

; Function Attrs: nounwind ssp uwtable
define hidden void @_ZNK8autofill18structured_address13StreetAddress19GetBestFormatStringEv(%"class.std::__1::basic_string"* noalias sret, %"class.autofill::structured_address::StreetAddress"*) unnamed_addr #0 align 2 {
  %3 = alloca %"class.std::__1::basic_string.28", align 8
  %4 = alloca %"class.std::__1::basic_string", align 8
  %5 = alloca i32, align 4
  %6 = bitcast %"class.std::__1::basic_string.28"* %3 to i8*
  call void @llvm.lifetime.start.p0i8(i64 24, i8* nonnull %6) #10
  %7 = getelementptr inbounds %"class.std::__1::basic_string.28", %"class.std::__1::basic_string.28"* %3, i64 0, i32 0, i32 0, i32 0, i32 0, i32 0, i32 0
  %8 = getelementptr inbounds %"class.std::__1::basic_string.28", %"class.std::__1::basic_string.28"* %3, i64 0, i32 0, i32 0, i32 0, i32 0, i32 0, i32 1
  %9 = bitcast %"class.std::__1::basic_string"* %4 to i8*
  %10 = bitcast %"class.std::__1::basic_string.28"* %3 to i8*
  call void @llvm.memset.p0i8.i64(i8* nonnull align 8 %10, i8 -86, i64 24, i1 false)
  call void @llvm.lifetime.start.p0i8(i64 24, i8* nonnull %9) #10
  %11 = bitcast %"class.autofill::structured_address::StreetAddress"* %1 to %"class.autofill::structured_address::AddressComponent"*
  %12 = tail call dereferenceable(120) %"class.autofill::structured_address::AddressComponent"* @_ZNK8autofill18structured_address16AddressComponent11GetRootNodeEv(%"class.autofill::structured_address::AddressComponent"* %11) #10
  %13 = bitcast i32* %5 to i8*
  call void @llvm.lifetime.start.p0i8(i64 4, i8* nonnull %13) #10
  store i32 36, i32* %5, align 4
  call void @_ZNK8autofill18structured_address16AddressComponent15GetValueForTypeERKNS_15ServerFieldTypeE(%"class.std::__1::basic_string"* nonnull sret %4, %"class.autofill::structured_address::AddressComponent"* %12, i32* nonnull dereferenceable(4) %5) #10
  %14 = bitcast %"class.std::__1::basic_string"* %4 to %"struct.std::__1::basic_string<char16_t, std::__1::char_traits<char16_t>, std::__1::allocator<char16_t> >::__short"*
  %15 = getelementptr inbounds %"struct.std::__1::basic_string<char16_t, std::__1::char_traits<char16_t>, std::__1::allocator<char16_t> >::__short", %"struct.std::__1::basic_string<char16_t, std::__1::char_traits<char16_t>, std::__1::allocator<char16_t> >::__short"* %14, i64 0, i32 1, i32 1
  %16 = load i8, i8* %15, align 1
  %17 = icmp slt i8 %16, 0
  %18 = getelementptr inbounds %"class.std::__1::basic_string", %"class.std::__1::basic_string"* %4, i64 0, i32 0, i32 0, i32 0, i32 0, i32 0, i32 0
  %19 = load i16*, i16** %18, align 8
  %20 = bitcast %"class.std::__1::basic_string"* %4 to i16*
  %21 = select i1 %17, i16* %19, i16* %20
  %22 = getelementptr inbounds %"class.std::__1::basic_string", %"class.std::__1::basic_string"* %4, i64 0, i32 0, i32 0, i32 0, i32 0, i32 0, i32 1
  %23 = load i64, i64* %22, align 8
  %24 = zext i8 %16 to i64
  %25 = select i1 %17, i64 %23, i64 %24
  call void @_ZN4base11UTF16ToUTF8ENS_16BasicStringPieceIDsNSt3__111char_traitsIDsEEEE(%"class.std::__1::basic_string.28"* nonnull sret %3, i16* %21, i64 %25) #10
  %26 = load i8, i8* %15, align 1
  %27 = icmp slt i8 %26, 0
  br i1 %27, label %28, label %31

28:                                               ; preds = %2
  %29 = bitcast %"class.std::__1::basic_string"* %4 to i8**
  %30 = load i8*, i8** %29, align 8
  call void @_ZdlPv(i8* %30) #12
  br label %31

31:                                               ; preds = %2, %28
  call void @llvm.lifetime.end.p0i8(i64 4, i8* nonnull %13) #10
  call void @llvm.lifetime.end.p0i8(i64 24, i8* nonnull %9) #10
  %32 = bitcast %"class.std::__1::basic_string.28"* %3 to %"struct.std::__1::basic_string<char, std::__1::char_traits<char>, std::__1::allocator<char> >::__short"*
  %33 = getelementptr inbounds %"struct.std::__1::basic_string<char, std::__1::char_traits<char>, std::__1::allocator<char> >::__short", %"struct.std::__1::basic_string<char, std::__1::char_traits<char>, std::__1::allocator<char> >::__short"* %32, i64 0, i32 1, i32 0
  %34 = load i8, i8* %33, align 1
  %35 = icmp slt i8 %34, 0
  %36 = load i64, i64* %8, align 8
  %37 = zext i8 %34 to i64
  %38 = select i1 %35, i64 %36, i64 %37
  %39 = icmp eq i64 %38, 2
  br i1 %39, label %40, label %180

40:                                               ; preds = %31
  %41 = call i32 @_ZNKSt3__112basic_stringIcNS_11char_traitsIcEENS_9allocatorIcEEE7compareEmmPKcm(%"class.std::__1::basic_string.28"* nonnull %3, i64 0, i64 -1, i8* getelementptr inbounds ([3 x i8], [3 x i8]* @.str.1, i64 0, i64 0), i64 2) #10
  %42 = icmp eq i32 %41, 0
  br i1 %42, label %47, label %43

43:                                               ; preds = %40
  %44 = load i8, i8* %33, align 1
  %45 = load i64, i64* %8, align 8
  %46 = zext i8 %44 to i64
  br label %180

47:                                               ; preds = %40, %47
  %48 = phi i64 [ %50, %47 ], [ 0, %40 ]
  %49 = phi i16* [ %51, %47 ], [ getelementptr inbounds ([123 x i16], [123 x i16]* @.str.2, i64 0, i64 0), %40 ]
  %50 = add i64 %48, 1
  %51 = getelementptr inbounds i16, i16* %49, i64 1
  %52 = load i16, i16* %51, align 2
  %53 = icmp eq i16 %52, 0
  br i1 %53, label %54, label %47

54:                                               ; preds = %47
  %55 = icmp ugt i64 %50, 9223372036854775791
  br i1 %55, label %56, label %58

56:                                               ; preds = %54
  %57 = bitcast %"class.std::__1::basic_string"* %0 to %"class.std::__1::__basic_string_common"*
  call void @_ZNKSt3__121__basic_string_commonILb1EE20__throw_length_errorEv(%"class.std::__1::__basic_string_common"* %57) #11
  unreachable

58:                                               ; preds = %54
  %59 = icmp ult i64 %50, 11
  br i1 %59, label %73, label %60

60:                                               ; preds = %58
  %61 = add nuw nsw i64 %48, 9
  %62 = and i64 %61, -8
  %63 = icmp slt i64 %62, 0
  br i1 %63, label %64, label %65

64:                                               ; preds = %60
  call void @abort() #11
  unreachable

65:                                               ; preds = %60
  %66 = shl i64 %62, 1
  %67 = call i8* @_Znwm(i64 %66) #12
  %68 = bitcast i8* %67 to i16*
  %69 = bitcast %"class.std::__1::basic_string"* %0 to i8**
  store i8* %67, i8** %69, align 8
  %70 = or i64 %62, -9223372036854775808
  %71 = getelementptr inbounds %"class.std::__1::basic_string", %"class.std::__1::basic_string"* %0, i64 0, i32 0, i32 0, i32 0, i32 0, i32 0, i32 2
  store i64 %70, i64* %71, align 8
  %72 = getelementptr inbounds %"class.std::__1::basic_string", %"class.std::__1::basic_string"* %0, i64 0, i32 0, i32 0, i32 0, i32 0, i32 0, i32 1
  store i64 %50, i64* %72, align 8
  br label %79

73:                                               ; preds = %58
  %74 = trunc i64 %50 to i8
  %75 = bitcast %"class.std::__1::basic_string"* %0 to %"struct.std::__1::basic_string<char16_t, std::__1::char_traits<char16_t>, std::__1::allocator<char16_t> >::__short"*
  %76 = getelementptr inbounds %"struct.std::__1::basic_string<char16_t, std::__1::char_traits<char16_t>, std::__1::allocator<char16_t> >::__short", %"struct.std::__1::basic_string<char16_t, std::__1::char_traits<char16_t>, std::__1::allocator<char16_t> >::__short"* %75, i64 0, i32 1, i32 1
  store i8 %74, i8* %76, align 1
  %77 = bitcast %"class.std::__1::basic_string"* %0 to i16*
  %78 = icmp eq i64 %50, 0
  br i1 %78, label %177, label %79

79:                                               ; preds = %73, %65
  %80 = phi i16* [ %68, %65 ], [ %77, %73 ]
  %81 = icmp ult i64 %50, 16
  br i1 %81, label %164, label %82

82:                                               ; preds = %79
  %83 = and i64 %50, -16
  %84 = sub i64 %50, %83
  %85 = getelementptr [123 x i16], [123 x i16]* @.str.2, i64 0, i64 %83
  %86 = getelementptr i16, i16* %80, i64 %83
  %87 = add i64 %83, -16
  %88 = lshr exact i64 %87, 4
  %89 = add nuw nsw i64 %88, 1
  %90 = and i64 %89, 3
  %91 = icmp ult i64 %87, 48
  br i1 %91, label %143, label %92

92:                                               ; preds = %82
  %93 = sub nsw i64 %89, %90
  br label %94

94:                                               ; preds = %94, %92
  %95 = phi i64 [ 0, %92 ], [ %140, %94 ]
  %96 = phi i64 [ %93, %92 ], [ %141, %94 ]
  %97 = getelementptr [123 x i16], [123 x i16]* @.str.2, i64 0, i64 %95
  %98 = getelementptr i16, i16* %80, i64 %95
  %99 = bitcast i16* %97 to <8 x i16>*
  %100 = load <8 x i16>, <8 x i16>* %99, align 2
  %101 = getelementptr i16, i16* %97, i64 8
  %102 = bitcast i16* %101 to <8 x i16>*
  %103 = load <8 x i16>, <8 x i16>* %102, align 2
  %104 = bitcast i16* %98 to <8 x i16>*
  store <8 x i16> %100, <8 x i16>* %104, align 2
  %105 = getelementptr i16, i16* %98, i64 8
  %106 = bitcast i16* %105 to <8 x i16>*
  store <8 x i16> %103, <8 x i16>* %106, align 2
  %107 = or i64 %95, 16
  %108 = getelementptr [123 x i16], [123 x i16]* @.str.2, i64 0, i64 %107
  %109 = getelementptr i16, i16* %80, i64 %107
  %110 = bitcast i16* %108 to <8 x i16>*
  %111 = load <8 x i16>, <8 x i16>* %110, align 2
  %112 = getelementptr i16, i16* %108, i64 8
  %113 = bitcast i16* %112 to <8 x i16>*
  %114 = load <8 x i16>, <8 x i16>* %113, align 2
  %115 = bitcast i16* %109 to <8 x i16>*
  store <8 x i16> %111, <8 x i16>* %115, align 2
  %116 = getelementptr i16, i16* %109, i64 8
  %117 = bitcast i16* %116 to <8 x i16>*
  store <8 x i16> %114, <8 x i16>* %117, align 2
  %118 = or i64 %95, 32
  %119 = getelementptr [123 x i16], [123 x i16]* @.str.2, i64 0, i64 %118
  %120 = getelementptr i16, i16* %80, i64 %118
  %121 = bitcast i16* %119 to <8 x i16>*
  %122 = load <8 x i16>, <8 x i16>* %121, align 2
  %123 = getelementptr i16, i16* %119, i64 8
  %124 = bitcast i16* %123 to <8 x i16>*
  %125 = load <8 x i16>, <8 x i16>* %124, align 2
  %126 = bitcast i16* %120 to <8 x i16>*
  store <8 x i16> %122, <8 x i16>* %126, align 2
  %127 = getelementptr i16, i16* %120, i64 8
  %128 = bitcast i16* %127 to <8 x i16>*
  store <8 x i16> %125, <8 x i16>* %128, align 2
  %129 = or i64 %95, 48
  %130 = getelementptr [123 x i16], [123 x i16]* @.str.2, i64 0, i64 %129
  %131 = getelementptr i16, i16* %80, i64 %129
  %132 = bitcast i16* %130 to <8 x i16>*
  %133 = load <8 x i16>, <8 x i16>* %132, align 2
  %134 = getelementptr i16, i16* %130, i64 8
  %135 = bitcast i16* %134 to <8 x i16>*
  %136 = load <8 x i16>, <8 x i16>* %135, align 2
  %137 = bitcast i16* %131 to <8 x i16>*
  store <8 x i16> %133, <8 x i16>* %137, align 2
  %138 = getelementptr i16, i16* %131, i64 8
  %139 = bitcast i16* %138 to <8 x i16>*
  store <8 x i16> %136, <8 x i16>* %139, align 2
  %140 = add i64 %95, 64
  %141 = add i64 %96, -4
  %142 = icmp eq i64 %141, 0
  br i1 %142, label %143, label %94, !llvm.loop !13

143:                                              ; preds = %94, %82
  %144 = phi i64 [ 0, %82 ], [ %140, %94 ]
  %145 = icmp eq i64 %90, 0
  br i1 %145, label %162, label %146

146:                                              ; preds = %143, %146
  %147 = phi i64 [ %159, %146 ], [ %144, %143 ]
  %148 = phi i64 [ %160, %146 ], [ %90, %143 ]
  %149 = getelementptr [123 x i16], [123 x i16]* @.str.2, i64 0, i64 %147
  %150 = getelementptr i16, i16* %80, i64 %147
  %151 = bitcast i16* %149 to <8 x i16>*
  %152 = load <8 x i16>, <8 x i16>* %151, align 2
  %153 = getelementptr i16, i16* %149, i64 8
  %154 = bitcast i16* %153 to <8 x i16>*
  %155 = load <8 x i16>, <8 x i16>* %154, align 2
  %156 = bitcast i16* %150 to <8 x i16>*
  store <8 x i16> %152, <8 x i16>* %156, align 2
  %157 = getelementptr i16, i16* %150, i64 8
  %158 = bitcast i16* %157 to <8 x i16>*
  store <8 x i16> %155, <8 x i16>* %158, align 2
  %159 = add i64 %147, 16
  %160 = add i64 %148, -1
  %161 = icmp eq i64 %160, 0
  br i1 %161, label %162, label %146, !llvm.loop !14

162:                                              ; preds = %146, %143
  %163 = icmp eq i64 %50, %83
  br i1 %163, label %177, label %164

164:                                              ; preds = %162, %79
  %165 = phi i64 [ %50, %79 ], [ %84, %162 ]
  %166 = phi i16* [ getelementptr inbounds ([123 x i16], [123 x i16]* @.str.2, i64 0, i64 0), %79 ], [ %85, %162 ]
  %167 = phi i16* [ %80, %79 ], [ %86, %162 ]
  br label %168

168:                                              ; preds = %164, %168
  %169 = phi i64 [ %173, %168 ], [ %165, %164 ]
  %170 = phi i16* [ %175, %168 ], [ %166, %164 ]
  %171 = phi i16* [ %174, %168 ], [ %167, %164 ]
  %172 = load i16, i16* %170, align 2
  store i16 %172, i16* %171, align 2
  %173 = add i64 %169, -1
  %174 = getelementptr inbounds i16, i16* %171, i64 1
  %175 = getelementptr inbounds i16, i16* %170, i64 1
  %176 = icmp eq i64 %173, 0
  br i1 %176, label %177, label %168, !llvm.loop !15

177:                                              ; preds = %168, %162, %73
  %178 = phi i16* [ %77, %73 ], [ %80, %162 ], [ %80, %168 ]
  %179 = getelementptr inbounds i16, i16* %178, i64 %50
  br label %751

180:                                              ; preds = %43, %31
  %181 = phi i64 [ %46, %43 ], [ %37, %31 ]
  %182 = phi i64 [ %45, %43 ], [ %36, %31 ]
  %183 = phi i8 [ %44, %43 ], [ %34, %31 ]
  %184 = icmp slt i8 %183, 0
  %185 = select i1 %184, i64 %182, i64 %181
  %186 = icmp eq i64 %185, 2
  br i1 %186, label %187, label %327

187:                                              ; preds = %180
  %188 = call i32 @_ZNKSt3__112basic_stringIcNS_11char_traitsIcEENS_9allocatorIcEEE7compareEmmPKcm(%"class.std::__1::basic_string.28"* nonnull %3, i64 0, i64 -1, i8* getelementptr inbounds ([3 x i8], [3 x i8]* @.str.3, i64 0, i64 0), i64 2) #10
  %189 = icmp eq i32 %188, 0
  br i1 %189, label %194, label %190

190:                                              ; preds = %187
  %191 = load i8, i8* %33, align 1
  %192 = load i64, i64* %8, align 8
  %193 = zext i8 %191 to i64
  br label %327

194:                                              ; preds = %187, %194
  %195 = phi i64 [ %197, %194 ], [ 0, %187 ]
  %196 = phi i16* [ %198, %194 ], [ getelementptr inbounds ([125 x i16], [125 x i16]* @.str.4, i64 0, i64 0), %187 ]
  %197 = add i64 %195, 1
  %198 = getelementptr inbounds i16, i16* %196, i64 1
  %199 = load i16, i16* %198, align 2
  %200 = icmp eq i16 %199, 0
  br i1 %200, label %201, label %194

201:                                              ; preds = %194
  %202 = icmp ugt i64 %197, 9223372036854775791
  br i1 %202, label %203, label %205

203:                                              ; preds = %201
  %204 = bitcast %"class.std::__1::basic_string"* %0 to %"class.std::__1::__basic_string_common"*
  call void @_ZNKSt3__121__basic_string_commonILb1EE20__throw_length_errorEv(%"class.std::__1::__basic_string_common"* %204) #11
  unreachable

205:                                              ; preds = %201
  %206 = icmp ult i64 %197, 11
  br i1 %206, label %220, label %207

207:                                              ; preds = %205
  %208 = add nuw nsw i64 %195, 9
  %209 = and i64 %208, -8
  %210 = icmp slt i64 %209, 0
  br i1 %210, label %211, label %212

211:                                              ; preds = %207
  call void @abort() #11
  unreachable

212:                                              ; preds = %207
  %213 = shl i64 %209, 1
  %214 = call i8* @_Znwm(i64 %213) #12
  %215 = bitcast i8* %214 to i16*
  %216 = bitcast %"class.std::__1::basic_string"* %0 to i8**
  store i8* %214, i8** %216, align 8
  %217 = or i64 %209, -9223372036854775808
  %218 = getelementptr inbounds %"class.std::__1::basic_string", %"class.std::__1::basic_string"* %0, i64 0, i32 0, i32 0, i32 0, i32 0, i32 0, i32 2
  store i64 %217, i64* %218, align 8
  %219 = getelementptr inbounds %"class.std::__1::basic_string", %"class.std::__1::basic_string"* %0, i64 0, i32 0, i32 0, i32 0, i32 0, i32 0, i32 1
  store i64 %197, i64* %219, align 8
  br label %226

220:                                              ; preds = %205
  %221 = trunc i64 %197 to i8
  %222 = bitcast %"class.std::__1::basic_string"* %0 to %"struct.std::__1::basic_string<char16_t, std::__1::char_traits<char16_t>, std::__1::allocator<char16_t> >::__short"*
  %223 = getelementptr inbounds %"struct.std::__1::basic_string<char16_t, std::__1::char_traits<char16_t>, std::__1::allocator<char16_t> >::__short", %"struct.std::__1::basic_string<char16_t, std::__1::char_traits<char16_t>, std::__1::allocator<char16_t> >::__short"* %222, i64 0, i32 1, i32 1
  store i8 %221, i8* %223, align 1
  %224 = bitcast %"class.std::__1::basic_string"* %0 to i16*
  %225 = icmp eq i64 %197, 0
  br i1 %225, label %324, label %226

226:                                              ; preds = %220, %212
  %227 = phi i16* [ %215, %212 ], [ %224, %220 ]
  %228 = icmp ult i64 %197, 16
  br i1 %228, label %311, label %229

229:                                              ; preds = %226
  %230 = and i64 %197, -16
  %231 = sub i64 %197, %230
  %232 = getelementptr [125 x i16], [125 x i16]* @.str.4, i64 0, i64 %230
  %233 = getelementptr i16, i16* %227, i64 %230
  %234 = add i64 %230, -16
  %235 = lshr exact i64 %234, 4
  %236 = add nuw nsw i64 %235, 1
  %237 = and i64 %236, 3
  %238 = icmp ult i64 %234, 48
  br i1 %238, label %290, label %239

239:                                              ; preds = %229
  %240 = sub nsw i64 %236, %237
  br label %241

241:                                              ; preds = %241, %239
  %242 = phi i64 [ 0, %239 ], [ %287, %241 ]
  %243 = phi i64 [ %240, %239 ], [ %288, %241 ]
  %244 = getelementptr [125 x i16], [125 x i16]* @.str.4, i64 0, i64 %242
  %245 = getelementptr i16, i16* %227, i64 %242
  %246 = bitcast i16* %244 to <8 x i16>*
  %247 = load <8 x i16>, <8 x i16>* %246, align 2
  %248 = getelementptr i16, i16* %244, i64 8
  %249 = bitcast i16* %248 to <8 x i16>*
  %250 = load <8 x i16>, <8 x i16>* %249, align 2
  %251 = bitcast i16* %245 to <8 x i16>*
  store <8 x i16> %247, <8 x i16>* %251, align 2
  %252 = getelementptr i16, i16* %245, i64 8
  %253 = bitcast i16* %252 to <8 x i16>*
  store <8 x i16> %250, <8 x i16>* %253, align 2
  %254 = or i64 %242, 16
  %255 = getelementptr [125 x i16], [125 x i16]* @.str.4, i64 0, i64 %254
  %256 = getelementptr i16, i16* %227, i64 %254
  %257 = bitcast i16* %255 to <8 x i16>*
  %258 = load <8 x i16>, <8 x i16>* %257, align 2
  %259 = getelementptr i16, i16* %255, i64 8
  %260 = bitcast i16* %259 to <8 x i16>*
  %261 = load <8 x i16>, <8 x i16>* %260, align 2
  %262 = bitcast i16* %256 to <8 x i16>*
  store <8 x i16> %258, <8 x i16>* %262, align 2
  %263 = getelementptr i16, i16* %256, i64 8
  %264 = bitcast i16* %263 to <8 x i16>*
  store <8 x i16> %261, <8 x i16>* %264, align 2
  %265 = or i64 %242, 32
  %266 = getelementptr [125 x i16], [125 x i16]* @.str.4, i64 0, i64 %265
  %267 = getelementptr i16, i16* %227, i64 %265
  %268 = bitcast i16* %266 to <8 x i16>*
  %269 = load <8 x i16>, <8 x i16>* %268, align 2
  %270 = getelementptr i16, i16* %266, i64 8
  %271 = bitcast i16* %270 to <8 x i16>*
  %272 = load <8 x i16>, <8 x i16>* %271, align 2
  %273 = bitcast i16* %267 to <8 x i16>*
  store <8 x i16> %269, <8 x i16>* %273, align 2
  %274 = getelementptr i16, i16* %267, i64 8
  %275 = bitcast i16* %274 to <8 x i16>*
  store <8 x i16> %272, <8 x i16>* %275, align 2
  %276 = or i64 %242, 48
  %277 = getelementptr [125 x i16], [125 x i16]* @.str.4, i64 0, i64 %276
  %278 = getelementptr i16, i16* %227, i64 %276
  %279 = bitcast i16* %277 to <8 x i16>*
  %280 = load <8 x i16>, <8 x i16>* %279, align 2
  %281 = getelementptr i16, i16* %277, i64 8
  %282 = bitcast i16* %281 to <8 x i16>*
  %283 = load <8 x i16>, <8 x i16>* %282, align 2
  %284 = bitcast i16* %278 to <8 x i16>*
  store <8 x i16> %280, <8 x i16>* %284, align 2
  %285 = getelementptr i16, i16* %278, i64 8
  %286 = bitcast i16* %285 to <8 x i16>*
  store <8 x i16> %283, <8 x i16>* %286, align 2
  %287 = add i64 %242, 64
  %288 = add i64 %243, -4
  %289 = icmp eq i64 %288, 0
  br i1 %289, label %290, label %241, !llvm.loop !17

290:                                              ; preds = %241, %229
  %291 = phi i64 [ 0, %229 ], [ %287, %241 ]
  %292 = icmp eq i64 %237, 0
  br i1 %292, label %309, label %293

293:                                              ; preds = %290, %293
  %294 = phi i64 [ %306, %293 ], [ %291, %290 ]
  %295 = phi i64 [ %307, %293 ], [ %237, %290 ]
  %296 = getelementptr [125 x i16], [125 x i16]* @.str.4, i64 0, i64 %294
  %297 = getelementptr i16, i16* %227, i64 %294
  %298 = bitcast i16* %296 to <8 x i16>*
  %299 = load <8 x i16>, <8 x i16>* %298, align 2
  %300 = getelementptr i16, i16* %296, i64 8
  %301 = bitcast i16* %300 to <8 x i16>*
  %302 = load <8 x i16>, <8 x i16>* %301, align 2
  %303 = bitcast i16* %297 to <8 x i16>*
  store <8 x i16> %299, <8 x i16>* %303, align 2
  %304 = getelementptr i16, i16* %297, i64 8
  %305 = bitcast i16* %304 to <8 x i16>*
  store <8 x i16> %302, <8 x i16>* %305, align 2
  %306 = add i64 %294, 16
  %307 = add i64 %295, -1
  %308 = icmp eq i64 %307, 0
  br i1 %308, label %309, label %293, !llvm.loop !18

309:                                              ; preds = %293, %290
  %310 = icmp eq i64 %197, %230
  br i1 %310, label %324, label %311

311:                                              ; preds = %309, %226
  %312 = phi i64 [ %197, %226 ], [ %231, %309 ]
  %313 = phi i16* [ getelementptr inbounds ([125 x i16], [125 x i16]* @.str.4, i64 0, i64 0), %226 ], [ %232, %309 ]
  %314 = phi i16* [ %227, %226 ], [ %233, %309 ]
  br label %315

315:                                              ; preds = %311, %315
  %316 = phi i64 [ %320, %315 ], [ %312, %311 ]
  %317 = phi i16* [ %322, %315 ], [ %313, %311 ]
  %318 = phi i16* [ %321, %315 ], [ %314, %311 ]
  %319 = load i16, i16* %317, align 2
  store i16 %319, i16* %318, align 2
  %320 = add i64 %316, -1
  %321 = getelementptr inbounds i16, i16* %318, i64 1
  %322 = getelementptr inbounds i16, i16* %317, i64 1
  %323 = icmp eq i64 %320, 0
  br i1 %323, label %324, label %315, !llvm.loop !19

324:                                              ; preds = %315, %309, %220
  %325 = phi i16* [ %224, %220 ], [ %227, %309 ], [ %227, %315 ]
  %326 = getelementptr inbounds i16, i16* %325, i64 %197
  br label %751

327:                                              ; preds = %190, %180
  %328 = phi i64 [ %193, %190 ], [ %181, %180 ]
  %329 = phi i64 [ %192, %190 ], [ %182, %180 ]
  %330 = phi i8 [ %191, %190 ], [ %183, %180 ]
  %331 = icmp slt i8 %330, 0
  %332 = select i1 %331, i64 %329, i64 %328
  %333 = icmp eq i64 %332, 2
  br i1 %333, label %334, label %474

334:                                              ; preds = %327
  %335 = call i32 @_ZNKSt3__112basic_stringIcNS_11char_traitsIcEENS_9allocatorIcEEE7compareEmmPKcm(%"class.std::__1::basic_string.28"* nonnull %3, i64 0, i64 -1, i8* getelementptr inbounds ([3 x i8], [3 x i8]* @.str.5, i64 0, i64 0), i64 2) #10
  %336 = icmp eq i32 %335, 0
  br i1 %336, label %341, label %337

337:                                              ; preds = %334
  %338 = load i8, i8* %33, align 1
  %339 = load i64, i64* %8, align 8
  %340 = zext i8 %338 to i64
  br label %474

341:                                              ; preds = %334, %341
  %342 = phi i64 [ %344, %341 ], [ 0, %334 ]
  %343 = phi i16* [ %345, %341 ], [ getelementptr inbounds ([116 x i16], [116 x i16]* @.str.6, i64 0, i64 0), %334 ]
  %344 = add i64 %342, 1
  %345 = getelementptr inbounds i16, i16* %343, i64 1
  %346 = load i16, i16* %345, align 2
  %347 = icmp eq i16 %346, 0
  br i1 %347, label %348, label %341

348:                                              ; preds = %341
  %349 = icmp ugt i64 %344, 9223372036854775791
  br i1 %349, label %350, label %352

350:                                              ; preds = %348
  %351 = bitcast %"class.std::__1::basic_string"* %0 to %"class.std::__1::__basic_string_common"*
  call void @_ZNKSt3__121__basic_string_commonILb1EE20__throw_length_errorEv(%"class.std::__1::__basic_string_common"* %351) #11
  unreachable

352:                                              ; preds = %348
  %353 = icmp ult i64 %344, 11
  br i1 %353, label %367, label %354

354:                                              ; preds = %352
  %355 = add nuw nsw i64 %342, 9
  %356 = and i64 %355, -8
  %357 = icmp slt i64 %356, 0
  br i1 %357, label %358, label %359

358:                                              ; preds = %354
  call void @abort() #11
  unreachable

359:                                              ; preds = %354
  %360 = shl i64 %356, 1
  %361 = call i8* @_Znwm(i64 %360) #12
  %362 = bitcast i8* %361 to i16*
  %363 = bitcast %"class.std::__1::basic_string"* %0 to i8**
  store i8* %361, i8** %363, align 8
  %364 = or i64 %356, -9223372036854775808
  %365 = getelementptr inbounds %"class.std::__1::basic_string", %"class.std::__1::basic_string"* %0, i64 0, i32 0, i32 0, i32 0, i32 0, i32 0, i32 2
  store i64 %364, i64* %365, align 8
  %366 = getelementptr inbounds %"class.std::__1::basic_string", %"class.std::__1::basic_string"* %0, i64 0, i32 0, i32 0, i32 0, i32 0, i32 0, i32 1
  store i64 %344, i64* %366, align 8
  br label %373

367:                                              ; preds = %352
  %368 = trunc i64 %344 to i8
  %369 = bitcast %"class.std::__1::basic_string"* %0 to %"struct.std::__1::basic_string<char16_t, std::__1::char_traits<char16_t>, std::__1::allocator<char16_t> >::__short"*
  %370 = getelementptr inbounds %"struct.std::__1::basic_string<char16_t, std::__1::char_traits<char16_t>, std::__1::allocator<char16_t> >::__short", %"struct.std::__1::basic_string<char16_t, std::__1::char_traits<char16_t>, std::__1::allocator<char16_t> >::__short"* %369, i64 0, i32 1, i32 1
  store i8 %368, i8* %370, align 1
  %371 = bitcast %"class.std::__1::basic_string"* %0 to i16*
  %372 = icmp eq i64 %344, 0
  br i1 %372, label %471, label %373

373:                                              ; preds = %367, %359
  %374 = phi i16* [ %362, %359 ], [ %371, %367 ]
  %375 = icmp ult i64 %344, 16
  br i1 %375, label %458, label %376

376:                                              ; preds = %373
  %377 = and i64 %344, -16
  %378 = sub i64 %344, %377
  %379 = getelementptr [116 x i16], [116 x i16]* @.str.6, i64 0, i64 %377
  %380 = getelementptr i16, i16* %374, i64 %377
  %381 = add i64 %377, -16
  %382 = lshr exact i64 %381, 4
  %383 = add nuw nsw i64 %382, 1
  %384 = and i64 %383, 3
  %385 = icmp ult i64 %381, 48
  br i1 %385, label %437, label %386

386:                                              ; preds = %376
  %387 = sub nsw i64 %383, %384
  br label %388

388:                                              ; preds = %388, %386
  %389 = phi i64 [ 0, %386 ], [ %434, %388 ]
  %390 = phi i64 [ %387, %386 ], [ %435, %388 ]
  %391 = getelementptr [116 x i16], [116 x i16]* @.str.6, i64 0, i64 %389
  %392 = getelementptr i16, i16* %374, i64 %389
  %393 = bitcast i16* %391 to <8 x i16>*
  %394 = load <8 x i16>, <8 x i16>* %393, align 2
  %395 = getelementptr i16, i16* %391, i64 8
  %396 = bitcast i16* %395 to <8 x i16>*
  %397 = load <8 x i16>, <8 x i16>* %396, align 2
  %398 = bitcast i16* %392 to <8 x i16>*
  store <8 x i16> %394, <8 x i16>* %398, align 2
  %399 = getelementptr i16, i16* %392, i64 8
  %400 = bitcast i16* %399 to <8 x i16>*
  store <8 x i16> %397, <8 x i16>* %400, align 2
  %401 = or i64 %389, 16
  %402 = getelementptr [116 x i16], [116 x i16]* @.str.6, i64 0, i64 %401
  %403 = getelementptr i16, i16* %374, i64 %401
  %404 = bitcast i16* %402 to <8 x i16>*
  %405 = load <8 x i16>, <8 x i16>* %404, align 2
  %406 = getelementptr i16, i16* %402, i64 8
  %407 = bitcast i16* %406 to <8 x i16>*
  %408 = load <8 x i16>, <8 x i16>* %407, align 2
  %409 = bitcast i16* %403 to <8 x i16>*
  store <8 x i16> %405, <8 x i16>* %409, align 2
  %410 = getelementptr i16, i16* %403, i64 8
  %411 = bitcast i16* %410 to <8 x i16>*
  store <8 x i16> %408, <8 x i16>* %411, align 2
  %412 = or i64 %389, 32
  %413 = getelementptr [116 x i16], [116 x i16]* @.str.6, i64 0, i64 %412
  %414 = getelementptr i16, i16* %374, i64 %412
  %415 = bitcast i16* %413 to <8 x i16>*
  %416 = load <8 x i16>, <8 x i16>* %415, align 2
  %417 = getelementptr i16, i16* %413, i64 8
  %418 = bitcast i16* %417 to <8 x i16>*
  %419 = load <8 x i16>, <8 x i16>* %418, align 2
  %420 = bitcast i16* %414 to <8 x i16>*
  store <8 x i16> %416, <8 x i16>* %420, align 2
  %421 = getelementptr i16, i16* %414, i64 8
  %422 = bitcast i16* %421 to <8 x i16>*
  store <8 x i16> %419, <8 x i16>* %422, align 2
  %423 = or i64 %389, 48
  %424 = getelementptr [116 x i16], [116 x i16]* @.str.6, i64 0, i64 %423
  %425 = getelementptr i16, i16* %374, i64 %423
  %426 = bitcast i16* %424 to <8 x i16>*
  %427 = load <8 x i16>, <8 x i16>* %426, align 2
  %428 = getelementptr i16, i16* %424, i64 8
  %429 = bitcast i16* %428 to <8 x i16>*
  %430 = load <8 x i16>, <8 x i16>* %429, align 2
  %431 = bitcast i16* %425 to <8 x i16>*
  store <8 x i16> %427, <8 x i16>* %431, align 2
  %432 = getelementptr i16, i16* %425, i64 8
  %433 = bitcast i16* %432 to <8 x i16>*
  store <8 x i16> %430, <8 x i16>* %433, align 2
  %434 = add i64 %389, 64
  %435 = add i64 %390, -4
  %436 = icmp eq i64 %435, 0
  br i1 %436, label %437, label %388, !llvm.loop !20

437:                                              ; preds = %388, %376
  %438 = phi i64 [ 0, %376 ], [ %434, %388 ]
  %439 = icmp eq i64 %384, 0
  br i1 %439, label %456, label %440

440:                                              ; preds = %437, %440
  %441 = phi i64 [ %453, %440 ], [ %438, %437 ]
  %442 = phi i64 [ %454, %440 ], [ %384, %437 ]
  %443 = getelementptr [116 x i16], [116 x i16]* @.str.6, i64 0, i64 %441
  %444 = getelementptr i16, i16* %374, i64 %441
  %445 = bitcast i16* %443 to <8 x i16>*
  %446 = load <8 x i16>, <8 x i16>* %445, align 2
  %447 = getelementptr i16, i16* %443, i64 8
  %448 = bitcast i16* %447 to <8 x i16>*
  %449 = load <8 x i16>, <8 x i16>* %448, align 2
  %450 = bitcast i16* %444 to <8 x i16>*
  store <8 x i16> %446, <8 x i16>* %450, align 2
  %451 = getelementptr i16, i16* %444, i64 8
  %452 = bitcast i16* %451 to <8 x i16>*
  store <8 x i16> %449, <8 x i16>* %452, align 2
  %453 = add i64 %441, 16
  %454 = add i64 %442, -1
  %455 = icmp eq i64 %454, 0
  br i1 %455, label %456, label %440, !llvm.loop !21

456:                                              ; preds = %440, %437
  %457 = icmp eq i64 %344, %377
  br i1 %457, label %471, label %458

458:                                              ; preds = %456, %373
  %459 = phi i64 [ %344, %373 ], [ %378, %456 ]
  %460 = phi i16* [ getelementptr inbounds ([116 x i16], [116 x i16]* @.str.6, i64 0, i64 0), %373 ], [ %379, %456 ]
  %461 = phi i16* [ %374, %373 ], [ %380, %456 ]
  br label %462

462:                                              ; preds = %458, %462
  %463 = phi i64 [ %467, %462 ], [ %459, %458 ]
  %464 = phi i16* [ %469, %462 ], [ %460, %458 ]
  %465 = phi i16* [ %468, %462 ], [ %461, %458 ]
  %466 = load i16, i16* %464, align 2
  store i16 %466, i16* %465, align 2
  %467 = add i64 %463, -1
  %468 = getelementptr inbounds i16, i16* %465, i64 1
  %469 = getelementptr inbounds i16, i16* %464, i64 1
  %470 = icmp eq i64 %467, 0
  br i1 %470, label %471, label %462, !llvm.loop !22

471:                                              ; preds = %462, %456, %367
  %472 = phi i16* [ %371, %367 ], [ %374, %456 ], [ %374, %462 ]
  %473 = getelementptr inbounds i16, i16* %472, i64 %344
  br label %751

474:                                              ; preds = %337, %327
  %475 = phi i64 [ %340, %337 ], [ %328, %327 ]
  %476 = phi i64 [ %339, %337 ], [ %329, %327 ]
  %477 = phi i8 [ %338, %337 ], [ %330, %327 ]
  %478 = icmp slt i8 %477, 0
  %479 = select i1 %478, i64 %476, i64 %475
  %480 = icmp eq i64 %479, 2
  br i1 %480, label %481, label %484

481:                                              ; preds = %474
  %482 = call i32 @_ZNKSt3__112basic_stringIcNS_11char_traitsIcEENS_9allocatorIcEEE7compareEmmPKcm(%"class.std::__1::basic_string.28"* nonnull %3, i64 0, i64 -1, i8* getelementptr inbounds ([3 x i8], [3 x i8]* @.str.7, i64 0, i64 0), i64 2) #10
  %483 = icmp eq i32 %482, 0
  br i1 %483, label %485, label %484

484:                                              ; preds = %474, %481
  br label %618

485:                                              ; preds = %481, %485
  %486 = phi i64 [ %488, %485 ], [ 0, %481 ]
  %487 = phi i16* [ %489, %485 ], [ getelementptr inbounds ([111 x i16], [111 x i16]* @.str.8, i64 0, i64 0), %481 ]
  %488 = add i64 %486, 1
  %489 = getelementptr inbounds i16, i16* %487, i64 1
  %490 = load i16, i16* %489, align 2
  %491 = icmp eq i16 %490, 0
  br i1 %491, label %492, label %485

492:                                              ; preds = %485
  %493 = icmp ugt i64 %488, 9223372036854775791
  br i1 %493, label %494, label %496

494:                                              ; preds = %492
  %495 = bitcast %"class.std::__1::basic_string"* %0 to %"class.std::__1::__basic_string_common"*
  call void @_ZNKSt3__121__basic_string_commonILb1EE20__throw_length_errorEv(%"class.std::__1::__basic_string_common"* %495) #11
  unreachable

496:                                              ; preds = %492
  %497 = icmp ult i64 %488, 11
  br i1 %497, label %511, label %498

498:                                              ; preds = %496
  %499 = add nuw nsw i64 %486, 9
  %500 = and i64 %499, -8
  %501 = icmp slt i64 %500, 0
  br i1 %501, label %502, label %503

502:                                              ; preds = %498
  call void @abort() #11
  unreachable

503:                                              ; preds = %498
  %504 = shl i64 %500, 1
  %505 = call i8* @_Znwm(i64 %504) #12
  %506 = bitcast i8* %505 to i16*
  %507 = bitcast %"class.std::__1::basic_string"* %0 to i8**
  store i8* %505, i8** %507, align 8
  %508 = or i64 %500, -9223372036854775808
  %509 = getelementptr inbounds %"class.std::__1::basic_string", %"class.std::__1::basic_string"* %0, i64 0, i32 0, i32 0, i32 0, i32 0, i32 0, i32 2
  store i64 %508, i64* %509, align 8
  %510 = getelementptr inbounds %"class.std::__1::basic_string", %"class.std::__1::basic_string"* %0, i64 0, i32 0, i32 0, i32 0, i32 0, i32 0, i32 1
  store i64 %488, i64* %510, align 8
  br label %517

511:                                              ; preds = %496
  %512 = trunc i64 %488 to i8
  %513 = bitcast %"class.std::__1::basic_string"* %0 to %"struct.std::__1::basic_string<char16_t, std::__1::char_traits<char16_t>, std::__1::allocator<char16_t> >::__short"*
  %514 = getelementptr inbounds %"struct.std::__1::basic_string<char16_t, std::__1::char_traits<char16_t>, std::__1::allocator<char16_t> >::__short", %"struct.std::__1::basic_string<char16_t, std::__1::char_traits<char16_t>, std::__1::allocator<char16_t> >::__short"* %513, i64 0, i32 1, i32 1
  store i8 %512, i8* %514, align 1
  %515 = bitcast %"class.std::__1::basic_string"* %0 to i16*
  %516 = icmp eq i64 %488, 0
  br i1 %516, label %615, label %517

517:                                              ; preds = %511, %503
  %518 = phi i16* [ %506, %503 ], [ %515, %511 ]
  %519 = icmp ult i64 %488, 16
  br i1 %519, label %602, label %520

520:                                              ; preds = %517
  %521 = and i64 %488, -16
  %522 = sub i64 %488, %521
  %523 = getelementptr [111 x i16], [111 x i16]* @.str.8, i64 0, i64 %521
  %524 = getelementptr i16, i16* %518, i64 %521
  %525 = add i64 %521, -16
  %526 = lshr exact i64 %525, 4
  %527 = add nuw nsw i64 %526, 1
  %528 = and i64 %527, 3
  %529 = icmp ult i64 %525, 48
  br i1 %529, label %581, label %530

530:                                              ; preds = %520
  %531 = sub nsw i64 %527, %528
  br label %532

532:                                              ; preds = %532, %530
  %533 = phi i64 [ 0, %530 ], [ %578, %532 ]
  %534 = phi i64 [ %531, %530 ], [ %579, %532 ]
  %535 = getelementptr [111 x i16], [111 x i16]* @.str.8, i64 0, i64 %533
  %536 = getelementptr i16, i16* %518, i64 %533
  %537 = bitcast i16* %535 to <8 x i16>*
  %538 = load <8 x i16>, <8 x i16>* %537, align 2
  %539 = getelementptr i16, i16* %535, i64 8
  %540 = bitcast i16* %539 to <8 x i16>*
  %541 = load <8 x i16>, <8 x i16>* %540, align 2
  %542 = bitcast i16* %536 to <8 x i16>*
  store <8 x i16> %538, <8 x i16>* %542, align 2
  %543 = getelementptr i16, i16* %536, i64 8
  %544 = bitcast i16* %543 to <8 x i16>*
  store <8 x i16> %541, <8 x i16>* %544, align 2
  %545 = or i64 %533, 16
  %546 = getelementptr [111 x i16], [111 x i16]* @.str.8, i64 0, i64 %545
  %547 = getelementptr i16, i16* %518, i64 %545
  %548 = bitcast i16* %546 to <8 x i16>*
  %549 = load <8 x i16>, <8 x i16>* %548, align 2
  %550 = getelementptr i16, i16* %546, i64 8
  %551 = bitcast i16* %550 to <8 x i16>*
  %552 = load <8 x i16>, <8 x i16>* %551, align 2
  %553 = bitcast i16* %547 to <8 x i16>*
  store <8 x i16> %549, <8 x i16>* %553, align 2
  %554 = getelementptr i16, i16* %547, i64 8
  %555 = bitcast i16* %554 to <8 x i16>*
  store <8 x i16> %552, <8 x i16>* %555, align 2
  %556 = or i64 %533, 32
  %557 = getelementptr [111 x i16], [111 x i16]* @.str.8, i64 0, i64 %556
  %558 = getelementptr i16, i16* %518, i64 %556
  %559 = bitcast i16* %557 to <8 x i16>*
  %560 = load <8 x i16>, <8 x i16>* %559, align 2
  %561 = getelementptr i16, i16* %557, i64 8
  %562 = bitcast i16* %561 to <8 x i16>*
  %563 = load <8 x i16>, <8 x i16>* %562, align 2
  %564 = bitcast i16* %558 to <8 x i16>*
  store <8 x i16> %560, <8 x i16>* %564, align 2
  %565 = getelementptr i16, i16* %558, i64 8
  %566 = bitcast i16* %565 to <8 x i16>*
  store <8 x i16> %563, <8 x i16>* %566, align 2
  %567 = or i64 %533, 48
  %568 = getelementptr [111 x i16], [111 x i16]* @.str.8, i64 0, i64 %567
  %569 = getelementptr i16, i16* %518, i64 %567
  %570 = bitcast i16* %568 to <8 x i16>*
  %571 = load <8 x i16>, <8 x i16>* %570, align 2
  %572 = getelementptr i16, i16* %568, i64 8
  %573 = bitcast i16* %572 to <8 x i16>*
  %574 = load <8 x i16>, <8 x i16>* %573, align 2
  %575 = bitcast i16* %569 to <8 x i16>*
  store <8 x i16> %571, <8 x i16>* %575, align 2
  %576 = getelementptr i16, i16* %569, i64 8
  %577 = bitcast i16* %576 to <8 x i16>*
  store <8 x i16> %574, <8 x i16>* %577, align 2
  %578 = add i64 %533, 64
  %579 = add i64 %534, -4
  %580 = icmp eq i64 %579, 0
  br i1 %580, label %581, label %532, !llvm.loop !23

581:                                              ; preds = %532, %520
  %582 = phi i64 [ 0, %520 ], [ %578, %532 ]
  %583 = icmp eq i64 %528, 0
  br i1 %583, label %600, label %584

584:                                              ; preds = %581, %584
  %585 = phi i64 [ %597, %584 ], [ %582, %581 ]
  %586 = phi i64 [ %598, %584 ], [ %528, %581 ]
  %587 = getelementptr [111 x i16], [111 x i16]* @.str.8, i64 0, i64 %585
  %588 = getelementptr i16, i16* %518, i64 %585
  %589 = bitcast i16* %587 to <8 x i16>*
  %590 = load <8 x i16>, <8 x i16>* %589, align 2
  %591 = getelementptr i16, i16* %587, i64 8
  %592 = bitcast i16* %591 to <8 x i16>*
  %593 = load <8 x i16>, <8 x i16>* %592, align 2
  %594 = bitcast i16* %588 to <8 x i16>*
  store <8 x i16> %590, <8 x i16>* %594, align 2
  %595 = getelementptr i16, i16* %588, i64 8
  %596 = bitcast i16* %595 to <8 x i16>*
  store <8 x i16> %593, <8 x i16>* %596, align 2
  %597 = add i64 %585, 16
  %598 = add i64 %586, -1
  %599 = icmp eq i64 %598, 0
  br i1 %599, label %600, label %584, !llvm.loop !24

600:                                              ; preds = %584, %581
  %601 = icmp eq i64 %488, %521
  br i1 %601, label %615, label %602

602:                                              ; preds = %600, %517
  %603 = phi i64 [ %488, %517 ], [ %522, %600 ]
  %604 = phi i16* [ getelementptr inbounds ([111 x i16], [111 x i16]* @.str.8, i64 0, i64 0), %517 ], [ %523, %600 ]
  %605 = phi i16* [ %518, %517 ], [ %524, %600 ]
  br label %606

606:                                              ; preds = %602, %606
  %607 = phi i64 [ %611, %606 ], [ %603, %602 ]
  %608 = phi i16* [ %613, %606 ], [ %604, %602 ]
  %609 = phi i16* [ %612, %606 ], [ %605, %602 ]
  %610 = load i16, i16* %608, align 2
  store i16 %610, i16* %609, align 2
  %611 = add i64 %607, -1
  %612 = getelementptr inbounds i16, i16* %609, i64 1
  %613 = getelementptr inbounds i16, i16* %608, i64 1
  %614 = icmp eq i64 %611, 0
  br i1 %614, label %615, label %606, !llvm.loop !25

615:                                              ; preds = %606, %600, %511
  %616 = phi i16* [ %515, %511 ], [ %518, %600 ], [ %518, %606 ]
  %617 = getelementptr inbounds i16, i16* %616, i64 %488
  br label %751

618:                                              ; preds = %484, %618
  %619 = phi i64 [ %621, %618 ], [ 0, %484 ]
  %620 = phi i16* [ %622, %618 ], [ getelementptr inbounds ([112 x i16], [112 x i16]* @.str.9, i64 0, i64 0), %484 ]
  %621 = add i64 %619, 1
  %622 = getelementptr inbounds i16, i16* %620, i64 1
  %623 = load i16, i16* %622, align 2
  %624 = icmp eq i16 %623, 0
  br i1 %624, label %625, label %618

625:                                              ; preds = %618
  %626 = icmp ugt i64 %621, 9223372036854775791
  br i1 %626, label %627, label %629

627:                                              ; preds = %625
  %628 = bitcast %"class.std::__1::basic_string"* %0 to %"class.std::__1::__basic_string_common"*
  call void @_ZNKSt3__121__basic_string_commonILb1EE20__throw_length_errorEv(%"class.std::__1::__basic_string_common"* %628) #11
  unreachable

629:                                              ; preds = %625
  %630 = icmp ult i64 %621, 11
  br i1 %630, label %644, label %631

631:                                              ; preds = %629
  %632 = add nuw nsw i64 %619, 9
  %633 = and i64 %632, -8
  %634 = icmp slt i64 %633, 0
  br i1 %634, label %635, label %636

635:                                              ; preds = %631
  call void @abort() #11
  unreachable

636:                                              ; preds = %631
  %637 = shl i64 %633, 1
  %638 = call i8* @_Znwm(i64 %637) #12
  %639 = bitcast i8* %638 to i16*
  %640 = bitcast %"class.std::__1::basic_string"* %0 to i8**
  store i8* %638, i8** %640, align 8
  %641 = or i64 %633, -9223372036854775808
  %642 = getelementptr inbounds %"class.std::__1::basic_string", %"class.std::__1::basic_string"* %0, i64 0, i32 0, i32 0, i32 0, i32 0, i32 0, i32 2
  store i64 %641, i64* %642, align 8
  %643 = getelementptr inbounds %"class.std::__1::basic_string", %"class.std::__1::basic_string"* %0, i64 0, i32 0, i32 0, i32 0, i32 0, i32 0, i32 1
  store i64 %621, i64* %643, align 8
  br label %650

644:                                              ; preds = %629
  %645 = trunc i64 %621 to i8
  %646 = bitcast %"class.std::__1::basic_string"* %0 to %"struct.std::__1::basic_string<char16_t, std::__1::char_traits<char16_t>, std::__1::allocator<char16_t> >::__short"*
  %647 = getelementptr inbounds %"struct.std::__1::basic_string<char16_t, std::__1::char_traits<char16_t>, std::__1::allocator<char16_t> >::__short", %"struct.std::__1::basic_string<char16_t, std::__1::char_traits<char16_t>, std::__1::allocator<char16_t> >::__short"* %646, i64 0, i32 1, i32 1
  store i8 %645, i8* %647, align 1
  %648 = bitcast %"class.std::__1::basic_string"* %0 to i16*
  %649 = icmp eq i64 %621, 0
  br i1 %649, label %748, label %650

650:                                              ; preds = %644, %636
  %651 = phi i16* [ %639, %636 ], [ %648, %644 ]
  %652 = icmp ult i64 %621, 16
  br i1 %652, label %735, label %653

653:                                              ; preds = %650
  %654 = and i64 %621, -16
  %655 = sub i64 %621, %654
  %656 = getelementptr [112 x i16], [112 x i16]* @.str.9, i64 0, i64 %654
  %657 = getelementptr i16, i16* %651, i64 %654
  %658 = add i64 %654, -16
  %659 = lshr exact i64 %658, 4
  %660 = add nuw nsw i64 %659, 1
  %661 = and i64 %660, 3
  %662 = icmp ult i64 %658, 48
  br i1 %662, label %714, label %663

663:                                              ; preds = %653
  %664 = sub nsw i64 %660, %661
  br label %665

665:                                              ; preds = %665, %663
  %666 = phi i64 [ 0, %663 ], [ %711, %665 ]
  %667 = phi i64 [ %664, %663 ], [ %712, %665 ]
  %668 = getelementptr [112 x i16], [112 x i16]* @.str.9, i64 0, i64 %666
  %669 = getelementptr i16, i16* %651, i64 %666
  %670 = bitcast i16* %668 to <8 x i16>*
  %671 = load <8 x i16>, <8 x i16>* %670, align 2
  %672 = getelementptr i16, i16* %668, i64 8
  %673 = bitcast i16* %672 to <8 x i16>*
  %674 = load <8 x i16>, <8 x i16>* %673, align 2
  %675 = bitcast i16* %669 to <8 x i16>*
  store <8 x i16> %671, <8 x i16>* %675, align 2
  %676 = getelementptr i16, i16* %669, i64 8
  %677 = bitcast i16* %676 to <8 x i16>*
  store <8 x i16> %674, <8 x i16>* %677, align 2
  %678 = or i64 %666, 16
  %679 = getelementptr [112 x i16], [112 x i16]* @.str.9, i64 0, i64 %678
  %680 = getelementptr i16, i16* %651, i64 %678
  %681 = bitcast i16* %679 to <8 x i16>*
  %682 = load <8 x i16>, <8 x i16>* %681, align 2
  %683 = getelementptr i16, i16* %679, i64 8
  %684 = bitcast i16* %683 to <8 x i16>*
  %685 = load <8 x i16>, <8 x i16>* %684, align 2
  %686 = bitcast i16* %680 to <8 x i16>*
  store <8 x i16> %682, <8 x i16>* %686, align 2
  %687 = getelementptr i16, i16* %680, i64 8
  %688 = bitcast i16* %687 to <8 x i16>*
  store <8 x i16> %685, <8 x i16>* %688, align 2
  %689 = or i64 %666, 32
  %690 = getelementptr [112 x i16], [112 x i16]* @.str.9, i64 0, i64 %689
  %691 = getelementptr i16, i16* %651, i64 %689
  %692 = bitcast i16* %690 to <8 x i16>*
  %693 = load <8 x i16>, <8 x i16>* %692, align 2
  %694 = getelementptr i16, i16* %690, i64 8
  %695 = bitcast i16* %694 to <8 x i16>*
  %696 = load <8 x i16>, <8 x i16>* %695, align 2
  %697 = bitcast i16* %691 to <8 x i16>*
  store <8 x i16> %693, <8 x i16>* %697, align 2
  %698 = getelementptr i16, i16* %691, i64 8
  %699 = bitcast i16* %698 to <8 x i16>*
  store <8 x i16> %696, <8 x i16>* %699, align 2
  %700 = or i64 %666, 48
  %701 = getelementptr [112 x i16], [112 x i16]* @.str.9, i64 0, i64 %700
  %702 = getelementptr i16, i16* %651, i64 %700
  %703 = bitcast i16* %701 to <8 x i16>*
  %704 = load <8 x i16>, <8 x i16>* %703, align 2
  %705 = getelementptr i16, i16* %701, i64 8
  %706 = bitcast i16* %705 to <8 x i16>*
  %707 = load <8 x i16>, <8 x i16>* %706, align 2
  %708 = bitcast i16* %702 to <8 x i16>*
  store <8 x i16> %704, <8 x i16>* %708, align 2
  %709 = getelementptr i16, i16* %702, i64 8
  %710 = bitcast i16* %709 to <8 x i16>*
  store <8 x i16> %707, <8 x i16>* %710, align 2
  %711 = add i64 %666, 64
  %712 = add i64 %667, -4
  %713 = icmp eq i64 %712, 0
  br i1 %713, label %714, label %665, !llvm.loop !26

714:                                              ; preds = %665, %653
  %715 = phi i64 [ 0, %653 ], [ %711, %665 ]
  %716 = icmp eq i64 %661, 0
  br i1 %716, label %733, label %717

717:                                              ; preds = %714, %717
  %718 = phi i64 [ %730, %717 ], [ %715, %714 ]
  %719 = phi i64 [ %731, %717 ], [ %661, %714 ]
  %720 = getelementptr [112 x i16], [112 x i16]* @.str.9, i64 0, i64 %718
  %721 = getelementptr i16, i16* %651, i64 %718
  %722 = bitcast i16* %720 to <8 x i16>*
  %723 = load <8 x i16>, <8 x i16>* %722, align 2
  %724 = getelementptr i16, i16* %720, i64 8
  %725 = bitcast i16* %724 to <8 x i16>*
  %726 = load <8 x i16>, <8 x i16>* %725, align 2
  %727 = bitcast i16* %721 to <8 x i16>*
  store <8 x i16> %723, <8 x i16>* %727, align 2
  %728 = getelementptr i16, i16* %721, i64 8
  %729 = bitcast i16* %728 to <8 x i16>*
  store <8 x i16> %726, <8 x i16>* %729, align 2
  %730 = add i64 %718, 16
  %731 = add i64 %719, -1
  %732 = icmp eq i64 %731, 0
  br i1 %732, label %733, label %717, !llvm.loop !27

733:                                              ; preds = %717, %714
  %734 = icmp eq i64 %621, %654
  br i1 %734, label %748, label %735

735:                                              ; preds = %733, %650
  %736 = phi i64 [ %621, %650 ], [ %655, %733 ]
  %737 = phi i16* [ getelementptr inbounds ([112 x i16], [112 x i16]* @.str.9, i64 0, i64 0), %650 ], [ %656, %733 ]
  %738 = phi i16* [ %651, %650 ], [ %657, %733 ]
  br label %739

739:                                              ; preds = %735, %739
  %740 = phi i64 [ %744, %739 ], [ %736, %735 ]
  %741 = phi i16* [ %746, %739 ], [ %737, %735 ]
  %742 = phi i16* [ %745, %739 ], [ %738, %735 ]
  %743 = load i16, i16* %741, align 2
  store i16 %743, i16* %742, align 2
  %744 = add i64 %740, -1
  %745 = getelementptr inbounds i16, i16* %742, i64 1
  %746 = getelementptr inbounds i16, i16* %741, i64 1
  %747 = icmp eq i64 %744, 0
  br i1 %747, label %748, label %739, !llvm.loop !28

748:                                              ; preds = %739, %733, %644
  %749 = phi i16* [ %648, %644 ], [ %651, %733 ], [ %651, %739 ]
  %750 = getelementptr inbounds i16, i16* %749, i64 %621
  br label %751

751:                                              ; preds = %748, %615, %471, %324, %177
  %752 = phi i16* [ %750, %748 ], [ %617, %615 ], [ %473, %471 ], [ %326, %324 ], [ %179, %177 ]
  store i16 0, i16* %752, align 2
  %753 = load i8, i8* %33, align 1
  %754 = icmp slt i8 %753, 0
  br i1 %754, label %755, label %757

755:                                              ; preds = %751
  %756 = load i8*, i8** %7, align 8
  call void @_ZdlPv(i8* %756) #12
  br label %757

757:                                              ; preds = %751, %755
  call void @llvm.lifetime.end.p0i8(i64 24, i8* nonnull %6) #10
  ret void
}

declare void @_ZN4base11UTF16ToUTF8ENS_16BasicStringPieceIDsNSt3__111char_traitsIDsEEEE(%"class.std::__1::basic_string.28"* sret, i16*, i64) local_unnamed_addr #2

; Function Attrs: nounwind ssp uwtable
define hidden void @_ZN8autofill18structured_address13StreetAddress10UnsetValueEv(%"class.autofill::structured_address::StreetAddress"*) unnamed_addr #0 align 2 {
  %2 = bitcast %"class.autofill::structured_address::StreetAddress"* %0 to %"class.autofill::structured_address::AddressComponent"*
  tail call void @_ZN8autofill18structured_address16AddressComponent10UnsetValueEv(%"class.autofill::structured_address::AddressComponent"* %2) #10
  %3 = getelementptr inbounds %"class.autofill::structured_address::StreetAddress", %"class.autofill::structured_address::StreetAddress"* %0, i64 0, i32 6, i32 0, i32 0
  %4 = load %"class.std::__1::basic_string"*, %"class.std::__1::basic_string"** %3, align 8
  %5 = getelementptr inbounds %"class.autofill::structured_address::StreetAddress", %"class.autofill::structured_address::StreetAddress"* %0, i64 0, i32 6, i32 0, i32 1
  %6 = load %"class.std::__1::basic_string"*, %"class.std::__1::basic_string"** %5, align 8
  %7 = icmp eq %"class.std::__1::basic_string"* %6, %4
  br i1 %7, label %20, label %8

8:                                                ; preds = %1, %18
  %9 = phi %"class.std::__1::basic_string"* [ %10, %18 ], [ %6, %1 ]
  %10 = getelementptr inbounds %"class.std::__1::basic_string", %"class.std::__1::basic_string"* %9, i64 -1
  %11 = bitcast %"class.std::__1::basic_string"* %10 to %"struct.std::__1::basic_string<char16_t, std::__1::char_traits<char16_t>, std::__1::allocator<char16_t> >::__short"*
  %12 = getelementptr inbounds %"struct.std::__1::basic_string<char16_t, std::__1::char_traits<char16_t>, std::__1::allocator<char16_t> >::__short", %"struct.std::__1::basic_string<char16_t, std::__1::char_traits<char16_t>, std::__1::allocator<char16_t> >::__short"* %11, i64 0, i32 1, i32 1
  %13 = load i8, i8* %12, align 1
  %14 = icmp slt i8 %13, 0
  br i1 %14, label %15, label %18

15:                                               ; preds = %8
  %16 = bitcast %"class.std::__1::basic_string"* %10 to i8**
  %17 = load i8*, i8** %16, align 8
  tail call void @_ZdlPv(i8* %17) #12
  br label %18

18:                                               ; preds = %15, %8
  %19 = icmp eq %"class.std::__1::basic_string"* %10, %4
  br i1 %19, label %20, label %8

20:                                               ; preds = %18, %1
  store %"class.std::__1::basic_string"* %4, %"class.std::__1::basic_string"** %5, align 8
  ret void
}

declare void @_ZN8autofill18structured_address16AddressComponent10UnsetValueEv(%"class.autofill::structured_address::AddressComponent"*) unnamed_addr #2

; Function Attrs: nounwind ssp uwtable
define hidden void @_ZN8autofill18structured_address13StreetAddress8SetValueENSt3__112basic_stringIDsNS2_11char_traitsIDsEENS2_9allocatorIDsEEEENS0_18VerificationStatusE(%"class.autofill::structured_address::StreetAddress"*, %"class.std::__1::basic_string"* nocapture readonly, i32) unnamed_addr #0 align 2 {
  %4 = alloca %"class.std::__1::basic_string", align 8
  %5 = bitcast %"class.autofill::structured_address::StreetAddress"* %0 to %"class.autofill::structured_address::AddressComponent"*
  %6 = bitcast %"class.std::__1::basic_string"* %1 to %"struct.std::__1::basic_string<char16_t, std::__1::char_traits<char16_t>, std::__1::allocator<char16_t> >::__short"*
  %7 = getelementptr inbounds %"struct.std::__1::basic_string<char16_t, std::__1::char_traits<char16_t>, std::__1::allocator<char16_t> >::__short", %"struct.std::__1::basic_string<char16_t, std::__1::char_traits<char16_t>, std::__1::allocator<char16_t> >::__short"* %6, i64 0, i32 1, i32 1
  %8 = load i8, i8* %7, align 1
  %9 = icmp slt i8 %8, 0
  br i1 %9, label %13, label %10

10:                                               ; preds = %3
  %11 = bitcast %"class.std::__1::basic_string"* %4 to i8*
  %12 = bitcast %"class.std::__1::basic_string"* %1 to i8*
  call void @llvm.memcpy.p0i8.p0i8.i64(i8* nonnull align 8 %11, i8* align 8 %12, i64 24, i1 false) #10
  br label %188

13:                                               ; preds = %3
  %14 = getelementptr inbounds %"class.std::__1::basic_string", %"class.std::__1::basic_string"* %1, i64 0, i32 0, i32 0, i32 0, i32 0, i32 0, i32 0
  %15 = load i16*, i16** %14, align 8
  %16 = getelementptr inbounds %"class.std::__1::basic_string", %"class.std::__1::basic_string"* %1, i64 0, i32 0, i32 0, i32 0, i32 0, i32 0, i32 1
  %17 = load i64, i64* %16, align 8
  %18 = icmp ult i64 %17, 11
  br i1 %18, label %19, label %24

19:                                               ; preds = %13
  %20 = bitcast %"class.std::__1::basic_string"* %4 to i16*
  %21 = trunc i64 %17 to i8
  %22 = bitcast %"class.std::__1::basic_string"* %4 to %"struct.std::__1::basic_string<char16_t, std::__1::char_traits<char16_t>, std::__1::allocator<char16_t> >::__short"*
  %23 = getelementptr inbounds %"struct.std::__1::basic_string<char16_t, std::__1::char_traits<char16_t>, std::__1::allocator<char16_t> >::__short", %"struct.std::__1::basic_string<char16_t, std::__1::char_traits<char16_t>, std::__1::allocator<char16_t> >::__short"* %22, i64 0, i32 1, i32 1
  store i8 %21, i8* %23, align 1
  br label %41

24:                                               ; preds = %13
  %25 = icmp ugt i64 %17, 9223372036854775791
  br i1 %25, label %26, label %28

26:                                               ; preds = %24
  %27 = bitcast %"class.std::__1::basic_string"* %4 to %"class.std::__1::__basic_string_common"*
  call void @_ZNKSt3__121__basic_string_commonILb1EE20__throw_length_errorEv(%"class.std::__1::__basic_string_common"* nonnull %27) #11
  unreachable

28:                                               ; preds = %24
  %29 = add nuw nsw i64 %17, 8
  %30 = and i64 %29, -8
  %31 = icmp slt i64 %30, 0
  br i1 %31, label %32, label %33

32:                                               ; preds = %28
  tail call void @abort() #11
  unreachable

33:                                               ; preds = %28
  %34 = shl i64 %30, 1
  %35 = tail call i8* @_Znwm(i64 %34) #12
  %36 = bitcast i8* %35 to i16*
  %37 = bitcast %"class.std::__1::basic_string"* %4 to i8**
  store i8* %35, i8** %37, align 8
  %38 = or i64 %30, -9223372036854775808
  %39 = getelementptr inbounds %"class.std::__1::basic_string", %"class.std::__1::basic_string"* %4, i64 0, i32 0, i32 0, i32 0, i32 0, i32 0, i32 2
  store i64 %38, i64* %39, align 8
  %40 = getelementptr inbounds %"class.std::__1::basic_string", %"class.std::__1::basic_string"* %4, i64 0, i32 0, i32 0, i32 0, i32 0, i32 0, i32 1
  store i64 %17, i64* %40, align 8
  br label %41

41:                                               ; preds = %33, %19
  %42 = phi i16* [ %20, %19 ], [ %36, %33 ]
  %43 = add nuw nsw i64 %17, 1
  %44 = add i64 %17, 1
  %45 = icmp ult i64 %44, 16
  br i1 %45, label %135, label %46

46:                                               ; preds = %41
  %47 = add i64 %17, 1
  %48 = getelementptr i16, i16* %42, i64 %47
  %49 = getelementptr i16, i16* %15, i64 %47
  %50 = icmp ult i16* %42, %49
  %51 = icmp ult i16* %15, %48
  %52 = and i1 %50, %51
  br i1 %52, label %135, label %53

53:                                               ; preds = %46
  %54 = and i64 %44, -16
  %55 = sub i64 %43, %54
  %56 = getelementptr i16, i16* %15, i64 %54
  %57 = getelementptr i16, i16* %42, i64 %54
  %58 = add i64 %54, -16
  %59 = lshr exact i64 %58, 4
  %60 = add nuw nsw i64 %59, 1
  %61 = and i64 %60, 3
  %62 = icmp ult i64 %58, 48
  br i1 %62, label %114, label %63

63:                                               ; preds = %53
  %64 = sub nsw i64 %60, %61
  br label %65

65:                                               ; preds = %65, %63
  %66 = phi i64 [ 0, %63 ], [ %111, %65 ]
  %67 = phi i64 [ %64, %63 ], [ %112, %65 ]
  %68 = getelementptr i16, i16* %15, i64 %66
  %69 = getelementptr i16, i16* %42, i64 %66
  %70 = bitcast i16* %68 to <8 x i16>*
  %71 = load <8 x i16>, <8 x i16>* %70, align 2, !alias.scope !29
  %72 = getelementptr i16, i16* %68, i64 8
  %73 = bitcast i16* %72 to <8 x i16>*
  %74 = load <8 x i16>, <8 x i16>* %73, align 2, !alias.scope !29
  %75 = bitcast i16* %69 to <8 x i16>*
  store <8 x i16> %71, <8 x i16>* %75, align 2, !alias.scope !32, !noalias !29
  %76 = getelementptr i16, i16* %69, i64 8
  %77 = bitcast i16* %76 to <8 x i16>*
  store <8 x i16> %74, <8 x i16>* %77, align 2, !alias.scope !32, !noalias !29
  %78 = or i64 %66, 16
  %79 = getelementptr i16, i16* %15, i64 %78
  %80 = getelementptr i16, i16* %42, i64 %78
  %81 = bitcast i16* %79 to <8 x i16>*
  %82 = load <8 x i16>, <8 x i16>* %81, align 2, !alias.scope !29
  %83 = getelementptr i16, i16* %79, i64 8
  %84 = bitcast i16* %83 to <8 x i16>*
  %85 = load <8 x i16>, <8 x i16>* %84, align 2, !alias.scope !29
  %86 = bitcast i16* %80 to <8 x i16>*
  store <8 x i16> %82, <8 x i16>* %86, align 2, !alias.scope !32, !noalias !29
  %87 = getelementptr i16, i16* %80, i64 8
  %88 = bitcast i16* %87 to <8 x i16>*
  store <8 x i16> %85, <8 x i16>* %88, align 2, !alias.scope !32, !noalias !29
  %89 = or i64 %66, 32
  %90 = getelementptr i16, i16* %15, i64 %89
  %91 = getelementptr i16, i16* %42, i64 %89
  %92 = bitcast i16* %90 to <8 x i16>*
  %93 = load <8 x i16>, <8 x i16>* %92, align 2, !alias.scope !29
  %94 = getelementptr i16, i16* %90, i64 8
  %95 = bitcast i16* %94 to <8 x i16>*
  %96 = load <8 x i16>, <8 x i16>* %95, align 2, !alias.scope !29
  %97 = bitcast i16* %91 to <8 x i16>*
  store <8 x i16> %93, <8 x i16>* %97, align 2, !alias.scope !32, !noalias !29
  %98 = getelementptr i16, i16* %91, i64 8
  %99 = bitcast i16* %98 to <8 x i16>*
  store <8 x i16> %96, <8 x i16>* %99, align 2, !alias.scope !32, !noalias !29
  %100 = or i64 %66, 48
  %101 = getelementptr i16, i16* %15, i64 %100
  %102 = getelementptr i16, i16* %42, i64 %100
  %103 = bitcast i16* %101 to <8 x i16>*
  %104 = load <8 x i16>, <8 x i16>* %103, align 2, !alias.scope !29
  %105 = getelementptr i16, i16* %101, i64 8
  %106 = bitcast i16* %105 to <8 x i16>*
  %107 = load <8 x i16>, <8 x i16>* %106, align 2, !alias.scope !29
  %108 = bitcast i16* %102 to <8 x i16>*
  store <8 x i16> %104, <8 x i16>* %108, align 2, !alias.scope !32, !noalias !29
  %109 = getelementptr i16, i16* %102, i64 8
  %110 = bitcast i16* %109 to <8 x i16>*
  store <8 x i16> %107, <8 x i16>* %110, align 2, !alias.scope !32, !noalias !29
  %111 = add i64 %66, 64
  %112 = add i64 %67, -4
  %113 = icmp eq i64 %112, 0
  br i1 %113, label %114, label %65, !llvm.loop !34

114:                                              ; preds = %65, %53
  %115 = phi i64 [ 0, %53 ], [ %111, %65 ]
  %116 = icmp eq i64 %61, 0
  br i1 %116, label %133, label %117

117:                                              ; preds = %114, %117
  %118 = phi i64 [ %130, %117 ], [ %115, %114 ]
  %119 = phi i64 [ %131, %117 ], [ %61, %114 ]
  %120 = getelementptr i16, i16* %15, i64 %118
  %121 = getelementptr i16, i16* %42, i64 %118
  %122 = bitcast i16* %120 to <8 x i16>*
  %123 = load <8 x i16>, <8 x i16>* %122, align 2, !alias.scope !29
  %124 = getelementptr i16, i16* %120, i64 8
  %125 = bitcast i16* %124 to <8 x i16>*
  %126 = load <8 x i16>, <8 x i16>* %125, align 2, !alias.scope !29
  %127 = bitcast i16* %121 to <8 x i16>*
  store <8 x i16> %123, <8 x i16>* %127, align 2, !alias.scope !32, !noalias !29
  %128 = getelementptr i16, i16* %121, i64 8
  %129 = bitcast i16* %128 to <8 x i16>*
  store <8 x i16> %126, <8 x i16>* %129, align 2, !alias.scope !32, !noalias !29
  %130 = add i64 %118, 16
  %131 = add i64 %119, -1
  %132 = icmp eq i64 %131, 0
  br i1 %132, label %133, label %117, !llvm.loop !35

133:                                              ; preds = %117, %114
  %134 = icmp eq i64 %44, %54
  br i1 %134, label %188, label %135

135:                                              ; preds = %133, %46, %41
  %136 = phi i64 [ %43, %46 ], [ %43, %41 ], [ %55, %133 ]
  %137 = phi i16* [ %15, %46 ], [ %15, %41 ], [ %56, %133 ]
  %138 = phi i16* [ %42, %46 ], [ %42, %41 ], [ %57, %133 ]
  %139 = add i64 %136, -1
  %140 = and i64 %136, 7
  %141 = icmp eq i64 %140, 0
  br i1 %141, label %153, label %142

142:                                              ; preds = %135, %142
  %143 = phi i64 [ %148, %142 ], [ %136, %135 ]
  %144 = phi i16* [ %150, %142 ], [ %137, %135 ]
  %145 = phi i16* [ %149, %142 ], [ %138, %135 ]
  %146 = phi i64 [ %151, %142 ], [ %140, %135 ]
  %147 = load i16, i16* %144, align 2
  store i16 %147, i16* %145, align 2
  %148 = add i64 %143, -1
  %149 = getelementptr inbounds i16, i16* %145, i64 1
  %150 = getelementptr inbounds i16, i16* %144, i64 1
  %151 = add i64 %146, -1
  %152 = icmp eq i64 %151, 0
  br i1 %152, label %153, label %142, !llvm.loop !36

153:                                              ; preds = %142, %135
  %154 = phi i64 [ %136, %135 ], [ %148, %142 ]
  %155 = phi i16* [ %137, %135 ], [ %150, %142 ]
  %156 = phi i16* [ %138, %135 ], [ %149, %142 ]
  %157 = icmp ult i64 %139, 7
  br i1 %157, label %188, label %158

158:                                              ; preds = %153, %158
  %159 = phi i64 [ %184, %158 ], [ %154, %153 ]
  %160 = phi i16* [ %186, %158 ], [ %155, %153 ]
  %161 = phi i16* [ %185, %158 ], [ %156, %153 ]
  %162 = load i16, i16* %160, align 2
  store i16 %162, i16* %161, align 2
  %163 = getelementptr inbounds i16, i16* %161, i64 1
  %164 = getelementptr inbounds i16, i16* %160, i64 1
  %165 = load i16, i16* %164, align 2
  store i16 %165, i16* %163, align 2
  %166 = getelementptr inbounds i16, i16* %161, i64 2
  %167 = getelementptr inbounds i16, i16* %160, i64 2
  %168 = load i16, i16* %167, align 2
  store i16 %168, i16* %166, align 2
  %169 = getelementptr inbounds i16, i16* %161, i64 3
  %170 = getelementptr inbounds i16, i16* %160, i64 3
  %171 = load i16, i16* %170, align 2
  store i16 %171, i16* %169, align 2
  %172 = getelementptr inbounds i16, i16* %161, i64 4
  %173 = getelementptr inbounds i16, i16* %160, i64 4
  %174 = load i16, i16* %173, align 2
  store i16 %174, i16* %172, align 2
  %175 = getelementptr inbounds i16, i16* %161, i64 5
  %176 = getelementptr inbounds i16, i16* %160, i64 5
  %177 = load i16, i16* %176, align 2
  store i16 %177, i16* %175, align 2
  %178 = getelementptr inbounds i16, i16* %161, i64 6
  %179 = getelementptr inbounds i16, i16* %160, i64 6
  %180 = load i16, i16* %179, align 2
  store i16 %180, i16* %178, align 2
  %181 = getelementptr inbounds i16, i16* %161, i64 7
  %182 = getelementptr inbounds i16, i16* %160, i64 7
  %183 = load i16, i16* %182, align 2
  store i16 %183, i16* %181, align 2
  %184 = add i64 %159, -8
  %185 = getelementptr inbounds i16, i16* %161, i64 8
  %186 = getelementptr inbounds i16, i16* %160, i64 8
  %187 = icmp eq i64 %184, 0
  br i1 %187, label %188, label %158, !llvm.loop !37

188:                                              ; preds = %153, %158, %133, %10
  call void @_ZN8autofill18structured_address16AddressComponent8SetValueENSt3__112basic_stringIDsNS2_11char_traitsIDsEENS2_9allocatorIDsEEEENS0_18VerificationStatusE(%"class.autofill::structured_address::AddressComponent"* %5, %"class.std::__1::basic_string"* nonnull %4, i32 %2) #10
  %189 = bitcast %"class.std::__1::basic_string"* %4 to %"struct.std::__1::basic_string<char16_t, std::__1::char_traits<char16_t>, std::__1::allocator<char16_t> >::__short"*
  %190 = getelementptr inbounds %"struct.std::__1::basic_string<char16_t, std::__1::char_traits<char16_t>, std::__1::allocator<char16_t> >::__short", %"struct.std::__1::basic_string<char16_t, std::__1::char_traits<char16_t>, std::__1::allocator<char16_t> >::__short"* %189, i64 0, i32 1, i32 1
  %191 = load i8, i8* %190, align 1
  %192 = icmp slt i8 %191, 0
  br i1 %192, label %193, label %196

193:                                              ; preds = %188
  %194 = bitcast %"class.std::__1::basic_string"* %4 to i8**
  %195 = load i8*, i8** %194, align 8
  call void @_ZdlPv(i8* %195) #12
  br label %196

196:                                              ; preds = %188, %193
  call void @_ZN8autofill18structured_address13StreetAddress21CalculateAddressLinesEv(%"class.autofill::structured_address::StreetAddress"* %0)
  ret void
}

declare void @_ZN8autofill18structured_address16AddressComponent8SetValueENSt3__112basic_stringIDsNS2_11char_traitsIDsEENS2_9allocatorIDsEEEENS0_18VerificationStatusE(%"class.autofill::structured_address::AddressComponent"*, %"class.std::__1::basic_string"*, i32) unnamed_addr #2

; Function Attrs: nounwind ssp uwtable
define hidden void @_ZN8autofill18structured_address13StreetAddress21CalculateAddressLinesEv(%"class.autofill::structured_address::StreetAddress"*) local_unnamed_addr #0 align 2 {
  %2 = alloca %"class.std::__1::vector.19", align 8
  %3 = alloca %"class.std::__1::basic_string", align 8
  %4 = alloca %"class.std::__1::vector.19", align 8
  %5 = bitcast %"class.std::__1::vector.19"* %2 to i8*
  call void @llvm.lifetime.start.p0i8(i64 24, i8* nonnull %5) #10
  %6 = bitcast %"class.autofill::structured_address::StreetAddress"* %0 to %"class.autofill::structured_address::AddressComponent"*
  %7 = tail call dereferenceable(24) %"class.std::__1::basic_string"* @_ZNK8autofill18structured_address16AddressComponent8GetValueEv(%"class.autofill::structured_address::AddressComponent"* %6) #10
  %8 = bitcast %"class.std::__1::basic_string"* %7 to %"struct.std::__1::basic_string<char16_t, std::__1::char_traits<char16_t>, std::__1::allocator<char16_t> >::__short"*
  %9 = getelementptr inbounds %"struct.std::__1::basic_string<char16_t, std::__1::char_traits<char16_t>, std::__1::allocator<char16_t> >::__short", %"struct.std::__1::basic_string<char16_t, std::__1::char_traits<char16_t>, std::__1::allocator<char16_t> >::__short"* %8, i64 0, i32 1, i32 1
  %10 = load i8, i8* %9, align 1
  %11 = getelementptr inbounds %"class.std::__1::basic_string", %"class.std::__1::basic_string"* %7, i64 0, i32 0, i32 0, i32 0, i32 0, i32 0, i32 0
  %12 = load i16*, i16** %11, align 8
  %13 = bitcast %"class.std::__1::basic_string"* %7 to i16*
  %14 = getelementptr inbounds %"class.std::__1::basic_string", %"class.std::__1::basic_string"* %7, i64 0, i32 0, i32 0, i32 0, i32 0, i32 0, i32 1
  %15 = load i64, i64* %14, align 8
  %16 = zext i8 %10 to i64
  %17 = icmp slt i8 %10, 0
  %18 = select i1 %17, i16* %12, i16* %13
  %19 = select i1 %17, i64 %15, i64 %16
  call void @_ZN4base11SplitStringENS_16BasicStringPieceIDsNSt3__111char_traitsIDsEEEES4_NS_18WhitespaceHandlingENS_11SplitResultE(%"class.std::__1::vector.19"* nonnull sret %2, i16* %18, i64 %19, i16* getelementptr inbounds ([2 x i16], [2 x i16]* @.str.10, i64 0, i64 0), i64 1, i32 1, i32 0) #10
  %20 = getelementptr inbounds %"class.autofill::structured_address::StreetAddress", %"class.autofill::structured_address::StreetAddress"* %0, i64 0, i32 6
  %21 = getelementptr inbounds %"class.std::__1::vector.19", %"class.std::__1::vector.19"* %20, i64 0, i32 0, i32 0
  %22 = load %"class.std::__1::basic_string"*, %"class.std::__1::basic_string"** %21, align 8
  %23 = icmp eq %"class.std::__1::basic_string"* %22, null
  br i1 %23, label %47, label %24

24:                                               ; preds = %1
  %25 = bitcast %"class.std::__1::basic_string"* %22 to i8*
  %26 = getelementptr inbounds %"class.autofill::structured_address::StreetAddress", %"class.autofill::structured_address::StreetAddress"* %0, i64 0, i32 6, i32 0, i32 1
  %27 = load %"class.std::__1::basic_string"*, %"class.std::__1::basic_string"** %26, align 8
  %28 = icmp eq %"class.std::__1::basic_string"* %27, %22
  br i1 %28, label %44, label %29

29:                                               ; preds = %24, %39
  %30 = phi %"class.std::__1::basic_string"* [ %31, %39 ], [ %27, %24 ]
  %31 = getelementptr inbounds %"class.std::__1::basic_string", %"class.std::__1::basic_string"* %30, i64 -1
  %32 = bitcast %"class.std::__1::basic_string"* %31 to %"struct.std::__1::basic_string<char16_t, std::__1::char_traits<char16_t>, std::__1::allocator<char16_t> >::__short"*
  %33 = getelementptr inbounds %"struct.std::__1::basic_string<char16_t, std::__1::char_traits<char16_t>, std::__1::allocator<char16_t> >::__short", %"struct.std::__1::basic_string<char16_t, std::__1::char_traits<char16_t>, std::__1::allocator<char16_t> >::__short"* %32, i64 0, i32 1, i32 1
  %34 = load i8, i8* %33, align 1
  %35 = icmp slt i8 %34, 0
  br i1 %35, label %36, label %39

36:                                               ; preds = %29
  %37 = bitcast %"class.std::__1::basic_string"* %31 to i8**
  %38 = load i8*, i8** %37, align 8
  call void @_ZdlPv(i8* %38) #12
  br label %39

39:                                               ; preds = %36, %29
  %40 = icmp eq %"class.std::__1::basic_string"* %31, %22
  br i1 %40, label %41, label %29

41:                                               ; preds = %39
  %42 = bitcast %"class.std::__1::vector.19"* %20 to i8**
  %43 = load i8*, i8** %42, align 8
  br label %44

44:                                               ; preds = %41, %24
  %45 = phi i8* [ %43, %41 ], [ %25, %24 ]
  store %"class.std::__1::basic_string"* %22, %"class.std::__1::basic_string"** %26, align 8
  call void @_ZdlPv(i8* %45) #12
  %46 = bitcast %"class.std::__1::vector.19"* %20 to i8*
  call void @llvm.memset.p0i8.i64(i8* align 8 %46, i8 0, i64 24, i1 false) #10
  br label %47

47:                                               ; preds = %44, %1
  %48 = bitcast %"class.std::__1::vector.19"* %2 to i64*
  %49 = load i64, i64* %48, align 8
  %50 = bitcast %"class.std::__1::vector.19"* %20 to i64*
  store i64 %49, i64* %50, align 8
  %51 = getelementptr inbounds %"class.std::__1::vector.19", %"class.std::__1::vector.19"* %2, i64 0, i32 0, i32 1
  %52 = getelementptr inbounds %"class.autofill::structured_address::StreetAddress", %"class.autofill::structured_address::StreetAddress"* %0, i64 0, i32 6, i32 0, i32 1
  %53 = bitcast %"class.std::__1::basic_string"** %52 to i64*
  %54 = bitcast %"class.std::__1::basic_string"** %51 to <2 x i64>*
  %55 = load <2 x i64>, <2 x i64>* %54, align 8
  %56 = bitcast %"class.std::__1::basic_string"** %52 to <2 x i64>*
  store <2 x i64> %55, <2 x i64>* %56, align 8
  %57 = extractelement <2 x i64> %55, i32 0
  %58 = inttoptr i64 %57 to %"class.std::__1::basic_string"*
  call void @llvm.lifetime.end.p0i8(i64 24, i8* nonnull %5) #10
  %59 = sub i64 %57, %49
  %60 = sdiv exact i64 %59, 24
  %61 = icmp ugt i64 %60, 3
  br i1 %61, label %62, label %354

62:                                               ; preds = %47
  %63 = inttoptr i64 %49 to %"class.std::__1::basic_string"*
  %64 = bitcast %"class.std::__1::basic_string"* %3 to i8*
  call void @llvm.lifetime.start.p0i8(i64 24, i8* nonnull %64) #10
  %65 = bitcast %"class.std::__1::vector.19"* %4 to i8*
  call void @llvm.lifetime.start.p0i8(i64 24, i8* nonnull %65) #10
  %66 = getelementptr inbounds %"class.std::__1::basic_string", %"class.std::__1::basic_string"* %63, i64 2
  call void @llvm.memset.p0i8.i64(i8* nonnull align 8 %65, i8 0, i64 24, i1 false) #10
  %67 = ptrtoint %"class.std::__1::basic_string"* %66 to i64
  %68 = sub i64 %57, %67
  %69 = sdiv exact i64 %68, 24
  %70 = icmp eq i64 %68, 0
  br i1 %70, label %283, label %71

71:                                               ; preds = %62
  %72 = icmp ugt i64 %69, 768614336404564650
  br i1 %72, label %73, label %75

73:                                               ; preds = %71
  %74 = bitcast %"class.std::__1::vector.19"* %4 to %"class.std::__1::__vector_base_common"*
  call void @_ZNKSt3__120__vector_base_commonILb1EE20__throw_length_errorEv(%"class.std::__1::__vector_base_common"* nonnull %74) #11
  unreachable

75:                                               ; preds = %71
  %76 = call i8* @_Znwm(i64 %68) #12
  %77 = bitcast i8* %76 to %"class.std::__1::basic_string"*
  %78 = getelementptr inbounds %"class.std::__1::vector.19", %"class.std::__1::vector.19"* %4, i64 0, i32 0, i32 1
  %79 = bitcast %"class.std::__1::basic_string"** %78 to i8**
  store i8* %76, i8** %79, align 8
  %80 = bitcast %"class.std::__1::vector.19"* %4 to i8**
  store i8* %76, i8** %80, align 8
  %81 = getelementptr inbounds %"class.std::__1::basic_string", %"class.std::__1::basic_string"* %77, i64 %69
  %82 = getelementptr inbounds %"class.std::__1::vector.19", %"class.std::__1::vector.19"* %4, i64 0, i32 0, i32 2, i32 0, i32 0
  store %"class.std::__1::basic_string"* %81, %"class.std::__1::basic_string"** %82, align 8
  %83 = bitcast %"class.std::__1::basic_string"** %78 to i64*
  %84 = ptrtoint i8* %76 to i64
  %85 = icmp eq %"class.std::__1::basic_string"* %66, %58
  br i1 %85, label %280, label %86

86:                                               ; preds = %75, %272
  %87 = phi %"class.std::__1::basic_string"* [ %274, %272 ], [ %77, %75 ]
  %88 = phi %"class.std::__1::basic_string"* [ %273, %272 ], [ %66, %75 ]
  %89 = bitcast %"class.std::__1::basic_string"* %88 to %"struct.std::__1::basic_string<char16_t, std::__1::char_traits<char16_t>, std::__1::allocator<char16_t> >::__short"*
  %90 = getelementptr inbounds %"struct.std::__1::basic_string<char16_t, std::__1::char_traits<char16_t>, std::__1::allocator<char16_t> >::__short", %"struct.std::__1::basic_string<char16_t, std::__1::char_traits<char16_t>, std::__1::allocator<char16_t> >::__short"* %89, i64 0, i32 1, i32 1
  %91 = load i8, i8* %90, align 1
  %92 = icmp slt i8 %91, 0
  br i1 %92, label %96, label %93

93:                                               ; preds = %86
  %94 = bitcast %"class.std::__1::basic_string"* %87 to i8*
  %95 = bitcast %"class.std::__1::basic_string"* %88 to i8*
  call void @llvm.memcpy.p0i8.p0i8.i64(i8* align 8 %94, i8* align 8 %95, i64 24, i1 false) #10
  br label %272

96:                                               ; preds = %86
  %97 = getelementptr inbounds %"class.std::__1::basic_string", %"class.std::__1::basic_string"* %88, i64 0, i32 0, i32 0, i32 0, i32 0, i32 0, i32 0
  %98 = load i16*, i16** %97, align 8
  %99 = getelementptr inbounds %"class.std::__1::basic_string", %"class.std::__1::basic_string"* %88, i64 0, i32 0, i32 0, i32 0, i32 0, i32 0, i32 1
  %100 = load i64, i64* %99, align 8
  %101 = icmp ult i64 %100, 11
  br i1 %101, label %102, label %107

102:                                              ; preds = %96
  %103 = bitcast %"class.std::__1::basic_string"* %87 to i16*
  %104 = trunc i64 %100 to i8
  %105 = bitcast %"class.std::__1::basic_string"* %87 to %"struct.std::__1::basic_string<char16_t, std::__1::char_traits<char16_t>, std::__1::allocator<char16_t> >::__short"*
  %106 = getelementptr inbounds %"struct.std::__1::basic_string<char16_t, std::__1::char_traits<char16_t>, std::__1::allocator<char16_t> >::__short", %"struct.std::__1::basic_string<char16_t, std::__1::char_traits<char16_t>, std::__1::allocator<char16_t> >::__short"* %105, i64 0, i32 1, i32 1
  store i8 %104, i8* %106, align 1
  br label %124

107:                                              ; preds = %96
  %108 = icmp ugt i64 %100, 9223372036854775791
  br i1 %108, label %109, label %111

109:                                              ; preds = %107
  %110 = bitcast %"class.std::__1::basic_string"* %87 to %"class.std::__1::__basic_string_common"*
  call void @_ZNKSt3__121__basic_string_commonILb1EE20__throw_length_errorEv(%"class.std::__1::__basic_string_common"* %110) #11
  unreachable

111:                                              ; preds = %107
  %112 = add nuw nsw i64 %100, 8
  %113 = and i64 %112, -8
  %114 = icmp slt i64 %113, 0
  br i1 %114, label %115, label %116

115:                                              ; preds = %111
  call void @abort() #11
  unreachable

116:                                              ; preds = %111
  %117 = shl i64 %113, 1
  %118 = call i8* @_Znwm(i64 %117) #12
  %119 = bitcast i8* %118 to i16*
  %120 = bitcast %"class.std::__1::basic_string"* %87 to i8**
  store i8* %118, i8** %120, align 8
  %121 = or i64 %113, -9223372036854775808
  %122 = getelementptr inbounds %"class.std::__1::basic_string", %"class.std::__1::basic_string"* %87, i64 0, i32 0, i32 0, i32 0, i32 0, i32 0, i32 2
  store i64 %121, i64* %122, align 8
  %123 = getelementptr inbounds %"class.std::__1::basic_string", %"class.std::__1::basic_string"* %87, i64 0, i32 0, i32 0, i32 0, i32 0, i32 0, i32 1
  store i64 %100, i64* %123, align 8
  br label %124

124:                                              ; preds = %116, %102
  %125 = phi i16* [ %103, %102 ], [ %119, %116 ]
  %126 = add nuw nsw i64 %100, 1
  %127 = add i64 %100, 1
  %128 = icmp ult i64 %127, 16
  br i1 %128, label %219, label %129

129:                                              ; preds = %124
  %130 = getelementptr i16, i16* %125, i64 1
  %131 = getelementptr i16, i16* %130, i64 %100
  %132 = getelementptr i16, i16* %98, i64 1
  %133 = getelementptr i16, i16* %132, i64 %100
  %134 = icmp ult i16* %125, %133
  %135 = icmp ult i16* %98, %131
  %136 = and i1 %134, %135
  br i1 %136, label %219, label %137

137:                                              ; preds = %129
  %138 = and i64 %127, -16
  %139 = sub i64 %126, %138
  %140 = getelementptr i16, i16* %98, i64 %138
  %141 = getelementptr i16, i16* %125, i64 %138
  %142 = add i64 %138, -16
  %143 = lshr exact i64 %142, 4
  %144 = add nuw nsw i64 %143, 1
  %145 = and i64 %144, 3
  %146 = icmp ult i64 %142, 48
  br i1 %146, label %198, label %147

147:                                              ; preds = %137
  %148 = sub nsw i64 %144, %145
  br label %149

149:                                              ; preds = %149, %147
  %150 = phi i64 [ 0, %147 ], [ %195, %149 ]
  %151 = phi i64 [ %148, %147 ], [ %196, %149 ]
  %152 = getelementptr i16, i16* %98, i64 %150
  %153 = getelementptr i16, i16* %125, i64 %150
  %154 = bitcast i16* %152 to <8 x i16>*
  %155 = load <8 x i16>, <8 x i16>* %154, align 2, !alias.scope !38
  %156 = getelementptr i16, i16* %152, i64 8
  %157 = bitcast i16* %156 to <8 x i16>*
  %158 = load <8 x i16>, <8 x i16>* %157, align 2, !alias.scope !38
  %159 = bitcast i16* %153 to <8 x i16>*
  store <8 x i16> %155, <8 x i16>* %159, align 2, !alias.scope !41, !noalias !38
  %160 = getelementptr i16, i16* %153, i64 8
  %161 = bitcast i16* %160 to <8 x i16>*
  store <8 x i16> %158, <8 x i16>* %161, align 2, !alias.scope !41, !noalias !38
  %162 = or i64 %150, 16
  %163 = getelementptr i16, i16* %98, i64 %162
  %164 = getelementptr i16, i16* %125, i64 %162
  %165 = bitcast i16* %163 to <8 x i16>*
  %166 = load <8 x i16>, <8 x i16>* %165, align 2, !alias.scope !38
  %167 = getelementptr i16, i16* %163, i64 8
  %168 = bitcast i16* %167 to <8 x i16>*
  %169 = load <8 x i16>, <8 x i16>* %168, align 2, !alias.scope !38
  %170 = bitcast i16* %164 to <8 x i16>*
  store <8 x i16> %166, <8 x i16>* %170, align 2, !alias.scope !41, !noalias !38
  %171 = getelementptr i16, i16* %164, i64 8
  %172 = bitcast i16* %171 to <8 x i16>*
  store <8 x i16> %169, <8 x i16>* %172, align 2, !alias.scope !41, !noalias !38
  %173 = or i64 %150, 32
  %174 = getelementptr i16, i16* %98, i64 %173
  %175 = getelementptr i16, i16* %125, i64 %173
  %176 = bitcast i16* %174 to <8 x i16>*
  %177 = load <8 x i16>, <8 x i16>* %176, align 2, !alias.scope !38
  %178 = getelementptr i16, i16* %174, i64 8
  %179 = bitcast i16* %178 to <8 x i16>*
  %180 = load <8 x i16>, <8 x i16>* %179, align 2, !alias.scope !38
  %181 = bitcast i16* %175 to <8 x i16>*
  store <8 x i16> %177, <8 x i16>* %181, align 2, !alias.scope !41, !noalias !38
  %182 = getelementptr i16, i16* %175, i64 8
  %183 = bitcast i16* %182 to <8 x i16>*
  store <8 x i16> %180, <8 x i16>* %183, align 2, !alias.scope !41, !noalias !38
  %184 = or i64 %150, 48
  %185 = getelementptr i16, i16* %98, i64 %184
  %186 = getelementptr i16, i16* %125, i64 %184
  %187 = bitcast i16* %185 to <8 x i16>*
  %188 = load <8 x i16>, <8 x i16>* %187, align 2, !alias.scope !38
  %189 = getelementptr i16, i16* %185, i64 8
  %190 = bitcast i16* %189 to <8 x i16>*
  %191 = load <8 x i16>, <8 x i16>* %190, align 2, !alias.scope !38
  %192 = bitcast i16* %186 to <8 x i16>*
  store <8 x i16> %188, <8 x i16>* %192, align 2, !alias.scope !41, !noalias !38
  %193 = getelementptr i16, i16* %186, i64 8
  %194 = bitcast i16* %193 to <8 x i16>*
  store <8 x i16> %191, <8 x i16>* %194, align 2, !alias.scope !41, !noalias !38
  %195 = add i64 %150, 64
  %196 = add i64 %151, -4
  %197 = icmp eq i64 %196, 0
  br i1 %197, label %198, label %149, !llvm.loop !43

198:                                              ; preds = %149, %137
  %199 = phi i64 [ 0, %137 ], [ %195, %149 ]
  %200 = icmp eq i64 %145, 0
  br i1 %200, label %217, label %201

201:                                              ; preds = %198, %201
  %202 = phi i64 [ %214, %201 ], [ %199, %198 ]
  %203 = phi i64 [ %215, %201 ], [ %145, %198 ]
  %204 = getelementptr i16, i16* %98, i64 %202
  %205 = getelementptr i16, i16* %125, i64 %202
  %206 = bitcast i16* %204 to <8 x i16>*
  %207 = load <8 x i16>, <8 x i16>* %206, align 2, !alias.scope !38
  %208 = getelementptr i16, i16* %204, i64 8
  %209 = bitcast i16* %208 to <8 x i16>*
  %210 = load <8 x i16>, <8 x i16>* %209, align 2, !alias.scope !38
  %211 = bitcast i16* %205 to <8 x i16>*
  store <8 x i16> %207, <8 x i16>* %211, align 2, !alias.scope !41, !noalias !38
  %212 = getelementptr i16, i16* %205, i64 8
  %213 = bitcast i16* %212 to <8 x i16>*
  store <8 x i16> %210, <8 x i16>* %213, align 2, !alias.scope !41, !noalias !38
  %214 = add i64 %202, 16
  %215 = add i64 %203, -1
  %216 = icmp eq i64 %215, 0
  br i1 %216, label %217, label %201, !llvm.loop !44

217:                                              ; preds = %201, %198
  %218 = icmp eq i64 %127, %138
  br i1 %218, label %272, label %219

219:                                              ; preds = %217, %129, %124
  %220 = phi i64 [ %126, %129 ], [ %126, %124 ], [ %139, %217 ]
  %221 = phi i16* [ %98, %129 ], [ %98, %124 ], [ %140, %217 ]
  %222 = phi i16* [ %125, %129 ], [ %125, %124 ], [ %141, %217 ]
  %223 = add i64 %220, -1
  %224 = and i64 %220, 7
  %225 = icmp eq i64 %224, 0
  br i1 %225, label %237, label %226

226:                                              ; preds = %219, %226
  %227 = phi i64 [ %232, %226 ], [ %220, %219 ]
  %228 = phi i16* [ %234, %226 ], [ %221, %219 ]
  %229 = phi i16* [ %233, %226 ], [ %222, %219 ]
  %230 = phi i64 [ %235, %226 ], [ %224, %219 ]
  %231 = load i16, i16* %228, align 2
  store i16 %231, i16* %229, align 2
  %232 = add i64 %227, -1
  %233 = getelementptr inbounds i16, i16* %229, i64 1
  %234 = getelementptr inbounds i16, i16* %228, i64 1
  %235 = add i64 %230, -1
  %236 = icmp eq i64 %235, 0
  br i1 %236, label %237, label %226, !llvm.loop !45

237:                                              ; preds = %226, %219
  %238 = phi i64 [ %220, %219 ], [ %232, %226 ]
  %239 = phi i16* [ %221, %219 ], [ %234, %226 ]
  %240 = phi i16* [ %222, %219 ], [ %233, %226 ]
  %241 = icmp ult i64 %223, 7
  br i1 %241, label %272, label %242

242:                                              ; preds = %237, %242
  %243 = phi i64 [ %268, %242 ], [ %238, %237 ]
  %244 = phi i16* [ %270, %242 ], [ %239, %237 ]
  %245 = phi i16* [ %269, %242 ], [ %240, %237 ]
  %246 = load i16, i16* %244, align 2
  store i16 %246, i16* %245, align 2
  %247 = getelementptr inbounds i16, i16* %245, i64 1
  %248 = getelementptr inbounds i16, i16* %244, i64 1
  %249 = load i16, i16* %248, align 2
  store i16 %249, i16* %247, align 2
  %250 = getelementptr inbounds i16, i16* %245, i64 2
  %251 = getelementptr inbounds i16, i16* %244, i64 2
  %252 = load i16, i16* %251, align 2
  store i16 %252, i16* %250, align 2
  %253 = getelementptr inbounds i16, i16* %245, i64 3
  %254 = getelementptr inbounds i16, i16* %244, i64 3
  %255 = load i16, i16* %254, align 2
  store i16 %255, i16* %253, align 2
  %256 = getelementptr inbounds i16, i16* %245, i64 4
  %257 = getelementptr inbounds i16, i16* %244, i64 4
  %258 = load i16, i16* %257, align 2
  store i16 %258, i16* %256, align 2
  %259 = getelementptr inbounds i16, i16* %245, i64 5
  %260 = getelementptr inbounds i16, i16* %244, i64 5
  %261 = load i16, i16* %260, align 2
  store i16 %261, i16* %259, align 2
  %262 = getelementptr inbounds i16, i16* %245, i64 6
  %263 = getelementptr inbounds i16, i16* %244, i64 6
  %264 = load i16, i16* %263, align 2
  store i16 %264, i16* %262, align 2
  %265 = getelementptr inbounds i16, i16* %245, i64 7
  %266 = getelementptr inbounds i16, i16* %244, i64 7
  %267 = load i16, i16* %266, align 2
  store i16 %267, i16* %265, align 2
  %268 = add i64 %243, -8
  %269 = getelementptr inbounds i16, i16* %245, i64 8
  %270 = getelementptr inbounds i16, i16* %244, i64 8
  %271 = icmp eq i64 %268, 0
  br i1 %271, label %272, label %242, !llvm.loop !46

272:                                              ; preds = %237, %242, %217, %93
  %273 = getelementptr inbounds %"class.std::__1::basic_string", %"class.std::__1::basic_string"* %88, i64 1
  %274 = getelementptr inbounds %"class.std::__1::basic_string", %"class.std::__1::basic_string"* %87, i64 1
  %275 = icmp eq %"class.std::__1::basic_string"* %273, %58
  br i1 %275, label %276, label %86

276:                                              ; preds = %272
  %277 = ptrtoint %"class.std::__1::basic_string"* %274 to i64
  %278 = bitcast %"class.std::__1::vector.19"* %4 to i64*
  %279 = load i64, i64* %278, align 8
  br label %280

280:                                              ; preds = %75, %276
  %281 = phi i64 [ %279, %276 ], [ %84, %75 ]
  %282 = phi i64 [ %277, %276 ], [ %84, %75 ]
  store i64 %282, i64* %83, align 8
  br label %283

283:                                              ; preds = %62, %280
  %284 = phi i64 [ %282, %280 ], [ 0, %62 ]
  %285 = phi i64 [ %281, %280 ], [ 0, %62 ]
  %286 = getelementptr inbounds %"class.std::__1::vector.19", %"class.std::__1::vector.19"* %4, i64 0, i32 0, i32 1
  %287 = sub i64 %284, %285
  %288 = sdiv exact i64 %287, 24
  %289 = inttoptr i64 %285 to %"class.std::__1::basic_string"*
  call void @_ZN4base10JoinStringENS_4spanIKNSt3__112basic_stringIDsNS1_11char_traitsIDsEENS1_9allocatorIDsEEEELm18446744073709551615EEENS_16BasicStringPieceIDsS4_EE(%"class.std::__1::basic_string"* nonnull sret %3, i64 %288, %"class.std::__1::basic_string"* %289, i16* getelementptr inbounds ([2 x i16], [2 x i16]* @.str.11, i64 0, i64 0), i64 1) #10
  %290 = load %"class.std::__1::basic_string"*, %"class.std::__1::basic_string"** %21, align 8
  %291 = getelementptr inbounds %"class.std::__1::basic_string", %"class.std::__1::basic_string"* %290, i64 2
  %292 = bitcast %"class.std::__1::basic_string"* %291 to %"struct.std::__1::basic_string<char16_t, std::__1::char_traits<char16_t>, std::__1::allocator<char16_t> >::__short"*
  %293 = getelementptr inbounds %"struct.std::__1::basic_string<char16_t, std::__1::char_traits<char16_t>, std::__1::allocator<char16_t> >::__short", %"struct.std::__1::basic_string<char16_t, std::__1::char_traits<char16_t>, std::__1::allocator<char16_t> >::__short"* %292, i64 0, i32 1, i32 1
  %294 = load i8, i8* %293, align 1
  %295 = icmp slt i8 %294, 0
  br i1 %295, label %296, label %299

296:                                              ; preds = %283
  %297 = bitcast %"class.std::__1::basic_string"* %291 to i8**
  %298 = load i8*, i8** %297, align 8
  call void @_ZdlPv(i8* %298) #12
  br label %299

299:                                              ; preds = %296, %283
  %300 = bitcast %"class.std::__1::basic_string"* %291 to i8*
  call void @llvm.memcpy.p0i8.p0i8.i64(i8* align 8 %300, i8* nonnull align 8 %64, i64 24, i1 false) #10
  %301 = bitcast %"class.std::__1::basic_string"* %3 to %"struct.std::__1::basic_string<char16_t, std::__1::char_traits<char16_t>, std::__1::allocator<char16_t> >::__short"*
  %302 = getelementptr inbounds %"struct.std::__1::basic_string<char16_t, std::__1::char_traits<char16_t>, std::__1::allocator<char16_t> >::__short", %"struct.std::__1::basic_string<char16_t, std::__1::char_traits<char16_t>, std::__1::allocator<char16_t> >::__short"* %301, i64 0, i32 1, i32 1
  store i8 0, i8* %302, align 1
  %303 = bitcast %"class.std::__1::basic_string"* %3 to i16*
  store i16 0, i16* %303, align 8
  %304 = getelementptr inbounds %"class.std::__1::vector.19", %"class.std::__1::vector.19"* %4, i64 0, i32 0, i32 0
  %305 = load %"class.std::__1::basic_string"*, %"class.std::__1::basic_string"** %304, align 8
  %306 = icmp eq %"class.std::__1::basic_string"* %305, null
  br i1 %306, label %328, label %307

307:                                              ; preds = %299
  %308 = bitcast %"class.std::__1::basic_string"* %305 to i8*
  %309 = load %"class.std::__1::basic_string"*, %"class.std::__1::basic_string"** %286, align 8
  %310 = icmp eq %"class.std::__1::basic_string"* %309, %305
  br i1 %310, label %326, label %311

311:                                              ; preds = %307, %321
  %312 = phi %"class.std::__1::basic_string"* [ %313, %321 ], [ %309, %307 ]
  %313 = getelementptr inbounds %"class.std::__1::basic_string", %"class.std::__1::basic_string"* %312, i64 -1
  %314 = bitcast %"class.std::__1::basic_string"* %313 to %"struct.std::__1::basic_string<char16_t, std::__1::char_traits<char16_t>, std::__1::allocator<char16_t> >::__short"*
  %315 = getelementptr inbounds %"struct.std::__1::basic_string<char16_t, std::__1::char_traits<char16_t>, std::__1::allocator<char16_t> >::__short", %"struct.std::__1::basic_string<char16_t, std::__1::char_traits<char16_t>, std::__1::allocator<char16_t> >::__short"* %314, i64 0, i32 1, i32 1
  %316 = load i8, i8* %315, align 1
  %317 = icmp slt i8 %316, 0
  br i1 %317, label %318, label %321

318:                                              ; preds = %311
  %319 = bitcast %"class.std::__1::basic_string"* %313 to i8**
  %320 = load i8*, i8** %319, align 8
  call void @_ZdlPv(i8* %320) #12
  br label %321

321:                                              ; preds = %318, %311
  %322 = icmp eq %"class.std::__1::basic_string"* %313, %305
  br i1 %322, label %323, label %311

323:                                              ; preds = %321
  %324 = bitcast %"class.std::__1::vector.19"* %4 to i8**
  %325 = load i8*, i8** %324, align 8
  br label %326

326:                                              ; preds = %323, %307
  %327 = phi i8* [ %325, %323 ], [ %308, %307 ]
  store %"class.std::__1::basic_string"* %305, %"class.std::__1::basic_string"** %286, align 8
  call void @_ZdlPv(i8* %327) #12
  br label %328

328:                                              ; preds = %299, %326
  call void @llvm.lifetime.end.p0i8(i64 24, i8* nonnull %65) #10
  call void @llvm.lifetime.end.p0i8(i64 24, i8* nonnull %64) #10
  %329 = load i64, i64* %53, align 8
  %330 = load i64, i64* %50, align 8
  %331 = sub i64 %329, %330
  %332 = sdiv exact i64 %331, 24
  %333 = icmp ugt i64 %332, 3
  br i1 %333, label %334, label %354

334:                                              ; preds = %328
  %335 = inttoptr i64 %329 to %"class.std::__1::basic_string"*
  br label %336

336:                                              ; preds = %334, %348
  %337 = phi i64 [ %330, %334 ], [ %349, %348 ]
  %338 = phi %"class.std::__1::basic_string"* [ %335, %334 ], [ %339, %348 ]
  %339 = getelementptr inbounds %"class.std::__1::basic_string", %"class.std::__1::basic_string"* %338, i64 -1
  %340 = bitcast %"class.std::__1::basic_string"* %339 to %"struct.std::__1::basic_string<char16_t, std::__1::char_traits<char16_t>, std::__1::allocator<char16_t> >::__short"*
  %341 = getelementptr inbounds %"struct.std::__1::basic_string<char16_t, std::__1::char_traits<char16_t>, std::__1::allocator<char16_t> >::__short", %"struct.std::__1::basic_string<char16_t, std::__1::char_traits<char16_t>, std::__1::allocator<char16_t> >::__short"* %340, i64 0, i32 1, i32 1
  %342 = load i8, i8* %341, align 1
  %343 = icmp slt i8 %342, 0
  br i1 %343, label %344, label %348

344:                                              ; preds = %336
  %345 = bitcast %"class.std::__1::basic_string"* %339 to i8**
  %346 = load i8*, i8** %345, align 8
  call void @_ZdlPv(i8* %346) #12
  %347 = load i64, i64* %50, align 8
  br label %348

348:                                              ; preds = %336, %344
  %349 = phi i64 [ %337, %336 ], [ %347, %344 ]
  store %"class.std::__1::basic_string"* %339, %"class.std::__1::basic_string"** %52, align 8
  %350 = ptrtoint %"class.std::__1::basic_string"* %339 to i64
  %351 = sub i64 %350, %349
  %352 = sdiv exact i64 %351, 24
  %353 = icmp ugt i64 %352, 3
  br i1 %353, label %336, label %354

354:                                              ; preds = %348, %328, %47
  ret void
}

declare void @_ZN4base11SplitStringENS_16BasicStringPieceIDsNSt3__111char_traitsIDsEEEES4_NS_18WhitespaceHandlingENS_11SplitResultE(%"class.std::__1::vector.19"* sret, i16*, i64, i16*, i64, i32, i32) local_unnamed_addr #2

declare void @_ZN4base10JoinStringENS_4spanIKNSt3__112basic_stringIDsNS1_11char_traitsIDsEENS1_9allocatorIDsEEEELm18446744073709551615EEENS_16BasicStringPieceIDsS4_EE(%"class.std::__1::basic_string"* sret, i64, %"class.std::__1::basic_string"*, i16*, i64) local_unnamed_addr #2

; Function Attrs: nounwind ssp uwtable
define hidden zeroext i1 @_ZNK8autofill18structured_address13StreetAddress12IsValueValidEv(%"class.autofill::structured_address::StreetAddress"* nocapture readonly) unnamed_addr #0 align 2 {
  %2 = getelementptr inbounds %"class.autofill::structured_address::StreetAddress", %"class.autofill::structured_address::StreetAddress"* %0, i64 0, i32 6, i32 0, i32 0
  %3 = load %"class.std::__1::basic_string"*, %"class.std::__1::basic_string"** %2, align 8
  %4 = getelementptr inbounds %"class.autofill::structured_address::StreetAddress", %"class.autofill::structured_address::StreetAddress"* %0, i64 0, i32 6, i32 0, i32 1
  %5 = load %"class.std::__1::basic_string"*, %"class.std::__1::basic_string"** %4, align 8
  %6 = icmp eq %"class.std::__1::basic_string"* %3, %5
  br i1 %6, label %21, label %7

7:                                                ; preds = %1, %18
  %8 = phi %"class.std::__1::basic_string"* [ %19, %18 ], [ %3, %1 ]
  %9 = bitcast %"class.std::__1::basic_string"* %8 to %"struct.std::__1::basic_string<char16_t, std::__1::char_traits<char16_t>, std::__1::allocator<char16_t> >::__short"*
  %10 = getelementptr inbounds %"struct.std::__1::basic_string<char16_t, std::__1::char_traits<char16_t>, std::__1::allocator<char16_t> >::__short", %"struct.std::__1::basic_string<char16_t, std::__1::char_traits<char16_t>, std::__1::allocator<char16_t> >::__short"* %9, i64 0, i32 1, i32 1
  %11 = load i8, i8* %10, align 1
  %12 = icmp slt i8 %11, 0
  %13 = getelementptr inbounds %"class.std::__1::basic_string", %"class.std::__1::basic_string"* %8, i64 0, i32 0, i32 0, i32 0, i32 0, i32 0, i32 1
  %14 = load i64, i64* %13, align 8
  %15 = zext i8 %11 to i64
  %16 = select i1 %12, i64 %14, i64 %15
  %17 = icmp eq i64 %16, 0
  br i1 %17, label %21, label %18

18:                                               ; preds = %7
  %19 = getelementptr inbounds %"class.std::__1::basic_string", %"class.std::__1::basic_string"* %8, i64 1
  %20 = icmp eq %"class.std::__1::basic_string"* %19, %5
  br i1 %20, label %21, label %7

21:                                               ; preds = %7, %18, %1
  %22 = phi %"class.std::__1::basic_string"* [ %3, %1 ], [ %8, %7 ], [ %5, %18 ]
  %23 = icmp eq %"class.std::__1::basic_string"* %22, %5
  ret i1 %23
}

; Function Attrs: nounwind ssp uwtable
define hidden zeroext i1 @_ZNK8autofill18structured_address13StreetAddress47ConvertAndGetTheValueForAdditionalFieldTypeNameERKNSt3__112basic_stringIcNS2_11char_traitsIcEENS2_9allocatorIcEEEEPNS3_IDsNS4_IDsEENS6_IDsEEEE(%"class.autofill::structured_address::StreetAddress"*, %"class.std::__1::basic_string.28"* nocapture readonly dereferenceable(24), %"class.std::__1::basic_string"*) unnamed_addr #0 align 2 {
  %4 = alloca %"class.std::__1::basic_string.28", align 8
  %5 = alloca %"class.std::__1::basic_string", align 8
  %6 = alloca %"class.std::__1::basic_string.28", align 8
  %7 = alloca %"class.std::__1::basic_string", align 8
  %8 = alloca %"class.std::__1::basic_string.28", align 8
  %9 = alloca %"class.std::__1::basic_string", align 8
  %10 = bitcast %"class.std::__1::basic_string.28"* %4 to i8*
  call void @llvm.lifetime.start.p0i8(i64 24, i8* nonnull %10) #10
  call void @_ZN8autofill12AutofillType23ServerFieldTypeToStringENS_15ServerFieldTypeE(%"class.std::__1::basic_string.28"* nonnull sret %4, i32 30) #10
  %11 = bitcast %"class.std::__1::basic_string.28"* %1 to %"struct.std::__1::basic_string<char, std::__1::char_traits<char>, std::__1::allocator<char> >::__short"*
  %12 = getelementptr inbounds %"struct.std::__1::basic_string<char, std::__1::char_traits<char>, std::__1::allocator<char> >::__short", %"struct.std::__1::basic_string<char, std::__1::char_traits<char>, std::__1::allocator<char> >::__short"* %11, i64 0, i32 1, i32 0
  %13 = load i8, i8* %12, align 1
  %14 = icmp slt i8 %13, 0
  %15 = getelementptr inbounds %"class.std::__1::basic_string.28", %"class.std::__1::basic_string.28"* %1, i64 0, i32 0, i32 0, i32 0, i32 0, i32 0, i32 1
  %16 = load i64, i64* %15, align 8
  %17 = zext i8 %13 to i64
  %18 = select i1 %14, i64 %16, i64 %17
  %19 = bitcast %"class.std::__1::basic_string.28"* %4 to %"struct.std::__1::basic_string<char, std::__1::char_traits<char>, std::__1::allocator<char> >::__short"*
  %20 = getelementptr inbounds %"struct.std::__1::basic_string<char, std::__1::char_traits<char>, std::__1::allocator<char> >::__short", %"struct.std::__1::basic_string<char, std::__1::char_traits<char>, std::__1::allocator<char> >::__short"* %19, i64 0, i32 1, i32 0
  %21 = load i8, i8* %20, align 1
  %22 = icmp slt i8 %21, 0
  %23 = getelementptr inbounds %"class.std::__1::basic_string.28", %"class.std::__1::basic_string.28"* %4, i64 0, i32 0, i32 0, i32 0, i32 0, i32 0, i32 1
  %24 = load i64, i64* %23, align 8
  %25 = zext i8 %21 to i64
  %26 = select i1 %22, i64 %24, i64 %25
  %27 = icmp eq i64 %18, %26
  br i1 %27, label %28, label %59

28:                                               ; preds = %3
  %29 = getelementptr inbounds %"class.std::__1::basic_string.28", %"class.std::__1::basic_string.28"* %1, i64 0, i32 0, i32 0, i32 0, i32 0, i32 0, i32 0
  %30 = load i8*, i8** %29, align 8
  %31 = bitcast %"class.std::__1::basic_string.28"* %1 to i8*
  %32 = select i1 %14, i8* %30, i8* %31
  %33 = getelementptr inbounds %"class.std::__1::basic_string.28", %"class.std::__1::basic_string.28"* %4, i64 0, i32 0, i32 0, i32 0, i32 0, i32 0, i32 0
  %34 = load i8*, i8** %33, align 8
  %35 = select i1 %22, i8* %34, i8* %10
  %36 = icmp eq i64 %18, 0
  br i1 %14, label %43, label %37

37:                                               ; preds = %28
  br i1 %36, label %59, label %38

38:                                               ; preds = %37
  %39 = ptrtoint i8* %30 to i64
  %40 = trunc i64 %39 to i8
  %41 = load i8, i8* %35, align 1
  %42 = icmp eq i8 %41, %40
  br i1 %42, label %47, label %59

43:                                               ; preds = %28
  br i1 %36, label %59, label %44

44:                                               ; preds = %43
  %45 = call i32 @bcmp(i8* %32, i8* %35, i64 %18) #10
  %46 = icmp eq i32 %45, 0
  br label %59

47:                                               ; preds = %38, %54
  %48 = phi i64 [ %51, %54 ], [ %17, %38 ]
  %49 = phi i8* [ %52, %54 ], [ %31, %38 ]
  %50 = phi i8* [ %55, %54 ], [ %35, %38 ]
  %51 = add i64 %48, -1
  %52 = getelementptr inbounds i8, i8* %49, i64 1
  %53 = icmp eq i64 %51, 0
  br i1 %53, label %59, label %54

54:                                               ; preds = %47
  %55 = getelementptr inbounds i8, i8* %50, i64 1
  %56 = load i8, i8* %52, align 1
  %57 = load i8, i8* %55, align 1
  %58 = icmp eq i8 %56, %57
  br i1 %58, label %47, label %59

59:                                               ; preds = %47, %54, %38, %3, %37, %43, %44
  %60 = phi i1 [ false, %3 ], [ %46, %44 ], [ true, %43 ], [ true, %37 ], [ false, %38 ], [ false, %54 ], [ true, %47 ]
  br i1 %22, label %61, label %64

61:                                               ; preds = %59
  %62 = getelementptr inbounds %"class.std::__1::basic_string.28", %"class.std::__1::basic_string.28"* %4, i64 0, i32 0, i32 0, i32 0, i32 0, i32 0, i32 0
  %63 = load i8*, i8** %62, align 8
  call void @_ZdlPv(i8* %63) #12
  br label %64

64:                                               ; preds = %59, %61
  call void @llvm.lifetime.end.p0i8(i64 24, i8* nonnull %10) #10
  br i1 %60, label %65, label %270

65:                                               ; preds = %64
  %66 = icmp eq %"class.std::__1::basic_string"* %2, null
  br i1 %66, label %792, label %67

67:                                               ; preds = %65
  %68 = bitcast %"class.std::__1::basic_string"* %5 to i8*
  call void @llvm.lifetime.start.p0i8(i64 24, i8* nonnull %68) #10
  %69 = getelementptr inbounds %"class.autofill::structured_address::StreetAddress", %"class.autofill::structured_address::StreetAddress"* %0, i64 0, i32 6
  %70 = getelementptr inbounds %"class.autofill::structured_address::StreetAddress", %"class.autofill::structured_address::StreetAddress"* %0, i64 0, i32 6, i32 0, i32 1
  %71 = bitcast %"class.std::__1::basic_string"** %70 to i64*
  %72 = load i64, i64* %71, align 8
  %73 = bitcast %"class.std::__1::vector.19"* %69 to i64*
  %74 = load i64, i64* %73, align 8
  %75 = icmp eq i64 %72, %74
  br i1 %75, label %259, label %76

76:                                               ; preds = %67
  %77 = inttoptr i64 %74 to %"class.std::__1::basic_string"*
  %78 = inttoptr i64 %74 to %"struct.std::__1::basic_string<char16_t, std::__1::char_traits<char16_t>, std::__1::allocator<char16_t> >::__short"*
  %79 = getelementptr inbounds %"struct.std::__1::basic_string<char16_t, std::__1::char_traits<char16_t>, std::__1::allocator<char16_t> >::__short", %"struct.std::__1::basic_string<char16_t, std::__1::char_traits<char16_t>, std::__1::allocator<char16_t> >::__short"* %78, i64 0, i32 1, i32 1
  %80 = load i8, i8* %79, align 1
  %81 = icmp slt i8 %80, 0
  br i1 %81, label %84, label %82

82:                                               ; preds = %76
  %83 = inttoptr i64 %74 to i8*
  call void @llvm.memcpy.p0i8.p0i8.i64(i8* nonnull align 8 %68, i8* align 8 %83, i64 24, i1 false) #10
  br label %260

84:                                               ; preds = %76
  %85 = getelementptr inbounds %"class.std::__1::basic_string", %"class.std::__1::basic_string"* %77, i64 0, i32 0, i32 0, i32 0, i32 0, i32 0, i32 0
  %86 = load i16*, i16** %85, align 8
  %87 = getelementptr inbounds %"class.std::__1::basic_string", %"class.std::__1::basic_string"* %77, i64 0, i32 0, i32 0, i32 0, i32 0, i32 0, i32 1
  %88 = load i64, i64* %87, align 8
  %89 = icmp ult i64 %88, 11
  br i1 %89, label %90, label %95

90:                                               ; preds = %84
  %91 = bitcast %"class.std::__1::basic_string"* %5 to i16*
  %92 = trunc i64 %88 to i8
  %93 = bitcast %"class.std::__1::basic_string"* %5 to %"struct.std::__1::basic_string<char16_t, std::__1::char_traits<char16_t>, std::__1::allocator<char16_t> >::__short"*
  %94 = getelementptr inbounds %"struct.std::__1::basic_string<char16_t, std::__1::char_traits<char16_t>, std::__1::allocator<char16_t> >::__short", %"struct.std::__1::basic_string<char16_t, std::__1::char_traits<char16_t>, std::__1::allocator<char16_t> >::__short"* %93, i64 0, i32 1, i32 1
  store i8 %92, i8* %94, align 1
  br label %112

95:                                               ; preds = %84
  %96 = icmp ugt i64 %88, 9223372036854775791
  br i1 %96, label %97, label %99

97:                                               ; preds = %95
  %98 = bitcast %"class.std::__1::basic_string"* %5 to %"class.std::__1::__basic_string_common"*
  call void @_ZNKSt3__121__basic_string_commonILb1EE20__throw_length_errorEv(%"class.std::__1::__basic_string_common"* nonnull %98) #11
  unreachable

99:                                               ; preds = %95
  %100 = add nuw nsw i64 %88, 8
  %101 = and i64 %100, -8
  %102 = icmp slt i64 %101, 0
  br i1 %102, label %103, label %104

103:                                              ; preds = %99
  call void @abort() #11
  unreachable

104:                                              ; preds = %99
  %105 = shl i64 %101, 1
  %106 = call i8* @_Znwm(i64 %105) #12
  %107 = bitcast i8* %106 to i16*
  %108 = bitcast %"class.std::__1::basic_string"* %5 to i8**
  store i8* %106, i8** %108, align 8
  %109 = or i64 %101, -9223372036854775808
  %110 = getelementptr inbounds %"class.std::__1::basic_string", %"class.std::__1::basic_string"* %5, i64 0, i32 0, i32 0, i32 0, i32 0, i32 0, i32 2
  store i64 %109, i64* %110, align 8
  %111 = getelementptr inbounds %"class.std::__1::basic_string", %"class.std::__1::basic_string"* %5, i64 0, i32 0, i32 0, i32 0, i32 0, i32 0, i32 1
  store i64 %88, i64* %111, align 8
  br label %112

112:                                              ; preds = %104, %90
  %113 = phi i16* [ %91, %90 ], [ %107, %104 ]
  %114 = add nuw nsw i64 %88, 1
  %115 = add i64 %88, 1
  %116 = icmp ult i64 %115, 16
  br i1 %116, label %206, label %117

117:                                              ; preds = %112
  %118 = add i64 %88, 1
  %119 = getelementptr i16, i16* %113, i64 %118
  %120 = getelementptr i16, i16* %86, i64 %118
  %121 = icmp ult i16* %113, %120
  %122 = icmp ult i16* %86, %119
  %123 = and i1 %121, %122
  br i1 %123, label %206, label %124

124:                                              ; preds = %117
  %125 = and i64 %115, -16
  %126 = sub i64 %114, %125
  %127 = getelementptr i16, i16* %86, i64 %125
  %128 = getelementptr i16, i16* %113, i64 %125
  %129 = add i64 %125, -16
  %130 = lshr exact i64 %129, 4
  %131 = add nuw nsw i64 %130, 1
  %132 = and i64 %131, 3
  %133 = icmp ult i64 %129, 48
  br i1 %133, label %185, label %134

134:                                              ; preds = %124
  %135 = sub nsw i64 %131, %132
  br label %136

136:                                              ; preds = %136, %134
  %137 = phi i64 [ 0, %134 ], [ %182, %136 ]
  %138 = phi i64 [ %135, %134 ], [ %183, %136 ]
  %139 = getelementptr i16, i16* %86, i64 %137
  %140 = getelementptr i16, i16* %113, i64 %137
  %141 = bitcast i16* %139 to <8 x i16>*
  %142 = load <8 x i16>, <8 x i16>* %141, align 2, !alias.scope !47
  %143 = getelementptr i16, i16* %139, i64 8
  %144 = bitcast i16* %143 to <8 x i16>*
  %145 = load <8 x i16>, <8 x i16>* %144, align 2, !alias.scope !47
  %146 = bitcast i16* %140 to <8 x i16>*
  store <8 x i16> %142, <8 x i16>* %146, align 2, !alias.scope !50, !noalias !47
  %147 = getelementptr i16, i16* %140, i64 8
  %148 = bitcast i16* %147 to <8 x i16>*
  store <8 x i16> %145, <8 x i16>* %148, align 2, !alias.scope !50, !noalias !47
  %149 = or i64 %137, 16
  %150 = getelementptr i16, i16* %86, i64 %149
  %151 = getelementptr i16, i16* %113, i64 %149
  %152 = bitcast i16* %150 to <8 x i16>*
  %153 = load <8 x i16>, <8 x i16>* %152, align 2, !alias.scope !47
  %154 = getelementptr i16, i16* %150, i64 8
  %155 = bitcast i16* %154 to <8 x i16>*
  %156 = load <8 x i16>, <8 x i16>* %155, align 2, !alias.scope !47
  %157 = bitcast i16* %151 to <8 x i16>*
  store <8 x i16> %153, <8 x i16>* %157, align 2, !alias.scope !50, !noalias !47
  %158 = getelementptr i16, i16* %151, i64 8
  %159 = bitcast i16* %158 to <8 x i16>*
  store <8 x i16> %156, <8 x i16>* %159, align 2, !alias.scope !50, !noalias !47
  %160 = or i64 %137, 32
  %161 = getelementptr i16, i16* %86, i64 %160
  %162 = getelementptr i16, i16* %113, i64 %160
  %163 = bitcast i16* %161 to <8 x i16>*
  %164 = load <8 x i16>, <8 x i16>* %163, align 2, !alias.scope !47
  %165 = getelementptr i16, i16* %161, i64 8
  %166 = bitcast i16* %165 to <8 x i16>*
  %167 = load <8 x i16>, <8 x i16>* %166, align 2, !alias.scope !47
  %168 = bitcast i16* %162 to <8 x i16>*
  store <8 x i16> %164, <8 x i16>* %168, align 2, !alias.scope !50, !noalias !47
  %169 = getelementptr i16, i16* %162, i64 8
  %170 = bitcast i16* %169 to <8 x i16>*
  store <8 x i16> %167, <8 x i16>* %170, align 2, !alias.scope !50, !noalias !47
  %171 = or i64 %137, 48
  %172 = getelementptr i16, i16* %86, i64 %171
  %173 = getelementptr i16, i16* %113, i64 %171
  %174 = bitcast i16* %172 to <8 x i16>*
  %175 = load <8 x i16>, <8 x i16>* %174, align 2, !alias.scope !47
  %176 = getelementptr i16, i16* %172, i64 8
  %177 = bitcast i16* %176 to <8 x i16>*
  %178 = load <8 x i16>, <8 x i16>* %177, align 2, !alias.scope !47
  %179 = bitcast i16* %173 to <8 x i16>*
  store <8 x i16> %175, <8 x i16>* %179, align 2, !alias.scope !50, !noalias !47
  %180 = getelementptr i16, i16* %173, i64 8
  %181 = bitcast i16* %180 to <8 x i16>*
  store <8 x i16> %178, <8 x i16>* %181, align 2, !alias.scope !50, !noalias !47
  %182 = add i64 %137, 64
  %183 = add i64 %138, -4
  %184 = icmp eq i64 %183, 0
  br i1 %184, label %185, label %136, !llvm.loop !52

185:                                              ; preds = %136, %124
  %186 = phi i64 [ 0, %124 ], [ %182, %136 ]
  %187 = icmp eq i64 %132, 0
  br i1 %187, label %204, label %188

188:                                              ; preds = %185, %188
  %189 = phi i64 [ %201, %188 ], [ %186, %185 ]
  %190 = phi i64 [ %202, %188 ], [ %132, %185 ]
  %191 = getelementptr i16, i16* %86, i64 %189
  %192 = getelementptr i16, i16* %113, i64 %189
  %193 = bitcast i16* %191 to <8 x i16>*
  %194 = load <8 x i16>, <8 x i16>* %193, align 2, !alias.scope !47
  %195 = getelementptr i16, i16* %191, i64 8
  %196 = bitcast i16* %195 to <8 x i16>*
  %197 = load <8 x i16>, <8 x i16>* %196, align 2, !alias.scope !47
  %198 = bitcast i16* %192 to <8 x i16>*
  store <8 x i16> %194, <8 x i16>* %198, align 2, !alias.scope !50, !noalias !47
  %199 = getelementptr i16, i16* %192, i64 8
  %200 = bitcast i16* %199 to <8 x i16>*
  store <8 x i16> %197, <8 x i16>* %200, align 2, !alias.scope !50, !noalias !47
  %201 = add i64 %189, 16
  %202 = add i64 %190, -1
  %203 = icmp eq i64 %202, 0
  br i1 %203, label %204, label %188, !llvm.loop !53

204:                                              ; preds = %188, %185
  %205 = icmp eq i64 %115, %125
  br i1 %205, label %260, label %206

206:                                              ; preds = %204, %117, %112
  %207 = phi i64 [ %114, %117 ], [ %114, %112 ], [ %126, %204 ]
  %208 = phi i16* [ %86, %117 ], [ %86, %112 ], [ %127, %204 ]
  %209 = phi i16* [ %113, %117 ], [ %113, %112 ], [ %128, %204 ]
  %210 = add i64 %207, -1
  %211 = and i64 %207, 7
  %212 = icmp eq i64 %211, 0
  br i1 %212, label %224, label %213

213:                                              ; preds = %206, %213
  %214 = phi i64 [ %219, %213 ], [ %207, %206 ]
  %215 = phi i16* [ %221, %213 ], [ %208, %206 ]
  %216 = phi i16* [ %220, %213 ], [ %209, %206 ]
  %217 = phi i64 [ %222, %213 ], [ %211, %206 ]
  %218 = load i16, i16* %215, align 2
  store i16 %218, i16* %216, align 2
  %219 = add i64 %214, -1
  %220 = getelementptr inbounds i16, i16* %216, i64 1
  %221 = getelementptr inbounds i16, i16* %215, i64 1
  %222 = add i64 %217, -1
  %223 = icmp eq i64 %222, 0
  br i1 %223, label %224, label %213, !llvm.loop !54

224:                                              ; preds = %213, %206
  %225 = phi i64 [ %207, %206 ], [ %219, %213 ]
  %226 = phi i16* [ %208, %206 ], [ %221, %213 ]
  %227 = phi i16* [ %209, %206 ], [ %220, %213 ]
  %228 = icmp ult i64 %210, 7
  br i1 %228, label %260, label %229

229:                                              ; preds = %224, %229
  %230 = phi i64 [ %255, %229 ], [ %225, %224 ]
  %231 = phi i16* [ %257, %229 ], [ %226, %224 ]
  %232 = phi i16* [ %256, %229 ], [ %227, %224 ]
  %233 = load i16, i16* %231, align 2
  store i16 %233, i16* %232, align 2
  %234 = getelementptr inbounds i16, i16* %232, i64 1
  %235 = getelementptr inbounds i16, i16* %231, i64 1
  %236 = load i16, i16* %235, align 2
  store i16 %236, i16* %234, align 2
  %237 = getelementptr inbounds i16, i16* %232, i64 2
  %238 = getelementptr inbounds i16, i16* %231, i64 2
  %239 = load i16, i16* %238, align 2
  store i16 %239, i16* %237, align 2
  %240 = getelementptr inbounds i16, i16* %232, i64 3
  %241 = getelementptr inbounds i16, i16* %231, i64 3
  %242 = load i16, i16* %241, align 2
  store i16 %242, i16* %240, align 2
  %243 = getelementptr inbounds i16, i16* %232, i64 4
  %244 = getelementptr inbounds i16, i16* %231, i64 4
  %245 = load i16, i16* %244, align 2
  store i16 %245, i16* %243, align 2
  %246 = getelementptr inbounds i16, i16* %232, i64 5
  %247 = getelementptr inbounds i16, i16* %231, i64 5
  %248 = load i16, i16* %247, align 2
  store i16 %248, i16* %246, align 2
  %249 = getelementptr inbounds i16, i16* %232, i64 6
  %250 = getelementptr inbounds i16, i16* %231, i64 6
  %251 = load i16, i16* %250, align 2
  store i16 %251, i16* %249, align 2
  %252 = getelementptr inbounds i16, i16* %232, i64 7
  %253 = getelementptr inbounds i16, i16* %231, i64 7
  %254 = load i16, i16* %253, align 2
  store i16 %254, i16* %252, align 2
  %255 = add i64 %230, -8
  %256 = getelementptr inbounds i16, i16* %232, i64 8
  %257 = getelementptr inbounds i16, i16* %231, i64 8
  %258 = icmp eq i64 %255, 0
  br i1 %258, label %260, label %229, !llvm.loop !55

259:                                              ; preds = %67
  call void @llvm.memset.p0i8.i64(i8* nonnull align 8 %68, i8 0, i64 24, i1 false) #10
  br label %260

260:                                              ; preds = %224, %229, %204, %82, %259
  %261 = call dereferenceable(24) %"class.std::__1::basic_string"* @_ZNSt3__112basic_stringIDsNS_11char_traitsIDsEENS_9allocatorIDsEEEaSERKS5_(%"class.std::__1::basic_string"* nonnull %2, %"class.std::__1::basic_string"* nonnull dereferenceable(24) %5)
  %262 = bitcast %"class.std::__1::basic_string"* %5 to %"struct.std::__1::basic_string<char16_t, std::__1::char_traits<char16_t>, std::__1::allocator<char16_t> >::__short"*
  %263 = getelementptr inbounds %"struct.std::__1::basic_string<char16_t, std::__1::char_traits<char16_t>, std::__1::allocator<char16_t> >::__short", %"struct.std::__1::basic_string<char16_t, std::__1::char_traits<char16_t>, std::__1::allocator<char16_t> >::__short"* %262, i64 0, i32 1, i32 1
  %264 = load i8, i8* %263, align 1
  %265 = icmp slt i8 %264, 0
  br i1 %265, label %266, label %269

266:                                              ; preds = %260
  %267 = bitcast %"class.std::__1::basic_string"* %5 to i8**
  %268 = load i8*, i8** %267, align 8
  call void @_ZdlPv(i8* %268) #12
  br label %269

269:                                              ; preds = %260, %266
  call void @llvm.lifetime.end.p0i8(i64 24, i8* nonnull %68) #10
  br label %792

270:                                              ; preds = %64
  %271 = bitcast %"class.std::__1::basic_string.28"* %6 to i8*
  call void @llvm.lifetime.start.p0i8(i64 24, i8* nonnull %271) #10
  call void @_ZN8autofill12AutofillType23ServerFieldTypeToStringENS_15ServerFieldTypeE(%"class.std::__1::basic_string.28"* nonnull sret %6, i32 31) #10
  %272 = load i8, i8* %12, align 1
  %273 = icmp slt i8 %272, 0
  %274 = load i64, i64* %15, align 8
  %275 = zext i8 %272 to i64
  %276 = select i1 %273, i64 %274, i64 %275
  %277 = bitcast %"class.std::__1::basic_string.28"* %6 to %"struct.std::__1::basic_string<char, std::__1::char_traits<char>, std::__1::allocator<char> >::__short"*
  %278 = getelementptr inbounds %"struct.std::__1::basic_string<char, std::__1::char_traits<char>, std::__1::allocator<char> >::__short", %"struct.std::__1::basic_string<char, std::__1::char_traits<char>, std::__1::allocator<char> >::__short"* %277, i64 0, i32 1, i32 0
  %279 = load i8, i8* %278, align 1
  %280 = icmp slt i8 %279, 0
  %281 = getelementptr inbounds %"class.std::__1::basic_string.28", %"class.std::__1::basic_string.28"* %6, i64 0, i32 0, i32 0, i32 0, i32 0, i32 0, i32 1
  %282 = load i64, i64* %281, align 8
  %283 = zext i8 %279 to i64
  %284 = select i1 %280, i64 %282, i64 %283
  %285 = icmp eq i64 %276, %284
  br i1 %285, label %286, label %317

286:                                              ; preds = %270
  %287 = getelementptr inbounds %"class.std::__1::basic_string.28", %"class.std::__1::basic_string.28"* %1, i64 0, i32 0, i32 0, i32 0, i32 0, i32 0, i32 0
  %288 = load i8*, i8** %287, align 8
  %289 = bitcast %"class.std::__1::basic_string.28"* %1 to i8*
  %290 = select i1 %273, i8* %288, i8* %289
  %291 = getelementptr inbounds %"class.std::__1::basic_string.28", %"class.std::__1::basic_string.28"* %6, i64 0, i32 0, i32 0, i32 0, i32 0, i32 0, i32 0
  %292 = load i8*, i8** %291, align 8
  %293 = select i1 %280, i8* %292, i8* %271
  %294 = icmp eq i64 %276, 0
  br i1 %273, label %301, label %295

295:                                              ; preds = %286
  br i1 %294, label %317, label %296

296:                                              ; preds = %295
  %297 = ptrtoint i8* %288 to i64
  %298 = trunc i64 %297 to i8
  %299 = load i8, i8* %293, align 1
  %300 = icmp eq i8 %299, %298
  br i1 %300, label %305, label %317

301:                                              ; preds = %286
  br i1 %294, label %317, label %302

302:                                              ; preds = %301
  %303 = call i32 @bcmp(i8* %290, i8* %293, i64 %276) #10
  %304 = icmp eq i32 %303, 0
  br label %317

305:                                              ; preds = %296, %312
  %306 = phi i64 [ %309, %312 ], [ %275, %296 ]
  %307 = phi i8* [ %310, %312 ], [ %289, %296 ]
  %308 = phi i8* [ %313, %312 ], [ %293, %296 ]
  %309 = add i64 %306, -1
  %310 = getelementptr inbounds i8, i8* %307, i64 1
  %311 = icmp eq i64 %309, 0
  br i1 %311, label %317, label %312

312:                                              ; preds = %305
  %313 = getelementptr inbounds i8, i8* %308, i64 1
  %314 = load i8, i8* %310, align 1
  %315 = load i8, i8* %313, align 1
  %316 = icmp eq i8 %314, %315
  br i1 %316, label %305, label %317

317:                                              ; preds = %305, %312, %296, %270, %295, %301, %302
  %318 = phi i1 [ false, %270 ], [ %304, %302 ], [ true, %301 ], [ true, %295 ], [ false, %296 ], [ false, %312 ], [ true, %305 ]
  br i1 %280, label %319, label %322

319:                                              ; preds = %317
  %320 = getelementptr inbounds %"class.std::__1::basic_string.28", %"class.std::__1::basic_string.28"* %6, i64 0, i32 0, i32 0, i32 0, i32 0, i32 0, i32 0
  %321 = load i8*, i8** %320, align 8
  call void @_ZdlPv(i8* %321) #12
  br label %322

322:                                              ; preds = %317, %319
  call void @llvm.lifetime.end.p0i8(i64 24, i8* nonnull %271) #10
  br i1 %318, label %323, label %531

323:                                              ; preds = %322
  %324 = icmp eq %"class.std::__1::basic_string"* %2, null
  br i1 %324, label %792, label %325

325:                                              ; preds = %323
  %326 = bitcast %"class.std::__1::basic_string"* %7 to i8*
  call void @llvm.lifetime.start.p0i8(i64 24, i8* nonnull %326) #10
  %327 = getelementptr inbounds %"class.autofill::structured_address::StreetAddress", %"class.autofill::structured_address::StreetAddress"* %0, i64 0, i32 6
  %328 = getelementptr inbounds %"class.autofill::structured_address::StreetAddress", %"class.autofill::structured_address::StreetAddress"* %0, i64 0, i32 6, i32 0, i32 1
  %329 = bitcast %"class.std::__1::basic_string"** %328 to i64*
  %330 = load i64, i64* %329, align 8
  %331 = bitcast %"class.std::__1::vector.19"* %327 to i64*
  %332 = load i64, i64* %331, align 8
  %333 = sub i64 %330, %332
  %334 = sdiv exact i64 %333, 24
  %335 = icmp ugt i64 %334, 1
  br i1 %335, label %336, label %520

336:                                              ; preds = %325
  %337 = inttoptr i64 %332 to %"class.std::__1::basic_string"*
  %338 = getelementptr inbounds %"class.std::__1::basic_string", %"class.std::__1::basic_string"* %337, i64 1
  %339 = bitcast %"class.std::__1::basic_string"* %338 to %"struct.std::__1::basic_string<char16_t, std::__1::char_traits<char16_t>, std::__1::allocator<char16_t> >::__short"*
  %340 = getelementptr inbounds %"struct.std::__1::basic_string<char16_t, std::__1::char_traits<char16_t>, std::__1::allocator<char16_t> >::__short", %"struct.std::__1::basic_string<char16_t, std::__1::char_traits<char16_t>, std::__1::allocator<char16_t> >::__short"* %339, i64 0, i32 1, i32 1
  %341 = load i8, i8* %340, align 1
  %342 = icmp slt i8 %341, 0
  br i1 %342, label %345, label %343

343:                                              ; preds = %336
  %344 = bitcast %"class.std::__1::basic_string"* %338 to i8*
  call void @llvm.memcpy.p0i8.p0i8.i64(i8* nonnull align 8 %326, i8* align 8 %344, i64 24, i1 false) #10
  br label %521

345:                                              ; preds = %336
  %346 = getelementptr inbounds %"class.std::__1::basic_string", %"class.std::__1::basic_string"* %338, i64 0, i32 0, i32 0, i32 0, i32 0, i32 0, i32 0
  %347 = load i16*, i16** %346, align 8
  %348 = getelementptr inbounds %"class.std::__1::basic_string", %"class.std::__1::basic_string"* %337, i64 1, i32 0, i32 0, i32 0, i32 0, i32 0, i32 1
  %349 = load i64, i64* %348, align 8
  %350 = icmp ult i64 %349, 11
  br i1 %350, label %351, label %356

351:                                              ; preds = %345
  %352 = bitcast %"class.std::__1::basic_string"* %7 to i16*
  %353 = trunc i64 %349 to i8
  %354 = bitcast %"class.std::__1::basic_string"* %7 to %"struct.std::__1::basic_string<char16_t, std::__1::char_traits<char16_t>, std::__1::allocator<char16_t> >::__short"*
  %355 = getelementptr inbounds %"struct.std::__1::basic_string<char16_t, std::__1::char_traits<char16_t>, std::__1::allocator<char16_t> >::__short", %"struct.std::__1::basic_string<char16_t, std::__1::char_traits<char16_t>, std::__1::allocator<char16_t> >::__short"* %354, i64 0, i32 1, i32 1
  store i8 %353, i8* %355, align 1
  br label %373

356:                                              ; preds = %345
  %357 = icmp ugt i64 %349, 9223372036854775791
  br i1 %357, label %358, label %360

358:                                              ; preds = %356
  %359 = bitcast %"class.std::__1::basic_string"* %7 to %"class.std::__1::__basic_string_common"*
  call void @_ZNKSt3__121__basic_string_commonILb1EE20__throw_length_errorEv(%"class.std::__1::__basic_string_common"* nonnull %359) #11
  unreachable

360:                                              ; preds = %356
  %361 = add nuw nsw i64 %349, 8
  %362 = and i64 %361, -8
  %363 = icmp slt i64 %362, 0
  br i1 %363, label %364, label %365

364:                                              ; preds = %360
  call void @abort() #11
  unreachable

365:                                              ; preds = %360
  %366 = shl i64 %362, 1
  %367 = call i8* @_Znwm(i64 %366) #12
  %368 = bitcast i8* %367 to i16*
  %369 = bitcast %"class.std::__1::basic_string"* %7 to i8**
  store i8* %367, i8** %369, align 8
  %370 = or i64 %362, -9223372036854775808
  %371 = getelementptr inbounds %"class.std::__1::basic_string", %"class.std::__1::basic_string"* %7, i64 0, i32 0, i32 0, i32 0, i32 0, i32 0, i32 2
  store i64 %370, i64* %371, align 8
  %372 = getelementptr inbounds %"class.std::__1::basic_string", %"class.std::__1::basic_string"* %7, i64 0, i32 0, i32 0, i32 0, i32 0, i32 0, i32 1
  store i64 %349, i64* %372, align 8
  br label %373

373:                                              ; preds = %365, %351
  %374 = phi i16* [ %352, %351 ], [ %368, %365 ]
  %375 = add nuw nsw i64 %349, 1
  %376 = add i64 %349, 1
  %377 = icmp ult i64 %376, 16
  br i1 %377, label %467, label %378

378:                                              ; preds = %373
  %379 = add i64 %349, 1
  %380 = getelementptr i16, i16* %374, i64 %379
  %381 = getelementptr i16, i16* %347, i64 %379
  %382 = icmp ult i16* %374, %381
  %383 = icmp ult i16* %347, %380
  %384 = and i1 %382, %383
  br i1 %384, label %467, label %385

385:                                              ; preds = %378
  %386 = and i64 %376, -16
  %387 = sub i64 %375, %386
  %388 = getelementptr i16, i16* %347, i64 %386
  %389 = getelementptr i16, i16* %374, i64 %386
  %390 = add i64 %386, -16
  %391 = lshr exact i64 %390, 4
  %392 = add nuw nsw i64 %391, 1
  %393 = and i64 %392, 3
  %394 = icmp ult i64 %390, 48
  br i1 %394, label %446, label %395

395:                                              ; preds = %385
  %396 = sub nsw i64 %392, %393
  br label %397

397:                                              ; preds = %397, %395
  %398 = phi i64 [ 0, %395 ], [ %443, %397 ]
  %399 = phi i64 [ %396, %395 ], [ %444, %397 ]
  %400 = getelementptr i16, i16* %347, i64 %398
  %401 = getelementptr i16, i16* %374, i64 %398
  %402 = bitcast i16* %400 to <8 x i16>*
  %403 = load <8 x i16>, <8 x i16>* %402, align 2, !alias.scope !56
  %404 = getelementptr i16, i16* %400, i64 8
  %405 = bitcast i16* %404 to <8 x i16>*
  %406 = load <8 x i16>, <8 x i16>* %405, align 2, !alias.scope !56
  %407 = bitcast i16* %401 to <8 x i16>*
  store <8 x i16> %403, <8 x i16>* %407, align 2, !alias.scope !59, !noalias !56
  %408 = getelementptr i16, i16* %401, i64 8
  %409 = bitcast i16* %408 to <8 x i16>*
  store <8 x i16> %406, <8 x i16>* %409, align 2, !alias.scope !59, !noalias !56
  %410 = or i64 %398, 16
  %411 = getelementptr i16, i16* %347, i64 %410
  %412 = getelementptr i16, i16* %374, i64 %410
  %413 = bitcast i16* %411 to <8 x i16>*
  %414 = load <8 x i16>, <8 x i16>* %413, align 2, !alias.scope !56
  %415 = getelementptr i16, i16* %411, i64 8
  %416 = bitcast i16* %415 to <8 x i16>*
  %417 = load <8 x i16>, <8 x i16>* %416, align 2, !alias.scope !56
  %418 = bitcast i16* %412 to <8 x i16>*
  store <8 x i16> %414, <8 x i16>* %418, align 2, !alias.scope !59, !noalias !56
  %419 = getelementptr i16, i16* %412, i64 8
  %420 = bitcast i16* %419 to <8 x i16>*
  store <8 x i16> %417, <8 x i16>* %420, align 2, !alias.scope !59, !noalias !56
  %421 = or i64 %398, 32
  %422 = getelementptr i16, i16* %347, i64 %421
  %423 = getelementptr i16, i16* %374, i64 %421
  %424 = bitcast i16* %422 to <8 x i16>*
  %425 = load <8 x i16>, <8 x i16>* %424, align 2, !alias.scope !56
  %426 = getelementptr i16, i16* %422, i64 8
  %427 = bitcast i16* %426 to <8 x i16>*
  %428 = load <8 x i16>, <8 x i16>* %427, align 2, !alias.scope !56
  %429 = bitcast i16* %423 to <8 x i16>*
  store <8 x i16> %425, <8 x i16>* %429, align 2, !alias.scope !59, !noalias !56
  %430 = getelementptr i16, i16* %423, i64 8
  %431 = bitcast i16* %430 to <8 x i16>*
  store <8 x i16> %428, <8 x i16>* %431, align 2, !alias.scope !59, !noalias !56
  %432 = or i64 %398, 48
  %433 = getelementptr i16, i16* %347, i64 %432
  %434 = getelementptr i16, i16* %374, i64 %432
  %435 = bitcast i16* %433 to <8 x i16>*
  %436 = load <8 x i16>, <8 x i16>* %435, align 2, !alias.scope !56
  %437 = getelementptr i16, i16* %433, i64 8
  %438 = bitcast i16* %437 to <8 x i16>*
  %439 = load <8 x i16>, <8 x i16>* %438, align 2, !alias.scope !56
  %440 = bitcast i16* %434 to <8 x i16>*
  store <8 x i16> %436, <8 x i16>* %440, align 2, !alias.scope !59, !noalias !56
  %441 = getelementptr i16, i16* %434, i64 8
  %442 = bitcast i16* %441 to <8 x i16>*
  store <8 x i16> %439, <8 x i16>* %442, align 2, !alias.scope !59, !noalias !56
  %443 = add i64 %398, 64
  %444 = add i64 %399, -4
  %445 = icmp eq i64 %444, 0
  br i1 %445, label %446, label %397, !llvm.loop !61

446:                                              ; preds = %397, %385
  %447 = phi i64 [ 0, %385 ], [ %443, %397 ]
  %448 = icmp eq i64 %393, 0
  br i1 %448, label %465, label %449

449:                                              ; preds = %446, %449
  %450 = phi i64 [ %462, %449 ], [ %447, %446 ]
  %451 = phi i64 [ %463, %449 ], [ %393, %446 ]
  %452 = getelementptr i16, i16* %347, i64 %450
  %453 = getelementptr i16, i16* %374, i64 %450
  %454 = bitcast i16* %452 to <8 x i16>*
  %455 = load <8 x i16>, <8 x i16>* %454, align 2, !alias.scope !56
  %456 = getelementptr i16, i16* %452, i64 8
  %457 = bitcast i16* %456 to <8 x i16>*
  %458 = load <8 x i16>, <8 x i16>* %457, align 2, !alias.scope !56
  %459 = bitcast i16* %453 to <8 x i16>*
  store <8 x i16> %455, <8 x i16>* %459, align 2, !alias.scope !59, !noalias !56
  %460 = getelementptr i16, i16* %453, i64 8
  %461 = bitcast i16* %460 to <8 x i16>*
  store <8 x i16> %458, <8 x i16>* %461, align 2, !alias.scope !59, !noalias !56
  %462 = add i64 %450, 16
  %463 = add i64 %451, -1
  %464 = icmp eq i64 %463, 0
  br i1 %464, label %465, label %449, !llvm.loop !62

465:                                              ; preds = %449, %446
  %466 = icmp eq i64 %376, %386
  br i1 %466, label %521, label %467

467:                                              ; preds = %465, %378, %373
  %468 = phi i64 [ %375, %378 ], [ %375, %373 ], [ %387, %465 ]
  %469 = phi i16* [ %347, %378 ], [ %347, %373 ], [ %388, %465 ]
  %470 = phi i16* [ %374, %378 ], [ %374, %373 ], [ %389, %465 ]
  %471 = add i64 %468, -1
  %472 = and i64 %468, 7
  %473 = icmp eq i64 %472, 0
  br i1 %473, label %485, label %474

474:                                              ; preds = %467, %474
  %475 = phi i64 [ %480, %474 ], [ %468, %467 ]
  %476 = phi i16* [ %482, %474 ], [ %469, %467 ]
  %477 = phi i16* [ %481, %474 ], [ %470, %467 ]
  %478 = phi i64 [ %483, %474 ], [ %472, %467 ]
  %479 = load i16, i16* %476, align 2
  store i16 %479, i16* %477, align 2
  %480 = add i64 %475, -1
  %481 = getelementptr inbounds i16, i16* %477, i64 1
  %482 = getelementptr inbounds i16, i16* %476, i64 1
  %483 = add i64 %478, -1
  %484 = icmp eq i64 %483, 0
  br i1 %484, label %485, label %474, !llvm.loop !63

485:                                              ; preds = %474, %467
  %486 = phi i64 [ %468, %467 ], [ %480, %474 ]
  %487 = phi i16* [ %469, %467 ], [ %482, %474 ]
  %488 = phi i16* [ %470, %467 ], [ %481, %474 ]
  %489 = icmp ult i64 %471, 7
  br i1 %489, label %521, label %490

490:                                              ; preds = %485, %490
  %491 = phi i64 [ %516, %490 ], [ %486, %485 ]
  %492 = phi i16* [ %518, %490 ], [ %487, %485 ]
  %493 = phi i16* [ %517, %490 ], [ %488, %485 ]
  %494 = load i16, i16* %492, align 2
  store i16 %494, i16* %493, align 2
  %495 = getelementptr inbounds i16, i16* %493, i64 1
  %496 = getelementptr inbounds i16, i16* %492, i64 1
  %497 = load i16, i16* %496, align 2
  store i16 %497, i16* %495, align 2
  %498 = getelementptr inbounds i16, i16* %493, i64 2
  %499 = getelementptr inbounds i16, i16* %492, i64 2
  %500 = load i16, i16* %499, align 2
  store i16 %500, i16* %498, align 2
  %501 = getelementptr inbounds i16, i16* %493, i64 3
  %502 = getelementptr inbounds i16, i16* %492, i64 3
  %503 = load i16, i16* %502, align 2
  store i16 %503, i16* %501, align 2
  %504 = getelementptr inbounds i16, i16* %493, i64 4
  %505 = getelementptr inbounds i16, i16* %492, i64 4
  %506 = load i16, i16* %505, align 2
  store i16 %506, i16* %504, align 2
  %507 = getelementptr inbounds i16, i16* %493, i64 5
  %508 = getelementptr inbounds i16, i16* %492, i64 5
  %509 = load i16, i16* %508, align 2
  store i16 %509, i16* %507, align 2
  %510 = getelementptr inbounds i16, i16* %493, i64 6
  %511 = getelementptr inbounds i16, i16* %492, i64 6
  %512 = load i16, i16* %511, align 2
  store i16 %512, i16* %510, align 2
  %513 = getelementptr inbounds i16, i16* %493, i64 7
  %514 = getelementptr inbounds i16, i16* %492, i64 7
  %515 = load i16, i16* %514, align 2
  store i16 %515, i16* %513, align 2
  %516 = add i64 %491, -8
  %517 = getelementptr inbounds i16, i16* %493, i64 8
  %518 = getelementptr inbounds i16, i16* %492, i64 8
  %519 = icmp eq i64 %516, 0
  br i1 %519, label %521, label %490, !llvm.loop !64

520:                                              ; preds = %325
  call void @llvm.memset.p0i8.i64(i8* nonnull align 8 %326, i8 0, i64 24, i1 false) #10
  br label %521

521:                                              ; preds = %485, %490, %465, %343, %520
  %522 = call dereferenceable(24) %"class.std::__1::basic_string"* @_ZNSt3__112basic_stringIDsNS_11char_traitsIDsEENS_9allocatorIDsEEEaSERKS5_(%"class.std::__1::basic_string"* nonnull %2, %"class.std::__1::basic_string"* nonnull dereferenceable(24) %7)
  %523 = bitcast %"class.std::__1::basic_string"* %7 to %"struct.std::__1::basic_string<char16_t, std::__1::char_traits<char16_t>, std::__1::allocator<char16_t> >::__short"*
  %524 = getelementptr inbounds %"struct.std::__1::basic_string<char16_t, std::__1::char_traits<char16_t>, std::__1::allocator<char16_t> >::__short", %"struct.std::__1::basic_string<char16_t, std::__1::char_traits<char16_t>, std::__1::allocator<char16_t> >::__short"* %523, i64 0, i32 1, i32 1
  %525 = load i8, i8* %524, align 1
  %526 = icmp slt i8 %525, 0
  br i1 %526, label %527, label %530

527:                                              ; preds = %521
  %528 = bitcast %"class.std::__1::basic_string"* %7 to i8**
  %529 = load i8*, i8** %528, align 8
  call void @_ZdlPv(i8* %529) #12
  br label %530

530:                                              ; preds = %521, %527
  call void @llvm.lifetime.end.p0i8(i64 24, i8* nonnull %326) #10
  br label %792

531:                                              ; preds = %322
  %532 = bitcast %"class.std::__1::basic_string.28"* %8 to i8*
  call void @llvm.lifetime.start.p0i8(i64 24, i8* nonnull %532) #10
  call void @_ZN8autofill12AutofillType23ServerFieldTypeToStringENS_15ServerFieldTypeE(%"class.std::__1::basic_string.28"* nonnull sret %8, i32 83) #10
  %533 = load i8, i8* %12, align 1
  %534 = icmp slt i8 %533, 0
  %535 = load i64, i64* %15, align 8
  %536 = zext i8 %533 to i64
  %537 = select i1 %534, i64 %535, i64 %536
  %538 = bitcast %"class.std::__1::basic_string.28"* %8 to %"struct.std::__1::basic_string<char, std::__1::char_traits<char>, std::__1::allocator<char> >::__short"*
  %539 = getelementptr inbounds %"struct.std::__1::basic_string<char, std::__1::char_traits<char>, std::__1::allocator<char> >::__short", %"struct.std::__1::basic_string<char, std::__1::char_traits<char>, std::__1::allocator<char> >::__short"* %538, i64 0, i32 1, i32 0
  %540 = load i8, i8* %539, align 1
  %541 = icmp slt i8 %540, 0
  %542 = getelementptr inbounds %"class.std::__1::basic_string.28", %"class.std::__1::basic_string.28"* %8, i64 0, i32 0, i32 0, i32 0, i32 0, i32 0, i32 1
  %543 = load i64, i64* %542, align 8
  %544 = zext i8 %540 to i64
  %545 = select i1 %541, i64 %543, i64 %544
  %546 = icmp eq i64 %537, %545
  br i1 %546, label %547, label %578

547:                                              ; preds = %531
  %548 = getelementptr inbounds %"class.std::__1::basic_string.28", %"class.std::__1::basic_string.28"* %1, i64 0, i32 0, i32 0, i32 0, i32 0, i32 0, i32 0
  %549 = load i8*, i8** %548, align 8
  %550 = bitcast %"class.std::__1::basic_string.28"* %1 to i8*
  %551 = select i1 %534, i8* %549, i8* %550
  %552 = getelementptr inbounds %"class.std::__1::basic_string.28", %"class.std::__1::basic_string.28"* %8, i64 0, i32 0, i32 0, i32 0, i32 0, i32 0, i32 0
  %553 = load i8*, i8** %552, align 8
  %554 = select i1 %541, i8* %553, i8* %532
  %555 = icmp eq i64 %537, 0
  br i1 %534, label %562, label %556

556:                                              ; preds = %547
  br i1 %555, label %578, label %557

557:                                              ; preds = %556
  %558 = ptrtoint i8* %549 to i64
  %559 = trunc i64 %558 to i8
  %560 = load i8, i8* %554, align 1
  %561 = icmp eq i8 %560, %559
  br i1 %561, label %566, label %578

562:                                              ; preds = %547
  br i1 %555, label %578, label %563

563:                                              ; preds = %562
  %564 = call i32 @bcmp(i8* %551, i8* %554, i64 %537) #10
  %565 = icmp eq i32 %564, 0
  br label %578

566:                                              ; preds = %557, %573
  %567 = phi i64 [ %570, %573 ], [ %536, %557 ]
  %568 = phi i8* [ %571, %573 ], [ %550, %557 ]
  %569 = phi i8* [ %574, %573 ], [ %554, %557 ]
  %570 = add i64 %567, -1
  %571 = getelementptr inbounds i8, i8* %568, i64 1
  %572 = icmp eq i64 %570, 0
  br i1 %572, label %578, label %573

573:                                              ; preds = %566
  %574 = getelementptr inbounds i8, i8* %569, i64 1
  %575 = load i8, i8* %571, align 1
  %576 = load i8, i8* %574, align 1
  %577 = icmp eq i8 %575, %576
  br i1 %577, label %566, label %578

578:                                              ; preds = %566, %573, %557, %531, %556, %562, %563
  %579 = phi i1 [ false, %531 ], [ %565, %563 ], [ true, %562 ], [ true, %556 ], [ false, %557 ], [ false, %573 ], [ true, %566 ]
  br i1 %541, label %580, label %583

580:                                              ; preds = %578
  %581 = getelementptr inbounds %"class.std::__1::basic_string.28", %"class.std::__1::basic_string.28"* %8, i64 0, i32 0, i32 0, i32 0, i32 0, i32 0, i32 0
  %582 = load i8*, i8** %581, align 8
  call void @_ZdlPv(i8* %582) #12
  br label %583

583:                                              ; preds = %578, %580
  call void @llvm.lifetime.end.p0i8(i64 24, i8* nonnull %532) #10
  br i1 %579, label %584, label %792

584:                                              ; preds = %583
  %585 = icmp eq %"class.std::__1::basic_string"* %2, null
  br i1 %585, label %792, label %586

586:                                              ; preds = %584
  %587 = bitcast %"class.std::__1::basic_string"* %9 to i8*
  call void @llvm.lifetime.start.p0i8(i64 24, i8* nonnull %587) #10
  %588 = getelementptr inbounds %"class.autofill::structured_address::StreetAddress", %"class.autofill::structured_address::StreetAddress"* %0, i64 0, i32 6
  %589 = getelementptr inbounds %"class.autofill::structured_address::StreetAddress", %"class.autofill::structured_address::StreetAddress"* %0, i64 0, i32 6, i32 0, i32 1
  %590 = bitcast %"class.std::__1::basic_string"** %589 to i64*
  %591 = load i64, i64* %590, align 8
  %592 = bitcast %"class.std::__1::vector.19"* %588 to i64*
  %593 = load i64, i64* %592, align 8
  %594 = sub i64 %591, %593
  %595 = sdiv exact i64 %594, 24
  %596 = icmp ugt i64 %595, 2
  br i1 %596, label %597, label %781

597:                                              ; preds = %586
  %598 = inttoptr i64 %593 to %"class.std::__1::basic_string"*
  %599 = getelementptr inbounds %"class.std::__1::basic_string", %"class.std::__1::basic_string"* %598, i64 2
  %600 = bitcast %"class.std::__1::basic_string"* %599 to %"struct.std::__1::basic_string<char16_t, std::__1::char_traits<char16_t>, std::__1::allocator<char16_t> >::__short"*
  %601 = getelementptr inbounds %"struct.std::__1::basic_string<char16_t, std::__1::char_traits<char16_t>, std::__1::allocator<char16_t> >::__short", %"struct.std::__1::basic_string<char16_t, std::__1::char_traits<char16_t>, std::__1::allocator<char16_t> >::__short"* %600, i64 0, i32 1, i32 1
  %602 = load i8, i8* %601, align 1
  %603 = icmp slt i8 %602, 0
  br i1 %603, label %606, label %604

604:                                              ; preds = %597
  %605 = bitcast %"class.std::__1::basic_string"* %599 to i8*
  call void @llvm.memcpy.p0i8.p0i8.i64(i8* nonnull align 8 %587, i8* align 8 %605, i64 24, i1 false) #10
  br label %782

606:                                              ; preds = %597
  %607 = getelementptr inbounds %"class.std::__1::basic_string", %"class.std::__1::basic_string"* %599, i64 0, i32 0, i32 0, i32 0, i32 0, i32 0, i32 0
  %608 = load i16*, i16** %607, align 8
  %609 = getelementptr inbounds %"class.std::__1::basic_string", %"class.std::__1::basic_string"* %598, i64 2, i32 0, i32 0, i32 0, i32 0, i32 0, i32 1
  %610 = load i64, i64* %609, align 8
  %611 = icmp ult i64 %610, 11
  br i1 %611, label %612, label %617

612:                                              ; preds = %606
  %613 = bitcast %"class.std::__1::basic_string"* %9 to i16*
  %614 = trunc i64 %610 to i8
  %615 = bitcast %"class.std::__1::basic_string"* %9 to %"struct.std::__1::basic_string<char16_t, std::__1::char_traits<char16_t>, std::__1::allocator<char16_t> >::__short"*
  %616 = getelementptr inbounds %"struct.std::__1::basic_string<char16_t, std::__1::char_traits<char16_t>, std::__1::allocator<char16_t> >::__short", %"struct.std::__1::basic_string<char16_t, std::__1::char_traits<char16_t>, std::__1::allocator<char16_t> >::__short"* %615, i64 0, i32 1, i32 1
  store i8 %614, i8* %616, align 1
  br label %634

617:                                              ; preds = %606
  %618 = icmp ugt i64 %610, 9223372036854775791
  br i1 %618, label %619, label %621

619:                                              ; preds = %617
  %620 = bitcast %"class.std::__1::basic_string"* %9 to %"class.std::__1::__basic_string_common"*
  call void @_ZNKSt3__121__basic_string_commonILb1EE20__throw_length_errorEv(%"class.std::__1::__basic_string_common"* nonnull %620) #11
  unreachable

621:                                              ; preds = %617
  %622 = add nuw nsw i64 %610, 8
  %623 = and i64 %622, -8
  %624 = icmp slt i64 %623, 0
  br i1 %624, label %625, label %626

625:                                              ; preds = %621
  call void @abort() #11
  unreachable

626:                                              ; preds = %621
  %627 = shl i64 %623, 1
  %628 = call i8* @_Znwm(i64 %627) #12
  %629 = bitcast i8* %628 to i16*
  %630 = bitcast %"class.std::__1::basic_string"* %9 to i8**
  store i8* %628, i8** %630, align 8
  %631 = or i64 %623, -9223372036854775808
  %632 = getelementptr inbounds %"class.std::__1::basic_string", %"class.std::__1::basic_string"* %9, i64 0, i32 0, i32 0, i32 0, i32 0, i32 0, i32 2
  store i64 %631, i64* %632, align 8
  %633 = getelementptr inbounds %"class.std::__1::basic_string", %"class.std::__1::basic_string"* %9, i64 0, i32 0, i32 0, i32 0, i32 0, i32 0, i32 1
  store i64 %610, i64* %633, align 8
  br label %634

634:                                              ; preds = %626, %612
  %635 = phi i16* [ %613, %612 ], [ %629, %626 ]
  %636 = add nuw nsw i64 %610, 1
  %637 = add i64 %610, 1
  %638 = icmp ult i64 %637, 16
  br i1 %638, label %728, label %639

639:                                              ; preds = %634
  %640 = add i64 %610, 1
  %641 = getelementptr i16, i16* %635, i64 %640
  %642 = getelementptr i16, i16* %608, i64 %640
  %643 = icmp ult i16* %635, %642
  %644 = icmp ult i16* %608, %641
  %645 = and i1 %643, %644
  br i1 %645, label %728, label %646

646:                                              ; preds = %639
  %647 = and i64 %637, -16
  %648 = sub i64 %636, %647
  %649 = getelementptr i16, i16* %608, i64 %647
  %650 = getelementptr i16, i16* %635, i64 %647
  %651 = add i64 %647, -16
  %652 = lshr exact i64 %651, 4
  %653 = add nuw nsw i64 %652, 1
  %654 = and i64 %653, 3
  %655 = icmp ult i64 %651, 48
  br i1 %655, label %707, label %656

656:                                              ; preds = %646
  %657 = sub nsw i64 %653, %654
  br label %658

658:                                              ; preds = %658, %656
  %659 = phi i64 [ 0, %656 ], [ %704, %658 ]
  %660 = phi i64 [ %657, %656 ], [ %705, %658 ]
  %661 = getelementptr i16, i16* %608, i64 %659
  %662 = getelementptr i16, i16* %635, i64 %659
  %663 = bitcast i16* %661 to <8 x i16>*
  %664 = load <8 x i16>, <8 x i16>* %663, align 2, !alias.scope !65
  %665 = getelementptr i16, i16* %661, i64 8
  %666 = bitcast i16* %665 to <8 x i16>*
  %667 = load <8 x i16>, <8 x i16>* %666, align 2, !alias.scope !65
  %668 = bitcast i16* %662 to <8 x i16>*
  store <8 x i16> %664, <8 x i16>* %668, align 2, !alias.scope !68, !noalias !65
  %669 = getelementptr i16, i16* %662, i64 8
  %670 = bitcast i16* %669 to <8 x i16>*
  store <8 x i16> %667, <8 x i16>* %670, align 2, !alias.scope !68, !noalias !65
  %671 = or i64 %659, 16
  %672 = getelementptr i16, i16* %608, i64 %671
  %673 = getelementptr i16, i16* %635, i64 %671
  %674 = bitcast i16* %672 to <8 x i16>*
  %675 = load <8 x i16>, <8 x i16>* %674, align 2, !alias.scope !65
  %676 = getelementptr i16, i16* %672, i64 8
  %677 = bitcast i16* %676 to <8 x i16>*
  %678 = load <8 x i16>, <8 x i16>* %677, align 2, !alias.scope !65
  %679 = bitcast i16* %673 to <8 x i16>*
  store <8 x i16> %675, <8 x i16>* %679, align 2, !alias.scope !68, !noalias !65
  %680 = getelementptr i16, i16* %673, i64 8
  %681 = bitcast i16* %680 to <8 x i16>*
  store <8 x i16> %678, <8 x i16>* %681, align 2, !alias.scope !68, !noalias !65
  %682 = or i64 %659, 32
  %683 = getelementptr i16, i16* %608, i64 %682
  %684 = getelementptr i16, i16* %635, i64 %682
  %685 = bitcast i16* %683 to <8 x i16>*
  %686 = load <8 x i16>, <8 x i16>* %685, align 2, !alias.scope !65
  %687 = getelementptr i16, i16* %683, i64 8
  %688 = bitcast i16* %687 to <8 x i16>*
  %689 = load <8 x i16>, <8 x i16>* %688, align 2, !alias.scope !65
  %690 = bitcast i16* %684 to <8 x i16>*
  store <8 x i16> %686, <8 x i16>* %690, align 2, !alias.scope !68, !noalias !65
  %691 = getelementptr i16, i16* %684, i64 8
  %692 = bitcast i16* %691 to <8 x i16>*
  store <8 x i16> %689, <8 x i16>* %692, align 2, !alias.scope !68, !noalias !65
  %693 = or i64 %659, 48
  %694 = getelementptr i16, i16* %608, i64 %693
  %695 = getelementptr i16, i16* %635, i64 %693
  %696 = bitcast i16* %694 to <8 x i16>*
  %697 = load <8 x i16>, <8 x i16>* %696, align 2, !alias.scope !65
  %698 = getelementptr i16, i16* %694, i64 8
  %699 = bitcast i16* %698 to <8 x i16>*
  %700 = load <8 x i16>, <8 x i16>* %699, align 2, !alias.scope !65
  %701 = bitcast i16* %695 to <8 x i16>*
  store <8 x i16> %697, <8 x i16>* %701, align 2, !alias.scope !68, !noalias !65
  %702 = getelementptr i16, i16* %695, i64 8
  %703 = bitcast i16* %702 to <8 x i16>*
  store <8 x i16> %700, <8 x i16>* %703, align 2, !alias.scope !68, !noalias !65
  %704 = add i64 %659, 64
  %705 = add i64 %660, -4
  %706 = icmp eq i64 %705, 0
  br i1 %706, label %707, label %658, !llvm.loop !70

707:                                              ; preds = %658, %646
  %708 = phi i64 [ 0, %646 ], [ %704, %658 ]
  %709 = icmp eq i64 %654, 0
  br i1 %709, label %726, label %710

710:                                              ; preds = %707, %710
  %711 = phi i64 [ %723, %710 ], [ %708, %707 ]
  %712 = phi i64 [ %724, %710 ], [ %654, %707 ]
  %713 = getelementptr i16, i16* %608, i64 %711
  %714 = getelementptr i16, i16* %635, i64 %711
  %715 = bitcast i16* %713 to <8 x i16>*
  %716 = load <8 x i16>, <8 x i16>* %715, align 2, !alias.scope !65
  %717 = getelementptr i16, i16* %713, i64 8
  %718 = bitcast i16* %717 to <8 x i16>*
  %719 = load <8 x i16>, <8 x i16>* %718, align 2, !alias.scope !65
  %720 = bitcast i16* %714 to <8 x i16>*
  store <8 x i16> %716, <8 x i16>* %720, align 2, !alias.scope !68, !noalias !65
  %721 = getelementptr i16, i16* %714, i64 8
  %722 = bitcast i16* %721 to <8 x i16>*
  store <8 x i16> %719, <8 x i16>* %722, align 2, !alias.scope !68, !noalias !65
  %723 = add i64 %711, 16
  %724 = add i64 %712, -1
  %725 = icmp eq i64 %724, 0
  br i1 %725, label %726, label %710, !llvm.loop !71

726:                                              ; preds = %710, %707
  %727 = icmp eq i64 %637, %647
  br i1 %727, label %782, label %728

728:                                              ; preds = %726, %639, %634
  %729 = phi i64 [ %636, %639 ], [ %636, %634 ], [ %648, %726 ]
  %730 = phi i16* [ %608, %639 ], [ %608, %634 ], [ %649, %726 ]
  %731 = phi i16* [ %635, %639 ], [ %635, %634 ], [ %650, %726 ]
  %732 = add i64 %729, -1
  %733 = and i64 %729, 7
  %734 = icmp eq i64 %733, 0
  br i1 %734, label %746, label %735

735:                                              ; preds = %728, %735
  %736 = phi i64 [ %741, %735 ], [ %729, %728 ]
  %737 = phi i16* [ %743, %735 ], [ %730, %728 ]
  %738 = phi i16* [ %742, %735 ], [ %731, %728 ]
  %739 = phi i64 [ %744, %735 ], [ %733, %728 ]
  %740 = load i16, i16* %737, align 2
  store i16 %740, i16* %738, align 2
  %741 = add i64 %736, -1
  %742 = getelementptr inbounds i16, i16* %738, i64 1
  %743 = getelementptr inbounds i16, i16* %737, i64 1
  %744 = add i64 %739, -1
  %745 = icmp eq i64 %744, 0
  br i1 %745, label %746, label %735, !llvm.loop !72

746:                                              ; preds = %735, %728
  %747 = phi i64 [ %729, %728 ], [ %741, %735 ]
  %748 = phi i16* [ %730, %728 ], [ %743, %735 ]
  %749 = phi i16* [ %731, %728 ], [ %742, %735 ]
  %750 = icmp ult i64 %732, 7
  br i1 %750, label %782, label %751

751:                                              ; preds = %746, %751
  %752 = phi i64 [ %777, %751 ], [ %747, %746 ]
  %753 = phi i16* [ %779, %751 ], [ %748, %746 ]
  %754 = phi i16* [ %778, %751 ], [ %749, %746 ]
  %755 = load i16, i16* %753, align 2
  store i16 %755, i16* %754, align 2
  %756 = getelementptr inbounds i16, i16* %754, i64 1
  %757 = getelementptr inbounds i16, i16* %753, i64 1
  %758 = load i16, i16* %757, align 2
  store i16 %758, i16* %756, align 2
  %759 = getelementptr inbounds i16, i16* %754, i64 2
  %760 = getelementptr inbounds i16, i16* %753, i64 2
  %761 = load i16, i16* %760, align 2
  store i16 %761, i16* %759, align 2
  %762 = getelementptr inbounds i16, i16* %754, i64 3
  %763 = getelementptr inbounds i16, i16* %753, i64 3
  %764 = load i16, i16* %763, align 2
  store i16 %764, i16* %762, align 2
  %765 = getelementptr inbounds i16, i16* %754, i64 4
  %766 = getelementptr inbounds i16, i16* %753, i64 4
  %767 = load i16, i16* %766, align 2
  store i16 %767, i16* %765, align 2
  %768 = getelementptr inbounds i16, i16* %754, i64 5
  %769 = getelementptr inbounds i16, i16* %753, i64 5
  %770 = load i16, i16* %769, align 2
  store i16 %770, i16* %768, align 2
  %771 = getelementptr inbounds i16, i16* %754, i64 6
  %772 = getelementptr inbounds i16, i16* %753, i64 6
  %773 = load i16, i16* %772, align 2
  store i16 %773, i16* %771, align 2
  %774 = getelementptr inbounds i16, i16* %754, i64 7
  %775 = getelementptr inbounds i16, i16* %753, i64 7
  %776 = load i16, i16* %775, align 2
  store i16 %776, i16* %774, align 2
  %777 = add i64 %752, -8
  %778 = getelementptr inbounds i16, i16* %754, i64 8
  %779 = getelementptr inbounds i16, i16* %753, i64 8
  %780 = icmp eq i64 %777, 0
  br i1 %780, label %782, label %751, !llvm.loop !73

781:                                              ; preds = %586
  call void @llvm.memset.p0i8.i64(i8* nonnull align 8 %587, i8 0, i64 24, i1 false) #10
  br label %782

782:                                              ; preds = %746, %751, %726, %604, %781
  %783 = call dereferenceable(24) %"class.std::__1::basic_string"* @_ZNSt3__112basic_stringIDsNS_11char_traitsIDsEENS_9allocatorIDsEEEaSERKS5_(%"class.std::__1::basic_string"* nonnull %2, %"class.std::__1::basic_string"* nonnull dereferenceable(24) %9)
  %784 = bitcast %"class.std::__1::basic_string"* %9 to %"struct.std::__1::basic_string<char16_t, std::__1::char_traits<char16_t>, std::__1::allocator<char16_t> >::__short"*
  %785 = getelementptr inbounds %"struct.std::__1::basic_string<char16_t, std::__1::char_traits<char16_t>, std::__1::allocator<char16_t> >::__short", %"struct.std::__1::basic_string<char16_t, std::__1::char_traits<char16_t>, std::__1::allocator<char16_t> >::__short"* %784, i64 0, i32 1, i32 1
  %786 = load i8, i8* %785, align 1
  %787 = icmp slt i8 %786, 0
  br i1 %787, label %788, label %791

788:                                              ; preds = %782
  %789 = bitcast %"class.std::__1::basic_string"* %9 to i8**
  %790 = load i8*, i8** %789, align 8
  call void @_ZdlPv(i8* %790) #12
  br label %791

791:                                              ; preds = %782, %788
  call void @llvm.lifetime.end.p0i8(i64 24, i8* nonnull %587) #10
  br label %792

792:                                              ; preds = %583, %791, %584, %530, %323, %269, %65
  %793 = phi i1 [ true, %65 ], [ true, %269 ], [ true, %323 ], [ true, %530 ], [ true, %584 ], [ true, %791 ], [ false, %583 ]
  ret i1 %793
}

declare void @_ZN8autofill12AutofillType23ServerFieldTypeToStringENS_15ServerFieldTypeE(%"class.std::__1::basic_string.28"* sret, i32) local_unnamed_addr #2

; Function Attrs: nounwind ssp uwtable
define linkonce_odr hidden dereferenceable(24) %"class.std::__1::basic_string"* @_ZNSt3__112basic_stringIDsNS_11char_traitsIDsEENS_9allocatorIDsEEEaSERKS5_(%"class.std::__1::basic_string"*, %"class.std::__1::basic_string"* dereferenceable(24)) local_unnamed_addr #0 comdat align 2 {
  %3 = bitcast %"class.std::__1::basic_string"* %0 to i8*
  %4 = icmp eq %"class.std::__1::basic_string"* %0, %1
  br i1 %4, label %510, label %5

5:                                                ; preds = %2
  %6 = bitcast %"class.std::__1::basic_string"* %0 to %"struct.std::__1::basic_string<char16_t, std::__1::char_traits<char16_t>, std::__1::allocator<char16_t> >::__short"*
  %7 = getelementptr inbounds %"struct.std::__1::basic_string<char16_t, std::__1::char_traits<char16_t>, std::__1::allocator<char16_t> >::__short", %"struct.std::__1::basic_string<char16_t, std::__1::char_traits<char16_t>, std::__1::allocator<char16_t> >::__short"* %6, i64 0, i32 1, i32 1
  %8 = load i8, i8* %7, align 1
  %9 = icmp slt i8 %8, 0
  %10 = bitcast %"class.std::__1::basic_string"* %1 to %"struct.std::__1::basic_string<char16_t, std::__1::char_traits<char16_t>, std::__1::allocator<char16_t> >::__short"*
  %11 = getelementptr inbounds %"struct.std::__1::basic_string<char16_t, std::__1::char_traits<char16_t>, std::__1::allocator<char16_t> >::__short", %"struct.std::__1::basic_string<char16_t, std::__1::char_traits<char16_t>, std::__1::allocator<char16_t> >::__short"* %10, i64 0, i32 1, i32 1
  %12 = load i8, i8* %11, align 1
  %13 = icmp slt i8 %12, 0
  br i1 %9, label %341, label %14

14:                                               ; preds = %5
  br i1 %13, label %17, label %15

15:                                               ; preds = %14
  %16 = bitcast %"class.std::__1::basic_string"* %1 to i8*
  tail call void @llvm.memcpy.p0i8.p0i8.i64(i8* align 8 %3, i8* align 8 %16, i64 24, i1 false)
  br label %510

17:                                               ; preds = %14
  %18 = getelementptr inbounds %"class.std::__1::basic_string", %"class.std::__1::basic_string"* %1, i64 0, i32 0, i32 0, i32 0, i32 0, i32 0, i32 0
  %19 = load i16*, i16** %18, align 8
  %20 = bitcast i16* %19 to i8*
  %21 = getelementptr inbounds %"class.std::__1::basic_string", %"class.std::__1::basic_string"* %1, i64 0, i32 0, i32 0, i32 0, i32 0, i32 0, i32 1
  %22 = load i64, i64* %21, align 8
  %23 = icmp ult i64 %22, 11
  br i1 %23, label %24, label %175

24:                                               ; preds = %17
  %25 = bitcast %"class.std::__1::basic_string"* %0 to i16*
  %26 = trunc i64 %22 to i8
  store i8 %26, i8* %7, align 1
  %27 = icmp eq i64 %22, 0
  br i1 %27, label %173, label %28

28:                                               ; preds = %24
  %29 = icmp ult i64 %22, 16
  br i1 %29, label %120, label %30

30:                                               ; preds = %28
  %31 = shl i64 %22, 1
  %32 = getelementptr i8, i8* %3, i64 %31
  %33 = getelementptr i16, i16* %19, i64 %22
  %34 = bitcast i16* %33 to %"class.std::__1::basic_string"*
  %35 = icmp ugt %"class.std::__1::basic_string"* %34, %0
  %36 = icmp ugt i8* %32, %20
  %37 = and i1 %35, %36
  br i1 %37, label %120, label %38

38:                                               ; preds = %30
  %39 = and i64 %22, -16
  %40 = sub i64 %22, %39
  %41 = getelementptr i16, i16* %19, i64 %39
  %42 = getelementptr i16, i16* %25, i64 %39
  %43 = add i64 %39, -16
  %44 = lshr exact i64 %43, 4
  %45 = add nuw nsw i64 %44, 1
  %46 = and i64 %45, 3
  %47 = icmp ult i64 %43, 48
  br i1 %47, label %99, label %48

48:                                               ; preds = %38
  %49 = sub nsw i64 %45, %46
  br label %50

50:                                               ; preds = %50, %48
  %51 = phi i64 [ 0, %48 ], [ %96, %50 ]
  %52 = phi i64 [ %49, %48 ], [ %97, %50 ]
  %53 = getelementptr i16, i16* %19, i64 %51
  %54 = getelementptr i16, i16* %25, i64 %51
  %55 = bitcast i16* %53 to <8 x i16>*
  %56 = load <8 x i16>, <8 x i16>* %55, align 2, !alias.scope !74
  %57 = getelementptr i16, i16* %53, i64 8
  %58 = bitcast i16* %57 to <8 x i16>*
  %59 = load <8 x i16>, <8 x i16>* %58, align 2, !alias.scope !74
  %60 = bitcast i16* %54 to <8 x i16>*
  store <8 x i16> %56, <8 x i16>* %60, align 2, !alias.scope !77, !noalias !74
  %61 = getelementptr i16, i16* %54, i64 8
  %62 = bitcast i16* %61 to <8 x i16>*
  store <8 x i16> %59, <8 x i16>* %62, align 2, !alias.scope !77, !noalias !74
  %63 = or i64 %51, 16
  %64 = getelementptr i16, i16* %19, i64 %63
  %65 = getelementptr i16, i16* %25, i64 %63
  %66 = bitcast i16* %64 to <8 x i16>*
  %67 = load <8 x i16>, <8 x i16>* %66, align 2, !alias.scope !74
  %68 = getelementptr i16, i16* %64, i64 8
  %69 = bitcast i16* %68 to <8 x i16>*
  %70 = load <8 x i16>, <8 x i16>* %69, align 2, !alias.scope !74
  %71 = bitcast i16* %65 to <8 x i16>*
  store <8 x i16> %67, <8 x i16>* %71, align 2, !alias.scope !77, !noalias !74
  %72 = getelementptr i16, i16* %65, i64 8
  %73 = bitcast i16* %72 to <8 x i16>*
  store <8 x i16> %70, <8 x i16>* %73, align 2, !alias.scope !77, !noalias !74
  %74 = or i64 %51, 32
  %75 = getelementptr i16, i16* %19, i64 %74
  %76 = getelementptr i16, i16* %25, i64 %74
  %77 = bitcast i16* %75 to <8 x i16>*
  %78 = load <8 x i16>, <8 x i16>* %77, align 2, !alias.scope !74
  %79 = getelementptr i16, i16* %75, i64 8
  %80 = bitcast i16* %79 to <8 x i16>*
  %81 = load <8 x i16>, <8 x i16>* %80, align 2, !alias.scope !74
  %82 = bitcast i16* %76 to <8 x i16>*
  store <8 x i16> %78, <8 x i16>* %82, align 2, !alias.scope !77, !noalias !74
  %83 = getelementptr i16, i16* %76, i64 8
  %84 = bitcast i16* %83 to <8 x i16>*
  store <8 x i16> %81, <8 x i16>* %84, align 2, !alias.scope !77, !noalias !74
  %85 = or i64 %51, 48
  %86 = getelementptr i16, i16* %19, i64 %85
  %87 = getelementptr i16, i16* %25, i64 %85
  %88 = bitcast i16* %86 to <8 x i16>*
  %89 = load <8 x i16>, <8 x i16>* %88, align 2, !alias.scope !74
  %90 = getelementptr i16, i16* %86, i64 8
  %91 = bitcast i16* %90 to <8 x i16>*
  %92 = load <8 x i16>, <8 x i16>* %91, align 2, !alias.scope !74
  %93 = bitcast i16* %87 to <8 x i16>*
  store <8 x i16> %89, <8 x i16>* %93, align 2, !alias.scope !77, !noalias !74
  %94 = getelementptr i16, i16* %87, i64 8
  %95 = bitcast i16* %94 to <8 x i16>*
  store <8 x i16> %92, <8 x i16>* %95, align 2, !alias.scope !77, !noalias !74
  %96 = add i64 %51, 64
  %97 = add i64 %52, -4
  %98 = icmp eq i64 %97, 0
  br i1 %98, label %99, label %50, !llvm.loop !79

99:                                               ; preds = %50, %38
  %100 = phi i64 [ 0, %38 ], [ %96, %50 ]
  %101 = icmp eq i64 %46, 0
  br i1 %101, label %118, label %102

102:                                              ; preds = %99, %102
  %103 = phi i64 [ %115, %102 ], [ %100, %99 ]
  %104 = phi i64 [ %116, %102 ], [ %46, %99 ]
  %105 = getelementptr i16, i16* %19, i64 %103
  %106 = getelementptr i16, i16* %25, i64 %103
  %107 = bitcast i16* %105 to <8 x i16>*
  %108 = load <8 x i16>, <8 x i16>* %107, align 2, !alias.scope !74
  %109 = getelementptr i16, i16* %105, i64 8
  %110 = bitcast i16* %109 to <8 x i16>*
  %111 = load <8 x i16>, <8 x i16>* %110, align 2, !alias.scope !74
  %112 = bitcast i16* %106 to <8 x i16>*
  store <8 x i16> %108, <8 x i16>* %112, align 2, !alias.scope !77, !noalias !74
  %113 = getelementptr i16, i16* %106, i64 8
  %114 = bitcast i16* %113 to <8 x i16>*
  store <8 x i16> %111, <8 x i16>* %114, align 2, !alias.scope !77, !noalias !74
  %115 = add i64 %103, 16
  %116 = add i64 %104, -1
  %117 = icmp eq i64 %116, 0
  br i1 %117, label %118, label %102, !llvm.loop !80

118:                                              ; preds = %102, %99
  %119 = icmp eq i64 %22, %39
  br i1 %119, label %173, label %120

120:                                              ; preds = %118, %30, %28
  %121 = phi i64 [ %22, %30 ], [ %22, %28 ], [ %40, %118 ]
  %122 = phi i16* [ %19, %30 ], [ %19, %28 ], [ %41, %118 ]
  %123 = phi i16* [ %25, %30 ], [ %25, %28 ], [ %42, %118 ]
  %124 = add i64 %121, -1
  %125 = and i64 %121, 7
  %126 = icmp eq i64 %125, 0
  br i1 %126, label %138, label %127

127:                                              ; preds = %120, %127
  %128 = phi i64 [ %133, %127 ], [ %121, %120 ]
  %129 = phi i16* [ %135, %127 ], [ %122, %120 ]
  %130 = phi i16* [ %134, %127 ], [ %123, %120 ]
  %131 = phi i64 [ %136, %127 ], [ %125, %120 ]
  %132 = load i16, i16* %129, align 2
  store i16 %132, i16* %130, align 2
  %133 = add i64 %128, -1
  %134 = getelementptr inbounds i16, i16* %130, i64 1
  %135 = getelementptr inbounds i16, i16* %129, i64 1
  %136 = add i64 %131, -1
  %137 = icmp eq i64 %136, 0
  br i1 %137, label %138, label %127, !llvm.loop !81

138:                                              ; preds = %127, %120
  %139 = phi i64 [ %121, %120 ], [ %133, %127 ]
  %140 = phi i16* [ %122, %120 ], [ %135, %127 ]
  %141 = phi i16* [ %123, %120 ], [ %134, %127 ]
  %142 = icmp ult i64 %124, 7
  br i1 %142, label %173, label %143

143:                                              ; preds = %138, %143
  %144 = phi i64 [ %169, %143 ], [ %139, %138 ]
  %145 = phi i16* [ %171, %143 ], [ %140, %138 ]
  %146 = phi i16* [ %170, %143 ], [ %141, %138 ]
  %147 = load i16, i16* %145, align 2
  store i16 %147, i16* %146, align 2
  %148 = getelementptr inbounds i16, i16* %146, i64 1
  %149 = getelementptr inbounds i16, i16* %145, i64 1
  %150 = load i16, i16* %149, align 2
  store i16 %150, i16* %148, align 2
  %151 = getelementptr inbounds i16, i16* %146, i64 2
  %152 = getelementptr inbounds i16, i16* %145, i64 2
  %153 = load i16, i16* %152, align 2
  store i16 %153, i16* %151, align 2
  %154 = getelementptr inbounds i16, i16* %146, i64 3
  %155 = getelementptr inbounds i16, i16* %145, i64 3
  %156 = load i16, i16* %155, align 2
  store i16 %156, i16* %154, align 2
  %157 = getelementptr inbounds i16, i16* %146, i64 4
  %158 = getelementptr inbounds i16, i16* %145, i64 4
  %159 = load i16, i16* %158, align 2
  store i16 %159, i16* %157, align 2
  %160 = getelementptr inbounds i16, i16* %146, i64 5
  %161 = getelementptr inbounds i16, i16* %145, i64 5
  %162 = load i16, i16* %161, align 2
  store i16 %162, i16* %160, align 2
  %163 = getelementptr inbounds i16, i16* %146, i64 6
  %164 = getelementptr inbounds i16, i16* %145, i64 6
  %165 = load i16, i16* %164, align 2
  store i16 %165, i16* %163, align 2
  %166 = getelementptr inbounds i16, i16* %146, i64 7
  %167 = getelementptr inbounds i16, i16* %145, i64 7
  %168 = load i16, i16* %167, align 2
  store i16 %168, i16* %166, align 2
  %169 = add i64 %144, -8
  %170 = getelementptr inbounds i16, i16* %146, i64 8
  %171 = getelementptr inbounds i16, i16* %145, i64 8
  %172 = icmp eq i64 %169, 0
  br i1 %172, label %173, label %143, !llvm.loop !82

173:                                              ; preds = %138, %143, %118, %24
  %174 = getelementptr inbounds i16, i16* %25, i64 %22
  store i16 0, i16* %174, align 2
  br label %510

175:                                              ; preds = %17
  %176 = add i64 %22, -10
  %177 = icmp ugt i64 %176, 9223372036854775780
  br i1 %177, label %178, label %180

178:                                              ; preds = %175
  %179 = bitcast %"class.std::__1::basic_string"* %0 to %"class.std::__1::__basic_string_common"*
  tail call void @_ZNKSt3__121__basic_string_commonILb1EE20__throw_length_errorEv(%"class.std::__1::__basic_string_common"* %179) #11
  unreachable

180:                                              ; preds = %175
  %181 = icmp ugt i64 %22, 20
  %182 = select i1 %181, i64 %22, i64 20
  %183 = add nuw nsw i64 %182, 8
  %184 = and i64 %183, -8
  %185 = icmp slt i64 %184, 0
  br i1 %185, label %186, label %187

186:                                              ; preds = %180
  tail call void @abort() #11
  unreachable

187:                                              ; preds = %180
  %188 = shl i64 %184, 1
  %189 = tail call i8* @_Znwm(i64 %188) #12
  %190 = bitcast i8* %189 to i16*
  %191 = icmp ult i64 %22, 16
  br i1 %191, label %282, label %192

192:                                              ; preds = %187
  %193 = shl i64 %22, 1
  %194 = getelementptr i8, i8* %189, i64 %193
  %195 = getelementptr i16, i16* %19, i64 %22
  %196 = bitcast i16* %195 to i8*
  %197 = icmp ult i8* %189, %196
  %198 = icmp ugt i8* %194, %20
  %199 = and i1 %197, %198
  br i1 %199, label %282, label %200

200:                                              ; preds = %192
  %201 = and i64 %22, -16
  %202 = sub i64 %22, %201
  %203 = getelementptr i16, i16* %19, i64 %201
  %204 = getelementptr i16, i16* %190, i64 %201
  %205 = add i64 %201, -16
  %206 = lshr exact i64 %205, 4
  %207 = add nuw nsw i64 %206, 1
  %208 = and i64 %207, 3
  %209 = icmp ult i64 %205, 48
  br i1 %209, label %261, label %210

210:                                              ; preds = %200
  %211 = sub nsw i64 %207, %208
  br label %212

212:                                              ; preds = %212, %210
  %213 = phi i64 [ 0, %210 ], [ %258, %212 ]
  %214 = phi i64 [ %211, %210 ], [ %259, %212 ]
  %215 = getelementptr i16, i16* %19, i64 %213
  %216 = getelementptr i16, i16* %190, i64 %213
  %217 = bitcast i16* %215 to <8 x i16>*
  %218 = load <8 x i16>, <8 x i16>* %217, align 2, !alias.scope !83
  %219 = getelementptr i16, i16* %215, i64 8
  %220 = bitcast i16* %219 to <8 x i16>*
  %221 = load <8 x i16>, <8 x i16>* %220, align 2, !alias.scope !83
  %222 = bitcast i16* %216 to <8 x i16>*
  store <8 x i16> %218, <8 x i16>* %222, align 2, !alias.scope !86, !noalias !83
  %223 = getelementptr i16, i16* %216, i64 8
  %224 = bitcast i16* %223 to <8 x i16>*
  store <8 x i16> %221, <8 x i16>* %224, align 2, !alias.scope !86, !noalias !83
  %225 = or i64 %213, 16
  %226 = getelementptr i16, i16* %19, i64 %225
  %227 = getelementptr i16, i16* %190, i64 %225
  %228 = bitcast i16* %226 to <8 x i16>*
  %229 = load <8 x i16>, <8 x i16>* %228, align 2, !alias.scope !83
  %230 = getelementptr i16, i16* %226, i64 8
  %231 = bitcast i16* %230 to <8 x i16>*
  %232 = load <8 x i16>, <8 x i16>* %231, align 2, !alias.scope !83
  %233 = bitcast i16* %227 to <8 x i16>*
  store <8 x i16> %229, <8 x i16>* %233, align 2, !alias.scope !86, !noalias !83
  %234 = getelementptr i16, i16* %227, i64 8
  %235 = bitcast i16* %234 to <8 x i16>*
  store <8 x i16> %232, <8 x i16>* %235, align 2, !alias.scope !86, !noalias !83
  %236 = or i64 %213, 32
  %237 = getelementptr i16, i16* %19, i64 %236
  %238 = getelementptr i16, i16* %190, i64 %236
  %239 = bitcast i16* %237 to <8 x i16>*
  %240 = load <8 x i16>, <8 x i16>* %239, align 2, !alias.scope !83
  %241 = getelementptr i16, i16* %237, i64 8
  %242 = bitcast i16* %241 to <8 x i16>*
  %243 = load <8 x i16>, <8 x i16>* %242, align 2, !alias.scope !83
  %244 = bitcast i16* %238 to <8 x i16>*
  store <8 x i16> %240, <8 x i16>* %244, align 2, !alias.scope !86, !noalias !83
  %245 = getelementptr i16, i16* %238, i64 8
  %246 = bitcast i16* %245 to <8 x i16>*
  store <8 x i16> %243, <8 x i16>* %246, align 2, !alias.scope !86, !noalias !83
  %247 = or i64 %213, 48
  %248 = getelementptr i16, i16* %19, i64 %247
  %249 = getelementptr i16, i16* %190, i64 %247
  %250 = bitcast i16* %248 to <8 x i16>*
  %251 = load <8 x i16>, <8 x i16>* %250, align 2, !alias.scope !83
  %252 = getelementptr i16, i16* %248, i64 8
  %253 = bitcast i16* %252 to <8 x i16>*
  %254 = load <8 x i16>, <8 x i16>* %253, align 2, !alias.scope !83
  %255 = bitcast i16* %249 to <8 x i16>*
  store <8 x i16> %251, <8 x i16>* %255, align 2, !alias.scope !86, !noalias !83
  %256 = getelementptr i16, i16* %249, i64 8
  %257 = bitcast i16* %256 to <8 x i16>*
  store <8 x i16> %254, <8 x i16>* %257, align 2, !alias.scope !86, !noalias !83
  %258 = add i64 %213, 64
  %259 = add i64 %214, -4
  %260 = icmp eq i64 %259, 0
  br i1 %260, label %261, label %212, !llvm.loop !88

261:                                              ; preds = %212, %200
  %262 = phi i64 [ 0, %200 ], [ %258, %212 ]
  %263 = icmp eq i64 %208, 0
  br i1 %263, label %280, label %264

264:                                              ; preds = %261, %264
  %265 = phi i64 [ %277, %264 ], [ %262, %261 ]
  %266 = phi i64 [ %278, %264 ], [ %208, %261 ]
  %267 = getelementptr i16, i16* %19, i64 %265
  %268 = getelementptr i16, i16* %190, i64 %265
  %269 = bitcast i16* %267 to <8 x i16>*
  %270 = load <8 x i16>, <8 x i16>* %269, align 2, !alias.scope !83
  %271 = getelementptr i16, i16* %267, i64 8
  %272 = bitcast i16* %271 to <8 x i16>*
  %273 = load <8 x i16>, <8 x i16>* %272, align 2, !alias.scope !83
  %274 = bitcast i16* %268 to <8 x i16>*
  store <8 x i16> %270, <8 x i16>* %274, align 2, !alias.scope !86, !noalias !83
  %275 = getelementptr i16, i16* %268, i64 8
  %276 = bitcast i16* %275 to <8 x i16>*
  store <8 x i16> %273, <8 x i16>* %276, align 2, !alias.scope !86, !noalias !83
  %277 = add i64 %265, 16
  %278 = add i64 %266, -1
  %279 = icmp eq i64 %278, 0
  br i1 %279, label %280, label %264, !llvm.loop !89

280:                                              ; preds = %264, %261
  %281 = icmp eq i64 %22, %201
  br i1 %281, label %335, label %282

282:                                              ; preds = %280, %192, %187
  %283 = phi i64 [ %22, %192 ], [ %22, %187 ], [ %202, %280 ]
  %284 = phi i16* [ %19, %192 ], [ %19, %187 ], [ %203, %280 ]
  %285 = phi i16* [ %190, %192 ], [ %190, %187 ], [ %204, %280 ]
  %286 = add i64 %283, -1
  %287 = and i64 %283, 7
  %288 = icmp eq i64 %287, 0
  br i1 %288, label %300, label %289

289:                                              ; preds = %282, %289
  %290 = phi i64 [ %295, %289 ], [ %283, %282 ]
  %291 = phi i16* [ %297, %289 ], [ %284, %282 ]
  %292 = phi i16* [ %296, %289 ], [ %285, %282 ]
  %293 = phi i64 [ %298, %289 ], [ %287, %282 ]
  %294 = load i16, i16* %291, align 2
  store i16 %294, i16* %292, align 2
  %295 = add i64 %290, -1
  %296 = getelementptr inbounds i16, i16* %292, i64 1
  %297 = getelementptr inbounds i16, i16* %291, i64 1
  %298 = add i64 %293, -1
  %299 = icmp eq i64 %298, 0
  br i1 %299, label %300, label %289, !llvm.loop !90

300:                                              ; preds = %289, %282
  %301 = phi i64 [ %283, %282 ], [ %295, %289 ]
  %302 = phi i16* [ %284, %282 ], [ %297, %289 ]
  %303 = phi i16* [ %285, %282 ], [ %296, %289 ]
  %304 = icmp ult i64 %286, 7
  br i1 %304, label %335, label %305

305:                                              ; preds = %300, %305
  %306 = phi i64 [ %331, %305 ], [ %301, %300 ]
  %307 = phi i16* [ %333, %305 ], [ %302, %300 ]
  %308 = phi i16* [ %332, %305 ], [ %303, %300 ]
  %309 = load i16, i16* %307, align 2
  store i16 %309, i16* %308, align 2
  %310 = getelementptr inbounds i16, i16* %308, i64 1
  %311 = getelementptr inbounds i16, i16* %307, i64 1
  %312 = load i16, i16* %311, align 2
  store i16 %312, i16* %310, align 2
  %313 = getelementptr inbounds i16, i16* %308, i64 2
  %314 = getelementptr inbounds i16, i16* %307, i64 2
  %315 = load i16, i16* %314, align 2
  store i16 %315, i16* %313, align 2
  %316 = getelementptr inbounds i16, i16* %308, i64 3
  %317 = getelementptr inbounds i16, i16* %307, i64 3
  %318 = load i16, i16* %317, align 2
  store i16 %318, i16* %316, align 2
  %319 = getelementptr inbounds i16, i16* %308, i64 4
  %320 = getelementptr inbounds i16, i16* %307, i64 4
  %321 = load i16, i16* %320, align 2
  store i16 %321, i16* %319, align 2
  %322 = getelementptr inbounds i16, i16* %308, i64 5
  %323 = getelementptr inbounds i16, i16* %307, i64 5
  %324 = load i16, i16* %323, align 2
  store i16 %324, i16* %322, align 2
  %325 = getelementptr inbounds i16, i16* %308, i64 6
  %326 = getelementptr inbounds i16, i16* %307, i64 6
  %327 = load i16, i16* %326, align 2
  store i16 %327, i16* %325, align 2
  %328 = getelementptr inbounds i16, i16* %308, i64 7
  %329 = getelementptr inbounds i16, i16* %307, i64 7
  %330 = load i16, i16* %329, align 2
  store i16 %330, i16* %328, align 2
  %331 = add i64 %306, -8
  %332 = getelementptr inbounds i16, i16* %308, i64 8
  %333 = getelementptr inbounds i16, i16* %307, i64 8
  %334 = icmp eq i64 %331, 0
  br i1 %334, label %335, label %305, !llvm.loop !91

335:                                              ; preds = %300, %305, %280
  %336 = bitcast %"class.std::__1::basic_string"* %0 to i8**
  store i8* %189, i8** %336, align 8
  %337 = or i64 %184, -9223372036854775808
  %338 = getelementptr inbounds %"class.std::__1::basic_string", %"class.std::__1::basic_string"* %0, i64 0, i32 0, i32 0, i32 0, i32 0, i32 0, i32 2
  store i64 %337, i64* %338, align 8
  %339 = getelementptr inbounds %"class.std::__1::basic_string", %"class.std::__1::basic_string"* %0, i64 0, i32 0, i32 0, i32 0, i32 0, i32 0, i32 1
  store i64 %22, i64* %339, align 8
  %340 = getelementptr inbounds i16, i16* %190, i64 %22
  store i16 0, i16* %340, align 2
  br label %510

341:                                              ; preds = %5
  %342 = getelementptr inbounds %"class.std::__1::basic_string", %"class.std::__1::basic_string"* %1, i64 0, i32 0, i32 0, i32 0, i32 0, i32 0, i32 0
  %343 = load i16*, i16** %342, align 8
  %344 = getelementptr inbounds %"class.std::__1::basic_string", %"class.std::__1::basic_string"* %1, i64 0, i32 0, i32 0, i32 0, i32 0, i32 0, i32 1
  %345 = load i64, i64* %344, align 8
  %346 = bitcast %"class.std::__1::basic_string"* %1 to i16*
  %347 = zext i8 %12 to i64
  %348 = select i1 %13, i16* %343, i16* %346
  %349 = select i1 %13, i64 %345, i64 %347
  %350 = getelementptr inbounds %"class.std::__1::basic_string", %"class.std::__1::basic_string"* %0, i64 0, i32 0, i32 0, i32 0, i32 0, i32 0, i32 2
  %351 = load i64, i64* %350, align 8
  %352 = and i64 %351, 9223372036854775807
  %353 = icmp ugt i64 %352, %349
  br i1 %353, label %354, label %504

354:                                              ; preds = %341
  %355 = getelementptr inbounds %"class.std::__1::basic_string", %"class.std::__1::basic_string"* %0, i64 0, i32 0, i32 0, i32 0, i32 0, i32 0, i32 0
  %356 = load i16*, i16** %355, align 8
  %357 = getelementptr inbounds %"class.std::__1::basic_string", %"class.std::__1::basic_string"* %0, i64 0, i32 0, i32 0, i32 0, i32 0, i32 0, i32 1
  store i64 %349, i64* %357, align 8
  %358 = icmp eq i64 %349, 0
  br i1 %358, label %502, label %359

359:                                              ; preds = %354
  %360 = icmp ult i64 %349, 16
  br i1 %360, label %449, label %361

361:                                              ; preds = %359
  %362 = getelementptr i16, i16* %356, i64 %349
  %363 = getelementptr i16, i16* %348, i64 %349
  %364 = icmp ult i16* %356, %363
  %365 = icmp ult i16* %348, %362
  %366 = and i1 %364, %365
  br i1 %366, label %449, label %367

367:                                              ; preds = %361
  %368 = and i64 %349, -16
  %369 = sub i64 %349, %368
  %370 = getelementptr i16, i16* %348, i64 %368
  %371 = getelementptr i16, i16* %356, i64 %368
  %372 = add i64 %368, -16
  %373 = lshr exact i64 %372, 4
  %374 = add nuw nsw i64 %373, 1
  %375 = and i64 %374, 3
  %376 = icmp ult i64 %372, 48
  br i1 %376, label %428, label %377

377:                                              ; preds = %367
  %378 = sub nsw i64 %374, %375
  br label %379

379:                                              ; preds = %379, %377
  %380 = phi i64 [ 0, %377 ], [ %425, %379 ]
  %381 = phi i64 [ %378, %377 ], [ %426, %379 ]
  %382 = getelementptr i16, i16* %348, i64 %380
  %383 = getelementptr i16, i16* %356, i64 %380
  %384 = bitcast i16* %382 to <8 x i16>*
  %385 = load <8 x i16>, <8 x i16>* %384, align 2, !alias.scope !92
  %386 = getelementptr i16, i16* %382, i64 8
  %387 = bitcast i16* %386 to <8 x i16>*
  %388 = load <8 x i16>, <8 x i16>* %387, align 2, !alias.scope !92
  %389 = bitcast i16* %383 to <8 x i16>*
  store <8 x i16> %385, <8 x i16>* %389, align 2, !alias.scope !95, !noalias !92
  %390 = getelementptr i16, i16* %383, i64 8
  %391 = bitcast i16* %390 to <8 x i16>*
  store <8 x i16> %388, <8 x i16>* %391, align 2, !alias.scope !95, !noalias !92
  %392 = or i64 %380, 16
  %393 = getelementptr i16, i16* %348, i64 %392
  %394 = getelementptr i16, i16* %356, i64 %392
  %395 = bitcast i16* %393 to <8 x i16>*
  %396 = load <8 x i16>, <8 x i16>* %395, align 2, !alias.scope !92
  %397 = getelementptr i16, i16* %393, i64 8
  %398 = bitcast i16* %397 to <8 x i16>*
  %399 = load <8 x i16>, <8 x i16>* %398, align 2, !alias.scope !92
  %400 = bitcast i16* %394 to <8 x i16>*
  store <8 x i16> %396, <8 x i16>* %400, align 2, !alias.scope !95, !noalias !92
  %401 = getelementptr i16, i16* %394, i64 8
  %402 = bitcast i16* %401 to <8 x i16>*
  store <8 x i16> %399, <8 x i16>* %402, align 2, !alias.scope !95, !noalias !92
  %403 = or i64 %380, 32
  %404 = getelementptr i16, i16* %348, i64 %403
  %405 = getelementptr i16, i16* %356, i64 %403
  %406 = bitcast i16* %404 to <8 x i16>*
  %407 = load <8 x i16>, <8 x i16>* %406, align 2, !alias.scope !92
  %408 = getelementptr i16, i16* %404, i64 8
  %409 = bitcast i16* %408 to <8 x i16>*
  %410 = load <8 x i16>, <8 x i16>* %409, align 2, !alias.scope !92
  %411 = bitcast i16* %405 to <8 x i16>*
  store <8 x i16> %407, <8 x i16>* %411, align 2, !alias.scope !95, !noalias !92
  %412 = getelementptr i16, i16* %405, i64 8
  %413 = bitcast i16* %412 to <8 x i16>*
  store <8 x i16> %410, <8 x i16>* %413, align 2, !alias.scope !95, !noalias !92
  %414 = or i64 %380, 48
  %415 = getelementptr i16, i16* %348, i64 %414
  %416 = getelementptr i16, i16* %356, i64 %414
  %417 = bitcast i16* %415 to <8 x i16>*
  %418 = load <8 x i16>, <8 x i16>* %417, align 2, !alias.scope !92
  %419 = getelementptr i16, i16* %415, i64 8
  %420 = bitcast i16* %419 to <8 x i16>*
  %421 = load <8 x i16>, <8 x i16>* %420, align 2, !alias.scope !92
  %422 = bitcast i16* %416 to <8 x i16>*
  store <8 x i16> %418, <8 x i16>* %422, align 2, !alias.scope !95, !noalias !92
  %423 = getelementptr i16, i16* %416, i64 8
  %424 = bitcast i16* %423 to <8 x i16>*
  store <8 x i16> %421, <8 x i16>* %424, align 2, !alias.scope !95, !noalias !92
  %425 = add i64 %380, 64
  %426 = add i64 %381, -4
  %427 = icmp eq i64 %426, 0
  br i1 %427, label %428, label %379, !llvm.loop !97

428:                                              ; preds = %379, %367
  %429 = phi i64 [ 0, %367 ], [ %425, %379 ]
  %430 = icmp eq i64 %375, 0
  br i1 %430, label %447, label %431

431:                                              ; preds = %428, %431
  %432 = phi i64 [ %444, %431 ], [ %429, %428 ]
  %433 = phi i64 [ %445, %431 ], [ %375, %428 ]
  %434 = getelementptr i16, i16* %348, i64 %432
  %435 = getelementptr i16, i16* %356, i64 %432
  %436 = bitcast i16* %434 to <8 x i16>*
  %437 = load <8 x i16>, <8 x i16>* %436, align 2, !alias.scope !92
  %438 = getelementptr i16, i16* %434, i64 8
  %439 = bitcast i16* %438 to <8 x i16>*
  %440 = load <8 x i16>, <8 x i16>* %439, align 2, !alias.scope !92
  %441 = bitcast i16* %435 to <8 x i16>*
  store <8 x i16> %437, <8 x i16>* %441, align 2, !alias.scope !95, !noalias !92
  %442 = getelementptr i16, i16* %435, i64 8
  %443 = bitcast i16* %442 to <8 x i16>*
  store <8 x i16> %440, <8 x i16>* %443, align 2, !alias.scope !95, !noalias !92
  %444 = add i64 %432, 16
  %445 = add i64 %433, -1
  %446 = icmp eq i64 %445, 0
  br i1 %446, label %447, label %431, !llvm.loop !98

447:                                              ; preds = %431, %428
  %448 = icmp eq i64 %349, %368
  br i1 %448, label %502, label %449

449:                                              ; preds = %447, %361, %359
  %450 = phi i64 [ %349, %361 ], [ %349, %359 ], [ %369, %447 ]
  %451 = phi i16* [ %348, %361 ], [ %348, %359 ], [ %370, %447 ]
  %452 = phi i16* [ %356, %361 ], [ %356, %359 ], [ %371, %447 ]
  %453 = add i64 %450, -1
  %454 = and i64 %450, 7
  %455 = icmp eq i64 %454, 0
  br i1 %455, label %467, label %456

456:                                              ; preds = %449, %456
  %457 = phi i64 [ %462, %456 ], [ %450, %449 ]
  %458 = phi i16* [ %464, %456 ], [ %451, %449 ]
  %459 = phi i16* [ %463, %456 ], [ %452, %449 ]
  %460 = phi i64 [ %465, %456 ], [ %454, %449 ]
  %461 = load i16, i16* %458, align 2
  store i16 %461, i16* %459, align 2
  %462 = add i64 %457, -1
  %463 = getelementptr inbounds i16, i16* %459, i64 1
  %464 = getelementptr inbounds i16, i16* %458, i64 1
  %465 = add i64 %460, -1
  %466 = icmp eq i64 %465, 0
  br i1 %466, label %467, label %456, !llvm.loop !99

467:                                              ; preds = %456, %449
  %468 = phi i64 [ %450, %449 ], [ %462, %456 ]
  %469 = phi i16* [ %451, %449 ], [ %464, %456 ]
  %470 = phi i16* [ %452, %449 ], [ %463, %456 ]
  %471 = icmp ult i64 %453, 7
  br i1 %471, label %502, label %472

472:                                              ; preds = %467, %472
  %473 = phi i64 [ %498, %472 ], [ %468, %467 ]
  %474 = phi i16* [ %500, %472 ], [ %469, %467 ]
  %475 = phi i16* [ %499, %472 ], [ %470, %467 ]
  %476 = load i16, i16* %474, align 2
  store i16 %476, i16* %475, align 2
  %477 = getelementptr inbounds i16, i16* %475, i64 1
  %478 = getelementptr inbounds i16, i16* %474, i64 1
  %479 = load i16, i16* %478, align 2
  store i16 %479, i16* %477, align 2
  %480 = getelementptr inbounds i16, i16* %475, i64 2
  %481 = getelementptr inbounds i16, i16* %474, i64 2
  %482 = load i16, i16* %481, align 2
  store i16 %482, i16* %480, align 2
  %483 = getelementptr inbounds i16, i16* %475, i64 3
  %484 = getelementptr inbounds i16, i16* %474, i64 3
  %485 = load i16, i16* %484, align 2
  store i16 %485, i16* %483, align 2
  %486 = getelementptr inbounds i16, i16* %475, i64 4
  %487 = getelementptr inbounds i16, i16* %474, i64 4
  %488 = load i16, i16* %487, align 2
  store i16 %488, i16* %486, align 2
  %489 = getelementptr inbounds i16, i16* %475, i64 5
  %490 = getelementptr inbounds i16, i16* %474, i64 5
  %491 = load i16, i16* %490, align 2
  store i16 %491, i16* %489, align 2
  %492 = getelementptr inbounds i16, i16* %475, i64 6
  %493 = getelementptr inbounds i16, i16* %474, i64 6
  %494 = load i16, i16* %493, align 2
  store i16 %494, i16* %492, align 2
  %495 = getelementptr inbounds i16, i16* %475, i64 7
  %496 = getelementptr inbounds i16, i16* %474, i64 7
  %497 = load i16, i16* %496, align 2
  store i16 %497, i16* %495, align 2
  %498 = add i64 %473, -8
  %499 = getelementptr inbounds i16, i16* %475, i64 8
  %500 = getelementptr inbounds i16, i16* %474, i64 8
  %501 = icmp eq i64 %498, 0
  br i1 %501, label %502, label %472, !llvm.loop !100

502:                                              ; preds = %467, %472, %447, %354
  %503 = getelementptr inbounds i16, i16* %356, i64 %349
  store i16 0, i16* %503, align 2
  br label %510

504:                                              ; preds = %341
  %505 = getelementptr inbounds %"class.std::__1::basic_string", %"class.std::__1::basic_string"* %0, i64 0, i32 0, i32 0, i32 0, i32 0, i32 0, i32 1
  %506 = load i64, i64* %505, align 8
  %507 = add nsw i64 %352, -1
  %508 = add i64 %349, 1
  %509 = sub i64 %508, %352
  tail call void @_ZNSt3__112basic_stringIDsNS_11char_traitsIDsEENS_9allocatorIDsEEE21__grow_by_and_replaceEmmmmmmPKDs(%"class.std::__1::basic_string"* %0, i64 %507, i64 %509, i64 %506, i64 0, i64 %506, i64 %349, i16* %348) #10
  br label %510

510:                                              ; preds = %504, %502, %335, %173, %15, %2
  ret %"class.std::__1::basic_string"* %0
}

; Function Attrs: nounwind ssp uwtable
define hidden zeroext i1 @_ZN8autofill18structured_address13StreetAddress44ConvertAndSetValueForAdditionalFieldTypeNameERKNSt3__112basic_stringIcNS2_11char_traitsIcEENS2_9allocatorIcEEEERKNS3_IDsNS4_IDsEENS6_IDsEEEERKNS0_18VerificationStatusE(%"class.autofill::structured_address::StreetAddress"*, %"class.std::__1::basic_string.28"* nocapture readonly dereferenceable(24), %"class.std::__1::basic_string"* dereferenceable(24), i32* nocapture readonly dereferenceable(4)) unnamed_addr #0 align 2 {
  %5 = alloca %"class.std::__1::basic_string.28", align 8
  %6 = alloca %"class.std::__1::basic_string.28", align 8
  %7 = alloca %"class.std::__1::basic_string.28", align 8
  %8 = alloca %"class.std::__1::basic_string", align 8
  %9 = alloca %"class.std::__1::basic_string", align 8
  %10 = bitcast %"class.std::__1::basic_string.28"* %5 to i8*
  call void @llvm.lifetime.start.p0i8(i64 24, i8* nonnull %10) #10
  call void @_ZN8autofill12AutofillType23ServerFieldTypeToStringENS_15ServerFieldTypeE(%"class.std::__1::basic_string.28"* nonnull sret %5, i32 30) #10
  %11 = bitcast %"class.std::__1::basic_string.28"* %1 to %"struct.std::__1::basic_string<char, std::__1::char_traits<char>, std::__1::allocator<char> >::__short"*
  %12 = getelementptr inbounds %"struct.std::__1::basic_string<char, std::__1::char_traits<char>, std::__1::allocator<char> >::__short", %"struct.std::__1::basic_string<char, std::__1::char_traits<char>, std::__1::allocator<char> >::__short"* %11, i64 0, i32 1, i32 0
  %13 = load i8, i8* %12, align 1
  %14 = icmp slt i8 %13, 0
  %15 = getelementptr inbounds %"class.std::__1::basic_string.28", %"class.std::__1::basic_string.28"* %1, i64 0, i32 0, i32 0, i32 0, i32 0, i32 0, i32 1
  %16 = load i64, i64* %15, align 8
  %17 = zext i8 %13 to i64
  %18 = select i1 %14, i64 %16, i64 %17
  %19 = bitcast %"class.std::__1::basic_string.28"* %5 to %"struct.std::__1::basic_string<char, std::__1::char_traits<char>, std::__1::allocator<char> >::__short"*
  %20 = getelementptr inbounds %"struct.std::__1::basic_string<char, std::__1::char_traits<char>, std::__1::allocator<char> >::__short", %"struct.std::__1::basic_string<char, std::__1::char_traits<char>, std::__1::allocator<char> >::__short"* %19, i64 0, i32 1, i32 0
  %21 = load i8, i8* %20, align 1
  %22 = icmp slt i8 %21, 0
  %23 = getelementptr inbounds %"class.std::__1::basic_string.28", %"class.std::__1::basic_string.28"* %5, i64 0, i32 0, i32 0, i32 0, i32 0, i32 0, i32 1
  %24 = load i64, i64* %23, align 8
  %25 = zext i8 %21 to i64
  %26 = select i1 %22, i64 %24, i64 %25
  %27 = icmp eq i64 %18, %26
  br i1 %27, label %28, label %59

28:                                               ; preds = %4
  %29 = getelementptr inbounds %"class.std::__1::basic_string.28", %"class.std::__1::basic_string.28"* %1, i64 0, i32 0, i32 0, i32 0, i32 0, i32 0, i32 0
  %30 = load i8*, i8** %29, align 8
  %31 = bitcast %"class.std::__1::basic_string.28"* %1 to i8*
  %32 = select i1 %14, i8* %30, i8* %31
  %33 = getelementptr inbounds %"class.std::__1::basic_string.28", %"class.std::__1::basic_string.28"* %5, i64 0, i32 0, i32 0, i32 0, i32 0, i32 0, i32 0
  %34 = load i8*, i8** %33, align 8
  %35 = select i1 %22, i8* %34, i8* %10
  %36 = icmp eq i64 %18, 0
  br i1 %14, label %43, label %37

37:                                               ; preds = %28
  br i1 %36, label %59, label %38

38:                                               ; preds = %37
  %39 = ptrtoint i8* %30 to i64
  %40 = trunc i64 %39 to i8
  %41 = load i8, i8* %35, align 1
  %42 = icmp eq i8 %41, %40
  br i1 %42, label %47, label %59

43:                                               ; preds = %28
  br i1 %36, label %59, label %44

44:                                               ; preds = %43
  %45 = call i32 @bcmp(i8* %32, i8* %35, i64 %18) #10
  %46 = icmp eq i32 %45, 0
  br label %59

47:                                               ; preds = %38, %54
  %48 = phi i64 [ %51, %54 ], [ %17, %38 ]
  %49 = phi i8* [ %52, %54 ], [ %31, %38 ]
  %50 = phi i8* [ %55, %54 ], [ %35, %38 ]
  %51 = add i64 %48, -1
  %52 = getelementptr inbounds i8, i8* %49, i64 1
  %53 = icmp eq i64 %51, 0
  br i1 %53, label %59, label %54

54:                                               ; preds = %47
  %55 = getelementptr inbounds i8, i8* %50, i64 1
  %56 = load i8, i8* %52, align 1
  %57 = load i8, i8* %55, align 1
  %58 = icmp eq i8 %56, %57
  br i1 %58, label %47, label %59

59:                                               ; preds = %47, %54, %38, %4, %37, %43, %44
  %60 = phi i1 [ false, %4 ], [ %46, %44 ], [ true, %43 ], [ true, %37 ], [ false, %38 ], [ false, %54 ], [ true, %47 ]
  br i1 %22, label %61, label %64

61:                                               ; preds = %59
  %62 = getelementptr inbounds %"class.std::__1::basic_string.28", %"class.std::__1::basic_string.28"* %5, i64 0, i32 0, i32 0, i32 0, i32 0, i32 0, i32 0
  %63 = load i8*, i8** %62, align 8
  call void @_ZdlPv(i8* %63) #12
  br label %64

64:                                               ; preds = %59, %61
  call void @llvm.lifetime.end.p0i8(i64 24, i8* nonnull %10) #10
  br i1 %60, label %171, label %65

65:                                               ; preds = %64
  %66 = bitcast %"class.std::__1::basic_string.28"* %6 to i8*
  call void @llvm.lifetime.start.p0i8(i64 24, i8* nonnull %66) #10
  call void @_ZN8autofill12AutofillType23ServerFieldTypeToStringENS_15ServerFieldTypeE(%"class.std::__1::basic_string.28"* nonnull sret %6, i32 31) #10
  %67 = load i8, i8* %12, align 1
  %68 = icmp slt i8 %67, 0
  %69 = load i64, i64* %15, align 8
  %70 = zext i8 %67 to i64
  %71 = select i1 %68, i64 %69, i64 %70
  %72 = bitcast %"class.std::__1::basic_string.28"* %6 to %"struct.std::__1::basic_string<char, std::__1::char_traits<char>, std::__1::allocator<char> >::__short"*
  %73 = getelementptr inbounds %"struct.std::__1::basic_string<char, std::__1::char_traits<char>, std::__1::allocator<char> >::__short", %"struct.std::__1::basic_string<char, std::__1::char_traits<char>, std::__1::allocator<char> >::__short"* %72, i64 0, i32 1, i32 0
  %74 = load i8, i8* %73, align 1
  %75 = icmp slt i8 %74, 0
  %76 = getelementptr inbounds %"class.std::__1::basic_string.28", %"class.std::__1::basic_string.28"* %6, i64 0, i32 0, i32 0, i32 0, i32 0, i32 0, i32 1
  %77 = load i64, i64* %76, align 8
  %78 = zext i8 %74 to i64
  %79 = select i1 %75, i64 %77, i64 %78
  %80 = icmp eq i64 %71, %79
  br i1 %80, label %81, label %112

81:                                               ; preds = %65
  %82 = getelementptr inbounds %"class.std::__1::basic_string.28", %"class.std::__1::basic_string.28"* %1, i64 0, i32 0, i32 0, i32 0, i32 0, i32 0, i32 0
  %83 = load i8*, i8** %82, align 8
  %84 = bitcast %"class.std::__1::basic_string.28"* %1 to i8*
  %85 = select i1 %68, i8* %83, i8* %84
  %86 = getelementptr inbounds %"class.std::__1::basic_string.28", %"class.std::__1::basic_string.28"* %6, i64 0, i32 0, i32 0, i32 0, i32 0, i32 0, i32 0
  %87 = load i8*, i8** %86, align 8
  %88 = select i1 %75, i8* %87, i8* %66
  %89 = icmp eq i64 %71, 0
  br i1 %68, label %96, label %90

90:                                               ; preds = %81
  br i1 %89, label %112, label %91

91:                                               ; preds = %90
  %92 = ptrtoint i8* %83 to i64
  %93 = trunc i64 %92 to i8
  %94 = load i8, i8* %88, align 1
  %95 = icmp eq i8 %94, %93
  br i1 %95, label %100, label %112

96:                                               ; preds = %81
  br i1 %89, label %112, label %97

97:                                               ; preds = %96
  %98 = call i32 @bcmp(i8* %85, i8* %88, i64 %71) #10
  %99 = icmp eq i32 %98, 0
  br label %112

100:                                              ; preds = %91, %107
  %101 = phi i64 [ %104, %107 ], [ %70, %91 ]
  %102 = phi i8* [ %105, %107 ], [ %84, %91 ]
  %103 = phi i8* [ %108, %107 ], [ %88, %91 ]
  %104 = add i64 %101, -1
  %105 = getelementptr inbounds i8, i8* %102, i64 1
  %106 = icmp eq i64 %104, 0
  br i1 %106, label %112, label %107

107:                                              ; preds = %100
  %108 = getelementptr inbounds i8, i8* %103, i64 1
  %109 = load i8, i8* %105, align 1
  %110 = load i8, i8* %108, align 1
  %111 = icmp eq i8 %109, %110
  br i1 %111, label %100, label %112

112:                                              ; preds = %100, %107, %91, %65, %90, %96, %97
  %113 = phi i1 [ false, %65 ], [ %99, %97 ], [ true, %96 ], [ true, %90 ], [ false, %91 ], [ false, %107 ], [ true, %100 ]
  br i1 %75, label %114, label %117

114:                                              ; preds = %112
  %115 = getelementptr inbounds %"class.std::__1::basic_string.28", %"class.std::__1::basic_string.28"* %6, i64 0, i32 0, i32 0, i32 0, i32 0, i32 0, i32 0
  %116 = load i8*, i8** %115, align 8
  call void @_ZdlPv(i8* %116) #12
  br label %117

117:                                              ; preds = %112, %114
  call void @llvm.lifetime.end.p0i8(i64 24, i8* nonnull %66) #10
  br i1 %113, label %171, label %118

118:                                              ; preds = %117
  %119 = bitcast %"class.std::__1::basic_string.28"* %7 to i8*
  call void @llvm.lifetime.start.p0i8(i64 24, i8* nonnull %119) #10
  call void @_ZN8autofill12AutofillType23ServerFieldTypeToStringENS_15ServerFieldTypeE(%"class.std::__1::basic_string.28"* nonnull sret %7, i32 83) #10
  %120 = load i8, i8* %12, align 1
  %121 = icmp slt i8 %120, 0
  %122 = load i64, i64* %15, align 8
  %123 = zext i8 %120 to i64
  %124 = select i1 %121, i64 %122, i64 %123
  %125 = bitcast %"class.std::__1::basic_string.28"* %7 to %"struct.std::__1::basic_string<char, std::__1::char_traits<char>, std::__1::allocator<char> >::__short"*
  %126 = getelementptr inbounds %"struct.std::__1::basic_string<char, std::__1::char_traits<char>, std::__1::allocator<char> >::__short", %"struct.std::__1::basic_string<char, std::__1::char_traits<char>, std::__1::allocator<char> >::__short"* %125, i64 0, i32 1, i32 0
  %127 = load i8, i8* %126, align 1
  %128 = icmp slt i8 %127, 0
  %129 = getelementptr inbounds %"class.std::__1::basic_string.28", %"class.std::__1::basic_string.28"* %7, i64 0, i32 0, i32 0, i32 0, i32 0, i32 0, i32 1
  %130 = load i64, i64* %129, align 8
  %131 = zext i8 %127 to i64
  %132 = select i1 %128, i64 %130, i64 %131
  %133 = icmp eq i64 %124, %132
  br i1 %133, label %134, label %165

134:                                              ; preds = %118
  %135 = getelementptr inbounds %"class.std::__1::basic_string.28", %"class.std::__1::basic_string.28"* %1, i64 0, i32 0, i32 0, i32 0, i32 0, i32 0, i32 0
  %136 = load i8*, i8** %135, align 8
  %137 = bitcast %"class.std::__1::basic_string.28"* %1 to i8*
  %138 = select i1 %121, i8* %136, i8* %137
  %139 = getelementptr inbounds %"class.std::__1::basic_string.28", %"class.std::__1::basic_string.28"* %7, i64 0, i32 0, i32 0, i32 0, i32 0, i32 0, i32 0
  %140 = load i8*, i8** %139, align 8
  %141 = select i1 %128, i8* %140, i8* %119
  %142 = icmp eq i64 %124, 0
  br i1 %121, label %149, label %143

143:                                              ; preds = %134
  br i1 %142, label %165, label %144

144:                                              ; preds = %143
  %145 = ptrtoint i8* %136 to i64
  %146 = trunc i64 %145 to i8
  %147 = load i8, i8* %141, align 1
  %148 = icmp eq i8 %147, %146
  br i1 %148, label %153, label %165

149:                                              ; preds = %134
  br i1 %142, label %165, label %150

150:                                              ; preds = %149
  %151 = call i32 @bcmp(i8* %138, i8* %141, i64 %124) #10
  %152 = icmp eq i32 %151, 0
  br label %165

153:                                              ; preds = %144, %160
  %154 = phi i64 [ %157, %160 ], [ %123, %144 ]
  %155 = phi i8* [ %158, %160 ], [ %137, %144 ]
  %156 = phi i8* [ %161, %160 ], [ %141, %144 ]
  %157 = add i64 %154, -1
  %158 = getelementptr inbounds i8, i8* %155, i64 1
  %159 = icmp eq i64 %157, 0
  br i1 %159, label %165, label %160

160:                                              ; preds = %153
  %161 = getelementptr inbounds i8, i8* %156, i64 1
  %162 = load i8, i8* %158, align 1
  %163 = load i8, i8* %161, align 1
  %164 = icmp eq i8 %162, %163
  br i1 %164, label %153, label %165

165:                                              ; preds = %153, %160, %144, %118, %143, %149, %150
  %166 = phi i1 [ false, %118 ], [ %152, %150 ], [ true, %149 ], [ true, %143 ], [ false, %144 ], [ false, %160 ], [ true, %153 ]
  br i1 %128, label %167, label %170

167:                                              ; preds = %165
  %168 = getelementptr inbounds %"class.std::__1::basic_string.28", %"class.std::__1::basic_string.28"* %7, i64 0, i32 0, i32 0, i32 0, i32 0, i32 0, i32 0
  %169 = load i8*, i8** %168, align 8
  call void @_ZdlPv(i8* %169) #12
  br label %170

170:                                              ; preds = %165, %167
  call void @llvm.lifetime.end.p0i8(i64 24, i8* nonnull %119) #10
  br i1 %166, label %171, label %298

171:                                              ; preds = %170, %117, %64
  %172 = phi i64 [ 0, %64 ], [ 1, %117 ], [ 2, %170 ]
  %173 = getelementptr inbounds %"class.autofill::structured_address::StreetAddress", %"class.autofill::structured_address::StreetAddress"* %0, i64 0, i32 6
  %174 = getelementptr inbounds %"class.autofill::structured_address::StreetAddress", %"class.autofill::structured_address::StreetAddress"* %0, i64 0, i32 6, i32 0, i32 1
  %175 = bitcast %"class.std::__1::basic_string"** %174 to i64*
  %176 = load i64, i64* %175, align 8
  %177 = bitcast %"class.std::__1::vector.19"* %173 to i64*
  %178 = load i64, i64* %177, align 8
  %179 = sub i64 %176, %178
  %180 = sdiv exact i64 %179, 24
  %181 = icmp ult i64 %172, %180
  %182 = inttoptr i64 %178 to %"class.std::__1::basic_string"*
  br i1 %181, label %197, label %183

183:                                              ; preds = %171
  %184 = bitcast %"class.std::__1::basic_string"* %8 to i8*
  call void @llvm.lifetime.start.p0i8(i64 24, i8* nonnull %184) #10
  call void @llvm.memset.p0i8.i64(i8* nonnull align 8 %184, i8 0, i64 24, i1 false) #10
  %185 = add nuw nsw i64 %172, 1
  %186 = sub nsw i64 %185, %180
  call void @_ZNSt3__16vectorINS_12basic_stringIDsNS_11char_traitsIDsEENS_9allocatorIDsEEEENS4_IS6_EEE8__appendEmRKS6_(%"class.std::__1::vector.19"* %173, i64 %186, %"class.std::__1::basic_string"* nonnull dereferenceable(24) %8) #10
  %187 = bitcast %"class.std::__1::basic_string"* %8 to %"struct.std::__1::basic_string<char16_t, std::__1::char_traits<char16_t>, std::__1::allocator<char16_t> >::__short"*
  %188 = getelementptr inbounds %"struct.std::__1::basic_string<char16_t, std::__1::char_traits<char16_t>, std::__1::allocator<char16_t> >::__short", %"struct.std::__1::basic_string<char16_t, std::__1::char_traits<char16_t>, std::__1::allocator<char16_t> >::__short"* %187, i64 0, i32 1, i32 1
  %189 = load i8, i8* %188, align 1
  %190 = icmp slt i8 %189, 0
  br i1 %190, label %191, label %194

191:                                              ; preds = %183
  %192 = bitcast %"class.std::__1::basic_string"* %8 to i8**
  %193 = load i8*, i8** %192, align 8
  call void @_ZdlPv(i8* %193) #12
  br label %194

194:                                              ; preds = %183, %191
  call void @llvm.lifetime.end.p0i8(i64 24, i8* nonnull %184) #10
  %195 = getelementptr inbounds %"class.std::__1::vector.19", %"class.std::__1::vector.19"* %173, i64 0, i32 0, i32 0
  %196 = load %"class.std::__1::basic_string"*, %"class.std::__1::basic_string"** %195, align 8
  br label %197

197:                                              ; preds = %171, %194
  %198 = phi %"class.std::__1::basic_string"* [ %182, %171 ], [ %196, %194 ]
  %199 = getelementptr inbounds %"class.std::__1::vector.19", %"class.std::__1::vector.19"* %173, i64 0, i32 0, i32 0
  %200 = getelementptr inbounds %"class.std::__1::basic_string", %"class.std::__1::basic_string"* %198, i64 %172
  %201 = bitcast %"class.std::__1::basic_string"* %200 to %"struct.std::__1::basic_string<char16_t, std::__1::char_traits<char16_t>, std::__1::allocator<char16_t> >::__short"*
  %202 = getelementptr inbounds %"struct.std::__1::basic_string<char16_t, std::__1::char_traits<char16_t>, std::__1::allocator<char16_t> >::__short", %"struct.std::__1::basic_string<char16_t, std::__1::char_traits<char16_t>, std::__1::allocator<char16_t> >::__short"* %201, i64 0, i32 1, i32 1
  %203 = load i8, i8* %202, align 1
  %204 = icmp slt i8 %203, 0
  %205 = getelementptr inbounds %"class.std::__1::basic_string", %"class.std::__1::basic_string"* %198, i64 %172, i32 0, i32 0, i32 0, i32 0, i32 0, i32 1
  %206 = load i64, i64* %205, align 8
  %207 = zext i8 %203 to i64
  %208 = select i1 %204, i64 %206, i64 %207
  %209 = bitcast %"class.std::__1::basic_string"* %2 to %"struct.std::__1::basic_string<char16_t, std::__1::char_traits<char16_t>, std::__1::allocator<char16_t> >::__short"*
  %210 = getelementptr inbounds %"struct.std::__1::basic_string<char16_t, std::__1::char_traits<char16_t>, std::__1::allocator<char16_t> >::__short", %"struct.std::__1::basic_string<char16_t, std::__1::char_traits<char16_t>, std::__1::allocator<char16_t> >::__short"* %209, i64 0, i32 1, i32 1
  %211 = load i8, i8* %210, align 1
  %212 = icmp slt i8 %211, 0
  %213 = getelementptr inbounds %"class.std::__1::basic_string", %"class.std::__1::basic_string"* %2, i64 0, i32 0, i32 0, i32 0, i32 0, i32 0, i32 1
  %214 = load i64, i64* %213, align 8
  %215 = zext i8 %211 to i64
  %216 = select i1 %212, i64 %214, i64 %215
  %217 = icmp eq i64 %208, %216
  br i1 %217, label %218, label %241

218:                                              ; preds = %197
  %219 = icmp eq i64 %208, 0
  br i1 %219, label %244, label %220

220:                                              ; preds = %218
  %221 = getelementptr inbounds %"class.std::__1::basic_string", %"class.std::__1::basic_string"* %2, i64 0, i32 0, i32 0, i32 0, i32 0, i32 0, i32 0
  %222 = load i16*, i16** %221, align 8
  %223 = bitcast %"class.std::__1::basic_string"* %2 to i16*
  %224 = select i1 %212, i16* %222, i16* %223
  %225 = getelementptr inbounds %"class.std::__1::basic_string", %"class.std::__1::basic_string"* %200, i64 0, i32 0, i32 0, i32 0, i32 0, i32 0, i32 0
  %226 = load i16*, i16** %225, align 8
  %227 = bitcast %"class.std::__1::basic_string"* %200 to i16*
  %228 = select i1 %204, i16* %226, i16* %227
  br label %229

229:                                              ; preds = %236, %220
  %230 = phi i64 [ %237, %236 ], [ %208, %220 ]
  %231 = phi i16* [ %239, %236 ], [ %224, %220 ]
  %232 = phi i16* [ %238, %236 ], [ %228, %220 ]
  %233 = load i16, i16* %232, align 2
  %234 = load i16, i16* %231, align 2
  %235 = icmp eq i16 %234, %233
  br i1 %235, label %236, label %241

236:                                              ; preds = %229
  %237 = add i64 %230, -1
  %238 = getelementptr inbounds i16, i16* %232, i64 1
  %239 = getelementptr inbounds i16, i16* %231, i64 1
  %240 = icmp eq i64 %237, 0
  br i1 %240, label %244, label %229

241:                                              ; preds = %229, %197
  %242 = call dereferenceable(24) %"class.std::__1::basic_string"* @_ZNSt3__112basic_stringIDsNS_11char_traitsIDsEENS_9allocatorIDsEEEaSERKS5_(%"class.std::__1::basic_string"* %200, %"class.std::__1::basic_string"* dereferenceable(24) %2)
  %243 = load %"class.std::__1::basic_string"*, %"class.std::__1::basic_string"** %199, align 8
  br label %244

244:                                              ; preds = %236, %218, %241
  %245 = phi %"class.std::__1::basic_string"* [ %243, %241 ], [ %198, %218 ], [ %198, %236 ]
  %246 = phi i1 [ true, %241 ], [ false, %218 ], [ false, %236 ]
  %247 = load %"class.std::__1::basic_string"*, %"class.std::__1::basic_string"** %174, align 8
  %248 = icmp eq %"class.std::__1::basic_string"* %245, %247
  %249 = ptrtoint %"class.std::__1::basic_string"* %245 to i64
  %250 = ptrtoint %"class.std::__1::basic_string"* %247 to i64
  br i1 %248, label %282, label %251

251:                                              ; preds = %244, %275
  %252 = phi i64 [ %279, %275 ], [ %250, %244 ]
  %253 = phi i64 [ %276, %275 ], [ %249, %244 ]
  %254 = phi %"class.std::__1::basic_string"* [ %277, %275 ], [ %245, %244 ]
  %255 = phi %"class.std::__1::basic_string"* [ %256, %275 ], [ %247, %244 ]
  %256 = getelementptr inbounds %"class.std::__1::basic_string", %"class.std::__1::basic_string"* %255, i64 -1
  %257 = bitcast %"class.std::__1::basic_string"* %256 to %"struct.std::__1::basic_string<char16_t, std::__1::char_traits<char16_t>, std::__1::allocator<char16_t> >::__short"*
  %258 = getelementptr inbounds %"struct.std::__1::basic_string<char16_t, std::__1::char_traits<char16_t>, std::__1::allocator<char16_t> >::__short", %"struct.std::__1::basic_string<char16_t, std::__1::char_traits<char16_t>, std::__1::allocator<char16_t> >::__short"* %257, i64 0, i32 1, i32 1
  %259 = load i8, i8* %258, align 1
  %260 = icmp slt i8 %259, 0
  br i1 %260, label %261, label %264

261:                                              ; preds = %251
  %262 = getelementptr inbounds %"class.std::__1::basic_string", %"class.std::__1::basic_string"* %255, i64 -1, i32 0, i32 0, i32 0, i32 0, i32 0, i32 1
  %263 = load i64, i64* %262, align 8
  br label %266

264:                                              ; preds = %251
  %265 = zext i8 %259 to i64
  br label %266

266:                                              ; preds = %261, %264
  %267 = phi i64 [ %263, %261 ], [ %265, %264 ]
  %268 = icmp eq i64 %267, 0
  br i1 %268, label %269, label %282

269:                                              ; preds = %266
  br i1 %260, label %270, label %275

270:                                              ; preds = %269
  %271 = bitcast %"class.std::__1::basic_string"* %256 to i8**
  %272 = load i8*, i8** %271, align 8
  call void @_ZdlPv(i8* %272) #12
  %273 = load %"class.std::__1::basic_string"*, %"class.std::__1::basic_string"** %199, align 8
  %274 = ptrtoint %"class.std::__1::basic_string"* %273 to i64
  br label %275

275:                                              ; preds = %269, %270
  %276 = phi i64 [ %253, %269 ], [ %274, %270 ]
  %277 = phi %"class.std::__1::basic_string"* [ %254, %269 ], [ %273, %270 ]
  store %"class.std::__1::basic_string"* %256, %"class.std::__1::basic_string"** %174, align 8
  %278 = icmp eq %"class.std::__1::basic_string"* %277, %256
  %279 = ptrtoint %"class.std::__1::basic_string"* %256 to i64
  br i1 %278, label %280, label %251

280:                                              ; preds = %275
  %281 = ptrtoint %"class.std::__1::basic_string"* %256 to i64
  br label %282

282:                                              ; preds = %266, %280, %244
  %283 = phi i64 [ %250, %244 ], [ %281, %280 ], [ %252, %266 ]
  %284 = phi i64 [ %249, %244 ], [ %276, %280 ], [ %253, %266 ]
  br i1 %246, label %285, label %298

285:                                              ; preds = %282
  %286 = sub i64 %283, %284
  %287 = bitcast %"class.autofill::structured_address::StreetAddress"* %0 to %"class.autofill::structured_address::AddressComponent"*
  %288 = sdiv exact i64 %286, 24
  %289 = inttoptr i64 %284 to %"class.std::__1::basic_string"*
  call void @_ZN4base10JoinStringENS_4spanIKNSt3__112basic_stringIDsNS1_11char_traitsIDsEENS1_9allocatorIDsEEEELm18446744073709551615EEENS_16BasicStringPieceIDsS4_EE(%"class.std::__1::basic_string"* nonnull sret %9, i64 %288, %"class.std::__1::basic_string"* %289, i16* getelementptr inbounds ([2 x i16], [2 x i16]* @.str.10, i64 0, i64 0), i64 1) #10
  %290 = load i32, i32* %3, align 4
  call void @_ZN8autofill18structured_address16AddressComponent8SetValueENSt3__112basic_stringIDsNS2_11char_traitsIDsEENS2_9allocatorIDsEEEENS0_18VerificationStatusE(%"class.autofill::structured_address::AddressComponent"* %287, %"class.std::__1::basic_string"* nonnull %9, i32 %290) #10
  %291 = bitcast %"class.std::__1::basic_string"* %9 to %"struct.std::__1::basic_string<char16_t, std::__1::char_traits<char16_t>, std::__1::allocator<char16_t> >::__short"*
  %292 = getelementptr inbounds %"struct.std::__1::basic_string<char16_t, std::__1::char_traits<char16_t>, std::__1::allocator<char16_t> >::__short", %"struct.std::__1::basic_string<char16_t, std::__1::char_traits<char16_t>, std::__1::allocator<char16_t> >::__short"* %291, i64 0, i32 1, i32 1
  %293 = load i8, i8* %292, align 1
  %294 = icmp slt i8 %293, 0
  br i1 %294, label %295, label %298

295:                                              ; preds = %285
  %296 = bitcast %"class.std::__1::basic_string"* %9 to i8**
  %297 = load i8*, i8** %296, align 8
  call void @_ZdlPv(i8* %297) #12
  br label %298

298:                                              ; preds = %295, %285, %282, %170
  %299 = phi i1 [ false, %170 ], [ true, %282 ], [ true, %285 ], [ true, %295 ]
  ret i1 %299
}

; Function Attrs: nounwind ssp uwtable
define hidden void @_ZN8autofill18structured_address13StreetAddress22PostAssignSanitizationEv(%"class.autofill::structured_address::StreetAddress"*) unnamed_addr #0 align 2 {
  tail call void @_ZN8autofill18structured_address13StreetAddress21CalculateAddressLinesEv(%"class.autofill::structured_address::StreetAddress"* %0)
  ret void
}

; Function Attrs: nounwind ssp uwtable
define hidden void @_ZNK8autofill18structured_address13StreetAddress32GetAdditionalSupportedFieldTypesEPNS_8DenseSetINS_15ServerFieldTypeELS3_118EEE(%"class.autofill::structured_address::StreetAddress"* nocapture readnone, %"class.autofill::DenseSet"*) unnamed_addr #0 align 2 {
  %3 = bitcast %"class.autofill::DenseSet"* %1 to <2 x i64>*
  %4 = load <2 x i64>, <2 x i64>* %3, align 8, !noalias !101
  %5 = or <2 x i64> %4, <i64 3221225472, i64 524288>
  %6 = bitcast %"class.autofill::DenseSet"* %1 to <2 x i64>*
  store <2 x i64> %5, <2 x i64>* %6, align 8, !noalias !101
  ret void
}

; Function Attrs: nounwind ssp uwtable
define hidden void @_ZN8autofill18structured_address11CountryCodeC2EPNS0_16AddressComponentE(%"class.autofill::structured_address::CountryCode"*, %"class.autofill::structured_address::AddressComponent"*) unnamed_addr #0 align 2 {
  %3 = bitcast %"class.autofill::structured_address::CountryCode"* %0 to %"class.autofill::structured_address::AddressComponent"*
  tail call void @_ZN8autofill18structured_address16AddressComponentC2ENS_15ServerFieldTypeEPS1_j(%"class.autofill::structured_address::AddressComponent"* %3, i32 36, %"class.autofill::structured_address::AddressComponent"* %1, i32 5) #10
  %4 = getelementptr inbounds %"class.autofill::structured_address::CountryCode", %"class.autofill::structured_address::CountryCode"* %0, i64 0, i32 0, i32 0
  store i32 (...)** bitcast (i8** getelementptr inbounds ({ [27 x i8*] }, { [27 x i8*] }* @_ZTVN8autofill18structured_address11CountryCodeE, i64 0, inrange i32 0, i64 2) to i32 (...)**), i32 (...)*** %4, align 8
  ret void
}

; Function Attrs: nounwind ssp uwtable
define hidden void @_ZN8autofill18structured_address11CountryCodeD2Ev(%"class.autofill::structured_address::CountryCode"*) unnamed_addr #0 align 2 {
  %2 = bitcast %"class.autofill::structured_address::CountryCode"* %0 to %"class.autofill::structured_address::AddressComponent"*
  tail call void @_ZN8autofill18structured_address16AddressComponentD2Ev(%"class.autofill::structured_address::AddressComponent"* %2) #10
  ret void
}

; Function Attrs: nounwind ssp uwtable
define hidden void @_ZN8autofill18structured_address11CountryCodeD0Ev(%"class.autofill::structured_address::CountryCode"*) unnamed_addr #0 align 2 {
  %2 = bitcast %"class.autofill::structured_address::CountryCode"* %0 to %"class.autofill::structured_address::AddressComponent"*
  tail call void @_ZN8autofill18structured_address16AddressComponentD2Ev(%"class.autofill::structured_address::AddressComponent"* %2) #10
  %3 = bitcast %"class.autofill::structured_address::CountryCode"* %0 to i8*
  tail call void @_ZdlPv(i8* %3) #12
  ret void
}

; Function Attrs: nounwind ssp uwtable
define hidden void @_ZN8autofill18structured_address17DependentLocalityC2EPNS0_16AddressComponentE(%"class.autofill::structured_address::DependentLocality"*, %"class.autofill::structured_address::AddressComponent"*) unnamed_addr #0 align 2 {
  %3 = bitcast %"class.autofill::structured_address::DependentLocality"* %0 to %"class.autofill::structured_address::AddressComponent"*
  tail call void @_ZN8autofill18structured_address16AddressComponentC2ENS_15ServerFieldTypeEPS1_j(%"class.autofill::structured_address::AddressComponent"* %3, i32 81, %"class.autofill::structured_address::AddressComponent"* %1, i32 17) #10
  %4 = getelementptr inbounds %"class.autofill::structured_address::DependentLocality", %"class.autofill::structured_address::DependentLocality"* %0, i64 0, i32 0, i32 0
  store i32 (...)** bitcast (i8** getelementptr inbounds ({ [27 x i8*] }, { [27 x i8*] }* @_ZTVN8autofill18structured_address17DependentLocalityE, i64 0, inrange i32 0, i64 2) to i32 (...)**), i32 (...)*** %4, align 8
  ret void
}

; Function Attrs: nounwind ssp uwtable
define hidden void @_ZN8autofill18structured_address17DependentLocalityD2Ev(%"class.autofill::structured_address::DependentLocality"*) unnamed_addr #0 align 2 {
  %2 = bitcast %"class.autofill::structured_address::DependentLocality"* %0 to %"class.autofill::structured_address::AddressComponent"*
  tail call void @_ZN8autofill18structured_address16AddressComponentD2Ev(%"class.autofill::structured_address::AddressComponent"* %2) #10
  ret void
}

; Function Attrs: nounwind ssp uwtable
define hidden void @_ZN8autofill18structured_address17DependentLocalityD0Ev(%"class.autofill::structured_address::DependentLocality"*) unnamed_addr #0 align 2 {
  %2 = bitcast %"class.autofill::structured_address::DependentLocality"* %0 to %"class.autofill::structured_address::AddressComponent"*
  tail call void @_ZN8autofill18structured_address16AddressComponentD2Ev(%"class.autofill::structured_address::AddressComponent"* %2) #10
  %3 = bitcast %"class.autofill::structured_address::DependentLocality"* %0 to i8*
  tail call void @_ZdlPv(i8* %3) #12
  ret void
}

; Function Attrs: nounwind ssp uwtable
define hidden void @_ZN8autofill18structured_address4CityC2EPNS0_16AddressComponentE(%"class.autofill::structured_address::City"*, %"class.autofill::structured_address::AddressComponent"*) unnamed_addr #0 align 2 {
  %3 = bitcast %"class.autofill::structured_address::City"* %0 to %"class.autofill::structured_address::AddressComponent"*
  tail call void @_ZN8autofill18structured_address16AddressComponentC2ENS_15ServerFieldTypeEPS1_j(%"class.autofill::structured_address::AddressComponent"* %3, i32 33, %"class.autofill::structured_address::AddressComponent"* %1, i32 17) #10
  %4 = getelementptr inbounds %"class.autofill::structured_address::City", %"class.autofill::structured_address::City"* %0, i64 0, i32 0, i32 0
  store i32 (...)** bitcast (i8** getelementptr inbounds ({ [27 x i8*] }, { [27 x i8*] }* @_ZTVN8autofill18structured_address4CityE, i64 0, inrange i32 0, i64 2) to i32 (...)**), i32 (...)*** %4, align 8
  ret void
}

; Function Attrs: nounwind ssp uwtable
define hidden void @_ZN8autofill18structured_address4CityD2Ev(%"class.autofill::structured_address::City"*) unnamed_addr #0 align 2 {
  %2 = bitcast %"class.autofill::structured_address::City"* %0 to %"class.autofill::structured_address::AddressComponent"*
  tail call void @_ZN8autofill18structured_address16AddressComponentD2Ev(%"class.autofill::structured_address::AddressComponent"* %2) #10
  ret void
}

; Function Attrs: nounwind ssp uwtable
define hidden void @_ZN8autofill18structured_address4CityD0Ev(%"class.autofill::structured_address::City"*) unnamed_addr #0 align 2 {
  %2 = bitcast %"class.autofill::structured_address::City"* %0 to %"class.autofill::structured_address::AddressComponent"*
  tail call void @_ZN8autofill18structured_address16AddressComponentD2Ev(%"class.autofill::structured_address::AddressComponent"* %2) #10
  %3 = bitcast %"class.autofill::structured_address::City"* %0 to i8*
  tail call void @_ZdlPv(i8* %3) #12
  ret void
}

; Function Attrs: nounwind ssp uwtable
define hidden void @_ZN8autofill18structured_address5StateC2EPNS0_16AddressComponentE(%"class.autofill::structured_address::State"*, %"class.autofill::structured_address::AddressComponent"*) unnamed_addr #0 align 2 {
  %3 = bitcast %"class.autofill::structured_address::State"* %0 to %"class.autofill::structured_address::AddressComponent"*
  tail call void @_ZN8autofill18structured_address16AddressComponentC2ENS_15ServerFieldTypeEPS1_j(%"class.autofill::structured_address::AddressComponent"* %3, i32 34, %"class.autofill::structured_address::AddressComponent"* %1, i32 257) #10
  %4 = getelementptr inbounds %"class.autofill::structured_address::State", %"class.autofill::structured_address::State"* %0, i64 0, i32 0, i32 0, i32 0
  store i32 (...)** bitcast (i8** getelementptr inbounds ({ [27 x i8*] }, { [27 x i8*] }* @_ZTVN8autofill18structured_address5StateE, i64 0, inrange i32 0, i64 2) to i32 (...)**), i32 (...)*** %4, align 8
  ret void
}

; Function Attrs: nounwind ssp uwtable
define hidden void @_ZN8autofill18structured_address5StateD2Ev(%"class.autofill::structured_address::State"*) unnamed_addr #0 align 2 {
  %2 = bitcast %"class.autofill::structured_address::State"* %0 to %"class.autofill::structured_address::AddressComponent"*
  tail call void @_ZN8autofill18structured_address16AddressComponentD2Ev(%"class.autofill::structured_address::AddressComponent"* %2) #10
  ret void
}

; Function Attrs: nounwind ssp uwtable
define hidden void @_ZN8autofill18structured_address5StateD0Ev(%"class.autofill::structured_address::State"*) unnamed_addr #0 align 2 {
  %2 = bitcast %"class.autofill::structured_address::State"* %0 to %"class.autofill::structured_address::AddressComponent"*
  tail call void @_ZN8autofill18structured_address16AddressComponentD2Ev(%"class.autofill::structured_address::AddressComponent"* %2) #10
  %3 = bitcast %"class.autofill::structured_address::State"* %0 to i8*
  tail call void @_ZdlPv(i8* %3) #12
  ret void
}

; Function Attrs: nounwind ssp uwtable
define hidden void @_ZN8autofill18structured_address10PostalCodeC2EPNS0_16AddressComponentE(%"class.autofill::structured_address::PostalCode"*, %"class.autofill::structured_address::AddressComponent"*) unnamed_addr #0 align 2 {
  %3 = bitcast %"class.autofill::structured_address::PostalCode"* %0 to %"class.autofill::structured_address::AddressComponent"*
  tail call void @_ZN8autofill18structured_address16AddressComponentC2ENS_15ServerFieldTypeEPS1_j(%"class.autofill::structured_address::AddressComponent"* %3, i32 35, %"class.autofill::structured_address::AddressComponent"* %1, i32 129) #10
  %4 = getelementptr inbounds %"class.autofill::structured_address::PostalCode", %"class.autofill::structured_address::PostalCode"* %0, i64 0, i32 0, i32 0, i32 0
  store i32 (...)** bitcast (i8** getelementptr inbounds ({ [27 x i8*] }, { [27 x i8*] }* @_ZTVN8autofill18structured_address10PostalCodeE, i64 0, inrange i32 0, i64 2) to i32 (...)**), i32 (...)*** %4, align 8
  ret void
}

; Function Attrs: nounwind ssp uwtable
define hidden void @_ZN8autofill18structured_address10PostalCodeD2Ev(%"class.autofill::structured_address::PostalCode"*) unnamed_addr #0 align 2 {
  %2 = bitcast %"class.autofill::structured_address::PostalCode"* %0 to %"class.autofill::structured_address::AddressComponent"*
  tail call void @_ZN8autofill18structured_address16AddressComponentD2Ev(%"class.autofill::structured_address::AddressComponent"* %2) #10
  ret void
}

; Function Attrs: nounwind ssp uwtable
define hidden void @_ZN8autofill18structured_address10PostalCodeD0Ev(%"class.autofill::structured_address::PostalCode"*) unnamed_addr #0 align 2 {
  %2 = bitcast %"class.autofill::structured_address::PostalCode"* %0 to %"class.autofill::structured_address::AddressComponent"*
  tail call void @_ZN8autofill18structured_address16AddressComponentD2Ev(%"class.autofill::structured_address::AddressComponent"* %2) #10
  %3 = bitcast %"class.autofill::structured_address::PostalCode"* %0 to i8*
  tail call void @_ZdlPv(i8* %3) #12
  ret void
}

; Function Attrs: nounwind ssp uwtable
define hidden void @_ZNK8autofill18structured_address10PostalCode15NormalizedValueEv(%"class.std::__1::basic_string"* noalias sret, %"class.autofill::structured_address::PostalCode"*) unnamed_addr #0 align 2 {
  %3 = bitcast %"class.autofill::structured_address::PostalCode"* %1 to %"class.autofill::structured_address::AddressComponent"*
  %4 = tail call dereferenceable(24) %"class.std::__1::basic_string"* @_ZNK8autofill18structured_address16AddressComponent8GetValueEv(%"class.autofill::structured_address::AddressComponent"* %3) #10
  %5 = bitcast %"class.std::__1::basic_string"* %4 to %"struct.std::__1::basic_string<char16_t, std::__1::char_traits<char16_t>, std::__1::allocator<char16_t> >::__short"*
  %6 = getelementptr inbounds %"struct.std::__1::basic_string<char16_t, std::__1::char_traits<char16_t>, std::__1::allocator<char16_t> >::__short", %"struct.std::__1::basic_string<char16_t, std::__1::char_traits<char16_t>, std::__1::allocator<char16_t> >::__short"* %5, i64 0, i32 1, i32 1
  %7 = load i8, i8* %6, align 1
  %8 = icmp slt i8 %7, 0
  %9 = getelementptr inbounds %"class.std::__1::basic_string", %"class.std::__1::basic_string"* %4, i64 0, i32 0, i32 0, i32 0, i32 0, i32 0, i32 0
  %10 = load i16*, i16** %9, align 8
  %11 = bitcast %"class.std::__1::basic_string"* %4 to i16*
  %12 = select i1 %8, i16* %10, i16* %11
  %13 = getelementptr inbounds %"class.std::__1::basic_string", %"class.std::__1::basic_string"* %4, i64 0, i32 0, i32 0, i32 0, i32 0, i32 0, i32 1
  %14 = load i64, i64* %13, align 8
  %15 = zext i8 %7 to i64
  %16 = select i1 %8, i64 %14, i64 %15
  tail call void @_ZN8autofill18structured_address14NormalizeValueEN4base16BasicStringPieceIDsNSt3__111char_traitsIDsEEEEb(%"class.std::__1::basic_string"* sret %0, i16* %12, i64 %16, i1 zeroext false) #10
  ret void
}

declare void @_ZN8autofill18structured_address14NormalizeValueEN4base16BasicStringPieceIDsNSt3__111char_traitsIDsEEEEb(%"class.std::__1::basic_string"* sret, i16*, i64, i1 zeroext) local_unnamed_addr #2

; Function Attrs: nounwind ssp uwtable
define hidden void @_ZN8autofill18structured_address11SortingCodeC2EPNS0_16AddressComponentE(%"class.autofill::structured_address::SortingCode"*, %"class.autofill::structured_address::AddressComponent"*) unnamed_addr #0 align 2 {
  %3 = bitcast %"class.autofill::structured_address::SortingCode"* %0 to %"class.autofill::structured_address::AddressComponent"*
  tail call void @_ZN8autofill18structured_address16AddressComponentC2ENS_15ServerFieldTypeEPS1_j(%"class.autofill::structured_address::AddressComponent"* %3, i32 79, %"class.autofill::structured_address::AddressComponent"* %1, i32 129) #10
  %4 = getelementptr inbounds %"class.autofill::structured_address::SortingCode", %"class.autofill::structured_address::SortingCode"* %0, i64 0, i32 0, i32 0
  store i32 (...)** bitcast (i8** getelementptr inbounds ({ [27 x i8*] }, { [27 x i8*] }* @_ZTVN8autofill18structured_address11SortingCodeE, i64 0, inrange i32 0, i64 2) to i32 (...)**), i32 (...)*** %4, align 8
  ret void
}

; Function Attrs: nounwind ssp uwtable
define hidden void @_ZN8autofill18structured_address11SortingCodeD2Ev(%"class.autofill::structured_address::SortingCode"*) unnamed_addr #0 align 2 {
  %2 = bitcast %"class.autofill::structured_address::SortingCode"* %0 to %"class.autofill::structured_address::AddressComponent"*
  tail call void @_ZN8autofill18structured_address16AddressComponentD2Ev(%"class.autofill::structured_address::AddressComponent"* %2) #10
  ret void
}

; Function Attrs: nounwind ssp uwtable
define hidden void @_ZN8autofill18structured_address11SortingCodeD0Ev(%"class.autofill::structured_address::SortingCode"*) unnamed_addr #0 align 2 {
  %2 = bitcast %"class.autofill::structured_address::SortingCode"* %0 to %"class.autofill::structured_address::AddressComponent"*
  tail call void @_ZN8autofill18structured_address16AddressComponentD2Ev(%"class.autofill::structured_address::AddressComponent"* %2) #10
  %3 = bitcast %"class.autofill::structured_address::SortingCode"* %0 to i8*
  tail call void @_ZdlPv(i8* %3) #12
  ret void
}

; Function Attrs: nounwind ssp uwtable
define hidden void @_ZN8autofill18structured_address7AddressC2Ev(%"class.autofill::structured_address::Address"*) unnamed_addr #0 align 2 {
  tail call void @_ZN8autofill18structured_address7AddressC2EPNS0_16AddressComponentE(%"class.autofill::structured_address::Address"* %0, %"class.autofill::structured_address::AddressComponent"* null)
  ret void
}

; Function Attrs: nounwind ssp uwtable
define hidden void @_ZN8autofill18structured_address7AddressC2EPNS0_16AddressComponentE(%"class.autofill::structured_address::Address"*, %"class.autofill::structured_address::AddressComponent"*) unnamed_addr #0 align 2 {
  %3 = bitcast %"class.autofill::structured_address::Address"* %0 to %"class.autofill::structured_address::AddressComponent"*
  tail call void @_ZN8autofill18structured_address16AddressComponentC2ENS_15ServerFieldTypeEPS1_j(%"class.autofill::structured_address::AddressComponent"* %3, i32 114, %"class.autofill::structured_address::AddressComponent"* %1, i32 1024) #10
  %4 = getelementptr inbounds %"class.autofill::structured_address::Address", %"class.autofill::structured_address::Address"* %0, i64 0, i32 0, i32 0
  store i32 (...)** bitcast (i8** getelementptr inbounds ({ [27 x i8*] }, { [27 x i8*] }* @_ZTVN8autofill18structured_address7AddressE, i64 0, inrange i32 0, i64 2) to i32 (...)**), i32 (...)*** %4, align 8
  %5 = getelementptr inbounds %"class.autofill::structured_address::Address", %"class.autofill::structured_address::Address"* %0, i64 0, i32 1
  tail call void @_ZN8autofill18structured_address13StreetAddressC2EPNS0_16AddressComponentE(%"class.autofill::structured_address::StreetAddress"* %5, %"class.autofill::structured_address::AddressComponent"* %3)
  %6 = getelementptr inbounds %"class.autofill::structured_address::Address", %"class.autofill::structured_address::Address"* %0, i64 0, i32 2
  %7 = bitcast %"class.autofill::structured_address::PostalCode"* %6 to %"class.autofill::structured_address::AddressComponent"*
  tail call void @_ZN8autofill18structured_address16AddressComponentC2ENS_15ServerFieldTypeEPS1_j(%"class.autofill::structured_address::AddressComponent"* %7, i32 35, %"class.autofill::structured_address::AddressComponent"* %3, i32 129) #10
  %8 = getelementptr inbounds %"class.autofill::structured_address::PostalCode", %"class.autofill::structured_address::PostalCode"* %6, i64 0, i32 0, i32 0, i32 0
  store i32 (...)** bitcast (i8** getelementptr inbounds ({ [27 x i8*] }, { [27 x i8*] }* @_ZTVN8autofill18structured_address10PostalCodeE, i64 0, inrange i32 0, i64 2) to i32 (...)**), i32 (...)*** %8, align 8
  %9 = getelementptr inbounds %"class.autofill::structured_address::Address", %"class.autofill::structured_address::Address"* %0, i64 0, i32 3
  %10 = bitcast %"class.autofill::structured_address::SortingCode"* %9 to %"class.autofill::structured_address::AddressComponent"*
  tail call void @_ZN8autofill18structured_address16AddressComponentC2ENS_15ServerFieldTypeEPS1_j(%"class.autofill::structured_address::AddressComponent"* %10, i32 79, %"class.autofill::structured_address::AddressComponent"* %3, i32 129) #10
  %11 = getelementptr inbounds %"class.autofill::structured_address::SortingCode", %"class.autofill::structured_address::SortingCode"* %9, i64 0, i32 0, i32 0
  store i32 (...)** bitcast (i8** getelementptr inbounds ({ [27 x i8*] }, { [27 x i8*] }* @_ZTVN8autofill18structured_address11SortingCodeE, i64 0, inrange i32 0, i64 2) to i32 (...)**), i32 (...)*** %11, align 8
  %12 = getelementptr inbounds %"class.autofill::structured_address::Address", %"class.autofill::structured_address::Address"* %0, i64 0, i32 4
  %13 = bitcast %"class.autofill::structured_address::DependentLocality"* %12 to %"class.autofill::structured_address::AddressComponent"*
  tail call void @_ZN8autofill18structured_address16AddressComponentC2ENS_15ServerFieldTypeEPS1_j(%"class.autofill::structured_address::AddressComponent"* %13, i32 81, %"class.autofill::structured_address::AddressComponent"* %3, i32 17) #10
  %14 = getelementptr inbounds %"class.autofill::structured_address::DependentLocality", %"class.autofill::structured_address::DependentLocality"* %12, i64 0, i32 0, i32 0
  store i32 (...)** bitcast (i8** getelementptr inbounds ({ [27 x i8*] }, { [27 x i8*] }* @_ZTVN8autofill18structured_address17DependentLocalityE, i64 0, inrange i32 0, i64 2) to i32 (...)**), i32 (...)*** %14, align 8
  %15 = getelementptr inbounds %"class.autofill::structured_address::Address", %"class.autofill::structured_address::Address"* %0, i64 0, i32 5
  %16 = bitcast %"class.autofill::structured_address::City"* %15 to %"class.autofill::structured_address::AddressComponent"*
  tail call void @_ZN8autofill18structured_address16AddressComponentC2ENS_15ServerFieldTypeEPS1_j(%"class.autofill::structured_address::AddressComponent"* %16, i32 33, %"class.autofill::structured_address::AddressComponent"* %3, i32 17) #10
  %17 = getelementptr inbounds %"class.autofill::structured_address::City", %"class.autofill::structured_address::City"* %15, i64 0, i32 0, i32 0
  store i32 (...)** bitcast (i8** getelementptr inbounds ({ [27 x i8*] }, { [27 x i8*] }* @_ZTVN8autofill18structured_address4CityE, i64 0, inrange i32 0, i64 2) to i32 (...)**), i32 (...)*** %17, align 8
  %18 = getelementptr inbounds %"class.autofill::structured_address::Address", %"class.autofill::structured_address::Address"* %0, i64 0, i32 6
  %19 = bitcast %"class.autofill::structured_address::State"* %18 to %"class.autofill::structured_address::AddressComponent"*
  tail call void @_ZN8autofill18structured_address16AddressComponentC2ENS_15ServerFieldTypeEPS1_j(%"class.autofill::structured_address::AddressComponent"* %19, i32 34, %"class.autofill::structured_address::AddressComponent"* %3, i32 257) #10
  %20 = getelementptr inbounds %"class.autofill::structured_address::State", %"class.autofill::structured_address::State"* %18, i64 0, i32 0, i32 0, i32 0
  store i32 (...)** bitcast (i8** getelementptr inbounds ({ [27 x i8*] }, { [27 x i8*] }* @_ZTVN8autofill18structured_address5StateE, i64 0, inrange i32 0, i64 2) to i32 (...)**), i32 (...)*** %20, align 8
  %21 = getelementptr inbounds %"class.autofill::structured_address::Address", %"class.autofill::structured_address::Address"* %0, i64 0, i32 7
  %22 = bitcast %"class.autofill::structured_address::CountryCode"* %21 to %"class.autofill::structured_address::AddressComponent"*
  tail call void @_ZN8autofill18structured_address16AddressComponentC2ENS_15ServerFieldTypeEPS1_j(%"class.autofill::structured_address::AddressComponent"* %22, i32 36, %"class.autofill::structured_address::AddressComponent"* %3, i32 5) #10
  %23 = getelementptr inbounds %"class.autofill::structured_address::CountryCode", %"class.autofill::structured_address::CountryCode"* %21, i64 0, i32 0, i32 0
  store i32 (...)** bitcast (i8** getelementptr inbounds ({ [27 x i8*] }, { [27 x i8*] }* @_ZTVN8autofill18structured_address11CountryCodeE, i64 0, inrange i32 0, i64 2) to i32 (...)**), i32 (...)*** %23, align 8
  ret void
}

; Function Attrs: nounwind ssp uwtable
define hidden void @_ZN8autofill18structured_address7AddressC2ERKS1_(%"class.autofill::structured_address::Address"*, %"class.autofill::structured_address::Address"* dereferenceable(1944)) unnamed_addr #0 align 2 {
  tail call void @_ZN8autofill18structured_address7AddressC2EPNS0_16AddressComponentE(%"class.autofill::structured_address::Address"* %0, %"class.autofill::structured_address::AddressComponent"* null) #10
  %3 = bitcast %"class.autofill::structured_address::Address"* %0 to %"class.autofill::structured_address::AddressComponent"*
  %4 = bitcast %"class.autofill::structured_address::Address"* %1 to %"class.autofill::structured_address::AddressComponent"*
  tail call void @_ZN8autofill18structured_address16AddressComponent8CopyFromERKS1_(%"class.autofill::structured_address::AddressComponent"* %3, %"class.autofill::structured_address::AddressComponent"* dereferenceable(120) %4) #10
  ret void
}

declare void @_ZN8autofill18structured_address16AddressComponent8CopyFromERKS1_(%"class.autofill::structured_address::AddressComponent"*, %"class.autofill::structured_address::AddressComponent"* dereferenceable(120)) local_unnamed_addr #2

; Function Attrs: nounwind ssp uwtable
define hidden dereferenceable(1944) %"class.autofill::structured_address::Address"* @_ZN8autofill18structured_address7AddressaSERKS1_(%"class.autofill::structured_address::Address"* returned, %"class.autofill::structured_address::Address"* dereferenceable(1944)) local_unnamed_addr #0 align 2 {
  %3 = bitcast %"class.autofill::structured_address::Address"* %0 to %"class.autofill::structured_address::AddressComponent"*
  %4 = bitcast %"class.autofill::structured_address::Address"* %1 to %"class.autofill::structured_address::AddressComponent"*
  tail call void @_ZN8autofill18structured_address16AddressComponent8CopyFromERKS1_(%"class.autofill::structured_address::AddressComponent"* %3, %"class.autofill::structured_address::AddressComponent"* dereferenceable(120) %4) #10
  ret %"class.autofill::structured_address::Address"* %0
}

; Function Attrs: nounwind ssp uwtable
define hidden void @_ZN8autofill18structured_address7AddressD2Ev(%"class.autofill::structured_address::Address"*) unnamed_addr #0 align 2 {
  %2 = getelementptr inbounds %"class.autofill::structured_address::Address", %"class.autofill::structured_address::Address"* %0, i64 0, i32 0, i32 0
  store i32 (...)** bitcast (i8** getelementptr inbounds ({ [27 x i8*] }, { [27 x i8*] }* @_ZTVN8autofill18structured_address7AddressE, i64 0, inrange i32 0, i64 2) to i32 (...)**), i32 (...)*** %2, align 8
  %3 = getelementptr inbounds %"class.autofill::structured_address::Address", %"class.autofill::structured_address::Address"* %0, i64 0, i32 7
  %4 = bitcast %"class.autofill::structured_address::CountryCode"* %3 to %"class.autofill::structured_address::AddressComponent"*
  tail call void @_ZN8autofill18structured_address16AddressComponentD2Ev(%"class.autofill::structured_address::AddressComponent"* %4) #10
  %5 = getelementptr inbounds %"class.autofill::structured_address::Address", %"class.autofill::structured_address::Address"* %0, i64 0, i32 6
  %6 = bitcast %"class.autofill::structured_address::State"* %5 to %"class.autofill::structured_address::AddressComponent"*
  tail call void @_ZN8autofill18structured_address16AddressComponentD2Ev(%"class.autofill::structured_address::AddressComponent"* %6) #10
  %7 = getelementptr inbounds %"class.autofill::structured_address::Address", %"class.autofill::structured_address::Address"* %0, i64 0, i32 5
  %8 = bitcast %"class.autofill::structured_address::City"* %7 to %"class.autofill::structured_address::AddressComponent"*
  tail call void @_ZN8autofill18structured_address16AddressComponentD2Ev(%"class.autofill::structured_address::AddressComponent"* %8) #10
  %9 = getelementptr inbounds %"class.autofill::structured_address::Address", %"class.autofill::structured_address::Address"* %0, i64 0, i32 4
  %10 = bitcast %"class.autofill::structured_address::DependentLocality"* %9 to %"class.autofill::structured_address::AddressComponent"*
  tail call void @_ZN8autofill18structured_address16AddressComponentD2Ev(%"class.autofill::structured_address::AddressComponent"* %10) #10
  %11 = getelementptr inbounds %"class.autofill::structured_address::Address", %"class.autofill::structured_address::Address"* %0, i64 0, i32 3
  %12 = bitcast %"class.autofill::structured_address::SortingCode"* %11 to %"class.autofill::structured_address::AddressComponent"*
  tail call void @_ZN8autofill18structured_address16AddressComponentD2Ev(%"class.autofill::structured_address::AddressComponent"* %12) #10
  %13 = getelementptr inbounds %"class.autofill::structured_address::Address", %"class.autofill::structured_address::Address"* %0, i64 0, i32 2
  %14 = bitcast %"class.autofill::structured_address::PostalCode"* %13 to %"class.autofill::structured_address::AddressComponent"*
  tail call void @_ZN8autofill18structured_address16AddressComponentD2Ev(%"class.autofill::structured_address::AddressComponent"* %14) #10
  %15 = getelementptr inbounds %"class.autofill::structured_address::Address", %"class.autofill::structured_address::Address"* %0, i64 0, i32 1
  tail call void @_ZN8autofill18structured_address13StreetAddressD2Ev(%"class.autofill::structured_address::StreetAddress"* %15) #10
  %16 = bitcast %"class.autofill::structured_address::Address"* %0 to %"class.autofill::structured_address::AddressComponent"*
  tail call void @_ZN8autofill18structured_address16AddressComponentD2Ev(%"class.autofill::structured_address::AddressComponent"* %16) #10
  ret void
}

; Function Attrs: nounwind ssp uwtable
define hidden void @_ZN8autofill18structured_address7AddressD0Ev(%"class.autofill::structured_address::Address"*) unnamed_addr #0 align 2 {
  %2 = getelementptr inbounds %"class.autofill::structured_address::Address", %"class.autofill::structured_address::Address"* %0, i64 0, i32 0, i32 0
  store i32 (...)** bitcast (i8** getelementptr inbounds ({ [27 x i8*] }, { [27 x i8*] }* @_ZTVN8autofill18structured_address7AddressE, i64 0, inrange i32 0, i64 2) to i32 (...)**), i32 (...)*** %2, align 8
  %3 = getelementptr inbounds %"class.autofill::structured_address::Address", %"class.autofill::structured_address::Address"* %0, i64 0, i32 7
  %4 = bitcast %"class.autofill::structured_address::CountryCode"* %3 to %"class.autofill::structured_address::AddressComponent"*
  tail call void @_ZN8autofill18structured_address16AddressComponentD2Ev(%"class.autofill::structured_address::AddressComponent"* %4) #10
  %5 = getelementptr inbounds %"class.autofill::structured_address::Address", %"class.autofill::structured_address::Address"* %0, i64 0, i32 6
  %6 = bitcast %"class.autofill::structured_address::State"* %5 to %"class.autofill::structured_address::AddressComponent"*
  tail call void @_ZN8autofill18structured_address16AddressComponentD2Ev(%"class.autofill::structured_address::AddressComponent"* %6) #10
  %7 = getelementptr inbounds %"class.autofill::structured_address::Address", %"class.autofill::structured_address::Address"* %0, i64 0, i32 5
  %8 = bitcast %"class.autofill::structured_address::City"* %7 to %"class.autofill::structured_address::AddressComponent"*
  tail call void @_ZN8autofill18structured_address16AddressComponentD2Ev(%"class.autofill::structured_address::AddressComponent"* %8) #10
  %9 = getelementptr inbounds %"class.autofill::structured_address::Address", %"class.autofill::structured_address::Address"* %0, i64 0, i32 4
  %10 = bitcast %"class.autofill::structured_address::DependentLocality"* %9 to %"class.autofill::structured_address::AddressComponent"*
  tail call void @_ZN8autofill18structured_address16AddressComponentD2Ev(%"class.autofill::structured_address::AddressComponent"* %10) #10
  %11 = getelementptr inbounds %"class.autofill::structured_address::Address", %"class.autofill::structured_address::Address"* %0, i64 0, i32 3
  %12 = bitcast %"class.autofill::structured_address::SortingCode"* %11 to %"class.autofill::structured_address::AddressComponent"*
  tail call void @_ZN8autofill18structured_address16AddressComponentD2Ev(%"class.autofill::structured_address::AddressComponent"* %12) #10
  %13 = getelementptr inbounds %"class.autofill::structured_address::Address", %"class.autofill::structured_address::Address"* %0, i64 0, i32 2
  %14 = bitcast %"class.autofill::structured_address::PostalCode"* %13 to %"class.autofill::structured_address::AddressComponent"*
  tail call void @_ZN8autofill18structured_address16AddressComponentD2Ev(%"class.autofill::structured_address::AddressComponent"* %14) #10
  %15 = getelementptr inbounds %"class.autofill::structured_address::Address", %"class.autofill::structured_address::Address"* %0, i64 0, i32 1
  tail call void @_ZN8autofill18structured_address13StreetAddressD2Ev(%"class.autofill::structured_address::StreetAddress"* %15) #10
  %16 = bitcast %"class.autofill::structured_address::Address"* %0 to %"class.autofill::structured_address::AddressComponent"*
  tail call void @_ZN8autofill18structured_address16AddressComponentD2Ev(%"class.autofill::structured_address::AddressComponent"* %16) #10
  %17 = bitcast %"class.autofill::structured_address::Address"* %0 to i8*
  tail call void @_ZdlPv(i8* %17) #12
  ret void
}

; Function Attrs: nounwind ssp uwtable
define hidden zeroext i1 @_ZN8autofill18structured_address7Address20WipeInvalidStructureEv(%"class.autofill::structured_address::Address"*) unnamed_addr #0 align 2 {
  %2 = getelementptr inbounds %"class.autofill::structured_address::Address", %"class.autofill::structured_address::Address"* %0, i64 0, i32 1
  %3 = bitcast %"class.autofill::structured_address::StreetAddress"* %2 to %"class.autofill::structured_address::AddressComponent"*
  %4 = tail call zeroext i1 @_ZN8autofill18structured_address16AddressComponent20WipeInvalidStructureEv(%"class.autofill::structured_address::AddressComponent"* %3) #10
  ret i1 %4
}

declare zeroext i1 @_ZN8autofill18structured_address16AddressComponent20WipeInvalidStructureEv(%"class.autofill::structured_address::AddressComponent"*) unnamed_addr #2

; Function Attrs: nounwind ssp uwtable
define hidden void @_ZN8autofill18structured_address7Address22MigrateLegacyStructureEb(%"class.autofill::structured_address::Address"*, i1 zeroext) unnamed_addr #0 align 2 {
  %3 = alloca %"class.std::__1::basic_string", align 8
  %4 = bitcast %"class.autofill::structured_address::Address"* %0 to %"class.autofill::structured_address::AddressComponent"*
  %5 = tail call i32 @_ZNK8autofill18structured_address16AddressComponent21GetVerificationStatusEv(%"class.autofill::structured_address::AddressComponent"* %4) #10
  %6 = icmp eq i32 %5, 0
  br i1 %6, label %7, label %228

7:                                                ; preds = %2
  %8 = getelementptr inbounds %"class.autofill::structured_address::Address", %"class.autofill::structured_address::Address"* %0, i64 0, i32 0, i32 4, i32 0, i32 0
  %9 = load %"class.autofill::structured_address::AddressComponent"**, %"class.autofill::structured_address::AddressComponent"*** %8, align 8
  %10 = getelementptr inbounds %"class.autofill::structured_address::Address", %"class.autofill::structured_address::Address"* %0, i64 0, i32 0, i32 4, i32 0, i32 1
  %11 = load %"class.autofill::structured_address::AddressComponent"**, %"class.autofill::structured_address::AddressComponent"*** %10, align 8
  %12 = icmp eq %"class.autofill::structured_address::AddressComponent"** %9, %11
  br i1 %12, label %228, label %13

13:                                               ; preds = %7
  %14 = bitcast %"class.std::__1::basic_string"* %3 to i8*
  %15 = bitcast %"class.std::__1::basic_string"* %3 to i8**
  %16 = getelementptr inbounds %"class.std::__1::basic_string", %"class.std::__1::basic_string"* %3, i64 0, i32 0, i32 0, i32 0, i32 0, i32 0, i32 2
  %17 = getelementptr inbounds %"class.std::__1::basic_string", %"class.std::__1::basic_string"* %3, i64 0, i32 0, i32 0, i32 0, i32 0, i32 0, i32 1
  %18 = bitcast %"class.std::__1::basic_string"* %3 to i16*
  %19 = bitcast %"class.std::__1::basic_string"* %3 to %"struct.std::__1::basic_string<char16_t, std::__1::char_traits<char16_t>, std::__1::allocator<char16_t> >::__short"*
  %20 = getelementptr inbounds %"struct.std::__1::basic_string<char16_t, std::__1::char_traits<char16_t>, std::__1::allocator<char16_t> >::__short", %"struct.std::__1::basic_string<char16_t, std::__1::char_traits<char16_t>, std::__1::allocator<char16_t> >::__short"* %19, i64 0, i32 1, i32 1
  %21 = select i1 %1, i32 4, i32 3
  br label %22

22:                                               ; preds = %13, %225
  %23 = phi %"class.autofill::structured_address::AddressComponent"** [ %9, %13 ], [ %226, %225 ]
  %24 = load %"class.autofill::structured_address::AddressComponent"*, %"class.autofill::structured_address::AddressComponent"** %23, align 8
  %25 = call dereferenceable(24) %"class.std::__1::basic_string"* @_ZNK8autofill18structured_address16AddressComponent8GetValueEv(%"class.autofill::structured_address::AddressComponent"* %24) #10
  %26 = bitcast %"class.std::__1::basic_string"* %25 to %"struct.std::__1::basic_string<char16_t, std::__1::char_traits<char16_t>, std::__1::allocator<char16_t> >::__short"*
  %27 = getelementptr inbounds %"struct.std::__1::basic_string<char16_t, std::__1::char_traits<char16_t>, std::__1::allocator<char16_t> >::__short", %"struct.std::__1::basic_string<char16_t, std::__1::char_traits<char16_t>, std::__1::allocator<char16_t> >::__short"* %26, i64 0, i32 1, i32 1
  %28 = load i8, i8* %27, align 1
  %29 = icmp slt i8 %28, 0
  %30 = getelementptr inbounds %"class.std::__1::basic_string", %"class.std::__1::basic_string"* %25, i64 0, i32 0, i32 0, i32 0, i32 0, i32 0, i32 1
  %31 = load i64, i64* %30, align 8
  %32 = zext i8 %28 to i64
  %33 = select i1 %29, i64 %31, i64 %32
  %34 = icmp eq i64 %33, 0
  br i1 %34, label %225, label %35

35:                                               ; preds = %22
  %36 = call i32 @_ZNK8autofill18structured_address16AddressComponent21GetVerificationStatusEv(%"class.autofill::structured_address::AddressComponent"* %24) #10
  %37 = icmp eq i32 %36, 0
  br i1 %37, label %38, label %225

38:                                               ; preds = %35
  %39 = call dereferenceable(24) %"class.std::__1::basic_string"* @_ZNK8autofill18structured_address16AddressComponent8GetValueEv(%"class.autofill::structured_address::AddressComponent"* %24) #10
  %40 = bitcast %"class.std::__1::basic_string"* %39 to %"struct.std::__1::basic_string<char16_t, std::__1::char_traits<char16_t>, std::__1::allocator<char16_t> >::__short"*
  %41 = getelementptr inbounds %"struct.std::__1::basic_string<char16_t, std::__1::char_traits<char16_t>, std::__1::allocator<char16_t> >::__short", %"struct.std::__1::basic_string<char16_t, std::__1::char_traits<char16_t>, std::__1::allocator<char16_t> >::__short"* %40, i64 0, i32 1, i32 1
  %42 = load i8, i8* %41, align 1
  %43 = icmp slt i8 %42, 0
  br i1 %43, label %46, label %44

44:                                               ; preds = %38
  %45 = bitcast %"class.std::__1::basic_string"* %39 to i8*
  call void @llvm.memcpy.p0i8.p0i8.i64(i8* nonnull align 8 %14, i8* align 8 %45, i64 24, i1 false) #10
  br label %216

46:                                               ; preds = %38
  %47 = getelementptr inbounds %"class.std::__1::basic_string", %"class.std::__1::basic_string"* %39, i64 0, i32 0, i32 0, i32 0, i32 0, i32 0, i32 0
  %48 = load i16*, i16** %47, align 8
  %49 = getelementptr inbounds %"class.std::__1::basic_string", %"class.std::__1::basic_string"* %39, i64 0, i32 0, i32 0, i32 0, i32 0, i32 0, i32 1
  %50 = load i64, i64* %49, align 8
  %51 = icmp ult i64 %50, 11
  br i1 %51, label %52, label %54

52:                                               ; preds = %46
  %53 = trunc i64 %50 to i8
  store i8 %53, i8* %20, align 1
  br label %68

54:                                               ; preds = %46
  %55 = icmp ugt i64 %50, 9223372036854775791
  br i1 %55, label %56, label %58

56:                                               ; preds = %54
  %57 = bitcast %"class.std::__1::basic_string"* %3 to %"class.std::__1::__basic_string_common"*
  call void @_ZNKSt3__121__basic_string_commonILb1EE20__throw_length_errorEv(%"class.std::__1::__basic_string_common"* nonnull %57) #11
  unreachable

58:                                               ; preds = %54
  %59 = add nuw nsw i64 %50, 8
  %60 = and i64 %59, -8
  %61 = icmp slt i64 %60, 0
  br i1 %61, label %62, label %63

62:                                               ; preds = %58
  call void @abort() #11
  unreachable

63:                                               ; preds = %58
  %64 = shl i64 %60, 1
  %65 = call i8* @_Znwm(i64 %64) #12
  %66 = bitcast i8* %65 to i16*
  store i8* %65, i8** %15, align 8
  %67 = or i64 %60, -9223372036854775808
  store i64 %67, i64* %16, align 8
  store i64 %50, i64* %17, align 8
  br label %68

68:                                               ; preds = %63, %52
  %69 = phi i16* [ %18, %52 ], [ %66, %63 ]
  %70 = add nuw nsw i64 %50, 1
  %71 = add i64 %50, 1
  %72 = icmp ult i64 %71, 16
  br i1 %72, label %163, label %73

73:                                               ; preds = %68
  %74 = getelementptr i16, i16* %69, i64 1
  %75 = getelementptr i16, i16* %74, i64 %50
  %76 = getelementptr i16, i16* %48, i64 1
  %77 = getelementptr i16, i16* %76, i64 %50
  %78 = icmp ult i16* %69, %77
  %79 = icmp ult i16* %48, %75
  %80 = and i1 %78, %79
  br i1 %80, label %163, label %81

81:                                               ; preds = %73
  %82 = and i64 %71, -16
  %83 = sub i64 %70, %82
  %84 = getelementptr i16, i16* %48, i64 %82
  %85 = getelementptr i16, i16* %69, i64 %82
  %86 = add i64 %82, -16
  %87 = lshr exact i64 %86, 4
  %88 = add nuw nsw i64 %87, 1
  %89 = and i64 %88, 3
  %90 = icmp ult i64 %86, 48
  br i1 %90, label %142, label %91

91:                                               ; preds = %81
  %92 = sub nsw i64 %88, %89
  br label %93

93:                                               ; preds = %93, %91
  %94 = phi i64 [ 0, %91 ], [ %139, %93 ]
  %95 = phi i64 [ %92, %91 ], [ %140, %93 ]
  %96 = getelementptr i16, i16* %48, i64 %94
  %97 = getelementptr i16, i16* %69, i64 %94
  %98 = bitcast i16* %96 to <8 x i16>*
  %99 = load <8 x i16>, <8 x i16>* %98, align 2, !alias.scope !102
  %100 = getelementptr i16, i16* %96, i64 8
  %101 = bitcast i16* %100 to <8 x i16>*
  %102 = load <8 x i16>, <8 x i16>* %101, align 2, !alias.scope !102
  %103 = bitcast i16* %97 to <8 x i16>*
  store <8 x i16> %99, <8 x i16>* %103, align 2, !alias.scope !105, !noalias !102
  %104 = getelementptr i16, i16* %97, i64 8
  %105 = bitcast i16* %104 to <8 x i16>*
  store <8 x i16> %102, <8 x i16>* %105, align 2, !alias.scope !105, !noalias !102
  %106 = or i64 %94, 16
  %107 = getelementptr i16, i16* %48, i64 %106
  %108 = getelementptr i16, i16* %69, i64 %106
  %109 = bitcast i16* %107 to <8 x i16>*
  %110 = load <8 x i16>, <8 x i16>* %109, align 2, !alias.scope !102
  %111 = getelementptr i16, i16* %107, i64 8
  %112 = bitcast i16* %111 to <8 x i16>*
  %113 = load <8 x i16>, <8 x i16>* %112, align 2, !alias.scope !102
  %114 = bitcast i16* %108 to <8 x i16>*
  store <8 x i16> %110, <8 x i16>* %114, align 2, !alias.scope !105, !noalias !102
  %115 = getelementptr i16, i16* %108, i64 8
  %116 = bitcast i16* %115 to <8 x i16>*
  store <8 x i16> %113, <8 x i16>* %116, align 2, !alias.scope !105, !noalias !102
  %117 = or i64 %94, 32
  %118 = getelementptr i16, i16* %48, i64 %117
  %119 = getelementptr i16, i16* %69, i64 %117
  %120 = bitcast i16* %118 to <8 x i16>*
  %121 = load <8 x i16>, <8 x i16>* %120, align 2, !alias.scope !102
  %122 = getelementptr i16, i16* %118, i64 8
  %123 = bitcast i16* %122 to <8 x i16>*
  %124 = load <8 x i16>, <8 x i16>* %123, align 2, !alias.scope !102
  %125 = bitcast i16* %119 to <8 x i16>*
  store <8 x i16> %121, <8 x i16>* %125, align 2, !alias.scope !105, !noalias !102
  %126 = getelementptr i16, i16* %119, i64 8
  %127 = bitcast i16* %126 to <8 x i16>*
  store <8 x i16> %124, <8 x i16>* %127, align 2, !alias.scope !105, !noalias !102
  %128 = or i64 %94, 48
  %129 = getelementptr i16, i16* %48, i64 %128
  %130 = getelementptr i16, i16* %69, i64 %128
  %131 = bitcast i16* %129 to <8 x i16>*
  %132 = load <8 x i16>, <8 x i16>* %131, align 2, !alias.scope !102
  %133 = getelementptr i16, i16* %129, i64 8
  %134 = bitcast i16* %133 to <8 x i16>*
  %135 = load <8 x i16>, <8 x i16>* %134, align 2, !alias.scope !102
  %136 = bitcast i16* %130 to <8 x i16>*
  store <8 x i16> %132, <8 x i16>* %136, align 2, !alias.scope !105, !noalias !102
  %137 = getelementptr i16, i16* %130, i64 8
  %138 = bitcast i16* %137 to <8 x i16>*
  store <8 x i16> %135, <8 x i16>* %138, align 2, !alias.scope !105, !noalias !102
  %139 = add i64 %94, 64
  %140 = add i64 %95, -4
  %141 = icmp eq i64 %140, 0
  br i1 %141, label %142, label %93, !llvm.loop !107

142:                                              ; preds = %93, %81
  %143 = phi i64 [ 0, %81 ], [ %139, %93 ]
  %144 = icmp eq i64 %89, 0
  br i1 %144, label %161, label %145

145:                                              ; preds = %142, %145
  %146 = phi i64 [ %158, %145 ], [ %143, %142 ]
  %147 = phi i64 [ %159, %145 ], [ %89, %142 ]
  %148 = getelementptr i16, i16* %48, i64 %146
  %149 = getelementptr i16, i16* %69, i64 %146
  %150 = bitcast i16* %148 to <8 x i16>*
  %151 = load <8 x i16>, <8 x i16>* %150, align 2, !alias.scope !102
  %152 = getelementptr i16, i16* %148, i64 8
  %153 = bitcast i16* %152 to <8 x i16>*
  %154 = load <8 x i16>, <8 x i16>* %153, align 2, !alias.scope !102
  %155 = bitcast i16* %149 to <8 x i16>*
  store <8 x i16> %151, <8 x i16>* %155, align 2, !alias.scope !105, !noalias !102
  %156 = getelementptr i16, i16* %149, i64 8
  %157 = bitcast i16* %156 to <8 x i16>*
  store <8 x i16> %154, <8 x i16>* %157, align 2, !alias.scope !105, !noalias !102
  %158 = add i64 %146, 16
  %159 = add i64 %147, -1
  %160 = icmp eq i64 %159, 0
  br i1 %160, label %161, label %145, !llvm.loop !108

161:                                              ; preds = %145, %142
  %162 = icmp eq i64 %71, %82
  br i1 %162, label %216, label %163

163:                                              ; preds = %161, %73, %68
  %164 = phi i64 [ %70, %73 ], [ %70, %68 ], [ %83, %161 ]
  %165 = phi i16* [ %48, %73 ], [ %48, %68 ], [ %84, %161 ]
  %166 = phi i16* [ %69, %73 ], [ %69, %68 ], [ %85, %161 ]
  %167 = add i64 %164, -1
  %168 = and i64 %164, 7
  %169 = icmp eq i64 %168, 0
  br i1 %169, label %181, label %170

170:                                              ; preds = %163, %170
  %171 = phi i64 [ %176, %170 ], [ %164, %163 ]
  %172 = phi i16* [ %178, %170 ], [ %165, %163 ]
  %173 = phi i16* [ %177, %170 ], [ %166, %163 ]
  %174 = phi i64 [ %179, %170 ], [ %168, %163 ]
  %175 = load i16, i16* %172, align 2
  store i16 %175, i16* %173, align 2
  %176 = add i64 %171, -1
  %177 = getelementptr inbounds i16, i16* %173, i64 1
  %178 = getelementptr inbounds i16, i16* %172, i64 1
  %179 = add i64 %174, -1
  %180 = icmp eq i64 %179, 0
  br i1 %180, label %181, label %170, !llvm.loop !109

181:                                              ; preds = %170, %163
  %182 = phi i64 [ %164, %163 ], [ %176, %170 ]
  %183 = phi i16* [ %165, %163 ], [ %178, %170 ]
  %184 = phi i16* [ %166, %163 ], [ %177, %170 ]
  %185 = icmp ult i64 %167, 7
  br i1 %185, label %216, label %186

186:                                              ; preds = %181, %186
  %187 = phi i64 [ %212, %186 ], [ %182, %181 ]
  %188 = phi i16* [ %214, %186 ], [ %183, %181 ]
  %189 = phi i16* [ %213, %186 ], [ %184, %181 ]
  %190 = load i16, i16* %188, align 2
  store i16 %190, i16* %189, align 2
  %191 = getelementptr inbounds i16, i16* %189, i64 1
  %192 = getelementptr inbounds i16, i16* %188, i64 1
  %193 = load i16, i16* %192, align 2
  store i16 %193, i16* %191, align 2
  %194 = getelementptr inbounds i16, i16* %189, i64 2
  %195 = getelementptr inbounds i16, i16* %188, i64 2
  %196 = load i16, i16* %195, align 2
  store i16 %196, i16* %194, align 2
  %197 = getelementptr inbounds i16, i16* %189, i64 3
  %198 = getelementptr inbounds i16, i16* %188, i64 3
  %199 = load i16, i16* %198, align 2
  store i16 %199, i16* %197, align 2
  %200 = getelementptr inbounds i16, i16* %189, i64 4
  %201 = getelementptr inbounds i16, i16* %188, i64 4
  %202 = load i16, i16* %201, align 2
  store i16 %202, i16* %200, align 2
  %203 = getelementptr inbounds i16, i16* %189, i64 5
  %204 = getelementptr inbounds i16, i16* %188, i64 5
  %205 = load i16, i16* %204, align 2
  store i16 %205, i16* %203, align 2
  %206 = getelementptr inbounds i16, i16* %189, i64 6
  %207 = getelementptr inbounds i16, i16* %188, i64 6
  %208 = load i16, i16* %207, align 2
  store i16 %208, i16* %206, align 2
  %209 = getelementptr inbounds i16, i16* %189, i64 7
  %210 = getelementptr inbounds i16, i16* %188, i64 7
  %211 = load i16, i16* %210, align 2
  store i16 %211, i16* %209, align 2
  %212 = add i64 %187, -8
  %213 = getelementptr inbounds i16, i16* %189, i64 8
  %214 = getelementptr inbounds i16, i16* %188, i64 8
  %215 = icmp eq i64 %212, 0
  br i1 %215, label %216, label %186, !llvm.loop !110

216:                                              ; preds = %181, %186, %161, %44
  %217 = bitcast %"class.autofill::structured_address::AddressComponent"* %24 to void (%"class.autofill::structured_address::AddressComponent"*, %"class.std::__1::basic_string"*, i32)***
  %218 = load void (%"class.autofill::structured_address::AddressComponent"*, %"class.std::__1::basic_string"*, i32)**, void (%"class.autofill::structured_address::AddressComponent"*, %"class.std::__1::basic_string"*, i32)*** %217, align 8
  %219 = getelementptr inbounds void (%"class.autofill::structured_address::AddressComponent"*, %"class.std::__1::basic_string"*, i32)*, void (%"class.autofill::structured_address::AddressComponent"*, %"class.std::__1::basic_string"*, i32)** %218, i64 3
  %220 = load void (%"class.autofill::structured_address::AddressComponent"*, %"class.std::__1::basic_string"*, i32)*, void (%"class.autofill::structured_address::AddressComponent"*, %"class.std::__1::basic_string"*, i32)** %219, align 8
  call void %220(%"class.autofill::structured_address::AddressComponent"* %24, %"class.std::__1::basic_string"* nonnull %3, i32 %21) #10
  %221 = load i8, i8* %20, align 1
  %222 = icmp slt i8 %221, 0
  br i1 %222, label %223, label %225

223:                                              ; preds = %216
  %224 = load i8*, i8** %15, align 8
  call void @_ZdlPv(i8* %224) #12
  br label %225

225:                                              ; preds = %223, %216, %35, %22
  %226 = getelementptr inbounds %"class.autofill::structured_address::AddressComponent"*, %"class.autofill::structured_address::AddressComponent"** %23, i64 1
  %227 = icmp eq %"class.autofill::structured_address::AddressComponent"** %226, %11
  br i1 %227, label %228, label %22

228:                                              ; preds = %225, %7, %2
  ret void
}

; Function Attrs: nounwind
declare void @_ZN8autofill18structured_address16AddressComponentD2Ev(%"class.autofill::structured_address::AddressComponent"*) unnamed_addr #4

; Function Attrs: inlinehint nounwind ssp uwtable
define linkonce_odr hidden void @_ZN8autofill18structured_address28AddressComponentWithRewriterD0Ev(%"class.autofill::structured_address::AddressComponentWithRewriter"*) unnamed_addr #5 comdat align 2 {
  %2 = bitcast %"class.autofill::structured_address::AddressComponentWithRewriter"* %0 to %"class.autofill::structured_address::AddressComponent"*
  tail call void @_ZN8autofill18structured_address16AddressComponentD2Ev(%"class.autofill::structured_address::AddressComponent"* %2) #10
  %3 = bitcast %"class.autofill::structured_address::AddressComponentWithRewriter"* %0 to i8*
  tail call void @_ZdlPv(i8* %3) #12
  ret void
}

; Function Attrs: nounwind ssp uwtable
define linkonce_odr hidden void @_ZN8autofill18structured_address16AddressComponent22MigrateLegacyStructureEb(%"class.autofill::structured_address::AddressComponent"*, i1 zeroext) unnamed_addr #0 comdat align 2 {
  ret void
}

declare void @_ZN8autofill18structured_address16AddressComponent23RecursivelyCompleteTreeEv(%"class.autofill::structured_address::AddressComponent"*) unnamed_addr #2

declare zeroext i1 @_ZN8autofill18structured_address16AddressComponent16CompleteFullTreeEv(%"class.autofill::structured_address::AddressComponent"*) unnamed_addr #2

; Function Attrs: nounwind ssp uwtable
define linkonce_odr hidden void @_ZNK8autofill18structured_address16AddressComponent32GetAdditionalSupportedFieldTypesEPNS_8DenseSetINS_15ServerFieldTypeELS3_118EEE(%"class.autofill::structured_address::AddressComponent"*, %"class.autofill::DenseSet"*) unnamed_addr #0 comdat align 2 {
  ret void
}

declare zeroext i1 @_ZNK8autofill18structured_address16AddressComponent24IsMergeableWithComponentERKS1_(%"class.autofill::structured_address::AddressComponent"*, %"class.autofill::structured_address::AddressComponent"* dereferenceable(120)) unnamed_addr #2

declare void @_ZN8autofill18structured_address16AddressComponent25MergeVerificationStatusesERKS1_(%"class.autofill::structured_address::AddressComponent"*, %"class.autofill::structured_address::AddressComponent"* dereferenceable(120)) unnamed_addr #2

declare zeroext i1 @_ZN8autofill18structured_address16AddressComponent18MergeWithComponentERKS1_b(%"class.autofill::structured_address::AddressComponent"*, %"class.autofill::structured_address::AddressComponent"* dereferenceable(120), i1 zeroext) unnamed_addr #2

declare i32 @_ZNK8autofill18structured_address16AddressComponent29GetStructureVerificationScoreEv(%"class.autofill::structured_address::AddressComponent"*) unnamed_addr #2

declare void @_ZNK8autofill18structured_address16AddressComponent19GetBestFormatStringEv(%"class.std::__1::basic_string"* sret, %"class.autofill::structured_address::AddressComponent"*) unnamed_addr #2

declare void @_ZNK8autofill18structured_address16AddressComponent37GetParseRegularExpressionsByRelevanceEv(%"class.std::__1::vector.26"* sret, %"class.autofill::structured_address::AddressComponent"*) unnamed_addr #2

declare zeroext i1 @_ZN8autofill18structured_address16AddressComponent40ParseValueAndAssignSubcomponentsByMethodEv(%"class.autofill::structured_address::AddressComponent"*) unnamed_addr #2

declare void @_ZN8autofill18structured_address16AddressComponent48ParseValueAndAssignSubcomponentsByFallbackMethodEv(%"class.autofill::structured_address::AddressComponent"*) unnamed_addr #2

declare zeroext i1 @_ZN8autofill18structured_address16AddressComponent44ConvertAndSetValueForAdditionalFieldTypeNameERKNSt3__112basic_stringIcNS2_11char_traitsIcEENS2_9allocatorIcEEEERKNS3_IDsNS4_IDsEENS6_IDsEEEERKNS0_18VerificationStatusE(%"class.autofill::structured_address::AddressComponent"*, %"class.std::__1::basic_string.28"* dereferenceable(24), %"class.std::__1::basic_string"* dereferenceable(24), i32* dereferenceable(4)) unnamed_addr #2

declare zeroext i1 @_ZNK8autofill18structured_address16AddressComponent47ConvertAndGetTheValueForAdditionalFieldTypeNameERKNSt3__112basic_stringIcNS2_11char_traitsIcEENS2_9allocatorIcEEEEPNS3_IDsNS4_IDsEENS6_IDsEEEE(%"class.autofill::structured_address::AddressComponent"*, %"class.std::__1::basic_string.28"* dereferenceable(24), %"class.std::__1::basic_string"*) unnamed_addr #2

declare void @_ZN8autofill18structured_address16AddressComponent22ConsumeAdditionalTokenERKNSt3__112basic_stringIDsNS2_11char_traitsIDsEENS2_9allocatorIDsEEEE(%"class.autofill::structured_address::AddressComponent"*, %"class.std::__1::basic_string"* dereferenceable(24)) unnamed_addr #2

declare zeroext i1 @_ZNK8autofill18structured_address16AddressComponent12IsValueValidEv(%"class.autofill::structured_address::AddressComponent"*) unnamed_addr #2

; Function Attrs: nounwind ssp uwtable
define linkonce_odr hidden void @_ZN8autofill18structured_address16AddressComponent22PostAssignSanitizationEv(%"class.autofill::structured_address::AddressComponent"*) unnamed_addr #0 comdat align 2 {
  ret void
}

declare void @_ZNK8autofill18structured_address16AddressComponent15NormalizedValueEv(%"class.std::__1::basic_string"* sret, %"class.autofill::structured_address::AddressComponent"*) unnamed_addr #2

declare zeroext i1 @_ZNK8autofill18structured_address16AddressComponent33HasNewerValuePrecendenceInMergingERKS1_(%"class.autofill::structured_address::AddressComponent"*, %"class.autofill::structured_address::AddressComponent"* dereferenceable(120)) unnamed_addr #2

declare void @_ZNK8autofill18structured_address16AddressComponent18ValueForComparisonEv(%"class.std::__1::basic_string"* sret, %"class.autofill::structured_address::AddressComponent"*) unnamed_addr #2

; Function Attrs: argmemonly nounwind
declare void @llvm.memcpy.p0i8.p0i8.i64(i8* nocapture writeonly, i8* nocapture readonly, i64, i1 immarg) #1

; Function Attrs: noreturn
declare void @_ZNKSt3__121__basic_string_commonILb1EE20__throw_length_errorEv(%"class.std::__1::__basic_string_common"*) local_unnamed_addr #6

; Function Attrs: noreturn nounwind
declare void @abort() local_unnamed_addr #7

; Function Attrs: nobuiltin nofree
declare noalias nonnull i8* @_Znwm(i64) local_unnamed_addr #8

; Function Attrs: noreturn
declare void @_ZNKSt3__120__vector_base_commonILb1EE20__throw_length_errorEv(%"class.std::__1::__vector_base_common"*) local_unnamed_addr #6

; Function Attrs: noreturn
declare void @_ZNKSt3__120__vector_base_commonILb1EE20__throw_out_of_rangeEv(%"class.std::__1::__vector_base_common"*) local_unnamed_addr #6

declare i32 @_ZNKSt3__112basic_stringIcNS_11char_traitsIcEENS_9allocatorIcEEE7compareEmmPKcm(%"class.std::__1::basic_string.28"*, i64, i64, i8*, i64) local_unnamed_addr #2

; Function Attrs: nounwind ssp uwtable
define linkonce_odr hidden void @_ZNSt3__112basic_stringIDsNS_11char_traitsIDsEENS_9allocatorIDsEEE21__grow_by_and_replaceEmmmmmmPKDs(%"class.std::__1::basic_string"*, i64, i64, i64, i64, i64, i64, i16*) local_unnamed_addr #0 comdat align 2 {
  %9 = sub i64 9223372036854775790, %1
  %10 = icmp ult i64 %9, %2
  br i1 %10, label %11, label %13

11:                                               ; preds = %8
  %12 = bitcast %"class.std::__1::basic_string"* %0 to %"class.std::__1::__basic_string_common"*
  tail call void @_ZNKSt3__121__basic_string_commonILb1EE20__throw_length_errorEv(%"class.std::__1::__basic_string_common"* %12) #11
  unreachable

13:                                               ; preds = %8
  %14 = bitcast %"class.std::__1::basic_string"* %0 to %"struct.std::__1::basic_string<char16_t, std::__1::char_traits<char16_t>, std::__1::allocator<char16_t> >::__short"*
  %15 = getelementptr inbounds %"struct.std::__1::basic_string<char16_t, std::__1::char_traits<char16_t>, std::__1::allocator<char16_t> >::__short", %"struct.std::__1::basic_string<char16_t, std::__1::char_traits<char16_t>, std::__1::allocator<char16_t> >::__short"* %14, i64 0, i32 1, i32 1
  %16 = load i8, i8* %15, align 1
  %17 = icmp slt i8 %16, 0
  br i1 %17, label %18, label %21

18:                                               ; preds = %13
  %19 = getelementptr inbounds %"class.std::__1::basic_string", %"class.std::__1::basic_string"* %0, i64 0, i32 0, i32 0, i32 0, i32 0, i32 0, i32 0
  %20 = load i16*, i16** %19, align 8
  br label %23

21:                                               ; preds = %13
  %22 = bitcast %"class.std::__1::basic_string"* %0 to i16*
  br label %23

23:                                               ; preds = %18, %21
  %24 = phi i16* [ %20, %18 ], [ %22, %21 ]
  %25 = bitcast i16* %24 to i8*
  %26 = icmp ult i64 %1, 4611686018427387879
  br i1 %26, label %27, label %38

27:                                               ; preds = %23
  %28 = add i64 %2, %1
  %29 = shl i64 %1, 1
  %30 = icmp ult i64 %28, %29
  %31 = select i1 %30, i64 %29, i64 %28
  %32 = icmp ult i64 %31, 11
  br i1 %32, label %38, label %33

33:                                               ; preds = %27
  %34 = add i64 %31, 8
  %35 = and i64 %34, -8
  %36 = icmp slt i64 %35, 0
  br i1 %36, label %37, label %38

37:                                               ; preds = %33
  tail call void @abort() #11
  unreachable

38:                                               ; preds = %23, %27, %33
  %39 = phi i64 [ %35, %33 ], [ 9223372036854775791, %23 ], [ 11, %27 ]
  %40 = shl i64 %39, 1
  %41 = tail call i8* @_Znwm(i64 %40) #12
  %42 = bitcast i8* %41 to i16*
  %43 = icmp eq i64 %4, 0
  br i1 %43, label %189, label %44

44:                                               ; preds = %38
  %45 = icmp ult i64 %4, 16
  br i1 %45, label %136, label %46

46:                                               ; preds = %44
  %47 = shl i64 %4, 1
  %48 = getelementptr i8, i8* %41, i64 %47
  %49 = getelementptr i16, i16* %24, i64 %4
  %50 = bitcast i16* %49 to i8*
  %51 = icmp ult i8* %41, %50
  %52 = icmp ugt i8* %48, %25
  %53 = and i1 %51, %52
  br i1 %53, label %136, label %54

54:                                               ; preds = %46
  %55 = and i64 %4, -16
  %56 = sub i64 %4, %55
  %57 = getelementptr i16, i16* %24, i64 %55
  %58 = getelementptr i16, i16* %42, i64 %55
  %59 = add i64 %55, -16
  %60 = lshr exact i64 %59, 4
  %61 = add nuw nsw i64 %60, 1
  %62 = and i64 %61, 3
  %63 = icmp ult i64 %59, 48
  br i1 %63, label %115, label %64

64:                                               ; preds = %54
  %65 = sub nsw i64 %61, %62
  br label %66

66:                                               ; preds = %66, %64
  %67 = phi i64 [ 0, %64 ], [ %112, %66 ]
  %68 = phi i64 [ %65, %64 ], [ %113, %66 ]
  %69 = getelementptr i16, i16* %24, i64 %67
  %70 = getelementptr i16, i16* %42, i64 %67
  %71 = bitcast i16* %69 to <8 x i16>*
  %72 = load <8 x i16>, <8 x i16>* %71, align 2, !alias.scope !111
  %73 = getelementptr i16, i16* %69, i64 8
  %74 = bitcast i16* %73 to <8 x i16>*
  %75 = load <8 x i16>, <8 x i16>* %74, align 2, !alias.scope !111
  %76 = bitcast i16* %70 to <8 x i16>*
  store <8 x i16> %72, <8 x i16>* %76, align 2, !alias.scope !114, !noalias !111
  %77 = getelementptr i16, i16* %70, i64 8
  %78 = bitcast i16* %77 to <8 x i16>*
  store <8 x i16> %75, <8 x i16>* %78, align 2, !alias.scope !114, !noalias !111
  %79 = or i64 %67, 16
  %80 = getelementptr i16, i16* %24, i64 %79
  %81 = getelementptr i16, i16* %42, i64 %79
  %82 = bitcast i16* %80 to <8 x i16>*
  %83 = load <8 x i16>, <8 x i16>* %82, align 2, !alias.scope !111
  %84 = getelementptr i16, i16* %80, i64 8
  %85 = bitcast i16* %84 to <8 x i16>*
  %86 = load <8 x i16>, <8 x i16>* %85, align 2, !alias.scope !111
  %87 = bitcast i16* %81 to <8 x i16>*
  store <8 x i16> %83, <8 x i16>* %87, align 2, !alias.scope !114, !noalias !111
  %88 = getelementptr i16, i16* %81, i64 8
  %89 = bitcast i16* %88 to <8 x i16>*
  store <8 x i16> %86, <8 x i16>* %89, align 2, !alias.scope !114, !noalias !111
  %90 = or i64 %67, 32
  %91 = getelementptr i16, i16* %24, i64 %90
  %92 = getelementptr i16, i16* %42, i64 %90
  %93 = bitcast i16* %91 to <8 x i16>*
  %94 = load <8 x i16>, <8 x i16>* %93, align 2, !alias.scope !111
  %95 = getelementptr i16, i16* %91, i64 8
  %96 = bitcast i16* %95 to <8 x i16>*
  %97 = load <8 x i16>, <8 x i16>* %96, align 2, !alias.scope !111
  %98 = bitcast i16* %92 to <8 x i16>*
  store <8 x i16> %94, <8 x i16>* %98, align 2, !alias.scope !114, !noalias !111
  %99 = getelementptr i16, i16* %92, i64 8
  %100 = bitcast i16* %99 to <8 x i16>*
  store <8 x i16> %97, <8 x i16>* %100, align 2, !alias.scope !114, !noalias !111
  %101 = or i64 %67, 48
  %102 = getelementptr i16, i16* %24, i64 %101
  %103 = getelementptr i16, i16* %42, i64 %101
  %104 = bitcast i16* %102 to <8 x i16>*
  %105 = load <8 x i16>, <8 x i16>* %104, align 2, !alias.scope !111
  %106 = getelementptr i16, i16* %102, i64 8
  %107 = bitcast i16* %106 to <8 x i16>*
  %108 = load <8 x i16>, <8 x i16>* %107, align 2, !alias.scope !111
  %109 = bitcast i16* %103 to <8 x i16>*
  store <8 x i16> %105, <8 x i16>* %109, align 2, !alias.scope !114, !noalias !111
  %110 = getelementptr i16, i16* %103, i64 8
  %111 = bitcast i16* %110 to <8 x i16>*
  store <8 x i16> %108, <8 x i16>* %111, align 2, !alias.scope !114, !noalias !111
  %112 = add i64 %67, 64
  %113 = add i64 %68, -4
  %114 = icmp eq i64 %113, 0
  br i1 %114, label %115, label %66, !llvm.loop !116

115:                                              ; preds = %66, %54
  %116 = phi i64 [ 0, %54 ], [ %112, %66 ]
  %117 = icmp eq i64 %62, 0
  br i1 %117, label %134, label %118

118:                                              ; preds = %115, %118
  %119 = phi i64 [ %131, %118 ], [ %116, %115 ]
  %120 = phi i64 [ %132, %118 ], [ %62, %115 ]
  %121 = getelementptr i16, i16* %24, i64 %119
  %122 = getelementptr i16, i16* %42, i64 %119
  %123 = bitcast i16* %121 to <8 x i16>*
  %124 = load <8 x i16>, <8 x i16>* %123, align 2, !alias.scope !111
  %125 = getelementptr i16, i16* %121, i64 8
  %126 = bitcast i16* %125 to <8 x i16>*
  %127 = load <8 x i16>, <8 x i16>* %126, align 2, !alias.scope !111
  %128 = bitcast i16* %122 to <8 x i16>*
  store <8 x i16> %124, <8 x i16>* %128, align 2, !alias.scope !114, !noalias !111
  %129 = getelementptr i16, i16* %122, i64 8
  %130 = bitcast i16* %129 to <8 x i16>*
  store <8 x i16> %127, <8 x i16>* %130, align 2, !alias.scope !114, !noalias !111
  %131 = add i64 %119, 16
  %132 = add i64 %120, -1
  %133 = icmp eq i64 %132, 0
  br i1 %133, label %134, label %118, !llvm.loop !117

134:                                              ; preds = %118, %115
  %135 = icmp eq i64 %55, %4
  br i1 %135, label %189, label %136

136:                                              ; preds = %134, %46, %44
  %137 = phi i64 [ %4, %46 ], [ %4, %44 ], [ %56, %134 ]
  %138 = phi i16* [ %24, %46 ], [ %24, %44 ], [ %57, %134 ]
  %139 = phi i16* [ %42, %46 ], [ %42, %44 ], [ %58, %134 ]
  %140 = add i64 %137, -1
  %141 = and i64 %137, 7
  %142 = icmp eq i64 %141, 0
  br i1 %142, label %154, label %143

143:                                              ; preds = %136, %143
  %144 = phi i64 [ %149, %143 ], [ %137, %136 ]
  %145 = phi i16* [ %151, %143 ], [ %138, %136 ]
  %146 = phi i16* [ %150, %143 ], [ %139, %136 ]
  %147 = phi i64 [ %152, %143 ], [ %141, %136 ]
  %148 = load i16, i16* %145, align 2
  store i16 %148, i16* %146, align 2
  %149 = add i64 %144, -1
  %150 = getelementptr inbounds i16, i16* %146, i64 1
  %151 = getelementptr inbounds i16, i16* %145, i64 1
  %152 = add i64 %147, -1
  %153 = icmp eq i64 %152, 0
  br i1 %153, label %154, label %143, !llvm.loop !118

154:                                              ; preds = %143, %136
  %155 = phi i64 [ %137, %136 ], [ %149, %143 ]
  %156 = phi i16* [ %138, %136 ], [ %151, %143 ]
  %157 = phi i16* [ %139, %136 ], [ %150, %143 ]
  %158 = icmp ult i64 %140, 7
  br i1 %158, label %189, label %159

159:                                              ; preds = %154, %159
  %160 = phi i64 [ %185, %159 ], [ %155, %154 ]
  %161 = phi i16* [ %187, %159 ], [ %156, %154 ]
  %162 = phi i16* [ %186, %159 ], [ %157, %154 ]
  %163 = load i16, i16* %161, align 2
  store i16 %163, i16* %162, align 2
  %164 = getelementptr inbounds i16, i16* %162, i64 1
  %165 = getelementptr inbounds i16, i16* %161, i64 1
  %166 = load i16, i16* %165, align 2
  store i16 %166, i16* %164, align 2
  %167 = getelementptr inbounds i16, i16* %162, i64 2
  %168 = getelementptr inbounds i16, i16* %161, i64 2
  %169 = load i16, i16* %168, align 2
  store i16 %169, i16* %167, align 2
  %170 = getelementptr inbounds i16, i16* %162, i64 3
  %171 = getelementptr inbounds i16, i16* %161, i64 3
  %172 = load i16, i16* %171, align 2
  store i16 %172, i16* %170, align 2
  %173 = getelementptr inbounds i16, i16* %162, i64 4
  %174 = getelementptr inbounds i16, i16* %161, i64 4
  %175 = load i16, i16* %174, align 2
  store i16 %175, i16* %173, align 2
  %176 = getelementptr inbounds i16, i16* %162, i64 5
  %177 = getelementptr inbounds i16, i16* %161, i64 5
  %178 = load i16, i16* %177, align 2
  store i16 %178, i16* %176, align 2
  %179 = getelementptr inbounds i16, i16* %162, i64 6
  %180 = getelementptr inbounds i16, i16* %161, i64 6
  %181 = load i16, i16* %180, align 2
  store i16 %181, i16* %179, align 2
  %182 = getelementptr inbounds i16, i16* %162, i64 7
  %183 = getelementptr inbounds i16, i16* %161, i64 7
  %184 = load i16, i16* %183, align 2
  store i16 %184, i16* %182, align 2
  %185 = add i64 %160, -8
  %186 = getelementptr inbounds i16, i16* %162, i64 8
  %187 = getelementptr inbounds i16, i16* %161, i64 8
  %188 = icmp eq i64 %185, 0
  br i1 %188, label %189, label %159, !llvm.loop !119

189:                                              ; preds = %154, %159, %134, %38
  %190 = icmp eq i64 %6, 0
  br i1 %190, label %289, label %191

191:                                              ; preds = %189
  %192 = getelementptr inbounds i16, i16* %42, i64 %4
  %193 = icmp ult i64 %6, 16
  br i1 %193, label %276, label %194

194:                                              ; preds = %191
  %195 = and i64 %6, -16
  %196 = sub i64 %6, %195
  %197 = getelementptr i16, i16* %7, i64 %195
  %198 = getelementptr i16, i16* %192, i64 %195
  %199 = add i64 %195, -16
  %200 = lshr exact i64 %199, 4
  %201 = add nuw nsw i64 %200, 1
  %202 = and i64 %201, 3
  %203 = icmp ult i64 %199, 48
  br i1 %203, label %255, label %204

204:                                              ; preds = %194
  %205 = sub nsw i64 %201, %202
  br label %206

206:                                              ; preds = %206, %204
  %207 = phi i64 [ 0, %204 ], [ %252, %206 ]
  %208 = phi i64 [ %205, %204 ], [ %253, %206 ]
  %209 = getelementptr i16, i16* %7, i64 %207
  %210 = getelementptr i16, i16* %192, i64 %207
  %211 = bitcast i16* %209 to <8 x i16>*
  %212 = load <8 x i16>, <8 x i16>* %211, align 2
  %213 = getelementptr i16, i16* %209, i64 8
  %214 = bitcast i16* %213 to <8 x i16>*
  %215 = load <8 x i16>, <8 x i16>* %214, align 2
  %216 = bitcast i16* %210 to <8 x i16>*
  store <8 x i16> %212, <8 x i16>* %216, align 2
  %217 = getelementptr i16, i16* %210, i64 8
  %218 = bitcast i16* %217 to <8 x i16>*
  store <8 x i16> %215, <8 x i16>* %218, align 2
  %219 = or i64 %207, 16
  %220 = getelementptr i16, i16* %7, i64 %219
  %221 = getelementptr i16, i16* %192, i64 %219
  %222 = bitcast i16* %220 to <8 x i16>*
  %223 = load <8 x i16>, <8 x i16>* %222, align 2
  %224 = getelementptr i16, i16* %220, i64 8
  %225 = bitcast i16* %224 to <8 x i16>*
  %226 = load <8 x i16>, <8 x i16>* %225, align 2
  %227 = bitcast i16* %221 to <8 x i16>*
  store <8 x i16> %223, <8 x i16>* %227, align 2
  %228 = getelementptr i16, i16* %221, i64 8
  %229 = bitcast i16* %228 to <8 x i16>*
  store <8 x i16> %226, <8 x i16>* %229, align 2
  %230 = or i64 %207, 32
  %231 = getelementptr i16, i16* %7, i64 %230
  %232 = getelementptr i16, i16* %192, i64 %230
  %233 = bitcast i16* %231 to <8 x i16>*
  %234 = load <8 x i16>, <8 x i16>* %233, align 2
  %235 = getelementptr i16, i16* %231, i64 8
  %236 = bitcast i16* %235 to <8 x i16>*
  %237 = load <8 x i16>, <8 x i16>* %236, align 2
  %238 = bitcast i16* %232 to <8 x i16>*
  store <8 x i16> %234, <8 x i16>* %238, align 2
  %239 = getelementptr i16, i16* %232, i64 8
  %240 = bitcast i16* %239 to <8 x i16>*
  store <8 x i16> %237, <8 x i16>* %240, align 2
  %241 = or i64 %207, 48
  %242 = getelementptr i16, i16* %7, i64 %241
  %243 = getelementptr i16, i16* %192, i64 %241
  %244 = bitcast i16* %242 to <8 x i16>*
  %245 = load <8 x i16>, <8 x i16>* %244, align 2
  %246 = getelementptr i16, i16* %242, i64 8
  %247 = bitcast i16* %246 to <8 x i16>*
  %248 = load <8 x i16>, <8 x i16>* %247, align 2
  %249 = bitcast i16* %243 to <8 x i16>*
  store <8 x i16> %245, <8 x i16>* %249, align 2
  %250 = getelementptr i16, i16* %243, i64 8
  %251 = bitcast i16* %250 to <8 x i16>*
  store <8 x i16> %248, <8 x i16>* %251, align 2
  %252 = add i64 %207, 64
  %253 = add i64 %208, -4
  %254 = icmp eq i64 %253, 0
  br i1 %254, label %255, label %206, !llvm.loop !120

255:                                              ; preds = %206, %194
  %256 = phi i64 [ 0, %194 ], [ %252, %206 ]
  %257 = icmp eq i64 %202, 0
  br i1 %257, label %274, label %258

258:                                              ; preds = %255, %258
  %259 = phi i64 [ %271, %258 ], [ %256, %255 ]
  %260 = phi i64 [ %272, %258 ], [ %202, %255 ]
  %261 = getelementptr i16, i16* %7, i64 %259
  %262 = getelementptr i16, i16* %192, i64 %259
  %263 = bitcast i16* %261 to <8 x i16>*
  %264 = load <8 x i16>, <8 x i16>* %263, align 2
  %265 = getelementptr i16, i16* %261, i64 8
  %266 = bitcast i16* %265 to <8 x i16>*
  %267 = load <8 x i16>, <8 x i16>* %266, align 2
  %268 = bitcast i16* %262 to <8 x i16>*
  store <8 x i16> %264, <8 x i16>* %268, align 2
  %269 = getelementptr i16, i16* %262, i64 8
  %270 = bitcast i16* %269 to <8 x i16>*
  store <8 x i16> %267, <8 x i16>* %270, align 2
  %271 = add i64 %259, 16
  %272 = add i64 %260, -1
  %273 = icmp eq i64 %272, 0
  br i1 %273, label %274, label %258, !llvm.loop !121

274:                                              ; preds = %258, %255
  %275 = icmp eq i64 %195, %6
  br i1 %275, label %289, label %276

276:                                              ; preds = %274, %191
  %277 = phi i64 [ %6, %191 ], [ %196, %274 ]
  %278 = phi i16* [ %7, %191 ], [ %197, %274 ]
  %279 = phi i16* [ %192, %191 ], [ %198, %274 ]
  br label %280

280:                                              ; preds = %276, %280
  %281 = phi i64 [ %285, %280 ], [ %277, %276 ]
  %282 = phi i16* [ %287, %280 ], [ %278, %276 ]
  %283 = phi i16* [ %286, %280 ], [ %279, %276 ]
  %284 = load i16, i16* %282, align 2
  store i16 %284, i16* %283, align 2
  %285 = add i64 %281, -1
  %286 = getelementptr inbounds i16, i16* %283, i64 1
  %287 = getelementptr inbounds i16, i16* %282, i64 1
  %288 = icmp eq i64 %285, 0
  br i1 %288, label %289, label %280, !llvm.loop !122

289:                                              ; preds = %280, %274, %189
  %290 = sub i64 %3, %5
  %291 = sub i64 %290, %4
  %292 = icmp eq i64 %291, 0
  br i1 %292, label %448, label %293

293:                                              ; preds = %289
  %294 = getelementptr inbounds i16, i16* %42, i64 %4
  %295 = getelementptr inbounds i16, i16* %294, i64 %6
  %296 = getelementptr inbounds i16, i16* %24, i64 %4
  %297 = getelementptr inbounds i16, i16* %296, i64 %5
  %298 = icmp ult i64 %291, 16
  br i1 %298, label %395, label %299

299:                                              ; preds = %293
  %300 = bitcast i16* %297 to i8*
  %301 = add i64 %6, %4
  %302 = shl i64 %301, 1
  %303 = getelementptr i8, i8* %41, i64 %302
  %304 = add i64 %6, %3
  %305 = sub i64 %304, %5
  %306 = shl i64 %305, 1
  %307 = getelementptr i8, i8* %41, i64 %306
  %308 = getelementptr i16, i16* %24, i64 %3
  %309 = bitcast i16* %308 to i8*
  %310 = icmp ult i8* %303, %309
  %311 = icmp ugt i8* %307, %300
  %312 = and i1 %310, %311
  br i1 %312, label %395, label %313

313:                                              ; preds = %299
  %314 = and i64 %291, -16
  %315 = sub i64 %291, %314
  %316 = getelementptr i16, i16* %297, i64 %314
  %317 = getelementptr i16, i16* %295, i64 %314
  %318 = add i64 %314, -16
  %319 = lshr exact i64 %318, 4
  %320 = add nuw nsw i64 %319, 1
  %321 = and i64 %320, 3
  %322 = icmp ult i64 %318, 48
  br i1 %322, label %374, label %323

323:                                              ; preds = %313
  %324 = sub nsw i64 %320, %321
  br label %325

325:                                              ; preds = %325, %323
  %326 = phi i64 [ 0, %323 ], [ %371, %325 ]
  %327 = phi i64 [ %324, %323 ], [ %372, %325 ]
  %328 = getelementptr i16, i16* %297, i64 %326
  %329 = getelementptr i16, i16* %295, i64 %326
  %330 = bitcast i16* %328 to <8 x i16>*
  %331 = load <8 x i16>, <8 x i16>* %330, align 2, !alias.scope !123
  %332 = getelementptr i16, i16* %328, i64 8
  %333 = bitcast i16* %332 to <8 x i16>*
  %334 = load <8 x i16>, <8 x i16>* %333, align 2, !alias.scope !123
  %335 = bitcast i16* %329 to <8 x i16>*
  store <8 x i16> %331, <8 x i16>* %335, align 2, !alias.scope !126, !noalias !123
  %336 = getelementptr i16, i16* %329, i64 8
  %337 = bitcast i16* %336 to <8 x i16>*
  store <8 x i16> %334, <8 x i16>* %337, align 2, !alias.scope !126, !noalias !123
  %338 = or i64 %326, 16
  %339 = getelementptr i16, i16* %297, i64 %338
  %340 = getelementptr i16, i16* %295, i64 %338
  %341 = bitcast i16* %339 to <8 x i16>*
  %342 = load <8 x i16>, <8 x i16>* %341, align 2, !alias.scope !123
  %343 = getelementptr i16, i16* %339, i64 8
  %344 = bitcast i16* %343 to <8 x i16>*
  %345 = load <8 x i16>, <8 x i16>* %344, align 2, !alias.scope !123
  %346 = bitcast i16* %340 to <8 x i16>*
  store <8 x i16> %342, <8 x i16>* %346, align 2, !alias.scope !126, !noalias !123
  %347 = getelementptr i16, i16* %340, i64 8
  %348 = bitcast i16* %347 to <8 x i16>*
  store <8 x i16> %345, <8 x i16>* %348, align 2, !alias.scope !126, !noalias !123
  %349 = or i64 %326, 32
  %350 = getelementptr i16, i16* %297, i64 %349
  %351 = getelementptr i16, i16* %295, i64 %349
  %352 = bitcast i16* %350 to <8 x i16>*
  %353 = load <8 x i16>, <8 x i16>* %352, align 2, !alias.scope !123
  %354 = getelementptr i16, i16* %350, i64 8
  %355 = bitcast i16* %354 to <8 x i16>*
  %356 = load <8 x i16>, <8 x i16>* %355, align 2, !alias.scope !123
  %357 = bitcast i16* %351 to <8 x i16>*
  store <8 x i16> %353, <8 x i16>* %357, align 2, !alias.scope !126, !noalias !123
  %358 = getelementptr i16, i16* %351, i64 8
  %359 = bitcast i16* %358 to <8 x i16>*
  store <8 x i16> %356, <8 x i16>* %359, align 2, !alias.scope !126, !noalias !123
  %360 = or i64 %326, 48
  %361 = getelementptr i16, i16* %297, i64 %360
  %362 = getelementptr i16, i16* %295, i64 %360
  %363 = bitcast i16* %361 to <8 x i16>*
  %364 = load <8 x i16>, <8 x i16>* %363, align 2, !alias.scope !123
  %365 = getelementptr i16, i16* %361, i64 8
  %366 = bitcast i16* %365 to <8 x i16>*
  %367 = load <8 x i16>, <8 x i16>* %366, align 2, !alias.scope !123
  %368 = bitcast i16* %362 to <8 x i16>*
  store <8 x i16> %364, <8 x i16>* %368, align 2, !alias.scope !126, !noalias !123
  %369 = getelementptr i16, i16* %362, i64 8
  %370 = bitcast i16* %369 to <8 x i16>*
  store <8 x i16> %367, <8 x i16>* %370, align 2, !alias.scope !126, !noalias !123
  %371 = add i64 %326, 64
  %372 = add i64 %327, -4
  %373 = icmp eq i64 %372, 0
  br i1 %373, label %374, label %325, !llvm.loop !128

374:                                              ; preds = %325, %313
  %375 = phi i64 [ 0, %313 ], [ %371, %325 ]
  %376 = icmp eq i64 %321, 0
  br i1 %376, label %393, label %377

377:                                              ; preds = %374, %377
  %378 = phi i64 [ %390, %377 ], [ %375, %374 ]
  %379 = phi i64 [ %391, %377 ], [ %321, %374 ]
  %380 = getelementptr i16, i16* %297, i64 %378
  %381 = getelementptr i16, i16* %295, i64 %378
  %382 = bitcast i16* %380 to <8 x i16>*
  %383 = load <8 x i16>, <8 x i16>* %382, align 2, !alias.scope !123
  %384 = getelementptr i16, i16* %380, i64 8
  %385 = bitcast i16* %384 to <8 x i16>*
  %386 = load <8 x i16>, <8 x i16>* %385, align 2, !alias.scope !123
  %387 = bitcast i16* %381 to <8 x i16>*
  store <8 x i16> %383, <8 x i16>* %387, align 2, !alias.scope !126, !noalias !123
  %388 = getelementptr i16, i16* %381, i64 8
  %389 = bitcast i16* %388 to <8 x i16>*
  store <8 x i16> %386, <8 x i16>* %389, align 2, !alias.scope !126, !noalias !123
  %390 = add i64 %378, 16
  %391 = add i64 %379, -1
  %392 = icmp eq i64 %391, 0
  br i1 %392, label %393, label %377, !llvm.loop !129

393:                                              ; preds = %377, %374
  %394 = icmp eq i64 %291, %314
  br i1 %394, label %448, label %395

395:                                              ; preds = %393, %299, %293
  %396 = phi i64 [ %291, %299 ], [ %291, %293 ], [ %315, %393 ]
  %397 = phi i16* [ %297, %299 ], [ %297, %293 ], [ %316, %393 ]
  %398 = phi i16* [ %295, %299 ], [ %295, %293 ], [ %317, %393 ]
  %399 = add i64 %396, -1
  %400 = and i64 %396, 7
  %401 = icmp eq i64 %400, 0
  br i1 %401, label %413, label %402

402:                                              ; preds = %395, %402
  %403 = phi i64 [ %408, %402 ], [ %396, %395 ]
  %404 = phi i16* [ %410, %402 ], [ %397, %395 ]
  %405 = phi i16* [ %409, %402 ], [ %398, %395 ]
  %406 = phi i64 [ %411, %402 ], [ %400, %395 ]
  %407 = load i16, i16* %404, align 2
  store i16 %407, i16* %405, align 2
  %408 = add i64 %403, -1
  %409 = getelementptr inbounds i16, i16* %405, i64 1
  %410 = getelementptr inbounds i16, i16* %404, i64 1
  %411 = add i64 %406, -1
  %412 = icmp eq i64 %411, 0
  br i1 %412, label %413, label %402, !llvm.loop !130

413:                                              ; preds = %402, %395
  %414 = phi i64 [ %396, %395 ], [ %408, %402 ]
  %415 = phi i16* [ %397, %395 ], [ %410, %402 ]
  %416 = phi i16* [ %398, %395 ], [ %409, %402 ]
  %417 = icmp ult i64 %399, 7
  br i1 %417, label %448, label %418

418:                                              ; preds = %413, %418
  %419 = phi i64 [ %444, %418 ], [ %414, %413 ]
  %420 = phi i16* [ %446, %418 ], [ %415, %413 ]
  %421 = phi i16* [ %445, %418 ], [ %416, %413 ]
  %422 = load i16, i16* %420, align 2
  store i16 %422, i16* %421, align 2
  %423 = getelementptr inbounds i16, i16* %421, i64 1
  %424 = getelementptr inbounds i16, i16* %420, i64 1
  %425 = load i16, i16* %424, align 2
  store i16 %425, i16* %423, align 2
  %426 = getelementptr inbounds i16, i16* %421, i64 2
  %427 = getelementptr inbounds i16, i16* %420, i64 2
  %428 = load i16, i16* %427, align 2
  store i16 %428, i16* %426, align 2
  %429 = getelementptr inbounds i16, i16* %421, i64 3
  %430 = getelementptr inbounds i16, i16* %420, i64 3
  %431 = load i16, i16* %430, align 2
  store i16 %431, i16* %429, align 2
  %432 = getelementptr inbounds i16, i16* %421, i64 4
  %433 = getelementptr inbounds i16, i16* %420, i64 4
  %434 = load i16, i16* %433, align 2
  store i16 %434, i16* %432, align 2
  %435 = getelementptr inbounds i16, i16* %421, i64 5
  %436 = getelementptr inbounds i16, i16* %420, i64 5
  %437 = load i16, i16* %436, align 2
  store i16 %437, i16* %435, align 2
  %438 = getelementptr inbounds i16, i16* %421, i64 6
  %439 = getelementptr inbounds i16, i16* %420, i64 6
  %440 = load i16, i16* %439, align 2
  store i16 %440, i16* %438, align 2
  %441 = getelementptr inbounds i16, i16* %421, i64 7
  %442 = getelementptr inbounds i16, i16* %420, i64 7
  %443 = load i16, i16* %442, align 2
  store i16 %443, i16* %441, align 2
  %444 = add i64 %419, -8
  %445 = getelementptr inbounds i16, i16* %421, i64 8
  %446 = getelementptr inbounds i16, i16* %420, i64 8
  %447 = icmp eq i64 %444, 0
  br i1 %447, label %448, label %418, !llvm.loop !131

448:                                              ; preds = %413, %418, %393, %289
  %449 = icmp eq i64 %1, 10
  br i1 %449, label %451, label %450

450:                                              ; preds = %448
  tail call void @_ZdlPv(i8* %25) #12
  br label %451

451:                                              ; preds = %448, %450
  %452 = bitcast %"class.std::__1::basic_string"* %0 to i8**
  store i8* %41, i8** %452, align 8
  %453 = or i64 %39, -9223372036854775808
  %454 = getelementptr inbounds %"class.std::__1::basic_string", %"class.std::__1::basic_string"* %0, i64 0, i32 0, i32 0, i32 0, i32 0, i32 0, i32 2
  store i64 %453, i64* %454, align 8
  %455 = add i64 %290, %6
  %456 = getelementptr inbounds %"class.std::__1::basic_string", %"class.std::__1::basic_string"* %0, i64 0, i32 0, i32 0, i32 0, i32 0, i32 0, i32 1
  store i64 %455, i64* %456, align 8
  %457 = getelementptr inbounds i16, i16* %42, i64 %455
  store i16 0, i16* %457, align 2
  ret void
}

; Function Attrs: nounwind ssp uwtable
define linkonce_odr hidden void @_ZNSt3__16vectorINS_12basic_stringIDsNS_11char_traitsIDsEENS_9allocatorIDsEEEENS4_IS6_EEE8__appendEmRKS6_(%"class.std::__1::vector.19"*, i64, %"class.std::__1::basic_string"* dereferenceable(24)) local_unnamed_addr #0 comdat align 2 {
  %4 = getelementptr inbounds %"class.std::__1::vector.19", %"class.std::__1::vector.19"* %0, i64 0, i32 0, i32 2, i32 0, i32 0
  %5 = bitcast %"class.std::__1::basic_string"** %4 to i64*
  %6 = load i64, i64* %5, align 8
  %7 = getelementptr inbounds %"class.std::__1::vector.19", %"class.std::__1::vector.19"* %0, i64 0, i32 0, i32 1
  %8 = bitcast %"class.std::__1::basic_string"** %7 to i64*
  %9 = load i64, i64* %8, align 8
  %10 = sub i64 %6, %9
  %11 = sdiv exact i64 %10, 24
  %12 = icmp ult i64 %11, %1
  br i1 %12, label %210, label %13

13:                                               ; preds = %3
  %14 = inttoptr i64 %9 to %"class.std::__1::basic_string"*
  %15 = getelementptr inbounds %"class.std::__1::basic_string", %"class.std::__1::basic_string"* %14, i64 %1
  %16 = icmp eq i64 %1, 0
  br i1 %16, label %208, label %17

17:                                               ; preds = %13
  %18 = bitcast %"class.std::__1::basic_string"* %2 to %"struct.std::__1::basic_string<char16_t, std::__1::char_traits<char16_t>, std::__1::allocator<char16_t> >::__short"*
  %19 = getelementptr inbounds %"struct.std::__1::basic_string<char16_t, std::__1::char_traits<char16_t>, std::__1::allocator<char16_t> >::__short", %"struct.std::__1::basic_string<char16_t, std::__1::char_traits<char16_t>, std::__1::allocator<char16_t> >::__short"* %18, i64 0, i32 1, i32 1
  %20 = bitcast %"class.std::__1::basic_string"* %2 to i8*
  %21 = getelementptr inbounds %"class.std::__1::basic_string", %"class.std::__1::basic_string"* %2, i64 0, i32 0, i32 0, i32 0, i32 0, i32 0, i32 0
  %22 = getelementptr inbounds %"class.std::__1::basic_string", %"class.std::__1::basic_string"* %2, i64 0, i32 0, i32 0, i32 0, i32 0, i32 0, i32 1
  br label %25

23:                                               ; preds = %205
  %24 = ptrtoint %"class.std::__1::basic_string"* %15 to i64
  br label %208

25:                                               ; preds = %205, %17
  %26 = phi %"class.std::__1::basic_string"* [ %14, %17 ], [ %206, %205 ]
  %27 = load i8, i8* %19, align 1
  %28 = icmp slt i8 %27, 0
  br i1 %28, label %31, label %29

29:                                               ; preds = %25
  %30 = bitcast %"class.std::__1::basic_string"* %26 to i8*
  tail call void @llvm.memcpy.p0i8.p0i8.i64(i8* align 8 %30, i8* align 8 %20, i64 24, i1 false) #10
  br label %205

31:                                               ; preds = %25
  %32 = load i16*, i16** %21, align 8
  %33 = load i64, i64* %22, align 8
  %34 = icmp ult i64 %33, 11
  br i1 %34, label %35, label %40

35:                                               ; preds = %31
  %36 = bitcast %"class.std::__1::basic_string"* %26 to i16*
  %37 = trunc i64 %33 to i8
  %38 = bitcast %"class.std::__1::basic_string"* %26 to %"struct.std::__1::basic_string<char16_t, std::__1::char_traits<char16_t>, std::__1::allocator<char16_t> >::__short"*
  %39 = getelementptr inbounds %"struct.std::__1::basic_string<char16_t, std::__1::char_traits<char16_t>, std::__1::allocator<char16_t> >::__short", %"struct.std::__1::basic_string<char16_t, std::__1::char_traits<char16_t>, std::__1::allocator<char16_t> >::__short"* %38, i64 0, i32 1, i32 1
  store i8 %37, i8* %39, align 1
  br label %57

40:                                               ; preds = %31
  %41 = icmp ugt i64 %33, 9223372036854775791
  br i1 %41, label %42, label %44

42:                                               ; preds = %40
  %43 = bitcast %"class.std::__1::basic_string"* %26 to %"class.std::__1::__basic_string_common"*
  tail call void @_ZNKSt3__121__basic_string_commonILb1EE20__throw_length_errorEv(%"class.std::__1::__basic_string_common"* %43) #11
  unreachable

44:                                               ; preds = %40
  %45 = add nuw nsw i64 %33, 8
  %46 = and i64 %45, -8
  %47 = icmp slt i64 %46, 0
  br i1 %47, label %48, label %49

48:                                               ; preds = %44
  tail call void @abort() #11
  unreachable

49:                                               ; preds = %44
  %50 = shl i64 %46, 1
  %51 = tail call i8* @_Znwm(i64 %50) #12
  %52 = bitcast i8* %51 to i16*
  %53 = bitcast %"class.std::__1::basic_string"* %26 to i8**
  store i8* %51, i8** %53, align 8
  %54 = or i64 %46, -9223372036854775808
  %55 = getelementptr inbounds %"class.std::__1::basic_string", %"class.std::__1::basic_string"* %26, i64 0, i32 0, i32 0, i32 0, i32 0, i32 0, i32 2
  store i64 %54, i64* %55, align 8
  %56 = getelementptr inbounds %"class.std::__1::basic_string", %"class.std::__1::basic_string"* %26, i64 0, i32 0, i32 0, i32 0, i32 0, i32 0, i32 1
  store i64 %33, i64* %56, align 8
  br label %57

57:                                               ; preds = %49, %35
  %58 = phi i16* [ %36, %35 ], [ %52, %49 ]
  %59 = add nuw nsw i64 %33, 1
  %60 = add i64 %33, 1
  %61 = icmp ult i64 %60, 16
  br i1 %61, label %152, label %62

62:                                               ; preds = %57
  %63 = getelementptr i16, i16* %58, i64 1
  %64 = getelementptr i16, i16* %63, i64 %33
  %65 = getelementptr i16, i16* %32, i64 1
  %66 = getelementptr i16, i16* %65, i64 %33
  %67 = icmp ult i16* %58, %66
  %68 = icmp ult i16* %32, %64
  %69 = and i1 %67, %68
  br i1 %69, label %152, label %70

70:                                               ; preds = %62
  %71 = and i64 %60, -16
  %72 = sub i64 %59, %71
  %73 = getelementptr i16, i16* %32, i64 %71
  %74 = getelementptr i16, i16* %58, i64 %71
  %75 = add i64 %71, -16
  %76 = lshr exact i64 %75, 4
  %77 = add nuw nsw i64 %76, 1
  %78 = and i64 %77, 3
  %79 = icmp ult i64 %75, 48
  br i1 %79, label %131, label %80

80:                                               ; preds = %70
  %81 = sub nsw i64 %77, %78
  br label %82

82:                                               ; preds = %82, %80
  %83 = phi i64 [ 0, %80 ], [ %128, %82 ]
  %84 = phi i64 [ %81, %80 ], [ %129, %82 ]
  %85 = getelementptr i16, i16* %32, i64 %83
  %86 = getelementptr i16, i16* %58, i64 %83
  %87 = bitcast i16* %85 to <8 x i16>*
  %88 = load <8 x i16>, <8 x i16>* %87, align 2, !alias.scope !132
  %89 = getelementptr i16, i16* %85, i64 8
  %90 = bitcast i16* %89 to <8 x i16>*
  %91 = load <8 x i16>, <8 x i16>* %90, align 2, !alias.scope !132
  %92 = bitcast i16* %86 to <8 x i16>*
  store <8 x i16> %88, <8 x i16>* %92, align 2, !alias.scope !135, !noalias !132
  %93 = getelementptr i16, i16* %86, i64 8
  %94 = bitcast i16* %93 to <8 x i16>*
  store <8 x i16> %91, <8 x i16>* %94, align 2, !alias.scope !135, !noalias !132
  %95 = or i64 %83, 16
  %96 = getelementptr i16, i16* %32, i64 %95
  %97 = getelementptr i16, i16* %58, i64 %95
  %98 = bitcast i16* %96 to <8 x i16>*
  %99 = load <8 x i16>, <8 x i16>* %98, align 2, !alias.scope !132
  %100 = getelementptr i16, i16* %96, i64 8
  %101 = bitcast i16* %100 to <8 x i16>*
  %102 = load <8 x i16>, <8 x i16>* %101, align 2, !alias.scope !132
  %103 = bitcast i16* %97 to <8 x i16>*
  store <8 x i16> %99, <8 x i16>* %103, align 2, !alias.scope !135, !noalias !132
  %104 = getelementptr i16, i16* %97, i64 8
  %105 = bitcast i16* %104 to <8 x i16>*
  store <8 x i16> %102, <8 x i16>* %105, align 2, !alias.scope !135, !noalias !132
  %106 = or i64 %83, 32
  %107 = getelementptr i16, i16* %32, i64 %106
  %108 = getelementptr i16, i16* %58, i64 %106
  %109 = bitcast i16* %107 to <8 x i16>*
  %110 = load <8 x i16>, <8 x i16>* %109, align 2, !alias.scope !132
  %111 = getelementptr i16, i16* %107, i64 8
  %112 = bitcast i16* %111 to <8 x i16>*
  %113 = load <8 x i16>, <8 x i16>* %112, align 2, !alias.scope !132
  %114 = bitcast i16* %108 to <8 x i16>*
  store <8 x i16> %110, <8 x i16>* %114, align 2, !alias.scope !135, !noalias !132
  %115 = getelementptr i16, i16* %108, i64 8
  %116 = bitcast i16* %115 to <8 x i16>*
  store <8 x i16> %113, <8 x i16>* %116, align 2, !alias.scope !135, !noalias !132
  %117 = or i64 %83, 48
  %118 = getelementptr i16, i16* %32, i64 %117
  %119 = getelementptr i16, i16* %58, i64 %117
  %120 = bitcast i16* %118 to <8 x i16>*
  %121 = load <8 x i16>, <8 x i16>* %120, align 2, !alias.scope !132
  %122 = getelementptr i16, i16* %118, i64 8
  %123 = bitcast i16* %122 to <8 x i16>*
  %124 = load <8 x i16>, <8 x i16>* %123, align 2, !alias.scope !132
  %125 = bitcast i16* %119 to <8 x i16>*
  store <8 x i16> %121, <8 x i16>* %125, align 2, !alias.scope !135, !noalias !132
  %126 = getelementptr i16, i16* %119, i64 8
  %127 = bitcast i16* %126 to <8 x i16>*
  store <8 x i16> %124, <8 x i16>* %127, align 2, !alias.scope !135, !noalias !132
  %128 = add i64 %83, 64
  %129 = add i64 %84, -4
  %130 = icmp eq i64 %129, 0
  br i1 %130, label %131, label %82, !llvm.loop !137

131:                                              ; preds = %82, %70
  %132 = phi i64 [ 0, %70 ], [ %128, %82 ]
  %133 = icmp eq i64 %78, 0
  br i1 %133, label %150, label %134

134:                                              ; preds = %131, %134
  %135 = phi i64 [ %147, %134 ], [ %132, %131 ]
  %136 = phi i64 [ %148, %134 ], [ %78, %131 ]
  %137 = getelementptr i16, i16* %32, i64 %135
  %138 = getelementptr i16, i16* %58, i64 %135
  %139 = bitcast i16* %137 to <8 x i16>*
  %140 = load <8 x i16>, <8 x i16>* %139, align 2, !alias.scope !132
  %141 = getelementptr i16, i16* %137, i64 8
  %142 = bitcast i16* %141 to <8 x i16>*
  %143 = load <8 x i16>, <8 x i16>* %142, align 2, !alias.scope !132
  %144 = bitcast i16* %138 to <8 x i16>*
  store <8 x i16> %140, <8 x i16>* %144, align 2, !alias.scope !135, !noalias !132
  %145 = getelementptr i16, i16* %138, i64 8
  %146 = bitcast i16* %145 to <8 x i16>*
