; ModuleID = '../../third_party/blink/renderer/core/accessibility/ax_object_cache.cc'
source_filename = "../../third_party/blink/renderer/core/accessibility/ax_object_cache.cc"
target datalayout = "e-m:e-i64:64-f80:128-n8:16:32:64-S128"
target triple = "x86_64-unknown-linux-gnu"

module asm ".symver exp, exp@GLIBC_2.2.5"
module asm ".symver exp2, exp2@GLIBC_2.2.5"
module asm ".symver exp2f, exp2f@GLIBC_2.2.5"
module asm ".symver expf, expf@GLIBC_2.2.5"
module asm ".symver lgamma, lgamma@GLIBC_2.2.5"
module asm ".symver lgammaf, lgammaf@GLIBC_2.2.5"
module asm ".symver lgammal, lgammal@GLIBC_2.2.5"
module asm ".symver log, log@GLIBC_2.2.5"
module asm ".symver log2, log2@GLIBC_2.2.5"
module asm ".symver log2f, log2f@GLIBC_2.2.5"
module asm ".symver logf, logf@GLIBC_2.2.5"
module asm ".symver pow, pow@GLIBC_2.2.5"
module asm ".symver powf, powf@GLIBC_2.2.5"

%"class.blink::AXObjectCache" = type { i32 (...)** }
%"class.blink::Document" = type { %"class.blink::ContainerNode", %"class.blink::TreeScope", %"class.blink::UseCounter", %"class.blink::Supplementable", i32, %"class.blink::DocumentLifecycle", i8, i8, %"class.WTF::Vector.102", %"class.WTF::Vector.102", i8, i32, %"class.blink::Member.113", %"class.blink::Member.115", %"class.blink::Member.117", %"class.blink::Member.119", %"class.blink::Member.121", %"class.blink::Member.123", i8, %"class.blink::KURL", %"class.blink::KURL", %"class.blink::KURL", %"class.blink::KURL", %"class.blink::KURL", %"class.std::__1::unique_ptr.126", %"class.blink::KURL", %"class.WTF::AtomicString", %"class.WTF::AtomicString", %"class.blink::Member.132", %"class.blink::Member.134", %"class.blink::Member.61", i32, i32, i32, i8, %"class.blink::TaskHandle", %"class.blink::TaskHandle", %"class.WTF::Vector.137", i8, i32, i8, %"class.blink::HeapTaskRunnerTimer", %"class.blink::HeapVector", %"class.blink::Member.23", %"class.blink::Member.347", %"class.blink::Member.23", %"class.blink::Member.23", %"class.blink::Member.23", %"class.blink::UserActionElementSet", %"class.blink::Member.356", double, double, i64, i64, %"class.blink::HeapHashSet.358", %"class.blink::HeapHashSet.365", i16, i8, %"class.blink::Member.372", %"class.blink::Member.374", %"class.blink::Member.376", %"class.blink::Member.378", %"class.blink::TextLinkColors", %"class.blink::Member.380", i8, [7 x i8], %"class.blink::HeapHashMap.382", i32, i32, i8, i8, i8, i32, i32, i32, i8, %"class.WTF::String", %"class.WTF::String", %"class.blink::Member.23", %"class.WTF::Vector.389", %"class.blink::Member.394", %"class.blink::Member.396", i8, %"class.blink::Member.23", i8, i32, i8, %"class.base::ElapsedTimer", %"class.blink::Member.398", %"class.blink::HeapVector.400", %"class.std::__1::unique_ptr.408", %"class.WTF::String", %"class.WTF::String", i8, %"class.WTF::AtomicString", %"class.blink::DocumentEncodingData", i8, i8, [6 x i8], %"class.blink::HeapHashSet.414", %"class.blink::LiveNodeListRegistry", %"class.blink::Member.427", %"class.WTF::Vector.429", i8, i8, %"class.std::__1::unique_ptr.434", %"class.blink::NthIndexCache"*, i8, i8, i8, i8, i8, i8, %"class.blink::LayoutView"*, %"class.blink::HeapVector", %"class.blink::HeapVector.440", i32, i8, %"class.blink::HeapTaskRunnerTimer", %"class.blink::HeapTaskRunnerTimer", %"class.blink::DocumentTiming", %"class.blink::Member.448", i8, i32, %"class.blink::Member.450", %"class.blink::Member.452", %"class.blink::Member.454", %"class.blink::HeapTaskRunnerTimer", %"class.blink::Member.456", %"class.WTF::HashMap.458", %"class.blink::Member.463", %"class.blink::Member.465", %"class.blink::Member.467", %"class.blink::Member.469", %"class.blink::Member.10", %"class.blink::Member.10", %"class.blink::HeapTaskRunnerTimer", %"class.blink::HeapHashSet.471", i8, i32, %"class.blink::Member.478", %"class.blink::Member.480", i32, %"class.blink::Member.482", %"class.blink::Member.484", %"class.blink::Member.486", %"class.std::__1::unique_ptr.488", i64, %"class.std::__1::unique_ptr.494", i32, i32, %"class.blink::Member.500", %"class.blink::Member.502", %"class.blink::Member.504", i8, i32, i32, i32, i32, i32, i32, i32, i8, i8, %"class.blink::Member.506", %"class.WTF::Vector.508", %"class.WTF::AtomicString", %"class.blink::HeapHashMap.513", %"class.blink::Member.520", %"class.std::__1::unique_ptr.522", %"class.blink::Member.528", i8, i8, %"class.WTF::String", %"class.blink::Member.530", i8, [7 x i8], %"class.blink::HeapHashMap.532", %"class.blink::HeapObserverSet", %"class.blink::Member.546", i8, i8, i8, i8, i8, i8, i8, %"class.blink::Member.548", i32, i8, i8, %"class.blink::WeakMember.550", %"class.blink::Member.551" }
%"class.blink::ContainerNode" = type { %"class.blink::Node", %"class.blink::Member", %"class.blink::Member" }
%"class.blink::Node" = type { %"class.blink::EventTarget", i32, %"class.blink::Member", %"class.blink::Member.2", %"class.blink::Member", %"class.blink::Member", %"class.blink::Member.4" }
%"class.blink::EventTarget" = type { %"class.blink::ScriptWrappable" }
%"class.blink::ScriptWrappable" = type { %"class.blink::NameClient", %"class.blink::TraceWrapperV8Reference" }
%"class.blink::NameClient" = type { i32 (...)** }
%"class.blink::TraceWrapperV8Reference" = type { %"class.v8::TracedReference" }
%"class.v8::TracedReference" = type { %"class.v8::BasicTracedReference" }
%"class.v8::BasicTracedReference" = type { %"class.v8::TracedReferenceBase" }
%"class.v8::TracedReferenceBase" = type { i64* }
%"class.blink::Member.2" = type { %"class.blink::MemberBase.3" }
%"class.blink::MemberBase.3" = type { %"class.blink::TreeScope"* }
%"class.blink::Member.4" = type { %"class.blink::MemberBase.5" }
%"class.blink::MemberBase.5" = type { %"class.blink::NodeData"* }
%"class.blink::NodeData" = type { i16, %"class.WTF::ConcurrentlyReadBitField" }
%"class.WTF::ConcurrentlyReadBitField" = type { %"class.WTF::SingleThreadedBitField" }
%"class.WTF::SingleThreadedBitField" = type { i16 }
%"class.blink::Member" = type { %"class.blink::MemberBase" }
%"class.blink::MemberBase" = type { %"class.blink::Node"* }
%"class.blink::TreeScope" = type { %"class.blink::GarbageCollectedMixin", %"class.blink::Member.8", %"class.blink::Member.10", %"class.blink::Member.2", %"class.blink::Member.12", %"class.blink::Member.12", %"class.blink::Member.44", %"class.blink::Member.46", %"class.blink::Member.48", %"class.blink::RadioButtonGroupScope", %"class.blink::Member.53", %"class.blink::HeapVector.55" }
%"class.blink::GarbageCollectedMixin" = type { i32 (...)** }
%"class.blink::Member.8" = type { %"class.blink::MemberBase.9" }
%"class.blink::MemberBase.9" = type { %"class.blink::ContainerNode"* }
%"class.blink::Member.12" = type { %"class.blink::MemberBase.13" }
%"class.blink::MemberBase.13" = type { %"class.blink::TreeOrderedMap"* }
%"class.blink::TreeOrderedMap" = type { %"class.blink::HeapHashMap" }
%"class.blink::HeapHashMap" = type { %"class.WTF::HashMap" }
%"class.WTF::HashMap" = type { %"class.WTF::HashTable" }
%"class.WTF::HashTable" = type <{ %"struct.WTF::KeyValuePair"*, i32, i32, i32, [4 x i8] }>
%"struct.WTF::KeyValuePair" = type { %"class.WTF::AtomicString", %"class.blink::Member.19" }
%"class.blink::Member.19" = type { %"class.blink::MemberBase.20" }
%"class.blink::MemberBase.20" = type { %"class.blink::TreeOrderedMap::MapEntry"* }
%"class.blink::TreeOrderedMap::MapEntry" = type { %"class.blink::Member.23", i32, %"class.blink::HeapVector" }
%"class.blink::Member.44" = type { %"class.blink::MemberBase.45" }
%"class.blink::MemberBase.45" = type { %"class.blink::IdTargetObserverRegistry"* }
%"class.blink::IdTargetObserverRegistry" = type opaque
%"class.blink::Member.46" = type { %"class.blink::MemberBase.47" }
%"class.blink::MemberBase.47" = type { %"class.blink::ScopedStyleResolver"* }
%"class.blink::ScopedStyleResolver" = type opaque
%"class.blink::Member.48" = type { %"class.blink::MemberBase.49" }
%"class.blink::MemberBase.49" = type { %"class.blink::DOMSelection"* }
%"class.blink::DOMSelection" = type opaque
%"class.blink::RadioButtonGroupScope" = type { %"class.blink::Member.50" }
%"class.blink::Member.50" = type { %"class.blink::MemberBase.51" }
%"class.blink::MemberBase.51" = type { %"class.blink::HeapHashMap.52"* }
%"class.blink::HeapHashMap.52" = type opaque
%"class.blink::Member.53" = type { %"class.blink::MemberBase.54" }
%"class.blink::MemberBase.54" = type { %"class.blink::SVGTreeScopeResources"* }
%"class.blink::SVGTreeScopeResources" = type opaque
%"class.blink::HeapVector.55" = type { %"class.WTF::Vector.58" }
%"class.WTF::Vector.58" = type { %"class.WTF::VectorBuffer.59" }
%"class.WTF::VectorBuffer.59" = type { %"class.WTF::VectorBufferBase.60" }
%"class.WTF::VectorBufferBase.60" = type { %"class.blink::Member.61"*, i32, i32 }
%"class.blink::UseCounter" = type { %"class.blink::GarbageCollectedMixin" }
%"class.blink::Supplementable" = type { %"class.blink::GarbageCollectedMixin", %"class.blink::HeapHashMap.95" }
%"class.blink::HeapHashMap.95" = type { %"class.WTF::HashMap.98" }
%"class.WTF::HashMap.98" = type { %"class.WTF::HashTable.99" }
%"class.WTF::HashTable.99" = type <{ %"struct.WTF::KeyValuePair.101"*, i32, i32, i32, [4 x i8] }>
%"struct.WTF::KeyValuePair.101" = type opaque
%"class.blink::DocumentLifecycle" = type <{ i32, i32, i32, i8, i8, [2 x i8] }>
%"class.WTF::Vector.102" = type { %"class.WTF::VectorBuffer.103" }
%"class.WTF::VectorBuffer.103" = type { %"class.WTF::VectorBufferBase.104" }
%"class.WTF::VectorBufferBase.104" = type { %"class.base::OnceCallback"*, i32, i32 }
%"class.base::OnceCallback" = type { %"class.base::internal::CallbackBase" }
%"class.base::internal::CallbackBase" = type { %class.scoped_refptr.105 }
%class.scoped_refptr.105 = type { %"class.base::internal::BindStateBase"* }
%"class.base::internal::BindStateBase" = type { %"class.base::RefCountedThreadSafe", void ()*, void (%"class.base::internal::BindStateBase"*)*, i1 (%"class.base::internal::BindStateBase"*, i32)* }
%"class.base::RefCountedThreadSafe" = type { %"class.base::subtle::RefCountedThreadSafeBase" }
%"class.base::subtle::RefCountedThreadSafeBase" = type { %"class.base::AtomicRefCount" }
%"class.base::AtomicRefCount" = type { %"struct.std::__1::atomic.106" }
%"struct.std::__1::atomic.106" = type { %"struct.std::__1::__atomic_base.107" }
%"struct.std::__1::__atomic_base.107" = type { %"struct.std::__1::__atomic_base.108" }
%"struct.std::__1::__atomic_base.108" = type { %"struct.std::__1::__cxx_atomic_impl.109" }
%"struct.std::__1::__cxx_atomic_impl.109" = type { %"struct.std::__1::__cxx_atomic_base_impl.110" }
%"struct.std::__1::__cxx_atomic_base_impl.110" = type { i32 }
%"class.blink::Member.113" = type { %"class.blink::MemberBase.114" }
%"class.blink::MemberBase.114" = type { %"class.blink::LocalDOMWindow"* }
%"class.blink::LocalDOMWindow" = type opaque
%"class.blink::Member.115" = type { %"class.blink::MemberBase.116" }
%"class.blink::MemberBase.116" = type { %"class.blink::ExecutionContext"* }
%"class.blink::ExecutionContext" = type opaque
%"class.blink::Member.117" = type { %"class.blink::MemberBase.118" }
%"class.blink::MemberBase.118" = type { %"class.blink::ResourceFetcher"* }
%"class.blink::ResourceFetcher" = type opaque
%"class.blink::Member.119" = type { %"class.blink::MemberBase.120" }
%"class.blink::MemberBase.120" = type { %"class.blink::DocumentParser"* }
%"class.blink::DocumentParser" = type opaque
%"class.blink::Member.121" = type { %"class.blink::MemberBase.122" }
%"class.blink::MemberBase.122" = type { %"class.blink::ContextFeatures"* }
%"class.blink::ContextFeatures" = type opaque
%"class.blink::Member.123" = type { %"class.blink::MemberBase.124" }
%"class.blink::MemberBase.124" = type { %"class.blink::HttpRefreshScheduler"* }
%"class.blink::HttpRefreshScheduler" = type opaque
%"class.std::__1::unique_ptr.126" = type { %"class.std::__1::__compressed_pair.127" }
%"class.std::__1::__compressed_pair.127" = type { %"struct.std::__1::__compressed_pair_elem.128" }
%"struct.std::__1::__compressed_pair_elem.128" = type { %"class.blink::OriginAccessEntry"* }
%"class.blink::OriginAccessEntry" = type opaque
%"class.blink::KURL" = type { i8, i8, %"class.WTF::String", %"struct.url::Parsed", %"class.WTF::String", %"class.std::__1::unique_ptr" }
%"struct.url::Parsed" = type { %"struct.url::Component", %"struct.url::Component", %"struct.url::Component", %"struct.url::Component", %"struct.url::Component", %"struct.url::Component", %"struct.url::Component", %"struct.url::Component", i8, %"struct.url::Parsed"* }
%"struct.url::Component" = type { i32, i32 }
%"class.std::__1::unique_ptr" = type { %"class.std::__1::__compressed_pair" }
%"class.std::__1::__compressed_pair" = type { %"struct.std::__1::__compressed_pair_elem" }
%"struct.std::__1::__compressed_pair_elem" = type { %"class.blink::KURL"* }
%"class.blink::Member.132" = type { %"class.blink::MemberBase.133" }
%"class.blink::MemberBase.133" = type { %"class.blink::DocumentType"* }
%"class.blink::DocumentType" = type opaque
%"class.blink::Member.134" = type { %"class.blink::MemberBase.135" }
%"class.blink::MemberBase.135" = type { %"class.blink::DOMImplementation"* }
%"class.blink::DOMImplementation" = type opaque
%"class.blink::Member.61" = type { %"class.blink::MemberBase.62" }
%"class.blink::MemberBase.62" = type { %"class.blink::CSSStyleSheet"* }
%"class.blink::CSSStyleSheet" = type { %"class.blink::StyleSheet", %"class.blink::Member.63", i8, i8, i8, i8, i8, %"class.WTF::String", %class.scoped_refptr.65, %"class.WTF::Vector.66", %"class.WTF::Vector.66", %"class.blink::Member", %"class.blink::Member.71", %"class.blink::HeapHashSet", %"class.blink::Member.10", %"class.WTF::HashSet.79", %"class.WTF::TextPosition", %"class.blink::Member.83", %"class.blink::HeapVector.85", %"class.blink::Member.92" }
%"class.blink::StyleSheet" = type { %"class.blink::ScriptWrappable" }
%"class.blink::Member.63" = type { %"class.blink::MemberBase.64" }
%"class.blink::MemberBase.64" = type { %"class.blink::StyleSheetContents"* }
%"class.blink::StyleSheetContents" = type opaque
%class.scoped_refptr.65 = type { %"class.blink::MediaQuerySet"* }
%"class.blink::MediaQuerySet" = type opaque
%"class.WTF::Vector.66" = type { %"class.WTF::VectorBuffer.67" }
%"class.WTF::VectorBuffer.67" = type { %"class.WTF::VectorBufferBase.68" }
%"class.WTF::VectorBufferBase.68" = type { %"class.blink::MediaQueryResult"*, i32, i32 }
%"class.blink::MediaQueryResult" = type opaque
%"class.blink::Member.71" = type { %"class.blink::MemberBase.72" }
%"class.blink::MemberBase.72" = type { %"class.blink::CSSRule"* }
%"class.blink::CSSRule" = type { %"class.blink::ScriptWrappable", i8, %"class.blink::Member.73" }
%"class.blink::Member.73" = type { %"class.blink::MemberBase.74" }
%"class.blink::MemberBase.74" = type { %"class.blink::ScriptWrappable"* }
%"class.blink::HeapHashSet" = type { %"class.WTF::HashSet" }
%"class.WTF::HashSet" = type { %"class.WTF::HashTable.77" }
%"class.WTF::HashTable.77" = type <{ %"class.blink::WeakMember"*, i32, i32, i32, [4 x i8] }>
%"class.blink::WeakMember" = type { %"class.blink::MemberBase.3" }
%"class.WTF::HashSet.79" = type { %"class.WTF::HashTable.80" }
%"class.WTF::HashTable.80" = type <{ %"class.WTF::AtomicString"*, i32, i32, i32, [4 x i8] }>
%"class.WTF::TextPosition" = type { %"class.WTF::OrdinalNumber", %"class.WTF::OrdinalNumber" }
%"class.WTF::OrdinalNumber" = type { i32 }
%"class.blink::Member.83" = type { %"class.blink::MemberBase.84" }
%"class.blink::MemberBase.84" = type { %"class.blink::MediaList"* }
%"class.blink::MediaList" = type opaque
%"class.blink::HeapVector.85" = type { %"class.WTF::Vector.88" }
%"class.WTF::Vector.88" = type { %"class.WTF::VectorBuffer.89" }
%"class.WTF::VectorBuffer.89" = type { %"class.WTF::VectorBufferBase.90" }
%"class.WTF::VectorBufferBase.90" = type { %"class.blink::Member.71"*, i32, i32 }
%"class.blink::Member.92" = type { %"class.blink::MemberBase.93" }
%"class.blink::MemberBase.93" = type { %"class.blink::CSSRuleList"* }
%"class.blink::CSSRuleList" = type opaque
%"class.blink::TaskHandle" = type { %class.scoped_refptr.136 }
%class.scoped_refptr.136 = type { %"class.blink::TaskHandle::Runner"* }
%"class.blink::TaskHandle::Runner" = type opaque
%"class.WTF::Vector.137" = type { %"class.WTF::VectorBuffer.138" }
%"class.WTF::VectorBuffer.138" = type { %"class.WTF::VectorBufferBase.139" }
%"class.WTF::VectorBufferBase.139" = type { %"struct.blink::Document::PendingJavascriptUrl"*, i32, i32 }
%"struct.blink::Document::PendingJavascriptUrl" = type { %"class.blink::KURL", %class.scoped_refptr.140 }
%class.scoped_refptr.140 = type { %"class.blink::DOMWrapperWorld"* }
%"class.blink::DOMWrapperWorld" = type { %"class.WTF::RefCounted.141", i32, i32, %"class.blink::Persistent" }
%"class.WTF::RefCounted.141" = type { %"class.base::RefCounted.142" }
%"class.base::RefCounted.142" = type { %"class.base::subtle::RefCountedBase" }
%"class.base::subtle::RefCountedBase" = type { i32 }
%"class.blink::Persistent" = type { %"class.blink::PersistentBase" }
%"class.blink::PersistentBase" = type { %"class.blink::DOMDataStore"*, %"class.blink::PersistentNodePtr" }
%"class.blink::DOMDataStore" = type { i32 (...)**, i8, [7 x i8], %"class.blink::HeapHashMap.145" }
%"class.blink::HeapHashMap.145" = type { %"class.WTF::HashMap.148" }
%"class.WTF::HashMap.148" = type { %"class.WTF::HashTable.149" }
%"class.WTF::HashTable.149" = type <{ %"struct.WTF::KeyValuePair.151"*, i32, i32, i32, [4 x i8] }>
%"struct.WTF::KeyValuePair.151" = type { %"class.blink::WeakMember.152", %"class.blink::TraceWrapperV8Reference" }
%"class.blink::WeakMember.152" = type { %"class.blink::MemberBase.153" }
%"class.blink::MemberBase.153" = type { %"class.blink::ScriptWrappable"* }
%"class.blink::PersistentNodePtr" = type { %"class.blink::PersistentNode"* }
%"class.blink::PersistentNode" = type { i8*, void (%"class.blink::Visitor"*, i8*)* }
%"class.blink::Visitor" = type { i32 (...)**, %"class.blink::ThreadState"* }
%"class.blink::ThreadState" = type <{ %"class.std::__1::unique_ptr.154", i32, [4 x i8], %"class.std::__1::unique_ptr.290", %"class.std::__1::unique_ptr.290", i8**, i8, i8, i8, i8, i8, i8, [2 x i8], i64, i64, i32, i32, i32, [4 x i8], %"class.WTF::Deque", %"class.v8::Isolate"*, void (%"class.v8::Isolate"*, %"class.v8::EmbedderGraph"*, i8*)*, %"class.std::__1::unique_ptr.300", %"class.std::__1::unique_ptr.306", %"struct.blink::ThreadState::GCData", %"class.std::__1::unique_ptr.318", %"class.std::__1::unique_ptr.324", %"class.base::JobHandle", %"class.base::JobHandle", %"struct.std::__1::atomic.331", [7 x i8], i64, i8, [7 x i8], i64, %"class.base::TimeTicks", i8, i8, [6 x i8] }>
%"class.std::__1::unique_ptr.154" = type { %"class.std::__1::__compressed_pair.155" }
%"class.std::__1::__compressed_pair.155" = type { %"struct.std::__1::__compressed_pair_elem.156" }
%"struct.std::__1::__compressed_pair_elem.156" = type { %"class.blink::ThreadHeap"* }
%"class.blink::ThreadHeap" = type { %"class.blink::ThreadState"*, %"class.std::__1::unique_ptr.157", %"class.std::__1::unique_ptr.163", %"class.std::__1::unique_ptr.169", %"class.std::__1::unique_ptr.175", %"class.std::__1::unique_ptr.181", %"class.std::__1::unique_ptr.187", %"class.std::__1::unique_ptr.198", %"class.std::__1::unique_ptr.205", %"class.std::__1::unique_ptr.205", %"class.std::__1::unique_ptr.212", %"class.std::__1::unique_ptr.219", %"class.std::__1::unique_ptr.226", %"class.std::__1::unique_ptr.226", %"class.std::__1::unique_ptr.233", %"class.std::__1::unique_ptr.240", %"class.std::__1::unique_ptr.247", %"class.std::__1::unique_ptr.270", %"struct.blink::ThreadHeap::LastAllocatedRegion", [9 x %"class.blink::BaseArena"*], i64, i64 }
%"class.std::__1::unique_ptr.157" = type { %"class.std::__1::__compressed_pair.158" }
%"class.std::__1::__compressed_pair.158" = type { %"struct.std::__1::__compressed_pair_elem.159" }
%"struct.std::__1::__compressed_pair_elem.159" = type { %"class.blink::ThreadHeapStatsCollector"* }
%"class.blink::ThreadHeapStatsCollector" = type opaque
%"class.std::__1::unique_ptr.163" = type { %"class.std::__1::__compressed_pair.164" }
%"class.std::__1::__compressed_pair.164" = type { %"struct.std::__1::__compressed_pair_elem.165" }
%"struct.std::__1::__compressed_pair_elem.165" = type { %"class.blink::RegionTree"* }
%"class.blink::RegionTree" = type opaque
%"class.std::__1::unique_ptr.169" = type { %"class.std::__1::__compressed_pair.170" }
%"class.std::__1::__compressed_pair.170" = type { %"struct.std::__1::__compressed_pair_elem.171" }
%"struct.std::__1::__compressed_pair_elem.171" = type { %"class.blink::PageBloomFilter"* }
%"class.blink::PageBloomFilter" = type opaque
%"class.std::__1::unique_ptr.175" = type { %"class.std::__1::__compressed_pair.176" }
%"class.std::__1::__compressed_pair.176" = type { %"struct.std::__1::__compressed_pair_elem.177" }
%"struct.std::__1::__compressed_pair_elem.177" = type { %"class.blink::PagePool"* }
%"class.blink::PagePool" = type opaque
%"class.std::__1::unique_ptr.181" = type { %"class.std::__1::__compressed_pair.182" }
%"class.std::__1::__compressed_pair.182" = type { %"struct.std::__1::__compressed_pair_elem.183" }
%"struct.std::__1::__compressed_pair_elem.183" = type { %"class.blink::ProcessHeapReporter"* }
%"class.blink::ProcessHeapReporter" = type opaque
%"class.std::__1::unique_ptr.187" = type { %"class.std::__1::__compressed_pair.188" }
%"class.std::__1::__compressed_pair.188" = type { %"struct.std::__1::__compressed_pair_elem.189" }
%"struct.std::__1::__compressed_pair_elem.189" = type { %"class.blink::Worklist"* }
%"class.blink::Worklist" = type { [4 x %"struct.blink::Worklist<blink::TraceDescriptor, 512, 4>::PrivateSegmentHolder"], %"class.blink::Worklist<blink::TraceDescriptor, 512, 4>::GlobalPool" }
%"struct.blink::Worklist<blink::TraceDescriptor, 512, 4>::PrivateSegmentHolder" = type { %"class.blink::Worklist<blink::TraceDescriptor, 512, 4>::Segment"*, %"class.blink::Worklist<blink::TraceDescriptor, 512, 4>::Segment"*, [64 x i8] }
%"class.blink::Worklist<blink::TraceDescriptor, 512, 4>::Segment" = type { %"class.blink::Worklist<blink::TraceDescriptor, 512, 4>::Segment"*, i64, [512 x %"struct.blink::TraceDescriptor"] }
%"struct.blink::TraceDescriptor" = type { i8*, void (%"class.blink::Visitor"*, i8*)* }
%"class.blink::Worklist<blink::TraceDescriptor, 512, 4>::GlobalPool" = type { %"class.base::Lock", %"class.blink::Worklist<blink::TraceDescriptor, 512, 4>::Segment"*, %"struct.std::__1::atomic.190" }
%"class.base::Lock" = type { %"class.base::internal::LockImpl" }
%"class.base::internal::LockImpl" = type { %union.pthread_mutex_t }
%union.pthread_mutex_t = type { %struct.__pthread_mutex_s }
%struct.__pthread_mutex_s = type { i32, i32, i32, i32, i32, i16, i16, %struct.__pthread_internal_list }
%struct.__pthread_internal_list = type { %struct.__pthread_internal_list*, %struct.__pthread_internal_list* }
%"struct.std::__1::atomic.190" = type { %"struct.std::__1::__atomic_base.191" }
%"struct.std::__1::__atomic_base.191" = type { %"struct.std::__1::__atomic_base.192" }
%"struct.std::__1::__atomic_base.192" = type { %"struct.std::__1::__cxx_atomic_impl.193" }
%"struct.std::__1::__cxx_atomic_impl.193" = type { %"struct.std::__1::__cxx_atomic_base_impl.194" }
%"struct.std::__1::__cxx_atomic_base_impl.194" = type { i64 }
%"class.std::__1::unique_ptr.198" = type { %"class.std::__1::__compressed_pair.199" }
%"class.std::__1::__compressed_pair.199" = type { %"struct.std::__1::__compressed_pair_elem.200" }
%"struct.std::__1::__compressed_pair_elem.200" = type { %"class.blink::Worklist.201"* }
%"class.blink::Worklist.201" = type { [4 x %"struct.blink::Worklist<blink::HeapObjectHeader *, 64, 4>::PrivateSegmentHolder"], %"class.blink::Worklist<blink::HeapObjectHeader *, 64, 4>::GlobalPool" }
%"struct.blink::Worklist<blink::HeapObjectHeader *, 64, 4>::PrivateSegmentHolder" = type { %"class.blink::Worklist<blink::HeapObjectHeader *, 64, 4>::Segment"*, %"class.blink::Worklist<blink::HeapObjectHeader *, 64, 4>::Segment"*, [64 x i8] }
%"class.blink::Worklist<blink::HeapObjectHeader *, 64, 4>::Segment" = type opaque
%"class.blink::Worklist<blink::HeapObjectHeader *, 64, 4>::GlobalPool" = type { %"class.base::Lock", %"class.blink::Worklist<blink::HeapObjectHeader *, 64, 4>::Segment"*, %"struct.std::__1::atomic.190" }
%"class.std::__1::unique_ptr.205" = type { %"class.std::__1::__compressed_pair.206" }
%"class.std::__1::__compressed_pair.206" = type { %"struct.std::__1::__compressed_pair_elem.207" }
%"struct.std::__1::__compressed_pair_elem.207" = type { %"class.blink::Worklist.208"* }
%"class.blink::Worklist.208" = type { [4 x %"struct.blink::Worklist<const void *, 16, 4>::PrivateSegmentHolder"], %"class.blink::Worklist<const void *, 16, 4>::GlobalPool" }
%"struct.blink::Worklist<const void *, 16, 4>::PrivateSegmentHolder" = type { %"class.blink::Worklist<const void *, 16, 4>::Segment"*, %"class.blink::Worklist<const void *, 16, 4>::Segment"*, [64 x i8] }
%"class.blink::Worklist<const void *, 16, 4>::Segment" = type { %"class.blink::Worklist<const void *, 16, 4>::Segment"*, i64, [16 x i8*] }
%"class.blink::Worklist<const void *, 16, 4>::GlobalPool" = type { %"class.base::Lock", %"class.blink::Worklist<const void *, 16, 4>::Segment"*, %"struct.std::__1::atomic.190" }
%"class.std::__1::unique_ptr.212" = type { %"class.std::__1::__compressed_pair.213" }
%"class.std::__1::__compressed_pair.213" = type { %"struct.std::__1::__compressed_pair_elem.214" }
%"struct.std::__1::__compressed_pair_elem.214" = type { %"class.blink::Worklist.215"* }
%"class.blink::Worklist.215" = type { [4 x %"struct.blink::Worklist<blink::CustomCallbackItem, 64, 4>::PrivateSegmentHolder"], %"class.blink::Worklist<blink::CustomCallbackItem, 64, 4>::GlobalPool" }
%"struct.blink::Worklist<blink::CustomCallbackItem, 64, 4>::PrivateSegmentHolder" = type { %"class.blink::Worklist<blink::CustomCallbackItem, 64, 4>::Segment"*, %"class.blink::Worklist<blink::CustomCallbackItem, 64, 4>::Segment"*, [64 x i8] }
%"class.blink::Worklist<blink::CustomCallbackItem, 64, 4>::Segment" = type opaque
%"class.blink::Worklist<blink::CustomCallbackItem, 64, 4>::GlobalPool" = type { %"class.base::Lock", %"class.blink::Worklist<blink::CustomCallbackItem, 64, 4>::Segment"*, %"struct.std::__1::atomic.190" }
%"class.std::__1::unique_ptr.219" = type { %"class.std::__1::__compressed_pair.220" }
%"class.std::__1::__compressed_pair.220" = type { %"struct.std::__1::__compressed_pair_elem.221" }
%"struct.std::__1::__compressed_pair_elem.221" = type { %"class.blink::Worklist.222"* }
%"class.blink::Worklist.222" = type { [4 x %"struct.blink::Worklist<const void *const *, 256, 4>::PrivateSegmentHolder"], %"class.blink::Worklist<const void *const *, 256, 4>::GlobalPool" }
%"struct.blink::Worklist<const void *const *, 256, 4>::PrivateSegmentHolder" = type { %"class.blink::Worklist<const void *const *, 256, 4>::Segment"*, %"class.blink::Worklist<const void *const *, 256, 4>::Segment"*, [64 x i8] }
%"class.blink::Worklist<const void *const *, 256, 4>::Segment" = type opaque
%"class.blink::Worklist<const void *const *, 256, 4>::GlobalPool" = type { %"class.base::Lock", %"class.blink::Worklist<const void *const *, 256, 4>::Segment"*, %"struct.std::__1::atomic.190" }
%"class.std::__1::unique_ptr.226" = type { %"class.std::__1::__compressed_pair.227" }
%"class.std::__1::__compressed_pair.227" = type { %"struct.std::__1::__compressed_pair_elem.228" }
%"struct.std::__1::__compressed_pair_elem.228" = type { %"class.blink::Worklist.229"* }
%"class.blink::Worklist.229" = type { [4 x %"struct.blink::Worklist<blink::EphemeronPairItem, 64, 4>::PrivateSegmentHolder"], %"class.blink::Worklist<blink::EphemeronPairItem, 64, 4>::GlobalPool" }
%"struct.blink::Worklist<blink::EphemeronPairItem, 64, 4>::PrivateSegmentHolder" = type { %"class.blink::Worklist<blink::EphemeronPairItem, 64, 4>::Segment"*, %"class.blink::Worklist<blink::EphemeronPairItem, 64, 4>::Segment"*, [64 x i8] }
%"class.blink::Worklist<blink::EphemeronPairItem, 64, 4>::Segment" = type opaque
%"class.blink::Worklist<blink::EphemeronPairItem, 64, 4>::GlobalPool" = type { %"class.base::Lock", %"class.blink::Worklist<blink::EphemeronPairItem, 64, 4>::Segment"*, %"struct.std::__1::atomic.190" }
%"class.std::__1::unique_ptr.233" = type { %"class.std::__1::__compressed_pair.234" }
%"class.std::__1::__compressed_pair.234" = type { %"struct.std::__1::__compressed_pair_elem.235" }
%"struct.std::__1::__compressed_pair_elem.235" = type { %"class.blink::Worklist.236"* }
%"class.blink::Worklist.236" = type { [4 x %"struct.blink::Worklist<const blink::TraceWrapperV8Reference<v8::Value> *, 16, 4>::PrivateSegmentHolder"], %"class.blink::Worklist<const blink::TraceWrapperV8Reference<v8::Value> *, 16, 4>::GlobalPool" }
%"struct.blink::Worklist<const blink::TraceWrapperV8Reference<v8::Value> *, 16, 4>::PrivateSegmentHolder" = type { %"class.blink::Worklist<const blink::TraceWrapperV8Reference<v8::Value> *, 16, 4>::Segment"*, %"class.blink::Worklist<const blink::TraceWrapperV8Reference<v8::Value> *, 16, 4>::Segment"*, [64 x i8] }
%"class.blink::Worklist<const blink::TraceWrapperV8Reference<v8::Value> *, 16, 4>::Segment" = type opaque
%"class.blink::Worklist<const blink::TraceWrapperV8Reference<v8::Value> *, 16, 4>::GlobalPool" = type { %"class.base::Lock", %"class.blink::Worklist<const blink::TraceWrapperV8Reference<v8::Value> *, 16, 4>::Segment"*, %"struct.std::__1::atomic.190" }
%"class.std::__1::unique_ptr.240" = type { %"class.std::__1::__compressed_pair.241" }
%"class.std::__1::__compressed_pair.241" = type { %"struct.std::__1::__compressed_pair_elem.242" }
%"struct.std::__1::__compressed_pair_elem.242" = type { %"class.blink::Worklist.243"* }
%"class.blink::Worklist.243" = type { [4 x %"struct.blink::Worklist<blink::NotSafeToConcurrentlyTraceItem, 64, 4>::PrivateSegmentHolder"], %"class.blink::Worklist<blink::NotSafeToConcurrentlyTraceItem, 64, 4>::GlobalPool" }
%"struct.blink::Worklist<blink::NotSafeToConcurrentlyTraceItem, 64, 4>::PrivateSegmentHolder" = type { %"class.blink::Worklist<blink::NotSafeToConcurrentlyTraceItem, 64, 4>::Segment"*, %"class.blink::Worklist<blink::NotSafeToConcurrentlyTraceItem, 64, 4>::Segment"*, [64 x i8] }
%"class.blink::Worklist<blink::NotSafeToConcurrentlyTraceItem, 64, 4>::Segment" = type { %"class.blink::Worklist<blink::NotSafeToConcurrentlyTraceItem, 64, 4>::Segment"*, i64, [64 x %"struct.blink::NotSafeToConcurrentlyTraceItem"] }
%"struct.blink::NotSafeToConcurrentlyTraceItem" = type { %"struct.blink::TraceDescriptor", i64 }
%"class.blink::Worklist<blink::NotSafeToConcurrentlyTraceItem, 64, 4>::GlobalPool" = type { %"class.base::Lock", %"class.blink::Worklist<blink::NotSafeToConcurrentlyTraceItem, 64, 4>::Segment"*, %"struct.std::__1::atomic.190" }
%"class.std::__1::unique_ptr.247" = type { %"class.std::__1::__compressed_pair.248" }
%"class.std::__1::__compressed_pair.248" = type { %"struct.std::__1::__compressed_pair_elem.249" }
%"struct.std::__1::__compressed_pair_elem.249" = type { %"class.blink::WeakContainersWorklist"* }
%"class.blink::WeakContainersWorklist" = type { %"class.WTF::Mutex", %"class.std::__1::unordered_set" }
%"class.WTF::Mutex" = type { %"class.WTF::MutexBase" }
%"class.WTF::MutexBase" = type { %"struct.WTF::PlatformMutex" }
%"struct.WTF::PlatformMutex" = type { %union.pthread_mutex_t }
%"class.std::__1::unordered_set" = type { %"class.std::__1::__hash_table" }
%"class.std::__1::__hash_table" = type <{ %"class.std::__1::unique_ptr.250", %"class.std::__1::__compressed_pair.257", %"class.std::__1::__compressed_pair.262", %"class.std::__1::__compressed_pair.264", [4 x i8] }>
%"class.std::__1::unique_ptr.250" = type { %"class.std::__1::__compressed_pair.251" }
%"class.std::__1::__compressed_pair.251" = type { %"struct.std::__1::__compressed_pair_elem.252", %"struct.std::__1::__compressed_pair_elem.253" }
%"struct.std::__1::__compressed_pair_elem.252" = type { %"struct.std::__1::__hash_node_base"** }
%"struct.std::__1::__hash_node_base" = type { %"struct.std::__1::__hash_node_base"* }
%"struct.std::__1::__compressed_pair_elem.253" = type { %"class.std::__1::__bucket_list_deallocator" }
%"class.std::__1::__bucket_list_deallocator" = type { %"class.std::__1::__compressed_pair.254" }
%"class.std::__1::__compressed_pair.254" = type { %"struct.std::__1::__compressed_pair_elem.255" }
%"struct.std::__1::__compressed_pair_elem.255" = type { i64 }
%"class.std::__1::__compressed_pair.257" = type { %"struct.std::__1::__compressed_pair_elem.258" }
%"struct.std::__1::__compressed_pair_elem.258" = type { %"struct.std::__1::__hash_node_base" }
%"class.std::__1::__compressed_pair.262" = type { %"struct.std::__1::__compressed_pair_elem.255" }
%"class.std::__1::__compressed_pair.264" = type { %"struct.std::__1::__compressed_pair_elem.265" }
%"struct.std::__1::__compressed_pair_elem.265" = type { float }
%"class.std::__1::unique_ptr.270" = type { %"class.std::__1::__compressed_pair.271" }
%"class.std::__1::__compressed_pair.271" = type { %"struct.std::__1::__compressed_pair_elem.272" }
%"struct.std::__1::__compressed_pair_elem.272" = type { %"class.blink::HeapCompact"* }
%"class.blink::HeapCompact" = type <{ %"class.blink::ThreadHeap"*, %"class.std::__1::unique_ptr.273", i8, [7 x i8], i64, i64, i32, [4 x i8], i64, i8, [7 x i8] }>
%"class.std::__1::unique_ptr.273" = type { %"class.std::__1::__compressed_pair.274" }
%"class.std::__1::__compressed_pair.274" = type { %"struct.std::__1::__compressed_pair_elem.275" }
%"struct.std::__1::__compressed_pair_elem.275" = type { %"class.blink::HeapCompact::MovableObjectFixups"* }
%"class.blink::HeapCompact::MovableObjectFixups" = type opaque
%"struct.blink::ThreadHeap::LastAllocatedRegion" = type { i8*, i64 }
%"class.blink::BaseArena" = type <{ i32 (...)**, %"class.blink::PageStackThreadSafe", %"class.blink::PageStackThreadSafe", %"class.blink::PageStackThreadSafe", %"class.blink::PageStackThreadSafe", %"class.blink::ThreadState"*, i32, [4 x i8] }>
%"class.blink::PageStackThreadSafe" = type { %"class.blink::PageStack", %"class.WTF::Mutex" }
%"class.blink::PageStack" = type { %"class.WTF::Vector.282" }
%"class.WTF::Vector.282" = type { %"class.WTF::VectorBuffer.283" }
%"class.WTF::VectorBuffer.283" = type { %"class.WTF::VectorBufferBase.284" }
%"class.WTF::VectorBufferBase.284" = type { %"class.blink::BasePage"**, i32, i32 }
%"class.blink::BasePage" = type <{ i32 (...)**, %"class.blink::PageMemory"*, %"class.blink::BaseArena"*, %"class.blink::ThreadState"*, i64, i8, i8, i8, [5 x i8] }>
%"class.blink::PageMemory" = type opaque
%"class.std::__1::unique_ptr.290" = type { %"class.std::__1::__compressed_pair.291" }
%"class.std::__1::__compressed_pair.291" = type { %"struct.std::__1::__compressed_pair_elem.292" }
%"struct.std::__1::__compressed_pair_elem.292" = type { %"class.blink::PersistentRegion"* }
%"class.blink::PersistentRegion" = type { %"class.blink::PersistentRegionBase" }
%"class.blink::PersistentRegionBase" = type { %"class.blink::PersistentNode"*, %"struct.blink::PersistentNodeSlots"* }
%"struct.blink::PersistentNodeSlots" = type { %"struct.blink::PersistentNodeSlots"*, [256 x %"class.blink::PersistentNode"] }
%"class.WTF::Deque" = type { %"class.WTF::Deque<std::__1::pair<void *, bool (*)(const blink::LivenessBroker &, void *)>, 0, WTF::PartitionAllocator>::BackingBuffer", i32, i32 }
%"class.WTF::Deque<std::__1::pair<void *, bool (*)(const blink::LivenessBroker &, void *)>, 0, WTF::PartitionAllocator>::BackingBuffer" = type { %"class.WTF::VectorBuffer.298" }
%"class.WTF::VectorBuffer.298" = type { %"class.WTF::VectorBufferBase.299" }
%"class.WTF::VectorBufferBase.299" = type { %"struct.std::__1::pair"*, i32, i32 }
%"struct.std::__1::pair" = type { i8*, i1 (%"class.blink::LivenessBroker"*, i8*)* }
%"class.blink::LivenessBroker" = type { i8 }
%"class.v8::Isolate" = type { i8 }
%"class.v8::EmbedderGraph" = type opaque
%"class.std::__1::unique_ptr.300" = type { %"class.std::__1::__compressed_pair.301" }
%"class.std::__1::__compressed_pair.301" = type { %"struct.std::__1::__compressed_pair_elem.302" }
%"struct.std::__1::__compressed_pair_elem.302" = type { %"class.blink::UnifiedHeapController"* }
%"class.blink::UnifiedHeapController" = type opaque
%"class.std::__1::unique_ptr.306" = type { %"class.std::__1::__compressed_pair.307" }
%"class.std::__1::__compressed_pair.307" = type { %"struct.std::__1::__compressed_pair_elem.308" }
%"struct.std::__1::__compressed_pair_elem.308" = type { %"class.v8::EmbedderRootsHandler"* }
%"class.v8::EmbedderRootsHandler" = type { i32 (...)** }
%"struct.blink::ThreadState::GCData" = type { i32, i32, i32, i32, %"class.std::__1::unique_ptr.312" }
%"class.std::__1::unique_ptr.312" = type { %"class.std::__1::__compressed_pair.313" }
%"class.std::__1::__compressed_pair.313" = type { %"struct.std::__1::__compressed_pair_elem.314" }
%"struct.std::__1::__compressed_pair_elem.314" = type { %"class.blink::MarkingVisitor"* }
%"class.blink::MarkingVisitor" = type { %"class.blink::MarkingVisitorBase", %"class.blink::MarkingVisitor::RecentlyRetracedWeakContainers" }
%"class.blink::MarkingVisitorBase" = type { %"class.blink::Visitor", %"class.blink::Worklist<blink::TraceDescriptor, 512, 4>::View", %"class.blink::Worklist<blink::HeapObjectHeader *, 64, 4>::View", %"class.blink::Worklist<const void *, 16, 4>::View", %"class.blink::Worklist<blink::CustomCallbackItem, 64, 4>::View", %"class.blink::Worklist<const void *const *, 256, 4>::View", %"class.blink::Worklist<blink::EphemeronPairItem, 64, 4>::View", %"class.blink::Worklist<blink::EphemeronPairItem, 64, 4>::View", %"class.blink::WeakContainersWorklist"*, i64, i32, i32 }
%"class.blink::Worklist<blink::TraceDescriptor, 512, 4>::View" = type <{ %"class.blink::Worklist"*, i32, [4 x i8] }>
%"class.blink::Worklist<blink::HeapObjectHeader *, 64, 4>::View" = type <{ %"class.blink::Worklist.201"*, i32, [4 x i8] }>
%"class.blink::Worklist<const void *, 16, 4>::View" = type <{ %"class.blink::Worklist.208"*, i32, [4 x i8] }>
%"class.blink::Worklist<blink::CustomCallbackItem, 64, 4>::View" = type <{ %"class.blink::Worklist.215"*, i32, [4 x i8] }>
%"class.blink::Worklist<const void *const *, 256, 4>::View" = type <{ %"class.blink::Worklist.222"*, i32, [4 x i8] }>
%"class.blink::Worklist<blink::EphemeronPairItem, 64, 4>::View" = type <{ %"class.blink::Worklist.229"*, i32, [4 x i8] }>
%"class.blink::MarkingVisitor::RecentlyRetracedWeakContainers" = type { %"class.std::__1::vector", i64 }
%"class.std::__1::vector" = type { %"class.std::__1::__vector_base" }
%"class.std::__1::__vector_base" = type { %"class.blink::HeapObjectHeader"**, %"class.blink::HeapObjectHeader"**, %"class.std::__1::__compressed_pair.564" }
%"class.blink::HeapObjectHeader" = type { i32, i16, i16 }
%"class.std::__1::__compressed_pair.564" = type { %"struct.std::__1::__compressed_pair_elem.565" }
%"struct.std::__1::__compressed_pair_elem.565" = type { %"class.blink::HeapObjectHeader"** }
%"class.std::__1::unique_ptr.318" = type { %"class.std::__1::__compressed_pair.319" }
%"class.std::__1::__compressed_pair.319" = type { %"struct.std::__1::__compressed_pair_elem.320" }
%"struct.std::__1::__compressed_pair_elem.320" = type { %"class.blink::ThreadState::IncrementalMarkingScheduler"* }
%"class.blink::ThreadState::IncrementalMarkingScheduler" = type opaque
%"class.std::__1::unique_ptr.324" = type { %"class.std::__1::__compressed_pair.325" }
%"class.std::__1::__compressed_pair.325" = type { %"struct.std::__1::__compressed_pair_elem.326" }
%"struct.std::__1::__compressed_pair_elem.326" = type { %"class.blink::MarkingSchedulingOracle"* }
%"class.blink::MarkingSchedulingOracle" = type opaque
%"class.base::JobHandle" = type { %class.scoped_refptr.330 }
%class.scoped_refptr.330 = type { %"class.base::internal::JobTaskSource"* }
%"class.base::internal::JobTaskSource" = type opaque
%"struct.std::__1::atomic.331" = type { %"struct.std::__1::__atomic_base.332" }
%"struct.std::__1::__atomic_base.332" = type { %"struct.std::__1::__cxx_atomic_impl.333" }
%"struct.std::__1::__cxx_atomic_impl.333" = type { %"struct.std::__1::__cxx_atomic_base_impl.334" }
%"struct.std::__1::__cxx_atomic_base_impl.334" = type { i8 }
%"class.base::TimeTicks" = type { %"class.base::time_internal::TimeBase" }
%"class.base::time_internal::TimeBase" = type { i64 }
%"class.blink::Member.347" = type { %"class.blink::MemberBase.348" }
%"class.blink::MemberBase.348" = type { %"class.blink::Range"* }
%"class.blink::Range" = type { %"class.blink::AbstractRange", %"class.blink::Member.10", %"class.blink::RangeBoundaryPoint", %"class.blink::RangeBoundaryPoint" }
%"class.blink::AbstractRange" = type { %"class.blink::ScriptWrappable" }
%"class.blink::RangeBoundaryPoint" = type <{ %"class.blink::Member", %"class.blink::Member", i64, i32, [4 x i8] }>
%"class.blink::UserActionElementSet" = type { %"class.blink::HeapHashMap.349" }
%"class.blink::HeapHashMap.349" = type { %"class.WTF::HashMap.352" }
%"class.WTF::HashMap.352" = type { %"class.WTF::HashTable.353" }
%"class.WTF::HashTable.353" = type <{ %"struct.WTF::KeyValuePair.355"*, i32, i32, i32, [4 x i8] }>
%"struct.WTF::KeyValuePair.355" = type opaque
%"class.blink::Member.356" = type { %"class.blink::MemberBase.357" }
%"class.blink::MemberBase.357" = type { %"class.blink::RootScrollerController"* }
%"class.blink::RootScrollerController" = type opaque
%"class.blink::HeapHashSet.358" = type { %"class.WTF::HashSet.361" }
%"class.WTF::HashSet.361" = type { %"class.WTF::HashTable.362" }
%"class.WTF::HashTable.362" = type <{ %"class.blink::WeakMember.364"*, i32, i32, i32, [4 x i8] }>
%"class.blink::WeakMember.364" = type opaque
%"class.blink::HeapHashSet.365" = type { %"class.WTF::HashSet.368" }
%"class.WTF::HashSet.368" = type { %"class.WTF::HashTable.369" }
%"class.WTF::HashTable.369" = type <{ %"class.blink::WeakMember.371"*, i32, i32, i32, [4 x i8] }>
%"class.blink::WeakMember.371" = type opaque
%"class.blink::Member.372" = type { %"class.blink::MemberBase.373" }
%"class.blink::MemberBase.373" = type { %"class.blink::ElementIntersectionObserverData"* }
%"class.blink::ElementIntersectionObserverData" = type opaque
%"class.blink::Member.374" = type { %"class.blink::MemberBase.375" }
%"class.blink::MemberBase.375" = type { %"class.blink::StyleEngine"* }
%"class.blink::StyleEngine" = type opaque
%"class.blink::Member.376" = type { %"class.blink::MemberBase.377" }
%"class.blink::MemberBase.377" = type { %"class.blink::StyleSheetList"* }
%"class.blink::StyleSheetList" = type { %"class.blink::ScriptWrappable", %"class.blink::Member.2", %"class.blink::HeapVector.55" }
%"class.blink::Member.378" = type { %"class.blink::MemberBase.379" }
%"class.blink::MemberBase.379" = type { %"class.blink::FormController"* }
%"class.blink::FormController" = type opaque
%"class.blink::TextLinkColors" = type { %"class.blink::Color", %"class.blink::Color", %"class.blink::Color", %"class.blink::Color", i8, i8, i8, i8 }
%"class.blink::Color" = type { i32 }
%"class.blink::Member.380" = type { %"class.blink::MemberBase.381" }
%"class.blink::MemberBase.381" = type { %"class.blink::VisitedLinkState"* }
%"class.blink::VisitedLinkState" = type opaque
%"class.blink::HeapHashMap.382" = type { %"class.WTF::HashMap.385" }
%"class.WTF::HashMap.385" = type { %"class.WTF::HashTable.386" }
%"class.WTF::HashTable.386" = type <{ %"struct.WTF::KeyValuePair.388"*, i32, i32, i32, [4 x i8] }>
%"struct.WTF::KeyValuePair.388" = type opaque
%"class.WTF::Vector.389" = type { %"class.WTF::VectorBuffer.390" }
%"class.WTF::VectorBuffer.390" = type { %"class.WTF::VectorBufferBase.391" }
%"class.WTF::VectorBufferBase.391" = type { %"class.blink::AXContext"**, i32, i32 }
%"class.blink::AXContext" = type opaque
%"class.blink::Member.394" = type { %"class.blink::MemberBase.395" }
%"class.blink::MemberBase.395" = type { %"class.blink::AXObjectCache"* }
%"class.blink::Member.396" = type { %"class.blink::MemberBase.397" }
%"class.blink::MemberBase.397" = type { %"class.blink::DocumentMarkerController"* }
%"class.blink::DocumentMarkerController" = type opaque
%"class.blink::Member.23" = type { %"class.blink::MemberBase.24" }
%"class.blink::MemberBase.24" = type { %"class.blink::Element"* }
%"class.blink::Element" = type { %"class.blink::ContainerNode", %"class.blink::Animatable", %"class.blink::QualifiedName", %"class.blink::Member.26" }
%"class.blink::Animatable" = type { i32 (...)** }
%"class.blink::QualifiedName" = type { %class.scoped_refptr.25 }
%class.scoped_refptr.25 = type { %"class.blink::QualifiedName::QualifiedNameImpl"* }
%"class.blink::QualifiedName::QualifiedNameImpl" = type { %"class.WTF::RefCounted", i32, %"class.WTF::AtomicString", %"class.WTF::AtomicString", %"class.WTF::AtomicString", %"class.WTF::AtomicString" }
%"class.WTF::RefCounted" = type { %"class.base::RefCounted" }
%"class.base::RefCounted" = type { %"class.base::subtle::RefCountedBase" }
%"class.blink::Member.26" = type { %"class.blink::MemberBase.27" }
%"class.blink::MemberBase.27" = type { %"class.blink::ElementData"* }
%"class.blink::ElementData" = type { %"class.WTF::ConcurrentlyReadBitField.30", %"class.blink::Member.32", %"class.blink::SpaceSplitString", %"class.WTF::AtomicString" }
%"class.WTF::ConcurrentlyReadBitField.30" = type { %"class.WTF::SingleThreadedBitField.31" }
%"class.WTF::SingleThreadedBitField.31" = type { i32 }
%"class.blink::Member.32" = type { %"class.blink::MemberBase.33" }
%"class.blink::MemberBase.33" = type { %"class.blink::CSSPropertyValueSet"* }
%"class.blink::CSSPropertyValueSet" = type opaque
%"class.blink::SpaceSplitString" = type { %class.scoped_refptr.34 }
%class.scoped_refptr.34 = type { %"class.blink::SpaceSplitString::Data"* }
%"class.blink::SpaceSplitString::Data" = type { %"class.WTF::RefCounted.35", %"class.WTF::AtomicString", %"class.WTF::Vector" }
%"class.WTF::RefCounted.35" = type { %"class.base::RefCounted.36" }
%"class.base::RefCounted.36" = type { %"class.base::subtle::RefCountedBase" }
%"class.WTF::Vector" = type { %"class.WTF::VectorBuffer" }
%"class.WTF::VectorBuffer" = type { %"class.WTF::VectorBufferBase", [32 x i8] }
%"class.WTF::VectorBufferBase" = type { %"class.WTF::AtomicString"*, i32, i32 }
%"class.base::ElapsedTimer" = type { %"class.base::TimeTicks" }
%"class.blink::Member.398" = type { %"class.blink::MemberBase.399" }
%"class.blink::MemberBase.399" = type { %"class.blink::ScriptRunner"* }
%"class.blink::ScriptRunner" = type opaque
%"class.blink::HeapVector.400" = type { %"class.WTF::Vector.403" }
%"class.WTF::Vector.403" = type { %"class.WTF::VectorBuffer.404" }
%"class.WTF::VectorBuffer.404" = type { %"class.WTF::VectorBufferBase.405" }
%"class.WTF::VectorBufferBase.405" = type { %"class.blink::Member.406"*, i32, i32 }
%"class.blink::Member.406" = type opaque
%"class.std::__1::unique_ptr.408" = type { %"class.std::__1::__compressed_pair.409" }
%"class.std::__1::__compressed_pair.409" = type { %"struct.std::__1::__compressed_pair_elem.410" }
%"struct.std::__1::__compressed_pair_elem.410" = type { %"class.blink::TransformSource"* }
%"class.blink::TransformSource" = type opaque
%"class.blink::DocumentEncodingData" = type <{ %"class.WTF::TextEncoding", i8, i8, [6 x i8] }>
%"class.WTF::TextEncoding" = type { i8* }
%"class.blink::HeapHashSet.414" = type { %"class.WTF::HashSet.417" }
%"class.WTF::HashSet.417" = type { %"class.WTF::HashTable.418" }
%"class.WTF::HashTable.418" = type <{ %"class.blink::WeakMember.420"*, i32, i32, i32, [4 x i8] }>
%"class.blink::WeakMember.420" = type opaque
%"class.blink::LiveNodeListRegistry" = type <{ %"class.WTF::Vector.421", i32, [4 x i8] }>
%"class.WTF::Vector.421" = type { %"class.WTF::VectorBuffer.422" }
%"class.WTF::VectorBuffer.422" = type { %"class.WTF::VectorBufferBase.423" }
%"class.WTF::VectorBufferBase.423" = type { %"struct.std::__1::pair.424"*, i32, i32 }
%"struct.std::__1::pair.424" = type opaque
%"class.blink::Member.427" = type { %"class.blink::MemberBase.428" }
%"class.blink::MemberBase.428" = type { %"class.blink::SVGDocumentExtensions"* }
%"class.blink::SVGDocumentExtensions" = type opaque
%"class.WTF::Vector.429" = type { %"class.WTF::VectorBuffer.430" }
%"class.WTF::VectorBuffer.430" = type { %"class.WTF::VectorBufferBase.431" }
%"class.WTF::VectorBufferBase.431" = type { %"struct.blink::AnnotatedRegionValue"*, i32, i32 }
%"struct.blink::AnnotatedRegionValue" = type opaque
%"class.std::__1::unique_ptr.434" = type { %"class.std::__1::__compressed_pair.435" }
%"class.std::__1::__compressed_pair.435" = type { %"struct.std::__1::__compressed_pair_elem.436" }
%"struct.std::__1::__compressed_pair_elem.436" = type { %"class.blink::SelectorQueryCache"* }
%"class.blink::SelectorQueryCache" = type opaque
%"class.blink::NthIndexCache" = type opaque
%"class.blink::LayoutView" = type opaque
%"class.blink::HeapVector" = type { %"class.WTF::Vector.40" }
%"class.WTF::Vector.40" = type { %"class.WTF::VectorBuffer.41" }
%"class.WTF::VectorBuffer.41" = type { %"class.WTF::VectorBufferBase.42" }
%"class.WTF::VectorBufferBase.42" = type { %"class.blink::Member.23"*, i32, i32 }
%"class.blink::HeapVector.440" = type { %"class.WTF::Vector.443" }
%"class.WTF::Vector.443" = type { %"class.WTF::VectorBuffer.444" }
%"class.WTF::VectorBuffer.444" = type { %"class.WTF::VectorBufferBase.445" }
%"class.WTF::VectorBufferBase.445" = type { %"class.blink::Member.446"*, i32, i32 }
%"class.blink::Member.446" = type opaque
%"class.blink::DocumentTiming" = type { %"class.base::TimeTicks", %"class.base::TimeTicks", %"class.base::TimeTicks", %"class.base::TimeTicks", %"class.base::TimeTicks", %"class.blink::Member.10" }
%"class.blink::Member.448" = type { %"class.blink::MemberBase.449" }
%"class.blink::MemberBase.449" = type { %"class.blink::MediaQueryMatcher"* }
%"class.blink::MediaQueryMatcher" = type opaque
%"class.blink::Member.450" = type { %"class.blink::MemberBase.451" }
%"class.blink::MemberBase.451" = type { %"class.blink::ScriptedAnimationController"* }
%"class.blink::ScriptedAnimationController" = type opaque
%"class.blink::Member.452" = type { %"class.blink::MemberBase.453" }
%"class.blink::MemberBase.453" = type { %"class.blink::ScriptedIdleTaskController"* }
%"class.blink::ScriptedIdleTaskController" = type opaque
%"class.blink::Member.454" = type { %"class.blink::MemberBase.455" }
%"class.blink::MemberBase.455" = type { %"class.blink::TextAutosizer"* }
%"class.blink::TextAutosizer" = type opaque
%"class.blink::Member.456" = type { %"class.blink::MemberBase.457" }
%"class.blink::MemberBase.457" = type { %"class.blink::ElementDataCache"* }
%"class.blink::ElementDataCache" = type opaque
%"class.WTF::HashMap.458" = type { %"class.WTF::HashTable.459" }
%"class.WTF::HashTable.459" = type <{ %"struct.WTF::KeyValuePair.462"*, i32, i32, i32, [4 x i8] }>
%"struct.WTF::KeyValuePair.462" = type opaque
%"class.blink::Member.463" = type { %"class.blink::MemberBase.464" }
%"class.blink::MemberBase.464" = type { %"class.blink::DocumentAnimations"* }
%"class.blink::DocumentAnimations" = type opaque
%"class.blink::Member.465" = type { %"class.blink::MemberBase.466" }
%"class.blink::MemberBase.466" = type { %"class.blink::DocumentTimeline"* }
%"class.blink::DocumentTimeline" = type opaque
%"class.blink::Member.467" = type { %"class.blink::MemberBase.468" }
%"class.blink::MemberBase.468" = type { %"class.blink::PendingAnimations"* }
%"class.blink::PendingAnimations" = type opaque
%"class.blink::Member.469" = type { %"class.blink::MemberBase.470" }
%"class.blink::MemberBase.470" = type { %"class.blink::WorkletAnimationController"* }
%"class.blink::WorkletAnimationController" = type opaque
%"class.blink::Member.10" = type { %"class.blink::MemberBase.11" }
%"class.blink::MemberBase.11" = type { %"class.blink::Document"* }
%"class.blink::HeapTaskRunnerTimer" = type { %"class.blink::TimerBase", %"class.blink::WeakMember.346", { i64, i64 } }
%"class.blink::TimerBase" = type { i32 (...)**, %"class.base::TimeTicks", %"class.base::TimeDelta", %"class.base::Location", %class.scoped_refptr.337, %"class.base::WeakPtrFactory" }
%"class.base::TimeDelta" = type { i64 }
%"class.base::Location" = type { i8*, i8*, i32, i8* }
%class.scoped_refptr.337 = type { %"class.base::SingleThreadTaskRunner"* }
%"class.base::SingleThreadTaskRunner" = type { %"class.base::SequencedTaskRunner.base", [4 x i8] }
%"class.base::SequencedTaskRunner.base" = type { %"class.base::TaskRunner.base" }
%"class.base::TaskRunner.base" = type <{ i32 (...)**, %"class.base::RefCountedThreadSafe.338" }>
%"class.base::RefCountedThreadSafe.338" = type { %"class.base::subtle::RefCountedThreadSafeBase" }
%"class.base::WeakPtrFactory" = type { %"class.base::internal::WeakPtrFactoryBase" }
%"class.base::internal::WeakPtrFactoryBase" = type { %"class.base::internal::WeakReferenceOwner", i64 }
%"class.base::internal::WeakReferenceOwner" = type { %class.scoped_refptr.339 }
%class.scoped_refptr.339 = type { %"class.base::internal::WeakReference::Flag"* }
%"class.base::internal::WeakReference::Flag" = type <{ %"class.base::RefCountedThreadSafe.340", %"class.base::AtomicFlag", [3 x i8] }>
%"class.base::RefCountedThreadSafe.340" = type { %"class.base::subtle::RefCountedThreadSafeBase" }
%"class.base::AtomicFlag" = type { %"struct.std::__1::atomic.341" }
%"struct.std::__1::atomic.341" = type { %"struct.std::__1::__atomic_base.342" }
%"struct.std::__1::__atomic_base.342" = type { %"struct.std::__1::__atomic_base.343" }
%"struct.std::__1::__atomic_base.343" = type { %"struct.std::__1::__cxx_atomic_impl.344" }
%"struct.std::__1::__cxx_atomic_impl.344" = type { %"struct.std::__1::__cxx_atomic_base_impl.345" }
%"struct.std::__1::__cxx_atomic_base_impl.345" = type { i8 }
%"class.blink::WeakMember.346" = type { %"class.blink::MemberBase.11" }
%"class.blink::HeapHashSet.471" = type { %"class.WTF::HashSet.474" }
%"class.WTF::HashSet.474" = type { %"class.WTF::HashTable.475" }
%"class.WTF::HashTable.475" = type <{ %"class.blink::Member.477"*, i32, i32, i32, [4 x i8] }>
%"class.blink::Member.477" = type opaque
%"class.blink::Member.478" = type { %"class.blink::MemberBase.479" }
%"class.blink::MemberBase.479" = type { %"class.blink::CanvasFontCache"* }
%"class.blink::CanvasFontCache" = type opaque
%"class.blink::Member.480" = type { %"class.blink::MemberBase.481" }
%"class.blink::MemberBase.481" = type { %"class.blink::IntersectionObserverController"* }
%"class.blink::IntersectionObserverController" = type opaque
%"class.blink::Member.482" = type { %"class.blink::MemberBase.483" }
%"class.blink::MemberBase.483" = type { %"class.blink::SnapCoordinator"* }
%"class.blink::SnapCoordinator" = type opaque
%"class.blink::Member.484" = type { %"class.blink::MemberBase.485" }
%"class.blink::MemberBase.485" = type { %"class.blink::PropertyRegistry"* }
%"class.blink::PropertyRegistry" = type opaque
%"class.blink::Member.486" = type { %"class.blink::MemberBase.487" }
%"class.blink::MemberBase.487" = type { %"class.blink::Document::NetworkStateObserver"* }
%"class.blink::Document::NetworkStateObserver" = type opaque
%"class.std::__1::unique_ptr.488" = type { %"class.std::__1::__compressed_pair.489" }
%"class.std::__1::__compressed_pair.489" = type { %"struct.std::__1::__compressed_pair_elem.490" }
%"struct.std::__1::__compressed_pair_elem.490" = type { %"class.ukm::UkmRecorder"* }
%"class.ukm::UkmRecorder" = type opaque
%"class.std::__1::unique_ptr.494" = type { %"class.std::__1::__compressed_pair.495" }
%"class.std::__1::__compressed_pair.495" = type { %"struct.std::__1::__compressed_pair_elem.496" }
%"struct.std::__1::__compressed_pair_elem.496" = type { %"class.blink::FontMatchingMetrics"* }
%"class.blink::FontMatchingMetrics" = type opaque
%"class.blink::Member.500" = type { %"class.blink::MemberBase.501" }
%"class.blink::MemberBase.501" = type { %"class.blink::DOMFeaturePolicy"* }
%"class.blink::DOMFeaturePolicy" = type opaque
%"class.blink::Member.502" = type { %"class.blink::MemberBase.503" }
%"class.blink::MemberBase.503" = type { %"class.blink::SlotAssignmentEngine"* }
%"class.blink::SlotAssignmentEngine" = type opaque
%"class.blink::Member.504" = type { %"class.blink::MemberBase.505" }
%"class.blink::MemberBase.505" = type { %"class.blink::ViewportData"* }
%"class.blink::ViewportData" = type opaque
%"class.blink::Member.506" = type { %"class.blink::MemberBase.507" }
%"class.blink::MemberBase.507" = type { %"class.blink::LazyLoadImageObserver"* }
%"class.blink::LazyLoadImageObserver" = type opaque
%"class.WTF::Vector.508" = type { %"class.WTF::VectorBuffer.509" }
%"class.WTF::VectorBuffer.509" = type { %"class.WTF::VectorBufferBase.510" }
%"class.WTF::VectorBufferBase.510" = type { i8*, i32, i32 }
%"class.WTF::AtomicString" = type { %"class.WTF::String" }
%"class.blink::HeapHashMap.513" = type { %"class.WTF::HashMap.516" }
%"class.WTF::HashMap.516" = type { %"class.WTF::HashTable.517" }
%"class.WTF::HashTable.517" = type <{ %"struct.WTF::KeyValuePair.519"*, i32, i32, i32, [4 x i8] }>
%"struct.WTF::KeyValuePair.519" = type opaque
%"class.blink::Member.520" = type { %"class.blink::MemberBase.521" }
%"class.blink::MemberBase.521" = type { %"class.blink::BeforeUnloadEventListener"* }
%"class.blink::BeforeUnloadEventListener" = type opaque
%"class.std::__1::unique_ptr.522" = type { %"class.std::__1::__compressed_pair.523" }
%"class.std::__1::__compressed_pair.523" = type { %"struct.std::__1::__compressed_pair_elem.524" }
%"struct.std::__1::__compressed_pair_elem.524" = type { %"class.blink::DocumentResourceCoordinator"* }
%"class.blink::DocumentResourceCoordinator" = type opaque
%"class.blink::Member.528" = type { %"class.blink::MemberBase.529" }
%"class.blink::MemberBase.529" = type { %"class.blink::CookieJar"* }
%"class.blink::CookieJar" = type opaque
%"class.WTF::String" = type { %class.scoped_refptr }
%class.scoped_refptr = type { %"class.WTF::StringImpl"* }
%"class.WTF::StringImpl" = type { i32, i32, %"struct.std::__1::atomic" }
%"struct.std::__1::atomic" = type { %"struct.std::__1::__atomic_base" }
%"struct.std::__1::__atomic_base" = type { %"struct.std::__1::__atomic_base.18" }
%"struct.std::__1::__atomic_base.18" = type { %"struct.std::__1::__cxx_atomic_impl" }
%"struct.std::__1::__cxx_atomic_impl" = type { %"struct.std::__1::__cxx_atomic_base_impl" }
%"struct.std::__1::__cxx_atomic_base_impl" = type { i32 }
%"class.blink::Member.530" = type { %"class.blink::MemberBase.531" }
%"class.blink::MemberBase.531" = type { %"class.blink::FragmentDirective"* }
%"class.blink::FragmentDirective" = type { %"class.blink::ScriptWrappable" }
%"class.blink::HeapHashMap.532" = type { %"class.WTF::HashMap.535" }
%"class.WTF::HashMap.535" = type { %"class.WTF::HashTable.536" }
%"class.WTF::HashTable.536" = type <{ %"struct.WTF::KeyValuePair.538"*, i32, i32, i32, [4 x i8] }>
%"struct.WTF::KeyValuePair.538" = type opaque
%"class.blink::HeapObserverSet" = type { i32, [4 x i8], %"class.blink::HeapHashSet.539" }
%"class.blink::HeapHashSet.539" = type { %"class.WTF::HashSet.542" }
%"class.WTF::HashSet.542" = type { %"class.WTF::HashTable.543" }
%"class.WTF::HashTable.543" = type <{ %"class.blink::WeakMember.545"*, i32, i32, i32, [4 x i8] }>
%"class.blink::WeakMember.545" = type opaque
%"class.blink::Member.546" = type { %"class.blink::MemberBase.547" }
%"class.blink::MemberBase.547" = type { %"class.blink::DisplayLockDocumentState"* }
%"class.blink::DisplayLockDocumentState" = type opaque
%"class.blink::Member.548" = type { %"class.blink::MemberBase.549" }
%"class.blink::MemberBase.549" = type { %"class.blink::FontPreloadManager"* }
%"class.blink::FontPreloadManager" = type <{ %"class.blink::Member.10", %"class.blink::HeapHashSet.555", i32, [4 x i8], %"class.blink::HeapTaskRunnerTimer.562", %"class.base::TimeDelta", i32, [4 x i8] }>
%"class.blink::HeapHashSet.555" = type { %"class.WTF::HashSet.558" }
%"class.WTF::HashSet.558" = type { %"class.WTF::HashTable.559" }
%"class.WTF::HashTable.559" = type <{ %"class.blink::Member.561"*, i32, i32, i32, [4 x i8] }>
%"class.blink::Member.561" = type opaque
%"class.blink::HeapTaskRunnerTimer.562" = type { %"class.blink::TimerBase", %"class.blink::WeakMember.563", { i64, i64 } }
%"class.blink::WeakMember.563" = type { %"class.blink::MemberBase.549" }
%"class.blink::WeakMember.550" = type { %"class.blink::MemberBase" }
%"class.blink::Member.551" = type { %"class.blink::MemberBase.552" }
%"class.blink::MemberBase.552" = type { %"class.blink::DocumentData"* }
%"class.blink::DocumentData" = type opaque
%"class.ui::AXMode" = type opaque
%"class.WTF::HashSet.569" = type { %"class.WTF::HashTable.570" }
%"class.WTF::HashTable.570" = type <{ %"class.WTF::String"*, i32, i32, i32, [4 x i8] }>
%"class.blink::HTMLQualifiedName" = type { %"class.blink::QualifiedName" }
%"class.WTF::Vector.573" = type { %"class.WTF::VectorBuffer.574" }
%"class.WTF::VectorBuffer.574" = type { %"class.WTF::VectorBufferBase.575" }
%"class.WTF::VectorBufferBase.575" = type { %"class.WTF::String"*, i32, i32 }
%"class.WTF::StringView" = type <{ %"class.WTF::StringImpl"*, i8*, i32, [4 x i8] }>
%"class.logging::CheckOpResult" = type { i8* }
%"class.logging::CheckError" = type { %"class.logging::LogMessage"* }
%"class.logging::LogMessage" = type { i32 (...)**, i32, %"class.std::__1::basic_ostringstream", i64, i8*, i32, %"class.base::ScopedClearLastErrorBase" }
%"class.std::__1::basic_ostringstream" = type { %"class.std::__1::basic_ostream.base", %"class.std::__1::basic_stringbuf", %"class.std::__1::basic_ios.base" }
%"class.std::__1::basic_ostream.base" = type { i32 (...)** }
%"class.std::__1::basic_stringbuf" = type <{ %"class.std::__1::basic_streambuf", %"class.std::__1::basic_string", i8*, i32, [4 x i8] }>
%"class.std::__1::basic_streambuf" = type { i32 (...)**, %"class.std::__1::locale", i8*, i8*, i8*, i8*, i8*, i8* }
%"class.std::__1::locale" = type { %"class.std::__1::locale::__imp"* }
%"class.std::__1::locale::__imp" = type opaque
%"class.std::__1::basic_string" = type { %"class.std::__1::__compressed_pair.578" }
%"class.std::__1::__compressed_pair.578" = type { %"struct.std::__1::__compressed_pair_elem.579" }
%"struct.std::__1::__compressed_pair_elem.579" = type { %"struct.std::__1::basic_string<char, std::__1::char_traits<char>, std::__1::allocator<char> >::__rep" }
%"struct.std::__1::basic_string<char, std::__1::char_traits<char>, std::__1::allocator<char> >::__rep" = type { %union.anon }
%union.anon = type { %"struct.std::__1::basic_string<char, std::__1::char_traits<char>, std::__1::allocator<char> >::__long" }
%"struct.std::__1::basic_string<char, std::__1::char_traits<char>, std::__1::allocator<char> >::__long" = type { i8*, i64, i64 }
%"class.std::__1::basic_ios.base" = type <{ %"class.std::__1::ios_base", %"class.std::__1::basic_ostream"*, i32 }>
%"class.std::__1::ios_base" = type { i32 (...)**, i32, i64, i64, i32, i32, i8*, i8*, void (i32, %"class.std::__1::ios_base"*, i32)**, i32*, i64, i64, i64*, i64, i64, i8**, i64, i64 }
%"class.std::__1::basic_ostream" = type { i32 (...)**, %"class.std::__1::basic_ios.base" }
%"class.base::ScopedClearLastErrorBase" = type { i32 }
%"class.WTF::StringHasher" = type { i32, i8, i16 }

$_ZN3WTF9HashTableINS_6StringES1_NS_17IdentityExtractorENS_15CaseFoldingHashENS_10HashTraitsIS1_EES5_NS_18PartitionAllocatorEE6insertINS_22IdentityHashTranslatorIS3_S5_S6_EERKS1_S1_EENS_18HashTableAddResultIS7_S1_EEOT0_OT1_ = comdat any

$_ZN3WTF9HashTableINS_6StringES1_NS_17IdentityExtractorENS_15CaseFoldingHashENS_10HashTraitsIS1_EES5_NS_18PartitionAllocatorEE6ExpandEPS1_ = comdat any

$_ZN3WTF9HashTableINS_6StringES1_NS_17IdentityExtractorENS_15CaseFoldingHashENS_10HashTraitsIS1_EES5_NS_18PartitionAllocatorEE8RehashToEPS1_jS8_ = comdat any

$_ZN3WTF9HashTableINS_6StringES1_NS_17IdentityExtractorENS_15CaseFoldingHashENS_10HashTraitsIS1_EES5_NS_18PartitionAllocatorEE16LookupForWritingERKS1_ = comdat any

$_ZN3WTF15CaseFoldingHash7GetHashEPNS_10StringImplE = comdat any

$_ZN3WTF12StringHasher28AddCharactersAssumingAlignedIDsXadL_ZNS_15CaseFoldingHash8FoldCaseIDsEEDsT_EEEEvPKS4_j = comdat any

$_ZNK3WTF9HashTableINS_6StringES1_NS_17IdentityExtractorENS_15CaseFoldingHashENS_10HashTraitsIS1_EES5_NS_18PartitionAllocatorEE8ContainsINS_22IdentityHashTranslatorIS3_S5_S6_EES1_EEbRKT0_ = comdat any

@_ZN5blink13AXObjectCache16create_function_E = hidden local_unnamed_addr global %"class.blink::AXObjectCache"* (%"class.blink::Document"*, %"class.ui::AXMode"*)* null, align 8
@.str = private unnamed_addr constant [5 x i8] c"role\00", align 1
@_ZN3WTF10StringImpl6empty_E = external local_unnamed_addr global %"class.WTF::StringImpl"*, align 8
@_ZZN5blink12_GLOBAL__N_122IncludesARIAWidgetRoleERKN3WTF6StringEE8role_set = internal unnamed_addr global %"class.WTF::HashSet.569"* null, align 8
@_ZGVZN5blink12_GLOBAL__N_122IncludesARIAWidgetRoleERKN3WTF6StringEE8role_set = internal global i64 0, align 8
@_ZN5blink12_GLOBAL__N_114g_aria_widgetsE = internal unnamed_addr constant [34 x i8*] [i8* getelementptr inbounds ([6 x i8], [6 x i8]* @.str.1, i32 0, i32 0), i8* getelementptr inbounds ([12 x i8], [12 x i8]* @.str.2, i32 0, i32 0), i8* getelementptr inbounds ([7 x i8], [7 x i8]* @.str.3, i32 0, i32 0), i8* getelementptr inbounds ([9 x i8], [9 x i8]* @.str.4, i32 0, i32 0), i8* getelementptr inbounds ([7 x i8], [7 x i8]* @.str.5, i32 0, i32 0), i8* getelementptr inbounds ([9 x i8], [9 x i8]* @.str.6, i32 0, i32 0), i8* getelementptr inbounds ([5 x i8], [5 x i8]* @.str.7, i32 0, i32 0), i8* getelementptr inbounds ([4 x i8], [4 x i8]* @.str.8, i32 0, i32 0), i8* getelementptr inbounds ([8 x i8], [8 x i8]* @.str.9, i32 0, i32 0), i8* getelementptr inbounds ([9 x i8], [9 x i8]* @.str.10, i32 0, i32 0), i8* getelementptr inbounds ([17 x i8], [17 x i8]* @.str.11, i32 0, i32 0), i8* getelementptr inbounds ([14 x i8], [14 x i8]* @.str.12, i32 0, i32 0), i8* getelementptr inbounds ([7 x i8], [7 x i8]* @.str.13, i32 0, i32 0), i8* getelementptr inbounds ([12 x i8], [12 x i8]* @.str.14, i32 0, i32 0), i8* getelementptr inbounds ([6 x i8], [6 x i8]* @.str.15, i32 0, i32 0), i8* getelementptr inbounds ([10 x i8], [10 x i8]* @.str.16, i32 0, i32 0), i8* getelementptr inbounds ([7 x i8], [7 x i8]* @.str.17, i32 0, i32 0), i8* getelementptr inbounds ([11 x i8], [11 x i8]* @.str.18, i32 0, i32 0), i8* getelementptr inbounds ([7 x i8], [7 x i8]* @.str.19, i32 0, i32 0), i8* getelementptr inbounds ([4 x i8], [4 x i8]* @.str.20, i32 0, i32 0), i8* getelementptr inbounds ([9 x i8], [9 x i8]* @.str.21, i32 0, i32 0), i8* getelementptr inbounds ([8 x i8], [8 x i8]* @.str.22, i32 0, i32 0), i8* getelementptr inbounds ([6 x i8], [6 x i8]* @.str.23, i32 0, i32 0), i8* getelementptr inbounds ([8 x i8], [8 x i8]* @.str.24, i32 0, i32 0), i8* getelementptr inbounds ([9 x i8], [9 x i8]* @.str.25, i32 0, i32 0), i8* getelementptr inbounds ([9 x i8], [9 x i8]* @.str.26, i32 0, i32 0), i8* getelementptr inbounds ([5 x i8], [5 x i8]* @.str.27, i32 0, i32 0), i8* getelementptr inbounds ([8 x i8], [8 x i8]* @.str.28, i32 0, i32 0), i8* getelementptr inbounds ([5 x i8], [5 x i8]* @.str.29, i32 0, i32 0), i8* getelementptr inbounds ([8 x i8], [8 x i8]* @.str.30, i32 0, i32 0), i8* getelementptr inbounds ([11 x i8], [11 x i8]* @.str.31, i32 0, i32 0), i8* getelementptr inbounds ([8 x i8], [8 x i8]* @.str.32, i32 0, i32 0), i8* getelementptr inbounds ([5 x i8], [5 x i8]* @.str.33, i32 0, i32 0), i8* getelementptr inbounds ([9 x i8], [9 x i8]* @.str.34, i32 0, i32 0)], align 16
@__PRETTY_FUNCTION__._ZN3WTF21GetStringWithTypeNameINS_7HashSetINS_6StringENS_15CaseFoldingHashENS_10HashTraitsIS2_EENS_18PartitionAllocatorEEEEEPKcv = private unnamed_addr constant [150 x i8] c"const char *WTF::GetStringWithTypeName() [T = WTF::HashSet<WTF::String, WTF::CaseFoldingHash, WTF::HashTraits<WTF::String>, WTF::PartitionAllocator>]\00", align 1
@.str.1 = private unnamed_addr constant [6 x i8] c"alert\00", align 1
@.str.2 = private unnamed_addr constant [12 x i8] c"alertdialog\00", align 1
@.str.3 = private unnamed_addr constant [7 x i8] c"button\00", align 1
@.str.4 = private unnamed_addr constant [9 x i8] c"checkbox\00", align 1
@.str.5 = private unnamed_addr constant [7 x i8] c"dialog\00", align 1
@.str.6 = private unnamed_addr constant [9 x i8] c"gridcell\00", align 1
@.str.7 = private unnamed_addr constant [5 x i8] c"link\00", align 1
@.str.8 = private unnamed_addr constant [4 x i8] c"log\00", align 1
@.str.9 = private unnamed_addr constant [8 x i8] c"marquee\00", align 1
@.str.10 = private unnamed_addr constant [9 x i8] c"menuitem\00", align 1
@.str.11 = private unnamed_addr constant [17 x i8] c"menuitemcheckbox\00", align 1
@.str.12 = private unnamed_addr constant [14 x i8] c"menuitemradio\00", align 1
@.str.13 = private unnamed_addr constant [7 x i8] c"option\00", align 1
@.str.14 = private unnamed_addr constant [12 x i8] c"progressbar\00", align 1
@.str.15 = private unnamed_addr constant [6 x i8] c"radio\00", align 1
@.str.16 = private unnamed_addr constant [10 x i8] c"scrollbar\00", align 1
@.str.17 = private unnamed_addr constant [7 x i8] c"slider\00", align 1
@.str.18 = private unnamed_addr constant [11 x i8] c"spinbutton\00", align 1
@.str.19 = private unnamed_addr constant [7 x i8] c"status\00", align 1
@.str.20 = private unnamed_addr constant [4 x i8] c"tab\00", align 1
@.str.21 = private unnamed_addr constant [9 x i8] c"tabpanel\00", align 1
@.str.22 = private unnamed_addr constant [8 x i8] c"textbox\00", align 1
@.str.23 = private unnamed_addr constant [6 x i8] c"timer\00", align 1
@.str.24 = private unnamed_addr constant [8 x i8] c"tooltip\00", align 1
@.str.25 = private unnamed_addr constant [9 x i8] c"treeitem\00", align 1
@.str.26 = private unnamed_addr constant [9 x i8] c"combobox\00", align 1
@.str.27 = private unnamed_addr constant [5 x i8] c"grid\00", align 1
@.str.28 = private unnamed_addr constant [8 x i8] c"listbox\00", align 1
@.str.29 = private unnamed_addr constant [5 x i8] c"menu\00", align 1
@.str.30 = private unnamed_addr constant [8 x i8] c"menubar\00", align 1
@.str.31 = private unnamed_addr constant [11 x i8] c"radiogroup\00", align 1
@.str.32 = private unnamed_addr constant [8 x i8] c"tablist\00", align 1
@.str.33 = private unnamed_addr constant [5 x i8] c"tree\00", align 1
@.str.34 = private unnamed_addr constant [9 x i8] c"treegrid\00", align 1
@.str.35 = private unnamed_addr constant [23 x i8] c"new_size > table_size_\00", align 1
@.str.36 = private unnamed_addr constant [59 x i8] c"../../third_party/blink/renderer/platform/wtf/hash_table.h\00", align 1
@__PRETTY_FUNCTION__._ZN3WTF21GetStringWithTypeNameINS_6StringEEEPKcv = private unnamed_addr constant [59 x i8] c"const char *WTF::GetStringWithTypeName() [T = WTF::String]\00", align 1
@_ZN3WTF10StringImpl20kLatin1CaseFoldTableE = external local_unnamed_addr constant [256 x i16], align 16
@_ZN5blink12_GLOBAL__N_136g_aria_interactive_widget_attributesE = internal unnamed_addr constant [8 x i8*] [i8* getelementptr inbounds ([22 x i8], [22 x i8]* @.str.37, i32 0, i32 0), i8* getelementptr inbounds ([13 x i8], [13 x i8]* @.str.38, i32 0, i32 0), i8* getelementptr inbounds ([14 x i8], [14 x i8]* @.str.39, i32 0, i32 0), i8* getelementptr inbounds ([14 x i8], [14 x i8]* @.str.40, i32 0, i32 0), i8* getelementptr inbounds ([14 x i8], [14 x i8]* @.str.41, i32 0, i32 0), i8* getelementptr inbounds ([21 x i8], [21 x i8]* @.str.42, i32 0, i32 0), i8* getelementptr inbounds ([14 x i8], [14 x i8]* @.str.43, i32 0, i32 0), i8* getelementptr inbounds ([14 x i8], [14 x i8]* @.str.44, i32 0, i32 0)], align 16
@.str.37 = private unnamed_addr constant [22 x i8] c"aria-activedescendant\00", align 1
@.str.38 = private unnamed_addr constant [13 x i8] c"aria-checked\00", align 1
@.str.39 = private unnamed_addr constant [14 x i8] c"aria-controls\00", align 1
@.str.40 = private unnamed_addr constant [14 x i8] c"aria-disabled\00", align 1
@.str.41 = private unnamed_addr constant [14 x i8] c"aria-haspopup\00", align 1
@.str.42 = private unnamed_addr constant [21 x i8] c"aria-multiselectable\00", align 1
@.str.43 = private unnamed_addr constant [14 x i8] c"aria-required\00", align 1
@.str.44 = private unnamed_addr constant [14 x i8] c"aria-selected\00", align 1
@_ZN5blink10html_names8kBodyTagE = external local_unnamed_addr constant %"class.blink::HTMLQualifiedName"*, align 8

; Function Attrs: nofree norecurse nounwind ssp uwtable writeonly
define hidden void @_ZN5blink13AXObjectCache4InitEPFPS0_RNS_8DocumentERKN2ui6AXModeEE(%"class.blink::AXObjectCache"* (%"class.blink::Document"*, %"class.ui::AXMode"*)*) local_unnamed_addr #0 align 2 {
  store %"class.blink::AXObjectCache"* (%"class.blink::Document"*, %"class.ui::AXMode"*)* %0, %"class.blink::AXObjectCache"* (%"class.blink::Document"*, %"class.ui::AXMode"*)** @_ZN5blink13AXObjectCache16create_function_E, align 8
  ret void
}

; Function Attrs: nounwind ssp uwtable
define hidden %"class.blink::AXObjectCache"* @_ZN5blink13AXObjectCache6CreateERNS_8DocumentERKN2ui6AXModeE(%"class.blink::Document"* dereferenceable(2848), %"class.ui::AXMode"*) local_unnamed_addr #1 align 2 {
  %3 = load %"class.blink::AXObjectCache"* (%"class.blink::Document"*, %"class.ui::AXMode"*)*, %"class.blink::AXObjectCache"* (%"class.blink::Document"*, %"class.ui::AXMode"*)** @_ZN5blink13AXObjectCache16create_function_E, align 8
  %4 = tail call %"class.blink::AXObjectCache"* %3(%"class.blink::Document"* dereferenceable(2848) %0, %"class.ui::AXMode"* %1) #9
  ret %"class.blink::AXObjectCache"* %4
}

; Function Attrs: nounwind ssp uwtable
define hidden zeroext i1 @_ZN5blink13AXObjectCache36IsInsideFocusableElementOrARIAWidgetERKNS_4NodeE(%"class.blink::Node"* dereferenceable(64)) local_unnamed_addr #1 align 2 {
  %2 = alloca %"class.WTF::String", align 8
  %3 = alloca %"class.WTF::Vector.573", align 8
  %4 = alloca %"class.WTF::AtomicString", align 8
  %5 = alloca %"class.WTF::StringView", align 8
  %6 = alloca %"class.WTF::String", align 8
  %7 = alloca %"class.WTF::AtomicString", align 8
  %8 = bitcast %"class.WTF::String"* %6 to i8*
  %9 = getelementptr inbounds %"class.WTF::String", %"class.WTF::String"* %6, i64 0, i32 0, i32 0
  %10 = bitcast %"class.WTF::AtomicString"* %7 to i8*
  %11 = bitcast %"class.WTF::StringView"* %5 to i8*
  %12 = getelementptr inbounds %"class.WTF::AtomicString", %"class.WTF::AtomicString"* %7, i64 0, i32 0, i32 0, i32 0
  %13 = getelementptr inbounds %"class.WTF::StringView", %"class.WTF::StringView"* %5, i64 0, i32 0
  %14 = getelementptr inbounds %"class.WTF::StringView", %"class.WTF::StringView"* %5, i64 0, i32 1
  %15 = bitcast i8** %14 to %"class.WTF::StringImpl"**
  %16 = bitcast %"class.WTF::StringView"* %5 to i64*
  %17 = getelementptr inbounds %"class.WTF::StringView", %"class.WTF::StringView"* %5, i64 0, i32 2
  %18 = bitcast %"class.WTF::String"* %2 to i8*
  %19 = getelementptr inbounds %"class.WTF::String", %"class.WTF::String"* %2, i64 0, i32 0, i32 0
  %20 = bitcast %"class.WTF::Vector.573"* %3 to i8*
  %21 = getelementptr inbounds %"class.WTF::Vector.573", %"class.WTF::Vector.573"* %3, i64 0, i32 0, i32 0, i32 0
  %22 = getelementptr inbounds %"class.WTF::Vector.573", %"class.WTF::Vector.573"* %3, i64 0, i32 0, i32 0, i32 2
  %23 = bitcast %"class.WTF::Vector.573"* %3 to i8**
  %24 = bitcast %"class.WTF::AtomicString"* %4 to i8*
  %25 = getelementptr inbounds %"class.WTF::AtomicString", %"class.WTF::AtomicString"* %4, i64 0, i32 0, i32 0, i32 0
  %26 = getelementptr inbounds %"class.blink::Node", %"class.blink::Node"* %0, i64 0, i32 1
  %27 = icmp eq %"class.blink::Node"* %0, null
  %28 = load %"class.blink::HTMLQualifiedName"*, %"class.blink::HTMLQualifiedName"** @_ZN5blink10html_names8kBodyTagE, align 8
  %29 = getelementptr inbounds %"class.blink::HTMLQualifiedName", %"class.blink::HTMLQualifiedName"* %28, i64 0, i32 0, i32 0, i32 0
  %30 = getelementptr inbounds %"class.blink::Node", %"class.blink::Node"* %0, i64 1, i32 2
  %31 = bitcast %"class.blink::Member"* %30 to %"class.blink::QualifiedName::QualifiedNameImpl"**
  br label %32

32:                                               ; preds = %249, %1
  %33 = phi %"class.blink::Node"* [ %0, %1 ], [ %236, %249 ]
  %34 = icmp eq %"class.blink::Node"* %33, null
  br i1 %34, label %232, label %35

35:                                               ; preds = %32
  %36 = getelementptr inbounds %"class.blink::Node", %"class.blink::Node"* %33, i64 0, i32 1
  %37 = load i32, i32* %36, align 8
  %38 = and i32 %37, 12
  %39 = icmp eq i32 %38, 0
  %40 = bitcast %"class.blink::Node"* %33 to %"class.blink::Element"*
  br i1 %39, label %41, label %232

41:                                               ; preds = %35
  %42 = call zeroext i1 @_ZNK5blink7Element11IsFocusableEv(%"class.blink::Element"* nonnull %40) #9
  br i1 %42, label %250, label %43

43:                                               ; preds = %41
  call void @llvm.lifetime.start.p0i8(i64 8, i8* nonnull %8) #9
  store %"class.WTF::StringImpl"* inttoptr (i64 -6148914691236517206 to %"class.WTF::StringImpl"*), %"class.WTF::StringImpl"** %9, align 8
  call void @llvm.lifetime.start.p0i8(i64 8, i8* nonnull %10) #9
  call void @_ZN3WTF12AtomicStringC2EPKhm(%"class.WTF::AtomicString"* nonnull %7, i8* getelementptr inbounds ([5 x i8], [5 x i8]* @.str, i64 0, i64 0), i64 4) #9
  call void @llvm.lifetime.start.p0i8(i64 24, i8* nonnull %11) #9
  %44 = load %"class.WTF::StringImpl"*, %"class.WTF::StringImpl"** %12, align 8
  %45 = icmp eq %"class.WTF::StringImpl"* %44, null
  br i1 %45, label %46, label %48

46:                                               ; preds = %43
  store i8* null, i8** %14, align 8
  %47 = load i64, i64* bitcast (%"class.WTF::StringImpl"** @_ZN3WTF10StringImpl6empty_E to i64*), align 8
  store i64 %47, i64* %16, align 8
  br label %52

48:                                               ; preds = %43
  store %"class.WTF::StringImpl"* %44, %"class.WTF::StringImpl"** %13, align 8
  %49 = getelementptr inbounds %"class.WTF::StringImpl", %"class.WTF::StringImpl"* %44, i64 0, i32 1
  %50 = load i32, i32* %49, align 4
  %51 = getelementptr inbounds %"class.WTF::StringImpl", %"class.WTF::StringImpl"* %44, i64 1
  store %"class.WTF::StringImpl"* %51, %"class.WTF::StringImpl"** %15, align 8
  br label %52

52:                                               ; preds = %46, %48
  %53 = phi i32 [ %50, %48 ], [ 0, %46 ]
  store i32 %53, i32* %17, align 8
  %54 = call i64 @_ZNK5blink7Element24WeakLowercaseIfNecessaryERKN3WTF10StringViewE(%"class.blink::Element"* nonnull %40, %"class.WTF::StringView"* nonnull dereferenceable(24) %5) #9
  %55 = call dereferenceable(8) %"class.WTF::AtomicString"* @_ZNK5blink7Element18GetAttributeHintedERKN3WTF12AtomicStringENS1_17AtomicStringTable10WeakResultE(%"class.blink::Element"* nonnull %40, %"class.WTF::AtomicString"* nonnull dereferenceable(8) %7, i64 %54) #9
  call void @llvm.lifetime.end.p0i8(i64 24, i8* nonnull %11) #9
  %56 = getelementptr inbounds %"class.WTF::AtomicString", %"class.WTF::AtomicString"* %55, i64 0, i32 0, i32 0, i32 0
  %57 = load %"class.WTF::StringImpl"*, %"class.WTF::StringImpl"** %56, align 8
  store %"class.WTF::StringImpl"* %57, %"class.WTF::StringImpl"** %9, align 8
  %58 = icmp eq %"class.WTF::StringImpl"* %57, null
  br i1 %58, label %76, label %59

59:                                               ; preds = %52
  %60 = getelementptr inbounds %"class.WTF::StringImpl", %"class.WTF::StringImpl"* %57, i64 0, i32 2, i32 0, i32 0, i32 0, i32 0, i32 0
  %61 = load atomic i32, i32* %60 monotonic, align 4
  %62 = and i32 %61, 2
  %63 = icmp eq i32 %62, 0
  br i1 %63, label %64, label %76

64:                                               ; preds = %59
  %65 = getelementptr inbounds %"class.WTF::StringImpl", %"class.WTF::StringImpl"* %57, i64 0, i32 0
  %66 = load i32, i32* %65, align 4
  %67 = zext i32 %66 to i33
  %68 = call { i33, i1 } @llvm.sadd.with.overflow.i33(i33 %67, i33 1) #9
  %69 = extractvalue { i33, i1 } %68, 1
  %70 = extractvalue { i33, i1 } %68, 0
  %71 = icmp slt i33 %70, 0
  %72 = or i1 %69, %71
  br i1 %72, label %73, label %74, !prof !2

73:                                               ; preds = %64
  call void @llvm.trap() #9
  unreachable

74:                                               ; preds = %64
  %75 = trunc i33 %70 to i32
  store i32 %75, i32* %65, align 4
  br label %76

76:                                               ; preds = %52, %59, %74
  %77 = load %"class.WTF::StringImpl"*, %"class.WTF::StringImpl"** %12, align 8
  %78 = icmp eq %"class.WTF::StringImpl"* %77, null
  br i1 %78, label %92, label %79

79:                                               ; preds = %76
  %80 = getelementptr inbounds %"class.WTF::StringImpl", %"class.WTF::StringImpl"* %77, i64 0, i32 2, i32 0, i32 0, i32 0, i32 0, i32 0
  %81 = load atomic i32, i32* %80 monotonic, align 4
  %82 = and i32 %81, 2
  %83 = icmp eq i32 %82, 0
  %84 = getelementptr inbounds %"class.WTF::StringImpl", %"class.WTF::StringImpl"* %77, i64 0, i32 0
  %85 = load i32, i32* %84, align 4
  br i1 %83, label %86, label %88

86:                                               ; preds = %79
  %87 = add i32 %85, -1
  store i32 %87, i32* %84, align 4
  br label %88

88:                                               ; preds = %86, %79
  %89 = phi i32 [ %87, %86 ], [ %85, %79 ]
  %90 = icmp eq i32 %89, 0
  br i1 %90, label %91, label %92

91:                                               ; preds = %88
  call void @_ZNK3WTF10StringImpl18DestroyIfNotStaticEv(%"class.WTF::StringImpl"* nonnull %77) #9
  br label %92

92:                                               ; preds = %76, %88, %91
  call void @llvm.lifetime.end.p0i8(i64 8, i8* nonnull %10) #9
  %93 = load %"class.WTF::StringImpl"*, %"class.WTF::StringImpl"** %9, align 8
  %94 = icmp eq %"class.WTF::StringImpl"* %93, null
  br i1 %94, label %187, label %95

95:                                               ; preds = %92
  %96 = getelementptr inbounds %"class.WTF::StringImpl", %"class.WTF::StringImpl"* %93, i64 0, i32 1
  %97 = load i32, i32* %96, align 4
  %98 = icmp eq i32 %97, 0
  br i1 %98, label %187, label %99

99:                                               ; preds = %95
  %100 = load atomic i8, i8* bitcast (i64* @_ZGVZN5blink12_GLOBAL__N_122IncludesARIAWidgetRoleERKN3WTF6StringEE8role_set to i8*) acquire, align 8
  %101 = icmp eq i8 %100, 0
  br i1 %101, label %102, label %133, !prof !3

102:                                              ; preds = %99
  %103 = call i32 @__cxa_guard_acquire(i64* nonnull @_ZGVZN5blink12_GLOBAL__N_122IncludesARIAWidgetRoleERKN3WTF6StringEE8role_set) #9
  %104 = icmp eq i32 %103, 0
  br i1 %104, label %133, label %105

105:                                              ; preds = %102
  %106 = call i8* @_ZN3WTF10Partitions10FastMallocEmPKc(i64 24, i8* getelementptr inbounds ([150 x i8], [150 x i8]* @__PRETTY_FUNCTION__._ZN3WTF21GetStringWithTypeNameINS_7HashSetINS_6StringENS_15CaseFoldingHashENS_10HashTraitsIS2_EENS_18PartitionAllocatorEEEEEPKcv, i64 0, i64 0)) #9
  call void @llvm.memset.p0i8.i64(i8* align 8 %106, i8 0, i64 20, i1 false) #9
  %107 = bitcast i8* %106 to %"class.WTF::HashTable.570"*
  br label %108

108:                                              ; preds = %129, %105
  %109 = phi i64 [ 0, %105 ], [ %130, %129 ]
  call void @llvm.lifetime.start.p0i8(i64 8, i8* nonnull %18) #9
  %110 = getelementptr inbounds [34 x i8*], [34 x i8*]* @_ZN5blink12_GLOBAL__N_114g_aria_widgetsE, i64 0, i64 %109
  %111 = load i8*, i8** %110, align 8
  %112 = call i64 @strlen(i8* nonnull %111) #10
  call void @_ZN3WTF6StringC2EPKcm(%"class.WTF::String"* nonnull %2, i8* %111, i64 %112) #9
  %113 = call { %"class.WTF::String"*, i8 } @_ZN3WTF9HashTableINS_6StringES1_NS_17IdentityExtractorENS_15CaseFoldingHashENS_10HashTraitsIS1_EES5_NS_18PartitionAllocatorEE6insertINS_22IdentityHashTranslatorIS3_S5_S6_EERKS1_S1_EENS_18HashTableAddResultIS7_S1_EEOT0_OT1_(%"class.WTF::HashTable.570"* %107, %"class.WTF::String"* nonnull dereferenceable(8) %2, %"class.WTF::String"* nonnull dereferenceable(8) %2) #9
  %114 = load %"class.WTF::StringImpl"*, %"class.WTF::StringImpl"** %19, align 8
  %115 = icmp eq %"class.WTF::StringImpl"* %114, null
  br i1 %115, label %129, label %116

116:                                              ; preds = %108
  %117 = getelementptr inbounds %"class.WTF::StringImpl", %"class.WTF::StringImpl"* %114, i64 0, i32 2, i32 0, i32 0, i32 0, i32 0, i32 0
  %118 = load atomic i32, i32* %117 monotonic, align 4
  %119 = and i32 %118, 2
  %120 = icmp eq i32 %119, 0
  %121 = getelementptr inbounds %"class.WTF::StringImpl", %"class.WTF::StringImpl"* %114, i64 0, i32 0
  %122 = load i32, i32* %121, align 4
  br i1 %120, label %123, label %125

123:                                              ; preds = %116
  %124 = add i32 %122, -1
  store i32 %124, i32* %121, align 4
  br label %125

125:                                              ; preds = %123, %116
  %126 = phi i32 [ %124, %123 ], [ %122, %116 ]
  %127 = icmp eq i32 %126, 0
  br i1 %127, label %128, label %129

128:                                              ; preds = %125
  call void @_ZNK3WTF10StringImpl18DestroyIfNotStaticEv(%"class.WTF::StringImpl"* nonnull %114) #9
  br label %129

129:                                              ; preds = %128, %125, %108
  call void @llvm.lifetime.end.p0i8(i64 8, i8* nonnull %18) #9
  %130 = add nuw nsw i64 %109, 1
  %131 = icmp eq i64 %130, 34
  br i1 %131, label %132, label %108

132:                                              ; preds = %129
  store i8* %106, i8** bitcast (%"class.WTF::HashSet.569"** @_ZZN5blink12_GLOBAL__N_122IncludesARIAWidgetRoleERKN3WTF6StringEE8role_set to i8**), align 8
  call void @__cxa_guard_release(i64* nonnull @_ZGVZN5blink12_GLOBAL__N_122IncludesARIAWidgetRoleERKN3WTF6StringEE8role_set) #9
  br label %133

133:                                              ; preds = %132, %102, %99
  call void @llvm.lifetime.start.p0i8(i64 16, i8* nonnull %20) #9
  call void @llvm.memset.p0i8.i64(i8* nonnull align 8 %20, i8 0, i64 16, i1 false) #9
  call void @_ZNK3WTF6String5SplitEDsbRNS_6VectorIS0_Lj0ENS_18PartitionAllocatorEEE(%"class.WTF::String"* nonnull %6, i16 zeroext 32, i1 zeroext false, %"class.WTF::Vector.573"* nonnull dereferenceable(16) %3) #9
  %134 = load %"class.WTF::String"*, %"class.WTF::String"** %21, align 8
  %135 = load i32, i32* %22, align 4
  %136 = zext i32 %135 to i64
  %137 = getelementptr inbounds %"class.WTF::String", %"class.WTF::String"* %134, i64 %136
  %138 = icmp eq i32 %135, 0
  br i1 %138, label %150, label %141

139:                                              ; preds = %141
  %140 = icmp eq %"class.WTF::String"* %146, %137
  br i1 %140, label %147, label %141

141:                                              ; preds = %133, %139
  %142 = phi %"class.WTF::String"* [ %146, %139 ], [ %134, %133 ]
  %143 = load %"class.WTF::HashSet.569"*, %"class.WTF::HashSet.569"** @_ZZN5blink12_GLOBAL__N_122IncludesARIAWidgetRoleERKN3WTF6StringEE8role_set, align 8
  %144 = getelementptr inbounds %"class.WTF::HashSet.569", %"class.WTF::HashSet.569"* %143, i64 0, i32 0
  %145 = call zeroext i1 @_ZNK3WTF9HashTableINS_6StringES1_NS_17IdentityExtractorENS_15CaseFoldingHashENS_10HashTraitsIS1_EES5_NS_18PartitionAllocatorEE8ContainsINS_22IdentityHashTranslatorIS3_S5_S6_EES1_EEbRKT0_(%"class.WTF::HashTable.570"* %144, %"class.WTF::String"* dereferenceable(8) %142) #9
  %146 = getelementptr inbounds %"class.WTF::String", %"class.WTF::String"* %142, i64 1
  br i1 %145, label %147, label %139

147:                                              ; preds = %141, %139
  %148 = phi i1 [ false, %139 ], [ true, %141 ]
  %149 = load %"class.WTF::String"*, %"class.WTF::String"** %21, align 8
  br label %150

150:                                              ; preds = %147, %133
  %151 = phi %"class.WTF::String"* [ %134, %133 ], [ %149, %147 ]
  %152 = phi i1 [ false, %133 ], [ %148, %147 ]
  %153 = icmp eq %"class.WTF::String"* %151, null
  br i1 %153, label %186, label %154, !prof !4

154:                                              ; preds = %150
  %155 = bitcast %"class.WTF::String"* %151 to i8*
  %156 = load i32, i32* %22, align 4
  %157 = icmp eq i32 %156, 0
  br i1 %157, label %184, label %158, !prof !2

158:                                              ; preds = %154
  %159 = zext i32 %156 to i64
  %160 = getelementptr inbounds %"class.WTF::String", %"class.WTF::String"* %151, i64 %159
  br label %161

161:                                              ; preds = %179, %158
  %162 = phi %"class.WTF::String"* [ %180, %179 ], [ %151, %158 ]
  %163 = getelementptr inbounds %"class.WTF::String", %"class.WTF::String"* %162, i64 0, i32 0, i32 0
  %164 = load %"class.WTF::StringImpl"*, %"class.WTF::StringImpl"** %163, align 8
  %165 = icmp eq %"class.WTF::StringImpl"* %164, null
  br i1 %165, label %179, label %166

166:                                              ; preds = %161
  %167 = getelementptr inbounds %"class.WTF::StringImpl", %"class.WTF::StringImpl"* %164, i64 0, i32 2, i32 0, i32 0, i32 0, i32 0, i32 0
  %168 = load atomic i32, i32* %167 monotonic, align 4
  %169 = and i32 %168, 2
  %170 = icmp eq i32 %169, 0
  %171 = getelementptr inbounds %"class.WTF::StringImpl", %"class.WTF::StringImpl"* %164, i64 0, i32 0
  %172 = load i32, i32* %171, align 4
  br i1 %170, label %173, label %175

173:                                              ; preds = %166
  %174 = add i32 %172, -1
  store i32 %174, i32* %171, align 4
  br label %175

175:                                              ; preds = %173, %166
  %176 = phi i32 [ %174, %173 ], [ %172, %166 ]
  %177 = icmp eq i32 %176, 0
  br i1 %177, label %178, label %179

178:                                              ; preds = %175
  call void @_ZNK3WTF10StringImpl18DestroyIfNotStaticEv(%"class.WTF::StringImpl"* nonnull %164) #9
  br label %179

179:                                              ; preds = %178, %175, %161
  %180 = getelementptr inbounds %"class.WTF::String", %"class.WTF::String"* %162, i64 1
  %181 = icmp eq %"class.WTF::String"* %180, %160
  br i1 %181, label %182, label %161

182:                                              ; preds = %179
  store i32 0, i32* %22, align 4
  %183 = load i8*, i8** %23, align 8
  br label %184

184:                                              ; preds = %182, %154
  %185 = phi i8* [ %183, %182 ], [ %155, %154 ]
  call void @_ZN3WTF18PartitionAllocator11FreeBackingEPv(i8* %185) #9
  store %"class.WTF::String"* null, %"class.WTF::String"** %21, align 8
  br label %186

186:                                              ; preds = %150, %184
  call void @llvm.lifetime.end.p0i8(i64 16, i8* nonnull %20) #9
  br i1 %152, label %213, label %187

187:                                              ; preds = %92, %186, %95
  br label %190

188:                                              ; preds = %211
  %189 = icmp eq i64 %212, 8
  br i1 %189, label %213, label %190

190:                                              ; preds = %187, %188
  %191 = phi i64 [ %212, %188 ], [ 0, %187 ]
  %192 = getelementptr inbounds [8 x i8*], [8 x i8*]* @_ZN5blink12_GLOBAL__N_136g_aria_interactive_widget_attributesE, i64 0, i64 %191
  %193 = load i8*, i8** %192, align 8
  call void @llvm.lifetime.start.p0i8(i64 8, i8* nonnull %24) #9
  %194 = call i64 @strlen(i8* nonnull %193) #10
  call void @_ZN3WTF12AtomicStringC2EPKhm(%"class.WTF::AtomicString"* nonnull %4, i8* %193, i64 %194) #9
  %195 = call zeroext i1 @_ZNK5blink7Element12hasAttributeERKN3WTF12AtomicStringE(%"class.blink::Element"* nonnull %40, %"class.WTF::AtomicString"* nonnull dereferenceable(8) %4) #9
  %196 = load %"class.WTF::StringImpl"*, %"class.WTF::StringImpl"** %25, align 8
  %197 = icmp eq %"class.WTF::StringImpl"* %196, null
  br i1 %197, label %211, label %198

198:                                              ; preds = %190
  %199 = getelementptr inbounds %"class.WTF::StringImpl", %"class.WTF::StringImpl"* %196, i64 0, i32 2, i32 0, i32 0, i32 0, i32 0, i32 0
  %200 = load atomic i32, i32* %199 monotonic, align 4
  %201 = and i32 %200, 2
  %202 = icmp eq i32 %201, 0
  %203 = getelementptr inbounds %"class.WTF::StringImpl", %"class.WTF::StringImpl"* %196, i64 0, i32 0
  %204 = load i32, i32* %203, align 4
  br i1 %202, label %205, label %207

205:                                              ; preds = %198
  %206 = add i32 %204, -1
  store i32 %206, i32* %203, align 4
  br label %207

207:                                              ; preds = %205, %198
  %208 = phi i32 [ %206, %205 ], [ %204, %198 ]
  %209 = icmp eq i32 %208, 0
  br i1 %209, label %210, label %211

210:                                              ; preds = %207
  call void @_ZNK3WTF10StringImpl18DestroyIfNotStaticEv(%"class.WTF::StringImpl"* nonnull %196) #9
  br label %211

211:                                              ; preds = %210, %207, %190
  call void @llvm.lifetime.end.p0i8(i64 8, i8* nonnull %24) #9
  %212 = add nuw nsw i64 %191, 1
  br i1 %195, label %213, label %188

213:                                              ; preds = %188, %211, %186
  %214 = phi i32 [ 1, %186 ], [ 1, %211 ], [ 0, %188 ]
  %215 = load %"class.WTF::StringImpl"*, %"class.WTF::StringImpl"** %9, align 8
  %216 = icmp eq %"class.WTF::StringImpl"* %215, null
  br i1 %216, label %230, label %217

217:                                              ; preds = %213
  %218 = getelementptr inbounds %"class.WTF::StringImpl", %"class.WTF::StringImpl"* %215, i64 0, i32 2, i32 0, i32 0, i32 0, i32 0, i32 0
  %219 = load atomic i32, i32* %218 monotonic, align 4
  %220 = and i32 %219, 2
  %221 = icmp eq i32 %220, 0
  %222 = getelementptr inbounds %"class.WTF::StringImpl", %"class.WTF::StringImpl"* %215, i64 0, i32 0
  %223 = load i32, i32* %222, align 4
  br i1 %221, label %224, label %226

224:                                              ; preds = %217
  %225 = add i32 %223, -1
  store i32 %225, i32* %222, align 4
  br label %226

226:                                              ; preds = %224, %217
  %227 = phi i32 [ %225, %224 ], [ %223, %217 ]
  %228 = icmp eq i32 %227, 0
  br i1 %228, label %229, label %230

229:                                              ; preds = %226
  call void @_ZNK3WTF10StringImpl18DestroyIfNotStaticEv(%"class.WTF::StringImpl"* nonnull %215) #9
  br label %230

230:                                              ; preds = %213, %226, %229
  call void @llvm.lifetime.end.p0i8(i64 8, i8* nonnull %8) #9
  %231 = icmp eq i32 %214, 0
  br i1 %231, label %232, label %250

232:                                              ; preds = %35, %32, %230
  %233 = call %"class.blink::ContainerNode"* @_ZNK5blink4Node10parentNodeEv(%"class.blink::Node"* %33) #9
  %234 = icmp eq %"class.blink::ContainerNode"* %233, null
  br i1 %234, label %250, label %235

235:                                              ; preds = %232
  %236 = getelementptr inbounds %"class.blink::ContainerNode", %"class.blink::ContainerNode"* %233, i64 0, i32 0
  %237 = load i32, i32* %26, align 8
  %238 = and i32 %237, 48
  %239 = icmp ne i32 %238, 0
  %240 = or i1 %27, %239
  br i1 %240, label %249, label %241

241:                                              ; preds = %235
  %242 = load %"class.blink::QualifiedName::QualifiedNameImpl"*, %"class.blink::QualifiedName::QualifiedNameImpl"** %29, align 8
  %243 = load %"class.blink::QualifiedName::QualifiedNameImpl"*, %"class.blink::QualifiedName::QualifiedNameImpl"** %31, align 8
  %244 = getelementptr inbounds %"class.blink::QualifiedName::QualifiedNameImpl", %"class.blink::QualifiedName::QualifiedNameImpl"* %243, i64 0, i32 3, i32 0, i32 0, i32 0
  %245 = load %"class.WTF::StringImpl"*, %"class.WTF::StringImpl"** %244, align 8
  %246 = getelementptr inbounds %"class.blink::QualifiedName::QualifiedNameImpl", %"class.blink::QualifiedName::QualifiedNameImpl"* %242, i64 0, i32 3, i32 0, i32 0, i32 0
  %247 = load %"class.WTF::StringImpl"*, %"class.WTF::StringImpl"** %246, align 8
  %248 = icmp eq %"class.WTF::StringImpl"* %245, %247
  br i1 %248, label %250, label %249

249:                                              ; preds = %241, %235
  br label %32

250:                                              ; preds = %41, %230, %241, %232
  %251 = phi i1 [ false, %232 ], [ false, %241 ], [ true, %230 ], [ true, %41 ]
  ret i1 %251
}

; Function Attrs: argmemonly nounwind
declare void @llvm.lifetime.start.p0i8(i64 immarg, i8* nocapture) #2

declare zeroext i1 @_ZNK5blink7Element11IsFocusableEv(%"class.blink::Element"*) local_unnamed_addr #3

; Function Attrs: argmemonly nounwind
declare void @llvm.lifetime.end.p0i8(i64 immarg, i8* nocapture) #2

declare %"class.blink::ContainerNode"* @_ZNK5blink4Node10parentNodeEv(%"class.blink::Node"*) local_unnamed_addr #3

declare dereferenceable(8) %"class.WTF::AtomicString"* @_ZNK5blink7Element18GetAttributeHintedERKN3WTF12AtomicStringENS1_17AtomicStringTable10WeakResultE(%"class.blink::Element"*, %"class.WTF::AtomicString"* dereferenceable(8), i64) local_unnamed_addr #3

declare i64 @_ZNK5blink7Element24WeakLowercaseIfNecessaryERKN3WTF10StringViewE(%"class.blink::Element"*, %"class.WTF::StringView"* dereferenceable(24)) local_unnamed_addr #3

; Function Attrs: argmemonly nofree nounwind readonly
declare i64 @strlen(i8* nocapture) local_unnamed_addr #4

declare void @_ZN3WTF12AtomicStringC2EPKhm(%"class.WTF::AtomicString"*, i8*, i64) unnamed_addr #3

; Function Attrs: nounwind readnone speculatable
declare { i33, i1 } @llvm.sadd.with.overflow.i33(i33, i33) #5

; Function Attrs: cold noreturn nounwind
declare void @llvm.trap() #6

; Function Attrs: nofree nounwind
declare i32 @__cxa_guard_acquire(i64*) local_unnamed_addr #7

; Function Attrs: nofree nounwind
declare void @__cxa_guard_release(i64*) local_unnamed_addr #7

declare i8* @_ZN3WTF10Partitions10FastMallocEmPKc(i64, i8*) local_unnamed_addr #3

; Function Attrs: nounwind ssp uwtable
define linkonce_odr hidden { %"class.WTF::String"*, i8 } @_ZN3WTF9HashTableINS_6StringES1_NS_17IdentityExtractorENS_15CaseFoldingHashENS_10HashTraitsIS1_EES5_NS_18PartitionAllocatorEE6insertINS_22IdentityHashTranslatorIS3_S5_S6_EERKS1_S1_EENS_18HashTableAddResultIS7_S1_EEOT0_OT1_(%"class.WTF::HashTable.570"*, %"class.WTF::String"* dereferenceable(8), %"class.WTF::String"* dereferenceable(8)) local_unnamed_addr #1 comdat align 2 {
  %4 = alloca %"class.WTF::StringView", align 8
  %5 = alloca %"class.WTF::StringView", align 8
  %6 = getelementptr inbounds %"class.WTF::HashTable.570", %"class.WTF::HashTable.570"* %0, i64 0, i32 0
  %7 = load %"class.WTF::String"*, %"class.WTF::String"** %6, align 8
  %8 = icmp eq %"class.WTF::String"* %7, null
  br i1 %8, label %9, label %12

9:                                                ; preds = %3
  %10 = tail call %"class.WTF::String"* @_ZN3WTF9HashTableINS_6StringES1_NS_17IdentityExtractorENS_15CaseFoldingHashENS_10HashTraitsIS1_EES5_NS_18PartitionAllocatorEE6ExpandEPS1_(%"class.WTF::HashTable.570"* %0, %"class.WTF::String"* null)
  %11 = load %"class.WTF::String"*, %"class.WTF::String"** %6, align 8
  br label %12

12:                                               ; preds = %3, %9
  %13 = phi %"class.WTF::String"* [ %7, %3 ], [ %11, %9 ]
  %14 = getelementptr inbounds %"class.WTF::HashTable.570", %"class.WTF::HashTable.570"* %0, i64 0, i32 1
  %15 = load i32, i32* %14, align 8
  %16 = add i32 %15, -1
  %17 = zext i32 %16 to i64
  %18 = getelementptr inbounds %"class.WTF::String", %"class.WTF::String"* %1, i64 0, i32 0, i32 0
  %19 = load %"class.WTF::StringImpl"*, %"class.WTF::StringImpl"** %18, align 8
  %20 = tail call i32 @_ZN3WTF15CaseFoldingHash7GetHashEPNS_10StringImplE(%"class.WTF::StringImpl"* %19) #9
  %21 = and i32 %20, %16
  %22 = zext i32 %21 to i64
  %23 = getelementptr inbounds %"class.WTF::String", %"class.WTF::String"* %13, i64 %22
  %24 = getelementptr inbounds %"class.WTF::String", %"class.WTF::String"* %23, i64 0, i32 0, i32 0
  %25 = load %"class.WTF::StringImpl"*, %"class.WTF::StringImpl"** %24, align 8
  %26 = icmp eq %"class.WTF::StringImpl"* %25, null
  br i1 %26, label %81, label %27

27:                                               ; preds = %12
  %28 = bitcast %"class.WTF::StringView"* %4 to i8*
  %29 = getelementptr inbounds %"class.WTF::StringView", %"class.WTF::StringView"* %4, i64 0, i32 0
  %30 = getelementptr inbounds %"class.WTF::StringView", %"class.WTF::StringView"* %4, i64 0, i32 1
  %31 = bitcast i8** %30 to %"class.WTF::StringImpl"**
  %32 = getelementptr inbounds %"class.WTF::StringView", %"class.WTF::StringView"* %4, i64 0, i32 2
  %33 = bitcast %"class.WTF::StringView"* %5 to i8*
  %34 = getelementptr inbounds %"class.WTF::StringView", %"class.WTF::StringView"* %5, i64 0, i32 0
  %35 = getelementptr inbounds %"class.WTF::StringView", %"class.WTF::StringView"* %5, i64 0, i32 1
  %36 = bitcast i8** %35 to %"class.WTF::StringImpl"**
  %37 = getelementptr inbounds %"class.WTF::StringView", %"class.WTF::StringView"* %5, i64 0, i32 2
  %38 = xor i32 %20, -1
  %39 = lshr i32 %20, 23
  %40 = add i32 %39, %38
  %41 = shl i32 %40, 12
  %42 = xor i32 %41, %40
  %43 = lshr i32 %42, 7
  %44 = xor i32 %43, %42
  %45 = shl i32 %44, 2
  %46 = xor i32 %45, %44
  %47 = lshr i32 %46, 20
  %48 = xor i32 %47, %46
  %49 = or i32 %48, 1
  %50 = zext i32 %49 to i64
  br label %51

51:                                               ; preds = %27, %69
  %52 = phi %"class.WTF::StringImpl"* [ %25, %27 ], [ %77, %69 ]
  %53 = phi %"class.WTF::String"* [ %23, %27 ], [ %75, %69 ]
  %54 = phi %"class.WTF::String"* [ null, %27 ], [ %70, %69 ]
  %55 = phi i64 [ %22, %27 ], [ %74, %69 ]
  %56 = phi i64 [ 0, %27 ], [ %72, %69 ]
  %57 = bitcast %"class.WTF::String"* %53 to i8**
  %58 = load i8*, i8** %57, align 8
  %59 = icmp eq i8* %58, inttoptr (i64 -1 to i8*)
  br i1 %59, label %69, label %60

60:                                               ; preds = %51
  %61 = load %"class.WTF::StringImpl"*, %"class.WTF::StringImpl"** %18, align 8
  call void @llvm.lifetime.start.p0i8(i64 24, i8* nonnull %28) #9
  store %"class.WTF::StringImpl"* %52, %"class.WTF::StringImpl"** %29, align 8
  %62 = getelementptr inbounds %"class.WTF::StringImpl", %"class.WTF::StringImpl"* %52, i64 1
  store %"class.WTF::StringImpl"* %62, %"class.WTF::StringImpl"** %31, align 8
  %63 = getelementptr inbounds %"class.WTF::StringImpl", %"class.WTF::StringImpl"* %52, i64 0, i32 1
  %64 = load i32, i32* %63, align 4
  store i32 %64, i32* %32, align 8
  call void @llvm.lifetime.start.p0i8(i64 24, i8* nonnull %33) #9
  store %"class.WTF::StringImpl"* %61, %"class.WTF::StringImpl"** %34, align 8
  %65 = getelementptr inbounds %"class.WTF::StringImpl", %"class.WTF::StringImpl"* %61, i64 1
  store %"class.WTF::StringImpl"* %65, %"class.WTF::StringImpl"** %36, align 8
  %66 = getelementptr inbounds %"class.WTF::StringImpl", %"class.WTF::StringImpl"* %61, i64 0, i32 1
  %67 = load i32, i32* %66, align 4
  store i32 %67, i32* %37, align 8
  %68 = call zeroext i1 @_ZN3WTF37DeprecatedEqualIgnoringCaseAndNullityERKNS_10StringViewES2_(%"class.WTF::StringView"* nonnull dereferenceable(24) %4, %"class.WTF::StringView"* nonnull dereferenceable(24) %5) #9
  call void @llvm.lifetime.end.p0i8(i64 24, i8* nonnull %33) #9
  call void @llvm.lifetime.end.p0i8(i64 24, i8* nonnull %28) #9
  br i1 %68, label %126, label %69

69:                                               ; preds = %51, %60
  %70 = phi %"class.WTF::String"* [ %54, %60 ], [ %53, %51 ]
  %71 = icmp eq i64 %56, 0
  %72 = select i1 %71, i64 %50, i64 %56
  %73 = add i64 %72, %55
  %74 = and i64 %73, %17
  %75 = getelementptr inbounds %"class.WTF::String", %"class.WTF::String"* %13, i64 %74
  %76 = getelementptr inbounds %"class.WTF::String", %"class.WTF::String"* %75, i64 0, i32 0, i32 0
  %77 = load %"class.WTF::StringImpl"*, %"class.WTF::StringImpl"** %76, align 8
  %78 = icmp eq %"class.WTF::StringImpl"* %77, null
  br i1 %78, label %79, label %51

79:                                               ; preds = %69
  %80 = icmp eq %"class.WTF::String"* %70, null
  br i1 %80, label %81, label %84

81:                                               ; preds = %12, %79
  %82 = phi %"class.WTF::String"* [ %75, %79 ], [ %23, %12 ]
  %83 = bitcast %"class.WTF::String"* %82 to i64*
  br label %92

84:                                               ; preds = %79
  %85 = bitcast %"class.WTF::String"* %70 to i64*
  store i64 0, i64* %85, align 8
  %86 = getelementptr inbounds %"class.WTF::HashTable.570", %"class.WTF::HashTable.570"* %0, i64 0, i32 3
  %87 = load i32, i32* %86, align 8
  %88 = add i32 %87, 2147483647
  %89 = and i32 %88, 2147483647
  %90 = and i32 %87, -2147483648
  %91 = or i32 %89, %90
  store i32 %91, i32* %86, align 8
  br label %92

92:                                               ; preds = %81, %84
  %93 = phi i64* [ %83, %81 ], [ %85, %84 ]
  %94 = phi %"class.WTF::String"* [ %82, %81 ], [ %70, %84 ]
  %95 = getelementptr inbounds %"class.WTF::String", %"class.WTF::String"* %2, i64 0, i32 0, i32 0
  %96 = bitcast %"class.WTF::String"* %2 to i64*
  %97 = load i64, i64* %96, align 8
  store %"class.WTF::StringImpl"* null, %"class.WTF::StringImpl"** %95, align 8
  %98 = getelementptr inbounds %"class.WTF::String", %"class.WTF::String"* %94, i64 0, i32 0, i32 0
  %99 = load %"class.WTF::StringImpl"*, %"class.WTF::StringImpl"** %98, align 8
  store i64 %97, i64* %93, align 8
  %100 = icmp eq %"class.WTF::StringImpl"* %99, null
  br i1 %100, label %114, label %101

101:                                              ; preds = %92
  %102 = getelementptr inbounds %"class.WTF::StringImpl", %"class.WTF::StringImpl"* %99, i64 0, i32 2, i32 0, i32 0, i32 0, i32 0, i32 0
  %103 = load atomic i32, i32* %102 monotonic, align 4
  %104 = and i32 %103, 2
  %105 = icmp eq i32 %104, 0
  %106 = getelementptr inbounds %"class.WTF::StringImpl", %"class.WTF::StringImpl"* %99, i64 0, i32 0
  %107 = load i32, i32* %106, align 4
  br i1 %105, label %108, label %110

108:                                              ; preds = %101
  %109 = add i32 %107, -1
  store i32 %109, i32* %106, align 4
  br label %110

110:                                              ; preds = %108, %101
  %111 = phi i32 [ %109, %108 ], [ %107, %101 ]
  %112 = icmp eq i32 %111, 0
  br i1 %112, label %113, label %114

113:                                              ; preds = %110
  call void @_ZNK3WTF10StringImpl18DestroyIfNotStaticEv(%"class.WTF::StringImpl"* nonnull %99) #9
  br label %114

114:                                              ; preds = %92, %110, %113
  %115 = getelementptr inbounds %"class.WTF::HashTable.570", %"class.WTF::HashTable.570"* %0, i64 0, i32 2
  %116 = load i32, i32* %115, align 4
  %117 = add i32 %116, 1
  store i32 %117, i32* %115, align 4
  %118 = getelementptr inbounds %"class.WTF::HashTable.570", %"class.WTF::HashTable.570"* %0, i64 0, i32 3
  %119 = load i32, i32* %118, align 8
  %120 = add i32 %119, %117
  %121 = shl i32 %120, 1
  %122 = load i32, i32* %14, align 8
  %123 = icmp ult i32 %121, %122
  br i1 %123, label %126, label %124

124:                                              ; preds = %114
  %125 = call %"class.WTF::String"* @_ZN3WTF9HashTableINS_6StringES1_NS_17IdentityExtractorENS_15CaseFoldingHashENS_10HashTraitsIS1_EES5_NS_18PartitionAllocatorEE6ExpandEPS1_(%"class.WTF::HashTable.570"* %0, %"class.WTF::String"* %94)
  br label %126

126:                                              ; preds = %60, %114, %124
  %127 = phi i8 [ 1, %114 ], [ 1, %124 ], [ 0, %60 ]
  %128 = phi %"class.WTF::String"* [ %94, %114 ], [ %125, %124 ], [ %53, %60 ]
  %129 = insertvalue { %"class.WTF::String"*, i8 } undef, %"class.WTF::String"* %128, 0
  %130 = insertvalue { %"class.WTF::String"*, i8 } %129, i8 %127, 1
  ret { %"class.WTF::String"*, i8 } %130
}

; Function Attrs: nounwind ssp uwtable
define linkonce_odr hidden %"class.WTF::String"* @_ZN3WTF9HashTableINS_6StringES1_NS_17IdentityExtractorENS_15CaseFoldingHashENS_10HashTraitsIS1_EES5_NS_18PartitionAllocatorEE6ExpandEPS1_(%"class.WTF::HashTable.570"*, %"class.WTF::String"*) local_unnamed_addr #1 comdat align 2 {
  %3 = alloca %"class.logging::CheckOpResult", align 8
  %4 = alloca %"class.logging::CheckOpResult", align 8
  %5 = alloca %"class.logging::CheckError", align 8
  %6 = getelementptr inbounds %"class.WTF::HashTable.570", %"class.WTF::HashTable.570"* %0, i64 0, i32 1
  %7 = load i32, i32* %6, align 8
  %8 = icmp eq i32 %7, 0
  br i1 %8, label %31, label %9

9:                                                ; preds = %2
  %10 = getelementptr inbounds %"class.WTF::HashTable.570", %"class.WTF::HashTable.570"* %0, i64 0, i32 2
  %11 = load i32, i32* %10, align 4
  %12 = mul i32 %11, 6
  %13 = shl i32 %7, 1
  %14 = icmp ult i32 %12, %13
  br i1 %14, label %31, label %15

15:                                               ; preds = %9
  %16 = bitcast %"class.logging::CheckOpResult"* %4 to i8*
  call void @llvm.lifetime.start.p0i8(i64 8, i8* nonnull %16) #9
  %17 = getelementptr inbounds %"class.logging::CheckOpResult", %"class.logging::CheckOpResult"* %4, i64 0, i32 0
  store i8* inttoptr (i64 -6148914691236517206 to i8*), i8** %17, align 8
  %18 = bitcast %"class.logging::CheckOpResult"* %3 to i8*
  call void @llvm.lifetime.start.p0i8(i64 8, i8* nonnull %18)
  %19 = icmp ugt i32 %13, %7
  br i1 %19, label %20, label %21

20:                                               ; preds = %15
  call void @llvm.lifetime.end.p0i8(i64 8, i8* nonnull %18)
  store i8* null, i8** %17, align 8
  br label %30

21:                                               ; preds = %15
  %22 = tail call i8* @_ZN7logging15CheckOpValueStrEj(i32 %13) #9
  %23 = tail call i8* @_ZN7logging15CheckOpValueStrEj(i32 %7) #9
  call void @_ZN7logging13CheckOpResultC1EPKcPcS3_(%"class.logging::CheckOpResult"* nonnull %3, i8* getelementptr inbounds ([23 x i8], [23 x i8]* @.str.35, i64 0, i64 0), i8* %22, i8* %23) #9
  %24 = getelementptr inbounds %"class.logging::CheckOpResult", %"class.logging::CheckOpResult"* %3, i64 0, i32 0
  %25 = load i8*, i8** %24, align 8
  call void @llvm.lifetime.end.p0i8(i64 8, i8* nonnull %18)
  store i8* %25, i8** %17, align 8
  %26 = icmp eq i8* %25, null
  br i1 %26, label %30, label %27

27:                                               ; preds = %21
  %28 = bitcast %"class.logging::CheckError"* %5 to i8*
  call void @llvm.lifetime.start.p0i8(i64 8, i8* nonnull %28) #9
  call void @_ZN7logging10CheckError7CheckOpEPKciPNS_13CheckOpResultE(%"class.logging::CheckError"* nonnull sret %5, i8* getelementptr inbounds ([59 x i8], [59 x i8]* @.str.36, i64 0, i64 0), i32 1783, %"class.logging::CheckOpResult"* nonnull %4) #9
  %29 = call dereferenceable(160) %"class.std::__1::basic_ostream"* @_ZN7logging10CheckError6streamEv(%"class.logging::CheckError"* nonnull %5) #9
  call void @_ZN7logging10CheckErrorD1Ev(%"class.logging::CheckError"* nonnull %5) #9
  call void @llvm.lifetime.end.p0i8(i64 8, i8* nonnull %28) #9
  br label %30

30:                                               ; preds = %20, %21, %27
  call void @llvm.lifetime.end.p0i8(i64 8, i8* nonnull %16) #9
  br label %31

31:                                               ; preds = %9, %2, %30
  %32 = phi i32 [ %13, %30 ], [ 8, %2 ], [ %7, %9 ]
  %33 = zext i32 %32 to i64
  %34 = shl nuw nsw i64 %33, 3
  %35 = call i8* @_ZN3WTF18PartitionAllocator15AllocateBackingEmPKc(i64 %34, i8* getelementptr inbounds ([59 x i8], [59 x i8]* @__PRETTY_FUNCTION__._ZN3WTF21GetStringWithTypeNameINS_6StringEEEPKcv, i64 0, i64 0)) #9
  call void @llvm.memset.p0i8.i64(i8* align 1 %35, i8 0, i64 %34, i1 false) #9
  %36 = bitcast i8* %35 to %"class.WTF::String"*
  %37 = call %"class.WTF::String"* @_ZN3WTF9HashTableINS_6StringES1_NS_17IdentityExtractorENS_15CaseFoldingHashENS_10HashTraitsIS1_EES5_NS_18PartitionAllocatorEE8RehashToEPS1_jS8_(%"class.WTF::HashTable.570"* %0, %"class.WTF::String"* %36, i32 %32, %"class.WTF::String"* %1) #9
  ret %"class.WTF::String"* %37
}

declare void @_ZN7logging10CheckError7CheckOpEPKciPNS_13CheckOpResultE(%"class.logging::CheckError"* sret, i8*, i32, %"class.logging::CheckOpResult"*) local_unnamed_addr #3

declare dereferenceable(160) %"class.std::__1::basic_ostream"* @_ZN7logging10CheckError6streamEv(%"class.logging::CheckError"*) local_unnamed_addr #3

; Function Attrs: nounwind
declare void @_ZN7logging10CheckErrorD1Ev(%"class.logging::CheckError"*) unnamed_addr #8

declare i8* @_ZN7logging15CheckOpValueStrEj(i32) local_unnamed_addr #3

declare void @_ZN7logging13CheckOpResultC1EPKcPcS3_(%"class.logging::CheckOpResult"*, i8*, i8*, i8*) unnamed_addr #3

; Function Attrs: nounwind ssp uwtable
define linkonce_odr hidden %"class.WTF::String"* @_ZN3WTF9HashTableINS_6StringES1_NS_17IdentityExtractorENS_15CaseFoldingHashENS_10HashTraitsIS1_EES5_NS_18PartitionAllocatorEE8RehashToEPS1_jS8_(%"class.WTF::HashTable.570"*, %"class.WTF::String"*, i32, %"class.WTF::String"*) local_unnamed_addr #1 comdat align 2 {
  %5 = alloca %"class.WTF::HashTable.570", align 8
  %6 = bitcast %"class.WTF::HashTable.570"* %5 to i8*
  call void @llvm.lifetime.start.p0i8(i64 24, i8* nonnull %6) #9
  %7 = getelementptr inbounds %"class.WTF::HashTable.570", %"class.WTF::HashTable.570"* %5, i64 0, i32 0
  %8 = getelementptr inbounds %"class.WTF::HashTable.570", %"class.WTF::HashTable.570"* %5, i64 0, i32 1
  %9 = getelementptr inbounds %"class.WTF::HashTable.570", %"class.WTF::HashTable.570"* %5, i64 0, i32 2
  %10 = getelementptr inbounds %"class.WTF::HashTable.570", %"class.WTF::HashTable.570"* %5, i64 0, i32 3
  %11 = bitcast %"class.WTF::HashTable.570"* %5 to i8*
  call void @llvm.memset.p0i8.i64(i8* nonnull align 8 %11, i8 -86, i64 24, i1 false)
  store %"class.WTF::String"* %1, %"class.WTF::String"** %7, align 8
  store i32 %2, i32* %8, align 8
  store i32 0, i32* %9, align 4
  store i32 0, i32* %10, align 8
  %12 = getelementptr inbounds %"class.WTF::HashTable.570", %"class.WTF::HashTable.570"* %0, i64 0, i32 1
  %13 = load i32, i32* %12, align 8
  %14 = icmp eq i32 %13, 0
  %15 = getelementptr inbounds %"class.WTF::HashTable.570", %"class.WTF::HashTable.570"* %0, i64 0, i32 0
  br i1 %14, label %16, label %21

16:                                               ; preds = %4
  %17 = ptrtoint %"class.WTF::String"* %1 to i64
  %18 = bitcast %"class.WTF::HashTable.570"* %0 to i64*
  %19 = load i64, i64* %18, align 8
  %20 = bitcast %"class.WTF::HashTable.570"* %5 to i64*
  br label %28

21:                                               ; preds = %4
  %22 = load %"class.WTF::String"*, %"class.WTF::String"** %15, align 8
  %23 = ptrtoint %"class.WTF::String"* %22 to i64
  br label %71

24:                                               ; preds = %110
  %25 = bitcast %"class.WTF::HashTable.570"* %5 to i64*
  %26 = load i64, i64* %25, align 8
  %27 = bitcast %"class.WTF::HashTable.570"* %0 to i64*
  br label %28

28:                                               ; preds = %16, %24
  %29 = phi i64* [ %20, %16 ], [ %25, %24 ]
  %30 = phi i64* [ %18, %16 ], [ %27, %24 ]
  %31 = phi i64 [ %17, %16 ], [ %26, %24 ]
  %32 = phi i64 [ %19, %16 ], [ %111, %24 ]
  %33 = phi %"class.WTF::String"* [ null, %16 ], [ %114, %24 ]
  %34 = phi i32 [ 0, %16 ], [ %112, %24 ]
  store atomic i64 %31, i64* %30 monotonic, align 8
  store i32 %2, i32* %12, align 8
  store i64 %32, i64* %29, align 8
  store i32 %34, i32* %8, align 8
  %35 = inttoptr i64 %32 to %"class.WTF::String"*
  %36 = icmp eq i64 %32, 0
  br i1 %36, label %67, label %37

37:                                               ; preds = %28
  %38 = icmp eq i32 %34, 0
  br i1 %38, label %65, label %39

39:                                               ; preds = %37
  %40 = zext i32 %34 to i64
  br label %41

41:                                               ; preds = %62, %39
  %42 = phi i64 [ 0, %39 ], [ %63, %62 ]
  %43 = getelementptr inbounds %"class.WTF::String", %"class.WTF::String"* %35, i64 %42
  %44 = bitcast %"class.WTF::String"* %43 to i8**
  %45 = load i8*, i8** %44, align 8
  %46 = bitcast i8* %45 to %"class.WTF::StringImpl"*
  %47 = ptrtoint i8* %45 to i64
  switch i64 %47, label %48 [
    i64 -1, label %62
    i64 0, label %62
  ]

48:                                               ; preds = %41
  %49 = getelementptr inbounds i8, i8* %45, i64 8
  %50 = bitcast i8* %49 to i32*
  %51 = load atomic i32, i32* %50 monotonic, align 4
  %52 = and i32 %51, 2
  %53 = icmp eq i32 %52, 0
  %54 = bitcast i8* %45 to i32*
  %55 = load i32, i32* %54, align 4
  br i1 %53, label %56, label %58

56:                                               ; preds = %48
  %57 = add i32 %55, -1
  store i32 %57, i32* %54, align 4
  br label %58

58:                                               ; preds = %56, %48
  %59 = phi i32 [ %57, %56 ], [ %55, %48 ]
  %60 = icmp eq i32 %59, 0
  br i1 %60, label %61, label %62

61:                                               ; preds = %58
  call void @_ZNK3WTF10StringImpl18DestroyIfNotStaticEv(%"class.WTF::StringImpl"* nonnull %46) #9
  br label %62

62:                                               ; preds = %61, %58, %41, %41
  %63 = add nuw nsw i64 %42, 1
  %64 = icmp eq i64 %63, %40
  br i1 %64, label %65, label %41

65:                                               ; preds = %62, %37
  %66 = inttoptr i64 %32 to i8*
  call void @_ZN3WTF18PartitionAllocator11FreeBackingEPv(i8* nonnull %66) #9
  store atomic i64 0, i64* %29 monotonic, align 8
  store i32 0, i32* %8, align 8
  store i32 0, i32* %9, align 4
  br label %67

67:                                               ; preds = %28, %65
  %68 = getelementptr inbounds %"class.WTF::HashTable.570", %"class.WTF::HashTable.570"* %0, i64 0, i32 3
  %69 = load i32, i32* %68, align 8
  %70 = and i32 %69, -2147483648
  store i32 %70, i32* %68, align 8
  call void @llvm.lifetime.end.p0i8(i64 24, i8* nonnull %6) #9
  ret %"class.WTF::String"* %33

71:                                               ; preds = %21, %110
  %72 = phi i64 [ %111, %110 ], [ %23, %21 ]
  %73 = phi i32 [ %112, %110 ], [ %13, %21 ]
  %74 = phi %"class.WTF::String"* [ %113, %110 ], [ %22, %21 ]
  %75 = phi %"class.WTF::String"* [ %114, %110 ], [ null, %21 ]
  %76 = phi i32 [ %115, %110 ], [ 0, %21 ]
  %77 = zext i32 %76 to i64
  %78 = getelementptr inbounds %"class.WTF::String", %"class.WTF::String"* %74, i64 %77
  %79 = getelementptr inbounds %"class.WTF::String", %"class.WTF::String"* %78, i64 0, i32 0, i32 0
  %80 = bitcast %"class.WTF::String"* %78 to i64*
  %81 = load i64, i64* %80, align 8
  switch i64 %81, label %82 [
    i64 -1, label %110
    i64 0, label %110
  ]

82:                                               ; preds = %71
  %83 = call { %"class.WTF::String"*, i8 } @_ZN3WTF9HashTableINS_6StringES1_NS_17IdentityExtractorENS_15CaseFoldingHashENS_10HashTraitsIS1_EES5_NS_18PartitionAllocatorEE16LookupForWritingERKS1_(%"class.WTF::HashTable.570"* nonnull %5, %"class.WTF::String"* dereferenceable(8) %78) #9
  %84 = extractvalue { %"class.WTF::String"*, i8 } %83, 0
  %85 = getelementptr inbounds %"class.WTF::String", %"class.WTF::String"* %84, i64 0, i32 0, i32 0
  %86 = load %"class.WTF::StringImpl"*, %"class.WTF::StringImpl"** %85, align 8
  %87 = icmp eq %"class.WTF::StringImpl"* %86, null
  br i1 %87, label %101, label %88

88:                                               ; preds = %82
  %89 = getelementptr inbounds %"class.WTF::StringImpl", %"class.WTF::StringImpl"* %86, i64 0, i32 2, i32 0, i32 0, i32 0, i32 0, i32 0
  %90 = load atomic i32, i32* %89 monotonic, align 4
  %91 = and i32 %90, 2
  %92 = icmp eq i32 %91, 0
  %93 = getelementptr inbounds %"class.WTF::StringImpl", %"class.WTF::StringImpl"* %86, i64 0, i32 0
  %94 = load i32, i32* %93, align 4
  br i1 %92, label %95, label %97

95:                                               ; preds = %88
  %96 = add i32 %94, -1
  store i32 %96, i32* %93, align 4
  br label %97

97:                                               ; preds = %95, %88
  %98 = phi i32 [ %96, %95 ], [ %94, %88 ]
  %99 = icmp eq i32 %98, 0
  br i1 %99, label %100, label %101

100:                                              ; preds = %97
  call void @_ZNK3WTF10StringImpl18DestroyIfNotStaticEv(%"class.WTF::StringImpl"* nonnull %86) #9
  br label %101

101:                                              ; preds = %82, %97, %100
  %102 = load i64, i64* %80, align 8
  %103 = bitcast %"class.WTF::String"* %84 to i64*
  store i64 %102, i64* %103, align 8
  store %"class.WTF::StringImpl"* null, %"class.WTF::StringImpl"** %79, align 8
  %104 = load %"class.WTF::String"*, %"class.WTF::String"** %15, align 8
  %105 = getelementptr inbounds %"class.WTF::String", %"class.WTF::String"* %104, i64 %77
  %106 = icmp eq %"class.WTF::String"* %105, %3
  %107 = select i1 %106, %"class.WTF::String"* %84, %"class.WTF::String"* %75
  %108 = load i32, i32* %12, align 8
  %109 = ptrtoint %"class.WTF::String"* %104 to i64
  br label %110

110:                                              ; preds = %71, %71, %101
  %111 = phi i64 [ %72, %71 ], [ %109, %101 ], [ %72, %71 ]
  %112 = phi i32 [ %73, %71 ], [ %108, %101 ], [ %73, %71 ]
  %113 = phi %"class.WTF::String"* [ %74, %71 ], [ %104, %101 ], [ %74, %71 ]
  %114 = phi %"class.WTF::String"* [ %75, %71 ], [ %107, %101 ], [ %75, %71 ]
  %115 = add i32 %76, 1
  %116 = icmp eq i32 %115, %112
  br i1 %116, label %24, label %71
}

declare i8* @_ZN3WTF18PartitionAllocator15AllocateBackingEmPKc(i64, i8*) local_unnamed_addr #3

; Function Attrs: argmemonly nounwind
declare void @llvm.memset.p0i8.i64(i8* nocapture writeonly, i8, i64, i1 immarg) #2

; Function Attrs: nounwind ssp uwtable
define linkonce_odr hidden { %"class.WTF::String"*, i8 } @_ZN3WTF9HashTableINS_6StringES1_NS_17IdentityExtractorENS_15CaseFoldingHashENS_10HashTraitsIS1_EES5_NS_18PartitionAllocatorEE16LookupForWritingERKS1_(%"class.WTF::HashTable.570"*, %"class.WTF::String"* dereferenceable(8)) local_unnamed_addr #1 comdat align 2 {
  %3 = alloca %"class.WTF::StringView", align 8
  %4 = alloca %"class.WTF::StringView", align 8
  %5 = getelementptr inbounds %"class.WTF::HashTable.570", %"class.WTF::HashTable.570"* %0, i64 0, i32 0
  %6 = load %"class.WTF::String"*, %"class.WTF::String"** %5, align 8
  %7 = getelementptr inbounds %"class.WTF::HashTable.570", %"class.WTF::HashTable.570"* %0, i64 0, i32 1
  %8 = load i32, i32* %7, align 8
  %9 = add i32 %8, -1
  %10 = zext i32 %9 to i64
  %11 = getelementptr inbounds %"class.WTF::String", %"class.WTF::String"* %1, i64 0, i32 0, i32 0
  %12 = load %"class.WTF::StringImpl"*, %"class.WTF::StringImpl"** %11, align 8
  %13 = tail call i32 @_ZN3WTF15CaseFoldingHash7GetHashEPNS_10StringImplE(%"class.WTF::StringImpl"* %12) #9
  %14 = and i32 %13, %9
  %15 = zext i32 %14 to i64
  %16 = getelementptr inbounds %"class.WTF::String", %"class.WTF::String"* %6, i64 %15
  %17 = ptrtoint %"class.WTF::String"* %16 to i64
  %18 = getelementptr inbounds %"class.WTF::String", %"class.WTF::String"* %16, i64 0, i32 0, i32 0
  %19 = load %"class.WTF::StringImpl"*, %"class.WTF::StringImpl"** %18, align 8
  %20 = icmp eq %"class.WTF::StringImpl"* %19, null
  br i1 %20, label %47, label %21

21:                                               ; preds = %2
  %22 = bitcast %"class.WTF::StringView"* %3 to i8*
  %23 = getelementptr inbounds %"class.WTF::StringView", %"class.WTF::StringView"* %3, i64 0, i32 0
  %24 = getelementptr inbounds %"class.WTF::StringView", %"class.WTF::StringView"* %3, i64 0, i32 1
  %25 = bitcast i8** %24 to %"class.WTF::StringImpl"**
  %26 = getelementptr inbounds %"class.WTF::StringView", %"class.WTF::StringView"* %3, i64 0, i32 2
  %27 = bitcast %"class.WTF::StringView"* %4 to i8*
  %28 = getelementptr inbounds %"class.WTF::StringView", %"class.WTF::StringView"* %4, i64 0, i32 0
  %29 = getelementptr inbounds %"class.WTF::StringView", %"class.WTF::StringView"* %4, i64 0, i32 1
  %30 = bitcast i8** %29 to %"class.WTF::StringImpl"**
  %31 = getelementptr inbounds %"class.WTF::StringView", %"class.WTF::StringView"* %4, i64 0, i32 2
  %32 = xor i32 %13, -1
  %33 = lshr i32 %13, 23
  %34 = add i32 %33, %32
  %35 = shl i32 %34, 12
  %36 = xor i32 %35, %34
  %37 = lshr i32 %36, 7
  %38 = xor i32 %37, %36
  %39 = shl i32 %38, 2
  %40 = xor i32 %39, %38
  %41 = lshr i32 %40, 20
  %42 = xor i32 %41, %40
  %43 = or i32 %42, 1
  %44 = zext i32 %43 to i64
  br label %53

45:                                               ; preds = %72
  %46 = ptrtoint %"class.WTF::String"* %78 to i64
  br label %47

47:                                               ; preds = %45, %2
  %48 = phi i64 [ %17, %2 ], [ %46, %45 ]
  %49 = phi %"class.WTF::String"* [ null, %2 ], [ %73, %45 ]
  %50 = icmp eq %"class.WTF::String"* %49, null
  %51 = ptrtoint %"class.WTF::String"* %49 to i64
  %52 = select i1 %50, i64 %48, i64 %51
  br label %83

53:                                               ; preds = %72, %21
  %54 = phi %"class.WTF::String"* [ null, %21 ], [ %73, %72 ]
  %55 = phi %"class.WTF::StringImpl"* [ %19, %21 ], [ %81, %72 ]
  %56 = phi i64 [ %17, %21 ], [ %79, %72 ]
  %57 = phi %"class.WTF::String"* [ %16, %21 ], [ %78, %72 ]
  %58 = phi i64 [ %15, %21 ], [ %77, %72 ]
  %59 = phi i64 [ 0, %21 ], [ %75, %72 ]
  %60 = bitcast %"class.WTF::String"* %57 to i8**
  %61 = load i8*, i8** %60, align 8
  %62 = icmp eq i8* %61, inttoptr (i64 -1 to i8*)
  br i1 %62, label %72, label %63

63:                                               ; preds = %53
  %64 = load %"class.WTF::StringImpl"*, %"class.WTF::StringImpl"** %11, align 8
  call void @llvm.lifetime.start.p0i8(i64 24, i8* nonnull %22) #9
  store %"class.WTF::StringImpl"* %55, %"class.WTF::StringImpl"** %23, align 8
  %65 = getelementptr inbounds %"class.WTF::StringImpl", %"class.WTF::StringImpl"* %55, i64 1
  store %"class.WTF::StringImpl"* %65, %"class.WTF::StringImpl"** %25, align 8
  %66 = getelementptr inbounds %"class.WTF::StringImpl", %"class.WTF::StringImpl"* %55, i64 0, i32 1
  %67 = load i32, i32* %66, align 4
  store i32 %67, i32* %26, align 8
  call void @llvm.lifetime.start.p0i8(i64 24, i8* nonnull %27) #9
  store %"class.WTF::StringImpl"* %64, %"class.WTF::StringImpl"** %28, align 8
  %68 = getelementptr inbounds %"class.WTF::StringImpl", %"class.WTF::StringImpl"* %64, i64 1
  store %"class.WTF::StringImpl"* %68, %"class.WTF::StringImpl"** %30, align 8
  %69 = getelementptr inbounds %"class.WTF::StringImpl", %"class.WTF::StringImpl"* %64, i64 0, i32 1
  %70 = load i32, i32* %69, align 4
  store i32 %70, i32* %31, align 8
  %71 = call zeroext i1 @_ZN3WTF37DeprecatedEqualIgnoringCaseAndNullityERKNS_10StringViewES2_(%"class.WTF::StringView"* nonnull dereferenceable(24) %3, %"class.WTF::StringView"* nonnull dereferenceable(24) %4) #9
  call void @llvm.lifetime.end.p0i8(i64 24, i8* nonnull %27) #9
  call void @llvm.lifetime.end.p0i8(i64 24, i8* nonnull %22) #9
  br i1 %71, label %83, label %72

72:                                               ; preds = %63, %53
  %73 = phi %"class.WTF::String"* [ %54, %63 ], [ %57, %53 ]
  %74 = icmp eq i64 %59, 0
  %75 = select i1 %74, i64 %44, i64 %59
  %76 = add i64 %75, %58
  %77 = and i64 %76, %10
  %78 = getelementptr inbounds %"class.WTF::String", %"class.WTF::String"* %6, i64 %77
  %79 = ptrtoint %"class.WTF::String"* %78 to i64
  %80 = getelementptr inbounds %"class.WTF::String", %"class.WTF::String"* %78, i64 0, i32 0, i32 0
  %81 = load %"class.WTF::StringImpl"*, %"class.WTF::StringImpl"** %80, align 8
  %82 = icmp eq %"class.WTF::StringImpl"* %81, null
  br i1 %82, label %45, label %53

83:                                               ; preds = %63, %47
  %84 = phi i64 [ %52, %47 ], [ %56, %63 ]
  %85 = phi i8 [ 0, %47 ], [ 1, %63 ]
  %86 = inttoptr i64 %84 to %"class.WTF::String"*
  %87 = insertvalue { %"class.WTF::String"*, i8 } undef, %"class.WTF::String"* %86, 0
  %88 = insertvalue { %"class.WTF::String"*, i8 } %87, i8 %85, 1
  ret { %"class.WTF::String"*, i8 } %88
}

declare void @_ZN3WTF18PartitionAllocator11FreeBackingEPv(i8*) local_unnamed_addr #3

; Function Attrs: nounwind ssp uwtable
define linkonce_odr hidden i32 @_ZN3WTF15CaseFoldingHash7GetHashEPNS_10StringImplE(%"class.WTF::StringImpl"*) local_unnamed_addr #1 comdat align 2 {
  %2 = alloca i64, align 8
  %3 = getelementptr inbounds %"class.WTF::StringImpl", %"class.WTF::StringImpl"* %0, i64 0, i32 2, i32 0, i32 0, i32 0, i32 0, i32 0
  %4 = load atomic i32, i32* %3 monotonic, align 4
  %5 = and i32 %4, 1
  %6 = icmp eq i32 %5, 0
  %7 = getelementptr inbounds %"class.WTF::StringImpl", %"class.WTF::StringImpl"* %0, i64 1
  br i1 %6, label %77, label %8

8:                                                ; preds = %1
  %9 = bitcast %"class.WTF::StringImpl"* %7 to i8*
  %10 = getelementptr inbounds %"class.WTF::StringImpl", %"class.WTF::StringImpl"* %0, i64 0, i32 1
  %11 = load i32, i32* %10, align 4
  %12 = and i32 %11, 1
  %13 = icmp eq i32 %12, 0
  %14 = lshr i32 %11, 1
  %15 = icmp eq i32 %14, 0
  br i1 %15, label %48, label %16

16:                                               ; preds = %8
  %17 = add nsw i32 %14, -1
  %18 = zext i32 %17 to i64
  br label %19

19:                                               ; preds = %19, %16
  %20 = phi i32 [ %41, %19 ], [ -1640531527, %16 ]
  %21 = phi i32 [ %23, %19 ], [ %14, %16 ]
  %22 = phi i8* [ %42, %19 ], [ %9, %16 ]
  %23 = add nsw i32 %21, -1
  %24 = load i8, i8* %22, align 1
  %25 = zext i8 %24 to i64
  %26 = getelementptr inbounds [256 x i16], [256 x i16]* @_ZN3WTF10StringImpl20kLatin1CaseFoldTableE, i64 0, i64 %25
  %27 = load i16, i16* %26, align 2
  %28 = getelementptr inbounds i8, i8* %22, i64 1
  %29 = load i8, i8* %28, align 1
  %30 = zext i8 %29 to i64
  %31 = getelementptr inbounds [256 x i16], [256 x i16]* @_ZN3WTF10StringImpl20kLatin1CaseFoldTableE, i64 0, i64 %30
  %32 = load i16, i16* %31, align 2
  %33 = zext i16 %27 to i32
  %34 = add i32 %20, %33
  %35 = shl i32 %34, 16
  %36 = zext i16 %32 to i32
  %37 = shl nuw nsw i32 %36, 11
  %38 = xor i32 %35, %34
  %39 = xor i32 %38, %37
  %40 = lshr i32 %39, 11
  %41 = add i32 %40, %39
  %42 = getelementptr inbounds i8, i8* %22, i64 2
  %43 = icmp eq i32 %23, 0
  br i1 %43, label %44, label %19

44:                                               ; preds = %19
  %45 = shl nuw nsw i64 %18, 1
  %46 = add nuw nsw i64 %45, 2
  %47 = getelementptr i8, i8* %9, i64 %46
  br label %48

48:                                               ; preds = %44, %8
  %49 = phi i32 [ -1640531527, %8 ], [ %41, %44 ]
  %50 = phi i8* [ %9, %8 ], [ %47, %44 ]
  br i1 %13, label %62, label %51

51:                                               ; preds = %48
  %52 = load i8, i8* %50, align 1
  %53 = zext i8 %52 to i64
  %54 = getelementptr inbounds [256 x i16], [256 x i16]* @_ZN3WTF10StringImpl20kLatin1CaseFoldTableE, i64 0, i64 %53
  %55 = load i16, i16* %54, align 2
  %56 = zext i16 %55 to i32
  %57 = add i32 %49, %56
  %58 = shl i32 %57, 11
  %59 = xor i32 %58, %57
  %60 = lshr i32 %59, 17
  %61 = add i32 %60, %59
  br label %62

62:                                               ; preds = %48, %51
  %63 = phi i32 [ %61, %51 ], [ %49, %48 ]
  %64 = shl i32 %63, 3
  %65 = xor i32 %64, %63
  %66 = lshr i32 %65, 5
  %67 = add i32 %66, %65
  %68 = shl i32 %67, 2
  %69 = xor i32 %68, %67
  %70 = lshr i32 %69, 15
  %71 = add i32 %70, %69
  %72 = shl i32 %71, 10
  %73 = xor i32 %72, %71
  %74 = and i32 %73, 16777215
  %75 = icmp eq i32 %74, 0
  %76 = select i1 %75, i32 8388608, i32 %74
  br label %112

77:                                               ; preds = %1
  %78 = bitcast %"class.WTF::StringImpl"* %7 to i16*
  %79 = getelementptr inbounds %"class.WTF::StringImpl", %"class.WTF::StringImpl"* %0, i64 0, i32 1
  %80 = load i32, i32* %79, align 4
  %81 = bitcast i64* %2 to %"class.WTF::StringHasher"*
  %82 = bitcast i64* %2 to i8*
  call void @llvm.lifetime.start.p0i8(i64 8, i8* nonnull %82) #9
  store i64 186919631157689, i64* %2, align 8
  %83 = bitcast i64* %2 to i32*
  %84 = getelementptr inbounds %"class.WTF::StringHasher", %"class.WTF::StringHasher"* %81, i64 0, i32 1
  call void @_ZN3WTF12StringHasher28AddCharactersAssumingAlignedIDsXadL_ZNS_15CaseFoldingHash8FoldCaseIDsEEDsT_EEEEvPKS4_j(%"class.WTF::StringHasher"* nonnull %81, i16* %78, i32 %80) #9
  %85 = load i32, i32* %83, align 8
  %86 = load i8, i8* %84, align 4, !range !5
  %87 = icmp eq i8 %86, 0
  br i1 %87, label %97, label %88

88:                                               ; preds = %77
  %89 = getelementptr inbounds %"class.WTF::StringHasher", %"class.WTF::StringHasher"* %81, i64 0, i32 2
  %90 = load i16, i16* %89, align 2
  %91 = zext i16 %90 to i32
  %92 = add i32 %85, %91
  %93 = shl i32 %92, 11
  %94 = xor i32 %93, %92
  %95 = lshr i32 %94, 17
  %96 = add i32 %95, %94
  br label %97

97:                                               ; preds = %77, %88
  %98 = phi i32 [ %96, %88 ], [ %85, %77 ]
  %99 = shl i32 %98, 3
  %100 = xor i32 %99, %98
  %101 = lshr i32 %100, 5
  %102 = add i32 %101, %100
  %103 = shl i32 %102, 2
  %104 = xor i32 %103, %102
  %105 = lshr i32 %104, 15
  %106 = add i32 %105, %104
  %107 = shl i32 %106, 10
  %108 = xor i32 %107, %106
  %109 = and i32 %108, 16777215
  %110 = icmp eq i32 %109, 0
  %111 = select i1 %110, i32 8388608, i32 %109
  call void @llvm.lifetime.end.p0i8(i64 8, i8* nonnull %82) #9
  br label %112

112:                                              ; preds = %97, %62
  %113 = phi i32 [ %76, %62 ], [ %111, %97 ]
  ret i32 %113
}

; Function Attrs: nounwind ssp uwtable
define linkonce_odr hidden void @_ZN3WTF12StringHasher28AddCharactersAssumingAlignedIDsXadL_ZNS_15CaseFoldingHash8FoldCaseIDsEEDsT_EEEEvPKS4_j(%"class.WTF::StringHasher"*, i16*, i32) local_unnamed_addr #1 comdat align 2 {
  %4 = and i32 %2, 1
  %5 = icmp eq i32 %4, 0
  %6 = lshr i32 %2, 1
  %7 = icmp eq i32 %6, 0
  br i1 %7, label %33, label %8

8:                                                ; preds = %3
  %9 = getelementptr inbounds %"class.WTF::StringHasher", %"class.WTF::StringHasher"* %0, i64 0, i32 0
  br label %10

10:                                               ; preds = %8, %10
  %11 = phi i32 [ %6, %8 ], [ %13, %10 ]
  %12 = phi i16* [ %1, %8 ], [ %31, %10 ]
  %13 = add nsw i32 %11, -1
  %14 = load i16, i16* %12, align 2
  %15 = zext i16 %14 to i32
  %16 = tail call i32 @u_foldCase_69(i32 %15, i32 0) #9
  %17 = getelementptr inbounds i16, i16* %12, i64 1
  %18 = load i16, i16* %17, align 2
  %19 = zext i16 %18 to i32
  %20 = tail call i32 @u_foldCase_69(i32 %19, i32 0) #9
  %21 = and i32 %16, 65535
  %22 = load i32, i32* %9, align 4
  %23 = add i32 %22, %21
  %24 = shl i32 %23, 16
  %25 = shl i32 %20, 11
  %26 = and i32 %25, 134215680
  %27 = xor i32 %23, %26
  %28 = xor i32 %27, %24
  %29 = lshr i32 %28, 11
  %30 = add i32 %29, %28
  store i32 %30, i32* %9, align 4
  %31 = getelementptr inbounds i16, i16* %12, i64 2
  %32 = icmp eq i32 %13, 0
  br i1 %32, label %33, label %10

33:                                               ; preds = %10, %3
  %34 = phi i16* [ %1, %3 ], [ %31, %10 ]
  br i1 %5, label %59, label %35

35:                                               ; preds = %33
  %36 = load i16, i16* %34, align 2
  %37 = zext i16 %36 to i32
  %38 = tail call i32 @u_foldCase_69(i32 %37, i32 0) #9
  %39 = getelementptr inbounds %"class.WTF::StringHasher", %"class.WTF::StringHasher"* %0, i64 0, i32 1
  %40 = load i8, i8* %39, align 4, !range !5
  %41 = icmp eq i8 %40, 0
  br i1 %41, label %56, label %42

42:                                               ; preds = %35
  store i8 0, i8* %39, align 4
  %43 = getelementptr inbounds %"class.WTF::StringHasher", %"class.WTF::StringHasher"* %0, i64 0, i32 2
  %44 = load i16, i16* %43, align 2
  %45 = zext i16 %44 to i32
  %46 = getelementptr inbounds %"class.WTF::StringHasher", %"class.WTF::StringHasher"* %0, i64 0, i32 0
  %47 = load i32, i32* %46, align 4
  %48 = add i32 %47, %45
  %49 = shl i32 %48, 16
  %50 = shl i32 %38, 11
  %51 = and i32 %50, 134215680
  %52 = xor i32 %48, %51
  %53 = xor i32 %52, %49
  %54 = lshr i32 %53, 11
  %55 = add i32 %54, %53
  store i32 %55, i32* %46, align 4
  br label %59

56:                                               ; preds = %35
  %57 = trunc i32 %38 to i16
  %58 = getelementptr inbounds %"class.WTF::StringHasher", %"class.WTF::StringHasher"* %0, i64 0, i32 2
  store i16 %57, i16* %58, align 2
  store i8 1, i8* %39, align 4
  br label %59

59:                                               ; preds = %56, %42, %33
  ret void
}

declare i32 @u_foldCase_69(i32, i32) local_unnamed_addr #3

declare zeroext i1 @_ZN3WTF37DeprecatedEqualIgnoringCaseAndNullityERKNS_10StringViewES2_(%"class.WTF::StringView"* dereferenceable(24), %"class.WTF::StringView"* dereferenceable(24)) local_unnamed_addr #3

declare void @_ZNK3WTF10StringImpl18DestroyIfNotStaticEv(%"class.WTF::StringImpl"*) local_unnamed_addr #3

declare void @_ZN3WTF6StringC2EPKcm(%"class.WTF::String"*, i8*, i64) unnamed_addr #3

declare void @_ZNK3WTF6String5SplitEDsbRNS_6VectorIS0_Lj0ENS_18PartitionAllocatorEEE(%"class.WTF::String"*, i16 zeroext, i1 zeroext, %"class.WTF::Vector.573"* dereferenceable(16)) local_unnamed_addr #3

; Function Attrs: nounwind ssp uwtable
define linkonce_odr hidden zeroext i1 @_ZNK3WTF9HashTableINS_6StringES1_NS_17IdentityExtractorENS_15CaseFoldingHashENS_10HashTraitsIS1_EES5_NS_18PartitionAllocatorEE8ContainsINS_22IdentityHashTranslatorIS3_S5_S6_EES1_EEbRKT0_(%"class.WTF::HashTable.570"*, %"class.WTF::String"* dereferenceable(8)) local_unnamed_addr #1 comdat align 2 {
  %3 = alloca %"class.WTF::StringView", align 8
  %4 = alloca %"class.WTF::StringView", align 8
  %5 = getelementptr inbounds %"class.WTF::HashTable.570", %"class.WTF::HashTable.570"* %0, i64 0, i32 0
  %6 = load %"class.WTF::String"*, %"class.WTF::String"** %5, align 8
  %7 = icmp eq %"class.WTF::String"* %6, null
  br i1 %7, label %72, label %8

8:                                                ; preds = %2
  %9 = getelementptr inbounds %"class.WTF::HashTable.570", %"class.WTF::HashTable.570"* %0, i64 0, i32 1
  %10 = load i32, i32* %9, align 8
  %11 = add i32 %10, -1
  %12 = zext i32 %11 to i64
  %13 = getelementptr inbounds %"class.WTF::String", %"class.WTF::String"* %1, i64 0, i32 0, i32 0
  %14 = load %"class.WTF::StringImpl"*, %"class.WTF::StringImpl"** %13, align 8
  %15 = tail call i32 @_ZN3WTF15CaseFoldingHash7GetHashEPNS_10StringImplE(%"class.WTF::StringImpl"* %14) #9
  %16 = and i32 %15, %11
  %17 = zext i32 %16 to i64
  %18 = getelementptr inbounds %"class.WTF::String", %"class.WTF::String"* %6, i64 %17
  %19 = getelementptr inbounds %"class.WTF::String", %"class.WTF::String"* %18, i64 0, i32 0, i32 0
  %20 = load %"class.WTF::StringImpl"*, %"class.WTF::StringImpl"** %19, align 8
  %21 = icmp eq %"class.WTF::StringImpl"* %20, null
  br i1 %21, label %72, label %22

22:                                               ; preds = %8
  %23 = bitcast %"class.WTF::StringView"* %3 to i8*
  %24 = getelementptr inbounds %"class.WTF::StringView", %"class.WTF::StringView"* %3, i64 0, i32 0
  %25 = getelementptr inbounds %"class.WTF::StringView", %"class.WTF::StringView"* %3, i64 0, i32 1
  %26 = bitcast i8** %25 to %"class.WTF::StringImpl"**
  %27 = getelementptr inbounds %"class.WTF::StringView", %"class.WTF::StringView"* %3, i64 0, i32 2
  %28 = bitcast %"class.WTF::StringView"* %4 to i8*
  %29 = getelementptr inbounds %"class.WTF::StringView", %"class.WTF::StringView"* %4, i64 0, i32 0
  %30 = getelementptr inbounds %"class.WTF::StringView", %"class.WTF::StringView"* %4, i64 0, i32 1
  %31 = bitcast i8** %30 to %"class.WTF::StringImpl"**
  %32 = getelementptr inbounds %"class.WTF::StringView", %"class.WTF::StringView"* %4, i64 0, i32 2
  %33 = xor i32 %15, -1
  %34 = lshr i32 %15, 23
  %35 = add i32 %34, %33
  %36 = shl i32 %35, 12
  %37 = xor i32 %36, %35
  %38 = lshr i32 %37, 7
  %39 = xor i32 %38, %37
  %40 = shl i32 %39, 2
  %41 = xor i32 %40, %39
  %42 = lshr i32 %41, 20
  %43 = xor i32 %42, %41
  %44 = or i32 %43, 1
  %45 = zext i32 %44 to i64
  br label %46

46:                                               ; preds = %63, %22
  %47 = phi %"class.WTF::StringImpl"* [ %20, %22 ], [ %70, %63 ]
  %48 = phi %"class.WTF::String"* [ %18, %22 ], [ %68, %63 ]
  %49 = phi i64 [ %17, %22 ], [ %67, %63 ]
  %50 = phi i64 [ 0, %22 ], [ %65, %63 ]
  %51 = bitcast %"class.WTF::String"* %48 to i8**
  %52 = load i8*, i8** %51, align 8
  %53 = icmp eq i8* %52, inttoptr (i64 -1 to i8*)
  br i1 %53, label %63, label %54

54:                                               ; preds = %46
  %55 = load %"class.WTF::StringImpl"*, %"class.WTF::StringImpl"** %13, align 8
  call void @llvm.lifetime.start.p0i8(i64 24, i8* nonnull %23) #9
  store %"class.WTF::StringImpl"* %47, %"class.WTF::StringImpl"** %24, align 8
  %56 = getelementptr inbounds %"class.WTF::StringImpl", %"class.WTF::StringImpl"* %47, i64 1
  store %"class.WTF::StringImpl"* %56, %"class.WTF::StringImpl"** %26, align 8
  %57 = getelementptr inbounds %"class.WTF::StringImpl", %"class.WTF::StringImpl"* %47, i64 0, i32 1
  %58 = load i32, i32* %57, align 4
  store i32 %58, i32* %27, align 8
  call void @llvm.lifetime.start.p0i8(i64 24, i8* nonnull %28) #9
  store %"class.WTF::StringImpl"* %55, %"class.WTF::StringImpl"** %29, align 8
  %59 = getelementptr inbounds %"class.WTF::StringImpl", %"class.WTF::StringImpl"* %55, i64 1
  store %"class.WTF::StringImpl"* %59, %"class.WTF::StringImpl"** %31, align 8
  %60 = getelementptr inbounds %"class.WTF::StringImpl", %"class.WTF::StringImpl"* %55, i64 0, i32 1
  %61 = load i32, i32* %60, align 4
  store i32 %61, i32* %32, align 8
  %62 = call zeroext i1 @_ZN3WTF37DeprecatedEqualIgnoringCaseAndNullityERKNS_10StringViewES2_(%"class.WTF::StringView"* nonnull dereferenceable(24) %3, %"class.WTF::StringView"* nonnull dereferenceable(24) %4) #9
  call void @llvm.lifetime.end.p0i8(i64 24, i8* nonnull %28) #9
  call void @llvm.lifetime.end.p0i8(i64 24, i8* nonnull %23) #9
  br i1 %62, label %72, label %63

63:                                               ; preds = %54, %46
  %64 = icmp eq i64 %50, 0
  %65 = select i1 %64, i64 %45, i64 %50
  %66 = add i64 %65, %49
  %67 = and i64 %66, %12
  %68 = getelementptr inbounds %"class.WTF::String", %"class.WTF::String"* %6, i64 %67
  %69 = getelementptr inbounds %"class.WTF::String", %"class.WTF::String"* %68, i64 0, i32 0, i32 0
  %70 = load %"class.WTF::StringImpl"*, %"class.WTF::StringImpl"** %69, align 8
  %71 = icmp eq %"class.WTF::StringImpl"* %70, null
  br i1 %71, label %72, label %46

72:                                               ; preds = %54, %63, %2, %8
  %73 = phi %"class.WTF::String"* [ null, %2 ], [ null, %8 ], [ %48, %54 ], [ null, %63 ]
  %74 = icmp ne %"class.WTF::String"* %73, null
  ret i1 %74
}

declare zeroext i1 @_ZNK5blink7Element12hasAttributeERKN3WTF12AtomicStringE(%"class.blink::Element"*, %"class.WTF::AtomicString"* dereferenceable(8)) local_unnamed_addr #3

attributes #0 = { nofree norecurse nounwind ssp uwtable writeonly "correctly-rounded-divide-sqrt-fp-math"="false" "disable-tail-calls"="false" "less-precise-fpmad"="false" "min-legal-vector-width"="0" "no-frame-pointer-elim"="false" "no-frame-pointer-elim-non-leaf" "no-infs-fp-math"="false" "no-jump-tables"="false" "no-nans-fp-math"="false" "no-signed-zeros-fp-math"="false" "no-trapping-math"="false" "null-pointer-is-valid"="true" "stack-protector-buffer-size"="4" "target-cpu"="x86-64" "target-features"="+cx8,+fxsr,+mmx,+sse,+sse2,+sse3,+x87" "unsafe-fp-math"="false" "use-soft-float"="false" }
attributes #1 = { nounwind ssp uwtable "correctly-rounded-divide-sqrt-fp-math"="false" "disable-tail-calls"="false" "less-precise-fpmad"="false" "min-legal-vector-width"="0" "no-frame-pointer-elim"="false" "no-frame-pointer-elim-non-leaf" "no-infs-fp-math"="false" "no-jump-tables"="false" "no-nans-fp-math"="false" "no-signed-zeros-fp-math"="false" "no-trapping-math"="false" "null-pointer-is-valid"="true" "stack-protector-buffer-size"="4" "target-cpu"="x86-64" "target-features"="+cx8,+fxsr,+mmx,+sse,+sse2,+sse3,+x87" "unsafe-fp-math"="false" "use-soft-float"="false" }
attributes #2 = { argmemonly nounwind }
attributes #3 = { "correctly-rounded-divide-sqrt-fp-math"="false" "disable-tail-calls"="false" "less-precise-fpmad"="false" "no-frame-pointer-elim"="false" "no-frame-pointer-elim-non-leaf" "no-infs-fp-math"="false" "no-nans-fp-math"="false" "no-signed-zeros-fp-math"="false" "no-trapping-math"="false" "null-pointer-is-valid"="true" "stack-protector-buffer-size"="4" "target-cpu"="x86-64" "target-features"="+cx8,+fxsr,+mmx,+sse,+sse2,+sse3,+x87" "unsafe-fp-math"="false" "use-soft-float"="false" }
attributes #4 = { argmemonly nofree nounwind readonly "correctly-rounded-divide-sqrt-fp-math"="false" "disable-tail-calls"="false" "less-precise-fpmad"="false" "no-frame-pointer-elim"="false" "no-frame-pointer-elim-non-leaf" "no-infs-fp-math"="false" "no-nans-fp-math"="false" "no-signed-zeros-fp-math"="false" "no-trapping-math"="false" "null-pointer-is-valid"="true" "stack-protector-buffer-size"="4" "target-cpu"="x86-64" "target-features"="+cx8,+fxsr,+mmx,+sse,+sse2,+sse3,+x87" "unsafe-fp-math"="false" "use-soft-float"="false" }
attributes #5 = { nounwind readnone speculatable }
attributes #6 = { cold noreturn nounwind }
attributes #7 = { nofree nounwind }
attributes #8 = { nounwind "correctly-rounded-divide-sqrt-fp-math"="false" "disable-tail-calls"="false" "less-precise-fpmad"="false" "no-frame-pointer-elim"="false" "no-frame-pointer-elim-non-leaf" "no-infs-fp-math"="false" "no-nans-fp-math"="false" "no-signed-zeros-fp-math"="false" "no-trapping-math"="false" "null-pointer-is-valid"="true" "stack-protector-buffer-size"="4" "target-cpu"="x86-64" "target-features"="+cx8,+fxsr,+mmx,+sse,+sse2,+sse3,+x87" "unsafe-fp-math"="false" "use-soft-float"="false" }
attributes #9 = { nounwind }
attributes #10 = { nounwind readonly }

!llvm.module.flags = !{!0, !1}

!0 = !{i32 1, !"wchar_size", i32 4}
!1 = !{i32 7, !"PIC Level", i32 2}
!2 = !{!"branch_weights", i32 1, i32 2000}
!3 = !{!"branch_weights", i32 1, i32 1048575}
!4 = !{!"branch_weights", i32 2000, i32 1}
!5 = !{i8 0, i8 2}
