; ModuleID = '../../third_party/blink/renderer/modules/background_fetch/background_fetch_record.cc'
source_filename = "../../third_party/blink/renderer/modules/background_fetch/background_fetch_record.cc"
target datalayout = "e-m:e-i64:64-f80:128-n8:16:32:64-S128"
target triple = "x86_64-unknown-linux-gnu"

module asm ".symver exp, exp@GLIBC_2.2.5"
module asm ".symver exp2, exp2@GLIBC_2.2.5"
module asm ".symver exp2f, exp2f@GLIBC_2.2.5"
module asm ".symver expf, expf@GLIBC_2.2.5"
module asm ".symver lgamma, lgamma@GLIBC_2.2.5"
module asm ".symver lgammaf, lgammaf@GLIBC_2.2.5"
module asm ".symver lgammal, lgammal@GLIBC_2.2.5"
module asm ".symver log, log@GLIBC_2.2.5"
module asm ".symver log2, log2@GLIBC_2.2.5"
module asm ".symver log2f, log2f@GLIBC_2.2.5"
module asm ".symver logf, logf@GLIBC_2.2.5"
module asm ".symver pow, pow@GLIBC_2.2.5"
module asm ".symver powf, powf@GLIBC_2.2.5"

%"struct.blink::WrapperTypeInfo" = type { i16, void (%"class.v8::Isolate"*, %"class.blink::DOMWrapperWorld"*, %"class.v8::Template"*)*, void (%"class.v8::Context"*, %"class.blink::DOMWrapperWorld"*, %"class.v8::Object"*, %"class.v8::Object"*, %"class.v8::Object"*, %"class.v8::Template"*, i64)*, i8*, %"struct.blink::WrapperTypeInfo"*, i8 }
%"class.v8::Isolate" = type { i8 }
%"class.blink::DOMWrapperWorld" = type { %"class.WTF::RefCounted", i32, i32, %"class.blink::Persistent" }
%"class.WTF::RefCounted" = type { %"class.base::RefCounted" }
%"class.base::RefCounted" = type { %"class.base::subtle::RefCountedBase" }
%"class.base::subtle::RefCountedBase" = type { i32 }
%"class.blink::Persistent" = type { %"class.blink::PersistentBase" }
%"class.blink::PersistentBase" = type { %"class.blink::DOMDataStore"*, %"class.blink::PersistentNodePtr" }
%"class.blink::DOMDataStore" = type { i32 (...)**, i8, [7 x i8], %"class.blink::HeapHashMap" }
%"class.blink::HeapHashMap" = type { %"class.WTF::HashMap" }
%"class.WTF::HashMap" = type { %"class.WTF::HashTable.42" }
%"class.WTF::HashTable.42" = type <{ %"struct.WTF::KeyValuePair"*, i32, i32, i32, [4 x i8] }>
%"struct.WTF::KeyValuePair" = type { %"class.blink::WeakMember.44", %"class.blink::TraceWrapperV8Reference" }
%"class.blink::WeakMember.44" = type { %"class.blink::MemberBase.45" }
%"class.blink::MemberBase.45" = type { %"class.blink::ScriptWrappable"* }
%"class.blink::ScriptWrappable" = type { %"class.blink::NameClient", %"class.blink::TraceWrapperV8Reference" }
%"class.blink::NameClient" = type { i32 (...)** }
%"class.blink::TraceWrapperV8Reference" = type { %"class.v8::TracedReference" }
%"class.v8::TracedReference" = type { %"class.v8::BasicTracedReference" }
%"class.v8::BasicTracedReference" = type { %"class.v8::TracedReferenceBase" }
%"class.v8::TracedReferenceBase" = type { i64* }
%"class.blink::PersistentNodePtr" = type { %"class.blink::PersistentNode"* }
%"class.blink::PersistentNode" = type { i8*, void (%"class.blink::Visitor"*, i8*)* }
%"class.blink::Visitor" = type { i32 (...)**, %"class.blink::ThreadState"* }
%"class.blink::ThreadState" = type <{ %"class.std::__1::unique_ptr.46", i32, [4 x i8], %"class.std::__1::unique_ptr.183", %"class.std::__1::unique_ptr.183", i8**, i8, i8, i8, i8, i8, i8, [2 x i8], i64, i64, i32, i32, i32, [4 x i8], %"class.WTF::Deque", %"class.v8::Isolate"*, void (%"class.v8::Isolate"*, %"class.v8::EmbedderGraph"*, i8*)*, %"class.std::__1::unique_ptr.193", %"class.std::__1::unique_ptr.199", %"struct.blink::ThreadState::GCData", %"class.std::__1::unique_ptr.211", %"class.std::__1::unique_ptr.217", %"class.base::JobHandle", %"class.base::JobHandle", %"struct.std::__1::atomic.224", [7 x i8], i64, i8, [7 x i8], i64, %"class.base::TimeTicks", i8, i8, [6 x i8] }>
%"class.std::__1::unique_ptr.46" = type { %"class.std::__1::__compressed_pair.47" }
%"class.std::__1::__compressed_pair.47" = type { %"struct.std::__1::__compressed_pair_elem.48" }
%"struct.std::__1::__compressed_pair_elem.48" = type { %"class.blink::ThreadHeap"* }
%"class.blink::ThreadHeap" = type { %"class.blink::ThreadState"*, %"class.std::__1::unique_ptr.49", %"class.std::__1::unique_ptr.55", %"class.std::__1::unique_ptr.61", %"class.std::__1::unique_ptr.67", %"class.std::__1::unique_ptr.73", %"class.std::__1::unique_ptr.79", %"class.std::__1::unique_ptr.90", %"class.std::__1::unique_ptr.97", %"class.std::__1::unique_ptr.97", %"class.std::__1::unique_ptr.104", %"class.std::__1::unique_ptr.111", %"class.std::__1::unique_ptr.118", %"class.std::__1::unique_ptr.118", %"class.std::__1::unique_ptr.125", %"class.std::__1::unique_ptr.132", %"class.std::__1::unique_ptr.139", %"class.std::__1::unique_ptr.163", %"struct.blink::ThreadHeap::LastAllocatedRegion", [9 x %"class.blink::BaseArena"*], i64, i64 }
%"class.std::__1::unique_ptr.49" = type { %"class.std::__1::__compressed_pair.50" }
%"class.std::__1::__compressed_pair.50" = type { %"struct.std::__1::__compressed_pair_elem.51" }
%"struct.std::__1::__compressed_pair_elem.51" = type { %"class.blink::ThreadHeapStatsCollector"* }
%"class.blink::ThreadHeapStatsCollector" = type opaque
%"class.std::__1::unique_ptr.55" = type { %"class.std::__1::__compressed_pair.56" }
%"class.std::__1::__compressed_pair.56" = type { %"struct.std::__1::__compressed_pair_elem.57" }
%"struct.std::__1::__compressed_pair_elem.57" = type { %"class.blink::RegionTree"* }
%"class.blink::RegionTree" = type opaque
%"class.std::__1::unique_ptr.61" = type { %"class.std::__1::__compressed_pair.62" }
%"class.std::__1::__compressed_pair.62" = type { %"struct.std::__1::__compressed_pair_elem.63" }
%"struct.std::__1::__compressed_pair_elem.63" = type { %"class.blink::PageBloomFilter"* }
%"class.blink::PageBloomFilter" = type opaque
%"class.std::__1::unique_ptr.67" = type { %"class.std::__1::__compressed_pair.68" }
%"class.std::__1::__compressed_pair.68" = type { %"struct.std::__1::__compressed_pair_elem.69" }
%"struct.std::__1::__compressed_pair_elem.69" = type { %"class.blink::PagePool"* }
%"class.blink::PagePool" = type opaque
%"class.std::__1::unique_ptr.73" = type { %"class.std::__1::__compressed_pair.74" }
%"class.std::__1::__compressed_pair.74" = type { %"struct.std::__1::__compressed_pair_elem.75" }
%"struct.std::__1::__compressed_pair_elem.75" = type { %"class.blink::ProcessHeapReporter"* }
%"class.blink::ProcessHeapReporter" = type opaque
%"class.std::__1::unique_ptr.79" = type { %"class.std::__1::__compressed_pair.80" }
%"class.std::__1::__compressed_pair.80" = type { %"struct.std::__1::__compressed_pair_elem.81" }
%"struct.std::__1::__compressed_pair_elem.81" = type { %"class.blink::Worklist"* }
%"class.blink::Worklist" = type { [4 x %"struct.blink::Worklist<blink::TraceDescriptor, 512, 4>::PrivateSegmentHolder"], %"class.blink::Worklist<blink::TraceDescriptor, 512, 4>::GlobalPool" }
%"struct.blink::Worklist<blink::TraceDescriptor, 512, 4>::PrivateSegmentHolder" = type { %"class.blink::Worklist<blink::TraceDescriptor, 512, 4>::Segment"*, %"class.blink::Worklist<blink::TraceDescriptor, 512, 4>::Segment"*, [64 x i8] }
%"class.blink::Worklist<blink::TraceDescriptor, 512, 4>::Segment" = type { %"class.blink::Worklist<blink::TraceDescriptor, 512, 4>::Segment"*, i64, [512 x %"struct.blink::TraceDescriptor"] }
%"struct.blink::TraceDescriptor" = type { i8*, void (%"class.blink::Visitor"*, i8*)* }
%"class.blink::Worklist<blink::TraceDescriptor, 512, 4>::GlobalPool" = type { %"class.base::Lock", %"class.blink::Worklist<blink::TraceDescriptor, 512, 4>::Segment"*, %"struct.std::__1::atomic.82" }
%"class.base::Lock" = type { %"class.base::internal::LockImpl" }
%"class.base::internal::LockImpl" = type { %union.pthread_mutex_t }
%union.pthread_mutex_t = type { %struct.__pthread_mutex_s }
%struct.__pthread_mutex_s = type { i32, i32, i32, i32, i32, i16, i16, %struct.__pthread_internal_list }
%struct.__pthread_internal_list = type { %struct.__pthread_internal_list*, %struct.__pthread_internal_list* }
%"struct.std::__1::atomic.82" = type { %"struct.std::__1::__atomic_base.83" }
%"struct.std::__1::__atomic_base.83" = type { %"struct.std::__1::__atomic_base.84" }
%"struct.std::__1::__atomic_base.84" = type { %"struct.std::__1::__cxx_atomic_impl.85" }
%"struct.std::__1::__cxx_atomic_impl.85" = type { %"struct.std::__1::__cxx_atomic_base_impl.86" }
%"struct.std::__1::__cxx_atomic_base_impl.86" = type { i64 }
%"class.std::__1::unique_ptr.90" = type { %"class.std::__1::__compressed_pair.91" }
%"class.std::__1::__compressed_pair.91" = type { %"struct.std::__1::__compressed_pair_elem.92" }
%"struct.std::__1::__compressed_pair_elem.92" = type { %"class.blink::Worklist.93"* }
%"class.blink::Worklist.93" = type { [4 x %"struct.blink::Worklist<blink::HeapObjectHeader *, 64, 4>::PrivateSegmentHolder"], %"class.blink::Worklist<blink::HeapObjectHeader *, 64, 4>::GlobalPool" }
%"struct.blink::Worklist<blink::HeapObjectHeader *, 64, 4>::PrivateSegmentHolder" = type { %"class.blink::Worklist<blink::HeapObjectHeader *, 64, 4>::Segment"*, %"class.blink::Worklist<blink::HeapObjectHeader *, 64, 4>::Segment"*, [64 x i8] }
%"class.blink::Worklist<blink::HeapObjectHeader *, 64, 4>::Segment" = type opaque
%"class.blink::Worklist<blink::HeapObjectHeader *, 64, 4>::GlobalPool" = type { %"class.base::Lock", %"class.blink::Worklist<blink::HeapObjectHeader *, 64, 4>::Segment"*, %"struct.std::__1::atomic.82" }
%"class.std::__1::unique_ptr.97" = type { %"class.std::__1::__compressed_pair.98" }
%"class.std::__1::__compressed_pair.98" = type { %"struct.std::__1::__compressed_pair_elem.99" }
%"struct.std::__1::__compressed_pair_elem.99" = type { %"class.blink::Worklist.100"* }
%"class.blink::Worklist.100" = type { [4 x %"struct.blink::Worklist<const void *, 16, 4>::PrivateSegmentHolder"], %"class.blink::Worklist<const void *, 16, 4>::GlobalPool" }
%"struct.blink::Worklist<const void *, 16, 4>::PrivateSegmentHolder" = type { %"class.blink::Worklist<const void *, 16, 4>::Segment"*, %"class.blink::Worklist<const void *, 16, 4>::Segment"*, [64 x i8] }
%"class.blink::Worklist<const void *, 16, 4>::Segment" = type { %"class.blink::Worklist<const void *, 16, 4>::Segment"*, i64, [16 x i8*] }
%"class.blink::Worklist<const void *, 16, 4>::GlobalPool" = type { %"class.base::Lock", %"class.blink::Worklist<const void *, 16, 4>::Segment"*, %"struct.std::__1::atomic.82" }
%"class.std::__1::unique_ptr.104" = type { %"class.std::__1::__compressed_pair.105" }
%"class.std::__1::__compressed_pair.105" = type { %"struct.std::__1::__compressed_pair_elem.106" }
%"struct.std::__1::__compressed_pair_elem.106" = type { %"class.blink::Worklist.107"* }
%"class.blink::Worklist.107" = type { [4 x %"struct.blink::Worklist<blink::CustomCallbackItem, 64, 4>::PrivateSegmentHolder"], %"class.blink::Worklist<blink::CustomCallbackItem, 64, 4>::GlobalPool" }
%"struct.blink::Worklist<blink::CustomCallbackItem, 64, 4>::PrivateSegmentHolder" = type { %"class.blink::Worklist<blink::CustomCallbackItem, 64, 4>::Segment"*, %"class.blink::Worklist<blink::CustomCallbackItem, 64, 4>::Segment"*, [64 x i8] }
%"class.blink::Worklist<blink::CustomCallbackItem, 64, 4>::Segment" = type opaque
%"class.blink::Worklist<blink::CustomCallbackItem, 64, 4>::GlobalPool" = type { %"class.base::Lock", %"class.blink::Worklist<blink::CustomCallbackItem, 64, 4>::Segment"*, %"struct.std::__1::atomic.82" }
%"class.std::__1::unique_ptr.111" = type { %"class.std::__1::__compressed_pair.112" }
%"class.std::__1::__compressed_pair.112" = type { %"struct.std::__1::__compressed_pair_elem.113" }
%"struct.std::__1::__compressed_pair_elem.113" = type { %"class.blink::Worklist.114"* }
%"class.blink::Worklist.114" = type { [4 x %"struct.blink::Worklist<const void *const *, 256, 4>::PrivateSegmentHolder"], %"class.blink::Worklist<const void *const *, 256, 4>::GlobalPool" }
%"struct.blink::Worklist<const void *const *, 256, 4>::PrivateSegmentHolder" = type { %"class.blink::Worklist<const void *const *, 256, 4>::Segment"*, %"class.blink::Worklist<const void *const *, 256, 4>::Segment"*, [64 x i8] }
%"class.blink::Worklist<const void *const *, 256, 4>::Segment" = type opaque
%"class.blink::Worklist<const void *const *, 256, 4>::GlobalPool" = type { %"class.base::Lock", %"class.blink::Worklist<const void *const *, 256, 4>::Segment"*, %"struct.std::__1::atomic.82" }
%"class.std::__1::unique_ptr.118" = type { %"class.std::__1::__compressed_pair.119" }
%"class.std::__1::__compressed_pair.119" = type { %"struct.std::__1::__compressed_pair_elem.120" }
%"struct.std::__1::__compressed_pair_elem.120" = type { %"class.blink::Worklist.121"* }
%"class.blink::Worklist.121" = type { [4 x %"struct.blink::Worklist<blink::EphemeronPairItem, 64, 4>::PrivateSegmentHolder"], %"class.blink::Worklist<blink::EphemeronPairItem, 64, 4>::GlobalPool" }
%"struct.blink::Worklist<blink::EphemeronPairItem, 64, 4>::PrivateSegmentHolder" = type { %"class.blink::Worklist<blink::EphemeronPairItem, 64, 4>::Segment"*, %"class.blink::Worklist<blink::EphemeronPairItem, 64, 4>::Segment"*, [64 x i8] }
%"class.blink::Worklist<blink::EphemeronPairItem, 64, 4>::Segment" = type opaque
%"class.blink::Worklist<blink::EphemeronPairItem, 64, 4>::GlobalPool" = type { %"class.base::Lock", %"class.blink::Worklist<blink::EphemeronPairItem, 64, 4>::Segment"*, %"struct.std::__1::atomic.82" }
%"class.std::__1::unique_ptr.125" = type { %"class.std::__1::__compressed_pair.126" }
%"class.std::__1::__compressed_pair.126" = type { %"struct.std::__1::__compressed_pair_elem.127" }
%"struct.std::__1::__compressed_pair_elem.127" = type { %"class.blink::Worklist.128"* }
%"class.blink::Worklist.128" = type { [4 x %"struct.blink::Worklist<const blink::TraceWrapperV8Reference<v8::Value> *, 16, 4>::PrivateSegmentHolder"], %"class.blink::Worklist<const blink::TraceWrapperV8Reference<v8::Value> *, 16, 4>::GlobalPool" }
%"struct.blink::Worklist<const blink::TraceWrapperV8Reference<v8::Value> *, 16, 4>::PrivateSegmentHolder" = type { %"class.blink::Worklist<const blink::TraceWrapperV8Reference<v8::Value> *, 16, 4>::Segment"*, %"class.blink::Worklist<const blink::TraceWrapperV8Reference<v8::Value> *, 16, 4>::Segment"*, [64 x i8] }
%"class.blink::Worklist<const blink::TraceWrapperV8Reference<v8::Value> *, 16, 4>::Segment" = type opaque
%"class.blink::Worklist<const blink::TraceWrapperV8Reference<v8::Value> *, 16, 4>::GlobalPool" = type { %"class.base::Lock", %"class.blink::Worklist<const blink::TraceWrapperV8Reference<v8::Value> *, 16, 4>::Segment"*, %"struct.std::__1::atomic.82" }
%"class.std::__1::unique_ptr.132" = type { %"class.std::__1::__compressed_pair.133" }
%"class.std::__1::__compressed_pair.133" = type { %"struct.std::__1::__compressed_pair_elem.134" }
%"struct.std::__1::__compressed_pair_elem.134" = type { %"class.blink::Worklist.135"* }
%"class.blink::Worklist.135" = type { [4 x %"struct.blink::Worklist<blink::NotSafeToConcurrentlyTraceItem, 64, 4>::PrivateSegmentHolder"], %"class.blink::Worklist<blink::NotSafeToConcurrentlyTraceItem, 64, 4>::GlobalPool" }
%"struct.blink::Worklist<blink::NotSafeToConcurrentlyTraceItem, 64, 4>::PrivateSegmentHolder" = type { %"class.blink::Worklist<blink::NotSafeToConcurrentlyTraceItem, 64, 4>::Segment"*, %"class.blink::Worklist<blink::NotSafeToConcurrentlyTraceItem, 64, 4>::Segment"*, [64 x i8] }
%"class.blink::Worklist<blink::NotSafeToConcurrentlyTraceItem, 64, 4>::Segment" = type { %"class.blink::Worklist<blink::NotSafeToConcurrentlyTraceItem, 64, 4>::Segment"*, i64, [64 x %"struct.blink::NotSafeToConcurrentlyTraceItem"] }
%"struct.blink::NotSafeToConcurrentlyTraceItem" = type { %"struct.blink::TraceDescriptor", i64 }
%"class.blink::Worklist<blink::NotSafeToConcurrentlyTraceItem, 64, 4>::GlobalPool" = type { %"class.base::Lock", %"class.blink::Worklist<blink::NotSafeToConcurrentlyTraceItem, 64, 4>::Segment"*, %"struct.std::__1::atomic.82" }
%"class.std::__1::unique_ptr.139" = type { %"class.std::__1::__compressed_pair.140" }
%"class.std::__1::__compressed_pair.140" = type { %"struct.std::__1::__compressed_pair_elem.141" }
%"struct.std::__1::__compressed_pair_elem.141" = type { %"class.blink::WeakContainersWorklist"* }
%"class.blink::WeakContainersWorklist" = type { %"class.WTF::Mutex", %"class.std::__1::unordered_set" }
%"class.WTF::Mutex" = type { %"class.WTF::MutexBase" }
%"class.WTF::MutexBase" = type { %"struct.WTF::PlatformMutex" }
%"struct.WTF::PlatformMutex" = type { %union.pthread_mutex_t }
%"class.std::__1::unordered_set" = type { %"class.std::__1::__hash_table" }
%"class.std::__1::__hash_table" = type <{ %"class.std::__1::unique_ptr.142", %"class.std::__1::__compressed_pair.150", %"class.std::__1::__compressed_pair.155", %"class.std::__1::__compressed_pair.157", [4 x i8] }>
%"class.std::__1::unique_ptr.142" = type { %"class.std::__1::__compressed_pair.143" }
%"class.std::__1::__compressed_pair.143" = type { %"struct.std::__1::__compressed_pair_elem.144", %"struct.std::__1::__compressed_pair_elem.145" }
%"struct.std::__1::__compressed_pair_elem.144" = type { %"struct.std::__1::__hash_node_base"** }
%"struct.std::__1::__hash_node_base" = type { %"struct.std::__1::__hash_node_base"* }
%"struct.std::__1::__compressed_pair_elem.145" = type { %"class.std::__1::__bucket_list_deallocator" }
%"class.std::__1::__bucket_list_deallocator" = type { %"class.std::__1::__compressed_pair.146" }
%"class.std::__1::__compressed_pair.146" = type { %"struct.std::__1::__compressed_pair_elem.15" }
%"struct.std::__1::__compressed_pair_elem.15" = type { i64 }
%"class.std::__1::__compressed_pair.150" = type { %"struct.std::__1::__compressed_pair_elem.151" }
%"struct.std::__1::__compressed_pair_elem.151" = type { %"struct.std::__1::__hash_node_base" }
%"class.std::__1::__compressed_pair.155" = type { %"struct.std::__1::__compressed_pair_elem.15" }
%"class.std::__1::__compressed_pair.157" = type { %"struct.std::__1::__compressed_pair_elem.158" }
%"struct.std::__1::__compressed_pair_elem.158" = type { float }
%"class.std::__1::unique_ptr.163" = type { %"class.std::__1::__compressed_pair.164" }
%"class.std::__1::__compressed_pair.164" = type { %"struct.std::__1::__compressed_pair_elem.165" }
%"struct.std::__1::__compressed_pair_elem.165" = type { %"class.blink::HeapCompact"* }
%"class.blink::HeapCompact" = type <{ %"class.blink::ThreadHeap"*, %"class.std::__1::unique_ptr.166", i8, [7 x i8], i64, i64, i32, [4 x i8], i64, i8, [7 x i8] }>
%"class.std::__1::unique_ptr.166" = type { %"class.std::__1::__compressed_pair.167" }
%"class.std::__1::__compressed_pair.167" = type { %"struct.std::__1::__compressed_pair_elem.168" }
%"struct.std::__1::__compressed_pair_elem.168" = type { %"class.blink::HeapCompact::MovableObjectFixups"* }
%"class.blink::HeapCompact::MovableObjectFixups" = type opaque
%"struct.blink::ThreadHeap::LastAllocatedRegion" = type { i8*, i64 }
%"class.blink::BaseArena" = type <{ i32 (...)**, %"class.blink::PageStackThreadSafe", %"class.blink::PageStackThreadSafe", %"class.blink::PageStackThreadSafe", %"class.blink::PageStackThreadSafe", %"class.blink::ThreadState"*, i32, [4 x i8] }>
%"class.blink::PageStackThreadSafe" = type { %"class.blink::PageStack", %"class.WTF::Mutex" }
%"class.blink::PageStack" = type { %"class.WTF::Vector.175" }
%"class.WTF::Vector.175" = type { %"class.WTF::VectorBuffer.176" }
%"class.WTF::VectorBuffer.176" = type { %"class.WTF::VectorBufferBase.177" }
%"class.WTF::VectorBufferBase.177" = type { %"class.blink::BasePage"**, i32, i32 }
%"class.blink::BasePage" = type <{ i32 (...)**, %"class.blink::PageMemory"*, %"class.blink::BaseArena"*, %"class.blink::ThreadState"*, i64, i8, i8, i8, [5 x i8] }>
%"class.blink::PageMemory" = type opaque
%"class.std::__1::unique_ptr.183" = type { %"class.std::__1::__compressed_pair.184" }
%"class.std::__1::__compressed_pair.184" = type { %"struct.std::__1::__compressed_pair_elem.185" }
%"struct.std::__1::__compressed_pair_elem.185" = type { %"class.blink::PersistentRegion"* }
%"class.blink::PersistentRegion" = type { %"class.blink::PersistentRegionBase" }
%"class.blink::PersistentRegionBase" = type { %"class.blink::PersistentNode"*, %"struct.blink::PersistentNodeSlots"* }
%"struct.blink::PersistentNodeSlots" = type { %"struct.blink::PersistentNodeSlots"*, [256 x %"class.blink::PersistentNode"] }
%"class.WTF::Deque" = type { %"class.WTF::Deque<std::__1::pair<void *, bool (*)(const blink::LivenessBroker &, void *)>, 0, WTF::PartitionAllocator>::BackingBuffer", i32, i32 }
%"class.WTF::Deque<std::__1::pair<void *, bool (*)(const blink::LivenessBroker &, void *)>, 0, WTF::PartitionAllocator>::BackingBuffer" = type { %"class.WTF::VectorBuffer.191" }
%"class.WTF::VectorBuffer.191" = type { %"class.WTF::VectorBufferBase.192" }
%"class.WTF::VectorBufferBase.192" = type { %"struct.std::__1::pair"*, i32, i32 }
%"struct.std::__1::pair" = type { i8*, i1 (%"class.blink::LivenessBroker"*, i8*)* }
%"class.blink::LivenessBroker" = type { i8 }
%"class.v8::EmbedderGraph" = type opaque
%"class.std::__1::unique_ptr.193" = type { %"class.std::__1::__compressed_pair.194" }
%"class.std::__1::__compressed_pair.194" = type { %"struct.std::__1::__compressed_pair_elem.195" }
%"struct.std::__1::__compressed_pair_elem.195" = type { %"class.blink::UnifiedHeapController"* }
%"class.blink::UnifiedHeapController" = type opaque
%"class.std::__1::unique_ptr.199" = type { %"class.std::__1::__compressed_pair.200" }
%"class.std::__1::__compressed_pair.200" = type { %"struct.std::__1::__compressed_pair_elem.201" }
%"struct.std::__1::__compressed_pair_elem.201" = type { %"class.v8::EmbedderRootsHandler"* }
%"class.v8::EmbedderRootsHandler" = type { i32 (...)** }
%"struct.blink::ThreadState::GCData" = type { i32, i32, i32, i32, %"class.std::__1::unique_ptr.205" }
%"class.std::__1::unique_ptr.205" = type { %"class.std::__1::__compressed_pair.206" }
%"class.std::__1::__compressed_pair.206" = type { %"struct.std::__1::__compressed_pair_elem.207" }
%"struct.std::__1::__compressed_pair_elem.207" = type { %"class.blink::MarkingVisitor"* }
%"class.blink::MarkingVisitor" = type { %"class.blink::MarkingVisitorBase", %"class.blink::MarkingVisitor::RecentlyRetracedWeakContainers" }
%"class.blink::MarkingVisitorBase" = type { %"class.blink::Visitor", %"class.blink::Worklist<blink::TraceDescriptor, 512, 4>::View", %"class.blink::Worklist<blink::HeapObjectHeader *, 64, 4>::View", %"class.blink::Worklist<const void *, 16, 4>::View", %"class.blink::Worklist<blink::CustomCallbackItem, 64, 4>::View", %"class.blink::Worklist<const void *const *, 256, 4>::View", %"class.blink::Worklist<blink::EphemeronPairItem, 64, 4>::View", %"class.blink::Worklist<blink::EphemeronPairItem, 64, 4>::View", %"class.blink::WeakContainersWorklist"*, i64, i32, i32 }
%"class.blink::Worklist<blink::TraceDescriptor, 512, 4>::View" = type <{ %"class.blink::Worklist"*, i32, [4 x i8] }>
%"class.blink::Worklist<blink::HeapObjectHeader *, 64, 4>::View" = type <{ %"class.blink::Worklist.93"*, i32, [4 x i8] }>
%"class.blink::Worklist<const void *, 16, 4>::View" = type <{ %"class.blink::Worklist.100"*, i32, [4 x i8] }>
%"class.blink::Worklist<blink::CustomCallbackItem, 64, 4>::View" = type <{ %"class.blink::Worklist.107"*, i32, [4 x i8] }>
%"class.blink::Worklist<const void *const *, 256, 4>::View" = type <{ %"class.blink::Worklist.114"*, i32, [4 x i8] }>
%"class.blink::Worklist<blink::EphemeronPairItem, 64, 4>::View" = type <{ %"class.blink::Worklist.121"*, i32, [4 x i8] }>
%"class.blink::MarkingVisitor::RecentlyRetracedWeakContainers" = type { %"class.std::__1::vector", i64 }
%"class.std::__1::vector" = type { %"class.std::__1::__vector_base" }
%"class.std::__1::__vector_base" = type { %"class.blink::HeapObjectHeader"**, %"class.blink::HeapObjectHeader"**, %"class.std::__1::__compressed_pair.368" }
%"class.blink::HeapObjectHeader" = type { i32, i16, i16 }
%"class.std::__1::__compressed_pair.368" = type { %"struct.std::__1::__compressed_pair_elem.369" }
%"struct.std::__1::__compressed_pair_elem.369" = type { %"class.blink::HeapObjectHeader"** }
%"class.std::__1::unique_ptr.211" = type { %"class.std::__1::__compressed_pair.212" }
%"class.std::__1::__compressed_pair.212" = type { %"struct.std::__1::__compressed_pair_elem.213" }
%"struct.std::__1::__compressed_pair_elem.213" = type { %"class.blink::ThreadState::IncrementalMarkingScheduler"* }
%"class.blink::ThreadState::IncrementalMarkingScheduler" = type opaque
%"class.std::__1::unique_ptr.217" = type { %"class.std::__1::__compressed_pair.218" }
%"class.std::__1::__compressed_pair.218" = type { %"struct.std::__1::__compressed_pair_elem.219" }
%"struct.std::__1::__compressed_pair_elem.219" = type { %"class.blink::MarkingSchedulingOracle"* }
%"class.blink::MarkingSchedulingOracle" = type opaque
%"class.base::JobHandle" = type { %class.scoped_refptr.223 }
%class.scoped_refptr.223 = type { %"class.base::internal::JobTaskSource"* }
%"class.base::internal::JobTaskSource" = type opaque
%"struct.std::__1::atomic.224" = type { %"struct.std::__1::__atomic_base.225" }
%"struct.std::__1::__atomic_base.225" = type { %"struct.std::__1::__cxx_atomic_impl.226" }
%"struct.std::__1::__cxx_atomic_impl.226" = type { %"struct.std::__1::__cxx_atomic_base_impl.227" }
%"struct.std::__1::__cxx_atomic_base_impl.227" = type { i8 }
%"class.base::TimeTicks" = type { %"class.base::time_internal::TimeBase" }
%"class.base::time_internal::TimeBase" = type { i64 }
%"class.v8::Template" = type { i8 }
%"class.v8::Context" = type { i8 }
%"class.v8::Object" = type { i8 }
%"class.WTF::ThreadSpecific" = type { %"class.blink::ThreadState"**, %"class.base::ThreadLocalStorage::Slot" }
%"class.base::ThreadLocalStorage::Slot" = type { i32, i32 }
%"struct.blink::GCInfo" = type { void (%"class.blink::Visitor"*, i8*)*, void (i8*)*, { i8*, i8 } (i8*)*, i8 }
%"class.blink::GCInfoTable" = type { %"struct.blink::GCInfo"**, i32, i32, %"class.WTF::Mutex" }
%"class.blink::AtomicEntryFlag" = type { %"struct.std::__1::atomic.270" }
%"struct.std::__1::atomic.270" = type { %"struct.std::__1::__atomic_base.271" }
%"struct.std::__1::__atomic_base.271" = type { %"struct.std::__1::__atomic_base.272" }
%"struct.std::__1::__atomic_base.272" = type { %"struct.std::__1::__cxx_atomic_impl.273" }
%"struct.std::__1::__cxx_atomic_impl.273" = type { %"struct.std::__1::__cxx_atomic_base_impl.274" }
%"struct.std::__1::__cxx_atomic_base_impl.274" = type { i32 }
%"class.blink::BackgroundFetchRecord" = type <{ %"class.blink::ScriptWrappable", %"class.blink::Member", %"class.blink::Member.293", %"class.blink::Member.33", i32, [4 x i8] }>
%"class.blink::Member" = type { %"class.blink::MemberBase" }
%"class.blink::MemberBase" = type { %"class.blink::Request"* }
%"class.blink::Member.293" = type { %"class.blink::MemberBase.294" }
%"class.blink::MemberBase.294" = type { %"class.blink::ScriptPromiseProperty"* }
%"class.blink::ScriptPromiseProperty" = type <{ %"class.blink::ExecutionContextClient", i32, [4 x i8], %"class.blink::Member.297", %"class.blink::Member.302", %"class.blink::HeapVector.304", %"class.blink::HeapVector.323", i8, i8, [6 x i8] }>
%"class.blink::ExecutionContextClient" = type { %"class.blink::GarbageCollectedMixin", %"class.blink::WeakMember" }
%"class.blink::GarbageCollectedMixin" = type { i32 (...)** }
%"class.blink::WeakMember" = type { %"class.blink::MemberBase.0" }
%"class.blink::MemberBase.0" = type { %"class.blink::ExecutionContext"* }
%"class.blink::ExecutionContext" = type <{ %"class.blink::Supplementable", %"class.blink::MojoBindingContext", %"class.blink::ConsoleLogger", %"class.blink::UseCounter", %"class.blink::FeatureContext", %"class.v8::Isolate"*, %"class.blink::SecurityContext", %"class.blink::Member.407", i32, i8, [3 x i8], %"class.blink::HeapVector.409", i32, i8, i8, i8, i8, i8, i8, [6 x i8], %"class.blink::Member.417", %"class.blink::Member.419", %"class.blink::DOMTimerCoordinator", i32, [4 x i8], %"class.std::__1::unique_ptr.428", %"class.blink::Member.434", %"class.blink::Member.436", i8, [7 x i8] }>
%"class.blink::Supplementable" = type { %"class.blink::GarbageCollectedMixin", %"class.blink::HeapHashMap.375" }
%"class.blink::HeapHashMap.375" = type { %"class.WTF::HashMap.378" }
%"class.WTF::HashMap.378" = type { %"class.WTF::HashTable.379" }
%"class.WTF::HashTable.379" = type <{ %"struct.WTF::KeyValuePair.381"*, i32, i32, i32, [4 x i8] }>
%"struct.WTF::KeyValuePair.381" = type opaque
%"class.blink::MojoBindingContext" = type { %"class.blink::ContextLifecycleNotifier", %"class.blink::Supplementable.382" }
%"class.blink::ContextLifecycleNotifier" = type { %"class.blink::GarbageCollectedMixin", %"class.blink::HeapObserverSet" }
%"class.blink::HeapObserverSet" = type { i32, [4 x i8], %"class.blink::HeapHashSet" }
%"class.blink::HeapHashSet" = type { %"class.WTF::HashSet" }
%"class.WTF::HashSet" = type { %"class.WTF::HashTable" }
%"class.WTF::HashTable" = type <{ %"class.blink::WeakMember.30"*, i32, i32, i32, [4 x i8] }>
%"class.blink::WeakMember.30" = type opaque
%"class.blink::Supplementable.382" = type { %"class.blink::GarbageCollectedMixin", %"class.blink::HeapHashMap.383" }
%"class.blink::HeapHashMap.383" = type { %"class.WTF::HashMap.386" }
%"class.WTF::HashMap.386" = type { %"class.WTF::HashTable.387" }
%"class.WTF::HashTable.387" = type <{ %"struct.WTF::KeyValuePair.389"*, i32, i32, i32, [4 x i8] }>
%"struct.WTF::KeyValuePair.389" = type { i8*, %"class.blink::Member.540" }
%"class.blink::Member.540" = type { %"class.blink::MemberBase.541" }
%"class.blink::MemberBase.541" = type { %"class.blink::Supplement"* }
%"class.blink::Supplement" = type { %"class.blink::GarbageCollectedMixin", %"class.blink::Member.542" }
%"class.blink::Member.542" = type { %"class.blink::MemberBase.543" }
%"class.blink::MemberBase.543" = type { %"class.blink::MojoBindingContext"* }
%"class.blink::ConsoleLogger" = type { %"class.blink::GarbageCollectedMixin" }
%"class.blink::UseCounter" = type { %"class.blink::GarbageCollectedMixin" }
%"class.blink::FeatureContext" = type { i32 (...)** }
%"class.blink::SecurityContext" = type { i32 (...)**, i32, %class.scoped_refptr.390, %"class.std::__1::unique_ptr.391", %"class.std::__1::unique_ptr.391", %"class.std::__1::unique_ptr.397", %"class.std::__1::unique_ptr.397", %"class.blink::Member.284", i32, [4 x i8], %"class.WTF::HashSet.403", i32, i32 }
%class.scoped_refptr.390 = type { %"class.blink::SecurityOrigin"* }
%"class.blink::SecurityOrigin" = type { %"class.WTF::RefCounted.373", %"class.WTF::String", %"class.WTF::String", %"class.WTF::String", i16, %"class.absl::optional.360", i8, i8, i8, i8, i8, i8, %"class.base::UnguessableToken", %class.scoped_refptr.17 }
%"class.WTF::RefCounted.373" = type { %"class.base::RefCounted.374" }
%"class.base::RefCounted.374" = type { %"class.base::subtle::RefCountedBase" }
%"class.WTF::String" = type { %class.scoped_refptr }
%class.scoped_refptr = type { %"class.WTF::StringImpl"* }
%"class.WTF::StringImpl" = type { i32, i32, %"struct.std::__1::atomic" }
%"struct.std::__1::atomic" = type { %"struct.std::__1::__atomic_base" }
%"struct.std::__1::__atomic_base" = type { %"struct.std::__1::__atomic_base.5" }
%"struct.std::__1::__atomic_base.5" = type { %"struct.std::__1::__cxx_atomic_impl" }
%"struct.std::__1::__cxx_atomic_impl" = type { %"struct.std::__1::__cxx_atomic_base_impl" }
%"struct.std::__1::__cxx_atomic_base_impl" = type { i32 }
%"class.absl::optional.360" = type { %"class.absl::optional_internal::optional_data.361" }
%"class.absl::optional_internal::optional_data.361" = type { %"class.absl::optional_internal::optional_data_base.362" }
%"class.absl::optional_internal::optional_data_base.362" = type { %"class.absl::optional_internal::optional_data_dtor_base.363" }
%"class.absl::optional_internal::optional_data_dtor_base.363" = type { i8, %union.anon.364 }
%union.anon.364 = type { %"class.url::Origin::Nonce" }
%"class.url::Origin::Nonce" = type { %"class.base::UnguessableToken" }
%"class.base::UnguessableToken" = type { %"class.base::Token" }
%"class.base::Token" = type { i64, i64 }
%class.scoped_refptr.17 = type { %"class.blink::SecurityOrigin"* }
%"class.std::__1::unique_ptr.391" = type { %"class.std::__1::__compressed_pair.392" }
%"class.std::__1::__compressed_pair.392" = type { %"struct.std::__1::__compressed_pair_elem.393" }
%"struct.std::__1::__compressed_pair_elem.393" = type { %"class.blink::PermissionsPolicy"* }
%"class.blink::PermissionsPolicy" = type opaque
%"class.std::__1::unique_ptr.397" = type { %"class.std::__1::__compressed_pair.398" }
%"class.std::__1::__compressed_pair.398" = type { %"struct.std::__1::__compressed_pair_elem.399" }
%"struct.std::__1::__compressed_pair_elem.399" = type { %"class.blink::DocumentPolicy"* }
%"class.blink::DocumentPolicy" = type opaque
%"class.blink::Member.284" = type { %"class.blink::MemberBase.0" }
%"class.WTF::HashSet.403" = type { %"class.WTF::HashTable.404" }
%"class.WTF::HashTable.404" = type <{ i32*, i32, i32, i32, [4 x i8] }>
%"class.blink::Member.407" = type { %"class.blink::MemberBase.408" }
%"class.blink::MemberBase.408" = type { %"class.blink::Agent"* }
%"class.blink::Agent" = type opaque
%"class.blink::HeapVector.409" = type { %"class.WTF::Vector.412" }
%"class.WTF::Vector.412" = type { %"class.WTF::VectorBuffer.413" }
%"class.WTF::VectorBuffer.413" = type { %"class.WTF::VectorBufferBase.414" }
%"class.WTF::VectorBufferBase.414" = type { %"class.blink::Member.415"*, i32, i32 }
%"class.blink::Member.415" = type opaque
%"class.blink::Member.417" = type { %"class.blink::MemberBase.418" }
%"class.blink::MemberBase.418" = type { %"class.blink::PublicURLManager"* }
%"class.blink::PublicURLManager" = type opaque
%"class.blink::Member.419" = type { %"class.blink::MemberBase.420" }
%"class.blink::MemberBase.420" = type { %"class.blink::ContentSecurityPolicyDelegate"* }
%"class.blink::ContentSecurityPolicyDelegate" = type opaque
%"class.blink::DOMTimerCoordinator" = type { %"class.blink::HeapHashMap.421", i32, i32 }
%"class.blink::HeapHashMap.421" = type { %"class.WTF::HashMap.424" }
%"class.WTF::HashMap.424" = type { %"class.WTF::HashTable.425" }
%"class.WTF::HashTable.425" = type <{ %"struct.WTF::KeyValuePair.427"*, i32, i32, i32, [4 x i8] }>
%"struct.WTF::KeyValuePair.427" = type opaque
%"class.std::__1::unique_ptr.428" = type { %"class.std::__1::__compressed_pair.429" }
%"class.std::__1::__compressed_pair.429" = type { %"struct.std::__1::__compressed_pair_elem.430" }
%"struct.std::__1::__compressed_pair_elem.430" = type { %"class.blink::PolicyContainer"* }
%"class.blink::PolicyContainer" = type opaque
%"class.blink::Member.434" = type { %"class.blink::MemberBase.435" }
%"class.blink::MemberBase.435" = type { %"class.blink::OriginTrialContext"* }
%"class.blink::OriginTrialContext" = type opaque
%"class.blink::Member.436" = type { %"class.blink::MemberBase.437" }
%"class.blink::MemberBase.437" = type { %"class.blink::ContentSecurityPolicy"* }
%"class.blink::ContentSecurityPolicy" = type opaque
%"class.blink::Member.297" = type { %"class.blink::MemberBase.298" }
%"class.blink::MemberBase.298" = type { %"class.blink::Response"* }
%"class.blink::Response" = type { %"class.blink::ScriptWrappable", %"class.blink::ActiveScriptWrappable.299", %"class.blink::Body", %"class.blink::Member.300", %"class.blink::Member.291" }
%"class.blink::ActiveScriptWrappable.299" = type { %"class.blink::ActiveScriptWrappableBase" }
%"class.blink::ActiveScriptWrappableBase" = type { %"class.blink::GarbageCollectedMixin" }
%"class.blink::Body" = type { %"class.blink::ExecutionContextClient" }
%"class.blink::Member.300" = type { %"class.blink::MemberBase.301" }
%"class.blink::MemberBase.301" = type { %"class.blink::FetchResponseData"* }
%"class.blink::FetchResponseData" = type { i32, i64, i32, %"class.std::__1::unique_ptr.332", %"class.WTF::Vector.338", i16, %"class.WTF::AtomicString", %"class.blink::Member.7", %"class.blink::Member.300", %"class.blink::Member.23", %"class.WTF::String", %"class.WTF::AtomicString", %"class.base::Time", %"class.WTF::String", %"class.std::__1::set", i32, %"class.WTF::AtomicString", i8, i8, %"class.std::__1::unique_ptr.351" }
%"class.std::__1::unique_ptr.332" = type { %"class.std::__1::__compressed_pair.333" }
%"class.std::__1::__compressed_pair.333" = type { %"struct.std::__1::__compressed_pair_elem.334" }
%"struct.std::__1::__compressed_pair_elem.334" = type { i32* }
%"class.WTF::Vector.338" = type { %"class.WTF::VectorBuffer.339" }
%"class.WTF::VectorBuffer.339" = type { %"class.WTF::VectorBufferBase.340" }
%"class.WTF::VectorBufferBase.340" = type { %"class.blink::KURL"*, i32, i32 }
%"class.blink::KURL" = type { i8, i8, %"class.WTF::String", %"struct.url::Parsed", %"class.WTF::String", %"class.std::__1::unique_ptr" }
%"struct.url::Parsed" = type { %"struct.url::Component", %"struct.url::Component", %"struct.url::Component", %"struct.url::Component", %"struct.url::Component", %"struct.url::Component", %"struct.url::Component", %"struct.url::Component", i8, %"struct.url::Parsed"* }
%"struct.url::Component" = type { i32, i32 }
%"class.std::__1::unique_ptr" = type { %"class.std::__1::__compressed_pair" }
%"class.std::__1::__compressed_pair" = type { %"struct.std::__1::__compressed_pair_elem" }
%"struct.std::__1::__compressed_pair_elem" = type { %"class.blink::KURL"* }
%"class.blink::Member.7" = type { %"class.blink::MemberBase.8" }
%"class.blink::MemberBase.8" = type { %"class.blink::FetchHeaderList"* }
%"class.blink::FetchHeaderList" = type { %"class.std::__1::multimap" }
%"class.std::__1::multimap" = type { %"class.std::__1::__tree" }
%"class.std::__1::__tree" = type { %"class.std::__1::__tree_end_node"*, %"class.std::__1::__compressed_pair.11", %"class.std::__1::__compressed_pair.14" }
%"class.std::__1::__tree_end_node" = type { %"class.std::__1::__tree_node_base"* }
%"class.std::__1::__tree_node_base" = type <{ %"class.std::__1::__tree_end_node", %"class.std::__1::__tree_node_base"*, %"class.std::__1::__tree_end_node"*, i8, [7 x i8] }>
%"class.std::__1::__compressed_pair.11" = type { %"struct.std::__1::__compressed_pair_elem.12" }
%"struct.std::__1::__compressed_pair_elem.12" = type { %"class.std::__1::__tree_end_node" }
%"class.std::__1::__compressed_pair.14" = type { %"struct.std::__1::__compressed_pair_elem.15" }
%"class.blink::Member.23" = type { %"class.blink::MemberBase.24" }
%"class.blink::MemberBase.24" = type { %"class.blink::BodyStreamBuffer"* }
%"class.blink::BodyStreamBuffer" = type <{ %"class.blink::UnderlyingSourceBase", %"class.blink::BytesConsumer::Client", %"class.blink::Member.33", %"class.blink::Member.232", %"class.blink::Member.234", %"class.blink::Member.236", %"class.blink::Member.240", %"class.blink::Member.244", %"class.blink::Member.285", %class.scoped_refptr.287, i8, i8, i8, i8, [4 x i8] }>
%"class.blink::UnderlyingSourceBase" = type { %"class.blink::ScriptWrappable", %"class.blink::ExecutionContextLifecycleObserver.base", %"class.blink::Member.31" }
%"class.blink::ExecutionContextLifecycleObserver.base" = type <{ %"class.blink::ContextLifecycleObserver", i32 }>
%"class.blink::ContextLifecycleObserver" = type { %"class.blink::GarbageCollectedMixin", %"class.blink::WeakMember.25" }
%"class.blink::WeakMember.25" = type { %"class.blink::MemberBase.26" }
%"class.blink::MemberBase.26" = type { %"class.blink::ContextLifecycleNotifier"* }
%"class.blink::Member.31" = type { %"class.blink::MemberBase.32" }
%"class.blink::MemberBase.32" = type { %"class.blink::ReadableStreamDefaultControllerWithScriptScope"* }
%"class.blink::ReadableStreamDefaultControllerWithScriptScope" = type opaque
%"class.blink::BytesConsumer::Client" = type { %"class.blink::GarbageCollectedMixin" }
%"class.blink::Member.232" = type { %"class.blink::MemberBase.233" }
%"class.blink::MemberBase.233" = type { %"class.blink::ReadableStream"* }
%"class.blink::ReadableStream" = type opaque
%"class.blink::Member.234" = type { %"class.blink::MemberBase.235" }
%"class.blink::MemberBase.235" = type { %"class.blink::BytesUploader"* }
%"class.blink::BytesUploader" = type opaque
%"class.blink::Member.236" = type { %"class.blink::MemberBase.237" }
%"class.blink::MemberBase.237" = type { %"class.blink::BytesConsumer"* }
%"class.blink::BytesConsumer" = type { i32 (...)** }
%"class.blink::Member.240" = type { %"class.blink::MemberBase.241" }
%"class.blink::MemberBase.241" = type { %"class.blink::FetchDataLoader"* }
%"class.blink::FetchDataLoader" = type { i32 (...)** }
%"class.blink::Member.244" = type { %"class.blink::MemberBase.245" }
%"class.blink::MemberBase.245" = type { %"class.blink::AbortSignal"* }
%"class.blink::AbortSignal" = type { %"class.blink::EventTargetWithInlineData", i8, %"class.WTF::Vector.266", %"class.blink::HeapVector.277", %"class.blink::Member.284" }
%"class.blink::EventTargetWithInlineData" = type { %"class.blink::EventTarget", %"class.blink::EventTargetData" }
%"class.blink::EventTarget" = type { %"class.blink::ScriptWrappable" }
%"class.blink::EventTargetData" = type { %"class.blink::EventListenerMap", %"class.std::__1::unique_ptr.259" }
%"class.blink::EventListenerMap" = type { %"class.blink::HeapVector" }
%"class.blink::HeapVector" = type { %"class.WTF::Vector.250" }
%"class.WTF::Vector.250" = type { %"class.WTF::VectorBuffer.251" }
%"class.WTF::VectorBuffer.251" = type { %"class.WTF::VectorBufferBase.252", [32 x i8] }
%"class.WTF::VectorBufferBase.252" = type { %"struct.std::__1::pair.253"*, i32, i32 }
%"struct.std::__1::pair.253" = type { %"class.WTF::AtomicString", %"class.blink::Member.254" }
%"class.blink::Member.254" = type { %"class.blink::MemberBase.255" }
%"class.blink::MemberBase.255" = type { %"class.blink::HeapVector.256"* }
%"class.blink::HeapVector.256" = type opaque
%"class.std::__1::unique_ptr.259" = type { %"class.std::__1::__compressed_pair.260" }
%"class.std::__1::__compressed_pair.260" = type { %"struct.std::__1::__compressed_pair_elem.261" }
%"struct.std::__1::__compressed_pair_elem.261" = type { %"class.WTF::Vector.262"* }
%"class.WTF::Vector.262" = type opaque
%"class.WTF::Vector.266" = type { %"class.WTF::VectorBuffer.267" }
%"class.WTF::VectorBuffer.267" = type { %"class.WTF::VectorBufferBase.268" }
%"class.WTF::VectorBufferBase.268" = type { %"class.base::OnceCallback"*, i32, i32 }
%"class.base::OnceCallback" = type { %"class.base::internal::CallbackBase" }
%"class.base::internal::CallbackBase" = type { %class.scoped_refptr.269 }
%class.scoped_refptr.269 = type { %"class.base::internal::BindStateBase"* }
%"class.base::internal::BindStateBase" = type { %"class.base::RefCountedThreadSafe", void ()*, void (%"class.base::internal::BindStateBase"*)*, i1 (%"class.base::internal::BindStateBase"*, i32)* }
%"class.base::RefCountedThreadSafe" = type { %"class.base::subtle::RefCountedThreadSafeBase" }
%"class.base::subtle::RefCountedThreadSafeBase" = type { %"class.base::AtomicRefCount" }
%"class.base::AtomicRefCount" = type { %"struct.std::__1::atomic.270" }
%"class.blink::HeapVector.277" = type { %"class.WTF::Vector.280" }
%"class.WTF::Vector.280" = type { %"class.WTF::VectorBuffer.281" }
%"class.WTF::VectorBuffer.281" = type { %"class.WTF::VectorBufferBase.282" }
%"class.WTF::VectorBufferBase.282" = type { %"class.blink::Member.244"*, i32, i32 }
%"class.blink::Member.285" = type { %"class.blink::MemberBase.286" }
%"class.blink::MemberBase.286" = type { %"class.blink::ScriptCachedMetadataHandler"* }
%"class.blink::ScriptCachedMetadataHandler" = type opaque
%class.scoped_refptr.287 = type { %"class.blink::BlobDataHandle"* }
%"class.blink::BlobDataHandle" = type { %"class.WTF::ThreadSafeRefCounted", %"class.WTF::String", %"class.WTF::String", i64, i8, %"class.mojo::PendingRemote", %"class.WTF::Mutex" }
%"class.WTF::ThreadSafeRefCounted" = type { %"class.base::RefCountedThreadSafe.288" }
%"class.base::RefCountedThreadSafe.288" = type { %"class.base::subtle::RefCountedThreadSafeBase" }
%"class.mojo::PendingRemote" = type { %"struct.mojo::internal::PendingRemoteState" }
%"struct.mojo::internal::PendingRemoteState" = type { %"class.mojo::ScopedHandleBase", i32 }
%"class.mojo::ScopedHandleBase" = type { %"class.mojo::MessagePipeHandle" }
%"class.mojo::MessagePipeHandle" = type { %"class.mojo::Handle" }
%"class.mojo::Handle" = type { i32 }
%"class.base::Time" = type { %"class.base::time_internal::TimeBase.343" }
%"class.base::time_internal::TimeBase.343" = type { i64 }
%"class.std::__1::set" = type { %"class.std::__1::__tree.344" }
%"class.std::__1::__tree.344" = type { %"class.std::__1::__tree_end_node"*, %"class.std::__1::__compressed_pair.345", %"class.std::__1::__compressed_pair.349" }
%"class.std::__1::__compressed_pair.345" = type { %"struct.std::__1::__compressed_pair_elem.12" }
%"class.std::__1::__compressed_pair.349" = type { %"struct.std::__1::__compressed_pair_elem.15" }
%"class.WTF::AtomicString" = type { %"class.WTF::String" }
%"class.std::__1::unique_ptr.351" = type { %"class.std::__1::__compressed_pair.352" }
%"class.std::__1::__compressed_pair.352" = type { %"struct.std::__1::__compressed_pair_elem.353" }
%"struct.std::__1::__compressed_pair_elem.353" = type { %"class.net::AuthChallengeInfo"* }
%"class.net::AuthChallengeInfo" = type { i8, %"class.url::Origin", %"class.std::__1::basic_string", %"class.std::__1::basic_string", %"class.std::__1::basic_string", %"class.std::__1::basic_string" }
%"class.url::Origin" = type { %"class.url::SchemeHostPort", %"class.absl::optional.360" }
%"class.url::SchemeHostPort" = type <{ %"class.std::__1::basic_string", %"class.std::__1::basic_string", i16, [6 x i8] }>
%"class.std::__1::basic_string" = type { %"class.std::__1::__compressed_pair.354" }
%"class.std::__1::__compressed_pair.354" = type { %"struct.std::__1::__compressed_pair_elem.355" }
%"struct.std::__1::__compressed_pair_elem.355" = type { %"struct.std::__1::basic_string<char, std::__1::char_traits<char>, std::__1::allocator<char> >::__rep" }
%"struct.std::__1::basic_string<char, std::__1::char_traits<char>, std::__1::allocator<char> >::__rep" = type { %union.anon.356 }
%union.anon.356 = type { %"struct.std::__1::basic_string<char, std::__1::char_traits<char>, std::__1::allocator<char> >::__long" }
%"struct.std::__1::basic_string<char, std::__1::char_traits<char>, std::__1::allocator<char> >::__long" = type { i8*, i64, i64 }
%"class.blink::Member.291" = type { %"class.blink::MemberBase.292" }
%"class.blink::MemberBase.292" = type { %"class.blink::Headers"* }
%"class.blink::Headers" = type <{ %"class.blink::ScriptWrappable", %"class.blink::PairIterable", %"class.blink::Member.7", i32, [4 x i8] }>
%"class.blink::PairIterable" = type { %"class.blink::Iterable" }
%"class.blink::Iterable" = type { i32 (...)** }
%"class.blink::Member.302" = type { %"class.blink::MemberBase.303" }
%"class.blink::MemberBase.303" = type { %"class.blink::DOMException"* }
%"class.blink::DOMException" = type { %"class.blink::ScriptWrappable", i16, %"class.WTF::String", %"class.WTF::String", %"class.WTF::String" }
%"class.blink::HeapVector.304" = type { %"class.WTF::Vector.307" }
%"class.WTF::Vector.307" = type { %"class.WTF::VectorBuffer.308" }
%"class.WTF::VectorBuffer.308" = type { %"class.WTF::VectorBufferBase.309" }
%"class.WTF::VectorBufferBase.309" = type { %"class.blink::Member.310"*, i32, i32 }
%"class.blink::Member.310" = type { %"class.blink::MemberBase.311" }
%"class.blink::MemberBase.311" = type { %"class.blink::ScriptPromiseResolver"* }
%"class.blink::ScriptPromiseResolver" = type { %"class.blink::ExecutionContextLifecycleObserver.base", %"class.blink::ThreadState::PrefinalizerRegistration", i32, %"class.blink::Member.33", %"class.blink::TaskHandle", %"class.blink::ScriptPromise::InternalResolver", %"class.blink::TraceWrapperV8Reference.315", %"class.blink::SelfKeepAlive.319" }
%"class.blink::ThreadState::PrefinalizerRegistration" = type { i8 }
%"class.blink::TaskHandle" = type { %class.scoped_refptr.314 }
%class.scoped_refptr.314 = type { %"class.blink::TaskHandle::Runner"* }
%"class.blink::TaskHandle::Runner" = type opaque
%"class.blink::ScriptPromise::InternalResolver" = type { %"class.blink::Member.33", %"class.blink::ScriptValue" }
%"class.blink::ScriptValue" = type { %"class.v8::Isolate"*, %"class.blink::WorldSafeV8Reference" }
%"class.blink::WorldSafeV8Reference" = type { %"class.blink::TraceWrapperV8Reference.315", %class.scoped_refptr.318 }
%class.scoped_refptr.318 = type { %"class.blink::DOMWrapperWorld"* }
%"class.blink::TraceWrapperV8Reference.315" = type { %"class.v8::TracedReference.316" }
%"class.v8::TracedReference.316" = type { %"class.v8::BasicTracedReference.317" }
%"class.v8::BasicTracedReference.317" = type { %"class.v8::TracedReferenceBase" }
%"class.blink::SelfKeepAlive.319" = type { %"class.blink::Persistent.320" }
%"class.blink::Persistent.320" = type { %"class.blink::PersistentBase.321" }
%"class.blink::PersistentBase.321" = type { %"class.blink::ScriptPromiseResolver"*, %"class.blink::PersistentNodePtr" }
%"class.blink::HeapVector.323" = type { %"class.WTF::Vector.326" }
%"class.WTF::Vector.326" = type { %"class.WTF::VectorBuffer.327" }
%"class.WTF::VectorBuffer.327" = type { %"class.WTF::VectorBufferBase.328" }
%"class.WTF::VectorBufferBase.328" = type { %"class.blink::ScriptPromise"*, i32, i32 }
%"class.blink::ScriptPromise" = type { %"class.blink::Member.33", %"class.blink::ScriptValue" }
%"class.blink::Member.33" = type { %"class.blink::MemberBase.34" }
%"class.blink::MemberBase.34" = type { %"class.blink::ScriptState"* }
%"class.blink::Request" = type { %"class.blink::ScriptWrappable", %"class.blink::ActiveScriptWrappable", %"class.blink::Body", %"class.blink::Member.1", %"class.blink::Member.291", %"class.blink::Member.244" }
%"class.blink::ActiveScriptWrappable" = type { %"class.blink::ActiveScriptWrappableBase" }
%"class.blink::Member.1" = type { %"class.blink::MemberBase.2" }
%"class.blink::MemberBase.2" = type { %"class.blink::FetchRequestData"* }
%"class.blink::FetchRequestData" = type <{ %"class.WTF::AtomicString", %"class.blink::KURL", %"class.blink::Member.7", i32, [4 x i8], %class.scoped_refptr.17, %class.scoped_refptr.17, %"class.WTF::AtomicString", i32, i32, i32, i32, i32, i32, %"class.absl::optional", %"class.blink::Member.23", %"class.WTF::String", %"class.WTF::String", i32, i8, i8, [2 x i8], %"class.blink::HeapMojoRemote", %"class.base::UnguessableToken", %"class.blink::Member.284", i8, [7 x i8] }>
%"class.absl::optional" = type { %"class.absl::optional_internal::optional_data" }
%"class.absl::optional_internal::optional_data" = type { %"class.absl::optional_internal::optional_data_base" }
%"class.absl::optional_internal::optional_data_base" = type { %"class.absl::optional_internal::optional_data_dtor_base" }
%"class.absl::optional_internal::optional_data_dtor_base" = type { i8, %union.anon }
%union.anon = type { %"class.network::mojom::blink::TrustTokenParams" }
%"class.network::mojom::blink::TrustTokenParams" = type { i32, i32, i32, i8, %"class.WTF::Vector", %"class.WTF::Vector.18", %"class.WTF::String" }
%"class.WTF::Vector" = type { %"class.WTF::VectorBuffer" }
%"class.WTF::VectorBuffer" = type { %"class.WTF::VectorBufferBase" }
%"class.WTF::VectorBufferBase" = type { %class.scoped_refptr.17*, i32, i32 }
%"class.WTF::Vector.18" = type { %"class.WTF::VectorBuffer.19" }
%"class.WTF::VectorBuffer.19" = type { %"class.WTF::VectorBufferBase.20" }
%"class.WTF::VectorBufferBase.20" = type { %"class.WTF::String"*, i32, i32 }
%"class.blink::HeapMojoRemote" = type { %"class.blink::Member.289" }
%"class.blink::Member.289" = type { %"class.blink::MemberBase.290" }
%"class.blink::MemberBase.290" = type { %"class.blink::HeapMojoRemote<network::mojom::blink::URLLoaderFactory, blink::HeapMojoWrapperMode::kWithContextObserver>::Wrapper"* }
%"class.blink::HeapMojoRemote<network::mojom::blink::URLLoaderFactory, blink::HeapMojoWrapperMode::kWithContextObserver>::Wrapper" = type { %"class.blink::ContextLifecycleObserver", %"class.mojo::Remote" }
%"class.mojo::Remote" = type { %"class.mojo::internal::InterfacePtrState" }
%"class.mojo::internal::InterfacePtrState" = type { %"class.mojo::internal::InterfacePtrStateBase.base", %"class.std::__1::unique_ptr.712" }
%"class.mojo::internal::InterfacePtrStateBase.base" = type <{ %class.scoped_refptr.546, %"class.std::__1::unique_ptr.662", %"class.mojo::ScopedHandleBase", [4 x i8], %class.scoped_refptr.548, i32 }>
%class.scoped_refptr.546 = type { %"class.mojo::internal::MultiplexRouter"* }
%"class.mojo::internal::MultiplexRouter" = type <{ %"class.mojo::MessageReceiver", %"class.mojo::AssociatedGroupController.base", [4 x i8], %"class.mojo::PipeControlMessageHandlerDelegate", i32, i8, [3 x i8], %class.scoped_refptr.548, %"class.mojo::MessageHeaderValidator"*, %"class.mojo::MessageDispatcher", %"class.mojo::Connector", %"class.mojo::ScopedHandleBase", [4 x i8], %"class.absl::optional.628", %"class.absl::optional.633", %"class.absl::optional.588", %"class.mojo::PipeControlMessageHandler", %"class.mojo::PipeControlMessageProxy", %"class.base::small_map", i32, [4 x i8], %"class.base::circular_deque", %"class.std::__1::map.653", i8, [7 x i8], %class.scoped_refptr.548, i8, i8, i8, i8, i8, [3 x i8] }>
%"class.mojo::MessageReceiver" = type { i32 (...)** }
%"class.mojo::AssociatedGroupController.base" = type <{ i32 (...)**, %"class.base::RefCountedThreadSafe.547" }>
%"class.base::RefCountedThreadSafe.547" = type { %"class.base::subtle::RefCountedThreadSafeBase" }
%"class.mojo::PipeControlMessageHandlerDelegate" = type { i32 (...)** }
%"class.mojo::MessageHeaderValidator" = type { %"class.mojo::MessageReceiver", %"class.std::__1::basic_string" }
%"class.mojo::MessageDispatcher" = type { %"class.mojo::MessageReceiver", %"class.std::__1::unique_ptr.550", %"class.std::__1::unique_ptr.556", %"class.mojo::MessageReceiver"*, %"class.base::WeakPtrFactory" }
%"class.std::__1::unique_ptr.550" = type { %"class.std::__1::__compressed_pair.551" }
%"class.std::__1::__compressed_pair.551" = type { %"struct.std::__1::__compressed_pair_elem.552" }
%"struct.std::__1::__compressed_pair_elem.552" = type { %"class.mojo::MessageReceiver"* }
%"class.std::__1::unique_ptr.556" = type { %"class.std::__1::__compressed_pair.557" }
%"class.std::__1::__compressed_pair.557" = type { %"struct.std::__1::__compressed_pair_elem.558" }
%"struct.std::__1::__compressed_pair_elem.558" = type { %"class.mojo::MessageFilter"* }
%"class.mojo::MessageFilter" = type { i32 (...)** }
%"class.base::WeakPtrFactory" = type { %"class.base::internal::WeakPtrFactoryBase" }
%"class.base::internal::WeakPtrFactoryBase" = type { %"class.base::internal::WeakReferenceOwner", i64 }
%"class.base::internal::WeakReferenceOwner" = type { %class.scoped_refptr.562 }
%class.scoped_refptr.562 = type { %"class.base::internal::WeakReference::Flag"* }
%"class.base::internal::WeakReference::Flag" = type <{ %"class.base::RefCountedThreadSafe.563", %"class.base::AtomicFlag", [3 x i8] }>
%"class.base::RefCountedThreadSafe.563" = type { %"class.base::subtle::RefCountedThreadSafeBase" }
%"class.base::AtomicFlag" = type { %"struct.std::__1::atomic.564" }
%"struct.std::__1::atomic.564" = type { %"struct.std::__1::__atomic_base.565" }
%"struct.std::__1::__atomic_base.565" = type { %"struct.std::__1::__atomic_base.566" }
%"struct.std::__1::__atomic_base.566" = type { %"struct.std::__1::__cxx_atomic_impl.567" }
%"struct.std::__1::__cxx_atomic_impl.567" = type { %"struct.std::__1::__cxx_atomic_base_impl.568" }
%"struct.std::__1::__cxx_atomic_base_impl.568" = type { i8 }
%"class.mojo::Connector" = type { %"class.mojo::MessageReceiver", %"class.base::OnceCallback", %"class.mojo::ScopedHandleBase", %"class.mojo::MessageReceiver"*, %class.scoped_refptr.548, %"class.std::__1::unique_ptr.569", %"class.absl::optional.578", %"struct.std::__1::atomic.224", i8, i8, i8, i8, i32, i32, %"class.absl::optional.588", %"class.std::__1::unique_ptr.593", i8, i64, %class.scoped_refptr.624, %"class.base::Lock", i8, i8*, %"class.mojo::Connector::RunLoopNestingObserver"*, i8, i64, %"class.mojo::ConnectionGroup::Ref", %"class.base::WeakPtr", %"class.base::WeakPtrFactory.627" }
%"class.std::__1::unique_ptr.569" = type { %"class.std::__1::__compressed_pair.570" }
%"class.std::__1::__compressed_pair.570" = type { %"struct.std::__1::__compressed_pair_elem.571" }
%"struct.std::__1::__compressed_pair_elem.571" = type { %"class.mojo::SimpleWatcher"* }
%"class.mojo::SimpleWatcher" = type { i32, %class.scoped_refptr.548, i8, %"class.mojo::ScopedHandleBase.572", %class.scoped_refptr.573, %"class.mojo::Handle", i32, %"class.base::RepeatingCallback", i8*, %"class.base::WeakPtrFactory.574" }
%"class.mojo::ScopedHandleBase.572" = type { %"class.mojo::TrapHandle" }
%"class.mojo::TrapHandle" = type { %"class.mojo::Handle" }
%class.scoped_refptr.573 = type { %"class.mojo::SimpleWatcher::Context"* }
%"class.mojo::SimpleWatcher::Context" = type opaque
%"class.base::RepeatingCallback" = type { %"class.base::internal::CallbackBaseCopyable" }
%"class.base::internal::CallbackBaseCopyable" = type { %"class.base::internal::CallbackBase" }
%"class.base::WeakPtrFactory.574" = type { %"class.base::internal::WeakPtrFactoryBase" }
%"class.absl::optional.578" = type { %"class.absl::optional_internal::optional_data.579" }
%"class.absl::optional_internal::optional_data.579" = type { %"class.absl::optional_internal::optional_data_base.580" }
%"class.absl::optional_internal::optional_data_base.580" = type { %"class.absl::optional_internal::optional_data_dtor_base.581" }
%"class.absl::optional_internal::optional_data_dtor_base.581" = type { i8, %union.anon.582 }
%union.anon.582 = type { %"class.mojo::HandleSignalTracker" }
%"class.mojo::HandleSignalTracker" = type { %"class.base::RepeatingCallback.583", %"struct.mojo::HandleSignalsState", %"class.mojo::SimpleWatcher", %"class.mojo::SimpleWatcher" }
%"class.base::RepeatingCallback.583" = type { %"class.base::internal::CallbackBaseCopyable" }
%"struct.mojo::HandleSignalsState" = type { %struct.MojoHandleSignalsState }
%struct.MojoHandleSignalsState = type { i32, i32 }
%"class.std::__1::unique_ptr.593" = type { %"class.std::__1::__compressed_pair.594" }
%"class.std::__1::__compressed_pair.594" = type { %"struct.std::__1::__compressed_pair_elem.595" }
%"struct.std::__1::__compressed_pair_elem.595" = type { %"class.mojo::SyncHandleWatcher"* }
%"class.mojo::SyncHandleWatcher" = type { %"class.mojo::Handle", i32, %"class.base::RepeatingCallback.596", i8, i64, %class.scoped_refptr.597, %class.scoped_refptr.620 }
%"class.base::RepeatingCallback.596" = type { %"class.base::internal::CallbackBaseCopyable" }
%class.scoped_refptr.597 = type { %"class.mojo::SyncHandleRegistry"* }
%"class.mojo::SyncHandleRegistry" = type <{ %"class.base::RefCounted.598", [4 x i8], %"class.mojo::WaitSet", %"class.std::__1::map", %"class.std::__1::map.609", i8, [7 x i8] }>
%"class.base::RefCounted.598" = type { %"class.base::subtle::RefCountedBase" }
%"class.mojo::WaitSet" = type { %class.scoped_refptr.599 }
%class.scoped_refptr.599 = type { %"class.mojo::WaitSet::State"* }
%"class.mojo::WaitSet::State" = type opaque
%"class.std::__1::map" = type { %"class.std::__1::__tree.600" }
%"class.std::__1::__tree.600" = type { %"class.std::__1::__tree_end_node"*, %"class.std::__1::__compressed_pair.601", %"class.std::__1::__compressed_pair.605" }
%"class.std::__1::__compressed_pair.601" = type { %"struct.std::__1::__compressed_pair_elem.12" }
%"class.std::__1::__compressed_pair.605" = type { %"struct.std::__1::__compressed_pair_elem.15" }
%"class.std::__1::map.609" = type { %"class.std::__1::__tree.610" }
%"class.std::__1::__tree.610" = type { %"class.std::__1::__tree_end_node"*, %"class.std::__1::__compressed_pair.611", %"class.std::__1::__compressed_pair.615" }
%"class.std::__1::__compressed_pair.611" = type { %"struct.std::__1::__compressed_pair_elem.12" }
%"class.std::__1::__compressed_pair.615" = type { %"struct.std::__1::__compressed_pair_elem.15" }
%class.scoped_refptr.620 = type { %"class.base::RefCountedData"* }
%"class.base::RefCountedData" = type opaque
%class.scoped_refptr.624 = type { %"class.mojo::internal::MessageQuotaChecker"* }
%"class.mojo::internal::MessageQuotaChecker" = type opaque
%"class.mojo::Connector::RunLoopNestingObserver" = type opaque
%"class.mojo::ConnectionGroup::Ref" = type { i32, %class.scoped_refptr.625 }
%class.scoped_refptr.625 = type { %"class.mojo::ConnectionGroup"* }
%"class.mojo::ConnectionGroup" = type <{ i32 (...)**, %"class.base::RefCountedThreadSafe.718", [4 x i8], %"class.base::RepeatingCallback.665", %class.scoped_refptr.548, %"class.mojo::ConnectionGroup::Ref", %"struct.std::__1::atomic", [4 x i8] }>
%"class.base::RefCountedThreadSafe.718" = type { %"class.base::subtle::RefCountedThreadSafeBase" }
%"class.base::RepeatingCallback.665" = type { %"class.base::internal::CallbackBaseCopyable" }
%"class.base::WeakPtr" = type { %"class.base::internal::WeakPtrBase" }
%"class.base::internal::WeakPtrBase" = type { %"class.base::internal::WeakReference", i64 }
%"class.base::internal::WeakReference" = type { %class.scoped_refptr.626 }
%class.scoped_refptr.626 = type { %"class.base::internal::WeakReference::Flag"* }
%"class.base::WeakPtrFactory.627" = type { %"class.base::internal::WeakPtrFactoryBase" }
%"class.absl::optional.628" = type { %"class.absl::optional_internal::optional_data.629" }
%"class.absl::optional_internal::optional_data.629" = type { %"class.absl::optional_internal::optional_data_base.630" }
%"class.absl::optional_internal::optional_data_base.630" = type { %"class.absl::optional_internal::optional_data_dtor_base.631" }
%"class.absl::optional_internal::optional_data_dtor_base.631" = type { i8, %union.anon.632 }
%union.anon.632 = type { %"class.mojo::SimpleWatcher" }
%"class.absl::optional.633" = type { %"class.absl::optional_internal::optional_data.634" }
%"class.absl::optional_internal::optional_data.634" = type { %"class.absl::optional_internal::optional_data_base.635" }
%"class.absl::optional_internal::optional_data_base.635" = type { %"class.absl::optional_internal::optional_data_dtor_base.636" }
%"class.absl::optional_internal::optional_data_dtor_base.636" = type { i8, [7 x i8], %union.anon.637 }
%union.anon.637 = type { %"struct.mojo::internal::MultiplexRouter::ExclusiveSyncWaitInfo" }
%"struct.mojo::internal::MultiplexRouter::ExclusiveSyncWaitInfo" = type <{ i32, [4 x i8], i64, i8, [7 x i8] }>
%"class.absl::optional.588" = type { %"class.absl::optional_internal::optional_data.589" }
%"class.absl::optional_internal::optional_data.589" = type { %"class.absl::optional_internal::optional_data_base.590" }
%"class.absl::optional_internal::optional_data_base.590" = type { %"class.absl::optional_internal::optional_data_dtor_base.591" }
%"class.absl::optional_internal::optional_data_dtor_base.591" = type { i8, %union.anon.592 }
%union.anon.592 = type { %"class.base::Lock" }
%"class.mojo::PipeControlMessageHandler" = type { %"class.mojo::MessageReceiver", %"class.std::__1::basic_string", %"class.mojo::PipeControlMessageHandlerDelegate"* }
%"class.mojo::PipeControlMessageProxy" = type { %"class.mojo::MessageReceiver"* }
%"class.base::small_map" = type { i64, %"class.base::internal::small_map_default_init", %union.anon.638 }
%"class.base::internal::small_map_default_init" = type { i8 }
%union.anon.638 = type { %"class.std::__1::map.641" }
%"class.std::__1::map.641" = type { %"class.std::__1::__tree.642" }
%"class.std::__1::__tree.642" = type { %"class.std::__1::__tree_end_node"*, %"class.std::__1::__compressed_pair.643", %"class.std::__1::__compressed_pair.647" }
%"class.std::__1::__compressed_pair.643" = type { %"struct.std::__1::__compressed_pair_elem.12" }
%"class.std::__1::__compressed_pair.647" = type { %"struct.std::__1::__compressed_pair_elem.15" }
%"class.base::circular_deque" = type { %"class.base::internal::VectorBuffer", i64, i64 }
%"class.base::internal::VectorBuffer" = type { %"class.std::__1::unique_ptr.652"*, i64 }
%"class.std::__1::unique_ptr.652" = type opaque
%"class.std::__1::map.653" = type { %"class.std::__1::__tree.654" }
%"class.std::__1::__tree.654" = type { %"class.std::__1::__tree_end_node"*, %"class.std::__1::__compressed_pair.655", %"class.std::__1::__compressed_pair.659" }
%"class.std::__1::__compressed_pair.655" = type { %"struct.std::__1::__compressed_pair_elem.12" }
%"class.std::__1::__compressed_pair.659" = type { %"struct.std::__1::__compressed_pair_elem.15" }
%"class.std::__1::unique_ptr.662" = type { %"class.std::__1::__compressed_pair.663" }
%"class.std::__1::__compressed_pair.663" = type { %"struct.std::__1::__compressed_pair_elem.664" }
%"struct.std::__1::__compressed_pair_elem.664" = type { %"class.mojo::InterfaceEndpointClient"* }
%"class.mojo::InterfaceEndpointClient" = type { %"class.mojo::MessageReceiverWithResponder", i8, %"class.base::RepeatingCallback.665", %"class.base::OnceCallback.666", %"class.absl::optional.667", %"class.absl::optional.672", %"class.mojo::ConnectionGroup::Ref", i32, %"class.mojo::ScopedInterfaceEndpointHandle", %"class.std::__1::unique_ptr.679", %"class.mojo::InterfaceEndpointController"*, %"class.mojo::MessageReceiverWithResponderStatus"*, %"class.mojo::InterfaceEndpointClient::HandleIncomingMessageThunk", %"class.mojo::MessageDispatcher", %"class.std::__1::map.687", %"class.std::__1::map.698", i64, %"class.base::OnceCallback", %"class.base::OnceCallback.707", i8, %class.scoped_refptr.548, %"class.mojo::internal::ControlMessageProxy", %"class.mojo::internal::ControlMessageHandler", i8*, %"class.base::WeakPtrFactory.708" }
%"class.mojo::MessageReceiverWithResponder" = type { %"class.mojo::MessageReceiver" }
%"class.base::OnceCallback.666" = type { %"class.base::internal::CallbackBase" }
%"class.absl::optional.667" = type { %"class.absl::optional_internal::optional_data.668" }
%"class.absl::optional_internal::optional_data.668" = type { %"class.absl::optional_internal::optional_data_base.669" }
%"class.absl::optional_internal::optional_data_base.669" = type { %"class.absl::optional_internal::optional_data_dtor_base.670" }
%"class.absl::optional_internal::optional_data_dtor_base.670" = type { i8, %union.anon.671 }
%union.anon.671 = type { %"class.base::TimeDelta" }
%"class.base::TimeDelta" = type { i64 }
%"class.absl::optional.672" = type { %"class.absl::optional_internal::optional_data.673" }
%"class.absl::optional_internal::optional_data.673" = type { %"class.absl::optional_internal::optional_data_base.674" }
%"class.absl::optional_internal::optional_data_base.674" = type { %"class.absl::optional_internal::optional_data_dtor_base.675" }
%"class.absl::optional_internal::optional_data_dtor_base.675" = type { i8, %union.anon.676 }
%union.anon.676 = type { %"class.base::OneShotTimer" }
%"class.base::OneShotTimer" = type { %"class.base::internal::TimerBase", %"class.base::OnceCallback" }
%"class.base::internal::TimerBase" = type { i32 (...)**, %class.scoped_refptr.548, %"class.base::SequenceCheckerDoNothing", %"class.base::internal::TaskDestructionDetector"*, %"class.base::Location", %"class.base::TimeDelta", %"class.base::TimeTicks", %"class.base::TimeTicks", %"class.base::TickClock"*, i8, %"class.base::WeakPtrFactory.677" }
%"class.base::SequenceCheckerDoNothing" = type { i8 }
%"class.base::internal::TaskDestructionDetector" = type opaque
%"class.base::Location" = type { i8*, i8*, i32, i8* }
%"class.base::TickClock" = type opaque
%"class.base::WeakPtrFactory.677" = type { %"class.base::internal::WeakPtrFactoryBase" }
%"class.mojo::ScopedInterfaceEndpointHandle" = type { %class.scoped_refptr.678 }
%class.scoped_refptr.678 = type { %"class.mojo::ScopedInterfaceEndpointHandle::State"* }
%"class.mojo::ScopedInterfaceEndpointHandle::State" = type opaque
%"class.std::__1::unique_ptr.679" = type { %"class.std::__1::__compressed_pair.680" }
%"class.std::__1::__compressed_pair.680" = type { %"struct.std::__1::__compressed_pair_elem.681" }
%"struct.std::__1::__compressed_pair_elem.681" = type { %"class.mojo::AssociatedGroup"* }
%"class.mojo::AssociatedGroup" = type { %"class.base::RepeatingCallback.682", %class.scoped_refptr.683 }
%"class.base::RepeatingCallback.682" = type { %"class.base::internal::CallbackBaseCopyable" }
%class.scoped_refptr.683 = type { %"class.mojo::AssociatedGroupController"* }
%"class.mojo::AssociatedGroupController" = type <{ i32 (...)**, %"class.base::RefCountedThreadSafe.547", [4 x i8] }>
%"class.mojo::InterfaceEndpointController" = type opaque
%"class.mojo::MessageReceiverWithResponderStatus" = type { %"class.mojo::MessageReceiver" }
%"class.mojo::InterfaceEndpointClient::HandleIncomingMessageThunk" = type { %"class.mojo::MessageReceiver", %"class.mojo::InterfaceEndpointClient"* }
%"class.std::__1::map.687" = type { %"class.std::__1::__tree.688" }
%"class.std::__1::__tree.688" = type { %"class.std::__1::__tree_end_node"*, %"class.std::__1::__compressed_pair.689", %"class.std::__1::__compressed_pair.693" }
%"class.std::__1::__compressed_pair.689" = type { %"struct.std::__1::__compressed_pair_elem.12" }
%"class.std::__1::__compressed_pair.693" = type { %"struct.std::__1::__compressed_pair_elem.15" }
%"class.std::__1::map.698" = type { %"class.std::__1::__tree.699" }
%"class.std::__1::__tree.699" = type { %"class.std::__1::__tree_end_node"*, %"class.std::__1::__compressed_pair.700", %"class.std::__1::__compressed_pair.704" }
%"class.std::__1::__compressed_pair.700" = type { %"struct.std::__1::__compressed_pair_elem.12" }
%"class.std::__1::__compressed_pair.704" = type { %"struct.std::__1::__compressed_pair_elem.15" }
%"class.base::OnceCallback.707" = type { %"class.base::internal::CallbackBase" }
%"class.mojo::internal::ControlMessageProxy" = type { %"class.mojo::InterfaceEndpointClient"*, i8, %"class.base::OnceCallback" }
%"class.mojo::internal::ControlMessageHandler" = type <{ %"class.mojo::MessageReceiverWithResponderStatus", %"class.mojo::InterfaceEndpointClient"*, i32, [4 x i8] }>
%"class.base::WeakPtrFactory.708" = type { %"class.base::internal::WeakPtrFactoryBase" }
%class.scoped_refptr.548 = type { %"class.base::SequencedTaskRunner"* }
%"class.base::SequencedTaskRunner" = type { %"class.base::TaskRunner.base", [4 x i8] }
%"class.base::TaskRunner.base" = type <{ i32 (...)**, %"class.base::RefCountedThreadSafe.549" }>
%"class.base::RefCountedThreadSafe.549" = type { %"class.base::subtle::RefCountedThreadSafeBase" }
%"class.std::__1::unique_ptr.712" = type { %"class.std::__1::__compressed_pair.713" }
%"class.std::__1::__compressed_pair.713" = type { %"struct.std::__1::__compressed_pair_elem.714" }
%"struct.std::__1::__compressed_pair_elem.714" = type { %"class.network::mojom::blink::URLLoaderFactoryProxy"* }
%"class.network::mojom::blink::URLLoaderFactoryProxy" = type { %"class.network::mojom::blink::URLLoaderFactory", %"class.mojo::MessageReceiverWithResponder"* }
%"class.network::mojom::blink::URLLoaderFactory" = type { i32 (...)** }
%"class.blink::ScriptState" = type { %"class.v8::Isolate"*, %"class.blink::ScopedPersistent", %class.scoped_refptr.37, %"class.blink::Member.228", %"class.blink::SelfKeepAlive", %"class.util::TokenType" }
%"class.blink::ScopedPersistent" = type { %"class.v8::Persistent" }
%"class.v8::Persistent" = type { %"class.v8::PersistentBase" }
%"class.v8::PersistentBase" = type { %"class.v8::Context"* }
%class.scoped_refptr.37 = type { %"class.blink::DOMWrapperWorld"* }
%"class.blink::Member.228" = type { %"class.blink::MemberBase.229" }
%"class.blink::MemberBase.229" = type { %"class.blink::V8PerContextData"* }
%"class.blink::V8PerContextData" = type opaque
%"class.blink::SelfKeepAlive" = type { %"class.blink::Persistent.230" }
%"class.blink::Persistent.230" = type { %"class.blink::PersistentBase.231" }
%"class.blink::PersistentBase.231" = type { %"class.blink::ScriptState"*, %"class.blink::PersistentNodePtr" }
%"class.util::TokenType" = type { %"class.base::StrongAlias" }
%"class.base::StrongAlias" = type { %"class.base::UnguessableToken" }
%"class.logging::CheckError" = type { %"class.logging::LogMessage"* }
%"class.logging::LogMessage" = type { i32 (...)**, i32, %"class.std::__1::basic_ostringstream", i64, i8*, i32, %"class.base::ScopedClearLastErrorBase" }
%"class.std::__1::basic_ostringstream" = type { %"class.std::__1::basic_ostream.base", %"class.std::__1::basic_stringbuf", %"class.std::__1::basic_ios.base" }
%"class.std::__1::basic_ostream.base" = type { i32 (...)** }
%"class.std::__1::basic_stringbuf" = type <{ %"class.std::__1::basic_streambuf", %"class.std::__1::basic_string", i8*, i32, [4 x i8] }>
%"class.std::__1::basic_streambuf" = type { i32 (...)**, %"class.std::__1::locale", i8*, i8*, i8*, i8*, i8*, i8* }
%"class.std::__1::locale" = type { %"class.std::__1::locale::__imp"* }
%"class.std::__1::locale::__imp" = type opaque
%"class.std::__1::basic_ios.base" = type <{ %"class.std::__1::ios_base", %"class.std::__1::basic_ostream"*, i32 }>
%"class.std::__1::ios_base" = type { i32 (...)**, i32, i64, i64, i32, i32, i8*, i8*, void (i32, %"class.std::__1::ios_base"*, i32)**, i32*, i64, i64, i64*, i64, i64, i8**, i64, i64 }
%"class.std::__1::basic_ostream" = type { i32 (...)**, %"class.std::__1::basic_ios.base" }
%"class.base::ScopedClearLastErrorBase" = type { i32 }
%"class.v8::HandleScope" = type { %"class.v8::internal::Isolate"*, i64*, i64* }
%"class.v8::internal::Isolate" = type opaque
%"class.blink::ScriptState::Scope" = type { %"class.v8::HandleScope", %"class.v8::Local" }
%"class.v8::Local" = type { %"class.v8::Context"* }
%"class.mojo::StructPtr" = type { %"class.std::__1::unique_ptr.438" }
%"class.std::__1::unique_ptr.438" = type { %"class.std::__1::__compressed_pair.439" }
%"class.std::__1::__compressed_pair.439" = type { %"struct.std::__1::__compressed_pair_elem.440" }
%"struct.std::__1::__compressed_pair_elem.440" = type { %"class.blink::mojom::blink::FetchAPIResponse"* }
%"class.blink::mojom::blink::FetchAPIResponse" = type { %"class.WTF::Vector.338", i16, %"class.WTF::String", i32, i64, i32, [4 x i8], %"class.WTF::HashMap.441", %"class.WTF::String", %"class.WTF::String", %class.scoped_refptr.287, i32, %"class.base::Time", %"class.WTF::String", %"class.WTF::Vector.18", %class.scoped_refptr.287, %class.scoped_refptr.287, %"class.mojo::StructPtr.446", i32, %"class.WTF::String", i8, i8, %"class.absl::optional.530" }
%"class.WTF::HashMap.441" = type { %"class.WTF::HashTable.442" }
%"class.WTF::HashTable.442" = type <{ %"struct.WTF::KeyValuePair.445"*, i32, i32, i32, [4 x i8] }>
%"struct.WTF::KeyValuePair.445" = type { %"class.WTF::String", %"class.WTF::String" }
%"class.mojo::StructPtr.446" = type { %"class.std::__1::unique_ptr.447" }
%"class.std::__1::unique_ptr.447" = type { %"class.std::__1::__compressed_pair.448" }
%"class.std::__1::__compressed_pair.448" = type { %"struct.std::__1::__compressed_pair_elem.449" }
%"struct.std::__1::__compressed_pair_elem.449" = type { %"class.network::mojom::blink::ParsedHeaders"* }
%"class.network::mojom::blink::ParsedHeaders" = type <{ %"class.WTF::Vector.450", %"class.mojo::StructPtr.486", %"struct.network::CrossOriginEmbedderPolicy", %"struct.network::CrossOriginOpenerPolicy", i8, [7 x i8], %"class.absl::optional.498", %"class.base::TimeDelta", %"class.absl::optional.498", i32, [4 x i8], %"class.WTF::Vector.508", %"class.mojo::StructPtr.520", i8, [7 x i8] }>
%"class.WTF::Vector.450" = type { %"class.WTF::VectorBuffer.451" }
%"class.WTF::VectorBuffer.451" = type { %"class.WTF::VectorBufferBase.452" }
%"class.WTF::VectorBufferBase.452" = type { %"class.mojo::StructPtr.453"*, i32, i32 }
%"class.mojo::StructPtr.453" = type { %"class.std::__1::unique_ptr.454" }
%"class.std::__1::unique_ptr.454" = type { %"class.std::__1::__compressed_pair.455" }
%"class.std::__1::__compressed_pair.455" = type { %"struct.std::__1::__compressed_pair_elem.456" }
%"struct.std::__1::__compressed_pair_elem.456" = type { %"class.network::mojom::blink::ContentSecurityPolicy"* }
%"class.network::mojom::blink::ContentSecurityPolicy" = type { %"class.mojo::StructPtr.457", %"class.WTF::HashMap.464", %"class.WTF::HashMap.469", i8, i8, i8, i32, %"class.mojo::InlinedStructPtr", i8, %"class.WTF::Vector.18", i32, %"class.mojo::StructPtr.474", %"class.WTF::Vector.18" }
%"class.mojo::StructPtr.457" = type { %"class.std::__1::unique_ptr.458" }
%"class.std::__1::unique_ptr.458" = type { %"class.std::__1::__compressed_pair.459" }
%"class.std::__1::__compressed_pair.459" = type { %"struct.std::__1::__compressed_pair_elem.460" }
%"struct.std::__1::__compressed_pair_elem.460" = type { %"class.network::mojom::blink::CSPSource"* }
%"class.network::mojom::blink::CSPSource" = type <{ %"class.WTF::String", %"class.WTF::String", i32, [4 x i8], %"class.WTF::String", i8, i8, [6 x i8] }>
%"class.WTF::HashMap.464" = type { %"class.WTF::HashTable.465" }
%"class.WTF::HashTable.465" = type <{ %"struct.WTF::KeyValuePair.468"*, i32, i32, i32, [4 x i8] }>
%"struct.WTF::KeyValuePair.468" = type opaque
%"class.WTF::HashMap.469" = type { %"class.WTF::HashTable.470" }
%"class.WTF::HashTable.470" = type <{ %"struct.WTF::KeyValuePair.473"*, i32, i32, i32, [4 x i8] }>
%"struct.WTF::KeyValuePair.473" = type opaque
%"class.mojo::InlinedStructPtr" = type <{ %"class.network::mojom::blink::ContentSecurityPolicyHeader", i32, [4 x i8] }>
%"class.network::mojom::blink::ContentSecurityPolicyHeader" = type { %"class.WTF::String", i32, i32 }
%"class.mojo::StructPtr.474" = type { %"class.std::__1::unique_ptr.475" }
%"class.std::__1::unique_ptr.475" = type { %"class.std::__1::__compressed_pair.476" }
%"class.std::__1::__compressed_pair.476" = type { %"struct.std::__1::__compressed_pair_elem.477" }
%"struct.std::__1::__compressed_pair_elem.477" = type { %"class.network::mojom::blink::CSPTrustedTypes"* }
%"class.network::mojom::blink::CSPTrustedTypes" = type <{ %"class.WTF::Vector.18", i8, i8, [6 x i8] }>
%"class.mojo::StructPtr.486" = type { %"class.std::__1::unique_ptr.487" }
%"class.std::__1::unique_ptr.487" = type { %"class.std::__1::__compressed_pair.488" }
%"class.std::__1::__compressed_pair.488" = type { %"struct.std::__1::__compressed_pair_elem.489" }
%"struct.std::__1::__compressed_pair_elem.489" = type { %"class.network::mojom::blink::AllowCSPFromHeaderValue"* }
%"class.network::mojom::blink::AllowCSPFromHeaderValue" = type { i32, %"union.network::mojom::blink::AllowCSPFromHeaderValue::Union_" }
%"union.network::mojom::blink::AllowCSPFromHeaderValue::Union_" = type { %class.scoped_refptr.17* }
%"struct.network::CrossOriginEmbedderPolicy" = type { i32, %"class.absl::optional.493", i32, %"class.absl::optional.493" }
%"class.absl::optional.493" = type { %"class.absl::optional_internal::optional_data.494" }
%"class.absl::optional_internal::optional_data.494" = type { %"class.absl::optional_internal::optional_data_base.495" }
%"class.absl::optional_internal::optional_data_base.495" = type { %"class.absl::optional_internal::optional_data_dtor_base.496" }
%"class.absl::optional_internal::optional_data_dtor_base.496" = type { i8, %union.anon.497 }
%union.anon.497 = type { %"class.std::__1::basic_string" }
%"struct.network::CrossOriginOpenerPolicy" = type { i32, %"class.absl::optional.493", i32, %"class.absl::optional.493" }
%"class.absl::optional.498" = type { %"class.absl::optional_internal::optional_data.499" }
%"class.absl::optional_internal::optional_data.499" = type { %"class.absl::optional_internal::optional_data_base.500" }
%"class.absl::optional_internal::optional_data_base.500" = type { %"class.absl::optional_internal::optional_data_dtor_base.501" }
%"class.absl::optional_internal::optional_data_dtor_base.501" = type { i8, %union.anon.502 }
%union.anon.502 = type { %"class.WTF::Vector.503" }
%"class.WTF::Vector.503" = type { %"class.WTF::VectorBuffer.504" }
%"class.WTF::VectorBuffer.504" = type { %"class.WTF::VectorBufferBase.505" }
%"class.WTF::VectorBufferBase.505" = type { i32*, i32, i32 }
%"class.WTF::Vector.508" = type { %"class.WTF::VectorBuffer.509" }
%"class.WTF::VectorBuffer.509" = type { %"class.WTF::VectorBufferBase.510" }
%"class.WTF::VectorBufferBase.510" = type { %"class.mojo::StructPtr.511"*, i32, i32 }
%"class.mojo::StructPtr.511" = type { %"class.std::__1::unique_ptr.512" }
%"class.std::__1::unique_ptr.512" = type { %"class.std::__1::__compressed_pair.513" }
%"class.std::__1::__compressed_pair.513" = type { %"struct.std::__1::__compressed_pair_elem.514" }
%"struct.std::__1::__compressed_pair_elem.514" = type { %"class.network::mojom::blink::LinkHeader"* }
%"class.network::mojom::blink::LinkHeader" = type { %"class.blink::KURL", i32, i32, i32, %"class.WTF::String" }
%"class.mojo::StructPtr.520" = type { %"class.std::__1::unique_ptr.521" }
%"class.std::__1::unique_ptr.521" = type { %"class.std::__1::__compressed_pair.522" }
%"class.std::__1::__compressed_pair.522" = type { %"struct.std::__1::__compressed_pair_elem.523" }
%"struct.std::__1::__compressed_pair_elem.523" = type { %"class.network::mojom::blink::TimingAllowOrigin"* }
%"class.network::mojom::blink::TimingAllowOrigin" = type { i32, %"union.network::mojom::blink::TimingAllowOrigin::Union_" }
%"union.network::mojom::blink::TimingAllowOrigin::Union_" = type { %"class.WTF::Vector.18"* }
%"class.absl::optional.530" = type { %"class.absl::optional_internal::optional_data.531" }
%"class.absl::optional_internal::optional_data.531" = type { %"class.absl::optional_internal::optional_data_base.532" }
%"class.absl::optional_internal::optional_data_base.532" = type { %"class.absl::optional_internal::optional_data_dtor_base.533" }
%"class.absl::optional_internal::optional_data_dtor_base.533" = type { i8, %union.anon.534 }
%union.anon.534 = type { %"class.net::AuthChallengeInfo" }
%"class.v8::Value" = type { i8 }
%"class.logging::CheckOpResult" = type { i8* }
%"class.blink::NormalPageArena" = type { %"class.blink::BaseArena.base", [4 x i8], %"class.blink::FreeList", i8*, i64, i64 }
%"class.blink::BaseArena.base" = type <{ i32 (...)**, %"class.blink::PageStackThreadSafe", %"class.blink::PageStackThreadSafe", %"class.blink::PageStackThreadSafe", %"class.blink::PageStackThreadSafe", %"class.blink::ThreadState"*, i32 }>
%"class.blink::FreeList" = type <{ [17 x %"class.blink::FreeListEntry"*], [17 x %"class.blink::FreeListEntry"*], i32, [4 x i8] }>
%"class.blink::FreeListEntry" = type { %"class.blink::HeapObjectHeader", %"class.blink::FreeListEntry"* }
%"class.blink::PlatformAwareObjectStartBitmap" = type { %"class.blink::ObjectStartBitmap" }
%"class.blink::ObjectStartBitmap" = type { i8*, [2048 x i8] }
%"class.v8::MicrotasksScope" = type <{ %"class.v8::internal::Isolate"*, %"class.v8::internal::MicrotaskQueue"*, i8, [7 x i8] }>
%"class.v8::internal::MicrotaskQueue" = type opaque
%"class.blink::ExecutionContextLifecycleObserver" = type <{ %"class.blink::ContextLifecycleObserver", i32, [4 x i8] }>
%"class.blink::HeapVectorBacking" = type { i8 }
%"class.blink::HeapVectorBacking.761" = type { i8 }

$_ZN5blink21ScriptPromisePropertyINS_6MemberINS_8ResponseEEENS1_INS_12DOMExceptionEEEE6RejectIPS4_EEvT_ = comdat any

$_ZN5blink21ScriptPromisePropertyINS_6MemberINS_8ResponseEEENS1_INS_12DOMExceptionEEEE7ResolveIPS2_EEvT_ = comdat any

$_ZN5blink21ScriptPromisePropertyINS_6MemberINS_8ResponseEEENS1_INS_12DOMExceptionEEEE7PromiseERNS_15DOMWrapperWorldE = comdat any

$_ZNK5blink15ScriptWrappable18HasPendingActivityEv = comdat any

$_ZNK5blink15ScriptWrappable17HasEventListenersEv = comdat any

$_ZNK5blink21BackgroundFetchRecord18GetWrapperTypeInfoEv = comdat any

$_ZN5blink10TraceTraitINS_11ScriptStateEE5TraceEPNS_7VisitorEPKv = comdat any

$_ZN5blink10ThreadHeap8AllocateINS_21ScriptPromisePropertyINS_6MemberINS_8ResponseEEENS3_INS_12DOMExceptionEEEEEEEPhm = comdat any

$_ZN5blink10ThreadHeap20AllocateOnArenaIndexEPNS_11ThreadStateEmijPKc = comdat any

$_ZN5blink10TraceTraitINS_21ScriptPromisePropertyINS_6MemberINS_8ResponseEEENS2_INS_12DOMExceptionEEEEEE5TraceEPNS_7VisitorEPKv = comdat any

$_ZN5blink9NameTraitINS_21ScriptPromisePropertyINS_6MemberINS_8ResponseEEENS2_INS_12DOMExceptionEEEEEE7GetNameEPKv = comdat any

$_ZNK5blink21ScriptPromisePropertyINS_6MemberINS_8ResponseEEENS1_INS_12DOMExceptionEEEE5TraceEPNS_7VisitorE = comdat any

$_ZN5blink10TraceTraitINS_8ResponseEE5TraceEPNS_7VisitorEPKv = comdat any

$_ZN5blink10TraceTraitINS_12DOMExceptionEE5TraceEPNS_7VisitorEPKv = comdat any

$_ZN5blink10TraceTraitINS_17HeapVectorBackingINS_6MemberINS_21ScriptPromiseResolverEEEN3WTF12VectorTraitsIS4_EEEEE5TraceEPNS_7VisitorEPKv = comdat any

$_ZN5blink10TraceTraitINS_21ScriptPromiseResolverEE5TraceEPNS_7VisitorEPKv = comdat any

$_ZN5blink10TraceTraitINS_17HeapVectorBackingINS_13ScriptPromiseEN3WTF12VectorTraitsIS2_EEEEE5TraceEPNS_7VisitorEPKv = comdat any

$_ZN5blink25MakeGarbageCollectedTraitINS_12DOMExceptionEE4CallIJNS_16DOMExceptionCodeERA55_KcEEEPS1_DpOT_ = comdat any

$_ZN5blink10ThreadHeap8AllocateINS_15ScriptWrappableEEEPhm = comdat any

$_ZN5blink10TraceTraitINS_15ScriptWrappableEE5TraceEPNS_7VisitorEPKv = comdat any

$_ZN5blink8internal14FinalizerTraitINS_15ScriptWrappableEE8FinalizeEPv = comdat any

$_ZN5blink9NameTraitINS_15ScriptWrappableEE7GetNameEPKv = comdat any

$_ZN5blink21ScriptPromiseResolver15ResolveOrRejectINS_6MemberINS_12DOMExceptionEEEEEvT_NS0_15ResolutionStateE = comdat any

$_ZN5blink12DOMDataStore10GetWrapperEPNS_15ScriptWrappableEPN2v87IsolateE = comdat any

$_ZN5blink11ScriptState4FromEN2v85LocalINS1_7ContextEEE = comdat any

$_ZN3WTF9HashTableIN5blink10WeakMemberIKNS1_15ScriptWrappableEEENS_12KeyValuePairIS5_NS1_23TraceWrapperV8ReferenceIN2v86ObjectEEEEENS_24KeyValuePairKeyExtractorENS_10MemberHashIS4_EENS_18HashMapValueTraitsINS_10HashTraitsIS5_EENSG_ISA_EEEESH_NS1_13HeapAllocatorEE4findEPS4_ = comdat any

$_ZN5blink21ScriptPromiseResolver15ResolveOrRejectINS_6MemberINS_8ResponseEEEEEvT_NS0_15ResolutionStateE = comdat any

$_ZN5blink25MakeGarbageCollectedTraitINS_12DOMExceptionEE4CallIJNS_16DOMExceptionCodeERA31_KcEEEPS1_DpOT_ = comdat any

$_ZN5blink10ThreadHeap8AllocateINS_21ScriptPromiseResolverEEEPhm = comdat any

$_ZN5blink8internal14FinalizerTraitINS_21ScriptPromiseResolverEE8FinalizeEPv = comdat any

$_ZN5blink9NameTraitINS_21ScriptPromiseResolverEE7GetNameEPKv = comdat any

$_ZN3WTF6VectorIN5blink6MemberINS1_21ScriptPromiseResolverEEELj0ENS1_13HeapAllocatorEE14AppendSlowCaseIRPS3_EEvOT_ = comdat any

$_ZN3WTF6VectorIN5blink6MemberINS1_21ScriptPromiseResolverEEELj0ENS1_13HeapAllocatorEE15ReserveCapacityEj = comdat any

$_ZN3WTF6VectorIN5blink6MemberINS1_21ScriptPromiseResolverEEELj0ENS1_13HeapAllocatorEE16ReallocateBufferEj = comdat any

$_ZN5blink13HeapAllocator13QuantizedSizeINS_6MemberINS_21ScriptPromiseResolverEEEEEmm = comdat any

$_ZN5blink25MakeGarbageCollectedTraitINS_17HeapVectorBackingINS_6MemberINS_21ScriptPromiseResolverEEEN3WTF12VectorTraitsIS4_EEEEE4CallEm = comdat any

$_ZN5blink17HeapVectorBackingINS_6MemberINS_21ScriptPromiseResolverEEEN3WTF12VectorTraitsIS3_EEE14AllocateObjectIS7_EEPvm = comdat any

$_ZN5blink9NameTraitINS_17HeapVectorBackingINS_6MemberINS_21ScriptPromiseResolverEEEN3WTF12VectorTraitsIS4_EEEEE7GetNameEPKv = comdat any

$_ZN5blink21ScriptPromiseResolver15ResolveOrRejectINS_22ToV8UndefinedGeneratorEEEvT_NS0_15ResolutionStateE = comdat any

$_ZN3WTF6VectorIN5blink13ScriptPromiseELj0ENS1_13HeapAllocatorEE14AppendSlowCaseIRS2_EEvOT_ = comdat any

$_ZN5blink13HeapAllocator15NotifyNewObjectINS_13ScriptPromiseEN3WTF12VectorTraitsIS2_EEEEvPT_ = comdat any

$_ZN3WTF6VectorIN5blink13ScriptPromiseELj0ENS1_13HeapAllocatorEE15ReserveCapacityEj = comdat any

$_ZN3WTF6VectorIN5blink13ScriptPromiseELj0ENS1_13HeapAllocatorEE16ReallocateBufferEj = comdat any

$_ZN5blink13HeapAllocator13QuantizedSizeINS_13ScriptPromiseEEEmm = comdat any

$_ZN5blink25MakeGarbageCollectedTraitINS_17HeapVectorBackingINS_13ScriptPromiseEN3WTF12VectorTraitsIS2_EEEEE4CallEm = comdat any

$_ZN5blink17HeapVectorBackingINS_13ScriptPromiseEN3WTF12VectorTraitsIS1_EEE14AllocateObjectIS5_EEPvm = comdat any

$_ZN5blink8internal14FinalizerTraitINS_17HeapVectorBackingINS_13ScriptPromiseEN3WTF12VectorTraitsIS3_EEEEE8FinalizeEPv = comdat any

$_ZN5blink9NameTraitINS_17HeapVectorBackingINS_13ScriptPromiseEN3WTF12VectorTraitsIS2_EEEEE7GetNameEPKv = comdat any

$_ZN5blink10TraceTraitINS_7RequestEE5TraceEPNS_7VisitorEPKv = comdat any

$_ZZN5blink11GCInfoTraitINS_21ScriptPromisePropertyINS_6MemberINS_8ResponseEEENS2_INS_12DOMExceptionEEEEEE5IndexEvE7kGcInfo = comdat any

$_ZZN5blink11GCInfoTraitINS_21ScriptPromisePropertyINS_6MemberINS_8ResponseEEENS2_INS_12DOMExceptionEEEEEE5IndexEvE13gc_info_index = comdat any

$_ZTVN5blink21ScriptPromisePropertyINS_6MemberINS_8ResponseEEENS1_INS_12DOMExceptionEEEEE = comdat any

$_ZZN5blink11GCInfoTraitINS_15ScriptWrappableEE5IndexEvE7kGcInfo = comdat any

$_ZZN5blink11GCInfoTraitINS_15ScriptWrappableEE5IndexEvE13gc_info_index = comdat any

$_ZZN5blink11GCInfoTraitINS_21ScriptPromiseResolverEE5IndexEvE7kGcInfo = comdat any

$_ZZN5blink11GCInfoTraitINS_21ScriptPromiseResolverEE5IndexEvE13gc_info_index = comdat any

$_ZZN5blink11GCInfoTraitINS_17HeapVectorBackingINS_6MemberINS_21ScriptPromiseResolverEEEN3WTF12VectorTraitsIS4_EEEEE5IndexEvE7kGcInfo = comdat any

$_ZZN5blink11GCInfoTraitINS_17HeapVectorBackingINS_6MemberINS_21ScriptPromiseResolverEEEN3WTF12VectorTraitsIS4_EEEEE5IndexEvE13gc_info_index = comdat any

$_ZZN5blink11GCInfoTraitINS_17HeapVectorBackingINS_13ScriptPromiseEN3WTF12VectorTraitsIS2_EEEEE5IndexEvE7kGcInfo = comdat any

$_ZZN5blink11GCInfoTraitINS_17HeapVectorBackingINS_13ScriptPromiseEN3WTF12VectorTraitsIS2_EEEEE5IndexEvE13gc_info_index = comdat any

@_ZTVN5blink21BackgroundFetchRecordE = hidden unnamed_addr constant { [11 x i8*] } { [11 x i8*] [i8* null, i8* null, i8* bitcast (i8* (%"class.blink::ScriptWrappable"*)* @_ZNK5blink15ScriptWrappable18NameInHeapSnapshotEv to i8*), i8* bitcast (void (%"class.blink::BackgroundFetchRecord"*)* @_ZN5blink21BackgroundFetchRecordD2Ev to i8*), i8* bitcast (void (%"class.blink::BackgroundFetchRecord"*)* @_ZN5blink21BackgroundFetchRecordD0Ev to i8*), i8* bitcast (i1 (%"class.blink::ScriptWrappable"*)* @_ZNK5blink15ScriptWrappable18HasPendingActivityEv to i8*), i8* bitcast (i1 (%"class.blink::ScriptWrappable"*)* @_ZNK5blink15ScriptWrappable17HasEventListenersEv to i8*), i8* bitcast (void (%"class.blink::BackgroundFetchRecord"*, %"class.blink::Visitor"*)* @_ZNK5blink21BackgroundFetchRecord5TraceEPNS_7VisitorE to i8*), i8* bitcast (%"struct.blink::WrapperTypeInfo"* (%"class.blink::BackgroundFetchRecord"*)* @_ZNK5blink21BackgroundFetchRecord18GetWrapperTypeInfoEv to i8*), i8* bitcast (%"class.v8::Value"* (%"class.blink::ScriptWrappable"*, %"class.blink::ScriptState"*)* @_ZN5blink15ScriptWrappable4WrapEPNS_11ScriptStateE to i8*), i8* bitcast (%"class.v8::Object"* (%"class.blink::ScriptWrappable"*, %"class.v8::Isolate"*, %"struct.blink::WrapperTypeInfo"*, %"class.v8::Object"*)* @_ZN5blink15ScriptWrappable20AssociateWithWrapperEPN2v87IsolateEPKNS_15WrapperTypeInfoENS1_5LocalINS1_6ObjectEEE to i8*)] }, align 8
@.str = private unnamed_addr constant [55 x i8] c"The fetch was aborted before the record was processed.\00", align 1
@.str.1 = private unnamed_addr constant [31 x i8] c"The response is not available.\00", align 1
@_ZN5blink21BackgroundFetchRecord18wrapper_type_info_E = external local_unnamed_addr constant %"struct.blink::WrapperTypeInfo"*, align 8
@_ZN5blink11ThreadState16thread_specific_E = external local_unnamed_addr global %"class.WTF::ThreadSpecific"*, align 8
@__PRETTY_FUNCTION__._ZN3WTF21GetStringWithTypeNameIPN5blink11ThreadStateEEEPKcv = private unnamed_addr constant [68 x i8] c"const char *WTF::GetStringWithTypeName() [T = blink::ThreadState *]\00", align 1
@__PRETTY_FUNCTION__._ZN3WTF21GetStringWithTypeNameIN5blink21ScriptPromisePropertyINS1_6MemberINS1_8ResponseEEENS3_INS1_12DOMExceptionEEEEEEEPKcv = private unnamed_addr constant [145 x i8] c"const char *WTF::GetStringWithTypeName() [T = blink::ScriptPromiseProperty<blink::Member<blink::Response>, blink::Member<blink::DOMException> >]\00", align 1
@.str.2 = private unnamed_addr constant [23 x i8] c"allocation_size > size\00", align 1
@.str.3 = private unnamed_addr constant [59 x i8] c"../../third_party/blink/renderer/platform/heap/impl/heap.h\00", align 1
@_ZZN5blink11GCInfoTraitINS_21ScriptPromisePropertyINS_6MemberINS_8ResponseEEENS2_INS_12DOMExceptionEEEEEE5IndexEvE7kGcInfo = linkonce_odr hidden constant %"struct.blink::GCInfo" { void (%"class.blink::Visitor"*, i8*)* @_ZN5blink10TraceTraitINS_21ScriptPromisePropertyINS_6MemberINS_8ResponseEEENS2_INS_12DOMExceptionEEEEEE5TraceEPNS_7VisitorEPKv, void (i8*)* null, { i8*, i8 } (i8*)* @_ZN5blink9NameTraitINS_21ScriptPromisePropertyINS_6MemberINS_8ResponseEEENS2_INS_12DOMExceptionEEEEEE7GetNameEPKv, i8 1 }, comdat, align 8
@_ZZN5blink11GCInfoTraitINS_21ScriptPromisePropertyINS_6MemberINS_8ResponseEEENS2_INS_12DOMExceptionEEEEEE5IndexEvE13gc_info_index = linkonce_odr hidden global { { i32 } } zeroinitializer, comdat, align 4
@.str.4 = private unnamed_addr constant [13 x i8] c"InternalNode\00", align 1
@_ZN5blink11GCInfoTable13global_table_E = external local_unnamed_addr global %"class.blink::GCInfoTable"*, align 8
@_ZTVN5blink21ScriptPromisePropertyINS_6MemberINS_8ResponseEEENS1_INS_12DOMExceptionEEEEE = linkonce_odr hidden unnamed_addr constant { [3 x i8*] } { [3 x i8*] [i8* null, i8* null, i8* bitcast (void (%"class.blink::ScriptPromiseProperty"*, %"class.blink::Visitor"*)* @_ZNK5blink21ScriptPromisePropertyINS_6MemberINS_8ResponseEEENS1_INS_12DOMExceptionEEEE5TraceEPNS_7VisitorE to i8*)] }, comdat, align 8
@_ZN5blink11ThreadState25incremental_marking_flag_E = external local_unnamed_addr global %"class.blink::AtomicEntryFlag", align 4
@__PRETTY_FUNCTION__._ZN3WTF21GetStringWithTypeNameIN5blink15ScriptWrappableEEEPKcv = private unnamed_addr constant [70 x i8] c"const char *WTF::GetStringWithTypeName() [T = blink::ScriptWrappable]\00", align 1
@_ZZN5blink11GCInfoTraitINS_15ScriptWrappableEE5IndexEvE7kGcInfo = linkonce_odr hidden constant %"struct.blink::GCInfo" { void (%"class.blink::Visitor"*, i8*)* @_ZN5blink10TraceTraitINS_15ScriptWrappableEE5TraceEPNS_7VisitorEPKv, void (i8*)* @_ZN5blink8internal14FinalizerTraitINS_15ScriptWrappableEE8FinalizeEPv, { i8*, i8 } (i8*)* @_ZN5blink9NameTraitINS_15ScriptWrappableEE7GetNameEPKv, i8 1 }, comdat, align 8
@_ZZN5blink11GCInfoTraitINS_15ScriptWrappableEE5IndexEvE13gc_info_index = linkonce_odr hidden global { { i32 } } zeroinitializer, comdat, align 4
@.str.5 = private unnamed_addr constant [76 x i8] c"../../third_party/blink/renderer/bindings/core/v8/script_promise_property.h\00", align 1
@.str.6 = private unnamed_addr constant [43 x i8] c"!ScriptForbiddenScope::IsScriptForbidden()\00", align 1
@_ZN5blink20ScriptForbiddenScope22g_main_thread_counter_E = external local_unnamed_addr global i32, align 4
@_ZN3WTF8internal25g_main_thread_stack_startE = external local_unnamed_addr global i64, align 8
@_ZN3WTF8internal39g_main_thread_underestimated_stack_sizeE = external local_unnamed_addr global i64, align 8
@_ZN5blink15DOMWrapperWorld41number_of_non_main_worlds_in_main_thread_E = external local_unnamed_addr global i32, align 4
@.str.7 = private unnamed_addr constant [66 x i8] c"../../third_party/blink/renderer/platform/bindings/script_state.h\00", align 1
@.str.8 = private unnamed_addr constant [13 x i8] c"script_state\00", align 1
@.str.9 = private unnamed_addr constant [34 x i8] c"script_state->context_ == context\00", align 1
@__PRETTY_FUNCTION__._ZN3WTF21GetStringWithTypeNameIN5blink21ScriptPromiseResolverEEEPKcv = private unnamed_addr constant [76 x i8] c"const char *WTF::GetStringWithTypeName() [T = blink::ScriptPromiseResolver]\00", align 1
@_ZZN5blink11GCInfoTraitINS_21ScriptPromiseResolverEE5IndexEvE7kGcInfo = linkonce_odr hidden constant %"struct.blink::GCInfo" { void (%"class.blink::Visitor"*, i8*)* @_ZN5blink10TraceTraitINS_21ScriptPromiseResolverEE5TraceEPNS_7VisitorEPKv, void (i8*)* @_ZN5blink8internal14FinalizerTraitINS_21ScriptPromiseResolverEE8FinalizeEPv, { i8*, i8 } (i8*)* @_ZN5blink9NameTraitINS_21ScriptPromiseResolverEE7GetNameEPKv, i8 1 }, comdat, align 8
@_ZZN5blink11GCInfoTraitINS_21ScriptPromiseResolverEE5IndexEvE13gc_info_index = linkonce_odr hidden global { { i32 } } zeroinitializer, comdat, align 4
@.str.10 = private unnamed_addr constant [55 x i8] c"../../third_party/blink/renderer/platform/wtf/vector.h\00", align 1
@.str.11 = private unnamed_addr constant [33 x i8] c"Allocator::IsAllocationAllowed()\00", align 1
@.str.12 = private unnamed_addr constant [44 x i8] c"count <= MaxElementCountInBackingStore<T>()\00", align 1
@.str.13 = private unnamed_addr constant [74 x i8] c"../../third_party/blink/renderer/platform/heap/impl/heap_allocator_impl.h\00", align 1
@.str.14 = private unnamed_addr constant [18 x i8] c"num_elements > 0u\00", align 1
@.str.15 = private unnamed_addr constant [93 x i8] c"../../third_party/blink/renderer/platform/heap/impl/collection_support/heap_vector_backing.h\00", align 1
@_ZZN5blink11GCInfoTraitINS_17HeapVectorBackingINS_6MemberINS_21ScriptPromiseResolverEEEN3WTF12VectorTraitsIS4_EEEEE5IndexEvE7kGcInfo = linkonce_odr hidden constant %"struct.blink::GCInfo" { void (%"class.blink::Visitor"*, i8*)* @_ZN5blink10TraceTraitINS_17HeapVectorBackingINS_6MemberINS_21ScriptPromiseResolverEEEN3WTF12VectorTraitsIS4_EEEEE5TraceEPNS_7VisitorEPKv, void (i8*)* null, { i8*, i8 } (i8*)* @_ZN5blink9NameTraitINS_17HeapVectorBackingINS_6MemberINS_21ScriptPromiseResolverEEEN3WTF12VectorTraitsIS4_EEEEE7GetNameEPKv, i8 0 }, comdat, align 8
@_ZZN5blink11GCInfoTraitINS_17HeapVectorBackingINS_6MemberINS_21ScriptPromiseResolverEEEN3WTF12VectorTraitsIS4_EEEEE5IndexEvE13gc_info_index = linkonce_odr hidden global { { i32 } } zeroinitializer, comdat, align 4
@__PRETTY_FUNCTION__._ZN3WTF21GetStringWithTypeNameIN5blink17HeapVectorBackingINS1_6MemberINS1_21ScriptPromiseResolverEEENS_12VectorTraitsIS5_EEEEEEPKcv = private unnamed_addr constant [183 x i8] c"const char *WTF::GetStringWithTypeName() [T = blink::HeapVectorBacking<blink::Member<blink::ScriptPromiseResolver>, WTF::VectorTraits<blink::Member<blink::ScriptPromiseResolver> > >]\00", align 1
@_ZZN5blink11GCInfoTraitINS_17HeapVectorBackingINS_13ScriptPromiseEN3WTF12VectorTraitsIS2_EEEEE5IndexEvE7kGcInfo = linkonce_odr hidden constant %"struct.blink::GCInfo" { void (%"class.blink::Visitor"*, i8*)* @_ZN5blink10TraceTraitINS_17HeapVectorBackingINS_13ScriptPromiseEN3WTF12VectorTraitsIS2_EEEEE5TraceEPNS_7VisitorEPKv, void (i8*)* @_ZN5blink8internal14FinalizerTraitINS_17HeapVectorBackingINS_13ScriptPromiseEN3WTF12VectorTraitsIS3_EEEEE8FinalizeEPv, { i8*, i8 } (i8*)* @_ZN5blink9NameTraitINS_17HeapVectorBackingINS_13ScriptPromiseEN3WTF12VectorTraitsIS2_EEEEE7GetNameEPKv, i8 0 }, comdat, align 8
@_ZZN5blink11GCInfoTraitINS_17HeapVectorBackingINS_13ScriptPromiseEN3WTF12VectorTraitsIS2_EEEEE5IndexEvE13gc_info_index = linkonce_odr hidden global { { i32 } } zeroinitializer, comdat, align 4
@__PRETTY_FUNCTION__._ZN3WTF21GetStringWithTypeNameIN5blink17HeapVectorBackingINS1_13ScriptPromiseENS_12VectorTraitsIS3_EEEEEEPKcv = private unnamed_addr constant [136 x i8] c"const char *WTF::GetStringWithTypeName() [T = blink::HeapVectorBacking<blink::ScriptPromise, WTF::VectorTraits<blink::ScriptPromise> >]\00", align 1

@_ZN5blink21BackgroundFetchRecordC1EPNS_7RequestEPNS_11ScriptStateE = hidden unnamed_addr alias void (%"class.blink::BackgroundFetchRecord"*, %"class.blink::Request"*, %"class.blink::ScriptState"*), void (%"class.blink::BackgroundFetchRecord"*, %"class.blink::Request"*, %"class.blink::ScriptState"*)* @_ZN5blink21BackgroundFetchRecordC2EPNS_7RequestEPNS_11ScriptStateE
@_ZN5blink21BackgroundFetchRecordD1Ev = hidden unnamed_addr alias void (%"class.blink::BackgroundFetchRecord"*), void (%"class.blink::BackgroundFetchRecord"*)* @_ZN5blink21BackgroundFetchRecordD2Ev

; Function Attrs: nounwind ssp uwtable
define hidden void @_ZN5blink21BackgroundFetchRecordC2EPNS_7RequestEPNS_11ScriptStateE(%"class.blink::BackgroundFetchRecord"* nocapture, %"class.blink::Request"*, %"class.blink::ScriptState"*) unnamed_addr #0 align 2 {
  %4 = getelementptr inbounds %"class.blink::BackgroundFetchRecord", %"class.blink::BackgroundFetchRecord"* %0, i64 0, i32 0, i32 0, i32 0
  %5 = getelementptr inbounds %"class.blink::BackgroundFetchRecord", %"class.blink::BackgroundFetchRecord"* %0, i64 0, i32 0, i32 1, i32 0, i32 0, i32 0, i32 0
  store i64* null, i64** %5, align 8
  store i32 (...)** bitcast (i8** getelementptr inbounds ({ [11 x i8*] }, { [11 x i8*] }* @_ZTVN5blink21BackgroundFetchRecordE, i64 0, inrange i32 0, i64 2) to i32 (...)**), i32 (...)*** %4, align 8
  %6 = getelementptr inbounds %"class.blink::BackgroundFetchRecord", %"class.blink::BackgroundFetchRecord"* %0, i64 0, i32 1, i32 0, i32 0
  store %"class.blink::Request"* %1, %"class.blink::Request"** %6, align 8
  %7 = getelementptr inbounds %"class.blink::BackgroundFetchRecord", %"class.blink::BackgroundFetchRecord"* %0, i64 0, i32 2
  %8 = getelementptr inbounds %"class.blink::Member.293", %"class.blink::Member.293"* %7, i64 0, i32 0, i32 0
  store %"class.blink::ScriptPromiseProperty"* null, %"class.blink::ScriptPromiseProperty"** %8, align 8
  %9 = getelementptr inbounds %"class.blink::BackgroundFetchRecord", %"class.blink::BackgroundFetchRecord"* %0, i64 0, i32 3, i32 0, i32 0
  store %"class.blink::ScriptState"* %2, %"class.blink::ScriptState"** %9, align 8
  %10 = getelementptr inbounds %"class.blink::BackgroundFetchRecord", %"class.blink::BackgroundFetchRecord"* %0, i64 0, i32 4
  store i32 0, i32* %10, align 8
  %11 = tail call %"class.blink::ExecutionContext"* @_ZN5blink16ExecutionContext4FromEPKNS_11ScriptStateE(%"class.blink::ScriptState"* %2) #9
  %12 = tail call i8* @_ZN5blink10ThreadHeap8AllocateINS_21ScriptPromisePropertyINS_6MemberINS_8ResponseEEENS3_INS_12DOMExceptionEEEEEEEPhm(i64 80) #9
  %13 = bitcast i8* %12 to %"class.blink::ExecutionContextClient"*
  tail call void @_ZN5blink22ExecutionContextClientC2EPNS_16ExecutionContextE(%"class.blink::ExecutionContextClient"* %13, %"class.blink::ExecutionContext"* %11) #9
  %14 = bitcast i8* %12 to i32 (...)***
  store i32 (...)** bitcast (i8** getelementptr inbounds ({ [3 x i8*] }, { [3 x i8*] }* @_ZTVN5blink21ScriptPromisePropertyINS_6MemberINS_8ResponseEEENS1_INS_12DOMExceptionEEEEE, i64 0, inrange i32 0, i64 2) to i32 (...)**), i32 (...)*** %14, align 8
  %15 = getelementptr inbounds i8, i8* %12, i64 16
  %16 = bitcast i8* %15 to i32*
  store i32 0, i32* %16, align 8
  %17 = getelementptr inbounds i8, i8* %12, i64 24
  tail call void @llvm.memset.p0i8.i64(i8* align 8 %17, i8 0, i64 50, i1 false) #9
  %18 = getelementptr inbounds i8, i8* %12, i64 -4
  %19 = bitcast i8* %18 to i16*
  %20 = load atomic i16, i16* %19 monotonic, align 2
  %21 = or i16 %20, 1
  store atomic i16 %21, i16* %19 release, align 2
  %22 = ptrtoint i8* %12 to i64
  %23 = bitcast %"class.blink::Member.293"* %7 to i64*
  store atomic i64 %22, i64* %23 monotonic, align 8
  %24 = load atomic i32, i32* getelementptr inbounds (%"class.blink::AtomicEntryFlag", %"class.blink::AtomicEntryFlag"* @_ZN5blink11ThreadState25incremental_marking_flag_E, i64 0, i32 0, i32 0, i32 0, i32 0, i32 0, i32 0) monotonic, align 4
  %25 = icmp eq i32 %24, 0
  br i1 %25, label %28, label %26

26:                                               ; preds = %3
  %27 = tail call zeroext i1 @_ZN5blink14MarkingVisitor16WriteBarrierSlowEPv(i8* %12) #9
  br label %28

28:                                               ; preds = %3, %26
  ret void
}

; Function Attrs: argmemonly nounwind
declare void @llvm.lifetime.start.p0i8(i64 immarg, i8* nocapture) #1

declare %"class.blink::ExecutionContext"* @_ZN5blink16ExecutionContext4FromEPKNS_11ScriptStateE(%"class.blink::ScriptState"*) local_unnamed_addr #2

; Function Attrs: argmemonly nounwind
declare void @llvm.lifetime.end.p0i8(i64 immarg, i8* nocapture) #1

; Function Attrs: norecurse nounwind readnone ssp uwtable
define hidden void @_ZN5blink21BackgroundFetchRecordD2Ev(%"class.blink::BackgroundFetchRecord"* nocapture) unnamed_addr #3 align 2 {
  ret void
}

; Function Attrs: norecurse nounwind readnone ssp uwtable
define hidden void @_ZN5blink21BackgroundFetchRecordD0Ev(%"class.blink::BackgroundFetchRecord"* nocapture) unnamed_addr #3 align 2 {
  ret void
}

; Function Attrs: nounwind ssp uwtable
define hidden void @_ZN5blink21BackgroundFetchRecord28ResolveResponseReadyPropertyEPNS_8ResponseE(%"class.blink::BackgroundFetchRecord"* nocapture readonly, %"class.blink::Response"*) local_unnamed_addr #0 align 2 {
  %3 = alloca i32, align 4
  %4 = alloca i32, align 4
  %5 = getelementptr inbounds %"class.blink::BackgroundFetchRecord", %"class.blink::BackgroundFetchRecord"* %0, i64 0, i32 2, i32 0, i32 0
  %6 = load %"class.blink::ScriptPromiseProperty"*, %"class.blink::ScriptPromiseProperty"** %5, align 8
  %7 = getelementptr inbounds %"class.blink::ScriptPromiseProperty", %"class.blink::ScriptPromiseProperty"* %6, i64 0, i32 1
  %8 = load i32, i32* %7, align 8
  %9 = icmp eq i32 %8, 0
  br i1 %9, label %10, label %32

10:                                               ; preds = %2
  %11 = getelementptr inbounds %"class.blink::BackgroundFetchRecord", %"class.blink::BackgroundFetchRecord"* %0, i64 0, i32 4
  %12 = load i32, i32* %11, align 8
  switch i32 %12, label %32 [
    i32 2, label %16
    i32 1, label %13
  ]

13:                                               ; preds = %10
  %14 = bitcast i32* %3 to i8*
  call void @llvm.lifetime.start.p0i8(i64 4, i8* nonnull %14) #9
  store i32 20, i32* %3, align 4
  %15 = call %"class.blink::DOMException"* @_ZN5blink25MakeGarbageCollectedTraitINS_12DOMExceptionEE4CallIJNS_16DOMExceptionCodeERA55_KcEEEPS1_DpOT_(i32* nonnull dereferenceable(4) %3, [55 x i8]* nonnull dereferenceable(55) @.str) #9
  call void @_ZN5blink21ScriptPromisePropertyINS_6MemberINS_8ResponseEEENS1_INS_12DOMExceptionEEEE6RejectIPS4_EEvT_(%"class.blink::ScriptPromiseProperty"* %6, %"class.blink::DOMException"* %15)
  call void @llvm.lifetime.end.p0i8(i64 4, i8* nonnull %14) #9
  br label %32

16:                                               ; preds = %10
  %17 = icmp eq %"class.blink::Response"* %1, null
  br i1 %17, label %19, label %18

18:                                               ; preds = %16
  tail call void @_ZN5blink21ScriptPromisePropertyINS_6MemberINS_8ResponseEEENS1_INS_12DOMExceptionEEEE7ResolveIPS2_EEvT_(%"class.blink::ScriptPromiseProperty"* %6, %"class.blink::Response"* nonnull %1)
  br label %32

19:                                               ; preds = %16
  %20 = getelementptr inbounds %"class.blink::BackgroundFetchRecord", %"class.blink::BackgroundFetchRecord"* %0, i64 0, i32 3, i32 0, i32 0
  %21 = load %"class.blink::ScriptState"*, %"class.blink::ScriptState"** %20, align 8
  %22 = getelementptr inbounds %"class.blink::ScriptState", %"class.blink::ScriptState"* %21, i64 0, i32 1, i32 0, i32 0, i32 0
  %23 = load %"class.v8::Context"*, %"class.v8::Context"** %22, align 8
  %24 = icmp eq %"class.v8::Context"* %23, null
  br i1 %24, label %32, label %25

25:                                               ; preds = %19
  %26 = getelementptr inbounds %"class.blink::ScriptState", %"class.blink::ScriptState"* %21, i64 0, i32 3, i32 0, i32 0
  %27 = load %"class.blink::V8PerContextData"*, %"class.blink::V8PerContextData"** %26, align 8
  %28 = icmp eq %"class.blink::V8PerContextData"* %27, null
  br i1 %28, label %32, label %29

29:                                               ; preds = %25
  %30 = bitcast i32* %4 to i8*
  call void @llvm.lifetime.start.p0i8(i64 4, i8* nonnull %30) #9
  store i32 28, i32* %4, align 4
  %31 = call %"class.blink::DOMException"* @_ZN5blink25MakeGarbageCollectedTraitINS_12DOMExceptionEE4CallIJNS_16DOMExceptionCodeERA31_KcEEEPS1_DpOT_(i32* nonnull dereferenceable(4) %4, [31 x i8]* nonnull dereferenceable(31) @.str.1) #9
  call void @_ZN5blink21ScriptPromisePropertyINS_6MemberINS_8ResponseEEENS1_INS_12DOMExceptionEEEE6RejectIPS4_EEvT_(%"class.blink::ScriptPromiseProperty"* %6, %"class.blink::DOMException"* %31)
  call void @llvm.lifetime.end.p0i8(i64 4, i8* nonnull %30) #9
  br label %32

32:                                               ; preds = %25, %19, %2, %13, %18, %29, %10
  ret void
}

; Function Attrs: nounwind ssp uwtable
define linkonce_odr hidden void @_ZN5blink21ScriptPromisePropertyINS_6MemberINS_8ResponseEEENS1_INS_12DOMExceptionEEEE6RejectIPS4_EEvT_(%"class.blink::ScriptPromiseProperty"*, %"class.blink::DOMException"*) local_unnamed_addr #0 comdat align 2 {
  %3 = alloca %"class.blink::Member.302", align 8
  %4 = alloca i64, align 8
  %5 = alloca %"class.logging::CheckError", align 8
  %6 = bitcast i64* %4 to i8*
  call void @llvm.lifetime.start.p0i8(i64 8, i8* nonnull %6) #9
  %7 = load i64, i64* @_ZN3WTF8internal25g_main_thread_stack_startE, align 8
  %8 = ptrtoint i64* %4 to i64
  %9 = sub i64 %7, %8
  %10 = load i64, i64* @_ZN3WTF8internal39g_main_thread_underestimated_stack_sizeE, align 8
  %11 = icmp ult i64 %9, %10
  call void @llvm.lifetime.end.p0i8(i64 8, i8* nonnull %6) #9
  br i1 %11, label %14, label %12, !prof !2

12:                                               ; preds = %2
  %13 = call dereferenceable(4) i32* @_ZN5blink20ScriptForbiddenScope17GetMutableCounterEv() #9
  br label %14

14:                                               ; preds = %2, %12
  %15 = phi i32* [ %13, %12 ], [ @_ZN5blink20ScriptForbiddenScope22g_main_thread_counter_E, %2 ]
  %16 = load i32, i32* %15, align 4
  %17 = icmp eq i32 %16, 0
  br i1 %17, label %21, label %18

18:                                               ; preds = %14
  %19 = bitcast %"class.logging::CheckError"* %5 to i8*
  call void @llvm.lifetime.start.p0i8(i64 8, i8* nonnull %19) #9
  call void @_ZN7logging10CheckError5CheckEPKciS2_(%"class.logging::CheckError"* nonnull sret %5, i8* getelementptr inbounds ([76 x i8], [76 x i8]* @.str.5, i64 0, i64 0), i32 127, i8* getelementptr inbounds ([43 x i8], [43 x i8]* @.str.6, i64 0, i64 0)) #9
  %20 = call dereferenceable(160) %"class.std::__1::basic_ostream"* @_ZN7logging10CheckError6streamEv(%"class.logging::CheckError"* nonnull %5) #9
  call void @_ZN7logging10CheckErrorD1Ev(%"class.logging::CheckError"* nonnull %5) #9
  call void @llvm.lifetime.end.p0i8(i64 8, i8* nonnull %19) #9
  br label %21

21:                                               ; preds = %14, %18
  %22 = getelementptr inbounds %"class.blink::ScriptPromiseProperty", %"class.blink::ScriptPromiseProperty"* %0, i64 0, i32 0
  %23 = call %"class.blink::ExecutionContext"* @_ZNK5blink22ExecutionContextClient19GetExecutionContextEv(%"class.blink::ExecutionContextClient"* %22) #9
  %24 = icmp eq %"class.blink::ExecutionContext"* %23, null
  br i1 %24, label %69, label %25

25:                                               ; preds = %21
  %26 = getelementptr inbounds %"class.blink::ScriptPromiseProperty", %"class.blink::ScriptPromiseProperty"* %0, i64 0, i32 1
  store i32 2, i32* %26, align 8
  %27 = getelementptr inbounds %"class.blink::ScriptPromiseProperty", %"class.blink::ScriptPromiseProperty"* %0, i64 0, i32 4
  %28 = ptrtoint %"class.blink::DOMException"* %1 to i64
  %29 = bitcast %"class.blink::Member.302"* %27 to i64*
  store atomic i64 %28, i64* %29 monotonic, align 8
  %30 = load atomic i32, i32* getelementptr inbounds (%"class.blink::AtomicEntryFlag", %"class.blink::AtomicEntryFlag"* @_ZN5blink11ThreadState25incremental_marking_flag_E, i64 0, i32 0, i32 0, i32 0, i32 0, i32 0, i32 0) monotonic, align 4
  %31 = icmp eq i32 %30, 0
  br i1 %31, label %35, label %32

32:                                               ; preds = %25
  %33 = bitcast %"class.blink::DOMException"* %1 to i8*
  %34 = call zeroext i1 @_ZN5blink14MarkingVisitor16WriteBarrierSlowEPv(i8* %33) #9
  br label %35

35:                                               ; preds = %25, %32
  %36 = getelementptr inbounds %"class.blink::ScriptPromiseProperty", %"class.blink::ScriptPromiseProperty"* %0, i64 0, i32 5, i32 0
  %37 = bitcast %"class.WTF::Vector.307"* %36 to i64*
  %38 = load i64, i64* %37, align 8
  store atomic i64 0, i64* %37 monotonic, align 8
  %39 = getelementptr inbounds %"class.blink::ScriptPromiseProperty", %"class.blink::ScriptPromiseProperty"* %0, i64 0, i32 5, i32 0, i32 0, i32 0, i32 1
  store i32 0, i32* %39, align 4
  %40 = getelementptr inbounds %"class.blink::ScriptPromiseProperty", %"class.blink::ScriptPromiseProperty"* %0, i64 0, i32 5, i32 0, i32 0, i32 0, i32 2
  %41 = load i32, i32* %40, align 4
  store i32 0, i32* %40, align 4
  %42 = load atomic i32, i32* getelementptr inbounds (%"class.blink::AtomicEntryFlag", %"class.blink::AtomicEntryFlag"* @_ZN5blink11ThreadState25incremental_marking_flag_E, i64 0, i32 0, i32 0, i32 0, i32 0, i32 0, i32 0) monotonic, align 4
  %43 = icmp eq i32 %42, 0
  br i1 %43, label %47, label %44

44:                                               ; preds = %35
  %45 = inttoptr i64 %38 to i8*
  %46 = call zeroext i1 @_ZN5blink14MarkingVisitor16WriteBarrierSlowEPv(i8* %45) #9
  br label %47

47:                                               ; preds = %44, %35
  %48 = load atomic i32, i32* getelementptr inbounds (%"class.blink::AtomicEntryFlag", %"class.blink::AtomicEntryFlag"* @_ZN5blink11ThreadState25incremental_marking_flag_E, i64 0, i32 0, i32 0, i32 0, i32 0, i32 0, i32 0) monotonic, align 4
  %49 = icmp eq i32 %48, 0
  br i1 %49, label %54, label %50

50:                                               ; preds = %47
  %51 = bitcast %"class.WTF::Vector.307"* %36 to i8**
  %52 = load i8*, i8** %51, align 8
  %53 = call zeroext i1 @_ZN5blink14MarkingVisitor16WriteBarrierSlowEPv(i8* %52) #9
  br label %54

54:                                               ; preds = %47, %50
  %55 = inttoptr i64 %38 to %"class.blink::Member.310"*
  %56 = zext i32 %41 to i64
  %57 = getelementptr inbounds %"class.blink::Member.310", %"class.blink::Member.310"* %55, i64 %56
  %58 = icmp eq i32 %41, 0
  br i1 %58, label %69, label %59

59:                                               ; preds = %54
  %60 = bitcast %"class.blink::Member.302"* %3 to i8*
  %61 = bitcast %"class.blink::Member.302"* %3 to i64*
  br label %62

62:                                               ; preds = %59, %62
  %63 = phi %"class.blink::Member.310"* [ %55, %59 ], [ %67, %62 ]
  %64 = getelementptr inbounds %"class.blink::Member.310", %"class.blink::Member.310"* %63, i64 0, i32 0, i32 0
  %65 = load %"class.blink::ScriptPromiseResolver"*, %"class.blink::ScriptPromiseResolver"** %64, align 8
  %66 = load i64, i64* %29, align 8
  call void @llvm.lifetime.start.p0i8(i64 8, i8* nonnull %60)
  store i64 %66, i64* %61, align 8
  call void @_ZN5blink21ScriptPromiseResolver15ResolveOrRejectINS_6MemberINS_12DOMExceptionEEEEEvT_NS0_15ResolutionStateE(%"class.blink::ScriptPromiseResolver"* %65, %"class.blink::Member.302"* nonnull %3, i32 2) #9
  call void @llvm.lifetime.end.p0i8(i64 8, i8* nonnull %60)
  %67 = getelementptr inbounds %"class.blink::Member.310", %"class.blink::Member.310"* %63, i64 1
  %68 = icmp eq %"class.blink::Member.310"* %67, %57
  br i1 %68, label %69, label %62

69:                                               ; preds = %62, %54, %21
  ret void
}

; Function Attrs: nounwind ssp uwtable
define linkonce_odr hidden void @_ZN5blink21ScriptPromisePropertyINS_6MemberINS_8ResponseEEENS1_INS_12DOMExceptionEEEE7ResolveIPS2_EEvT_(%"class.blink::ScriptPromiseProperty"*, %"class.blink::Response"*) local_unnamed_addr #0 comdat align 2 {
  %3 = alloca %"class.blink::Member.297", align 8
  %4 = alloca i64, align 8
  %5 = alloca %"class.logging::CheckError", align 8
  %6 = bitcast i64* %4 to i8*
  call void @llvm.lifetime.start.p0i8(i64 8, i8* nonnull %6) #9
  %7 = load i64, i64* @_ZN3WTF8internal25g_main_thread_stack_startE, align 8
  %8 = ptrtoint i64* %4 to i64
  %9 = sub i64 %7, %8
  %10 = load i64, i64* @_ZN3WTF8internal39g_main_thread_underestimated_stack_sizeE, align 8
  %11 = icmp ult i64 %9, %10
  call void @llvm.lifetime.end.p0i8(i64 8, i8* nonnull %6) #9
  br i1 %11, label %14, label %12, !prof !2

12:                                               ; preds = %2
  %13 = call dereferenceable(4) i32* @_ZN5blink20ScriptForbiddenScope17GetMutableCounterEv() #9
  br label %14

14:                                               ; preds = %2, %12
  %15 = phi i32* [ %13, %12 ], [ @_ZN5blink20ScriptForbiddenScope22g_main_thread_counter_E, %2 ]
  %16 = load i32, i32* %15, align 4
  %17 = icmp eq i32 %16, 0
  br i1 %17, label %21, label %18

18:                                               ; preds = %14
  %19 = bitcast %"class.logging::CheckError"* %5 to i8*
  call void @llvm.lifetime.start.p0i8(i64 8, i8* nonnull %19) #9
  call void @_ZN7logging10CheckError5CheckEPKciS2_(%"class.logging::CheckError"* nonnull sret %5, i8* getelementptr inbounds ([76 x i8], [76 x i8]* @.str.5, i64 0, i64 0), i32 96, i8* getelementptr inbounds ([43 x i8], [43 x i8]* @.str.6, i64 0, i64 0)) #9
  %20 = call dereferenceable(160) %"class.std::__1::basic_ostream"* @_ZN7logging10CheckError6streamEv(%"class.logging::CheckError"* nonnull %5) #9
  call void @_ZN7logging10CheckErrorD1Ev(%"class.logging::CheckError"* nonnull %5) #9
  call void @llvm.lifetime.end.p0i8(i64 8, i8* nonnull %19) #9
  br label %21

21:                                               ; preds = %14, %18
  %22 = getelementptr inbounds %"class.blink::ScriptPromiseProperty", %"class.blink::ScriptPromiseProperty"* %0, i64 0, i32 0
  %23 = call %"class.blink::ExecutionContext"* @_ZNK5blink22ExecutionContextClient19GetExecutionContextEv(%"class.blink::ExecutionContextClient"* %22) #9
  %24 = icmp eq %"class.blink::ExecutionContext"* %23, null
  br i1 %24, label %69, label %25

25:                                               ; preds = %21
  %26 = getelementptr inbounds %"class.blink::ScriptPromiseProperty", %"class.blink::ScriptPromiseProperty"* %0, i64 0, i32 1
  store i32 1, i32* %26, align 8
  %27 = getelementptr inbounds %"class.blink::ScriptPromiseProperty", %"class.blink::ScriptPromiseProperty"* %0, i64 0, i32 3
  %28 = ptrtoint %"class.blink::Response"* %1 to i64
  %29 = bitcast %"class.blink::Member.297"* %27 to i64*
  store atomic i64 %28, i64* %29 monotonic, align 8
  %30 = load atomic i32, i32* getelementptr inbounds (%"class.blink::AtomicEntryFlag", %"class.blink::AtomicEntryFlag"* @_ZN5blink11ThreadState25incremental_marking_flag_E, i64 0, i32 0, i32 0, i32 0, i32 0, i32 0, i32 0) monotonic, align 4
  %31 = icmp eq i32 %30, 0
  br i1 %31, label %35, label %32

32:                                               ; preds = %25
  %33 = bitcast %"class.blink::Response"* %1 to i8*
  %34 = call zeroext i1 @_ZN5blink14MarkingVisitor16WriteBarrierSlowEPv(i8* %33) #9
  br label %35

35:                                               ; preds = %25, %32
  %36 = getelementptr inbounds %"class.blink::ScriptPromiseProperty", %"class.blink::ScriptPromiseProperty"* %0, i64 0, i32 5, i32 0
  %37 = bitcast %"class.WTF::Vector.307"* %36 to i64*
  %38 = load i64, i64* %37, align 8
  store atomic i64 0, i64* %37 monotonic, align 8
  %39 = getelementptr inbounds %"class.blink::ScriptPromiseProperty", %"class.blink::ScriptPromiseProperty"* %0, i64 0, i32 5, i32 0, i32 0, i32 0, i32 1
  store i32 0, i32* %39, align 4
  %40 = getelementptr inbounds %"class.blink::ScriptPromiseProperty", %"class.blink::ScriptPromiseProperty"* %0, i64 0, i32 5, i32 0, i32 0, i32 0, i32 2
  %41 = load i32, i32* %40, align 4
  store i32 0, i32* %40, align 4
  %42 = load atomic i32, i32* getelementptr inbounds (%"class.blink::AtomicEntryFlag", %"class.blink::AtomicEntryFlag"* @_ZN5blink11ThreadState25incremental_marking_flag_E, i64 0, i32 0, i32 0, i32 0, i32 0, i32 0, i32 0) monotonic, align 4
  %43 = icmp eq i32 %42, 0
  br i1 %43, label %47, label %44

44:                                               ; preds = %35
  %45 = inttoptr i64 %38 to i8*
  %46 = call zeroext i1 @_ZN5blink14MarkingVisitor16WriteBarrierSlowEPv(i8* %45) #9
  br label %47

47:                                               ; preds = %44, %35
  %48 = load atomic i32, i32* getelementptr inbounds (%"class.blink::AtomicEntryFlag", %"class.blink::AtomicEntryFlag"* @_ZN5blink11ThreadState25incremental_marking_flag_E, i64 0, i32 0, i32 0, i32 0, i32 0, i32 0, i32 0) monotonic, align 4
  %49 = icmp eq i32 %48, 0
  br i1 %49, label %54, label %50

50:                                               ; preds = %47
  %51 = bitcast %"class.WTF::Vector.307"* %36 to i8**
  %52 = load i8*, i8** %51, align 8
  %53 = call zeroext i1 @_ZN5blink14MarkingVisitor16WriteBarrierSlowEPv(i8* %52) #9
  br label %54

54:                                               ; preds = %47, %50
  %55 = inttoptr i64 %38 to %"class.blink::Member.310"*
  %56 = zext i32 %41 to i64
  %57 = getelementptr inbounds %"class.blink::Member.310", %"class.blink::Member.310"* %55, i64 %56
  %58 = icmp eq i32 %41, 0
  br i1 %58, label %69, label %59

59:                                               ; preds = %54
  %60 = bitcast %"class.blink::Member.297"* %3 to i8*
  %61 = bitcast %"class.blink::Member.297"* %3 to i64*
  br label %62

62:                                               ; preds = %59, %62
  %63 = phi %"class.blink::Member.310"* [ %55, %59 ], [ %67, %62 ]
  %64 = getelementptr inbounds %"class.blink::Member.310", %"class.blink::Member.310"* %63, i64 0, i32 0, i32 0
  %65 = load %"class.blink::ScriptPromiseResolver"*, %"class.blink::ScriptPromiseResolver"** %64, align 8
  %66 = load i64, i64* %29, align 8
  call void @llvm.lifetime.start.p0i8(i64 8, i8* nonnull %60)
  store i64 %66, i64* %61, align 8
  call void @_ZN5blink21ScriptPromiseResolver15ResolveOrRejectINS_6MemberINS_8ResponseEEEEEvT_NS0_15ResolutionStateE(%"class.blink::ScriptPromiseResolver"* %65, %"class.blink::Member.297"* nonnull %3, i32 1) #9
  call void @llvm.lifetime.end.p0i8(i64 8, i8* nonnull %60)
  %67 = getelementptr inbounds %"class.blink::Member.310", %"class.blink::Member.310"* %63, i64 1
  %68 = icmp eq %"class.blink::Member.310"* %67, %57
  br i1 %68, label %69, label %62

69:                                               ; preds = %62, %54, %21
  ret void
}

; Function Attrs: nounwind ssp uwtable
define hidden void @_ZN5blink21BackgroundFetchRecord13responseReadyEPNS_11ScriptStateE(%"class.blink::ScriptPromise"* noalias sret, %"class.blink::BackgroundFetchRecord"* nocapture readonly, %"class.blink::ScriptState"* nocapture readonly) local_unnamed_addr #0 align 2 {
  %4 = getelementptr inbounds %"class.blink::BackgroundFetchRecord", %"class.blink::BackgroundFetchRecord"* %1, i64 0, i32 2, i32 0, i32 0
  %5 = load %"class.blink::ScriptPromiseProperty"*, %"class.blink::ScriptPromiseProperty"** %4, align 8
  %6 = getelementptr inbounds %"class.blink::ScriptState", %"class.blink::ScriptState"* %2, i64 0, i32 2, i32 0
  %7 = load %"class.blink::DOMWrapperWorld"*, %"class.blink::DOMWrapperWorld"** %6, align 8
  tail call void @_ZN5blink21ScriptPromisePropertyINS_6MemberINS_8ResponseEEENS1_INS_12DOMExceptionEEEE7PromiseERNS_15DOMWrapperWorldE(%"class.blink::ScriptPromise"* sret %0, %"class.blink::ScriptPromiseProperty"* %5, %"class.blink::DOMWrapperWorld"* dereferenceable(32) %7)
  ret void
}

; Function Attrs: nounwind ssp uwtable
define linkonce_odr hidden void @_ZN5blink21ScriptPromisePropertyINS_6MemberINS_8ResponseEEENS1_INS_12DOMExceptionEEEE7PromiseERNS_15DOMWrapperWorldE(%"class.blink::ScriptPromise"* noalias sret, %"class.blink::ScriptPromiseProperty"*, %"class.blink::DOMWrapperWorld"* dereferenceable(32)) local_unnamed_addr #0 comdat align 2 {
  %4 = alloca %"class.blink::Member.302", align 8
  %5 = alloca %"class.blink::Member.297", align 8
  %6 = alloca %"class.v8::HandleScope", align 8
  %7 = alloca %"class.blink::ScriptState::Scope", align 8
  %8 = alloca %"class.blink::ScriptPromiseResolver"*, align 8
  %9 = alloca %"class.blink::ScriptPromise", align 8
  %10 = getelementptr inbounds %"class.blink::ScriptPromiseProperty", %"class.blink::ScriptPromiseProperty"* %1, i64 0, i32 0
  %11 = tail call %"class.blink::ExecutionContext"* @_ZNK5blink22ExecutionContextClient19GetExecutionContextEv(%"class.blink::ExecutionContextClient"* %10) #9
  %12 = icmp eq %"class.blink::ExecutionContext"* %11, null
  br i1 %12, label %13, label %15

13:                                               ; preds = %3
  %14 = bitcast %"class.blink::ScriptPromise"* %0 to i8*
  call void @llvm.memset.p0i8.i64(i8* align 8 %14, i8 0, i64 32, i1 false)
  br label %152

15:                                               ; preds = %3
  %16 = bitcast %"class.v8::HandleScope"* %6 to i8*
  call void @llvm.lifetime.start.p0i8(i64 24, i8* nonnull %16) #9
  %17 = bitcast %"class.v8::HandleScope"* %6 to i8*
  call void @llvm.memset.p0i8.i64(i8* nonnull align 8 %17, i8 -86, i64 24, i1 false)
  %18 = tail call %"class.blink::ExecutionContext"* @_ZNK5blink22ExecutionContextClient19GetExecutionContextEv(%"class.blink::ExecutionContextClient"* %10) #9
  %19 = getelementptr inbounds %"class.blink::ExecutionContext", %"class.blink::ExecutionContext"* %18, i64 0, i32 5
  %20 = load %"class.v8::Isolate"*, %"class.v8::Isolate"** %19, align 8
  call void @_ZN2v811HandleScopeC1EPNS_7IsolateE(%"class.v8::HandleScope"* nonnull %6, %"class.v8::Isolate"* %20) #9
  %21 = call %"class.blink::ExecutionContext"* @_ZNK5blink22ExecutionContextClient19GetExecutionContextEv(%"class.blink::ExecutionContextClient"* %10) #9
  %22 = call %"class.v8::Context"* @_ZN5blink11ToV8ContextEPNS_16ExecutionContextERNS_15DOMWrapperWorldE(%"class.blink::ExecutionContext"* %21, %"class.blink::DOMWrapperWorld"* dereferenceable(32) %2) #9
  %23 = icmp eq %"class.v8::Context"* %22, null
  br i1 %23, label %24, label %26

24:                                               ; preds = %15
  %25 = bitcast %"class.blink::ScriptPromise"* %0 to i8*
  call void @llvm.memset.p0i8.i64(i8* align 8 %25, i8 0, i64 32, i1 false)
  br label %151

26:                                               ; preds = %15
  %27 = call %"class.blink::ScriptState"* @_ZN5blink11ScriptState4FromEN2v85LocalINS1_7ContextEEE(%"class.v8::Context"* nonnull %22)
  %28 = getelementptr inbounds %"class.blink::ScriptPromiseProperty", %"class.blink::ScriptPromiseProperty"* %1, i64 0, i32 6, i32 0
  %29 = getelementptr inbounds %"class.WTF::Vector.326", %"class.WTF::Vector.326"* %28, i64 0, i32 0, i32 0, i32 0
  %30 = load %"class.blink::ScriptPromise"*, %"class.blink::ScriptPromise"** %29, align 8
  %31 = getelementptr inbounds %"class.blink::ScriptPromiseProperty", %"class.blink::ScriptPromiseProperty"* %1, i64 0, i32 6, i32 0, i32 0, i32 0, i32 2
  %32 = load i32, i32* %31, align 4
  %33 = zext i32 %32 to i64
  %34 = getelementptr inbounds %"class.blink::ScriptPromise", %"class.blink::ScriptPromise"* %30, i64 %33
  %35 = icmp eq i32 %32, 0
  br i1 %35, label %45, label %36

36:                                               ; preds = %26, %41
  %37 = phi %"class.blink::ScriptPromise"* [ %42, %41 ], [ %30, %26 ]
  %38 = getelementptr inbounds %"class.blink::ScriptPromise", %"class.blink::ScriptPromise"* %37, i64 0, i32 0, i32 0, i32 0
  %39 = load %"class.blink::ScriptState"*, %"class.blink::ScriptState"** %38, align 8
  %40 = icmp eq %"class.blink::ScriptState"* %39, %27
  br i1 %40, label %44, label %41

41:                                               ; preds = %36
  %42 = getelementptr inbounds %"class.blink::ScriptPromise", %"class.blink::ScriptPromise"* %37, i64 1
  %43 = icmp eq %"class.blink::ScriptPromise"* %42, %34
  br i1 %43, label %45, label %36

44:                                               ; preds = %36
  call void @_ZN5blink13ScriptPromiseC1ERKS0_(%"class.blink::ScriptPromise"* %0, %"class.blink::ScriptPromise"* dereferenceable(32) %37) #9
  br label %151

45:                                               ; preds = %41, %26
  %46 = bitcast %"class.blink::ScriptState::Scope"* %7 to i8*
  call void @llvm.lifetime.start.p0i8(i64 32, i8* nonnull %46) #9
  %47 = getelementptr inbounds %"class.blink::ScriptState::Scope", %"class.blink::ScriptState::Scope"* %7, i64 0, i32 1, i32 0
  %48 = getelementptr inbounds %"class.blink::ScriptState::Scope", %"class.blink::ScriptState::Scope"* %7, i64 0, i32 0
  %49 = getelementptr inbounds %"class.blink::ScriptState", %"class.blink::ScriptState"* %27, i64 0, i32 0
  %50 = bitcast %"class.blink::ScriptState::Scope"* %7 to i8*
  call void @llvm.memset.p0i8.i64(i8* nonnull align 8 %50, i8 -86, i64 32, i1 false)
  %51 = load %"class.v8::Isolate"*, %"class.v8::Isolate"** %49, align 8
  call void @_ZN2v811HandleScopeC1EPNS_7IsolateE(%"class.v8::HandleScope"* nonnull %48, %"class.v8::Isolate"* %51) #9
  %52 = getelementptr inbounds %"class.blink::ScriptState", %"class.blink::ScriptState"* %27, i64 0, i32 1, i32 0, i32 0, i32 0
  %53 = load %"class.v8::Context"*, %"class.v8::Context"** %52, align 8
  %54 = icmp eq %"class.v8::Context"* %53, null
  br i1 %54, label %62, label %55

55:                                               ; preds = %45
  %56 = bitcast %"class.blink::ScriptState"* %27 to %"class.v8::internal::Isolate"**
  %57 = load %"class.v8::internal::Isolate"*, %"class.v8::internal::Isolate"** %56, align 8
  %58 = bitcast %"class.v8::Context"* %53 to i64*
  %59 = load i64, i64* %58, align 8
  %60 = call i64* @_ZN2v811HandleScope12CreateHandleEPNS_8internal7IsolateEm(%"class.v8::internal::Isolate"* %57, i64 %59) #9
  %61 = bitcast i64* %60 to %"class.v8::Context"*
  br label %62

62:                                               ; preds = %45, %55
  %63 = phi %"class.v8::Context"* [ %61, %55 ], [ null, %45 ]
  store %"class.v8::Context"* %63, %"class.v8::Context"** %47, align 8
  call void @_ZN2v87Context5EnterEv(%"class.v8::Context"* %63) #9
  %64 = bitcast %"class.blink::ScriptPromiseResolver"** %8 to i8*
  call void @llvm.lifetime.start.p0i8(i64 8, i8* nonnull %64) #9
  store %"class.blink::ScriptPromiseResolver"* inttoptr (i64 -6148914691236517206 to %"class.blink::ScriptPromiseResolver"*), %"class.blink::ScriptPromiseResolver"** %8, align 8
  %65 = call i8* @_ZN5blink10ThreadHeap8AllocateINS_21ScriptPromiseResolverEEEPhm(i64 104) #9
  %66 = bitcast i8* %65 to %"class.blink::ScriptPromiseResolver"*
  call void @_ZN5blink21ScriptPromiseResolverC1EPNS_11ScriptStateE(%"class.blink::ScriptPromiseResolver"* %66, %"class.blink::ScriptState"* %27) #9
  %67 = getelementptr inbounds i8, i8* %65, i64 -4
  %68 = bitcast i8* %67 to i16*
  %69 = load atomic i16, i16* %68 monotonic, align 2
  %70 = or i16 %69, 1
  store atomic i16 %70, i16* %68 release, align 2
  %71 = bitcast %"class.blink::ScriptPromiseResolver"** %8 to i8**
  store i8* %65, i8** %71, align 8
  %72 = bitcast %"class.blink::ScriptPromise"* %9 to i8*
  call void @llvm.lifetime.start.p0i8(i64 32, i8* nonnull %72) #9
  %73 = getelementptr inbounds %"class.blink::ScriptPromise", %"class.blink::ScriptPromise"* %9, i64 0, i32 1, i32 1, i32 1, i32 0
  %74 = getelementptr inbounds i8, i8* %65, i64 48
  %75 = bitcast i8* %74 to %"class.blink::ScriptPromise::InternalResolver"*
  %76 = bitcast %"class.blink::ScriptPromise"* %9 to i8*
  call void @llvm.memset.p0i8.i64(i8* nonnull align 8 %76, i8 -86, i64 32, i1 false)
  call void @_ZNK5blink13ScriptPromise16InternalResolver7PromiseEv(%"class.blink::ScriptPromise"* nonnull sret %9, %"class.blink::ScriptPromise::InternalResolver"* %75) #9
  %77 = getelementptr inbounds %"class.blink::ScriptPromiseProperty", %"class.blink::ScriptPromiseProperty"* %1, i64 0, i32 8
  %78 = load i8, i8* %77, align 1, !range !3
  %79 = icmp eq i8 %78, 0
  br i1 %79, label %81, label %80

80:                                               ; preds = %62
  call void @_ZN5blink13ScriptPromise13MarkAsHandledEv(%"class.blink::ScriptPromise"* nonnull %9) #9
  br label %81

81:                                               ; preds = %62, %80
  %82 = getelementptr inbounds %"class.blink::ScriptPromiseProperty", %"class.blink::ScriptPromiseProperty"* %1, i64 0, i32 1
  %83 = load i32, i32* %82, align 8
  switch i32 %83, label %127 [
    i32 0, label %84
    i32 1, label %108
    i32 2, label %120
  ]

84:                                               ; preds = %81
  %85 = getelementptr inbounds %"class.blink::ScriptPromiseProperty", %"class.blink::ScriptPromiseProperty"* %1, i64 0, i32 5, i32 0
  %86 = getelementptr inbounds %"class.blink::ScriptPromiseProperty", %"class.blink::ScriptPromiseProperty"* %1, i64 0, i32 5, i32 0, i32 0, i32 0, i32 2
  %87 = load i32, i32* %86, align 4
  %88 = getelementptr inbounds %"class.blink::ScriptPromiseProperty", %"class.blink::ScriptPromiseProperty"* %1, i64 0, i32 5, i32 0, i32 0, i32 0, i32 1
  %89 = load i32, i32* %88, align 8
  %90 = icmp eq i32 %87, %89
  br i1 %90, label %107, label %91, !prof !4

91:                                               ; preds = %84
  %92 = getelementptr inbounds %"class.WTF::Vector.307", %"class.WTF::Vector.307"* %85, i64 0, i32 0, i32 0, i32 0
  %93 = load %"class.blink::Member.310"*, %"class.blink::Member.310"** %92, align 8
  %94 = zext i32 %87 to i64
  %95 = getelementptr inbounds %"class.blink::Member.310", %"class.blink::Member.310"* %93, i64 %94
  %96 = bitcast %"class.blink::ScriptPromiseResolver"** %8 to i64*
  %97 = load i64, i64* %96, align 8
  %98 = bitcast %"class.blink::Member.310"* %95 to i64*
  store atomic i64 %97, i64* %98 monotonic, align 8
  %99 = load atomic i32, i32* getelementptr inbounds (%"class.blink::AtomicEntryFlag", %"class.blink::AtomicEntryFlag"* @_ZN5blink11ThreadState25incremental_marking_flag_E, i64 0, i32 0, i32 0, i32 0, i32 0, i32 0, i32 0) monotonic, align 4
  %100 = icmp eq i32 %99, 0
  br i1 %100, label %104, label %101

101:                                              ; preds = %91
  %102 = inttoptr i64 %97 to i8*
  %103 = call zeroext i1 @_ZN5blink14MarkingVisitor16WriteBarrierSlowEPv(i8* %102) #9
  br label %104

104:                                              ; preds = %101, %91
  %105 = load i32, i32* %86, align 4
  %106 = add i32 %105, 1
  store i32 %106, i32* %86, align 4
  br label %127

107:                                              ; preds = %84
  call void @_ZN3WTF6VectorIN5blink6MemberINS1_21ScriptPromiseResolverEEELj0ENS1_13HeapAllocatorEE14AppendSlowCaseIRPS3_EEvOT_(%"class.WTF::Vector.307"* %85, %"class.blink::ScriptPromiseResolver"** nonnull dereferenceable(8) %8) #9
  br label %127

108:                                              ; preds = %81
  %109 = getelementptr inbounds %"class.blink::ScriptPromiseProperty", %"class.blink::ScriptPromiseProperty"* %1, i64 0, i32 7
  %110 = load i8, i8* %109, align 8, !range !3
  %111 = icmp eq i8 %110, 0
  %112 = load %"class.blink::ScriptPromiseResolver"*, %"class.blink::ScriptPromiseResolver"** %8, align 8
  br i1 %111, label %114, label %113

113:                                              ; preds = %108
  call void @_ZN5blink21ScriptPromiseResolver15ResolveOrRejectINS_22ToV8UndefinedGeneratorEEEvT_NS0_15ResolutionStateE(%"class.blink::ScriptPromiseResolver"* %112, i32 1) #9
  br label %127

114:                                              ; preds = %108
  %115 = getelementptr inbounds %"class.blink::ScriptPromiseProperty", %"class.blink::ScriptPromiseProperty"* %1, i64 0, i32 3
  %116 = bitcast %"class.blink::Member.297"* %115 to i64*
  %117 = load i64, i64* %116, align 8
  %118 = bitcast %"class.blink::Member.297"* %5 to i8*
  call void @llvm.lifetime.start.p0i8(i64 8, i8* nonnull %118)
  %119 = bitcast %"class.blink::Member.297"* %5 to i64*
  store i64 %117, i64* %119, align 8
  call void @_ZN5blink21ScriptPromiseResolver15ResolveOrRejectINS_6MemberINS_8ResponseEEEEEvT_NS0_15ResolutionStateE(%"class.blink::ScriptPromiseResolver"* %112, %"class.blink::Member.297"* nonnull %5, i32 1) #9
  call void @llvm.lifetime.end.p0i8(i64 8, i8* nonnull %118)
  br label %127

120:                                              ; preds = %81
  %121 = load %"class.blink::ScriptPromiseResolver"*, %"class.blink::ScriptPromiseResolver"** %8, align 8
  %122 = getelementptr inbounds %"class.blink::ScriptPromiseProperty", %"class.blink::ScriptPromiseProperty"* %1, i64 0, i32 4
  %123 = bitcast %"class.blink::Member.302"* %122 to i64*
  %124 = load i64, i64* %123, align 8
  %125 = bitcast %"class.blink::Member.302"* %4 to i8*
  call void @llvm.lifetime.start.p0i8(i64 8, i8* nonnull %125)
  %126 = bitcast %"class.blink::Member.302"* %4 to i64*
  store i64 %124, i64* %126, align 8
  call void @_ZN5blink21ScriptPromiseResolver15ResolveOrRejectINS_6MemberINS_12DOMExceptionEEEEEvT_NS0_15ResolutionStateE(%"class.blink::ScriptPromiseResolver"* %121, %"class.blink::Member.302"* nonnull %4, i32 2) #9
  call void @llvm.lifetime.end.p0i8(i64 8, i8* nonnull %125)
  br label %127

127:                                              ; preds = %107, %104, %113, %114, %81, %120
  %128 = load i32, i32* %31, align 4
  %129 = getelementptr inbounds %"class.blink::ScriptPromiseProperty", %"class.blink::ScriptPromiseProperty"* %1, i64 0, i32 6, i32 0, i32 0, i32 0, i32 1
  %130 = load i32, i32* %129, align 8
  %131 = icmp eq i32 %128, %130
  br i1 %131, label %138, label %132, !prof !4

132:                                              ; preds = %127
  %133 = load %"class.blink::ScriptPromise"*, %"class.blink::ScriptPromise"** %29, align 8
  %134 = zext i32 %128 to i64
  %135 = getelementptr inbounds %"class.blink::ScriptPromise", %"class.blink::ScriptPromise"* %133, i64 %134
  call void @_ZN5blink13ScriptPromiseC1ERKS0_(%"class.blink::ScriptPromise"* %135, %"class.blink::ScriptPromise"* nonnull dereferenceable(32) %9) #9
  call void @_ZN5blink13HeapAllocator15NotifyNewObjectINS_13ScriptPromiseEN3WTF12VectorTraitsIS2_EEEEvPT_(%"class.blink::ScriptPromise"* %135) #9
  %136 = load i32, i32* %31, align 4
  %137 = add i32 %136, 1
  store i32 %137, i32* %31, align 4
  br label %139

138:                                              ; preds = %127
  call void @_ZN3WTF6VectorIN5blink13ScriptPromiseELj0ENS1_13HeapAllocatorEE14AppendSlowCaseIRS2_EEvOT_(%"class.WTF::Vector.326"* %28, %"class.blink::ScriptPromise"* nonnull dereferenceable(32) %9) #9
  br label %139

139:                                              ; preds = %132, %138
  call void @_ZN5blink13ScriptPromiseC1ERKS0_(%"class.blink::ScriptPromise"* %0, %"class.blink::ScriptPromise"* nonnull dereferenceable(32) %9) #9
  %140 = load %"class.blink::DOMWrapperWorld"*, %"class.blink::DOMWrapperWorld"** %73, align 8
  %141 = icmp eq %"class.blink::DOMWrapperWorld"* %140, null
  br i1 %141, label %149, label %142

142:                                              ; preds = %139
  %143 = getelementptr inbounds %"class.blink::DOMWrapperWorld", %"class.blink::DOMWrapperWorld"* %140, i64 0, i32 0, i32 0, i32 0
  call void @_ZNK4base6subtle14RefCountedBase11ReleaseImplEv(%"class.base::subtle::RefCountedBase"* %143) #9
  %144 = getelementptr inbounds %"class.blink::DOMWrapperWorld", %"class.blink::DOMWrapperWorld"* %140, i64 0, i32 0, i32 0, i32 0, i32 0
  %145 = load i32, i32* %144, align 4
  %146 = icmp eq i32 %145, 0
  br i1 %146, label %147, label %149

147:                                              ; preds = %142
  call void @_ZN5blink15DOMWrapperWorldD1Ev(%"class.blink::DOMWrapperWorld"* nonnull %140) #9
  %148 = bitcast %"class.blink::DOMWrapperWorld"* %140 to i8*
  call void @free(i8* %148) #9
  br label %149

149:                                              ; preds = %139, %142, %147
  call void @llvm.lifetime.end.p0i8(i64 32, i8* nonnull %72) #9
  call void @llvm.lifetime.end.p0i8(i64 8, i8* nonnull %64) #9
  %150 = load %"class.v8::Context"*, %"class.v8::Context"** %47, align 8
  call void @_ZN2v87Context4ExitEv(%"class.v8::Context"* %150) #9
  call void @_ZN2v811HandleScopeD1Ev(%"class.v8::HandleScope"* nonnull %48) #9
  call void @llvm.lifetime.end.p0i8(i64 32, i8* nonnull %46) #9
  br label %151

151:                                              ; preds = %149, %44, %24
  call void @_ZN2v811HandleScopeD1Ev(%"class.v8::HandleScope"* nonnull %6) #9
  call void @llvm.lifetime.end.p0i8(i64 24, i8* nonnull %16) #9
  br label %152

152:                                              ; preds = %151, %13
  ret void
}

; Function Attrs: norecurse nounwind readonly ssp uwtable
define hidden %"class.blink::Request"* @_ZNK5blink21BackgroundFetchRecord7requestEv(%"class.blink::BackgroundFetchRecord"* nocapture readonly) local_unnamed_addr #4 align 2 {
  %2 = getelementptr inbounds %"class.blink::BackgroundFetchRecord", %"class.blink::BackgroundFetchRecord"* %0, i64 0, i32 1, i32 0, i32 0
  %3 = load %"class.blink::Request"*, %"class.blink::Request"** %2, align 8
  ret %"class.blink::Request"* %3
}

; Function Attrs: nounwind ssp uwtable
define hidden void @_ZN5blink21BackgroundFetchRecord11UpdateStateENS0_5StateE(%"class.blink::BackgroundFetchRecord"* nocapture, i32) local_unnamed_addr #0 align 2 {
  %3 = getelementptr inbounds %"class.blink::BackgroundFetchRecord", %"class.blink::BackgroundFetchRecord"* %0, i64 0, i32 3, i32 0, i32 0
  %4 = load %"class.blink::ScriptState"*, %"class.blink::ScriptState"** %3, align 8
  %5 = getelementptr inbounds %"class.blink::ScriptState", %"class.blink::ScriptState"* %4, i64 0, i32 1, i32 0, i32 0, i32 0
  %6 = load %"class.v8::Context"*, %"class.v8::Context"** %5, align 8
  %7 = icmp eq %"class.v8::Context"* %6, null
  br i1 %7, label %14, label %8

8:                                                ; preds = %2
  %9 = getelementptr inbounds %"class.blink::ScriptState", %"class.blink::ScriptState"* %4, i64 0, i32 3, i32 0, i32 0
  %10 = load %"class.blink::V8PerContextData"*, %"class.blink::V8PerContextData"** %9, align 8
  %11 = icmp eq %"class.blink::V8PerContextData"* %10, null
  br i1 %11, label %14, label %12

12:                                               ; preds = %8
  %13 = getelementptr inbounds %"class.blink::BackgroundFetchRecord", %"class.blink::BackgroundFetchRecord"* %0, i64 0, i32 4
  store i32 %1, i32* %13, align 8
  tail call void @_ZN5blink21BackgroundFetchRecord28ResolveResponseReadyPropertyEPNS_8ResponseE(%"class.blink::BackgroundFetchRecord"* %0, %"class.blink::Response"* null)
  br label %14

14:                                               ; preds = %8, %2, %12
  ret void
}

; Function Attrs: nounwind ssp uwtable
define hidden void @_ZN5blink21BackgroundFetchRecord25SetResponseAndUpdateStateERN4mojo9StructPtrINS_5mojom5blink16FetchAPIResponseEEE(%"class.blink::BackgroundFetchRecord"* nocapture, %"class.mojo::StructPtr"* nocapture readonly dereferenceable(8)) local_unnamed_addr #0 align 2 {
  %3 = alloca %"class.blink::ScriptState::Scope", align 8
  %4 = getelementptr inbounds %"class.blink::BackgroundFetchRecord", %"class.blink::BackgroundFetchRecord"* %0, i64 0, i32 3, i32 0, i32 0
  %5 = load %"class.blink::ScriptState"*, %"class.blink::ScriptState"** %4, align 8
  %6 = getelementptr inbounds %"class.blink::ScriptState", %"class.blink::ScriptState"* %5, i64 0, i32 1, i32 0, i32 0, i32 0
  %7 = load %"class.v8::Context"*, %"class.v8::Context"** %6, align 8
  %8 = icmp eq %"class.v8::Context"* %7, null
  br i1 %8, label %37, label %9

9:                                                ; preds = %2
  %10 = getelementptr inbounds %"class.blink::ScriptState", %"class.blink::ScriptState"* %5, i64 0, i32 3, i32 0, i32 0
  %11 = load %"class.blink::V8PerContextData"*, %"class.blink::V8PerContextData"** %10, align 8
  %12 = icmp eq %"class.blink::V8PerContextData"* %11, null
  br i1 %12, label %37, label %13

13:                                               ; preds = %9
  %14 = getelementptr inbounds %"class.blink::BackgroundFetchRecord", %"class.blink::BackgroundFetchRecord"* %0, i64 0, i32 4
  store i32 2, i32* %14, align 8
  %15 = bitcast %"class.blink::ScriptState::Scope"* %3 to i8*
  call void @llvm.lifetime.start.p0i8(i64 32, i8* nonnull %15) #9
  %16 = getelementptr inbounds %"class.blink::ScriptState::Scope", %"class.blink::ScriptState::Scope"* %3, i64 0, i32 1, i32 0
  %17 = getelementptr inbounds %"class.blink::ScriptState::Scope", %"class.blink::ScriptState::Scope"* %3, i64 0, i32 0
  %18 = getelementptr inbounds %"class.blink::ScriptState", %"class.blink::ScriptState"* %5, i64 0, i32 0
  %19 = bitcast %"class.blink::ScriptState::Scope"* %3 to i8*
  call void @llvm.memset.p0i8.i64(i8* nonnull align 8 %19, i8 -86, i64 32, i1 false)
  %20 = load %"class.v8::Isolate"*, %"class.v8::Isolate"** %18, align 8
  call void @_ZN2v811HandleScopeC1EPNS_7IsolateE(%"class.v8::HandleScope"* nonnull %17, %"class.v8::Isolate"* %20) #9
  %21 = load %"class.v8::Context"*, %"class.v8::Context"** %6, align 8
  %22 = icmp eq %"class.v8::Context"* %21, null
  br i1 %22, label %30, label %23

23:                                               ; preds = %13
  %24 = bitcast %"class.blink::ScriptState"* %5 to %"class.v8::internal::Isolate"**
  %25 = load %"class.v8::internal::Isolate"*, %"class.v8::internal::Isolate"** %24, align 8
  %26 = bitcast %"class.v8::Context"* %21 to i64*
  %27 = load i64, i64* %26, align 8
  %28 = call i64* @_ZN2v811HandleScope12CreateHandleEPNS_8internal7IsolateEm(%"class.v8::internal::Isolate"* %25, i64 %27) #9
  %29 = bitcast i64* %28 to %"class.v8::Context"*
  br label %30

30:                                               ; preds = %13, %23
  %31 = phi %"class.v8::Context"* [ %29, %23 ], [ null, %13 ]
  store %"class.v8::Context"* %31, %"class.v8::Context"** %16, align 8
  call void @_ZN2v87Context5EnterEv(%"class.v8::Context"* %31) #9
  %32 = load %"class.blink::ScriptState"*, %"class.blink::ScriptState"** %4, align 8
  %33 = getelementptr inbounds %"class.mojo::StructPtr", %"class.mojo::StructPtr"* %1, i64 0, i32 0, i32 0, i32 0, i32 0
  %34 = load %"class.blink::mojom::blink::FetchAPIResponse"*, %"class.blink::mojom::blink::FetchAPIResponse"** %33, align 8
  %35 = call %"class.blink::Response"* @_ZN5blink8Response6CreateEPNS_11ScriptStateERNS_5mojom5blink16FetchAPIResponseE(%"class.blink::ScriptState"* %32, %"class.blink::mojom::blink::FetchAPIResponse"* dereferenceable(384) %34) #9
  call void @_ZN5blink21BackgroundFetchRecord28ResolveResponseReadyPropertyEPNS_8ResponseE(%"class.blink::BackgroundFetchRecord"* %0, %"class.blink::Response"* %35)
  %36 = load %"class.v8::Context"*, %"class.v8::Context"** %16, align 8
  call void @_ZN2v87Context4ExitEv(%"class.v8::Context"* %36) #9
  call void @_ZN2v811HandleScopeD1Ev(%"class.v8::HandleScope"* nonnull %17) #9
  call void @llvm.lifetime.end.p0i8(i64 32, i8* nonnull %15) #9
  br label %37

37:                                               ; preds = %9, %2, %30
  ret void
}

declare %"class.blink::Response"* @_ZN5blink8Response6CreateEPNS_11ScriptStateERNS_5mojom5blink16FetchAPIResponseE(%"class.blink::ScriptState"*, %"class.blink::mojom::blink::FetchAPIResponse"* dereferenceable(384)) local_unnamed_addr #2

; Function Attrs: norecurse nounwind readonly ssp uwtable
define hidden zeroext i1 @_ZN5blink21BackgroundFetchRecord15IsRecordPendingEv(%"class.blink::BackgroundFetchRecord"* nocapture readonly) local_unnamed_addr #4 align 2 {
  %2 = getelementptr inbounds %"class.blink::BackgroundFetchRecord", %"class.blink::BackgroundFetchRecord"* %0, i64 0, i32 4
  %3 = load i32, i32* %2, align 8
  %4 = icmp eq i32 %3, 0
  ret i1 %4
}

; Function Attrs: nounwind ssp uwtable
define hidden void @_ZN5blink21BackgroundFetchRecord18OnRequestCompletedEN4mojo9StructPtrINS_5mojom5blink16FetchAPIResponseEEE(%"class.blink::BackgroundFetchRecord"* nocapture, %"class.mojo::StructPtr"* nocapture readonly) local_unnamed_addr #0 align 2 {
  %3 = getelementptr inbounds %"class.mojo::StructPtr", %"class.mojo::StructPtr"* %1, i64 0, i32 0, i32 0, i32 0, i32 0
  %4 = load %"class.blink::mojom::blink::FetchAPIResponse"*, %"class.blink::mojom::blink::FetchAPIResponse"** %3, align 8
  %5 = icmp eq %"class.blink::mojom::blink::FetchAPIResponse"* %4, null
  br i1 %5, label %7, label %6

6:                                                ; preds = %2
  tail call void @_ZN5blink21BackgroundFetchRecord25SetResponseAndUpdateStateERN4mojo9StructPtrINS_5mojom5blink16FetchAPIResponseEEE(%"class.blink::BackgroundFetchRecord"* %0, %"class.mojo::StructPtr"* dereferenceable(8) %1)
  br label %19

7:                                                ; preds = %2
  %8 = getelementptr inbounds %"class.blink::BackgroundFetchRecord", %"class.blink::BackgroundFetchRecord"* %0, i64 0, i32 3, i32 0, i32 0
  %9 = load %"class.blink::ScriptState"*, %"class.blink::ScriptState"** %8, align 8
  %10 = getelementptr inbounds %"class.blink::ScriptState", %"class.blink::ScriptState"* %9, i64 0, i32 1, i32 0, i32 0, i32 0
  %11 = load %"class.v8::Context"*, %"class.v8::Context"** %10, align 8
  %12 = icmp eq %"class.v8::Context"* %11, null
  br i1 %12, label %19, label %13

13:                                               ; preds = %7
  %14 = getelementptr inbounds %"class.blink::ScriptState", %"class.blink::ScriptState"* %9, i64 0, i32 3, i32 0, i32 0
  %15 = load %"class.blink::V8PerContextData"*, %"class.blink::V8PerContextData"** %14, align 8
  %16 = icmp eq %"class.blink::V8PerContextData"* %15, null
  br i1 %16, label %19, label %17

17:                                               ; preds = %13
  %18 = getelementptr inbounds %"class.blink::BackgroundFetchRecord", %"class.blink::BackgroundFetchRecord"* %0, i64 0, i32 4
  store i32 2, i32* %18, align 8
  tail call void @_ZN5blink21BackgroundFetchRecord28ResolveResponseReadyPropertyEPNS_8ResponseE(%"class.blink::BackgroundFetchRecord"* %0, %"class.blink::Response"* null) #9
  br label %19

19:                                               ; preds = %17, %13, %7, %6
  ret void
}

; Function Attrs: nounwind ssp uwtable
define hidden dereferenceable(112) %"class.blink::KURL"* @_ZNK5blink21BackgroundFetchRecord11ObservedUrlEv(%"class.blink::BackgroundFetchRecord"* nocapture readonly) local_unnamed_addr #0 align 2 {
  %2 = getelementptr inbounds %"class.blink::BackgroundFetchRecord", %"class.blink::BackgroundFetchRecord"* %0, i64 0, i32 1, i32 0, i32 0
  %3 = load %"class.blink::Request"*, %"class.blink::Request"** %2, align 8
  %4 = tail call dereferenceable(112) %"class.blink::KURL"* @_ZNK5blink7Request3urlEv(%"class.blink::Request"* %3) #9
  ret %"class.blink::KURL"* %4
}

declare dereferenceable(112) %"class.blink::KURL"* @_ZNK5blink7Request3urlEv(%"class.blink::Request"*) local_unnamed_addr #2

; Function Attrs: nounwind ssp uwtable
define hidden void @_ZNK5blink21BackgroundFetchRecord5TraceEPNS_7VisitorE(%"class.blink::BackgroundFetchRecord"*, %"class.blink::Visitor"*) unnamed_addr #0 align 2 {
  %3 = getelementptr inbounds %"class.blink::BackgroundFetchRecord", %"class.blink::BackgroundFetchRecord"* %0, i64 0, i32 1
  %4 = bitcast %"class.blink::Member"* %3 to i64*
  %5 = load atomic i64, i64* %4 monotonic, align 8
  %6 = icmp eq i64 %5, 0
  br i1 %6, label %13, label %7

7:                                                ; preds = %2
  %8 = inttoptr i64 %5 to i8*
  %9 = bitcast %"class.blink::Visitor"* %1 to void (%"class.blink::Visitor"*, i8*, i8*, void (%"class.blink::Visitor"*, i8*)*)***
  %10 = load void (%"class.blink::Visitor"*, i8*, i8*, void (%"class.blink::Visitor"*, i8*)*)**, void (%"class.blink::Visitor"*, i8*, i8*, void (%"class.blink::Visitor"*, i8*)*)*** %9, align 8
  %11 = getelementptr inbounds void (%"class.blink::Visitor"*, i8*, i8*, void (%"class.blink::Visitor"*, i8*)*)*, void (%"class.blink::Visitor"*, i8*, i8*, void (%"class.blink::Visitor"*, i8*)*)** %10, i64 5
  %12 = load void (%"class.blink::Visitor"*, i8*, i8*, void (%"class.blink::Visitor"*, i8*)*)*, void (%"class.blink::Visitor"*, i8*, i8*, void (%"class.blink::Visitor"*, i8*)*)** %11, align 8
  tail call void %12(%"class.blink::Visitor"* %1, i8* nonnull %8, i8* nonnull %8, void (%"class.blink::Visitor"*, i8*)* nonnull @_ZN5blink10TraceTraitINS_7RequestEE5TraceEPNS_7VisitorEPKv) #9
  br label %13

13:                                               ; preds = %2, %7
  %14 = getelementptr inbounds %"class.blink::BackgroundFetchRecord", %"class.blink::BackgroundFetchRecord"* %0, i64 0, i32 2
  %15 = bitcast %"class.blink::Member.293"* %14 to i64*
  %16 = load atomic i64, i64* %15 monotonic, align 8
  %17 = icmp eq i64 %16, 0
  br i1 %17, label %24, label %18

18:                                               ; preds = %13
  %19 = inttoptr i64 %16 to i8*
  %20 = bitcast %"class.blink::Visitor"* %1 to void (%"class.blink::Visitor"*, i8*, i8*, void (%"class.blink::Visitor"*, i8*)*)***
  %21 = load void (%"class.blink::Visitor"*, i8*, i8*, void (%"class.blink::Visitor"*, i8*)*)**, void (%"class.blink::Visitor"*, i8*, i8*, void (%"class.blink::Visitor"*, i8*)*)*** %20, align 8
  %22 = getelementptr inbounds void (%"class.blink::Visitor"*, i8*, i8*, void (%"class.blink::Visitor"*, i8*)*)*, void (%"class.blink::Visitor"*, i8*, i8*, void (%"class.blink::Visitor"*, i8*)*)** %21, i64 5
  %23 = load void (%"class.blink::Visitor"*, i8*, i8*, void (%"class.blink::Visitor"*, i8*)*)*, void (%"class.blink::Visitor"*, i8*, i8*, void (%"class.blink::Visitor"*, i8*)*)** %22, align 8
  tail call void %23(%"class.blink::Visitor"* %1, i8* nonnull %19, i8* nonnull %19, void (%"class.blink::Visitor"*, i8*)* nonnull @_ZN5blink10TraceTraitINS_21ScriptPromisePropertyINS_6MemberINS_8ResponseEEENS2_INS_12DOMExceptionEEEEEE5TraceEPNS_7VisitorEPKv) #9
  br label %24

24:                                               ; preds = %13, %18
  %25 = getelementptr inbounds %"class.blink::BackgroundFetchRecord", %"class.blink::BackgroundFetchRecord"* %0, i64 0, i32 3
  %26 = bitcast %"class.blink::Member.33"* %25 to i64*
  %27 = load atomic i64, i64* %26 monotonic, align 8
  %28 = icmp eq i64 %27, 0
  br i1 %28, label %35, label %29

29:                                               ; preds = %24
  %30 = inttoptr i64 %27 to i8*
  %31 = bitcast %"class.blink::Visitor"* %1 to void (%"class.blink::Visitor"*, i8*, i8*, void (%"class.blink::Visitor"*, i8*)*)***
  %32 = load void (%"class.blink::Visitor"*, i8*, i8*, void (%"class.blink::Visitor"*, i8*)*)**, void (%"class.blink::Visitor"*, i8*, i8*, void (%"class.blink::Visitor"*, i8*)*)*** %31, align 8
  %33 = getelementptr inbounds void (%"class.blink::Visitor"*, i8*, i8*, void (%"class.blink::Visitor"*, i8*)*)*, void (%"class.blink::Visitor"*, i8*, i8*, void (%"class.blink::Visitor"*, i8*)*)** %32, i64 5
  %34 = load void (%"class.blink::Visitor"*, i8*, i8*, void (%"class.blink::Visitor"*, i8*)*)*, void (%"class.blink::Visitor"*, i8*, i8*, void (%"class.blink::Visitor"*, i8*)*)** %33, align 8
  tail call void %34(%"class.blink::Visitor"* %1, i8* nonnull %30, i8* nonnull %30, void (%"class.blink::Visitor"*, i8*)* nonnull @_ZN5blink10TraceTraitINS_11ScriptStateEE5TraceEPNS_7VisitorEPKv) #9
  br label %35

35:                                               ; preds = %24, %29
  %36 = getelementptr inbounds %"class.blink::BackgroundFetchRecord", %"class.blink::BackgroundFetchRecord"* %0, i64 0, i32 0
  tail call void @_ZNK5blink15ScriptWrappable5TraceEPNS_7VisitorE(%"class.blink::ScriptWrappable"* %36, %"class.blink::Visitor"* %1) #9
  ret void
}

declare void @_ZNK5blink15ScriptWrappable5TraceEPNS_7VisitorE(%"class.blink::ScriptWrappable"*, %"class.blink::Visitor"*) unnamed_addr #2

declare i8* @_ZNK5blink15ScriptWrappable18NameInHeapSnapshotEv(%"class.blink::ScriptWrappable"*) unnamed_addr #2

; Function Attrs: nounwind ssp uwtable
define linkonce_odr hidden zeroext i1 @_ZNK5blink15ScriptWrappable18HasPendingActivityEv(%"class.blink::ScriptWrappable"*) unnamed_addr #0 comdat align 2 {
  ret i1 false
}

; Function Attrs: nounwind ssp uwtable
define linkonce_odr hidden zeroext i1 @_ZNK5blink15ScriptWrappable17HasEventListenersEv(%"class.blink::ScriptWrappable"*) unnamed_addr #0 comdat align 2 {
  ret i1 false
}

; Function Attrs: nounwind ssp uwtable
define linkonce_odr hidden %"struct.blink::WrapperTypeInfo"* @_ZNK5blink21BackgroundFetchRecord18GetWrapperTypeInfoEv(%"class.blink::BackgroundFetchRecord"*) unnamed_addr #0 comdat align 2 {
  %2 = load %"struct.blink::WrapperTypeInfo"*, %"struct.blink::WrapperTypeInfo"** @_ZN5blink21BackgroundFetchRecord18wrapper_type_info_E, align 8
  ret %"struct.blink::WrapperTypeInfo"* %2
}

declare %"class.v8::Value"* @_ZN5blink15ScriptWrappable4WrapEPNS_11ScriptStateE(%"class.blink::ScriptWrappable"*, %"class.blink::ScriptState"*) unnamed_addr #2

declare %"class.v8::Object"* @_ZN5blink15ScriptWrappable20AssociateWithWrapperEPN2v87IsolateEPKNS_15WrapperTypeInfoENS1_5LocalINS1_6ObjectEEE(%"class.blink::ScriptWrappable"*, %"class.v8::Isolate"*, %"struct.blink::WrapperTypeInfo"*, %"class.v8::Object"*) unnamed_addr #2

; Function Attrs: argmemonly nounwind
declare void @llvm.memset.p0i8.i64(i8* nocapture writeonly, i8, i64, i1 immarg) #1

declare void @_ZN2v811HandleScopeC1EPNS_7IsolateE(%"class.v8::HandleScope"*, %"class.v8::Isolate"*) unnamed_addr #2

declare void @_ZN2v87Context5EnterEv(%"class.v8::Context"*) local_unnamed_addr #2

declare i64* @_ZN2v811HandleScope12CreateHandleEPNS_8internal7IsolateEm(%"class.v8::internal::Isolate"*, i64) local_unnamed_addr #2

declare void @_ZN2v87Context4ExitEv(%"class.v8::Context"*) local_unnamed_addr #2

; Function Attrs: nounwind
declare void @_ZN2v811HandleScopeD1Ev(%"class.v8::HandleScope"*) unnamed_addr #5

; Function Attrs: nounwind ssp uwtable
define linkonce_odr hidden void @_ZN5blink10TraceTraitINS_11ScriptStateEE5TraceEPNS_7VisitorEPKv(%"class.blink::Visitor"*, i8*) #0 comdat align 2 {
  %3 = bitcast i8* %1 to %"class.blink::ScriptState"*
  tail call void @_ZNK5blink11ScriptState5TraceEPNS_7VisitorE(%"class.blink::ScriptState"* %3, %"class.blink::Visitor"* %0) #9
  ret void
}

declare void @_ZNK5blink11ScriptState5TraceEPNS_7VisitorE(%"class.blink::ScriptState"*, %"class.blink::Visitor"*) local_unnamed_addr #2

; Function Attrs: nounwind ssp uwtable
define linkonce_odr hidden i8* @_ZN5blink10ThreadHeap8AllocateINS_21ScriptPromisePropertyINS_6MemberINS_8ResponseEEENS3_INS_12DOMExceptionEEEEEEEPhm(i64) local_unnamed_addr #0 comdat align 2 {
  %2 = load %"class.WTF::ThreadSpecific"*, %"class.WTF::ThreadSpecific"** @_ZN5blink11ThreadState16thread_specific_E, align 8
  %3 = getelementptr inbounds %"class.WTF::ThreadSpecific", %"class.WTF::ThreadSpecific"* %2, i64 0, i32 1
  %4 = tail call i8* @_ZNK4base18ThreadLocalStorage4Slot3GetEv(%"class.base::ThreadLocalStorage::Slot"* %3) #9
  %5 = icmp eq i8* %4, null
  br i1 %5, label %6, label %8, !prof !4

6:                                                ; preds = %1
  %7 = tail call i8* @_ZN3WTF10Partitions16FastZeroedMallocEmPKc(i64 8, i8* getelementptr inbounds ([68 x i8], [68 x i8]* @__PRETTY_FUNCTION__._ZN3WTF21GetStringWithTypeNameIPN5blink11ThreadStateEEEPKcv, i64 0, i64 0)) #9
  tail call void @_ZN4base18ThreadLocalStorage4Slot3SetEPv(%"class.base::ThreadLocalStorage::Slot"* %3, i8* %7) #9
  br label %8

8:                                                ; preds = %1, %6
  %9 = phi i8* [ %7, %6 ], [ %4, %1 ]
  %10 = bitcast i8* %9 to %"class.blink::ThreadState"**
  %11 = load %"class.blink::ThreadState"*, %"class.blink::ThreadState"** %10, align 8
  %12 = getelementptr inbounds %"class.blink::ThreadState", %"class.blink::ThreadState"* %11, i64 0, i32 0, i32 0, i32 0, i32 0
  %13 = load %"class.blink::ThreadHeap"*, %"class.blink::ThreadHeap"** %12, align 8
  %14 = icmp ult i64 %0, 64
  %15 = icmp ugt i64 %0, 31
  %16 = zext i1 %15 to i32
  %17 = icmp ult i64 %0, 128
  %18 = select i1 %17, i32 2, i32 3
  %19 = select i1 %14, i32 %16, i32 %18
  %20 = load atomic i32, i32* getelementptr inbounds ({ { i32 } }, { { i32 } }* @_ZZN5blink11GCInfoTraitINS_21ScriptPromisePropertyINS_6MemberINS_8ResponseEEENS2_INS_12DOMExceptionEEEEEE5IndexEvE13gc_info_index, i64 0, i32 0, i32 0) acquire, align 4
  %21 = icmp eq i32 %20, 0
  br i1 %21, label %22, label %25

22:                                               ; preds = %8
  %23 = load %"class.blink::GCInfoTable"*, %"class.blink::GCInfoTable"** @_ZN5blink11GCInfoTable13global_table_E, align 8
  %24 = tail call i32 @_ZN5blink11GCInfoTable17EnsureGCInfoIndexEPKNS_6GCInfoEPNSt3__16atomicIjEE(%"class.blink::GCInfoTable"* %23, %"struct.blink::GCInfo"* nonnull @_ZZN5blink11GCInfoTraitINS_21ScriptPromisePropertyINS_6MemberINS_8ResponseEEENS2_INS_12DOMExceptionEEEEEE5IndexEvE7kGcInfo, %"struct.std::__1::atomic"* bitcast ({ { i32 } }* @_ZZN5blink11GCInfoTraitINS_21ScriptPromisePropertyINS_6MemberINS_8ResponseEEENS2_INS_12DOMExceptionEEEEEE5IndexEvE13gc_info_index to %"struct.std::__1::atomic"*)) #9
  br label %25

25:                                               ; preds = %8, %22
  %26 = phi i32 [ %20, %8 ], [ %24, %22 ]
  %27 = tail call i8* @_ZN5blink10ThreadHeap20AllocateOnArenaIndexEPNS_11ThreadStateEmijPKc(%"class.blink::ThreadHeap"* %13, %"class.blink::ThreadState"* %11, i64 %0, i32 %19, i32 %26, i8* getelementptr inbounds ([145 x i8], [145 x i8]* @__PRETTY_FUNCTION__._ZN3WTF21GetStringWithTypeNameIN5blink21ScriptPromisePropertyINS1_6MemberINS1_8ResponseEEENS3_INS1_12DOMExceptionEEEEEEEPKcv, i64 0, i64 0))
  ret i8* %27
}

; Function Attrs: inlinehint nounwind ssp uwtable
define linkonce_odr hidden i8* @_ZN5blink10ThreadHeap20AllocateOnArenaIndexEPNS_11ThreadStateEmijPKc(%"class.blink::ThreadHeap"*, %"class.blink::ThreadState"*, i64, i32, i32, i8*) local_unnamed_addr #6 comdat align 2 {
  %7 = alloca %"class.logging::CheckOpResult", align 8
  %8 = alloca %"class.logging::CheckOpResult", align 8
  %9 = alloca %"class.logging::CheckError", align 8
  %10 = sext i32 %3 to i64
  %11 = getelementptr inbounds %"class.blink::ThreadHeap", %"class.blink::ThreadHeap"* %0, i64 0, i32 19, i64 %10
  %12 = bitcast %"class.blink::BaseArena"** %11 to %"class.blink::NormalPageArena"**
  %13 = load %"class.blink::NormalPageArena"*, %"class.blink::NormalPageArena"** %12, align 8
  %14 = bitcast %"class.logging::CheckOpResult"* %8 to i8*
  call void @llvm.lifetime.start.p0i8(i64 8, i8* nonnull %14) #9
  %15 = getelementptr inbounds %"class.logging::CheckOpResult", %"class.logging::CheckOpResult"* %8, i64 0, i32 0
  store i8* inttoptr (i64 -6148914691236517206 to i8*), i8** %15, align 8
  %16 = bitcast %"class.logging::CheckOpResult"* %7 to i8*
  call void @llvm.lifetime.start.p0i8(i64 8, i8* nonnull %16) #9
  %17 = icmp ult i64 %2, -8
  br i1 %17, label %18, label %19

18:                                               ; preds = %6
  call void @llvm.lifetime.end.p0i8(i64 8, i8* nonnull %16) #9
  store i8* null, i8** %15, align 8
  br label %29

19:                                               ; preds = %6
  %20 = add nsw i64 %2, 8
  %21 = tail call i8* @_ZN7logging15CheckOpValueStrEm(i64 %20) #9
  %22 = tail call i8* @_ZN7logging15CheckOpValueStrEm(i64 %2) #9
  call void @_ZN7logging13CheckOpResultC1EPKcPcS3_(%"class.logging::CheckOpResult"* nonnull %7, i8* getelementptr inbounds ([23 x i8], [23 x i8]* @.str.2, i64 0, i64 0), i8* %21, i8* %22) #9
  %23 = getelementptr inbounds %"class.logging::CheckOpResult", %"class.logging::CheckOpResult"* %7, i64 0, i32 0
  %24 = load i8*, i8** %23, align 8
  call void @llvm.lifetime.end.p0i8(i64 8, i8* nonnull %16) #9
  store i8* %24, i8** %15, align 8
  %25 = icmp eq i8* %24, null
  br i1 %25, label %29, label %26

26:                                               ; preds = %19
  %27 = bitcast %"class.logging::CheckError"* %9 to i8*
  call void @llvm.lifetime.start.p0i8(i64 8, i8* nonnull %27) #9
  call void @_ZN7logging10CheckError7CheckOpEPKciPNS_13CheckOpResultE(%"class.logging::CheckError"* nonnull sret %9, i8* getelementptr inbounds ([59 x i8], [59 x i8]* @.str.3, i64 0, i64 0), i32 246, %"class.logging::CheckOpResult"* nonnull %8) #9
  %28 = call dereferenceable(160) %"class.std::__1::basic_ostream"* @_ZN7logging10CheckError6streamEv(%"class.logging::CheckError"* nonnull %9) #9
  call void @_ZN7logging10CheckErrorD1Ev(%"class.logging::CheckError"* nonnull %9) #9
  call void @llvm.lifetime.end.p0i8(i64 8, i8* nonnull %27) #9
  br label %29

29:                                               ; preds = %18, %19, %26
  call void @llvm.lifetime.end.p0i8(i64 8, i8* nonnull %14) #9
  %30 = add i64 %2, 15
  %31 = and i64 %30, -8
  %32 = getelementptr inbounds %"class.blink::NormalPageArena", %"class.blink::NormalPageArena"* %13, i64 0, i32 4
  %33 = load i64, i64* %32, align 8
  %34 = icmp ult i64 %33, %31
  br i1 %34, label %67, label %35, !prof !4

35:                                               ; preds = %29
  %36 = getelementptr inbounds %"class.blink::NormalPageArena", %"class.blink::NormalPageArena"* %13, i64 0, i32 3
  %37 = load i8*, i8** %36, align 8
  %38 = getelementptr inbounds i8, i8* %37, i64 %31
  store i8* %38, i8** %36, align 8
  %39 = sub i64 %33, %31
  store i64 %39, i64* %32, align 8
  %40 = bitcast i8* %37 to i32*
  store i32 0, i32* %40, align 4
  %41 = getelementptr inbounds i8, i8* %37, i64 4
  %42 = bitcast i8* %41 to i16*
  %43 = trunc i32 %4 to i16
  %44 = shl i16 %43, 2
  store atomic i16 %44, i16* %42 monotonic, align 2
  %45 = lshr exact i64 %31, 1
  %46 = trunc i64 %45 to i16
  %47 = getelementptr inbounds i8, i8* %37, i64 6
  %48 = bitcast i8* %47 to i16*
  store i16 %46, i16* %48, align 2
  %49 = ptrtoint i8* %37 to i64
  %50 = and i64 %49, -131072
  %51 = inttoptr i64 %50 to i8*
  %52 = getelementptr inbounds i8, i8* %51, i64 4400
  %53 = bitcast i8* %52 to %"class.blink::PlatformAwareObjectStartBitmap"*
  %54 = bitcast i8* %52 to i64*
  %55 = load i64, i64* %54, align 16
  %56 = sub i64 %49, %55
  %57 = lshr i64 %56, 3
  %58 = lshr i64 %56, 6
  %59 = getelementptr inbounds %"class.blink::PlatformAwareObjectStartBitmap", %"class.blink::PlatformAwareObjectStartBitmap"* %53, i64 0, i32 0, i32 1, i64 %58
  %60 = load i8, i8* %59, align 1
  %61 = trunc i64 %57 to i32
  %62 = and i32 %61, 7
  %63 = shl i32 1, %62
  %64 = trunc i32 %63 to i8
  %65 = or i8 %60, %64
  store atomic i8 %65, i8* %59 release, align 1
  %66 = getelementptr inbounds i8, i8* %37, i64 8
  br label %70

67:                                               ; preds = %29
  %68 = zext i32 %4 to i64
  %69 = call i8* @_ZN5blink15NormalPageArena17OutOfLineAllocateEmm(%"class.blink::NormalPageArena"* %13, i64 %31, i64 %68) #9
  br label %70

70:                                               ; preds = %35, %67
  %71 = phi i8* [ %66, %35 ], [ %69, %67 ]
  ret i8* %71
}

declare i8* @_ZN3WTF10Partitions16FastZeroedMallocEmPKc(i64, i8*) local_unnamed_addr #2

declare i8* @_ZNK4base18ThreadLocalStorage4Slot3GetEv(%"class.base::ThreadLocalStorage::Slot"*) local_unnamed_addr #2

declare void @_ZN4base18ThreadLocalStorage4Slot3SetEPv(%"class.base::ThreadLocalStorage::Slot"*, i8*) local_unnamed_addr #2

declare i8* @_ZN5blink15NormalPageArena17OutOfLineAllocateEmm(%"class.blink::NormalPageArena"*, i64, i64) local_unnamed_addr #2

declare void @_ZN7logging10CheckError7CheckOpEPKciPNS_13CheckOpResultE(%"class.logging::CheckError"* sret, i8*, i32, %"class.logging::CheckOpResult"*) local_unnamed_addr #2

declare dereferenceable(160) %"class.std::__1::basic_ostream"* @_ZN7logging10CheckError6streamEv(%"class.logging::CheckError"*) local_unnamed_addr #2

; Function Attrs: nounwind
declare void @_ZN7logging10CheckErrorD1Ev(%"class.logging::CheckError"*) unnamed_addr #5

declare i8* @_ZN7logging15CheckOpValueStrEm(i64) local_unnamed_addr #2

declare void @_ZN7logging13CheckOpResultC1EPKcPcS3_(%"class.logging::CheckOpResult"*, i8*, i8*, i8*) unnamed_addr #2

; Function Attrs: nounwind ssp uwtable
define linkonce_odr hidden void @_ZN5blink10TraceTraitINS_21ScriptPromisePropertyINS_6MemberINS_8ResponseEEENS2_INS_12DOMExceptionEEEEEE5TraceEPNS_7VisitorEPKv(%"class.blink::Visitor"*, i8*) #0 comdat align 2 {
  %3 = bitcast i8* %1 to %"class.blink::ScriptPromiseProperty"*
  tail call void @_ZNK5blink21ScriptPromisePropertyINS_6MemberINS_8ResponseEEENS1_INS_12DOMExceptionEEEE5TraceEPNS_7VisitorE(%"class.blink::ScriptPromiseProperty"* %3, %"class.blink::Visitor"* %0)
  ret void
}

; Function Attrs: nounwind ssp uwtable
define linkonce_odr hidden { i8*, i8 } @_ZN5blink9NameTraitINS_21ScriptPromisePropertyINS_6MemberINS_8ResponseEEENS2_INS_12DOMExceptionEEEEEE7GetNameEPKv(i8*) #0 comdat align 2 {
  ret { i8*, i8 } { i8* getelementptr inbounds ([13 x i8], [13 x i8]* @.str.4, i64 0, i64 0), i8 1 }
}

declare i32 @_ZN5blink11GCInfoTable17EnsureGCInfoIndexEPKNS_6GCInfoEPNSt3__16atomicIjEE(%"class.blink::GCInfoTable"*, %"struct.blink::GCInfo"*, %"struct.std::__1::atomic"*) local_unnamed_addr #2

; Function Attrs: nounwind ssp uwtable
define linkonce_odr hidden void @_ZNK5blink21ScriptPromisePropertyINS_6MemberINS_8ResponseEEENS1_INS_12DOMExceptionEEEE5TraceEPNS_7VisitorE(%"class.blink::ScriptPromiseProperty"*, %"class.blink::Visitor"*) unnamed_addr #0 comdat align 2 {
  %3 = getelementptr inbounds %"class.blink::ScriptPromiseProperty", %"class.blink::ScriptPromiseProperty"* %0, i64 0, i32 3
  %4 = bitcast %"class.blink::Member.297"* %3 to i64*
  %5 = load atomic i64, i64* %4 monotonic, align 8
  %6 = icmp eq i64 %5, 0
  br i1 %6, label %13, label %7

7:                                                ; preds = %2
  %8 = inttoptr i64 %5 to i8*
  %9 = bitcast %"class.blink::Visitor"* %1 to void (%"class.blink::Visitor"*, i8*, i8*, void (%"class.blink::Visitor"*, i8*)*)***
  %10 = load void (%"class.blink::Visitor"*, i8*, i8*, void (%"class.blink::Visitor"*, i8*)*)**, void (%"class.blink::Visitor"*, i8*, i8*, void (%"class.blink::Visitor"*, i8*)*)*** %9, align 8
  %11 = getelementptr inbounds void (%"class.blink::Visitor"*, i8*, i8*, void (%"class.blink::Visitor"*, i8*)*)*, void (%"class.blink::Visitor"*, i8*, i8*, void (%"class.blink::Visitor"*, i8*)*)** %10, i64 5
  %12 = load void (%"class.blink::Visitor"*, i8*, i8*, void (%"class.blink::Visitor"*, i8*)*)*, void (%"class.blink::Visitor"*, i8*, i8*, void (%"class.blink::Visitor"*, i8*)*)** %11, align 8
  tail call void %12(%"class.blink::Visitor"* %1, i8* nonnull %8, i8* nonnull %8, void (%"class.blink::Visitor"*, i8*)* nonnull @_ZN5blink10TraceTraitINS_8ResponseEE5TraceEPNS_7VisitorEPKv) #9
  br label %13

13:                                               ; preds = %2, %7
  %14 = getelementptr inbounds %"class.blink::ScriptPromiseProperty", %"class.blink::ScriptPromiseProperty"* %0, i64 0, i32 4
  %15 = bitcast %"class.blink::Member.302"* %14 to i64*
  %16 = load atomic i64, i64* %15 monotonic, align 8
  %17 = icmp eq i64 %16, 0
  br i1 %17, label %24, label %18

18:                                               ; preds = %13
  %19 = inttoptr i64 %16 to i8*
  %20 = bitcast %"class.blink::Visitor"* %1 to void (%"class.blink::Visitor"*, i8*, i8*, void (%"class.blink::Visitor"*, i8*)*)***
  %21 = load void (%"class.blink::Visitor"*, i8*, i8*, void (%"class.blink::Visitor"*, i8*)*)**, void (%"class.blink::Visitor"*, i8*, i8*, void (%"class.blink::Visitor"*, i8*)*)*** %20, align 8
  %22 = getelementptr inbounds void (%"class.blink::Visitor"*, i8*, i8*, void (%"class.blink::Visitor"*, i8*)*)*, void (%"class.blink::Visitor"*, i8*, i8*, void (%"class.blink::Visitor"*, i8*)*)** %21, i64 5
  %23 = load void (%"class.blink::Visitor"*, i8*, i8*, void (%"class.blink::Visitor"*, i8*)*)*, void (%"class.blink::Visitor"*, i8*, i8*, void (%"class.blink::Visitor"*, i8*)*)** %22, align 8
  tail call void %23(%"class.blink::Visitor"* %1, i8* nonnull %19, i8* nonnull %19, void (%"class.blink::Visitor"*, i8*)* nonnull @_ZN5blink10TraceTraitINS_12DOMExceptionEE5TraceEPNS_7VisitorEPKv) #9
  br label %24

24:                                               ; preds = %13, %18
  %25 = getelementptr inbounds %"class.blink::ScriptPromiseProperty", %"class.blink::ScriptPromiseProperty"* %0, i64 0, i32 5
  %26 = bitcast %"class.blink::HeapVector.304"* %25 to i64*
  %27 = load atomic i64, i64* %26 monotonic, align 8
  %28 = icmp eq i64 %27, 0
  %29 = bitcast %"class.blink::HeapVector.304"* %25 to i8**
  %30 = bitcast %"class.blink::Visitor"* %1 to void (%"class.blink::Visitor"*, i8**)***
  %31 = load void (%"class.blink::Visitor"*, i8**)**, void (%"class.blink::Visitor"*, i8**)*** %30, align 8
  %32 = getelementptr inbounds void (%"class.blink::Visitor"*, i8**)*, void (%"class.blink::Visitor"*, i8**)** %31, i64 11
  %33 = load void (%"class.blink::Visitor"*, i8**)*, void (%"class.blink::Visitor"*, i8**)** %32, align 8
  tail call void %33(%"class.blink::Visitor"* %1, i8** %29) #9
  br i1 %28, label %40, label %34

34:                                               ; preds = %24
  %35 = inttoptr i64 %27 to i8*
  %36 = bitcast %"class.blink::Visitor"* %1 to void (%"class.blink::Visitor"*, i8*, i8*, void (%"class.blink::Visitor"*, i8*)*)***
  %37 = load void (%"class.blink::Visitor"*, i8*, i8*, void (%"class.blink::Visitor"*, i8*)*)**, void (%"class.blink::Visitor"*, i8*, i8*, void (%"class.blink::Visitor"*, i8*)*)*** %36, align 8
  %38 = getelementptr inbounds void (%"class.blink::Visitor"*, i8*, i8*, void (%"class.blink::Visitor"*, i8*)*)*, void (%"class.blink::Visitor"*, i8*, i8*, void (%"class.blink::Visitor"*, i8*)*)** %37, i64 5
  %39 = load void (%"class.blink::Visitor"*, i8*, i8*, void (%"class.blink::Visitor"*, i8*)*)*, void (%"class.blink::Visitor"*, i8*, i8*, void (%"class.blink::Visitor"*, i8*)*)** %38, align 8
  tail call void %39(%"class.blink::Visitor"* %1, i8* nonnull %35, i8* nonnull %35, void (%"class.blink::Visitor"*, i8*)* nonnull @_ZN5blink10TraceTraitINS_17HeapVectorBackingINS_6MemberINS_21ScriptPromiseResolverEEEN3WTF12VectorTraitsIS4_EEEEE5TraceEPNS_7VisitorEPKv) #9
  br label %40

40:                                               ; preds = %24, %34
  %41 = getelementptr inbounds %"class.blink::ScriptPromiseProperty", %"class.blink::ScriptPromiseProperty"* %0, i64 0, i32 6
  %42 = bitcast %"class.blink::HeapVector.323"* %41 to i64*
  %43 = load atomic i64, i64* %42 monotonic, align 8
  %44 = icmp eq i64 %43, 0
  %45 = bitcast %"class.blink::HeapVector.323"* %41 to i8**
  %46 = load void (%"class.blink::Visitor"*, i8**)**, void (%"class.blink::Visitor"*, i8**)*** %30, align 8
  %47 = getelementptr inbounds void (%"class.blink::Visitor"*, i8**)*, void (%"class.blink::Visitor"*, i8**)** %46, i64 11
  %48 = load void (%"class.blink::Visitor"*, i8**)*, void (%"class.blink::Visitor"*, i8**)** %47, align 8
  tail call void %48(%"class.blink::Visitor"* %1, i8** %45) #9
  br i1 %44, label %55, label %49

49:                                               ; preds = %40
  %50 = inttoptr i64 %43 to i8*
  %51 = bitcast %"class.blink::Visitor"* %1 to void (%"class.blink::Visitor"*, i8*, i8*, void (%"class.blink::Visitor"*, i8*)*)***
  %52 = load void (%"class.blink::Visitor"*, i8*, i8*, void (%"class.blink::Visitor"*, i8*)*)**, void (%"class.blink::Visitor"*, i8*, i8*, void (%"class.blink::Visitor"*, i8*)*)*** %51, align 8
  %53 = getelementptr inbounds void (%"class.blink::Visitor"*, i8*, i8*, void (%"class.blink::Visitor"*, i8*)*)*, void (%"class.blink::Visitor"*, i8*, i8*, void (%"class.blink::Visitor"*, i8*)*)** %52, i64 5
  %54 = load void (%"class.blink::Visitor"*, i8*, i8*, void (%"class.blink::Visitor"*, i8*)*)*, void (%"class.blink::Visitor"*, i8*, i8*, void (%"class.blink::Visitor"*, i8*)*)** %53, align 8
  tail call void %54(%"class.blink::Visitor"* %1, i8* nonnull %50, i8* nonnull %50, void (%"class.blink::Visitor"*, i8*)* nonnull @_ZN5blink10TraceTraitINS_17HeapVectorBackingINS_13ScriptPromiseEN3WTF12VectorTraitsIS2_EEEEE5TraceEPNS_7VisitorEPKv) #9
  br label %55

55:                                               ; preds = %40, %49
  %56 = getelementptr inbounds %"class.blink::ScriptPromiseProperty", %"class.blink::ScriptPromiseProperty"* %0, i64 0, i32 0
  tail call void @_ZNK5blink22ExecutionContextClient5TraceEPNS_7VisitorE(%"class.blink::ExecutionContextClient"* %56, %"class.blink::Visitor"* %1) #9
  ret void
}

declare void @_ZNK5blink22ExecutionContextClient5TraceEPNS_7VisitorE(%"class.blink::ExecutionContextClient"*, %"class.blink::Visitor"*) unnamed_addr #2

; Function Attrs: nounwind ssp uwtable
define linkonce_odr hidden void @_ZN5blink10TraceTraitINS_8ResponseEE5TraceEPNS_7VisitorEPKv(%"class.blink::Visitor"*, i8*) #0 comdat align 2 {
  %3 = bitcast i8* %1 to %"class.blink::Response"*
  tail call void @_ZNK5blink8Response5TraceEPNS_7VisitorE(%"class.blink::Response"* %3, %"class.blink::Visitor"* %0) #9
  ret void
}

declare void @_ZNK5blink8Response5TraceEPNS_7VisitorE(%"class.blink::Response"*, %"class.blink::Visitor"*) unnamed_addr #2

; Function Attrs: nounwind ssp uwtable
define linkonce_odr hidden void @_ZN5blink10TraceTraitINS_12DOMExceptionEE5TraceEPNS_7VisitorEPKv(%"class.blink::Visitor"*, i8*) #0 comdat align 2 {
  %3 = bitcast i8* %1 to %"class.blink::ScriptWrappable"*
  %4 = bitcast i8* %1 to void (%"class.blink::ScriptWrappable"*, %"class.blink::Visitor"*)***
  %5 = load void (%"class.blink::ScriptWrappable"*, %"class.blink::Visitor"*)**, void (%"class.blink::ScriptWrappable"*, %"class.blink::Visitor"*)*** %4, align 8
  %6 = getelementptr inbounds void (%"class.blink::ScriptWrappable"*, %"class.blink::Visitor"*)*, void (%"class.blink::ScriptWrappable"*, %"class.blink::Visitor"*)** %5, i64 5
  %7 = load void (%"class.blink::ScriptWrappable"*, %"class.blink::Visitor"*)*, void (%"class.blink::ScriptWrappable"*, %"class.blink::Visitor"*)** %6, align 8
  tail call void %7(%"class.blink::ScriptWrappable"* %3, %"class.blink::Visitor"* %0) #9
  ret void
}

; Function Attrs: nounwind ssp uwtable
define linkonce_odr hidden void @_ZN5blink10TraceTraitINS_17HeapVectorBackingINS_6MemberINS_21ScriptPromiseResolverEEEN3WTF12VectorTraitsIS4_EEEEE5TraceEPNS_7VisitorEPKv(%"class.blink::Visitor"*, i8*) #0 comdat align 2 {
  %3 = bitcast i8* %1 to %"class.blink::Member.310"*
  %4 = getelementptr inbounds i8, i8* %1, i64 -2
  %5 = bitcast i8* %4 to i16*
  %6 = load i16, i16* %5, align 2
  %7 = lshr i16 %6, 2
  %8 = icmp eq i16 %7, 0
  br i1 %8, label %9, label %17, !prof !4

9:                                                ; preds = %2
  %10 = getelementptr inbounds i8, i8* %1, i64 -8
  %11 = ptrtoint i8* %10 to i64
  %12 = and i64 %11, -131072
  %13 = inttoptr i64 %12 to i8*
  %14 = getelementptr inbounds i8, i8* %13, i64 4144
  %15 = bitcast i8* %14 to i64*
  %16 = load i64, i64* %15, align 16
  br label %20

17:                                               ; preds = %2
  %18 = zext i16 %7 to i64
  %19 = shl nuw nsw i64 %18, 3
  br label %20

20:                                               ; preds = %17, %9
  %21 = phi i64 [ %16, %9 ], [ %19, %17 ]
  %22 = add i64 %21, -8
  %23 = lshr i64 %22, 3
  %24 = icmp eq i64 %23, 0
  br i1 %24, label %41, label %25

25:                                               ; preds = %20
  %26 = bitcast %"class.blink::Visitor"* %0 to void (%"class.blink::Visitor"*, i8*, i8*, void (%"class.blink::Visitor"*, i8*)*)***
  br label %27

27:                                               ; preds = %38, %25
  %28 = phi i64 [ 0, %25 ], [ %39, %38 ]
  %29 = getelementptr inbounds %"class.blink::Member.310", %"class.blink::Member.310"* %3, i64 %28
  %30 = bitcast %"class.blink::Member.310"* %29 to i64*
  %31 = load atomic i64, i64* %30 monotonic, align 8
  %32 = icmp eq i64 %31, 0
  br i1 %32, label %38, label %33

33:                                               ; preds = %27
  %34 = inttoptr i64 %31 to i8*
  %35 = load void (%"class.blink::Visitor"*, i8*, i8*, void (%"class.blink::Visitor"*, i8*)*)**, void (%"class.blink::Visitor"*, i8*, i8*, void (%"class.blink::Visitor"*, i8*)*)*** %26, align 8
  %36 = getelementptr inbounds void (%"class.blink::Visitor"*, i8*, i8*, void (%"class.blink::Visitor"*, i8*)*)*, void (%"class.blink::Visitor"*, i8*, i8*, void (%"class.blink::Visitor"*, i8*)*)** %35, i64 5
  %37 = load void (%"class.blink::Visitor"*, i8*, i8*, void (%"class.blink::Visitor"*, i8*)*)*, void (%"class.blink::Visitor"*, i8*, i8*, void (%"class.blink::Visitor"*, i8*)*)** %36, align 8
  tail call void %37(%"class.blink::Visitor"* %0, i8* nonnull %34, i8* nonnull %34, void (%"class.blink::Visitor"*, i8*)* nonnull @_ZN5blink10TraceTraitINS_21ScriptPromiseResolverEE5TraceEPNS_7VisitorEPKv) #9
  br label %38

38:                                               ; preds = %33, %27
  %39 = add nuw nsw i64 %28, 1
  %40 = icmp eq i64 %39, %23
  br i1 %40, label %41, label %27

41:                                               ; preds = %38, %20
  ret void
}

; Function Attrs: nounwind ssp uwtable
define linkonce_odr hidden void @_ZN5blink10TraceTraitINS_21ScriptPromiseResolverEE5TraceEPNS_7VisitorEPKv(%"class.blink::Visitor"*, i8*) #0 comdat align 2 {
  %3 = bitcast i8* %1 to %"class.blink::ScriptPromiseResolver"*
  %4 = bitcast i8* %1 to void (%"class.blink::ScriptPromiseResolver"*, %"class.blink::Visitor"*)***
  %5 = load void (%"class.blink::ScriptPromiseResolver"*, %"class.blink::Visitor"*)**, void (%"class.blink::ScriptPromiseResolver"*, %"class.blink::Visitor"*)*** %4, align 8
  %6 = load void (%"class.blink::ScriptPromiseResolver"*, %"class.blink::Visitor"*)*, void (%"class.blink::ScriptPromiseResolver"*, %"class.blink::Visitor"*)** %5, align 8
  tail call void %6(%"class.blink::ScriptPromiseResolver"* %3, %"class.blink::Visitor"* %0) #9
  ret void
}

; Function Attrs: nounwind ssp uwtable
define linkonce_odr hidden void @_ZN5blink10TraceTraitINS_17HeapVectorBackingINS_13ScriptPromiseEN3WTF12VectorTraitsIS2_EEEEE5TraceEPNS_7VisitorEPKv(%"class.blink::Visitor"*, i8*) #0 comdat align 2 {
  %3 = icmp eq i8* %1, null
  br i1 %3, label %29, label %4

4:                                                ; preds = %2
  %5 = getelementptr inbounds i8, i8* %1, i64 -2
  %6 = bitcast i8* %5 to i16*
  %7 = load atomic i16, i16* %6 monotonic, align 2
  %8 = icmp ult i16 %7, 4
  br i1 %8, label %9, label %17

9:                                                ; preds = %4
  %10 = getelementptr inbounds i8, i8* %1, i64 -8
  %11 = ptrtoint i8* %10 to i64
  %12 = and i64 %11, -131072
  %13 = inttoptr i64 %12 to i8*
  %14 = getelementptr inbounds i8, i8* %13, i64 4144
  %15 = bitcast i8* %14 to i64*
  %16 = load i64, i64* %15, align 16
  br label %22

17:                                               ; preds = %4
  %18 = load atomic i16, i16* %6 monotonic, align 2
  %19 = lshr i16 %18, 2
  %20 = zext i16 %19 to i64
  %21 = shl nuw nsw i64 %20, 3
  br label %22

22:                                               ; preds = %9, %17
  %23 = phi i64 [ %16, %9 ], [ %21, %17 ]
  %24 = bitcast %"class.blink::Visitor"* %0 to i1 (%"class.blink::Visitor"*, i8*, void (%"class.blink::Visitor"*, i8*)*, i64)***
  %25 = load i1 (%"class.blink::Visitor"*, i8*, void (%"class.blink::Visitor"*, i8*)*, i64)**, i1 (%"class.blink::Visitor"*, i8*, void (%"class.blink::Visitor"*, i8*)*, i64)*** %24, align 8
  %26 = getelementptr inbounds i1 (%"class.blink::Visitor"*, i8*, void (%"class.blink::Visitor"*, i8*)*, i64)*, i1 (%"class.blink::Visitor"*, i8*, void (%"class.blink::Visitor"*, i8*)*, i64)** %25, i64 4
  %27 = load i1 (%"class.blink::Visitor"*, i8*, void (%"class.blink::Visitor"*, i8*)*, i64)*, i1 (%"class.blink::Visitor"*, i8*, void (%"class.blink::Visitor"*, i8*)*, i64)** %26, align 8
  %28 = tail call zeroext i1 %27(%"class.blink::Visitor"* %0, i8* nonnull %1, void (%"class.blink::Visitor"*, i8*)* nonnull @_ZN5blink10TraceTraitINS_17HeapVectorBackingINS_13ScriptPromiseEN3WTF12VectorTraitsIS2_EEEEE5TraceEPNS_7VisitorEPKv, i64 %23) #9
  br i1 %28, label %73, label %29

29:                                               ; preds = %2, %22
  %30 = bitcast i8* %1 to %"class.blink::ScriptPromise"*
  %31 = getelementptr inbounds i8, i8* %1, i64 -2
  %32 = bitcast i8* %31 to i16*
  %33 = load i16, i16* %32, align 2
  %34 = lshr i16 %33, 2
  %35 = icmp eq i16 %34, 0
  br i1 %35, label %36, label %44, !prof !4

36:                                               ; preds = %29
  %37 = getelementptr inbounds i8, i8* %1, i64 -8
  %38 = ptrtoint i8* %37 to i64
  %39 = and i64 %38, -131072
  %40 = inttoptr i64 %39 to i8*
  %41 = getelementptr inbounds i8, i8* %40, i64 4144
  %42 = bitcast i8* %41 to i64*
  %43 = load i64, i64* %42, align 16
  br label %47

44:                                               ; preds = %29
  %45 = zext i16 %34 to i64
  %46 = shl nuw nsw i64 %45, 3
  br label %47

47:                                               ; preds = %44, %36
  %48 = phi i64 [ %43, %36 ], [ %46, %44 ]
  %49 = add i64 %48, -8
  %50 = lshr i64 %49, 5
  %51 = icmp eq i64 %50, 0
  br i1 %51, label %73, label %52

52:                                               ; preds = %47
  %53 = bitcast %"class.blink::Visitor"* %0 to void (%"class.blink::Visitor"*, %"class.blink::TraceWrapperV8Reference.315"*)***
  %54 = bitcast %"class.blink::Visitor"* %0 to void (%"class.blink::Visitor"*, i8*, i8*, void (%"class.blink::Visitor"*, i8*)*)***
  br label %55

55:                                               ; preds = %70, %52
  %56 = phi i64 [ 0, %52 ], [ %71, %70 ]
  %57 = getelementptr inbounds %"class.blink::ScriptPromise", %"class.blink::ScriptPromise"* %30, i64 %56
  %58 = getelementptr inbounds %"class.blink::ScriptPromise", %"class.blink::ScriptPromise"* %30, i64 %56, i32 1, i32 1, i32 0
  %59 = load void (%"class.blink::Visitor"*, %"class.blink::TraceWrapperV8Reference.315"*)**, void (%"class.blink::Visitor"*, %"class.blink::TraceWrapperV8Reference.315"*)*** %53, align 8
  %60 = getelementptr inbounds void (%"class.blink::Visitor"*, %"class.blink::TraceWrapperV8Reference.315"*)*, void (%"class.blink::Visitor"*, %"class.blink::TraceWrapperV8Reference.315"*)** %59, i64 7
  %61 = load void (%"class.blink::Visitor"*, %"class.blink::TraceWrapperV8Reference.315"*)*, void (%"class.blink::Visitor"*, %"class.blink::TraceWrapperV8Reference.315"*)** %60, align 8
  tail call void %61(%"class.blink::Visitor"* %0, %"class.blink::TraceWrapperV8Reference.315"* dereferenceable(8) %58) #9
  %62 = bitcast %"class.blink::ScriptPromise"* %57 to i64*
  %63 = load atomic i64, i64* %62 monotonic, align 8
  %64 = icmp eq i64 %63, 0
  br i1 %64, label %70, label %65

65:                                               ; preds = %55
  %66 = inttoptr i64 %63 to i8*
  %67 = load void (%"class.blink::Visitor"*, i8*, i8*, void (%"class.blink::Visitor"*, i8*)*)**, void (%"class.blink::Visitor"*, i8*, i8*, void (%"class.blink::Visitor"*, i8*)*)*** %54, align 8
  %68 = getelementptr inbounds void (%"class.blink::Visitor"*, i8*, i8*, void (%"class.blink::Visitor"*, i8*)*)*, void (%"class.blink::Visitor"*, i8*, i8*, void (%"class.blink::Visitor"*, i8*)*)** %67, i64 5
  %69 = load void (%"class.blink::Visitor"*, i8*, i8*, void (%"class.blink::Visitor"*, i8*)*)*, void (%"class.blink::Visitor"*, i8*, i8*, void (%"class.blink::Visitor"*, i8*)*)** %68, align 8
  tail call void %69(%"class.blink::Visitor"* %0, i8* nonnull %66, i8* nonnull %66, void (%"class.blink::Visitor"*, i8*)* nonnull @_ZN5blink10TraceTraitINS_11ScriptStateEE5TraceEPNS_7VisitorEPKv) #9
  br label %70

70:                                               ; preds = %65, %55
  %71 = add nuw nsw i64 %56, 1
  %72 = icmp eq i64 %71, %50
  br i1 %72, label %73, label %55

73:                                               ; preds = %70, %47, %22
  ret void
}

declare void @_ZN5blink22ExecutionContextClientC2EPNS_16ExecutionContextE(%"class.blink::ExecutionContextClient"*, %"class.blink::ExecutionContext"*) unnamed_addr #2

declare zeroext i1 @_ZN5blink14MarkingVisitor16WriteBarrierSlowEPv(i8*) local_unnamed_addr #2

; Function Attrs: nounwind ssp uwtable
define linkonce_odr hidden %"class.blink::DOMException"* @_ZN5blink25MakeGarbageCollectedTraitINS_12DOMExceptionEE4CallIJNS_16DOMExceptionCodeERA55_KcEEEPS1_DpOT_(i32* dereferenceable(4), [55 x i8]* dereferenceable(55)) local_unnamed_addr #0 comdat align 2 {
  %3 = alloca %"class.WTF::String", align 8
  %4 = alloca %"class.WTF::String", align 8
  %5 = tail call i8* @_ZN5blink10ThreadHeap8AllocateINS_15ScriptWrappableEEEPhm(i64 48) #9
  %6 = bitcast i8* %5 to %"class.blink::DOMException"*
  %7 = load i32, i32* %0, align 4
  %8 = bitcast %"class.WTF::String"* %3 to i8*
  call void @llvm.lifetime.start.p0i8(i64 8, i8* nonnull %8) #9
  %9 = getelementptr inbounds [55 x i8], [55 x i8]* %1, i64 0, i64 0
  %10 = icmp eq [55 x i8]* %1, null
  br i1 %10, label %13, label %11

11:                                               ; preds = %2
  %12 = tail call i64 @strlen(i8* nonnull %9) #10
  br label %13

13:                                               ; preds = %2, %11
  %14 = phi i64 [ %12, %11 ], [ 0, %2 ]
  call void @_ZN3WTF6StringC2EPKcm(%"class.WTF::String"* nonnull %3, i8* %9, i64 %14) #9
  %15 = bitcast %"class.WTF::String"* %4 to i8*
  call void @llvm.lifetime.start.p0i8(i64 8, i8* nonnull %15) #9
  %16 = getelementptr inbounds %"class.WTF::String", %"class.WTF::String"* %4, i64 0, i32 0, i32 0
  store %"class.WTF::StringImpl"* null, %"class.WTF::StringImpl"** %16, align 8
  call void @_ZN5blink12DOMExceptionC1ENS_16DOMExceptionCodeERKN3WTF6StringES5_(%"class.blink::DOMException"* %6, i32 %7, %"class.WTF::String"* nonnull dereferenceable(8) %3, %"class.WTF::String"* nonnull dereferenceable(8) %4) #9
  %17 = load %"class.WTF::StringImpl"*, %"class.WTF::StringImpl"** %16, align 8
  %18 = icmp eq %"class.WTF::StringImpl"* %17, null
  br i1 %18, label %32, label %19

19:                                               ; preds = %13
  %20 = getelementptr inbounds %"class.WTF::StringImpl", %"class.WTF::StringImpl"* %17, i64 0, i32 2, i32 0, i32 0, i32 0, i32 0, i32 0
  %21 = load atomic i32, i32* %20 monotonic, align 4
  %22 = and i32 %21, 2
  %23 = icmp eq i32 %22, 0
  %24 = getelementptr inbounds %"class.WTF::StringImpl", %"class.WTF::StringImpl"* %17, i64 0, i32 0
  %25 = load i32, i32* %24, align 4
  br i1 %23, label %26, label %28

26:                                               ; preds = %19
  %27 = add i32 %25, -1
  store i32 %27, i32* %24, align 4
  br label %28

28:                                               ; preds = %26, %19
  %29 = phi i32 [ %27, %26 ], [ %25, %19 ]
  %30 = icmp eq i32 %29, 0
  br i1 %30, label %31, label %32

31:                                               ; preds = %28
  call void @_ZNK3WTF10StringImpl18DestroyIfNotStaticEv(%"class.WTF::StringImpl"* nonnull %17) #9
  br label %32

32:                                               ; preds = %13, %28, %31
  call void @llvm.lifetime.end.p0i8(i64 8, i8* nonnull %15) #9
  %33 = getelementptr inbounds %"class.WTF::String", %"class.WTF::String"* %3, i64 0, i32 0, i32 0
  %34 = load %"class.WTF::StringImpl"*, %"class.WTF::StringImpl"** %33, align 8
  %35 = icmp eq %"class.WTF::StringImpl"* %34, null
  br i1 %35, label %49, label %36

36:                                               ; preds = %32
  %37 = getelementptr inbounds %"class.WTF::StringImpl", %"class.WTF::StringImpl"* %34, i64 0, i32 2, i32 0, i32 0, i32 0, i32 0, i32 0
  %38 = load atomic i32, i32* %37 monotonic, align 4
  %39 = and i32 %38, 2
  %40 = icmp eq i32 %39, 0
  %41 = getelementptr inbounds %"class.WTF::StringImpl", %"class.WTF::StringImpl"* %34, i64 0, i32 0
  %42 = load i32, i32* %41, align 4
  br i1 %40, label %43, label %45

43:                                               ; preds = %36
  %44 = add i32 %42, -1
  store i32 %44, i32* %41, align 4
  br label %45

45:                                               ; preds = %43, %36
  %46 = phi i32 [ %44, %43 ], [ %42, %36 ]
  %47 = icmp eq i32 %46, 0
  br i1 %47, label %48, label %49

48:                                               ; preds = %45
  call void @_ZNK3WTF10StringImpl18DestroyIfNotStaticEv(%"class.WTF::StringImpl"* nonnull %34) #9
  br label %49

49:                                               ; preds = %32, %45, %48
  call void @llvm.lifetime.end.p0i8(i64 8, i8* nonnull %8) #9
  %50 = getelementptr inbounds i8, i8* %5, i64 -4
  %51 = bitcast i8* %50 to i16*
  %52 = load atomic i16, i16* %51 monotonic, align 2
  %53 = or i16 %52, 1
  store atomic i16 %53, i16* %51 release, align 2
  ret %"class.blink::DOMException"* %6
}

declare void @_ZN5blink12DOMExceptionC1ENS_16DOMExceptionCodeERKN3WTF6StringES5_(%"class.blink::DOMException"*, i32, %"class.WTF::String"* dereferenceable(8), %"class.WTF::String"* dereferenceable(8)) unnamed_addr #2

; Function Attrs: nounwind ssp uwtable
define linkonce_odr hidden i8* @_ZN5blink10ThreadHeap8AllocateINS_15ScriptWrappableEEEPhm(i64) local_unnamed_addr #0 comdat align 2 {
  %2 = load %"class.WTF::ThreadSpecific"*, %"class.WTF::ThreadSpecific"** @_ZN5blink11ThreadState16thread_specific_E, align 8
  %3 = getelementptr inbounds %"class.WTF::ThreadSpecific", %"class.WTF::ThreadSpecific"* %2, i64 0, i32 1
  %4 = tail call i8* @_ZNK4base18ThreadLocalStorage4Slot3GetEv(%"class.base::ThreadLocalStorage::Slot"* %3) #9
  %5 = icmp eq i8* %4, null
  br i1 %5, label %6, label %8, !prof !4

6:                                                ; preds = %1
  %7 = tail call i8* @_ZN3WTF10Partitions16FastZeroedMallocEmPKc(i64 8, i8* getelementptr inbounds ([68 x i8], [68 x i8]* @__PRETTY_FUNCTION__._ZN3WTF21GetStringWithTypeNameIPN5blink11ThreadStateEEEPKcv, i64 0, i64 0)) #9
  tail call void @_ZN4base18ThreadLocalStorage4Slot3SetEPv(%"class.base::ThreadLocalStorage::Slot"* %3, i8* %7) #9
  br label %8

8:                                                ; preds = %1, %6
  %9 = phi i8* [ %7, %6 ], [ %4, %1 ]
  %10 = bitcast i8* %9 to %"class.blink::ThreadState"**
  %11 = load %"class.blink::ThreadState"*, %"class.blink::ThreadState"** %10, align 8
  %12 = getelementptr inbounds %"class.blink::ThreadState", %"class.blink::ThreadState"* %11, i64 0, i32 0, i32 0, i32 0, i32 0
  %13 = load %"class.blink::ThreadHeap"*, %"class.blink::ThreadHeap"** %12, align 8
  %14 = icmp ult i64 %0, 64
  %15 = icmp ugt i64 %0, 31
  %16 = zext i1 %15 to i32
  %17 = icmp ult i64 %0, 128
  %18 = select i1 %17, i32 2, i32 3
  %19 = select i1 %14, i32 %16, i32 %18
  %20 = load atomic i32, i32* getelementptr inbounds ({ { i32 } }, { { i32 } }* @_ZZN5blink11GCInfoTraitINS_15ScriptWrappableEE5IndexEvE13gc_info_index, i64 0, i32 0, i32 0) acquire, align 4
  %21 = icmp eq i32 %20, 0
  br i1 %21, label %22, label %25

22:                                               ; preds = %8
  %23 = load %"class.blink::GCInfoTable"*, %"class.blink::GCInfoTable"** @_ZN5blink11GCInfoTable13global_table_E, align 8
  %24 = tail call i32 @_ZN5blink11GCInfoTable17EnsureGCInfoIndexEPKNS_6GCInfoEPNSt3__16atomicIjEE(%"class.blink::GCInfoTable"* %23, %"struct.blink::GCInfo"* nonnull @_ZZN5blink11GCInfoTraitINS_15ScriptWrappableEE5IndexEvE7kGcInfo, %"struct.std::__1::atomic"* bitcast ({ { i32 } }* @_ZZN5blink11GCInfoTraitINS_15ScriptWrappableEE5IndexEvE13gc_info_index to %"struct.std::__1::atomic"*)) #9
  br label %25

25:                                               ; preds = %8, %22
  %26 = phi i32 [ %20, %8 ], [ %24, %22 ]
  %27 = tail call i8* @_ZN5blink10ThreadHeap20AllocateOnArenaIndexEPNS_11ThreadStateEmijPKc(%"class.blink::ThreadHeap"* %13, %"class.blink::ThreadState"* %11, i64 %0, i32 %19, i32 %26, i8* getelementptr inbounds ([70 x i8], [70 x i8]* @__PRETTY_FUNCTION__._ZN3WTF21GetStringWithTypeNameIN5blink15ScriptWrappableEEEPKcv, i64 0, i64 0))
  ret i8* %27
}

; Function Attrs: nounwind ssp uwtable
define linkonce_odr hidden void @_ZN5blink10TraceTraitINS_15ScriptWrappableEE5TraceEPNS_7VisitorEPKv(%"class.blink::Visitor"*, i8*) #0 comdat align 2 {
  %3 = bitcast i8* %1 to %"class.blink::ScriptWrappable"*
  %4 = bitcast i8* %1 to void (%"class.blink::ScriptWrappable"*, %"class.blink::Visitor"*)***
  %5 = load void (%"class.blink::ScriptWrappable"*, %"class.blink::Visitor"*)**, void (%"class.blink::ScriptWrappable"*, %"class.blink::Visitor"*)*** %4, align 8
  %6 = getelementptr inbounds void (%"class.blink::ScriptWrappable"*, %"class.blink::Visitor"*)*, void (%"class.blink::ScriptWrappable"*, %"class.blink::Visitor"*)** %5, i64 5
  %7 = load void (%"class.blink::ScriptWrappable"*, %"class.blink::Visitor"*)*, void (%"class.blink::ScriptWrappable"*, %"class.blink::Visitor"*)** %6, align 8
  tail call void %7(%"class.blink::ScriptWrappable"* %3, %"class.blink::Visitor"* %0) #9
  ret void
}

; Function Attrs: nounwind ssp uwtable
define linkonce_odr hidden void @_ZN5blink8internal14FinalizerTraitINS_15ScriptWrappableEE8FinalizeEPv(i8*) #0 comdat align 2 {
  %2 = bitcast i8* %0 to %"class.blink::ScriptWrappable"*
  %3 = bitcast i8* %0 to void (%"class.blink::ScriptWrappable"*)***
  %4 = load void (%"class.blink::ScriptWrappable"*)**, void (%"class.blink::ScriptWrappable"*)*** %3, align 8
  %5 = getelementptr inbounds void (%"class.blink::ScriptWrappable"*)*, void (%"class.blink::ScriptWrappable"*)** %4, i64 1
  %6 = load void (%"class.blink::ScriptWrappable"*)*, void (%"class.blink::ScriptWrappable"*)** %5, align 8
  tail call void %6(%"class.blink::ScriptWrappable"* %2) #9
  ret void
}

; Function Attrs: nounwind ssp uwtable
define linkonce_odr hidden { i8*, i8 } @_ZN5blink9NameTraitINS_15ScriptWrappableEE7GetNameEPKv(i8*) #0 comdat align 2 {
  %2 = bitcast i8* %0 to %"class.blink::NameClient"*
  %3 = bitcast i8* %0 to i8* (%"class.blink::NameClient"*)***
  %4 = load i8* (%"class.blink::NameClient"*)**, i8* (%"class.blink::NameClient"*)*** %3, align 8
  %5 = load i8* (%"class.blink::NameClient"*)*, i8* (%"class.blink::NameClient"*)** %4, align 8
  %6 = tail call i8* %5(%"class.blink::NameClient"* %2) #9
  %7 = insertvalue { i8*, i8 } undef, i8* %6, 0
  %8 = insertvalue { i8*, i8 } %7, i8 0, 1
  ret { i8*, i8 } %8
}

; Function Attrs: argmemonly nofree nounwind readonly
declare i64 @strlen(i8* nocapture) local_unnamed_addr #7

declare void @_ZN3WTF6StringC2EPKcm(%"class.WTF::String"*, i8*, i64) unnamed_addr #2

declare void @_ZNK3WTF10StringImpl18DestroyIfNotStaticEv(%"class.WTF::StringImpl"*) local_unnamed_addr #2

declare void @_ZN7logging10CheckError5CheckEPKciS2_(%"class.logging::CheckError"* sret, i8*, i32, i8*) local_unnamed_addr #2

declare %"class.blink::ExecutionContext"* @_ZNK5blink22ExecutionContextClient19GetExecutionContextEv(%"class.blink::ExecutionContextClient"*) local_unnamed_addr #2

declare dereferenceable(4) i32* @_ZN5blink20ScriptForbiddenScope17GetMutableCounterEv() local_unnamed_addr #2

; Function Attrs: nounwind ssp uwtable
define linkonce_odr hidden void @_ZN5blink21ScriptPromiseResolver15ResolveOrRejectINS_6MemberINS_12DOMExceptionEEEEEvT_NS0_15ResolutionStateE(%"class.blink::ScriptPromiseResolver"*, %"class.blink::Member.302"*, i32) local_unnamed_addr #0 comdat align 2 {
  %4 = alloca i64, align 8
  %5 = alloca %"class.blink::ScriptState::Scope", align 8
  %6 = alloca %"class.v8::MicrotasksScope", align 8
  %7 = getelementptr inbounds %"class.blink::ScriptPromiseResolver", %"class.blink::ScriptPromiseResolver"* %0, i64 0, i32 2
  %8 = load i32, i32* %7, align 8
  %9 = icmp eq i32 %8, 0
  br i1 %9, label %10, label %136

10:                                               ; preds = %3
  %11 = getelementptr inbounds %"class.blink::ScriptPromiseResolver", %"class.blink::ScriptPromiseResolver"* %0, i64 0, i32 3, i32 0, i32 0
  %12 = load %"class.blink::ScriptState"*, %"class.blink::ScriptState"** %11, align 8
  %13 = getelementptr inbounds %"class.blink::ScriptState", %"class.blink::ScriptState"* %12, i64 0, i32 1, i32 0, i32 0, i32 0
  %14 = load %"class.v8::Context"*, %"class.v8::Context"** %13, align 8
  %15 = icmp eq %"class.v8::Context"* %14, null
  br i1 %15, label %136, label %16

16:                                               ; preds = %10
  %17 = getelementptr inbounds %"class.blink::ScriptState", %"class.blink::ScriptState"* %12, i64 0, i32 3, i32 0, i32 0
  %18 = load %"class.blink::V8PerContextData"*, %"class.blink::V8PerContextData"** %17, align 8
  %19 = icmp eq %"class.blink::V8PerContextData"* %18, null
  br i1 %19, label %136, label %20

20:                                               ; preds = %16
  %21 = bitcast %"class.blink::ScriptPromiseResolver"* %0 to %"class.blink::ExecutionContextLifecycleObserver"*
  %22 = tail call %"class.blink::ExecutionContext"* @_ZNK5blink33ExecutionContextLifecycleObserver19GetExecutionContextEv(%"class.blink::ExecutionContextLifecycleObserver"* %21) #9
  %23 = icmp eq %"class.blink::ExecutionContext"* %22, null
  br i1 %23, label %136, label %24

24:                                               ; preds = %20
  %25 = tail call %"class.blink::ExecutionContext"* @_ZNK5blink33ExecutionContextLifecycleObserver19GetExecutionContextEv(%"class.blink::ExecutionContextLifecycleObserver"* %21) #9
  %26 = getelementptr inbounds %"class.blink::ExecutionContext", %"class.blink::ExecutionContext"* %25, i64 0, i32 13
  %27 = load i8, i8* %26, align 4, !range !3
  %28 = icmp eq i8 %27, 0
  br i1 %28, label %29, label %136

29:                                               ; preds = %24
  store i32 %2, i32* %7, align 8
  %30 = bitcast %"class.blink::ScriptState::Scope"* %5 to i8*
  call void @llvm.lifetime.start.p0i8(i64 32, i8* nonnull %30) #9
  %31 = getelementptr inbounds %"class.blink::ScriptState::Scope", %"class.blink::ScriptState::Scope"* %5, i64 0, i32 1, i32 0
  %32 = bitcast %"class.blink::ScriptState::Scope"* %5 to i8*
  call void @llvm.memset.p0i8.i64(i8* nonnull align 8 %32, i8 -86, i64 32, i1 false)
  %33 = load %"class.blink::ScriptState"*, %"class.blink::ScriptState"** %11, align 8
  %34 = getelementptr inbounds %"class.blink::ScriptState::Scope", %"class.blink::ScriptState::Scope"* %5, i64 0, i32 0
  %35 = getelementptr inbounds %"class.blink::ScriptState", %"class.blink::ScriptState"* %33, i64 0, i32 0
  %36 = load %"class.v8::Isolate"*, %"class.v8::Isolate"** %35, align 8
  call void @_ZN2v811HandleScopeC1EPNS_7IsolateE(%"class.v8::HandleScope"* nonnull %34, %"class.v8::Isolate"* %36) #9
  %37 = getelementptr inbounds %"class.blink::ScriptState", %"class.blink::ScriptState"* %33, i64 0, i32 1, i32 0, i32 0, i32 0
  %38 = load %"class.v8::Context"*, %"class.v8::Context"** %37, align 8
  %39 = icmp eq %"class.v8::Context"* %38, null
  br i1 %39, label %47, label %40

40:                                               ; preds = %29
  %41 = bitcast %"class.blink::ScriptState"* %33 to %"class.v8::internal::Isolate"**
  %42 = load %"class.v8::internal::Isolate"*, %"class.v8::internal::Isolate"** %41, align 8
  %43 = bitcast %"class.v8::Context"* %38 to i64*
  %44 = load i64, i64* %43, align 8
  %45 = call i64* @_ZN2v811HandleScope12CreateHandleEPNS_8internal7IsolateEm(%"class.v8::internal::Isolate"* %42, i64 %44) #9
  %46 = bitcast i64* %45 to %"class.v8::Context"*
  br label %47

47:                                               ; preds = %29, %40
  %48 = phi %"class.v8::Context"* [ %46, %40 ], [ null, %29 ]
  store %"class.v8::Context"* %48, %"class.v8::Context"** %31, align 8
  call void @_ZN2v87Context5EnterEv(%"class.v8::Context"* %48) #9
  %49 = call dereferenceable(4) i32* @_ZN5blink20ScriptForbiddenScope17GetMutableCounterEv() #9
  %50 = load i32, i32* %49, align 4
  store i32 0, i32* %49, align 4
  %51 = load %"class.blink::ScriptState"*, %"class.blink::ScriptState"** %11, align 8
  %52 = getelementptr inbounds %"class.blink::ScriptState", %"class.blink::ScriptState"* %51, i64 0, i32 0
  %53 = load %"class.v8::Isolate"*, %"class.v8::Isolate"** %52, align 8
  %54 = bitcast %"class.v8::MicrotasksScope"* %6 to i8*
  call void @llvm.lifetime.start.p0i8(i64 24, i8* nonnull %54) #9
  %55 = bitcast %"class.v8::MicrotasksScope"* %6 to i8*
  call void @llvm.memset.p0i8.i64(i8* nonnull align 8 %55, i8 -86, i64 24, i1 false)
  call void @_ZN2v815MicrotasksScopeC1EPNS_7IsolateENS0_4TypeE(%"class.v8::MicrotasksScope"* nonnull %6, %"class.v8::Isolate"* %53, i32 1) #9
  %56 = getelementptr inbounds %"class.blink::ScriptPromiseResolver", %"class.blink::ScriptPromiseResolver"* %0, i64 0, i32 6
  %57 = getelementptr inbounds %"class.blink::Member.302", %"class.blink::Member.302"* %1, i64 0, i32 0, i32 0
  %58 = load %"class.blink::DOMException"*, %"class.blink::DOMException"** %57, align 8
  %59 = getelementptr inbounds %"class.blink::DOMException", %"class.blink::DOMException"* %58, i64 0, i32 0
  %60 = load %"class.blink::ScriptState"*, %"class.blink::ScriptState"** %11, align 8
  %61 = getelementptr inbounds %"class.blink::ScriptState", %"class.blink::ScriptState"* %60, i64 0, i32 1, i32 0, i32 0, i32 0
  %62 = load %"class.v8::Context"*, %"class.v8::Context"** %61, align 8
  %63 = icmp eq %"class.v8::Context"* %62, null
  br i1 %63, label %71, label %64

64:                                               ; preds = %47
  %65 = bitcast %"class.blink::ScriptState"* %60 to %"class.v8::internal::Isolate"**
  %66 = load %"class.v8::internal::Isolate"*, %"class.v8::internal::Isolate"** %65, align 8
  %67 = bitcast %"class.v8::Context"* %62 to i64*
  %68 = load i64, i64* %67, align 8
  %69 = call i64* @_ZN2v811HandleScope12CreateHandleEPNS_8internal7IsolateEm(%"class.v8::internal::Isolate"* %66, i64 %68) #9
  %70 = bitcast i64* %69 to %"class.v8::Context"*
  br label %71

71:                                               ; preds = %47, %64
  %72 = phi %"class.v8::Context"* [ %70, %64 ], [ null, %47 ]
  %73 = call %"class.v8::Object"* @_ZN2v87Context6GlobalEv(%"class.v8::Context"* %72) #9
  %74 = load %"class.blink::ScriptState"*, %"class.blink::ScriptState"** %11, align 8
  %75 = getelementptr inbounds %"class.blink::ScriptState", %"class.blink::ScriptState"* %74, i64 0, i32 0
  %76 = load %"class.v8::Isolate"*, %"class.v8::Isolate"** %75, align 8
  %77 = icmp eq %"class.blink::DOMException"* %58, null
  br i1 %77, label %78, label %81, !prof !4

78:                                               ; preds = %71
  %79 = ptrtoint %"class.v8::Isolate"* %76 to i64
  %80 = add i64 %79, 176
  br label %97

81:                                               ; preds = %71
  %82 = call %"class.v8::Object"* @_ZN5blink12DOMDataStore10GetWrapperEPNS_15ScriptWrappableEPN2v87IsolateE(%"class.blink::ScriptWrappable"* nonnull %59, %"class.v8::Isolate"* %76) #9
  %83 = ptrtoint %"class.v8::Object"* %82 to i64
  %84 = icmp eq %"class.v8::Object"* %82, null
  br i1 %84, label %85, label %97

85:                                               ; preds = %81
  %86 = call %"class.v8::Context"* @_ZN2v86Object15CreationContextEv(%"class.v8::Object"* %73) #9
  %87 = call %"class.blink::ScriptState"* @_ZN5blink11ScriptState4FromEN2v85LocalINS1_7ContextEEE(%"class.v8::Context"* %86) #9
  %88 = bitcast %"class.blink::DOMException"* %58 to %"class.v8::Value"* (%"class.blink::ScriptWrappable"*, %"class.blink::ScriptState"*)***
  %89 = load %"class.v8::Value"* (%"class.blink::ScriptWrappable"*, %"class.blink::ScriptState"*)**, %"class.v8::Value"* (%"class.blink::ScriptWrappable"*, %"class.blink::ScriptState"*)*** %88, align 8
  %90 = getelementptr inbounds %"class.v8::Value"* (%"class.blink::ScriptWrappable"*, %"class.blink::ScriptState"*)*, %"class.v8::Value"* (%"class.blink::ScriptWrappable"*, %"class.blink::ScriptState"*)** %89, i64 7
  %91 = load %"class.v8::Value"* (%"class.blink::ScriptWrappable"*, %"class.blink::ScriptState"*)*, %"class.v8::Value"* (%"class.blink::ScriptWrappable"*, %"class.blink::ScriptState"*)** %90, align 8
  %92 = call %"class.v8::Value"* %91(%"class.blink::ScriptWrappable"* nonnull %59, %"class.blink::ScriptState"* %87) #9
  %93 = icmp eq %"class.v8::Value"* %92, null
  br i1 %93, label %94, label %95, !prof !4

94:                                               ; preds = %85
  call void @_ZN2v82V812ToLocalEmptyEv() #9
  br label %95

95:                                               ; preds = %94, %85
  %96 = ptrtoint %"class.v8::Value"* %92 to i64
  br label %97

97:                                               ; preds = %78, %81, %95
  %98 = phi i64 [ %80, %78 ], [ %96, %95 ], [ %83, %81 ]
  %99 = getelementptr inbounds %"class.blink::TraceWrapperV8Reference.315", %"class.blink::TraceWrapperV8Reference.315"* %56, i64 0, i32 0, i32 0, i32 0, i32 0
  %100 = load i64*, i64** %99, align 8
  %101 = icmp eq i64* %100, null
  br i1 %101, label %104, label %102

102:                                              ; preds = %97
  call void @_ZN2v82V819DisposeTracedGlobalEPm(i64* nonnull %100) #9
  %103 = bitcast %"class.blink::TraceWrapperV8Reference.315"* %56 to i64*
  store atomic i64 0, i64* %103 monotonic, align 8
  br label %104

104:                                              ; preds = %102, %97
  %105 = icmp eq i64 %98, 0
  br i1 %105, label %112, label %106

106:                                              ; preds = %104
  %107 = inttoptr i64 %98 to i64*
  %108 = bitcast %"class.v8::Isolate"* %53 to %"class.v8::internal::Isolate"*
  %109 = bitcast %"class.blink::TraceWrapperV8Reference.315"* %56 to i64*
  %110 = call i64* @_ZN2v82V824GlobalizeTracedReferenceEPNS_8internal7IsolateEPmS4_b(%"class.v8::internal::Isolate"* %108, i64* nonnull %107, i64* %109, i1 zeroext false) #9
  %111 = ptrtoint i64* %110 to i64
  store atomic i64 %111, i64* %109 monotonic, align 8
  br label %112

112:                                              ; preds = %104, %106
  call void @_ZN5blink25UnifiedHeapMarkingVisitor12WriteBarrierERKNS_23TraceWrapperV8ReferenceIN2v85ValueEEE(%"class.blink::TraceWrapperV8Reference.315"* dereferenceable(8) %56) #9
  call void @_ZN2v815MicrotasksScopeD1Ev(%"class.v8::MicrotasksScope"* nonnull %6) #9
  call void @llvm.lifetime.end.p0i8(i64 24, i8* nonnull %54) #9
  %113 = icmp eq i32* %49, null
  br i1 %113, label %115, label %114

114:                                              ; preds = %112
  store i32 %50, i32* %49, align 4
  br label %115

115:                                              ; preds = %112, %114
  %116 = call %"class.blink::ExecutionContext"* @_ZNK5blink33ExecutionContextLifecycleObserver19GetExecutionContextEv(%"class.blink::ExecutionContextLifecycleObserver"* %21) #9
  %117 = call zeroext i1 @_ZNK5blink16ExecutionContext15IsContextPausedEv(%"class.blink::ExecutionContext"* %116) #9
  br i1 %117, label %118, label %119

118:                                              ; preds = %115
  call void @_ZN5blink21ScriptPromiseResolver23ScheduleResolveOrRejectEv(%"class.blink::ScriptPromiseResolver"* %0) #9
  br label %134

119:                                              ; preds = %115
  %120 = bitcast i64* %4 to i8*
  call void @llvm.lifetime.start.p0i8(i64 8, i8* nonnull %120) #9
  %121 = load i64, i64* @_ZN3WTF8internal25g_main_thread_stack_startE, align 8
  %122 = ptrtoint i64* %4 to i64
  %123 = sub i64 %121, %122
  %124 = load i64, i64* @_ZN3WTF8internal39g_main_thread_underestimated_stack_sizeE, align 8
  %125 = icmp ult i64 %123, %124
  call void @llvm.lifetime.end.p0i8(i64 8, i8* nonnull %120) #9
  br i1 %125, label %128, label %126, !prof !2

126:                                              ; preds = %119
  %127 = call dereferenceable(4) i32* @_ZN5blink20ScriptForbiddenScope17GetMutableCounterEv() #9
  br label %128

128:                                              ; preds = %119, %126
  %129 = phi i32* [ %127, %126 ], [ @_ZN5blink20ScriptForbiddenScope22g_main_thread_counter_E, %119 ]
  %130 = load i32, i32* %129, align 4
  %131 = icmp eq i32 %130, 0
  br i1 %131, label %133, label %132

132:                                              ; preds = %128
  call void @_ZN5blink21ScriptPromiseResolver23ScheduleResolveOrRejectEv(%"class.blink::ScriptPromiseResolver"* %0) #9
  br label %134

133:                                              ; preds = %128
  call void @_ZN5blink21ScriptPromiseResolver26ResolveOrRejectImmediatelyEv(%"class.blink::ScriptPromiseResolver"* %0) #9
  br label %134

134:                                              ; preds = %133, %132, %118
  %135 = load %"class.v8::Context"*, %"class.v8::Context"** %31, align 8
  call void @_ZN2v87Context4ExitEv(%"class.v8::Context"* %135) #9
  call void @_ZN2v811HandleScopeD1Ev(%"class.v8::HandleScope"* nonnull %34) #9
  call void @llvm.lifetime.end.p0i8(i64 32, i8* nonnull %30) #9
  br label %136

136:                                              ; preds = %24, %16, %10, %20, %3, %134
  ret void
}

declare %"class.blink::ExecutionContext"* @_ZNK5blink33ExecutionContextLifecycleObserver19GetExecutionContextEv(%"class.blink::ExecutionContextLifecycleObserver"*) local_unnamed_addr #2

declare void @_ZN2v815MicrotasksScopeC1EPNS_7IsolateENS0_4TypeE(%"class.v8::MicrotasksScope"*, %"class.v8::Isolate"*, i32) unnamed_addr #2

declare %"class.v8::Object"* @_ZN2v87Context6GlobalEv(%"class.v8::Context"*) local_unnamed_addr #2

; Function Attrs: nounwind
declare void @_ZN2v815MicrotasksScopeD1Ev(%"class.v8::MicrotasksScope"*) unnamed_addr #5

declare zeroext i1 @_ZNK5blink16ExecutionContext15IsContextPausedEv(%"class.blink::ExecutionContext"*) local_unnamed_addr #2

declare void @_ZN5blink21ScriptPromiseResolver23ScheduleResolveOrRejectEv(%"class.blink::ScriptPromiseResolver"*) local_unnamed_addr #2

declare void @_ZN5blink21ScriptPromiseResolver26ResolveOrRejectImmediatelyEv(%"class.blink::ScriptPromiseResolver"*) local_unnamed_addr #2

declare void @_ZN5blink25UnifiedHeapMarkingVisitor12WriteBarrierERKNS_23TraceWrapperV8ReferenceIN2v85ValueEEE(%"class.blink::TraceWrapperV8Reference.315"* dereferenceable(8)) local_unnamed_addr #2

declare void @_ZN2v82V819DisposeTracedGlobalEPm(i64*) local_unnamed_addr #2

declare i64* @_ZN2v82V824GlobalizeTracedReferenceEPNS_8internal7IsolateEPmS4_b(%"class.v8::internal::Isolate"*, i64*, i64*, i1 zeroext) local_unnamed_addr #2

; Function Attrs: nounwind ssp uwtable
define linkonce_odr hidden %"class.v8::Object"* @_ZN5blink12DOMDataStore10GetWrapperEPNS_15ScriptWrappableEPN2v87IsolateE(%"class.blink::ScriptWrappable"*, %"class.v8::Isolate"*) local_unnamed_addr #0 comdat align 2 {
  %3 = alloca i64, align 8
  %4 = bitcast i64* %3 to i8*
  call void @llvm.lifetime.start.p0i8(i64 8, i8* nonnull %4) #9
  %5 = load i64, i64* @_ZN3WTF8internal25g_main_thread_stack_startE, align 8
  %6 = ptrtoint i64* %3 to i64
  %7 = sub i64 %5, %6
  %8 = load i64, i64* @_ZN3WTF8internal39g_main_thread_underestimated_stack_sizeE, align 8
  %9 = icmp ult i64 %7, %8
  call void @llvm.lifetime.end.p0i8(i64 8, i8* nonnull %4) #9
  %10 = load i32, i32* @_ZN5blink15DOMWrapperWorld41number_of_non_main_worlds_in_main_thread_E, align 4
  %11 = icmp eq i32 %10, 0
  %12 = and i1 %9, %11
  br i1 %12, label %13, label %24

13:                                               ; preds = %2
  %14 = getelementptr inbounds %"class.blink::ScriptWrappable", %"class.blink::ScriptWrappable"* %0, i64 0, i32 1
  %15 = bitcast %"class.blink::TraceWrapperV8Reference"* %14 to %"class.v8::Object"**
  %16 = load %"class.v8::Object"*, %"class.v8::Object"** %15, align 8
  %17 = icmp eq %"class.v8::Object"* %16, null
  br i1 %17, label %68, label %18

18:                                               ; preds = %13
  %19 = bitcast %"class.v8::Object"* %16 to i64*
  %20 = bitcast %"class.v8::Isolate"* %1 to %"class.v8::internal::Isolate"*
  %21 = load i64, i64* %19, align 8
  %22 = call i64* @_ZN2v811HandleScope12CreateHandleEPNS_8internal7IsolateEm(%"class.v8::internal::Isolate"* %20, i64 %21) #9
  %23 = bitcast i64* %22 to %"class.v8::Object"*
  br label %68

24:                                               ; preds = %2
  %25 = call %"class.v8::Context"* @_ZN2v87Isolate17GetCurrentContextEv(%"class.v8::Isolate"* %1) #9
  %26 = call %"class.blink::ScriptState"* @_ZN5blink11ScriptState4FromEN2v85LocalINS1_7ContextEEE(%"class.v8::Context"* %25) #9
  %27 = getelementptr inbounds %"class.blink::ScriptState", %"class.blink::ScriptState"* %26, i64 0, i32 2, i32 0
  %28 = load %"class.blink::DOMWrapperWorld"*, %"class.blink::DOMWrapperWorld"** %27, align 8
  %29 = getelementptr inbounds %"class.blink::DOMWrapperWorld", %"class.blink::DOMWrapperWorld"* %28, i64 0, i32 3, i32 0, i32 0
  %30 = load %"class.blink::DOMDataStore"*, %"class.blink::DOMDataStore"** %29, align 8
  %31 = getelementptr inbounds %"class.blink::DOMDataStore", %"class.blink::DOMDataStore"* %30, i64 0, i32 1
  %32 = load i8, i8* %31, align 8, !range !3
  %33 = icmp eq i8 %32, 0
  br i1 %33, label %45, label %34

34:                                               ; preds = %24
  %35 = getelementptr inbounds %"class.blink::ScriptWrappable", %"class.blink::ScriptWrappable"* %0, i64 0, i32 1
  %36 = bitcast %"class.blink::TraceWrapperV8Reference"* %35 to %"class.v8::Object"**
  %37 = load %"class.v8::Object"*, %"class.v8::Object"** %36, align 8
  %38 = icmp eq %"class.v8::Object"* %37, null
  br i1 %38, label %68, label %39

39:                                               ; preds = %34
  %40 = bitcast %"class.v8::Object"* %37 to i64*
  %41 = bitcast %"class.v8::Isolate"* %1 to %"class.v8::internal::Isolate"*
  %42 = load i64, i64* %40, align 8
  %43 = call i64* @_ZN2v811HandleScope12CreateHandleEPNS_8internal7IsolateEm(%"class.v8::internal::Isolate"* %41, i64 %42) #9
  %44 = bitcast i64* %43 to %"class.v8::Object"*
  br label %68

45:                                               ; preds = %24
  %46 = getelementptr inbounds %"class.blink::DOMDataStore", %"class.blink::DOMDataStore"* %30, i64 0, i32 3, i32 0
  %47 = getelementptr inbounds %"class.WTF::HashMap", %"class.WTF::HashMap"* %46, i64 0, i32 0
  %48 = call { %"struct.WTF::KeyValuePair"*, %"struct.WTF::KeyValuePair"* } @_ZN3WTF9HashTableIN5blink10WeakMemberIKNS1_15ScriptWrappableEEENS_12KeyValuePairIS5_NS1_23TraceWrapperV8ReferenceIN2v86ObjectEEEEENS_24KeyValuePairKeyExtractorENS_10MemberHashIS4_EENS_18HashMapValueTraitsINS_10HashTraitsIS5_EENSG_ISA_EEEESH_NS1_13HeapAllocatorEE4findEPS4_(%"class.WTF::HashTable.42"* %47, %"class.blink::ScriptWrappable"* %0) #9
  %49 = extractvalue { %"struct.WTF::KeyValuePair"*, %"struct.WTF::KeyValuePair"* } %48, 0
  %50 = getelementptr inbounds %"class.WTF::HashMap", %"class.WTF::HashMap"* %46, i64 0, i32 0, i32 0
  %51 = load %"struct.WTF::KeyValuePair"*, %"struct.WTF::KeyValuePair"** %50, align 8
  %52 = getelementptr inbounds %"class.blink::DOMDataStore", %"class.blink::DOMDataStore"* %30, i64 0, i32 3, i32 0, i32 0, i32 1
  %53 = load i32, i32* %52, align 8
  %54 = zext i32 %53 to i64
  %55 = getelementptr inbounds %"struct.WTF::KeyValuePair", %"struct.WTF::KeyValuePair"* %51, i64 %54
  %56 = icmp eq %"struct.WTF::KeyValuePair"* %49, %55
  br i1 %56, label %68, label %57

57:                                               ; preds = %45
  %58 = getelementptr inbounds %"struct.WTF::KeyValuePair", %"struct.WTF::KeyValuePair"* %49, i64 0, i32 1
  %59 = bitcast %"class.blink::TraceWrapperV8Reference"* %58 to %"class.v8::Object"**
  %60 = load %"class.v8::Object"*, %"class.v8::Object"** %59, align 8
  %61 = icmp eq %"class.v8::Object"* %60, null
  br i1 %61, label %68, label %62

62:                                               ; preds = %57
  %63 = bitcast %"class.v8::Object"* %60 to i64*
  %64 = bitcast %"class.v8::Isolate"* %1 to %"class.v8::internal::Isolate"*
  %65 = load i64, i64* %63, align 8
  %66 = call i64* @_ZN2v811HandleScope12CreateHandleEPNS_8internal7IsolateEm(%"class.v8::internal::Isolate"* %64, i64 %65) #9
  %67 = bitcast i64* %66 to %"class.v8::Object"*
  br label %68

68:                                               ; preds = %62, %57, %45, %39, %34, %18, %13
  %69 = phi %"class.v8::Object"* [ %23, %18 ], [ null, %13 ], [ %44, %39 ], [ null, %34 ], [ %67, %62 ], [ null, %57 ], [ null, %45 ]
  ret %"class.v8::Object"* %69
}

; Function Attrs: nounwind ssp uwtable
define linkonce_odr hidden %"class.blink::ScriptState"* @_ZN5blink11ScriptState4FromEN2v85LocalINS1_7ContextEEE(%"class.v8::Context"*) local_unnamed_addr #0 comdat align 2 {
  %2 = alloca %"class.logging::CheckError", align 8
  %3 = alloca %"class.logging::CheckError", align 8
  %4 = bitcast %"class.v8::Context"* %0 to i64*
  %5 = load i64, i64* %4, align 8
  %6 = add i64 %5, 23
  %7 = inttoptr i64 %6 to i32*
  %8 = load i32, i32* %7, align 4
  %9 = and i64 %5, -4294967296
  %10 = zext i32 %8 to i64
  %11 = or i64 %9, %10
  %12 = add i64 %11, 23
  %13 = inttoptr i64 %12 to i8**
  %14 = load i8*, i8** %13, align 1
  %15 = bitcast i8* %14 to %"class.blink::ScriptState"*
  %16 = icmp eq i8* %14, null
  br i1 %16, label %17, label %20

17:                                               ; preds = %1
  %18 = bitcast %"class.logging::CheckError"* %2 to i8*
  call void @llvm.lifetime.start.p0i8(i64 8, i8* nonnull %18) #9
  call void @_ZN7logging10CheckError5CheckEPKciS2_(%"class.logging::CheckError"* nonnull sret %2, i8* getelementptr inbounds ([66 x i8], [66 x i8]* @.str.7, i64 0, i64 0), i32 175, i8* getelementptr inbounds ([13 x i8], [13 x i8]* @.str.8, i64 0, i64 0)) #9
  %19 = call dereferenceable(160) %"class.std::__1::basic_ostream"* @_ZN7logging10CheckError6streamEv(%"class.logging::CheckError"* nonnull %2) #9
  call void @_ZN7logging10CheckErrorD1Ev(%"class.logging::CheckError"* nonnull %2) #9
  call void @llvm.lifetime.end.p0i8(i64 8, i8* nonnull %18) #9
  br label %20

20:                                               ; preds = %1, %17
  %21 = getelementptr inbounds i8, i8* %14, i64 8
  %22 = bitcast i8* %21 to i64**
  %23 = load i64*, i64** %22, align 8
  %24 = icmp eq i64* %23, null
  %25 = icmp eq %"class.v8::Context"* %0, null
  %26 = or i1 %25, %24
  br i1 %26, label %31, label %27

27:                                               ; preds = %20
  %28 = load i64, i64* %23, align 8
  %29 = load i64, i64* %4, align 8
  %30 = icmp eq i64 %28, %29
  br i1 %30, label %36, label %33

31:                                               ; preds = %20
  %32 = and i1 %25, %24
  br i1 %32, label %36, label %33

33:                                               ; preds = %27, %31
  %34 = bitcast %"class.logging::CheckError"* %3 to i8*
  call void @llvm.lifetime.start.p0i8(i64 8, i8* nonnull %34) #9
  call void @_ZN7logging10CheckError5CheckEPKciS2_(%"class.logging::CheckError"* nonnull sret %3, i8* getelementptr inbounds ([66 x i8], [66 x i8]* @.str.7, i64 0, i64 0), i32 176, i8* getelementptr inbounds ([34 x i8], [34 x i8]* @.str.9, i64 0, i64 0)) #9
  %35 = call dereferenceable(160) %"class.std::__1::basic_ostream"* @_ZN7logging10CheckError6streamEv(%"class.logging::CheckError"* nonnull %3) #9
  call void @_ZN7logging10CheckErrorD1Ev(%"class.logging::CheckError"* nonnull %3) #9
  call void @llvm.lifetime.end.p0i8(i64 8, i8* nonnull %34) #9
  br label %36

36:                                               ; preds = %27, %31, %33
  ret %"class.blink::ScriptState"* %15
}

declare %"class.v8::Context"* @_ZN2v86Object15CreationContextEv(%"class.v8::Object"*) local_unnamed_addr #2

declare %"class.v8::Context"* @_ZN2v87Isolate17GetCurrentContextEv(%"class.v8::Isolate"*) local_unnamed_addr #2

; Function Attrs: nounwind ssp uwtable
define linkonce_odr hidden { %"struct.WTF::KeyValuePair"*, %"struct.WTF::KeyValuePair"* } @_ZN3WTF9HashTableIN5blink10WeakMemberIKNS1_15ScriptWrappableEEENS_12KeyValuePairIS5_NS1_23TraceWrapperV8ReferenceIN2v86ObjectEEEEENS_24KeyValuePairKeyExtractorENS_10MemberHashIS4_EENS_18HashMapValueTraitsINS_10HashTraitsIS5_EENSG_ISA_EEEESH_NS1_13HeapAllocatorEE4findEPS4_(%"class.WTF::HashTable.42"*, %"class.blink::ScriptWrappable"*) local_unnamed_addr #0 comdat align 2 {
  %3 = ptrtoint %"class.blink::ScriptWrappable"* %1 to i64
  %4 = getelementptr inbounds %"class.WTF::HashTable.42", %"class.WTF::HashTable.42"* %0, i64 0, i32 0
  %5 = load %"struct.WTF::KeyValuePair"*, %"struct.WTF::KeyValuePair"** %4, align 8
  %6 = icmp eq %"struct.WTF::KeyValuePair"* %5, null
  %7 = getelementptr inbounds %"class.WTF::HashTable.42", %"class.WTF::HashTable.42"* %0, i64 0, i32 1
  %8 = load i32, i32* %7, align 8
  br i1 %6, label %69, label %9

9:                                                ; preds = %2
  %10 = add i32 %8, -1
  %11 = zext i32 %10 to i64
  %12 = shl i64 %3, 32
  %13 = xor i64 %12, -1
  %14 = add i64 %13, %3
  %15 = lshr i64 %14, 22
  %16 = xor i64 %15, %14
  %17 = shl i64 %16, 13
  %18 = xor i64 %17, -1
  %19 = add i64 %16, %18
  %20 = lshr i64 %19, 8
  %21 = xor i64 %20, %19
  %22 = mul i64 %21, 9
  %23 = lshr i64 %22, 15
  %24 = xor i64 %23, %22
  %25 = shl i64 %24, 27
  %26 = xor i64 %25, -1
  %27 = add i64 %24, %26
  %28 = lshr i64 %27, 31
  %29 = xor i64 %28, %27
  %30 = trunc i64 %29 to i32
  %31 = and i32 %10, %30
  %32 = zext i32 %31 to i64
  %33 = getelementptr inbounds %"struct.WTF::KeyValuePair", %"struct.WTF::KeyValuePair"* %5, i64 %32
  %34 = getelementptr inbounds %"struct.WTF::KeyValuePair", %"struct.WTF::KeyValuePair"* %33, i64 0, i32 0, i32 0, i32 0
  %35 = load %"class.blink::ScriptWrappable"*, %"class.blink::ScriptWrappable"** %34, align 8
  %36 = icmp eq %"class.blink::ScriptWrappable"* %35, %1
  br i1 %36, label %66, label %37

37:                                               ; preds = %9
  %38 = xor i32 %30, -1
  %39 = lshr i32 %30, 23
  %40 = add i32 %39, %38
  %41 = shl i32 %40, 12
  %42 = xor i32 %41, %40
  %43 = lshr i32 %42, 7
  %44 = xor i32 %43, %42
  %45 = shl i32 %44, 2
  %46 = xor i32 %45, %44
  %47 = lshr i32 %46, 20
  %48 = xor i32 %47, %46
  %49 = or i32 %48, 1
  %50 = zext i32 %49 to i64
  br label %51

51:                                               ; preds = %57, %37
  %52 = phi i64 [ %32, %37 ], [ %61, %57 ]
  %53 = phi i64 [ 0, %37 ], [ %59, %57 ]
  %54 = getelementptr inbounds %"struct.WTF::KeyValuePair", %"struct.WTF::KeyValuePair"* %5, i64 %52, i32 0, i32 0, i32 0
  %55 = load %"class.blink::ScriptWrappable"*, %"class.blink::ScriptWrappable"** %54, align 8
  %56 = icmp eq %"class.blink::ScriptWrappable"* %55, null
  br i1 %56, label %69, label %57

57:                                               ; preds = %51
  %58 = icmp eq i64 %53, 0
  %59 = select i1 %58, i64 %50, i64 %53
  %60 = add i64 %59, %52
  %61 = and i64 %60, %11
  %62 = getelementptr inbounds %"struct.WTF::KeyValuePair", %"struct.WTF::KeyValuePair"* %5, i64 %61
  %63 = getelementptr inbounds %"struct.WTF::KeyValuePair", %"struct.WTF::KeyValuePair"* %62, i64 0, i32 0, i32 0, i32 0
  %64 = load %"class.blink::ScriptWrappable"*, %"class.blink::ScriptWrappable"** %63, align 8
  %65 = icmp eq %"class.blink::ScriptWrappable"* %64, %1
  br i1 %65, label %66, label %51

66:                                               ; preds = %57, %9
  %67 = phi %"struct.WTF::KeyValuePair"* [ %33, %9 ], [ %62, %57 ]
  %68 = icmp eq %"struct.WTF::KeyValuePair"* %67, null
  br i1 %68, label %69, label %72

69:                                               ; preds = %51, %66, %2
  %70 = zext i32 %8 to i64
  %71 = getelementptr inbounds %"struct.WTF::KeyValuePair", %"struct.WTF::KeyValuePair"* %5, i64 %70
  br label %75

72:                                               ; preds = %66
  %73 = zext i32 %8 to i64
  %74 = getelementptr inbounds %"struct.WTF::KeyValuePair", %"struct.WTF::KeyValuePair"* %5, i64 %73
  br label %75

75:                                               ; preds = %69, %72
  %76 = phi %"struct.WTF::KeyValuePair"* [ %67, %72 ], [ %71, %69 ]
  %77 = phi %"struct.WTF::KeyValuePair"* [ %74, %72 ], [ %71, %69 ]
  %78 = insertvalue { %"struct.WTF::KeyValuePair"*, %"struct.WTF::KeyValuePair"* } undef, %"struct.WTF::KeyValuePair"* %76, 0
  %79 = insertvalue { %"struct.WTF::KeyValuePair"*, %"struct.WTF::KeyValuePair"* } %78, %"struct.WTF::KeyValuePair"* %77, 1
  ret { %"struct.WTF::KeyValuePair"*, %"struct.WTF::KeyValuePair"* } %79
}

declare void @_ZN2v82V812ToLocalEmptyEv() local_unnamed_addr #2

; Function Attrs: nounwind ssp uwtable
define linkonce_odr hidden void @_ZN5blink21ScriptPromiseResolver15ResolveOrRejectINS_6MemberINS_8ResponseEEEEEvT_NS0_15ResolutionStateE(%"class.blink::ScriptPromiseResolver"*, %"class.blink::Member.297"*, i32) local_unnamed_addr #0 comdat align 2 {
  %4 = alloca i64, align 8
  %5 = alloca %"class.blink::ScriptState::Scope", align 8
  %6 = alloca %"class.v8::MicrotasksScope", align 8
  %7 = getelementptr inbounds %"class.blink::ScriptPromiseResolver", %"class.blink::ScriptPromiseResolver"* %0, i64 0, i32 2
  %8 = load i32, i32* %7, align 8
  %9 = icmp eq i32 %8, 0
  br i1 %9, label %10, label %136

10:                                               ; preds = %3
  %11 = getelementptr inbounds %"class.blink::ScriptPromiseResolver", %"class.blink::ScriptPromiseResolver"* %0, i64 0, i32 3, i32 0, i32 0
  %12 = load %"class.blink::ScriptState"*, %"class.blink::ScriptState"** %11, align 8
  %13 = getelementptr inbounds %"class.blink::ScriptState", %"class.blink::ScriptState"* %12, i64 0, i32 1, i32 0, i32 0, i32 0
  %14 = load %"class.v8::Context"*, %"class.v8::Context"** %13, align 8
  %15 = icmp eq %"class.v8::Context"* %14, null
  br i1 %15, label %136, label %16

16:                                               ; preds = %10
  %17 = getelementptr inbounds %"class.blink::ScriptState", %"class.blink::ScriptState"* %12, i64 0, i32 3, i32 0, i32 0
  %18 = load %"class.blink::V8PerContextData"*, %"class.blink::V8PerContextData"** %17, align 8
  %19 = icmp eq %"class.blink::V8PerContextData"* %18, null
  br i1 %19, label %136, label %20

20:                                               ; preds = %16
  %21 = bitcast %"class.blink::ScriptPromiseResolver"* %0 to %"class.blink::ExecutionContextLifecycleObserver"*
  %22 = tail call %"class.blink::ExecutionContext"* @_ZNK5blink33ExecutionContextLifecycleObserver19GetExecutionContextEv(%"class.blink::ExecutionContextLifecycleObserver"* %21) #9
  %23 = icmp eq %"class.blink::ExecutionContext"* %22, null
  br i1 %23, label %136, label %24

24:                                               ; preds = %20
  %25 = tail call %"class.blink::ExecutionContext"* @_ZNK5blink33ExecutionContextLifecycleObserver19GetExecutionContextEv(%"class.blink::ExecutionContextLifecycleObserver"* %21) #9
  %26 = getelementptr inbounds %"class.blink::ExecutionContext", %"class.blink::ExecutionContext"* %25, i64 0, i32 13
  %27 = load i8, i8* %26, align 4, !range !3
  %28 = icmp eq i8 %27, 0
  br i1 %28, label %29, label %136

29:                                               ; preds = %24
  store i32 %2, i32* %7, align 8
  %30 = bitcast %"class.blink::ScriptState::Scope"* %5 to i8*
  call void @llvm.lifetime.start.p0i8(i64 32, i8* nonnull %30) #9
  %31 = getelementptr inbounds %"class.blink::ScriptState::Scope", %"class.blink::ScriptState::Scope"* %5, i64 0, i32 1, i32 0
  %32 = bitcast %"class.blink::ScriptState::Scope"* %5 to i8*
  call void @llvm.memset.p0i8.i64(i8* nonnull align 8 %32, i8 -86, i64 32, i1 false)
  %33 = load %"class.blink::ScriptState"*, %"class.blink::ScriptState"** %11, align 8
  %34 = getelementptr inbounds %"class.blink::ScriptState::Scope", %"class.blink::ScriptState::Scope"* %5, i64 0, i32 0
  %35 = getelementptr inbounds %"class.blink::ScriptState", %"class.blink::ScriptState"* %33, i64 0, i32 0
  %36 = load %"class.v8::Isolate"*, %"class.v8::Isolate"** %35, align 8
  call void @_ZN2v811HandleScopeC1EPNS_7IsolateE(%"class.v8::HandleScope"* nonnull %34, %"class.v8::Isolate"* %36) #9
  %37 = getelementptr inbounds %"class.blink::ScriptState", %"class.blink::ScriptState"* %33, i64 0, i32 1, i32 0, i32 0, i32 0
  %38 = load %"class.v8::Context"*, %"class.v8::Context"** %37, align 8
  %39 = icmp eq %"class.v8::Context"* %38, null
  br i1 %39, label %47, label %40

40:                                               ; preds = %29
  %41 = bitcast %"class.blink::ScriptState"* %33 to %"class.v8::internal::Isolate"**
  %42 = load %"class.v8::internal::Isolate"*, %"class.v8::internal::Isolate"** %41, align 8
  %43 = bitcast %"class.v8::Context"* %38 to i64*
  %44 = load i64, i64* %43, align 8
  %45 = call i64* @_ZN2v811HandleScope12CreateHandleEPNS_8internal7IsolateEm(%"class.v8::internal::Isolate"* %42, i64 %44) #9
  %46 = bitcast i64* %45 to %"class.v8::Context"*
  br label %47

47:                                               ; preds = %29, %40
  %48 = phi %"class.v8::Context"* [ %46, %40 ], [ null, %29 ]
  store %"class.v8::Context"* %48, %"class.v8::Context"** %31, align 8
  call void @_ZN2v87Context5EnterEv(%"class.v8::Context"* %48) #9
  %49 = call dereferenceable(4) i32* @_ZN5blink20ScriptForbiddenScope17GetMutableCounterEv() #9
  %50 = load i32, i32* %49, align 4
  store i32 0, i32* %49, align 4
  %51 = load %"class.blink::ScriptState"*, %"class.blink::ScriptState"** %11, align 8
  %52 = getelementptr inbounds %"class.blink::ScriptState", %"class.blink::ScriptState"* %51, i64 0, i32 0
  %53 = load %"class.v8::Isolate"*, %"class.v8::Isolate"** %52, align 8
  %54 = bitcast %"class.v8::MicrotasksScope"* %6 to i8*
  call void @llvm.lifetime.start.p0i8(i64 24, i8* nonnull %54) #9
  %55 = bitcast %"class.v8::MicrotasksScope"* %6 to i8*
  call void @llvm.memset.p0i8.i64(i8* nonnull align 8 %55, i8 -86, i64 24, i1 false)
  call void @_ZN2v815MicrotasksScopeC1EPNS_7IsolateENS0_4TypeE(%"class.v8::MicrotasksScope"* nonnull %6, %"class.v8::Isolate"* %53, i32 1) #9
  %56 = getelementptr inbounds %"class.blink::ScriptPromiseResolver", %"class.blink::ScriptPromiseResolver"* %0, i64 0, i32 6
  %57 = getelementptr inbounds %"class.blink::Member.297", %"class.blink::Member.297"* %1, i64 0, i32 0, i32 0
  %58 = load %"class.blink::Response"*, %"class.blink::Response"** %57, align 8
  %59 = getelementptr inbounds %"class.blink::Response", %"class.blink::Response"* %58, i64 0, i32 0
  %60 = load %"class.blink::ScriptState"*, %"class.blink::ScriptState"** %11, align 8
  %61 = getelementptr inbounds %"class.blink::ScriptState", %"class.blink::ScriptState"* %60, i64 0, i32 1, i32 0, i32 0, i32 0
  %62 = load %"class.v8::Context"*, %"class.v8::Context"** %61, align 8
  %63 = icmp eq %"class.v8::Context"* %62, null
  br i1 %63, label %71, label %64

64:                                               ; preds = %47
  %65 = bitcast %"class.blink::ScriptState"* %60 to %"class.v8::internal::Isolate"**
  %66 = load %"class.v8::internal::Isolate"*, %"class.v8::internal::Isolate"** %65, align 8
  %67 = bitcast %"class.v8::Context"* %62 to i64*
  %68 = load i64, i64* %67, align 8
  %69 = call i64* @_ZN2v811HandleScope12CreateHandleEPNS_8internal7IsolateEm(%"class.v8::internal::Isolate"* %66, i64 %68) #9
  %70 = bitcast i64* %69 to %"class.v8::Context"*
  br label %71

71:                                               ; preds = %47, %64
  %72 = phi %"class.v8::Context"* [ %70, %64 ], [ null, %47 ]
  %73 = call %"class.v8::Object"* @_ZN2v87Context6GlobalEv(%"class.v8::Context"* %72) #9
  %74 = load %"class.blink::ScriptState"*, %"class.blink::ScriptState"** %11, align 8
  %75 = getelementptr inbounds %"class.blink::ScriptState", %"class.blink::ScriptState"* %74, i64 0, i32 0
  %76 = load %"class.v8::Isolate"*, %"class.v8::Isolate"** %75, align 8
  %77 = icmp eq %"class.blink::Response"* %58, null
  br i1 %77, label %78, label %81, !prof !4

78:                                               ; preds = %71
  %79 = ptrtoint %"class.v8::Isolate"* %76 to i64
  %80 = add i64 %79, 176
  br label %97

81:                                               ; preds = %71
  %82 = call %"class.v8::Object"* @_ZN5blink12DOMDataStore10GetWrapperEPNS_15ScriptWrappableEPN2v87IsolateE(%"class.blink::ScriptWrappable"* nonnull %59, %"class.v8::Isolate"* %76) #9
  %83 = ptrtoint %"class.v8::Object"* %82 to i64
  %84 = icmp eq %"class.v8::Object"* %82, null
  br i1 %84, label %85, label %97

85:                                               ; preds = %81
  %86 = call %"class.v8::Context"* @_ZN2v86Object15CreationContextEv(%"class.v8::Object"* %73) #9
  %87 = call %"class.blink::ScriptState"* @_ZN5blink11ScriptState4FromEN2v85LocalINS1_7ContextEEE(%"class.v8::Context"* %86) #9
  %88 = bitcast %"class.blink::Response"* %58 to %"class.v8::Value"* (%"class.blink::ScriptWrappable"*, %"class.blink::ScriptState"*)***
  %89 = load %"class.v8::Value"* (%"class.blink::ScriptWrappable"*, %"class.blink::ScriptState"*)**, %"class.v8::Value"* (%"class.blink::ScriptWrappable"*, %"class.blink::ScriptState"*)*** %88, align 8
  %90 = getelementptr inbounds %"class.v8::Value"* (%"class.blink::ScriptWrappable"*, %"class.blink::ScriptState"*)*, %"class.v8::Value"* (%"class.blink::ScriptWrappable"*, %"class.blink::ScriptState"*)** %89, i64 7
  %91 = load %"class.v8::Value"* (%"class.blink::ScriptWrappable"*, %"class.blink::ScriptState"*)*, %"class.v8::Value"* (%"class.blink::ScriptWrappable"*, %"class.blink::ScriptState"*)** %90, align 8
  %92 = call %"class.v8::Value"* %91(%"class.blink::ScriptWrappable"* nonnull %59, %"class.blink::ScriptState"* %87) #9
  %93 = icmp eq %"class.v8::Value"* %92, null
  br i1 %93, label %94, label %95, !prof !4

94:                                               ; preds = %85
  call void @_ZN2v82V812ToLocalEmptyEv() #9
  br label %95

95:                                               ; preds = %94, %85
  %96 = ptrtoint %"class.v8::Value"* %92 to i64
  br label %97

97:                                               ; preds = %78, %81, %95
  %98 = phi i64 [ %80, %78 ], [ %96, %95 ], [ %83, %81 ]
  %99 = getelementptr inbounds %"class.blink::TraceWrapperV8Reference.315", %"class.blink::TraceWrapperV8Reference.315"* %56, i64 0, i32 0, i32 0, i32 0, i32 0
  %100 = load i64*, i64** %99, align 8
  %101 = icmp eq i64* %100, null
  br i1 %101, label %104, label %102

102:                                              ; preds = %97
  call void @_ZN2v82V819DisposeTracedGlobalEPm(i64* nonnull %100) #9
  %103 = bitcast %"class.blink::TraceWrapperV8Reference.315"* %56 to i64*
  store atomic i64 0, i64* %103 monotonic, align 8
  br label %104

104:                                              ; preds = %102, %97
  %105 = icmp eq i64 %98, 0
  br i1 %105, label %112, label %106

106:                                              ; preds = %104
  %107 = inttoptr i64 %98 to i64*
  %108 = bitcast %"class.v8::Isolate"* %53 to %"class.v8::internal::Isolate"*
  %109 = bitcast %"class.blink::TraceWrapperV8Reference.315"* %56 to i64*
  %110 = call i64* @_ZN2v82V824GlobalizeTracedReferenceEPNS_8internal7IsolateEPmS4_b(%"class.v8::internal::Isolate"* %108, i64* nonnull %107, i64* %109, i1 zeroext false) #9
  %111 = ptrtoint i64* %110 to i64
  store atomic i64 %111, i64* %109 monotonic, align 8
  br label %112

112:                                              ; preds = %104, %106
  call void @_ZN5blink25UnifiedHeapMarkingVisitor12WriteBarrierERKNS_23TraceWrapperV8ReferenceIN2v85ValueEEE(%"class.blink::TraceWrapperV8Reference.315"* dereferenceable(8) %56) #9
  call void @_ZN2v815MicrotasksScopeD1Ev(%"class.v8::MicrotasksScope"* nonnull %6) #9
  call void @llvm.lifetime.end.p0i8(i64 24, i8* nonnull %54) #9
  %113 = icmp eq i32* %49, null
  br i1 %113, label %115, label %114

114:                                              ; preds = %112
  store i32 %50, i32* %49, align 4
  br label %115

115:                                              ; preds = %112, %114
  %116 = call %"class.blink::ExecutionContext"* @_ZNK5blink33ExecutionContextLifecycleObserver19GetExecutionContextEv(%"class.blink::ExecutionContextLifecycleObserver"* %21) #9
  %117 = call zeroext i1 @_ZNK5blink16ExecutionContext15IsContextPausedEv(%"class.blink::ExecutionContext"* %116) #9
  br i1 %117, label %118, label %119

118:                                              ; preds = %115
  call void @_ZN5blink21ScriptPromiseResolver23ScheduleResolveOrRejectEv(%"class.blink::ScriptPromiseResolver"* %0) #9
  br label %134

119:                                              ; preds = %115
  %120 = bitcast i64* %4 to i8*
  call void @llvm.lifetime.start.p0i8(i64 8, i8* nonnull %120) #9
  %121 = load i64, i64* @_ZN3WTF8internal25g_main_thread_stack_startE, align 8
  %122 = ptrtoint i64* %4 to i64
  %123 = sub i64 %121, %122
  %124 = load i64, i64* @_ZN3WTF8internal39g_main_thread_underestimated_stack_sizeE, align 8
  %125 = icmp ult i64 %123, %124
  call void @llvm.lifetime.end.p0i8(i64 8, i8* nonnull %120) #9
  br i1 %125, label %128, label %126, !prof !2

126:                                              ; preds = %119
  %127 = call dereferenceable(4) i32* @_ZN5blink20ScriptForbiddenScope17GetMutableCounterEv() #9
  br label %128

128:                                              ; preds = %119, %126
  %129 = phi i32* [ %127, %126 ], [ @_ZN5blink20ScriptForbiddenScope22g_main_thread_counter_E, %119 ]
  %130 = load i32, i32* %129, align 4
  %131 = icmp eq i32 %130, 0
  br i1 %131, label %133, label %132

132:                                              ; preds = %128
  call void @_ZN5blink21ScriptPromiseResolver23ScheduleResolveOrRejectEv(%"class.blink::ScriptPromiseResolver"* %0) #9
  br label %134

133:                                              ; preds = %128
  call void @_ZN5blink21ScriptPromiseResolver26ResolveOrRejectImmediatelyEv(%"class.blink::ScriptPromiseResolver"* %0) #9
  br label %134

134:                                              ; preds = %133, %132, %118
  %135 = load %"class.v8::Context"*, %"class.v8::Context"** %31, align 8
  call void @_ZN2v87Context4ExitEv(%"class.v8::Context"* %135) #9
  call void @_ZN2v811HandleScopeD1Ev(%"class.v8::HandleScope"* nonnull %34) #9
  call void @llvm.lifetime.end.p0i8(i64 32, i8* nonnull %30) #9
  br label %136

136:                                              ; preds = %24, %16, %10, %20, %3, %134
  ret void
}

; Function Attrs: nounwind ssp uwtable
define linkonce_odr hidden %"class.blink::DOMException"* @_ZN5blink25MakeGarbageCollectedTraitINS_12DOMExceptionEE4CallIJNS_16DOMExceptionCodeERA31_KcEEEPS1_DpOT_(i32* dereferenceable(4), [31 x i8]* dereferenceable(31)) local_unnamed_addr #0 comdat align 2 {
  %3 = alloca %"class.WTF::String", align 8
  %4 = alloca %"class.WTF::String", align 8
  %5 = tail call i8* @_ZN5blink10ThreadHeap8AllocateINS_15ScriptWrappableEEEPhm(i64 48) #9
  %6 = bitcast i8* %5 to %"class.blink::DOMException"*
  %7 = load i32, i32* %0, align 4
  %8 = bitcast %"class.WTF::String"* %3 to i8*
  call void @llvm.lifetime.start.p0i8(i64 8, i8* nonnull %8) #9
  %9 = getelementptr inbounds [31 x i8], [31 x i8]* %1, i64 0, i64 0
  %10 = icmp eq [31 x i8]* %1, null
  br i1 %10, label %13, label %11

11:                                               ; preds = %2
  %12 = tail call i64 @strlen(i8* nonnull %9) #10
  br label %13

13:                                               ; preds = %2, %11
  %14 = phi i64 [ %12, %11 ], [ 0, %2 ]
  call void @_ZN3WTF6StringC2EPKcm(%"class.WTF::String"* nonnull %3, i8* %9, i64 %14) #9
  %15 = bitcast %"class.WTF::String"* %4 to i8*
  call void @llvm.lifetime.start.p0i8(i64 8, i8* nonnull %15) #9
  %16 = getelementptr inbounds %"class.WTF::String", %"class.WTF::String"* %4, i64 0, i32 0, i32 0
  store %"class.WTF::StringImpl"* null, %"class.WTF::StringImpl"** %16, align 8
  call void @_ZN5blink12DOMExceptionC1ENS_16DOMExceptionCodeERKN3WTF6StringES5_(%"class.blink::DOMException"* %6, i32 %7, %"class.WTF::String"* nonnull dereferenceable(8) %3, %"class.WTF::String"* nonnull dereferenceable(8) %4) #9
  %17 = load %"class.WTF::StringImpl"*, %"class.WTF::StringImpl"** %16, align 8
  %18 = icmp eq %"class.WTF::StringImpl"* %17, null
  br i1 %18, label %32, label %19

19:                                               ; preds = %13
  %20 = getelementptr inbounds %"class.WTF::StringImpl", %"class.WTF::StringImpl"* %17, i64 0, i32 2, i32 0, i32 0, i32 0, i32 0, i32 0
  %21 = load atomic i32, i32* %20 monotonic, align 4
  %22 = and i32 %21, 2
  %23 = icmp eq i32 %22, 0
  %24 = getelementptr inbounds %"class.WTF::StringImpl", %"class.WTF::StringImpl"* %17, i64 0, i32 0
  %25 = load i32, i32* %24, align 4
  br i1 %23, label %26, label %28

26:                                               ; preds = %19
  %27 = add i32 %25, -1
  store i32 %27, i32* %24, align 4
  br label %28

28:                                               ; preds = %26, %19
  %29 = phi i32 [ %27, %26 ], [ %25, %19 ]
  %30 = icmp eq i32 %29, 0
  br i1 %30, label %31, label %32

31:                                               ; preds = %28
  call void @_ZNK3WTF10StringImpl18DestroyIfNotStaticEv(%"class.WTF::StringImpl"* nonnull %17) #9
  br label %32

32:                                               ; preds = %13, %28, %31
  call void @llvm.lifetime.end.p0i8(i64 8, i8* nonnull %15) #9
  %33 = getelementptr inbounds %"class.WTF::String", %"class.WTF::String"* %3, i64 0, i32 0, i32 0
  %34 = load %"class.WTF::StringImpl"*, %"class.WTF::StringImpl"** %33, align 8
  %35 = icmp eq %"class.WTF::StringImpl"* %34, null
  br i1 %35, label %49, label %36

36:                                               ; preds = %32
  %37 = getelementptr inbounds %"class.WTF::StringImpl", %"class.WTF::StringImpl"* %34, i64 0, i32 2, i32 0, i32 0, i32 0, i32 0, i32 0
  %38 = load atomic i32, i32* %37 monotonic, align 4
  %39 = and i32 %38, 2
  %40 = icmp eq i32 %39, 0
  %41 = getelementptr inbounds %"class.WTF::StringImpl", %"class.WTF::StringImpl"* %34, i64 0, i32 0
  %42 = load i32, i32* %41, align 4
  br i1 %40, label %43, label %45

43:                                               ; preds = %36
  %44 = add i32 %42, -1
  store i32 %44, i32* %41, align 4
  br label %45

45:                                               ; preds = %43, %36
  %46 = phi i32 [ %44, %43 ], [ %42, %36 ]
  %47 = icmp eq i32 %46, 0
  br i1 %47, label %48, label %49

48:                                               ; preds = %45
  call void @_ZNK3WTF10StringImpl18DestroyIfNotStaticEv(%"class.WTF::StringImpl"* nonnull %34) #9
  br label %49

49:                                               ; preds = %32, %45, %48
  call void @llvm.lifetime.end.p0i8(i64 8, i8* nonnull %8) #9
  %50 = getelementptr inbounds i8, i8* %5, i64 -4
  %51 = bitcast i8* %50 to i16*
  %52 = load atomic i16, i16* %51 monotonic, align 2
  %53 = or i16 %52, 1
  store atomic i16 %53, i16* %51 release, align 2
  ret %"class.blink::DOMException"* %6
}

declare %"class.v8::Context"* @_ZN5blink11ToV8ContextEPNS_16ExecutionContextERNS_15DOMWrapperWorldE(%"class.blink::ExecutionContext"*, %"class.blink::DOMWrapperWorld"* dereferenceable(32)) local_unnamed_addr #2

declare void @_ZN5blink13ScriptPromiseC1ERKS0_(%"class.blink::ScriptPromise"*, %"class.blink::ScriptPromise"* dereferenceable(32)) unnamed_addr #2

declare void @_ZN5blink13ScriptPromise13MarkAsHandledEv(%"class.blink::ScriptPromise"*) local_unnamed_addr #2

declare void @_ZN5blink21ScriptPromiseResolverC1EPNS_11ScriptStateE(%"class.blink::ScriptPromiseResolver"*, %"class.blink::ScriptState"*) unnamed_addr #2

; Function Attrs: nounwind ssp uwtable
define linkonce_odr hidden i8* @_ZN5blink10ThreadHeap8AllocateINS_21ScriptPromiseResolverEEEPhm(i64) local_unnamed_addr #0 comdat align 2 {
  %2 = load %"class.WTF::ThreadSpecific"*, %"class.WTF::ThreadSpecific"** @_ZN5blink11ThreadState16thread_specific_E, align 8
  %3 = getelementptr inbounds %"class.WTF::ThreadSpecific", %"class.WTF::ThreadSpecific"* %2, i64 0, i32 1
  %4 = tail call i8* @_ZNK4base18ThreadLocalStorage4Slot3GetEv(%"class.base::ThreadLocalStorage::Slot"* %3) #9
  %5 = icmp eq i8* %4, null
  br i1 %5, label %6, label %8, !prof !4

6:                                                ; preds = %1
  %7 = tail call i8* @_ZN3WTF10Partitions16FastZeroedMallocEmPKc(i64 8, i8* getelementptr inbounds ([68 x i8], [68 x i8]* @__PRETTY_FUNCTION__._ZN3WTF21GetStringWithTypeNameIPN5blink11ThreadStateEEEPKcv, i64 0, i64 0)) #9
  tail call void @_ZN4base18ThreadLocalStorage4Slot3SetEPv(%"class.base::ThreadLocalStorage::Slot"* %3, i8* %7) #9
  br label %8

8:                                                ; preds = %1, %6
  %9 = phi i8* [ %7, %6 ], [ %4, %1 ]
  %10 = bitcast i8* %9 to %"class.blink::ThreadState"**
  %11 = load %"class.blink::ThreadState"*, %"class.blink::ThreadState"** %10, align 8
  %12 = getelementptr inbounds %"class.blink::ThreadState", %"class.blink::ThreadState"* %11, i64 0, i32 0, i32 0, i32 0, i32 0
  %13 = load %"class.blink::ThreadHeap"*, %"class.blink::ThreadHeap"** %12, align 8
  %14 = icmp ult i64 %0, 64
  %15 = icmp ugt i64 %0, 31
  %16 = zext i1 %15 to i32
  %17 = icmp ult i64 %0, 128
  %18 = select i1 %17, i32 2, i32 3
  %19 = select i1 %14, i32 %16, i32 %18
  %20 = load atomic i32, i32* getelementptr inbounds ({ { i32 } }, { { i32 } }* @_ZZN5blink11GCInfoTraitINS_21ScriptPromiseResolverEE5IndexEvE13gc_info_index, i64 0, i32 0, i32 0) acquire, align 4
  %21 = icmp eq i32 %20, 0
  br i1 %21, label %22, label %25

22:                                               ; preds = %8
  %23 = load %"class.blink::GCInfoTable"*, %"class.blink::GCInfoTable"** @_ZN5blink11GCInfoTable13global_table_E, align 8
  %24 = tail call i32 @_ZN5blink11GCInfoTable17EnsureGCInfoIndexEPKNS_6GCInfoEPNSt3__16atomicIjEE(%"class.blink::GCInfoTable"* %23, %"struct.blink::GCInfo"* nonnull @_ZZN5blink11GCInfoTraitINS_21ScriptPromiseResolverEE5IndexEvE7kGcInfo, %"struct.std::__1::atomic"* bitcast ({ { i32 } }* @_ZZN5blink11GCInfoTraitINS_21ScriptPromiseResolverEE5IndexEvE13gc_info_index to %"struct.std::__1::atomic"*)) #9
  br label %25

25:                                               ; preds = %8, %22
  %26 = phi i32 [ %20, %8 ], [ %24, %22 ]
  %27 = tail call i8* @_ZN5blink10ThreadHeap20AllocateOnArenaIndexEPNS_11ThreadStateEmijPKc(%"class.blink::ThreadHeap"* %13, %"class.blink::ThreadState"* %11, i64 %0, i32 %19, i32 %26, i8* getelementptr inbounds ([76 x i8], [76 x i8]* @__PRETTY_FUNCTION__._ZN3WTF21GetStringWithTypeNameIN5blink21ScriptPromiseResolverEEEPKcv, i64 0, i64 0))
  ret i8* %27
}

; Function Attrs: nounwind ssp uwtable
define linkonce_odr hidden void @_ZN5blink8internal14FinalizerTraitINS_21ScriptPromiseResolverEE8FinalizeEPv(i8*) #0 comdat align 2 {
  %2 = bitcast i8* %0 to %"class.blink::ScriptPromiseResolver"*
  %3 = bitcast i8* %0 to void (%"class.blink::ScriptPromiseResolver"*)***
  %4 = load void (%"class.blink::ScriptPromiseResolver"*)**, void (%"class.blink::ScriptPromiseResolver"*)*** %3, align 8
  %5 = getelementptr inbounds void (%"class.blink::ScriptPromiseResolver"*)*, void (%"class.blink::ScriptPromiseResolver"*)** %4, i64 1
  %6 = load void (%"class.blink::ScriptPromiseResolver"*)*, void (%"class.blink::ScriptPromiseResolver"*)** %5, align 8
  tail call void %6(%"class.blink::ScriptPromiseResolver"* %2) #9
  ret void
}

; Function Attrs: nounwind ssp uwtable
define linkonce_odr hidden { i8*, i8 } @_ZN5blink9NameTraitINS_21ScriptPromiseResolverEE7GetNameEPKv(i8*) #0 comdat align 2 {
  ret { i8*, i8 } { i8* getelementptr inbounds ([13 x i8], [13 x i8]* @.str.4, i64 0, i64 0), i8 1 }
}

declare void @_ZNK5blink13ScriptPromise16InternalResolver7PromiseEv(%"class.blink::ScriptPromise"* sret, %"class.blink::ScriptPromise::InternalResolver"*) local_unnamed_addr #2

; Function Attrs: noinline nounwind ssp uwtable
