; ModuleID = '../../chrome/browser/printing/background_printing_manager.cc'
source_filename = "../../chrome/browser/printing/background_printing_manager.cc"
target datalayout = "e-m:e-i64:64-f80:128-n8:16:32:64-S128"
target triple = "x86_64-unknown-linux-gnu"

module asm ".symver exp, exp@GLIBC_2.2.5"
module asm ".symver exp2, exp2@GLIBC_2.2.5"
module asm ".symver exp2f, exp2f@GLIBC_2.2.5"
module asm ".symver expf, expf@GLIBC_2.2.5"
module asm ".symver lgamma, lgamma@GLIBC_2.2.5"
module asm ".symver lgammaf, lgammaf@GLIBC_2.2.5"
module asm ".symver lgammal, lgammal@GLIBC_2.2.5"
module asm ".symver log, log@GLIBC_2.2.5"
module asm ".symver log2, log2@GLIBC_2.2.5"
module asm ".symver log2f, log2f@GLIBC_2.2.5"
module asm ".symver logf, logf@GLIBC_2.2.5"
module asm ".symver pow, pow@GLIBC_2.2.5"
module asm ".symver powf, powf@GLIBC_2.2.5"

%"class.printing::BackgroundPrintingManager::Observer" = type { %"class.content::WebContentsObserver", %"class.printing::BackgroundPrintingManager"* }
%"class.content::WebContentsObserver" = type { %"class.IPC::Listener", %"class.content::WebContents"* }
%"class.IPC::Listener" = type { i32 (...)** }
%"class.printing::BackgroundPrintingManager" = type { %"class.content::NotificationObserver", %"class.std::__1::map.4", %"class.content::NotificationRegistrar" }
%"class.content::NotificationObserver" = type { i32 (...)** }
%"class.std::__1::map.4" = type { %"class.std::__1::__tree.5" }
%"class.std::__1::__tree.5" = type { %"class.std::__1::__tree_end_node"*, %"class.std::__1::__compressed_pair.6", %"class.std::__1::__compressed_pair.10" }
%"class.std::__1::__tree_end_node" = type { %"class.std::__1::__tree_node_base"* }
%"class.std::__1::__tree_node_base" = type <{ %"class.std::__1::__tree_end_node", %"class.std::__1::__tree_node_base"*, %"class.std::__1::__tree_end_node"*, i8, [7 x i8] }>
%"class.std::__1::__compressed_pair.6" = type { %"struct.std::__1::__compressed_pair_elem" }
%"struct.std::__1::__compressed_pair_elem" = type { %"class.std::__1::__tree_end_node" }
%"class.std::__1::__compressed_pair.10" = type { %"struct.std::__1::__compressed_pair_elem.2" }
%"struct.std::__1::__compressed_pair_elem.2" = type { i64 }
%"class.content::NotificationRegistrar" = type { %"class.std::__1::vector" }
%"class.std::__1::vector" = type { %"class.std::__1::__vector_base" }
%"class.std::__1::__vector_base" = type { %"struct.content::NotificationRegistrar::Record"*, %"struct.content::NotificationRegistrar::Record"*, %"class.std::__1::__compressed_pair.15" }
%"struct.content::NotificationRegistrar::Record" = type opaque
%"class.std::__1::__compressed_pair.15" = type { %"struct.std::__1::__compressed_pair_elem.16" }
%"struct.std::__1::__compressed_pair_elem.16" = type { %"struct.content::NotificationRegistrar::Record"* }
%"class.content::WebContents" = type <{ %"class.content::PageNavigator", %"class.base::SupportsUserData.base", [7 x i8] }>
%"class.content::PageNavigator" = type { i32 (...)** }
%"class.base::SupportsUserData.base" = type <{ i32 (...)**, %"class.std::__1::map", %"class.base::SequenceCheckerDoNothing" }>
%"class.std::__1::map" = type { %"class.std::__1::__tree" }
%"class.std::__1::__tree" = type { %"class.std::__1::__tree_end_node"*, %"class.std::__1::__compressed_pair", %"class.std::__1::__compressed_pair.1" }
%"class.std::__1::__compressed_pair" = type { %"struct.std::__1::__compressed_pair_elem" }
%"class.std::__1::__compressed_pair.1" = type { %"struct.std::__1::__compressed_pair_elem.2" }
%"class.base::SequenceCheckerDoNothing" = type { i8 }
%"struct.printing::BackgroundPrintingManager::PrintingContents" = type { %"class.std::__1::unique_ptr", %"class.std::__1::unique_ptr.28" }
%"class.std::__1::unique_ptr" = type { %"class.std::__1::__compressed_pair.20" }
%"class.std::__1::__compressed_pair.20" = type { %"struct.std::__1::__compressed_pair_elem.21" }
%"struct.std::__1::__compressed_pair_elem.21" = type { %"class.content::WebContents"* }
%"class.std::__1::unique_ptr.28" = type { %"class.std::__1::__compressed_pair.29" }
%"class.std::__1::__compressed_pair.29" = type { %"struct.std::__1::__compressed_pair_elem.30" }
%"struct.std::__1::__compressed_pair_elem.30" = type { %"class.printing::BackgroundPrintingManager::Observer"* }
%"class.content::Source" = type { %"class.content::NotificationSource" }
%"class.content::NotificationSource" = type { i8* }
%"class.base::Location" = type { i8*, i8*, i32, i8* }
%"class.std::__1::__tree_node" = type { %"class.std::__1::__tree_node_base.base", %"struct.std::__1::__value_type" }
%"class.std::__1::__tree_node_base.base" = type <{ %"class.std::__1::__tree_end_node", %"class.std::__1::__tree_node_base"*, %"class.std::__1::__tree_end_node"*, i8 }>
%"struct.std::__1::__value_type" = type { %"struct.std::__1::pair.64" }
%"struct.std::__1::pair.64" = type { %"class.content::WebContents"*, %"struct.printing::BackgroundPrintingManager::PrintingContents" }
%class.scoped_refptr = type { %"class.base::SingleThreadTaskRunner"* }
%"class.base::SingleThreadTaskRunner" = type { %"class.base::SequencedTaskRunner.base", [4 x i8] }
%"class.base::SequencedTaskRunner.base" = type { %"class.base::TaskRunner.base" }
%"class.base::TaskRunner.base" = type <{ i32 (...)**, %"class.base::RefCountedThreadSafe" }>
%"class.base::RefCountedThreadSafe" = type { %"class.base::subtle::RefCountedThreadSafeBase" }
%"class.base::subtle::RefCountedThreadSafeBase" = type { %"class.base::AtomicRefCount" }
%"class.base::AtomicRefCount" = type { %"struct.std::__1::atomic" }
%"struct.std::__1::atomic" = type { %"struct.std::__1::__atomic_base" }
%"struct.std::__1::__atomic_base" = type { %"struct.std::__1::__atomic_base.65" }
%"struct.std::__1::__atomic_base.65" = type { %"struct.std::__1::__cxx_atomic_impl" }
%"struct.std::__1::__cxx_atomic_impl" = type { %"struct.std::__1::__cxx_atomic_base_impl" }
%"struct.std::__1::__cxx_atomic_base_impl" = type { i32 }
%"class.base::SequencedTaskRunner" = type { %"class.base::TaskRunner.base", [4 x i8] }
%"class.logging::CheckError" = type { %"class.logging::LogMessage"* }
%"class.logging::LogMessage" = type { i32 (...)**, i32, %"class.std::__1::basic_ostringstream", i64, i8*, i32, %"class.base::ScopedClearLastErrorBase" }
%"class.std::__1::basic_ostringstream" = type { %"class.std::__1::basic_ostream.base", %"class.std::__1::basic_stringbuf", %"class.std::__1::basic_ios.base" }
%"class.std::__1::basic_ostream.base" = type { i32 (...)** }
%"class.std::__1::basic_stringbuf" = type <{ %"class.std::__1::basic_streambuf", %"class.std::__1::basic_string", i8*, i32, [4 x i8] }>
%"class.std::__1::basic_streambuf" = type { i32 (...)**, %"class.std::__1::locale", i8*, i8*, i8*, i8*, i8*, i8* }
%"class.std::__1::locale" = type { %"class.std::__1::locale::__imp"* }
%"class.std::__1::locale::__imp" = type opaque
%"class.std::__1::basic_string" = type { %"class.std::__1::__compressed_pair.23" }
%"class.std::__1::__compressed_pair.23" = type { %"struct.std::__1::__compressed_pair_elem.24" }
%"struct.std::__1::__compressed_pair_elem.24" = type { %"struct.std::__1::basic_string<char, std::__1::char_traits<char>, std::__1::allocator<char> >::__rep" }
%"struct.std::__1::basic_string<char, std::__1::char_traits<char>, std::__1::allocator<char> >::__rep" = type { %union.anon }
%union.anon = type { %"struct.std::__1::basic_string<char, std::__1::char_traits<char>, std::__1::allocator<char> >::__long" }
%"struct.std::__1::basic_string<char, std::__1::char_traits<char>, std::__1::allocator<char> >::__long" = type { i8*, i64, i64 }
%"class.std::__1::basic_ios.base" = type <{ %"class.std::__1::ios_base", %"class.std::__1::basic_ostream"*, i32 }>
%"class.std::__1::ios_base" = type { i32 (...)**, i32, i64, i64, i32, i32, i8*, i8*, void (i32, %"class.std::__1::ios_base"*, i32)**, i32*, i64, i64, i64*, i64, i64, i8**, i64, i64 }
%"class.std::__1::basic_ostream" = type { i32 (...)**, %"class.std::__1::basic_ios.base" }
%"class.base::ScopedClearLastErrorBase" = type { i32 }
%"class.printing::PrintPreviewDialogController" = type <{ %"class.WebContentsCollection::Observer", %"class.base::RefCounted", [4 x i8], %"class.std::__1::map.34", %class.WebContentsCollection, i8, i8, [6 x i8] }>
%"class.WebContentsCollection::Observer" = type { i32 (...)** }
%"class.base::RefCounted" = type { %"class.base::subtle::RefCountedBase" }
%"class.base::subtle::RefCountedBase" = type { i32 }
%"class.std::__1::map.34" = type { %"class.std::__1::__tree.35" }
%"class.std::__1::__tree.35" = type { %"class.std::__1::__tree_end_node"*, %"class.std::__1::__compressed_pair.36", %"class.std::__1::__compressed_pair.40" }
%"class.std::__1::__compressed_pair.36" = type { %"struct.std::__1::__compressed_pair_elem" }
%"class.std::__1::__compressed_pair.40" = type { %"struct.std::__1::__compressed_pair_elem.2" }
%class.WebContentsCollection = type { %"class.WebContentsCollection::Observer"*, %"class.base::flat_map" }
%"class.base::flat_map" = type { %"class.base::internal::flat_tree" }
%"class.base::internal::flat_tree" = type { %"class.std::__1::vector.43" }
%"class.std::__1::vector.43" = type { %"class.std::__1::__vector_base.44" }
%"class.std::__1::__vector_base.44" = type { %"struct.std::__1::pair"*, %"struct.std::__1::pair"*, %"class.std::__1::__compressed_pair.45" }
%"struct.std::__1::pair" = type opaque
%"class.std::__1::__compressed_pair.45" = type { %"struct.std::__1::__compressed_pair_elem.46" }
%"struct.std::__1::__compressed_pair_elem.46" = type { %"struct.std::__1::pair"* }
%"class.content::WebContentsDelegate" = type { i32 (...)**, %"class.std::__1::set" }
%"class.std::__1::set" = type { %"class.std::__1::__tree.50" }
%"class.std::__1::__tree.50" = type { %"class.std::__1::__tree_end_node"*, %"class.std::__1::__compressed_pair.51", %"class.std::__1::__compressed_pair.55" }
%"class.std::__1::__compressed_pair.51" = type { %"struct.std::__1::__compressed_pair_elem" }
%"class.std::__1::__compressed_pair.55" = type { %"struct.std::__1::__compressed_pair_elem.2" }
%"class.content::NotificationDetails" = type { i8* }
%"class.content::BrowserContext" = type opaque
%"class.std::__1::vector.57" = type { %"class.std::__1::__vector_base.58" }
%"class.std::__1::__vector_base.58" = type { %"class.content::WebContents"**, %"class.content::WebContents"**, %"class.std::__1::__compressed_pair.59" }
%"class.std::__1::__compressed_pair.59" = type { %"struct.std::__1::__compressed_pair_elem.60" }
%"struct.std::__1::__compressed_pair_elem.60" = type { %"class.content::WebContents"** }
%"class.std::__1::__vector_base_common" = type { i8 }
%"class.std::__1::__tree_node.123" = type { %"class.std::__1::__tree_node_base.base", %"class.content::WebContents"* }
%"class.IPC::Message" = type { %"class.base::Pickle", i8, %class.scoped_refptr.67 }
%"class.base::Pickle" = type { i32 (...)**, %"struct.base::Pickle::Header"*, i64, i64, i64 }
%"struct.base::Pickle::Header" = type { i32 }
%class.scoped_refptr.67 = type { %"class.IPC::MessageAttachmentSet"* }
%"class.IPC::MessageAttachmentSet" = type opaque
%"class.mojo::ScopedInterfaceEndpointHandle" = type { %class.scoped_refptr.68 }
%class.scoped_refptr.68 = type { %"class.mojo::ScopedInterfaceEndpointHandle::State"* }
%"class.mojo::ScopedInterfaceEndpointHandle::State" = type opaque
%"class.content::RenderFrameHost" = type { %"class.IPC::Listener", %"class.IPC::Sender" }
%"class.IPC::Sender" = type { i32 (...)** }
%"class.blink::mojom::CaptureHandleConfig" = type opaque
%"class.content::RenderViewHost" = type opaque
%"class.content::RenderProcessHost" = type opaque
%"class.content::NavigationHandle" = type { %"class.base::SupportsUserData.base", [7 x i8] }
%class.GURL = type { %"class.std::__1::basic_string", i8, %"struct.url::Parsed", %"class.std::__1::unique_ptr.69" }
%"struct.url::Parsed" = type { %"struct.url::Component", %"struct.url::Component", %"struct.url::Component", %"struct.url::Component", %"struct.url::Component", %"struct.url::Component", %"struct.url::Component", %"struct.url::Component", i8, %"struct.url::Parsed"* }
%"struct.url::Component" = type { i32, i32 }
%"class.std::__1::unique_ptr.69" = type { %"class.std::__1::__compressed_pair.70" }
%"class.std::__1::__compressed_pair.70" = type { %"struct.std::__1::__compressed_pair_elem.71" }
%"struct.std::__1::__compressed_pair_elem.71" = type { %class.GURL* }
%"struct.content::GlobalRequestID" = type { i32, i32 }
%"class.blink::mojom::ResourceLoadInfo" = type opaque
%"struct.content::CookieAccessDetails" = type <{ i32, [4 x i8], %class.GURL, %class.GURL, %"class.std::__1::vector.75", i8, [7 x i8] }>
%"class.std::__1::vector.75" = type { %"class.std::__1::__vector_base.76" }
%"class.std::__1::__vector_base.76" = type { %"class.net::CanonicalCookie"*, %"class.net::CanonicalCookie"*, %"class.std::__1::__compressed_pair.78" }
%"class.net::CanonicalCookie" = type { %"class.std::__1::basic_string", %"class.std::__1::basic_string", %"class.std::__1::basic_string", %"class.std::__1::basic_string", %"class.base::Time", %"class.base::Time", %"class.base::Time", i8, i8, i32, i32, i8, i32, i32 }
%"class.base::Time" = type { %"class.base::time_internal::TimeBase.77" }
%"class.base::time_internal::TimeBase.77" = type { i64 }
%"class.std::__1::__compressed_pair.78" = type { %"struct.std::__1::__compressed_pair_elem.79" }
%"struct.std::__1::__compressed_pair_elem.79" = type { %"class.net::CanonicalCookie"* }
%"struct.content::LoadCommittedDetails" = type opaque
%"struct.content::PrunedDetails" = type opaque
%"struct.content::EntryChangedDetails" = type opaque
%"struct.content::Referrer" = type <{ %class.GURL, i32, [4 x i8] }>
%"class.blink::WebInputEvent" = type { i32 (...)**, float, %"class.gfx::Vector2dF", %"class.base::TimeTicks", i32, i32 }
%"class.gfx::Vector2dF" = type { float, float }
%"class.base::TimeTicks" = type { %"class.base::time_internal::TimeBase" }
%"class.base::time_internal::TimeBase" = type { i64 }
%"class.gfx::Size" = type { i32, i32 }
%"class.content::NavigationEntry" = type opaque
%"class.base::FilePath" = type { %"class.std::__1::basic_string" }
%"struct.blink::UserAgentOverride" = type { %"class.std::__1::basic_string", %"class.absl::optional" }
%"class.absl::optional" = type { %"class.absl::optional_internal::optional_data" }
%"class.absl::optional_internal::optional_data" = type { %"class.absl::optional_internal::optional_data_base" }
%"class.absl::optional_internal::optional_data_base" = type { %"class.absl::optional_internal::optional_data_dtor_base" }
%"class.absl::optional_internal::optional_data_dtor_base" = type { i8, [7 x i8], %union.anon.83 }
%union.anon.83 = type { %"struct.blink::UserAgentMetadata" }
%"struct.blink::UserAgentMetadata" = type <{ %"class.std::__1::vector.84", %"class.std::__1::basic_string", %"class.std::__1::basic_string", %"class.std::__1::basic_string", %"class.std::__1::basic_string", %"class.std::__1::basic_string", i8, [7 x i8] }>
%"class.std::__1::vector.84" = type { %"class.std::__1::__vector_base.85" }
%"class.std::__1::__vector_base.85" = type { %"struct.blink::UserAgentBrandVersion"*, %"struct.blink::UserAgentBrandVersion"*, %"class.std::__1::__compressed_pair.86" }
%"struct.blink::UserAgentBrandVersion" = type { %"class.std::__1::basic_string", %"class.std::__1::basic_string" }
%"class.std::__1::__compressed_pair.86" = type { %"struct.std::__1::__compressed_pair_elem.87" }
%"struct.std::__1::__compressed_pair_elem.87" = type { %"struct.blink::UserAgentBrandVersion"* }
%"class.std::__1::vector.91" = type opaque
%"struct.content::AXEventNotificationDetails" = type opaque
%"class.std::__1::vector.92" = type opaque
%"class.std::__1::basic_string.93" = type { %"class.std::__1::__compressed_pair.94" }
%"class.std::__1::__compressed_pair.94" = type { %"struct.std::__1::__compressed_pair_elem.95" }
%"struct.std::__1::__compressed_pair_elem.95" = type { %"struct.std::__1::basic_string<char16_t, std::__1::char_traits<char16_t>, std::__1::allocator<char16_t> >::__rep" }
%"struct.std::__1::basic_string<char16_t, std::__1::char_traits<char16_t>, std::__1::allocator<char16_t> >::__rep" = type { %union.anon.96 }
%union.anon.96 = type { %"struct.std::__1::basic_string<char16_t, std::__1::char_traits<char16_t>, std::__1::allocator<char16_t> >::__long" }
%"struct.std::__1::basic_string<char16_t, std::__1::char_traits<char16_t>, std::__1::allocator<char16_t> >::__long" = type { i16*, i64, i64 }
%"class.absl::optional.102" = type opaque
%"struct.content::WebContentsObserver::MediaPlayerInfo" = type { i8, i8 }
%"struct.content::MediaPlayerId" = type opaque
%"class.content::RenderWidgetHost" = type opaque
%"struct.content::FocusedNodeDetails" = type opaque
%"class.absl::optional.103" = type { %"class.absl::optional_internal::optional_data.104" }
%"class.absl::optional_internal::optional_data.104" = type { %"class.absl::optional_internal::optional_data_base.105" }
%"class.absl::optional_internal::optional_data_base.105" = type { %"class.absl::optional_internal::optional_data_dtor_base.106" }
%"class.absl::optional_internal::optional_data_dtor_base.106" = type { i8, %union.anon.107 }
%union.anon.107 = type { %class.GURL }
%"class.mojo::ScopedHandleBase" = type { %"class.mojo::MessagePipeHandle" }
%"class.mojo::MessagePipeHandle" = type { %"class.mojo::Handle" }
%"class.mojo::Handle" = type { i32 }
%"struct.std::__1::pair.108" = type opaque

$_ZN3IPC8Listener18OnChannelConnectedEi = comdat any

$_ZN3IPC8Listener14OnChannelErrorEv = comdat any

$_ZN3IPC8Listener20OnBadMessageReceivedERKNS_7MessageE = comdat any

$_ZN3IPC8Listener28OnAssociatedInterfaceRequestERKNSt3__112basic_stringIcNS1_11char_traitsIcEENS1_9allocatorIcEEEEN4mojo29ScopedInterfaceEndpointHandleE = comdat any

$_ZN3IPC8Listener15OnChannelDeniedEv = comdat any

$_ZN3IPC8Listener20OnChannelListenErrorEv = comdat any

$_ZN8printing25BackgroundPrintingManager8ObserverD0Ev = comdat any

$_ZN7content19WebContentsObserver18RenderFrameCreatedEPNS_15RenderFrameHostE = comdat any

$_ZN7content19WebContentsObserver18RenderFrameDeletedEPNS_15RenderFrameHostE = comdat any

$_ZN7content19WebContentsObserver22RenderFrameHostChangedEPNS_15RenderFrameHostES2_ = comdat any

$_ZN7content19WebContentsObserver12FrameDeletedEi = comdat any

$_ZN7content19WebContentsObserver27RenderFrameHostStateChangedEPNS_15RenderFrameHostENS1_14LifecycleStateES3_ = comdat any

$_ZN7content19WebContentsObserver20CaptureTargetChangedEv = comdat any

$_ZN7content19WebContentsObserver27OnCaptureHandleConfigUpdateERKN5blink5mojom19CaptureHandleConfigE = comdat any

$_ZN7content19WebContentsObserver15RenderViewReadyEv = comdat any

$_ZN7content19WebContentsObserver17RenderViewDeletedEPNS_14RenderViewHostE = comdat any

$_ZN7content19WebContentsObserver21RenderViewHostChangedEPNS_14RenderViewHostES2_ = comdat any

$_ZN7content19WebContentsObserver22OnRendererUnresponsiveEPNS_17RenderProcessHostE = comdat any

$_ZN7content19WebContentsObserver20OnRendererResponsiveEPNS_17RenderProcessHostE = comdat any

$_ZN7content19WebContentsObserver18DidStartNavigationEPNS_16NavigationHandleE = comdat any

$_ZN7content19WebContentsObserver21DidRedirectNavigationEPNS_16NavigationHandleE = comdat any

$_ZN7content19WebContentsObserver23ReadyToCommitNavigationEPNS_16NavigationHandleE = comdat any

$_ZN7content19WebContentsObserver19DidFinishNavigationEPNS_16NavigationHandleE = comdat any

$_ZN7content19WebContentsObserver17DidActivatePortalEPNS_11WebContentsEN4base9TimeTicksE = comdat any

$_ZN7content19WebContentsObserver15DidStartLoadingEv = comdat any

$_ZN7content19WebContentsObserver18DidReceiveResponseEv = comdat any

$_ZN7content19WebContentsObserver14DidStopLoadingEv = comdat any

$_ZN7content19WebContentsObserver19LoadProgressChangedEd = comdat any

$_ZN7content19WebContentsObserver28DocumentAvailableInMainFrameEPNS_15RenderFrameHostE = comdat any

$_ZN7content19WebContentsObserver34DocumentOnLoadCompletedInMainFrameEPNS_15RenderFrameHostE = comdat any

$_ZN7content19WebContentsObserver16DOMContentLoadedEPNS_15RenderFrameHostE = comdat any

$_ZN7content19WebContentsObserver13DidFinishLoadEPNS_15RenderFrameHostERK4GURL = comdat any

$_ZN7content19WebContentsObserver11DidFailLoadEPNS_15RenderFrameHostERK4GURLi = comdat any

$_ZN7content19WebContentsObserver29DidChangeVisibleSecurityStateEv = comdat any

$_ZN7content19WebContentsObserver30DidLoadResourceFromMemoryCacheEPNS_15RenderFrameHostERK4GURLRKNSt3__112basic_stringIcNS6_11char_traitsIcEENS6_9allocatorIcEEEEN7network5mojom18RequestDestinationE = comdat any

$_ZN7content19WebContentsObserver20ResourceLoadCompleteEPNS_15RenderFrameHostERKNS_15GlobalRequestIDERKN5blink5mojom16ResourceLoadInfoE = comdat any

$_ZN7content19WebContentsObserver17OnCookiesAccessedEPNS_15RenderFrameHostERKNS_19CookieAccessDetailsE = comdat any

$_ZN7content19WebContentsObserver17OnCookiesAccessedEPNS_16NavigationHandleERKNS_19CookieAccessDetailsE = comdat any

$_ZN7content19WebContentsObserver24NavigationEntryCommittedERKNS_20LoadCommittedDetailsE = comdat any

$_ZN7content19WebContentsObserver20NavigationListPrunedERKNS_13PrunedDetailsE = comdat any

$_ZN7content19WebContentsObserver24NavigationEntriesDeletedEv = comdat any

$_ZN7content19WebContentsObserver22NavigationEntryChangedERKNS_19EntryChangedDetailsE = comdat any

$_ZN7content19WebContentsObserver19DidOpenRequestedURLEPNS_11WebContentsEPNS_15RenderFrameHostERK4GURLRKNS_8ReferrerE21WindowOpenDispositionN2ui14PageTransitionEbb = comdat any

$_ZN7content19WebContentsObserver29DidFirstVisuallyNonEmptyPaintEv = comdat any

$_ZN7content19WebContentsObserver17NavigationStoppedEv = comdat any

$_ZN7content19WebContentsObserver21DidGetUserInteractionERKN5blink13WebInputEventE = comdat any

$_ZN7content19WebContentsObserver20DidGetIgnoredUIEventEv = comdat any

$_ZN7content19WebContentsObserver19OnVisibilityChangedENS_10VisibilityE = comdat any

$_ZN7content19WebContentsObserver19MainFrameWasResizedEb = comdat any

$_ZN7content19WebContentsObserver16FrameNameChangedEPNS_15RenderFrameHostERKNSt3__112basic_stringIcNS3_11char_traitsIcEENS3_9allocatorIcEEEE = comdat any

$_ZN7content19WebContentsObserver27FrameReceivedUserActivationEPNS_15RenderFrameHostE = comdat any

$_ZN7content19WebContentsObserver24FrameDisplayStateChangedEPNS_15RenderFrameHostEb = comdat any

$_ZN7content19WebContentsObserver16FrameSizeChangedEPNS_15RenderFrameHostERKN3gfx4SizeE = comdat any

$_ZN7content19WebContentsObserver11TitleWasSetEPNS_15NavigationEntryE = comdat any

$_ZN7content19WebContentsObserver16AppCacheAccessedERK4GURLb = comdat any

$_ZN7content19WebContentsObserver21PepperInstanceCreatedEv = comdat any

$_ZN7content19WebContentsObserver21PepperInstanceDeletedEv = comdat any

$_ZN7content19WebContentsObserver18ViewportFitChangedEN5blink5mojom11ViewportFitE = comdat any

$_ZN7content19WebContentsObserver13PluginCrashedERKN4base8FilePathEi = comdat any

$_ZN7content19WebContentsObserver23PluginHungStatusChangedEiRKN4base8FilePathEb = comdat any

$_ZN7content19WebContentsObserver23InnerWebContentsCreatedEPNS_11WebContentsE = comdat any

$_ZN7content19WebContentsObserver24InnerWebContentsAttachedEPNS_11WebContentsEPNS_15RenderFrameHostEb = comdat any

$_ZN7content19WebContentsObserver24InnerWebContentsDetachedEPNS_11WebContentsE = comdat any

$_ZN7content19WebContentsObserver24DidCloneToNewWebContentsEPNS_11WebContentsES2_ = comdat any

$_ZN7content19WebContentsObserver20WebContentsDestroyedEv = comdat any

$_ZN7content19WebContentsObserver20UserAgentOverrideSetERKN5blink17UserAgentOverrideE = comdat any

$_ZN7content19WebContentsObserver19DidUpdateFaviconURLEPNS_15RenderFrameHostERKNSt3__16vectorIN4mojo9StructPtrIN5blink5mojom10FaviconURLEEENS3_9allocatorISA_EEEE = comdat any

$_ZN7content19WebContentsObserver19OnAudioStateChangedEb = comdat any

$_ZN7content19WebContentsObserver24OnFrameAudioStateChangedEPNS_15RenderFrameHostEb = comdat any

$_ZN7content19WebContentsObserver37OnIsConnectedToBluetoothDeviceChangedEb = comdat any

$_ZN7content19WebContentsObserver25DidUpdateAudioMutingStateEb = comdat any

$_ZN7content19WebContentsObserver29DidToggleFullscreenModeForTabEbb = comdat any

$_ZN7content19WebContentsObserver20DidAcquireFullscreenEPNS_15RenderFrameHostE = comdat any

$_ZN7content19WebContentsObserver32DidChangeVerticalScrollDirectionEN3viz23VerticalScrollDirectionE = comdat any

$_ZN7content19WebContentsObserver27BeforeFormRepostWarningShowEv = comdat any

$_ZN7content19WebContentsObserver17BeforeUnloadFiredEbRKN4base9TimeTicksE = comdat any

$_ZN7content19WebContentsObserver27BeforeUnloadDialogCancelledEv = comdat any

$_ZN7content19WebContentsObserver30AXTreeIDForMainFrameHasChangedEv = comdat any

$_ZN7content19WebContentsObserver26AccessibilityEventReceivedERKNS_26AXEventNotificationDetailsE = comdat any

$_ZN7content19WebContentsObserver36AccessibilityLocationChangesReceivedERKNSt3__16vectorINS_35AXLocationChangeNotificationDetailsENS1_9allocatorIS3_EEEE = comdat any

$_ZN7content19WebContentsObserver19DidChangeThemeColorEv = comdat any

$_ZN7content19WebContentsObserver24OnBackgroundColorChangedEv = comdat any

$_ZN7content19WebContentsObserver24OnDidAddMessageToConsoleEPNS_15RenderFrameHostEN5blink5mojom19ConsoleMessageLevelERKNSt3__112basic_stringIDsNS6_11char_traitsIDsEENS6_9allocatorIDsEEEEiSE_RKN4absl8optionalISC_EE = comdat any

$_ZN7content19WebContentsObserver19MediaStartedPlayingERKNS0_15MediaPlayerInfoERKNS_13MediaPlayerIdE = comdat any

$_ZN7content19WebContentsObserver19MediaStoppedPlayingERKNS0_15MediaPlayerInfoERKNS_13MediaPlayerIdENS0_18MediaStoppedReasonE = comdat any

$_ZN7content19WebContentsObserver12MediaResizedERKN3gfx4SizeERKNS_13MediaPlayerIdE = comdat any

$_ZN7content19WebContentsObserver33MediaEffectivelyFullscreenChangedEb = comdat any

$_ZN7content19WebContentsObserver28MediaPictureInPictureChangedEb = comdat any

$_ZN7content19WebContentsObserver23MediaMutedStatusChangedERKNS_13MediaPlayerIdEb = comdat any

$_ZN7content19WebContentsObserver20MediaBufferUnderflowERKNS_13MediaPlayerIdE = comdat any

$_ZN7content19WebContentsObserver15MediaPlayerSeekERKNS_13MediaPlayerIdE = comdat any

$_ZN7content19WebContentsObserver14MediaDestroyedERKNS_13MediaPlayerIdE = comdat any

$_ZN7content19WebContentsObserver24OnPageScaleFactorChangedEf = comdat any

$_ZN7content19WebContentsObserver7OnPasteEv = comdat any

$_ZN7content19WebContentsObserver20OnWebContentsFocusedEPNS_16RenderWidgetHostE = comdat any

$_ZN7content19WebContentsObserver22OnWebContentsLostFocusEPNS_16RenderWidgetHostE = comdat any

$_ZN7content19WebContentsObserver20OnFocusChangedInPageEPNS_18FocusedNodeDetailsE = comdat any

$_ZN7content19WebContentsObserver23DidUpdateWebManifestURLEPNS_15RenderFrameHostERKN4absl8optionalI4GURLEE = comdat any

$_ZN7content19WebContentsObserver27OnInterfaceRequestFromFrameEPNS_15RenderFrameHostERKNSt3__112basic_stringIcNS3_11char_traitsIcEENS3_9allocatorIcEEEEPN4mojo16ScopedHandleBaseINSC_17MessagePipeHandleEEE = comdat any

$_ZN7content19WebContentsObserver27AudioContextPlaybackStartedERKNSt3__14pairIPNS_15RenderFrameHostEiEE = comdat any

$_ZN7content19WebContentsObserver27AudioContextPlaybackStoppedERKNSt3__14pairIPNS_15RenderFrameHostEiEE = comdat any

$_ZN7content19WebContentsObserver23OnServiceWorkerAccessedEPNS_15RenderFrameHostERK4GURLNS_24AllowServiceWorkerResultE = comdat any

$_ZN7content19WebContentsObserver23OnServiceWorkerAccessedEPNS_16NavigationHandleERK4GURLNS_24AllowServiceWorkerResultE = comdat any

$_ZNSt3__16__treeINS_12__value_typeIPN7content11WebContentsEN8printing25BackgroundPrintingManager16PrintingContentsEEENS_19__map_value_compareIS4_S8_NS_4lessIS4_EELb1EEENS_9allocatorIS8_EEE7destroyEPNS_11__tree_nodeIS8_PvEE = comdat any

$_ZNSt3__127__tree_balance_after_insertIPNS_16__tree_node_baseIPvEEEEvT_S5_ = comdat any

$_ZNSt3__16__treeINS_12__value_typeIPN7content11WebContentsEN8printing25BackgroundPrintingManager16PrintingContentsEEENS_19__map_value_compareIS4_S8_NS_4lessIS4_EELb1EEENS_9allocatorIS8_EEE5eraseENS_21__tree_const_iteratorIS8_PNS_11__tree_nodeIS8_PvEElEE = comdat any

$_ZNSt3__113__tree_removeIPNS_16__tree_node_baseIPvEEEEvT_S5_ = comdat any

$_ZN4base12DeleteHelperIN7content11WebContentsEE8DoDeleteEPKv = comdat any

@_ZTVN8printing25BackgroundPrintingManager8ObserverE = hidden unnamed_addr constant { [109 x i8*] } { [109 x i8*] [i8* null, i8* null, i8* bitcast (i1 (%"class.content::WebContentsObserver"*, %"class.IPC::Message"*)* @_ZN7content19WebContentsObserver17OnMessageReceivedERKN3IPC7MessageE to i8*), i8* bitcast (void (%"class.IPC::Listener"*, i32)* @_ZN3IPC8Listener18OnChannelConnectedEi to i8*), i8* bitcast (void (%"class.IPC::Listener"*)* @_ZN3IPC8Listener14OnChannelErrorEv to i8*), i8* bitcast (void (%"class.IPC::Listener"*, %"class.IPC::Message"*)* @_ZN3IPC8Listener20OnBadMessageReceivedERKNS_7MessageE to i8*), i8* bitcast (void (%"class.IPC::Listener"*, %"class.std::__1::basic_string"*, %"class.mojo::ScopedInterfaceEndpointHandle"*)* @_ZN3IPC8Listener28OnAssociatedInterfaceRequestERKNSt3__112basic_stringIcNS1_11char_traitsIcEENS1_9allocatorIcEEEEN4mojo29ScopedInterfaceEndpointHandleE to i8*), i8* bitcast (void (%"class.IPC::Listener"*)* @_ZN3IPC8Listener15OnChannelDeniedEv to i8*), i8* bitcast (void (%"class.IPC::Listener"*)* @_ZN3IPC8Listener20OnChannelListenErrorEv to i8*), i8* bitcast (void (%"class.content::WebContentsObserver"*)* @_ZN7content19WebContentsObserverD2Ev to i8*), i8* bitcast (void (%"class.printing::BackgroundPrintingManager::Observer"*)* @_ZN8printing25BackgroundPrintingManager8ObserverD0Ev to i8*), i8* bitcast (void (%"class.content::WebContentsObserver"*, %"class.content::RenderFrameHost"*)* @_ZN7content19WebContentsObserver18RenderFrameCreatedEPNS_15RenderFrameHostE to i8*), i8* bitcast (void (%"class.content::WebContentsObserver"*, %"class.content::RenderFrameHost"*)* @_ZN7content19WebContentsObserver18RenderFrameDeletedEPNS_15RenderFrameHostE to i8*), i8* bitcast (void (%"class.content::WebContentsObserver"*, %"class.content::RenderFrameHost"*, %"class.content::RenderFrameHost"*)* @_ZN7content19WebContentsObserver22RenderFrameHostChangedEPNS_15RenderFrameHostES2_ to i8*), i8* bitcast (void (%"class.content::WebContentsObserver"*, i32)* @_ZN7content19WebContentsObserver12FrameDeletedEi to i8*), i8* bitcast (void (%"class.content::WebContentsObserver"*, %"class.content::RenderFrameHost"*, i32, i32)* @_ZN7content19WebContentsObserver27RenderFrameHostStateChangedEPNS_15RenderFrameHostENS1_14LifecycleStateES3_ to i8*), i8* bitcast (void (%"class.content::WebContentsObserver"*)* @_ZN7content19WebContentsObserver20CaptureTargetChangedEv to i8*), i8* bitcast (void (%"class.content::WebContentsObserver"*, %"class.blink::mojom::CaptureHandleConfig"*)* @_ZN7content19WebContentsObserver27OnCaptureHandleConfigUpdateERKN5blink5mojom19CaptureHandleConfigE to i8*), i8* bitcast (void (%"class.content::WebContentsObserver"*)* @_ZN7content19WebContentsObserver15RenderViewReadyEv to i8*), i8* bitcast (void (%"class.content::WebContentsObserver"*, %"class.content::RenderViewHost"*)* @_ZN7content19WebContentsObserver17RenderViewDeletedEPNS_14RenderViewHostE to i8*), i8* bitcast (void (%"class.printing::BackgroundPrintingManager::Observer"*, i32)* @_ZN8printing25BackgroundPrintingManager8Observer17RenderProcessGoneEN4base17TerminationStatusE to i8*), i8* bitcast (void (%"class.content::WebContentsObserver"*, %"class.content::RenderViewHost"*, %"class.content::RenderViewHost"*)* @_ZN7content19WebContentsObserver21RenderViewHostChangedEPNS_14RenderViewHostES2_ to i8*), i8* bitcast (void (%"class.content::WebContentsObserver"*, %"class.content::RenderProcessHost"*)* @_ZN7content19WebContentsObserver22OnRendererUnresponsiveEPNS_17RenderProcessHostE to i8*), i8* bitcast (void (%"class.content::WebContentsObserver"*, %"class.content::RenderProcessHost"*)* @_ZN7content19WebContentsObserver20OnRendererResponsiveEPNS_17RenderProcessHostE to i8*), i8* bitcast (void (%"class.content::WebContentsObserver"*, %"class.content::NavigationHandle"*)* @_ZN7content19WebContentsObserver18DidStartNavigationEPNS_16NavigationHandleE to i8*), i8* bitcast (void (%"class.content::WebContentsObserver"*, %"class.content::NavigationHandle"*)* @_ZN7content19WebContentsObserver21DidRedirectNavigationEPNS_16NavigationHandleE to i8*), i8* bitcast (void (%"class.content::WebContentsObserver"*, %"class.content::NavigationHandle"*)* @_ZN7content19WebContentsObserver23ReadyToCommitNavigationEPNS_16NavigationHandleE to i8*), i8* bitcast (void (%"class.content::WebContentsObserver"*, %"class.content::NavigationHandle"*)* @_ZN7content19WebContentsObserver19DidFinishNavigationEPNS_16NavigationHandleE to i8*), i8* bitcast (void (%"class.content::WebContentsObserver"*, %"class.content::WebContents"*, i64)* @_ZN7content19WebContentsObserver17DidActivatePortalEPNS_11WebContentsEN4base9TimeTicksE to i8*), i8* bitcast (void (%"class.content::WebContentsObserver"*)* @_ZN7content19WebContentsObserver15DidStartLoadingEv to i8*), i8* bitcast (void (%"class.content::WebContentsObserver"*)* @_ZN7content19WebContentsObserver18DidReceiveResponseEv to i8*), i8* bitcast (void (%"class.content::WebContentsObserver"*)* @_ZN7content19WebContentsObserver14DidStopLoadingEv to i8*), i8* bitcast (void (%"class.content::WebContentsObserver"*, double)* @_ZN7content19WebContentsObserver19LoadProgressChangedEd to i8*), i8* bitcast (void (%"class.content::WebContentsObserver"*, %"class.content::RenderFrameHost"*)* @_ZN7content19WebContentsObserver28DocumentAvailableInMainFrameEPNS_15RenderFrameHostE to i8*), i8* bitcast (void (%"class.content::WebContentsObserver"*, %"class.content::RenderFrameHost"*)* @_ZN7content19WebContentsObserver34DocumentOnLoadCompletedInMainFrameEPNS_15RenderFrameHostE to i8*), i8* bitcast (void (%"class.content::WebContentsObserver"*, %"class.content::RenderFrameHost"*)* @_ZN7content19WebContentsObserver16DOMContentLoadedEPNS_15RenderFrameHostE to i8*), i8* bitcast (void (%"class.content::WebContentsObserver"*, %"class.content::RenderFrameHost"*, %class.GURL*)* @_ZN7content19WebContentsObserver13DidFinishLoadEPNS_15RenderFrameHostERK4GURL to i8*), i8* bitcast (void (%"class.content::WebContentsObserver"*, %"class.content::RenderFrameHost"*, %class.GURL*, i32)* @_ZN7content19WebContentsObserver11DidFailLoadEPNS_15RenderFrameHostERK4GURLi to i8*), i8* bitcast (void (%"class.content::WebContentsObserver"*)* @_ZN7content19WebContentsObserver29DidChangeVisibleSecurityStateEv to i8*), i8* bitcast (void (%"class.content::WebContentsObserver"*, %"class.content::RenderFrameHost"*, %class.GURL*, %"class.std::__1::basic_string"*, i32)* @_ZN7content19WebContentsObserver30DidLoadResourceFromMemoryCacheEPNS_15RenderFrameHostERK4GURLRKNSt3__112basic_stringIcNS6_11char_traitsIcEENS6_9allocatorIcEEEEN7network5mojom18RequestDestinationE to i8*), i8* bitcast (void (%"class.content::WebContentsObserver"*, %"class.content::RenderFrameHost"*, %"struct.content::GlobalRequestID"*, %"class.blink::mojom::ResourceLoadInfo"*)* @_ZN7content19WebContentsObserver20ResourceLoadCompleteEPNS_15RenderFrameHostERKNS_15GlobalRequestIDERKN5blink5mojom16ResourceLoadInfoE to i8*), i8* bitcast (void (%"class.content::WebContentsObserver"*, %"class.content::RenderFrameHost"*, %"struct.content::CookieAccessDetails"*)* @_ZN7content19WebContentsObserver17OnCookiesAccessedEPNS_15RenderFrameHostERKNS_19CookieAccessDetailsE to i8*), i8* bitcast (void (%"class.content::WebContentsObserver"*, %"class.content::NavigationHandle"*, %"struct.content::CookieAccessDetails"*)* @_ZN7content19WebContentsObserver17OnCookiesAccessedEPNS_16NavigationHandleERKNS_19CookieAccessDetailsE to i8*), i8* bitcast (void (%"class.content::WebContentsObserver"*, %"struct.content::LoadCommittedDetails"*)* @_ZN7content19WebContentsObserver24NavigationEntryCommittedERKNS_20LoadCommittedDetailsE to i8*), i8* bitcast (void (%"class.content::WebContentsObserver"*, %"struct.content::PrunedDetails"*)* @_ZN7content19WebContentsObserver20NavigationListPrunedERKNS_13PrunedDetailsE to i8*), i8* bitcast (void (%"class.content::WebContentsObserver"*)* @_ZN7content19WebContentsObserver24NavigationEntriesDeletedEv to i8*), i8* bitcast (void (%"class.content::WebContentsObserver"*, %"struct.content::EntryChangedDetails"*)* @_ZN7content19WebContentsObserver22NavigationEntryChangedERKNS_19EntryChangedDetailsE to i8*), i8* bitcast (void (%"class.content::WebContentsObserver"*, %"class.content::WebContents"*, %"class.content::RenderFrameHost"*, %class.GURL*, %"struct.content::Referrer"*, i32, i32, i1, i1)* @_ZN7content19WebContentsObserver19DidOpenRequestedURLEPNS_11WebContentsEPNS_15RenderFrameHostERK4GURLRKNS_8ReferrerE21WindowOpenDispositionN2ui14PageTransitionEbb to i8*), i8* bitcast (void (%"class.content::WebContentsObserver"*)* @_ZN7content19WebContentsObserver29DidFirstVisuallyNonEmptyPaintEv to i8*), i8* bitcast (void (%"class.content::WebContentsObserver"*)* @_ZN7content19WebContentsObserver17NavigationStoppedEv to i8*), i8* bitcast (void (%"class.content::WebContentsObserver"*, %"class.blink::WebInputEvent"*)* @_ZN7content19WebContentsObserver21DidGetUserInteractionERKN5blink13WebInputEventE to i8*), i8* bitcast (void (%"class.content::WebContentsObserver"*)* @_ZN7content19WebContentsObserver20DidGetIgnoredUIEventEv to i8*), i8* bitcast (void (%"class.content::WebContentsObserver"*, i32)* @_ZN7content19WebContentsObserver19OnVisibilityChangedENS_10VisibilityE to i8*), i8* bitcast (void (%"class.content::WebContentsObserver"*, i1)* @_ZN7content19WebContentsObserver19MainFrameWasResizedEb to i8*), i8* bitcast (void (%"class.content::WebContentsObserver"*, %"class.content::RenderFrameHost"*, %"class.std::__1::basic_string"*)* @_ZN7content19WebContentsObserver16FrameNameChangedEPNS_15RenderFrameHostERKNSt3__112basic_stringIcNS3_11char_traitsIcEENS3_9allocatorIcEEEE to i8*), i8* bitcast (void (%"class.content::WebContentsObserver"*, %"class.content::RenderFrameHost"*)* @_ZN7content19WebContentsObserver27FrameReceivedUserActivationEPNS_15RenderFrameHostE to i8*), i8* bitcast (void (%"class.content::WebContentsObserver"*, %"class.content::RenderFrameHost"*, i1)* @_ZN7content19WebContentsObserver24FrameDisplayStateChangedEPNS_15RenderFrameHostEb to i8*), i8* bitcast (void (%"class.content::WebContentsObserver"*, %"class.content::RenderFrameHost"*, %"class.gfx::Size"*)* @_ZN7content19WebContentsObserver16FrameSizeChangedEPNS_15RenderFrameHostERKN3gfx4SizeE to i8*), i8* bitcast (void (%"class.content::WebContentsObserver"*, %"class.content::NavigationEntry"*)* @_ZN7content19WebContentsObserver11TitleWasSetEPNS_15NavigationEntryE to i8*), i8* bitcast (void (%"class.content::WebContentsObserver"*, %class.GURL*, i1)* @_ZN7content19WebContentsObserver16AppCacheAccessedERK4GURLb to i8*), i8* bitcast (void (%"class.content::WebContentsObserver"*)* @_ZN7content19WebContentsObserver21PepperInstanceCreatedEv to i8*), i8* bitcast (void (%"class.content::WebContentsObserver"*)* @_ZN7content19WebContentsObserver21PepperInstanceDeletedEv to i8*), i8* bitcast (void (%"class.content::WebContentsObserver"*, i32)* @_ZN7content19WebContentsObserver18ViewportFitChangedEN5blink5mojom11ViewportFitE to i8*), i8* bitcast (void (%"class.content::WebContentsObserver"*, %"class.base::FilePath"*, i32)* @_ZN7content19WebContentsObserver13PluginCrashedERKN4base8FilePathEi to i8*), i8* bitcast (void (%"class.content::WebContentsObserver"*, i32, %"class.base::FilePath"*, i1)* @_ZN7content19WebContentsObserver23PluginHungStatusChangedEiRKN4base8FilePathEb to i8*), i8* bitcast (void (%"class.content::WebContentsObserver"*, %"class.content::WebContents"*)* @_ZN7content19WebContentsObserver23InnerWebContentsCreatedEPNS_11WebContentsE to i8*), i8* bitcast (void (%"class.content::WebContentsObserver"*, %"class.content::WebContents"*, %"class.content::RenderFrameHost"*, i1)* @_ZN7content19WebContentsObserver24InnerWebContentsAttachedEPNS_11WebContentsEPNS_15RenderFrameHostEb to i8*), i8* bitcast (void (%"class.content::WebContentsObserver"*, %"class.content::WebContents"*)* @_ZN7content19WebContentsObserver24InnerWebContentsDetachedEPNS_11WebContentsE to i8*), i8* bitcast (void (%"class.content::WebContentsObserver"*, %"class.content::WebContents"*, %"class.content::WebContents"*)* @_ZN7content19WebContentsObserver24DidCloneToNewWebContentsEPNS_11WebContentsES2_ to i8*), i8* bitcast (void (%"class.content::WebContentsObserver"*)* @_ZN7content19WebContentsObserver20WebContentsDestroyedEv to i8*), i8* bitcast (void (%"class.content::WebContentsObserver"*, %"struct.blink::UserAgentOverride"*)* @_ZN7content19WebContentsObserver20UserAgentOverrideSetERKN5blink17UserAgentOverrideE to i8*), i8* bitcast (void (%"class.content::WebContentsObserver"*, %"class.content::RenderFrameHost"*, %"class.std::__1::vector.91"*)* @_ZN7content19WebContentsObserver19DidUpdateFaviconURLEPNS_15RenderFrameHostERKNSt3__16vectorIN4mojo9StructPtrIN5blink5mojom10FaviconURLEEENS3_9allocatorISA_EEEE to i8*), i8* bitcast (void (%"class.content::WebContentsObserver"*, i1)* @_ZN7content19WebContentsObserver19OnAudioStateChangedEb to i8*), i8* bitcast (void (%"class.content::WebContentsObserver"*, %"class.content::RenderFrameHost"*, i1)* @_ZN7content19WebContentsObserver24OnFrameAudioStateChangedEPNS_15RenderFrameHostEb to i8*), i8* bitcast (void (%"class.content::WebContentsObserver"*, i1)* @_ZN7content19WebContentsObserver37OnIsConnectedToBluetoothDeviceChangedEb to i8*), i8* bitcast (void (%"class.content::WebContentsObserver"*, i1)* @_ZN7content19WebContentsObserver25DidUpdateAudioMutingStateEb to i8*), i8* bitcast (void (%"class.content::WebContentsObserver"*, i1, i1)* @_ZN7content19WebContentsObserver29DidToggleFullscreenModeForTabEbb to i8*), i8* bitcast (void (%"class.content::WebContentsObserver"*, %"class.content::RenderFrameHost"*)* @_ZN7content19WebContentsObserver20DidAcquireFullscreenEPNS_15RenderFrameHostE to i8*), i8* bitcast (void (%"class.content::WebContentsObserver"*, i32)* @_ZN7content19WebContentsObserver32DidChangeVerticalScrollDirectionEN3viz23VerticalScrollDirectionE to i8*), i8* bitcast (void (%"class.content::WebContentsObserver"*)* @_ZN7content19WebContentsObserver27BeforeFormRepostWarningShowEv to i8*), i8* bitcast (void (%"class.content::WebContentsObserver"*, i1, %"class.base::TimeTicks"*)* @_ZN7content19WebContentsObserver17BeforeUnloadFiredEbRKN4base9TimeTicksE to i8*), i8* bitcast (void (%"class.content::WebContentsObserver"*)* @_ZN7content19WebContentsObserver27BeforeUnloadDialogCancelledEv to i8*), i8* bitcast (void (%"class.content::WebContentsObserver"*)* @_ZN7content19WebContentsObserver30AXTreeIDForMainFrameHasChangedEv to i8*), i8* bitcast (void (%"class.content::WebContentsObserver"*, %"struct.content::AXEventNotificationDetails"*)* @_ZN7content19WebContentsObserver26AccessibilityEventReceivedERKNS_26AXEventNotificationDetailsE to i8*), i8* bitcast (void (%"class.content::WebContentsObserver"*, %"class.std::__1::vector.92"*)* @_ZN7content19WebContentsObserver36AccessibilityLocationChangesReceivedERKNSt3__16vectorINS_35AXLocationChangeNotificationDetailsENS1_9allocatorIS3_EEEE to i8*), i8* bitcast (void (%"class.content::WebContentsObserver"*)* @_ZN7content19WebContentsObserver19DidChangeThemeColorEv to i8*), i8* bitcast (void (%"class.content::WebContentsObserver"*)* @_ZN7content19WebContentsObserver24OnBackgroundColorChangedEv to i8*), i8* bitcast (void (%"class.content::WebContentsObserver"*, %"class.content::RenderFrameHost"*, i32, %"class.std::__1::basic_string.93"*, i32, %"class.std::__1::basic_string.93"*, %"class.absl::optional.102"*)* @_ZN7content19WebContentsObserver24OnDidAddMessageToConsoleEPNS_15RenderFrameHostEN5blink5mojom19ConsoleMessageLevelERKNSt3__112basic_stringIDsNS6_11char_traitsIDsEENS6_9allocatorIDsEEEEiSE_RKN4absl8optionalISC_EE to i8*), i8* bitcast (void (%"class.content::WebContentsObserver"*, %"struct.content::WebContentsObserver::MediaPlayerInfo"*, %"struct.content::MediaPlayerId"*)* @_ZN7content19WebContentsObserver19MediaStartedPlayingERKNS0_15MediaPlayerInfoERKNS_13MediaPlayerIdE to i8*), i8* bitcast (void (%"class.content::WebContentsObserver"*, %"struct.content::WebContentsObserver::MediaPlayerInfo"*, %"struct.content::MediaPlayerId"*, i32)* @_ZN7content19WebContentsObserver19MediaStoppedPlayingERKNS0_15MediaPlayerInfoERKNS_13MediaPlayerIdENS0_18MediaStoppedReasonE to i8*), i8* bitcast (void (%"class.content::WebContentsObserver"*, %"class.gfx::Size"*, %"struct.content::MediaPlayerId"*)* @_ZN7content19WebContentsObserver12MediaResizedERKN3gfx4SizeERKNS_13MediaPlayerIdE to i8*), i8* bitcast (void (%"class.content::WebContentsObserver"*, i1)* @_ZN7content19WebContentsObserver33MediaEffectivelyFullscreenChangedEb to i8*), i8* bitcast (void (%"class.content::WebContentsObserver"*, i1)* @_ZN7content19WebContentsObserver28MediaPictureInPictureChangedEb to i8*), i8* bitcast (void (%"class.content::WebContentsObserver"*, %"struct.content::MediaPlayerId"*, i1)* @_ZN7content19WebContentsObserver23MediaMutedStatusChangedERKNS_13MediaPlayerIdEb to i8*), i8* bitcast (void (%"class.content::WebContentsObserver"*, %"struct.content::MediaPlayerId"*)* @_ZN7content19WebContentsObserver20MediaBufferUnderflowERKNS_13MediaPlayerIdE to i8*), i8* bitcast (void (%"class.content::WebContentsObserver"*, %"struct.content::MediaPlayerId"*)* @_ZN7content19WebContentsObserver15MediaPlayerSeekERKNS_13MediaPlayerIdE to i8*), i8* bitcast (void (%"class.content::WebContentsObserver"*, %"struct.content::MediaPlayerId"*)* @_ZN7content19WebContentsObserver14MediaDestroyedERKNS_13MediaPlayerIdE to i8*), i8* bitcast (void (%"class.content::WebContentsObserver"*, float)* @_ZN7content19WebContentsObserver24OnPageScaleFactorChangedEf to i8*), i8* bitcast (void (%"class.content::WebContentsObserver"*)* @_ZN7content19WebContentsObserver7OnPasteEv to i8*), i8* bitcast (i1 (%"class.content::WebContentsObserver"*, %"class.IPC::Message"*, %"class.content::RenderFrameHost"*)* @_ZN7content19WebContentsObserver17OnMessageReceivedERKN3IPC7MessageEPNS_15RenderFrameHostE to i8*), i8* bitcast (void (%"class.content::WebContentsObserver"*, %"class.content::RenderWidgetHost"*)* @_ZN7content19WebContentsObserver20OnWebContentsFocusedEPNS_16RenderWidgetHostE to i8*), i8* bitcast (void (%"class.content::WebContentsObserver"*, %"class.content::RenderWidgetHost"*)* @_ZN7content19WebContentsObserver22OnWebContentsLostFocusEPNS_16RenderWidgetHostE to i8*), i8* bitcast (void (%"class.content::WebContentsObserver"*, %"struct.content::FocusedNodeDetails"*)* @_ZN7content19WebContentsObserver20OnFocusChangedInPageEPNS_18FocusedNodeDetailsE to i8*), i8* bitcast (void (%"class.content::WebContentsObserver"*, %"class.content::RenderFrameHost"*, %"class.absl::optional.103"*)* @_ZN7content19WebContentsObserver23DidUpdateWebManifestURLEPNS_15RenderFrameHostERKN4absl8optionalI4GURLEE to i8*), i8* bitcast (void (%"class.content::WebContentsObserver"*, %"class.content::RenderFrameHost"*, %"class.std::__1::basic_string"*, %"class.mojo::ScopedHandleBase"*)* @_ZN7content19WebContentsObserver27OnInterfaceRequestFromFrameEPNS_15RenderFrameHostERKNSt3__112basic_stringIcNS3_11char_traitsIcEENS3_9allocatorIcEEEEPN4mojo16ScopedHandleBaseINSC_17MessagePipeHandleEEE to i8*), i8* bitcast (void (%"class.content::WebContentsObserver"*, %"struct.std::__1::pair.108"*)* @_ZN7content19WebContentsObserver27AudioContextPlaybackStartedERKNSt3__14pairIPNS_15RenderFrameHostEiEE to i8*), i8* bitcast (void (%"class.content::WebContentsObserver"*, %"struct.std::__1::pair.108"*)* @_ZN7content19WebContentsObserver27AudioContextPlaybackStoppedERKNSt3__14pairIPNS_15RenderFrameHostEiEE to i8*), i8* bitcast (void (%"class.content::WebContentsObserver"*, %"class.content::RenderFrameHost"*, %class.GURL*, i24)* @_ZN7content19WebContentsObserver23OnServiceWorkerAccessedEPNS_15RenderFrameHostERK4GURLNS_24AllowServiceWorkerResultE to i8*), i8* bitcast (void (%"class.content::WebContentsObserver"*, %"class.content::NavigationHandle"*, %class.GURL*, i24)* @_ZN7content19WebContentsObserver23OnServiceWorkerAccessedEPNS_16NavigationHandleERK4GURLNS_24AllowServiceWorkerResultE to i8*)] }, align 8
@_ZTVN8printing25BackgroundPrintingManagerE = hidden unnamed_addr constant { [5 x i8*] } { [5 x i8*] [i8* null, i8* null, i8* bitcast (void (%"class.printing::BackgroundPrintingManager"*, i32, %"class.content::NotificationSource"*, %"class.content::NotificationDetails"*)* @_ZN8printing25BackgroundPrintingManager7ObserveEiRKN7content18NotificationSourceERKNS1_19NotificationDetailsE to i8*), i8* bitcast (void (%"class.printing::BackgroundPrintingManager"*)* @_ZN8printing25BackgroundPrintingManagerD2Ev to i8*), i8* bitcast (void (%"class.printing::BackgroundPrintingManager"*)* @_ZN8printing25BackgroundPrintingManagerD0Ev to i8*)] }, align 8
@.str = private unnamed_addr constant [61 x i8] c"../../chrome/browser/printing/background_printing_manager.cc\00", align 1
@.str.1 = private unnamed_addr constant [45 x i8] c"!HasPrintPreviewDialog(preview_dialog.get())\00", align 1
@.str.2 = private unnamed_addr constant [22 x i8] c"DeletePreviewContents\00", align 1

@_ZN8printing25BackgroundPrintingManager8ObserverC1EPS0_PN7content11WebContentsE = hidden unnamed_addr alias void (%"class.printing::BackgroundPrintingManager::Observer"*, %"class.printing::BackgroundPrintingManager"*, %"class.content::WebContents"*), void (%"class.printing::BackgroundPrintingManager::Observer"*, %"class.printing::BackgroundPrintingManager"*, %"class.content::WebContents"*)* @_ZN8printing25BackgroundPrintingManager8ObserverC2EPS0_PN7content11WebContentsE
@_ZN8printing25BackgroundPrintingManagerC1Ev = hidden unnamed_addr alias void (%"class.printing::BackgroundPrintingManager"*), void (%"class.printing::BackgroundPrintingManager"*)* @_ZN8printing25BackgroundPrintingManagerC2Ev
@_ZN8printing25BackgroundPrintingManagerD1Ev = hidden unnamed_addr alias void (%"class.printing::BackgroundPrintingManager"*), void (%"class.printing::BackgroundPrintingManager"*)* @_ZN8printing25BackgroundPrintingManagerD2Ev
@_ZN8printing25BackgroundPrintingManager16PrintingContentsC1Ev = hidden unnamed_addr alias void (%"struct.printing::BackgroundPrintingManager::PrintingContents"*), void (%"struct.printing::BackgroundPrintingManager::PrintingContents"*)* @_ZN8printing25BackgroundPrintingManager16PrintingContentsC2Ev
@_ZN8printing25BackgroundPrintingManager16PrintingContentsD1Ev = hidden unnamed_addr alias void (%"struct.printing::BackgroundPrintingManager::PrintingContents"*), void (%"struct.printing::BackgroundPrintingManager::PrintingContents"*)* @_ZN8printing25BackgroundPrintingManager16PrintingContentsD2Ev
@_ZN8printing25BackgroundPrintingManager16PrintingContentsC1EOS1_ = hidden unnamed_addr alias void (%"struct.printing::BackgroundPrintingManager::PrintingContents"*, %"struct.printing::BackgroundPrintingManager::PrintingContents"*), void (%"struct.printing::BackgroundPrintingManager::PrintingContents"*, %"struct.printing::BackgroundPrintingManager::PrintingContents"*)* @_ZN8printing25BackgroundPrintingManager16PrintingContentsC2EOS1_

; Function Attrs: nounwind ssp uwtable
define hidden void @_ZN8printing25BackgroundPrintingManager8ObserverC2EPS0_PN7content11WebContentsE(%"class.printing::BackgroundPrintingManager::Observer"*, %"class.printing::BackgroundPrintingManager"*, %"class.content::WebContents"*) unnamed_addr #0 align 2 {
  %4 = getelementptr inbounds %"class.printing::BackgroundPrintingManager::Observer", %"class.printing::BackgroundPrintingManager::Observer"* %0, i64 0, i32 0
  tail call void @_ZN7content19WebContentsObserverC2EPNS_11WebContentsE(%"class.content::WebContentsObserver"* %4, %"class.content::WebContents"* %2) #12
  %5 = getelementptr inbounds %"class.printing::BackgroundPrintingManager::Observer", %"class.printing::BackgroundPrintingManager::Observer"* %0, i64 0, i32 0, i32 0, i32 0
  store i32 (...)** bitcast (i8** getelementptr inbounds ({ [109 x i8*] }, { [109 x i8*] }* @_ZTVN8printing25BackgroundPrintingManager8ObserverE, i64 0, inrange i32 0, i64 2) to i32 (...)**), i32 (...)*** %5, align 8
  %6 = getelementptr inbounds %"class.printing::BackgroundPrintingManager::Observer", %"class.printing::BackgroundPrintingManager::Observer"* %0, i64 0, i32 1
  store %"class.printing::BackgroundPrintingManager"* %1, %"class.printing::BackgroundPrintingManager"** %6, align 8
  ret void
}

declare void @_ZN7content19WebContentsObserverC2EPNS_11WebContentsE(%"class.content::WebContentsObserver"*, %"class.content::WebContents"*) unnamed_addr #1

; Function Attrs: nounwind ssp uwtable
define hidden void @_ZN8printing25BackgroundPrintingManager8Observer17RenderProcessGoneEN4base17TerminationStatusE(%"class.printing::BackgroundPrintingManager::Observer"*, i32) unnamed_addr #0 align 2 {
  %3 = getelementptr inbounds %"class.printing::BackgroundPrintingManager::Observer", %"class.printing::BackgroundPrintingManager::Observer"* %0, i64 0, i32 1
  %4 = load %"class.printing::BackgroundPrintingManager"*, %"class.printing::BackgroundPrintingManager"** %3, align 8
  %5 = getelementptr inbounds %"class.printing::BackgroundPrintingManager::Observer", %"class.printing::BackgroundPrintingManager::Observer"* %0, i64 0, i32 0
  %6 = tail call %"class.content::WebContents"* @_ZNK7content19WebContentsObserver12web_contentsEv(%"class.content::WebContentsObserver"* %5) #12
  tail call void @_ZN8printing25BackgroundPrintingManager21DeletePreviewContentsEPN7content11WebContentsE(%"class.printing::BackgroundPrintingManager"* %4, %"class.content::WebContents"* %6)
  ret void
}

; Function Attrs: nounwind ssp uwtable
define hidden void @_ZN8printing25BackgroundPrintingManager21DeletePreviewContentsEPN7content11WebContentsE(%"class.printing::BackgroundPrintingManager"*, %"class.content::WebContents"*) local_unnamed_addr #0 align 2 {
  %3 = alloca %"class.content::Source", align 8
  %4 = alloca %"class.base::Location", align 8
  %5 = getelementptr inbounds %"class.printing::BackgroundPrintingManager", %"class.printing::BackgroundPrintingManager"* %0, i64 0, i32 1, i32 0, i32 1, i32 0, i32 0
  %6 = bitcast %"class.std::__1::__tree_end_node"* %5 to %"class.std::__1::__tree_node"**
  %7 = load %"class.std::__1::__tree_node"*, %"class.std::__1::__tree_node"** %6, align 8
  %8 = icmp eq %"class.std::__1::__tree_node"* %7, null
  br i1 %8, label %47, label %9

9:                                                ; preds = %2, %9
  %10 = phi %"class.std::__1::__tree_end_node"* [ %20, %9 ], [ %5, %2 ]
  %11 = phi %"class.std::__1::__tree_node"* [ %21, %9 ], [ %7, %2 ]
  %12 = getelementptr inbounds %"class.std::__1::__tree_node", %"class.std::__1::__tree_node"* %11, i64 0, i32 1, i32 0, i32 0
  %13 = load %"class.content::WebContents"*, %"class.content::WebContents"** %12, align 8
  %14 = icmp ult %"class.content::WebContents"* %13, %1
  %15 = getelementptr inbounds %"class.std::__1::__tree_node", %"class.std::__1::__tree_node"* %11, i64 0, i32 0, i32 1
  %16 = bitcast %"class.std::__1::__tree_node_base"** %15 to %"class.std::__1::__tree_node"**
  %17 = getelementptr inbounds %"class.std::__1::__tree_node", %"class.std::__1::__tree_node"* %11, i64 0, i32 0, i32 0
  %18 = bitcast %"class.std::__1::__tree_node"* %11 to %"class.std::__1::__tree_node"**
  %19 = select i1 %14, %"class.std::__1::__tree_node"** %16, %"class.std::__1::__tree_node"** %18
  %20 = select i1 %14, %"class.std::__1::__tree_end_node"* %10, %"class.std::__1::__tree_end_node"* %17
  %21 = load %"class.std::__1::__tree_node"*, %"class.std::__1::__tree_node"** %19, align 8
  %22 = icmp eq %"class.std::__1::__tree_node"* %21, null
  br i1 %22, label %23, label %9

23:                                               ; preds = %9
  %24 = icmp eq %"class.std::__1::__tree_end_node"* %20, %5
  br i1 %24, label %47, label %25

25:                                               ; preds = %23
  %26 = getelementptr inbounds %"class.std::__1::__tree_end_node", %"class.std::__1::__tree_end_node"* %20, i64 4
  %27 = bitcast %"class.std::__1::__tree_end_node"* %26 to %"class.content::WebContents"**
  %28 = load %"class.content::WebContents"*, %"class.content::WebContents"** %27, align 8
  %29 = icmp ugt %"class.content::WebContents"* %28, %1
  br i1 %29, label %47, label %30

30:                                               ; preds = %25
  %31 = getelementptr inbounds %"class.printing::BackgroundPrintingManager", %"class.printing::BackgroundPrintingManager"* %0, i64 0, i32 2
  %32 = getelementptr inbounds %"class.printing::BackgroundPrintingManager", %"class.printing::BackgroundPrintingManager"* %0, i64 0, i32 0
  %33 = bitcast %"class.content::Source"* %3 to i8*
  call void @llvm.lifetime.start.p0i8(i64 8, i8* nonnull %33) #12
  %34 = bitcast %"class.content::Source"* %3 to %"class.content::WebContents"**
  store %"class.content::WebContents"* %1, %"class.content::WebContents"** %34, align 8
  %35 = getelementptr inbounds %"class.content::Source", %"class.content::Source"* %3, i64 0, i32 0
  call void @_ZN7content21NotificationRegistrar6RemoveEPNS_20NotificationObserverEiRKNS_18NotificationSourceE(%"class.content::NotificationRegistrar"* %31, %"class.content::NotificationObserver"* %32, i32 37, %"class.content::NotificationSource"* nonnull dereferenceable(8) %35) #12
  call void @llvm.lifetime.end.p0i8(i64 8, i8* nonnull %33) #12
  %36 = getelementptr inbounds %"class.std::__1::__tree_end_node", %"class.std::__1::__tree_end_node"* %20, i64 5
  %37 = bitcast %"class.std::__1::__tree_end_node"* %36 to %"class.content::WebContents"**
  %38 = bitcast %"class.std::__1::__tree_end_node"* %36 to i8**
  %39 = load i8*, i8** %38, align 8
  store %"class.content::WebContents"* null, %"class.content::WebContents"** %37, align 8
  %40 = getelementptr inbounds %"class.printing::BackgroundPrintingManager", %"class.printing::BackgroundPrintingManager"* %0, i64 0, i32 1, i32 0
  %41 = call %"class.std::__1::__tree_end_node"* @_ZNSt3__16__treeINS_12__value_typeIPN7content11WebContentsEN8printing25BackgroundPrintingManager16PrintingContentsEEENS_19__map_value_compareIS4_S8_NS_4lessIS4_EELb1EEENS_9allocatorIS8_EEE5eraseENS_21__tree_const_iteratorIS8_PNS_11__tree_nodeIS8_PvEElEE(%"class.std::__1::__tree.5"* %40, %"class.std::__1::__tree_end_node"* %20) #12
  %42 = call dereferenceable(8) %class.scoped_refptr* @_ZN4base22ThreadTaskRunnerHandle3GetEv() #12
  %43 = bitcast %class.scoped_refptr* %42 to %"class.base::SequencedTaskRunner"**
  %44 = load %"class.base::SequencedTaskRunner"*, %"class.base::SequencedTaskRunner"** %43, align 8
  %45 = bitcast %"class.base::Location"* %4 to i8*
  call void @llvm.lifetime.start.p0i8(i64 32, i8* nonnull %45) #12
  call void @_ZN4base8Location7CurrentEPKcS2_i(%"class.base::Location"* nonnull sret %4, i8* getelementptr inbounds ([22 x i8], [22 x i8]* @.str.2, i64 0, i64 0), i8* getelementptr inbounds ([61 x i8], [61 x i8]* @.str, i64 0, i64 0), i32 142) #12
  %46 = call zeroext i1 @_ZN4base19SequencedTaskRunner27DeleteOrReleaseSoonInternalERKNS_8LocationEPFvPKvES5_(%"class.base::SequencedTaskRunner"* %44, %"class.base::Location"* nonnull dereferenceable(32) %4, void (i8*)* nonnull @_ZN4base12DeleteHelperIN7content11WebContentsEE8DoDeleteEPKv, i8* %39) #12
  call void @llvm.lifetime.end.p0i8(i64 32, i8* nonnull %45) #12
  br label %47

47:                                               ; preds = %25, %23, %2, %30
  ret void
}

declare %"class.content::WebContents"* @_ZNK7content19WebContentsObserver12web_contentsEv(%"class.content::WebContentsObserver"*) local_unnamed_addr #1

; Function Attrs: nounwind ssp uwtable
define hidden void @_ZN8printing25BackgroundPrintingManagerC2Ev(%"class.printing::BackgroundPrintingManager"*) unnamed_addr #0 align 2 {
  %2 = getelementptr inbounds %"class.printing::BackgroundPrintingManager", %"class.printing::BackgroundPrintingManager"* %0, i64 0, i32 0, i32 0
  store i32 (...)** bitcast (i8** getelementptr inbounds ({ [5 x i8*] }, { [5 x i8*] }* @_ZTVN8printing25BackgroundPrintingManagerE, i64 0, inrange i32 0, i64 2) to i32 (...)**), i32 (...)*** %2, align 8
  %3 = getelementptr inbounds %"class.printing::BackgroundPrintingManager", %"class.printing::BackgroundPrintingManager"* %0, i64 0, i32 1, i32 0, i32 1, i32 0, i32 0, i32 0
  %4 = getelementptr inbounds %"class.printing::BackgroundPrintingManager", %"class.printing::BackgroundPrintingManager"* %0, i64 0, i32 1, i32 0, i32 1, i32 0, i32 0
  %5 = getelementptr inbounds %"class.printing::BackgroundPrintingManager", %"class.printing::BackgroundPrintingManager"* %0, i64 0, i32 1, i32 0, i32 0
  %6 = bitcast %"class.std::__1::__tree_node_base"** %3 to i8*
  tail call void @llvm.memset.p0i8.i64(i8* align 8 %6, i8 0, i64 16, i1 false) #12
  store %"class.std::__1::__tree_end_node"* %4, %"class.std::__1::__tree_end_node"** %5, align 8
  %7 = getelementptr inbounds %"class.printing::BackgroundPrintingManager", %"class.printing::BackgroundPrintingManager"* %0, i64 0, i32 2
  tail call void @_ZN7content21NotificationRegistrarC1Ev(%"class.content::NotificationRegistrar"* %7) #12
  ret void
}

declare void @_ZN7content21NotificationRegistrarC1Ev(%"class.content::NotificationRegistrar"*) unnamed_addr #1

; Function Attrs: nounwind ssp uwtable
define hidden void @_ZN8printing25BackgroundPrintingManagerD2Ev(%"class.printing::BackgroundPrintingManager"*) unnamed_addr #0 align 2 {
  %2 = getelementptr inbounds %"class.printing::BackgroundPrintingManager", %"class.printing::BackgroundPrintingManager"* %0, i64 0, i32 0, i32 0
  store i32 (...)** bitcast (i8** getelementptr inbounds ({ [5 x i8*] }, { [5 x i8*] }* @_ZTVN8printing25BackgroundPrintingManagerE, i64 0, inrange i32 0, i64 2) to i32 (...)**), i32 (...)*** %2, align 8
  %3 = getelementptr inbounds %"class.printing::BackgroundPrintingManager", %"class.printing::BackgroundPrintingManager"* %0, i64 0, i32 2
  tail call void @_ZN7content21NotificationRegistrarD1Ev(%"class.content::NotificationRegistrar"* %3) #12
  %4 = getelementptr inbounds %"class.printing::BackgroundPrintingManager", %"class.printing::BackgroundPrintingManager"* %0, i64 0, i32 1, i32 0
  %5 = getelementptr inbounds %"class.printing::BackgroundPrintingManager", %"class.printing::BackgroundPrintingManager"* %0, i64 0, i32 1, i32 0, i32 1, i32 0, i32 0
  %6 = bitcast %"class.std::__1::__tree_end_node"* %5 to %"class.std::__1::__tree_node"**
  %7 = load %"class.std::__1::__tree_node"*, %"class.std::__1::__tree_node"** %6, align 8
  tail call void @_ZNSt3__16__treeINS_12__value_typeIPN7content11WebContentsEN8printing25BackgroundPrintingManager16PrintingContentsEEENS_19__map_value_compareIS4_S8_NS_4lessIS4_EELb1EEENS_9allocatorIS8_EEE7destroyEPNS_11__tree_nodeIS8_PvEE(%"class.std::__1::__tree.5"* %4, %"class.std::__1::__tree_node"* %7) #12
  ret void
}

; Function Attrs: nounwind
declare void @_ZN7content21NotificationRegistrarD1Ev(%"class.content::NotificationRegistrar"*) unnamed_addr #2

; Function Attrs: nounwind ssp uwtable
define hidden void @_ZN8printing25BackgroundPrintingManagerD0Ev(%"class.printing::BackgroundPrintingManager"*) unnamed_addr #0 align 2 {
  %2 = getelementptr inbounds %"class.printing::BackgroundPrintingManager", %"class.printing::BackgroundPrintingManager"* %0, i64 0, i32 0, i32 0
  store i32 (...)** bitcast (i8** getelementptr inbounds ({ [5 x i8*] }, { [5 x i8*] }* @_ZTVN8printing25BackgroundPrintingManagerE, i64 0, inrange i32 0, i64 2) to i32 (...)**), i32 (...)*** %2, align 8
  %3 = getelementptr inbounds %"class.printing::BackgroundPrintingManager", %"class.printing::BackgroundPrintingManager"* %0, i64 0, i32 2
  tail call void @_ZN7content21NotificationRegistrarD1Ev(%"class.content::NotificationRegistrar"* %3) #12
  %4 = getelementptr inbounds %"class.printing::BackgroundPrintingManager", %"class.printing::BackgroundPrintingManager"* %0, i64 0, i32 1, i32 0
  %5 = getelementptr inbounds %"class.printing::BackgroundPrintingManager", %"class.printing::BackgroundPrintingManager"* %0, i64 0, i32 1, i32 0, i32 1, i32 0, i32 0
  %6 = bitcast %"class.std::__1::__tree_end_node"* %5 to %"class.std::__1::__tree_node"**
  %7 = load %"class.std::__1::__tree_node"*, %"class.std::__1::__tree_node"** %6, align 8
  tail call void @_ZNSt3__16__treeINS_12__value_typeIPN7content11WebContentsEN8printing25BackgroundPrintingManager16PrintingContentsEEENS_19__map_value_compareIS4_S8_NS_4lessIS4_EELb1EEENS_9allocatorIS8_EEE7destroyEPNS_11__tree_nodeIS8_PvEE(%"class.std::__1::__tree.5"* %4, %"class.std::__1::__tree_node"* %7) #12
  %8 = bitcast %"class.printing::BackgroundPrintingManager"* %0 to i8*
  tail call void @_ZdlPv(i8* %8) #13
  ret void
}

; Function Attrs: nobuiltin nounwind
declare void @_ZdlPv(i8*) local_unnamed_addr #3

; Function Attrs: nounwind ssp uwtable
define hidden void @_ZN8printing25BackgroundPrintingManager21OwnPrintPreviewDialogENSt3__110unique_ptrIN7content11WebContentsENS1_14default_deleteIS4_EEEE(%"class.printing::BackgroundPrintingManager"*, %"class.content::WebContents"*) local_unnamed_addr #0 align 2 {
  %3 = alloca %"class.logging::CheckError", align 8
  %4 = alloca %"class.content::Source", align 8
  %5 = ptrtoint %"class.content::WebContents"* %1 to i64
  %6 = getelementptr inbounds %"class.printing::BackgroundPrintingManager", %"class.printing::BackgroundPrintingManager"* %0, i64 0, i32 1, i32 0, i32 1, i32 0, i32 0
  %7 = bitcast %"class.std::__1::__tree_end_node"* %6 to %"class.std::__1::__tree_node"**
  %8 = load %"class.std::__1::__tree_node"*, %"class.std::__1::__tree_node"** %7, align 8
  %9 = icmp eq %"class.std::__1::__tree_node"* %8, null
  br i1 %9, label %34, label %10

10:                                               ; preds = %2, %10
  %11 = phi %"class.std::__1::__tree_end_node"* [ %21, %10 ], [ %6, %2 ]
  %12 = phi %"class.std::__1::__tree_node"* [ %22, %10 ], [ %8, %2 ]
  %13 = getelementptr inbounds %"class.std::__1::__tree_node", %"class.std::__1::__tree_node"* %12, i64 0, i32 1, i32 0, i32 0
  %14 = load %"class.content::WebContents"*, %"class.content::WebContents"** %13, align 8
  %15 = icmp ult %"class.content::WebContents"* %14, %1
  %16 = getelementptr inbounds %"class.std::__1::__tree_node", %"class.std::__1::__tree_node"* %12, i64 0, i32 0, i32 1
  %17 = bitcast %"class.std::__1::__tree_node_base"** %16 to %"class.std::__1::__tree_node"**
  %18 = getelementptr inbounds %"class.std::__1::__tree_node", %"class.std::__1::__tree_node"* %12, i64 0, i32 0, i32 0
  %19 = bitcast %"class.std::__1::__tree_node"* %12 to %"class.std::__1::__tree_node"**
  %20 = select i1 %15, %"class.std::__1::__tree_node"** %17, %"class.std::__1::__tree_node"** %19
  %21 = select i1 %15, %"class.std::__1::__tree_end_node"* %11, %"class.std::__1::__tree_end_node"* %18
  %22 = load %"class.std::__1::__tree_node"*, %"class.std::__1::__tree_node"** %20, align 8
  %23 = icmp eq %"class.std::__1::__tree_node"* %22, null
  br i1 %23, label %24, label %10

24:                                               ; preds = %10
  %25 = icmp eq %"class.std::__1::__tree_end_node"* %21, %6
  br i1 %25, label %34, label %26

26:                                               ; preds = %24
  %27 = getelementptr inbounds %"class.std::__1::__tree_end_node", %"class.std::__1::__tree_end_node"* %21, i64 4
  %28 = bitcast %"class.std::__1::__tree_end_node"* %27 to %"class.content::WebContents"**
  %29 = load %"class.content::WebContents"*, %"class.content::WebContents"** %28, align 8
  %30 = icmp ugt %"class.content::WebContents"* %29, %1
  br i1 %30, label %34, label %31

31:                                               ; preds = %26
  %32 = bitcast %"class.logging::CheckError"* %3 to i8*
  call void @llvm.lifetime.start.p0i8(i64 8, i8* nonnull %32) #12
  call void @_ZN7logging10CheckError5CheckEPKciS2_(%"class.logging::CheckError"* nonnull sret %3, i8* getelementptr inbounds ([61 x i8], [61 x i8]* @.str, i64 0, i64 0), i32 67, i8* getelementptr inbounds ([45 x i8], [45 x i8]* @.str.1, i64 0, i64 0)) #12
  %33 = call dereferenceable(160) %"class.std::__1::basic_ostream"* @_ZN7logging10CheckError6streamEv(%"class.logging::CheckError"* nonnull %3) #12
  call void @_ZN7logging10CheckErrorD1Ev(%"class.logging::CheckError"* nonnull %3) #12
  call void @llvm.lifetime.end.p0i8(i64 8, i8* nonnull %32) #12
  br label %34

34:                                               ; preds = %26, %24, %2, %31
  %35 = ptrtoint %"class.printing::BackgroundPrintingManager"* %0 to i64
  %36 = call i8* @_Znwm(i64 24) #13
  %37 = bitcast i8* %36 to %"class.content::WebContentsObserver"*
  call void @_ZN7content19WebContentsObserverC2EPNS_11WebContentsE(%"class.content::WebContentsObserver"* nonnull %37, %"class.content::WebContents"* %1) #12
  %38 = bitcast i8* %36 to i32 (...)***
  store i32 (...)** bitcast (i8** getelementptr inbounds ({ [109 x i8*] }, { [109 x i8*] }* @_ZTVN8printing25BackgroundPrintingManager8ObserverE, i64 0, inrange i32 0, i64 2) to i32 (...)**), i32 (...)*** %38, align 8
  %39 = getelementptr inbounds i8, i8* %36, i64 16
  %40 = bitcast i8* %39 to i64*
  store i64 %35, i64* %40, align 8
  %41 = ptrtoint i8* %36 to i64
  %42 = getelementptr inbounds %"class.printing::BackgroundPrintingManager", %"class.printing::BackgroundPrintingManager"* %0, i64 0, i32 1
  %43 = load %"class.std::__1::__tree_node"*, %"class.std::__1::__tree_node"** %7, align 8
  %44 = icmp eq %"class.std::__1::__tree_node"* %43, null
  br i1 %44, label %73, label %45

45:                                               ; preds = %34
  %46 = getelementptr inbounds %"class.printing::BackgroundPrintingManager", %"class.printing::BackgroundPrintingManager"* %0, i64 0, i32 1, i32 0, i32 1, i32 0, i32 0, i32 0
  br label %47

47:                                               ; preds = %69, %45
  %48 = phi %"class.std::__1::__tree_node"* [ %72, %69 ], [ %43, %45 ]
  %49 = phi %"class.std::__1::__tree_node_base"** [ %71, %69 ], [ %46, %45 ]
  %50 = getelementptr inbounds %"class.std::__1::__tree_node", %"class.std::__1::__tree_node"* %48, i64 0, i32 1, i32 0, i32 0
  %51 = load %"class.content::WebContents"*, %"class.content::WebContents"** %50, align 8
  %52 = icmp ugt %"class.content::WebContents"* %51, %1
  br i1 %52, label %53, label %59

53:                                               ; preds = %47
  %54 = getelementptr inbounds %"class.std::__1::__tree_node", %"class.std::__1::__tree_node"* %48, i64 0, i32 0, i32 0, i32 0
  %55 = load %"class.std::__1::__tree_node_base"*, %"class.std::__1::__tree_node_base"** %54, align 8
  %56 = icmp eq %"class.std::__1::__tree_node_base"* %55, null
  br i1 %56, label %57, label %69

57:                                               ; preds = %53
  %58 = getelementptr inbounds %"class.std::__1::__tree_node", %"class.std::__1::__tree_node"* %48, i64 0, i32 0, i32 0
  br label %75

59:                                               ; preds = %47
  %60 = icmp ult %"class.content::WebContents"* %51, %1
  br i1 %60, label %61, label %67

61:                                               ; preds = %59
  %62 = getelementptr inbounds %"class.std::__1::__tree_node", %"class.std::__1::__tree_node"* %48, i64 0, i32 0, i32 1
  %63 = load %"class.std::__1::__tree_node_base"*, %"class.std::__1::__tree_node_base"** %62, align 8
  %64 = icmp eq %"class.std::__1::__tree_node_base"* %63, null
  br i1 %64, label %65, label %69

65:                                               ; preds = %61
  %66 = getelementptr inbounds %"class.std::__1::__tree_node", %"class.std::__1::__tree_node"* %48, i64 0, i32 0, i32 0
  br label %75

67:                                               ; preds = %59
  %68 = getelementptr inbounds %"class.std::__1::__tree_node", %"class.std::__1::__tree_node"* %48, i64 0, i32 0, i32 0
  br label %75

69:                                               ; preds = %61, %53
  %70 = phi %"class.std::__1::__tree_node_base"* [ %55, %53 ], [ %63, %61 ]
  %71 = phi %"class.std::__1::__tree_node_base"** [ %54, %53 ], [ %62, %61 ]
  %72 = bitcast %"class.std::__1::__tree_node_base"* %70 to %"class.std::__1::__tree_node"*
  br label %47

73:                                               ; preds = %34
  %74 = getelementptr inbounds %"class.std::__1::__tree_end_node", %"class.std::__1::__tree_end_node"* %6, i64 0, i32 0
  br label %75

75:                                               ; preds = %73, %67, %65, %57
  %76 = phi %"class.std::__1::__tree_end_node"* [ %6, %73 ], [ %58, %57 ], [ %66, %65 ], [ %68, %67 ]
  %77 = phi %"class.std::__1::__tree_node_base"** [ %74, %73 ], [ %54, %57 ], [ %62, %65 ], [ %49, %67 ]
  %78 = bitcast %"class.std::__1::__tree_node_base"** %77 to %"class.std::__1::__tree_node"**
  %79 = load %"class.std::__1::__tree_node"*, %"class.std::__1::__tree_node"** %78, align 8
  %80 = icmp eq %"class.std::__1::__tree_node"* %79, null
  br i1 %80, label %81, label %107

81:                                               ; preds = %75
  %82 = call i8* @_Znwm(i64 56) #13, !noalias !2
  %83 = getelementptr inbounds i8, i8* %82, i64 32
  %84 = bitcast i8* %83 to i64*
  store i64 %5, i64* %84, align 8, !noalias !2
  %85 = getelementptr inbounds i8, i8* %82, i64 40
  call void @llvm.memset.p0i8.i64(i8* align 8 %85, i8 0, i64 16, i1 false) #12, !noalias !2
  %86 = bitcast i8* %82 to %"class.std::__1::__tree_node"*
  %87 = bitcast i8* %82 to %"class.std::__1::__tree_node_base"*
  %88 = getelementptr inbounds i8, i8* %82, i64 16
  %89 = bitcast i8* %88 to %"class.std::__1::__tree_end_node"**
  call void @llvm.memset.p0i8.i64(i8* nonnull align 8 %82, i8 0, i64 16, i1 false) #12
  store %"class.std::__1::__tree_end_node"* %76, %"class.std::__1::__tree_end_node"** %89, align 8
  %90 = bitcast %"class.std::__1::__tree_node_base"** %77 to i8**
  store i8* %82, i8** %90, align 8
  %91 = getelementptr inbounds %"class.std::__1::map.4", %"class.std::__1::map.4"* %42, i64 0, i32 0, i32 0
  %92 = load %"class.std::__1::__tree_end_node"*, %"class.std::__1::__tree_end_node"** %91, align 8
  %93 = getelementptr inbounds %"class.std::__1::__tree_end_node", %"class.std::__1::__tree_end_node"* %92, i64 0, i32 0
  %94 = load %"class.std::__1::__tree_node_base"*, %"class.std::__1::__tree_node_base"** %93, align 8
  %95 = icmp eq %"class.std::__1::__tree_node_base"* %94, null
  br i1 %95, label %100, label %96

96:                                               ; preds = %81
  %97 = ptrtoint %"class.std::__1::__tree_node_base"* %94 to i64
  %98 = bitcast %"class.std::__1::map.4"* %42 to i64*
  store i64 %97, i64* %98, align 8
  %99 = load %"class.std::__1::__tree_node_base"*, %"class.std::__1::__tree_node_base"** %77, align 8
  br label %100

100:                                              ; preds = %96, %81
  %101 = phi %"class.std::__1::__tree_node_base"* [ %87, %81 ], [ %99, %96 ]
  %102 = getelementptr inbounds %"class.printing::BackgroundPrintingManager", %"class.printing::BackgroundPrintingManager"* %0, i64 0, i32 1, i32 0, i32 1, i32 0, i32 0, i32 0
  %103 = load %"class.std::__1::__tree_node_base"*, %"class.std::__1::__tree_node_base"** %102, align 8
  call void @_ZNSt3__127__tree_balance_after_insertIPNS_16__tree_node_baseIPvEEEEvT_S5_(%"class.std::__1::__tree_node_base"* %103, %"class.std::__1::__tree_node_base"* %101) #12
  %104 = getelementptr inbounds %"class.printing::BackgroundPrintingManager", %"class.printing::BackgroundPrintingManager"* %0, i64 0, i32 1, i32 0, i32 2, i32 0, i32 0
  %105 = load i64, i64* %104, align 8
  %106 = add i64 %105, 1
  store i64 %106, i64* %104, align 8
  br label %107

107:                                              ; preds = %75, %100
  %108 = phi %"class.std::__1::__tree_node"* [ %86, %100 ], [ %79, %75 ]
  %109 = getelementptr inbounds %"class.std::__1::__tree_node", %"class.std::__1::__tree_node"* %108, i64 0, i32 1, i32 0, i32 1
  %110 = getelementptr inbounds %"struct.printing::BackgroundPrintingManager::PrintingContents", %"struct.printing::BackgroundPrintingManager::PrintingContents"* %109, i64 0, i32 0, i32 0, i32 0, i32 0
  %111 = load %"class.content::WebContents"*, %"class.content::WebContents"** %110, align 8
  %112 = bitcast %"struct.printing::BackgroundPrintingManager::PrintingContents"* %109 to i64*
  store i64 %5, i64* %112, align 8
  %113 = icmp eq %"class.content::WebContents"* %111, null
  br i1 %113, label %119, label %114

114:                                              ; preds = %107
  %115 = bitcast %"class.content::WebContents"* %111 to void (%"class.content::WebContents"*)***
  %116 = load void (%"class.content::WebContents"*)**, void (%"class.content::WebContents"*)*** %115, align 8
  %117 = getelementptr inbounds void (%"class.content::WebContents"*)*, void (%"class.content::WebContents"*)** %116, i64 1
  %118 = load void (%"class.content::WebContents"*)*, void (%"class.content::WebContents"*)** %117, align 8
  call void %118(%"class.content::WebContents"* nonnull %111) #12
  br label %119

119:                                              ; preds = %114, %107
  %120 = getelementptr inbounds %"class.std::__1::__tree_node", %"class.std::__1::__tree_node"* %108, i64 0, i32 1, i32 0, i32 1, i32 1
  %121 = getelementptr inbounds %"class.std::__1::unique_ptr.28", %"class.std::__1::unique_ptr.28"* %120, i64 0, i32 0, i32 0, i32 0
  %122 = load %"class.printing::BackgroundPrintingManager::Observer"*, %"class.printing::BackgroundPrintingManager::Observer"** %121, align 8
  %123 = bitcast %"class.std::__1::unique_ptr.28"* %120 to i64*
  store i64 %41, i64* %123, align 8
  %124 = icmp eq %"class.printing::BackgroundPrintingManager::Observer"* %122, null
  br i1 %124, label %130, label %125

125:                                              ; preds = %119
  %126 = bitcast %"class.printing::BackgroundPrintingManager::Observer"* %122 to void (%"class.printing::BackgroundPrintingManager::Observer"*)***
  %127 = load void (%"class.printing::BackgroundPrintingManager::Observer"*)**, void (%"class.printing::BackgroundPrintingManager::Observer"*)*** %126, align 8
  %128 = getelementptr inbounds void (%"class.printing::BackgroundPrintingManager::Observer"*)*, void (%"class.printing::BackgroundPrintingManager::Observer"*)** %127, i64 8
  %129 = load void (%"class.printing::BackgroundPrintingManager::Observer"*)*, void (%"class.printing::BackgroundPrintingManager::Observer"*)** %128, align 8
  call void %129(%"class.printing::BackgroundPrintingManager::Observer"* nonnull %122) #12
  br label %130

130:                                              ; preds = %119, %125
  %131 = getelementptr inbounds %"class.printing::BackgroundPrintingManager", %"class.printing::BackgroundPrintingManager"* %0, i64 0, i32 2
  %132 = getelementptr inbounds %"class.printing::BackgroundPrintingManager", %"class.printing::BackgroundPrintingManager"* %0, i64 0, i32 0
  %133 = bitcast %"class.content::Source"* %4 to i8*
  call void @llvm.lifetime.start.p0i8(i64 8, i8* nonnull %133) #12
  %134 = bitcast %"class.content::Source"* %4 to %"class.content::WebContents"**
  store %"class.content::WebContents"* %1, %"class.content::WebContents"** %134, align 8
  %135 = getelementptr inbounds %"class.content::Source", %"class.content::Source"* %4, i64 0, i32 0
  call void @_ZN7content21NotificationRegistrar3AddEPNS_20NotificationObserverEiRKNS_18NotificationSourceE(%"class.content::NotificationRegistrar"* %131, %"class.content::NotificationObserver"* %132, i32 37, %"class.content::NotificationSource"* nonnull dereferenceable(8) %135) #12
  call void @llvm.lifetime.end.p0i8(i64 8, i8* nonnull %133) #12
  %136 = call %"class.printing::PrintPreviewDialogController"* @_ZN8printing28PrintPreviewDialogController11GetInstanceEv() #12
  %137 = icmp eq %"class.printing::PrintPreviewDialogController"* %136, null
  br i1 %137, label %151, label %138

138:                                              ; preds = %130
  %139 = call %"class.content::WebContents"* @_ZN8printing28PrintPreviewDialogController12GetInitiatorEPN7content11WebContentsE(%"class.printing::PrintPreviewDialogController"* nonnull %136, %"class.content::WebContents"* %1) #12
  %140 = icmp eq %"class.content::WebContents"* %139, null
  br i1 %140, label %151, label %141

141:                                              ; preds = %138
  %142 = bitcast %"class.content::WebContents"* %139 to %"class.content::WebContentsDelegate"* (%"class.content::WebContents"*)***
  %143 = load %"class.content::WebContentsDelegate"* (%"class.content::WebContents"*)**, %"class.content::WebContentsDelegate"* (%"class.content::WebContents"*)*** %142, align 8
  %144 = getelementptr inbounds %"class.content::WebContentsDelegate"* (%"class.content::WebContents"*)*, %"class.content::WebContentsDelegate"* (%"class.content::WebContents"*)** %143, i64 3
  %145 = load %"class.content::WebContentsDelegate"* (%"class.content::WebContents"*)*, %"class.content::WebContentsDelegate"* (%"class.content::WebContents"*)** %144, align 8
  %146 = call %"class.content::WebContentsDelegate"* %145(%"class.content::WebContents"* nonnull %139) #12
  %147 = bitcast %"class.content::WebContentsDelegate"* %146 to void (%"class.content::WebContentsDelegate"*, %"class.content::WebContents"*)***
  %148 = load void (%"class.content::WebContentsDelegate"*, %"class.content::WebContents"*)**, void (%"class.content::WebContentsDelegate"*, %"class.content::WebContents"*)*** %147, align 8
  %149 = getelementptr inbounds void (%"class.content::WebContentsDelegate"*, %"class.content::WebContents"*)*, void (%"class.content::WebContentsDelegate"*, %"class.content::WebContents"*)** %148, i64 5
  %150 = load void (%"class.content::WebContentsDelegate"*, %"class.content::WebContents"*)*, void (%"class.content::WebContentsDelegate"*, %"class.content::WebContents"*)** %149, align 8
  call void %150(%"class.content::WebContentsDelegate"* %146, %"class.content::WebContents"* nonnull %139) #12
  br label %151

151:                                              ; preds = %130, %138, %141
  ret void
}

; Function Attrs: norecurse nounwind readonly ssp uwtable
define hidden zeroext i1 @_ZN8printing25BackgroundPrintingManager21HasPrintPreviewDialogEPN7content11WebContentsE(%"class.printing::BackgroundPrintingManager"* readonly, %"class.content::WebContents"*) local_unnamed_addr #4 align 2 {
  %3 = getelementptr inbounds %"class.printing::BackgroundPrintingManager", %"class.printing::BackgroundPrintingManager"* %0, i64 0, i32 1, i32 0, i32 1, i32 0, i32 0
  %4 = bitcast %"class.std::__1::__tree_end_node"* %3 to %"class.std::__1::__tree_node"**
  %5 = load %"class.std::__1::__tree_node"*, %"class.std::__1::__tree_node"** %4, align 8
  %6 = icmp eq %"class.std::__1::__tree_node"* %5, null
  br i1 %6, label %28, label %7

7:                                                ; preds = %2, %7
  %8 = phi %"class.std::__1::__tree_end_node"* [ %18, %7 ], [ %3, %2 ]
  %9 = phi %"class.std::__1::__tree_node"* [ %19, %7 ], [ %5, %2 ]
  %10 = getelementptr inbounds %"class.std::__1::__tree_node", %"class.std::__1::__tree_node"* %9, i64 0, i32 1, i32 0, i32 0
  %11 = load %"class.content::WebContents"*, %"class.content::WebContents"** %10, align 8
  %12 = icmp ult %"class.content::WebContents"* %11, %1
  %13 = getelementptr inbounds %"class.std::__1::__tree_node", %"class.std::__1::__tree_node"* %9, i64 0, i32 0, i32 1
  %14 = bitcast %"class.std::__1::__tree_node_base"** %13 to %"class.std::__1::__tree_node"**
  %15 = getelementptr inbounds %"class.std::__1::__tree_node", %"class.std::__1::__tree_node"* %9, i64 0, i32 0, i32 0
  %16 = bitcast %"class.std::__1::__tree_node"* %9 to %"class.std::__1::__tree_node"**
  %17 = select i1 %12, %"class.std::__1::__tree_node"** %14, %"class.std::__1::__tree_node"** %16
  %18 = select i1 %12, %"class.std::__1::__tree_end_node"* %8, %"class.std::__1::__tree_end_node"* %15
  %19 = load %"class.std::__1::__tree_node"*, %"class.std::__1::__tree_node"** %17, align 8
  %20 = icmp eq %"class.std::__1::__tree_node"* %19, null
  br i1 %20, label %21, label %7

21:                                               ; preds = %7
  %22 = icmp eq %"class.std::__1::__tree_end_node"* %18, %3
  br i1 %22, label %28, label %23

23:                                               ; preds = %21
  %24 = getelementptr inbounds %"class.std::__1::__tree_end_node", %"class.std::__1::__tree_end_node"* %18, i64 4
  %25 = bitcast %"class.std::__1::__tree_end_node"* %24 to %"class.content::WebContents"**
  %26 = load %"class.content::WebContents"*, %"class.content::WebContents"** %25, align 8
  %27 = icmp ugt %"class.content::WebContents"* %26, %1
  br i1 %27, label %28, label %29

28:                                               ; preds = %23, %21, %2
  br label %29

29:                                               ; preds = %23, %28
  %30 = phi %"class.std::__1::__tree_end_node"* [ %3, %28 ], [ %18, %23 ]
  %31 = icmp ne %"class.std::__1::__tree_end_node"* %30, %3
  ret i1 %31
}

; Function Attrs: argmemonly nounwind
declare void @llvm.lifetime.start.p0i8(i64 immarg, i8* nocapture) #5

declare void @_ZN7logging10CheckError5CheckEPKciS2_(%"class.logging::CheckError"* sret, i8*, i32, i8*) local_unnamed_addr #1

declare dereferenceable(160) %"class.std::__1::basic_ostream"* @_ZN7logging10CheckError6streamEv(%"class.logging::CheckError"*) local_unnamed_addr #1

; Function Attrs: nounwind
declare void @_ZN7logging10CheckErrorD1Ev(%"class.logging::CheckError"*) unnamed_addr #2

; Function Attrs: argmemonly nounwind
declare void @llvm.lifetime.end.p0i8(i64 immarg, i8* nocapture) #5

; Function Attrs: nounwind ssp uwtable
define hidden dereferenceable(16) %"struct.printing::BackgroundPrintingManager::PrintingContents"* @_ZN8printing25BackgroundPrintingManager16PrintingContentsaSEOS1_(%"struct.printing::BackgroundPrintingManager::PrintingContents"* returned, %"struct.printing::BackgroundPrintingManager::PrintingContents"* nocapture dereferenceable(16)) local_unnamed_addr #0 align 2 {
  %3 = getelementptr inbounds %"struct.printing::BackgroundPrintingManager::PrintingContents", %"struct.printing::BackgroundPrintingManager::PrintingContents"* %1, i64 0, i32 0, i32 0, i32 0, i32 0
  %4 = bitcast %"struct.printing::BackgroundPrintingManager::PrintingContents"* %1 to i64*
  %5 = load i64, i64* %4, align 8
  store %"class.content::WebContents"* null, %"class.content::WebContents"** %3, align 8
  %6 = getelementptr inbounds %"struct.printing::BackgroundPrintingManager::PrintingContents", %"struct.printing::BackgroundPrintingManager::PrintingContents"* %0, i64 0, i32 0, i32 0, i32 0, i32 0
  %7 = load %"class.content::WebContents"*, %"class.content::WebContents"** %6, align 8
  %8 = bitcast %"struct.printing::BackgroundPrintingManager::PrintingContents"* %0 to i64*
  store i64 %5, i64* %8, align 8
  %9 = icmp eq %"class.content::WebContents"* %7, null
  br i1 %9, label %15, label %10

10:                                               ; preds = %2
  %11 = bitcast %"class.content::WebContents"* %7 to void (%"class.content::WebContents"*)***
  %12 = load void (%"class.content::WebContents"*)**, void (%"class.content::WebContents"*)*** %11, align 8
  %13 = getelementptr inbounds void (%"class.content::WebContents"*)*, void (%"class.content::WebContents"*)** %12, i64 1
  %14 = load void (%"class.content::WebContents"*)*, void (%"class.content::WebContents"*)** %13, align 8
  tail call void %14(%"class.content::WebContents"* nonnull %7) #12
  br label %15

15:                                               ; preds = %2, %10
  %16 = getelementptr inbounds %"struct.printing::BackgroundPrintingManager::PrintingContents", %"struct.printing::BackgroundPrintingManager::PrintingContents"* %0, i64 0, i32 1
  %17 = getelementptr inbounds %"struct.printing::BackgroundPrintingManager::PrintingContents", %"struct.printing::BackgroundPrintingManager::PrintingContents"* %1, i64 0, i32 1
  %18 = getelementptr inbounds %"class.std::__1::unique_ptr.28", %"class.std::__1::unique_ptr.28"* %17, i64 0, i32 0, i32 0, i32 0
  %19 = bitcast %"class.std::__1::unique_ptr.28"* %17 to i64*
  %20 = load i64, i64* %19, align 8
  store %"class.printing::BackgroundPrintingManager::Observer"* null, %"class.printing::BackgroundPrintingManager::Observer"** %18, align 8
  %21 = getelementptr inbounds %"class.std::__1::unique_ptr.28", %"class.std::__1::unique_ptr.28"* %16, i64 0, i32 0, i32 0, i32 0
  %22 = load %"class.printing::BackgroundPrintingManager::Observer"*, %"class.printing::BackgroundPrintingManager::Observer"** %21, align 8
  %23 = bitcast %"class.std::__1::unique_ptr.28"* %16 to i64*
  store i64 %20, i64* %23, align 8
  %24 = icmp eq %"class.printing::BackgroundPrintingManager::Observer"* %22, null
  br i1 %24, label %30, label %25

25:                                               ; preds = %15
  %26 = bitcast %"class.printing::BackgroundPrintingManager::Observer"* %22 to void (%"class.printing::BackgroundPrintingManager::Observer"*)***
  %27 = load void (%"class.printing::BackgroundPrintingManager::Observer"*)**, void (%"class.printing::BackgroundPrintingManager::Observer"*)*** %26, align 8
  %28 = getelementptr inbounds void (%"class.printing::BackgroundPrintingManager::Observer"*)*, void (%"class.printing::BackgroundPrintingManager::Observer"*)** %27, i64 8
  %29 = load void (%"class.printing::BackgroundPrintingManager::Observer"*)*, void (%"class.printing::BackgroundPrintingManager::Observer"*)** %28, align 8
  tail call void %29(%"class.printing::BackgroundPrintingManager::Observer"* nonnull %22) #12
  br label %30

30:                                               ; preds = %15, %25
  ret %"struct.printing::BackgroundPrintingManager::PrintingContents"* %0
}

declare void @_ZN7content21NotificationRegistrar3AddEPNS_20NotificationObserverEiRKNS_18NotificationSourceE(%"class.content::NotificationRegistrar"*, %"class.content::NotificationObserver"*, i32, %"class.content::NotificationSource"* dereferenceable(8)) local_unnamed_addr #1

declare %"class.printing::PrintPreviewDialogController"* @_ZN8printing28PrintPreviewDialogController11GetInstanceEv() local_unnamed_addr #1

declare %"class.content::WebContents"* @_ZN8printing28PrintPreviewDialogController12GetInitiatorEPN7content11WebContentsE(%"class.printing::PrintPreviewDialogController"*, %"class.content::WebContents"*) local_unnamed_addr #1

; Function Attrs: nounwind ssp uwtable
define hidden void @_ZN8printing25BackgroundPrintingManager7ObserveEiRKN7content18NotificationSourceERKNS1_19NotificationDetailsE(%"class.printing::BackgroundPrintingManager"*, i32, %"class.content::NotificationSource"* nocapture readonly dereferenceable(8), %"class.content::NotificationDetails"* nocapture readnone dereferenceable(8)) unnamed_addr #0 align 2 {
  %5 = bitcast %"class.content::NotificationSource"* %2 to %"class.content::WebContents"**
  %6 = load %"class.content::WebContents"*, %"class.content::WebContents"** %5, align 8
  tail call void @_ZN8printing25BackgroundPrintingManager21DeletePreviewContentsEPN7content11WebContentsE(%"class.printing::BackgroundPrintingManager"* %0, %"class.content::WebContents"* %6)
  ret void
}

; Function Attrs: nounwind ssp uwtable
define hidden void @_ZN8printing25BackgroundPrintingManager38DeletePreviewContentsForBrowserContextEPN7content14BrowserContextE(%"class.printing::BackgroundPrintingManager"*, %"class.content::BrowserContext"* readnone) local_unnamed_addr #0 align 2 {
  %3 = alloca %"class.std::__1::vector.57", align 8
  %4 = bitcast %"class.std::__1::vector.57"* %3 to i8*
  call void @llvm.lifetime.start.p0i8(i64 24, i8* nonnull %4) #12
  %5 = getelementptr inbounds %"class.std::__1::vector.57", %"class.std::__1::vector.57"* %3, i64 0, i32 0, i32 2, i32 0, i32 0
  call void @llvm.memset.p0i8.i64(i8* nonnull align 8 %4, i8 0, i64 24, i1 false) #12
  %6 = getelementptr inbounds %"class.printing::BackgroundPrintingManager", %"class.printing::BackgroundPrintingManager"* %0, i64 0, i32 1, i32 0, i32 0
  %7 = load %"class.std::__1::__tree_end_node"*, %"class.std::__1::__tree_end_node"** %6, align 8
  %8 = getelementptr inbounds %"class.printing::BackgroundPrintingManager", %"class.printing::BackgroundPrintingManager"* %0, i64 0, i32 1, i32 0, i32 1, i32 0, i32 0
  %9 = icmp eq %"class.std::__1::__tree_end_node"* %7, %8
  br i1 %9, label %127, label %10

10:                                               ; preds = %2
  %11 = getelementptr inbounds %"class.std::__1::vector.57", %"class.std::__1::vector.57"* %3, i64 0, i32 0, i32 1
  %12 = bitcast %"class.content::WebContents"*** %11 to i64*
  %13 = bitcast %"class.std::__1::vector.57"* %3 to i64*
  %14 = bitcast %"class.content::WebContents"*** %5 to i64*
  br label %21

15:                                               ; preds = %120
  %16 = icmp eq i64 %91, %90
  br i1 %16, label %123, label %17

17:                                               ; preds = %15
  %18 = inttoptr i64 %90 to %"class.content::WebContents"**
  %19 = sub i64 %91, %90
  %20 = ashr exact i64 %19, 3
  br label %128

21:                                               ; preds = %10, %120
  %22 = phi i64 [ 0, %10 ], [ %90, %120 ]
  %23 = phi i64 [ 0, %10 ], [ %91, %120 ]
  %24 = phi %"class.content::WebContents"** [ null, %10 ], [ %92, %120 ]
  %25 = phi %"class.std::__1::__tree_end_node"* [ %7, %10 ], [ %121, %120 ]
  %26 = getelementptr inbounds %"class.std::__1::__tree_end_node", %"class.std::__1::__tree_end_node"* %25, i64 4
  %27 = bitcast %"class.std::__1::__tree_end_node"* %26 to %"class.content::WebContents"**
  %28 = load %"class.content::WebContents"*, %"class.content::WebContents"** %27, align 8
  %29 = ptrtoint %"class.content::WebContents"* %28 to i64
  %30 = bitcast %"class.content::WebContents"* %28 to %"class.content::BrowserContext"* (%"class.content::WebContents"*)***
  %31 = load %"class.content::BrowserContext"* (%"class.content::WebContents"*)**, %"class.content::BrowserContext"* (%"class.content::WebContents"*)*** %30, align 8
  %32 = getelementptr inbounds %"class.content::BrowserContext"* (%"class.content::WebContents"*)*, %"class.content::BrowserContext"* (%"class.content::WebContents"*)** %31, i64 6
  %33 = load %"class.content::BrowserContext"* (%"class.content::WebContents"*)*, %"class.content::BrowserContext"* (%"class.content::WebContents"*)** %32, align 8
  %34 = tail call %"class.content::BrowserContext"* %33(%"class.content::WebContents"* %28) #12
  %35 = icmp eq %"class.content::BrowserContext"* %34, %1
  br i1 %35, label %36, label %89

36:                                               ; preds = %21
  %37 = load %"class.content::WebContents"**, %"class.content::WebContents"*** %5, align 8
  %38 = icmp eq %"class.content::WebContents"** %24, %37
  br i1 %38, label %43, label %39

39:                                               ; preds = %36
  %40 = bitcast %"class.content::WebContents"** %24 to i64*
  store i64 %29, i64* %40, align 8
  %41 = getelementptr inbounds %"class.content::WebContents"*, %"class.content::WebContents"** %24, i64 1
  %42 = ptrtoint %"class.content::WebContents"** %41 to i64
  store i64 %42, i64* %12, align 8
  br label %89

43:                                               ; preds = %36
  %44 = ptrtoint %"class.content::WebContents"** %37 to i64
  %45 = load i64, i64* %13, align 8
  %46 = sub i64 %44, %45
  %47 = ashr exact i64 %46, 3
  %48 = add nsw i64 %47, 1
  %49 = icmp ugt i64 %48, 2305843009213693951
  br i1 %49, label %50, label %52

50:                                               ; preds = %43
  %51 = bitcast %"class.std::__1::vector.57"* %3 to %"class.std::__1::__vector_base_common"*
  call void @_ZNKSt3__120__vector_base_commonILb1EE20__throw_length_errorEv(%"class.std::__1::__vector_base_common"* nonnull %51) #14
  unreachable

52:                                               ; preds = %43
  %53 = icmp ult i64 %47, 1152921504606846975
  br i1 %53, label %54, label %62

54:                                               ; preds = %52
  %55 = ashr exact i64 %46, 2
  %56 = icmp ult i64 %55, %48
  %57 = select i1 %56, i64 %48, i64 %55
  %58 = icmp eq i64 %57, 0
  br i1 %58, label %67, label %59

59:                                               ; preds = %54
  %60 = icmp ugt i64 %57, 2305843009213693951
  br i1 %60, label %61, label %62

61:                                               ; preds = %59
  tail call void @abort() #14
  unreachable

62:                                               ; preds = %59, %52
  %63 = phi i64 [ %57, %59 ], [ 2305843009213693951, %52 ]
  %64 = shl i64 %63, 3
  %65 = tail call i8* @_Znwm(i64 %64) #13
  %66 = bitcast i8* %65 to %"class.content::WebContents"**
  br label %67

67:                                               ; preds = %62, %54
  %68 = phi i64 [ %63, %62 ], [ 0, %54 ]
  %69 = phi %"class.content::WebContents"** [ %66, %62 ], [ null, %54 ]
  %70 = getelementptr inbounds %"class.content::WebContents"*, %"class.content::WebContents"** %69, i64 %47
  %71 = getelementptr inbounds %"class.content::WebContents"*, %"class.content::WebContents"** %69, i64 %68
  %72 = ptrtoint %"class.content::WebContents"** %71 to i64
  %73 = bitcast %"class.content::WebContents"** %70 to i64*
  store i64 %29, i64* %73, align 8
  %74 = getelementptr inbounds %"class.content::WebContents"*, %"class.content::WebContents"** %70, i64 1
  %75 = ptrtoint %"class.content::WebContents"** %74 to i64
  %76 = sub i64 %23, %45
  %77 = ashr exact i64 %76, 3
  %78 = sub nsw i64 0, %77
  %79 = getelementptr inbounds %"class.content::WebContents"*, %"class.content::WebContents"** %70, i64 %78
  %80 = ptrtoint %"class.content::WebContents"** %79 to i64
  %81 = icmp sgt i64 %76, 0
  br i1 %81, label %82, label %85

82:                                               ; preds = %67
  %83 = bitcast %"class.content::WebContents"** %79 to i8*
  %84 = inttoptr i64 %45 to i8*
  tail call void @llvm.memcpy.p0i8.p0i8.i64(i8* align 8 %83, i8* align 8 %84, i64 %76, i1 false) #12
  br label %85

85:                                               ; preds = %82, %67
  store i64 %80, i64* %13, align 8
  store i64 %75, i64* %12, align 8
  store i64 %72, i64* %14, align 8
  %86 = icmp eq i64 %45, 0
  br i1 %86, label %89, label %87

87:                                               ; preds = %85
  %88 = inttoptr i64 %45 to i8*
  tail call void @_ZdlPv(i8* %88) #13
  br label %89

89:                                               ; preds = %87, %85, %39, %21
  %90 = phi i64 [ %80, %87 ], [ %80, %85 ], [ %22, %39 ], [ %22, %21 ]
  %91 = phi i64 [ %75, %87 ], [ %75, %85 ], [ %42, %39 ], [ %23, %21 ]
  %92 = phi %"class.content::WebContents"** [ %74, %87 ], [ %74, %85 ], [ %41, %39 ], [ %24, %21 ]
  %93 = getelementptr inbounds %"class.std::__1::__tree_end_node", %"class.std::__1::__tree_end_node"* %25, i64 1, i32 0
  %94 = load %"class.std::__1::__tree_node_base"*, %"class.std::__1::__tree_node_base"** %93, align 8
  %95 = icmp eq %"class.std::__1::__tree_node_base"* %94, null
  br i1 %95, label %96, label %104

96:                                               ; preds = %89
  %97 = bitcast %"class.std::__1::__tree_end_node"* %25 to %"class.std::__1::__tree_node_base"*
  %98 = getelementptr inbounds %"class.std::__1::__tree_end_node", %"class.std::__1::__tree_end_node"* %25, i64 2
  %99 = bitcast %"class.std::__1::__tree_end_node"* %98 to %"class.std::__1::__tree_end_node"**
  %100 = load %"class.std::__1::__tree_end_node"*, %"class.std::__1::__tree_end_node"** %99, align 8
  %101 = getelementptr inbounds %"class.std::__1::__tree_end_node", %"class.std::__1::__tree_end_node"* %100, i64 0, i32 0
  %102 = load %"class.std::__1::__tree_node_base"*, %"class.std::__1::__tree_node_base"** %101, align 8
  %103 = icmp eq %"class.std::__1::__tree_node_base"* %102, %97
  br i1 %103, label %120, label %111

104:                                              ; preds = %89, %104
  %105 = phi %"class.std::__1::__tree_node_base"* [ %107, %104 ], [ %94, %89 ]
  %106 = getelementptr inbounds %"class.std::__1::__tree_node_base", %"class.std::__1::__tree_node_base"* %105, i64 0, i32 0, i32 0
  %107 = load %"class.std::__1::__tree_node_base"*, %"class.std::__1::__tree_node_base"** %106, align 8
  %108 = icmp eq %"class.std::__1::__tree_node_base"* %107, null
  br i1 %108, label %109, label %104

109:                                              ; preds = %104
  %110 = getelementptr inbounds %"class.std::__1::__tree_node_base", %"class.std::__1::__tree_node_base"* %105, i64 0, i32 0
  br label %120

111:                                              ; preds = %96, %111
  %112 = phi %"class.std::__1::__tree_end_node"** [ %115, %111 ], [ %99, %96 ]
  %113 = bitcast %"class.std::__1::__tree_end_node"** %112 to %"class.std::__1::__tree_node_base"**
  %114 = load %"class.std::__1::__tree_node_base"*, %"class.std::__1::__tree_node_base"** %113, align 8
  %115 = getelementptr inbounds %"class.std::__1::__tree_node_base", %"class.std::__1::__tree_node_base"* %114, i64 0, i32 2
  %116 = load %"class.std::__1::__tree_end_node"*, %"class.std::__1::__tree_end_node"** %115, align 8
  %117 = getelementptr inbounds %"class.std::__1::__tree_end_node", %"class.std::__1::__tree_end_node"* %116, i64 0, i32 0
  %118 = load %"class.std::__1::__tree_node_base"*, %"class.std::__1::__tree_node_base"** %117, align 8
  %119 = icmp eq %"class.std::__1::__tree_node_base"* %118, %114
  br i1 %119, label %120, label %111

120:                                              ; preds = %111, %96, %109
  %121 = phi %"class.std::__1::__tree_end_node"* [ %110, %109 ], [ %100, %96 ], [ %116, %111 ]
  %122 = icmp eq %"class.std::__1::__tree_end_node"* %121, %8
  br i1 %122, label %15, label %21

123:                                              ; preds = %128, %15
  %124 = icmp eq i64 %90, 0
  br i1 %124, label %127, label %125

125:                                              ; preds = %123
  store i64 %90, i64* %12, align 8
  %126 = inttoptr i64 %90 to i8*
  tail call void @_ZdlPv(i8* %126) #13
  br label %127

127:                                              ; preds = %2, %123, %125
  call void @llvm.lifetime.end.p0i8(i64 24, i8* nonnull %4) #12
  ret void

128:                                              ; preds = %17, %128
  %129 = phi i64 [ %132, %128 ], [ 0, %17 ]
  %130 = getelementptr inbounds %"class.content::WebContents"*, %"class.content::WebContents"** %18, i64 %129
  %131 = load %"class.content::WebContents"*, %"class.content::WebContents"** %130, align 8
  tail call void @_ZN8printing25BackgroundPrintingManager21DeletePreviewContentsEPN7content11WebContentsE(%"class.printing::BackgroundPrintingManager"* %0, %"class.content::WebContents"* %131)
  %132 = add nuw i64 %129, 1
  %133 = icmp ult i64 %132, %20
  br i1 %133, label %128, label %123
}

; Function Attrs: nounwind ssp uwtable
define hidden void @_ZN8printing25BackgroundPrintingManager23OnPrintRequestCancelledEPN7content11WebContentsE(%"class.printing::BackgroundPrintingManager"*, %"class.content::WebContents"*) local_unnamed_addr #0 align 2 {
  tail call void @_ZN8printing25BackgroundPrintingManager21DeletePreviewContentsEPN7content11WebContentsE(%"class.printing::BackgroundPrintingManager"* %0, %"class.content::WebContents"* %1)
  ret void
}

declare void @_ZN7content21NotificationRegistrar6RemoveEPNS_20NotificationObserverEiRKNS_18NotificationSourceE(%"class.content::NotificationRegistrar"*, %"class.content::NotificationObserver"*, i32, %"class.content::NotificationSource"* dereferenceable(8)) local_unnamed_addr #1

; Function Attrs: argmemonly nounwind
declare void @llvm.memcpy.p0i8.p0i8.i64(i8* nocapture writeonly, i8* nocapture readonly, i64, i1 immarg) #5

declare dereferenceable(8) %class.scoped_refptr* @_ZN4base22ThreadTaskRunnerHandle3GetEv() local_unnamed_addr #1

declare void @_ZN4base8Location7CurrentEPKcS2_i(%"class.base::Location"* sret, i8*, i8*, i32) local_unnamed_addr #1

; Function Attrs: nounwind ssp uwtable
define hidden void @_ZN8printing25BackgroundPrintingManager17CurrentContentSetEv(%"class.std::__1::set"* noalias sret, %"class.printing::BackgroundPrintingManager"*) local_unnamed_addr #0 align 2 {
  %3 = getelementptr inbounds %"class.std::__1::set", %"class.std::__1::set"* %0, i64 0, i32 0, i32 0
  %4 = getelementptr inbounds %"class.std::__1::set", %"class.std::__1::set"* %0, i64 0, i32 0, i32 1, i32 0, i32 0, i32 0
  %5 = getelementptr inbounds %"class.std::__1::set", %"class.std::__1::set"* %0, i64 0, i32 0, i32 2, i32 0, i32 0
  %6 = getelementptr inbounds %"class.std::__1::set", %"class.std::__1::set"* %0, i64 0, i32 0, i32 1, i32 0, i32 0
  %7 = bitcast %"class.std::__1::__tree_node_base"** %4 to i8*
  tail call void @llvm.memset.p0i8.i64(i8* align 8 %7, i8 0, i64 16, i1 false) #12
  store %"class.std::__1::__tree_end_node"* %6, %"class.std::__1::__tree_end_node"** %3, align 8
  %8 = getelementptr inbounds %"class.printing::BackgroundPrintingManager", %"class.printing::BackgroundPrintingManager"* %1, i64 0, i32 1, i32 0, i32 0
  %9 = load %"class.std::__1::__tree_end_node"*, %"class.std::__1::__tree_end_node"** %8, align 8
  %10 = getelementptr inbounds %"class.printing::BackgroundPrintingManager", %"class.printing::BackgroundPrintingManager"* %1, i64 0, i32 1, i32 0, i32 1, i32 0, i32 0
  %11 = icmp eq %"class.std::__1::__tree_end_node"* %9, %10
  br i1 %11, label %16, label %12

12:                                               ; preds = %2
  %13 = bitcast %"class.std::__1::__tree_end_node"* %6 to %"class.std::__1::__tree_node.123"**
  %14 = getelementptr inbounds %"class.std::__1::__tree_end_node", %"class.std::__1::__tree_end_node"* %6, i64 0, i32 0
  %15 = bitcast %"class.std::__1::set"* %0 to i64*
  br label %17

16:                                               ; preds = %107, %2
  ret void

17:                                               ; preds = %110, %12
  %18 = phi %"class.std::__1::__tree_node.123"* [ null, %12 ], [ %111, %110 ]
  %19 = phi %"class.std::__1::__tree_end_node"* [ %9, %12 ], [ %108, %110 ]
  %20 = getelementptr inbounds %"class.std::__1::__tree_end_node", %"class.std::__1::__tree_end_node"* %19, i64 4
  %21 = icmp eq %"class.std::__1::__tree_node.123"* %18, null
  br i1 %21, label %51, label %22

22:                                               ; preds = %17
  %23 = bitcast %"class.std::__1::__tree_end_node"* %20 to %"class.content::WebContents"**
  %24 = load %"class.content::WebContents"*, %"class.content::WebContents"** %23, align 8
  br label %25

25:                                               ; preds = %47, %22
  %26 = phi %"class.std::__1::__tree_node.123"* [ %50, %47 ], [ %18, %22 ]
  %27 = phi %"class.std::__1::__tree_node_base"** [ %49, %47 ], [ %4, %22 ]
  %28 = getelementptr inbounds %"class.std::__1::__tree_node.123", %"class.std::__1::__tree_node.123"* %26, i64 0, i32 1
  %29 = load %"class.content::WebContents"*, %"class.content::WebContents"** %28, align 8
  %30 = icmp ult %"class.content::WebContents"* %24, %29
  br i1 %30, label %31, label %37

31:                                               ; preds = %25
  %32 = getelementptr inbounds %"class.std::__1::__tree_node.123", %"class.std::__1::__tree_node.123"* %26, i64 0, i32 0, i32 0, i32 0
  %33 = load %"class.std::__1::__tree_node_base"*, %"class.std::__1::__tree_node_base"** %32, align 8
  %34 = icmp eq %"class.std::__1::__tree_node_base"* %33, null
  br i1 %34, label %35, label %47

35:                                               ; preds = %31
  %36 = getelementptr inbounds %"class.std::__1::__tree_node.123", %"class.std::__1::__tree_node.123"* %26, i64 0, i32 0, i32 0
  br label %51

37:                                               ; preds = %25
  %38 = icmp ult %"class.content::WebContents"* %29, %24
  br i1 %38, label %39, label %45

39:                                               ; preds = %37
  %40 = getelementptr inbounds %"class.std::__1::__tree_node.123", %"class.std::__1::__tree_node.123"* %26, i64 0, i32 0, i32 1
  %41 = load %"class.std::__1::__tree_node_base"*, %"class.std::__1::__tree_node_base"** %40, align 8
  %42 = icmp eq %"class.std::__1::__tree_node_base"* %41, null
  br i1 %42, label %43, label %47

43:                                               ; preds = %39
  %44 = getelementptr inbounds %"class.std::__1::__tree_node.123", %"class.std::__1::__tree_node.123"* %26, i64 0, i32 0, i32 0
  br label %51

45:                                               ; preds = %37
  %46 = getelementptr inbounds %"class.std::__1::__tree_node.123", %"class.std::__1::__tree_node.123"* %26, i64 0, i32 0, i32 0
  br label %51

47:                                               ; preds = %39, %31
  %48 = phi %"class.std::__1::__tree_node_base"* [ %33, %31 ], [ %41, %39 ]
  %49 = phi %"class.std::__1::__tree_node_base"** [ %32, %31 ], [ %40, %39 ]
  %50 = bitcast %"class.std::__1::__tree_node_base"* %48 to %"class.std::__1::__tree_node.123"*
  br label %25

51:                                               ; preds = %17, %45, %43, %35
  %52 = phi %"class.std::__1::__tree_end_node"* [ %36, %35 ], [ %44, %43 ], [ %46, %45 ], [ %6, %17 ]
  %53 = phi %"class.std::__1::__tree_node_base"** [ %32, %35 ], [ %40, %43 ], [ %27, %45 ], [ %14, %17 ]
  %54 = bitcast %"class.std::__1::__tree_node_base"** %53 to %"class.std::__1::__tree_node.123"**
  %55 = load %"class.std::__1::__tree_node.123"*, %"class.std::__1::__tree_node.123"** %54, align 8
  %56 = icmp eq %"class.std::__1::__tree_node.123"* %55, null
  br i1 %56, label %57, label %79

57:                                               ; preds = %51
  %58 = tail call i8* @_Znwm(i64 40) #13, !noalias !5
  %59 = getelementptr inbounds i8, i8* %58, i64 32
  %60 = bitcast %"class.std::__1::__tree_end_node"* %20 to i64*
  %61 = load i64, i64* %60, align 8, !noalias !5
  %62 = bitcast i8* %59 to i64*
  store i64 %61, i64* %62, align 8, !noalias !5
  %63 = bitcast i8* %58 to %"class.std::__1::__tree_node_base"*
  %64 = getelementptr inbounds i8, i8* %58, i64 16
  %65 = bitcast i8* %64 to %"class.std::__1::__tree_end_node"**
  tail call void @llvm.memset.p0i8.i64(i8* nonnull align 8 %58, i8 0, i64 16, i1 false) #12
  store %"class.std::__1::__tree_end_node"* %52, %"class.std::__1::__tree_end_node"** %65, align 8
  %66 = bitcast %"class.std::__1::__tree_node_base"** %53 to i8**
  store i8* %58, i8** %66, align 8
  %67 = load %"class.std::__1::__tree_end_node"*, %"class.std::__1::__tree_end_node"** %3, align 8
  %68 = getelementptr inbounds %"class.std::__1::__tree_end_node", %"class.std::__1::__tree_end_node"* %67, i64 0, i32 0
  %69 = load %"class.std::__1::__tree_node_base"*, %"class.std::__1::__tree_node_base"** %68, align 8
  %70 = icmp eq %"class.std::__1::__tree_node_base"* %69, null
  br i1 %70, label %74, label %71

71:                                               ; preds = %57
  %72 = ptrtoint %"class.std::__1::__tree_node_base"* %69 to i64
  store i64 %72, i64* %15, align 8
  %73 = load %"class.std::__1::__tree_node_base"*, %"class.std::__1::__tree_node_base"** %53, align 8
  br label %74

74:                                               ; preds = %71, %57
  %75 = phi %"class.std::__1::__tree_node_base"* [ %63, %57 ], [ %73, %71 ]
  %76 = load %"class.std::__1::__tree_node_base"*, %"class.std::__1::__tree_node_base"** %4, align 8
  tail call void @_ZNSt3__127__tree_balance_after_insertIPNS_16__tree_node_baseIPvEEEEvT_S5_(%"class.std::__1::__tree_node_base"* %76, %"class.std::__1::__tree_node_base"* %75) #12
  %77 = load i64, i64* %5, align 8
  %78 = add i64 %77, 1
  store i64 %78, i64* %5, align 8
  br label %79

79:                                               ; preds = %51, %74
  %80 = getelementptr inbounds %"class.std::__1::__tree_end_node", %"class.std::__1::__tree_end_node"* %19, i64 1, i32 0
  %81 = load %"class.std::__1::__tree_node_base"*, %"class.std::__1::__tree_node_base"** %80, align 8
  %82 = icmp eq %"class.std::__1::__tree_node_base"* %81, null
  br i1 %82, label %83, label %91

83:                                               ; preds = %79
  %84 = bitcast %"class.std::__1::__tree_end_node"* %19 to %"class.std::__1::__tree_node_base"*
  %85 = getelementptr inbounds %"class.std::__1::__tree_end_node", %"class.std::__1::__tree_end_node"* %19, i64 2
  %86 = bitcast %"class.std::__1::__tree_end_node"* %85 to %"class.std::__1::__tree_end_node"**
  %87 = load %"class.std::__1::__tree_end_node"*, %"class.std::__1::__tree_end_node"** %86, align 8
  %88 = getelementptr inbounds %"class.std::__1::__tree_end_node", %"class.std::__1::__tree_end_node"* %87, i64 0, i32 0
  %89 = load %"class.std::__1::__tree_node_base"*, %"class.std::__1::__tree_node_base"** %88, align 8
  %90 = icmp eq %"class.std::__1::__tree_node_base"* %89, %84
  br i1 %90, label %107, label %98

91:                                               ; preds = %79, %91
  %92 = phi %"class.std::__1::__tree_node_base"* [ %94, %91 ], [ %81, %79 ]
  %93 = getelementptr inbounds %"class.std::__1::__tree_node_base", %"class.std::__1::__tree_node_base"* %92, i64 0, i32 0, i32 0
  %94 = load %"class.std::__1::__tree_node_base"*, %"class.std::__1::__tree_node_base"** %93, align 8
  %95 = icmp eq %"class.std::__1::__tree_node_base"* %94, null
  br i1 %95, label %96, label %91

96:                                               ; preds = %91
  %97 = getelementptr inbounds %"class.std::__1::__tree_node_base", %"class.std::__1::__tree_node_base"* %92, i64 0, i32 0
  br label %107

98:                                               ; preds = %83, %98
  %99 = phi %"class.std::__1::__tree_end_node"** [ %102, %98 ], [ %86, %83 ]
  %100 = bitcast %"class.std::__1::__tree_end_node"** %99 to %"class.std::__1::__tree_node_base"**
  %101 = load %"class.std::__1::__tree_node_base"*, %"class.std::__1::__tree_node_base"** %100, align 8
  %102 = getelementptr inbounds %"class.std::__1::__tree_node_base", %"class.std::__1::__tree_node_base"* %101, i64 0, i32 2
  %103 = load %"class.std::__1::__tree_end_node"*, %"class.std::__1::__tree_end_node"** %102, align 8
  %104 = getelementptr inbounds %"class.std::__1::__tree_end_node", %"class.std::__1::__tree_end_node"* %103, i64 0, i32 0
  %105 = load %"class.std::__1::__tree_node_base"*, %"class.std::__1::__tree_node_base"** %104, align 8
  %106 = icmp eq %"class.std::__1::__tree_node_base"* %105, %101
  br i1 %106, label %107, label %98

107:                                              ; preds = %98, %83, %96
  %108 = phi %"class.std::__1::__tree_end_node"* [ %97, %96 ], [ %87, %83 ], [ %103, %98 ]
  %109 = icmp eq %"class.std::__1::__tree_end_node"* %108, %10
  br i1 %109, label %16, label %110

110:                                              ; preds = %107
  %111 = load %"class.std::__1::__tree_node.123"*, %"class.std::__1::__tree_node.123"** %13, align 8
  br label %17
}

; Function Attrs: nofree norecurse nounwind ssp uwtable writeonly
define hidden void @_ZN8printing25BackgroundPrintingManager16PrintingContentsC2Ev(%"struct.printing::BackgroundPrintingManager::PrintingContents"* nocapture) unnamed_addr #6 align 2 {
  %2 = bitcast %"struct.printing::BackgroundPrintingManager::PrintingContents"* %0 to i8*
  call void @llvm.memset.p0i8.i64(i8* align 8 %2, i8 0, i64 16, i1 false)
  ret void
}

; Function Attrs: nounwind ssp uwtable
define hidden void @_ZN8printing25BackgroundPrintingManager16PrintingContentsD2Ev(%"struct.printing::BackgroundPrintingManager::PrintingContents"* nocapture) unnamed_addr #0 align 2 {
  %2 = getelementptr inbounds %"struct.printing::BackgroundPrintingManager::PrintingContents", %"struct.printing::BackgroundPrintingManager::PrintingContents"* %0, i64 0, i32 1, i32 0, i32 0, i32 0
  %3 = load %"class.printing::BackgroundPrintingManager::Observer"*, %"class.printing::BackgroundPrintingManager::Observer"** %2, align 8
  store %"class.printing::BackgroundPrintingManager::Observer"* null, %"class.printing::BackgroundPrintingManager::Observer"** %2, align 8
  %4 = icmp eq %"class.printing::BackgroundPrintingManager::Observer"* %3, null
  br i1 %4, label %10, label %5

5:                                                ; preds = %1
  %6 = bitcast %"class.printing::BackgroundPrintingManager::Observer"* %3 to void (%"class.printing::BackgroundPrintingManager::Observer"*)***
  %7 = load void (%"class.printing::BackgroundPrintingManager::Observer"*)**, void (%"class.printing::BackgroundPrintingManager::Observer"*)*** %6, align 8
  %8 = getelementptr inbounds void (%"class.printing::BackgroundPrintingManager::Observer"*)*, void (%"class.printing::BackgroundPrintingManager::Observer"*)** %7, i64 8
  %9 = load void (%"class.printing::BackgroundPrintingManager::Observer"*)*, void (%"class.printing::BackgroundPrintingManager::Observer"*)** %8, align 8
  tail call void %9(%"class.printing::BackgroundPrintingManager::Observer"* nonnull %3) #12
  br label %10

10:                                               ; preds = %1, %5
  %11 = getelementptr inbounds %"struct.printing::BackgroundPrintingManager::PrintingContents", %"struct.printing::BackgroundPrintingManager::PrintingContents"* %0, i64 0, i32 0, i32 0, i32 0, i32 0
  %12 = load %"class.content::WebContents"*, %"class.content::WebContents"** %11, align 8
  store %"class.content::WebContents"* null, %"class.content::WebContents"** %11, align 8
  %13 = icmp eq %"class.content::WebContents"* %12, null
  br i1 %13, label %19, label %14

14:                                               ; preds = %10
  %15 = bitcast %"class.content::WebContents"* %12 to void (%"class.content::WebContents"*)***
  %16 = load void (%"class.content::WebContents"*)**, void (%"class.content::WebContents"*)*** %15, align 8
  %17 = getelementptr inbounds void (%"class.content::WebContents"*)*, void (%"class.content::WebContents"*)** %16, i64 1
  %18 = load void (%"class.content::WebContents"*)*, void (%"class.content::WebContents"*)** %17, align 8
  tail call void %18(%"class.content::WebContents"* nonnull %12) #12
  br label %19

19:                                               ; preds = %10, %14
  ret void
}

; Function Attrs: nofree norecurse nounwind ssp uwtable
define hidden void @_ZN8printing25BackgroundPrintingManager16PrintingContentsC2EOS1_(%"struct.printing::BackgroundPrintingManager::PrintingContents"* nocapture, %"struct.printing::BackgroundPrintingManager::PrintingContents"* nocapture dereferenceable(16)) unnamed_addr #7 align 2 {
  %3 = getelementptr inbounds %"struct.printing::BackgroundPrintingManager::PrintingContents", %"struct.printing::BackgroundPrintingManager::PrintingContents"* %1, i64 0, i32 0, i32 0, i32 0, i32 0
  %4 = bitcast %"struct.printing::BackgroundPrintingManager::PrintingContents"* %1 to i64*
  %5 = load i64, i64* %4, align 8
  store %"class.content::WebContents"* null, %"class.content::WebContents"** %3, align 8
  %6 = bitcast %"struct.printing::BackgroundPrintingManager::PrintingContents"* %0 to i64*
  store i64 %5, i64* %6, align 8
  %7 = getelementptr inbounds %"struct.printing::BackgroundPrintingManager::PrintingContents", %"struct.printing::BackgroundPrintingManager::PrintingContents"* %0, i64 0, i32 1
  %8 = getelementptr inbounds %"struct.printing::BackgroundPrintingManager::PrintingContents", %"struct.printing::BackgroundPrintingManager::PrintingContents"* %1, i64 0, i32 1
  %9 = getelementptr inbounds %"class.std::__1::unique_ptr.28", %"class.std::__1::unique_ptr.28"* %8, i64 0, i32 0, i32 0, i32 0
  %10 = bitcast %"class.std::__1::unique_ptr.28"* %8 to i64*
  %11 = load i64, i64* %10, align 8
  store %"class.printing::BackgroundPrintingManager::Observer"* null, %"class.printing::BackgroundPrintingManager::Observer"** %9, align 8
  %12 = bitcast %"class.std::__1::unique_ptr.28"* %7 to i64*
  store i64 %11, i64* %12, align 8
  ret void
}

declare zeroext i1 @_ZN7content19WebContentsObserver17OnMessageReceivedERKN3IPC7MessageE(%"class.content::WebContentsObserver"*, %"class.IPC::Message"* dereferenceable(56)) unnamed_addr #1

; Function Attrs: nounwind ssp uwtable
define linkonce_odr hidden void @_ZN3IPC8Listener18OnChannelConnectedEi(%"class.IPC::Listener"*, i32) unnamed_addr #0 comdat align 2 {
  ret void
}

; Function Attrs: nounwind ssp uwtable
define linkonce_odr hidden void @_ZN3IPC8Listener14OnChannelErrorEv(%"class.IPC::Listener"*) unnamed_addr #0 comdat align 2 {
  ret void
}

; Function Attrs: nounwind ssp uwtable
define linkonce_odr hidden void @_ZN3IPC8Listener20OnBadMessageReceivedERKNS_7MessageE(%"class.IPC::Listener"*, %"class.IPC::Message"* dereferenceable(56)) unnamed_addr #0 comdat align 2 {
  ret void
}

; Function Attrs: nounwind ssp uwtable
define linkonce_odr hidden void @_ZN3IPC8Listener28OnAssociatedInterfaceRequestERKNSt3__112basic_stringIcNS1_11char_traitsIcEENS1_9allocatorIcEEEEN4mojo29ScopedInterfaceEndpointHandleE(%"class.IPC::Listener"*, %"class.std::__1::basic_string"* dereferenceable(24), %"class.mojo::ScopedInterfaceEndpointHandle"*) unnamed_addr #0 comdat align 2 {
  ret void
}

; Function Attrs: nounwind ssp uwtable
define linkonce_odr hidden void @_ZN3IPC8Listener15OnChannelDeniedEv(%"class.IPC::Listener"*) unnamed_addr #0 comdat align 2 {
  ret void
}

; Function Attrs: nounwind ssp uwtable
define linkonce_odr hidden void @_ZN3IPC8Listener20OnChannelListenErrorEv(%"class.IPC::Listener"*) unnamed_addr #0 comdat align 2 {
  ret void
}

; Function Attrs: nounwind
declare void @_ZN7content19WebContentsObserverD2Ev(%"class.content::WebContentsObserver"*) unnamed_addr #2

; Function Attrs: inlinehint nounwind ssp uwtable
define linkonce_odr hidden void @_ZN8printing25BackgroundPrintingManager8ObserverD0Ev(%"class.printing::BackgroundPrintingManager::Observer"*) unnamed_addr #8 comdat align 2 {
  %2 = getelementptr inbounds %"class.printing::BackgroundPrintingManager::Observer", %"class.printing::BackgroundPrintingManager::Observer"* %0, i64 0, i32 0
  tail call void @_ZN7content19WebContentsObserverD2Ev(%"class.content::WebContentsObserver"* %2) #12
  %3 = bitcast %"class.printing::BackgroundPrintingManager::Observer"* %0 to i8*
  tail call void @_ZdlPv(i8* %3) #13
  ret void
}

; Function Attrs: nounwind ssp uwtable
define linkonce_odr hidden void @_ZN7content19WebContentsObserver18RenderFrameCreatedEPNS_15RenderFrameHostE(%"class.content::WebContentsObserver"*, %"class.content::RenderFrameHost"*) unnamed_addr #0 comdat align 2 {
  ret void
}

; Function Attrs: nounwind ssp uwtable
define linkonce_odr hidden void @_ZN7content19WebContentsObserver18RenderFrameDeletedEPNS_15RenderFrameHostE(%"class.content::WebContentsObserver"*, %"class.content::RenderFrameHost"*) unnamed_addr #0 comdat align 2 {
  ret void
}

; Function Attrs: nounwind ssp uwtable
define linkonce_odr hidden void @_ZN7content19WebContentsObserver22RenderFrameHostChangedEPNS_15RenderFrameHostES2_(%"class.content::WebContentsObserver"*, %"class.content::RenderFrameHost"*, %"class.content::RenderFrameHost"*) unnamed_addr #0 comdat align 2 {
  ret void
}

; Function Attrs: nounwind ssp uwtable
define linkonce_odr hidden void @_ZN7content19WebContentsObserver12FrameDeletedEi(%"class.content::WebContentsObserver"*, i32) unnamed_addr #0 comdat align 2 {
  ret void
}

; Function Attrs: nounwind ssp uwtable
define linkonce_odr hidden void @_ZN7content19WebContentsObserver27RenderFrameHostStateChangedEPNS_15RenderFrameHostENS1_14LifecycleStateES3_(%"class.content::WebContentsObserver"*, %"class.content::RenderFrameHost"*, i32, i32) unnamed_addr #0 comdat align 2 {
  ret void
}

; Function Attrs: nounwind ssp uwtable
define linkonce_odr hidden void @_ZN7content19WebContentsObserver20CaptureTargetChangedEv(%"class.content::WebContentsObserver"*) unnamed_addr #0 comdat align 2 {
  ret void
}

; Function Attrs: nounwind ssp uwtable
define linkonce_odr hidden void @_ZN7content19WebContentsObserver27OnCaptureHandleConfigUpdateERKN5blink5mojom19CaptureHandleConfigE(%"class.content::WebContentsObserver"*, %"class.blink::mojom::CaptureHandleConfig"*) unnamed_addr #0 comdat align 2 {
  ret void
}

; Function Attrs: nounwind ssp uwtable
define linkonce_odr hidden void @_ZN7content19WebContentsObserver15RenderViewReadyEv(%"class.content::WebContentsObserver"*) unnamed_addr #0 comdat align 2 {
  ret void
}

; Function Attrs: nounwind ssp uwtable
define linkonce_odr hidden void @_ZN7content19WebContentsObserver17RenderViewDeletedEPNS_14RenderViewHostE(%"class.content::WebContentsObserver"*, %"class.content::RenderViewHost"*) unnamed_addr #0 comdat align 2 {
  ret void
}

; Function Attrs: nounwind ssp uwtable
define linkonce_odr hidden void @_ZN7content19WebContentsObserver21RenderViewHostChangedEPNS_14RenderViewHostES2_(%"class.content::WebContentsObserver"*, %"class.content::RenderViewHost"*, %"class.content::RenderViewHost"*) unnamed_addr #0 comdat align 2 {
  ret void
}

; Function Attrs: nounwind ssp uwtable
define linkonce_odr hidden void @_ZN7content19WebContentsObserver22OnRendererUnresponsiveEPNS_17RenderProcessHostE(%"class.content::WebContentsObserver"*, %"class.content::RenderProcessHost"*) unnamed_addr #0 comdat align 2 {
  ret void
}

; Function Attrs: nounwind ssp uwtable
define linkonce_odr hidden void @_ZN7content19WebContentsObserver20OnRendererResponsiveEPNS_17RenderProcessHostE(%"class.content::WebContentsObserver"*, %"class.content::RenderProcessHost"*) unnamed_addr #0 comdat align 2 {
  ret void
}

; Function Attrs: nounwind ssp uwtable
define linkonce_odr hidden void @_ZN7content19WebContentsObserver18DidStartNavigationEPNS_16NavigationHandleE(%"class.content::WebContentsObserver"*, %"class.content::NavigationHandle"*) unnamed_addr #0 comdat align 2 {
  ret void
}

; Function Attrs: nounwind ssp uwtable
define linkonce_odr hidden void @_ZN7content19WebContentsObserver21DidRedirectNavigationEPNS_16NavigationHandleE(%"class.content::WebContentsObserver"*, %"class.content::NavigationHandle"*) unnamed_addr #0 comdat align 2 {
  ret void
}

; Function Attrs: nounwind ssp uwtable
define linkonce_odr hidden void @_ZN7content19WebContentsObserver23ReadyToCommitNavigationEPNS_16NavigationHandleE(%"class.content::WebContentsObserver"*, %"class.content::NavigationHandle"*) unnamed_addr #0 comdat align 2 {
  ret void
}

; Function Attrs: nounwind ssp uwtable
define linkonce_odr hidden void @_ZN7content19WebContentsObserver19DidFinishNavigationEPNS_16NavigationHandleE(%"class.content::WebContentsObserver"*, %"class.content::NavigationHandle"*) unnamed_addr #0 comdat align 2 {
  ret void
}

; Function Attrs: nounwind ssp uwtable
define linkonce_odr hidden void @_ZN7content19WebContentsObserver17DidActivatePortalEPNS_11WebContentsEN4base9TimeTicksE(%"class.content::WebContentsObserver"*, %"class.content::WebContents"*, i64) unnamed_addr #0 comdat align 2 {
  ret void
}

; Function Attrs: nounwind ssp uwtable
define linkonce_odr hidden void @_ZN7content19WebContentsObserver15DidStartLoadingEv(%"class.content::WebContentsObserver"*) unnamed_addr #0 comdat align 2 {
  ret void
}

; Function Attrs: nounwind ssp uwtable
define linkonce_odr hidden void @_ZN7content19WebContentsObserver18DidReceiveResponseEv(%"class.content::WebContentsObserver"*) unnamed_addr #0 comdat align 2 {
  ret void
}

; Function Attrs: nounwind ssp uwtable
define linkonce_odr hidden void @_ZN7content19WebContentsObserver14DidStopLoadingEv(%"class.content::WebContentsObserver"*) unnamed_addr #0 comdat align 2 {
  ret void
}

; Function Attrs: nounwind ssp uwtable
define linkonce_odr hidden void @_ZN7content19WebContentsObserver19LoadProgressChangedEd(%"class.content::WebContentsObserver"*, double) unnamed_addr #0 comdat align 2 {
  ret void
}

; Function Attrs: nounwind ssp uwtable
define linkonce_odr hidden void @_ZN7content19WebContentsObserver28DocumentAvailableInMainFrameEPNS_15RenderFrameHostE(%"class.content::WebContentsObserver"*, %"class.content::RenderFrameHost"*) unnamed_addr #0 comdat align 2 {
  ret void
}

; Function Attrs: nounwind ssp uwtable
define linkonce_odr hidden void @_ZN7content19WebContentsObserver34DocumentOnLoadCompletedInMainFrameEPNS_15RenderFrameHostE(%"class.content::WebContentsObserver"*, %"class.content::RenderFrameHost"*) unnamed_addr #0 comdat align 2 {
  ret void
}

; Function Attrs: nounwind ssp uwtable
define linkonce_odr hidden void @_ZN7content19WebContentsObserver16DOMContentLoadedEPNS_15RenderFrameHostE(%"class.content::WebContentsObserver"*, %"class.content::RenderFrameHost"*) unnamed_addr #0 comdat align 2 {
  ret void
}

; Function Attrs: nounwind ssp uwtable
define linkonce_odr hidden void @_ZN7content19WebContentsObserver13DidFinishLoadEPNS_15RenderFrameHostERK4GURL(%"class.content::WebContentsObserver"*, %"class.content::RenderFrameHost"*, %class.GURL* dereferenceable(120)) unnamed_addr #0 comdat align 2 {
  ret void
}

; Function Attrs: nounwind ssp uwtable
define linkonce_odr hidden void @_ZN7content19WebContentsObserver11DidFailLoadEPNS_15RenderFrameHostERK4GURLi(%"class.content::WebContentsObserver"*, %"class.content::RenderFrameHost"*, %class.GURL* dereferenceable(120), i32) unnamed_addr #0 comdat align 2 {
  ret void
}

; Function Attrs: nounwind ssp uwtable
define linkonce_odr hidden void @_ZN7content19WebContentsObserver29DidChangeVisibleSecurityStateEv(%"class.content::WebContentsObserver"*) unnamed_addr #0 comdat align 2 {
  ret void
}

; Function Attrs: nounwind ssp uwtable
define linkonce_odr hidden void @_ZN7content19WebContentsObserver30DidLoadResourceFromMemoryCacheEPNS_15RenderFrameHostERK4GURLRKNSt3__112basic_stringIcNS6_11char_traitsIcEENS6_9allocatorIcEEEEN7network5mojom18RequestDestinationE(%"class.content::WebContentsObserver"*, %"class.content::RenderFrameHost"*, %class.GURL* dereferenceable(120), %"class.std::__1::basic_string"* dereferenceable(24), i32) unnamed_addr #0 comdat align 2 {
  ret void
}

; Function Attrs: nounwind ssp uwtable
define linkonce_odr hidden void @_ZN7content19WebContentsObserver20ResourceLoadCompleteEPNS_15RenderFrameHostERKNS_15GlobalRequestIDERKN5blink5mojom16ResourceLoadInfoE(%"class.content::WebContentsObserver"*, %"class.content::RenderFrameHost"*, %"struct.content::GlobalRequestID"* dereferenceable(8), %"class.blink::mojom::ResourceLoadInfo"*) unnamed_addr #0 comdat align 2 {
  ret void
}

; Function Attrs: nounwind ssp uwtable
define linkonce_odr hidden void @_ZN7content19WebContentsObserver17OnCookiesAccessedEPNS_15RenderFrameHostERKNS_19CookieAccessDetailsE(%"class.content::WebContentsObserver"*, %"class.content::RenderFrameHost"*, %"struct.content::CookieAccessDetails"* dereferenceable(280)) unnamed_addr #0 comdat align 2 {
  ret void
}

; Function Attrs: nounwind ssp uwtable
define linkonce_odr hidden void @_ZN7content19WebContentsObserver17OnCookiesAccessedEPNS_16NavigationHandleERKNS_19CookieAccessDetailsE(%"class.content::WebContentsObserver"*, %"class.content::NavigationHandle"*, %"struct.content::CookieAccessDetails"* dereferenceable(280)) unnamed_addr #0 comdat align 2 {
  ret void
}

; Function Attrs: nounwind ssp uwtable
define linkonce_odr hidden void @_ZN7content19WebContentsObserver24NavigationEntryCommittedERKNS_20LoadCommittedDetailsE(%"class.content::WebContentsObserver"*, %"struct.content::LoadCommittedDetails"*) unnamed_addr #0 comdat align 2 {
  ret void
}

; Function Attrs: nounwind ssp uwtable
define linkonce_odr hidden void @_ZN7content19WebContentsObserver20NavigationListPrunedERKNS_13PrunedDetailsE(%"class.content::WebContentsObserver"*, %"struct.content::PrunedDetails"*) unnamed_addr #0 comdat align 2 {
  ret void
}

; Function Attrs: nounwind ssp uwtable
define linkonce_odr hidden void @_ZN7content19WebContentsObserver24NavigationEntriesDeletedEv(%"class.content::WebContentsObserver"*) unnamed_addr #0 comdat align 2 {
  ret void
}

; Function Attrs: nounwind ssp uwtable
define linkonce_odr hidden void @_ZN7content19WebContentsObserver22NavigationEntryChangedERKNS_19EntryChangedDetailsE(%"class.content::WebContentsObserver"*, %"struct.content::EntryChangedDetails"*) unnamed_addr #0 comdat align 2 {
  ret void
}

; Function Attrs: nounwind ssp uwtable
define linkonce_odr hidden void @_ZN7content19WebContentsObserver19DidOpenRequestedURLEPNS_11WebContentsEPNS_15RenderFrameHostERK4GURLRKNS_8ReferrerE21WindowOpenDispositionN2ui14PageTransitionEbb(%"class.content::WebContentsObserver"*, %"class.content::WebContents"*, %"class.content::RenderFrameHost"*, %class.GURL* dereferenceable(120), %"struct.content::Referrer"* dereferenceable(128), i32, i32, i1 zeroext, i1 zeroext) unnamed_addr #0 comdat align 2 {
  ret void
}

; Function Attrs: nounwind ssp uwtable
define linkonce_odr hidden void @_ZN7content19WebContentsObserver29DidFirstVisuallyNonEmptyPaintEv(%"class.content::WebContentsObserver"*) unnamed_addr #0 comdat align 2 {
  ret void
}

; Function Attrs: nounwind ssp uwtable
define linkonce_odr hidden void @_ZN7content19WebContentsObserver17NavigationStoppedEv(%"class.content::WebContentsObserver"*) unnamed_addr #0 comdat align 2 {
  ret void
}

; Function Attrs: nounwind ssp uwtable
define linkonce_odr hidden void @_ZN7content19WebContentsObserver21DidGetUserInteractionERKN5blink13WebInputEventE(%"class.content::WebContentsObserver"*, %"class.blink::WebInputEvent"* dereferenceable(40)) unnamed_addr #0 comdat align 2 {
  ret void
}

; Function Attrs: nounwind ssp uwtable
define linkonce_odr hidden void @_ZN7content19WebContentsObserver20DidGetIgnoredUIEventEv(%"class.content::WebContentsObserver"*) unnamed_addr #0 comdat align 2 {
  ret void
}

; Function Attrs: nounwind ssp uwtable
define linkonce_odr hidden void @_ZN7content19WebContentsObserver19OnVisibilityChangedENS_10VisibilityE(%"class.content::WebContentsObserver"*, i32) unnamed_addr #0 comdat align 2 {
  ret void
}

; Function Attrs: nounwind ssp uwtable
define linkonce_odr hidden void @_ZN7content19WebContentsObserver19MainFrameWasResizedEb(%"class.content::WebContentsObserver"*, i1 zeroext) unnamed_addr #0 comdat align 2 {
  ret void
}

; Function Attrs: nounwind ssp uwtable
define linkonce_odr hidden void @_ZN7content19WebContentsObserver16FrameNameChangedEPNS_15RenderFrameHostERKNSt3__112basic_stringIcNS3_11char_traitsIcEENS3_9allocatorIcEEEE(%"class.content::WebContentsObserver"*, %"class.content::RenderFrameHost"*, %"class.std::__1::basic_string"* dereferenceable(24)) unnamed_addr #0 comdat align 2 {
  ret void
}

; Function Attrs: nounwind ssp uwtable
define linkonce_odr hidden void @_ZN7content19WebContentsObserver27FrameReceivedUserActivationEPNS_15RenderFrameHostE(%"class.content::WebContentsObserver"*, %"class.content::RenderFrameHost"*) unnamed_addr #0 comdat align 2 {
  ret void
}

; Function Attrs: nounwind ssp uwtable
define linkonce_odr hidden void @_ZN7content19WebContentsObserver24FrameDisplayStateChangedEPNS_15RenderFrameHostEb(%"class.content::WebContentsObserver"*, %"class.content::RenderFrameHost"*, i1 zeroext) unnamed_addr #0 comdat align 2 {
  ret void
}

; Function Attrs: nounwind ssp uwtable
define linkonce_odr hidden void @_ZN7content19WebContentsObserver16FrameSizeChangedEPNS_15RenderFrameHostERKN3gfx4SizeE(%"class.content::WebContentsObserver"*, %"class.content::RenderFrameHost"*, %"class.gfx::Size"* dereferenceable(8)) unnamed_addr #0 comdat align 2 {
  ret void
}

; Function Attrs: nounwind ssp uwtable
define linkonce_odr hidden void @_ZN7content19WebContentsObserver11TitleWasSetEPNS_15NavigationEntryE(%"class.content::WebContentsObserver"*, %"class.content::NavigationEntry"*) unnamed_addr #0 comdat align 2 {
  ret void
}

; Function Attrs: nounwind ssp uwtable
define linkonce_odr hidden void @_ZN7content19WebContentsObserver16AppCacheAccessedERK4GURLb(%"class.content::WebContentsObserver"*, %class.GURL* dereferenceable(120), i1 zeroext) unnamed_addr #0 comdat align 2 {
  ret void
}

; Function Attrs: nounwind ssp uwtable
define linkonce_odr hidden void @_ZN7content19WebContentsObserver21PepperInstanceCreatedEv(%"class.content::WebContentsObserver"*) unnamed_addr #0 comdat align 2 {
  ret void
}

; Function Attrs: nounwind ssp uwtable
define linkonce_odr hidden void @_ZN7content19WebContentsObserver21PepperInstanceDeletedEv(%"class.content::WebContentsObserver"*) unnamed_addr #0 comdat align 2 {
  ret void
}

; Function Attrs: nounwind ssp uwtable
define linkonce_odr hidden void @_ZN7content19WebContentsObserver18ViewportFitChangedEN5blink5mojom11ViewportFitE(%"class.content::WebContentsObserver"*, i32) unnamed_addr #0 comdat align 2 {
  ret void
}

; Function Attrs: nounwind ssp uwtable
define linkonce_odr hidden void @_ZN7content19WebContentsObserver13PluginCrashedERKN4base8FilePathEi(%"class.content::WebContentsObserver"*, %"class.base::FilePath"* dereferenceable(24), i32) unnamed_addr #0 comdat align 2 {
  ret void
}

; Function Attrs: nounwind ssp uwtable
define linkonce_odr hidden void @_ZN7content19WebContentsObserver23PluginHungStatusChangedEiRKN4base8FilePathEb(%"class.content::WebContentsObserver"*, i32, %"class.base::FilePath"* dereferenceable(24), i1 zeroext) unnamed_addr #0 comdat align 2 {
  ret void
}

; Function Attrs: nounwind ssp uwtable
define linkonce_odr hidden void @_ZN7content19WebContentsObserver23InnerWebContentsCreatedEPNS_11WebContentsE(%"class.content::WebContentsObserver"*, %"class.content::WebContents"*) unnamed_addr #0 comdat align 2 {
  ret void
}

; Function Attrs: nounwind ssp uwtable
define linkonce_odr hidden void @_ZN7content19WebContentsObserver24InnerWebContentsAttachedEPNS_11WebContentsEPNS_15RenderFrameHostEb(%"class.content::WebContentsObserver"*, %"class.content::WebContents"*, %"class.content::RenderFrameHost"*, i1 zeroext) unnamed_addr #0 comdat align 2 {
  ret void
}

; Function Attrs: nounwind ssp uwtable
define linkonce_odr hidden void @_ZN7content19WebContentsObserver24InnerWebContentsDetachedEPNS_11WebContentsE(%"class.content::WebContentsObserver"*, %"class.content::WebContents"*) unnamed_addr #0 comdat align 2 {
  ret void
}

; Function Attrs: nounwind ssp uwtable
define linkonce_odr hidden void @_ZN7content19WebContentsObserver24DidCloneToNewWebContentsEPNS_11WebContentsES2_(%"class.content::WebContentsObserver"*, %"class.content::WebContents"*, %"class.content::WebContents"*) unnamed_addr #0 comdat align 2 {
  ret void
}

; Function Attrs: nounwind ssp uwtable
define linkonce_odr hidden void @_ZN7content19WebContentsObserver20WebContentsDestroyedEv(%"class.content::WebContentsObserver"*) unnamed_addr #0 comdat align 2 {
  ret void
}

; Function Attrs: nounwind ssp uwtable
define linkonce_odr hidden void @_ZN7content19WebContentsObserver20UserAgentOverrideSetERKN5blink17UserAgentOverrideE(%"class.content::WebContentsObserver"*, %"struct.blink::UserAgentOverride"* dereferenceable(184)) unnamed_addr #0 comdat align 2 {
  ret void
}

; Function Attrs: nounwind ssp uwtable
define linkonce_odr hidden void @_ZN7content19WebContentsObserver19DidUpdateFaviconURLEPNS_15RenderFrameHostERKNSt3__16vectorIN4mojo9StructPtrIN5blink5mojom10FaviconURLEEENS3_9allocatorISA_EEEE(%"class.content::WebContentsObserver"*, %"class.content::RenderFrameHost"*, %"class.std::__1::vector.91"*) unnamed_addr #0 comdat align 2 {
  ret void
}

; Function Attrs: nounwind ssp uwtable
define linkonce_odr hidden void @_ZN7content19WebContentsObserver19OnAudioStateChangedEb(%"class.content::WebContentsObserver"*, i1 zeroext) unnamed_addr #0 comdat align 2 {
  ret void
}

; Function Attrs: nounwind ssp uwtable
define linkonce_odr hidden void @_ZN7content19WebContentsObserver24OnFrameAudioStateChangedEPNS_15RenderFrameHostEb(%"class.content::WebContentsObserver"*, %"class.content::RenderFrameHost"*, i1 zeroext) unnamed_addr #0 comdat align 2 {
  ret void
}

; Function Attrs: nounwind ssp uwtable
define linkonce_odr hidden void @_ZN7content19WebContentsObserver37OnIsConnectedToBluetoothDeviceChangedEb(%"class.content::WebContentsObserver"*, i1 zeroext) unnamed_addr #0 comdat align 2 {
  ret void
}

; Function Attrs: nounwind ssp uwtable
define linkonce_odr hidden void @_ZN7content19WebContentsObserver25DidUpdateAudioMutingStateEb(%"class.content::WebContentsObserver"*, i1 zeroext) unnamed_addr #0 comdat align 2 {
  ret void
}

; Function Attrs: nounwind ssp uwtable
define linkonce_odr hidden void @_ZN7content19WebContentsObserver29DidToggleFullscreenModeForTabEbb(%"class.content::WebContentsObserver"*, i1 zeroext, i1 zeroext) unnamed_addr #0 comdat align 2 {
  ret void
}

; Function Attrs: nounwind ssp uwtable
define linkonce_odr hidden void @_ZN7content19WebContentsObserver20DidAcquireFullscreenEPNS_15RenderFrameHostE(%"class.content::WebContentsObserver"*, %"class.content::RenderFrameHost"*) unnamed_addr #0 comdat align 2 {
  ret void
}

; Function Attrs: nounwind ssp uwtable
define linkonce_odr hidden void @_ZN7content19WebContentsObserver32DidChangeVerticalScrollDirectionEN3viz23VerticalScrollDirectionE(%"class.content::WebContentsObserver"*, i32) unnamed_addr #0 comdat align 2 {
  ret void
}

; Function Attrs: nounwind ssp uwtable
define linkonce_odr hidden void @_ZN7content19WebContentsObserver27BeforeFormRepostWarningShowEv(%"class.content::WebContentsObserver"*) unnamed_addr #0 comdat align 2 {
  ret void
}

; Function Attrs: nounwind ssp uwtable
define linkonce_odr hidden void @_ZN7content19WebContentsObserver17BeforeUnloadFiredEbRKN4base9TimeTicksE(%"class.content::WebContentsObserver"*, i1 zeroext, %"class.base::TimeTicks"* dereferenceable(8)) unnamed_addr #0 comdat align 2 {
  ret void
}

; Function Attrs: nounwind ssp uwtable
define linkonce_odr hidden void @_ZN7content19WebContentsObserver27BeforeUnloadDialogCancelledEv(%"class.content::WebContentsObserver"*) unnamed_addr #0 comdat align 2 {
  ret void
}

; Function Attrs: nounwind ssp uwtable
define linkonce_odr hidden void @_ZN7content19WebContentsObserver30AXTreeIDForMainFrameHasChangedEv(%"class.content::WebContentsObserver"*) unnamed_addr #0 comdat align 2 {
  ret void
}

; Function Attrs: nounwind ssp uwtable
define linkonce_odr hidden void @_ZN7content19WebContentsObserver26AccessibilityEventReceivedERKNS_26AXEventNotificationDetailsE(%"class.content::WebContentsObserver"*, %"struct.content::AXEventNotificationDetails"*) unnamed_addr #0 comdat align 2 {
  ret void
}

; Function Attrs: nounwind ssp uwtable
define linkonce_odr hidden void @_ZN7content19WebContentsObserver36AccessibilityLocationChangesReceivedERKNSt3__16vectorINS_35AXLocationChangeNotificationDetailsENS1_9allocatorIS3_EEEE(%"class.content::WebContentsObserver"*, %"class.std::__1::vector.92"*) unnamed_addr #0 comdat align 2 {
  ret void
}

; Function Attrs: nounwind ssp uwtable
define linkonce_odr hidden void @_ZN7content19WebContentsObserver19DidChangeThemeColorEv(%"class.content::WebContentsObserver"*) unnamed_addr #0 comdat align 2 {
  ret void
}

; Function Attrs: nounwind ssp uwtable
define linkonce_odr hidden void @_ZN7content19WebContentsObserver24OnBackgroundColorChangedEv(%"class.content::WebContentsObserver"*) unnamed_addr #0 comdat align 2 {
  ret void
}

; Function Attrs: nounwind ssp uwtable
define linkonce_odr hidden void @_ZN7content19WebContentsObserver24OnDidAddMessageToConsoleEPNS_15RenderFrameHostEN5blink5mojom19ConsoleMessageLevelERKNSt3__112basic_stringIDsNS6_11char_traitsIDsEENS6_9allocatorIDsEEEEiSE_RKN4absl8optionalISC_EE(%"class.content::WebContentsObserver"*, %"class.content::RenderFrameHost"*, i32, %"class.std::__1::basic_string.93"* dereferenceable(24), i32, %"class.std::__1::basic_string.93"* dereferenceable(24), %"class.absl::optional.102"*) unnamed_addr #0 comdat align 2 {
  ret void
}

; Function Attrs: nounwind ssp uwtable
define linkonce_odr hidden void @_ZN7content19WebContentsObserver19MediaStartedPlayingERKNS0_15MediaPlayerInfoERKNS_13MediaPlayerIdE(%"class.content::WebContentsObserver"*, %"struct.content::WebContentsObserver::MediaPlayerInfo"* dereferenceable(2), %"struct.content::MediaPlayerId"*) unnamed_addr #0 comdat align 2 {
  ret void
}

; Function Attrs: nounwind ssp uwtable
define linkonce_odr hidden void @_ZN7content19WebContentsObserver19MediaStoppedPlayingERKNS0_15MediaPlayerInfoERKNS_13MediaPlayerIdENS0_18MediaStoppedReasonE(%"class.content::WebContentsObserver"*, %"struct.content::WebContentsObserver::MediaPlayerInfo"* dereferenceable(2), %"struct.content::MediaPlayerId"*, i32) unnamed_addr #0 comdat align 2 {
  ret void
}

; Function Attrs: nounwind ssp uwtable
define linkonce_odr hidden void @_ZN7content19WebContentsObserver12MediaResizedERKN3gfx4SizeERKNS_13MediaPlayerIdE(%"class.content::WebContentsObserver"*, %"class.gfx::Size"* dereferenceable(8), %"struct.content::MediaPlayerId"*) unnamed_addr #0 comdat align 2 {
  ret void
}

; Function Attrs: nounwind ssp uwtable
define linkonce_odr hidden void @_ZN7content19WebContentsObserver33MediaEffectivelyFullscreenChangedEb(%"class.content::WebContentsObserver"*, i1 zeroext) unnamed_addr #0 comdat align 2 {
  ret void
}

; Function Attrs: nounwind ssp uwtable
define linkonce_odr hidden void @_ZN7content19WebContentsObserver28MediaPictureInPictureChangedEb(%"class.content::WebContentsObserver"*, i1 zeroext) unnamed_addr #0 comdat align 2 {
  ret void
}

; Function Attrs: nounwind ssp uwtable
define linkonce_odr hidden void @_ZN7content19WebContentsObserver23MediaMutedStatusChangedERKNS_13MediaPlayerIdEb(%"class.content::WebContentsObserver"*, %"struct.content::MediaPlayerId"*, i1 zeroext) unnamed_addr #0 comdat align 2 {
  ret void
}

; Function Attrs: nounwind ssp uwtable
define linkonce_odr hidden void @_ZN7content19WebContentsObserver20MediaBufferUnderflowERKNS_13MediaPlayerIdE(%"class.content::WebContentsObserver"*, %"struct.content::MediaPlayerId"*) unnamed_addr #0 comdat align 2 {
  ret void
}

; Function Attrs: nounwind ssp uwtable
define linkonce_odr hidden void @_ZN7content19WebContentsObserver15MediaPlayerSeekERKNS_13MediaPlayerIdE(%"class.content::WebContentsObserver"*, %"struct.content::MediaPlayerId"*) unnamed_addr #0 comdat align 2 {
  ret void
}

; Function Attrs: nounwind ssp uwtable
define linkonce_odr hidden void @_ZN7content19WebContentsObserver14MediaDestroyedERKNS_13MediaPlayerIdE(%"class.content::WebContentsObserver"*, %"struct.content::MediaPlayerId"*) unnamed_addr #0 comdat align 2 {
  ret void
}

; Function Attrs: nounwind ssp uwtable
define linkonce_odr hidden void @_ZN7content19WebContentsObserver24OnPageScaleFactorChangedEf(%"class.content::WebContentsObserver"*, float) unnamed_addr #0 comdat align 2 {
  ret void
}

; Function Attrs: nounwind ssp uwtable
define linkonce_odr hidden void @_ZN7content19WebContentsObserver7OnPasteEv(%"class.content::WebContentsObserver"*) unnamed_addr #0 comdat align 2 {
  ret void
}

declare zeroext i1 @_ZN7content19WebContentsObserver17OnMessageReceivedERKN3IPC7MessageEPNS_15RenderFrameHostE(%"class.content::WebContentsObserver"*, %"class.IPC::Message"* dereferenceable(56), %"class.content::RenderFrameHost"*) unnamed_addr #1

; Function Attrs: nounwind ssp uwtable
define linkonce_odr hidden void @_ZN7content19WebContentsObserver20OnWebContentsFocusedEPNS_16RenderWidgetHostE(%"class.content::WebContentsObserver"*, %"class.content::RenderWidgetHost"*) unnamed_addr #0 comdat align 2 {
  ret void
}

; Function Attrs: nounwind ssp uwtable
define linkonce_odr hidden void @_ZN7content19WebContentsObserver22OnWebContentsLostFocusEPNS_16RenderWidgetHostE(%"class.content::WebContentsObserver"*, %"class.content::RenderWidgetHost"*) unnamed_addr #0 comdat align 2 {
  ret void
}

; Function Attrs: nounwind ssp uwtable
define linkonce_odr hidden void @_ZN7content19WebContentsObserver20OnFocusChangedInPageEPNS_18FocusedNodeDetailsE(%"class.content::WebContentsObserver"*, %"struct.content::FocusedNodeDetails"*) unnamed_addr #0 comdat align 2 {
  ret void
}

; Function Attrs: nounwind ssp uwtable
define linkonce_odr hidden void @_ZN7content19WebContentsObserver23DidUpdateWebManifestURLEPNS_15RenderFrameHostERKN4absl8optionalI4GURLEE(%"class.content::WebContentsObserver"*, %"class.content::RenderFrameHost"*, %"class.absl::optional.103"* dereferenceable(128)) unnamed_addr #0 comdat align 2 {
  ret void
}

; Function Attrs: nounwind ssp uwtable
define linkonce_odr hidden void @_ZN7content19WebContentsObserver27OnInterfaceRequestFromFrameEPNS_15RenderFrameHostERKNSt3__112basic_stringIcNS3_11char_traitsIcEENS3_9allocatorIcEEEEPN4mojo16ScopedHandleBaseINSC_17MessagePipeHandleEEE(%"class.content::WebContentsObserver"*, %"class.content::RenderFrameHost"*, %"class.std::__1::basic_string"* dereferenceable(24), %"class.mojo::ScopedHandleBase"*) unnamed_addr #0 comdat align 2 {
  ret void
}

; Function Attrs: nounwind ssp uwtable
define linkonce_odr hidden void @_ZN7content19WebContentsObserver27AudioContextPlaybackStartedERKNSt3__14pairIPNS_15RenderFrameHostEiEE(%"class.content::WebContentsObserver"*, %"struct.std::__1::pair.108"*) unnamed_addr #0 comdat align 2 {
  ret void
}

; Function Attrs: nounwind ssp uwtable
define linkonce_odr hidden void @_ZN7content19WebContentsObserver27AudioContextPlaybackStoppedERKNSt3__14pairIPNS_15RenderFrameHostEiEE(%"class.content::WebContentsObserver"*, %"struct.std::__1::pair.108"*) unnamed_addr #0 comdat align 2 {
  ret void
}

; Function Attrs: nounwind ssp uwtable
define linkonce_odr hidden void @_ZN7content19WebContentsObserver23OnServiceWorkerAccessedEPNS_15RenderFrameHostERK4GURLNS_24AllowServiceWorkerResultE(%"class.content::WebContentsObserver"*, %"class.content::RenderFrameHost"*, %class.GURL* dereferenceable(120), i24) unnamed_addr #0 comdat align 2 {
  ret void
}

; Function Attrs: nounwind ssp uwtable
define linkonce_odr hidden void @_ZN7content19WebContentsObserver23OnServiceWorkerAccessedEPNS_16NavigationHandleERK4GURLNS_24AllowServiceWorkerResultE(%"class.content::WebContentsObserver"*, %"class.content::NavigationHandle"*, %class.GURL* dereferenceable(120), i24) unnamed_addr #0 comdat align 2 {
  ret void
}

; Function Attrs: nounwind ssp uwtable
define linkonce_odr hidden void @_ZNSt3__16__treeINS_12__value_typeIPN7content11WebContentsEN8printing25BackgroundPrintingManager16PrintingContentsEEENS_19__map_value_compareIS4_S8_NS_4lessIS4_EELb1EEENS_9allocatorIS8_EEE7destroyEPNS_11__tree_nodeIS8_PvEE(%"class.std::__1::__tree.5"*, %"class.std::__1::__tree_node"*) local_unnamed_addr #0 comdat align 2 {
  %3 = icmp eq %"class.std::__1::__tree_node"* %1, null
  br i1 %3, label %29, label %4

4:                                                ; preds = %2
  %5 = bitcast %"class.std::__1::__tree_node"* %1 to %"class.std::__1::__tree_node"**
  %6 = load %"class.std::__1::__tree_node"*, %"class.std::__1::__tree_node"** %5, align 8
  tail call void @_ZNSt3__16__treeINS_12__value_typeIPN7content11WebContentsEN8printing25BackgroundPrintingManager16PrintingContentsEEENS_19__map_value_compareIS4_S8_NS_4lessIS4_EELb1EEENS_9allocatorIS8_EEE7destroyEPNS_11__tree_nodeIS8_PvEE(%"class.std::__1::__tree.5"* %0, %"class.std::__1::__tree_node"* %6) #12
  %7 = getelementptr inbounds %"class.std::__1::__tree_node", %"class.std::__1::__tree_node"* %1, i64 0, i32 0, i32 1
  %8 = bitcast %"class.std::__1::__tree_node_base"** %7 to %"class.std::__1::__tree_node"**
  %9 = load %"class.std::__1::__tree_node"*, %"class.std::__1::__tree_node"** %8, align 8
  tail call void @_ZNSt3__16__treeINS_12__value_typeIPN7content11WebContentsEN8printing25BackgroundPrintingManager16PrintingContentsEEENS_19__map_value_compareIS4_S8_NS_4lessIS4_EELb1EEENS_9allocatorIS8_EEE7destroyEPNS_11__tree_nodeIS8_PvEE(%"class.std::__1::__tree.5"* %0, %"class.std::__1::__tree_node"* %9) #12
  %10 = getelementptr inbounds %"class.std::__1::__tree_node", %"class.std::__1::__tree_node"* %1, i64 0, i32 1, i32 0, i32 1, i32 1, i32 0, i32 0, i32 0
  %11 = load %"class.printing::BackgroundPrintingManager::Observer"*, %"class.printing::BackgroundPrintingManager::Observer"** %10, align 8
  store %"class.printing::BackgroundPrintingManager::Observer"* null, %"class.printing::BackgroundPrintingManager::Observer"** %10, align 8
  %12 = icmp eq %"class.printing::BackgroundPrintingManager::Observer"* %11, null
  br i1 %12, label %18, label %13

13:                                               ; preds = %4
  %14 = bitcast %"class.printing::BackgroundPrintingManager::Observer"* %11 to void (%"class.printing::BackgroundPrintingManager::Observer"*)***
  %15 = load void (%"class.printing::BackgroundPrintingManager::Observer"*)**, void (%"class.printing::BackgroundPrintingManager::Observer"*)*** %14, align 8
  %16 = getelementptr inbounds void (%"class.printing::BackgroundPrintingManager::Observer"*)*, void (%"class.printing::BackgroundPrintingManager::Observer"*)** %15, i64 8
  %17 = load void (%"class.printing::BackgroundPrintingManager::Observer"*)*, void (%"class.printing::BackgroundPrintingManager::Observer"*)** %16, align 8
  tail call void %17(%"class.printing::BackgroundPrintingManager::Observer"* nonnull %11) #12
  br label %18

18:                                               ; preds = %13, %4
  %19 = getelementptr inbounds %"class.std::__1::__tree_node", %"class.std::__1::__tree_node"* %1, i64 0, i32 1, i32 0, i32 1, i32 0, i32 0, i32 0, i32 0
  %20 = load %"class.content::WebContents"*, %"class.content::WebContents"** %19, align 8
  store %"class.content::WebContents"* null, %"class.content::WebContents"** %19, align 8
  %21 = icmp eq %"class.content::WebContents"* %20, null
  br i1 %21, label %27, label %22

22:                                               ; preds = %18
  %23 = bitcast %"class.content::WebContents"* %20 to void (%"class.content::WebContents"*)***
  %24 = load void (%"class.content::WebContents"*)**, void (%"class.content::WebContents"*)*** %23, align 8
  %25 = getelementptr inbounds void (%"class.content::WebContents"*)*, void (%"class.content::WebContents"*)** %24, i64 1
  %26 = load void (%"class.content::WebContents"*)*, void (%"class.content::WebContents"*)** %25, align 8
  tail call void %26(%"class.content::WebContents"* nonnull %20) #12
  br label %27

27:                                               ; preds = %18, %22
  %28 = bitcast %"class.std::__1::__tree_node"* %1 to i8*
  tail call void @_ZdlPv(i8* %28) #13
  br label %29

29:                                               ; preds = %2, %27
  ret void
}

; Function Attrs: nobuiltin nofree
declare noalias nonnull i8* @_Znwm(i64) local_unnamed_addr #9

; Function Attrs: noreturn nounwind
declare void @abort() local_unnamed_addr #10

; Function Attrs: nounwind ssp uwtable
define linkonce_odr hidden void @_ZNSt3__127__tree_balance_after_insertIPNS_16__tree_node_baseIPvEEEEvT_S5_(%"class.std::__1::__tree_node_base"*, %"class.std::__1::__tree_node_base"*) local_unnamed_addr #0 comdat {
  %3 = icmp eq %"class.std::__1::__tree_node_base"* %1, %0
  %4 = getelementptr inbounds %"class.std::__1::__tree_node_base", %"class.std::__1::__tree_node_base"* %1, i64 0, i32 3
  %5 = zext i1 %3 to i8
  store i8 %5, i8* %4, align 8
  br i1 %3, label %156, label %6

6:                                                ; preds = %2, %149
  %7 = phi %"class.std::__1::__tree_node_base"* [ %20, %149 ], [ %1, %2 ]
  %8 = getelementptr inbounds %"class.std::__1::__tree_node_base", %"class.std::__1::__tree_node_base"* %7, i64 0, i32 2
  %9 = bitcast %"class.std::__1::__tree_end_node"** %8 to %"class.std::__1::__tree_node_base"**
  %10 = load %"class.std::__1::__tree_node_base"*, %"class.std::__1::__tree_node_base"** %9, align 8
  %11 = getelementptr inbounds %"class.std::__1::__tree_node_base", %"class.std::__1::__tree_node_base"* %10, i64 0, i32 3
  %12 = load i8, i8* %11, align 8, !range !8
  %13 = icmp eq i8 %12, 0
  br i1 %13, label %14, label %156

14:                                               ; preds = %6
  %15 = getelementptr inbounds %"class.std::__1::__tree_node_base", %"class.std::__1::__tree_node_base"* %10, i64 0, i32 2
  %16 = load %"class.std::__1::__tree_end_node"*, %"class.std::__1::__tree_end_node"** %15, align 8
  %17 = getelementptr inbounds %"class.std::__1::__tree_end_node", %"class.std::__1::__tree_end_node"* %16, i64 0, i32 0
  %18 = load %"class.std::__1::__tree_node_base"*, %"class.std::__1::__tree_node_base"** %17, align 8
  %19 = icmp eq %"class.std::__1::__tree_node_base"* %18, %10
  %20 = bitcast %"class.std::__1::__tree_end_node"* %16 to %"class.std::__1::__tree_node_base"*
  br i1 %19, label %21, label %87

21:                                               ; preds = %14
  %22 = getelementptr inbounds %"class.std::__1::__tree_end_node", %"class.std::__1::__tree_end_node"* %16, i64 1, i32 0
  %23 = load %"class.std::__1::__tree_node_base"*, %"class.std::__1::__tree_node_base"** %22, align 8
  %24 = icmp eq %"class.std::__1::__tree_node_base"* %23, null
  br i1 %24, label %29, label %25

25:                                               ; preds = %21
  %26 = getelementptr inbounds %"class.std::__1::__tree_node_base", %"class.std::__1::__tree_node_base"* %23, i64 0, i32 3
  %27 = load i8, i8* %26, align 8, !range !8
  %28 = icmp eq i8 %27, 0
  br i1 %28, label %149, label %29

29:                                               ; preds = %25, %21
  %30 = getelementptr inbounds %"class.std::__1::__tree_node_base", %"class.std::__1::__tree_node_base"* %10, i64 0, i32 2
  %31 = bitcast %"class.std::__1::__tree_end_node"* %16 to %"class.std::__1::__tree_node_base"*
  %32 = getelementptr inbounds %"class.std::__1::__tree_node_base", %"class.std::__1::__tree_node_base"* %10, i64 0, i32 0, i32 0
  %33 = load %"class.std::__1::__tree_node_base"*, %"class.std::__1::__tree_node_base"** %32, align 8
  %34 = icmp eq %"class.std::__1::__tree_node_base"* %33, %7
  br i1 %34, label %61, label %35

35:                                               ; preds = %29
  %36 = ptrtoint %"class.std::__1::__tree_end_node"* %16 to i64
  %37 = getelementptr inbounds %"class.std::__1::__tree_node_base", %"class.std::__1::__tree_node_base"* %10, i64 0, i32 1
  %38 = load %"class.std::__1::__tree_node_base"*, %"class.std::__1::__tree_node_base"** %37, align 8
  %39 = getelementptr inbounds %"class.std::__1::__tree_node_base", %"class.std::__1::__tree_node_base"* %38, i64 0, i32 0, i32 0
  %40 = load %"class.std::__1::__tree_node_base"*, %"class.std::__1::__tree_node_base"** %39, align 8
  store %"class.std::__1::__tree_node_base"* %40, %"class.std::__1::__tree_node_base"** %37, align 8
  %41 = icmp eq %"class.std::__1::__tree_node_base"* %40, null
  br i1 %41, label %47, label %42

42:                                               ; preds = %35
  %43 = getelementptr inbounds %"class.std::__1::__tree_node_base", %"class.std::__1::__tree_node_base"* %10, i64 0, i32 0
  %44 = getelementptr inbounds %"class.std::__1::__tree_node_base", %"class.std::__1::__tree_node_base"* %40, i64 0, i32 2
  store %"class.std::__1::__tree_end_node"* %43, %"class.std::__1::__tree_end_node"** %44, align 8
  %45 = bitcast %"class.std::__1::__tree_end_node"** %30 to i64*
  %46 = load i64, i64* %45, align 8
  br label %47

47:                                               ; preds = %35, %42
  %48 = phi i64 [ %46, %42 ], [ %36, %35 ]
  %49 = getelementptr inbounds %"class.std::__1::__tree_node_base", %"class.std::__1::__tree_node_base"* %38, i64 0, i32 2
  %50 = bitcast %"class.std::__1::__tree_end_node"** %49 to i64*
  store i64 %48, i64* %50, align 8
  %51 = load %"class.std::__1::__tree_end_node"*, %"class.std::__1::__tree_end_node"** %30, align 8
  %52 = getelementptr inbounds %"class.std::__1::__tree_end_node", %"class.std::__1::__tree_end_node"* %51, i64 0, i32 0
  %53 = load %"class.std::__1::__tree_node_base"*, %"class.std::__1::__tree_node_base"** %52, align 8
  %54 = icmp eq %"class.std::__1::__tree_node_base"* %53, %10
  %55 = getelementptr inbounds %"class.std::__1::__tree_end_node", %"class.std::__1::__tree_end_node"* %51, i64 1, i32 0
  %56 = select i1 %54, %"class.std::__1::__tree_node_base"** %52, %"class.std::__1::__tree_node_base"** %55
  store %"class.std::__1::__tree_node_base"* %38, %"class.std::__1::__tree_node_base"** %56, align 8
  store %"class.std::__1::__tree_node_base"* %10, %"class.std::__1::__tree_node_base"** %39, align 8
  %57 = getelementptr inbounds %"class.std::__1::__tree_node_base", %"class.std::__1::__tree_node_base"* %38, i64 0, i32 0
  store %"class.std::__1::__tree_end_node"* %57, %"class.std::__1::__tree_end_node"** %30, align 8
  %58 = getelementptr inbounds %"class.std::__1::__tree_node_base", %"class.std::__1::__tree_node_base"* %38, i64 0, i32 2
  %59 = bitcast %"class.std::__1::__tree_end_node"** %58 to %"class.std::__1::__tree_node_base"**
  %60 = load %"class.std::__1::__tree_node_base"*, %"class.std::__1::__tree_node_base"** %59, align 8
  br label %61

61:                                               ; preds = %47, %29
  %62 = phi %"class.std::__1::__tree_node_base"* [ %31, %29 ], [ %60, %47 ]
  %63 = phi %"class.std::__1::__tree_node_base"* [ %10, %29 ], [ %38, %47 ]
  %64 = getelementptr inbounds %"class.std::__1::__tree_node_base", %"class.std::__1::__tree_node_base"* %63, i64 0, i32 3
  store i8 1, i8* %64, align 8
  %65 = getelementptr inbounds %"class.std::__1::__tree_node_base", %"class.std::__1::__tree_node_base"* %62, i64 0, i32 3
  store i8 0, i8* %65, align 8
  %66 = getelementptr inbounds %"class.std::__1::__tree_node_base", %"class.std::__1::__tree_node_base"* %62, i64 0, i32 0, i32 0
  %67 = load %"class.std::__1::__tree_node_base"*, %"class.std::__1::__tree_node_base"** %66, align 8
  %68 = getelementptr inbounds %"class.std::__1::__tree_node_base", %"class.std::__1::__tree_node_base"* %67, i64 0, i32 1
  %69 = load %"class.std::__1::__tree_node_base"*, %"class.std::__1::__tree_node_base"** %68, align 8
  store %"class.std::__1::__tree_node_base"* %69, %"class.std::__1::__tree_node_base"** %66, align 8
  %70 = icmp eq %"class.std::__1::__tree_node_base"* %69, null
  br i1 %70, label %74, label %71

71:                                               ; preds = %61
  %72 = getelementptr inbounds %"class.std::__1::__tree_node_base", %"class.std::__1::__tree_node_base"* %62, i64 0, i32 0
  %73 = getelementptr inbounds %"class.std::__1::__tree_node_base", %"class.std::__1::__tree_node_base"* %69, i64 0, i32 2
  store %"class.std::__1::__tree_end_node"* %72, %"class.std::__1::__tree_end_node"** %73, align 8
  br label %74

74:                                               ; preds = %71, %61
  %75 = getelementptr inbounds %"class.std::__1::__tree_node_base", %"class.std::__1::__tree_node_base"* %62, i64 0, i32 2
  %76 = bitcast %"class.std::__1::__tree_end_node"** %75 to i64*
  %77 = load i64, i64* %76, align 8
  %78 = getelementptr inbounds %"class.std::__1::__tree_node_base", %"class.std::__1::__tree_node_base"* %67, i64 0, i32 2
  %79 = bitcast %"class.std::__1::__tree_end_node"** %78 to i64*
  store i64 %77, i64* %79, align 8
  %80 = load %"class.std::__1::__tree_end_node"*, %"class.std::__1::__tree_end_node"** %75, align 8
  %81 = getelementptr inbounds %"class.std::__1::__tree_end_node", %"class.std::__1::__tree_end_node"* %80, i64 0, i32 0
  %82 = load %"class.std::__1::__tree_node_base"*, %"class.std::__1::__tree_node_base"** %81, align 8
  %83 = icmp eq %"class.std::__1::__tree_node_base"* %82, %62
  %84 = getelementptr inbounds %"class.std::__1::__tree_end_node", %"class.std::__1::__tree_end_node"* %80, i64 1, i32 0
  %85 = select i1 %83, %"class.std::__1::__tree_node_base"** %81, %"class.std::__1::__tree_node_base"** %84
  store %"class.std::__1::__tree_node_base"* %67, %"class.std::__1::__tree_node_base"** %85, align 8
  store %"class.std::__1::__tree_node_base"* %62, %"class.std::__1::__tree_node_base"** %68, align 8
  %86 = getelementptr inbounds %"class.std::__1::__tree_node_base", %"class.std::__1::__tree_node_base"* %67, i64 0, i32 0
  store %"class.std::__1::__tree_end_node"* %86, %"class.std::__1::__tree_end_node"** %75, align 8
  br label %156

87:                                               ; preds = %14
  %88 = icmp eq %"class.std::__1::__tree_node_base"* %18, null
  br i1 %88, label %93, label %89

89:                                               ; preds = %87
  %90 = getelementptr inbounds %"class.std::__1::__tree_node_base", %"class.std::__1::__tree_node_base"* %18, i64 0, i32 3
  %91 = load i8, i8* %90, align 8, !range !8
  %92 = icmp eq i8 %91, 0
  br i1 %92, label %149, label %93

93:                                               ; preds = %89, %87
  %94 = getelementptr inbounds %"class.std::__1::__tree_node_base", %"class.std::__1::__tree_node_base"* %10, i64 0, i32 2
  %95 = bitcast %"class.std::__1::__tree_end_node"* %16 to %"class.std::__1::__tree_node_base"*
  %96 = getelementptr inbounds %"class.std::__1::__tree_node_base", %"class.std::__1::__tree_node_base"* %10, i64 0, i32 0, i32 0
  %97 = load %"class.std::__1::__tree_node_base"*, %"class.std::__1::__tree_node_base"** %96, align 8
  %98 = icmp eq %"class.std::__1::__tree_node_base"* %97, %7
  br i1 %98, label %99, label %123

99:                                               ; preds = %93
  %100 = ptrtoint %"class.std::__1::__tree_end_node"* %16 to i64
  %101 = getelementptr inbounds %"class.std::__1::__tree_node_base", %"class.std::__1::__tree_node_base"* %10, i64 0, i32 0, i32 0
  %102 = getelementptr inbounds %"class.std::__1::__tree_node_base", %"class.std::__1::__tree_node_base"* %7, i64 0, i32 1
  %103 = load %"class.std::__1::__tree_node_base"*, %"class.std::__1::__tree_node_base"** %102, align 8
  store %"class.std::__1::__tree_node_base"* %103, %"class.std::__1::__tree_node_base"** %101, align 8
  %104 = icmp eq %"class.std::__1::__tree_node_base"* %103, null
  br i1 %104, label %110, label %105

105:                                              ; preds = %99
  %106 = getelementptr inbounds %"class.std::__1::__tree_node_base", %"class.std::__1::__tree_node_base"* %10, i64 0, i32 0
  %107 = getelementptr inbounds %"class.std::__1::__tree_node_base", %"class.std::__1::__tree_node_base"* %103, i64 0, i32 2
  store %"class.std::__1::__tree_end_node"* %106, %"class.std::__1::__tree_end_node"** %107, align 8
  %108 = bitcast %"class.std::__1::__tree_end_node"** %94 to i64*
  %109 = load i64, i64* %108, align 8
  br label %110

110:                                              ; preds = %99, %105
  %111 = phi i64 [ %109, %105 ], [ %100, %99 ]
  %112 = bitcast %"class.std::__1::__tree_end_node"** %8 to i64*
  store i64 %111, i64* %112, align 8
  %113 = load %"class.std::__1::__tree_end_node"*, %"class.std::__1::__tree_end_node"** %94, align 8
  %114 = getelementptr inbounds %"class.std::__1::__tree_end_node", %"class.std::__1::__tree_end_node"* %113, i64 0, i32 0
  %115 = load %"class.std::__1::__tree_node_base"*, %"class.std::__1::__tree_node_base"** %114, align 8
  %116 = icmp eq %"class.std::__1::__tree_node_base"* %115, %10
  %117 = getelementptr inbounds %"class.std::__1::__tree_end_node", %"class.std::__1::__tree_end_node"* %113, i64 1, i32 0
  %118 = select i1 %116, %"class.std::__1::__tree_node_base"** %114, %"class.std::__1::__tree_node_base"** %117
  store %"class.std::__1::__tree_node_base"* %7, %"class.std::__1::__tree_node_base"** %118, align 8
  store %"class.std::__1::__tree_node_base"* %10, %"class.std::__1::__tree_node_base"** %102, align 8
  %119 = getelementptr inbounds %"class.std::__1::__tree_node_base", %"class.std::__1::__tree_node_base"* %7, i64 0, i32 0
  store %"class.std::__1::__tree_end_node"* %119, %"class.std::__1::__tree_end_node"** %94, align 8
  %120 = getelementptr inbounds %"class.std::__1::__tree_node_base", %"class.std::__1::__tree_node_base"* %7, i64 0, i32 2
  %121 = bitcast %"class.std::__1::__tree_end_node"** %120 to %"class.std::__1::__tree_node_base"**
  %122 = load %"class.std::__1::__tree_node_base"*, %"class.std::__1::__tree_node_base"** %121, align 8
  br label %123

123:                                              ; preds = %93, %110
  %124 = phi %"class.std::__1::__tree_node_base"* [ %122, %110 ], [ %95, %93 ]
  %125 = phi %"class.std::__1::__tree_node_base"* [ %7, %110 ], [ %10, %93 ]
  %126 = getelementptr inbounds %"class.std::__1::__tree_node_base", %"class.std::__1::__tree_node_base"* %125, i64 0, i32 3
  store i8 1, i8* %126, align 8
  %127 = getelementptr inbounds %"class.std::__1::__tree_node_base", %"class.std::__1::__tree_node_base"* %124, i64 0, i32 3
  store i8 0, i8* %127, align 8
  %128 = getelementptr inbounds %"class.std::__1::__tree_node_base", %"class.std::__1::__tree_node_base"* %124, i64 0, i32 1
  %129 = load %"class.std::__1::__tree_node_base"*, %"class.std::__1::__tree_node_base"** %128, align 8
  %130 = getelementptr inbounds %"class.std::__1::__tree_node_base", %"class.std::__1::__tree_node_base"* %129, i64 0, i32 0, i32 0
  %131 = load %"class.std::__1::__tree_node_base"*, %"class.std::__1::__tree_node_base"** %130, align 8
  store %"class.std::__1::__tree_node_base"* %131, %"class.std::__1::__tree_node_base"** %128, align 8
  %132 = icmp eq %"class.std::__1::__tree_node_base"* %131, null
  br i1 %132, label %136, label %133

133:                                              ; preds = %123
  %134 = getelementptr inbounds %"class.std::__1::__tree_node_base", %"class.std::__1::__tree_node_base"* %124, i64 0, i32 0
  %135 = getelementptr inbounds %"class.std::__1::__tree_node_base", %"class.std::__1::__tree_node_base"* %131, i64 0, i32 2
  store %"class.std::__1::__tree_end_node"* %134, %"class.std::__1::__tree_end_node"** %135, align 8
  br label %136

136:                                              ; preds = %133, %123
  %137 = getelementptr inbounds %"class.std::__1::__tree_node_base", %"class.std::__1::__tree_node_base"* %124, i64 0, i32 2
  %138 = bitcast %"class.std::__1::__tree_end_node"** %137 to i64*
  %139 = load i64, i64* %138, align 8
  %140 = getelementptr inbounds %"class.std::__1::__tree_node_base", %"class.std::__1::__tree_node_base"* %129, i64 0, i32 2
  %141 = bitcast %"class.std::__1::__tree_end_node"** %140 to i64*
  store i64 %139, i64* %141, align 8
  %142 = load %"class.std::__1::__tree_end_node"*, %"class.std::__1::__tree_end_node"** %137, align 8
  %143 = getelementptr inbounds %"class.std::__1::__tree_end_node", %"class.std::__1::__tree_end_node"* %142, i64 0, i32 0
  %144 = load %"class.std::__1::__tree_node_base"*, %"class.std::__1::__tree_node_base"** %143, align 8
  %145 = icmp eq %"class.std::__1::__tree_node_base"* %144, %124
  %146 = getelementptr inbounds %"class.std::__1::__tree_end_node", %"class.std::__1::__tree_end_node"* %142, i64 1, i32 0
  %147 = select i1 %145, %"class.std::__1::__tree_node_base"** %143, %"class.std::__1::__tree_node_base"** %146
  store %"class.std::__1::__tree_node_base"* %129, %"class.std::__1::__tree_node_base"** %147, align 8
  store %"class.std::__1::__tree_node_base"* %124, %"class.std::__1::__tree_node_base"** %130, align 8
  %148 = getelementptr inbounds %"class.std::__1::__tree_node_base", %"class.std::__1::__tree_node_base"* %129, i64 0, i32 0
  store %"class.std::__1::__tree_end_node"* %148, %"class.std::__1::__tree_end_node"** %137, align 8
  br label %156

149:                                              ; preds = %89, %25
  %150 = phi i8* [ %26, %25 ], [ %90, %89 ]
  store i8 1, i8* %11, align 8
  %151 = icmp eq %"class.std::__1::__tree_node_base"* %20, %0
  %152 = getelementptr inbounds %"class.std::__1::__tree_end_node", %"class.std::__1::__tree_end_node"* %16, i64 3
  %153 = bitcast %"class.std::__1::__tree_end_node"* %152 to i8*
  %154 = zext i1 %151 to i8
  store i8 %154, i8* %153, align 8
  store i8 1, i8* %150, align 8
  %155 = icmp eq %"class.std::__1::__tree_node_base"* %20, %0
  br i1 %155, label %156, label %6

156:                                              ; preds = %6, %149, %2, %136, %74
  ret void
}

; Function Attrs: argmemonly nounwind
declare void @llvm.memset.p0i8.i64(i8* nocapture writeonly, i8, i64, i1 immarg) #5

; Function Attrs: noreturn
declare void @_ZNKSt3__120__vector_base_commonILb1EE20__throw_length_errorEv(%"class.std::__1::__vector_base_common"*) local_unnamed_addr #11

; Function Attrs: nounwind ssp uwtable
define linkonce_odr hidden %"class.std::__1::__tree_end_node"* @_ZNSt3__16__treeINS_12__value_typeIPN7content11WebContentsEN8printing25BackgroundPrintingManager16PrintingContentsEEENS_19__map_value_compareIS4_S8_NS_4lessIS4_EELb1EEENS_9allocatorIS8_EEE5eraseENS_21__tree_const_iteratorIS8_PNS_11__tree_nodeIS8_PvEElEE(%"class.std::__1::__tree.5"*, %"class.std::__1::__tree_end_node"*) local_unnamed_addr #0 comdat align 2 {
  %3 = getelementptr inbounds %"class.std::__1::__tree_end_node", %"class.std::__1::__tree_end_node"* %1, i64 1, i32 0
  %4 = load %"class.std::__1::__tree_node_base"*, %"class.std::__1::__tree_node_base"** %3, align 8
  %5 = icmp eq %"class.std::__1::__tree_node_base"* %4, null
  br i1 %5, label %6, label %14

6:                                                ; preds = %2
  %7 = bitcast %"class.std::__1::__tree_end_node"* %1 to %"class.std::__1::__tree_node_base"*
  %8 = getelementptr inbounds %"class.std::__1::__tree_end_node", %"class.std::__1::__tree_end_node"* %1, i64 2
  %9 = bitcast %"class.std::__1::__tree_end_node"* %8 to %"class.std::__1::__tree_end_node"**
  %10 = load %"class.std::__1::__tree_end_node"*, %"class.std::__1::__tree_end_node"** %9, align 8
  %11 = getelementptr inbounds %"class.std::__1::__tree_end_node", %"class.std::__1::__tree_end_node"* %10, i64 0, i32 0
  %12 = load %"class.std::__1::__tree_node_base"*, %"class.std::__1::__tree_node_base"** %11, align 8
  %13 = icmp eq %"class.std::__1::__tree_node_base"* %12, %7
  br i1 %13, label %30, label %21

14:                                               ; preds = %2, %14
  %15 = phi %"class.std::__1::__tree_node_base"* [ %17, %14 ], [ %4, %2 ]
  %16 = getelementptr inbounds %"class.std::__1::__tree_node_base", %"class.std::__1::__tree_node_base"* %15, i64 0, i32 0, i32 0
  %17 = load %"class.std::__1::__tree_node_base"*, %"class.std::__1::__tree_node_base"** %16, align 8
  %18 = icmp eq %"class.std::__1::__tree_node_base"* %17, null
  br i1 %18, label %19, label %14

19:                                               ; preds = %14
  %20 = getelementptr inbounds %"class.std::__1::__tree_node_base", %"class.std::__1::__tree_node_base"* %15, i64 0, i32 0
  br label %30

21:                                               ; preds = %6, %21
  %22 = phi %"class.std::__1::__tree_end_node"** [ %25, %21 ], [ %9, %6 ]
  %23 = bitcast %"class.std::__1::__tree_end_node"** %22 to %"class.std::__1::__tree_node_base"**
  %24 = load %"class.std::__1::__tree_node_base"*, %"class.std::__1::__tree_node_base"** %23, align 8
  %25 = getelementptr inbounds %"class.std::__1::__tree_node_base", %"class.std::__1::__tree_node_base"* %24, i64 0, i32 2
  %26 = load %"class.std::__1::__tree_end_node"*, %"class.std::__1::__tree_end_node"** %25, align 8
  %27 = getelementptr inbounds %"class.std::__1::__tree_end_node", %"class.std::__1::__tree_end_node"* %26, i64 0, i32 0
  %28 = load %"class.std::__1::__tree_node_base"*, %"class.std::__1::__tree_node_base"** %27, align 8
  %29 = icmp eq %"class.std::__1::__tree_node_base"* %28, %24
  br i1 %29, label %30, label %21

30:                                               ; preds = %21, %19, %6
  %31 = phi %"class.std::__1::__tree_end_node"* [ %20, %19 ], [ %10, %6 ], [ %26, %21 ]
  %32 = getelementptr inbounds %"class.std::__1::__tree.5", %"class.std::__1::__tree.5"* %0, i64 0, i32 0
  %33 = load %"class.std::__1::__tree_end_node"*, %"class.std::__1::__tree_end_node"** %32, align 8
  %34 = icmp eq %"class.std::__1::__tree_end_node"* %33, %1
  br i1 %34, label %35, label %38

35:                                               ; preds = %30
  %36 = ptrtoint %"class.std::__1::__tree_end_node"* %31 to i64
  %37 = bitcast %"class.std::__1::__tree.5"* %0 to i64*
  store i64 %36, i64* %37, align 8
  br label %38

38:                                               ; preds = %30, %35
  %39 = getelementptr inbounds %"class.std::__1::__tree.5", %"class.std::__1::__tree.5"* %0, i64 0, i32 2, i32 0, i32 0
  %40 = load i64, i64* %39, align 8
  %41 = add i64 %40, -1
  store i64 %41, i64* %39, align 8
  %42 = getelementptr inbounds %"class.std::__1::__tree.5", %"class.std::__1::__tree.5"* %0, i64 0, i32 1, i32 0, i32 0, i32 0
  %43 = load %"class.std::__1::__tree_node_base"*, %"class.std::__1::__tree_node_base"** %42, align 8
  %44 = bitcast %"class.std::__1::__tree_end_node"* %1 to %"class.std::__1::__tree_node_base"*
  tail call void @_ZNSt3__113__tree_removeIPNS_16__tree_node_baseIPvEEEEvT_S5_(%"class.std::__1::__tree_node_base"* %43, %"class.std::__1::__tree_node_base"* %44) #12
  %45 = getelementptr inbounds %"class.std::__1::__tree_end_node", %"class.std::__1::__tree_end_node"* %1, i64 6
  %46 = bitcast %"class.std::__1::__tree_end_node"* %45 to %"class.printing::BackgroundPrintingManager::Observer"**
  %47 = load %"class.printing::BackgroundPrintingManager::Observer"*, %"class.printing::BackgroundPrintingManager::Observer"** %46, align 8
  store %"class.printing::BackgroundPrintingManager::Observer"* null, %"class.printing::BackgroundPrintingManager::Observer"** %46, align 8
  %48 = icmp eq %"class.printing::BackgroundPrintingManager::Observer"* %47, null
  br i1 %48, label %54, label %49

49:                                               ; preds = %38
  %50 = bitcast %"class.printing::BackgroundPrintingManager::Observer"* %47 to void (%"class.printing::BackgroundPrintingManager::Observer"*)***
  %51 = load void (%"class.printing::BackgroundPrintingManager::Observer"*)**, void (%"class.printing::BackgroundPrintingManager::Observer"*)*** %50, align 8
  %52 = getelementptr inbounds void (%"class.printing::BackgroundPrintingManager::Observer"*)*, void (%"class.printing::BackgroundPrintingManager::Observer"*)** %51, i64 8
  %53 = load void (%"class.printing::BackgroundPrintingManager::Observer"*)*, void (%"class.printing::BackgroundPrintingManager::Observer"*)** %52, align 8
  tail call void %53(%"class.printing::BackgroundPrintingManager::Observer"* nonnull %47) #12
  br label %54

54:                                               ; preds = %49, %38
  %55 = getelementptr inbounds %"class.std::__1::__tree_end_node", %"class.std::__1::__tree_end_node"* %1, i64 5
  %56 = bitcast %"class.std::__1::__tree_end_node"* %55 to %"class.content::WebContents"**
  %57 = load %"class.content::WebContents"*, %"class.content::WebContents"** %56, align 8
  store %"class.content::WebContents"* null, %"class.content::WebContents"** %56, align 8
  %58 = icmp eq %"class.content::WebContents"* %57, null
  br i1 %58, label %64, label %59

59:                                               ; preds = %54
  %60 = bitcast %"class.content::WebContents"* %57 to void (%"class.content::WebContents"*)***
  %61 = load void (%"class.content::WebContents"*)**, void (%"class.content::WebContents"*)*** %60, align 8
  %62 = getelementptr inbounds void (%"class.content::WebContents"*)*, void (%"class.content::WebContents"*)** %61, i64 1
  %63 = load void (%"class.content::WebContents"*)*, void (%"class.content::WebContents"*)** %62, align 8
  tail call void %63(%"class.content::WebContents"* nonnull %57) #12
  br label %64

64:                                               ; preds = %54, %59
  %65 = bitcast %"class.std::__1::__tree_end_node"* %1 to i8*
  tail call void @_ZdlPv(i8* %65) #13
  ret %"class.std::__1::__tree_end_node"* %31
}

; Function Attrs: nounwind ssp uwtable
define linkonce_odr hidden void @_ZNSt3__113__tree_removeIPNS_16__tree_node_baseIPvEEEEvT_S5_(%"class.std::__1::__tree_node_base"*, %"class.std::__1::__tree_node_base"*) local_unnamed_addr #0 comdat {
  %3 = getelementptr inbounds %"class.std::__1::__tree_node_base", %"class.std::__1::__tree_node_base"* %1, i64 0, i32 0, i32 0
  %4 = load %"class.std::__1::__tree_node_base"*, %"class.std::__1::__tree_node_base"** %3, align 8
  %5 = icmp eq %"class.std::__1::__tree_node_base"* %4, null
  br i1 %5, label %17, label %6

6:                                                ; preds = %2
  %7 = getelementptr inbounds %"class.std::__1::__tree_node_base", %"class.std::__1::__tree_node_base"* %1, i64 0, i32 1
  %8 = load %"class.std::__1::__tree_node_base"*, %"class.std::__1::__tree_node_base"** %7, align 8
  %9 = icmp eq %"class.std::__1::__tree_node_base"* %8, null
  br i1 %9, label %15, label %10

10:                                               ; preds = %6, %10
  %11 = phi %"class.std::__1::__tree_node_base"* [ %13, %10 ], [ %8, %6 ]
  %12 = getelementptr inbounds %"class.std::__1::__tree_node_base", %"class.std::__1::__tree_node_base"* %11, i64 0, i32 0, i32 0
  %13 = load %"class.std::__1::__tree_node_base"*, %"class.std::__1::__tree_node_base"** %12, align 8
  %14 = icmp eq %"class.std::__1::__tree_node_base"* %13, null
  br i1 %14, label %17, label %10

15:                                               ; preds = %6
  %16 = getelementptr inbounds %"class.std::__1::__tree_node_base", %"class.std::__1::__tree_node_base"* %1, i64 0, i32 0, i32 0
  br label %23

17:                                               ; preds = %10, %2
  %18 = phi %"class.std::__1::__tree_node_base"* [ %1, %2 ], [ %11, %10 ]
  %19 = getelementptr inbounds %"class.std::__1::__tree_node_base", %"class.std::__1::__tree_node_base"* %18, i64 0, i32 0, i32 0
  %20 = getelementptr inbounds %"class.std::__1::__tree_node_base", %"class.std::__1::__tree_node_base"* %18, i64 0, i32 1
  %21 = load %"class.std::__1::__tree_node_base"*, %"class.std::__1::__tree_node_base"** %20, align 8
  %22 = icmp eq %"class.std::__1::__tree_node_base"* %21, null
  br i1 %22, label %32, label %23

23:                                               ; preds = %15, %17
  %24 = phi %"class.std::__1::__tree_node_base"** [ %19, %17 ], [ %16, %15 ]
  %25 = phi %"class.std::__1::__tree_node_base"* [ %18, %17 ], [ %1, %15 ]
  %26 = phi %"class.std::__1::__tree_node_base"* [ %21, %17 ], [ %4, %15 ]
  %27 = getelementptr inbounds %"class.std::__1::__tree_node_base", %"class.std::__1::__tree_node_base"* %25, i64 0, i32 2
  %28 = bitcast %"class.std::__1::__tree_end_node"** %27 to i64*
  %29 = load i64, i64* %28, align 8
  %30 = getelementptr inbounds %"class.std::__1::__tree_node_base", %"class.std::__1::__tree_node_base"* %26, i64 0, i32 2
  %31 = bitcast %"class.std::__1::__tree_end_node"** %30 to i64*
  store i64 %29, i64* %31, align 8
  br label %32

32:                                               ; preds = %17, %23
  %33 = phi %"class.std::__1::__tree_node_base"** [ %24, %23 ], [ %19, %17 ]
  %34 = phi %"class.std::__1::__tree_node_base"* [ %25, %23 ], [ %18, %17 ]
  %35 = phi i1 [ true, %23 ], [ false, %17 ]
  %36 = phi %"class.std::__1::__tree_node_base"* [ %26, %23 ], [ null, %17 ]
  %37 = getelementptr inbounds %"class.std::__1::__tree_node_base", %"class.std::__1::__tree_node_base"* %34, i64 0, i32 2
  %38 = load %"class.std::__1::__tree_end_node"*, %"class.std::__1::__tree_end_node"** %37, align 8
  %39 = getelementptr inbounds %"class.std::__1::__tree_end_node", %"class.std::__1::__tree_end_node"* %38, i64 0, i32 0
  %40 = load %"class.std::__1::__tree_node_base"*, %"class.std::__1::__tree_node_base"** %39, align 8
  %41 = icmp eq %"class.std::__1::__tree_node_base"* %40, %34
  br i1 %41, label %42, label %48

42:                                               ; preds = %32
  store %"class.std::__1::__tree_node_base"* %36, %"class.std::__1::__tree_node_base"** %39, align 8
  %43 = icmp eq %"class.std::__1::__tree_node_base"* %34, %0
  br i1 %43, label %55, label %44

44:                                               ; preds = %42
  %45 = bitcast %"class.std::__1::__tree_end_node"** %37 to %"class.std::__1::__tree_node_base"**
  %46 = load %"class.std::__1::__tree_node_base"*, %"class.std::__1::__tree_node_base"** %45, align 8
  %47 = getelementptr inbounds %"class.std::__1::__tree_node_base", %"class.std::__1::__tree_node_base"* %46, i64 0, i32 1
  br label %52

48:                                               ; preds = %32
  %49 = getelementptr inbounds %"class.std::__1::__tree_end_node", %"class.std::__1::__tree_end_node"* %38, i64 1, i32 0
  store %"class.std::__1::__tree_node_base"* %36, %"class.std::__1::__tree_node_base"** %49, align 8
  %50 = load %"class.std::__1::__tree_end_node"*, %"class.std::__1::__tree_end_node"** %37, align 8
  %51 = getelementptr inbounds %"class.std::__1::__tree_end_node", %"class.std::__1::__tree_end_node"* %50, i64 0, i32 0
  br label %52

52:                                               ; preds = %48, %44
  %53 = phi %"class.std::__1::__tree_node_base"** [ %47, %44 ], [ %51, %48 ]
  %54 = load %"class.std::__1::__tree_node_base"*, %"class.std::__1::__tree_node_base"** %53, align 8
  br label %55

55:                                               ; preds = %52, %42
  %56 = phi %"class.std::__1::__tree_node_base"* [ %36, %42 ], [ %0, %52 ]
  %57 = phi %"class.std::__1::__tree_node_base"* [ null, %42 ], [ %54, %52 ]
  %58 = getelementptr inbounds %"class.std::__1::__tree_node_base", %"class.std::__1::__tree_node_base"* %34, i64 0, i32 3
  %59 = load i8, i8* %58, align 8, !range !8
  %60 = icmp ne i8 %59, 0
  %61 = icmp eq %"class.std::__1::__tree_node_base"* %34, %1
  br i1 %61, label %90, label %62

62:                                               ; preds = %55
  %63 = getelementptr inbounds %"class.std::__1::__tree_node_base", %"class.std::__1::__tree_node_base"* %1, i64 0, i32 2
  %64 = bitcast %"class.std::__1::__tree_end_node"** %63 to i64*
  %65 = load i64, i64* %64, align 8
  %66 = bitcast %"class.std::__1::__tree_end_node"** %37 to i64*
  store i64 %65, i64* %66, align 8
  %67 = load %"class.std::__1::__tree_end_node"*, %"class.std::__1::__tree_end_node"** %63, align 8
  %68 = getelementptr inbounds %"class.std::__1::__tree_end_node", %"class.std::__1::__tree_end_node"* %67, i64 0, i32 0
  %69 = load %"class.std::__1::__tree_node_base"*, %"class.std::__1::__tree_node_base"** %68, align 8
  %70 = icmp eq %"class.std::__1::__tree_node_base"* %69, %1
  %71 = inttoptr i64 %65 to %"class.std::__1::__tree_node_base"*
  %72 = getelementptr inbounds %"class.std::__1::__tree_node_base", %"class.std::__1::__tree_node_base"* %71, i64 0, i32 1
  %73 = inttoptr i64 %65 to %"class.std::__1::__tree_end_node"*
  %74 = getelementptr inbounds %"class.std::__1::__tree_end_node", %"class.std::__1::__tree_end_node"* %73, i64 0, i32 0
  %75 = select i1 %70, %"class.std::__1::__tree_node_base"** %74, %"class.std::__1::__tree_node_base"** %72
  store %"class.std::__1::__tree_node_base"* %34, %"class.std::__1::__tree_node_base"** %75, align 8
  %76 = load %"class.std::__1::__tree_node_base"*, %"class.std::__1::__tree_node_base"** %3, align 8
  store %"class.std::__1::__tree_node_base"* %76, %"class.std::__1::__tree_node_base"** %33, align 8
  %77 = getelementptr inbounds %"class.std::__1::__tree_node_base", %"class.std::__1::__tree_node_base"* %34, i64 0, i32 0
  %78 = getelementptr inbounds %"class.std::__1::__tree_node_base", %"class.std::__1::__tree_node_base"* %76, i64 0, i32 2
  store %"class.std::__1::__tree_end_node"* %77, %"class.std::__1::__tree_end_node"** %78, align 8
  %79 = getelementptr inbounds %"class.std::__1::__tree_node_base", %"class.std::__1::__tree_node_base"* %1, i64 0, i32 1
  %80 = load %"class.std::__1::__tree_node_base"*, %"class.std::__1::__tree_node_base"** %79, align 8
  %81 = getelementptr inbounds %"class.std::__1::__tree_node_base", %"class.std::__1::__tree_node_base"* %34, i64 0, i32 1
  store %"class.std::__1::__tree_node_base"* %80, %"class.std::__1::__tree_node_base"** %81, align 8
  %82 = icmp eq %"class.std::__1::__tree_node_base"* %80, null
  br i1 %82, label %85, label %83

83:                                               ; preds = %62
  %84 = getelementptr inbounds %"class.std::__1::__tree_node_base", %"class.std::__1::__tree_node_base"* %80, i64 0, i32 2
  store %"class.std::__1::__tree_end_node"* %77, %"class.std::__1::__tree_end_node"** %84, align 8
  br label %85

85:                                               ; preds = %62, %83
  %86 = getelementptr inbounds %"class.std::__1::__tree_node_base", %"class.std::__1::__tree_node_base"* %1, i64 0, i32 3
  %87 = load i8, i8* %86, align 8, !range !8
  store i8 %87, i8* %58, align 8
  %88 = icmp eq %"class.std::__1::__tree_node_base"* %56, %1
  %89 = select i1 %88, %"class.std::__1::__tree_node_base"* %34, %"class.std::__1::__tree_node_base"* %56
  br label %90

90:                                               ; preds = %85, %55
  %91 = phi %"class.std::__1::__tree_node_base"* [ %56, %55 ], [ %89, %85 ]
  %92 = icmp ne %"class.std::__1::__tree_node_base"* %91, null
  %93 = and i1 %60, %92
  br i1 %93, label %94, label %382

94:                                               ; preds = %90
  br i1 %35, label %95, label %97

95:                                               ; preds = %94
  %96 = getelementptr inbounds %"class.std::__1::__tree_node_base", %"class.std::__1::__tree_node_base"* %36, i64 0, i32 3
  store i8 1, i8* %96, align 8
  br label %382

97:                                               ; preds = %94, %371
  %98 = phi %"class.std::__1::__tree_node_base"* [ %373, %371 ], [ %91, %94 ]
  %99 = phi %"class.std::__1::__tree_node_base"* [ %381, %371 ], [ %57, %94 ]
  %100 = getelementptr inbounds %"class.std::__1::__tree_node_base", %"class.std::__1::__tree_node_base"* %99, i64 0, i32 2
  %101 = load %"class.std::__1::__tree_end_node"*, %"class.std::__1::__tree_end_node"** %100, align 8
  %102 = getelementptr inbounds %"class.std::__1::__tree_end_node", %"class.std::__1::__tree_end_node"* %101, i64 0, i32 0
  %103 = load %"class.std::__1::__tree_node_base"*, %"class.std::__1::__tree_node_base"** %102, align 8
  %104 = icmp eq %"class.std::__1::__tree_node_base"* %103, %99
  %105 = getelementptr inbounds %"class.std::__1::__tree_node_base", %"class.std::__1::__tree_node_base"* %99, i64 0, i32 3
  %106 = load i8, i8* %105, align 8, !range !8
  %107 = icmp ne i8 %106, 0
  br i1 %104, label %242, label %108

108:                                              ; preds = %97
  br i1 %107, label %141, label %109

109:                                              ; preds = %108
  store i8 1, i8* %105, align 8
  %110 = bitcast %"class.std::__1::__tree_end_node"** %100 to %"class.std::__1::__tree_node_base"**
  %111 = getelementptr inbounds %"class.std::__1::__tree_end_node", %"class.std::__1::__tree_end_node"* %101, i64 3
  %112 = bitcast %"class.std::__1::__tree_end_node"* %111 to i8*
  store i8 0, i8* %112, align 8
  %113 = load %"class.std::__1::__tree_node_base"*, %"class.std::__1::__tree_node_base"** %110, align 8
  %114 = getelementptr inbounds %"class.std::__1::__tree_node_base", %"class.std::__1::__tree_node_base"* %113, i64 0, i32 1
  %115 = load %"class.std::__1::__tree_node_base"*, %"class.std::__1::__tree_node_base"** %114, align 8
  %116 = getelementptr inbounds %"class.std::__1::__tree_node_base", %"class.std::__1::__tree_node_base"* %115, i64 0, i32 0, i32 0
  %117 = load %"class.std::__1::__tree_node_base"*, %"class.std::__1::__tree_node_base"** %116, align 8
  store %"class.std::__1::__tree_node_base"* %117, %"class.std::__1::__tree_node_base"** %114, align 8
  %118 = icmp eq %"class.std::__1::__tree_node_base"* %117, null
  br i1 %118, label %122, label %119

119:                                              ; preds = %109
  %120 = getelementptr inbounds %"class.std::__1::__tree_node_base", %"class.std::__1::__tree_node_base"* %113, i64 0, i32 0
  %121 = getelementptr inbounds %"class.std::__1::__tree_node_base", %"class.std::__1::__tree_node_base"* %117, i64 0, i32 2
  store %"class.std::__1::__tree_end_node"* %120, %"class.std::__1::__tree_end_node"** %121, align 8
  br label %122

122:                                              ; preds = %119, %109
  %123 = getelementptr inbounds %"class.std::__1::__tree_node_base", %"class.std::__1::__tree_node_base"* %113, i64 0, i32 2
  %124 = bitcast %"class.std::__1::__tree_end_node"** %123 to i64*
  %125 = load i64, i64* %124, align 8
  %126 = getelementptr inbounds %"class.std::__1::__tree_node_base", %"class.std::__1::__tree_node_base"* %115, i64 0, i32 2
  %127 = bitcast %"class.std::__1::__tree_end_node"** %126 to i64*
  store i64 %125, i64* %127, align 8
  %128 = load %"class.std::__1::__tree_end_node"*, %"class.std::__1::__tree_end_node"** %123, align 8
  %129 = getelementptr inbounds %"class.std::__1::__tree_end_node", %"class.std::__1::__tree_end_node"* %128, i64 0, i32 0
  %130 = load %"class.std::__1::__tree_node_base"*, %"class.std::__1::__tree_node_base"** %129, align 8
  %131 = icmp eq %"class.std::__1::__tree_node_base"* %130, %113
  %132 = getelementptr inbounds %"class.std::__1::__tree_end_node", %"class.std::__1::__tree_end_node"* %128, i64 1, i32 0
  %133 = select i1 %131, %"class.std::__1::__tree_node_base"** %129, %"class.std::__1::__tree_node_base"** %132
  store %"class.std::__1::__tree_node_base"* %115, %"class.std::__1::__tree_node_base"** %133, align 8
  store %"class.std::__1::__tree_node_base"* %113, %"class.std::__1::__tree_node_base"** %116, align 8
  %134 = getelementptr inbounds %"class.std::__1::__tree_node_base", %"class.std::__1::__tree_node_base"* %115, i64 0, i32 0
  store %"class.std::__1::__tree_end_node"* %134, %"class.std::__1::__tree_end_node"** %123, align 8
  %135 = getelementptr inbounds %"class.std::__1::__tree_node_base", %"class.std::__1::__tree_node_base"* %99, i64 0, i32 0, i32 0
  %136 = load %"class.std::__1::__tree_node_base"*, %"class.std::__1::__tree_node_base"** %135, align 8
  %137 = icmp eq %"class.std::__1::__tree_node_base"* %98, %136
  %138 = select i1 %137, %"class.std::__1::__tree_node_base"* %99, %"class.std::__1::__tree_node_base"* %98
  %139 = getelementptr inbounds %"class.std::__1::__tree_node_base", %"class.std::__1::__tree_node_base"* %136, i64 0, i32 1
  %140 = load %"class.std::__1::__tree_node_base"*, %"class.std::__1::__tree_node_base"** %139, align 8
  br label %141

141:                                              ; preds = %122, %108
  %142 = phi %"class.std::__1::__tree_node_base"* [ %98, %108 ], [ %138, %122 ]
  %143 = phi %"class.std::__1::__tree_node_base"* [ %99, %108 ], [ %140, %122 ]
  %144 = getelementptr inbounds %"class.std::__1::__tree_node_base", %"class.std::__1::__tree_node_base"* %143, i64 0, i32 0, i32 0
  %145 = load %"class.std::__1::__tree_node_base"*, %"class.std::__1::__tree_node_base"** %144, align 8
  %146 = icmp eq %"class.std::__1::__tree_node_base"* %145, null
  br i1 %146, label %151, label %147

147:                                              ; preds = %141
  %148 = getelementptr inbounds %"class.std::__1::__tree_node_base", %"class.std::__1::__tree_node_base"* %145, i64 0, i32 3
  %149 = load i8, i8* %148, align 8, !range !8
  %150 = icmp eq i8 %149, 0
  br i1 %150, label %172, label %151

151:                                              ; preds = %147, %141
  %152 = getelementptr inbounds %"class.std::__1::__tree_node_base", %"class.std::__1::__tree_node_base"* %143, i64 0, i32 1
  %153 = load %"class.std::__1::__tree_node_base"*, %"class.std::__1::__tree_node_base"** %152, align 8
  %154 = icmp eq %"class.std::__1::__tree_node_base"* %153, null
  br i1 %154, label %159, label %155

155:                                              ; preds = %151
  %156 = getelementptr inbounds %"class.std::__1::__tree_node_base", %"class.std::__1::__tree_node_base"* %153, i64 0, i32 3
  %157 = load i8, i8* %156, align 8, !range !8
  %158 = icmp eq i8 %157, 0
  br i1 %158, label %177, label %159

159:                                              ; preds = %155, %151
  %160 = getelementptr inbounds %"class.std::__1::__tree_node_base", %"class.std::__1::__tree_node_base"* %143, i64 0, i32 3
  store i8 0, i8* %160, align 8
  %161 = getelementptr inbounds %"class.std::__1::__tree_node_base", %"class.std::__1::__tree_node_base"* %143, i64 0, i32 2
  %162 = bitcast %"class.std::__1::__tree_end_node"** %161 to %"class.std::__1::__tree_node_base"**
  %163 = load %"class.std::__1::__tree_node_base"*, %"class.std::__1::__tree_node_base"** %162, align 8
  %164 = icmp eq %"class.std::__1::__tree_node_base"* %163, %142
  br i1 %164, label %169, label %165

165:                                              ; preds = %159
  %166 = getelementptr inbounds %"class.std::__1::__tree_node_base", %"class.std::__1::__tree_node_base"* %163, i64 0, i32 3
  %167 = load i8, i8* %166, align 8, !range !8
  %168 = icmp eq i8 %167, 0
  br i1 %168, label %169, label %371

169:                                              ; preds = %165, %159
  %170 = phi %"class.std::__1::__tree_node_base"* [ %163, %165 ], [ %142, %159 ]
  %171 = getelementptr inbounds %"class.std::__1::__tree_node_base", %"class.std::__1::__tree_node_base"* %170, i64 0, i32 3
  store i8 1, i8* %171, align 8
  br label %382

172:                                              ; preds = %147
  %173 = getelementptr inbounds %"class.std::__1::__tree_node_base", %"class.std::__1::__tree_node_base"* %143, i64 0, i32 0, i32 0
  %174 = getelementptr inbounds %"class.std::__1::__tree_node_base", %"class.std::__1::__tree_node_base"* %143, i64 0, i32 1
  %175 = load %"class.std::__1::__tree_node_base"*, %"class.std::__1::__tree_node_base"** %174, align 8
  %176 = icmp eq %"class.std::__1::__tree_node_base"* %175, null
  br i1 %176, label %185, label %179

177:                                              ; preds = %155
  %178 = getelementptr inbounds %"class.std::__1::__tree_node_base", %"class.std::__1::__tree_node_base"* %143, i64 0, i32 0, i32 0
  br label %179

179:                                              ; preds = %177, %172
  %180 = phi %"class.std::__1::__tree_node_base"** [ %173, %172 ], [ %178, %177 ]
  %181 = phi %"class.std::__1::__tree_node_base"* [ %175, %172 ], [ %153, %177 ]
  %182 = getelementptr inbounds %"class.std::__1::__tree_node_base", %"class.std::__1::__tree_node_base"* %181, i64 0, i32 3
  %183 = load i8, i8* %182, align 8, !range !8
  %184 = icmp eq i8 %183, 0
  br i1 %184, label %209, label %185

185:                                              ; preds = %179, %172
  %186 = phi %"class.std::__1::__tree_node_base"** [ %180, %179 ], [ %173, %172 ]
  %187 = getelementptr inbounds %"class.std::__1::__tree_node_base", %"class.std::__1::__tree_node_base"* %145, i64 0, i32 3
  store i8 1, i8* %187, align 8
  %188 = getelementptr inbounds %"class.std::__1::__tree_node_base", %"class.std::__1::__tree_node_base"* %143, i64 0, i32 3
  store i8 0, i8* %188, align 8
  %189 = load %"class.std::__1::__tree_node_base"*, %"class.std::__1::__tree_node_base"** %186, align 8
  %190 = getelementptr inbounds %"class.std::__1::__tree_node_base", %"class.std::__1::__tree_node_base"* %189, i64 0, i32 1
  %191 = load %"class.std::__1::__tree_node_base"*, %"class.std::__1::__tree_node_base"** %190, align 8
  store %"class.std::__1::__tree_node_base"* %191, %"class.std::__1::__tree_node_base"** %186, align 8
  %192 = icmp eq %"class.std::__1::__tree_node_base"* %191, null
  br i1 %192, label %196, label %193

193:                                              ; preds = %185
  %194 = getelementptr inbounds %"class.std::__1::__tree_node_base", %"class.std::__1::__tree_node_base"* %143, i64 0, i32 0
  %195 = getelementptr inbounds %"class.std::__1::__tree_node_base", %"class.std::__1::__tree_node_base"* %191, i64 0, i32 2
  store %"class.std::__1::__tree_end_node"* %194, %"class.std::__1::__tree_end_node"** %195, align 8
  br label %196

196:                                              ; preds = %193, %185
  %197 = getelementptr inbounds %"class.std::__1::__tree_node_base", %"class.std::__1::__tree_node_base"* %143, i64 0, i32 2
  %198 = bitcast %"class.std::__1::__tree_end_node"** %197 to i64*
  %199 = load i64, i64* %198, align 8
  %200 = getelementptr inbounds %"class.std::__1::__tree_node_base", %"class.std::__1::__tree_node_base"* %189, i64 0, i32 2
  %201 = bitcast %"class.std::__1::__tree_end_node"** %200 to i64*
  store i64 %199, i64* %201, align 8
  %202 = load %"class.std::__1::__tree_end_node"*, %"class.std::__1::__tree_end_node"** %197, align 8
  %203 = getelementptr inbounds %"class.std::__1::__tree_end_node", %"class.std::__1::__tree_end_node"* %202, i64 0, i32 0
  %204 = load %"class.std::__1::__tree_node_base"*, %"class.std::__1::__tree_node_base"** %203, align 8
  %205 = icmp eq %"class.std::__1::__tree_node_base"* %204, %143
  %206 = getelementptr inbounds %"class.std::__1::__tree_end_node", %"class.std::__1::__tree_end_node"* %202, i64 1, i32 0
  %207 = select i1 %205, %"class.std::__1::__tree_node_base"** %203, %"class.std::__1::__tree_node_base"** %206
  store %"class.std::__1::__tree_node_base"* %189, %"class.std::__1::__tree_node_base"** %207, align 8
  store %"class.std::__1::__tree_node_base"* %143, %"class.std::__1::__tree_node_base"** %190, align 8
  %208 = getelementptr inbounds %"class.std::__1::__tree_node_base", %"class.std::__1::__tree_node_base"* %189, i64 0, i32 0
  store %"class.std::__1::__tree_end_node"* %208, %"class.std::__1::__tree_end_node"** %197, align 8
  br label %209

209:                                              ; preds = %179, %196
  %210 = phi %"class.std::__1::__tree_node_base"* [ %189, %196 ], [ %143, %179 ]
  %211 = getelementptr inbounds %"class.std::__1::__tree_node_base", %"class.std::__1::__tree_node_base"* %210, i64 0, i32 2
  %212 = bitcast %"class.std::__1::__tree_end_node"** %211 to %"class.std::__1::__tree_node_base"**
  %213 = load %"class.std::__1::__tree_node_base"*, %"class.std::__1::__tree_node_base"** %212, align 8
  %214 = getelementptr inbounds %"class.std::__1::__tree_node_base", %"class.std::__1::__tree_node_base"* %213, i64 0, i32 3
  %215 = load i8, i8* %214, align 8, !range !8
  %216 = getelementptr inbounds %"class.std::__1::__tree_node_base", %"class.std::__1::__tree_node_base"* %210, i64 0, i32 3
  store i8 %215, i8* %216, align 8
  store i8 1, i8* %214, align 8
  %217 = getelementptr inbounds %"class.std::__1::__tree_node_base", %"class.std::__1::__tree_node_base"* %210, i64 0, i32 1
  %218 = load %"class.std::__1::__tree_node_base"*, %"class.std::__1::__tree_node_base"** %217, align 8
  %219 = getelementptr inbounds %"class.std::__1::__tree_node_base", %"class.std::__1::__tree_node_base"* %218, i64 0, i32 3
  store i8 1, i8* %219, align 8
  %220 = load %"class.std::__1::__tree_node_base"*, %"class.std::__1::__tree_node_base"** %212, align 8
  %221 = getelementptr inbounds %"class.std::__1::__tree_node_base", %"class.std::__1::__tree_node_base"* %220, i64 0, i32 1
  %222 = load %"class.std::__1::__tree_node_base"*, %"class.std::__1::__tree_node_base"** %221, align 8
  %223 = getelementptr inbounds %"class.std::__1::__tree_node_base", %"class.std::__1::__tree_node_base"* %222, i64 0, i32 0, i32 0
  %224 = load %"class.std::__1::__tree_node_base"*, %"class.std::__1::__tree_node_base"** %223, align 8
  store %"class.std::__1::__tree_node_base"* %224, %"class.std::__1::__tree_node_base"** %221, align 8
  %225 = icmp eq %"class.std::__1::__tree_node_base"* %224, null
  br i1 %225, label %229, label %226

226:                                              ; preds = %209
  %227 = getelementptr inbounds %"class.std::__1::__tree_node_base", %"class.std::__1::__tree_node_base"* %220, i64 0, i32 0
  %228 = getelementptr inbounds %"class.std::__1::__tree_node_base", %"class.std::__1::__tree_node_base"* %224, i64 0, i32 2
  store %"class.std::__1::__tree_end_node"* %227, %"class.std::__1::__tree_end_node"** %228, align 8
  br label %229

229:                                              ; preds = %226, %209
  %230 = getelementptr inbounds %"class.std::__1::__tree_node_base", %"class.std::__1::__tree_node_base"* %220, i64 0, i32 2
  %231 = bitcast %"class.std::__1::__tree_end_node"** %230 to i64*
  %232 = load i64, i64* %231, align 8
  %233 = getelementptr inbounds %"class.std::__1::__tree_node_base", %"class.std::__1::__tree_node_base"* %222, i64 0, i32 2
  %234 = bitcast %"class.std::__1::__tree_end_node"** %233 to i64*
  store i64 %232, i64* %234, align 8
  %235 = load %"class.std::__1::__tree_end_node"*, %"class.std::__1::__tree_end_node"** %230, align 8
  %236 = getelementptr inbounds %"class.std::__1::__tree_end_node", %"class.std::__1::__tree_end_node"* %235, i64 0, i32 0
  %237 = load %"class.std::__1::__tree_node_base"*, %"class.std::__1::__tree_node_base"** %236, align 8
  %238 = icmp eq %"class.std::__1::__tree_node_base"* %237, %220
  %239 = getelementptr inbounds %"class.std::__1::__tree_end_node", %"class.std::__1::__tree_end_node"* %235, i64 1, i32 0
  %240 = select i1 %238, %"class.std::__1::__tree_node_base"** %236, %"class.std::__1::__tree_node_base"** %239
  store %"class.std::__1::__tree_node_base"* %222, %"class.std::__1::__tree_node_base"** %240, align 8
  store %"class.std::__1::__tree_node_base"* %220, %"class.std::__1::__tree_node_base"** %223, align 8
  %241 = getelementptr inbounds %"class.std::__1::__tree_node_base", %"class.std::__1::__tree_node_base"* %222, i64 0, i32 0
  store %"class.std::__1::__tree_end_node"* %241, %"class.std::__1::__tree_end_node"** %230, align 8
  br label %382

242:                                              ; preds = %97
  br i1 %107, label %275, label %243

243:                                              ; preds = %242
  store i8 1, i8* %105, align 8
  %244 = bitcast %"class.std::__1::__tree_end_node"** %100 to %"class.std::__1::__tree_node_base"**
  %245 = getelementptr inbounds %"class.std::__1::__tree_end_node", %"class.std::__1::__tree_end_node"* %101, i64 3
  %246 = bitcast %"class.std::__1::__tree_end_node"* %245 to i8*
  store i8 0, i8* %246, align 8
  %247 = load %"class.std::__1::__tree_node_base"*, %"class.std::__1::__tree_node_base"** %244, align 8
  %248 = getelementptr inbounds %"class.std::__1::__tree_node_base", %"class.std::__1::__tree_node_base"* %247, i64 0, i32 0, i32 0
  %249 = load %"class.std::__1::__tree_node_base"*, %"class.std::__1::__tree_node_base"** %248, align 8
  %250 = getelementptr inbounds %"class.std::__1::__tree_node_base", %"class.std::__1::__tree_node_base"* %249, i64 0, i32 1
  %251 = load %"class.std::__1::__tree_node_base"*, %"class.std::__1::__tree_node_base"** %250, align 8
  store %"class.std::__1::__tree_node_base"* %251, %"class.std::__1::__tree_node_base"** %248, align 8
  %252 = icmp eq %"class.std::__1::__tree_node_base"* %251, null
  br i1 %252, label %256, label %253

253:                                              ; preds = %243
  %254 = getelementptr inbounds %"class.std::__1::__tree_node_base", %"class.std::__1::__tree_node_base"* %247, i64 0, i32 0
  %255 = getelementptr inbounds %"class.std::__1::__tree_node_base", %"class.std::__1::__tree_node_base"* %251, i64 0, i32 2
  store %"class.std::__1::__tree_end_node"* %254, %"class.std::__1::__tree_end_node"** %255, align 8
  br label %256

256:                                              ; preds = %253, %243
  %257 = getelementptr inbounds %"class.std::__1::__tree_node_base", %"class.std::__1::__tree_node_base"* %247, i64 0, i32 2
  %258 = bitcast %"class.std::__1::__tree_end_node"** %257 to i64*
  %259 = load i64, i64* %258, align 8
  %260 = getelementptr inbounds %"class.std::__1::__tree_node_base", %"class.std::__1::__tree_node_base"* %249, i64 0, i32 2
  %261 = bitcast %"class.std::__1::__tree_end_node"** %260 to i64*
  store i64 %259, i64* %261, align 8
  %262 = load %"class.std::__1::__tree_end_node"*, %"class.std::__1::__tree_end_node"** %257, align 8
  %263 = getelementptr inbounds %"class.std::__1::__tree_end_node", %"class.std::__1::__tree_end_node"* %262, i64 0, i32 0
  %264 = load %"class.std::__1::__tree_node_base"*, %"class.std::__1::__tree_node_base"** %263, align 8
  %265 = icmp eq %"class.std::__1::__tree_node_base"* %264, %247
  %266 = getelementptr inbounds %"class.std::__1::__tree_end_node", %"class.std::__1::__tree_end_node"* %262, i64 1, i32 0
  %267 = select i1 %265, %"class.std::__1::__tree_node_base"** %263, %"class.std::__1::__tree_node_base"** %266
  store %"class.std::__1::__tree_node_base"* %249, %"class.std::__1::__tree_node_base"** %267, align 8
  store %"class.std::__1::__tree_node_base"* %247, %"class.std::__1::__tree_node_base"** %250, align 8
  %268 = getelementptr inbounds %"class.std::__1::__tree_node_base", %"class.std::__1::__tree_node_base"* %249, i64 0, i32 0
  store %"class.std::__1::__tree_end_node"* %268, %"class.std::__1::__tree_end_node"** %257, align 8
  %269 = getelementptr inbounds %"class.std::__1::__tree_node_base", %"class.std::__1::__tree_node_base"* %99, i64 0, i32 1
  %270 = load %"class.std::__1::__tree_node_base"*, %"class.std::__1::__tree_node_base"** %269, align 8
  %271 = icmp eq %"class.std::__1::__tree_node_base"* %98, %270
  %272 = select i1 %271, %"class.std::__1::__tree_node_base"* %99, %"class.std::__1::__tree_node_base"* %98
  %273 = getelementptr inbounds %"class.std::__1::__tree_node_base", %"class.std::__1::__tree_node_base"* %270, i64 0, i32 0, i32 0
  %274 = load %"class.std::__1::__tree_node_base"*, %"class.std::__1::__tree_node_base"** %273, align 8
  br label %275

275:                                              ; preds = %256, %242
  %276 = phi %"class.std::__1::__tree_node_base"* [ %98, %242 ], [ %272, %256 ]
  %277 = phi %"class.std::__1::__tree_node_base"* [ %99, %242 ], [ %274, %256 ]
  %278 = getelementptr inbounds %"class.std::__1::__tree_node_base", %"class.std::__1::__tree_node_base"* %277, i64 0, i32 0, i32 0
  %279 = load %"class.std::__1::__tree_node_base"*, %"class.std::__1::__tree_node_base"** %278, align 8
  %280 = icmp eq %"class.std::__1::__tree_node_base"* %279, null
  br i1 %280, label %285, label %281

281:                                              ; preds = %275
  %282 = getelementptr inbounds %"class.std::__1::__tree_node_base", %"class.std::__1::__tree_node_base"* %279, i64 0, i32 3
  %283 = load i8, i8* %282, align 8, !range !8
  %284 = icmp eq i8 %283, 0
  br i1 %284, label %338, label %285

285:                                              ; preds = %281, %275
  %286 = getelementptr inbounds %"class.std::__1::__tree_node_base", %"class.std::__1::__tree_node_base"* %277, i64 0, i32 1
  %287 = load %"class.std::__1::__tree_node_base"*, %"class.std::__1::__tree_node_base"** %286, align 8
  %288 = icmp eq %"class.std::__1::__tree_node_base"* %287, null
  br i1 %288, label %293, label %289

289:                                              ; preds = %285
  %290 = getelementptr inbounds %"class.std::__1::__tree_node_base", %"class.std::__1::__tree_node_base"* %287, i64 0, i32 3
  %291 = load i8, i8* %290, align 8, !range !8
  %292 = icmp eq i8 %291, 0
  br i1 %292, label %305, label %293

293:                                              ; preds = %289, %285
  %294 = getelementptr inbounds %"class.std::__1::__tree_node_base", %"class.std::__1::__tree_node_base"* %277, i64 0, i32 3
  store i8 0, i8* %294, align 8
  %295 = getelementptr inbounds %"class.std::__1::__tree_node_base", %"class.std::__1::__tree_node_base"* %277, i64 0, i32 2
  %296 = bitcast %"class.std::__1::__tree_end_node"** %295 to %"class.std::__1::__tree_node_base"**
  %297 = load %"class.std::__1::__tree_node_base"*, %"class.std::__1::__tree_node_base"** %296, align 8
  %298 = getelementptr inbounds %"class.std::__1::__tree_node_base", %"class.std::__1::__tree_node_base"* %297, i64 0, i32 3
  %299 = load i8, i8* %298, align 8, !range !8
  %300 = icmp eq i8 %299, 0
  %301 = icmp eq %"class.std::__1::__tree_node_base"* %297, %276
  %302 = or i1 %301, %300
  br i1 %302, label %303, label %371

303:                                              ; preds = %293
  %304 = getelementptr inbounds %"class.std::__1::__tree_node_base", %"class.std::__1::__tree_node_base"* %297, i64 0, i32 3
  store i8 1, i8* %304, align 8
  br label %382

305:                                              ; preds = %289
  br i1 %280, label %313, label %306

306:                                              ; preds = %305
  %307 = getelementptr inbounds %"class.std::__1::__tree_node_base", %"class.std::__1::__tree_node_base"* %279, i64 0, i32 3
  %308 = load i8, i8* %307, align 8, !range !8
  %309 = icmp eq i8 %308, 0
  br i1 %309, label %338, label %310

310:                                              ; preds = %306
  %311 = getelementptr inbounds %"class.std::__1::__tree_node_base", %"class.std::__1::__tree_node_base"* %277, i64 0, i32 1
  %312 = load %"class.std::__1::__tree_node_base"*, %"class.std::__1::__tree_node_base"** %311, align 8
  br label %313

313:                                              ; preds = %310, %305
  %314 = phi %"class.std::__1::__tree_node_base"* [ %312, %310 ], [ %287, %305 ]
  %315 = getelementptr inbounds %"class.std::__1::__tree_node_base", %"class.std::__1::__tree_node_base"* %277, i64 0, i32 1
  %316 = getelementptr inbounds %"class.std::__1::__tree_node_base", %"class.std::__1::__tree_node_base"* %314, i64 0, i32 3
  store i8 1, i8* %316, align 8
  %317 = getelementptr inbounds %"class.std::__1::__tree_node_base", %"class.std::__1::__tree_node_base"* %277, i64 0, i32 3
  store i8 0, i8* %317, align 8
  %318 = load %"class.std::__1::__tree_node_base"*, %"class.std::__1::__tree_node_base"** %315, align 8
  %319 = getelementptr inbounds %"class.std::__1::__tree_node_base", %"class.std::__1::__tree_node_base"* %318, i64 0, i32 0, i32 0
  %320 = load %"class.std::__1::__tree_node_base"*, %"class.std::__1::__tree_node_base"** %319, align 8
  store %"class.std::__1::__tree_node_base"* %320, %"class.std::__1::__tree_node_base"** %315, align 8
  %321 = icmp eq %"class.std::__1::__tree_node_base"* %320, null
  br i1 %321, label %325, label %322

322:                                              ; preds = %313
  %323 = getelementptr inbounds %"class.std::__1::__tree_node_base", %"class.std::__1::__tree_node_base"* %277, i64 0, i32 0
  %324 = getelementptr inbounds %"class.std::__1::__tree_node_base", %"class.std::__1::__tree_node_base"* %320, i64 0, i32 2
  store %"class.std::__1::__tree_end_node"* %323, %"class.std::__1::__tree_end_node"** %324, align 8
  br label %325

325:                                              ; preds = %322, %313
  %326 = getelementptr inbounds %"class.std::__1::__tree_node_base", %"class.std::__1::__tree_node_base"* %277, i64 0, i32 2
  %327 = bitcast %"class.std::__1::__tree_end_node"** %326 to i64*
  %328 = load i64, i64* %327, align 8
  %329 = getelementptr inbounds %"class.std::__1::__tree_node_base", %"class.std::__1::__tree_node_base"* %318, i64 0, i32 2
  %330 = bitcast %"class.std::__1::__tree_end_node"** %329 to i64*
  store i64 %328, i64* %330, align 8
  %331 = load %"class.std::__1::__tree_end_node"*, %"class.std::__1::__tree_end_node"** %326, align 8
  %332 = getelementptr inbounds %"class.std::__1::__tree_end_node", %"class.std::__1::__tree_end_node"* %331, i64 0, i32 0
  %333 = load %"class.std::__1::__tree_node_base"*, %"class.std::__1::__tree_node_base"** %332, align 8
  %334 = icmp eq %"class.std::__1::__tree_node_base"* %333, %277
  %335 = getelementptr inbounds %"class.std::__1::__tree_end_node", %"class.std::__1::__tree_end_node"* %331, i64 1, i32 0
  %336 = select i1 %334, %"class.std::__1::__tree_node_base"** %332, %"class.std::__1::__tree_node_base"** %335
  store %"class.std::__1::__tree_node_base"* %318, %"class.std::__1::__tree_node_base"** %336, align 8
  store %"class.std::__1::__tree_node_base"* %277, %"class.std::__1::__tree_node_base"** %319, align 8
  %337 = getelementptr inbounds %"class.std::__1::__tree_node_base", %"class.std::__1::__tree_node_base"* %318, i64 0, i32 0
  store %"class.std::__1::__tree_end_node"* %337, %"class.std::__1::__tree_end_node"** %326, align 8
  br label %338

338:                                              ; preds = %281, %306, %325
  %339 = phi %"class.std::__1::__tree_node_base"* [ %318, %325 ], [ %277, %306 ], [ %277, %281 ]
  %340 = getelementptr inbounds %"class.std::__1::__tree_node_base", %"class.std::__1::__tree_node_base"* %339, i64 0, i32 2
  %341 = bitcast %"class.std::__1::__tree_end_node"** %340 to %"class.std::__1::__tree_node_base"**
  %342 = load %"class.std::__1::__tree_node_base"*, %"class.std::__1::__tree_node_base"** %341, align 8
  %343 = getelementptr inbounds %"class.std::__1::__tree_node_base", %"class.std::__1::__tree_node_base"* %342, i64 0, i32 3
  %344 = load i8, i8* %343, align 8, !range !8
  %345 = getelementptr inbounds %"class.std::__1::__tree_node_base", %"class.std::__1::__tree_node_base"* %339, i64 0, i32 3
  store i8 %344, i8* %345, align 8
  store i8 1, i8* %343, align 8
  %346 = getelementptr inbounds %"class.std::__1::__tree_node_base", %"class.std::__1::__tree_node_base"* %339, i64 0, i32 0, i32 0
  %347 = load %"class.std::__1::__tree_node_base"*, %"class.std::__1::__tree_node_base"** %346, align 8
  %348 = getelementptr inbounds %"class.std::__1::__tree_node_base", %"class.std::__1::__tree_node_base"* %347, i64 0, i32 3
  store i8 1, i8* %348, align 8
  %349 = load %"class.std::__1::__tree_node_base"*, %"class.std::__1::__tree_node_base"** %341, align 8
  %350 = getelementptr inbounds %"class.std::__1::__tree_node_base", %"class.std::__1::__tree_node_base"* %349, i64 0, i32 0, i32 0
  %351 = load %"class.std::__1::__tree_node_base"*, %"class.std::__1::__tree_node_base"** %350, align 8
  %352 = getelementptr inbounds %"class.std::__1::__tree_node_base", %"class.std::__1::__tree_node_base"* %351, i64 0, i32 1
  %353 = load %"class.std::__1::__tree_node_base"*, %"class.std::__1::__tree_node_base"** %352, align 8
  store %"class.std::__1::__tree_node_base"* %353, %"class.std::__1::__tree_node_base"** %350, align 8
  %354 = icmp eq %"class.std::__1::__tree_node_base"* %353, null
  br i1 %354, label %358, label %355

355:                                              ; preds = %338
  %356 = getelementptr inbounds %"class.std::__1::__tree_node_base", %"class.std::__1::__tree_node_base"* %349, i64 0, i32 0
  %357 = getelementptr inbounds %"class.std::__1::__tree_node_base", %"class.std::__1::__tree_node_base"* %353, i64 0, i32 2
  store %"class.std::__1::__tree_end_node"* %356, %"class.std::__1::__tree_end_node"** %357, align 8
  br label %358

358:                                              ; preds = %355, %338
  %359 = getelementptr inbounds %"class.std::__1::__tree_node_base", %"class.std::__1::__tree_node_base"* %349, i64 0, i32 2
  %360 = bitcast %"class.std::__1::__tree_end_node"** %359 to i64*
  %361 = load i64, i64* %360, align 8
  %362 = getelementptr inbounds %"class.std::__1::__tree_node_base", %"class.std::__1::__tree_node_base"* %351, i64 0, i32 2
  %363 = bitcast %"class.std::__1::__tree_end_node"** %362 to i64*
  store i64 %361, i64* %363, align 8
  %364 = load %"class.std::__1::__tree_end_node"*, %"class.std::__1::__tree_end_node"** %359, align 8
  %365 = getelementptr inbounds %"class.std::__1::__tree_end_node", %"class.std::__1::__tree_end_node"* %364, i64 0, i32 0
  %366 = load %"class.std::__1::__tree_node_base"*, %"class.std::__1::__tree_node_base"** %365, align 8
  %367 = icmp eq %"class.std::__1::__tree_node_base"* %366, %349
  %368 = getelementptr inbounds %"class.std::__1::__tree_end_node", %"class.std::__1::__tree_end_node"* %364, i64 1, i32 0
  %369 = select i1 %367, %"class.std::__1::__tree_node_base"** %365, %"class.std::__1::__tree_node_base"** %368
  store %"class.std::__1::__tree_node_base"* %351, %"class.std::__1::__tree_node_base"** %369, align 8
  store %"class.std::__1::__tree_node_base"* %349, %"class.std::__1::__tree_node_base"** %352, align 8
  %370 = getelementptr inbounds %"class.std::__1::__tree_node_base", %"class.std::__1::__tree_node_base"* %351, i64 0, i32 0
  store %"class.std::__1::__tree_end_node"* %370, %"class.std::__1::__tree_end_node"** %359, align 8
  br label %382

371:                                              ; preds = %293, %165
  %372 = phi %"class.std::__1::__tree_node_base"* [ %163, %165 ], [ %297, %293 ]
  %373 = phi %"class.std::__1::__tree_node_base"* [ %142, %165 ], [ %276, %293 ]
  %374 = getelementptr inbounds %"class.std::__1::__tree_node_base", %"class.std::__1::__tree_node_base"* %372, i64 0, i32 2
  %375 = load %"class.std::__1::__tree_end_node"*, %"class.std::__1::__tree_end_node"** %374, align 8
  %376 = getelementptr inbounds %"class.std::__1::__tree_end_node", %"class.std::__1::__tree_end_node"* %375, i64 0, i32 0
  %377 = load %"class.std::__1::__tree_node_base"*, %"class.std::__1::__tree_node_base"** %376, align 8
  %378 = icmp eq %"class.std::__1::__tree_node_base"* %377, %372
  %379 = getelementptr inbounds %"class.std::__1::__tree_end_node", %"class.std::__1::__tree_end_node"* %375, i64 1, i32 0
  %380 = select i1 %378, %"class.std::__1::__tree_node_base"** %379, %"class.std::__1::__tree_node_base"** %376
  %381 = load %"class.std::__1::__tree_node_base"*, %"class.std::__1::__tree_node_base"** %380, align 8
  br label %97

382:                                              ; preds = %95, %358, %303, %229, %169, %90
  ret void
}

declare zeroext i1 @_ZN4base19SequencedTaskRunner27DeleteOrReleaseSoonInternalERKNS_8LocationEPFvPKvES5_(%"class.base::SequencedTaskRunner"*, %"class.base::Location"* dereferenceable(32), void (i8*)*, i8*) local_unnamed_addr #1

; Function Attrs: nounwind ssp uwtable
define linkonce_odr hidden void @_ZN4base12DeleteHelperIN7content11WebContentsEE8DoDeleteEPKv(i8*) #0 comdat align 2 {
  %2 = icmp eq i8* %0, null
  br i1 %2, label %9, label %3

3:                                                ; preds = %1
  %4 = bitcast i8* %0 to %"class.content::WebContents"*
  %5 = bitcast i8* %0 to void (%"class.content::WebContents"*)***
  %6 = load void (%"class.content::WebContents"*)**, void (%"class.content::WebContents"*)*** %5, align 8
  %7 = getelementptr inbounds void (%"class.content::WebContents"*)*, void (%"class.content::WebContents"*)** %6, i64 1
  %8 = load void (%"class.content::WebContents"*)*, void (%"class.content::WebContents"*)** %7, align 8
  tail call void %8(%"class.content::WebContents"* nonnull %4) #12
  br label %9

9:                                                ; preds = %3, %1
  ret void
}

attributes #0 = { nounwind ssp uwtable "correctly-rounded-divide-sqrt-fp-math"="false" "disable-tail-calls"="false" "less-precise-fpmad"="false" "min-legal-vector-width"="0" "no-frame-pointer-elim"="false" "no-frame-pointer-elim-non-leaf" "no-infs-fp-math"="false" "no-jump-tables"="false" "no-nans-fp-math"="false" "no-signed-zeros-fp-math"="false" "no-trapping-math"="false" "null-pointer-is-valid"="true" "stack-protector-buffer-size"="4" "target-cpu"="x86-64" "target-features"="+cx8,+fxsr,+mmx,+sse,+sse2,+sse3,+x87" "unsafe-fp-math"="false" "use-soft-float"="false" }
attributes #1 = { "correctly-rounded-divide-sqrt-fp-math"="false" "disable-tail-calls"="false" "less-precise-fpmad"="false" "no-frame-pointer-elim"="false" "no-frame-pointer-elim-non-leaf" "no-infs-fp-math"="false" "no-nans-fp-math"="false" "no-signed-zeros-fp-math"="false" "no-trapping-math"="false" "null-pointer-is-valid"="true" "stack-protector-buffer-size"="4" "target-cpu"="x86-64" "target-features"="+cx8,+fxsr,+mmx,+sse,+sse2,+sse3,+x87" "unsafe-fp-math"="false" "use-soft-float"="false" }
attributes #2 = { nounwind "correctly-rounded-divide-sqrt-fp-math"="false" "disable-tail-calls"="false" "less-precise-fpmad"="false" "no-frame-pointer-elim"="false" "no-frame-pointer-elim-non-leaf" "no-infs-fp-math"="false" "no-nans-fp-math"="false" "no-signed-zeros-fp-math"="false" "no-trapping-math"="false" "null-pointer-is-valid"="true" "stack-protector-buffer-size"="4" "target-cpu"="x86-64" "target-features"="+cx8,+fxsr,+mmx,+sse,+sse2,+sse3,+x87" "unsafe-fp-math"="false" "use-soft-float"="false" }
attributes #3 = { nobuiltin nounwind "correctly-rounded-divide-sqrt-fp-math"="false" "disable-tail-calls"="false" "less-precise-fpmad"="false" "no-frame-pointer-elim"="false" "no-frame-pointer-elim-non-leaf" "no-infs-fp-math"="false" "no-nans-fp-math"="false" "no-signed-zeros-fp-math"="false" "no-trapping-math"="false" "null-pointer-is-valid"="true" "stack-protector-buffer-size"="4" "target-cpu"="x86-64" "target-features"="+cx8,+fxsr,+mmx,+sse,+sse2,+sse3,+x87" "unsafe-fp-math"="false" "use-soft-float"="false" }
attributes #4 = { norecurse nounwind readonly ssp uwtable "correctly-rounded-divide-sqrt-fp-math"="false" "disable-tail-calls"="false" "less-precise-fpmad"="false" "min-legal-vector-width"="0" "no-frame-pointer-elim"="false" "no-frame-pointer-elim-non-leaf" "no-infs-fp-math"="false" "no-jump-tables"="false" "no-nans-fp-math"="false" "no-signed-zeros-fp-math"="false" "no-trapping-math"="false" "null-pointer-is-valid"="true" "stack-protector-buffer-size"="4" "target-cpu"="x86-64" "target-features"="+cx8,+fxsr,+mmx,+sse,+sse2,+sse3,+x87" "unsafe-fp-math"="false" "use-soft-float"="false" }
attributes #5 = { argmemonly nounwind }
attributes #6 = { nofree norecurse nounwind ssp uwtable writeonly "correctly-rounded-divide-sqrt-fp-math"="false" "disable-tail-calls"="false" "less-precise-fpmad"="false" "min-legal-vector-width"="0" "no-frame-pointer-elim"="false" "no-frame-pointer-elim-non-leaf" "no-infs-fp-math"="false" "no-jump-tables"="false" "no-nans-fp-math"="false" "no-signed-zeros-fp-math"="false" "no-trapping-math"="false" "null-pointer-is-valid"="true" "stack-protector-buffer-size"="4" "target-cpu"="x86-64" "target-features"="+cx8,+fxsr,+mmx,+sse,+sse2,+sse3,+x87" "unsafe-fp-math"="false" "use-soft-float"="false" }
attributes #7 = { nofree norecurse nounwind ssp uwtable "correctly-rounded-divide-sqrt-fp-math"="false" "disable-tail-calls"="false" "less-precise-fpmad"="false" "min-legal-vector-width"="0" "no-frame-pointer-elim"="false" "no-frame-pointer-elim-non-leaf" "no-infs-fp-math"="false" "no-jump-tables"="false" "no-nans-fp-math"="false" "no-signed-zeros-fp-math"="false" "no-trapping-math"="false" "null-pointer-is-valid"="true" "stack-protector-buffer-size"="4" "target-cpu"="x86-64" "target-features"="+cx8,+fxsr,+mmx,+sse,+sse2,+sse3,+x87" "unsafe-fp-math"="false" "use-soft-float"="false" }
attributes #8 = { inlinehint nounwind ssp uwtable "correctly-rounded-divide-sqrt-fp-math"="false" "disable-tail-calls"="false" "less-precise-fpmad"="false" "min-legal-vector-width"="0" "no-frame-pointer-elim"="false" "no-frame-pointer-elim-non-leaf" "no-infs-fp-math"="false" "no-jump-tables"="false" "no-nans-fp-math"="false" "no-signed-zeros-fp-math"="false" "no-trapping-math"="false" "null-pointer-is-valid"="true" "stack-protector-buffer-size"="4" "target-cpu"="x86-64" "target-features"="+cx8,+fxsr,+mmx,+sse,+sse2,+sse3,+x87" "unsafe-fp-math"="false" "use-soft-float"="false" }
attributes #9 = { nobuiltin nofree "correctly-rounded-divide-sqrt-fp-math"="false" "disable-tail-calls"="false" "less-precise-fpmad"="false" "no-frame-pointer-elim"="false" "no-frame-pointer-elim-non-leaf" "no-infs-fp-math"="false" "no-nans-fp-math"="false" "no-signed-zeros-fp-math"="false" "no-trapping-math"="false" "null-pointer-is-valid"="true" "stack-protector-buffer-size"="4" "target-cpu"="x86-64" "target-features"="+cx8,+fxsr,+mmx,+sse,+sse2,+sse3,+x87" "unsafe-fp-math"="false" "use-soft-float"="false" }
attributes #10 = { noreturn nounwind "correctly-rounded-divide-sqrt-fp-math"="false" "disable-tail-calls"="false" "less-precise-fpmad"="false" "no-frame-pointer-elim"="false" "no-frame-pointer-elim-non-leaf" "no-infs-fp-math"="false" "no-nans-fp-math"="false" "no-signed-zeros-fp-math"="false" "no-trapping-math"="false" "null-pointer-is-valid"="true" "stack-protector-buffer-size"="4" "target-cpu"="x86-64" "target-features"="+cx8,+fxsr,+mmx,+sse,+sse2,+sse3,+x87" "unsafe-fp-math"="false" "use-soft-float"="false" }
attributes #11 = { noreturn "correctly-rounded-divide-sqrt-fp-math"="false" "disable-tail-calls"="false" "less-precise-fpmad"="false" "no-frame-pointer-elim"="false" "no-frame-pointer-elim-non-leaf" "no-infs-fp-math"="false" "no-nans-fp-math"="false" "no-signed-zeros-fp-math"="false" "no-trapping-math"="false" "null-pointer-is-valid"="true" "stack-protector-buffer-size"="4" "target-cpu"="x86-64" "target-features"="+cx8,+fxsr,+mmx,+sse,+sse2,+sse3,+x87" "unsafe-fp-math"="false" "use-soft-float"="false" }
attributes #12 = { nounwind }
attributes #13 = { builtin nounwind }
attributes #14 = { noreturn nounwind }

!llvm.module.flags = !{!0, !1}

!0 = !{i32 1, !"wchar_size", i32 4}
!1 = !{i32 7, !"PIC Level", i32 2}
!2 = !{!3}
!3 = distinct !{!3, !4, !"_ZNSt3__16__treeINS_12__value_typeIPN7content11WebContentsEN8printing25BackgroundPrintingManager16PrintingContentsEEENS_19__map_value_compareIS4_S8_NS_4lessIS4_EELb1EEENS_9allocatorIS8_EEE16__construct_nodeIJRKNS_21piecewise_construct_tENS_5tupleIJRKS4_EEENSK_IJEEEEEENS_10unique_ptrINS_11__tree_nodeIS8_PvEENS_22__tree_node_destructorINSD_ISS_EEEEEEDpOT_: argument 0"}
!4 = distinct !{!4, !"_ZNSt3__16__treeINS_12__value_typeIPN7content11WebContentsEN8printing25BackgroundPrintingManager16PrintingContentsEEENS_19__map_value_compareIS4_S8_NS_4lessIS4_EELb1EEENS_9allocatorIS8_EEE16__construct_nodeIJRKNS_21piecewise_construct_tENS_5tupleIJRKS4_EEENSK_IJEEEEEENS_10unique_ptrINS_11__tree_nodeIS8_PvEENS_22__tree_node_destructorINSD_ISS_EEEEEEDpOT_"}
!5 = !{!6}
!6 = distinct !{!6, !7, !"_ZNSt3__16__treeIPN7content11WebContentsENS_4lessIS3_EENS_9allocatorIS3_EEE16__construct_nodeIJRKS3_EEENS_10unique_ptrINS_11__tree_nodeIS3_PvEENS_22__tree_node_destructorINS6_ISF_EEEEEEDpOT_: argument 0"}
!7 = distinct !{!7, !"_ZNSt3__16__treeIPN7content11WebContentsENS_4lessIS3_EENS_9allocatorIS3_EEE16__construct_nodeIJRKS3_EEENS_10unique_ptrINS_11__tree_nodeIS3_PvEENS_22__tree_node_destructorINS6_ISF_EEEEEEDpOT_"}
!8 = !{i8 0, i8 2}
