; ModuleID = '../../third_party/blink/renderer/modules/background_fetch/background_fetch_icon_loader.cc'
source_filename = "../../third_party/blink/renderer/modules/background_fetch/background_fetch_icon_loader.cc"
target datalayout = "e-m:e-i64:64-f80:128-n8:16:32:64-S128"
target triple = "x86_64-unknown-linux-gnu"

module asm ".symver exp, exp@GLIBC_2.2.5"
module asm ".symver exp2, exp2@GLIBC_2.2.5"
module asm ".symver exp2f, exp2f@GLIBC_2.2.5"
module asm ".symver expf, expf@GLIBC_2.2.5"
module asm ".symver lgamma, lgamma@GLIBC_2.2.5"
module asm ".symver lgammaf, lgammaf@GLIBC_2.2.5"
module asm ".symver lgammal, lgammal@GLIBC_2.2.5"
module asm ".symver log, log@GLIBC_2.2.5"
module asm ".symver log2, log2@GLIBC_2.2.5"
module asm ".symver log2f, log2f@GLIBC_2.2.5"
module asm ".symver logf, logf@GLIBC_2.2.5"
module asm ".symver pow, pow@GLIBC_2.2.5"
module asm ".symver powf, powf@GLIBC_2.2.5"

%"class.WTF::ThreadSpecific" = type { %"class.blink::ThreadState"**, %"class.base::ThreadLocalStorage::Slot" }
%"class.blink::ThreadState" = type <{ %"class.std::__1::unique_ptr.193", i32, [4 x i8], %"class.std::__1::unique_ptr.331", %"class.std::__1::unique_ptr.331", i8**, i8, i8, i8, i8, i8, i8, [2 x i8], i64, i64, i32, i32, i32, [4 x i8], %"class.WTF::Deque", %"class.v8::Isolate"*, void (%"class.v8::Isolate"*, %"class.v8::EmbedderGraph"*, i8*)*, %"class.std::__1::unique_ptr.342", %"class.std::__1::unique_ptr.348", %"struct.blink::ThreadState::GCData", %"class.std::__1::unique_ptr.360", %"class.std::__1::unique_ptr.366", %"class.base::JobHandle", %"class.base::JobHandle", %"struct.std::__1::atomic.373", [7 x i8], i64, i8, [7 x i8], i64, %"class.base::TimeTicks", i8, i8, [6 x i8] }>
%"class.std::__1::unique_ptr.193" = type { %"class.std::__1::__compressed_pair.194" }
%"class.std::__1::__compressed_pair.194" = type { %"struct.std::__1::__compressed_pair_elem.195" }
%"struct.std::__1::__compressed_pair_elem.195" = type { %"class.blink::ThreadHeap"* }
%"class.blink::ThreadHeap" = type { %"class.blink::ThreadState"*, %"class.std::__1::unique_ptr.196", %"class.std::__1::unique_ptr.202", %"class.std::__1::unique_ptr.208", %"class.std::__1::unique_ptr.214", %"class.std::__1::unique_ptr.220", %"class.std::__1::unique_ptr.226", %"class.std::__1::unique_ptr.237", %"class.std::__1::unique_ptr.244", %"class.std::__1::unique_ptr.244", %"class.std::__1::unique_ptr.251", %"class.std::__1::unique_ptr.258", %"class.std::__1::unique_ptr.265", %"class.std::__1::unique_ptr.265", %"class.std::__1::unique_ptr.272", %"class.std::__1::unique_ptr.279", %"class.std::__1::unique_ptr.286", %"class.std::__1::unique_ptr.311", %"struct.blink::ThreadHeap::LastAllocatedRegion", [9 x %"class.blink::BaseArena"*], i64, i64 }
%"class.std::__1::unique_ptr.196" = type { %"class.std::__1::__compressed_pair.197" }
%"class.std::__1::__compressed_pair.197" = type { %"struct.std::__1::__compressed_pair_elem.198" }
%"struct.std::__1::__compressed_pair_elem.198" = type { %"class.blink::ThreadHeapStatsCollector"* }
%"class.blink::ThreadHeapStatsCollector" = type opaque
%"class.std::__1::unique_ptr.202" = type { %"class.std::__1::__compressed_pair.203" }
%"class.std::__1::__compressed_pair.203" = type { %"struct.std::__1::__compressed_pair_elem.204" }
%"struct.std::__1::__compressed_pair_elem.204" = type { %"class.blink::RegionTree"* }
%"class.blink::RegionTree" = type opaque
%"class.std::__1::unique_ptr.208" = type { %"class.std::__1::__compressed_pair.209" }
%"class.std::__1::__compressed_pair.209" = type { %"struct.std::__1::__compressed_pair_elem.210" }
%"struct.std::__1::__compressed_pair_elem.210" = type { %"class.blink::PageBloomFilter"* }
%"class.blink::PageBloomFilter" = type opaque
%"class.std::__1::unique_ptr.214" = type { %"class.std::__1::__compressed_pair.215" }
%"class.std::__1::__compressed_pair.215" = type { %"struct.std::__1::__compressed_pair_elem.216" }
%"struct.std::__1::__compressed_pair_elem.216" = type { %"class.blink::PagePool"* }
%"class.blink::PagePool" = type opaque
%"class.std::__1::unique_ptr.220" = type { %"class.std::__1::__compressed_pair.221" }
%"class.std::__1::__compressed_pair.221" = type { %"struct.std::__1::__compressed_pair_elem.222" }
%"struct.std::__1::__compressed_pair_elem.222" = type { %"class.blink::ProcessHeapReporter"* }
%"class.blink::ProcessHeapReporter" = type opaque
%"class.std::__1::unique_ptr.226" = type { %"class.std::__1::__compressed_pair.227" }
%"class.std::__1::__compressed_pair.227" = type { %"struct.std::__1::__compressed_pair_elem.228" }
%"struct.std::__1::__compressed_pair_elem.228" = type { %"class.blink::Worklist"* }
%"class.blink::Worklist" = type { [4 x %"struct.blink::Worklist<blink::TraceDescriptor, 512, 4>::PrivateSegmentHolder"], %"class.blink::Worklist<blink::TraceDescriptor, 512, 4>::GlobalPool" }
%"struct.blink::Worklist<blink::TraceDescriptor, 512, 4>::PrivateSegmentHolder" = type { %"class.blink::Worklist<blink::TraceDescriptor, 512, 4>::Segment"*, %"class.blink::Worklist<blink::TraceDescriptor, 512, 4>::Segment"*, [64 x i8] }
%"class.blink::Worklist<blink::TraceDescriptor, 512, 4>::Segment" = type { %"class.blink::Worklist<blink::TraceDescriptor, 512, 4>::Segment"*, i64, [512 x %"struct.blink::TraceDescriptor"] }
%"struct.blink::TraceDescriptor" = type { i8*, void (%"class.blink::Visitor"*, i8*)* }
%"class.blink::Visitor" = type { i32 (...)**, %"class.blink::ThreadState"* }
%"class.blink::Worklist<blink::TraceDescriptor, 512, 4>::GlobalPool" = type { %"class.base::Lock", %"class.blink::Worklist<blink::TraceDescriptor, 512, 4>::Segment"*, %"struct.std::__1::atomic.229" }
%"class.base::Lock" = type { %"class.base::internal::LockImpl" }
%"class.base::internal::LockImpl" = type { %union.pthread_mutex_t }
%union.pthread_mutex_t = type { %struct.__pthread_mutex_s }
%struct.__pthread_mutex_s = type { i32, i32, i32, i32, i32, i16, i16, %struct.__pthread_internal_list }
%struct.__pthread_internal_list = type { %struct.__pthread_internal_list*, %struct.__pthread_internal_list* }
%"struct.std::__1::atomic.229" = type { %"struct.std::__1::__atomic_base.230" }
%"struct.std::__1::__atomic_base.230" = type { %"struct.std::__1::__atomic_base.231" }
%"struct.std::__1::__atomic_base.231" = type { %"struct.std::__1::__cxx_atomic_impl.232" }
%"struct.std::__1::__cxx_atomic_impl.232" = type { %"struct.std::__1::__cxx_atomic_base_impl.233" }
%"struct.std::__1::__cxx_atomic_base_impl.233" = type { i64 }
%"class.std::__1::unique_ptr.237" = type { %"class.std::__1::__compressed_pair.238" }
%"class.std::__1::__compressed_pair.238" = type { %"struct.std::__1::__compressed_pair_elem.239" }
%"struct.std::__1::__compressed_pair_elem.239" = type { %"class.blink::Worklist.240"* }
%"class.blink::Worklist.240" = type { [4 x %"struct.blink::Worklist<blink::HeapObjectHeader *, 64, 4>::PrivateSegmentHolder"], %"class.blink::Worklist<blink::HeapObjectHeader *, 64, 4>::GlobalPool" }
%"struct.blink::Worklist<blink::HeapObjectHeader *, 64, 4>::PrivateSegmentHolder" = type { %"class.blink::Worklist<blink::HeapObjectHeader *, 64, 4>::Segment"*, %"class.blink::Worklist<blink::HeapObjectHeader *, 64, 4>::Segment"*, [64 x i8] }
%"class.blink::Worklist<blink::HeapObjectHeader *, 64, 4>::Segment" = type opaque
%"class.blink::Worklist<blink::HeapObjectHeader *, 64, 4>::GlobalPool" = type { %"class.base::Lock", %"class.blink::Worklist<blink::HeapObjectHeader *, 64, 4>::Segment"*, %"struct.std::__1::atomic.229" }
%"class.std::__1::unique_ptr.244" = type { %"class.std::__1::__compressed_pair.245" }
%"class.std::__1::__compressed_pair.245" = type { %"struct.std::__1::__compressed_pair_elem.246" }
%"struct.std::__1::__compressed_pair_elem.246" = type { %"class.blink::Worklist.247"* }
%"class.blink::Worklist.247" = type { [4 x %"struct.blink::Worklist<const void *, 16, 4>::PrivateSegmentHolder"], %"class.blink::Worklist<const void *, 16, 4>::GlobalPool" }
%"struct.blink::Worklist<const void *, 16, 4>::PrivateSegmentHolder" = type { %"class.blink::Worklist<const void *, 16, 4>::Segment"*, %"class.blink::Worklist<const void *, 16, 4>::Segment"*, [64 x i8] }
%"class.blink::Worklist<const void *, 16, 4>::Segment" = type { %"class.blink::Worklist<const void *, 16, 4>::Segment"*, i64, [16 x i8*] }
%"class.blink::Worklist<const void *, 16, 4>::GlobalPool" = type { %"class.base::Lock", %"class.blink::Worklist<const void *, 16, 4>::Segment"*, %"struct.std::__1::atomic.229" }
%"class.std::__1::unique_ptr.251" = type { %"class.std::__1::__compressed_pair.252" }
%"class.std::__1::__compressed_pair.252" = type { %"struct.std::__1::__compressed_pair_elem.253" }
%"struct.std::__1::__compressed_pair_elem.253" = type { %"class.blink::Worklist.254"* }
%"class.blink::Worklist.254" = type { [4 x %"struct.blink::Worklist<blink::CustomCallbackItem, 64, 4>::PrivateSegmentHolder"], %"class.blink::Worklist<blink::CustomCallbackItem, 64, 4>::GlobalPool" }
%"struct.blink::Worklist<blink::CustomCallbackItem, 64, 4>::PrivateSegmentHolder" = type { %"class.blink::Worklist<blink::CustomCallbackItem, 64, 4>::Segment"*, %"class.blink::Worklist<blink::CustomCallbackItem, 64, 4>::Segment"*, [64 x i8] }
%"class.blink::Worklist<blink::CustomCallbackItem, 64, 4>::Segment" = type opaque
%"class.blink::Worklist<blink::CustomCallbackItem, 64, 4>::GlobalPool" = type { %"class.base::Lock", %"class.blink::Worklist<blink::CustomCallbackItem, 64, 4>::Segment"*, %"struct.std::__1::atomic.229" }
%"class.std::__1::unique_ptr.258" = type { %"class.std::__1::__compressed_pair.259" }
%"class.std::__1::__compressed_pair.259" = type { %"struct.std::__1::__compressed_pair_elem.260" }
%"struct.std::__1::__compressed_pair_elem.260" = type { %"class.blink::Worklist.261"* }
%"class.blink::Worklist.261" = type { [4 x %"struct.blink::Worklist<const void *const *, 256, 4>::PrivateSegmentHolder"], %"class.blink::Worklist<const void *const *, 256, 4>::GlobalPool" }
%"struct.blink::Worklist<const void *const *, 256, 4>::PrivateSegmentHolder" = type { %"class.blink::Worklist<const void *const *, 256, 4>::Segment"*, %"class.blink::Worklist<const void *const *, 256, 4>::Segment"*, [64 x i8] }
%"class.blink::Worklist<const void *const *, 256, 4>::Segment" = type opaque
%"class.blink::Worklist<const void *const *, 256, 4>::GlobalPool" = type { %"class.base::Lock", %"class.blink::Worklist<const void *const *, 256, 4>::Segment"*, %"struct.std::__1::atomic.229" }
%"class.std::__1::unique_ptr.265" = type { %"class.std::__1::__compressed_pair.266" }
%"class.std::__1::__compressed_pair.266" = type { %"struct.std::__1::__compressed_pair_elem.267" }
%"struct.std::__1::__compressed_pair_elem.267" = type { %"class.blink::Worklist.268"* }
%"class.blink::Worklist.268" = type { [4 x %"struct.blink::Worklist<blink::EphemeronPairItem, 64, 4>::PrivateSegmentHolder"], %"class.blink::Worklist<blink::EphemeronPairItem, 64, 4>::GlobalPool" }
%"struct.blink::Worklist<blink::EphemeronPairItem, 64, 4>::PrivateSegmentHolder" = type { %"class.blink::Worklist<blink::EphemeronPairItem, 64, 4>::Segment"*, %"class.blink::Worklist<blink::EphemeronPairItem, 64, 4>::Segment"*, [64 x i8] }
%"class.blink::Worklist<blink::EphemeronPairItem, 64, 4>::Segment" = type opaque
%"class.blink::Worklist<blink::EphemeronPairItem, 64, 4>::GlobalPool" = type { %"class.base::Lock", %"class.blink::Worklist<blink::EphemeronPairItem, 64, 4>::Segment"*, %"struct.std::__1::atomic.229" }
%"class.std::__1::unique_ptr.272" = type { %"class.std::__1::__compressed_pair.273" }
%"class.std::__1::__compressed_pair.273" = type { %"struct.std::__1::__compressed_pair_elem.274" }
%"struct.std::__1::__compressed_pair_elem.274" = type { %"class.blink::Worklist.275"* }
%"class.blink::Worklist.275" = type { [4 x %"struct.blink::Worklist<const blink::TraceWrapperV8Reference<v8::Value> *, 16, 4>::PrivateSegmentHolder"], %"class.blink::Worklist<const blink::TraceWrapperV8Reference<v8::Value> *, 16, 4>::GlobalPool" }
%"struct.blink::Worklist<const blink::TraceWrapperV8Reference<v8::Value> *, 16, 4>::PrivateSegmentHolder" = type { %"class.blink::Worklist<const blink::TraceWrapperV8Reference<v8::Value> *, 16, 4>::Segment"*, %"class.blink::Worklist<const blink::TraceWrapperV8Reference<v8::Value> *, 16, 4>::Segment"*, [64 x i8] }
%"class.blink::Worklist<const blink::TraceWrapperV8Reference<v8::Value> *, 16, 4>::Segment" = type opaque
%"class.blink::Worklist<const blink::TraceWrapperV8Reference<v8::Value> *, 16, 4>::GlobalPool" = type { %"class.base::Lock", %"class.blink::Worklist<const blink::TraceWrapperV8Reference<v8::Value> *, 16, 4>::Segment"*, %"struct.std::__1::atomic.229" }
%"class.std::__1::unique_ptr.279" = type { %"class.std::__1::__compressed_pair.280" }
%"class.std::__1::__compressed_pair.280" = type { %"struct.std::__1::__compressed_pair_elem.281" }
%"struct.std::__1::__compressed_pair_elem.281" = type { %"class.blink::Worklist.282"* }
%"class.blink::Worklist.282" = type { [4 x %"struct.blink::Worklist<blink::NotSafeToConcurrentlyTraceItem, 64, 4>::PrivateSegmentHolder"], %"class.blink::Worklist<blink::NotSafeToConcurrentlyTraceItem, 64, 4>::GlobalPool" }
%"struct.blink::Worklist<blink::NotSafeToConcurrentlyTraceItem, 64, 4>::PrivateSegmentHolder" = type { %"class.blink::Worklist<blink::NotSafeToConcurrentlyTraceItem, 64, 4>::Segment"*, %"class.blink::Worklist<blink::NotSafeToConcurrentlyTraceItem, 64, 4>::Segment"*, [64 x i8] }
%"class.blink::Worklist<blink::NotSafeToConcurrentlyTraceItem, 64, 4>::Segment" = type { %"class.blink::Worklist<blink::NotSafeToConcurrentlyTraceItem, 64, 4>::Segment"*, i64, [64 x %"struct.blink::NotSafeToConcurrentlyTraceItem"] }
%"struct.blink::NotSafeToConcurrentlyTraceItem" = type { %"struct.blink::TraceDescriptor", i64 }
%"class.blink::Worklist<blink::NotSafeToConcurrentlyTraceItem, 64, 4>::GlobalPool" = type { %"class.base::Lock", %"class.blink::Worklist<blink::NotSafeToConcurrentlyTraceItem, 64, 4>::Segment"*, %"struct.std::__1::atomic.229" }
%"class.std::__1::unique_ptr.286" = type { %"class.std::__1::__compressed_pair.287" }
%"class.std::__1::__compressed_pair.287" = type { %"struct.std::__1::__compressed_pair_elem.288" }
%"struct.std::__1::__compressed_pair_elem.288" = type { %"class.blink::WeakContainersWorklist"* }
%"class.blink::WeakContainersWorklist" = type { %"class.WTF::Mutex", %"class.std::__1::unordered_set" }
%"class.WTF::Mutex" = type { %"class.WTF::MutexBase" }
%"class.WTF::MutexBase" = type { %"struct.WTF::PlatformMutex" }
%"struct.WTF::PlatformMutex" = type { %union.pthread_mutex_t }
%"class.std::__1::unordered_set" = type { %"class.std::__1::__hash_table" }
%"class.std::__1::__hash_table" = type <{ %"class.std::__1::unique_ptr.289", %"class.std::__1::__compressed_pair.298", %"class.std::__1::__compressed_pair.303", %"class.std::__1::__compressed_pair.305", [4 x i8] }>
%"class.std::__1::unique_ptr.289" = type { %"class.std::__1::__compressed_pair.290" }
%"class.std::__1::__compressed_pair.290" = type { %"struct.std::__1::__compressed_pair_elem.291", %"struct.std::__1::__compressed_pair_elem.292" }
%"struct.std::__1::__compressed_pair_elem.291" = type { %"struct.std::__1::__hash_node_base"** }
%"struct.std::__1::__hash_node_base" = type { %"struct.std::__1::__hash_node_base"* }
%"struct.std::__1::__compressed_pair_elem.292" = type { %"class.std::__1::__bucket_list_deallocator" }
%"class.std::__1::__bucket_list_deallocator" = type { %"class.std::__1::__compressed_pair.293" }
%"class.std::__1::__compressed_pair.293" = type { %"struct.std::__1::__compressed_pair_elem.294" }
%"struct.std::__1::__compressed_pair_elem.294" = type { i64 }
%"class.std::__1::__compressed_pair.298" = type { %"struct.std::__1::__compressed_pair_elem.299" }
%"struct.std::__1::__compressed_pair_elem.299" = type { %"struct.std::__1::__hash_node_base" }
%"class.std::__1::__compressed_pair.303" = type { %"struct.std::__1::__compressed_pair_elem.294" }
%"class.std::__1::__compressed_pair.305" = type { %"struct.std::__1::__compressed_pair_elem.306" }
%"struct.std::__1::__compressed_pair_elem.306" = type { float }
%"class.std::__1::unique_ptr.311" = type { %"class.std::__1::__compressed_pair.312" }
%"class.std::__1::__compressed_pair.312" = type { %"struct.std::__1::__compressed_pair_elem.313" }
%"struct.std::__1::__compressed_pair_elem.313" = type { %"class.blink::HeapCompact"* }
%"class.blink::HeapCompact" = type <{ %"class.blink::ThreadHeap"*, %"class.std::__1::unique_ptr.314", i8, [7 x i8], i64, i64, i32, [4 x i8], i64, i8, [7 x i8] }>
%"class.std::__1::unique_ptr.314" = type { %"class.std::__1::__compressed_pair.315" }
%"class.std::__1::__compressed_pair.315" = type { %"struct.std::__1::__compressed_pair_elem.316" }
%"struct.std::__1::__compressed_pair_elem.316" = type { %"class.blink::HeapCompact::MovableObjectFixups"* }
%"class.blink::HeapCompact::MovableObjectFixups" = type opaque
%"struct.blink::ThreadHeap::LastAllocatedRegion" = type { i8*, i64 }
%"class.blink::BaseArena" = type <{ i32 (...)**, %"class.blink::PageStackThreadSafe", %"class.blink::PageStackThreadSafe", %"class.blink::PageStackThreadSafe", %"class.blink::PageStackThreadSafe", %"class.blink::ThreadState"*, i32, [4 x i8] }>
%"class.blink::PageStackThreadSafe" = type { %"class.blink::PageStack", %"class.WTF::Mutex" }
%"class.blink::PageStack" = type { %"class.WTF::Vector.323" }
%"class.WTF::Vector.323" = type { %"class.WTF::VectorBuffer.324" }
%"class.WTF::VectorBuffer.324" = type { %"class.WTF::VectorBufferBase.325" }
%"class.WTF::VectorBufferBase.325" = type { %"class.blink::BasePage"**, i32, i32 }
%"class.blink::BasePage" = type <{ i32 (...)**, %"class.blink::PageMemory"*, %"class.blink::BaseArena"*, %"class.blink::ThreadState"*, i64, i8, i8, i8, [5 x i8] }>
%"class.blink::PageMemory" = type opaque
%"class.std::__1::unique_ptr.331" = type { %"class.std::__1::__compressed_pair.332" }
%"class.std::__1::__compressed_pair.332" = type { %"struct.std::__1::__compressed_pair_elem.333" }
%"struct.std::__1::__compressed_pair_elem.333" = type { %"class.blink::PersistentRegion"* }
%"class.blink::PersistentRegion" = type { %"class.blink::PersistentRegionBase" }
%"class.blink::PersistentRegionBase" = type { %"class.blink::PersistentNode"*, %"struct.blink::PersistentNodeSlots"* }
%"class.blink::PersistentNode" = type { i8*, void (%"class.blink::Visitor"*, i8*)* }
%"struct.blink::PersistentNodeSlots" = type { %"struct.blink::PersistentNodeSlots"*, [256 x %"class.blink::PersistentNode"] }
%"class.WTF::Deque" = type { %"class.WTF::Deque<std::__1::pair<void *, bool (*)(const blink::LivenessBroker &, void *)>, 0, WTF::PartitionAllocator>::BackingBuffer", i32, i32 }
%"class.WTF::Deque<std::__1::pair<void *, bool (*)(const blink::LivenessBroker &, void *)>, 0, WTF::PartitionAllocator>::BackingBuffer" = type { %"class.WTF::VectorBuffer.339" }
%"class.WTF::VectorBuffer.339" = type { %"class.WTF::VectorBufferBase.340" }
%"class.WTF::VectorBufferBase.340" = type { %"struct.std::__1::pair.341"*, i32, i32 }
%"struct.std::__1::pair.341" = type { i8*, i1 (%"class.blink::LivenessBroker"*, i8*)* }
%"class.blink::LivenessBroker" = type { i8 }
%"class.v8::Isolate" = type { i8 }
%"class.v8::EmbedderGraph" = type opaque
%"class.std::__1::unique_ptr.342" = type { %"class.std::__1::__compressed_pair.343" }
%"class.std::__1::__compressed_pair.343" = type { %"struct.std::__1::__compressed_pair_elem.344" }
%"struct.std::__1::__compressed_pair_elem.344" = type { %"class.blink::UnifiedHeapController"* }
%"class.blink::UnifiedHeapController" = type opaque
%"class.std::__1::unique_ptr.348" = type { %"class.std::__1::__compressed_pair.349" }
%"class.std::__1::__compressed_pair.349" = type { %"struct.std::__1::__compressed_pair_elem.350" }
%"struct.std::__1::__compressed_pair_elem.350" = type { %"class.v8::EmbedderRootsHandler"* }
%"class.v8::EmbedderRootsHandler" = type { i32 (...)** }
%"struct.blink::ThreadState::GCData" = type { i32, i32, i32, i32, %"class.std::__1::unique_ptr.354" }
%"class.std::__1::unique_ptr.354" = type { %"class.std::__1::__compressed_pair.355" }
%"class.std::__1::__compressed_pair.355" = type { %"struct.std::__1::__compressed_pair_elem.356" }
%"struct.std::__1::__compressed_pair_elem.356" = type { %"class.blink::MarkingVisitor"* }
%"class.blink::MarkingVisitor" = type { %"class.blink::MarkingVisitorBase", %"class.blink::MarkingVisitor::RecentlyRetracedWeakContainers" }
%"class.blink::MarkingVisitorBase" = type { %"class.blink::Visitor", %"class.blink::Worklist<blink::TraceDescriptor, 512, 4>::View", %"class.blink::Worklist<blink::HeapObjectHeader *, 64, 4>::View", %"class.blink::Worklist<const void *, 16, 4>::View", %"class.blink::Worklist<blink::CustomCallbackItem, 64, 4>::View", %"class.blink::Worklist<const void *const *, 256, 4>::View", %"class.blink::Worklist<blink::EphemeronPairItem, 64, 4>::View", %"class.blink::Worklist<blink::EphemeronPairItem, 64, 4>::View", %"class.blink::WeakContainersWorklist"*, i64, i32, i32 }
%"class.blink::Worklist<blink::TraceDescriptor, 512, 4>::View" = type <{ %"class.blink::Worklist"*, i32, [4 x i8] }>
%"class.blink::Worklist<blink::HeapObjectHeader *, 64, 4>::View" = type <{ %"class.blink::Worklist.240"*, i32, [4 x i8] }>
%"class.blink::Worklist<const void *, 16, 4>::View" = type <{ %"class.blink::Worklist.247"*, i32, [4 x i8] }>
%"class.blink::Worklist<blink::CustomCallbackItem, 64, 4>::View" = type <{ %"class.blink::Worklist.254"*, i32, [4 x i8] }>
%"class.blink::Worklist<const void *const *, 256, 4>::View" = type <{ %"class.blink::Worklist.261"*, i32, [4 x i8] }>
%"class.blink::Worklist<blink::EphemeronPairItem, 64, 4>::View" = type <{ %"class.blink::Worklist.268"*, i32, [4 x i8] }>
%"class.blink::MarkingVisitor::RecentlyRetracedWeakContainers" = type { %"class.std::__1::vector.475", i64 }
%"class.std::__1::vector.475" = type { %"class.std::__1::__vector_base.476" }
%"class.std::__1::__vector_base.476" = type { %"class.blink::HeapObjectHeader"**, %"class.blink::HeapObjectHeader"**, %"class.std::__1::__compressed_pair.477" }
%"class.blink::HeapObjectHeader" = type { i32, i16, i16 }
%"class.std::__1::__compressed_pair.477" = type { %"struct.std::__1::__compressed_pair_elem.478" }
%"struct.std::__1::__compressed_pair_elem.478" = type { %"class.blink::HeapObjectHeader"** }
%"class.std::__1::unique_ptr.360" = type { %"class.std::__1::__compressed_pair.361" }
%"class.std::__1::__compressed_pair.361" = type { %"struct.std::__1::__compressed_pair_elem.362" }
%"struct.std::__1::__compressed_pair_elem.362" = type { %"class.blink::ThreadState::IncrementalMarkingScheduler"* }
%"class.blink::ThreadState::IncrementalMarkingScheduler" = type opaque
%"class.std::__1::unique_ptr.366" = type { %"class.std::__1::__compressed_pair.367" }
%"class.std::__1::__compressed_pair.367" = type { %"struct.std::__1::__compressed_pair_elem.368" }
%"struct.std::__1::__compressed_pair_elem.368" = type { %"class.blink::MarkingSchedulingOracle"* }
%"class.blink::MarkingSchedulingOracle" = type opaque
%"class.base::JobHandle" = type { %class.scoped_refptr.372 }
%class.scoped_refptr.372 = type { %"class.base::internal::JobTaskSource"* }
%"class.base::internal::JobTaskSource" = type opaque
%"struct.std::__1::atomic.373" = type { %"struct.std::__1::__atomic_base.374" }
%"struct.std::__1::__atomic_base.374" = type { %"struct.std::__1::__cxx_atomic_impl.375" }
%"struct.std::__1::__cxx_atomic_impl.375" = type { %"struct.std::__1::__cxx_atomic_base_impl.376" }
%"struct.std::__1::__cxx_atomic_base_impl.376" = type { i8 }
%"class.base::TimeTicks" = type { %"class.base::time_internal::TimeBase" }
%"class.base::time_internal::TimeBase" = type { i64 }
%"class.base::ThreadLocalStorage::Slot" = type { i32, i32 }
%"struct.blink::GCInfo" = type { void (%"class.blink::Visitor"*, i8*)*, void (i8*)*, { i8*, i8 } (i8*)*, i8 }
%"class.blink::GCInfoTable" = type { %"struct.blink::GCInfo"**, i32, i32, %"class.WTF::Mutex" }
%"class.blink::AtomicEntryFlag" = type { %"struct.std::__1::atomic.22" }
%"struct.std::__1::atomic.22" = type { %"struct.std::__1::__atomic_base.23" }
%"struct.std::__1::__atomic_base.23" = type { %"struct.std::__1::__atomic_base.24" }
%"struct.std::__1::__atomic_base.24" = type { %"struct.std::__1::__cxx_atomic_impl.25" }
%"struct.std::__1::__cxx_atomic_impl.25" = type { %"struct.std::__1::__cxx_atomic_base_impl.26" }
%"struct.std::__1::__cxx_atomic_base_impl.26" = type { i32 }
%"class.blink::BackgroundFetchIconLoader" = type { %"class.blink::HeapVector", %"class.blink::Member.5", %"class.base::OnceCallback.34" }
%"class.blink::HeapVector" = type { %"class.WTF::Vector" }
%"class.WTF::Vector" = type { %"class.WTF::VectorBuffer" }
%"class.WTF::VectorBuffer" = type { %"class.WTF::VectorBufferBase" }
%"class.WTF::VectorBufferBase" = type { %"class.blink::Member"*, i32, i32 }
%"class.blink::Member" = type { %"class.blink::MemberBase" }
%"class.blink::MemberBase" = type { %"class.blink::ManifestImageResource"* }
%"class.blink::ManifestImageResource" = type { %"class.blink::IDLDictionaryBase", %"class.WTF::String", %"class.WTF::String", %"class.WTF::String", %"class.WTF::String", %"class.WTF::String" }
%"class.blink::IDLDictionaryBase" = type { i32 (...)** }
%"class.WTF::String" = type { %class.scoped_refptr }
%class.scoped_refptr = type { %"class.WTF::StringImpl"* }
%"class.WTF::StringImpl" = type { i32, i32, %"struct.std::__1::atomic" }
%"struct.std::__1::atomic" = type { %"struct.std::__1::__atomic_base" }
%"struct.std::__1::__atomic_base" = type { %"struct.std::__1::__atomic_base.4" }
%"struct.std::__1::__atomic_base.4" = type { %"struct.std::__1::__cxx_atomic_impl" }
%"struct.std::__1::__cxx_atomic_impl" = type { %"struct.std::__1::__cxx_atomic_base_impl" }
%"struct.std::__1::__cxx_atomic_base_impl" = type { i32 }
%"class.blink::Member.5" = type { %"class.blink::MemberBase.6" }
%"class.blink::MemberBase.6" = type { %"class.blink::ThreadedIconLoader"* }
%"class.blink::ThreadedIconLoader" = type <{ %"class.blink::ThreadableLoaderClient", %"class.blink::Member.9", %class.scoped_refptr.11, %"class.absl::optional", [4 x i8], %class.SkBitmap, %"class.base::OnceCallback", %"class.base::TimeTicks", i8, [7 x i8] }>
%"class.blink::ThreadableLoaderClient" = type { %"class.blink::GarbageCollectedMixin" }
%"class.blink::GarbageCollectedMixin" = type { i32 (...)** }
%"class.blink::Member.9" = type { %"class.blink::MemberBase.10" }
%"class.blink::MemberBase.10" = type { %"class.blink::ThreadableLoader"* }
%"class.blink::ThreadableLoader" = type <{ %"class.blink::RawResourceClient.base", [7 x i8], %"class.blink::Member.392", %"class.blink::Member.394", %"class.blink::Member.396", %"struct.blink::ResourceLoaderOptions", i32, [4 x i8], %"class.base::TimeDelta", %"class.blink::HeapTaskRunnerTimer", %"class.base::TimeTicks", %"class.blink::RawResourceClientStateChecker", [4 x i8] }>
%"class.blink::RawResourceClient.base" = type { %"class.blink::ResourceClient.base" }
%"class.blink::ResourceClient.base" = type <{ %"class.blink::GarbageCollectedMixin", %"class.blink::ThreadState::PrefinalizerRegistration", [7 x i8], %"class.blink::Member.37", i8 }>
%"class.blink::ThreadState::PrefinalizerRegistration" = type { i8 }
%"class.blink::Member.37" = type { %"class.blink::MemberBase.38" }
%"class.blink::MemberBase.38" = type { %"class.blink::Resource"* }
%"class.blink::Resource" = type { %"class.blink::MemoryPressureListener", i8, i8, %"class.absl::optional.41", %"class.base::TimeTicks", i64, i64, i64, %"class.WTF::String", i8, i8, i8, i8, i8, i8, i8, i8, %"class.blink::SubresourceIntegrity::ReportInfo", %"class.WTF::Vector.72", %"class.blink::HeapHashCountedSet", %"class.blink::HeapHashCountedSet", %"class.blink::HeapHashCountedSet", %"class.blink::HeapHashSet", %"struct.blink::ResourceLoaderOptions", %"class.base::Time", %"class.blink::TaskHandle", %"class.blink::ResourceRequestHead", i64, %"class.blink::Member.382", %"class.blink::ResourceResponse", %class.scoped_refptr.11, %"class.blink::WebScopedVirtualTimePauser", %"class.std::__1::set" }
%"class.blink::MemoryPressureListener" = type { %"class.blink::GarbageCollectedMixin" }
%"class.absl::optional.41" = type { %"class.absl::optional_internal::optional_data.42" }
%"class.absl::optional_internal::optional_data.42" = type { %"class.absl::optional_internal::optional_data_base.43" }
%"class.absl::optional_internal::optional_data_base.43" = type { %"class.absl::optional_internal::optional_data_dtor_base.44" }
%"class.absl::optional_internal::optional_data_dtor_base.44" = type { i8, %union.anon.45 }
%union.anon.45 = type { %"class.blink::ResourceError" }
%"class.blink::ResourceError" = type { i32, i32, %"struct.net::ResolveErrorInfo", %"class.blink::KURL", %"class.WTF::String", i8, i8, [6 x i8], %"class.absl::optional.48", i8, %"class.absl::optional.57", i32 }
%"struct.net::ResolveErrorInfo" = type <{ i32, i8, [3 x i8] }>
%"class.blink::KURL" = type { i8, i8, %"class.WTF::String", %"struct.url::Parsed", %"class.WTF::String", %"class.std::__1::unique_ptr.46" }
%"struct.url::Parsed" = type { %"struct.url::Component", %"struct.url::Component", %"struct.url::Component", %"struct.url::Component", %"struct.url::Component", %"struct.url::Component", %"struct.url::Component", %"struct.url::Component", i8, %"struct.url::Parsed"* }
%"struct.url::Component" = type { i32, i32 }
%"class.std::__1::unique_ptr.46" = type { %"class.std::__1::__compressed_pair" }
%"class.std::__1::__compressed_pair" = type { %"struct.std::__1::__compressed_pair_elem" }
%"struct.std::__1::__compressed_pair_elem" = type { %"class.blink::KURL"* }
%"class.absl::optional.48" = type { %"class.absl::optional_internal::optional_data.49" }
%"class.absl::optional_internal::optional_data.49" = type { %"class.absl::optional_internal::optional_data_base.50" }
%"class.absl::optional_internal::optional_data_base.50" = type { %"class.absl::optional_internal::optional_data_dtor_base.51" }
%"class.absl::optional_internal::optional_data_dtor_base.51" = type { i8, [7 x i8], %union.anon.52 }
%union.anon.52 = type { %"struct.network::CorsErrorStatus" }
%"struct.network::CorsErrorStatus" = type <{ i32, [4 x i8], %"class.std::__1::basic_string", i32, i8, [3 x i8] }>
%"class.std::__1::basic_string" = type { %"class.std::__1::__compressed_pair.53" }
%"class.std::__1::__compressed_pair.53" = type { %"struct.std::__1::__compressed_pair_elem.54" }
%"struct.std::__1::__compressed_pair_elem.54" = type { %"struct.std::__1::basic_string<char, std::__1::char_traits<char>, std::__1::allocator<char> >::__rep" }
%"struct.std::__1::basic_string<char, std::__1::char_traits<char>, std::__1::allocator<char> >::__rep" = type { %union.anon.55 }
%union.anon.55 = type { %"struct.std::__1::basic_string<char, std::__1::char_traits<char>, std::__1::allocator<char> >::__long" }
%"struct.std::__1::basic_string<char, std::__1::char_traits<char>, std::__1::allocator<char> >::__long" = type { i8*, i64, i64 }
%"class.absl::optional.57" = type { %"class.absl::optional_internal::optional_data.58" }
%"class.absl::optional_internal::optional_data.58" = type { %"class.absl::optional_internal::optional_data_base.59" }
%"class.absl::optional_internal::optional_data_base.59" = type { %"class.absl::optional_internal::optional_data_dtor_base.60" }
%"class.absl::optional_internal::optional_data_dtor_base.60" = type { i8, %union.anon.61 }
%union.anon.61 = type { i32 }
%"class.blink::SubresourceIntegrity::ReportInfo" = type { %"class.WTF::Vector.62", %"class.WTF::Vector.67" }
%"class.WTF::Vector.62" = type { %"class.WTF::VectorBuffer.63" }
%"class.WTF::VectorBuffer.63" = type { %"class.WTF::VectorBufferBase.64" }
%"class.WTF::VectorBufferBase.64" = type { i32*, i32, i32 }
%"class.WTF::Vector.67" = type { %"class.WTF::VectorBuffer.68" }
%"class.WTF::VectorBuffer.68" = type { %"class.WTF::VectorBufferBase.69" }
%"class.WTF::VectorBufferBase.69" = type { %"class.WTF::String"*, i32, i32 }
%"class.WTF::Vector.72" = type { %"class.WTF::VectorBuffer.73" }
%"class.WTF::VectorBuffer.73" = type { %"class.WTF::VectorBufferBase.74" }
%"class.WTF::VectorBufferBase.74" = type { %"struct.blink::Resource::RedirectPair"*, i32, i32 }
%"struct.blink::Resource::RedirectPair" = type { %"class.blink::ResourceRequestHead", %"class.blink::ResourceResponse" }
%"class.blink::HeapHashCountedSet" = type { %"class.WTF::HashCountedSet" }
%"class.WTF::HashCountedSet" = type { %"class.WTF::HashMap.166" }
%"class.WTF::HashMap.166" = type { %"class.WTF::HashTable.167" }
%"class.WTF::HashTable.167" = type <{ %"struct.WTF::KeyValuePair.169"*, i32, i32, i32, [4 x i8] }>
%"struct.WTF::KeyValuePair.169" = type <{ %"class.blink::WeakMember.657", i32, [4 x i8] }>
%"class.blink::WeakMember.657" = type { %"class.blink::MemberBase.658" }
%"class.blink::MemberBase.658" = type { %"class.blink::ResourceClient"* }
%"class.blink::ResourceClient" = type <{ %"class.blink::GarbageCollectedMixin", %"class.blink::ThreadState::PrefinalizerRegistration", [7 x i8], %"class.blink::Member.37", i8, [7 x i8] }>
%"class.blink::HeapHashSet" = type { %"class.WTF::HashSet" }
%"class.WTF::HashSet" = type { %"class.WTF::HashTable.172" }
%"class.WTF::HashTable.172" = type <{ %"class.blink::WeakMember"*, i32, i32, i32, [4 x i8] }>
%"class.blink::WeakMember" = type opaque
%"class.base::Time" = type { %"class.base::time_internal::TimeBase.129" }
%"class.base::time_internal::TimeBase.129" = type { i64 }
%"class.blink::TaskHandle" = type { %class.scoped_refptr.381 }
%class.scoped_refptr.381 = type { %"class.blink::TaskHandle::Runner"* }
%"class.blink::TaskHandle::Runner" = type opaque
%"class.blink::ResourceRequestHead" = type { %"class.blink::KURL", %"class.base::TimeDelta", %"class.net::SiteForCookies", %class.scoped_refptr.80, %class.scoped_refptr.80, %class.scoped_refptr.80, %"class.WTF::AtomicString", %"class.blink::HTTPHeaderMap", i16, i32, i8, i32, i32, i32, %class.scoped_refptr.83, i32, i32, i32, i32, i32, i32, %"class.WTF::String", %"class.WTF::String", i32, i8, i32, %"class.absl::optional.93", %"class.absl::optional.98", %"class.absl::optional.108", %"struct.blink::CacheControlHeader", i8, i8, i8, i8, %"class.absl::optional.118", %"class.absl::optional.108", %"class.WTF::String", %"class.WTF::String", %"class.WTF::String", %"class.absl::optional.108", i64, %"class.base::UnguessableToken", i64, i8, i8, i8, i8, i8, i8, %"class.absl::optional.118", %"class.absl::optional.123", i8, %class.scoped_refptr.128 }
%"class.net::SiteForCookies" = type <{ %"class.net::SchemefulSite", i8, [7 x i8] }>
%"class.net::SchemefulSite" = type { %"class.url::Origin" }
%"class.url::Origin" = type { %"class.url::SchemeHostPort", %"class.absl::optional.75" }
%"class.url::SchemeHostPort" = type <{ %"class.std::__1::basic_string", %"class.std::__1::basic_string", i16, [6 x i8] }>
%"class.absl::optional.75" = type { %"class.absl::optional_internal::optional_data.76" }
%"class.absl::optional_internal::optional_data.76" = type { %"class.absl::optional_internal::optional_data_base.77" }
%"class.absl::optional_internal::optional_data_base.77" = type { %"class.absl::optional_internal::optional_data_dtor_base.78" }
%"class.absl::optional_internal::optional_data_dtor_base.78" = type { i8, %union.anon.79 }
%union.anon.79 = type { %"class.url::Origin::Nonce" }
%"class.url::Origin::Nonce" = type { %"class.base::UnguessableToken" }
%class.scoped_refptr.80 = type { %"class.blink::SecurityOrigin"* }
%"class.blink::SecurityOrigin" = type { %"class.WTF::RefCounted.426", %"class.WTF::String", %"class.WTF::String", %"class.WTF::String", i16, %"class.absl::optional.75", i8, i8, i8, i8, i8, i8, %"class.base::UnguessableToken", %class.scoped_refptr.80 }
%"class.WTF::RefCounted.426" = type { %"class.base::RefCounted.427" }
%"class.base::RefCounted.427" = type { %"class.base::subtle::RefCountedBase" }
%"class.base::subtle::RefCountedBase" = type { i32 }
%"class.WTF::AtomicString" = type { %"class.WTF::String" }
%"class.blink::HTTPHeaderMap" = type { %"class.WTF::HashMap" }
%"class.WTF::HashMap" = type { %"class.WTF::HashTable" }
%"class.WTF::HashTable" = type <{ %"struct.WTF::KeyValuePair"*, i32, i32, i32, [4 x i8] }>
%"struct.WTF::KeyValuePair" = type { %"class.WTF::AtomicString", %"class.WTF::AtomicString" }
%class.scoped_refptr.83 = type { %"class.blink::WebURLRequestExtraData"* }
%"class.blink::WebURLRequestExtraData" = type { i32 (...)**, %"class.base::RefCounted.84", i8, i32, i8, i8, %"class.blink::WebString", %"class.blink::WebVector", %class.scoped_refptr.91, i8, %"class.url::Origin" }
%"class.base::RefCounted.84" = type { %"class.base::subtle::RefCountedBase" }
%"class.blink::WebString" = type { %class.scoped_refptr }
%"class.blink::WebVector" = type { %"class.std::__1::vector" }
%"class.std::__1::vector" = type { %"class.std::__1::__vector_base" }
%"class.std::__1::__vector_base" = type { %"class.std::__1::unique_ptr.85"*, %"class.std::__1::unique_ptr.85"*, %"class.std::__1::__compressed_pair.86" }
%"class.std::__1::unique_ptr.85" = type { %"class.std::__1::__compressed_pair.644" }
%"class.std::__1::__compressed_pair.644" = type { %"struct.std::__1::__compressed_pair_elem.645" }
%"struct.std::__1::__compressed_pair_elem.645" = type { %"class.blink::URLLoaderThrottle"* }
%"class.blink::URLLoaderThrottle" = type { i32 (...)**, %"class.blink::URLLoaderThrottle::Delegate"* }
%"class.blink::URLLoaderThrottle::Delegate" = type { i32 (...)** }
%"class.std::__1::__compressed_pair.86" = type { %"struct.std::__1::__compressed_pair_elem.87" }
%"struct.std::__1::__compressed_pair_elem.87" = type { %"class.std::__1::unique_ptr.85"* }
%class.scoped_refptr.91 = type { %"class.blink::WebFrameRequestBlocker"* }
%"class.blink::WebFrameRequestBlocker" = type <{ i32 (...)**, %"class.base::RefCountedThreadSafe.92", [4 x i8] }>
%"class.base::RefCountedThreadSafe.92" = type { %"class.base::subtle::RefCountedThreadSafeBase" }
%"class.base::subtle::RefCountedThreadSafeBase" = type { %"class.base::AtomicRefCount" }
%"class.base::AtomicRefCount" = type { %"struct.std::__1::atomic.22" }
%"class.absl::optional.93" = type { %"class.absl::optional_internal::optional_data.94" }
%"class.absl::optional_internal::optional_data.94" = type { %"class.absl::optional_internal::optional_data_base.95" }
%"class.absl::optional_internal::optional_data_base.95" = type { %"class.absl::optional_internal::optional_data_dtor_base.96" }
%"class.absl::optional_internal::optional_data_dtor_base.96" = type { i8, %union.anon.97 }
%union.anon.97 = type { %"struct.blink::ResourceRequestHead::RedirectInfo" }
%"struct.blink::ResourceRequestHead::RedirectInfo" = type { %"class.blink::KURL", %"class.blink::KURL" }
%"class.absl::optional.98" = type { %"class.absl::optional_internal::optional_data.99" }
%"class.absl::optional_internal::optional_data.99" = type { %"class.absl::optional_internal::optional_data_base.100" }
%"class.absl::optional_internal::optional_data_base.100" = type { %"class.absl::optional_internal::optional_data_dtor_base.101" }
%"class.absl::optional_internal::optional_data_dtor_base.101" = type { i8, %union.anon.102 }
%union.anon.102 = type { %"class.network::mojom::blink::TrustTokenParams" }
%"class.network::mojom::blink::TrustTokenParams" = type { i32, i32, i32, i8, %"class.WTF::Vector.103", %"class.WTF::Vector.67", %"class.WTF::String" }
%"class.WTF::Vector.103" = type { %"class.WTF::VectorBuffer.104" }
%"class.WTF::VectorBuffer.104" = type { %"class.WTF::VectorBufferBase.105" }
%"class.WTF::VectorBufferBase.105" = type { %class.scoped_refptr.80*, i32, i32 }
%"struct.blink::CacheControlHeader" = type { i8, %"class.absl::optional.113", %"class.absl::optional.113" }
%"class.absl::optional.113" = type { %"class.absl::optional_internal::optional_data.114" }
%"class.absl::optional_internal::optional_data.114" = type { %"class.absl::optional_internal::optional_data_base.115" }
%"class.absl::optional_internal::optional_data_base.115" = type { %"class.absl::optional_internal::optional_data_dtor_base.116" }
%"class.absl::optional_internal::optional_data_dtor_base.116" = type { i8, %union.anon.117 }
%union.anon.117 = type { %"class.base::TimeDelta" }
%"class.absl::optional.108" = type { %"class.absl::optional_internal::optional_data.109" }
%"class.absl::optional_internal::optional_data.109" = type { %"class.absl::optional_internal::optional_data_base.110" }
%"class.absl::optional_internal::optional_data_base.110" = type { %"class.absl::optional_internal::optional_data_dtor_base.111" }
%"class.absl::optional_internal::optional_data_dtor_base.111" = type { i8, %union.anon.112 }
%union.anon.112 = type { %"class.WTF::String" }
%"class.base::UnguessableToken" = type { %"class.base::Token" }
%"class.base::Token" = type { i64, i64 }
%"class.absl::optional.118" = type { %"class.absl::optional_internal::optional_data.119" }
%"class.absl::optional_internal::optional_data.119" = type { %"class.absl::optional_internal::optional_data_base.120" }
%"class.absl::optional_internal::optional_data_base.120" = type { %"class.absl::optional_internal::optional_data_dtor_base.121" }
%"class.absl::optional_internal::optional_data_dtor_base.121" = type { i8, %union.anon.122 }
%union.anon.122 = type { %"class.base::UnguessableToken" }
%"class.absl::optional.123" = type { %"class.absl::optional_internal::optional_data.124" }
%"class.absl::optional_internal::optional_data.124" = type { %"class.absl::optional_internal::optional_data_base.125" }
%"class.absl::optional_internal::optional_data_base.125" = type { %"class.absl::optional_internal::optional_data_dtor_base.126" }
%"class.absl::optional_internal::optional_data_dtor_base.126" = type { i8, %union.anon.127 }
%union.anon.127 = type { %"struct.blink::ResourceRequestHead::WebBundleTokenParams" }
%"struct.blink::ResourceRequestHead::WebBundleTokenParams" = type { %"class.blink::KURL", %"class.base::UnguessableToken", %"class.mojo::PendingRemote" }
%"class.mojo::PendingRemote" = type { %"struct.mojo::internal::PendingRemoteState" }
%"struct.mojo::internal::PendingRemoteState" = type { %"class.mojo::ScopedHandleBase", i32 }
%"class.mojo::ScopedHandleBase" = type { %"class.mojo::MessagePipeHandle" }
%"class.mojo::MessagePipeHandle" = type { %"class.mojo::Handle" }
%"class.mojo::Handle" = type { i32 }
%class.scoped_refptr.128 = type { %"class.base::RefCountedData"* }
%"class.base::RefCountedData" = type { %"class.base::RefCountedThreadSafe.649", %"class.base::internal::flat_tree" }
%"class.base::RefCountedThreadSafe.649" = type { %"class.base::subtle::RefCountedThreadSafeBase" }
%"class.base::internal::flat_tree" = type { %"class.std::__1::vector.650" }
%"class.std::__1::vector.650" = type { %"class.std::__1::__vector_base.651" }
%"class.std::__1::__vector_base.651" = type { i32*, i32*, %"class.std::__1::__compressed_pair.652" }
%"class.std::__1::__compressed_pair.652" = type { %"struct.std::__1::__compressed_pair_elem.653" }
%"struct.std::__1::__compressed_pair_elem.653" = type { i32* }
%"class.blink::Member.382" = type { %"class.blink::MemberBase.383" }
%"class.blink::MemberBase.383" = type { %"class.blink::ResourceLoader"* }
%"class.blink::ResourceLoader" = type opaque
%"class.blink::ResourceResponse" = type { %"class.blink::KURL", %"class.WTF::AtomicString", i64, %"class.WTF::AtomicString", i32, i32, %"class.WTF::AtomicString", %"class.blink::HTTPHeaderMap", %"class.net::IPEndPoint", i32, i8, i8, i8, i8, i8, i8, i8, i8, i32, i8, i8, i8, %"class.base::Time", i8, i8, i32, i8, i8, i8, i8, i8, i8, i8, i8, i8, i8, i32, i64, i8, i32, i32, %"class.absl::optional.130", %class.scoped_refptr.145, %class.scoped_refptr.146, %"struct.blink::CacheControlHeader", %"class.absl::optional.113", %"class.absl::optional.147", %"class.absl::optional.147", %"class.absl::optional.147", i64, %"class.blink::KURL", %"class.WTF::Vector.152", %"class.WTF::String", %"class.WTF::Vector.67", %"class.base::Time", %"class.WTF::AtomicString", i32, i8, i64, i64, i64, %"class.absl::optional.118", %"class.WTF::Vector.67", %"class.blink::KURL", %"class.absl::optional.157" }
%"class.net::IPEndPoint" = type { %"class.net::IPAddress", i16 }
%"class.net::IPAddress" = type { %"class.net::IPAddressBytes" }
%"class.net::IPAddressBytes" = type { %"struct.std::__1::array", i8 }
%"struct.std::__1::array" = type { [16 x i8] }
%"class.absl::optional.130" = type { %"class.absl::optional_internal::optional_data.131" }
%"class.absl::optional_internal::optional_data.131" = type { %"class.absl::optional_internal::optional_data_base.132" }
%"class.absl::optional_internal::optional_data_base.132" = type { %"class.absl::optional_internal::optional_data_dtor_base.133" }
%"class.absl::optional_internal::optional_data_dtor_base.133" = type { i8, %union.anon.134 }
%union.anon.134 = type { %"struct.blink::ResourceResponse::SecurityDetails" }
%"struct.blink::ResourceResponse::SecurityDetails" = type { %"class.WTF::String", %"class.WTF::String", %"class.WTF::String", %"class.WTF::String", %"class.WTF::String", %"class.WTF::String", %"class.WTF::Vector.67", %"class.WTF::String", i64, i64, %"class.WTF::Vector.135", %"class.WTF::Vector.140" }
%"class.WTF::Vector.135" = type { %"class.WTF::VectorBuffer.136" }
%"class.WTF::VectorBuffer.136" = type { %"class.WTF::VectorBufferBase.137" }
%"class.WTF::VectorBufferBase.137" = type { %"class.WTF::AtomicString"*, i32, i32 }
%"class.WTF::Vector.140" = type { %"class.WTF::VectorBuffer.141" }
%"class.WTF::VectorBuffer.141" = type { %"class.WTF::VectorBufferBase.142" }
%"class.WTF::VectorBufferBase.142" = type { %"class.blink::ResourceResponse::SignedCertificateTimestamp"*, i32, i32 }
%"class.blink::ResourceResponse::SignedCertificateTimestamp" = type { %"class.WTF::String", %"class.WTF::String", %"class.WTF::String", %"class.WTF::String", i64, %"class.WTF::String", %"class.WTF::String", %"class.WTF::String" }
%class.scoped_refptr.145 = type { %"class.blink::ResourceLoadTiming"* }
%"class.blink::ResourceLoadTiming" = type opaque
%class.scoped_refptr.146 = type { %"struct.blink::ResourceLoadInfo"* }
%"struct.blink::ResourceLoadInfo" = type opaque
%"class.absl::optional.147" = type { %"class.absl::optional_internal::optional_data.148" }
%"class.absl::optional_internal::optional_data.148" = type { %"class.absl::optional_internal::optional_data_base.149" }
%"class.absl::optional_internal::optional_data_base.149" = type { %"class.absl::optional_internal::optional_data_dtor_base.150" }
%"class.absl::optional_internal::optional_data_dtor_base.150" = type { i8, %union.anon.151 }
%union.anon.151 = type { %"class.base::Time" }
%"class.WTF::Vector.152" = type { %"class.WTF::VectorBuffer.153" }
%"class.WTF::VectorBuffer.153" = type { %"class.WTF::VectorBufferBase.154" }
%"class.WTF::VectorBufferBase.154" = type { %"class.blink::KURL"*, i32, i32 }
%"class.absl::optional.157" = type { %"class.absl::optional_internal::optional_data.158" }
%"class.absl::optional_internal::optional_data.158" = type { %"class.absl::optional_internal::optional_data_base.159" }
%"class.absl::optional_internal::optional_data_base.159" = type { %"class.absl::optional_internal::optional_data_dtor_base.160" }
%"class.absl::optional_internal::optional_data_dtor_base.160" = type { i8, %union.anon.161 }
%union.anon.161 = type { %"class.net::AuthChallengeInfo" }
%"class.net::AuthChallengeInfo" = type { i8, %"class.url::Origin", %"class.std::__1::basic_string", %"class.std::__1::basic_string", %"class.std::__1::basic_string", %"class.std::__1::basic_string" }
%"class.blink::WebScopedVirtualTimePauser" = type { %"class.base::TimeTicks", i8, i8, i32, %"class.blink::scheduler::MainThreadSchedulerImpl"*, %"class.blink::WebString", i64 }
%"class.blink::scheduler::MainThreadSchedulerImpl" = type opaque
%"class.std::__1::set" = type { %"class.std::__1::__tree" }
%"class.std::__1::__tree" = type { %"class.std::__1::__tree_end_node"*, %"class.std::__1::__compressed_pair.384", %"class.std::__1::__compressed_pair.389" }
%"class.std::__1::__tree_end_node" = type { %"class.std::__1::__tree_node_base"* }
%"class.std::__1::__tree_node_base" = type <{ %"class.std::__1::__tree_end_node", %"class.std::__1::__tree_node_base"*, %"class.std::__1::__tree_end_node"*, i8, [7 x i8] }>
%"class.std::__1::__compressed_pair.384" = type { %"struct.std::__1::__compressed_pair_elem.385" }
%"struct.std::__1::__compressed_pair_elem.385" = type { %"class.std::__1::__tree_end_node" }
%"class.std::__1::__compressed_pair.389" = type { %"struct.std::__1::__compressed_pair_elem.294" }
%"class.blink::Member.392" = type { %"class.blink::MemberBase.393" }
%"class.blink::MemberBase.393" = type { %"class.blink::ThreadableLoaderClient"* }
%"class.blink::Member.394" = type { %"class.blink::MemberBase.395" }
%"class.blink::MemberBase.395" = type { %"class.blink::ExecutionContext"* }
%"class.blink::ExecutionContext" = type <{ %"class.blink::Supplementable", %"class.blink::MojoBindingContext", %"class.blink::ConsoleLogger", %"class.blink::UseCounter", %"class.blink::FeatureContext", %"class.v8::Isolate"*, %"class.blink::SecurityContext", %"class.blink::Member.444", i32, i8, [3 x i8], %"class.blink::HeapVector.446", i32, i8, i8, i8, i8, i8, i8, [6 x i8], %"class.blink::Member.454", %"class.blink::Member.456", %"class.blink::DOMTimerCoordinator", i32, [4 x i8], %"class.std::__1::unique_ptr.465", %"class.blink::Member.471", %"class.blink::Member.473", i8, [7 x i8] }>
%"class.blink::Supplementable" = type { %"class.blink::GarbageCollectedMixin", %"class.blink::HeapHashMap.403" }
%"class.blink::HeapHashMap.403" = type { %"class.WTF::HashMap.406" }
%"class.WTF::HashMap.406" = type { %"class.WTF::HashTable.407" }
%"class.WTF::HashTable.407" = type <{ %"struct.WTF::KeyValuePair.409"*, i32, i32, i32, [4 x i8] }>
%"struct.WTF::KeyValuePair.409" = type opaque
%"class.blink::MojoBindingContext" = type { %"class.blink::ContextLifecycleNotifier", %"class.blink::Supplementable.417" }
%"class.blink::ContextLifecycleNotifier" = type { %"class.blink::GarbageCollectedMixin", %"class.blink::HeapObserverSet" }
%"class.blink::HeapObserverSet" = type { i32, [4 x i8], %"class.blink::HeapHashSet.410" }
%"class.blink::HeapHashSet.410" = type { %"class.WTF::HashSet.413" }
%"class.WTF::HashSet.413" = type { %"class.WTF::HashTable.414" }
%"class.WTF::HashTable.414" = type <{ %"class.blink::WeakMember.416"*, i32, i32, i32, [4 x i8] }>
%"class.blink::WeakMember.416" = type opaque
%"class.blink::Supplementable.417" = type { %"class.blink::GarbageCollectedMixin", %"class.blink::HeapHashMap.418" }
%"class.blink::HeapHashMap.418" = type { %"class.WTF::HashMap.421" }
%"class.WTF::HashMap.421" = type { %"class.WTF::HashTable.422" }
%"class.WTF::HashTable.422" = type <{ %"struct.WTF::KeyValuePair.424"*, i32, i32, i32, [4 x i8] }>
%"struct.WTF::KeyValuePair.424" = type { i8*, %"class.blink::Member.659" }
%"class.blink::Member.659" = type { %"class.blink::MemberBase.660" }
%"class.blink::MemberBase.660" = type { %"class.blink::Supplement.661"* }
%"class.blink::Supplement.661" = type { %"class.blink::GarbageCollectedMixin", %"class.blink::Member.662" }
%"class.blink::Member.662" = type { %"class.blink::MemberBase.663" }
%"class.blink::MemberBase.663" = type { %"class.blink::MojoBindingContext"* }
%"class.blink::ConsoleLogger" = type { %"class.blink::GarbageCollectedMixin" }
%"class.blink::UseCounter" = type { %"class.blink::GarbageCollectedMixin" }
%"class.blink::FeatureContext" = type { i32 (...)** }
%"class.blink::SecurityContext" = type { i32 (...)**, i32, %class.scoped_refptr.425, %"class.std::__1::unique_ptr.428", %"class.std::__1::unique_ptr.428", %"class.std::__1::unique_ptr.434", %"class.std::__1::unique_ptr.434", %"class.blink::Member.394", i32, [4 x i8], %"class.WTF::HashSet.440", i32, i32 }
%class.scoped_refptr.425 = type { %"class.blink::SecurityOrigin"* }
%"class.std::__1::unique_ptr.428" = type { %"class.std::__1::__compressed_pair.429" }
%"class.std::__1::__compressed_pair.429" = type { %"struct.std::__1::__compressed_pair_elem.430" }
%"struct.std::__1::__compressed_pair_elem.430" = type { %"class.blink::PermissionsPolicy"* }
%"class.blink::PermissionsPolicy" = type opaque
%"class.std::__1::unique_ptr.434" = type { %"class.std::__1::__compressed_pair.435" }
%"class.std::__1::__compressed_pair.435" = type { %"struct.std::__1::__compressed_pair_elem.436" }
%"struct.std::__1::__compressed_pair_elem.436" = type { %"class.blink::DocumentPolicy"* }
%"class.blink::DocumentPolicy" = type opaque
%"class.WTF::HashSet.440" = type { %"class.WTF::HashTable.441" }
%"class.WTF::HashTable.441" = type <{ i32*, i32, i32, i32, [4 x i8] }>
%"class.blink::Member.444" = type { %"class.blink::MemberBase.445" }
%"class.blink::MemberBase.445" = type { %"class.blink::Agent"* }
%"class.blink::Agent" = type opaque
%"class.blink::HeapVector.446" = type { %"class.WTF::Vector.449" }
%"class.WTF::Vector.449" = type { %"class.WTF::VectorBuffer.450" }
%"class.WTF::VectorBuffer.450" = type { %"class.WTF::VectorBufferBase.451" }
%"class.WTF::VectorBufferBase.451" = type { %"class.blink::Member.452"*, i32, i32 }
%"class.blink::Member.452" = type opaque
%"class.blink::Member.454" = type { %"class.blink::MemberBase.455" }
%"class.blink::MemberBase.455" = type { %"class.blink::PublicURLManager"* }
%"class.blink::PublicURLManager" = type opaque
%"class.blink::Member.456" = type { %"class.blink::MemberBase.457" }
%"class.blink::MemberBase.457" = type { %"class.blink::ContentSecurityPolicyDelegate"* }
%"class.blink::ContentSecurityPolicyDelegate" = type opaque
%"class.blink::DOMTimerCoordinator" = type { %"class.blink::HeapHashMap.458", i32, i32 }
%"class.blink::HeapHashMap.458" = type { %"class.WTF::HashMap.461" }
%"class.WTF::HashMap.461" = type { %"class.WTF::HashTable.462" }
%"class.WTF::HashTable.462" = type <{ %"struct.WTF::KeyValuePair.464"*, i32, i32, i32, [4 x i8] }>
%"struct.WTF::KeyValuePair.464" = type opaque
%"class.std::__1::unique_ptr.465" = type { %"class.std::__1::__compressed_pair.466" }
%"class.std::__1::__compressed_pair.466" = type { %"struct.std::__1::__compressed_pair_elem.467" }
%"struct.std::__1::__compressed_pair_elem.467" = type { %"class.blink::PolicyContainer"* }
%"class.blink::PolicyContainer" = type opaque
%"class.blink::Member.471" = type { %"class.blink::MemberBase.472" }
%"class.blink::MemberBase.472" = type { %"class.blink::OriginTrialContext"* }
%"class.blink::OriginTrialContext" = type opaque
%"class.blink::Member.473" = type { %"class.blink::MemberBase.474" }
%"class.blink::MemberBase.474" = type { %"class.blink::ContentSecurityPolicy"* }
%"class.blink::ContentSecurityPolicy" = type opaque
%"class.blink::Member.396" = type { %"class.blink::MemberBase.397" }
%"class.blink::MemberBase.397" = type { %"class.blink::ResourceFetcher"* }
%"class.blink::ResourceFetcher" = type opaque
%"struct.blink::ResourceLoaderOptions" = type { %"struct.blink::FetchInitiatorInfo", i8, i32, i8, i8, %"class.base::StrongAlias", %"class.WTF::String", %"class.WTF::HashSet.174", i8, i8, %class.scoped_refptr.178, %class.scoped_refptr.377, %class.scoped_refptr.379 }
%"struct.blink::FetchInitiatorInfo" = type { %"class.WTF::AtomicString", %"class.WTF::TextPosition", i8, i8, %"class.WTF::String" }
%"class.WTF::TextPosition" = type { %"class.WTF::OrdinalNumber", %"class.WTF::OrdinalNumber" }
%"class.WTF::OrdinalNumber" = type { i32 }
%"class.base::StrongAlias" = type { i8 }
%"class.WTF::HashSet.174" = type { %"class.WTF::HashTable.175" }
%"class.WTF::HashTable.175" = type <{ %"struct.std::__1::pair"*, i32, i32, i32, [4 x i8] }>
%"struct.std::__1::pair" = type opaque
%class.scoped_refptr.178 = type { %"class.blink::DOMWrapperWorld"* }
%"class.blink::DOMWrapperWorld" = type { %"class.WTF::RefCounted.179", i32, i32, %"class.blink::Persistent" }
%"class.WTF::RefCounted.179" = type { %"class.base::RefCounted.180" }
%"class.base::RefCounted.180" = type { %"class.base::subtle::RefCountedBase" }
%"class.blink::Persistent" = type { %"class.blink::PersistentBase" }
%"class.blink::PersistentBase" = type { %"class.blink::DOMDataStore"*, %"class.blink::PersistentNodePtr" }
%"class.blink::DOMDataStore" = type { i32 (...)**, i8, [7 x i8], %"class.blink::HeapHashMap" }
%"class.blink::HeapHashMap" = type { %"class.WTF::HashMap.185" }
%"class.WTF::HashMap.185" = type { %"class.WTF::HashTable.186" }
%"class.WTF::HashTable.186" = type <{ %"struct.WTF::KeyValuePair.188"*, i32, i32, i32, [4 x i8] }>
%"struct.WTF::KeyValuePair.188" = type { %"class.blink::WeakMember.189", %"class.blink::TraceWrapperV8Reference" }
%"class.blink::WeakMember.189" = type { %"class.blink::MemberBase.190" }
%"class.blink::MemberBase.190" = type { %"class.blink::ScriptWrappable"* }
%"class.blink::ScriptWrappable" = type { %"class.blink::NameClient", %"class.blink::TraceWrapperV8Reference" }
%"class.blink::NameClient" = type { i32 (...)** }
%"class.blink::TraceWrapperV8Reference" = type { %"class.v8::TracedReference" }
%"class.v8::TracedReference" = type { %"class.v8::BasicTracedReference" }
%"class.v8::BasicTracedReference" = type { %"class.v8::TracedReferenceBase" }
%"class.v8::TracedReferenceBase" = type { i64* }
%"class.blink::PersistentNodePtr" = type { %"class.blink::PersistentNode"* }
%class.scoped_refptr.377 = type { %"class.base::RefCountedData.378"* }
%"class.base::RefCountedData.378" = type opaque
%class.scoped_refptr.379 = type { %"class.base::RefCountedData.380"* }
%"class.base::RefCountedData.380" = type opaque
%"class.base::TimeDelta" = type { i64 }
%"class.blink::HeapTaskRunnerTimer" = type { %"class.blink::TimerBase", %"class.blink::WeakMember.402", { i64, i64 } }
%"class.blink::TimerBase" = type { i32 (...)**, %"class.base::TimeTicks", %"class.base::TimeDelta", %"class.base::Location", %class.scoped_refptr.398, %"class.base::WeakPtrFactory" }
%"class.base::Location" = type { i8*, i8*, i32, i8* }
%class.scoped_refptr.398 = type { %"class.base::SingleThreadTaskRunner"* }
%"class.base::SingleThreadTaskRunner" = type { %"class.base::SequencedTaskRunner.base", [4 x i8] }
%"class.base::SequencedTaskRunner.base" = type { %"class.base::TaskRunner.base" }
%"class.base::TaskRunner.base" = type <{ i32 (...)**, %"class.base::RefCountedThreadSafe.399" }>
%"class.base::RefCountedThreadSafe.399" = type { %"class.base::subtle::RefCountedThreadSafeBase" }
%"class.base::WeakPtrFactory" = type { %"class.base::internal::WeakPtrFactoryBase" }
%"class.base::internal::WeakPtrFactoryBase" = type { %"class.base::internal::WeakReferenceOwner", i64 }
%"class.base::internal::WeakReferenceOwner" = type { %class.scoped_refptr.400 }
%class.scoped_refptr.400 = type { %"class.base::internal::WeakReference::Flag"* }
%"class.base::internal::WeakReference::Flag" = type <{ %"class.base::RefCountedThreadSafe.401", %"class.base::AtomicFlag", [3 x i8] }>
%"class.base::RefCountedThreadSafe.401" = type { %"class.base::subtle::RefCountedThreadSafeBase" }
%"class.base::AtomicFlag" = type { %"struct.std::__1::atomic.27" }
%"struct.std::__1::atomic.27" = type { %"struct.std::__1::__atomic_base.28" }
%"struct.std::__1::__atomic_base.28" = type { %"struct.std::__1::__atomic_base.29" }
%"struct.std::__1::__atomic_base.29" = type { %"struct.std::__1::__cxx_atomic_impl.30" }
%"struct.std::__1::__cxx_atomic_impl.30" = type { %"struct.std::__1::__cxx_atomic_base_impl.31" }
%"struct.std::__1::__cxx_atomic_base_impl.31" = type { i8 }
%"class.blink::WeakMember.402" = type { %"class.blink::MemberBase.10" }
%"class.blink::RawResourceClientStateChecker" = type { i32 }
%class.scoped_refptr.11 = type { %"class.WTF::SharedBuffer"* }
%"class.WTF::SharedBuffer" = type { %"class.WTF::RefCounted", i64, %"class.WTF::Vector.12", %"class.WTF::Vector.16" }
%"class.WTF::RefCounted" = type { %"class.base::RefCounted" }
%"class.base::RefCounted" = type { %"class.base::subtle::RefCountedBase" }
%"class.WTF::Vector.12" = type { %"class.WTF::VectorBuffer.13" }
%"class.WTF::VectorBuffer.13" = type { %"class.WTF::VectorBufferBase.14" }
%"class.WTF::VectorBufferBase.14" = type { i8*, i32, i32 }
%"class.WTF::Vector.16" = type { %"class.WTF::VectorBuffer.17" }
%"class.WTF::VectorBuffer.17" = type { %"class.WTF::VectorBufferBase.18" }
%"class.WTF::VectorBufferBase.18" = type { %"class.std::__1::unique_ptr"*, i32, i32 }
%"class.std::__1::unique_ptr" = type opaque
%"class.absl::optional" = type { %"class.absl::optional_internal::optional_data" }
%"class.absl::optional_internal::optional_data" = type { %"class.absl::optional_internal::optional_data_base" }
%"class.absl::optional_internal::optional_data_base" = type { %"class.absl::optional_internal::optional_data_dtor_base" }
%"class.absl::optional_internal::optional_data_dtor_base" = type { i8, %union.anon }
%union.anon = type { %"class.gfx::Size" }
%"class.gfx::Size" = type { i32, i32 }
%class.SkBitmap = type { %class.sk_sp, %class.SkPixmap, %class.sk_sp.32 }
%class.sk_sp = type { %class.SkPixelRef* }
%class.SkPixelRef = type opaque
%class.SkPixmap = type { i8*, i64, %struct.SkImageInfo }
%struct.SkImageInfo = type { %class.SkColorInfo, %struct.SkISize }
%class.SkColorInfo = type { %class.sk_sp.21, i32, i32 }
%class.sk_sp.21 = type { %class.SkColorSpace* }
%class.SkColorSpace = type <{ %class.SkNVRefCnt, i32, i32, %struct.skcms_TransferFunction, %struct.skcms_Matrix3x3, %struct.skcms_TransferFunction, %struct.skcms_Matrix3x3, %class.SkOnce, [3 x i8] }>
%class.SkNVRefCnt = type { %"struct.std::__1::atomic.22" }
%struct.skcms_TransferFunction = type { float, float, float, float, float, float, float }
%struct.skcms_Matrix3x3 = type { [3 x [3 x float]] }
%class.SkOnce = type { %"struct.std::__1::atomic.27" }
%struct.SkISize = type { i32, i32 }
%class.sk_sp.32 = type { %class.SkMipmap* }
%class.SkMipmap = type opaque
%"class.base::OnceCallback" = type { %"class.base::internal::CallbackBase" }
%"class.base::internal::CallbackBase" = type { %class.scoped_refptr.33 }
%class.scoped_refptr.33 = type { %"class.base::internal::BindStateBase"* }
%"class.base::internal::BindStateBase" = type { %"class.base::RefCountedThreadSafe", void ()*, void (%"class.base::internal::BindStateBase"*)*, i1 (%"class.base::internal::BindStateBase"*, i32)* }
%"class.base::RefCountedThreadSafe" = type { %"class.base::subtle::RefCountedThreadSafeBase" }
%"class.base::OnceCallback.34" = type { %"class.base::internal::CallbackBase" }
%"class.blink::BackgroundFetchBridge" = type { %"class.blink::Supplement", %"class.blink::HeapMojoRemote" }
%"class.blink::Supplement" = type { %"class.blink::GarbageCollectedMixin", %"class.blink::Member.484" }
%"class.blink::Member.484" = type { %"class.blink::MemberBase.485" }
%"class.blink::MemberBase.485" = type { %"class.blink::ServiceWorkerRegistration"* }
%"class.blink::ServiceWorkerRegistration" = type <{ %"class.blink::EventTargetWithInlineData", %"class.blink::ActiveScriptWrappable", %"class.blink::ExecutionContextLifecycleObserver.base", [4 x i8], %"class.blink::Supplementable.509", %"class.blink::mojom::blink::ServiceWorkerRegistrationObject", %"class.blink::ThreadState::PrefinalizerRegistration.517", [7 x i8], %"class.blink::Member.518", %"class.blink::Member.518", %"class.blink::Member.518", %"class.blink::Member.525", i64, %"class.blink::KURL", i32, [4 x i8], %"class.mojo::AssociatedRemote", %"class.mojo::AssociatedReceiver", i8, [7 x i8] }>
%"class.blink::EventTargetWithInlineData" = type { %"class.blink::EventTarget", %"class.blink::EventTargetData" }
%"class.blink::EventTarget" = type { %"class.blink::ScriptWrappable" }
%"class.blink::EventTargetData" = type { %"class.blink::EventListenerMap", %"class.std::__1::unique_ptr.500" }
%"class.blink::EventListenerMap" = type { %"class.blink::HeapVector.488" }
%"class.blink::HeapVector.488" = type { %"class.WTF::Vector.491" }
%"class.WTF::Vector.491" = type { %"class.WTF::VectorBuffer.492" }
%"class.WTF::VectorBuffer.492" = type { %"class.WTF::VectorBufferBase.493", [32 x i8] }
%"class.WTF::VectorBufferBase.493" = type { %"struct.std::__1::pair.494"*, i32, i32 }
%"struct.std::__1::pair.494" = type { %"class.WTF::AtomicString", %"class.blink::Member.495" }
%"class.blink::Member.495" = type { %"class.blink::MemberBase.496" }
%"class.blink::MemberBase.496" = type { %"class.blink::HeapVector.497"* }
%"class.blink::HeapVector.497" = type opaque
%"class.std::__1::unique_ptr.500" = type { %"class.std::__1::__compressed_pair.501" }
%"class.std::__1::__compressed_pair.501" = type { %"struct.std::__1::__compressed_pair_elem.502" }
%"struct.std::__1::__compressed_pair_elem.502" = type { %"class.WTF::Vector.503"* }
%"class.WTF::Vector.503" = type opaque
%"class.blink::ActiveScriptWrappable" = type { %"class.blink::ActiveScriptWrappableBase" }
%"class.blink::ActiveScriptWrappableBase" = type { %"class.blink::GarbageCollectedMixin" }
%"class.blink::ExecutionContextLifecycleObserver.base" = type <{ %"class.blink::ContextLifecycleObserver", i32 }>
%"class.blink::ContextLifecycleObserver" = type { %"class.blink::GarbageCollectedMixin", %"class.blink::WeakMember.507" }
%"class.blink::WeakMember.507" = type { %"class.blink::MemberBase.508" }
%"class.blink::MemberBase.508" = type { %"class.blink::ContextLifecycleNotifier"* }
%"class.blink::Supplementable.509" = type { %"class.blink::GarbageCollectedMixin", %"class.blink::HeapHashMap.510" }
%"class.blink::HeapHashMap.510" = type { %"class.WTF::HashMap.513" }
%"class.WTF::HashMap.513" = type { %"class.WTF::HashTable.514" }
%"class.WTF::HashTable.514" = type <{ %"struct.WTF::KeyValuePair.516"*, i32, i32, i32, [4 x i8] }>
%"struct.WTF::KeyValuePair.516" = type opaque
%"class.blink::mojom::blink::ServiceWorkerRegistrationObject" = type { i32 (...)** }
%"class.blink::ThreadState::PrefinalizerRegistration.517" = type { i8 }
%"class.blink::Member.518" = type { %"class.blink::MemberBase.519" }
%"class.blink::MemberBase.519" = type { %"class.blink::ServiceWorker"* }
%"class.blink::ServiceWorker" = type { %"class.blink::AbstractWorker.base", %"class.blink::ActiveScriptWrappable.520", %"class.blink::mojom::blink::ServiceWorkerObject", i8, %"class.blink::KURL", i32, %"class.blink::HeapMojoAssociatedRemote", %"class.blink::HeapMojoAssociatedReceiver" }
%"class.blink::AbstractWorker.base" = type <{ %"class.blink::EventTargetWithInlineData", %"class.blink::ExecutionContextLifecycleStateObserver.base" }>
%"class.blink::ExecutionContextLifecycleStateObserver.base" = type { %"class.blink::ExecutionContextLifecycleObserver.base" }
%"class.blink::ActiveScriptWrappable.520" = type { %"class.blink::ActiveScriptWrappableBase" }
%"class.blink::mojom::blink::ServiceWorkerObject" = type { i32 (...)** }
%"class.blink::HeapMojoAssociatedRemote" = type { %"class.blink::Member.521" }
%"class.blink::Member.521" = type { %"class.blink::MemberBase.522" }
%"class.blink::MemberBase.522" = type { %"class.blink::HeapMojoAssociatedRemote<blink::mojom::blink::ServiceWorkerObjectHost, blink::HeapMojoWrapperMode::kWithContextObserver>::Wrapper"* }
%"class.blink::HeapMojoAssociatedRemote<blink::mojom::blink::ServiceWorkerObjectHost, blink::HeapMojoWrapperMode::kWithContextObserver>::Wrapper" = type opaque
%"class.blink::HeapMojoAssociatedReceiver" = type { %"class.blink::Member.523" }
%"class.blink::Member.523" = type { %"class.blink::MemberBase.524" }
%"class.blink::MemberBase.524" = type { %"class.blink::HeapMojoAssociatedReceiver<blink::mojom::blink::ServiceWorkerObject, blink::ServiceWorker, blink::HeapMojoWrapperMode::kWithContextObserver>::Wrapper"* }
%"class.blink::HeapMojoAssociatedReceiver<blink::mojom::blink::ServiceWorkerObject, blink::ServiceWorker, blink::HeapMojoWrapperMode::kWithContextObserver>::Wrapper" = type opaque
%"class.blink::Member.525" = type { %"class.blink::MemberBase.526" }
%"class.blink::MemberBase.526" = type { %"class.blink::NavigationPreloadManager"* }
%"class.blink::NavigationPreloadManager" = type { %"class.blink::ScriptWrappable", %"class.blink::Member.484" }
%"class.mojo::AssociatedRemote" = type { %"class.mojo::internal::AssociatedInterfacePtrState" }
%"class.mojo::internal::AssociatedInterfacePtrState" = type { %"class.mojo::internal::AssociatedInterfacePtrStateBase.base", %"class.std::__1::unique_ptr.590" }
%"class.mojo::internal::AssociatedInterfacePtrStateBase.base" = type <{ %"class.std::__1::unique_ptr.527", i32 }>
%"class.std::__1::unique_ptr.527" = type { %"class.std::__1::__compressed_pair.528" }
%"class.std::__1::__compressed_pair.528" = type { %"struct.std::__1::__compressed_pair_elem.529" }
%"struct.std::__1::__compressed_pair_elem.529" = type { %"class.mojo::InterfaceEndpointClient"* }
%"class.mojo::InterfaceEndpointClient" = type { %"class.mojo::MessageReceiverWithResponder", i8, %"class.base::RepeatingCallback", %"class.base::OnceCallback.530", %"class.absl::optional.113", %"class.absl::optional.531", %"class.mojo::ConnectionGroup::Ref", i32, %"class.mojo::ScopedInterfaceEndpointHandle", %"class.std::__1::unique_ptr.545", %"class.mojo::InterfaceEndpointController"*, %"class.mojo::MessageReceiverWithResponderStatus"*, %"class.mojo::InterfaceEndpointClient::HandleIncomingMessageThunk", %"class.mojo::MessageDispatcher", %"class.std::__1::map", %"class.std::__1::map.576", i64, %"class.base::OnceCallback.538", %"class.base::OnceCallback.585", i8, %class.scoped_refptr.536, %"class.mojo::internal::ControlMessageProxy", %"class.mojo::internal::ControlMessageHandler", i8*, %"class.base::WeakPtrFactory.586" }
%"class.mojo::MessageReceiverWithResponder" = type { %"class.mojo::MessageReceiver" }
%"class.mojo::MessageReceiver" = type { i32 (...)** }
%"class.base::RepeatingCallback" = type { %"class.base::internal::CallbackBaseCopyable" }
%"class.base::internal::CallbackBaseCopyable" = type { %"class.base::internal::CallbackBase" }
%"class.base::OnceCallback.530" = type { %"class.base::internal::CallbackBase" }
%"class.absl::optional.531" = type { %"class.absl::optional_internal::optional_data.532" }
%"class.absl::optional_internal::optional_data.532" = type { %"class.absl::optional_internal::optional_data_base.533" }
%"class.absl::optional_internal::optional_data_base.533" = type { %"class.absl::optional_internal::optional_data_dtor_base.534" }
%"class.absl::optional_internal::optional_data_dtor_base.534" = type { i8, %union.anon.535 }
%union.anon.535 = type { %"class.base::OneShotTimer" }
%"class.base::OneShotTimer" = type { %"class.base::internal::TimerBase", %"class.base::OnceCallback.538" }
%"class.base::internal::TimerBase" = type { i32 (...)**, %class.scoped_refptr.536, %"class.base::SequenceCheckerDoNothing", %"class.base::internal::TaskDestructionDetector"*, %"class.base::Location", %"class.base::TimeDelta", %"class.base::TimeTicks", %"class.base::TimeTicks", %"class.base::TickClock"*, i8, %"class.base::WeakPtrFactory.537" }
%"class.base::SequenceCheckerDoNothing" = type { i8 }
%"class.base::internal::TaskDestructionDetector" = type opaque
%"class.base::TickClock" = type opaque
%"class.base::WeakPtrFactory.537" = type { %"class.base::internal::WeakPtrFactoryBase" }
%"class.mojo::ConnectionGroup::Ref" = type { i32, %class.scoped_refptr.543 }
%class.scoped_refptr.543 = type { %"class.mojo::ConnectionGroup"* }
%"class.mojo::ConnectionGroup" = type <{ i32 (...)**, %"class.base::RefCountedThreadSafe.599", [4 x i8], %"class.base::RepeatingCallback", %class.scoped_refptr.536, %"class.mojo::ConnectionGroup::Ref", %"struct.std::__1::atomic", [4 x i8] }>
%"class.base::RefCountedThreadSafe.599" = type { %"class.base::subtle::RefCountedThreadSafeBase" }
%"class.mojo::ScopedInterfaceEndpointHandle" = type { %class.scoped_refptr.544 }
%class.scoped_refptr.544 = type { %"class.mojo::ScopedInterfaceEndpointHandle::State"* }
%"class.mojo::ScopedInterfaceEndpointHandle::State" = type opaque
%"class.std::__1::unique_ptr.545" = type { %"class.std::__1::__compressed_pair.546" }
%"class.std::__1::__compressed_pair.546" = type { %"struct.std::__1::__compressed_pair_elem.547" }
%"struct.std::__1::__compressed_pair_elem.547" = type { %"class.mojo::AssociatedGroup"* }
%"class.mojo::AssociatedGroup" = type { %"class.base::RepeatingCallback.548", %class.scoped_refptr.549 }
%"class.base::RepeatingCallback.548" = type { %"class.base::internal::CallbackBaseCopyable" }
%class.scoped_refptr.549 = type { %"class.mojo::AssociatedGroupController"* }
%"class.mojo::AssociatedGroupController" = type <{ i32 (...)**, %"class.base::RefCountedThreadSafe.550", [4 x i8] }>
%"class.base::RefCountedThreadSafe.550" = type { %"class.base::subtle::RefCountedThreadSafeBase" }
%"class.mojo::InterfaceEndpointController" = type opaque
%"class.mojo::MessageReceiverWithResponderStatus" = type { %"class.mojo::MessageReceiver" }
%"class.mojo::InterfaceEndpointClient::HandleIncomingMessageThunk" = type { %"class.mojo::MessageReceiver", %"class.mojo::InterfaceEndpointClient"* }
%"class.mojo::MessageDispatcher" = type { %"class.mojo::MessageReceiver", %"class.std::__1::unique_ptr.554", %"class.std::__1::unique_ptr.560", %"class.mojo::MessageReceiver"*, %"class.base::WeakPtrFactory.566" }
%"class.std::__1::unique_ptr.554" = type { %"class.std::__1::__compressed_pair.555" }
%"class.std::__1::__compressed_pair.555" = type { %"struct.std::__1::__compressed_pair_elem.556" }
%"struct.std::__1::__compressed_pair_elem.556" = type { %"class.mojo::MessageReceiver"* }
%"class.std::__1::unique_ptr.560" = type { %"class.std::__1::__compressed_pair.561" }
%"class.std::__1::__compressed_pair.561" = type { %"struct.std::__1::__compressed_pair_elem.562" }
%"struct.std::__1::__compressed_pair_elem.562" = type { %"class.mojo::MessageFilter"* }
%"class.mojo::MessageFilter" = type { i32 (...)** }
%"class.base::WeakPtrFactory.566" = type { %"class.base::internal::WeakPtrFactoryBase" }
%"class.std::__1::map" = type { %"class.std::__1::__tree.567" }
%"class.std::__1::__tree.567" = type { %"class.std::__1::__tree_end_node"*, %"class.std::__1::__compressed_pair.568", %"class.std::__1::__compressed_pair.572" }
%"class.std::__1::__compressed_pair.568" = type { %"struct.std::__1::__compressed_pair_elem.385" }
%"class.std::__1::__compressed_pair.572" = type { %"struct.std::__1::__compressed_pair_elem.294" }
%"class.std::__1::map.576" = type { %"class.std::__1::__tree.577" }
%"class.std::__1::__tree.577" = type { %"class.std::__1::__tree_end_node"*, %"class.std::__1::__compressed_pair.578", %"class.std::__1::__compressed_pair.582" }
%"class.std::__1::__compressed_pair.578" = type { %"struct.std::__1::__compressed_pair_elem.385" }
%"class.std::__1::__compressed_pair.582" = type { %"struct.std::__1::__compressed_pair_elem.294" }
%"class.base::OnceCallback.538" = type { %"class.base::internal::CallbackBase" }
%"class.base::OnceCallback.585" = type { %"class.base::internal::CallbackBase" }
%class.scoped_refptr.536 = type { %"class.base::SequencedTaskRunner"* }
%"class.base::SequencedTaskRunner" = type { %"class.base::TaskRunner.base", [4 x i8] }
%"class.mojo::internal::ControlMessageProxy" = type { %"class.mojo::InterfaceEndpointClient"*, i8, %"class.base::OnceCallback.538" }
%"class.mojo::internal::ControlMessageHandler" = type <{ %"class.mojo::MessageReceiverWithResponderStatus", %"class.mojo::InterfaceEndpointClient"*, i32, [4 x i8] }>
%"class.base::WeakPtrFactory.586" = type { %"class.base::internal::WeakPtrFactoryBase" }
%"class.std::__1::unique_ptr.590" = type { %"class.std::__1::__compressed_pair.591" }
%"class.std::__1::__compressed_pair.591" = type { %"struct.std::__1::__compressed_pair_elem.592" }
%"struct.std::__1::__compressed_pair_elem.592" = type { %"class.blink::mojom::blink::ServiceWorkerRegistrationObjectHostProxy"* }
%"class.blink::mojom::blink::ServiceWorkerRegistrationObjectHostProxy" = type { %"class.blink::mojom::blink::ServiceWorkerRegistrationObjectHost", %"class.mojo::MessageReceiverWithResponder"* }
%"class.blink::mojom::blink::ServiceWorkerRegistrationObjectHost" = type { i32 (...)** }
%"class.mojo::AssociatedReceiver" = type { %"class.mojo::internal::AssociatedReceiverBase", %"class.blink::mojom::blink::ServiceWorkerRegistrationObjectStub", %"class.base::WeakPtrFactory.596" }
%"class.mojo::internal::AssociatedReceiverBase" = type { %"class.std::__1::unique_ptr.527" }
%"class.blink::mojom::blink::ServiceWorkerRegistrationObjectStub" = type { %"class.mojo::MessageReceiverWithResponderStatus", %"class.blink::mojom::blink::ServiceWorkerRegistrationObject"* }
%"class.base::WeakPtrFactory.596" = type { %"class.base::internal::WeakPtrFactoryBase" }
%"class.blink::HeapMojoRemote" = type { %"class.blink::Member.597" }
%"class.blink::Member.597" = type { %"class.blink::MemberBase.598" }
%"class.blink::MemberBase.598" = type { %"class.blink::HeapMojoRemote<blink::mojom::blink::BackgroundFetchService, blink::HeapMojoWrapperMode::kWithContextObserver>::Wrapper"* }
%"class.blink::HeapMojoRemote<blink::mojom::blink::BackgroundFetchService, blink::HeapMojoWrapperMode::kWithContextObserver>::Wrapper" = type opaque
%"class.base::OnceCallback.600" = type { %"class.base::internal::CallbackBase" }
%"class.blink::WeakPersistent" = type { %"class.blink::PersistentBase.601" }
%"class.blink::PersistentBase.601" = type { %"class.blink::BackgroundFetchIconLoader"*, %"class.blink::PersistentNodePtr.602" }
%"class.blink::PersistentNodePtr.602" = type { %"class.blink::PersistentNode"* }
%"class.blink::WeakPersistent.603" = type { %"class.blink::PersistentBase.604" }
%"class.blink::PersistentBase.604" = type { %"class.blink::ExecutionContext"*, %"class.blink::PersistentNodePtr.602" }
%"struct.std::__1::__tuple_impl" = type { %"class.std::__1::__tuple_leaf", %"class.std::__1::__tuple_leaf.707", %"class.std::__1::__tuple_leaf.708" }
%"class.std::__1::__tuple_leaf" = type { %"class.blink::WeakPersistent" }
%"class.std::__1::__tuple_leaf.707" = type { %"class.blink::WeakPersistent.603" }
%"class.std::__1::__tuple_leaf.708" = type { %"class.base::OnceCallback.34" }
%"class.blink::ResourceRequest" = type { %"class.blink::ResourceRequestHead", %"class.blink::ResourceRequestBody" }
%"class.blink::ResourceRequestBody" = type { %class.scoped_refptr.605, %"class.mojo::PendingRemote.606" }
%class.scoped_refptr.605 = type { %"class.blink::EncodedFormData"* }
%"class.blink::EncodedFormData" = type opaque
%"class.mojo::PendingRemote.606" = type { %"struct.mojo::internal::PendingRemoteState" }
%"struct.base::internal::BindState.711" = type { %"class.base::internal::BindStateBase", { i64, i64 }, %"class.std::__1::tuple.712" }
%"class.std::__1::tuple.712" = type { %"struct.std::__1::__tuple_impl.713" }
%"struct.std::__1::__tuple_impl.713" = type { %"class.std::__1::__tuple_leaf" }
%"class.blink::WebVector.607" = type { %"class.std::__1::vector.608" }
%"class.std::__1::vector.608" = type { %"class.std::__1::__vector_base.609" }
%"class.std::__1::__vector_base.609" = type { %"struct.blink::Manifest::ImageResource"*, %"struct.blink::Manifest::ImageResource"*, %"class.std::__1::__compressed_pair.639" }
%"struct.blink::Manifest::ImageResource" = type { %class.GURL, %"class.std::__1::basic_string.616", %"class.std::__1::vector.625", %"class.std::__1::vector.632" }
%class.GURL = type { %"class.std::__1::basic_string", i8, %"struct.url::Parsed", %"class.std::__1::unique_ptr.610" }
%"class.std::__1::unique_ptr.610" = type { %"class.std::__1::__compressed_pair.611" }
%"class.std::__1::__compressed_pair.611" = type { %"struct.std::__1::__compressed_pair_elem.612" }
%"struct.std::__1::__compressed_pair_elem.612" = type { %class.GURL* }
%"class.std::__1::basic_string.616" = type { %"class.std::__1::__compressed_pair.617" }
%"class.std::__1::__compressed_pair.617" = type { %"struct.std::__1::__compressed_pair_elem.618" }
%"struct.std::__1::__compressed_pair_elem.618" = type { %"struct.std::__1::basic_string<char16_t, std::__1::char_traits<char16_t>, std::__1::allocator<char16_t> >::__rep" }
%"struct.std::__1::basic_string<char16_t, std::__1::char_traits<char16_t>, std::__1::allocator<char16_t> >::__rep" = type { %union.anon.619 }
%union.anon.619 = type { %"struct.std::__1::basic_string<char16_t, std::__1::char_traits<char16_t>, std::__1::allocator<char16_t> >::__long" }
%"struct.std::__1::basic_string<char16_t, std::__1::char_traits<char16_t>, std::__1::allocator<char16_t> >::__long" = type { i16*, i64, i64 }
%"class.std::__1::vector.625" = type { %"class.std::__1::__vector_base.626" }
%"class.std::__1::__vector_base.626" = type { %"class.gfx::Size"*, %"class.gfx::Size"*, %"class.std::__1::__compressed_pair.627" }
%"class.std::__1::__compressed_pair.627" = type { %"struct.std::__1::__compressed_pair_elem.628" }
%"struct.std::__1::__compressed_pair_elem.628" = type { %"class.gfx::Size"* }
%"class.std::__1::vector.632" = type { %"class.std::__1::__vector_base.633" }
%"class.std::__1::__vector_base.633" = type { i32*, i32*, %"class.std::__1::__compressed_pair.634" }
%"class.std::__1::__compressed_pair.634" = type { %"struct.std::__1::__compressed_pair_elem.635" }
%"struct.std::__1::__compressed_pair_elem.635" = type { i32* }
%"class.std::__1::__compressed_pair.639" = type { %"struct.std::__1::__compressed_pair_elem.640" }
%"struct.std::__1::__compressed_pair_elem.640" = type { %"struct.blink::Manifest::ImageResource"* }
%"class.logging::CheckOpResult" = type { i8* }
%"class.logging::CheckError" = type { %"class.logging::LogMessage"* }
%"class.logging::LogMessage" = type { i32 (...)**, i32, %"class.std::__1::basic_ostringstream", i64, i8*, i32, %"class.base::ScopedClearLastErrorBase" }
%"class.std::__1::basic_ostringstream" = type { %"class.std::__1::basic_ostream.base", %"class.std::__1::basic_stringbuf", %"class.std::__1::basic_ios.base" }
%"class.std::__1::basic_ostream.base" = type { i32 (...)** }
%"class.std::__1::basic_stringbuf" = type <{ %"class.std::__1::basic_streambuf", %"class.std::__1::basic_string", i8*, i32, [4 x i8] }>
%"class.std::__1::basic_streambuf" = type { i32 (...)**, %"class.std::__1::locale", i8*, i8*, i8*, i8*, i8*, i8* }
%"class.std::__1::locale" = type { %"class.std::__1::locale::__imp"* }
%"class.std::__1::locale::__imp" = type opaque
%"class.std::__1::basic_ios.base" = type <{ %"class.std::__1::ios_base", %"class.std::__1::basic_ostream"*, i32 }>
%"class.std::__1::ios_base" = type { i32 (...)**, i32, i64, i64, i32, i32, i8*, i8*, void (i32, %"class.std::__1::ios_base"*, i32)**, i32*, i64, i64, i64*, i64, i64, i8**, i64, i64 }
%"class.std::__1::basic_ostream" = type { i32 (...)**, %"class.std::__1::basic_ios.base" }
%"class.base::ScopedClearLastErrorBase" = type { i32 }
%"class.blink::NormalPageArena" = type { %"class.blink::BaseArena.base", [4 x i8], %"class.blink::FreeList", i8*, i64, i64 }
%"class.blink::BaseArena.base" = type <{ i32 (...)**, %"class.blink::PageStackThreadSafe", %"class.blink::PageStackThreadSafe", %"class.blink::PageStackThreadSafe", %"class.blink::PageStackThreadSafe", %"class.blink::ThreadState"*, i32 }>
%"class.blink::FreeList" = type <{ [17 x %"class.blink::FreeListEntry"*], [17 x %"class.blink::FreeListEntry"*], i32, [4 x i8] }>
%"class.blink::FreeListEntry" = type { %"class.blink::HeapObjectHeader", %"class.blink::FreeListEntry"* }
%"class.blink::PlatformAwareObjectStartBitmap" = type { %"class.blink::ObjectStartBitmap" }
%"class.blink::ObjectStartBitmap" = type { i8*, [2048 x i8] }
%"class.blink::NormalPage" = type { %"class.blink::BasePage.base", %"class.blink::NormalPage::CardTable", %"class.blink::PlatformAwareObjectStartBitmap", %"class.WTF::Vector.665", %"class.blink::FreeList", %"class.WTF::Vector.670" }
%"class.blink::BasePage.base" = type <{ i32 (...)**, %"class.blink::PageMemory"*, %"class.blink::BaseArena"*, %"class.blink::ThreadState"*, i64, i8, i8, i8 }>
%"class.blink::NormalPage::CardTable" = type { %"struct.std::__1::array.664" }
%"struct.std::__1::array.664" = type { [256 x i8] }
%"class.WTF::Vector.665" = type { %"class.WTF::VectorBuffer.666" }
%"class.WTF::VectorBuffer.666" = type { %"class.WTF::VectorBufferBase.667" }
%"class.WTF::VectorBufferBase.667" = type { %"struct.blink::NormalPage::ToBeFinalizedObject"*, i32, i32 }
%"struct.blink::NormalPage::ToBeFinalizedObject" = type { %"class.blink::HeapObjectHeader"* }
%"class.WTF::Vector.670" = type { %"class.WTF::VectorBuffer.671" }
%"class.WTF::VectorBuffer.671" = type { %"class.WTF::VectorBufferBase.672" }
%"class.WTF::VectorBufferBase.672" = type { %"struct.blink::NormalPage::FutureFreelistEntry"*, i32, i32 }
%"struct.blink::NormalPage::FutureFreelistEntry" = type { i8*, i64 }
%"class.std::__1::__vector_base_common" = type { i8 }

$_ZN5blink10ThreadHeap8AllocateINS_18ThreadedIconLoaderEEEPhm = comdat any

$_ZN5blink10TraceTraitINS_18ThreadedIconLoaderEE5TraceEPNS_7VisitorEPKv = comdat any

$_ZN5blink8internal14FinalizerTraitINS_18ThreadedIconLoaderEE8FinalizeEPv = comdat any

$_ZN5blink9NameTraitINS_18ThreadedIconLoaderEE7GetNameEPKv = comdat any

$_ZN5blink19TraceMethodDelegateINS_14PersistentBaseINS_25BackgroundFetchIconLoaderELNS_31WeaknessPersistentConfigurationE1ELNS_38CrossThreadnessPersistentConfigurationE0EEEXadL_ZNKS5_15TracePersistentEPNS_7VisitorEEEE10TrampolineES7_PKv = comdat any

$_ZN5blink14PersistentBaseINS_25BackgroundFetchIconLoaderELNS_31WeaknessPersistentConfigurationE1ELNS_38CrossThreadnessPersistentConfigurationE0EE20HandleWeakPersistentERKNS_14LivenessBrokerEPKv = comdat any

$_ZN5blink19TraceMethodDelegateINS_14PersistentBaseINS_16ExecutionContextELNS_31WeaknessPersistentConfigurationE1ELNS_38CrossThreadnessPersistentConfigurationE0EEEXadL_ZNKS5_15TracePersistentEPNS_7VisitorEEEE10TrampolineES7_PKv = comdat any

$_ZN5blink14PersistentBaseINS_16ExecutionContextELNS_31WeaknessPersistentConfigurationE1ELNS_38CrossThreadnessPersistentConfigurationE0EE20HandleWeakPersistentERKNS_14LivenessBrokerEPKv = comdat any

$_ZNK5blink14LivenessBroker17IsHeapObjectAliveINS_16ExecutionContextEEEbPKT_ = comdat any

$_ZN4base8internal7InvokerINS0_9BindStateIMN5blink25BackgroundFetchIconLoaderEFvPNS3_16ExecutionContextENS_12OnceCallbackIFvRK8SkBitmaplEEERKN3gfx4SizeEEJNS3_14WeakPersistentIS4_EENSJ_IS5_EESC_EEEFvSG_EE7RunOnceEPNS0_13BindStateBaseESG_ = comdat any

$_ZN4base8internal9BindStateIMN5blink25BackgroundFetchIconLoaderEFvPNS2_16ExecutionContextENS_12OnceCallbackIFvRK8SkBitmaplEEERKN3gfx4SizeEEJNS2_14WeakPersistentIS3_EENSI_IS4_EESB_EE7DestroyEPKNS0_13BindStateBaseE = comdat any

$_ZN4base8internal23QueryCancellationTraitsINS0_9BindStateIMN5blink25BackgroundFetchIconLoaderEFvPNS3_16ExecutionContextENS_12OnceCallbackIFvRK8SkBitmaplEEERKN3gfx4SizeEEJNS3_14WeakPersistentIS4_EENSJ_IS5_EESC_EEEEEbPKNS0_13BindStateBaseENSN_21CancellationQueryModeE = comdat any

$_ZNSt3__112__tuple_implINS_15__tuple_indicesIJLm0ELm1ELm2EEEEJN5blink14WeakPersistentINS3_25BackgroundFetchIconLoaderEEENS4_INS3_16ExecutionContextEEEN4base12OnceCallbackIFvRK8SkBitmaplEEEEED2Ev = comdat any

$_ZNSt3__112__tuple_implINS_15__tuple_indicesIJLm0ELm1ELm2EEEEJN5blink14WeakPersistentINS3_25BackgroundFetchIconLoaderEEENS4_INS3_16ExecutionContextEEEN4base12OnceCallbackIFvRK8SkBitmaplEEEEEC2IJLm0ELm1ELm2EEJS6_S8_SF_EJEJEJS6_S8_SF_EEENS1_IJXspT_EEEENS_13__tuple_typesIJDpT0_EEENS1_IJXspT1_EEEENSJ_IJDpT2_EEEDpOT3_ = comdat any

$_ZN4base8internal7InvokerINS0_9BindStateIMN5blink25BackgroundFetchIconLoaderEFv8SkBitmapdEJNS3_14WeakPersistentIS4_EEEEEFvS5_dEE7RunOnceEPNS0_13BindStateBaseEOS5_d = comdat any

$_ZN4base8internal9BindStateIMN5blink25BackgroundFetchIconLoaderEFv8SkBitmapdEJNS2_14WeakPersistentIS3_EEEEC2IS6_JS8_EEENSt3__117integral_constantIbLb1EEEPFvvEOT_DpOT0_ = comdat any

$_ZN4base8internal9BindStateIMN5blink25BackgroundFetchIconLoaderEFv8SkBitmapdEJNS2_14WeakPersistentIS3_EEEE7DestroyEPKNS0_13BindStateBaseE = comdat any

$_ZN4base8internal23QueryCancellationTraitsINS0_9BindStateIMN5blink25BackgroundFetchIconLoaderEFv8SkBitmapdEJNS3_14WeakPersistentIS4_EEEEEEEbPKNS0_13BindStateBaseENSB_21CancellationQueryModeE = comdat any

$_ZNSt3__16vectorIN5blink8Manifest13ImageResourceENS_9allocatorIS3_EEE24__emplace_back_slow_pathIJRS3_EEEvDpOT_ = comdat any

$_ZN5blink10TraceTraitINS_17HeapVectorBackingINS_6MemberINS_21ManifestImageResourceEEEN3WTF12VectorTraitsIS4_EEEEE5TraceEPNS_7VisitorEPKv = comdat any

$_ZN5blink10TraceTraitINS_21ManifestImageResourceEE5TraceEPNS_7VisitorEPKv = comdat any

$_ZZN5blink11GCInfoTraitINS_18ThreadedIconLoaderEE5IndexEvE7kGcInfo = comdat any

$_ZZN5blink11GCInfoTraitINS_18ThreadedIconLoaderEE5IndexEvE13gc_info_index = comdat any

@_ZN5blink11ThreadState16thread_specific_E = external local_unnamed_addr global %"class.WTF::ThreadSpecific"*, align 8
@__PRETTY_FUNCTION__._ZN3WTF21GetStringWithTypeNameIPN5blink11ThreadStateEEEPKcv = private unnamed_addr constant [68 x i8] c"const char *WTF::GetStringWithTypeName() [T = blink::ThreadState *]\00", align 1
@.str = private unnamed_addr constant [23 x i8] c"allocation_size > size\00", align 1
@.str.1 = private unnamed_addr constant [59 x i8] c"../../third_party/blink/renderer/platform/heap/impl/heap.h\00", align 1
@_ZZN5blink11GCInfoTraitINS_18ThreadedIconLoaderEE5IndexEvE7kGcInfo = linkonce_odr hidden constant %"struct.blink::GCInfo" { void (%"class.blink::Visitor"*, i8*)* @_ZN5blink10TraceTraitINS_18ThreadedIconLoaderEE5TraceEPNS_7VisitorEPKv, void (i8*)* @_ZN5blink8internal14FinalizerTraitINS_18ThreadedIconLoaderEE8FinalizeEPv, { i8*, i8 } (i8*)* @_ZN5blink9NameTraitINS_18ThreadedIconLoaderEE7GetNameEPKv, i8 1 }, comdat, align 8
@_ZZN5blink11GCInfoTraitINS_18ThreadedIconLoaderEE5IndexEvE13gc_info_index = linkonce_odr hidden global { { i32 } } zeroinitializer, comdat, align 4
@_ZTVN5blink18ThreadedIconLoaderE = external unnamed_addr constant { [16 x i8*] }, align 8
@.str.2 = private unnamed_addr constant [13 x i8] c"InternalNode\00", align 1
@_ZN5blink11GCInfoTable13global_table_E = external local_unnamed_addr global %"class.blink::GCInfoTable"*, align 8
@_ZN5blink11ThreadState25incremental_marking_flag_E = external local_unnamed_addr global %"class.blink::AtomicEntryFlag", align 4

@_ZN5blink25BackgroundFetchIconLoaderC1Ev = hidden unnamed_addr alias void (%"class.blink::BackgroundFetchIconLoader"*), void (%"class.blink::BackgroundFetchIconLoader"*)* @_ZN5blink25BackgroundFetchIconLoaderC2Ev

; Function Attrs: nounwind ssp uwtable
define hidden void @_ZN5blink25BackgroundFetchIconLoaderC2Ev(%"class.blink::BackgroundFetchIconLoader"* nocapture) unnamed_addr #0 align 2 {
  %2 = bitcast %"class.blink::BackgroundFetchIconLoader"* %0 to i8*
  tail call void @llvm.memset.p0i8.i64(i8* align 8 %2, i8 0, i64 16, i1 false) #11
  %3 = tail call i8* @_ZN5blink10ThreadHeap8AllocateINS_18ThreadedIconLoaderEEEPhm(i64 120) #11
  tail call void @llvm.memset.p0i8.i64(i8* align 8 %3, i8 0, i64 120, i1 false) #11
  %4 = bitcast i8* %3 to i32 (...)***
  store i32 (...)** bitcast (i8** getelementptr inbounds ({ [16 x i8*] }, { [16 x i8*] }* @_ZTVN5blink18ThreadedIconLoaderE, i64 0, inrange i32 0, i64 2) to i32 (...)**), i32 (...)*** %4, align 8
  %5 = getelementptr inbounds i8, i8* %3, i64 8
  %6 = getelementptr inbounds i8, i8* %3, i64 40
  %7 = bitcast i8* %6 to %class.SkBitmap*
  tail call void @llvm.memset.p0i8.i64(i8* align 8 %5, i8 0, i64 17, i1 false) #11
  tail call void @_ZN8SkBitmapC1Ev(%class.SkBitmap* %7) #11
  %8 = getelementptr inbounds i8, i8* %3, i64 96
  tail call void @llvm.memset.p0i8.i64(i8* align 8 %8, i8 0, i64 17, i1 false) #11
  %9 = getelementptr inbounds i8, i8* %3, i64 -4
  %10 = bitcast i8* %9 to i16*
  %11 = load atomic i16, i16* %10 monotonic, align 2
  %12 = or i16 %11, 1
  store atomic i16 %12, i16* %10 release, align 2
  %13 = getelementptr inbounds %"class.blink::BackgroundFetchIconLoader", %"class.blink::BackgroundFetchIconLoader"* %0, i64 0, i32 1, i32 0, i32 0
  %14 = bitcast %"class.blink::ThreadedIconLoader"** %13 to i8**
  store i8* %3, i8** %14, align 8
  %15 = getelementptr inbounds %"class.blink::BackgroundFetchIconLoader", %"class.blink::BackgroundFetchIconLoader"* %0, i64 0, i32 2, i32 0, i32 0, i32 0
  store %"class.base::internal::BindStateBase"* null, %"class.base::internal::BindStateBase"** %15, align 8
  ret void
}

; Function Attrs: nounwind ssp uwtable
define hidden void @_ZN5blink25BackgroundFetchIconLoader5StartEPNS_21BackgroundFetchBridgeEPNS_16ExecutionContextENS_10HeapVectorINS_6MemberINS_21ManifestImageResourceEEELj0EEEN4base12OnceCallbackIFvRK8SkBitmaplEEE(%"class.blink::BackgroundFetchIconLoader"*, %"class.blink::BackgroundFetchBridge"*, %"class.blink::ExecutionContext"*, %"class.blink::HeapVector"* nocapture, %"class.base::OnceCallback.34"*) local_unnamed_addr #0 align 2 {
  %6 = alloca %"class.base::OnceCallback.600", align 8
  %7 = alloca %"class.blink::WeakPersistent", align 8
  %8 = alloca %"class.blink::WeakPersistent.603", align 8
  %9 = bitcast %"class.blink::HeapVector"* %3 to i64*
  %10 = load i64, i64* %9, align 8
  %11 = bitcast %"class.blink::BackgroundFetchIconLoader"* %0 to i64*
  %12 = load i64, i64* %11, align 8
  store atomic i64 %12, i64* %9 monotonic, align 8
  store atomic i64 %10, i64* %11 monotonic, align 8
  %13 = getelementptr inbounds %"class.blink::BackgroundFetchIconLoader", %"class.blink::BackgroundFetchIconLoader"* %0, i64 0, i32 0, i32 0, i32 0, i32 0, i32 1
  %14 = getelementptr inbounds %"class.blink::HeapVector", %"class.blink::HeapVector"* %3, i64 0, i32 0, i32 0, i32 0, i32 1
  %15 = load i32, i32* %13, align 4
  %16 = load i32, i32* %14, align 4
  store i32 %16, i32* %13, align 4
  store i32 %15, i32* %14, align 4
  %17 = getelementptr inbounds %"class.blink::BackgroundFetchIconLoader", %"class.blink::BackgroundFetchIconLoader"* %0, i64 0, i32 0, i32 0, i32 0, i32 0, i32 2
  %18 = getelementptr inbounds %"class.blink::HeapVector", %"class.blink::HeapVector"* %3, i64 0, i32 0, i32 0, i32 0, i32 2
  %19 = load i32, i32* %17, align 4
  %20 = load i32, i32* %18, align 4
  store i32 %20, i32* %17, align 4
  store i32 %19, i32* %18, align 4
  %21 = load atomic i32, i32* getelementptr inbounds (%"class.blink::AtomicEntryFlag", %"class.blink::AtomicEntryFlag"* @_ZN5blink11ThreadState25incremental_marking_flag_E, i64 0, i32 0, i32 0, i32 0, i32 0, i32 0, i32 0) monotonic, align 4
  %22 = icmp eq i32 %21, 0
  br i1 %22, label %27, label %23

23:                                               ; preds = %5
  %24 = bitcast %"class.blink::BackgroundFetchIconLoader"* %0 to i8**
  %25 = load i8*, i8** %24, align 8
  %26 = tail call zeroext i1 @_ZN5blink14MarkingVisitor16WriteBarrierSlowEPv(i8* %25) #11
  br label %27

27:                                               ; preds = %23, %5
  %28 = load atomic i32, i32* getelementptr inbounds (%"class.blink::AtomicEntryFlag", %"class.blink::AtomicEntryFlag"* @_ZN5blink11ThreadState25incremental_marking_flag_E, i64 0, i32 0, i32 0, i32 0, i32 0, i32 0, i32 0) monotonic, align 4
  %29 = icmp eq i32 %28, 0
  br i1 %29, label %34, label %30

30:                                               ; preds = %27
  %31 = bitcast %"class.blink::HeapVector"* %3 to i8**
  %32 = load i8*, i8** %31, align 8
  %33 = tail call zeroext i1 @_ZN5blink14MarkingVisitor16WriteBarrierSlowEPv(i8* %32) #11
  br label %34

34:                                               ; preds = %27, %30
  %35 = bitcast %"class.blink::WeakPersistent"* %7 to i8*
  call void @llvm.lifetime.start.p0i8(i64 16, i8* nonnull %35) #11
  %36 = getelementptr inbounds %"class.blink::WeakPersistent", %"class.blink::WeakPersistent"* %7, i64 0, i32 0
  %37 = getelementptr inbounds %"class.blink::WeakPersistent", %"class.blink::WeakPersistent"* %7, i64 0, i32 0, i32 0
  store %"class.blink::BackgroundFetchIconLoader"* %0, %"class.blink::BackgroundFetchIconLoader"** %37, align 8, !alias.scope !2
  %38 = getelementptr inbounds %"class.blink::WeakPersistent", %"class.blink::WeakPersistent"* %7, i64 0, i32 0, i32 1, i32 0
  store %"class.blink::PersistentNode"* null, %"class.blink::PersistentNode"** %38, align 8, !alias.scope !2
  %39 = ptrtoint %"class.blink::BackgroundFetchIconLoader"* %0 to i64
  switch i64 %39, label %40 [
    i64 0, label %66
    i64 -1, label %66
  ]

40:                                               ; preds = %34
  %41 = load %"class.WTF::ThreadSpecific"*, %"class.WTF::ThreadSpecific"** @_ZN5blink11ThreadState16thread_specific_E, align 8, !noalias !2
  %42 = getelementptr inbounds %"class.WTF::ThreadSpecific", %"class.WTF::ThreadSpecific"* %41, i64 0, i32 1
  %43 = tail call i8* @_ZNK4base18ThreadLocalStorage4Slot3GetEv(%"class.base::ThreadLocalStorage::Slot"* %42) #11, !noalias !2
  %44 = icmp eq i8* %43, null
  br i1 %44, label %45, label %47, !prof !5

45:                                               ; preds = %40
  %46 = tail call i8* @_ZN3WTF10Partitions16FastZeroedMallocEmPKc(i64 8, i8* getelementptr inbounds ([68 x i8], [68 x i8]* @__PRETTY_FUNCTION__._ZN3WTF21GetStringWithTypeNameIPN5blink11ThreadStateEEEPKcv, i64 0, i64 0)) #11
  tail call void @_ZN4base18ThreadLocalStorage4Slot3SetEPv(%"class.base::ThreadLocalStorage::Slot"* %42, i8* %46) #11
  br label %47

47:                                               ; preds = %45, %40
  %48 = phi i8* [ %46, %45 ], [ %43, %40 ]
  %49 = bitcast i8* %48 to %"class.blink::ThreadState"**
  %50 = load %"class.blink::ThreadState"*, %"class.blink::ThreadState"** %49, align 8, !noalias !2
  %51 = getelementptr inbounds %"class.blink::ThreadState", %"class.blink::ThreadState"* %50, i64 0, i32 4, i32 0, i32 0, i32 0
  %52 = load %"class.blink::PersistentRegion"*, %"class.blink::PersistentRegion"** %51, align 8, !noalias !2
  %53 = getelementptr inbounds %"class.blink::PersistentRegion", %"class.blink::PersistentRegion"* %52, i64 0, i32 0, i32 0
  %54 = load %"class.blink::PersistentNode"*, %"class.blink::PersistentNode"** %53, align 8, !noalias !2
  %55 = icmp eq %"class.blink::PersistentNode"* %54, null
  br i1 %55, label %56, label %59, !prof !5

56:                                               ; preds = %47
  %57 = getelementptr inbounds %"class.blink::PersistentRegion", %"class.blink::PersistentRegion"* %52, i64 0, i32 0
  tail call void @_ZN5blink20PersistentRegionBase15EnsureNodeSlotsEv(%"class.blink::PersistentRegionBase"* %57) #11
  %58 = load %"class.blink::PersistentNode"*, %"class.blink::PersistentNode"** %53, align 8
  br label %59

59:                                               ; preds = %56, %47
  %60 = phi %"class.blink::PersistentNode"* [ %58, %56 ], [ %54, %47 ]
  %61 = bitcast %"class.blink::PersistentNode"* %60 to i64*
  %62 = load i64, i64* %61, align 8, !noalias !2
  %63 = bitcast %"class.blink::PersistentRegion"* %52 to i64*
  store i64 %62, i64* %63, align 8, !noalias !2
  %64 = bitcast %"class.blink::PersistentNode"* %60 to %"class.blink::PersistentBase.601"**
  store %"class.blink::PersistentBase.601"* %36, %"class.blink::PersistentBase.601"** %64, align 8, !noalias !2
  %65 = getelementptr inbounds %"class.blink::PersistentNode", %"class.blink::PersistentNode"* %60, i64 0, i32 1
  store void (%"class.blink::Visitor"*, i8*)* @_ZN5blink19TraceMethodDelegateINS_14PersistentBaseINS_25BackgroundFetchIconLoaderELNS_31WeaknessPersistentConfigurationE1ELNS_38CrossThreadnessPersistentConfigurationE0EEEXadL_ZNKS5_15TracePersistentEPNS_7VisitorEEEE10TrampolineES7_PKv, void (%"class.blink::Visitor"*, i8*)** %65, align 8
  store %"class.blink::PersistentNode"* %60, %"class.blink::PersistentNode"** %38, align 8, !alias.scope !2
  br label %66

66:                                               ; preds = %34, %34, %59
  %67 = bitcast %"class.blink::WeakPersistent.603"* %8 to i8*
  call void @llvm.lifetime.start.p0i8(i64 16, i8* nonnull %67) #11
  %68 = getelementptr inbounds %"class.blink::WeakPersistent.603", %"class.blink::WeakPersistent.603"* %8, i64 0, i32 0
  %69 = getelementptr inbounds %"class.blink::WeakPersistent.603", %"class.blink::WeakPersistent.603"* %8, i64 0, i32 0, i32 0
  store %"class.blink::ExecutionContext"* %2, %"class.blink::ExecutionContext"** %69, align 8, !alias.scope !6
  %70 = getelementptr inbounds %"class.blink::WeakPersistent.603", %"class.blink::WeakPersistent.603"* %8, i64 0, i32 0, i32 1, i32 0
  store %"class.blink::PersistentNode"* null, %"class.blink::PersistentNode"** %70, align 8, !alias.scope !6
  %71 = ptrtoint %"class.blink::ExecutionContext"* %2 to i64
  switch i64 %71, label %72 [
    i64 0, label %98
    i64 -1, label %98
  ]

72:                                               ; preds = %66
  %73 = load %"class.WTF::ThreadSpecific"*, %"class.WTF::ThreadSpecific"** @_ZN5blink11ThreadState16thread_specific_E, align 8, !noalias !6
  %74 = getelementptr inbounds %"class.WTF::ThreadSpecific", %"class.WTF::ThreadSpecific"* %73, i64 0, i32 1
  %75 = call i8* @_ZNK4base18ThreadLocalStorage4Slot3GetEv(%"class.base::ThreadLocalStorage::Slot"* %74) #11, !noalias !6
  %76 = icmp eq i8* %75, null
  br i1 %76, label %77, label %79, !prof !5

77:                                               ; preds = %72
  %78 = call i8* @_ZN3WTF10Partitions16FastZeroedMallocEmPKc(i64 8, i8* getelementptr inbounds ([68 x i8], [68 x i8]* @__PRETTY_FUNCTION__._ZN3WTF21GetStringWithTypeNameIPN5blink11ThreadStateEEEPKcv, i64 0, i64 0)) #11
  call void @_ZN4base18ThreadLocalStorage4Slot3SetEPv(%"class.base::ThreadLocalStorage::Slot"* %74, i8* %78) #11
  br label %79

79:                                               ; preds = %77, %72
  %80 = phi i8* [ %78, %77 ], [ %75, %72 ]
  %81 = bitcast i8* %80 to %"class.blink::ThreadState"**
  %82 = load %"class.blink::ThreadState"*, %"class.blink::ThreadState"** %81, align 8, !noalias !6
  %83 = getelementptr inbounds %"class.blink::ThreadState", %"class.blink::ThreadState"* %82, i64 0, i32 4, i32 0, i32 0, i32 0
  %84 = load %"class.blink::PersistentRegion"*, %"class.blink::PersistentRegion"** %83, align 8, !noalias !6
  %85 = getelementptr inbounds %"class.blink::PersistentRegion", %"class.blink::PersistentRegion"* %84, i64 0, i32 0, i32 0
  %86 = load %"class.blink::PersistentNode"*, %"class.blink::PersistentNode"** %85, align 8, !noalias !6
  %87 = icmp eq %"class.blink::PersistentNode"* %86, null
  br i1 %87, label %88, label %91, !prof !5

88:                                               ; preds = %79
  %89 = getelementptr inbounds %"class.blink::PersistentRegion", %"class.blink::PersistentRegion"* %84, i64 0, i32 0
  call void @_ZN5blink20PersistentRegionBase15EnsureNodeSlotsEv(%"class.blink::PersistentRegionBase"* %89) #11
  %90 = load %"class.blink::PersistentNode"*, %"class.blink::PersistentNode"** %85, align 8
  br label %91

91:                                               ; preds = %88, %79
  %92 = phi %"class.blink::PersistentNode"* [ %90, %88 ], [ %86, %79 ]
  %93 = bitcast %"class.blink::PersistentNode"* %92 to i64*
  %94 = load i64, i64* %93, align 8, !noalias !6
  %95 = bitcast %"class.blink::PersistentRegion"* %84 to i64*
  store i64 %94, i64* %95, align 8, !noalias !6
  %96 = bitcast %"class.blink::PersistentNode"* %92 to %"class.blink::PersistentBase.604"**
  store %"class.blink::PersistentBase.604"* %68, %"class.blink::PersistentBase.604"** %96, align 8, !noalias !6
  %97 = getelementptr inbounds %"class.blink::PersistentNode", %"class.blink::PersistentNode"* %92, i64 0, i32 1
  store void (%"class.blink::Visitor"*, i8*)* @_ZN5blink19TraceMethodDelegateINS_14PersistentBaseINS_16ExecutionContextELNS_31WeaknessPersistentConfigurationE1ELNS_38CrossThreadnessPersistentConfigurationE0EEEXadL_ZNKS5_15TracePersistentEPNS_7VisitorEEEE10TrampolineES7_PKv, void (%"class.blink::Visitor"*, i8*)** %97, align 8
  store %"class.blink::PersistentNode"* %92, %"class.blink::PersistentNode"** %70, align 8, !alias.scope !6
  br label %98

98:                                               ; preds = %66, %66, %91
  %99 = call i8* @_Znwm(i64 88) #12, !noalias !9
  %100 = bitcast i8* %99 to %"class.base::internal::BindStateBase"*
  call void @_ZN4base8internal13BindStateBaseC2EPFvvEPFvPKS1_EPFbS5_NS1_21CancellationQueryModeEE(%"class.base::internal::BindStateBase"* nonnull %100, void ()* bitcast (void (%"class.base::internal::BindStateBase"*, %"class.gfx::Size"*)* @_ZN4base8internal7InvokerINS0_9BindStateIMN5blink25BackgroundFetchIconLoaderEFvPNS3_16ExecutionContextENS_12OnceCallbackIFvRK8SkBitmaplEEERKN3gfx4SizeEEJNS3_14WeakPersistentIS4_EENSJ_IS5_EESC_EEEFvSG_EE7RunOnceEPNS0_13BindStateBaseESG_ to void ()*), void (%"class.base::internal::BindStateBase"*)* nonnull @_ZN4base8internal9BindStateIMN5blink25BackgroundFetchIconLoaderEFvPNS2_16ExecutionContextENS_12OnceCallbackIFvRK8SkBitmaplEEERKN3gfx4SizeEEJNS2_14WeakPersistentIS3_EENSI_IS4_EESB_EE7DestroyEPKNS0_13BindStateBaseE, i1 (%"class.base::internal::BindStateBase"*, i32)* nonnull @_ZN4base8internal23QueryCancellationTraitsINS0_9BindStateIMN5blink25BackgroundFetchIconLoaderEFvPNS3_16ExecutionContextENS_12OnceCallbackIFvRK8SkBitmaplEEERKN3gfx4SizeEEJNS3_14WeakPersistentIS4_EENSJ_IS5_EESC_EEEEEbPKNS0_13BindStateBaseENSN_21CancellationQueryModeE) #11, !noalias !9
  %101 = getelementptr inbounds i8, i8* %99, i64 32
  %102 = bitcast i8* %101 to <2 x i64>*
  store <2 x i64> <i64 ptrtoint (void (%"class.blink::BackgroundFetchIconLoader"*, %"class.blink::ExecutionContext"*, %"class.base::OnceCallback.34"*, %"class.gfx::Size"*)* @_ZN5blink25BackgroundFetchIconLoader33DidGetIconDisplaySizeIfSoLoadIconEPNS_16ExecutionContextEN4base12OnceCallbackIFvRK8SkBitmaplEEERKN3gfx4SizeE to i64), i64 0>, <2 x i64>* %102, align 8, !noalias !9
  %103 = getelementptr inbounds i8, i8* %99, i64 48
  %104 = bitcast i8* %103 to %"struct.std::__1::__tuple_impl"*
  call void @_ZNSt3__112__tuple_implINS_15__tuple_indicesIJLm0ELm1ELm2EEEEJN5blink14WeakPersistentINS3_25BackgroundFetchIconLoaderEEENS4_INS3_16ExecutionContextEEEN4base12OnceCallbackIFvRK8SkBitmaplEEEEEC2IJLm0ELm1ELm2EEJS6_S8_SF_EJEJEJS6_S8_SF_EEENS1_IJXspT_EEEENS_13__tuple_typesIJDpT0_EEENS1_IJXspT1_EEEENSJ_IJDpT2_EEEDpOT3_(%"struct.std::__1::__tuple_impl"* %104, %"class.blink::WeakPersistent"* nonnull dereferenceable(16) %7, %"class.blink::WeakPersistent.603"* nonnull dereferenceable(16) %8, %"class.base::OnceCallback.34"* dereferenceable(8) %4) #11, !noalias !9
  %105 = bitcast %"class.base::OnceCallback.600"* %6 to i8**
  store i8* %99, i8** %105, align 8, !alias.scope !9
  call void @_ZN5blink21BackgroundFetchBridge18GetIconDisplaySizeEN4base12OnceCallbackIFvRKN3gfx4SizeEEEE(%"class.blink::BackgroundFetchBridge"* %1, %"class.base::OnceCallback.600"* nonnull %6) #11
  %106 = getelementptr inbounds %"class.base::OnceCallback.600", %"class.base::OnceCallback.600"* %6, i64 0, i32 0
  call void @_ZN4base8internal12CallbackBaseD2Ev(%"class.base::internal::CallbackBase"* nonnull %106) #11
  %107 = load %"class.blink::PersistentNode"*, %"class.blink::PersistentNode"** %70, align 8
  %108 = icmp eq %"class.blink::PersistentNode"* %107, null
  br i1 %108, label %128, label %109

109:                                              ; preds = %98
  %110 = load %"class.WTF::ThreadSpecific"*, %"class.WTF::ThreadSpecific"** @_ZN5blink11ThreadState16thread_specific_E, align 8
  %111 = getelementptr inbounds %"class.WTF::ThreadSpecific", %"class.WTF::ThreadSpecific"* %110, i64 0, i32 1
  %112 = call i8* @_ZNK4base18ThreadLocalStorage4Slot3GetEv(%"class.base::ThreadLocalStorage::Slot"* %111) #11
  %113 = icmp eq i8* %112, null
  br i1 %113, label %114, label %116, !prof !5

114:                                              ; preds = %109
  %115 = call i8* @_ZN3WTF10Partitions16FastZeroedMallocEmPKc(i64 8, i8* getelementptr inbounds ([68 x i8], [68 x i8]* @__PRETTY_FUNCTION__._ZN3WTF21GetStringWithTypeNameIPN5blink11ThreadStateEEEPKcv, i64 0, i64 0)) #11
  call void @_ZN4base18ThreadLocalStorage4Slot3SetEPv(%"class.base::ThreadLocalStorage::Slot"* %111, i8* %115) #11
  br label %116

116:                                              ; preds = %114, %109
  %117 = phi i8* [ %115, %114 ], [ %112, %109 ]
  %118 = bitcast i8* %117 to %"class.blink::ThreadState"**
  %119 = load %"class.blink::ThreadState"*, %"class.blink::ThreadState"** %118, align 8
  %120 = getelementptr inbounds %"class.blink::ThreadState", %"class.blink::ThreadState"* %119, i64 0, i32 4, i32 0, i32 0, i32 0
  %121 = load %"class.blink::PersistentRegion"*, %"class.blink::PersistentRegion"** %120, align 8
  %122 = load %"class.blink::PersistentNode"*, %"class.blink::PersistentNode"** %70, align 8
  %123 = getelementptr inbounds %"class.blink::PersistentRegion", %"class.blink::PersistentRegion"* %121, i64 0, i32 0, i32 0
  %124 = bitcast %"class.blink::PersistentRegion"* %121 to i64*
  %125 = load i64, i64* %124, align 8
  %126 = bitcast %"class.blink::PersistentNode"* %122 to i64*
  store i64 %125, i64* %126, align 8
  %127 = getelementptr inbounds %"class.blink::PersistentNode", %"class.blink::PersistentNode"* %122, i64 0, i32 1
  store void (%"class.blink::Visitor"*, i8*)* null, void (%"class.blink::Visitor"*, i8*)** %127, align 8
  store %"class.blink::PersistentNode"* %122, %"class.blink::PersistentNode"** %123, align 8
  store %"class.blink::PersistentNode"* null, %"class.blink::PersistentNode"** %70, align 8
  br label %128

128:                                              ; preds = %98, %116
  call void @llvm.lifetime.end.p0i8(i64 16, i8* nonnull %67) #11
  %129 = load %"class.blink::PersistentNode"*, %"class.blink::PersistentNode"** %38, align 8
  %130 = icmp eq %"class.blink::PersistentNode"* %129, null
  br i1 %130, label %150, label %131

131:                                              ; preds = %128
  %132 = load %"class.WTF::ThreadSpecific"*, %"class.WTF::ThreadSpecific"** @_ZN5blink11ThreadState16thread_specific_E, align 8
  %133 = getelementptr inbounds %"class.WTF::ThreadSpecific", %"class.WTF::ThreadSpecific"* %132, i64 0, i32 1
  %134 = call i8* @_ZNK4base18ThreadLocalStorage4Slot3GetEv(%"class.base::ThreadLocalStorage::Slot"* %133) #11
  %135 = icmp eq i8* %134, null
  br i1 %135, label %136, label %138, !prof !5

136:                                              ; preds = %131
  %137 = call i8* @_ZN3WTF10Partitions16FastZeroedMallocEmPKc(i64 8, i8* getelementptr inbounds ([68 x i8], [68 x i8]* @__PRETTY_FUNCTION__._ZN3WTF21GetStringWithTypeNameIPN5blink11ThreadStateEEEPKcv, i64 0, i64 0)) #11
  call void @_ZN4base18ThreadLocalStorage4Slot3SetEPv(%"class.base::ThreadLocalStorage::Slot"* %133, i8* %137) #11
  br label %138

138:                                              ; preds = %136, %131
  %139 = phi i8* [ %137, %136 ], [ %134, %131 ]
  %140 = bitcast i8* %139 to %"class.blink::ThreadState"**
  %141 = load %"class.blink::ThreadState"*, %"class.blink::ThreadState"** %140, align 8
  %142 = getelementptr inbounds %"class.blink::ThreadState", %"class.blink::ThreadState"* %141, i64 0, i32 4, i32 0, i32 0, i32 0
  %143 = load %"class.blink::PersistentRegion"*, %"class.blink::PersistentRegion"** %142, align 8
  %144 = load %"class.blink::PersistentNode"*, %"class.blink::PersistentNode"** %38, align 8
  %145 = getelementptr inbounds %"class.blink::PersistentRegion", %"class.blink::PersistentRegion"* %143, i64 0, i32 0, i32 0
  %146 = bitcast %"class.blink::PersistentRegion"* %143 to i64*
  %147 = load i64, i64* %146, align 8
  %148 = bitcast %"class.blink::PersistentNode"* %144 to i64*
  store i64 %147, i64* %148, align 8
  %149 = getelementptr inbounds %"class.blink::PersistentNode", %"class.blink::PersistentNode"* %144, i64 0, i32 1
  store void (%"class.blink::Visitor"*, i8*)* null, void (%"class.blink::Visitor"*, i8*)** %149, align 8
  store %"class.blink::PersistentNode"* %144, %"class.blink::PersistentNode"** %145, align 8
  store %"class.blink::PersistentNode"* null, %"class.blink::PersistentNode"** %38, align 8
  br label %150

150:                                              ; preds = %128, %138
  call void @llvm.lifetime.end.p0i8(i64 16, i8* nonnull %35) #11
  ret void
}

declare void @_ZN5blink21BackgroundFetchBridge18GetIconDisplaySizeEN4base12OnceCallbackIFvRKN3gfx4SizeEEEE(%"class.blink::BackgroundFetchBridge"*, %"class.base::OnceCallback.600"*) local_unnamed_addr #1

; Function Attrs: argmemonly nounwind
declare void @llvm.lifetime.start.p0i8(i64 immarg, i8* nocapture) #2

; Function Attrs: nounwind ssp uwtable
define hidden void @_ZN5blink25BackgroundFetchIconLoader33DidGetIconDisplaySizeIfSoLoadIconEPNS_16ExecutionContextEN4base12OnceCallbackIFvRK8SkBitmaplEEERKN3gfx4SizeE(%"class.blink::BackgroundFetchIconLoader"*, %"class.blink::ExecutionContext"*, %"class.base::OnceCallback.34"*, %"class.gfx::Size"* nocapture readonly dereferenceable(8)) #0 align 2 {
  %5 = alloca %"class.base::OnceCallback.34", align 8
  %6 = alloca %"class.base::OnceCallback.34", align 8
  %7 = alloca %class.SkBitmap, align 8
  %8 = alloca %"class.blink::KURL", align 8
  %9 = alloca %class.SkBitmap, align 8
  %10 = alloca %"class.blink::ResourceRequest", align 8
  %11 = alloca %"class.absl::optional", align 4
  %12 = alloca %"class.base::OnceCallback", align 8
  %13 = alloca <2 x i64>, align 16
  %14 = bitcast <2 x i64>* %13 to { i64, i64 }*
  %15 = alloca %"class.blink::WeakPersistent", align 8
  %16 = getelementptr inbounds %"class.gfx::Size", %"class.gfx::Size"* %3, i64 0, i32 0
  %17 = load i32, i32* %16, align 4
  %18 = icmp eq i32 %17, 0
  br i1 %18, label %23, label %19

19:                                               ; preds = %4
  %20 = getelementptr inbounds %"class.gfx::Size", %"class.gfx::Size"* %3, i64 0, i32 1
  %21 = load i32, i32* %20, align 4
  %22 = icmp eq i32 %21, 0
  br i1 %22, label %23, label %35

23:                                               ; preds = %4, %19
  %24 = bitcast %class.SkBitmap* %7 to i8*
  call void @llvm.lifetime.start.p0i8(i64 56, i8* nonnull %24) #11
  call void @_ZN8SkBitmapC1Ev(%class.SkBitmap* nonnull %7) #11
  %25 = bitcast %"class.base::OnceCallback.34"* %6 to i8*
  call void @llvm.lifetime.start.p0i8(i64 8, i8* nonnull %25) #11
  %26 = getelementptr inbounds %"class.base::OnceCallback.34", %"class.base::OnceCallback.34"* %2, i64 0, i32 0, i32 0, i32 0
  %27 = bitcast %"class.base::OnceCallback.34"* %2 to i64*
  %28 = load i64, i64* %27, align 8
  %29 = bitcast %"class.base::OnceCallback.34"* %6 to i64*
  store i64 %28, i64* %29, align 8
  store %"class.base::internal::BindStateBase"* null, %"class.base::internal::BindStateBase"** %26, align 8
  %30 = getelementptr inbounds %"class.base::OnceCallback.34", %"class.base::OnceCallback.34"* %6, i64 0, i32 0
  %31 = inttoptr i64 %28 to %"class.base::internal::BindStateBase"*
  %32 = getelementptr inbounds %"class.base::internal::BindStateBase", %"class.base::internal::BindStateBase"* %31, i64 0, i32 1
  %33 = bitcast void ()** %32 to void (%"class.base::internal::BindStateBase"*, %class.SkBitmap*, i64)**
  %34 = load void (%"class.base::internal::BindStateBase"*, %class.SkBitmap*, i64)*, void (%"class.base::internal::BindStateBase"*, %class.SkBitmap*, i64)** %33, align 8
  call void %34(%"class.base::internal::BindStateBase"* %31, %class.SkBitmap* nonnull dereferenceable(56) %7, i64 -1) #11
  call void @_ZN4base8internal12CallbackBaseD2Ev(%"class.base::internal::CallbackBase"* nonnull %30) #11
  call void @llvm.lifetime.end.p0i8(i64 8, i8* nonnull %25) #11
  call void @_ZN8SkBitmapD1Ev(%class.SkBitmap* nonnull %7) #11
  call void @llvm.lifetime.end.p0i8(i64 56, i8* nonnull %24) #11
  br label %133

35:                                               ; preds = %19
  %36 = getelementptr inbounds %"class.blink::KURL", %"class.blink::KURL"* %8, i64 0, i32 0
  call void @llvm.lifetime.start.p0i8(i64 112, i8* nonnull %36) #11
  call void @llvm.memset.p0i8.i64(i8* nonnull align 8 %36, i8 -86, i64 112, i1 false)
  call void @_ZN5blink25BackgroundFetchIconLoader22PickBestIconForDisplayEPNS_16ExecutionContextEi(%"class.blink::KURL"* nonnull sret %8, %"class.blink::BackgroundFetchIconLoader"* %0, %"class.blink::ExecutionContext"* %1, i32 %21)
  %37 = call zeroext i1 @_ZNK5blink4KURL7IsEmptyEv(%"class.blink::KURL"* nonnull %8) #11
  br i1 %37, label %38, label %50

38:                                               ; preds = %35
  %39 = bitcast %class.SkBitmap* %9 to i8*
  call void @llvm.lifetime.start.p0i8(i64 56, i8* nonnull %39) #11
  call void @_ZN8SkBitmapC1Ev(%class.SkBitmap* nonnull %9) #11
  %40 = bitcast %"class.base::OnceCallback.34"* %5 to i8*
  call void @llvm.lifetime.start.p0i8(i64 8, i8* nonnull %40) #11
  %41 = getelementptr inbounds %"class.base::OnceCallback.34", %"class.base::OnceCallback.34"* %2, i64 0, i32 0, i32 0, i32 0
  %42 = bitcast %"class.base::OnceCallback.34"* %2 to i64*
  %43 = load i64, i64* %42, align 8
  %44 = bitcast %"class.base::OnceCallback.34"* %5 to i64*
  store i64 %43, i64* %44, align 8
  store %"class.base::internal::BindStateBase"* null, %"class.base::internal::BindStateBase"** %41, align 8
  %45 = getelementptr inbounds %"class.base::OnceCallback.34", %"class.base::OnceCallback.34"* %5, i64 0, i32 0
  %46 = inttoptr i64 %43 to %"class.base::internal::BindStateBase"*
  %47 = getelementptr inbounds %"class.base::internal::BindStateBase", %"class.base::internal::BindStateBase"* %46, i64 0, i32 1
  %48 = bitcast void ()** %47 to void (%"class.base::internal::BindStateBase"*, %class.SkBitmap*, i64)**
  %49 = load void (%"class.base::internal::BindStateBase"*, %class.SkBitmap*, i64)*, void (%"class.base::internal::BindStateBase"*, %class.SkBitmap*, i64)** %48, align 8
  call void %49(%"class.base::internal::BindStateBase"* %46, %class.SkBitmap* nonnull dereferenceable(56) %9, i64 -1) #11
  call void @_ZN4base8internal12CallbackBaseD2Ev(%"class.base::internal::CallbackBase"* nonnull %45) #11
  call void @llvm.lifetime.end.p0i8(i64 8, i8* nonnull %40) #11
  call void @_ZN8SkBitmapD1Ev(%class.SkBitmap* nonnull %9) #11
  call void @llvm.lifetime.end.p0i8(i64 56, i8* nonnull %39) #11
  br label %132

50:                                               ; preds = %35
  %51 = getelementptr inbounds %"class.blink::BackgroundFetchIconLoader", %"class.blink::BackgroundFetchIconLoader"* %0, i64 0, i32 2, i32 0
  %52 = getelementptr inbounds %"class.base::OnceCallback.34", %"class.base::OnceCallback.34"* %2, i64 0, i32 0
  %53 = call dereferenceable(8) %"class.base::internal::CallbackBase"* @_ZN4base8internal12CallbackBaseaSEOS1_(%"class.base::internal::CallbackBase"* %51, %"class.base::internal::CallbackBase"* dereferenceable(8) %52) #11
  %54 = getelementptr inbounds %"class.blink::ResourceRequest", %"class.blink::ResourceRequest"* %10, i64 0, i32 0, i32 0, i32 0
  call void @llvm.lifetime.start.p0i8(i64 1032, i8* nonnull %54) #11
  call void @llvm.memset.p0i8.i64(i8* nonnull align 8 %54, i8 -86, i64 1032, i1 false)
  call void @_ZN5blink15ResourceRequestC1ERKNS_4KURLE(%"class.blink::ResourceRequest"* nonnull %10, %"class.blink::KURL"* nonnull dereferenceable(112) %8) #11
  %55 = getelementptr inbounds %"class.blink::ResourceRequest", %"class.blink::ResourceRequest"* %10, i64 0, i32 0
  %56 = getelementptr inbounds %"class.blink::ResourceRequest", %"class.blink::ResourceRequest"* %10, i64 0, i32 0, i32 15
  store i32 14, i32* %56, align 8
  %57 = getelementptr inbounds %"class.blink::ResourceRequest", %"class.blink::ResourceRequest"* %10, i64 0, i32 0, i32 16
  store i32 8, i32* %57, align 4
  call void @_ZN5blink19ResourceRequestHead11SetPriorityENS_13WebURLRequest8PriorityEi(%"class.blink::ResourceRequestHead"* nonnull %55, i32 2, i32 0) #11
  %58 = getelementptr inbounds %"class.blink::ResourceRequest", %"class.blink::ResourceRequest"* %10, i64 0, i32 0, i32 8
  %59 = load i16, i16* %58, align 8
  %60 = or i16 %59, 128
  store i16 %60, i16* %58, align 8
  %61 = getelementptr inbounds %"class.blink::ResourceRequest", %"class.blink::ResourceRequest"* %10, i64 0, i32 0, i32 17
  store i32 1, i32* %61, align 8
  %62 = getelementptr inbounds %"class.blink::ResourceRequest", %"class.blink::ResourceRequest"* %10, i64 0, i32 0, i32 19
  store i32 2, i32* %62, align 8
  %63 = getelementptr inbounds %"class.blink::ResourceRequest", %"class.blink::ResourceRequest"* %10, i64 0, i32 0, i32 10
  %64 = load i8, i8* %63, align 8
  %65 = or i8 %64, 1
  store i8 %65, i8* %63, align 8
  call void @_ZN5blink19ResourceRequestHead18SetTimeoutIntervalEN4base9TimeDeltaE(%"class.blink::ResourceRequestHead"* nonnull %55, i64 30000000) #11
  %66 = getelementptr inbounds %"class.blink::BackgroundFetchIconLoader", %"class.blink::BackgroundFetchIconLoader"* %0, i64 0, i32 1, i32 0, i32 0
  %67 = load %"class.blink::ThreadedIconLoader"*, %"class.blink::ThreadedIconLoader"** %66, align 8
  %68 = getelementptr inbounds %"class.absl::optional", %"class.absl::optional"* %11, i64 0, i32 0, i32 0, i32 0, i32 0
  call void @llvm.lifetime.start.p0i8(i64 12, i8* nonnull %68) #11
  store i8 1, i8* %68, align 4
  %69 = getelementptr inbounds %"class.absl::optional", %"class.absl::optional"* %11, i64 0, i32 0, i32 0, i32 0, i32 1, i32 0
  %70 = bitcast %"class.gfx::Size"* %3 to i64*
  %71 = bitcast %"class.gfx::Size"* %69 to i64*
  %72 = load i64, i64* %70, align 4
  store i64 %72, i64* %71, align 4
  %73 = bitcast <2 x i64>* %13 to i8*
  call void @llvm.lifetime.start.p0i8(i64 16, i8* nonnull %73) #11
  store <2 x i64> <i64 ptrtoint (void (%"class.blink::BackgroundFetchIconLoader"*, %class.SkBitmap*, double)* @_ZN5blink25BackgroundFetchIconLoader10DidGetIconE8SkBitmapd to i64), i64 0>, <2 x i64>* %13, align 16
  %74 = bitcast %"class.blink::WeakPersistent"* %15 to i8*
  call void @llvm.lifetime.start.p0i8(i64 16, i8* nonnull %74) #11
  %75 = getelementptr inbounds %"class.blink::WeakPersistent", %"class.blink::WeakPersistent"* %15, i64 0, i32 0
  %76 = getelementptr inbounds %"class.blink::WeakPersistent", %"class.blink::WeakPersistent"* %15, i64 0, i32 0, i32 0
  store %"class.blink::BackgroundFetchIconLoader"* %0, %"class.blink::BackgroundFetchIconLoader"** %76, align 8, !alias.scope !16
  %77 = getelementptr inbounds %"class.blink::WeakPersistent", %"class.blink::WeakPersistent"* %15, i64 0, i32 0, i32 1, i32 0
  store %"class.blink::PersistentNode"* null, %"class.blink::PersistentNode"** %77, align 8, !alias.scope !16
  %78 = ptrtoint %"class.blink::BackgroundFetchIconLoader"* %0 to i64
  switch i64 %78, label %79 [
    i64 0, label %105
    i64 -1, label %105
  ]

79:                                               ; preds = %50
  %80 = load %"class.WTF::ThreadSpecific"*, %"class.WTF::ThreadSpecific"** @_ZN5blink11ThreadState16thread_specific_E, align 8, !noalias !16
  %81 = getelementptr inbounds %"class.WTF::ThreadSpecific", %"class.WTF::ThreadSpecific"* %80, i64 0, i32 1
  %82 = call i8* @_ZNK4base18ThreadLocalStorage4Slot3GetEv(%"class.base::ThreadLocalStorage::Slot"* %81) #11, !noalias !16
  %83 = icmp eq i8* %82, null
  br i1 %83, label %84, label %86, !prof !5

84:                                               ; preds = %79
  %85 = call i8* @_ZN3WTF10Partitions16FastZeroedMallocEmPKc(i64 8, i8* getelementptr inbounds ([68 x i8], [68 x i8]* @__PRETTY_FUNCTION__._ZN3WTF21GetStringWithTypeNameIPN5blink11ThreadStateEEEPKcv, i64 0, i64 0)) #11
  call void @_ZN4base18ThreadLocalStorage4Slot3SetEPv(%"class.base::ThreadLocalStorage::Slot"* %81, i8* %85) #11
  br label %86

86:                                               ; preds = %84, %79
  %87 = phi i8* [ %85, %84 ], [ %82, %79 ]
  %88 = bitcast i8* %87 to %"class.blink::ThreadState"**
  %89 = load %"class.blink::ThreadState"*, %"class.blink::ThreadState"** %88, align 8, !noalias !16
  %90 = getelementptr inbounds %"class.blink::ThreadState", %"class.blink::ThreadState"* %89, i64 0, i32 4, i32 0, i32 0, i32 0
  %91 = load %"class.blink::PersistentRegion"*, %"class.blink::PersistentRegion"** %90, align 8, !noalias !16
  %92 = getelementptr inbounds %"class.blink::PersistentRegion", %"class.blink::PersistentRegion"* %91, i64 0, i32 0, i32 0
  %93 = load %"class.blink::PersistentNode"*, %"class.blink::PersistentNode"** %92, align 8, !noalias !16
  %94 = icmp eq %"class.blink::PersistentNode"* %93, null
  br i1 %94, label %95, label %98, !prof !5

95:                                               ; preds = %86
  %96 = getelementptr inbounds %"class.blink::PersistentRegion", %"class.blink::PersistentRegion"* %91, i64 0, i32 0
  call void @_ZN5blink20PersistentRegionBase15EnsureNodeSlotsEv(%"class.blink::PersistentRegionBase"* %96) #11
  %97 = load %"class.blink::PersistentNode"*, %"class.blink::PersistentNode"** %92, align 8
  br label %98

98:                                               ; preds = %95, %86
  %99 = phi %"class.blink::PersistentNode"* [ %97, %95 ], [ %93, %86 ]
  %100 = bitcast %"class.blink::PersistentNode"* %99 to i64*
  %101 = load i64, i64* %100, align 8, !noalias !16
  %102 = bitcast %"class.blink::PersistentRegion"* %91 to i64*
  store i64 %101, i64* %102, align 8, !noalias !16
  %103 = bitcast %"class.blink::PersistentNode"* %99 to %"class.blink::PersistentBase.601"**
  store %"class.blink::PersistentBase.601"* %75, %"class.blink::PersistentBase.601"** %103, align 8, !noalias !16
  %104 = getelementptr inbounds %"class.blink::PersistentNode", %"class.blink::PersistentNode"* %99, i64 0, i32 1
  store void (%"class.blink::Visitor"*, i8*)* @_ZN5blink19TraceMethodDelegateINS_14PersistentBaseINS_25BackgroundFetchIconLoaderELNS_31WeaknessPersistentConfigurationE1ELNS_38CrossThreadnessPersistentConfigurationE0EEEXadL_ZNKS5_15TracePersistentEPNS_7VisitorEEEE10TrampolineES7_PKv, void (%"class.blink::Visitor"*, i8*)** %104, align 8
  store %"class.blink::PersistentNode"* %99, %"class.blink::PersistentNode"** %77, align 8, !alias.scope !16
  br label %105

105:                                              ; preds = %50, %50, %98
  %106 = call i8* @_Znwm(i64 64) #12, !noalias !19
  %107 = bitcast i8* %106 to %"struct.base::internal::BindState.711"*
  call void @_ZN4base8internal9BindStateIMN5blink25BackgroundFetchIconLoaderEFv8SkBitmapdEJNS2_14WeakPersistentIS3_EEEEC2IS6_JS8_EEENSt3__117integral_constantIbLb1EEEPFvvEOT_DpOT0_(%"struct.base::internal::BindState.711"* nonnull %107, void ()* bitcast (void (%"class.base::internal::BindStateBase"*, %class.SkBitmap*, double)* @_ZN4base8internal7InvokerINS0_9BindStateIMN5blink25BackgroundFetchIconLoaderEFv8SkBitmapdEJNS3_14WeakPersistentIS4_EEEEEFvS5_dEE7RunOnceEPNS0_13BindStateBaseEOS5_d to void ()*), { i64, i64 }* nonnull dereferenceable(16) %14, %"class.blink::WeakPersistent"* nonnull dereferenceable(16) %15) #11, !noalias !19
  %108 = bitcast %"class.base::OnceCallback"* %12 to i8**
  store i8* %106, i8** %108, align 8, !alias.scope !19
  call void @_ZN5blink18ThreadedIconLoader5StartEPNS_16ExecutionContextERKNS_19ResourceRequestHeadERKN4absl8optionalIN3gfx4SizeEEEN4base12OnceCallbackIFv8SkBitmapdEEE(%"class.blink::ThreadedIconLoader"* %67, %"class.blink::ExecutionContext"* %1, %"class.blink::ResourceRequestHead"* nonnull dereferenceable(1016) %55, %"class.absl::optional"* nonnull dereferenceable(12) %11, %"class.base::OnceCallback"* nonnull %12) #11
  %109 = getelementptr inbounds %"class.base::OnceCallback", %"class.base::OnceCallback"* %12, i64 0, i32 0
  call void @_ZN4base8internal12CallbackBaseD2Ev(%"class.base::internal::CallbackBase"* nonnull %109) #11
  %110 = load %"class.blink::PersistentNode"*, %"class.blink::PersistentNode"** %77, align 8
  %111 = icmp eq %"class.blink::PersistentNode"* %110, null
  br i1 %111, label %131, label %112

112:                                              ; preds = %105
  %113 = load %"class.WTF::ThreadSpecific"*, %"class.WTF::ThreadSpecific"** @_ZN5blink11ThreadState16thread_specific_E, align 8
  %114 = getelementptr inbounds %"class.WTF::ThreadSpecific", %"class.WTF::ThreadSpecific"* %113, i64 0, i32 1
  %115 = call i8* @_ZNK4base18ThreadLocalStorage4Slot3GetEv(%"class.base::ThreadLocalStorage::Slot"* %114) #11
  %116 = icmp eq i8* %115, null
  br i1 %116, label %117, label %119, !prof !5

117:                                              ; preds = %112
  %118 = call i8* @_ZN3WTF10Partitions16FastZeroedMallocEmPKc(i64 8, i8* getelementptr inbounds ([68 x i8], [68 x i8]* @__PRETTY_FUNCTION__._ZN3WTF21GetStringWithTypeNameIPN5blink11ThreadStateEEEPKcv, i64 0, i64 0)) #11
  call void @_ZN4base18ThreadLocalStorage4Slot3SetEPv(%"class.base::ThreadLocalStorage::Slot"* %114, i8* %118) #11
  br label %119

119:                                              ; preds = %117, %112
  %120 = phi i8* [ %118, %117 ], [ %115, %112 ]
  %121 = bitcast i8* %120 to %"class.blink::ThreadState"**
  %122 = load %"class.blink::ThreadState"*, %"class.blink::ThreadState"** %121, align 8
  %123 = getelementptr inbounds %"class.blink::ThreadState", %"class.blink::ThreadState"* %122, i64 0, i32 4, i32 0, i32 0, i32 0
  %124 = load %"class.blink::PersistentRegion"*, %"class.blink::PersistentRegion"** %123, align 8
  %125 = load %"class.blink::PersistentNode"*, %"class.blink::PersistentNode"** %77, align 8
  %126 = getelementptr inbounds %"class.blink::PersistentRegion", %"class.blink::PersistentRegion"* %124, i64 0, i32 0, i32 0
  %127 = bitcast %"class.blink::PersistentRegion"* %124 to i64*
  %128 = load i64, i64* %127, align 8
  %129 = bitcast %"class.blink::PersistentNode"* %125 to i64*
  store i64 %128, i64* %129, align 8
  %130 = getelementptr inbounds %"class.blink::PersistentNode", %"class.blink::PersistentNode"* %125, i64 0, i32 1
  store void (%"class.blink::Visitor"*, i8*)* null, void (%"class.blink::Visitor"*, i8*)** %130, align 8
  store %"class.blink::PersistentNode"* %125, %"class.blink::PersistentNode"** %126, align 8
  store %"class.blink::PersistentNode"* null, %"class.blink::PersistentNode"** %77, align 8
  br label %131

131:                                              ; preds = %105, %119
  call void @llvm.lifetime.end.p0i8(i64 16, i8* nonnull %74) #11
  call void @llvm.lifetime.end.p0i8(i64 16, i8* nonnull %73) #11
  call void @llvm.lifetime.end.p0i8(i64 12, i8* nonnull %68) #11
  call void @_ZN5blink15ResourceRequestD1Ev(%"class.blink::ResourceRequest"* nonnull %10) #11
  call void @llvm.lifetime.end.p0i8(i64 1032, i8* nonnull %54) #11
  br label %132

132:                                              ; preds = %131, %38
  call void @_ZN5blink4KURLD1Ev(%"class.blink::KURL"* nonnull %8) #11
  call void @llvm.lifetime.end.p0i8(i64 112, i8* nonnull %36) #11
  br label %133

133:                                              ; preds = %132, %23
  ret void
}

; Function Attrs: argmemonly nounwind
declare void @llvm.lifetime.end.p0i8(i64 immarg, i8* nocapture) #2

declare void @_ZN8SkBitmapC1Ev(%class.SkBitmap*) unnamed_addr #1

; Function Attrs: nounwind
declare void @_ZN8SkBitmapD1Ev(%class.SkBitmap*) unnamed_addr #3

; Function Attrs: argmemonly nounwind
declare void @llvm.memset.p0i8.i64(i8* nocapture writeonly, i8, i64, i1 immarg) #2

; Function Attrs: nounwind ssp uwtable
define hidden void @_ZN5blink25BackgroundFetchIconLoader22PickBestIconForDisplayEPNS_16ExecutionContextEi(%"class.blink::KURL"* noalias sret, %"class.blink::BackgroundFetchIconLoader"* nocapture readonly, %"class.blink::ExecutionContext"*, i32) local_unnamed_addr #0 align 2 {
  %5 = alloca %"class.blink::WebVector.607", align 16
  %6 = alloca %"class.blink::KURL", align 8
  %7 = alloca %"struct.blink::Manifest::ImageResource", align 8
  %8 = alloca %class.GURL, align 8
  %9 = alloca %"class.std::__1::vector.608", align 16
  %10 = bitcast %"class.blink::WebVector.607"* %5 to i8*
  call void @llvm.lifetime.start.p0i8(i64 24, i8* nonnull %10) #11
  %11 = getelementptr inbounds %"class.blink::WebVector.607", %"class.blink::WebVector.607"* %5, i64 0, i32 0, i32 0, i32 0
  %12 = getelementptr inbounds %"class.blink::WebVector.607", %"class.blink::WebVector.607"* %5, i64 0, i32 0, i32 0, i32 1
  %13 = getelementptr inbounds %"class.blink::WebVector.607", %"class.blink::WebVector.607"* %5, i64 0, i32 0, i32 0, i32 2, i32 0, i32 0
  call void @llvm.memset.p0i8.i64(i8* nonnull align 16 %10, i8 0, i64 24, i1 false) #11
  %14 = getelementptr inbounds %"class.blink::BackgroundFetchIconLoader", %"class.blink::BackgroundFetchIconLoader"* %1, i64 0, i32 0, i32 0, i32 0, i32 0, i32 0
  %15 = load %"class.blink::Member"*, %"class.blink::Member"** %14, align 8
  %16 = getelementptr inbounds %"class.blink::BackgroundFetchIconLoader", %"class.blink::BackgroundFetchIconLoader"* %1, i64 0, i32 0, i32 0, i32 0, i32 0, i32 2
  %17 = load i32, i32* %16, align 4
  %18 = zext i32 %17 to i64
  %19 = getelementptr inbounds %"class.blink::Member", %"class.blink::Member"* %15, i64 %18
  %20 = icmp eq i32 %17, 0
  br i1 %20, label %47, label %21

21:                                               ; preds = %4
  %22 = getelementptr inbounds %"class.blink::KURL", %"class.blink::KURL"* %6, i64 0, i32 0
  %23 = bitcast %"class.blink::ExecutionContext"* %2 to void (%"class.blink::KURL"*, %"class.blink::ExecutionContext"*, %"class.WTF::String"*)***
  %24 = getelementptr inbounds %"class.blink::KURL", %"class.blink::KURL"* %6, i64 0, i32 4, i32 0, i32 0
  %25 = bitcast %"struct.blink::Manifest::ImageResource"* %7 to i8*
  %26 = getelementptr inbounds %"struct.blink::Manifest::ImageResource", %"struct.blink::Manifest::ImageResource"* %7, i64 0, i32 2
  %27 = getelementptr inbounds %"class.std::__1::vector.625", %"class.std::__1::vector.625"* %26, i64 0, i32 0, i32 0
  %28 = getelementptr inbounds %"struct.blink::Manifest::ImageResource", %"struct.blink::Manifest::ImageResource"* %7, i64 0, i32 2, i32 0, i32 1
  %29 = getelementptr inbounds %"struct.blink::Manifest::ImageResource", %"struct.blink::Manifest::ImageResource"* %7, i64 0, i32 2, i32 0, i32 2, i32 0, i32 0
  %30 = bitcast %"class.gfx::Size"** %28 to i64*
  %31 = bitcast %"class.std::__1::vector.625"* %26 to i64*
  %32 = bitcast %"class.gfx::Size"** %29 to i64*
  %33 = getelementptr inbounds %"struct.blink::Manifest::ImageResource", %"struct.blink::Manifest::ImageResource"* %7, i64 0, i32 3
  %34 = getelementptr inbounds %"class.std::__1::vector.632", %"class.std::__1::vector.632"* %33, i64 0, i32 0, i32 0
  %35 = getelementptr inbounds %"struct.blink::Manifest::ImageResource", %"struct.blink::Manifest::ImageResource"* %7, i64 0, i32 3, i32 0, i32 1
  %36 = getelementptr inbounds %"struct.blink::Manifest::ImageResource", %"struct.blink::Manifest::ImageResource"* %7, i64 0, i32 3, i32 0, i32 2, i32 0, i32 0
  %37 = bitcast i32** %35 to i64*
  %38 = bitcast %"class.std::__1::vector.632"* %33 to i64*
  %39 = bitcast i32** %36 to i64*
  %40 = getelementptr inbounds %"class.blink::WebVector.607", %"class.blink::WebVector.607"* %5, i64 0, i32 0
  %41 = bitcast %"struct.blink::Manifest::ImageResource"** %12 to i64*
  br label %89

42:                                               ; preds = %236
  %43 = bitcast %"class.blink::WebVector.607"* %5 to <2 x i64>*
  %44 = load <2 x i64>, <2 x i64>* %43, align 16, !noalias !26
  %45 = bitcast %"struct.blink::Manifest::ImageResource"** %13 to i64*
  %46 = load i64, i64* %45, align 16, !noalias !26
  br label %47

47:                                               ; preds = %4, %42
  %48 = phi i64 [ %46, %42 ], [ 0, %4 ]
  %49 = phi <2 x i64> [ %44, %42 ], [ zeroinitializer, %4 ]
  %50 = bitcast %class.GURL* %8 to i8*
  call void @llvm.lifetime.start.p0i8(i64 120, i8* nonnull %50) #11
  %51 = bitcast %"class.std::__1::vector.608"* %9 to i8*
  call void @llvm.lifetime.start.p0i8(i64 24, i8* nonnull %51) #11
  %52 = getelementptr inbounds %"class.std::__1::vector.608", %"class.std::__1::vector.608"* %9, i64 0, i32 0, i32 1
  %53 = bitcast %"class.std::__1::vector.608"* %9 to <2 x i64>*
  store <2 x i64> %49, <2 x i64>* %53, align 16, !alias.scope !26
  %54 = getelementptr inbounds %"class.std::__1::vector.608", %"class.std::__1::vector.608"* %9, i64 0, i32 0, i32 2, i32 0, i32 0
  %55 = bitcast %"struct.blink::Manifest::ImageResource"** %54 to i64*
  store i64 %48, i64* %55, align 16, !alias.scope !26
  call void @llvm.memset.p0i8.i64(i8* nonnull align 16 %10, i8 0, i64 24, i1 false) #11, !noalias !26
  call void @_ZN5blink20ManifestIconSelector26FindBestMatchingSquareIconERKNSt3__16vectorINS_8Manifest13ImageResourceENS1_9allocatorIS4_EEEEiiNS_5mojom29ManifestImageResource_PurposeE(%class.GURL* nonnull sret %8, %"class.std::__1::vector.608"* nonnull dereferenceable(24) %9, i32 %3, i32 0, i32 0) #11
  call void @_ZN5blink4KURLC1ERK4GURL(%"class.blink::KURL"* %0, %class.GURL* nonnull dereferenceable(120) %8) #11
  call void @_ZN4GURLD1Ev(%class.GURL* nonnull %8) #11
  %56 = getelementptr inbounds %"class.std::__1::vector.608", %"class.std::__1::vector.608"* %9, i64 0, i32 0, i32 0
  %57 = load %"struct.blink::Manifest::ImageResource"*, %"struct.blink::Manifest::ImageResource"** %56, align 16
  %58 = icmp eq %"struct.blink::Manifest::ImageResource"* %57, null
  br i1 %58, label %72, label %59

59:                                               ; preds = %47
  %60 = bitcast %"struct.blink::Manifest::ImageResource"* %57 to i8*
  %61 = load %"struct.blink::Manifest::ImageResource"*, %"struct.blink::Manifest::ImageResource"** %52, align 8
  %62 = icmp eq %"struct.blink::Manifest::ImageResource"* %61, %57
  br i1 %62, label %70, label %63

63:                                               ; preds = %59, %63
  %64 = phi %"struct.blink::Manifest::ImageResource"* [ %65, %63 ], [ %61, %59 ]
  %65 = getelementptr inbounds %"struct.blink::Manifest::ImageResource", %"struct.blink::Manifest::ImageResource"* %64, i64 -1
  call void @_ZN5blink8Manifest13ImageResourceD1Ev(%"struct.blink::Manifest::ImageResource"* %65) #11
  %66 = icmp eq %"struct.blink::Manifest::ImageResource"* %65, %57
  br i1 %66, label %67, label %63

67:                                               ; preds = %63
  %68 = bitcast %"class.std::__1::vector.608"* %9 to i8**
  %69 = load i8*, i8** %68, align 16
  br label %70

70:                                               ; preds = %67, %59
  %71 = phi i8* [ %69, %67 ], [ %60, %59 ]
  store %"struct.blink::Manifest::ImageResource"* %57, %"struct.blink::Manifest::ImageResource"** %52, align 8
  call void @_ZdlPv(i8* %71) #12
  br label %72

72:                                               ; preds = %47, %70
  call void @llvm.lifetime.end.p0i8(i64 24, i8* nonnull %51) #11
  call void @llvm.lifetime.end.p0i8(i64 120, i8* nonnull %50) #11
  %73 = load %"struct.blink::Manifest::ImageResource"*, %"struct.blink::Manifest::ImageResource"** %11, align 16
  %74 = icmp eq %"struct.blink::Manifest::ImageResource"* %73, null
  br i1 %74, label %88, label %75

75:                                               ; preds = %72
  %76 = bitcast %"struct.blink::Manifest::ImageResource"* %73 to i8*
  %77 = load %"struct.blink::Manifest::ImageResource"*, %"struct.blink::Manifest::ImageResource"** %12, align 8
  %78 = icmp eq %"struct.blink::Manifest::ImageResource"* %77, %73
  br i1 %78, label %86, label %79

79:                                               ; preds = %75, %79
  %80 = phi %"struct.blink::Manifest::ImageResource"* [ %81, %79 ], [ %77, %75 ]
  %81 = getelementptr inbounds %"struct.blink::Manifest::ImageResource", %"struct.blink::Manifest::ImageResource"* %80, i64 -1
  call void @_ZN5blink8Manifest13ImageResourceD1Ev(%"struct.blink::Manifest::ImageResource"* %81) #11
  %82 = icmp eq %"struct.blink::Manifest::ImageResource"* %81, %73
  br i1 %82, label %83, label %79

83:                                               ; preds = %79
  %84 = bitcast %"class.blink::WebVector.607"* %5 to i8**
  %85 = load i8*, i8** %84, align 16
  br label %86

86:                                               ; preds = %83, %75
  %87 = phi i8* [ %85, %83 ], [ %76, %75 ]
  store %"struct.blink::Manifest::ImageResource"* %73, %"struct.blink::Manifest::ImageResource"** %12, align 8
  call void @_ZdlPv(i8* %87) #12
  br label %88

88:                                               ; preds = %72, %86
  call void @llvm.lifetime.end.p0i8(i64 24, i8* nonnull %10) #11
  ret void

89:                                               ; preds = %21, %236
  %90 = phi %"class.blink::Member"* [ %15, %21 ], [ %237, %236 ]
  %91 = getelementptr inbounds %"class.blink::Member", %"class.blink::Member"* %90, i64 0, i32 0, i32 0
  %92 = load %"class.blink::ManifestImageResource"*, %"class.blink::ManifestImageResource"** %91, align 8
  call void @llvm.lifetime.start.p0i8(i64 112, i8* nonnull %22) #11
  %93 = getelementptr inbounds %"class.blink::ManifestImageResource", %"class.blink::ManifestImageResource"* %92, i64 0, i32 4
  %94 = load void (%"class.blink::KURL"*, %"class.blink::ExecutionContext"*, %"class.WTF::String"*)**, void (%"class.blink::KURL"*, %"class.blink::ExecutionContext"*, %"class.WTF::String"*)*** %23, align 8
  %95 = getelementptr inbounds void (%"class.blink::KURL"*, %"class.blink::ExecutionContext"*, %"class.WTF::String"*)*, void (%"class.blink::KURL"*, %"class.blink::ExecutionContext"*, %"class.WTF::String"*)** %94, i64 20
  %96 = load void (%"class.blink::KURL"*, %"class.blink::ExecutionContext"*, %"class.WTF::String"*)*, void (%"class.blink::KURL"*, %"class.blink::ExecutionContext"*, %"class.WTF::String"*)** %95, align 8
  call void %96(%"class.blink::KURL"* nonnull sret %6, %"class.blink::ExecutionContext"* %2, %"class.WTF::String"* dereferenceable(8) %93) #11
  %97 = load %"class.WTF::StringImpl"*, %"class.WTF::StringImpl"** %24, align 8
  %98 = icmp eq %"class.WTF::StringImpl"* %97, null
  br i1 %98, label %116, label %99

99:                                               ; preds = %89
  %100 = getelementptr inbounds %"class.WTF::StringImpl", %"class.WTF::StringImpl"* %97, i64 0, i32 2, i32 0, i32 0, i32 0, i32 0, i32 0
  %101 = load atomic i32, i32* %100 monotonic, align 4
  %102 = and i32 %101, 2
  %103 = icmp eq i32 %102, 0
  br i1 %103, label %104, label %116

104:                                              ; preds = %99
  %105 = getelementptr inbounds %"class.WTF::StringImpl", %"class.WTF::StringImpl"* %97, i64 0, i32 0
  %106 = load i32, i32* %105, align 4
  %107 = zext i32 %106 to i33
  %108 = call { i33, i1 } @llvm.sadd.with.overflow.i33(i33 %107, i33 1) #11
  %109 = extractvalue { i33, i1 } %108, 1
  %110 = extractvalue { i33, i1 } %108, 0
  %111 = icmp slt i33 %110, 0
  %112 = or i1 %109, %111
  br i1 %112, label %113, label %114, !prof !5

113:                                              ; preds = %104
  call void @llvm.trap() #11
  unreachable

114:                                              ; preds = %104
  %115 = trunc i33 %110 to i32
  store i32 %115, i32* %105, align 4
  br label %116

116:                                              ; preds = %114, %99, %89
  %117 = ptrtoint %"class.WTF::StringImpl"* %97 to i64
  %118 = bitcast %"class.WTF::String"* %93 to i64*
  %119 = getelementptr inbounds %"class.WTF::String", %"class.WTF::String"* %93, i64 0, i32 0, i32 0
  %120 = load %"class.WTF::StringImpl"*, %"class.WTF::StringImpl"** %119, align 8
  store i64 %117, i64* %118, align 8
  %121 = icmp eq %"class.WTF::StringImpl"* %120, null
  br i1 %121, label %135, label %122

122:                                              ; preds = %116
  %123 = getelementptr inbounds %"class.WTF::StringImpl", %"class.WTF::StringImpl"* %120, i64 0, i32 2, i32 0, i32 0, i32 0, i32 0, i32 0
  %124 = load atomic i32, i32* %123 monotonic, align 4
  %125 = and i32 %124, 2
  %126 = icmp eq i32 %125, 0
  %127 = getelementptr inbounds %"class.WTF::StringImpl", %"class.WTF::StringImpl"* %120, i64 0, i32 0
  %128 = load i32, i32* %127, align 4
  br i1 %126, label %129, label %131

129:                                              ; preds = %122
  %130 = add i32 %128, -1
  store i32 %130, i32* %127, align 4
  br label %131

131:                                              ; preds = %129, %122
  %132 = phi i32 [ %130, %129 ], [ %128, %122 ]
  %133 = icmp eq i32 %132, 0
  br i1 %133, label %134, label %135

134:                                              ; preds = %131
  call void @_ZNK3WTF10StringImpl18DestroyIfNotStaticEv(%"class.WTF::StringImpl"* nonnull %120) #11
  br label %135

135:                                              ; preds = %116, %131, %134
  call void @_ZN5blink4KURLD1Ev(%"class.blink::KURL"* nonnull %6) #11
  call void @llvm.lifetime.end.p0i8(i64 112, i8* nonnull %22) #11
  call void @llvm.lifetime.start.p0i8(i64 192, i8* nonnull %25) #11
  call void @llvm.memset.p0i8.i64(i8* nonnull align 8 %25, i8 -86, i64 192, i1 false)
  %136 = load %"class.blink::ManifestImageResource"*, %"class.blink::ManifestImageResource"** %91, align 8
  call void @_ZN5blink28ConvertManifestImageResourceEPKNS_21ManifestImageResourceE(%"struct.blink::Manifest::ImageResource"* nonnull sret %7, %"class.blink::ManifestImageResource"* %136) #11
  %137 = load %"class.gfx::Size"*, %"class.gfx::Size"** %27, align 8
  %138 = load %"class.gfx::Size"*, %"class.gfx::Size"** %28, align 8
  %139 = icmp eq %"class.gfx::Size"* %137, %138
  %140 = ptrtoint %"class.gfx::Size"* %137 to i64
  %141 = ptrtoint %"class.gfx::Size"* %138 to i64
  br i1 %139, label %142, label %183

142:                                              ; preds = %135
  %143 = load %"class.gfx::Size"*, %"class.gfx::Size"** %29, align 8
  %144 = icmp ult %"class.gfx::Size"* %137, %143
  br i1 %144, label %145, label %149

145:                                              ; preds = %142
  %146 = bitcast %"class.gfx::Size"* %137 to i64*
  store i64 0, i64* %146, align 4
  %147 = getelementptr inbounds %"class.gfx::Size", %"class.gfx::Size"* %137, i64 1
  %148 = ptrtoint %"class.gfx::Size"* %147 to i64
  store i64 %148, i64* %30, align 8
  br label %183

149:                                              ; preds = %142
  %150 = ptrtoint %"class.gfx::Size"* %143 to i64
  %151 = sub i64 %150, %140
  %152 = ashr exact i64 %151, 3
  %153 = icmp ult i64 %152, 1152921504606846975
  br i1 %153, label %154, label %160

154:                                              ; preds = %149
  %155 = ashr exact i64 %151, 2
  %156 = icmp eq i64 %151, 0
  %157 = select i1 %156, i64 1, i64 %155
  %158 = icmp ugt i64 %157, 2305843009213693951
  br i1 %158, label %159, label %160

159:                                              ; preds = %154
  call void @abort() #13
  unreachable

160:                                              ; preds = %149, %154
  %161 = phi i64 [ %157, %154 ], [ 2305843009213693951, %149 ]
  %162 = shl i64 %161, 3
  %163 = call i8* @_Znwm(i64 %162) #12
  %164 = bitcast i8* %163 to %"class.gfx::Size"*
  %165 = getelementptr inbounds %"class.gfx::Size", %"class.gfx::Size"* %164, i64 %161
  %166 = ptrtoint %"class.gfx::Size"* %165 to i64
  %167 = bitcast i8* %163 to i64*
  store i64 0, i64* %167, align 4
  %168 = getelementptr inbounds i8, i8* %163, i64 8
  %169 = ptrtoint i8* %168 to i64
  %170 = sub i64 %141, %140
  %171 = ashr exact i64 %170, 3
  %172 = sub nsw i64 0, %171
  %173 = getelementptr inbounds %"class.gfx::Size", %"class.gfx::Size"* %164, i64 %172
  %174 = ptrtoint %"class.gfx::Size"* %173 to i64
  %175 = icmp sgt i64 %170, 0
  br i1 %175, label %176, label %179

176:                                              ; preds = %160
  %177 = bitcast %"class.gfx::Size"* %173 to i8*
  %178 = bitcast %"class.gfx::Size"* %137 to i8*
  call void @llvm.memcpy.p0i8.p0i8.i64(i8* align 4 %177, i8* align 4 %178, i64 %170, i1 false) #11
  br label %179

179:                                              ; preds = %176, %160
  store i64 %174, i64* %31, align 8
  store i64 %169, i64* %30, align 8
  store i64 %166, i64* %32, align 8
  %180 = icmp eq %"class.gfx::Size"* %137, null
  br i1 %180, label %183, label %181

181:                                              ; preds = %179
  %182 = bitcast %"class.gfx::Size"* %137 to i8*
  call void @_ZdlPv(i8* %182) #12
  br label %183

183:                                              ; preds = %181, %179, %145, %135
  %184 = load i32*, i32** %34, align 8
  %185 = load i32*, i32** %35, align 8
  %186 = icmp eq i32* %184, %185
  %187 = ptrtoint i32* %184 to i64
  %188 = ptrtoint i32* %185 to i64
  br i1 %186, label %189, label %228

189:                                              ; preds = %183
  %190 = load i32*, i32** %36, align 8
  %191 = icmp ult i32* %184, %190
  br i1 %191, label %192, label %195

192:                                              ; preds = %189
  store i32 0, i32* %184, align 4
  %193 = getelementptr inbounds i32, i32* %184, i64 1
  %194 = ptrtoint i32* %193 to i64
  store i64 %194, i64* %37, align 8
  br label %228

195:                                              ; preds = %189
  %196 = ptrtoint i32* %190 to i64
  %197 = sub i64 %196, %187
  %198 = ashr exact i64 %197, 2
  %199 = icmp ult i64 %198, 2305843009213693951
  br i1 %199, label %200, label %206

200:                                              ; preds = %195
  %201 = ashr exact i64 %197, 1
  %202 = icmp eq i64 %197, 0
  %203 = select i1 %202, i64 1, i64 %201
  %204 = icmp ugt i64 %203, 4611686018427387903
  br i1 %204, label %205, label %206

205:                                              ; preds = %200
  call void @abort() #13
  unreachable

206:                                              ; preds = %195, %200
  %207 = phi i64 [ %203, %200 ], [ 4611686018427387903, %195 ]
  %208 = shl i64 %207, 2
  %209 = call i8* @_Znwm(i64 %208) #12
  %210 = bitcast i8* %209 to i32*
  %211 = getelementptr inbounds i32, i32* %210, i64 %207
  %212 = ptrtoint i32* %211 to i64
  store i32 0, i32* %210, align 4
  %213 = getelementptr inbounds i8, i8* %209, i64 4
  %214 = ptrtoint i8* %213 to i64
  %215 = sub i64 %188, %187
  %216 = ashr exact i64 %215, 2
  %217 = sub nsw i64 0, %216
  %218 = getelementptr inbounds i32, i32* %210, i64 %217
  %219 = ptrtoint i32* %218 to i64
  %220 = icmp sgt i64 %215, 0
  br i1 %220, label %221, label %224

221:                                              ; preds = %206
  %222 = bitcast i32* %218 to i8*
  %223 = bitcast i32* %184 to i8*
  call void @llvm.memcpy.p0i8.p0i8.i64(i8* align 4 %222, i8* align 4 %223, i64 %215, i1 false) #11
  br label %224

224:                                              ; preds = %221, %206
  store i64 %219, i64* %38, align 8
  store i64 %214, i64* %37, align 8
  store i64 %212, i64* %39, align 8
  %225 = icmp eq i32* %184, null
  br i1 %225, label %228, label %226

226:                                              ; preds = %224
  %227 = bitcast i32* %184 to i8*
  call void @_ZdlPv(i8* %227) #12
  br label %228

228:                                              ; preds = %226, %224, %192, %183
  %229 = load %"struct.blink::Manifest::ImageResource"*, %"struct.blink::Manifest::ImageResource"** %12, align 8
  %230 = load %"struct.blink::Manifest::ImageResource"*, %"struct.blink::Manifest::ImageResource"** %13, align 16
  %231 = icmp ult %"struct.blink::Manifest::ImageResource"* %229, %230
  br i1 %231, label %232, label %235

232:                                              ; preds = %228
  call void @_ZN5blink8Manifest13ImageResourceC1ERKS1_(%"struct.blink::Manifest::ImageResource"* %229, %"struct.blink::Manifest::ImageResource"* nonnull dereferenceable(192) %7) #11
  %233 = getelementptr inbounds %"struct.blink::Manifest::ImageResource", %"struct.blink::Manifest::ImageResource"* %229, i64 1
  %234 = ptrtoint %"struct.blink::Manifest::ImageResource"* %233 to i64
  store i64 %234, i64* %41, align 8
  br label %236

235:                                              ; preds = %228
  call void @_ZNSt3__16vectorIN5blink8Manifest13ImageResourceENS_9allocatorIS3_EEE24__emplace_back_slow_pathIJRS3_EEEvDpOT_(%"class.std::__1::vector.608"* nonnull %40, %"struct.blink::Manifest::ImageResource"* nonnull dereferenceable(192) %7) #11
  br label %236

236:                                              ; preds = %232, %235
  call void @_ZN5blink8Manifest13ImageResourceD1Ev(%"struct.blink::Manifest::ImageResource"* nonnull %7) #11
  call void @llvm.lifetime.end.p0i8(i64 192, i8* nonnull %25) #11
  %237 = getelementptr inbounds %"class.blink::Member", %"class.blink::Member"* %90, i64 1
  %238 = icmp eq %"class.blink::Member"* %237, %19
  br i1 %238, label %42, label %89
}

declare zeroext i1 @_ZNK5blink4KURL7IsEmptyEv(%"class.blink::KURL"*) local_unnamed_addr #1

declare void @_ZN5blink15ResourceRequestC1ERKNS_4KURLE(%"class.blink::ResourceRequest"*, %"class.blink::KURL"* dereferenceable(112)) unnamed_addr #1

declare void @_ZN5blink19ResourceRequestHead11SetPriorityENS_13WebURLRequest8PriorityEi(%"class.blink::ResourceRequestHead"*, i32, i32) local_unnamed_addr #1

declare void @_ZN5blink19ResourceRequestHead18SetTimeoutIntervalEN4base9TimeDeltaE(%"class.blink::ResourceRequestHead"*, i64) local_unnamed_addr #1

; Function Attrs: argmemonly nounwind
declare void @llvm.memcpy.p0i8.p0i8.i64(i8* nocapture writeonly, i8* nocapture readonly, i64, i1 immarg) #2

declare void @_ZN5blink18ThreadedIconLoader5StartEPNS_16ExecutionContextERKNS_19ResourceRequestHeadERKN4absl8optionalIN3gfx4SizeEEEN4base12OnceCallbackIFv8SkBitmapdEEE(%"class.blink::ThreadedIconLoader"*, %"class.blink::ExecutionContext"*, %"class.blink::ResourceRequestHead"* dereferenceable(1016), %"class.absl::optional"* dereferenceable(12), %"class.base::OnceCallback"*) local_unnamed_addr #1

; Function Attrs: nounwind ssp uwtable
define hidden void @_ZN5blink25BackgroundFetchIconLoader10DidGetIconE8SkBitmapd(%"class.blink::BackgroundFetchIconLoader"* nocapture, %class.SkBitmap*, double) #0 align 2 {
  %4 = alloca %"class.base::OnceCallback.34", align 8
  %5 = alloca %"class.base::OnceCallback.34", align 8
  %6 = getelementptr inbounds %class.SkBitmap, %class.SkBitmap* %1, i64 0, i32 0, i32 0
  %7 = load %class.SkPixelRef*, %class.SkPixelRef** %6, align 8
  %8 = icmp eq %class.SkPixelRef* %7, null
  br i1 %8, label %9, label %21

9:                                                ; preds = %3
  %10 = getelementptr inbounds %"class.blink::BackgroundFetchIconLoader", %"class.blink::BackgroundFetchIconLoader"* %0, i64 0, i32 2
  %11 = bitcast %"class.base::OnceCallback.34"* %4 to i8*
  call void @llvm.lifetime.start.p0i8(i64 8, i8* nonnull %11) #11
  %12 = getelementptr inbounds %"class.base::OnceCallback.34", %"class.base::OnceCallback.34"* %10, i64 0, i32 0, i32 0, i32 0
  %13 = bitcast %"class.base::OnceCallback.34"* %10 to i64*
  %14 = load i64, i64* %13, align 8
  %15 = bitcast %"class.base::OnceCallback.34"* %4 to i64*
  store i64 %14, i64* %15, align 8
  store %"class.base::internal::BindStateBase"* null, %"class.base::internal::BindStateBase"** %12, align 8
  %16 = getelementptr inbounds %"class.base::OnceCallback.34", %"class.base::OnceCallback.34"* %4, i64 0, i32 0
  %17 = inttoptr i64 %14 to %"class.base::internal::BindStateBase"*
  %18 = getelementptr inbounds %"class.base::internal::BindStateBase", %"class.base::internal::BindStateBase"* %17, i64 0, i32 1
  %19 = bitcast void ()** %18 to void (%"class.base::internal::BindStateBase"*, %class.SkBitmap*, i64)**
  %20 = load void (%"class.base::internal::BindStateBase"*, %class.SkBitmap*, i64)*, void (%"class.base::internal::BindStateBase"*, %class.SkBitmap*, i64)** %19, align 8
  tail call void %20(%"class.base::internal::BindStateBase"* %17, %class.SkBitmap* dereferenceable(56) %1, i64 -1) #11
  br label %37

21:                                               ; preds = %3
  %22 = tail call double @llvm.round.f64(double %2)
  %23 = fmul double %22, 1.000000e+02
  %24 = fptosi double %23 to i32
  %25 = getelementptr inbounds %"class.blink::BackgroundFetchIconLoader", %"class.blink::BackgroundFetchIconLoader"* %0, i64 0, i32 2
  %26 = sext i32 %24 to i64
  %27 = bitcast %"class.base::OnceCallback.34"* %5 to i8*
  call void @llvm.lifetime.start.p0i8(i64 8, i8* nonnull %27) #11
  %28 = getelementptr inbounds %"class.base::OnceCallback.34", %"class.base::OnceCallback.34"* %25, i64 0, i32 0, i32 0, i32 0
  %29 = bitcast %"class.base::OnceCallback.34"* %25 to i64*
  %30 = load i64, i64* %29, align 8
  %31 = bitcast %"class.base::OnceCallback.34"* %5 to i64*
  store i64 %30, i64* %31, align 8
  store %"class.base::internal::BindStateBase"* null, %"class.base::internal::BindStateBase"** %28, align 8
  %32 = getelementptr inbounds %"class.base::OnceCallback.34", %"class.base::OnceCallback.34"* %5, i64 0, i32 0
  %33 = inttoptr i64 %30 to %"class.base::internal::BindStateBase"*
  %34 = getelementptr inbounds %"class.base::internal::BindStateBase", %"class.base::internal::BindStateBase"* %33, i64 0, i32 1
  %35 = bitcast void ()** %34 to void (%"class.base::internal::BindStateBase"*, %class.SkBitmap*, i64)**
  %36 = load void (%"class.base::internal::BindStateBase"*, %class.SkBitmap*, i64)*, void (%"class.base::internal::BindStateBase"*, %class.SkBitmap*, i64)** %35, align 8
  tail call void %36(%"class.base::internal::BindStateBase"* %33, %class.SkBitmap* dereferenceable(56) %1, i64 %26) #11
  br label %37

37:                                               ; preds = %21, %9
  %38 = phi %"class.base::internal::CallbackBase"* [ %32, %21 ], [ %16, %9 ]
  %39 = phi i8* [ %27, %21 ], [ %11, %9 ]
  call void @_ZN4base8internal12CallbackBaseD2Ev(%"class.base::internal::CallbackBase"* nonnull %38) #11
  call void @llvm.lifetime.end.p0i8(i64 8, i8* nonnull %39) #11
  ret void
}

; Function Attrs: nounwind
declare void @_ZN4base8internal12CallbackBaseD2Ev(%"class.base::internal::CallbackBase"*) unnamed_addr #3

; Function Attrs: nounwind
declare void @_ZN5blink15ResourceRequestD1Ev(%"class.blink::ResourceRequest"*) unnamed_addr #3

; Function Attrs: nounwind
declare void @_ZN5blink4KURLD1Ev(%"class.blink::KURL"*) unnamed_addr #3

declare void @_ZN5blink28ConvertManifestImageResourceEPKNS_21ManifestImageResourceE(%"struct.blink::Manifest::ImageResource"* sret, %"class.blink::ManifestImageResource"*) local_unnamed_addr #1

; Function Attrs: nounwind
declare void @_ZN5blink8Manifest13ImageResourceD1Ev(%"struct.blink::Manifest::ImageResource"*) unnamed_addr #3

declare void @_ZN5blink20ManifestIconSelector26FindBestMatchingSquareIconERKNSt3__16vectorINS_8Manifest13ImageResourceENS1_9allocatorIS4_EEEEiiNS_5mojom29ManifestImageResource_PurposeE(%class.GURL* sret, %"class.std::__1::vector.608"* dereferenceable(24), i32, i32, i32) local_unnamed_addr #1

declare void @_ZN5blink4KURLC1ERK4GURL(%"class.blink::KURL"*, %class.GURL* dereferenceable(120)) unnamed_addr #1

; Function Attrs: nounwind
declare void @_ZN4GURLD1Ev(%class.GURL*) unnamed_addr #3

; Function Attrs: nounwind ssp uwtable
define hidden void @_ZN5blink25BackgroundFetchIconLoader4StopEv(%"class.blink::BackgroundFetchIconLoader"* nocapture readonly) local_unnamed_addr #0 align 2 {
  %2 = getelementptr inbounds %"class.blink::BackgroundFetchIconLoader", %"class.blink::BackgroundFetchIconLoader"* %0, i64 0, i32 1, i32 0, i32 0
  %3 = load %"class.blink::ThreadedIconLoader"*, %"class.blink::ThreadedIconLoader"** %2, align 8
  tail call void @_ZN5blink18ThreadedIconLoader4StopEv(%"class.blink::ThreadedIconLoader"* %3) #11
  ret void
}

declare void @_ZN5blink18ThreadedIconLoader4StopEv(%"class.blink::ThreadedIconLoader"*) local_unnamed_addr #1

; Function Attrs: nounwind readnone speculatable
declare double @llvm.round.f64(double) #4

; Function Attrs: nounwind ssp uwtable
define hidden void @_ZNK5blink25BackgroundFetchIconLoader5TraceEPNS_7VisitorE(%"class.blink::BackgroundFetchIconLoader"*, %"class.blink::Visitor"*) local_unnamed_addr #0 align 2 {
  %3 = bitcast %"class.blink::BackgroundFetchIconLoader"* %0 to i64*
  %4 = load atomic i64, i64* %3 monotonic, align 8
  %5 = icmp eq i64 %4, 0
  %6 = bitcast %"class.blink::BackgroundFetchIconLoader"* %0 to i8**
  %7 = bitcast %"class.blink::Visitor"* %1 to void (%"class.blink::Visitor"*, i8**)***
  %8 = load void (%"class.blink::Visitor"*, i8**)**, void (%"class.blink::Visitor"*, i8**)*** %7, align 8
  %9 = getelementptr inbounds void (%"class.blink::Visitor"*, i8**)*, void (%"class.blink::Visitor"*, i8**)** %8, i64 11
  %10 = load void (%"class.blink::Visitor"*, i8**)*, void (%"class.blink::Visitor"*, i8**)** %9, align 8
  tail call void %10(%"class.blink::Visitor"* %1, i8** %6) #11
  br i1 %5, label %17, label %11

11:                                               ; preds = %2
  %12 = inttoptr i64 %4 to i8*
  %13 = bitcast %"class.blink::Visitor"* %1 to void (%"class.blink::Visitor"*, i8*, i8*, void (%"class.blink::Visitor"*, i8*)*)***
  %14 = load void (%"class.blink::Visitor"*, i8*, i8*, void (%"class.blink::Visitor"*, i8*)*)**, void (%"class.blink::Visitor"*, i8*, i8*, void (%"class.blink::Visitor"*, i8*)*)*** %13, align 8
  %15 = getelementptr inbounds void (%"class.blink::Visitor"*, i8*, i8*, void (%"class.blink::Visitor"*, i8*)*)*, void (%"class.blink::Visitor"*, i8*, i8*, void (%"class.blink::Visitor"*, i8*)*)** %14, i64 5
  %16 = load void (%"class.blink::Visitor"*, i8*, i8*, void (%"class.blink::Visitor"*, i8*)*)*, void (%"class.blink::Visitor"*, i8*, i8*, void (%"class.blink::Visitor"*, i8*)*)** %15, align 8
  tail call void %16(%"class.blink::Visitor"* %1, i8* nonnull %12, i8* nonnull %12, void (%"class.blink::Visitor"*, i8*)* nonnull @_ZN5blink10TraceTraitINS_17HeapVectorBackingINS_6MemberINS_21ManifestImageResourceEEEN3WTF12VectorTraitsIS4_EEEEE5TraceEPNS_7VisitorEPKv) #11
  br label %17

17:                                               ; preds = %2, %11
  %18 = getelementptr inbounds %"class.blink::BackgroundFetchIconLoader", %"class.blink::BackgroundFetchIconLoader"* %0, i64 0, i32 1
  %19 = bitcast %"class.blink::Member.5"* %18 to i64*
  %20 = load atomic i64, i64* %19 monotonic, align 8
  %21 = icmp eq i64 %20, 0
  br i1 %21, label %28, label %22

22:                                               ; preds = %17
  %23 = inttoptr i64 %20 to i8*
  %24 = bitcast %"class.blink::Visitor"* %1 to void (%"class.blink::Visitor"*, i8*, i8*, void (%"class.blink::Visitor"*, i8*)*)***
  %25 = load void (%"class.blink::Visitor"*, i8*, i8*, void (%"class.blink::Visitor"*, i8*)*)**, void (%"class.blink::Visitor"*, i8*, i8*, void (%"class.blink::Visitor"*, i8*)*)*** %24, align 8
  %26 = getelementptr inbounds void (%"class.blink::Visitor"*, i8*, i8*, void (%"class.blink::Visitor"*, i8*)*)*, void (%"class.blink::Visitor"*, i8*, i8*, void (%"class.blink::Visitor"*, i8*)*)** %25, i64 5
  %27 = load void (%"class.blink::Visitor"*, i8*, i8*, void (%"class.blink::Visitor"*, i8*)*)*, void (%"class.blink::Visitor"*, i8*, i8*, void (%"class.blink::Visitor"*, i8*)*)** %26, align 8
  tail call void %27(%"class.blink::Visitor"* %1, i8* nonnull %23, i8* nonnull %23, void (%"class.blink::Visitor"*, i8*)* nonnull @_ZN5blink10TraceTraitINS_18ThreadedIconLoaderEE5TraceEPNS_7VisitorEPKv) #11
  br label %28

28:                                               ; preds = %17, %22
  ret void
}

declare i8* @_ZN3WTF10Partitions16FastZeroedMallocEmPKc(i64, i8*) local_unnamed_addr #1

declare i8* @_ZNK4base18ThreadLocalStorage4Slot3GetEv(%"class.base::ThreadLocalStorage::Slot"*) local_unnamed_addr #1

declare void @_ZN4base18ThreadLocalStorage4Slot3SetEPv(%"class.base::ThreadLocalStorage::Slot"*, i8*) local_unnamed_addr #1

; Function Attrs: nounwind
declare dereferenceable(8) %"class.base::internal::CallbackBase"* @_ZN4base8internal12CallbackBaseaSEOS1_(%"class.base::internal::CallbackBase"*, %"class.base::internal::CallbackBase"* dereferenceable(8)) local_unnamed_addr #3

declare void @_ZNK3WTF10StringImpl18DestroyIfNotStaticEv(%"class.WTF::StringImpl"*) local_unnamed_addr #1

; Function Attrs: nounwind readnone speculatable
declare { i33, i1 } @llvm.sadd.with.overflow.i33(i33, i33) #4

; Function Attrs: cold noreturn nounwind
declare void @llvm.trap() #5

; Function Attrs: nounwind ssp uwtable
define linkonce_odr hidden i8* @_ZN5blink10ThreadHeap8AllocateINS_18ThreadedIconLoaderEEEPhm(i64) local_unnamed_addr #0 comdat align 2 {
  %2 = alloca %"class.logging::CheckOpResult", align 8
  %3 = alloca %"class.logging::CheckOpResult", align 8
  %4 = alloca %"class.logging::CheckError", align 8
  %5 = load %"class.WTF::ThreadSpecific"*, %"class.WTF::ThreadSpecific"** @_ZN5blink11ThreadState16thread_specific_E, align 8
  %6 = getelementptr inbounds %"class.WTF::ThreadSpecific", %"class.WTF::ThreadSpecific"* %5, i64 0, i32 1
  %7 = tail call i8* @_ZNK4base18ThreadLocalStorage4Slot3GetEv(%"class.base::ThreadLocalStorage::Slot"* %6) #11
  %8 = icmp eq i8* %7, null
  br i1 %8, label %9, label %11, !prof !5

9:                                                ; preds = %1
  %10 = tail call i8* @_ZN3WTF10Partitions16FastZeroedMallocEmPKc(i64 8, i8* getelementptr inbounds ([68 x i8], [68 x i8]* @__PRETTY_FUNCTION__._ZN3WTF21GetStringWithTypeNameIPN5blink11ThreadStateEEEPKcv, i64 0, i64 0)) #11
  tail call void @_ZN4base18ThreadLocalStorage4Slot3SetEPv(%"class.base::ThreadLocalStorage::Slot"* %6, i8* %10) #11
  br label %11

11:                                               ; preds = %1, %9
  %12 = phi i8* [ %10, %9 ], [ %7, %1 ]
  %13 = bitcast i8* %12 to %"class.blink::ThreadState"**
  %14 = load %"class.blink::ThreadState"*, %"class.blink::ThreadState"** %13, align 8
  %15 = getelementptr inbounds %"class.blink::ThreadState", %"class.blink::ThreadState"* %14, i64 0, i32 0, i32 0, i32 0, i32 0
  %16 = load %"class.blink::ThreadHeap"*, %"class.blink::ThreadHeap"** %15, align 8
  %17 = icmp ult i64 %0, 64
  %18 = icmp ugt i64 %0, 31
  %19 = zext i1 %18 to i64
  %20 = icmp ult i64 %0, 128
  %21 = select i1 %20, i64 2, i64 3
  %22 = select i1 %17, i64 %19, i64 %21
  %23 = load atomic i32, i32* getelementptr inbounds ({ { i32 } }, { { i32 } }* @_ZZN5blink11GCInfoTraitINS_18ThreadedIconLoaderEE5IndexEvE13gc_info_index, i64 0, i32 0, i32 0) acquire, align 4
  %24 = icmp eq i32 %23, 0
  br i1 %24, label %25, label %28

25:                                               ; preds = %11
  %26 = load %"class.blink::GCInfoTable"*, %"class.blink::GCInfoTable"** @_ZN5blink11GCInfoTable13global_table_E, align 8
  %27 = tail call i32 @_ZN5blink11GCInfoTable17EnsureGCInfoIndexEPKNS_6GCInfoEPNSt3__16atomicIjEE(%"class.blink::GCInfoTable"* %26, %"struct.blink::GCInfo"* nonnull @_ZZN5blink11GCInfoTraitINS_18ThreadedIconLoaderEE5IndexEvE7kGcInfo, %"struct.std::__1::atomic"* bitcast ({ { i32 } }* @_ZZN5blink11GCInfoTraitINS_18ThreadedIconLoaderEE5IndexEvE13gc_info_index to %"struct.std::__1::atomic"*)) #11
  br label %28

28:                                               ; preds = %11, %25
  %29 = phi i32 [ %23, %11 ], [ %27, %25 ]
  %30 = getelementptr inbounds %"class.blink::ThreadHeap", %"class.blink::ThreadHeap"* %16, i64 0, i32 19, i64 %22
  %31 = bitcast %"class.blink::BaseArena"** %30 to %"class.blink::NormalPageArena"**
  %32 = load %"class.blink::NormalPageArena"*, %"class.blink::NormalPageArena"** %31, align 8
  %33 = bitcast %"class.logging::CheckOpResult"* %3 to i8*
  call void @llvm.lifetime.start.p0i8(i64 8, i8* nonnull %33) #11
  %34 = getelementptr inbounds %"class.logging::CheckOpResult", %"class.logging::CheckOpResult"* %3, i64 0, i32 0
  store i8* inttoptr (i64 -6148914691236517206 to i8*), i8** %34, align 8
  %35 = bitcast %"class.logging::CheckOpResult"* %2 to i8*
  call void @llvm.lifetime.start.p0i8(i64 8, i8* nonnull %35) #11
  %36 = icmp ult i64 %0, -8
  br i1 %36, label %37, label %38

37:                                               ; preds = %28
  call void @llvm.lifetime.end.p0i8(i64 8, i8* nonnull %35) #11
  store i8* null, i8** %34, align 8
  br label %48

38:                                               ; preds = %28
  %39 = add nsw i64 %0, 8
  %40 = tail call i8* @_ZN7logging15CheckOpValueStrEm(i64 %39) #11
  %41 = tail call i8* @_ZN7logging15CheckOpValueStrEm(i64 %0) #11
  call void @_ZN7logging13CheckOpResultC1EPKcPcS3_(%"class.logging::CheckOpResult"* nonnull %2, i8* getelementptr inbounds ([23 x i8], [23 x i8]* @.str, i64 0, i64 0), i8* %40, i8* %41) #11
  %42 = getelementptr inbounds %"class.logging::CheckOpResult", %"class.logging::CheckOpResult"* %2, i64 0, i32 0
  %43 = load i8*, i8** %42, align 8
  call void @llvm.lifetime.end.p0i8(i64 8, i8* nonnull %35) #11
  store i8* %43, i8** %34, align 8
  %44 = icmp eq i8* %43, null
  br i1 %44, label %48, label %45

45:                                               ; preds = %38
  %46 = bitcast %"class.logging::CheckError"* %4 to i8*
  call void @llvm.lifetime.start.p0i8(i64 8, i8* nonnull %46) #11
  call void @_ZN7logging10CheckError7CheckOpEPKciPNS_13CheckOpResultE(%"class.logging::CheckError"* nonnull sret %4, i8* getelementptr inbounds ([59 x i8], [59 x i8]* @.str.1, i64 0, i64 0), i32 246, %"class.logging::CheckOpResult"* nonnull %3) #11
  %47 = call dereferenceable(160) %"class.std::__1::basic_ostream"* @_ZN7logging10CheckError6streamEv(%"class.logging::CheckError"* nonnull %4) #11
  call void @_ZN7logging10CheckErrorD1Ev(%"class.logging::CheckError"* nonnull %4) #11
  call void @llvm.lifetime.end.p0i8(i64 8, i8* nonnull %46) #11
  br label %48

48:                                               ; preds = %37, %38, %45
  call void @llvm.lifetime.end.p0i8(i64 8, i8* nonnull %33) #11
  %49 = add i64 %0, 15
  %50 = and i64 %49, -8
  %51 = getelementptr inbounds %"class.blink::NormalPageArena", %"class.blink::NormalPageArena"* %32, i64 0, i32 4
  %52 = load i64, i64* %51, align 8
  %53 = icmp ult i64 %52, %50
  br i1 %53, label %86, label %54, !prof !5

54:                                               ; preds = %48
  %55 = getelementptr inbounds %"class.blink::NormalPageArena", %"class.blink::NormalPageArena"* %32, i64 0, i32 3
  %56 = load i8*, i8** %55, align 8
  %57 = getelementptr inbounds i8, i8* %56, i64 %50
  store i8* %57, i8** %55, align 8
  %58 = sub i64 %52, %50
  store i64 %58, i64* %51, align 8
  %59 = bitcast i8* %56 to i32*
  store i32 0, i32* %59, align 4
  %60 = getelementptr inbounds i8, i8* %56, i64 4
  %61 = bitcast i8* %60 to i16*
  %62 = trunc i32 %29 to i16
  %63 = shl i16 %62, 2
  store atomic i16 %63, i16* %61 monotonic, align 2
  %64 = lshr exact i64 %50, 1
  %65 = trunc i64 %64 to i16
  %66 = getelementptr inbounds i8, i8* %56, i64 6
  %67 = bitcast i8* %66 to i16*
  store i16 %65, i16* %67, align 2
  %68 = ptrtoint i8* %56 to i64
  %69 = and i64 %68, -131072
  %70 = inttoptr i64 %69 to i8*
  %71 = getelementptr inbounds i8, i8* %70, i64 4400
  %72 = bitcast i8* %71 to %"class.blink::PlatformAwareObjectStartBitmap"*
  %73 = bitcast i8* %71 to i64*
  %74 = load i64, i64* %73, align 16
  %75 = sub i64 %68, %74
  %76 = lshr i64 %75, 3
  %77 = lshr i64 %75, 6
  %78 = getelementptr inbounds %"class.blink::PlatformAwareObjectStartBitmap", %"class.blink::PlatformAwareObjectStartBitmap"* %72, i64 0, i32 0, i32 1, i64 %77
  %79 = load i8, i8* %78, align 1
  %80 = trunc i64 %76 to i32
  %81 = and i32 %80, 7
  %82 = shl i32 1, %81
  %83 = trunc i32 %82 to i8
  %84 = or i8 %79, %83
  store atomic i8 %84, i8* %78 release, align 1
  %85 = getelementptr inbounds i8, i8* %56, i64 8
  br label %89

86:                                               ; preds = %48
  %87 = zext i32 %29 to i64
  %88 = call i8* @_ZN5blink15NormalPageArena17OutOfLineAllocateEmm(%"class.blink::NormalPageArena"* %32, i64 %50, i64 %87) #11
  br label %89

89:                                               ; preds = %54, %86
  %90 = phi i8* [ %85, %54 ], [ %88, %86 ]
  ret i8* %90
}

declare i8* @_ZN5blink15NormalPageArena17OutOfLineAllocateEmm(%"class.blink::NormalPageArena"*, i64, i64) local_unnamed_addr #1

declare void @_ZN7logging10CheckError7CheckOpEPKciPNS_13CheckOpResultE(%"class.logging::CheckError"* sret, i8*, i32, %"class.logging::CheckOpResult"*) local_unnamed_addr #1

declare dereferenceable(160) %"class.std::__1::basic_ostream"* @_ZN7logging10CheckError6streamEv(%"class.logging::CheckError"*) local_unnamed_addr #1

; Function Attrs: nounwind
declare void @_ZN7logging10CheckErrorD1Ev(%"class.logging::CheckError"*) unnamed_addr #3

declare i8* @_ZN7logging15CheckOpValueStrEm(i64) local_unnamed_addr #1

declare void @_ZN7logging13CheckOpResultC1EPKcPcS3_(%"class.logging::CheckOpResult"*, i8*, i8*, i8*) unnamed_addr #1

; Function Attrs: nounwind ssp uwtable
define linkonce_odr hidden void @_ZN5blink10TraceTraitINS_18ThreadedIconLoaderEE5TraceEPNS_7VisitorEPKv(%"class.blink::Visitor"*, i8*) #0 comdat align 2 {
  %3 = bitcast i8* %1 to %"class.blink::ThreadedIconLoader"*
  tail call void @_ZNK5blink18ThreadedIconLoader5TraceEPNS_7VisitorE(%"class.blink::ThreadedIconLoader"* %3, %"class.blink::Visitor"* %0) #11
  ret void
}

; Function Attrs: nounwind ssp uwtable
define linkonce_odr hidden void @_ZN5blink8internal14FinalizerTraitINS_18ThreadedIconLoaderEE8FinalizeEPv(i8*) #0 comdat align 2 {
  %2 = bitcast i8* %0 to i32 (...)***
  store i32 (...)** bitcast (i8** getelementptr inbounds ({ [16 x i8*] }, { [16 x i8*] }* @_ZTVN5blink18ThreadedIconLoaderE, i64 0, inrange i32 0, i64 2) to i32 (...)**), i32 (...)*** %2, align 8
  %3 = getelementptr inbounds i8, i8* %0, i64 96
  %4 = bitcast i8* %3 to %"class.base::internal::CallbackBase"*
  tail call void @_ZN4base8internal12CallbackBaseD2Ev(%"class.base::internal::CallbackBase"* %4) #11
  %5 = getelementptr inbounds i8, i8* %0, i64 40
  %6 = bitcast i8* %5 to %class.SkBitmap*
  tail call void @_ZN8SkBitmapD1Ev(%class.SkBitmap* %6) #11
  %7 = getelementptr inbounds i8, i8* %0, i64 16
  %8 = bitcast i8* %7 to %"class.WTF::SharedBuffer"**
  %9 = load %"class.WTF::SharedBuffer"*, %"class.WTF::SharedBuffer"** %8, align 8
  %10 = icmp eq %"class.WTF::SharedBuffer"* %9, null
  br i1 %10, label %18, label %11

11:                                               ; preds = %1
  %12 = getelementptr inbounds %"class.WTF::SharedBuffer", %"class.WTF::SharedBuffer"* %9, i64 0, i32 0, i32 0, i32 0
  tail call void @_ZNK4base6subtle14RefCountedBase11ReleaseImplEv(%"class.base::subtle::RefCountedBase"* %12) #11
  %13 = getelementptr inbounds %"class.WTF::SharedBuffer", %"class.WTF::SharedBuffer"* %9, i64 0, i32 0, i32 0, i32 0, i32 0
  %14 = load i32, i32* %13, align 4
  %15 = icmp eq i32 %14, 0
  br i1 %15, label %16, label %18

16:                                               ; preds = %11
  tail call void @_ZN3WTF12SharedBufferD1Ev(%"class.WTF::SharedBuffer"* nonnull %9) #11
  %17 = bitcast %"class.WTF::SharedBuffer"* %9 to i8*
  tail call void @free(i8* %17) #11
  br label %18

18:                                               ; preds = %1, %11, %16
  ret void
}

; Function Attrs: nounwind ssp uwtable
define linkonce_odr hidden { i8*, i8 } @_ZN5blink9NameTraitINS_18ThreadedIconLoaderEE7GetNameEPKv(i8*) #0 comdat align 2 {
  ret { i8*, i8 } { i8* getelementptr inbounds ([13 x i8], [13 x i8]* @.str.2, i64 0, i64 0), i8 1 }
}

declare i32 @_ZN5blink11GCInfoTable17EnsureGCInfoIndexEPKNS_6GCInfoEPNSt3__16atomicIjEE(%"class.blink::GCInfoTable"*, %"struct.blink::GCInfo"*, %"struct.std::__1::atomic"*) local_unnamed_addr #1

declare void @_ZNK5blink18ThreadedIconLoader5TraceEPNS_7VisitorE(%"class.blink::ThreadedIconLoader"*, %"class.blink::Visitor"*) unnamed_addr #1

declare void @_ZNK4base6subtle14RefCountedBase11ReleaseImplEv(%"class.base::subtle::RefCountedBase"*) local_unnamed_addr #1

; Function Attrs: nounwind
declare void @_ZN3WTF12SharedBufferD1Ev(%"class.WTF::SharedBuffer"*) unnamed_addr #3

; Function Attrs: nounwind
declare void @free(i8* nocapture) local_unnamed_addr #3

; Function Attrs: nobuiltin nounwind
declare void @_ZdlPv(i8*) local_unnamed_addr #6

declare zeroext i1 @_ZN5blink14MarkingVisitor16WriteBarrierSlowEPv(i8*) local_unnamed_addr #1

; Function Attrs: nounwind ssp uwtable
define linkonce_odr hidden void @_ZN5blink19TraceMethodDelegateINS_14PersistentBaseINS_25BackgroundFetchIconLoaderELNS_31WeaknessPersistentConfigurationE1ELNS_38CrossThreadnessPersistentConfigurationE0EEEXadL_ZNKS5_15TracePersistentEPNS_7VisitorEEEE10TrampolineES7_PKv(%"class.blink::Visitor"*, i8*) #0 comdat align 2 {
  %3 = bitcast %"class.blink::Visitor"* %0 to void (%"class.blink::Visitor"*, void (%"class.blink::LivenessBroker"*, i8*)*, i8*)***
  %4 = load void (%"class.blink::Visitor"*, void (%"class.blink::LivenessBroker"*, i8*)*, i8*)**, void (%"class.blink::Visitor"*, void (%"class.blink::LivenessBroker"*, i8*)*, i8*)*** %3, align 8
  %5 = getelementptr inbounds void (%"class.blink::Visitor"*, void (%"class.blink::LivenessBroker"*, i8*)*, i8*)*, void (%"class.blink::Visitor"*, void (%"class.blink::LivenessBroker"*, i8*)*, i8*)** %4, i64 2
  %6 = load void (%"class.blink::Visitor"*, void (%"class.blink::LivenessBroker"*, i8*)*, i8*)*, void (%"class.blink::Visitor"*, void (%"class.blink::LivenessBroker"*, i8*)*, i8*)** %5, align 8
  tail call void %6(%"class.blink::Visitor"* %0, void (%"class.blink::LivenessBroker"*, i8*)* nonnull @_ZN5blink14PersistentBaseINS_25BackgroundFetchIconLoaderELNS_31WeaknessPersistentConfigurationE1ELNS_38CrossThreadnessPersistentConfigurationE0EE20HandleWeakPersistentERKNS_14LivenessBrokerEPKv, i8* %1) #11
  ret void
}

; Function Attrs: nounwind ssp uwtable
define linkonce_odr hidden void @_ZN5blink14PersistentBaseINS_25BackgroundFetchIconLoaderELNS_31WeaknessPersistentConfigurationE1ELNS_38CrossThreadnessPersistentConfigurationE0EE20HandleWeakPersistentERKNS_14LivenessBrokerEPKv(%"class.blink::LivenessBroker"* dereferenceable(1), i8*) #0 comdat align 2 {
  %3 = bitcast i8* %1 to %"class.blink::BackgroundFetchIconLoader"**
  %4 = load %"class.blink::BackgroundFetchIconLoader"*, %"class.blink::BackgroundFetchIconLoader"** %3, align 8
  %5 = icmp eq %"class.blink::BackgroundFetchIconLoader"* %4, null
  br i1 %5, label %49, label %6

6:                                                ; preds = %2
  %7 = load %"class.WTF::ThreadSpecific"*, %"class.WTF::ThreadSpecific"** @_ZN5blink11ThreadState16thread_specific_E, align 8
  %8 = getelementptr inbounds %"class.WTF::ThreadSpecific", %"class.WTF::ThreadSpecific"* %7, i64 0, i32 1
  %9 = tail call i8* @_ZNK4base18ThreadLocalStorage4Slot3GetEv(%"class.base::ThreadLocalStorage::Slot"* %8) #11
  %10 = icmp eq i8* %9, null
  br i1 %10, label %11, label %13, !prof !5

11:                                               ; preds = %6
  %12 = tail call i8* @_ZN3WTF10Partitions16FastZeroedMallocEmPKc(i64 8, i8* getelementptr inbounds ([68 x i8], [68 x i8]* @__PRETTY_FUNCTION__._ZN3WTF21GetStringWithTypeNameIPN5blink11ThreadStateEEEPKcv, i64 0, i64 0)) #11
  tail call void @_ZN4base18ThreadLocalStorage4Slot3SetEPv(%"class.base::ThreadLocalStorage::Slot"* %8, i8* %12) #11
  br label %13

13:                                               ; preds = %11, %6
  %14 = phi i8* [ %12, %11 ], [ %9, %6 ]
  %15 = bitcast i8* %14 to %"class.blink::ThreadState"**
  %16 = load %"class.blink::ThreadState"*, %"class.blink::ThreadState"** %15, align 8
  %17 = icmp eq %"class.blink::ThreadState"* %16, null
  br i1 %17, label %49, label %18

18:                                               ; preds = %13
  %19 = getelementptr inbounds %"class.blink::BackgroundFetchIconLoader", %"class.blink::BackgroundFetchIconLoader"* %4, i64 -1, i32 2
  %20 = bitcast %"class.base::OnceCallback.34"* %19 to %"class.blink::HeapObjectHeader"*
  %21 = getelementptr inbounds %"class.blink::HeapObjectHeader", %"class.blink::HeapObjectHeader"* %20, i64 0, i32 2
  %22 = load i16, i16* %21, align 2
  %23 = and i16 %22, 1
  %24 = icmp eq i16 %23, 0
  br i1 %24, label %25, label %49

25:                                               ; preds = %18
  store %"class.blink::BackgroundFetchIconLoader"* null, %"class.blink::BackgroundFetchIconLoader"** %3, align 8
  %26 = getelementptr inbounds i8, i8* %1, i64 8
  %27 = bitcast i8* %26 to %"class.blink::PersistentNode"**
  %28 = load %"class.blink::PersistentNode"*, %"class.blink::PersistentNode"** %27, align 8
  %29 = icmp eq %"class.blink::PersistentNode"* %28, null
  br i1 %29, label %49, label %30

30:                                               ; preds = %25
  %31 = load %"class.WTF::ThreadSpecific"*, %"class.WTF::ThreadSpecific"** @_ZN5blink11ThreadState16thread_specific_E, align 8
  %32 = getelementptr inbounds %"class.WTF::ThreadSpecific", %"class.WTF::ThreadSpecific"* %31, i64 0, i32 1
  %33 = tail call i8* @_ZNK4base18ThreadLocalStorage4Slot3GetEv(%"class.base::ThreadLocalStorage::Slot"* %32) #11
  %34 = icmp eq i8* %33, null
  br i1 %34, label %35, label %37, !prof !5

35:                                               ; preds = %30
  %36 = tail call i8* @_ZN3WTF10Partitions16FastZeroedMallocEmPKc(i64 8, i8* getelementptr inbounds ([68 x i8], [68 x i8]* @__PRETTY_FUNCTION__._ZN3WTF21GetStringWithTypeNameIPN5blink11ThreadStateEEEPKcv, i64 0, i64 0)) #11
  tail call void @_ZN4base18ThreadLocalStorage4Slot3SetEPv(%"class.base::ThreadLocalStorage::Slot"* %32, i8* %36) #11
  br label %37

37:                                               ; preds = %35, %30
  %38 = phi i8* [ %36, %35 ], [ %33, %30 ]
  %39 = bitcast i8* %38 to %"class.blink::ThreadState"**
  %40 = load %"class.blink::ThreadState"*, %"class.blink::ThreadState"** %39, align 8
  %41 = getelementptr inbounds %"class.blink::ThreadState", %"class.blink::ThreadState"* %40, i64 0, i32 4, i32 0, i32 0, i32 0
  %42 = load %"class.blink::PersistentRegion"*, %"class.blink::PersistentRegion"** %41, align 8
  %43 = load %"class.blink::PersistentNode"*, %"class.blink::PersistentNode"** %27, align 8
  %44 = getelementptr inbounds %"class.blink::PersistentRegion", %"class.blink::PersistentRegion"* %42, i64 0, i32 0, i32 0
  %45 = bitcast %"class.blink::PersistentRegion"* %42 to i64*
  %46 = load i64, i64* %45, align 8
  %47 = bitcast %"class.blink::PersistentNode"* %43 to i64*
  store i64 %46, i64* %47, align 8
  %48 = getelementptr inbounds %"class.blink::PersistentNode", %"class.blink::PersistentNode"* %43, i64 0, i32 1
  store void (%"class.blink::Visitor"*, i8*)* null, void (%"class.blink::Visitor"*, i8*)** %48, align 8
  store %"class.blink::PersistentNode"* %43, %"class.blink::PersistentNode"** %44, align 8
  store %"class.blink::PersistentNode"* null, %"class.blink::PersistentNode"** %27, align 8
  br label %49

49:                                               ; preds = %18, %13, %37, %25, %2
  ret void
}

declare void @_ZN5blink20PersistentRegionBase15EnsureNodeSlotsEv(%"class.blink::PersistentRegionBase"*) local_unnamed_addr #1

; Function Attrs: nounwind ssp uwtable
define linkonce_odr hidden void @_ZN5blink19TraceMethodDelegateINS_14PersistentBaseINS_16ExecutionContextELNS_31WeaknessPersistentConfigurationE1ELNS_38CrossThreadnessPersistentConfigurationE0EEEXadL_ZNKS5_15TracePersistentEPNS_7VisitorEEEE10TrampolineES7_PKv(%"class.blink::Visitor"*, i8*) #0 comdat align 2 {
  %3 = bitcast %"class.blink::Visitor"* %0 to void (%"class.blink::Visitor"*, void (%"class.blink::LivenessBroker"*, i8*)*, i8*)***
  %4 = load void (%"class.blink::Visitor"*, void (%"class.blink::LivenessBroker"*, i8*)*, i8*)**, void (%"class.blink::Visitor"*, void (%"class.blink::LivenessBroker"*, i8*)*, i8*)*** %3, align 8
  %5 = getelementptr inbounds void (%"class.blink::Visitor"*, void (%"class.blink::LivenessBroker"*, i8*)*, i8*)*, void (%"class.blink::Visitor"*, void (%"class.blink::LivenessBroker"*, i8*)*, i8*)** %4, i64 2
  %6 = load void (%"class.blink::Visitor"*, void (%"class.blink::LivenessBroker"*, i8*)*, i8*)*, void (%"class.blink::Visitor"*, void (%"class.blink::LivenessBroker"*, i8*)*, i8*)** %5, align 8
  tail call void %6(%"class.blink::Visitor"* %0, void (%"class.blink::LivenessBroker"*, i8*)* nonnull @_ZN5blink14PersistentBaseINS_16ExecutionContextELNS_31WeaknessPersistentConfigurationE1ELNS_38CrossThreadnessPersistentConfigurationE0EE20HandleWeakPersistentERKNS_14LivenessBrokerEPKv, i8* %1) #11
  ret void
}

; Function Attrs: nounwind ssp uwtable
define linkonce_odr hidden void @_ZN5blink14PersistentBaseINS_16ExecutionContextELNS_31WeaknessPersistentConfigurationE1ELNS_38CrossThreadnessPersistentConfigurationE0EE20HandleWeakPersistentERKNS_14LivenessBrokerEPKv(%"class.blink::LivenessBroker"* dereferenceable(1), i8*) #0 comdat align 2 {
  %3 = bitcast i8* %1 to %"class.blink::ExecutionContext"**
  %4 = load %"class.blink::ExecutionContext"*, %"class.blink::ExecutionContext"** %3, align 8
  %5 = icmp eq %"class.blink::ExecutionContext"* %4, null
  br i1 %5, label %32, label %6

6:                                                ; preds = %2
  %7 = tail call zeroext i1 @_ZNK5blink14LivenessBroker17IsHeapObjectAliveINS_16ExecutionContextEEEbPKT_(%"class.blink::LivenessBroker"* %0, %"class.blink::ExecutionContext"* nonnull %4)
  br i1 %7, label %32, label %8

8:                                                ; preds = %6
  store %"class.blink::ExecutionContext"* null, %"class.blink::ExecutionContext"** %3, align 8
  %9 = getelementptr inbounds i8, i8* %1, i64 8
  %10 = bitcast i8* %9 to %"class.blink::PersistentNode"**
  %11 = load %"class.blink::PersistentNode"*, %"class.blink::PersistentNode"** %10, align 8
  %12 = icmp eq %"class.blink::PersistentNode"* %11, null
  br i1 %12, label %32, label %13

13:                                               ; preds = %8
  %14 = load %"class.WTF::ThreadSpecific"*, %"class.WTF::ThreadSpecific"** @_ZN5blink11ThreadState16thread_specific_E, align 8
  %15 = getelementptr inbounds %"class.WTF::ThreadSpecific", %"class.WTF::ThreadSpecific"* %14, i64 0, i32 1
  %16 = tail call i8* @_ZNK4base18ThreadLocalStorage4Slot3GetEv(%"class.base::ThreadLocalStorage::Slot"* %15) #11
  %17 = icmp eq i8* %16, null
  br i1 %17, label %18, label %20, !prof !5

18:                                               ; preds = %13
  %19 = tail call i8* @_ZN3WTF10Partitions16FastZeroedMallocEmPKc(i64 8, i8* getelementptr inbounds ([68 x i8], [68 x i8]* @__PRETTY_FUNCTION__._ZN3WTF21GetStringWithTypeNameIPN5blink11ThreadStateEEEPKcv, i64 0, i64 0)) #11
  tail call void @_ZN4base18ThreadLocalStorage4Slot3SetEPv(%"class.base::ThreadLocalStorage::Slot"* %15, i8* %19) #11
  br label %20

20:                                               ; preds = %18, %13
  %21 = phi i8* [ %19, %18 ], [ %16, %13 ]
  %22 = bitcast i8* %21 to %"class.blink::ThreadState"**
  %23 = load %"class.blink::ThreadState"*, %"class.blink::ThreadState"** %22, align 8
  %24 = getelementptr inbounds %"class.blink::ThreadState", %"class.blink::ThreadState"* %23, i64 0, i32 4, i32 0, i32 0, i32 0
  %25 = load %"class.blink::PersistentRegion"*, %"class.blink::PersistentRegion"** %24, align 8
  %26 = load %"class.blink::PersistentNode"*, %"class.blink::PersistentNode"** %10, align 8
  %27 = getelementptr inbounds %"class.blink::PersistentRegion", %"class.blink::PersistentRegion"* %25, i64 0, i32 0, i32 0
  %28 = bitcast %"class.blink::PersistentRegion"* %25 to i64*
  %29 = load i64, i64* %28, align 8
  %30 = bitcast %"class.blink::PersistentNode"* %26 to i64*
  store i64 %29, i64* %30, align 8
  %31 = getelementptr inbounds %"class.blink::PersistentNode", %"class.blink::PersistentNode"* %26, i64 0, i32 1
  store void (%"class.blink::Visitor"*, i8*)* null, void (%"class.blink::Visitor"*, i8*)** %31, align 8
  store %"class.blink::PersistentNode"* %26, %"class.blink::PersistentNode"** %27, align 8
  store %"class.blink::PersistentNode"* null, %"class.blink::PersistentNode"** %10, align 8
  br label %32

32:                                               ; preds = %20, %8, %2, %6
  ret void
}

; Function Attrs: nounwind ssp uwtable
define linkonce_odr hidden zeroext i1 @_ZNK5blink14LivenessBroker17IsHeapObjectAliveINS_16ExecutionContextEEEbPKT_(%"class.blink::LivenessBroker"*, %"class.blink::ExecutionContext"*) local_unnamed_addr #0 comdat align 2 {
  %3 = icmp eq %"class.blink::ExecutionContext"* %1, null
  br i1 %3, label %73, label %4

4:                                                ; preds = %2
  %5 = load %"class.WTF::ThreadSpecific"*, %"class.WTF::ThreadSpecific"** @_ZN5blink11ThreadState16thread_specific_E, align 8
  %6 = getelementptr inbounds %"class.WTF::ThreadSpecific", %"class.WTF::ThreadSpecific"* %5, i64 0, i32 1
  %7 = tail call i8* @_ZNK4base18ThreadLocalStorage4Slot3GetEv(%"class.base::ThreadLocalStorage::Slot"* %6) #11
  %8 = icmp eq i8* %7, null
  br i1 %8, label %9, label %11, !prof !5

9:                                                ; preds = %4
  %10 = tail call i8* @_ZN3WTF10Partitions16FastZeroedMallocEmPKc(i64 8, i8* getelementptr inbounds ([68 x i8], [68 x i8]* @__PRETTY_FUNCTION__._ZN3WTF21GetStringWithTypeNameIPN5blink11ThreadStateEEEPKcv, i64 0, i64 0)) #11
  tail call void @_ZN4base18ThreadLocalStorage4Slot3SetEPv(%"class.base::ThreadLocalStorage::Slot"* %6, i8* %10) #11
  br label %11

11:                                               ; preds = %4, %9
  %12 = phi i8* [ %10, %9 ], [ %7, %4 ]
  %13 = bitcast i8* %12 to %"class.blink::ThreadState"**
  %14 = load %"class.blink::ThreadState"*, %"class.blink::ThreadState"** %13, align 8
  %15 = icmp eq %"class.blink::ThreadState"* %14, null
  br i1 %15, label %73, label %16

16:                                               ; preds = %11
  %17 = ptrtoint %"class.blink::ExecutionContext"* %1 to i64
  %18 = and i64 %17, -131072
  %19 = inttoptr i64 %18 to i8*
  %20 = getelementptr inbounds i8, i8* %19, i64 4138
  %21 = load i8, i8* %20, align 2
  %22 = icmp eq i8 %21, 1
  br i1 %22, label %23, label %25

23:                                               ; preds = %16
  %24 = getelementptr inbounds i8, i8* %19, i64 4160
  br label %63

25:                                               ; preds = %16
  %26 = getelementptr inbounds i8, i8* %19, i64 4096
  %27 = bitcast i8* %26 to %"class.blink::NormalPage"*
  %28 = getelementptr inbounds i8, i8* %19, i64 4400
  %29 = bitcast i8* %28 to i8**
  %30 = bitcast i8* %28 to i64*
  %31 = load i64, i64* %30, align 16
  %32 = sub i64 %17, %31
  %33 = lshr i64 %32, 3
  %34 = lshr i64 %32, 6
  %35 = getelementptr inbounds %"class.blink::NormalPage", %"class.blink::NormalPage"* %27, i64 0, i32 2, i32 0, i32 1, i64 %34
  %36 = load atomic i8, i8* %35 acquire, align 1
  %37 = trunc i64 %33 to i32
  %38 = and i32 %37, 7
  %39 = shl i32 2, %38
  %40 = trunc i32 %39 to i8
  %41 = add i8 %40, -1
  %42 = and i8 %41, %36
  %43 = icmp eq i8 %42, 0
  br i1 %43, label %44, label %50

44:                                               ; preds = %25, %44
  %45 = phi i64 [ %46, %44 ], [ %34, %25 ]
  %46 = add i64 %45, -1
  %47 = getelementptr inbounds %"class.blink::NormalPage", %"class.blink::NormalPage"* %27, i64 0, i32 2, i32 0, i32 1, i64 %46
  %48 = load atomic i8, i8* %47 acquire, align 1
  %49 = icmp eq i8 %48, 0
  br i1 %49, label %44, label %50

50:                                               ; preds = %44, %25
  %51 = phi i64 [ %34, %25 ], [ %46, %44 ]
  %52 = phi i8 [ %42, %25 ], [ %48, %44 ]
  %53 = zext i8 %52 to i32
  %54 = tail call i32 @llvm.ctlz.i32(i32 %53, i1 true) #11, !range !29
  %55 = add nsw i32 %54, -24
  %56 = shl i64 %51, 3
  %57 = or i64 %56, 7
  %58 = sext i32 %55 to i64
  %59 = sub i64 %57, %58
  %60 = shl i64 %59, 3
  %61 = load i8*, i8** %29, align 16
  %62 = getelementptr inbounds i8, i8* %61, i64 %60
  br label %63

63:                                               ; preds = %23, %50
  %64 = phi i8* [ %24, %23 ], [ %62, %50 ]
  %65 = getelementptr inbounds i8, i8* %64, i64 4
  %66 = bitcast i8* %65 to i16*
  %67 = load atomic i16, i16* %66 acquire, align 2
  %68 = getelementptr inbounds i8, i8* %64, i64 6
  %69 = bitcast i8* %68 to i16*
  %70 = load i16, i16* %69, align 2
  %71 = and i16 %70, 1
  %72 = icmp ne i16 %71, 0
  br label %73

73:                                               ; preds = %11, %2, %63
  %74 = phi i1 [ %72, %63 ], [ true, %2 ], [ true, %11 ]
  ret i1 %74
}

; Function Attrs: nounwind readnone speculatable
declare i32 @llvm.ctlz.i32(i32, i1 immarg) #4

; Function Attrs: nounwind ssp uwtable
define linkonce_odr hidden void @_ZN4base8internal7InvokerINS0_9BindStateIMN5blink25BackgroundFetchIconLoaderEFvPNS3_16ExecutionContextENS_12OnceCallbackIFvRK8SkBitmaplEEERKN3gfx4SizeEEJNS3_14WeakPersistentIS4_EENSJ_IS5_EESC_EEEFvSG_EE7RunOnceEPNS0_13BindStateBaseESG_(%"class.base::internal::BindStateBase"*, %"class.gfx::Size"* dereferenceable(8)) #0 comdat align 2 {
  %3 = alloca %"class.base::OnceCallback.34", align 8
  %4 = getelementptr inbounds %"class.base::internal::BindStateBase", %"class.base::internal::BindStateBase"* %0, i64 1, i32 2
  %5 = getelementptr inbounds void (%"class.base::internal::BindStateBase"*)*, void (%"class.base::internal::BindStateBase"*)** %4, i64 4
  %6 = bitcast void (%"class.base::internal::BindStateBase"*)** %4 to %"class.blink::BackgroundFetchIconLoader"**
  %7 = load %"class.blink::BackgroundFetchIconLoader"*, %"class.blink::BackgroundFetchIconLoader"** %6, align 8
  %8 = icmp eq %"class.blink::BackgroundFetchIconLoader"* %7, null
  br i1 %8, label %41, label %9

9:                                                ; preds = %2
  %10 = getelementptr inbounds %"class.base::internal::BindStateBase", %"class.base::internal::BindStateBase"* %0, i64 1
  %11 = bitcast %"class.blink::BackgroundFetchIconLoader"* %7 to i8*
  %12 = bitcast %"class.base::internal::BindStateBase"* %10 to i64*
  %13 = load i64, i64* %12, align 8
  %14 = getelementptr inbounds %"class.base::internal::BindStateBase", %"class.base::internal::BindStateBase"* %0, i64 1, i32 1
  %15 = bitcast void ()** %14 to i64*
  %16 = load i64, i64* %15, align 8
  %17 = bitcast %"class.base::OnceCallback.34"* %3 to i8*
  call void @llvm.lifetime.start.p0i8(i64 8, i8* nonnull %17) #11
  %18 = getelementptr inbounds i8, i8* %11, i64 %16
  %19 = bitcast i8* %18 to %"class.blink::BackgroundFetchIconLoader"*
  %20 = and i64 %13, 1
  %21 = icmp eq i64 %20, 0
  br i1 %21, label %29, label %22

22:                                               ; preds = %9
  %23 = bitcast i8* %18 to i8**
  %24 = load i8*, i8** %23, align 8
  %25 = add i64 %13, -1
  %26 = getelementptr i8, i8* %24, i64 %25
  %27 = bitcast i8* %26 to void (%"class.blink::BackgroundFetchIconLoader"*, %"class.blink::ExecutionContext"*, %"class.base::OnceCallback.34"*, %"class.gfx::Size"*)**
  %28 = load void (%"class.blink::BackgroundFetchIconLoader"*, %"class.blink::ExecutionContext"*, %"class.base::OnceCallback.34"*, %"class.gfx::Size"*)*, void (%"class.blink::BackgroundFetchIconLoader"*, %"class.blink::ExecutionContext"*, %"class.base::OnceCallback.34"*, %"class.gfx::Size"*)** %27, align 8
  br label %31

29:                                               ; preds = %9
  %30 = inttoptr i64 %13 to void (%"class.blink::BackgroundFetchIconLoader"*, %"class.blink::ExecutionContext"*, %"class.base::OnceCallback.34"*, %"class.gfx::Size"*)*
  br label %31

31:                                               ; preds = %29, %22
  %32 = phi void (%"class.blink::BackgroundFetchIconLoader"*, %"class.blink::ExecutionContext"*, %"class.base::OnceCallback.34"*, %"class.gfx::Size"*)* [ %28, %22 ], [ %30, %29 ]
  %33 = getelementptr inbounds void (%"class.base::internal::BindStateBase"*)*, void (%"class.base::internal::BindStateBase"*)** %4, i64 2
  %34 = bitcast void (%"class.base::internal::BindStateBase"*)** %33 to %"class.blink::ExecutionContext"**
  %35 = load %"class.blink::ExecutionContext"*, %"class.blink::ExecutionContext"** %34, align 8
  %36 = bitcast void (%"class.base::internal::BindStateBase"*)** %5 to %"class.base::internal::BindStateBase"**
  %37 = bitcast void (%"class.base::internal::BindStateBase"*)** %5 to i64*
  %38 = load i64, i64* %37, align 8
  %39 = bitcast %"class.base::OnceCallback.34"* %3 to i64*
  store i64 %38, i64* %39, align 8
  store %"class.base::internal::BindStateBase"* null, %"class.base::internal::BindStateBase"** %36, align 8
  call void %32(%"class.blink::BackgroundFetchIconLoader"* %19, %"class.blink::ExecutionContext"* %35, %"class.base::OnceCallback.34"* nonnull %3, %"class.gfx::Size"* dereferenceable(8) %1) #11
  %40 = getelementptr inbounds %"class.base::OnceCallback.34", %"class.base::OnceCallback.34"* %3, i64 0, i32 0
  call void @_ZN4base8internal12CallbackBaseD2Ev(%"class.base::internal::CallbackBase"* nonnull %40) #11
  call void @llvm.lifetime.end.p0i8(i64 8, i8* nonnull %17) #11
  br label %41

41:                                               ; preds = %2, %31
  ret void
}

; Function Attrs: nobuiltin nofree
declare noalias nonnull i8* @_Znwm(i64) local_unnamed_addr #7

; Function Attrs: nounwind ssp uwtable
define linkonce_odr hidden void @_ZN4base8internal9BindStateIMN5blink25BackgroundFetchIconLoaderEFvPNS2_16ExecutionContextENS_12OnceCallbackIFvRK8SkBitmaplEEERKN3gfx4SizeEEJNS2_14WeakPersistentIS3_EENSI_IS4_EESB_EE7DestroyEPKNS0_13BindStateBaseE(%"class.base::internal::BindStateBase"*) #0 comdat align 2 {
  %2 = icmp eq %"class.base::internal::BindStateBase"* %0, null
  br i1 %2, label %7, label %3

3:                                                ; preds = %1
  %4 = getelementptr inbounds %"class.base::internal::BindStateBase", %"class.base::internal::BindStateBase"* %0, i64 1, i32 2
  %5 = bitcast void (%"class.base::internal::BindStateBase"*)** %4 to %"struct.std::__1::__tuple_impl"*
  tail call void @_ZNSt3__112__tuple_implINS_15__tuple_indicesIJLm0ELm1ELm2EEEEJN5blink14WeakPersistentINS3_25BackgroundFetchIconLoaderEEENS4_INS3_16ExecutionContextEEEN4base12OnceCallbackIFvRK8SkBitmaplEEEEED2Ev(%"struct.std::__1::__tuple_impl"* %5) #11
  %6 = bitcast %"class.base::internal::BindStateBase"* %0 to i8*
  tail call void @_ZdlPv(i8* %6) #12
  br label %7

7:                                                ; preds = %3, %1
  ret void
}

; Function Attrs: nounwind ssp uwtable
define linkonce_odr hidden zeroext i1 @_ZN4base8internal23QueryCancellationTraitsINS0_9BindStateIMN5blink25BackgroundFetchIconLoaderEFvPNS3_16ExecutionContextENS_12OnceCallbackIFvRK8SkBitmaplEEERKN3gfx4SizeEEJNS3_14WeakPersistentIS4_EENSJ_IS5_EESC_EEEEEbPKNS0_13BindStateBaseENSN_21CancellationQueryModeE(%"class.base::internal::BindStateBase"*, i32) #0 comdat {
  switch i32 %1, label %9 [
    i32 0, label %3
    i32 1, label %8
  ]

3:                                                ; preds = %2
  %4 = getelementptr inbounds %"class.base::internal::BindStateBase", %"class.base::internal::BindStateBase"* %0, i64 1, i32 2
  %5 = bitcast void (%"class.base::internal::BindStateBase"*)** %4 to %"class.blink::BackgroundFetchIconLoader"**
  %6 = load %"class.blink::BackgroundFetchIconLoader"*, %"class.blink::BackgroundFetchIconLoader"** %5, align 8
  %7 = icmp eq %"class.blink::BackgroundFetchIconLoader"* %6, null
  br label %9

8:                                                ; preds = %2
  br label %9

9:                                                ; preds = %2, %3, %8
  %10 = phi i1 [ true, %8 ], [ %7, %3 ], [ false, %2 ]
  ret i1 %10
}

declare void @_ZN4base8internal13BindStateBaseC2EPFvvEPFvPKS1_EPFbS5_NS1_21CancellationQueryModeEE(%"class.base::internal::BindStateBase"*, void ()*, void (%"class.base::internal::BindStateBase"*)*, i1 (%"class.base::internal::BindStateBase"*, i32)*) unnamed_addr #1

; Function Attrs: inlinehint nounwind ssp uwtable
define linkonce_odr hidden void @_ZNSt3__112__tuple_implINS_15__tuple_indicesIJLm0ELm1ELm2EEEEJN5blink14WeakPersistentINS3_25BackgroundFetchIconLoaderEEENS4_INS3_16ExecutionContextEEEN4base12OnceCallbackIFvRK8SkBitmaplEEEEED2Ev(%"struct.std::__1::__tuple_impl"*) unnamed_addr #8 comdat align 2 {
  %2 = getelementptr inbounds %"struct.std::__1::__tuple_impl", %"struct.std::__1::__tuple_impl"* %0, i64 0, i32 2, i32 0, i32 0
  tail call void @_ZN4base8internal12CallbackBaseD2Ev(%"class.base::internal::CallbackBase"* %2) #11
  %3 = getelementptr inbounds %"struct.std::__1::__tuple_impl", %"struct.std::__1::__tuple_impl"* %0, i64 0, i32 1, i32 0, i32 0, i32 1, i32 0
  %4 = load %"class.blink::PersistentNode"*, %"class.blink::PersistentNode"** %3, align 8
  %5 = icmp eq %"class.blink::PersistentNode"* %4, null
  br i1 %5, label %25, label %6

6:                                                ; preds = %1
  %7 = load %"class.WTF::ThreadSpecific"*, %"class.WTF::ThreadSpecific"** @_ZN5blink11ThreadState16thread_specific_E, align 8
  %8 = getelementptr inbounds %"class.WTF::ThreadSpecific", %"class.WTF::ThreadSpecific"* %7, i64 0, i32 1
  %9 = tail call i8* @_ZNK4base18ThreadLocalStorage4Slot3GetEv(%"class.base::ThreadLocalStorage::Slot"* %8) #11
  %10 = icmp eq i8* %9, null
  br i1 %10, label %11, label %13, !prof !5

11:                                               ; preds = %6
  %12 = tail call i8* @_ZN3WTF10Partitions16FastZeroedMallocEmPKc(i64 8, i8* getelementptr inbounds ([68 x i8], [68 x i8]* @__PRETTY_FUNCTION__._ZN3WTF21GetStringWithTypeNameIPN5blink11ThreadStateEEEPKcv, i64 0, i64 0)) #11
  tail call void @_ZN4base18ThreadLocalStorage4Slot3SetEPv(%"class.base::ThreadLocalStorage::Slot"* %8, i8* %12) #11
  br label %13

13:                                               ; preds = %11, %6
  %14 = phi i8* [ %12, %11 ], [ %9, %6 ]
  %15 = bitcast i8* %14 to %"class.blink::ThreadState"**
  %16 = load %"class.blink::ThreadState"*, %"class.blink::ThreadState"** %15, align 8
  %17 = getelementptr inbounds %"class.blink::ThreadState", %"class.blink::ThreadState"* %16, i64 0, i32 4, i32 0, i32 0, i32 0
  %18 = load %"class.blink::PersistentRegion"*, %"class.blink::PersistentRegion"** %17, align 8
  %19 = load %"class.blink::PersistentNode"*, %"class.blink::PersistentNode"** %3, align 8
  %20 = getelementptr inbounds %"class.blink::PersistentRegion", %"class.blink::PersistentRegion"* %18, i64 0, i32 0, i32 0
  %21 = bitcast %"class.blink::PersistentRegion"* %18 to i64*
  %22 = load i64, i64* %21, align 8
  %23 = bitcast %"class.blink::PersistentNode"* %19 to i64*
  store i64 %22, i64* %23, align 8
  %24 = getelementptr inbounds %"class.blink::PersistentNode", %"class.blink::PersistentNode"* %19, i64 0, i32 1
  store void (%"class.blink::Visitor"*, i8*)* null, void (%"class.blink::Visitor"*, i8*)** %24, align 8
  store %"class.blink::PersistentNode"* %19, %"class.blink::PersistentNode"** %20, align 8
  store %"class.blink::PersistentNode"* null, %"class.blink::PersistentNode"** %3, align 8
  br label %25

25:                                               ; preds = %1, %13
  %26 = getelementptr inbounds %"struct.std::__1::__tuple_impl", %"struct.std::__1::__tuple_impl"* %0, i64 0, i32 0, i32 0, i32 0, i32 1, i32 0
  %27 = load %"class.blink::PersistentNode"*, %"class.blink::PersistentNode"** %26, align 8
  %28 = icmp eq %"class.blink::PersistentNode"* %27, null
  br i1 %28, label %48, label %29

29:                                               ; preds = %25
  %30 = load %"class.WTF::ThreadSpecific"*, %"class.WTF::ThreadSpecific"** @_ZN5blink11ThreadState16thread_specific_E, align 8
  %31 = getelementptr inbounds %"class.WTF::ThreadSpecific", %"class.WTF::ThreadSpecific"* %30, i64 0, i32 1
  %32 = tail call i8* @_ZNK4base18ThreadLocalStorage4Slot3GetEv(%"class.base::ThreadLocalStorage::Slot"* %31) #11
  %33 = icmp eq i8* %32, null
  br i1 %33, label %34, label %36, !prof !5

34:                                               ; preds = %29
  %35 = tail call i8* @_ZN3WTF10Partitions16FastZeroedMallocEmPKc(i64 8, i8* getelementptr inbounds ([68 x i8], [68 x i8]* @__PRETTY_FUNCTION__._ZN3WTF21GetStringWithTypeNameIPN5blink11ThreadStateEEEPKcv, i64 0, i64 0)) #11
  tail call void @_ZN4base18ThreadLocalStorage4Slot3SetEPv(%"class.base::ThreadLocalStorage::Slot"* %31, i8* %35) #11
  br label %36

36:                                               ; preds = %34, %29
  %37 = phi i8* [ %35, %34 ], [ %32, %29 ]
  %38 = bitcast i8* %37 to %"class.blink::ThreadState"**
  %39 = load %"class.blink::ThreadState"*, %"class.blink::ThreadState"** %38, align 8
  %40 = getelementptr inbounds %"class.blink::ThreadState", %"class.blink::ThreadState"* %39, i64 0, i32 4, i32 0, i32 0, i32 0
  %41 = load %"class.blink::PersistentRegion"*, %"class.blink::PersistentRegion"** %40, align 8
  %42 = load %"class.blink::PersistentNode"*, %"class.blink::PersistentNode"** %26, align 8
  %43 = getelementptr inbounds %"class.blink::PersistentRegion", %"class.blink::PersistentRegion"* %41, i64 0, i32 0, i32 0
  %44 = bitcast %"class.blink::PersistentRegion"* %41 to i64*
  %45 = load i64, i64* %44, align 8
  %46 = bitcast %"class.blink::PersistentNode"* %42 to i64*
  store i64 %45, i64* %46, align 8
  %47 = getelementptr inbounds %"class.blink::PersistentNode", %"class.blink::PersistentNode"* %42, i64 0, i32 1
  store void (%"class.blink::Visitor"*, i8*)* null, void (%"class.blink::Visitor"*, i8*)** %47, align 8
  store %"class.blink::PersistentNode"* %42, %"class.blink::PersistentNode"** %43, align 8
  store %"class.blink::PersistentNode"* null, %"class.blink::PersistentNode"** %26, align 8
  br label %48

48:                                               ; preds = %25, %36
  ret void
}

; Function Attrs: nounwind ssp uwtable
define linkonce_odr hidden void @_ZNSt3__112__tuple_implINS_15__tuple_indicesIJLm0ELm1ELm2EEEEJN5blink14WeakPersistentINS3_25BackgroundFetchIconLoaderEEENS4_INS3_16ExecutionContextEEEN4base12OnceCallbackIFvRK8SkBitmaplEEEEEC2IJLm0ELm1ELm2EEJS6_S8_SF_EJEJEJS6_S8_SF_EEENS1_IJXspT_EEEENS_13__tuple_typesIJDpT0_EEENS1_IJXspT1_EEEENSJ_IJDpT2_EEEDpOT3_(%"struct.std::__1::__tuple_impl"*, %"class.blink::WeakPersistent"* dereferenceable(16), %"class.blink::WeakPersistent.603"* dereferenceable(16), %"class.base::OnceCallback.34"* dereferenceable(8)) unnamed_addr #0 comdat align 2 {
  %5 = getelementptr inbounds %"struct.std::__1::__tuple_impl", %"struct.std::__1::__tuple_impl"* %0, i64 0, i32 0, i32 0, i32 0
  %6 = bitcast %"class.blink::WeakPersistent"* %1 to i64*
  %7 = load i64, i64* %6, align 8
  %8 = bitcast %"struct.std::__1::__tuple_impl"* %0 to i64*
  store i64 %7, i64* %8, align 8
  %9 = getelementptr inbounds %"struct.std::__1::__tuple_impl", %"struct.std::__1::__tuple_impl"* %0, i64 0, i32 0, i32 0, i32 0, i32 1, i32 0
  store %"class.blink::PersistentNode"* null, %"class.blink::PersistentNode"** %9, align 8
  switch i64 %7, label %10 [
    i64 0, label %36
    i64 -1, label %36
  ]

10:                                               ; preds = %4
  %11 = load %"class.WTF::ThreadSpecific"*, %"class.WTF::ThreadSpecific"** @_ZN5blink11ThreadState16thread_specific_E, align 8
  %12 = getelementptr inbounds %"class.WTF::ThreadSpecific", %"class.WTF::ThreadSpecific"* %11, i64 0, i32 1
  %13 = tail call i8* @_ZNK4base18ThreadLocalStorage4Slot3GetEv(%"class.base::ThreadLocalStorage::Slot"* %12) #11
  %14 = icmp eq i8* %13, null
  br i1 %14, label %15, label %17, !prof !5

15:                                               ; preds = %10
  %16 = tail call i8* @_ZN3WTF10Partitions16FastZeroedMallocEmPKc(i64 8, i8* getelementptr inbounds ([68 x i8], [68 x i8]* @__PRETTY_FUNCTION__._ZN3WTF21GetStringWithTypeNameIPN5blink11ThreadStateEEEPKcv, i64 0, i64 0)) #11
  tail call void @_ZN4base18ThreadLocalStorage4Slot3SetEPv(%"class.base::ThreadLocalStorage::Slot"* %12, i8* %16) #11
  br label %17

17:                                               ; preds = %15, %10
  %18 = phi i8* [ %16, %15 ], [ %13, %10 ]
  %19 = bitcast i8* %18 to %"class.blink::ThreadState"**
  %20 = load %"class.blink::ThreadState"*, %"class.blink::ThreadState"** %19, align 8
  %21 = getelementptr inbounds %"class.blink::ThreadState", %"class.blink::ThreadState"* %20, i64 0, i32 4, i32 0, i32 0, i32 0
  %22 = load %"class.blink::PersistentRegion"*, %"class.blink::PersistentRegion"** %21, align 8
  %23 = getelementptr inbounds %"class.blink::PersistentRegion", %"class.blink::PersistentRegion"* %22, i64 0, i32 0, i32 0
  %24 = load %"class.blink::PersistentNode"*, %"class.blink::PersistentNode"** %23, align 8
  %25 = icmp eq %"class.blink::PersistentNode"* %24, null
  br i1 %25, label %26, label %29, !prof !5

26:                                               ; preds = %17
  %27 = getelementptr inbounds %"class.blink::PersistentRegion", %"class.blink::PersistentRegion"* %22, i64 0, i32 0
  tail call void @_ZN5blink20PersistentRegionBase15EnsureNodeSlotsEv(%"class.blink::PersistentRegionBase"* %27) #11
  %28 = load %"class.blink::PersistentNode"*, %"class.blink::PersistentNode"** %23, align 8
  br label %29

29:                                               ; preds = %26, %17
  %30 = phi %"class.blink::PersistentNode"* [ %28, %26 ], [ %24, %17 ]
  %31 = bitcast %"class.blink::PersistentNode"* %30 to i64*
  %32 = load i64, i64* %31, align 8
  %33 = bitcast %"class.blink::PersistentRegion"* %22 to i64*
  store i64 %32, i64* %33, align 8
  %34 = bitcast %"class.blink::PersistentNode"* %30 to %"class.blink::PersistentBase.601"**
  store %"class.blink::PersistentBase.601"* %5, %"class.blink::PersistentBase.601"** %34, align 8
  %35 = getelementptr inbounds %"class.blink::PersistentNode", %"class.blink::PersistentNode"* %30, i64 0, i32 1
  store void (%"class.blink::Visitor"*, i8*)* @_ZN5blink19TraceMethodDelegateINS_14PersistentBaseINS_25BackgroundFetchIconLoaderELNS_31WeaknessPersistentConfigurationE1ELNS_38CrossThreadnessPersistentConfigurationE0EEEXadL_ZNKS5_15TracePersistentEPNS_7VisitorEEEE10TrampolineES7_PKv, void (%"class.blink::Visitor"*, i8*)** %35, align 8
  store %"class.blink::PersistentNode"* %30, %"class.blink::PersistentNode"** %9, align 8
  br label %36

36:                                               ; preds = %4, %4, %29
  %37 = getelementptr inbounds %"struct.std::__1::__tuple_impl", %"struct.std::__1::__tuple_impl"* %0, i64 0, i32 1
  %38 = getelementptr inbounds %"class.std::__1::__tuple_leaf.707", %"class.std::__1::__tuple_leaf.707"* %37, i64 0, i32 0, i32 0
  %39 = bitcast %"class.blink::WeakPersistent.603"* %2 to i64*
  %40 = load i64, i64* %39, align 8
  %41 = bitcast %"class.std::__1::__tuple_leaf.707"* %37 to i64*
  store i64 %40, i64* %41, align 8
  %42 = getelementptr inbounds %"struct.std::__1::__tuple_impl", %"struct.std::__1::__tuple_impl"* %0, i64 0, i32 1, i32 0, i32 0, i32 1, i32 0
  store %"class.blink::PersistentNode"* null, %"class.blink::PersistentNode"** %42, align 8
  switch i64 %40, label %43 [
    i64 0, label %69
    i64 -1, label %69
  ]

43:                                               ; preds = %36
  %44 = load %"class.WTF::ThreadSpecific"*, %"class.WTF::ThreadSpecific"** @_ZN5blink11ThreadState16thread_specific_E, align 8
  %45 = getelementptr inbounds %"class.WTF::ThreadSpecific", %"class.WTF::ThreadSpecific"* %44, i64 0, i32 1
  %46 = tail call i8* @_ZNK4base18ThreadLocalStorage4Slot3GetEv(%"class.base::ThreadLocalStorage::Slot"* %45) #11
  %47 = icmp eq i8* %46, null
  br i1 %47, label %48, label %50, !prof !5

48:                                               ; preds = %43
  %49 = tail call i8* @_ZN3WTF10Partitions16FastZeroedMallocEmPKc(i64 8, i8* getelementptr inbounds ([68 x i8], [68 x i8]* @__PRETTY_FUNCTION__._ZN3WTF21GetStringWithTypeNameIPN5blink11ThreadStateEEEPKcv, i64 0, i64 0)) #11
  tail call void @_ZN4base18ThreadLocalStorage4Slot3SetEPv(%"class.base::ThreadLocalStorage::Slot"* %45, i8* %49) #11
  br label %50

50:                                               ; preds = %48, %43
  %51 = phi i8* [ %49, %48 ], [ %46, %43 ]
  %52 = bitcast i8* %51 to %"class.blink::ThreadState"**
  %53 = load %"class.blink::ThreadState"*, %"class.blink::ThreadState"** %52, align 8
  %54 = getelementptr inbounds %"class.blink::ThreadState", %"class.blink::ThreadState"* %53, i64 0, i32 4, i32 0, i32 0, i32 0
  %55 = load %"class.blink::PersistentRegion"*, %"class.blink::PersistentRegion"** %54, align 8
  %56 = getelementptr inbounds %"class.blink::PersistentRegion", %"class.blink::PersistentRegion"* %55, i64 0, i32 0, i32 0
  %57 = load %"class.blink::PersistentNode"*, %"class.blink::PersistentNode"** %56, align 8
  %58 = icmp eq %"class.blink::PersistentNode"* %57, null
  br i1 %58, label %59, label %62, !prof !5

59:                                               ; preds = %50
  %60 = getelementptr inbounds %"class.blink::PersistentRegion", %"class.blink::PersistentRegion"* %55, i64 0, i32 0
  tail call void @_ZN5blink20PersistentRegionBase15EnsureNodeSlotsEv(%"class.blink::PersistentRegionBase"* %60) #11
  %61 = load %"class.blink::PersistentNode"*, %"class.blink::PersistentNode"** %56, align 8
  br label %62

62:                                               ; preds = %59, %50
  %63 = phi %"class.blink::PersistentNode"* [ %61, %59 ], [ %57, %50 ]
  %64 = bitcast %"class.blink::PersistentNode"* %63 to i64*
  %65 = load i64, i64* %64, align 8
  %66 = bitcast %"class.blink::PersistentRegion"* %55 to i64*
  store i64 %65, i64* %66, align 8
  %67 = bitcast %"class.blink::PersistentNode"* %63 to %"class.blink::PersistentBase.604"**
  store %"class.blink::PersistentBase.604"* %38, %"class.blink::PersistentBase.604"** %67, align 8
  %68 = getelementptr inbounds %"class.blink::PersistentNode", %"class.blink::PersistentNode"* %63, i64 0, i32 1
  store void (%"class.blink::Visitor"*, i8*)* @_ZN5blink19TraceMethodDelegateINS_14PersistentBaseINS_16ExecutionContextELNS_31WeaknessPersistentConfigurationE1ELNS_38CrossThreadnessPersistentConfigurationE0EEEXadL_ZNKS5_15TracePersistentEPNS_7VisitorEEEE10TrampolineES7_PKv, void (%"class.blink::Visitor"*, i8*)** %68, align 8
  store %"class.blink::PersistentNode"* %63, %"class.blink::PersistentNode"** %42, align 8
  br label %69

69:                                               ; preds = %36, %36, %62
  %70 = getelementptr inbounds %"struct.std::__1::__tuple_impl", %"struct.std::__1::__tuple_impl"* %0, i64 0, i32 2
  %71 = getelementptr inbounds %"class.base::OnceCallback.34", %"class.base::OnceCallback.34"* %3, i64 0, i32 0, i32 0, i32 0
  %72 = bitcast %"class.base::OnceCallback.34"* %3 to i64*
  %73 = load i64, i64* %72, align 8
  %74 = bitcast %"class.std::__1::__tuple_leaf.708"* %70 to i64*
  store i64 %73, i64* %74, align 8
  store %"class.base::internal::BindStateBase"* null, %"class.base::internal::BindStateBase"** %71, align 8
  ret void
}

; Function Attrs: nounwind ssp uwtable
define linkonce_odr hidden void @_ZN4base8internal7InvokerINS0_9BindStateIMN5blink25BackgroundFetchIconLoaderEFv8SkBitmapdEJNS3_14WeakPersistentIS4_EEEEEFvS5_dEE7RunOnceEPNS0_13BindStateBaseEOS5_d(%"class.base::internal::BindStateBase"*, %class.SkBitmap* dereferenceable(56), double) #0 comdat align 2 {
  %4 = alloca %class.SkBitmap, align 8
  %5 = getelementptr inbounds %"class.base::internal::BindStateBase", %"class.base::internal::BindStateBase"* %0, i64 1, i32 2
  %6 = bitcast void (%"class.base::internal::BindStateBase"*)** %5 to %"class.blink::BackgroundFetchIconLoader"**
  %7 = load %"class.blink::BackgroundFetchIconLoader"*, %"class.blink::BackgroundFetchIconLoader"** %6, align 8
  %8 = icmp eq %"class.blink::BackgroundFetchIconLoader"* %7, null
  br i1 %8, label %33, label %9

9:                                                ; preds = %3
  %10 = getelementptr inbounds %"class.base::internal::BindStateBase", %"class.base::internal::BindStateBase"* %0, i64 1
  %11 = bitcast %"class.blink::BackgroundFetchIconLoader"* %7 to i8*
  %12 = bitcast %"class.base::internal::BindStateBase"* %10 to i64*
  %13 = load i64, i64* %12, align 8
  %14 = getelementptr inbounds %"class.base::internal::BindStateBase", %"class.base::internal::BindStateBase"* %0, i64 1, i32 1
  %15 = bitcast void ()** %14 to i64*
  %16 = load i64, i64* %15, align 8
  %17 = bitcast %class.SkBitmap* %4 to i8*
  call void @llvm.lifetime.start.p0i8(i64 56, i8* nonnull %17) #11
  %18 = getelementptr inbounds i8, i8* %11, i64 %16
  %19 = bitcast i8* %18 to %"class.blink::BackgroundFetchIconLoader"*
  %20 = and i64 %13, 1
  %21 = icmp eq i64 %20, 0
  br i1 %21, label %29, label %22

22:                                               ; preds = %9
  %23 = bitcast i8* %18 to i8**
  %24 = load i8*, i8** %23, align 8
  %25 = add i64 %13, -1
  %26 = getelementptr i8, i8* %24, i64 %25
  %27 = bitcast i8* %26 to void (%"class.blink::BackgroundFetchIconLoader"*, %class.SkBitmap*, double)**
  %28 = load void (%"class.blink::BackgroundFetchIconLoader"*, %class.SkBitmap*, double)*, void (%"class.blink::BackgroundFetchIconLoader"*, %class.SkBitmap*, double)** %27, align 8
  br label %31

29:                                               ; preds = %9
  %30 = inttoptr i64 %13 to void (%"class.blink::BackgroundFetchIconLoader"*, %class.SkBitmap*, double)*
  br label %31

31:                                               ; preds = %29, %22
  %32 = phi void (%"class.blink::BackgroundFetchIconLoader"*, %class.SkBitmap*, double)* [ %28, %22 ], [ %30, %29 ]
  call void @_ZN8SkBitmapC1EOS_(%class.SkBitmap* nonnull %4, %class.SkBitmap* dereferenceable(56) %1) #11
  call void %32(%"class.blink::BackgroundFetchIconLoader"* %19, %class.SkBitmap* nonnull %4, double %2) #11
  call void @_ZN8SkBitmapD1Ev(%class.SkBitmap* nonnull %4) #11
  call void @llvm.lifetime.end.p0i8(i64 56, i8* nonnull %17) #11
  br label %33

33:                                               ; preds = %3, %31
  ret void
}

declare void @_ZN8SkBitmapC1EOS_(%class.SkBitmap*, %class.SkBitmap* dereferenceable(56)) unnamed_addr #1

; Function Attrs: nounwind ssp uwtable
define linkonce_odr hidden void @_ZN4base8internal9BindStateIMN5blink25BackgroundFetchIconLoaderEFv8SkBitmapdEJNS2_14WeakPersistentIS3_EEEEC2IS6_JS8_EEENSt3__117integral_constantIbLb1EEEPFvvEOT_DpOT0_(%"struct.base::internal::BindState.711"*, void ()*, { i64, i64 }* dereferenceable(16), %"class.blink::WeakPersistent"* dereferenceable(16)) unnamed_addr #0 comdat align 2 {
  %5 = getelementptr inbounds %"struct.base::internal::BindState.711", %"struct.base::internal::BindState.711"* %0, i64 0, i32 0
  tail call void @_ZN4base8internal13BindStateBaseC2EPFvvEPFvPKS1_EPFbS5_NS1_21CancellationQueryModeEE(%"class.base::internal::BindStateBase"* %5, void ()* %1, void (%"class.base::internal::BindStateBase"*)* nonnull @_ZN4base8internal9BindStateIMN5blink25BackgroundFetchIconLoaderEFv8SkBitmapdEJNS2_14WeakPersistentIS3_EEEE7DestroyEPKNS0_13BindStateBaseE, i1 (%"class.base::internal::BindStateBase"*, i32)* nonnull @_ZN4base8internal23QueryCancellationTraitsINS0_9BindStateIMN5blink25BackgroundFetchIconLoaderEFv8SkBitmapdEJNS3_14WeakPersistentIS4_EEEEEEEbPKNS0_13BindStateBaseENSB_21CancellationQueryModeE) #11
  %6 = bitcast { i64, i64 }* %2 to <2 x i64>*
  %7 = load <2 x i64>, <2 x i64>* %6, align 8
  %8 = getelementptr inbounds %"struct.base::internal::BindState.711", %"struct.base::internal::BindState.711"* %0, i64 0, i32 1, i32 0
  %9 = bitcast i64* %8 to <2 x i64>*
  store <2 x i64> %7, <2 x i64>* %9, align 8
  %10 = getelementptr inbounds %"struct.base::internal::BindState.711", %"struct.base::internal::BindState.711"* %0, i64 0, i32 2
  %11 = getelementptr inbounds %"class.std::__1::tuple.712", %"class.std::__1::tuple.712"* %10, i64 0, i32 0, i32 0, i32 0, i32 0
  %12 = bitcast %"class.blink::WeakPersistent"* %3 to i64*
  %13 = load i64, i64* %12, align 8
  %14 = bitcast %"class.std::__1::tuple.712"* %10 to i64*
  store i64 %13, i64* %14, align 8
  %15 = getelementptr inbounds %"struct.base::internal::BindState.711", %"struct.base::internal::BindState.711"* %0, i64 0, i32 2, i32 0, i32 0, i32 0, i32 0, i32 1, i32 0
  store %"class.blink::PersistentNode"* null, %"class.blink::PersistentNode"** %15, align 8
  switch i64 %13, label %16 [
    i64 0, label %42
    i64 -1, label %42
  ]

16:                                               ; preds = %4
  %17 = load %"class.WTF::ThreadSpecific"*, %"class.WTF::ThreadSpecific"** @_ZN5blink11ThreadState16thread_specific_E, align 8
  %18 = getelementptr inbounds %"class.WTF::ThreadSpecific", %"class.WTF::ThreadSpecific"* %17, i64 0, i32 1
  %19 = tail call i8* @_ZNK4base18ThreadLocalStorage4Slot3GetEv(%"class.base::ThreadLocalStorage::Slot"* %18) #11
  %20 = icmp eq i8* %19, null
  br i1 %20, label %21, label %23, !prof !5

21:                                               ; preds = %16
  %22 = tail call i8* @_ZN3WTF10Partitions16FastZeroedMallocEmPKc(i64 8, i8* getelementptr inbounds ([68 x i8], [68 x i8]* @__PRETTY_FUNCTION__._ZN3WTF21GetStringWithTypeNameIPN5blink11ThreadStateEEEPKcv, i64 0, i64 0)) #11
  tail call void @_ZN4base18ThreadLocalStorage4Slot3SetEPv(%"class.base::ThreadLocalStorage::Slot"* %18, i8* %22) #11
  br label %23

23:                                               ; preds = %21, %16
  %24 = phi i8* [ %22, %21 ], [ %19, %16 ]
  %25 = bitcast i8* %24 to %"class.blink::ThreadState"**
  %26 = load %"class.blink::ThreadState"*, %"class.blink::ThreadState"** %25, align 8
  %27 = getelementptr inbounds %"class.blink::ThreadState", %"class.blink::ThreadState"* %26, i64 0, i32 4, i32 0, i32 0, i32 0
  %28 = load %"class.blink::PersistentRegion"*, %"class.blink::PersistentRegion"** %27, align 8
  %29 = getelementptr inbounds %"class.blink::PersistentRegion", %"class.blink::PersistentRegion"* %28, i64 0, i32 0, i32 0
  %30 = load %"class.blink::PersistentNode"*, %"class.blink::PersistentNode"** %29, align 8
  %31 = icmp eq %"class.blink::PersistentNode"* %30, null
  br i1 %31, label %32, label %35, !prof !5

32:                                               ; preds = %23
  %33 = getelementptr inbounds %"class.blink::PersistentRegion", %"class.blink::PersistentRegion"* %28, i64 0, i32 0
  tail call void @_ZN5blink20PersistentRegionBase15EnsureNodeSlotsEv(%"class.blink::PersistentRegionBase"* %33) #11
  %34 = load %"class.blink::PersistentNode"*, %"class.blink::PersistentNode"** %29, align 8
  br label %35

35:                                               ; preds = %32, %23
  %36 = phi %"class.blink::PersistentNode"* [ %34, %32 ], [ %30, %23 ]
  %37 = bitcast %"class.blink::PersistentNode"* %36 to i64*
  %38 = load i64, i64* %37, align 8
  %39 = bitcast %"class.blink::PersistentRegion"* %28 to i64*
  store i64 %38, i64* %39, align 8
  %40 = bitcast %"class.blink::PersistentNode"* %36 to %"class.blink::PersistentBase.601"**
  store %"class.blink::PersistentBase.601"* %11, %"class.blink::PersistentBase.601"** %40, align 8
  %41 = getelementptr inbounds %"class.blink::PersistentNode", %"class.blink::PersistentNode"* %36, i64 0, i32 1
  store void (%"class.blink::Visitor"*, i8*)* @_ZN5blink19TraceMethodDelegateINS_14PersistentBaseINS_25BackgroundFetchIconLoaderELNS_31WeaknessPersistentConfigurationE1ELNS_38CrossThreadnessPersistentConfigurationE0EEEXadL_ZNKS5_15TracePersistentEPNS_7VisitorEEEE10TrampolineES7_PKv, void (%"class.blink::Visitor"*, i8*)** %41, align 8
  store %"class.blink::PersistentNode"* %36, %"class.blink::PersistentNode"** %15, align 8
  br label %42

42:                                               ; preds = %4, %4, %35
  ret void
}

; Function Attrs: nounwind ssp uwtable
define linkonce_odr hidden void @_ZN4base8internal9BindStateIMN5blink25BackgroundFetchIconLoaderEFv8SkBitmapdEJNS2_14WeakPersistentIS3_EEEE7DestroyEPKNS0_13BindStateBaseE(%"class.base::internal::BindStateBase"*) #0 comdat align 2 {
  %2 = icmp eq %"class.base::internal::BindStateBase"* %0, null
  br i1 %2, label %29, label %3

3:                                                ; preds = %1
  %4 = getelementptr inbounds %"class.base::internal::BindStateBase", %"class.base::internal::BindStateBase"* %0, i64 1, i32 3
  %5 = bitcast i1 (%"class.base::internal::BindStateBase"*, i32)** %4 to %"class.blink::PersistentNode"**
  %6 = load %"class.blink::PersistentNode"*, %"class.blink::PersistentNode"** %5, align 8
  %7 = icmp eq %"class.blink::PersistentNode"* %6, null
  br i1 %7, label %27, label %8

8:                                                ; preds = %3
  %9 = load %"class.WTF::ThreadSpecific"*, %"class.WTF::ThreadSpecific"** @_ZN5blink11ThreadState16thread_specific_E, align 8
  %10 = getelementptr inbounds %"class.WTF::ThreadSpecific", %"class.WTF::ThreadSpecific"* %9, i64 0, i32 1
  %11 = tail call i8* @_ZNK4base18ThreadLocalStorage4Slot3GetEv(%"class.base::ThreadLocalStorage::Slot"* %10) #11
  %12 = icmp eq i8* %11, null
  br i1 %12, label %13, label %15, !prof !5

13:                                               ; preds = %8
  %14 = tail call i8* @_ZN3WTF10Partitions16FastZeroedMallocEmPKc(i64 8, i8* getelementptr inbounds ([68 x i8], [68 x i8]* @__PRETTY_FUNCTION__._ZN3WTF21GetStringWithTypeNameIPN5blink11ThreadStateEEEPKcv, i64 0, i64 0)) #11
  tail call void @_ZN4base18ThreadLocalStorage4Slot3SetEPv(%"class.base::ThreadLocalStorage::Slot"* %10, i8* %14) #11
  br label %15

15:                                               ; preds = %13, %8
  %16 = phi i8* [ %14, %13 ], [ %11, %8 ]
  %17 = bitcast i8* %16 to %"class.blink::ThreadState"**
  %18 = load %"class.blink::ThreadState"*, %"class.blink::ThreadState"** %17, align 8
  %19 = getelementptr inbounds %"class.blink::ThreadState", %"class.blink::ThreadState"* %18, i64 0, i32 4, i32 0, i32 0, i32 0
  %20 = load %"class.blink::PersistentRegion"*, %"class.blink::PersistentRegion"** %19, align 8
  %21 = load %"class.blink::PersistentNode"*, %"class.blink::PersistentNode"** %5, align 8
  %22 = getelementptr inbounds %"class.blink::PersistentRegion", %"class.blink::PersistentRegion"* %20, i64 0, i32 0, i32 0
  %23 = bitcast %"class.blink::PersistentRegion"* %20 to i64*
  %24 = load i64, i64* %23, align 8
  %25 = bitcast %"class.blink::PersistentNode"* %21 to i64*
  store i64 %24, i64* %25, align 8
  %26 = getelementptr inbounds %"class.blink::PersistentNode", %"class.blink::PersistentNode"* %21, i64 0, i32 1
  store void (%"class.blink::Visitor"*, i8*)* null, void (%"class.blink::Visitor"*, i8*)** %26, align 8
  store %"class.blink::PersistentNode"* %21, %"class.blink::PersistentNode"** %22, align 8
  br label %27

27:                                               ; preds = %3, %15
  %28 = bitcast %"class.base::internal::BindStateBase"* %0 to i8*
  tail call void @_ZdlPv(i8* %28) #12
  br label %29

29:                                               ; preds = %27, %1
  ret void
}

; Function Attrs: nounwind ssp uwtable
define linkonce_odr hidden zeroext i1 @_ZN4base8internal23QueryCancellationTraitsINS0_9BindStateIMN5blink25BackgroundFetchIconLoaderEFv8SkBitmapdEJNS3_14WeakPersistentIS4_EEEEEEEbPKNS0_13BindStateBaseENSB_21CancellationQueryModeE(%"class.base::internal::BindStateBase"*, i32) #0 comdat {
  switch i32 %1, label %9 [
    i32 0, label %3
    i32 1, label %8
  ]

3:                                                ; preds = %2
  %4 = getelementptr inbounds %"class.base::internal::BindStateBase", %"class.base::internal::BindStateBase"* %0, i64 1, i32 2
  %5 = bitcast void (%"class.base::internal::BindStateBase"*)** %4 to %"class.blink::BackgroundFetchIconLoader"**
  %6 = load %"class.blink::BackgroundFetchIconLoader"*, %"class.blink::BackgroundFetchIconLoader"** %5, align 8
  %7 = icmp eq %"class.blink::BackgroundFetchIconLoader"* %6, null
  br label %9

8:                                                ; preds = %2
  br label %9

9:                                                ; preds = %2, %3, %8
  %10 = phi i1 [ true, %8 ], [ %7, %3 ], [ false, %2 ]
  ret i1 %10
}

; Function Attrs: noreturn
declare void @_ZNKSt3__120__vector_base_commonILb1EE20__throw_length_errorEv(%"class.std::__1::__vector_base_common"*) local_unnamed_addr #9

; Function Attrs: noreturn nounwind
declare void @abort() local_unnamed_addr #10

; Function Attrs: inlinehint nounwind ssp uwtable
define linkonce_odr hidden void @_ZNSt3__16vectorIN5blink8Manifest13ImageResourceENS_9allocatorIS3_EEE24__emplace_back_slow_pathIJRS3_EEEvDpOT_(%"class.std::__1::vector.608"*, %"struct.blink::Manifest::ImageResource"* dereferenceable(192)) local_unnamed_addr #8 comdat align 2 {
  %3 = getelementptr inbounds %"class.std::__1::vector.608", %"class.std::__1::vector.608"* %0, i64 0, i32 0, i32 1
  %4 = bitcast %"struct.blink::Manifest::ImageResource"** %3 to i64*
  %5 = load i64, i64* %4, align 8
  %6 = bitcast %"class.std::__1::vector.608"* %0 to i64*
  %7 = load i64, i64* %6, align 8
  %8 = sub i64 %5, %7
  %9 = sdiv exact i64 %8, 192
  %10 = add nsw i64 %9, 1
  %11 = icmp ugt i64 %10, 96076792050570581
  br i1 %11, label %12, label %14

12:                                               ; preds = %2
  %13 = bitcast %"class.std::__1::vector.608"* %0 to %"class.std::__1::__vector_base_common"*
  tail call void @_ZNKSt3__120__vector_base_commonILb1EE20__throw_length_errorEv(%"class.std::__1::__vector_base_common"* %13) #13
  unreachable

14:                                               ; preds = %2
  %15 = getelementptr inbounds %"class.std::__1::vector.608", %"class.std::__1::vector.608"* %0, i64 0, i32 0, i32 2, i32 0, i32 0
  %16 = bitcast %"struct.blink::Manifest::ImageResource"** %15 to i64*
  %17 = load i64, i64* %16, align 8
  %18 = sub i64 %17, %7
  %19 = sdiv exact i64 %18, 192
  %20 = icmp ult i64 %19, 48038396025285290
  br i1 %20, label %21, label %26

21:                                               ; preds = %14
  %22 = shl nsw i64 %19, 1
  %23 = icmp ult i64 %22, %10
  %24 = select i1 %23, i64 %10, i64 %22
  %25 = icmp eq i64 %24, 0
  br i1 %25, label %31, label %26

26:                                               ; preds = %14, %21
  %27 = phi i64 [ %24, %21 ], [ 96076792050570581, %14 ]
  %28 = mul i64 %27, 192
  %29 = tail call i8* @_Znwm(i64 %28) #12
  %30 = bitcast i8* %29 to %"struct.blink::Manifest::ImageResource"*
  br label %31

31:                                               ; preds = %21, %26
  %32 = phi i64 [ %27, %26 ], [ 0, %21 ]
  %33 = phi %"struct.blink::Manifest::ImageResource"* [ %30, %26 ], [ null, %21 ]
  %34 = getelementptr inbounds %"struct.blink::Manifest::ImageResource", %"struct.blink::Manifest::ImageResource"* %33, i64 %9
  %35 = getelementptr inbounds %"struct.blink::Manifest::ImageResource", %"struct.blink::Manifest::ImageResource"* %33, i64 %32
  %36 = ptrtoint %"struct.blink::Manifest::ImageResource"* %35 to i64
  tail call void @_ZN5blink8Manifest13ImageResourceC1ERKS1_(%"struct.blink::Manifest::ImageResource"* %34, %"struct.blink::Manifest::ImageResource"* dereferenceable(192) %1) #11
  %37 = getelementptr inbounds %"struct.blink::Manifest::ImageResource", %"struct.blink::Manifest::ImageResource"* %34, i64 1
  %38 = ptrtoint %"struct.blink::Manifest::ImageResource"* %37 to i64
  %39 = getelementptr inbounds %"class.std::__1::vector.608", %"class.std::__1::vector.608"* %0, i64 0, i32 0, i32 0
  %40 = load %"struct.blink::Manifest::ImageResource"*, %"struct.blink::Manifest::ImageResource"** %39, align 8
  %41 = load %"struct.blink::Manifest::ImageResource"*, %"struct.blink::Manifest::ImageResource"** %3, align 8
  %42 = icmp eq %"struct.blink::Manifest::ImageResource"* %41, %40
  br i1 %42, label %43, label %45

43:                                               ; preds = %31
  %44 = ptrtoint %"struct.blink::Manifest::ImageResource"* %40 to i64
  br label %54

45:                                               ; preds = %31, %45
  %46 = phi %"struct.blink::Manifest::ImageResource"* [ %48, %45 ], [ %34, %31 ]
  %47 = phi %"struct.blink::Manifest::ImageResource"* [ %49, %45 ], [ %41, %31 ]
  %48 = getelementptr inbounds %"struct.blink::Manifest::ImageResource", %"struct.blink::Manifest::ImageResource"* %46, i64 -1
  %49 = getelementptr inbounds %"struct.blink::Manifest::ImageResource", %"struct.blink::Manifest::ImageResource"* %47, i64 -1
  tail call void @_ZN5blink8Manifest13ImageResourceC1ERKS1_(%"struct.blink::Manifest::ImageResource"* %48, %"struct.blink::Manifest::ImageResource"* dereferenceable(192) %49) #11
  %50 = icmp eq %"struct.blink::Manifest::ImageResource"* %49, %40
  br i1 %50, label %51, label %45

51:                                               ; preds = %45
  %52 = load i64, i64* %6, align 8
  %53 = load %"struct.blink::Manifest::ImageResource"*, %"struct.blink::Manifest::ImageResource"** %3, align 8
  br label %54

54:                                               ; preds = %43, %51
  %55 = phi %"struct.blink::Manifest::ImageResource"* [ %40, %43 ], [ %53, %51 ]
  %56 = phi %"struct.blink::Manifest::ImageResource"* [ %34, %43 ], [ %48, %51 ]
  %57 = phi i64 [ %44, %43 ], [ %52, %51 ]
  %58 = ptrtoint %"struct.blink::Manifest::ImageResource"* %56 to i64
  store i64 %58, i64* %6, align 8
  store i64 %38, i64* %4, align 8
  store i64 %36, i64* %16, align 8
  %59 = inttoptr i64 %57 to %"struct.blink::Manifest::ImageResource"*
  %60 = icmp eq %"struct.blink::Manifest::ImageResource"* %55, %59
  br i1 %60, label %65, label %61

61:                                               ; preds = %54, %61
  %62 = phi %"struct.blink::Manifest::ImageResource"* [ %63, %61 ], [ %55, %54 ]
  %63 = getelementptr inbounds %"struct.blink::Manifest::ImageResource", %"struct.blink::Manifest::ImageResource"* %62, i64 -1
  tail call void @_ZN5blink8Manifest13ImageResourceD1Ev(%"struct.blink::Manifest::ImageResource"* %63) #11
  %64 = icmp eq %"struct.blink::Manifest::ImageResource"* %63, %59
  br i1 %64, label %65, label %61

65:                                               ; preds = %61, %54
  %66 = icmp eq i64 %57, 0
  br i1 %66, label %69, label %67

67:                                               ; preds = %65
  %68 = inttoptr i64 %57 to i8*
  tail call void @_ZdlPv(i8* %68) #12
  br label %69

69:                                               ; preds = %65, %67
  ret void
}

declare void @_ZN5blink8Manifest13ImageResourceC1ERKS1_(%"struct.blink::Manifest::ImageResource"*, %"struct.blink::Manifest::ImageResource"* dereferenceable(192)) unnamed_addr #1

; Function Attrs: nounwind ssp uwtable
define linkonce_odr hidden void @_ZN5blink10TraceTraitINS_17HeapVectorBackingINS_6MemberINS_21ManifestImageResourceEEEN3WTF12VectorTraitsIS4_EEEEE5TraceEPNS_7VisitorEPKv(%"class.blink::Visitor"*, i8*) #0 comdat align 2 {
  %3 = bitcast i8* %1 to %"class.blink::Member"*
  %4 = getelementptr inbounds i8, i8* %1, i64 -2
  %5 = bitcast i8* %4 to i16*
  %6 = load i16, i16* %5, align 2
  %7 = lshr i16 %6, 2
  %8 = icmp eq i16 %7, 0
  br i1 %8, label %9, label %17, !prof !5

9:                                                ; preds = %2
  %10 = getelementptr inbounds i8, i8* %1, i64 -8
  %11 = ptrtoint i8* %10 to i64
  %12 = and i64 %11, -131072
  %13 = inttoptr i64 %12 to i8*
  %14 = getelementptr inbounds i8, i8* %13, i64 4144
  %15 = bitcast i8* %14 to i64*
  %16 = load i64, i64* %15, align 16
  br label %20

17:                                               ; preds = %2
  %18 = zext i16 %7 to i64
  %19 = shl nuw nsw i64 %18, 3
  br label %20

20:                                               ; preds = %17, %9
  %21 = phi i64 [ %16, %9 ], [ %19, %17 ]
  %22 = add i64 %21, -8
  %23 = lshr i64 %22, 3
  %24 = icmp eq i64 %23, 0
  br i1 %24, label %41, label %25

25:                                               ; preds = %20
  %26 = bitcast %"class.blink::Visitor"* %0 to void (%"class.blink::Visitor"*, i8*, i8*, void (%"class.blink::Visitor"*, i8*)*)***
  br label %27

27:                                               ; preds = %38, %25
  %28 = phi i64 [ 0, %25 ], [ %39, %38 ]
  %29 = getelementptr inbounds %"class.blink::Member", %"class.blink::Member"* %3, i64 %28
  %30 = bitcast %"class.blink::Member"* %29 to i64*
  %31 = load atomic i64, i64* %30 monotonic, align 8
  %32 = icmp eq i64 %31, 0
  br i1 %32, label %38, label %33

33:                                               ; preds = %27
  %34 = inttoptr i64 %31 to i8*
  %35 = load void (%"class.blink::Visitor"*, i8*, i8*, void (%"class.blink::Visitor"*, i8*)*)**, void (%"class.blink::Visitor"*, i8*, i8*, void (%"class.blink::Visitor"*, i8*)*)*** %26, align 8
  %36 = getelementptr inbounds void (%"class.blink::Visitor"*, i8*, i8*, void (%"class.blink::Visitor"*, i8*)*)*, void (%"class.blink::Visitor"*, i8*, i8*, void (%"class.blink::Visitor"*, i8*)*)** %35, i64 5
  %37 = load void (%"class.blink::Visitor"*, i8*, i8*, void (%"class.blink::Visitor"*, i8*)*)*, void (%"class.blink::Visitor"*, i8*, i8*, void (%"class.blink::Visitor"*, i8*)*)** %36, align 8
  tail call void %37(%"class.blink::Visitor"* %0, i8* nonnull %34, i8* nonnull %34, void (%"class.blink::Visitor"*, i8*)* nonnull @_ZN5blink10TraceTraitINS_21ManifestImageResourceEE5TraceEPNS_7VisitorEPKv) #11
  br label %38

38:                                               ; preds = %33, %27
  %39 = add nuw nsw i64 %28, 1
  %40 = icmp eq i64 %39, %23
  br i1 %40, label %41, label %27

41:                                               ; preds = %38, %20
  ret void
}

; Function Attrs: nounwind ssp uwtable
define linkonce_odr hidden void @_ZN5blink10TraceTraitINS_21ManifestImageResourceEE5TraceEPNS_7VisitorEPKv(%"class.blink::Visitor"*, i8*) #0 comdat align 2 {
  %3 = bitcast i8* %1 to %"class.blink::ManifestImageResource"*
  %4 = bitcast i8* %1 to void (%"class.blink::ManifestImageResource"*, %"class.blink::Visitor"*)***
  %5 = load void (%"class.blink::ManifestImageResource"*, %"class.blink::Visitor"*)**, void (%"class.blink::ManifestImageResource"*, %"class.blink::Visitor"*)*** %4, align 8
  %6 = getelementptr inbounds void (%"class.blink::ManifestImageResource"*, %"class.blink::Visitor"*)*, void (%"class.blink::ManifestImageResource"*, %"class.blink::Visitor"*)** %5, i64 3
  %7 = load void (%"class.blink::ManifestImageResource"*, %"class.blink::Visitor"*)*, void (%"class.blink::ManifestImageResource"*, %"class.blink::Visitor"*)** %6, align 8
  tail call void %7(%"class.blink::ManifestImageResource"* %3, %"class.blink::Visitor"* %0) #11
  ret void
}

attributes #0 = { nounwind ssp uwtable "correctly-rounded-divide-sqrt-fp-math"="false" "disable-tail-calls"="false" "less-precise-fpmad"="false" "min-legal-vector-width"="0" "no-frame-pointer-elim"="false" "no-frame-pointer-elim-non-leaf" "no-infs-fp-math"="false" "no-jump-tables"="false" "no-nans-fp-math"="false" "no-signed-zeros-fp-math"="false" "no-trapping-math"="false" "null-pointer-is-valid"="true" "stack-protector-buffer-size"="4" "target-cpu"="x86-64" "target-features"="+cx8,+fxsr,+mmx,+sse,+sse2,+sse3,+x87" "unsafe-fp-math"="false" "use-soft-float"="false" }
attributes #1 = { "correctly-rounded-divide-sqrt-fp-math"="false" "disable-tail-calls"="false" "less-precise-fpmad"="false" "no-frame-pointer-elim"="false" "no-frame-pointer-elim-non-leaf" "no-infs-fp-math"="false" "no-nans-fp-math"="false" "no-signed-zeros-fp-math"="false" "no-trapping-math"="false" "null-pointer-is-valid"="true" "stack-protector-buffer-size"="4" "target-cpu"="x86-64" "target-features"="+cx8,+fxsr,+mmx,+sse,+sse2,+sse3,+x87" "unsafe-fp-math"="false" "use-soft-float"="false" }
attributes #2 = { argmemonly nounwind }
attributes #3 = { nounwind "correctly-rounded-divide-sqrt-fp-math"="false" "disable-tail-calls"="false" "less-precise-fpmad"="false" "no-frame-pointer-elim"="false" "no-frame-pointer-elim-non-leaf" "no-infs-fp-math"="false" "no-nans-fp-math"="false" "no-signed-zeros-fp-math"="false" "no-trapping-math"="false" "null-pointer-is-valid"="true" "stack-protector-buffer-size"="4" "target-cpu"="x86-64" "target-features"="+cx8,+fxsr,+mmx,+sse,+sse2,+sse3,+x87" "unsafe-fp-math"="false" "use-soft-float"="false" }
attributes #4 = { nounwind readnone speculatable }
attributes #5 = { cold noreturn nounwind }
attributes #6 = { nobuiltin nounwind "correctly-rounded-divide-sqrt-fp-math"="false" "disable-tail-calls"="false" "less-precise-fpmad"="false" "no-frame-pointer-elim"="false" "no-frame-pointer-elim-non-leaf" "no-infs-fp-math"="false" "no-nans-fp-math"="false" "no-signed-zeros-fp-math"="false" "no-trapping-math"="false" "null-pointer-is-valid"="true" "stack-protector-buffer-size"="4" "target-cpu"="x86-64" "target-features"="+cx8,+fxsr,+mmx,+sse,+sse2,+sse3,+x87" "unsafe-fp-math"="false" "use-soft-float"="false" }
attributes #7 = { nobuiltin nofree "correctly-rounded-divide-sqrt-fp-math"="false" "disable-tail-calls"="false" "less-precise-fpmad"="false" "no-frame-pointer-elim"="false" "no-frame-pointer-elim-non-leaf" "no-infs-fp-math"="false" "no-nans-fp-math"="false" "no-signed-zeros-fp-math"="false" "no-trapping-math"="false" "null-pointer-is-valid"="true" "stack-protector-buffer-size"="4" "target-cpu"="x86-64" "target-features"="+cx8,+fxsr,+mmx,+sse,+sse2,+sse3,+x87" "unsafe-fp-math"="false" "use-soft-float"="false" }
attributes #8 = { inlinehint nounwind ssp uwtable "correctly-rounded-divide-sqrt-fp-math"="false" "disable-tail-calls"="false" "less-precise-fpmad"="false" "min-legal-vector-width"="0" "no-frame-pointer-elim"="false" "no-frame-pointer-elim-non-leaf" "no-infs-fp-math"="false" "no-jump-tables"="false" "no-nans-fp-math"="false" "no-signed-zeros-fp-math"="false" "no-trapping-math"="false" "null-pointer-is-valid"="true" "stack-protector-buffer-size"="4" "target-cpu"="x86-64" "target-features"="+cx8,+fxsr,+mmx,+sse,+sse2,+sse3,+x87" "unsafe-fp-math"="false" "use-soft-float"="false" }
attributes #9 = { noreturn "correctly-rounded-divide-sqrt-fp-math"="false" "disable-tail-calls"="false" "less-precise-fpmad"="false" "no-frame-pointer-elim"="false" "no-frame-pointer-elim-non-leaf" "no-infs-fp-math"="false" "no-nans-fp-math"="false" "no-signed-zeros-fp-math"="false" "no-trapping-math"="false" "null-pointer-is-valid"="true" "stack-protector-buffer-size"="4" "target-cpu"="x86-64" "target-features"="+cx8,+fxsr,+mmx,+sse,+sse2,+sse3,+x87" "unsafe-fp-math"="false" "use-soft-float"="false" }
attributes #10 = { noreturn nounwind "correctly-rounded-divide-sqrt-fp-math"="false" "disable-tail-calls"="false" "less-precise-fpmad"="false" "no-frame-pointer-elim"="false" "no-frame-pointer-elim-non-leaf" "no-infs-fp-math"="false" "no-nans-fp-math"="false" "no-signed-zeros-fp-math"="false" "no-trapping-math"="false" "null-pointer-is-valid"="true" "stack-protector-buffer-size"="4" "target-cpu"="x86-64" "target-features"="+cx8,+fxsr,+mmx,+sse,+sse2,+sse3,+x87" "unsafe-fp-math"="false" "use-soft-float"="false" }
attributes #11 = { nounwind }
attributes #12 = { builtin nounwind }
attributes #13 = { noreturn nounwind }

!llvm.module.flags = !{!0, !1}

!0 = !{i32 1, !"wchar_size", i32 4}
!1 = !{i32 7, !"PIC Level", i32 2}
!2 = !{!3}
!3 = distinct !{!3, !4, !"_ZN5blink18WrapWeakPersistentINS_25BackgroundFetchIconLoaderEEENS_14WeakPersistentIT_EEPS3_: argument 0"}
!4 = distinct !{!4, !"_ZN5blink18WrapWeakPersistentINS_25BackgroundFetchIconLoaderEEENS_14WeakPersistentIT_EEPS3_"}
!5 = !{!"branch_weights", i32 1, i32 2000}
!6 = !{!7}
!7 = distinct !{!7, !8, !"_ZN5blink18WrapWeakPersistentINS_16ExecutionContextEEENS_14WeakPersistentIT_EEPS3_: argument 0"}
!8 = distinct !{!8, !"_ZN5blink18WrapWeakPersistentINS_16ExecutionContextEEENS_14WeakPersistentIT_EEPS3_"}
!9 = !{!10, !12, !14}
!10 = distinct !{!10, !11, !"_ZN4base8internal8BindImplINS_12OnceCallbackEMN5blink25BackgroundFetchIconLoaderEFvPNS3_16ExecutionContextENS2_IFvRK8SkBitmaplEEERKN3gfx4SizeEEJNS3_14WeakPersistentIS4_EENSI_IS5_EESB_EEEDcOT0_DpOT1_: argument 0"}
!11 = distinct !{!11, !"_ZN4base8internal8BindImplINS_12OnceCallbackEMN5blink25BackgroundFetchIconLoaderEFvPNS3_16ExecutionContextENS2_IFvRK8SkBitmaplEEERKN3gfx4SizeEEJNS3_14WeakPersistentIS4_EENSI_IS5_EESB_EEEDcOT0_DpOT1_"}
!12 = distinct !{!12, !13, !"_ZN4base8BindOnceIMN5blink25BackgroundFetchIconLoaderEFvPNS1_16ExecutionContextENS_12OnceCallbackIFvRK8SkBitmaplEEERKN3gfx4SizeEEJNS1_14WeakPersistentIS2_EENSH_IS3_EESA_EEENS5_INS_8internal14BindTypeHelperIT_JDpT0_EE14UnboundRunTypeEEEOSM_DpOSN_: argument 0"}
!13 = distinct !{!13, !"_ZN4base8BindOnceIMN5blink25BackgroundFetchIconLoaderEFvPNS1_16ExecutionContextENS_12OnceCallbackIFvRK8SkBitmaplEEERKN3gfx4SizeEEJNS1_14WeakPersistentIS2_EENSH_IS3_EESA_EEENS5_INS_8internal14BindTypeHelperIT_JDpT0_EE14UnboundRunTypeEEEOSM_DpOSN_"}
!14 = distinct !{!14, !15, !"_ZN3WTF4BindIMN5blink25BackgroundFetchIconLoaderEFvPNS1_16ExecutionContextEN4base12OnceCallbackIFvRK8SkBitmaplEEERKN3gfx4SizeEEJNS1_14WeakPersistentIS2_EENSI_IS3_EESB_EFvSF_EEENS6_IT1_EEOT_DpOT0_: argument 0"}
!15 = distinct !{!15, !"_ZN3WTF4BindIMN5blink25BackgroundFetchIconLoaderEFvPNS1_16ExecutionContextEN4base12OnceCallbackIFvRK8SkBitmaplEEERKN3gfx4SizeEEJNS1_14WeakPersistentIS2_EENSI_IS3_EESB_EFvSF_EEENS6_IT1_EEOT_DpOT0_"}
!16 = !{!17}
!17 = distinct !{!17, !18, !"_ZN5blink18WrapWeakPersistentINS_25BackgroundFetchIconLoaderEEENS_14WeakPersistentIT_EEPS3_: argument 0"}
!18 = distinct !{!18, !"_ZN5blink18WrapWeakPersistentINS_25BackgroundFetchIconLoaderEEENS_14WeakPersistentIT_EEPS3_"}
!19 = !{!20, !22, !24}
!20 = distinct !{!20, !21, !"_ZN4base8internal8BindImplINS_12OnceCallbackEMN5blink25BackgroundFetchIconLoaderEFv8SkBitmapdEJNS3_14WeakPersistentIS4_EEEEEDcOT0_DpOT1_: argument 0"}
!21 = distinct !{!21, !"_ZN4base8internal8BindImplINS_12OnceCallbackEMN5blink25BackgroundFetchIconLoaderEFv8SkBitmapdEJNS3_14WeakPersistentIS4_EEEEEDcOT0_DpOT1_"}
!22 = distinct !{!22, !23, !"_ZN4base8BindOnceIMN5blink25BackgroundFetchIconLoaderEFv8SkBitmapdEJNS1_14WeakPersistentIS2_EEEEENS_12OnceCallbackINS_8internal14BindTypeHelperIT_JDpT0_EE14UnboundRunTypeEEEOSB_DpOSC_: argument 0"}
!23 = distinct !{!23, !"_ZN4base8BindOnceIMN5blink25BackgroundFetchIconLoaderEFv8SkBitmapdEJNS1_14WeakPersistentIS2_EEEEENS_12OnceCallbackINS_8internal14BindTypeHelperIT_JDpT0_EE14UnboundRunTypeEEEOSB_DpOSC_"}
!24 = distinct !{!24, !25, !"_ZN3WTF4BindIMN5blink25BackgroundFetchIconLoaderEFv8SkBitmapdEJNS1_14WeakPersistentIS2_EEEFvS3_dEEEN4base12OnceCallbackIT1_EEOT_DpOT0_: argument 0"}
!25 = distinct !{!25, !"_ZN3WTF4BindIMN5blink25BackgroundFetchIconLoaderEFv8SkBitmapdEJNS1_14WeakPersistentIS2_EEEFvS3_dEEEN4base12OnceCallbackIT1_EEOT_DpOT0_"}
!26 = !{!27}
!27 = distinct !{!27, !28, !"_ZN5blink9WebVectorINS_8Manifest13ImageResourceEE13ReleaseVectorEv: argument 0"}
!28 = distinct !{!28, !"_ZN5blink9WebVectorINS_8Manifest13ImageResourceEE13ReleaseVectorEv"}
!29 = !{i32 24, i32 33}
