; ModuleID = '../../chrome/browser/metrics/bluetooth_available_utility.cc'
source_filename = "../../chrome/browser/metrics/bluetooth_available_utility.cc"
target datalayout = "e-m:e-i64:64-f80:128-n8:16:32:64-S128"
target triple = "x86_64-unknown-linux-gnu"

module asm ".symver exp, exp@GLIBC_2.2.5"
module asm ".symver exp2, exp2@GLIBC_2.2.5"
module asm ".symver exp2f, exp2f@GLIBC_2.2.5"
module asm ".symver expf, expf@GLIBC_2.2.5"
module asm ".symver lgamma, lgamma@GLIBC_2.2.5"
module asm ".symver lgammaf, lgammaf@GLIBC_2.2.5"
module asm ".symver lgammal, lgammal@GLIBC_2.2.5"
module asm ".symver log, log@GLIBC_2.2.5"
module asm ".symver log2, log2@GLIBC_2.2.5"
module asm ".symver log2f, log2f@GLIBC_2.2.5"
module asm ".symver logf, logf@GLIBC_2.2.5"
module asm ".symver pow, pow@GLIBC_2.2.5"
module asm ".symver powf, powf@GLIBC_2.2.5"

%"struct.base::TaskTraitsExtensionStorage" = type { i8, %"struct.std::__1::array" }
%"struct.std::__1::array" = type { [8 x i8] }
%"class.base::HistogramBase" = type <{ i32 (...)**, i8*, %"struct.std::__1::atomic.1", [4 x i8] }>
%"struct.std::__1::atomic.1" = type { %"struct.std::__1::__atomic_base.2" }
%"struct.std::__1::__atomic_base.2" = type { %"struct.std::__1::__atomic_base.3" }
%"struct.std::__1::__atomic_base.3" = type { %"struct.std::__1::__cxx_atomic_impl.4" }
%"struct.std::__1::__cxx_atomic_impl.4" = type { %"struct.std::__1::__cxx_atomic_base_impl.5" }
%"struct.std::__1::__cxx_atomic_base_impl.5" = type { i32 }
%"class.device::BluetoothAdapter" = type { i32 (...)**, %"class.base::RefCounted", %class.scoped_refptr.6, %"class.base::ObserverList", %"class.std::__1::unordered_map", %"class.std::__1::list", %"class.std::__1::unique_ptr.35", %"class.std::__1::set", %"class.std::__1::queue", %"class.std::__1::queue", %"class.device::BluetoothDiscoveryFilter", %"class.device::BluetoothDiscoveryFilter", i8, i32 }
%"class.base::RefCounted" = type { %"class.base::subtle::RefCountedBase" }
%"class.base::subtle::RefCountedBase" = type { i32 }
%class.scoped_refptr.6 = type { %"class.base::SingleThreadTaskRunner"* }
%"class.base::SingleThreadTaskRunner" = type { %"class.base::SequencedTaskRunner.base", [4 x i8] }
%"class.base::SequencedTaskRunner.base" = type { %"class.base::TaskRunner.base" }
%"class.base::TaskRunner.base" = type <{ i32 (...)**, %"class.base::RefCountedThreadSafe" }>
%"class.base::RefCountedThreadSafe" = type { %"class.base::subtle::RefCountedThreadSafeBase" }
%"class.base::subtle::RefCountedThreadSafeBase" = type { %"class.base::AtomicRefCount" }
%"class.base::AtomicRefCount" = type { %"struct.std::__1::atomic.7" }
%"struct.std::__1::atomic.7" = type { %"struct.std::__1::__atomic_base.8" }
%"struct.std::__1::__atomic_base.8" = type { %"struct.std::__1::__atomic_base.9" }
%"struct.std::__1::__atomic_base.9" = type { %"struct.std::__1::__cxx_atomic_impl.10" }
%"struct.std::__1::__cxx_atomic_impl.10" = type { %"struct.std::__1::__cxx_atomic_base_impl.11" }
%"struct.std::__1::__cxx_atomic_base_impl.11" = type { i32 }
%"class.base::ObserverList" = type <{ %"class.std::__1::vector", %"class.base::LinkedList", i64, i32, [4 x i8] }>
%"class.std::__1::vector" = type { %"class.std::__1::__vector_base" }
%"class.std::__1::__vector_base" = type { %"class.base::internal::UncheckedObserverAdapter"*, %"class.base::internal::UncheckedObserverAdapter"*, %"class.std::__1::__compressed_pair" }
%"class.base::internal::UncheckedObserverAdapter" = type { i8* }
%"class.std::__1::__compressed_pair" = type { %"struct.std::__1::__compressed_pair_elem" }
%"struct.std::__1::__compressed_pair_elem" = type { %"class.base::internal::UncheckedObserverAdapter"* }
%"class.base::LinkedList" = type { %"class.base::LinkNode" }
%"class.base::LinkNode" = type { %"class.base::internal::LinkNodeBase" }
%"class.base::internal::LinkNodeBase" = type { %"class.base::internal::LinkNodeBase"*, %"class.base::internal::LinkNodeBase"* }
%"class.std::__1::unordered_map" = type { %"class.std::__1::__hash_table" }
%"class.std::__1::__hash_table" = type <{ %"class.std::__1::unique_ptr", %"class.std::__1::__compressed_pair.21", %"class.std::__1::__compressed_pair.26", %"class.std::__1::__compressed_pair.28", [4 x i8] }>
%"class.std::__1::unique_ptr" = type { %"class.std::__1::__compressed_pair.13" }
%"class.std::__1::__compressed_pair.13" = type { %"struct.std::__1::__compressed_pair_elem.14", %"struct.std::__1::__compressed_pair_elem.15" }
%"struct.std::__1::__compressed_pair_elem.14" = type { %"struct.std::__1::__hash_node_base"** }
%"struct.std::__1::__hash_node_base" = type { %"struct.std::__1::__hash_node_base"* }
%"struct.std::__1::__compressed_pair_elem.15" = type { %"class.std::__1::__bucket_list_deallocator" }
%"class.std::__1::__bucket_list_deallocator" = type { %"class.std::__1::__compressed_pair.16" }
%"class.std::__1::__compressed_pair.16" = type { %"struct.std::__1::__compressed_pair_elem.17" }
%"struct.std::__1::__compressed_pair_elem.17" = type { i64 }
%"class.std::__1::__compressed_pair.21" = type { %"struct.std::__1::__compressed_pair_elem.22" }
%"struct.std::__1::__compressed_pair_elem.22" = type { %"struct.std::__1::__hash_node_base" }
%"class.std::__1::__compressed_pair.26" = type { %"struct.std::__1::__compressed_pair_elem.17" }
%"class.std::__1::__compressed_pair.28" = type { %"struct.std::__1::__compressed_pair_elem.29" }
%"struct.std::__1::__compressed_pair_elem.29" = type { float }
%"class.std::__1::list" = type { %"class.std::__1::__list_imp" }
%"class.std::__1::__list_imp" = type { %"struct.std::__1::__list_node_base", %"class.std::__1::__compressed_pair.31" }
%"struct.std::__1::__list_node_base" = type { %"struct.std::__1::__list_node_base"*, %"struct.std::__1::__list_node_base"* }
%"class.std::__1::__compressed_pair.31" = type { %"struct.std::__1::__compressed_pair_elem.17" }
%"class.std::__1::unique_ptr.35" = type { %"class.std::__1::__compressed_pair.36" }
%"class.std::__1::__compressed_pair.36" = type { %"struct.std::__1::__compressed_pair_elem.37" }
%"struct.std::__1::__compressed_pair_elem.37" = type { %"struct.device::BluetoothAdapter::SetPoweredCallbacks"* }
%"struct.device::BluetoothAdapter::SetPoweredCallbacks" = type { i8, %"class.base::OnceCallback", %"class.base::OnceCallback" }
%"class.base::OnceCallback" = type { %"class.base::internal::CallbackBase" }
%"class.base::internal::CallbackBase" = type { %class.scoped_refptr.38 }
%class.scoped_refptr.38 = type { %"class.base::internal::BindStateBase"* }
%"class.base::internal::BindStateBase" = type { %"class.base::RefCountedThreadSafe.39", void ()*, void (%"class.base::internal::BindStateBase"*)*, i1 (%"class.base::internal::BindStateBase"*, i32)* }
%"class.base::RefCountedThreadSafe.39" = type { %"class.base::subtle::RefCountedThreadSafeBase" }
%"class.std::__1::set" = type { %"class.std::__1::__tree" }
%"class.std::__1::__tree" = type { %"class.std::__1::__tree_end_node"*, %"class.std::__1::__compressed_pair.41", %"class.std::__1::__compressed_pair.46" }
%"class.std::__1::__tree_end_node" = type { %"class.std::__1::__tree_node_base"* }
%"class.std::__1::__tree_node_base" = type <{ %"class.std::__1::__tree_end_node", %"class.std::__1::__tree_node_base"*, %"class.std::__1::__tree_end_node"*, i8, [7 x i8] }>
%"class.std::__1::__compressed_pair.41" = type { %"struct.std::__1::__compressed_pair_elem.42" }
%"struct.std::__1::__compressed_pair_elem.42" = type { %"class.std::__1::__tree_end_node" }
%"class.std::__1::__compressed_pair.46" = type { %"struct.std::__1::__compressed_pair_elem.17" }
%"class.std::__1::queue" = type { %"class.base::circular_deque" }
%"class.base::circular_deque" = type { %"class.base::internal::VectorBuffer", i64, i64 }
%"class.base::internal::VectorBuffer" = type { %"class.std::__1::unique_ptr.49"*, i64 }
%"class.std::__1::unique_ptr.49" = type opaque
%"class.device::BluetoothDiscoveryFilter" = type { %"class.absl::optional", %"class.absl::optional.50", i8, %"class.base::internal::flat_tree" }
%"class.absl::optional" = type { %"class.absl::optional_internal::optional_data" }
%"class.absl::optional_internal::optional_data" = type { %"class.absl::optional_internal::optional_data_base" }
%"class.absl::optional_internal::optional_data_base" = type { %"class.absl::optional_internal::optional_data_dtor_base" }
%"class.absl::optional_internal::optional_data_dtor_base" = type { i8, %union.anon }
%union.anon = type { i16 }
%"class.absl::optional.50" = type { %"class.absl::optional_internal::optional_data.51" }
%"class.absl::optional_internal::optional_data.51" = type { %"class.absl::optional_internal::optional_data_base.52" }
%"class.absl::optional_internal::optional_data_base.52" = type { %"class.absl::optional_internal::optional_data_dtor_base.53" }
%"class.absl::optional_internal::optional_data_dtor_base.53" = type { i8, %union.anon.54 }
%union.anon.54 = type { i16 }
%"class.base::internal::flat_tree" = type { %"class.std::__1::vector.55" }
%"class.std::__1::vector.55" = type { %"class.std::__1::__vector_base.56" }
%"class.std::__1::__vector_base.56" = type { %"struct.device::BluetoothDiscoveryFilter::DeviceInfoFilter"*, %"struct.device::BluetoothDiscoveryFilter::DeviceInfoFilter"*, %"class.std::__1::__compressed_pair.71" }
%"struct.device::BluetoothDiscoveryFilter::DeviceInfoFilter" = type { %"class.base::internal::flat_tree.57", %"class.std::__1::basic_string" }
%"class.base::internal::flat_tree.57" = type { %"class.std::__1::vector.58" }
%"class.std::__1::vector.58" = type { %"class.std::__1::__vector_base.59" }
%"class.std::__1::__vector_base.59" = type { %"class.device::BluetoothUUID"*, %"class.device::BluetoothUUID"*, %"class.std::__1::__compressed_pair.66" }
%"class.device::BluetoothUUID" = type { i32, %"class.std::__1::basic_string", %"class.std::__1::basic_string" }
%"class.std::__1::__compressed_pair.66" = type { %"struct.std::__1::__compressed_pair_elem.67" }
%"struct.std::__1::__compressed_pair_elem.67" = type { %"class.device::BluetoothUUID"* }
%"class.std::__1::basic_string" = type { %"class.std::__1::__compressed_pair.60" }
%"class.std::__1::__compressed_pair.60" = type { %"struct.std::__1::__compressed_pair_elem.61" }
%"struct.std::__1::__compressed_pair_elem.61" = type { %"struct.std::__1::basic_string<char, std::__1::char_traits<char>, std::__1::allocator<char> >::__rep" }
%"struct.std::__1::basic_string<char, std::__1::char_traits<char>, std::__1::allocator<char> >::__rep" = type { %union.anon.62 }
%union.anon.62 = type { %"struct.std::__1::basic_string<char, std::__1::char_traits<char>, std::__1::allocator<char> >::__long" }
%"struct.std::__1::basic_string<char, std::__1::char_traits<char>, std::__1::allocator<char> >::__long" = type { i8*, i64, i64 }
%"class.std::__1::__compressed_pair.71" = type { %"struct.std::__1::__compressed_pair_elem.72" }
%"struct.std::__1::__compressed_pair_elem.72" = type { %"struct.device::BluetoothDiscoveryFilter::DeviceInfoFilter"* }
%"class.device::BluetoothAdapterFactory" = type { %"class.base::WeakPtr", %class.scoped_refptr, %"class.std::__1::vector.83", %"class.base::WeakPtr.91" }
%"class.base::WeakPtr" = type { %"class.base::internal::WeakPtrBase" }
%"class.base::internal::WeakPtrBase" = type { %"class.base::internal::WeakReference", i64 }
%"class.base::internal::WeakReference" = type { %class.scoped_refptr.76 }
%class.scoped_refptr.76 = type { %"class.base::internal::WeakReference::Flag"* }
%"class.base::internal::WeakReference::Flag" = type <{ %"class.base::RefCountedThreadSafe.77", %"class.base::AtomicFlag", [3 x i8] }>
%"class.base::RefCountedThreadSafe.77" = type { %"class.base::subtle::RefCountedThreadSafeBase" }
%"class.base::AtomicFlag" = type { %"struct.std::__1::atomic.78" }
%"struct.std::__1::atomic.78" = type { %"struct.std::__1::__atomic_base.79" }
%"struct.std::__1::__atomic_base.79" = type { %"struct.std::__1::__atomic_base.80" }
%"struct.std::__1::__atomic_base.80" = type { %"struct.std::__1::__cxx_atomic_impl.81" }
%"struct.std::__1::__cxx_atomic_impl.81" = type { %"struct.std::__1::__cxx_atomic_base_impl.82" }
%"struct.std::__1::__cxx_atomic_base_impl.82" = type { i8 }
%class.scoped_refptr = type { %"class.device::BluetoothAdapter"* }
%"class.std::__1::vector.83" = type { %"class.std::__1::__vector_base.84" }
%"class.std::__1::__vector_base.84" = type { %"class.base::OnceCallback.85"*, %"class.base::OnceCallback.85"*, %"class.std::__1::__compressed_pair.86" }
%"class.base::OnceCallback.85" = type { %"class.base::internal::CallbackBase" }
%"class.std::__1::__compressed_pair.86" = type { %"struct.std::__1::__compressed_pair_elem.87" }
%"struct.std::__1::__compressed_pair_elem.87" = type { %"class.base::OnceCallback.85"* }
%"class.base::WeakPtr.91" = type { %"class.base::internal::WeakPtrBase" }
%"class.base::Location" = type { i8*, i8*, i32, i8* }
%"class.content::BrowserTaskTraits" = type { %"class.base::TaskTraits" }
%"class.base::TaskTraits" = type { %"struct.base::TaskTraitsExtensionStorage", i8, i8, i8, i8, i8, i8 }
%"class.base::TaskRunner" = type <{ i32 (...)**, %"class.base::RefCountedThreadSafe", [4 x i8] }>

$_ZN4base8internal7InvokerINS0_9BindStateIPFvvEJEEES3_E7RunOnceEPNS0_13BindStateBaseE = comdat any

$_ZN4base8internal9BindStateIPFvvEJEE7DestroyEPKNS0_13BindStateBaseE = comdat any

$_ZN4base8internal7InvokerINS0_9BindStateIPFv13scoped_refptrIN6device16BluetoothAdapterEEEJEEES7_E7RunOnceEPNS0_13BindStateBaseEOS6_ = comdat any

$_ZN4base8internal9BindStateIPFv13scoped_refptrIN6device16BluetoothAdapterEEEJEE7DestroyEPKNS0_13BindStateBaseE = comdat any

@.str = private unnamed_addr constant [26 x i8] c"Bluetooth.Availability.v2\00", align 1
@.ref.tmp = private constant { %"struct.base::TaskTraitsExtensionStorage", i8, i8, i8, i8, i8, i8 } { %"struct.base::TaskTraitsExtensionStorage" zeroinitializer, i8 0, i8 1, i8 0, i8 0, i8 0, i8 0 }, align 1
@.str.1 = private unnamed_addr constant [28 x i8] c"ReportBluetoothAvailability\00", align 1
@.str.2 = private unnamed_addr constant [60 x i8] c"../../chrome/browser/metrics/bluetooth_available_utility.cc\00", align 1
@_ZZN17bluetooth_utility18ReportAvailabilityENS_21BluetoothAvailabilityEE24atomic_histogram_pointer.0.0.0.0.0 = internal unnamed_addr global i64 0, align 8

; Function Attrs: nounwind ssp uwtable
define hidden void @_ZN17bluetooth_utility18ReportAvailabilityENS_21BluetoothAvailabilityE(i32) local_unnamed_addr #0 {
  %2 = load atomic i64, i64* @_ZZN17bluetooth_utility18ReportAvailabilityENS_21BluetoothAvailabilityEE24atomic_histogram_pointer.0.0.0.0.0 acquire, align 8
  %3 = inttoptr i64 %2 to %"class.base::HistogramBase"*
  %4 = icmp eq i64 %2, 0
  br i1 %4, label %5, label %8

5:                                                ; preds = %1
  %6 = tail call %"class.base::HistogramBase"* @_ZN4base15LinearHistogram10FactoryGetEPKciiji(i8* getelementptr inbounds ([26 x i8], [26 x i8]* @.str, i64 0, i64 0), i32 1, i32 6, i32 7, i32 1) #6
  %7 = ptrtoint %"class.base::HistogramBase"* %6 to i64
  store atomic i64 %7, i64* @_ZZN17bluetooth_utility18ReportAvailabilityENS_21BluetoothAvailabilityEE24atomic_histogram_pointer.0.0.0.0.0 release, align 8
  br label %8

8:                                                ; preds = %1, %5
  %9 = phi %"class.base::HistogramBase"* [ %3, %1 ], [ %6, %5 ]
  %10 = bitcast %"class.base::HistogramBase"* %9 to void (%"class.base::HistogramBase"*, i32)***
  %11 = load void (%"class.base::HistogramBase"*, i32)**, void (%"class.base::HistogramBase"*, i32)*** %10, align 8
  %12 = getelementptr inbounds void (%"class.base::HistogramBase"*, i32)*, void (%"class.base::HistogramBase"*, i32)** %11, i64 6
  %13 = load void (%"class.base::HistogramBase"*, i32)*, void (%"class.base::HistogramBase"*, i32)** %12, align 8
  tail call void %13(%"class.base::HistogramBase"* %9, i32 %0) #6
  ret void
}

; Function Attrs: argmemonly nounwind
declare void @llvm.lifetime.start.p0i8(i64 immarg, i8* nocapture) #1

declare %"class.base::HistogramBase"* @_ZN4base15LinearHistogram10FactoryGetEPKciiji(i8*, i32, i32, i32, i32) local_unnamed_addr #2

; Function Attrs: argmemonly nounwind
declare void @llvm.lifetime.end.p0i8(i64 immarg, i8* nocapture) #1

; Function Attrs: nounwind ssp uwtable
define hidden void @_ZN17bluetooth_utility12OnGetAdapterE13scoped_refptrIN6device16BluetoothAdapterEE(%"class.device::BluetoothAdapter"*) #0 {
  %2 = bitcast %"class.device::BluetoothAdapter"* %0 to i1 (%"class.device::BluetoothAdapter"*)***
  %3 = load i1 (%"class.device::BluetoothAdapter"*)**, i1 (%"class.device::BluetoothAdapter"*)*** %2, align 8
  %4 = getelementptr inbounds i1 (%"class.device::BluetoothAdapter"*)*, i1 (%"class.device::BluetoothAdapter"*)** %3, i64 10
  %5 = load i1 (%"class.device::BluetoothAdapter"*)*, i1 (%"class.device::BluetoothAdapter"*)** %4, align 8
  %6 = tail call zeroext i1 %5(%"class.device::BluetoothAdapter"* %0) #6
  br i1 %6, label %20, label %7

7:                                                ; preds = %1
  %8 = load atomic i64, i64* @_ZZN17bluetooth_utility18ReportAvailabilityENS_21BluetoothAvailabilityEE24atomic_histogram_pointer.0.0.0.0.0 acquire, align 8
  %9 = inttoptr i64 %8 to %"class.base::HistogramBase"*
  %10 = icmp eq i64 %8, 0
  br i1 %10, label %11, label %14

11:                                               ; preds = %7
  %12 = tail call %"class.base::HistogramBase"* @_ZN4base15LinearHistogram10FactoryGetEPKciiji(i8* getelementptr inbounds ([26 x i8], [26 x i8]* @.str, i64 0, i64 0), i32 1, i32 6, i32 7, i32 1) #6
  %13 = ptrtoint %"class.base::HistogramBase"* %12 to i64
  store atomic i64 %13, i64* @_ZZN17bluetooth_utility18ReportAvailabilityENS_21BluetoothAvailabilityEE24atomic_histogram_pointer.0.0.0.0.0 release, align 8
  br label %14

14:                                               ; preds = %7, %11
  %15 = phi %"class.base::HistogramBase"* [ %9, %7 ], [ %12, %11 ]
  %16 = bitcast %"class.base::HistogramBase"* %15 to void (%"class.base::HistogramBase"*, i32)***
  %17 = load void (%"class.base::HistogramBase"*, i32)**, void (%"class.base::HistogramBase"*, i32)*** %16, align 8
  %18 = getelementptr inbounds void (%"class.base::HistogramBase"*, i32)*, void (%"class.base::HistogramBase"*, i32)** %17, i64 6
  %19 = load void (%"class.base::HistogramBase"*, i32)*, void (%"class.base::HistogramBase"*, i32)** %18, align 8
  tail call void %19(%"class.base::HistogramBase"* %15, i32 1) #6
  br label %46

20:                                               ; preds = %1
  %21 = tail call %"class.device::BluetoothAdapterFactory"* @_ZN6device23BluetoothAdapterFactory3GetEv() #6
  %22 = tail call zeroext i1 @_ZN6device23BluetoothAdapterFactory20IsLowEnergySupportedEv(%"class.device::BluetoothAdapterFactory"* %21) #6
  %23 = load atomic i64, i64* @_ZZN17bluetooth_utility18ReportAvailabilityENS_21BluetoothAvailabilityEE24atomic_histogram_pointer.0.0.0.0.0 acquire, align 8
  %24 = inttoptr i64 %23 to %"class.base::HistogramBase"*
  %25 = icmp eq i64 %23, 0
  br i1 %22, label %36, label %26

26:                                               ; preds = %20
  br i1 %25, label %27, label %30

27:                                               ; preds = %26
  %28 = tail call %"class.base::HistogramBase"* @_ZN4base15LinearHistogram10FactoryGetEPKciiji(i8* getelementptr inbounds ([26 x i8], [26 x i8]* @.str, i64 0, i64 0), i32 1, i32 6, i32 7, i32 1) #6
  %29 = ptrtoint %"class.base::HistogramBase"* %28 to i64
  store atomic i64 %29, i64* @_ZZN17bluetooth_utility18ReportAvailabilityENS_21BluetoothAvailabilityEE24atomic_histogram_pointer.0.0.0.0.0 release, align 8
  br label %30

30:                                               ; preds = %26, %27
  %31 = phi %"class.base::HistogramBase"* [ %24, %26 ], [ %28, %27 ]
  %32 = bitcast %"class.base::HistogramBase"* %31 to void (%"class.base::HistogramBase"*, i32)***
  %33 = load void (%"class.base::HistogramBase"*, i32)**, void (%"class.base::HistogramBase"*, i32)*** %32, align 8
  %34 = getelementptr inbounds void (%"class.base::HistogramBase"*, i32)*, void (%"class.base::HistogramBase"*, i32)** %33, i64 6
  %35 = load void (%"class.base::HistogramBase"*, i32)*, void (%"class.base::HistogramBase"*, i32)** %34, align 8
  tail call void %35(%"class.base::HistogramBase"* %31, i32 2) #6
  br label %46

36:                                               ; preds = %20
  br i1 %25, label %37, label %40

37:                                               ; preds = %36
  %38 = tail call %"class.base::HistogramBase"* @_ZN4base15LinearHistogram10FactoryGetEPKciiji(i8* getelementptr inbounds ([26 x i8], [26 x i8]* @.str, i64 0, i64 0), i32 1, i32 6, i32 7, i32 1) #6
  %39 = ptrtoint %"class.base::HistogramBase"* %38 to i64
  store atomic i64 %39, i64* @_ZZN17bluetooth_utility18ReportAvailabilityENS_21BluetoothAvailabilityEE24atomic_histogram_pointer.0.0.0.0.0 release, align 8
  br label %40

40:                                               ; preds = %36, %37
  %41 = phi %"class.base::HistogramBase"* [ %24, %36 ], [ %38, %37 ]
  %42 = bitcast %"class.base::HistogramBase"* %41 to void (%"class.base::HistogramBase"*, i32)***
  %43 = load void (%"class.base::HistogramBase"*, i32)**, void (%"class.base::HistogramBase"*, i32)*** %42, align 8
  %44 = getelementptr inbounds void (%"class.base::HistogramBase"*, i32)*, void (%"class.base::HistogramBase"*, i32)** %43, i64 6
  %45 = load void (%"class.base::HistogramBase"*, i32)*, void (%"class.base::HistogramBase"*, i32)** %44, align 8
  tail call void %45(%"class.base::HistogramBase"* %41, i32 3) #6
  br label %46

46:                                               ; preds = %40, %30, %14
  %47 = icmp eq %"class.device::BluetoothAdapter"* %0, null
  br i1 %47, label %61, label %48

48:                                               ; preds = %46
  %49 = getelementptr inbounds %"class.device::BluetoothAdapter", %"class.device::BluetoothAdapter"* %0, i64 0, i32 1
  %50 = getelementptr inbounds %"class.base::RefCounted", %"class.base::RefCounted"* %49, i64 0, i32 0
  tail call void @_ZNK4base6subtle14RefCountedBase11ReleaseImplEv(%"class.base::subtle::RefCountedBase"* %50) #6
  %51 = getelementptr inbounds %"class.base::RefCounted", %"class.base::RefCounted"* %49, i64 0, i32 0, i32 0
  %52 = load i32, i32* %51, align 4
  %53 = icmp eq i32 %52, 0
  br i1 %53, label %54, label %61

54:                                               ; preds = %48
  %55 = getelementptr inbounds %"class.base::RefCounted", %"class.base::RefCounted"* %49, i64 -2
  %56 = bitcast %"class.base::RefCounted"* %55 to %"class.device::BluetoothAdapter"*
  %57 = bitcast %"class.base::RefCounted"* %55 to void (%"class.device::BluetoothAdapter"*)***
  %58 = load void (%"class.device::BluetoothAdapter"*)**, void (%"class.device::BluetoothAdapter"*)*** %57, align 8
  %59 = getelementptr inbounds void (%"class.device::BluetoothAdapter"*)*, void (%"class.device::BluetoothAdapter"*)** %58, i64 37
  %60 = load void (%"class.device::BluetoothAdapter"*)*, void (%"class.device::BluetoothAdapter"*)** %59, align 8
  tail call void %60(%"class.device::BluetoothAdapter"* nonnull %56) #6
  br label %61

61:                                               ; preds = %46, %48, %54
  ret void
}

declare %"class.device::BluetoothAdapterFactory"* @_ZN6device23BluetoothAdapterFactory3GetEv() local_unnamed_addr #2

declare zeroext i1 @_ZN6device23BluetoothAdapterFactory20IsLowEnergySupportedEv(%"class.device::BluetoothAdapterFactory"*) local_unnamed_addr #2

; Function Attrs: nounwind ssp uwtable
define hidden void @_ZN17bluetooth_utility27ReportBluetoothAvailabilityEv() #0 {
  %1 = alloca %"class.base::Location", align 8
  %2 = alloca %"class.base::OnceCallback", align 8
  %3 = alloca %"class.base::OnceCallback.85", align 8
  %4 = tail call zeroext i1 @_ZN7content13BrowserThread11CurrentlyOnENS0_2IDE(i32 0) #6
  br i1 %4, label %25, label %5

5:                                                ; preds = %0
  %6 = tail call %"class.base::SingleThreadTaskRunner"* @_ZN7content21GetUIThreadTaskRunnerERKNS_17BrowserTaskTraitsE(%"class.content::BrowserTaskTraits"* dereferenceable(15) bitcast ({ %"struct.base::TaskTraitsExtensionStorage", i8, i8, i8, i8, i8, i8 }* @.ref.tmp to %"class.content::BrowserTaskTraits"*)) #6
  %7 = bitcast %"class.base::SingleThreadTaskRunner"* %6 to %"class.base::TaskRunner"*
  %8 = bitcast %"class.base::Location"* %1 to i8*
  call void @llvm.lifetime.start.p0i8(i64 32, i8* nonnull %8) #6
  call void @_ZN4base8Location7CurrentEPKcS2_i(%"class.base::Location"* nonnull sret %1, i8* getelementptr inbounds ([28 x i8], [28 x i8]* @.str.1, i64 0, i64 0), i8* getelementptr inbounds ([60 x i8], [60 x i8]* @.str.2, i64 0, i64 0), i32 54) #6
  %9 = call i8* @_Znwm(i64 48) #7, !noalias !2
  %10 = bitcast i8* %9 to %"class.base::internal::BindStateBase"*
  call void @_ZN4base8internal13BindStateBaseC2EPFvvEPFvPKS1_E(%"class.base::internal::BindStateBase"* nonnull %10, void ()* bitcast (void (%"class.base::internal::BindStateBase"*)* @_ZN4base8internal7InvokerINS0_9BindStateIPFvvEJEEES3_E7RunOnceEPNS0_13BindStateBaseE to void ()*), void (%"class.base::internal::BindStateBase"*)* nonnull @_ZN4base8internal9BindStateIPFvvEJEE7DestroyEPKNS0_13BindStateBaseE) #6, !noalias !2
  %11 = getelementptr inbounds i8, i8* %9, i64 32
  %12 = bitcast i8* %11 to i64*
  store i64 ptrtoint (void ()* @_ZN17bluetooth_utility27ReportBluetoothAvailabilityEv to i64), i64* %12, align 8, !noalias !2
  %13 = bitcast %"class.base::OnceCallback"* %2 to i8**
  store i8* %9, i8** %13, align 8, !alias.scope !2
  %14 = call zeroext i1 @_ZN4base10TaskRunner8PostTaskERKNS_8LocationENS_12OnceCallbackIFvvEEE(%"class.base::TaskRunner"* %7, %"class.base::Location"* nonnull dereferenceable(32) %1, %"class.base::OnceCallback"* nonnull %2) #6
  %15 = getelementptr inbounds %"class.base::OnceCallback", %"class.base::OnceCallback"* %2, i64 0, i32 0
  call void @_ZN4base8internal12CallbackBaseD2Ev(%"class.base::internal::CallbackBase"* nonnull %15) #6
  call void @llvm.lifetime.end.p0i8(i64 32, i8* nonnull %8) #6
  %16 = icmp eq %"class.base::SingleThreadTaskRunner"* %6, null
  br i1 %16, label %51, label %17

17:                                               ; preds = %5
  %18 = getelementptr inbounds %"class.base::SingleThreadTaskRunner", %"class.base::SingleThreadTaskRunner"* %6, i64 0, i32 0, i32 0, i32 1
  %19 = getelementptr inbounds %"class.base::RefCountedThreadSafe", %"class.base::RefCountedThreadSafe"* %18, i64 0, i32 0, i32 0, i32 0, i32 0, i32 0, i32 0, i32 0, i32 0
  %20 = atomicrmw sub i32* %19, i32 1 acq_rel
  %21 = icmp eq i32 %20, 1
  br i1 %21, label %22, label %51

22:                                               ; preds = %17
  %23 = getelementptr inbounds %"class.base::RefCountedThreadSafe", %"class.base::RefCountedThreadSafe"* %18, i64 -2
  %24 = bitcast %"class.base::RefCountedThreadSafe"* %23 to %"class.base::TaskRunner"*
  call void @_ZN4base16TaskRunnerTraits8DestructEPKNS_10TaskRunnerE(%"class.base::TaskRunner"* %24) #6
  br label %51

25:                                               ; preds = %0
  %26 = tail call zeroext i1 @_ZN5bluez16BluezDBusManager13IsInitializedEv() #6
  br i1 %26, label %27, label %51

27:                                               ; preds = %25
  %28 = tail call %"class.device::BluetoothAdapterFactory"* @_ZN6device23BluetoothAdapterFactory3GetEv() #6
  %29 = tail call zeroext i1 @_ZN6device23BluetoothAdapterFactory20IsBluetoothSupportedEv() #6
  br i1 %29, label %43, label %30

30:                                               ; preds = %27
  %31 = load atomic i64, i64* @_ZZN17bluetooth_utility18ReportAvailabilityENS_21BluetoothAvailabilityEE24atomic_histogram_pointer.0.0.0.0.0 acquire, align 8
  %32 = inttoptr i64 %31 to %"class.base::HistogramBase"*
  %33 = icmp eq i64 %31, 0
  br i1 %33, label %34, label %37

34:                                               ; preds = %30
  %35 = tail call %"class.base::HistogramBase"* @_ZN4base15LinearHistogram10FactoryGetEPKciiji(i8* getelementptr inbounds ([26 x i8], [26 x i8]* @.str, i64 0, i64 0), i32 1, i32 6, i32 7, i32 1) #6
  %36 = ptrtoint %"class.base::HistogramBase"* %35 to i64
  store atomic i64 %36, i64* @_ZZN17bluetooth_utility18ReportAvailabilityENS_21BluetoothAvailabilityEE24atomic_histogram_pointer.0.0.0.0.0 release, align 8
  br label %37

37:                                               ; preds = %30, %34
  %38 = phi %"class.base::HistogramBase"* [ %32, %30 ], [ %35, %34 ]
  %39 = bitcast %"class.base::HistogramBase"* %38 to void (%"class.base::HistogramBase"*, i32)***
  %40 = load void (%"class.base::HistogramBase"*, i32)**, void (%"class.base::HistogramBase"*, i32)*** %39, align 8
  %41 = getelementptr inbounds void (%"class.base::HistogramBase"*, i32)*, void (%"class.base::HistogramBase"*, i32)** %40, i64 6
  %42 = load void (%"class.base::HistogramBase"*, i32)*, void (%"class.base::HistogramBase"*, i32)** %41, align 8
  tail call void %42(%"class.base::HistogramBase"* %38, i32 5) #6
  br label %51

43:                                               ; preds = %27
  %44 = tail call %"class.device::BluetoothAdapterFactory"* @_ZN6device23BluetoothAdapterFactory3GetEv() #6
  %45 = tail call i8* @_Znwm(i64 48) #7, !noalias !7
  %46 = bitcast i8* %45 to %"class.base::internal::BindStateBase"*
  tail call void @_ZN4base8internal13BindStateBaseC2EPFvvEPFvPKS1_E(%"class.base::internal::BindStateBase"* nonnull %46, void ()* bitcast (void (%"class.base::internal::BindStateBase"*, %class.scoped_refptr*)* @_ZN4base8internal7InvokerINS0_9BindStateIPFv13scoped_refptrIN6device16BluetoothAdapterEEEJEEES7_E7RunOnceEPNS0_13BindStateBaseEOS6_ to void ()*), void (%"class.base::internal::BindStateBase"*)* nonnull @_ZN4base8internal9BindStateIPFv13scoped_refptrIN6device16BluetoothAdapterEEEJEE7DestroyEPKNS0_13BindStateBaseE) #6, !noalias !7
  %47 = getelementptr inbounds i8, i8* %45, i64 32
  %48 = bitcast i8* %47 to i64*
  store i64 ptrtoint (void (%"class.device::BluetoothAdapter"*)* @_ZN17bluetooth_utility12OnGetAdapterE13scoped_refptrIN6device16BluetoothAdapterEE to i64), i64* %48, align 8, !noalias !7
  %49 = bitcast %"class.base::OnceCallback.85"* %3 to i8**
  store i8* %45, i8** %49, align 8, !alias.scope !7
  call void @_ZN6device23BluetoothAdapterFactory10GetAdapterEN4base12OnceCallbackIFv13scoped_refptrINS_16BluetoothAdapterEEEEE(%"class.device::BluetoothAdapterFactory"* %44, %"class.base::OnceCallback.85"* nonnull %3) #6
  %50 = getelementptr inbounds %"class.base::OnceCallback.85", %"class.base::OnceCallback.85"* %3, i64 0, i32 0
  call void @_ZN4base8internal12CallbackBaseD2Ev(%"class.base::internal::CallbackBase"* nonnull %50) #6
  br label %51

51:                                               ; preds = %22, %17, %5, %25, %43, %37
  ret void
}

declare zeroext i1 @_ZN7content13BrowserThread11CurrentlyOnENS0_2IDE(i32) local_unnamed_addr #2

declare %"class.base::SingleThreadTaskRunner"* @_ZN7content21GetUIThreadTaskRunnerERKNS_17BrowserTaskTraitsE(%"class.content::BrowserTaskTraits"* dereferenceable(15)) local_unnamed_addr #2

declare zeroext i1 @_ZN4base10TaskRunner8PostTaskERKNS_8LocationENS_12OnceCallbackIFvvEEE(%"class.base::TaskRunner"*, %"class.base::Location"* dereferenceable(32), %"class.base::OnceCallback"*) local_unnamed_addr #2

declare void @_ZN4base8Location7CurrentEPKcS2_i(%"class.base::Location"* sret, i8*, i8*, i32) local_unnamed_addr #2

declare zeroext i1 @_ZN5bluez16BluezDBusManager13IsInitializedEv() local_unnamed_addr #2

declare zeroext i1 @_ZN6device23BluetoothAdapterFactory20IsBluetoothSupportedEv() local_unnamed_addr #2

declare void @_ZN6device23BluetoothAdapterFactory10GetAdapterEN4base12OnceCallbackIFv13scoped_refptrINS_16BluetoothAdapterEEEEE(%"class.device::BluetoothAdapterFactory"*, %"class.base::OnceCallback.85"*) local_unnamed_addr #2

; Function Attrs: nounwind
declare void @_ZN4base8internal12CallbackBaseD2Ev(%"class.base::internal::CallbackBase"*) unnamed_addr #3

declare void @_ZNK4base6subtle14RefCountedBase11ReleaseImplEv(%"class.base::subtle::RefCountedBase"*) local_unnamed_addr #2

declare void @_ZN4base16TaskRunnerTraits8DestructEPKNS_10TaskRunnerE(%"class.base::TaskRunner"*) local_unnamed_addr #2

; Function Attrs: nounwind ssp uwtable
define linkonce_odr hidden void @_ZN4base8internal7InvokerINS0_9BindStateIPFvvEJEEES3_E7RunOnceEPNS0_13BindStateBaseE(%"class.base::internal::BindStateBase"*) #0 comdat align 2 {
  %2 = getelementptr inbounds %"class.base::internal::BindStateBase", %"class.base::internal::BindStateBase"* %0, i64 1
  %3 = bitcast %"class.base::internal::BindStateBase"* %2 to void ()**
  %4 = load void ()*, void ()** %3, align 8
  tail call void %4() #6
  ret void
}

; Function Attrs: nobuiltin nofree
declare noalias nonnull i8* @_Znwm(i64) local_unnamed_addr #4

; Function Attrs: nounwind ssp uwtable
define linkonce_odr hidden void @_ZN4base8internal9BindStateIPFvvEJEE7DestroyEPKNS0_13BindStateBaseE(%"class.base::internal::BindStateBase"*) #0 comdat align 2 {
  %2 = icmp eq %"class.base::internal::BindStateBase"* %0, null
  br i1 %2, label %5, label %3

3:                                                ; preds = %1
  %4 = bitcast %"class.base::internal::BindStateBase"* %0 to i8*
  tail call void @_ZdlPv(i8* %4) #7
  br label %5

5:                                                ; preds = %3, %1
  ret void
}

declare void @_ZN4base8internal13BindStateBaseC2EPFvvEPFvPKS1_E(%"class.base::internal::BindStateBase"*, void ()*, void (%"class.base::internal::BindStateBase"*)*) unnamed_addr #2

; Function Attrs: nobuiltin nounwind
declare void @_ZdlPv(i8*) local_unnamed_addr #5

; Function Attrs: nounwind ssp uwtable
define linkonce_odr hidden void @_ZN4base8internal7InvokerINS0_9BindStateIPFv13scoped_refptrIN6device16BluetoothAdapterEEEJEEES7_E7RunOnceEPNS0_13BindStateBaseEOS6_(%"class.base::internal::BindStateBase"*, %class.scoped_refptr* dereferenceable(8)) #0 comdat align 2 {
  %3 = getelementptr inbounds %"class.base::internal::BindStateBase", %"class.base::internal::BindStateBase"* %0, i64 1
  %4 = bitcast %"class.base::internal::BindStateBase"* %3 to void (%"class.device::BluetoothAdapter"*)**
  %5 = load void (%"class.device::BluetoothAdapter"*)*, void (%"class.device::BluetoothAdapter"*)** %4, align 8
  %6 = getelementptr inbounds %class.scoped_refptr, %class.scoped_refptr* %1, i64 0, i32 0
  %7 = load %"class.device::BluetoothAdapter"*, %"class.device::BluetoothAdapter"** %6, align 8
  store %"class.device::BluetoothAdapter"* null, %"class.device::BluetoothAdapter"** %6, align 8
  tail call void %5(%"class.device::BluetoothAdapter"* %7) #6
  ret void
}

; Function Attrs: nounwind ssp uwtable
define linkonce_odr hidden void @_ZN4base8internal9BindStateIPFv13scoped_refptrIN6device16BluetoothAdapterEEEJEE7DestroyEPKNS0_13BindStateBaseE(%"class.base::internal::BindStateBase"*) #0 comdat align 2 {
  %2 = icmp eq %"class.base::internal::BindStateBase"* %0, null
  br i1 %2, label %5, label %3

3:                                                ; preds = %1
  %4 = bitcast %"class.base::internal::BindStateBase"* %0 to i8*
  tail call void @_ZdlPv(i8* %4) #7
  br label %5

5:                                                ; preds = %3, %1
  ret void
}

attributes #0 = { nounwind ssp uwtable "correctly-rounded-divide-sqrt-fp-math"="false" "disable-tail-calls"="false" "less-precise-fpmad"="false" "min-legal-vector-width"="0" "no-frame-pointer-elim"="false" "no-frame-pointer-elim-non-leaf" "no-infs-fp-math"="false" "no-jump-tables"="false" "no-nans-fp-math"="false" "no-signed-zeros-fp-math"="false" "no-trapping-math"="false" "null-pointer-is-valid"="true" "stack-protector-buffer-size"="4" "target-cpu"="x86-64" "target-features"="+cx8,+fxsr,+mmx,+sse,+sse2,+sse3,+x87" "unsafe-fp-math"="false" "use-soft-float"="false" }
attributes #1 = { argmemonly nounwind }
attributes #2 = { "correctly-rounded-divide-sqrt-fp-math"="false" "disable-tail-calls"="false" "less-precise-fpmad"="false" "no-frame-pointer-elim"="false" "no-frame-pointer-elim-non-leaf" "no-infs-fp-math"="false" "no-nans-fp-math"="false" "no-signed-zeros-fp-math"="false" "no-trapping-math"="false" "null-pointer-is-valid"="true" "stack-protector-buffer-size"="4" "target-cpu"="x86-64" "target-features"="+cx8,+fxsr,+mmx,+sse,+sse2,+sse3,+x87" "unsafe-fp-math"="false" "use-soft-float"="false" }
attributes #3 = { nounwind "correctly-rounded-divide-sqrt-fp-math"="false" "disable-tail-calls"="false" "less-precise-fpmad"="false" "no-frame-pointer-elim"="false" "no-frame-pointer-elim-non-leaf" "no-infs-fp-math"="false" "no-nans-fp-math"="false" "no-signed-zeros-fp-math"="false" "no-trapping-math"="false" "null-pointer-is-valid"="true" "stack-protector-buffer-size"="4" "target-cpu"="x86-64" "target-features"="+cx8,+fxsr,+mmx,+sse,+sse2,+sse3,+x87" "unsafe-fp-math"="false" "use-soft-float"="false" }
attributes #4 = { nobuiltin nofree "correctly-rounded-divide-sqrt-fp-math"="false" "disable-tail-calls"="false" "less-precise-fpmad"="false" "no-frame-pointer-elim"="false" "no-frame-pointer-elim-non-leaf" "no-infs-fp-math"="false" "no-nans-fp-math"="false" "no-signed-zeros-fp-math"="false" "no-trapping-math"="false" "null-pointer-is-valid"="true" "stack-protector-buffer-size"="4" "target-cpu"="x86-64" "target-features"="+cx8,+fxsr,+mmx,+sse,+sse2,+sse3,+x87" "unsafe-fp-math"="false" "use-soft-float"="false" }
attributes #5 = { nobuiltin nounwind "correctly-rounded-divide-sqrt-fp-math"="false" "disable-tail-calls"="false" "less-precise-fpmad"="false" "no-frame-pointer-elim"="false" "no-frame-pointer-elim-non-leaf" "no-infs-fp-math"="false" "no-nans-fp-math"="false" "no-signed-zeros-fp-math"="false" "no-trapping-math"="false" "null-pointer-is-valid"="true" "stack-protector-buffer-size"="4" "target-cpu"="x86-64" "target-features"="+cx8,+fxsr,+mmx,+sse,+sse2,+sse3,+x87" "unsafe-fp-math"="false" "use-soft-float"="false" }
attributes #6 = { nounwind }
attributes #7 = { builtin nounwind }

!llvm.module.flags = !{!0, !1}

!0 = !{i32 1, !"wchar_size", i32 4}
!1 = !{i32 7, !"PIC Level", i32 2}
!2 = !{!3, !5}
!3 = distinct !{!3, !4, !"_ZN4base8internal8BindImplINS_12OnceCallbackEPFvvEJEEEDcOT0_DpOT1_: argument 0"}
!4 = distinct !{!4, !"_ZN4base8internal8BindImplINS_12OnceCallbackEPFvvEJEEEDcOT0_DpOT1_"}
!5 = distinct !{!5, !6, !"_ZN4base8BindOnceIPFvvEJEEENS_12OnceCallbackINS_8internal14BindTypeHelperIT_JDpT0_EE14UnboundRunTypeEEEOS6_DpOS7_: argument 0"}
!6 = distinct !{!6, !"_ZN4base8BindOnceIPFvvEJEEENS_12OnceCallbackINS_8internal14BindTypeHelperIT_JDpT0_EE14UnboundRunTypeEEEOS6_DpOS7_"}
!7 = !{!8, !10}
!8 = distinct !{!8, !9, !"_ZN4base8internal8BindImplINS_12OnceCallbackEPFv13scoped_refptrIN6device16BluetoothAdapterEEEJEEEDcOT0_DpOT1_: argument 0"}
!9 = distinct !{!9, !"_ZN4base8internal8BindImplINS_12OnceCallbackEPFv13scoped_refptrIN6device16BluetoothAdapterEEEJEEEDcOT0_DpOT1_"}
!10 = distinct !{!10, !11, !"_ZN4base8BindOnceIPFv13scoped_refptrIN6device16BluetoothAdapterEEEJEEENS_12OnceCallbackINS_8internal14BindTypeHelperIT_JDpT0_EE14UnboundRunTypeEEEOSA_DpOSB_: argument 0"}
!11 = distinct !{!11, !"_ZN4base8BindOnceIPFv13scoped_refptrIN6device16BluetoothAdapterEEEJEEENS_12OnceCallbackINS_8internal14BindTypeHelperIT_JDpT0_EE14UnboundRunTypeEEEOSA_DpOSB_"}
