; ModuleID = '../../v8/src/interpreter/bytecodes.cc'
source_filename = "../../v8/src/interpreter/bytecodes.cc"
target datalayout = "e-m:e-i64:64-f80:128-n8:16:32:64-S128"
target triple = "x86_64-unknown-linux-gnu"

%"class.std::__1::locale::id" = type <{ %"struct.std::__1::once_flag", i32, [4 x i8] }>
%"struct.std::__1::once_flag" = type { i64 }
%"class.std::__1::basic_string" = type { %"class.std::__1::__compressed_pair" }
%"class.std::__1::__compressed_pair" = type { %"struct.std::__1::__compressed_pair_elem" }
%"struct.std::__1::__compressed_pair_elem" = type { %"struct.std::__1::basic_string<char, std::__1::char_traits<char>, std::__1::allocator<char> >::__rep" }
%"struct.std::__1::basic_string<char, std::__1::char_traits<char>, std::__1::allocator<char> >::__rep" = type { %union.anon }
%union.anon = type { %"struct.std::__1::basic_string<char, std::__1::char_traits<char>, std::__1::allocator<char> >::__long" }
%"struct.std::__1::basic_string<char, std::__1::char_traits<char>, std::__1::allocator<char> >::__long" = type { i8*, i64, i64 }
%"class.std::__1::__basic_string_common" = type { i8 }
%"struct.std::__1::basic_string<char, std::__1::char_traits<char>, std::__1::allocator<char> >::__short" = type { [23 x i8], %struct.anon }
%struct.anon = type { i8 }
%"class.std::__1::basic_ostream" = type { i32 (...)**, %"class.std::__1::basic_ios.base" }
%"class.std::__1::basic_ios.base" = type <{ %"class.std::__1::ios_base", %"class.std::__1::basic_ostream"*, i32 }>
%"class.std::__1::ios_base" = type { i32 (...)**, i32, i64, i64, i32, i32, i8*, i8*, void (i32, %"class.std::__1::ios_base"*, i32)**, i32*, i64, i64, i64*, i64, i64, i8**, i64, i64 }
%"class.std::__1::locale" = type { %"class.std::__1::locale::__imp"* }
%"class.std::__1::locale::__imp" = type opaque
%"class.std::__1::basic_ostream<char, std::__1::char_traits<char> >::sentry" = type { i8, %"class.std::__1::basic_ostream"* }
%"class.std::__1::basic_streambuf" = type { i32 (...)**, %"class.std::__1::locale", i8*, i8*, i8*, i8*, i8*, i8* }
%"class.std::__1::locale::facet" = type { %"class.std::__1::__shared_count" }
%"class.std::__1::__shared_count" = type { i32 (...)**, i64 }
%"class.std::__1::ctype" = type <{ %"class.std::__1::locale::facet", i16*, i8, [7 x i8] }>

$_ZNSt3__124__put_character_sequenceIcNS_11char_traitsIcEEEERNS_13basic_ostreamIT_T0_EES7_PKS4_m = comdat any

$_ZNSt3__116__pad_and_outputIcNS_11char_traitsIcEEEENS_19ostreambuf_iteratorIT_T0_EES6_PKS4_S8_S8_RNS_8ios_baseES4_ = comdat any

$_ZN2v88internal11interpreter14BytecodeTraitsILNS1_19ImplicitRegisterUseE0EJEE13kOperandTypesE = comdat any

$_ZN2v88internal11interpreter14BytecodeTraitsILNS1_19ImplicitRegisterUseE3EJEE13kOperandTypesE = comdat any

$_ZN2v88internal11interpreter14BytecodeTraitsILNS1_19ImplicitRegisterUseE3EJLNS1_11OperandTypeE9EEE13kOperandTypesE = comdat any

$_ZN2v88internal11interpreter14BytecodeTraitsILNS1_19ImplicitRegisterUseE3EJLNS1_11OperandTypeE9ELS4_9EEE13kOperandTypesE = comdat any

$_ZN2v88internal11interpreter14BytecodeTraitsILNS1_19ImplicitRegisterUseE3EJLNS1_11OperandTypeE9ELS4_9ELS4_9EEE13kOperandTypesE = comdat any

$_ZN2v88internal11interpreter14BytecodeTraitsILNS1_19ImplicitRegisterUseE3EJLNS1_11OperandTypeE9ELS4_9ELS4_9ELS4_9EEE13kOperandTypesE = comdat any

$_ZN2v88internal11interpreter14BytecodeTraitsILNS1_19ImplicitRegisterUseE3EJLNS1_11OperandTypeE3ELS4_9ELS4_9EEE13kOperandTypesE = comdat any

$_ZN2v88internal11interpreter14BytecodeTraitsILNS1_19ImplicitRegisterUseE3EJLNS1_11OperandTypeE3ELS4_9ELS4_9ELS4_9EEE13kOperandTypesE = comdat any

$_ZN2v88internal11interpreter14BytecodeTraitsILNS1_19ImplicitRegisterUseE2EJLNS1_11OperandTypeE9EEE13kOperandTypesE = comdat any

$_ZN2v88internal11interpreter14BytecodeTraitsILNS1_19ImplicitRegisterUseE2EJEE13kOperandTypesE = comdat any

$_ZN2v88internal11interpreter14BytecodeTraitsILNS1_19ImplicitRegisterUseE2EJLNS1_11OperandTypeE8EEE13kOperandTypesE = comdat any

$_ZN2v88internal11interpreter14BytecodeTraitsILNS1_19ImplicitRegisterUseE2EJLNS1_11OperandTypeE5EEE13kOperandTypesE = comdat any

$_ZN2v88internal11interpreter14BytecodeTraitsILNS1_19ImplicitRegisterUseE2EJLNS1_11OperandTypeE9ELS4_5ELS4_6EEE13kOperandTypesE = comdat any

$_ZN2v88internal11interpreter14BytecodeTraitsILNS1_19ImplicitRegisterUseE1EJLNS1_11OperandTypeE12EEE13kOperandTypesE = comdat any

$_ZN2v88internal11interpreter14BytecodeTraitsILNS1_19ImplicitRegisterUseE0EJLNS1_11OperandTypeE9ELS4_12EEE13kOperandTypesE = comdat any

$_ZN2v88internal11interpreter14BytecodeTraitsILNS1_19ImplicitRegisterUseE0EJLNS1_11OperandTypeE9EEE13kOperandTypesE = comdat any

$_ZN2v88internal11interpreter14BytecodeTraitsILNS1_19ImplicitRegisterUseE3EJLNS1_11OperandTypeE1EEE13kOperandTypesE = comdat any

$_ZN2v88internal11interpreter14BytecodeTraitsILNS1_19ImplicitRegisterUseE2EJLNS1_11OperandTypeE5ELS4_5EEE13kOperandTypesE = comdat any

$_ZN2v88internal11interpreter14BytecodeTraitsILNS1_19ImplicitRegisterUseE1EJLNS1_11OperandTypeE5ELS4_5EEE13kOperandTypesE = comdat any

$_ZN2v88internal11interpreter14BytecodeTraitsILNS1_19ImplicitRegisterUseE1EJLNS1_11OperandTypeE9ELS4_5ELS4_6EEE13kOperandTypesE = comdat any

$_ZN2v88internal11interpreter14BytecodeTraitsILNS1_19ImplicitRegisterUseE1EJLNS1_11OperandTypeE5EEE13kOperandTypesE = comdat any

$_ZN2v88internal11interpreter14BytecodeTraitsILNS1_19ImplicitRegisterUseE2EJLNS1_11OperandTypeE5ELS4_5ELS4_6EEE13kOperandTypesE = comdat any

$_ZN2v88internal11interpreter14BytecodeTraitsILNS1_19ImplicitRegisterUseE3EJLNS1_11OperandTypeE5ELS4_1EEE13kOperandTypesE = comdat any

$_ZN2v88internal11interpreter14BytecodeTraitsILNS1_19ImplicitRegisterUseE2EJLNS1_11OperandTypeE9ELS4_5ELS4_5EEE13kOperandTypesE = comdat any

$_ZN2v88internal11interpreter14BytecodeTraitsILNS1_19ImplicitRegisterUseE3EJLNS1_11OperandTypeE9ELS4_5ELS4_5EEE13kOperandTypesE = comdat any

$_ZN2v88internal11interpreter14BytecodeTraitsILNS1_19ImplicitRegisterUseE3EJLNS1_11OperandTypeE9ELS4_5EEE13kOperandTypesE = comdat any

$_ZN2v88internal11interpreter14BytecodeTraitsILNS1_19ImplicitRegisterUseE2EJLNS1_11OperandTypeE8ELS4_6EEE13kOperandTypesE = comdat any

$_ZN2v88internal11interpreter14BytecodeTraitsILNS1_19ImplicitRegisterUseE1EJLNS1_11OperandTypeE8ELS4_6EEE13kOperandTypesE = comdat any

$_ZN2v88internal11interpreter14BytecodeTraitsILNS1_19ImplicitRegisterUseE3EJLNS1_11OperandTypeE9ELS4_9ELS4_5EEE13kOperandTypesE = comdat any

$_ZN2v88internal11interpreter14BytecodeTraitsILNS1_19ImplicitRegisterUseE1EJLNS1_11OperandTypeE9ELS4_9ELS4_1ELS4_5EEE13kOperandTypesE = comdat any

$_ZN2v88internal11interpreter14BytecodeTraitsILNS1_19ImplicitRegisterUseE1EJLNS1_11OperandTypeE8EEE13kOperandTypesE = comdat any

$_ZN2v88internal11interpreter14BytecodeTraitsILNS1_19ImplicitRegisterUseE3EJLNS1_11OperandTypeE8ELS4_5EEE13kOperandTypesE = comdat any

$_ZN2v88internal11interpreter14BytecodeTraitsILNS1_19ImplicitRegisterUseE3EJLNS1_11OperandTypeE5EEE13kOperandTypesE = comdat any

$_ZN2v88internal11interpreter14BytecodeTraitsILNS1_19ImplicitRegisterUseE2EJLNS1_11OperandTypeE9ELS4_10ELS4_7ELS4_5EEE13kOperandTypesE = comdat any

$_ZN2v88internal11interpreter14BytecodeTraitsILNS1_19ImplicitRegisterUseE2EJLNS1_11OperandTypeE9ELS4_9ELS4_5EEE13kOperandTypesE = comdat any

$_ZN2v88internal11interpreter14BytecodeTraitsILNS1_19ImplicitRegisterUseE2EJLNS1_11OperandTypeE9ELS4_9ELS4_9ELS4_5EEE13kOperandTypesE = comdat any

$_ZN2v88internal11interpreter14BytecodeTraitsILNS1_19ImplicitRegisterUseE2EJLNS1_11OperandTypeE9ELS4_9ELS4_9ELS4_9ELS4_5EEE13kOperandTypesE = comdat any

$_ZN2v88internal11interpreter14BytecodeTraitsILNS1_19ImplicitRegisterUseE2EJLNS1_11OperandTypeE9ELS4_5EEE13kOperandTypesE = comdat any

$_ZN2v88internal11interpreter14BytecodeTraitsILNS1_19ImplicitRegisterUseE2EJLNS1_11OperandTypeE3ELS4_10ELS4_7EEE13kOperandTypesE = comdat any

$_ZN2v88internal11interpreter14BytecodeTraitsILNS1_19ImplicitRegisterUseE0EJLNS1_11OperandTypeE3ELS4_10ELS4_7ELS4_14EEE13kOperandTypesE = comdat any

$_ZN2v88internal11interpreter14BytecodeTraitsILNS1_19ImplicitRegisterUseE2EJLNS1_11OperandTypeE4ELS4_10ELS4_7EEE13kOperandTypesE = comdat any

$_ZN2v88internal11interpreter14BytecodeTraitsILNS1_19ImplicitRegisterUseE2EJLNS1_11OperandTypeE2ELS4_10ELS4_7EEE13kOperandTypesE = comdat any

$_ZN2v88internal11interpreter14BytecodeTraitsILNS1_19ImplicitRegisterUseE3EJLNS1_11OperandTypeE9ELS4_10ELS4_7ELS4_5EEE13kOperandTypesE = comdat any

$_ZN2v88internal11interpreter14BytecodeTraitsILNS1_19ImplicitRegisterUseE2EJLNS1_11OperandTypeE5ELS4_5ELS4_1EEE13kOperandTypesE = comdat any

$_ZN2v88internal11interpreter14BytecodeTraitsILNS1_19ImplicitRegisterUseE2EJLNS1_11OperandTypeE9ELS4_1ELS4_5EEE13kOperandTypesE = comdat any

$_ZN2v88internal11interpreter14BytecodeTraitsILNS1_19ImplicitRegisterUseE2EJLNS1_11OperandTypeE5ELS4_6EEE13kOperandTypesE = comdat any

$_ZN2v88internal11interpreter14BytecodeTraitsILNS1_19ImplicitRegisterUseE0EJLNS1_11OperandTypeE6ELS4_8EEE13kOperandTypesE = comdat any

$_ZN2v88internal11interpreter14BytecodeTraitsILNS1_19ImplicitRegisterUseE0EJLNS1_11OperandTypeE6EEE13kOperandTypesE = comdat any

$_ZN2v88internal11interpreter14BytecodeTraitsILNS1_19ImplicitRegisterUseE0EJLNS1_11OperandTypeE5EEE13kOperandTypesE = comdat any

$_ZN2v88internal11interpreter14BytecodeTraitsILNS1_19ImplicitRegisterUseE1EJLNS1_11OperandTypeE6EEE13kOperandTypesE = comdat any

$_ZN2v88internal11interpreter14BytecodeTraitsILNS1_19ImplicitRegisterUseE1EJLNS1_11OperandTypeE5ELS4_6ELS4_8EEE13kOperandTypesE = comdat any

$_ZN2v88internal11interpreter14BytecodeTraitsILNS1_19ImplicitRegisterUseE1EJLNS1_11OperandTypeE15ELS4_5EEE13kOperandTypesE = comdat any

$_ZN2v88internal11interpreter14BytecodeTraitsILNS1_19ImplicitRegisterUseE2EJLNS1_11OperandTypeE9ELS4_9EEE13kOperandTypesE = comdat any

$_ZN2v88internal11interpreter14BytecodeTraitsILNS1_19ImplicitRegisterUseE2EJLNS1_11OperandTypeE9ELS4_9ELS4_11ELS4_5EEE13kOperandTypesE = comdat any

$_ZN2v88internal11interpreter14BytecodeTraitsILNS1_19ImplicitRegisterUseE1EJEE13kOperandTypesE = comdat any

$_ZN2v88internal11interpreter14BytecodeTraitsILNS1_19ImplicitRegisterUseE0EJLNS1_11OperandTypeE9ELS4_5ELS4_6EEE13kOperandTypesE = comdat any

$_ZN2v88internal11interpreter14BytecodeTraitsILNS1_19ImplicitRegisterUseE1EJLNS1_11OperandTypeE9ELS4_10ELS4_7ELS4_6EEE13kOperandTypesE = comdat any

$_ZN2v88internal11interpreter14BytecodeTraitsILNS1_19ImplicitRegisterUseE2EJLNS1_11OperandTypeE9ELS4_13ELS4_7EEE13kOperandTypesE = comdat any

$_ZN2v88internal11interpreter14BytecodeTraitsILNS1_19ImplicitRegisterUseE5EJEE13kOperandTypesE = comdat any

$_ZN2v88internal11interpreter14BytecodeTraitsILNS1_19ImplicitRegisterUseE0EJEE17kOperandTypeInfosE = comdat any

$_ZN2v88internal11interpreter14BytecodeTraitsILNS1_19ImplicitRegisterUseE3EJEE17kOperandTypeInfosE = comdat any

$_ZN2v88internal11interpreter14BytecodeTraitsILNS1_19ImplicitRegisterUseE3EJLNS1_11OperandTypeE9EEE17kOperandTypeInfosE = comdat any

$_ZN2v88internal11interpreter14BytecodeTraitsILNS1_19ImplicitRegisterUseE3EJLNS1_11OperandTypeE9ELS4_9EEE17kOperandTypeInfosE = comdat any

$_ZN2v88internal11interpreter14BytecodeTraitsILNS1_19ImplicitRegisterUseE3EJLNS1_11OperandTypeE9ELS4_9ELS4_9EEE17kOperandTypeInfosE = comdat any

$_ZN2v88internal11interpreter14BytecodeTraitsILNS1_19ImplicitRegisterUseE3EJLNS1_11OperandTypeE9ELS4_9ELS4_9ELS4_9EEE17kOperandTypeInfosE = comdat any

$_ZN2v88internal11interpreter14BytecodeTraitsILNS1_19ImplicitRegisterUseE3EJLNS1_11OperandTypeE3ELS4_9ELS4_9EEE17kOperandTypeInfosE = comdat any

$_ZN2v88internal11interpreter14BytecodeTraitsILNS1_19ImplicitRegisterUseE3EJLNS1_11OperandTypeE3ELS4_9ELS4_9ELS4_9EEE17kOperandTypeInfosE = comdat any

$_ZN2v88internal11interpreter14BytecodeTraitsILNS1_19ImplicitRegisterUseE2EJLNS1_11OperandTypeE9EEE17kOperandTypeInfosE = comdat any

$_ZN2v88internal11interpreter14BytecodeTraitsILNS1_19ImplicitRegisterUseE2EJEE17kOperandTypeInfosE = comdat any

$_ZN2v88internal11interpreter14BytecodeTraitsILNS1_19ImplicitRegisterUseE2EJLNS1_11OperandTypeE8EEE17kOperandTypeInfosE = comdat any

$_ZN2v88internal11interpreter14BytecodeTraitsILNS1_19ImplicitRegisterUseE2EJLNS1_11OperandTypeE5EEE17kOperandTypeInfosE = comdat any

$_ZN2v88internal11interpreter14BytecodeTraitsILNS1_19ImplicitRegisterUseE2EJLNS1_11OperandTypeE9ELS4_5ELS4_6EEE17kOperandTypeInfosE = comdat any

$_ZN2v88internal11interpreter14BytecodeTraitsILNS1_19ImplicitRegisterUseE1EJLNS1_11OperandTypeE12EEE17kOperandTypeInfosE = comdat any

$_ZN2v88internal11interpreter14BytecodeTraitsILNS1_19ImplicitRegisterUseE0EJLNS1_11OperandTypeE9ELS4_12EEE17kOperandTypeInfosE = comdat any

$_ZN2v88internal11interpreter14BytecodeTraitsILNS1_19ImplicitRegisterUseE0EJLNS1_11OperandTypeE9EEE17kOperandTypeInfosE = comdat any

$_ZN2v88internal11interpreter14BytecodeTraitsILNS1_19ImplicitRegisterUseE3EJLNS1_11OperandTypeE1EEE17kOperandTypeInfosE = comdat any

$_ZN2v88internal11interpreter14BytecodeTraitsILNS1_19ImplicitRegisterUseE2EJLNS1_11OperandTypeE5ELS4_5EEE17kOperandTypeInfosE = comdat any

$_ZN2v88internal11interpreter14BytecodeTraitsILNS1_19ImplicitRegisterUseE1EJLNS1_11OperandTypeE5ELS4_5EEE17kOperandTypeInfosE = comdat any

$_ZN2v88internal11interpreter14BytecodeTraitsILNS1_19ImplicitRegisterUseE1EJLNS1_11OperandTypeE9ELS4_5ELS4_6EEE17kOperandTypeInfosE = comdat any

$_ZN2v88internal11interpreter14BytecodeTraitsILNS1_19ImplicitRegisterUseE1EJLNS1_11OperandTypeE5EEE17kOperandTypeInfosE = comdat any

$_ZN2v88internal11interpreter14BytecodeTraitsILNS1_19ImplicitRegisterUseE2EJLNS1_11OperandTypeE5ELS4_5ELS4_6EEE17kOperandTypeInfosE = comdat any

$_ZN2v88internal11interpreter14BytecodeTraitsILNS1_19ImplicitRegisterUseE3EJLNS1_11OperandTypeE5ELS4_1EEE17kOperandTypeInfosE = comdat any

$_ZN2v88internal11interpreter14BytecodeTraitsILNS1_19ImplicitRegisterUseE2EJLNS1_11OperandTypeE9ELS4_5ELS4_5EEE17kOperandTypeInfosE = comdat any

$_ZN2v88internal11interpreter14BytecodeTraitsILNS1_19ImplicitRegisterUseE3EJLNS1_11OperandTypeE9ELS4_5ELS4_5EEE17kOperandTypeInfosE = comdat any

$_ZN2v88internal11interpreter14BytecodeTraitsILNS1_19ImplicitRegisterUseE3EJLNS1_11OperandTypeE9ELS4_5EEE17kOperandTypeInfosE = comdat any

$_ZN2v88internal11interpreter14BytecodeTraitsILNS1_19ImplicitRegisterUseE2EJLNS1_11OperandTypeE8ELS4_6EEE17kOperandTypeInfosE = comdat any

$_ZN2v88internal11interpreter14BytecodeTraitsILNS1_19ImplicitRegisterUseE1EJLNS1_11OperandTypeE8ELS4_6EEE17kOperandTypeInfosE = comdat any

$_ZN2v88internal11interpreter14BytecodeTraitsILNS1_19ImplicitRegisterUseE3EJLNS1_11OperandTypeE9ELS4_9ELS4_5EEE17kOperandTypeInfosE = comdat any

$_ZN2v88internal11interpreter14BytecodeTraitsILNS1_19ImplicitRegisterUseE1EJLNS1_11OperandTypeE9ELS4_9ELS4_1ELS4_5EEE17kOperandTypeInfosE = comdat any

$_ZN2v88internal11interpreter14BytecodeTraitsILNS1_19ImplicitRegisterUseE1EJLNS1_11OperandTypeE8EEE17kOperandTypeInfosE = comdat any

$_ZN2v88internal11interpreter14BytecodeTraitsILNS1_19ImplicitRegisterUseE3EJLNS1_11OperandTypeE8ELS4_5EEE17kOperandTypeInfosE = comdat any

$_ZN2v88internal11interpreter14BytecodeTraitsILNS1_19ImplicitRegisterUseE3EJLNS1_11OperandTypeE5EEE17kOperandTypeInfosE = comdat any

$_ZN2v88internal11interpreter14BytecodeTraitsILNS1_19ImplicitRegisterUseE2EJLNS1_11OperandTypeE9ELS4_10ELS4_7ELS4_5EEE17kOperandTypeInfosE = comdat any

$_ZN2v88internal11interpreter14BytecodeTraitsILNS1_19ImplicitRegisterUseE2EJLNS1_11OperandTypeE9ELS4_9ELS4_5EEE17kOperandTypeInfosE = comdat any

$_ZN2v88internal11interpreter14BytecodeTraitsILNS1_19ImplicitRegisterUseE2EJLNS1_11OperandTypeE9ELS4_9ELS4_9ELS4_5EEE17kOperandTypeInfosE = comdat any

$_ZN2v88internal11interpreter14BytecodeTraitsILNS1_19ImplicitRegisterUseE2EJLNS1_11OperandTypeE9ELS4_9ELS4_9ELS4_9ELS4_5EEE17kOperandTypeInfosE = comdat any

$_ZN2v88internal11interpreter14BytecodeTraitsILNS1_19ImplicitRegisterUseE2EJLNS1_11OperandTypeE9ELS4_5EEE17kOperandTypeInfosE = comdat any

$_ZN2v88internal11interpreter14BytecodeTraitsILNS1_19ImplicitRegisterUseE2EJLNS1_11OperandTypeE3ELS4_10ELS4_7EEE17kOperandTypeInfosE = comdat any

$_ZN2v88internal11interpreter14BytecodeTraitsILNS1_19ImplicitRegisterUseE0EJLNS1_11OperandTypeE3ELS4_10ELS4_7ELS4_14EEE17kOperandTypeInfosE = comdat any

$_ZN2v88internal11interpreter14BytecodeTraitsILNS1_19ImplicitRegisterUseE2EJLNS1_11OperandTypeE4ELS4_10ELS4_7EEE17kOperandTypeInfosE = comdat any

$_ZN2v88internal11interpreter14BytecodeTraitsILNS1_19ImplicitRegisterUseE2EJLNS1_11OperandTypeE2ELS4_10ELS4_7EEE17kOperandTypeInfosE = comdat any

$_ZN2v88internal11interpreter14BytecodeTraitsILNS1_19ImplicitRegisterUseE3EJLNS1_11OperandTypeE9ELS4_10ELS4_7ELS4_5EEE17kOperandTypeInfosE = comdat any

$_ZN2v88internal11interpreter14BytecodeTraitsILNS1_19ImplicitRegisterUseE2EJLNS1_11OperandTypeE5ELS4_5ELS4_1EEE17kOperandTypeInfosE = comdat any

$_ZN2v88internal11interpreter14BytecodeTraitsILNS1_19ImplicitRegisterUseE2EJLNS1_11OperandTypeE9ELS4_1ELS4_5EEE17kOperandTypeInfosE = comdat any

$_ZN2v88internal11interpreter14BytecodeTraitsILNS1_19ImplicitRegisterUseE2EJLNS1_11OperandTypeE5ELS4_6EEE17kOperandTypeInfosE = comdat any

$_ZN2v88internal11interpreter14BytecodeTraitsILNS1_19ImplicitRegisterUseE0EJLNS1_11OperandTypeE6ELS4_8EEE17kOperandTypeInfosE = comdat any

$_ZN2v88internal11interpreter14BytecodeTraitsILNS1_19ImplicitRegisterUseE0EJLNS1_11OperandTypeE6EEE17kOperandTypeInfosE = comdat any

$_ZN2v88internal11interpreter14BytecodeTraitsILNS1_19ImplicitRegisterUseE0EJLNS1_11OperandTypeE5EEE17kOperandTypeInfosE = comdat any

$_ZN2v88internal11interpreter14BytecodeTraitsILNS1_19ImplicitRegisterUseE1EJLNS1_11OperandTypeE6EEE17kOperandTypeInfosE = comdat any

$_ZN2v88internal11interpreter14BytecodeTraitsILNS1_19ImplicitRegisterUseE1EJLNS1_11OperandTypeE5ELS4_6ELS4_8EEE17kOperandTypeInfosE = comdat any

$_ZN2v88internal11interpreter14BytecodeTraitsILNS1_19ImplicitRegisterUseE1EJLNS1_11OperandTypeE15ELS4_5EEE17kOperandTypeInfosE = comdat any

$_ZN2v88internal11interpreter14BytecodeTraitsILNS1_19ImplicitRegisterUseE2EJLNS1_11OperandTypeE9ELS4_9EEE17kOperandTypeInfosE = comdat any

$_ZN2v88internal11interpreter14BytecodeTraitsILNS1_19ImplicitRegisterUseE2EJLNS1_11OperandTypeE9ELS4_9ELS4_11ELS4_5EEE17kOperandTypeInfosE = comdat any

$_ZN2v88internal11interpreter14BytecodeTraitsILNS1_19ImplicitRegisterUseE1EJEE17kOperandTypeInfosE = comdat any

$_ZN2v88internal11interpreter14BytecodeTraitsILNS1_19ImplicitRegisterUseE0EJLNS1_11OperandTypeE9ELS4_5ELS4_6EEE17kOperandTypeInfosE = comdat any

$_ZN2v88internal11interpreter14BytecodeTraitsILNS1_19ImplicitRegisterUseE1EJLNS1_11OperandTypeE9ELS4_10ELS4_7ELS4_6EEE17kOperandTypeInfosE = comdat any

$_ZN2v88internal11interpreter14BytecodeTraitsILNS1_19ImplicitRegisterUseE2EJLNS1_11OperandTypeE9ELS4_13ELS4_7EEE17kOperandTypeInfosE = comdat any

$_ZN2v88internal11interpreter14BytecodeTraitsILNS1_19ImplicitRegisterUseE5EJEE17kOperandTypeInfosE = comdat any

$_ZN2v88internal11interpreter14BytecodeTraitsILNS1_19ImplicitRegisterUseE0EJEE24kSingleScaleOperandSizesE = comdat any

$_ZN2v88internal11interpreter14BytecodeTraitsILNS1_19ImplicitRegisterUseE3EJEE24kSingleScaleOperandSizesE = comdat any

$_ZN2v88internal11interpreter14BytecodeTraitsILNS1_19ImplicitRegisterUseE3EJLNS1_11OperandTypeE9EEE24kSingleScaleOperandSizesE = comdat any

$_ZN2v88internal11interpreter14BytecodeTraitsILNS1_19ImplicitRegisterUseE3EJLNS1_11OperandTypeE9ELS4_9EEE24kSingleScaleOperandSizesE = comdat any

$_ZN2v88internal11interpreter14BytecodeTraitsILNS1_19ImplicitRegisterUseE3EJLNS1_11OperandTypeE9ELS4_9ELS4_9EEE24kSingleScaleOperandSizesE = comdat any

$_ZN2v88internal11interpreter14BytecodeTraitsILNS1_19ImplicitRegisterUseE3EJLNS1_11OperandTypeE9ELS4_9ELS4_9ELS4_9EEE24kSingleScaleOperandSizesE = comdat any

$_ZN2v88internal11interpreter14BytecodeTraitsILNS1_19ImplicitRegisterUseE3EJLNS1_11OperandTypeE3ELS4_9ELS4_9EEE24kSingleScaleOperandSizesE = comdat any

$_ZN2v88internal11interpreter14BytecodeTraitsILNS1_19ImplicitRegisterUseE3EJLNS1_11OperandTypeE3ELS4_9ELS4_9ELS4_9EEE24kSingleScaleOperandSizesE = comdat any

$_ZN2v88internal11interpreter14BytecodeTraitsILNS1_19ImplicitRegisterUseE2EJLNS1_11OperandTypeE9EEE24kSingleScaleOperandSizesE = comdat any

$_ZN2v88internal11interpreter14BytecodeTraitsILNS1_19ImplicitRegisterUseE2EJEE24kSingleScaleOperandSizesE = comdat any

$_ZN2v88internal11interpreter14BytecodeTraitsILNS1_19ImplicitRegisterUseE2EJLNS1_11OperandTypeE8EEE24kSingleScaleOperandSizesE = comdat any

$_ZN2v88internal11interpreter14BytecodeTraitsILNS1_19ImplicitRegisterUseE2EJLNS1_11OperandTypeE5EEE24kSingleScaleOperandSizesE = comdat any

$_ZN2v88internal11interpreter14BytecodeTraitsILNS1_19ImplicitRegisterUseE2EJLNS1_11OperandTypeE9ELS4_5ELS4_6EEE24kSingleScaleOperandSizesE = comdat any

$_ZN2v88internal11interpreter14BytecodeTraitsILNS1_19ImplicitRegisterUseE1EJLNS1_11OperandTypeE12EEE24kSingleScaleOperandSizesE = comdat any

$_ZN2v88internal11interpreter14BytecodeTraitsILNS1_19ImplicitRegisterUseE0EJLNS1_11OperandTypeE9ELS4_12EEE24kSingleScaleOperandSizesE = comdat any

$_ZN2v88internal11interpreter14BytecodeTraitsILNS1_19ImplicitRegisterUseE0EJLNS1_11OperandTypeE9EEE24kSingleScaleOperandSizesE = comdat any

$_ZN2v88internal11interpreter14BytecodeTraitsILNS1_19ImplicitRegisterUseE3EJLNS1_11OperandTypeE1EEE24kSingleScaleOperandSizesE = comdat any

$_ZN2v88internal11interpreter14BytecodeTraitsILNS1_19ImplicitRegisterUseE2EJLNS1_11OperandTypeE5ELS4_5EEE24kSingleScaleOperandSizesE = comdat any

$_ZN2v88internal11interpreter14BytecodeTraitsILNS1_19ImplicitRegisterUseE1EJLNS1_11OperandTypeE5ELS4_5EEE24kSingleScaleOperandSizesE = comdat any

$_ZN2v88internal11interpreter14BytecodeTraitsILNS1_19ImplicitRegisterUseE1EJLNS1_11OperandTypeE9ELS4_5ELS4_6EEE24kSingleScaleOperandSizesE = comdat any

$_ZN2v88internal11interpreter14BytecodeTraitsILNS1_19ImplicitRegisterUseE1EJLNS1_11OperandTypeE5EEE24kSingleScaleOperandSizesE = comdat any

$_ZN2v88internal11interpreter14BytecodeTraitsILNS1_19ImplicitRegisterUseE2EJLNS1_11OperandTypeE5ELS4_5ELS4_6EEE24kSingleScaleOperandSizesE = comdat any

$_ZN2v88internal11interpreter14BytecodeTraitsILNS1_19ImplicitRegisterUseE3EJLNS1_11OperandTypeE5ELS4_1EEE24kSingleScaleOperandSizesE = comdat any

$_ZN2v88internal11interpreter14BytecodeTraitsILNS1_19ImplicitRegisterUseE2EJLNS1_11OperandTypeE9ELS4_5ELS4_5EEE24kSingleScaleOperandSizesE = comdat any

$_ZN2v88internal11interpreter14BytecodeTraitsILNS1_19ImplicitRegisterUseE3EJLNS1_11OperandTypeE9ELS4_5ELS4_5EEE24kSingleScaleOperandSizesE = comdat any

$_ZN2v88internal11interpreter14BytecodeTraitsILNS1_19ImplicitRegisterUseE3EJLNS1_11OperandTypeE9ELS4_5EEE24kSingleScaleOperandSizesE = comdat any

$_ZN2v88internal11interpreter14BytecodeTraitsILNS1_19ImplicitRegisterUseE2EJLNS1_11OperandTypeE8ELS4_6EEE24kSingleScaleOperandSizesE = comdat any

$_ZN2v88internal11interpreter14BytecodeTraitsILNS1_19ImplicitRegisterUseE1EJLNS1_11OperandTypeE8ELS4_6EEE24kSingleScaleOperandSizesE = comdat any

$_ZN2v88internal11interpreter14BytecodeTraitsILNS1_19ImplicitRegisterUseE3EJLNS1_11OperandTypeE9ELS4_9ELS4_5EEE24kSingleScaleOperandSizesE = comdat any

$_ZN2v88internal11interpreter14BytecodeTraitsILNS1_19ImplicitRegisterUseE1EJLNS1_11OperandTypeE9ELS4_9ELS4_1ELS4_5EEE24kSingleScaleOperandSizesE = comdat any

$_ZN2v88internal11interpreter14BytecodeTraitsILNS1_19ImplicitRegisterUseE1EJLNS1_11OperandTypeE8EEE24kSingleScaleOperandSizesE = comdat any

$_ZN2v88internal11interpreter14BytecodeTraitsILNS1_19ImplicitRegisterUseE3EJLNS1_11OperandTypeE8ELS4_5EEE24kSingleScaleOperandSizesE = comdat any

$_ZN2v88internal11interpreter14BytecodeTraitsILNS1_19ImplicitRegisterUseE3EJLNS1_11OperandTypeE5EEE24kSingleScaleOperandSizesE = comdat any

$_ZN2v88internal11interpreter14BytecodeTraitsILNS1_19ImplicitRegisterUseE2EJLNS1_11OperandTypeE9ELS4_10ELS4_7ELS4_5EEE24kSingleScaleOperandSizesE = comdat any

$_ZN2v88internal11interpreter14BytecodeTraitsILNS1_19ImplicitRegisterUseE2EJLNS1_11OperandTypeE9ELS4_9ELS4_5EEE24kSingleScaleOperandSizesE = comdat any

$_ZN2v88internal11interpreter14BytecodeTraitsILNS1_19ImplicitRegisterUseE2EJLNS1_11OperandTypeE9ELS4_9ELS4_9ELS4_5EEE24kSingleScaleOperandSizesE = comdat any

$_ZN2v88internal11interpreter14BytecodeTraitsILNS1_19ImplicitRegisterUseE2EJLNS1_11OperandTypeE9ELS4_9ELS4_9ELS4_9ELS4_5EEE24kSingleScaleOperandSizesE = comdat any

$_ZN2v88internal11interpreter14BytecodeTraitsILNS1_19ImplicitRegisterUseE2EJLNS1_11OperandTypeE9ELS4_5EEE24kSingleScaleOperandSizesE = comdat any

$_ZN2v88internal11interpreter14BytecodeTraitsILNS1_19ImplicitRegisterUseE2EJLNS1_11OperandTypeE3ELS4_10ELS4_7EEE24kSingleScaleOperandSizesE = comdat any

$_ZN2v88internal11interpreter14BytecodeTraitsILNS1_19ImplicitRegisterUseE0EJLNS1_11OperandTypeE3ELS4_10ELS4_7ELS4_14EEE24kSingleScaleOperandSizesE = comdat any

$_ZN2v88internal11interpreter14BytecodeTraitsILNS1_19ImplicitRegisterUseE2EJLNS1_11OperandTypeE4ELS4_10ELS4_7EEE24kSingleScaleOperandSizesE = comdat any

$_ZN2v88internal11interpreter14BytecodeTraitsILNS1_19ImplicitRegisterUseE2EJLNS1_11OperandTypeE2ELS4_10ELS4_7EEE24kSingleScaleOperandSizesE = comdat any

$_ZN2v88internal11interpreter14BytecodeTraitsILNS1_19ImplicitRegisterUseE3EJLNS1_11OperandTypeE9ELS4_10ELS4_7ELS4_5EEE24kSingleScaleOperandSizesE = comdat any

$_ZN2v88internal11interpreter14BytecodeTraitsILNS1_19ImplicitRegisterUseE2EJLNS1_11OperandTypeE5ELS4_5ELS4_1EEE24kSingleScaleOperandSizesE = comdat any

$_ZN2v88internal11interpreter14BytecodeTraitsILNS1_19ImplicitRegisterUseE2EJLNS1_11OperandTypeE9ELS4_1ELS4_5EEE24kSingleScaleOperandSizesE = comdat any

$_ZN2v88internal11interpreter14BytecodeTraitsILNS1_19ImplicitRegisterUseE2EJLNS1_11OperandTypeE5ELS4_6EEE24kSingleScaleOperandSizesE = comdat any

$_ZN2v88internal11interpreter14BytecodeTraitsILNS1_19ImplicitRegisterUseE0EJLNS1_11OperandTypeE6ELS4_8EEE24kSingleScaleOperandSizesE = comdat any

$_ZN2v88internal11interpreter14BytecodeTraitsILNS1_19ImplicitRegisterUseE0EJLNS1_11OperandTypeE6EEE24kSingleScaleOperandSizesE = comdat any

$_ZN2v88internal11interpreter14BytecodeTraitsILNS1_19ImplicitRegisterUseE0EJLNS1_11OperandTypeE5EEE24kSingleScaleOperandSizesE = comdat any

$_ZN2v88internal11interpreter14BytecodeTraitsILNS1_19ImplicitRegisterUseE1EJLNS1_11OperandTypeE6EEE24kSingleScaleOperandSizesE = comdat any

$_ZN2v88internal11interpreter14BytecodeTraitsILNS1_19ImplicitRegisterUseE1EJLNS1_11OperandTypeE5ELS4_6ELS4_8EEE24kSingleScaleOperandSizesE = comdat any

$_ZN2v88internal11interpreter14BytecodeTraitsILNS1_19ImplicitRegisterUseE1EJLNS1_11OperandTypeE15ELS4_5EEE24kSingleScaleOperandSizesE = comdat any

$_ZN2v88internal11interpreter14BytecodeTraitsILNS1_19ImplicitRegisterUseE2EJLNS1_11OperandTypeE9ELS4_9EEE24kSingleScaleOperandSizesE = comdat any

$_ZN2v88internal11interpreter14BytecodeTraitsILNS1_19ImplicitRegisterUseE2EJLNS1_11OperandTypeE9ELS4_9ELS4_11ELS4_5EEE24kSingleScaleOperandSizesE = comdat any

$_ZN2v88internal11interpreter14BytecodeTraitsILNS1_19ImplicitRegisterUseE1EJEE24kSingleScaleOperandSizesE = comdat any

$_ZN2v88internal11interpreter14BytecodeTraitsILNS1_19ImplicitRegisterUseE0EJLNS1_11OperandTypeE9ELS4_5ELS4_6EEE24kSingleScaleOperandSizesE = comdat any

$_ZN2v88internal11interpreter14BytecodeTraitsILNS1_19ImplicitRegisterUseE1EJLNS1_11OperandTypeE9ELS4_10ELS4_7ELS4_6EEE24kSingleScaleOperandSizesE = comdat any

$_ZN2v88internal11interpreter14BytecodeTraitsILNS1_19ImplicitRegisterUseE2EJLNS1_11OperandTypeE9ELS4_13ELS4_7EEE24kSingleScaleOperandSizesE = comdat any

$_ZN2v88internal11interpreter14BytecodeTraitsILNS1_19ImplicitRegisterUseE5EJEE24kSingleScaleOperandSizesE = comdat any

$_ZN2v88internal11interpreter14BytecodeTraitsILNS1_19ImplicitRegisterUseE0EJEE24kDoubleScaleOperandSizesE = comdat any

$_ZN2v88internal11interpreter14BytecodeTraitsILNS1_19ImplicitRegisterUseE3EJEE24kDoubleScaleOperandSizesE = comdat any

$_ZN2v88internal11interpreter14BytecodeTraitsILNS1_19ImplicitRegisterUseE3EJLNS1_11OperandTypeE9EEE24kDoubleScaleOperandSizesE = comdat any

$_ZN2v88internal11interpreter14BytecodeTraitsILNS1_19ImplicitRegisterUseE3EJLNS1_11OperandTypeE9ELS4_9EEE24kDoubleScaleOperandSizesE = comdat any

$_ZN2v88internal11interpreter14BytecodeTraitsILNS1_19ImplicitRegisterUseE3EJLNS1_11OperandTypeE9ELS4_9ELS4_9EEE24kDoubleScaleOperandSizesE = comdat any

$_ZN2v88internal11interpreter14BytecodeTraitsILNS1_19ImplicitRegisterUseE3EJLNS1_11OperandTypeE9ELS4_9ELS4_9ELS4_9EEE24kDoubleScaleOperandSizesE = comdat any

$_ZN2v88internal11interpreter14BytecodeTraitsILNS1_19ImplicitRegisterUseE3EJLNS1_11OperandTypeE3ELS4_9ELS4_9EEE24kDoubleScaleOperandSizesE = comdat any

$_ZN2v88internal11interpreter14BytecodeTraitsILNS1_19ImplicitRegisterUseE3EJLNS1_11OperandTypeE3ELS4_9ELS4_9ELS4_9EEE24kDoubleScaleOperandSizesE = comdat any

$_ZN2v88internal11interpreter14BytecodeTraitsILNS1_19ImplicitRegisterUseE2EJLNS1_11OperandTypeE9EEE24kDoubleScaleOperandSizesE = comdat any

$_ZN2v88internal11interpreter14BytecodeTraitsILNS1_19ImplicitRegisterUseE2EJEE24kDoubleScaleOperandSizesE = comdat any

$_ZN2v88internal11interpreter14BytecodeTraitsILNS1_19ImplicitRegisterUseE2EJLNS1_11OperandTypeE8EEE24kDoubleScaleOperandSizesE = comdat any

$_ZN2v88internal11interpreter14BytecodeTraitsILNS1_19ImplicitRegisterUseE2EJLNS1_11OperandTypeE5EEE24kDoubleScaleOperandSizesE = comdat any

$_ZN2v88internal11interpreter14BytecodeTraitsILNS1_19ImplicitRegisterUseE2EJLNS1_11OperandTypeE9ELS4_5ELS4_6EEE24kDoubleScaleOperandSizesE = comdat any

$_ZN2v88internal11interpreter14BytecodeTraitsILNS1_19ImplicitRegisterUseE1EJLNS1_11OperandTypeE12EEE24kDoubleScaleOperandSizesE = comdat any

$_ZN2v88internal11interpreter14BytecodeTraitsILNS1_19ImplicitRegisterUseE0EJLNS1_11OperandTypeE9ELS4_12EEE24kDoubleScaleOperandSizesE = comdat any

$_ZN2v88internal11interpreter14BytecodeTraitsILNS1_19ImplicitRegisterUseE0EJLNS1_11OperandTypeE9EEE24kDoubleScaleOperandSizesE = comdat any

$_ZN2v88internal11interpreter14BytecodeTraitsILNS1_19ImplicitRegisterUseE3EJLNS1_11OperandTypeE1EEE24kDoubleScaleOperandSizesE = comdat any

$_ZN2v88internal11interpreter14BytecodeTraitsILNS1_19ImplicitRegisterUseE2EJLNS1_11OperandTypeE5ELS4_5EEE24kDoubleScaleOperandSizesE = comdat any

$_ZN2v88internal11interpreter14BytecodeTraitsILNS1_19ImplicitRegisterUseE1EJLNS1_11OperandTypeE5ELS4_5EEE24kDoubleScaleOperandSizesE = comdat any

$_ZN2v88internal11interpreter14BytecodeTraitsILNS1_19ImplicitRegisterUseE1EJLNS1_11OperandTypeE9ELS4_5ELS4_6EEE24kDoubleScaleOperandSizesE = comdat any

$_ZN2v88internal11interpreter14BytecodeTraitsILNS1_19ImplicitRegisterUseE1EJLNS1_11OperandTypeE5EEE24kDoubleScaleOperandSizesE = comdat any

$_ZN2v88internal11interpreter14BytecodeTraitsILNS1_19ImplicitRegisterUseE2EJLNS1_11OperandTypeE5ELS4_5ELS4_6EEE24kDoubleScaleOperandSizesE = comdat any

$_ZN2v88internal11interpreter14BytecodeTraitsILNS1_19ImplicitRegisterUseE3EJLNS1_11OperandTypeE5ELS4_1EEE24kDoubleScaleOperandSizesE = comdat any

$_ZN2v88internal11interpreter14BytecodeTraitsILNS1_19ImplicitRegisterUseE2EJLNS1_11OperandTypeE9ELS4_5ELS4_5EEE24kDoubleScaleOperandSizesE = comdat any

$_ZN2v88internal11interpreter14BytecodeTraitsILNS1_19ImplicitRegisterUseE3EJLNS1_11OperandTypeE9ELS4_5ELS4_5EEE24kDoubleScaleOperandSizesE = comdat any

$_ZN2v88internal11interpreter14BytecodeTraitsILNS1_19ImplicitRegisterUseE3EJLNS1_11OperandTypeE9ELS4_5EEE24kDoubleScaleOperandSizesE = comdat any

$_ZN2v88internal11interpreter14BytecodeTraitsILNS1_19ImplicitRegisterUseE2EJLNS1_11OperandTypeE8ELS4_6EEE24kDoubleScaleOperandSizesE = comdat any

$_ZN2v88internal11interpreter14BytecodeTraitsILNS1_19ImplicitRegisterUseE1EJLNS1_11OperandTypeE8ELS4_6EEE24kDoubleScaleOperandSizesE = comdat any

$_ZN2v88internal11interpreter14BytecodeTraitsILNS1_19ImplicitRegisterUseE3EJLNS1_11OperandTypeE9ELS4_9ELS4_5EEE24kDoubleScaleOperandSizesE = comdat any

$_ZN2v88internal11interpreter14BytecodeTraitsILNS1_19ImplicitRegisterUseE1EJLNS1_11OperandTypeE9ELS4_9ELS4_1ELS4_5EEE24kDoubleScaleOperandSizesE = comdat any

$_ZN2v88internal11interpreter14BytecodeTraitsILNS1_19ImplicitRegisterUseE1EJLNS1_11OperandTypeE8EEE24kDoubleScaleOperandSizesE = comdat any

$_ZN2v88internal11interpreter14BytecodeTraitsILNS1_19ImplicitRegisterUseE3EJLNS1_11OperandTypeE8ELS4_5EEE24kDoubleScaleOperandSizesE = comdat any

$_ZN2v88internal11interpreter14BytecodeTraitsILNS1_19ImplicitRegisterUseE3EJLNS1_11OperandTypeE5EEE24kDoubleScaleOperandSizesE = comdat any

$_ZN2v88internal11interpreter14BytecodeTraitsILNS1_19ImplicitRegisterUseE2EJLNS1_11OperandTypeE9ELS4_10ELS4_7ELS4_5EEE24kDoubleScaleOperandSizesE = comdat any

$_ZN2v88internal11interpreter14BytecodeTraitsILNS1_19ImplicitRegisterUseE2EJLNS1_11OperandTypeE9ELS4_9ELS4_5EEE24kDoubleScaleOperandSizesE = comdat any

$_ZN2v88internal11interpreter14BytecodeTraitsILNS1_19ImplicitRegisterUseE2EJLNS1_11OperandTypeE9ELS4_9ELS4_9ELS4_5EEE24kDoubleScaleOperandSizesE = comdat any

$_ZN2v88internal11interpreter14BytecodeTraitsILNS1_19ImplicitRegisterUseE2EJLNS1_11OperandTypeE9ELS4_9ELS4_9ELS4_9ELS4_5EEE24kDoubleScaleOperandSizesE = comdat any

$_ZN2v88internal11interpreter14BytecodeTraitsILNS1_19ImplicitRegisterUseE2EJLNS1_11OperandTypeE9ELS4_5EEE24kDoubleScaleOperandSizesE = comdat any

$_ZN2v88internal11interpreter14BytecodeTraitsILNS1_19ImplicitRegisterUseE2EJLNS1_11OperandTypeE3ELS4_10ELS4_7EEE24kDoubleScaleOperandSizesE = comdat any

$_ZN2v88internal11interpreter14BytecodeTraitsILNS1_19ImplicitRegisterUseE0EJLNS1_11OperandTypeE3ELS4_10ELS4_7ELS4_14EEE24kDoubleScaleOperandSizesE = comdat any

$_ZN2v88internal11interpreter14BytecodeTraitsILNS1_19ImplicitRegisterUseE2EJLNS1_11OperandTypeE4ELS4_10ELS4_7EEE24kDoubleScaleOperandSizesE = comdat any

$_ZN2v88internal11interpreter14BytecodeTraitsILNS1_19ImplicitRegisterUseE2EJLNS1_11OperandTypeE2ELS4_10ELS4_7EEE24kDoubleScaleOperandSizesE = comdat any

$_ZN2v88internal11interpreter14BytecodeTraitsILNS1_19ImplicitRegisterUseE3EJLNS1_11OperandTypeE9ELS4_10ELS4_7ELS4_5EEE24kDoubleScaleOperandSizesE = comdat any

$_ZN2v88internal11interpreter14BytecodeTraitsILNS1_19ImplicitRegisterUseE2EJLNS1_11OperandTypeE5ELS4_5ELS4_1EEE24kDoubleScaleOperandSizesE = comdat any

$_ZN2v88internal11interpreter14BytecodeTraitsILNS1_19ImplicitRegisterUseE2EJLNS1_11OperandTypeE9ELS4_1ELS4_5EEE24kDoubleScaleOperandSizesE = comdat any

$_ZN2v88internal11interpreter14BytecodeTraitsILNS1_19ImplicitRegisterUseE2EJLNS1_11OperandTypeE5ELS4_6EEE24kDoubleScaleOperandSizesE = comdat any

$_ZN2v88internal11interpreter14BytecodeTraitsILNS1_19ImplicitRegisterUseE0EJLNS1_11OperandTypeE6ELS4_8EEE24kDoubleScaleOperandSizesE = comdat any

$_ZN2v88internal11interpreter14BytecodeTraitsILNS1_19ImplicitRegisterUseE0EJLNS1_11OperandTypeE6EEE24kDoubleScaleOperandSizesE = comdat any

$_ZN2v88internal11interpreter14BytecodeTraitsILNS1_19ImplicitRegisterUseE0EJLNS1_11OperandTypeE5EEE24kDoubleScaleOperandSizesE = comdat any

$_ZN2v88internal11interpreter14BytecodeTraitsILNS1_19ImplicitRegisterUseE1EJLNS1_11OperandTypeE6EEE24kDoubleScaleOperandSizesE = comdat any

$_ZN2v88internal11interpreter14BytecodeTraitsILNS1_19ImplicitRegisterUseE1EJLNS1_11OperandTypeE5ELS4_6ELS4_8EEE24kDoubleScaleOperandSizesE = comdat any

$_ZN2v88internal11interpreter14BytecodeTraitsILNS1_19ImplicitRegisterUseE1EJLNS1_11OperandTypeE15ELS4_5EEE24kDoubleScaleOperandSizesE = comdat any

$_ZN2v88internal11interpreter14BytecodeTraitsILNS1_19ImplicitRegisterUseE2EJLNS1_11OperandTypeE9ELS4_9EEE24kDoubleScaleOperandSizesE = comdat any

$_ZN2v88internal11interpreter14BytecodeTraitsILNS1_19ImplicitRegisterUseE2EJLNS1_11OperandTypeE9ELS4_9ELS4_11ELS4_5EEE24kDoubleScaleOperandSizesE = comdat any

$_ZN2v88internal11interpreter14BytecodeTraitsILNS1_19ImplicitRegisterUseE1EJEE24kDoubleScaleOperandSizesE = comdat any

$_ZN2v88internal11interpreter14BytecodeTraitsILNS1_19ImplicitRegisterUseE0EJLNS1_11OperandTypeE9ELS4_5ELS4_6EEE24kDoubleScaleOperandSizesE = comdat any

$_ZN2v88internal11interpreter14BytecodeTraitsILNS1_19ImplicitRegisterUseE1EJLNS1_11OperandTypeE9ELS4_10ELS4_7ELS4_6EEE24kDoubleScaleOperandSizesE = comdat any

$_ZN2v88internal11interpreter14BytecodeTraitsILNS1_19ImplicitRegisterUseE2EJLNS1_11OperandTypeE9ELS4_13ELS4_7EEE24kDoubleScaleOperandSizesE = comdat any

$_ZN2v88internal11interpreter14BytecodeTraitsILNS1_19ImplicitRegisterUseE5EJEE24kDoubleScaleOperandSizesE = comdat any

$_ZN2v88internal11interpreter14BytecodeTraitsILNS1_19ImplicitRegisterUseE0EJEE27kQuadrupleScaleOperandSizesE = comdat any

$_ZN2v88internal11interpreter14BytecodeTraitsILNS1_19ImplicitRegisterUseE3EJEE27kQuadrupleScaleOperandSizesE = comdat any

$_ZN2v88internal11interpreter14BytecodeTraitsILNS1_19ImplicitRegisterUseE3EJLNS1_11OperandTypeE9EEE27kQuadrupleScaleOperandSizesE = comdat any

$_ZN2v88internal11interpreter14BytecodeTraitsILNS1_19ImplicitRegisterUseE3EJLNS1_11OperandTypeE9ELS4_9EEE27kQuadrupleScaleOperandSizesE = comdat any

$_ZN2v88internal11interpreter14BytecodeTraitsILNS1_19ImplicitRegisterUseE3EJLNS1_11OperandTypeE9ELS4_9ELS4_9EEE27kQuadrupleScaleOperandSizesE = comdat any

$_ZN2v88internal11interpreter14BytecodeTraitsILNS1_19ImplicitRegisterUseE3EJLNS1_11OperandTypeE9ELS4_9ELS4_9ELS4_9EEE27kQuadrupleScaleOperandSizesE = comdat any

$_ZN2v88internal11interpreter14BytecodeTraitsILNS1_19ImplicitRegisterUseE3EJLNS1_11OperandTypeE3ELS4_9ELS4_9EEE27kQuadrupleScaleOperandSizesE = comdat any

$_ZN2v88internal11interpreter14BytecodeTraitsILNS1_19ImplicitRegisterUseE3EJLNS1_11OperandTypeE3ELS4_9ELS4_9ELS4_9EEE27kQuadrupleScaleOperandSizesE = comdat any

$_ZN2v88internal11interpreter14BytecodeTraitsILNS1_19ImplicitRegisterUseE2EJLNS1_11OperandTypeE9EEE27kQuadrupleScaleOperandSizesE = comdat any

$_ZN2v88internal11interpreter14BytecodeTraitsILNS1_19ImplicitRegisterUseE2EJEE27kQuadrupleScaleOperandSizesE = comdat any

$_ZN2v88internal11interpreter14BytecodeTraitsILNS1_19ImplicitRegisterUseE2EJLNS1_11OperandTypeE8EEE27kQuadrupleScaleOperandSizesE = comdat any

$_ZN2v88internal11interpreter14BytecodeTraitsILNS1_19ImplicitRegisterUseE2EJLNS1_11OperandTypeE5EEE27kQuadrupleScaleOperandSizesE = comdat any

$_ZN2v88internal11interpreter14BytecodeTraitsILNS1_19ImplicitRegisterUseE2EJLNS1_11OperandTypeE9ELS4_5ELS4_6EEE27kQuadrupleScaleOperandSizesE = comdat any

$_ZN2v88internal11interpreter14BytecodeTraitsILNS1_19ImplicitRegisterUseE1EJLNS1_11OperandTypeE12EEE27kQuadrupleScaleOperandSizesE = comdat any

$_ZN2v88internal11interpreter14BytecodeTraitsILNS1_19ImplicitRegisterUseE0EJLNS1_11OperandTypeE9ELS4_12EEE27kQuadrupleScaleOperandSizesE = comdat any

$_ZN2v88internal11interpreter14BytecodeTraitsILNS1_19ImplicitRegisterUseE0EJLNS1_11OperandTypeE9EEE27kQuadrupleScaleOperandSizesE = comdat any

$_ZN2v88internal11interpreter14BytecodeTraitsILNS1_19ImplicitRegisterUseE3EJLNS1_11OperandTypeE1EEE27kQuadrupleScaleOperandSizesE = comdat any

$_ZN2v88internal11interpreter14BytecodeTraitsILNS1_19ImplicitRegisterUseE2EJLNS1_11OperandTypeE5ELS4_5EEE27kQuadrupleScaleOperandSizesE = comdat any

$_ZN2v88internal11interpreter14BytecodeTraitsILNS1_19ImplicitRegisterUseE1EJLNS1_11OperandTypeE5ELS4_5EEE27kQuadrupleScaleOperandSizesE = comdat any

$_ZN2v88internal11interpreter14BytecodeTraitsILNS1_19ImplicitRegisterUseE1EJLNS1_11OperandTypeE9ELS4_5ELS4_6EEE27kQuadrupleScaleOperandSizesE = comdat any

$_ZN2v88internal11interpreter14BytecodeTraitsILNS1_19ImplicitRegisterUseE1EJLNS1_11OperandTypeE5EEE27kQuadrupleScaleOperandSizesE = comdat any

$_ZN2v88internal11interpreter14BytecodeTraitsILNS1_19ImplicitRegisterUseE2EJLNS1_11OperandTypeE5ELS4_5ELS4_6EEE27kQuadrupleScaleOperandSizesE = comdat any

$_ZN2v88internal11interpreter14BytecodeTraitsILNS1_19ImplicitRegisterUseE3EJLNS1_11OperandTypeE5ELS4_1EEE27kQuadrupleScaleOperandSizesE = comdat any

$_ZN2v88internal11interpreter14BytecodeTraitsILNS1_19ImplicitRegisterUseE2EJLNS1_11OperandTypeE9ELS4_5ELS4_5EEE27kQuadrupleScaleOperandSizesE = comdat any

$_ZN2v88internal11interpreter14BytecodeTraitsILNS1_19ImplicitRegisterUseE3EJLNS1_11OperandTypeE9ELS4_5ELS4_5EEE27kQuadrupleScaleOperandSizesE = comdat any

$_ZN2v88internal11interpreter14BytecodeTraitsILNS1_19ImplicitRegisterUseE3EJLNS1_11OperandTypeE9ELS4_5EEE27kQuadrupleScaleOperandSizesE = comdat any

$_ZN2v88internal11interpreter14BytecodeTraitsILNS1_19ImplicitRegisterUseE2EJLNS1_11OperandTypeE8ELS4_6EEE27kQuadrupleScaleOperandSizesE = comdat any

$_ZN2v88internal11interpreter14BytecodeTraitsILNS1_19ImplicitRegisterUseE1EJLNS1_11OperandTypeE8ELS4_6EEE27kQuadrupleScaleOperandSizesE = comdat any

$_ZN2v88internal11interpreter14BytecodeTraitsILNS1_19ImplicitRegisterUseE3EJLNS1_11OperandTypeE9ELS4_9ELS4_5EEE27kQuadrupleScaleOperandSizesE = comdat any

$_ZN2v88internal11interpreter14BytecodeTraitsILNS1_19ImplicitRegisterUseE1EJLNS1_11OperandTypeE9ELS4_9ELS4_1ELS4_5EEE27kQuadrupleScaleOperandSizesE = comdat any

$_ZN2v88internal11interpreter14BytecodeTraitsILNS1_19ImplicitRegisterUseE1EJLNS1_11OperandTypeE8EEE27kQuadrupleScaleOperandSizesE = comdat any

$_ZN2v88internal11interpreter14BytecodeTraitsILNS1_19ImplicitRegisterUseE3EJLNS1_11OperandTypeE8ELS4_5EEE27kQuadrupleScaleOperandSizesE = comdat any

$_ZN2v88internal11interpreter14BytecodeTraitsILNS1_19ImplicitRegisterUseE3EJLNS1_11OperandTypeE5EEE27kQuadrupleScaleOperandSizesE = comdat any

$_ZN2v88internal11interpreter14BytecodeTraitsILNS1_19ImplicitRegisterUseE2EJLNS1_11OperandTypeE9ELS4_10ELS4_7ELS4_5EEE27kQuadrupleScaleOperandSizesE = comdat any

$_ZN2v88internal11interpreter14BytecodeTraitsILNS1_19ImplicitRegisterUseE2EJLNS1_11OperandTypeE9ELS4_9ELS4_5EEE27kQuadrupleScaleOperandSizesE = comdat any

$_ZN2v88internal11interpreter14BytecodeTraitsILNS1_19ImplicitRegisterUseE2EJLNS1_11OperandTypeE9ELS4_9ELS4_9ELS4_5EEE27kQuadrupleScaleOperandSizesE = comdat any

$_ZN2v88internal11interpreter14BytecodeTraitsILNS1_19ImplicitRegisterUseE2EJLNS1_11OperandTypeE9ELS4_9ELS4_9ELS4_9ELS4_5EEE27kQuadrupleScaleOperandSizesE = comdat any

$_ZN2v88internal11interpreter14BytecodeTraitsILNS1_19ImplicitRegisterUseE2EJLNS1_11OperandTypeE9ELS4_5EEE27kQuadrupleScaleOperandSizesE = comdat any

$_ZN2v88internal11interpreter14BytecodeTraitsILNS1_19ImplicitRegisterUseE2EJLNS1_11OperandTypeE3ELS4_10ELS4_7EEE27kQuadrupleScaleOperandSizesE = comdat any

$_ZN2v88internal11interpreter14BytecodeTraitsILNS1_19ImplicitRegisterUseE0EJLNS1_11OperandTypeE3ELS4_10ELS4_7ELS4_14EEE27kQuadrupleScaleOperandSizesE = comdat any

$_ZN2v88internal11interpreter14BytecodeTraitsILNS1_19ImplicitRegisterUseE2EJLNS1_11OperandTypeE4ELS4_10ELS4_7EEE27kQuadrupleScaleOperandSizesE = comdat any

$_ZN2v88internal11interpreter14BytecodeTraitsILNS1_19ImplicitRegisterUseE2EJLNS1_11OperandTypeE2ELS4_10ELS4_7EEE27kQuadrupleScaleOperandSizesE = comdat any

$_ZN2v88internal11interpreter14BytecodeTraitsILNS1_19ImplicitRegisterUseE3EJLNS1_11OperandTypeE9ELS4_10ELS4_7ELS4_5EEE27kQuadrupleScaleOperandSizesE = comdat any

$_ZN2v88internal11interpreter14BytecodeTraitsILNS1_19ImplicitRegisterUseE2EJLNS1_11OperandTypeE5ELS4_5ELS4_1EEE27kQuadrupleScaleOperandSizesE = comdat any

$_ZN2v88internal11interpreter14BytecodeTraitsILNS1_19ImplicitRegisterUseE2EJLNS1_11OperandTypeE9ELS4_1ELS4_5EEE27kQuadrupleScaleOperandSizesE = comdat any

$_ZN2v88internal11interpreter14BytecodeTraitsILNS1_19ImplicitRegisterUseE2EJLNS1_11OperandTypeE5ELS4_6EEE27kQuadrupleScaleOperandSizesE = comdat any

$_ZN2v88internal11interpreter14BytecodeTraitsILNS1_19ImplicitRegisterUseE0EJLNS1_11OperandTypeE6ELS4_8EEE27kQuadrupleScaleOperandSizesE = comdat any

$_ZN2v88internal11interpreter14BytecodeTraitsILNS1_19ImplicitRegisterUseE0EJLNS1_11OperandTypeE6EEE27kQuadrupleScaleOperandSizesE = comdat any

$_ZN2v88internal11interpreter14BytecodeTraitsILNS1_19ImplicitRegisterUseE0EJLNS1_11OperandTypeE5EEE27kQuadrupleScaleOperandSizesE = comdat any

$_ZN2v88internal11interpreter14BytecodeTraitsILNS1_19ImplicitRegisterUseE1EJLNS1_11OperandTypeE6EEE27kQuadrupleScaleOperandSizesE = comdat any

$_ZN2v88internal11interpreter14BytecodeTraitsILNS1_19ImplicitRegisterUseE1EJLNS1_11OperandTypeE5ELS4_6ELS4_8EEE27kQuadrupleScaleOperandSizesE = comdat any

$_ZN2v88internal11interpreter14BytecodeTraitsILNS1_19ImplicitRegisterUseE1EJLNS1_11OperandTypeE15ELS4_5EEE27kQuadrupleScaleOperandSizesE = comdat any

$_ZN2v88internal11interpreter14BytecodeTraitsILNS1_19ImplicitRegisterUseE2EJLNS1_11OperandTypeE9ELS4_9EEE27kQuadrupleScaleOperandSizesE = comdat any

$_ZN2v88internal11interpreter14BytecodeTraitsILNS1_19ImplicitRegisterUseE2EJLNS1_11OperandTypeE9ELS4_9ELS4_11ELS4_5EEE27kQuadrupleScaleOperandSizesE = comdat any

$_ZN2v88internal11interpreter14BytecodeTraitsILNS1_19ImplicitRegisterUseE1EJEE27kQuadrupleScaleOperandSizesE = comdat any

$_ZN2v88internal11interpreter14BytecodeTraitsILNS1_19ImplicitRegisterUseE0EJLNS1_11OperandTypeE9ELS4_5ELS4_6EEE27kQuadrupleScaleOperandSizesE = comdat any

$_ZN2v88internal11interpreter14BytecodeTraitsILNS1_19ImplicitRegisterUseE1EJLNS1_11OperandTypeE9ELS4_10ELS4_7ELS4_6EEE27kQuadrupleScaleOperandSizesE = comdat any

$_ZN2v88internal11interpreter14BytecodeTraitsILNS1_19ImplicitRegisterUseE2EJLNS1_11OperandTypeE9ELS4_13ELS4_7EEE27kQuadrupleScaleOperandSizesE = comdat any

$_ZN2v88internal11interpreter14BytecodeTraitsILNS1_19ImplicitRegisterUseE5EJEE27kQuadrupleScaleOperandSizesE = comdat any

@_ZN2v88internal11interpreter9Bytecodes13kOperandTypesE = hidden local_unnamed_addr constant [197 x i8*] [i8* getelementptr inbounds ([1 x i8], [1 x i8]* @_ZN2v88internal11interpreter14BytecodeTraitsILNS1_19ImplicitRegisterUseE0EJEE13kOperandTypesE, i32 0, i32 0), i8* getelementptr inbounds ([1 x i8], [1 x i8]* @_ZN2v88internal11interpreter14BytecodeTraitsILNS1_19ImplicitRegisterUseE0EJEE13kOperandTypesE, i32 0, i32 0), i8* getelementptr inbounds ([1 x i8], [1 x i8]* @_ZN2v88internal11interpreter14BytecodeTraitsILNS1_19ImplicitRegisterUseE3EJEE13kOperandTypesE, i32 0, i32 0), i8* getelementptr inbounds ([1 x i8], [1 x i8]* @_ZN2v88internal11interpreter14BytecodeTraitsILNS1_19ImplicitRegisterUseE3EJEE13kOperandTypesE, i32 0, i32 0), i8* getelementptr inbounds ([1 x i8], [1 x i8]* @_ZN2v88internal11interpreter14BytecodeTraitsILNS1_19ImplicitRegisterUseE3EJEE13kOperandTypesE, i32 0, i32 0), i8* getelementptr inbounds ([1 x i8], [1 x i8]* @_ZN2v88internal11interpreter14BytecodeTraitsILNS1_19ImplicitRegisterUseE3EJLNS1_11OperandTypeE9EEE13kOperandTypesE, i32 0, i32 0), i8* getelementptr inbounds ([2 x i8], [2 x i8]* @_ZN2v88internal11interpreter14BytecodeTraitsILNS1_19ImplicitRegisterUseE3EJLNS1_11OperandTypeE9ELS4_9EEE13kOperandTypesE, i32 0, i32 0), i8* getelementptr inbounds ([3 x i8], [3 x i8]* @_ZN2v88internal11interpreter14BytecodeTraitsILNS1_19ImplicitRegisterUseE3EJLNS1_11OperandTypeE9ELS4_9ELS4_9EEE13kOperandTypesE, i32 0, i32 0), i8* getelementptr inbounds ([4 x i8], [4 x i8]* @_ZN2v88internal11interpreter14BytecodeTraitsILNS1_19ImplicitRegisterUseE3EJLNS1_11OperandTypeE9ELS4_9ELS4_9ELS4_9EEE13kOperandTypesE, i32 0, i32 0), i8* getelementptr inbounds ([3 x i8], [3 x i8]* @_ZN2v88internal11interpreter14BytecodeTraitsILNS1_19ImplicitRegisterUseE3EJLNS1_11OperandTypeE3ELS4_9ELS4_9EEE13kOperandTypesE, i32 0, i32 0), i8* getelementptr inbounds ([4 x i8], [4 x i8]* @_ZN2v88internal11interpreter14BytecodeTraitsILNS1_19ImplicitRegisterUseE3EJLNS1_11OperandTypeE3ELS4_9ELS4_9ELS4_9EEE13kOperandTypesE, i32 0, i32 0), i8* getelementptr inbounds ([1 x i8], [1 x i8]* @_ZN2v88internal11interpreter14BytecodeTraitsILNS1_19ImplicitRegisterUseE2EJLNS1_11OperandTypeE9EEE13kOperandTypesE, i32 0, i32 0), i8* getelementptr inbounds ([1 x i8], [1 x i8]* @_ZN2v88internal11interpreter14BytecodeTraitsILNS1_19ImplicitRegisterUseE2EJEE13kOperandTypesE, i32 0, i32 0), i8* getelementptr inbounds ([1 x i8], [1 x i8]* @_ZN2v88internal11interpreter14BytecodeTraitsILNS1_19ImplicitRegisterUseE2EJLNS1_11OperandTypeE8EEE13kOperandTypesE, i32 0, i32 0), i8* getelementptr inbounds ([1 x i8], [1 x i8]* @_ZN2v88internal11interpreter14BytecodeTraitsILNS1_19ImplicitRegisterUseE2EJEE13kOperandTypesE, i32 0, i32 0), i8* getelementptr inbounds ([1 x i8], [1 x i8]* @_ZN2v88internal11interpreter14BytecodeTraitsILNS1_19ImplicitRegisterUseE2EJEE13kOperandTypesE, i32 0, i32 0), i8* getelementptr inbounds ([1 x i8], [1 x i8]* @_ZN2v88internal11interpreter14BytecodeTraitsILNS1_19ImplicitRegisterUseE2EJEE13kOperandTypesE, i32 0, i32 0), i8* getelementptr inbounds ([1 x i8], [1 x i8]* @_ZN2v88internal11interpreter14BytecodeTraitsILNS1_19ImplicitRegisterUseE2EJEE13kOperandTypesE, i32 0, i32 0), i8* getelementptr inbounds ([1 x i8], [1 x i8]* @_ZN2v88internal11interpreter14BytecodeTraitsILNS1_19ImplicitRegisterUseE2EJEE13kOperandTypesE, i32 0, i32 0), i8* getelementptr inbounds ([1 x i8], [1 x i8]* @_ZN2v88internal11interpreter14BytecodeTraitsILNS1_19ImplicitRegisterUseE2EJLNS1_11OperandTypeE5EEE13kOperandTypesE, i32 0, i32 0), i8* getelementptr inbounds ([3 x i8], [3 x i8]* @_ZN2v88internal11interpreter14BytecodeTraitsILNS1_19ImplicitRegisterUseE2EJLNS1_11OperandTypeE9ELS4_5ELS4_6EEE13kOperandTypesE, i32 0, i32 0), i8* getelementptr inbounds ([3 x i8], [3 x i8]* @_ZN2v88internal11interpreter14BytecodeTraitsILNS1_19ImplicitRegisterUseE2EJLNS1_11OperandTypeE9ELS4_5ELS4_6EEE13kOperandTypesE, i32 0, i32 0), i8* getelementptr inbounds ([1 x i8], [1 x i8]* @_ZN2v88internal11interpreter14BytecodeTraitsILNS1_19ImplicitRegisterUseE2EJLNS1_11OperandTypeE5EEE13kOperandTypesE, i32 0, i32 0), i8* getelementptr inbounds ([1 x i8], [1 x i8]* @_ZN2v88internal11interpreter14BytecodeTraitsILNS1_19ImplicitRegisterUseE2EJLNS1_11OperandTypeE5EEE13kOperandTypesE, i32 0, i32 0), i8* getelementptr inbounds ([1 x i8], [1 x i8]* @_ZN2v88internal11interpreter14BytecodeTraitsILNS1_19ImplicitRegisterUseE1EJLNS1_11OperandTypeE12EEE13kOperandTypesE, i32 0, i32 0), i8* getelementptr inbounds ([2 x i8], [2 x i8]* @_ZN2v88internal11interpreter14BytecodeTraitsILNS1_19ImplicitRegisterUseE0EJLNS1_11OperandTypeE9ELS4_12EEE13kOperandTypesE, i32 0, i32 0), i8* getelementptr inbounds ([1 x i8], [1 x i8]* @_ZN2v88internal11interpreter14BytecodeTraitsILNS1_19ImplicitRegisterUseE1EJLNS1_11OperandTypeE12EEE13kOperandTypesE, i32 0, i32 0), i8* getelementptr inbounds ([1 x i8], [1 x i8]* @_ZN2v88internal11interpreter14BytecodeTraitsILNS1_19ImplicitRegisterUseE0EJLNS1_11OperandTypeE9EEE13kOperandTypesE, i32 0, i32 0), i8* getelementptr inbounds ([1 x i8], [1 x i8]* @_ZN2v88internal11interpreter14BytecodeTraitsILNS1_19ImplicitRegisterUseE3EJLNS1_11OperandTypeE9EEE13kOperandTypesE, i32 0, i32 0), i8* getelementptr inbounds ([1 x i8], [1 x i8]* @_ZN2v88internal11interpreter14BytecodeTraitsILNS1_19ImplicitRegisterUseE3EJEE13kOperandTypesE, i32 0, i32 0), i8* getelementptr inbounds ([1 x i8], [1 x i8]* @_ZN2v88internal11interpreter14BytecodeTraitsILNS1_19ImplicitRegisterUseE3EJEE13kOperandTypesE, i32 0, i32 0), i8* getelementptr inbounds ([1 x i8], [1 x i8]* @_ZN2v88internal11interpreter14BytecodeTraitsILNS1_19ImplicitRegisterUseE3EJEE13kOperandTypesE, i32 0, i32 0), i8* getelementptr inbounds ([1 x i8], [1 x i8]* @_ZN2v88internal11interpreter14BytecodeTraitsILNS1_19ImplicitRegisterUseE3EJLNS1_11OperandTypeE1EEE13kOperandTypesE, i32 0, i32 0), i8* getelementptr inbounds ([2 x i8], [2 x i8]* @_ZN2v88internal11interpreter14BytecodeTraitsILNS1_19ImplicitRegisterUseE2EJLNS1_11OperandTypeE5ELS4_5EEE13kOperandTypesE, i32 0, i32 0), i8* getelementptr inbounds ([2 x i8], [2 x i8]* @_ZN2v88internal11interpreter14BytecodeTraitsILNS1_19ImplicitRegisterUseE2EJLNS1_11OperandTypeE5ELS4_5EEE13kOperandTypesE, i32 0, i32 0), i8* getelementptr inbounds ([2 x i8], [2 x i8]* @_ZN2v88internal11interpreter14BytecodeTraitsILNS1_19ImplicitRegisterUseE1EJLNS1_11OperandTypeE5ELS4_5EEE13kOperandTypesE, i32 0, i32 0), i8* getelementptr inbounds ([3 x i8], [3 x i8]* @_ZN2v88internal11interpreter14BytecodeTraitsILNS1_19ImplicitRegisterUseE1EJLNS1_11OperandTypeE9ELS4_5ELS4_6EEE13kOperandTypesE, i32 0, i32 0), i8* getelementptr inbounds ([1 x i8], [1 x i8]* @_ZN2v88internal11interpreter14BytecodeTraitsILNS1_19ImplicitRegisterUseE1EJLNS1_11OperandTypeE5EEE13kOperandTypesE, i32 0, i32 0), i8* getelementptr inbounds ([1 x i8], [1 x i8]* @_ZN2v88internal11interpreter14BytecodeTraitsILNS1_19ImplicitRegisterUseE2EJLNS1_11OperandTypeE5EEE13kOperandTypesE, i32 0, i32 0), i8* getelementptr inbounds ([3 x i8], [3 x i8]* @_ZN2v88internal11interpreter14BytecodeTraitsILNS1_19ImplicitRegisterUseE2EJLNS1_11OperandTypeE5ELS4_5ELS4_6EEE13kOperandTypesE, i32 0, i32 0), i8* getelementptr inbounds ([3 x i8], [3 x i8]* @_ZN2v88internal11interpreter14BytecodeTraitsILNS1_19ImplicitRegisterUseE2EJLNS1_11OperandTypeE5ELS4_5ELS4_6EEE13kOperandTypesE, i32 0, i32 0), i8* getelementptr inbounds ([1 x i8], [1 x i8]* @_ZN2v88internal11interpreter14BytecodeTraitsILNS1_19ImplicitRegisterUseE2EJLNS1_11OperandTypeE5EEE13kOperandTypesE, i32 0, i32 0), i8* getelementptr inbounds ([3 x i8], [3 x i8]* @_ZN2v88internal11interpreter14BytecodeTraitsILNS1_19ImplicitRegisterUseE2EJLNS1_11OperandTypeE5ELS4_5ELS4_6EEE13kOperandTypesE, i32 0, i32 0), i8* getelementptr inbounds ([3 x i8], [3 x i8]* @_ZN2v88internal11interpreter14BytecodeTraitsILNS1_19ImplicitRegisterUseE2EJLNS1_11OperandTypeE5ELS4_5ELS4_6EEE13kOperandTypesE, i32 0, i32 0), i8* getelementptr inbounds ([2 x i8], [2 x i8]* @_ZN2v88internal11interpreter14BytecodeTraitsILNS1_19ImplicitRegisterUseE3EJLNS1_11OperandTypeE5ELS4_1EEE13kOperandTypesE, i32 0, i32 0), i8* getelementptr inbounds ([3 x i8], [3 x i8]* @_ZN2v88internal11interpreter14BytecodeTraitsILNS1_19ImplicitRegisterUseE2EJLNS1_11OperandTypeE9ELS4_5ELS4_5EEE13kOperandTypesE, i32 0, i32 0), i8* getelementptr inbounds ([3 x i8], [3 x i8]* @_ZN2v88internal11interpreter14BytecodeTraitsILNS1_19ImplicitRegisterUseE3EJLNS1_11OperandTypeE9ELS4_5ELS4_5EEE13kOperandTypesE, i32 0, i32 0), i8* getelementptr inbounds ([2 x i8], [2 x i8]* @_ZN2v88internal11interpreter14BytecodeTraitsILNS1_19ImplicitRegisterUseE3EJLNS1_11OperandTypeE9ELS4_5EEE13kOperandTypesE, i32 0, i32 0), i8* getelementptr inbounds ([2 x i8], [2 x i8]* @_ZN2v88internal11interpreter14BytecodeTraitsILNS1_19ImplicitRegisterUseE2EJLNS1_11OperandTypeE8ELS4_6EEE13kOperandTypesE, i32 0, i32 0), i8* getelementptr inbounds ([2 x i8], [2 x i8]* @_ZN2v88internal11interpreter14BytecodeTraitsILNS1_19ImplicitRegisterUseE1EJLNS1_11OperandTypeE8ELS4_6EEE13kOperandTypesE, i32 0, i32 0), i8* getelementptr inbounds ([3 x i8], [3 x i8]* @_ZN2v88internal11interpreter14BytecodeTraitsILNS1_19ImplicitRegisterUseE3EJLNS1_11OperandTypeE9ELS4_5ELS4_5EEE13kOperandTypesE, i32 0, i32 0), i8* getelementptr inbounds ([3 x i8], [3 x i8]* @_ZN2v88internal11interpreter14BytecodeTraitsILNS1_19ImplicitRegisterUseE3EJLNS1_11OperandTypeE9ELS4_5ELS4_5EEE13kOperandTypesE, i32 0, i32 0), i8* getelementptr inbounds ([3 x i8], [3 x i8]* @_ZN2v88internal11interpreter14BytecodeTraitsILNS1_19ImplicitRegisterUseE3EJLNS1_11OperandTypeE9ELS4_9ELS4_5EEE13kOperandTypesE, i32 0, i32 0), i8* getelementptr inbounds ([3 x i8], [3 x i8]* @_ZN2v88internal11interpreter14BytecodeTraitsILNS1_19ImplicitRegisterUseE3EJLNS1_11OperandTypeE9ELS4_9ELS4_5EEE13kOperandTypesE, i32 0, i32 0), i8* getelementptr inbounds ([4 x i8], [4 x i8]* @_ZN2v88internal11interpreter14BytecodeTraitsILNS1_19ImplicitRegisterUseE1EJLNS1_11OperandTypeE9ELS4_9ELS4_1ELS4_5EEE13kOperandTypesE, i32 0, i32 0), i8* getelementptr inbounds ([1 x i8], [1 x i8]* @_ZN2v88internal11interpreter14BytecodeTraitsILNS1_19ImplicitRegisterUseE1EJLNS1_11OperandTypeE8EEE13kOperandTypesE, i32 0, i32 0), i8* getelementptr inbounds ([2 x i8], [2 x i8]* @_ZN2v88internal11interpreter14BytecodeTraitsILNS1_19ImplicitRegisterUseE3EJLNS1_11OperandTypeE9ELS4_5EEE13kOperandTypesE, i32 0, i32 0), i8* getelementptr inbounds ([2 x i8], [2 x i8]* @_ZN2v88internal11interpreter14BytecodeTraitsILNS1_19ImplicitRegisterUseE3EJLNS1_11OperandTypeE9ELS4_5EEE13kOperandTypesE, i32 0, i32 0), i8* getelementptr inbounds ([2 x i8], [2 x i8]* @_ZN2v88internal11interpreter14BytecodeTraitsILNS1_19ImplicitRegisterUseE3EJLNS1_11OperandTypeE9ELS4_5EEE13kOperandTypesE, i32 0, i32 0), i8* getelementptr inbounds ([2 x i8], [2 x i8]* @_ZN2v88internal11interpreter14BytecodeTraitsILNS1_19ImplicitRegisterUseE3EJLNS1_11OperandTypeE9ELS4_5EEE13kOperandTypesE, i32 0, i32 0), i8* getelementptr inbounds ([2 x i8], [2 x i8]* @_ZN2v88internal11interpreter14BytecodeTraitsILNS1_19ImplicitRegisterUseE3EJLNS1_11OperandTypeE9ELS4_5EEE13kOperandTypesE, i32 0, i32 0), i8* getelementptr inbounds ([2 x i8], [2 x i8]* @_ZN2v88internal11interpreter14BytecodeTraitsILNS1_19ImplicitRegisterUseE3EJLNS1_11OperandTypeE9ELS4_5EEE13kOperandTypesE, i32 0, i32 0), i8* getelementptr inbounds ([2 x i8], [2 x i8]* @_ZN2v88internal11interpreter14BytecodeTraitsILNS1_19ImplicitRegisterUseE3EJLNS1_11OperandTypeE9ELS4_5EEE13kOperandTypesE, i32 0, i32 0), i8* getelementptr inbounds ([2 x i8], [2 x i8]* @_ZN2v88internal11interpreter14BytecodeTraitsILNS1_19ImplicitRegisterUseE3EJLNS1_11OperandTypeE9ELS4_5EEE13kOperandTypesE, i32 0, i32 0), i8* getelementptr inbounds ([2 x i8], [2 x i8]* @_ZN2v88internal11interpreter14BytecodeTraitsILNS1_19ImplicitRegisterUseE3EJLNS1_11OperandTypeE9ELS4_5EEE13kOperandTypesE, i32 0, i32 0), i8* getelementptr inbounds ([2 x i8], [2 x i8]* @_ZN2v88internal11interpreter14BytecodeTraitsILNS1_19ImplicitRegisterUseE3EJLNS1_11OperandTypeE9ELS4_5EEE13kOperandTypesE, i32 0, i32 0), i8* getelementptr inbounds ([2 x i8], [2 x i8]* @_ZN2v88internal11interpreter14BytecodeTraitsILNS1_19ImplicitRegisterUseE3EJLNS1_11OperandTypeE9ELS4_5EEE13kOperandTypesE, i32 0, i32 0), i8* getelementptr inbounds ([2 x i8], [2 x i8]* @_ZN2v88internal11interpreter14BytecodeTraitsILNS1_19ImplicitRegisterUseE3EJLNS1_11OperandTypeE9ELS4_5EEE13kOperandTypesE, i32 0, i32 0), i8* getelementptr inbounds ([2 x i8], [2 x i8]* @_ZN2v88internal11interpreter14BytecodeTraitsILNS1_19ImplicitRegisterUseE3EJLNS1_11OperandTypeE8ELS4_5EEE13kOperandTypesE, i32 0, i32 0), i8* getelementptr inbounds ([2 x i8], [2 x i8]* @_ZN2v88internal11interpreter14BytecodeTraitsILNS1_19ImplicitRegisterUseE3EJLNS1_11OperandTypeE8ELS4_5EEE13kOperandTypesE, i32 0, i32 0), i8* getelementptr inbounds ([2 x i8], [2 x i8]* @_ZN2v88internal11interpreter14BytecodeTraitsILNS1_19ImplicitRegisterUseE3EJLNS1_11OperandTypeE8ELS4_5EEE13kOperandTypesE, i32 0, i32 0), i8* getelementptr inbounds ([2 x i8], [2 x i8]* @_ZN2v88internal11interpreter14BytecodeTraitsILNS1_19ImplicitRegisterUseE3EJLNS1_11OperandTypeE8ELS4_5EEE13kOperandTypesE, i32 0, i32 0), i8* getelementptr inbounds ([2 x i8], [2 x i8]* @_ZN2v88internal11interpreter14BytecodeTraitsILNS1_19ImplicitRegisterUseE3EJLNS1_11OperandTypeE8ELS4_5EEE13kOperandTypesE, i32 0, i32 0), i8* getelementptr inbounds ([2 x i8], [2 x i8]* @_ZN2v88internal11interpreter14BytecodeTraitsILNS1_19ImplicitRegisterUseE3EJLNS1_11OperandTypeE8ELS4_5EEE13kOperandTypesE, i32 0, i32 0), i8* getelementptr inbounds ([2 x i8], [2 x i8]* @_ZN2v88internal11interpreter14BytecodeTraitsILNS1_19ImplicitRegisterUseE3EJLNS1_11OperandTypeE8ELS4_5EEE13kOperandTypesE, i32 0, i32 0), i8* getelementptr inbounds ([2 x i8], [2 x i8]* @_ZN2v88internal11interpreter14BytecodeTraitsILNS1_19ImplicitRegisterUseE3EJLNS1_11OperandTypeE8ELS4_5EEE13kOperandTypesE, i32 0, i32 0), i8* getelementptr inbounds ([2 x i8], [2 x i8]* @_ZN2v88internal11interpreter14BytecodeTraitsILNS1_19ImplicitRegisterUseE3EJLNS1_11OperandTypeE8ELS4_5EEE13kOperandTypesE, i32 0, i32 0), i8* getelementptr inbounds ([2 x i8], [2 x i8]* @_ZN2v88internal11interpreter14BytecodeTraitsILNS1_19ImplicitRegisterUseE3EJLNS1_11OperandTypeE8ELS4_5EEE13kOperandTypesE, i32 0, i32 0), i8* getelementptr inbounds ([2 x i8], [2 x i8]* @_ZN2v88internal11interpreter14BytecodeTraitsILNS1_19ImplicitRegisterUseE3EJLNS1_11OperandTypeE8ELS4_5EEE13kOperandTypesE, i32 0, i32 0), i8* getelementptr inbounds ([2 x i8], [2 x i8]* @_ZN2v88internal11interpreter14BytecodeTraitsILNS1_19ImplicitRegisterUseE3EJLNS1_11OperandTypeE8ELS4_5EEE13kOperandTypesE, i32 0, i32 0), i8* getelementptr inbounds ([1 x i8], [1 x i8]* @_ZN2v88internal11interpreter14BytecodeTraitsILNS1_19ImplicitRegisterUseE3EJLNS1_11OperandTypeE5EEE13kOperandTypesE, i32 0, i32 0), i8* getelementptr inbounds ([1 x i8], [1 x i8]* @_ZN2v88internal11interpreter14BytecodeTraitsILNS1_19ImplicitRegisterUseE3EJLNS1_11OperandTypeE5EEE13kOperandTypesE, i32 0, i32 0), i8* getelementptr inbounds ([1 x i8], [1 x i8]* @_ZN2v88internal11interpreter14BytecodeTraitsILNS1_19ImplicitRegisterUseE3EJLNS1_11OperandTypeE5EEE13kOperandTypesE, i32 0, i32 0), i8* getelementptr inbounds ([1 x i8], [1 x i8]* @_ZN2v88internal11interpreter14BytecodeTraitsILNS1_19ImplicitRegisterUseE3EJLNS1_11OperandTypeE5EEE13kOperandTypesE, i32 0, i32 0), i8* getelementptr inbounds ([1 x i8], [1 x i8]* @_ZN2v88internal11interpreter14BytecodeTraitsILNS1_19ImplicitRegisterUseE3EJEE13kOperandTypesE, i32 0, i32 0), i8* getelementptr inbounds ([1 x i8], [1 x i8]* @_ZN2v88internal11interpreter14BytecodeTraitsILNS1_19ImplicitRegisterUseE3EJEE13kOperandTypesE, i32 0, i32 0), i8* getelementptr inbounds ([1 x i8], [1 x i8]* @_ZN2v88internal11interpreter14BytecodeTraitsILNS1_19ImplicitRegisterUseE3EJEE13kOperandTypesE, i32 0, i32 0), i8* getelementptr inbounds ([1 x i8], [1 x i8]* @_ZN2v88internal11interpreter14BytecodeTraitsILNS1_19ImplicitRegisterUseE3EJLNS1_11OperandTypeE9EEE13kOperandTypesE, i32 0, i32 0), i8* getelementptr inbounds ([1 x i8], [1 x i8]* @_ZN2v88internal11interpreter14BytecodeTraitsILNS1_19ImplicitRegisterUseE3EJLNS1_11OperandTypeE9EEE13kOperandTypesE, i32 0, i32 0), i8* getelementptr inbounds ([1 x i8], [1 x i8]* @_ZN2v88internal11interpreter14BytecodeTraitsILNS1_19ImplicitRegisterUseE1EJLNS1_11OperandTypeE12EEE13kOperandTypesE, i32 0, i32 0), i8* getelementptr inbounds ([4 x i8], [4 x i8]* @_ZN2v88internal11interpreter14BytecodeTraitsILNS1_19ImplicitRegisterUseE2EJLNS1_11OperandTypeE9ELS4_10ELS4_7ELS4_5EEE13kOperandTypesE, i32 0, i32 0), i8* getelementptr inbounds ([4 x i8], [4 x i8]* @_ZN2v88internal11interpreter14BytecodeTraitsILNS1_19ImplicitRegisterUseE2EJLNS1_11OperandTypeE9ELS4_10ELS4_7ELS4_5EEE13kOperandTypesE, i32 0, i32 0), i8* getelementptr inbounds ([3 x i8], [3 x i8]* @_ZN2v88internal11interpreter14BytecodeTraitsILNS1_19ImplicitRegisterUseE2EJLNS1_11OperandTypeE9ELS4_9ELS4_5EEE13kOperandTypesE, i32 0, i32 0), i8* getelementptr inbounds ([4 x i8], [4 x i8]* @_ZN2v88internal11interpreter14BytecodeTraitsILNS1_19ImplicitRegisterUseE2EJLNS1_11OperandTypeE9ELS4_9ELS4_9ELS4_5EEE13kOperandTypesE, i32 0, i32 0), i8* getelementptr inbounds ([5 x i8], [5 x i8]* @_ZN2v88internal11interpreter14BytecodeTraitsILNS1_19ImplicitRegisterUseE2EJLNS1_11OperandTypeE9ELS4_9ELS4_9ELS4_9ELS4_5EEE13kOperandTypesE, i32 0, i32 0), i8* getelementptr inbounds ([4 x i8], [4 x i8]* @_ZN2v88internal11interpreter14BytecodeTraitsILNS1_19ImplicitRegisterUseE2EJLNS1_11OperandTypeE9ELS4_10ELS4_7ELS4_5EEE13kOperandTypesE, i32 0, i32 0), i8* getelementptr inbounds ([2 x i8], [2 x i8]* @_ZN2v88internal11interpreter14BytecodeTraitsILNS1_19ImplicitRegisterUseE2EJLNS1_11OperandTypeE9ELS4_5EEE13kOperandTypesE, i32 0, i32 0), i8* getelementptr inbounds ([3 x i8], [3 x i8]* @_ZN2v88internal11interpreter14BytecodeTraitsILNS1_19ImplicitRegisterUseE2EJLNS1_11OperandTypeE9ELS4_9ELS4_5EEE13kOperandTypesE, i32 0, i32 0), i8* getelementptr inbounds ([4 x i8], [4 x i8]* @_ZN2v88internal11interpreter14BytecodeTraitsILNS1_19ImplicitRegisterUseE2EJLNS1_11OperandTypeE9ELS4_9ELS4_9ELS4_5EEE13kOperandTypesE, i32 0, i32 0), i8* getelementptr inbounds ([4 x i8], [4 x i8]* @_ZN2v88internal11interpreter14BytecodeTraitsILNS1_19ImplicitRegisterUseE2EJLNS1_11OperandTypeE9ELS4_10ELS4_7ELS4_5EEE13kOperandTypesE, i32 0, i32 0), i8* getelementptr inbounds ([3 x i8], [3 x i8]* @_ZN2v88internal11interpreter14BytecodeTraitsILNS1_19ImplicitRegisterUseE2EJLNS1_11OperandTypeE3ELS4_10ELS4_7EEE13kOperandTypesE, i32 0, i32 0), i8* getelementptr inbounds ([4 x i8], [4 x i8]* @_ZN2v88internal11interpreter14BytecodeTraitsILNS1_19ImplicitRegisterUseE0EJLNS1_11OperandTypeE3ELS4_10ELS4_7ELS4_14EEE13kOperandTypesE, i32 0, i32 0), i8* getelementptr inbounds ([3 x i8], [3 x i8]* @_ZN2v88internal11interpreter14BytecodeTraitsILNS1_19ImplicitRegisterUseE2EJLNS1_11OperandTypeE4ELS4_10ELS4_7EEE13kOperandTypesE, i32 0, i32 0), i8* getelementptr inbounds ([3 x i8], [3 x i8]* @_ZN2v88internal11interpreter14BytecodeTraitsILNS1_19ImplicitRegisterUseE2EJLNS1_11OperandTypeE2ELS4_10ELS4_7EEE13kOperandTypesE, i32 0, i32 0), i8* getelementptr inbounds ([4 x i8], [4 x i8]* @_ZN2v88internal11interpreter14BytecodeTraitsILNS1_19ImplicitRegisterUseE3EJLNS1_11OperandTypeE9ELS4_10ELS4_7ELS4_5EEE13kOperandTypesE, i32 0, i32 0), i8* getelementptr inbounds ([4 x i8], [4 x i8]* @_ZN2v88internal11interpreter14BytecodeTraitsILNS1_19ImplicitRegisterUseE3EJLNS1_11OperandTypeE9ELS4_10ELS4_7ELS4_5EEE13kOperandTypesE, i32 0, i32 0), i8* getelementptr inbounds ([2 x i8], [2 x i8]* @_ZN2v88internal11interpreter14BytecodeTraitsILNS1_19ImplicitRegisterUseE3EJLNS1_11OperandTypeE9ELS4_5EEE13kOperandTypesE, i32 0, i32 0), i8* getelementptr inbounds ([2 x i8], [2 x i8]* @_ZN2v88internal11interpreter14BytecodeTraitsILNS1_19ImplicitRegisterUseE3EJLNS1_11OperandTypeE9ELS4_5EEE13kOperandTypesE, i32 0, i32 0), i8* getelementptr inbounds ([2 x i8], [2 x i8]* @_ZN2v88internal11interpreter14BytecodeTraitsILNS1_19ImplicitRegisterUseE3EJLNS1_11OperandTypeE9ELS4_5EEE13kOperandTypesE, i32 0, i32 0), i8* getelementptr inbounds ([2 x i8], [2 x i8]* @_ZN2v88internal11interpreter14BytecodeTraitsILNS1_19ImplicitRegisterUseE3EJLNS1_11OperandTypeE9ELS4_5EEE13kOperandTypesE, i32 0, i32 0), i8* getelementptr inbounds ([2 x i8], [2 x i8]* @_ZN2v88internal11interpreter14BytecodeTraitsILNS1_19ImplicitRegisterUseE3EJLNS1_11OperandTypeE9ELS4_5EEE13kOperandTypesE, i32 0, i32 0), i8* getelementptr inbounds ([2 x i8], [2 x i8]* @_ZN2v88internal11interpreter14BytecodeTraitsILNS1_19ImplicitRegisterUseE3EJLNS1_11OperandTypeE9ELS4_5EEE13kOperandTypesE, i32 0, i32 0), i8* getelementptr inbounds ([2 x i8], [2 x i8]* @_ZN2v88internal11interpreter14BytecodeTraitsILNS1_19ImplicitRegisterUseE3EJLNS1_11OperandTypeE9ELS4_5EEE13kOperandTypesE, i32 0, i32 0), i8* getelementptr inbounds ([2 x i8], [2 x i8]* @_ZN2v88internal11interpreter14BytecodeTraitsILNS1_19ImplicitRegisterUseE3EJLNS1_11OperandTypeE9ELS4_5EEE13kOperandTypesE, i32 0, i32 0), i8* getelementptr inbounds ([1 x i8], [1 x i8]* @_ZN2v88internal11interpreter14BytecodeTraitsILNS1_19ImplicitRegisterUseE1EJLNS1_11OperandTypeE12EEE13kOperandTypesE, i32 0, i32 0), i8* getelementptr inbounds ([1 x i8], [1 x i8]* @_ZN2v88internal11interpreter14BytecodeTraitsILNS1_19ImplicitRegisterUseE3EJLNS1_11OperandTypeE5EEE13kOperandTypesE, i32 0, i32 0), i8* getelementptr inbounds ([1 x i8], [1 x i8]* @_ZN2v88internal11interpreter14BytecodeTraitsILNS1_19ImplicitRegisterUseE3EJLNS1_11OperandTypeE5EEE13kOperandTypesE, i32 0, i32 0), i8* getelementptr inbounds ([1 x i8], [1 x i8]* @_ZN2v88internal11interpreter14BytecodeTraitsILNS1_19ImplicitRegisterUseE1EJLNS1_11OperandTypeE12EEE13kOperandTypesE, i32 0, i32 0), i8* getelementptr inbounds ([1 x i8], [1 x i8]* @_ZN2v88internal11interpreter14BytecodeTraitsILNS1_19ImplicitRegisterUseE3EJEE13kOperandTypesE, i32 0, i32 0), i8* getelementptr inbounds ([3 x i8], [3 x i8]* @_ZN2v88internal11interpreter14BytecodeTraitsILNS1_19ImplicitRegisterUseE2EJLNS1_11OperandTypeE5ELS4_5ELS4_1EEE13kOperandTypesE, i32 0, i32 0), i8* getelementptr inbounds ([3 x i8], [3 x i8]* @_ZN2v88internal11interpreter14BytecodeTraitsILNS1_19ImplicitRegisterUseE2EJLNS1_11OperandTypeE5ELS4_5ELS4_1EEE13kOperandTypesE, i32 0, i32 0), i8* getelementptr inbounds ([1 x i8], [1 x i8]* @_ZN2v88internal11interpreter14BytecodeTraitsILNS1_19ImplicitRegisterUseE3EJEE13kOperandTypesE, i32 0, i32 0), i8* getelementptr inbounds ([1 x i8], [1 x i8]* @_ZN2v88internal11interpreter14BytecodeTraitsILNS1_19ImplicitRegisterUseE2EJLNS1_11OperandTypeE5EEE13kOperandTypesE, i32 0, i32 0), i8* getelementptr inbounds ([3 x i8], [3 x i8]* @_ZN2v88internal11interpreter14BytecodeTraitsILNS1_19ImplicitRegisterUseE2EJLNS1_11OperandTypeE5ELS4_5ELS4_1EEE13kOperandTypesE, i32 0, i32 0), i8* getelementptr inbounds ([1 x i8], [1 x i8]* @_ZN2v88internal11interpreter14BytecodeTraitsILNS1_19ImplicitRegisterUseE2EJEE13kOperandTypesE, i32 0, i32 0), i8* getelementptr inbounds ([3 x i8], [3 x i8]* @_ZN2v88internal11interpreter14BytecodeTraitsILNS1_19ImplicitRegisterUseE2EJLNS1_11OperandTypeE9ELS4_1ELS4_5EEE13kOperandTypesE, i32 0, i32 0), i8* getelementptr inbounds ([2 x i8], [2 x i8]* @_ZN2v88internal11interpreter14BytecodeTraitsILNS1_19ImplicitRegisterUseE2EJLNS1_11OperandTypeE5ELS4_5EEE13kOperandTypesE, i32 0, i32 0), i8* getelementptr inbounds ([3 x i8], [3 x i8]* @_ZN2v88internal11interpreter14BytecodeTraitsILNS1_19ImplicitRegisterUseE2EJLNS1_11OperandTypeE5ELS4_5ELS4_1EEE13kOperandTypesE, i32 0, i32 0), i8* getelementptr inbounds ([1 x i8], [1 x i8]* @_ZN2v88internal11interpreter14BytecodeTraitsILNS1_19ImplicitRegisterUseE2EJLNS1_11OperandTypeE5EEE13kOperandTypesE, i32 0, i32 0), i8* getelementptr inbounds ([2 x i8], [2 x i8]* @_ZN2v88internal11interpreter14BytecodeTraitsILNS1_19ImplicitRegisterUseE2EJLNS1_11OperandTypeE9ELS4_5EEE13kOperandTypesE, i32 0, i32 0), i8* getelementptr inbounds ([2 x i8], [2 x i8]* @_ZN2v88internal11interpreter14BytecodeTraitsILNS1_19ImplicitRegisterUseE2EJLNS1_11OperandTypeE5ELS4_6EEE13kOperandTypesE, i32 0, i32 0), i8* getelementptr inbounds ([2 x i8], [2 x i8]* @_ZN2v88internal11interpreter14BytecodeTraitsILNS1_19ImplicitRegisterUseE2EJLNS1_11OperandTypeE5ELS4_6EEE13kOperandTypesE, i32 0, i32 0), i8* getelementptr inbounds ([2 x i8], [2 x i8]* @_ZN2v88internal11interpreter14BytecodeTraitsILNS1_19ImplicitRegisterUseE2EJLNS1_11OperandTypeE9ELS4_5EEE13kOperandTypesE, i32 0, i32 0), i8* getelementptr inbounds ([1 x i8], [1 x i8]* @_ZN2v88internal11interpreter14BytecodeTraitsILNS1_19ImplicitRegisterUseE2EJEE13kOperandTypesE, i32 0, i32 0), i8* getelementptr inbounds ([1 x i8], [1 x i8]* @_ZN2v88internal11interpreter14BytecodeTraitsILNS1_19ImplicitRegisterUseE2EJEE13kOperandTypesE, i32 0, i32 0), i8* getelementptr inbounds ([1 x i8], [1 x i8]* @_ZN2v88internal11interpreter14BytecodeTraitsILNS1_19ImplicitRegisterUseE2EJEE13kOperandTypesE, i32 0, i32 0), i8* getelementptr inbounds ([2 x i8], [2 x i8]* @_ZN2v88internal11interpreter14BytecodeTraitsILNS1_19ImplicitRegisterUseE0EJLNS1_11OperandTypeE6ELS4_8EEE13kOperandTypesE, i32 0, i32 0), i8* getelementptr inbounds ([1 x i8], [1 x i8]* @_ZN2v88internal11interpreter14BytecodeTraitsILNS1_19ImplicitRegisterUseE0EJLNS1_11OperandTypeE6EEE13kOperandTypesE, i32 0, i32 0), i8* getelementptr inbounds ([1 x i8], [1 x i8]* @_ZN2v88internal11interpreter14BytecodeTraitsILNS1_19ImplicitRegisterUseE0EJLNS1_11OperandTypeE5EEE13kOperandTypesE, i32 0, i32 0), i8* getelementptr inbounds ([1 x i8], [1 x i8]* @_ZN2v88internal11interpreter14BytecodeTraitsILNS1_19ImplicitRegisterUseE1EJLNS1_11OperandTypeE5EEE13kOperandTypesE, i32 0, i32 0), i8* getelementptr inbounds ([1 x i8], [1 x i8]* @_ZN2v88internal11interpreter14BytecodeTraitsILNS1_19ImplicitRegisterUseE1EJLNS1_11OperandTypeE5EEE13kOperandTypesE, i32 0, i32 0), i8* getelementptr inbounds ([1 x i8], [1 x i8]* @_ZN2v88internal11interpreter14BytecodeTraitsILNS1_19ImplicitRegisterUseE1EJLNS1_11OperandTypeE5EEE13kOperandTypesE, i32 0, i32 0), i8* getelementptr inbounds ([1 x i8], [1 x i8]* @_ZN2v88internal11interpreter14BytecodeTraitsILNS1_19ImplicitRegisterUseE1EJLNS1_11OperandTypeE5EEE13kOperandTypesE, i32 0, i32 0), i8* getelementptr inbounds ([1 x i8], [1 x i8]* @_ZN2v88internal11interpreter14BytecodeTraitsILNS1_19ImplicitRegisterUseE1EJLNS1_11OperandTypeE5EEE13kOperandTypesE, i32 0, i32 0), i8* getelementptr inbounds ([1 x i8], [1 x i8]* @_ZN2v88internal11interpreter14BytecodeTraitsILNS1_19ImplicitRegisterUseE1EJLNS1_11OperandTypeE5EEE13kOperandTypesE, i32 0, i32 0), i8* getelementptr inbounds ([1 x i8], [1 x i8]* @_ZN2v88internal11interpreter14BytecodeTraitsILNS1_19ImplicitRegisterUseE1EJLNS1_11OperandTypeE5EEE13kOperandTypesE, i32 0, i32 0), i8* getelementptr inbounds ([1 x i8], [1 x i8]* @_ZN2v88internal11interpreter14BytecodeTraitsILNS1_19ImplicitRegisterUseE1EJLNS1_11OperandTypeE5EEE13kOperandTypesE, i32 0, i32 0), i8* getelementptr inbounds ([1 x i8], [1 x i8]* @_ZN2v88internal11interpreter14BytecodeTraitsILNS1_19ImplicitRegisterUseE1EJLNS1_11OperandTypeE5EEE13kOperandTypesE, i32 0, i32 0), i8* getelementptr inbounds ([1 x i8], [1 x i8]* @_ZN2v88internal11interpreter14BytecodeTraitsILNS1_19ImplicitRegisterUseE1EJLNS1_11OperandTypeE5EEE13kOperandTypesE, i32 0, i32 0), i8* getelementptr inbounds ([1 x i8], [1 x i8]* @_ZN2v88internal11interpreter14BytecodeTraitsILNS1_19ImplicitRegisterUseE1EJLNS1_11OperandTypeE6EEE13kOperandTypesE, i32 0, i32 0), i8* getelementptr inbounds ([1 x i8], [1 x i8]* @_ZN2v88internal11interpreter14BytecodeTraitsILNS1_19ImplicitRegisterUseE1EJLNS1_11OperandTypeE6EEE13kOperandTypesE, i32 0, i32 0), i8* getelementptr inbounds ([1 x i8], [1 x i8]* @_ZN2v88internal11interpreter14BytecodeTraitsILNS1_19ImplicitRegisterUseE1EJLNS1_11OperandTypeE6EEE13kOperandTypesE, i32 0, i32 0), i8* getelementptr inbounds ([1 x i8], [1 x i8]* @_ZN2v88internal11interpreter14BytecodeTraitsILNS1_19ImplicitRegisterUseE1EJLNS1_11OperandTypeE6EEE13kOperandTypesE, i32 0, i32 0), i8* getelementptr inbounds ([1 x i8], [1 x i8]* @_ZN2v88internal11interpreter14BytecodeTraitsILNS1_19ImplicitRegisterUseE1EJLNS1_11OperandTypeE6EEE13kOperandTypesE, i32 0, i32 0), i8* getelementptr inbounds ([1 x i8], [1 x i8]* @_ZN2v88internal11interpreter14BytecodeTraitsILNS1_19ImplicitRegisterUseE1EJLNS1_11OperandTypeE6EEE13kOperandTypesE, i32 0, i32 0), i8* getelementptr inbounds ([1 x i8], [1 x i8]* @_ZN2v88internal11interpreter14BytecodeTraitsILNS1_19ImplicitRegisterUseE1EJLNS1_11OperandTypeE6EEE13kOperandTypesE, i32 0, i32 0), i8* getelementptr inbounds ([1 x i8], [1 x i8]* @_ZN2v88internal11interpreter14BytecodeTraitsILNS1_19ImplicitRegisterUseE1EJLNS1_11OperandTypeE6EEE13kOperandTypesE, i32 0, i32 0), i8* getelementptr inbounds ([1 x i8], [1 x i8]* @_ZN2v88internal11interpreter14BytecodeTraitsILNS1_19ImplicitRegisterUseE1EJLNS1_11OperandTypeE6EEE13kOperandTypesE, i32 0, i32 0), i8* getelementptr inbounds ([1 x i8], [1 x i8]* @_ZN2v88internal11interpreter14BytecodeTraitsILNS1_19ImplicitRegisterUseE1EJLNS1_11OperandTypeE6EEE13kOperandTypesE, i32 0, i32 0), i8* getelementptr inbounds ([3 x i8], [3 x i8]* @_ZN2v88internal11interpreter14BytecodeTraitsILNS1_19ImplicitRegisterUseE1EJLNS1_11OperandTypeE5ELS4_6ELS4_8EEE13kOperandTypesE, i32 0, i32 0), i8* getelementptr inbounds ([1 x i8], [1 x i8]* @_ZN2v88internal11interpreter14BytecodeTraitsILNS1_19ImplicitRegisterUseE2EJLNS1_11OperandTypeE9EEE13kOperandTypesE, i32 0, i32 0), i8* getelementptr inbounds ([2 x i8], [2 x i8]* @_ZN2v88internal11interpreter14BytecodeTraitsILNS1_19ImplicitRegisterUseE1EJLNS1_11OperandTypeE15ELS4_5EEE13kOperandTypesE, i32 0, i32 0), i8* getelementptr inbounds ([2 x i8], [2 x i8]* @_ZN2v88internal11interpreter14BytecodeTraitsILNS1_19ImplicitRegisterUseE2EJLNS1_11OperandTypeE9ELS4_9EEE13kOperandTypesE, i32 0, i32 0), i8* getelementptr inbounds ([4 x i8], [4 x i8]* @_ZN2v88internal11interpreter14BytecodeTraitsILNS1_19ImplicitRegisterUseE2EJLNS1_11OperandTypeE9ELS4_9ELS4_11ELS4_5EEE13kOperandTypesE, i32 0, i32 0), i8* getelementptr inbounds ([1 x i8], [1 x i8]* @_ZN2v88internal11interpreter14BytecodeTraitsILNS1_19ImplicitRegisterUseE2EJLNS1_11OperandTypeE9EEE13kOperandTypesE, i32 0, i32 0), i8* getelementptr inbounds ([1 x i8], [1 x i8]* @_ZN2v88internal11interpreter14BytecodeTraitsILNS1_19ImplicitRegisterUseE3EJEE13kOperandTypesE, i32 0, i32 0), i8* getelementptr inbounds ([1 x i8], [1 x i8]* @_ZN2v88internal11interpreter14BytecodeTraitsILNS1_19ImplicitRegisterUseE1EJEE13kOperandTypesE, i32 0, i32 0), i8* getelementptr inbounds ([1 x i8], [1 x i8]* @_ZN2v88internal11interpreter14BytecodeTraitsILNS1_19ImplicitRegisterUseE1EJEE13kOperandTypesE, i32 0, i32 0), i8* getelementptr inbounds ([1 x i8], [1 x i8]* @_ZN2v88internal11interpreter14BytecodeTraitsILNS1_19ImplicitRegisterUseE1EJEE13kOperandTypesE, i32 0, i32 0), i8* getelementptr inbounds ([1 x i8], [1 x i8]* @_ZN2v88internal11interpreter14BytecodeTraitsILNS1_19ImplicitRegisterUseE1EJLNS1_11OperandTypeE5EEE13kOperandTypesE, i32 0, i32 0), i8* getelementptr inbounds ([1 x i8], [1 x i8]* @_ZN2v88internal11interpreter14BytecodeTraitsILNS1_19ImplicitRegisterUseE1EJEE13kOperandTypesE, i32 0, i32 0), i8* getelementptr inbounds ([1 x i8], [1 x i8]* @_ZN2v88internal11interpreter14BytecodeTraitsILNS1_19ImplicitRegisterUseE1EJEE13kOperandTypesE, i32 0, i32 0), i8* getelementptr inbounds ([1 x i8], [1 x i8]* @_ZN2v88internal11interpreter14BytecodeTraitsILNS1_19ImplicitRegisterUseE0EJLNS1_11OperandTypeE9EEE13kOperandTypesE, i32 0, i32 0), i8* getelementptr inbounds ([3 x i8], [3 x i8]* @_ZN2v88internal11interpreter14BytecodeTraitsILNS1_19ImplicitRegisterUseE0EJLNS1_11OperandTypeE9ELS4_5ELS4_6EEE13kOperandTypesE, i32 0, i32 0), i8* getelementptr inbounds ([4 x i8], [4 x i8]* @_ZN2v88internal11interpreter14BytecodeTraitsILNS1_19ImplicitRegisterUseE1EJLNS1_11OperandTypeE9ELS4_10ELS4_7ELS4_6EEE13kOperandTypesE, i32 0, i32 0), i8* getelementptr inbounds ([3 x i8], [3 x i8]* @_ZN2v88internal11interpreter14BytecodeTraitsILNS1_19ImplicitRegisterUseE2EJLNS1_11OperandTypeE9ELS4_13ELS4_7EEE13kOperandTypesE, i32 0, i32 0), i8* getelementptr inbounds ([3 x i8], [3 x i8]* @_ZN2v88internal11interpreter14BytecodeTraitsILNS1_19ImplicitRegisterUseE2EJLNS1_11OperandTypeE9ELS4_5ELS4_5EEE13kOperandTypesE, i32 0, i32 0), i8* getelementptr inbounds ([1 x i8], [1 x i8]* @_ZN2v88internal11interpreter14BytecodeTraitsILNS1_19ImplicitRegisterUseE0EJEE13kOperandTypesE, i32 0, i32 0), i8* getelementptr inbounds ([1 x i8], [1 x i8]* @_ZN2v88internal11interpreter14BytecodeTraitsILNS1_19ImplicitRegisterUseE0EJLNS1_11OperandTypeE5EEE13kOperandTypesE, i32 0, i32 0), i8* getelementptr inbounds ([1 x i8], [1 x i8]* @_ZN2v88internal11interpreter14BytecodeTraitsILNS1_19ImplicitRegisterUseE0EJLNS1_11OperandTypeE5EEE13kOperandTypesE, i32 0, i32 0), i8* getelementptr inbounds ([1 x i8], [1 x i8]* @_ZN2v88internal11interpreter14BytecodeTraitsILNS1_19ImplicitRegisterUseE5EJEE13kOperandTypesE, i32 0, i32 0), i8* getelementptr inbounds ([1 x i8], [1 x i8]* @_ZN2v88internal11interpreter14BytecodeTraitsILNS1_19ImplicitRegisterUseE5EJEE13kOperandTypesE, i32 0, i32 0), i8* getelementptr inbounds ([1 x i8], [1 x i8]* @_ZN2v88internal11interpreter14BytecodeTraitsILNS1_19ImplicitRegisterUseE5EJEE13kOperandTypesE, i32 0, i32 0), i8* getelementptr inbounds ([1 x i8], [1 x i8]* @_ZN2v88internal11interpreter14BytecodeTraitsILNS1_19ImplicitRegisterUseE5EJEE13kOperandTypesE, i32 0, i32 0), i8* getelementptr inbounds ([1 x i8], [1 x i8]* @_ZN2v88internal11interpreter14BytecodeTraitsILNS1_19ImplicitRegisterUseE5EJEE13kOperandTypesE, i32 0, i32 0), i8* getelementptr inbounds ([1 x i8], [1 x i8]* @_ZN2v88internal11interpreter14BytecodeTraitsILNS1_19ImplicitRegisterUseE5EJEE13kOperandTypesE, i32 0, i32 0), i8* getelementptr inbounds ([1 x i8], [1 x i8]* @_ZN2v88internal11interpreter14BytecodeTraitsILNS1_19ImplicitRegisterUseE5EJEE13kOperandTypesE, i32 0, i32 0), i8* getelementptr inbounds ([1 x i8], [1 x i8]* @_ZN2v88internal11interpreter14BytecodeTraitsILNS1_19ImplicitRegisterUseE5EJEE13kOperandTypesE, i32 0, i32 0), i8* getelementptr inbounds ([1 x i8], [1 x i8]* @_ZN2v88internal11interpreter14BytecodeTraitsILNS1_19ImplicitRegisterUseE5EJEE13kOperandTypesE, i32 0, i32 0), i8* getelementptr inbounds ([1 x i8], [1 x i8]* @_ZN2v88internal11interpreter14BytecodeTraitsILNS1_19ImplicitRegisterUseE5EJEE13kOperandTypesE, i32 0, i32 0), i8* getelementptr inbounds ([1 x i8], [1 x i8]* @_ZN2v88internal11interpreter14BytecodeTraitsILNS1_19ImplicitRegisterUseE5EJEE13kOperandTypesE, i32 0, i32 0), i8* getelementptr inbounds ([1 x i8], [1 x i8]* @_ZN2v88internal11interpreter14BytecodeTraitsILNS1_19ImplicitRegisterUseE5EJEE13kOperandTypesE, i32 0, i32 0), i8* getelementptr inbounds ([1 x i8], [1 x i8]* @_ZN2v88internal11interpreter14BytecodeTraitsILNS1_19ImplicitRegisterUseE5EJEE13kOperandTypesE, i32 0, i32 0), i8* getelementptr inbounds ([1 x i8], [1 x i8]* @_ZN2v88internal11interpreter14BytecodeTraitsILNS1_19ImplicitRegisterUseE5EJEE13kOperandTypesE, i32 0, i32 0), i8* getelementptr inbounds ([1 x i8], [1 x i8]* @_ZN2v88internal11interpreter14BytecodeTraitsILNS1_19ImplicitRegisterUseE5EJEE13kOperandTypesE, i32 0, i32 0), i8* getelementptr inbounds ([1 x i8], [1 x i8]* @_ZN2v88internal11interpreter14BytecodeTraitsILNS1_19ImplicitRegisterUseE5EJEE13kOperandTypesE, i32 0, i32 0), i8* getelementptr inbounds ([1 x i8], [1 x i8]* @_ZN2v88internal11interpreter14BytecodeTraitsILNS1_19ImplicitRegisterUseE0EJEE13kOperandTypesE, i32 0, i32 0)], align 16
@_ZN2v88internal11interpreter9Bytecodes17kOperandTypeInfosE = hidden local_unnamed_addr constant [197 x i8*] [i8* getelementptr inbounds ([1 x i8], [1 x i8]* @_ZN2v88internal11interpreter14BytecodeTraitsILNS1_19ImplicitRegisterUseE0EJEE17kOperandTypeInfosE, i32 0, i32 0), i8* getelementptr inbounds ([1 x i8], [1 x i8]* @_ZN2v88internal11interpreter14BytecodeTraitsILNS1_19ImplicitRegisterUseE0EJEE17kOperandTypeInfosE, i32 0, i32 0), i8* getelementptr inbounds ([1 x i8], [1 x i8]* @_ZN2v88internal11interpreter14BytecodeTraitsILNS1_19ImplicitRegisterUseE3EJEE17kOperandTypeInfosE, i32 0, i32 0), i8* getelementptr inbounds ([1 x i8], [1 x i8]* @_ZN2v88internal11interpreter14BytecodeTraitsILNS1_19ImplicitRegisterUseE3EJEE17kOperandTypeInfosE, i32 0, i32 0), i8* getelementptr inbounds ([1 x i8], [1 x i8]* @_ZN2v88internal11interpreter14BytecodeTraitsILNS1_19ImplicitRegisterUseE3EJEE17kOperandTypeInfosE, i32 0, i32 0), i8* getelementptr inbounds ([1 x i8], [1 x i8]* @_ZN2v88internal11interpreter14BytecodeTraitsILNS1_19ImplicitRegisterUseE3EJLNS1_11OperandTypeE9EEE17kOperandTypeInfosE, i32 0, i32 0), i8* getelementptr inbounds ([2 x i8], [2 x i8]* @_ZN2v88internal11interpreter14BytecodeTraitsILNS1_19ImplicitRegisterUseE3EJLNS1_11OperandTypeE9ELS4_9EEE17kOperandTypeInfosE, i32 0, i32 0), i8* getelementptr inbounds ([3 x i8], [3 x i8]* @_ZN2v88internal11interpreter14BytecodeTraitsILNS1_19ImplicitRegisterUseE3EJLNS1_11OperandTypeE9ELS4_9ELS4_9EEE17kOperandTypeInfosE, i32 0, i32 0), i8* getelementptr inbounds ([4 x i8], [4 x i8]* @_ZN2v88internal11interpreter14BytecodeTraitsILNS1_19ImplicitRegisterUseE3EJLNS1_11OperandTypeE9ELS4_9ELS4_9ELS4_9EEE17kOperandTypeInfosE, i32 0, i32 0), i8* getelementptr inbounds ([3 x i8], [3 x i8]* @_ZN2v88internal11interpreter14BytecodeTraitsILNS1_19ImplicitRegisterUseE3EJLNS1_11OperandTypeE3ELS4_9ELS4_9EEE17kOperandTypeInfosE, i32 0, i32 0), i8* getelementptr inbounds ([4 x i8], [4 x i8]* @_ZN2v88internal11interpreter14BytecodeTraitsILNS1_19ImplicitRegisterUseE3EJLNS1_11OperandTypeE3ELS4_9ELS4_9ELS4_9EEE17kOperandTypeInfosE, i32 0, i32 0), i8* getelementptr inbounds ([1 x i8], [1 x i8]* @_ZN2v88internal11interpreter14BytecodeTraitsILNS1_19ImplicitRegisterUseE2EJLNS1_11OperandTypeE9EEE17kOperandTypeInfosE, i32 0, i32 0), i8* getelementptr inbounds ([1 x i8], [1 x i8]* @_ZN2v88internal11interpreter14BytecodeTraitsILNS1_19ImplicitRegisterUseE2EJEE17kOperandTypeInfosE, i32 0, i32 0), i8* getelementptr inbounds ([1 x i8], [1 x i8]* @_ZN2v88internal11interpreter14BytecodeTraitsILNS1_19ImplicitRegisterUseE2EJLNS1_11OperandTypeE8EEE17kOperandTypeInfosE, i32 0, i32 0), i8* getelementptr inbounds ([1 x i8], [1 x i8]* @_ZN2v88internal11interpreter14BytecodeTraitsILNS1_19ImplicitRegisterUseE2EJEE17kOperandTypeInfosE, i32 0, i32 0), i8* getelementptr inbounds ([1 x i8], [1 x i8]* @_ZN2v88internal11interpreter14BytecodeTraitsILNS1_19ImplicitRegisterUseE2EJEE17kOperandTypeInfosE, i32 0, i32 0), i8* getelementptr inbounds ([1 x i8], [1 x i8]* @_ZN2v88internal11interpreter14BytecodeTraitsILNS1_19ImplicitRegisterUseE2EJEE17kOperandTypeInfosE, i32 0, i32 0), i8* getelementptr inbounds ([1 x i8], [1 x i8]* @_ZN2v88internal11interpreter14BytecodeTraitsILNS1_19ImplicitRegisterUseE2EJEE17kOperandTypeInfosE, i32 0, i32 0), i8* getelementptr inbounds ([1 x i8], [1 x i8]* @_ZN2v88internal11interpreter14BytecodeTraitsILNS1_19ImplicitRegisterUseE2EJEE17kOperandTypeInfosE, i32 0, i32 0), i8* getelementptr inbounds ([1 x i8], [1 x i8]* @_ZN2v88internal11interpreter14BytecodeTraitsILNS1_19ImplicitRegisterUseE2EJLNS1_11OperandTypeE5EEE17kOperandTypeInfosE, i32 0, i32 0), i8* getelementptr inbounds ([3 x i8], [3 x i8]* @_ZN2v88internal11interpreter14BytecodeTraitsILNS1_19ImplicitRegisterUseE2EJLNS1_11OperandTypeE9ELS4_5ELS4_6EEE17kOperandTypeInfosE, i32 0, i32 0), i8* getelementptr inbounds ([3 x i8], [3 x i8]* @_ZN2v88internal11interpreter14BytecodeTraitsILNS1_19ImplicitRegisterUseE2EJLNS1_11OperandTypeE9ELS4_5ELS4_6EEE17kOperandTypeInfosE, i32 0, i32 0), i8* getelementptr inbounds ([1 x i8], [1 x i8]* @_ZN2v88internal11interpreter14BytecodeTraitsILNS1_19ImplicitRegisterUseE2EJLNS1_11OperandTypeE5EEE17kOperandTypeInfosE, i32 0, i32 0), i8* getelementptr inbounds ([1 x i8], [1 x i8]* @_ZN2v88internal11interpreter14BytecodeTraitsILNS1_19ImplicitRegisterUseE2EJLNS1_11OperandTypeE5EEE17kOperandTypeInfosE, i32 0, i32 0), i8* getelementptr inbounds ([1 x i8], [1 x i8]* @_ZN2v88internal11interpreter14BytecodeTraitsILNS1_19ImplicitRegisterUseE1EJLNS1_11OperandTypeE12EEE17kOperandTypeInfosE, i32 0, i32 0), i8* getelementptr inbounds ([2 x i8], [2 x i8]* @_ZN2v88internal11interpreter14BytecodeTraitsILNS1_19ImplicitRegisterUseE0EJLNS1_11OperandTypeE9ELS4_12EEE17kOperandTypeInfosE, i32 0, i32 0), i8* getelementptr inbounds ([1 x i8], [1 x i8]* @_ZN2v88internal11interpreter14BytecodeTraitsILNS1_19ImplicitRegisterUseE1EJLNS1_11OperandTypeE12EEE17kOperandTypeInfosE, i32 0, i32 0), i8* getelementptr inbounds ([1 x i8], [1 x i8]* @_ZN2v88internal11interpreter14BytecodeTraitsILNS1_19ImplicitRegisterUseE0EJLNS1_11OperandTypeE9EEE17kOperandTypeInfosE, i32 0, i32 0), i8* getelementptr inbounds ([1 x i8], [1 x i8]* @_ZN2v88internal11interpreter14BytecodeTraitsILNS1_19ImplicitRegisterUseE3EJLNS1_11OperandTypeE9EEE17kOperandTypeInfosE, i32 0, i32 0), i8* getelementptr inbounds ([1 x i8], [1 x i8]* @_ZN2v88internal11interpreter14BytecodeTraitsILNS1_19ImplicitRegisterUseE3EJEE17kOperandTypeInfosE, i32 0, i32 0), i8* getelementptr inbounds ([1 x i8], [1 x i8]* @_ZN2v88internal11interpreter14BytecodeTraitsILNS1_19ImplicitRegisterUseE3EJEE17kOperandTypeInfosE, i32 0, i32 0), i8* getelementptr inbounds ([1 x i8], [1 x i8]* @_ZN2v88internal11interpreter14BytecodeTraitsILNS1_19ImplicitRegisterUseE3EJEE17kOperandTypeInfosE, i32 0, i32 0), i8* getelementptr inbounds ([1 x i8], [1 x i8]* @_ZN2v88internal11interpreter14BytecodeTraitsILNS1_19ImplicitRegisterUseE3EJLNS1_11OperandTypeE1EEE17kOperandTypeInfosE, i32 0, i32 0), i8* getelementptr inbounds ([2 x i8], [2 x i8]* @_ZN2v88internal11interpreter14BytecodeTraitsILNS1_19ImplicitRegisterUseE2EJLNS1_11OperandTypeE5ELS4_5EEE17kOperandTypeInfosE, i32 0, i32 0), i8* getelementptr inbounds ([2 x i8], [2 x i8]* @_ZN2v88internal11interpreter14BytecodeTraitsILNS1_19ImplicitRegisterUseE2EJLNS1_11OperandTypeE5ELS4_5EEE17kOperandTypeInfosE, i32 0, i32 0), i8* getelementptr inbounds ([2 x i8], [2 x i8]* @_ZN2v88internal11interpreter14BytecodeTraitsILNS1_19ImplicitRegisterUseE1EJLNS1_11OperandTypeE5ELS4_5EEE17kOperandTypeInfosE, i32 0, i32 0), i8* getelementptr inbounds ([3 x i8], [3 x i8]* @_ZN2v88internal11interpreter14BytecodeTraitsILNS1_19ImplicitRegisterUseE1EJLNS1_11OperandTypeE9ELS4_5ELS4_6EEE17kOperandTypeInfosE, i32 0, i32 0), i8* getelementptr inbounds ([1 x i8], [1 x i8]* @_ZN2v88internal11interpreter14BytecodeTraitsILNS1_19ImplicitRegisterUseE1EJLNS1_11OperandTypeE5EEE17kOperandTypeInfosE, i32 0, i32 0), i8* getelementptr inbounds ([1 x i8], [1 x i8]* @_ZN2v88internal11interpreter14BytecodeTraitsILNS1_19ImplicitRegisterUseE2EJLNS1_11OperandTypeE5EEE17kOperandTypeInfosE, i32 0, i32 0), i8* getelementptr inbounds ([3 x i8], [3 x i8]* @_ZN2v88internal11interpreter14BytecodeTraitsILNS1_19ImplicitRegisterUseE2EJLNS1_11OperandTypeE5ELS4_5ELS4_6EEE17kOperandTypeInfosE, i32 0, i32 0), i8* getelementptr inbounds ([3 x i8], [3 x i8]* @_ZN2v88internal11interpreter14BytecodeTraitsILNS1_19ImplicitRegisterUseE2EJLNS1_11OperandTypeE5ELS4_5ELS4_6EEE17kOperandTypeInfosE, i32 0, i32 0), i8* getelementptr inbounds ([1 x i8], [1 x i8]* @_ZN2v88internal11interpreter14BytecodeTraitsILNS1_19ImplicitRegisterUseE2EJLNS1_11OperandTypeE5EEE17kOperandTypeInfosE, i32 0, i32 0), i8* getelementptr inbounds ([3 x i8], [3 x i8]* @_ZN2v88internal11interpreter14BytecodeTraitsILNS1_19ImplicitRegisterUseE2EJLNS1_11OperandTypeE5ELS4_5ELS4_6EEE17kOperandTypeInfosE, i32 0, i32 0), i8* getelementptr inbounds ([3 x i8], [3 x i8]* @_ZN2v88internal11interpreter14BytecodeTraitsILNS1_19ImplicitRegisterUseE2EJLNS1_11OperandTypeE5ELS4_5ELS4_6EEE17kOperandTypeInfosE, i32 0, i32 0), i8* getelementptr inbounds ([2 x i8], [2 x i8]* @_ZN2v88internal11interpreter14BytecodeTraitsILNS1_19ImplicitRegisterUseE3EJLNS1_11OperandTypeE5ELS4_1EEE17kOperandTypeInfosE, i32 0, i32 0), i8* getelementptr inbounds ([3 x i8], [3 x i8]* @_ZN2v88internal11interpreter14BytecodeTraitsILNS1_19ImplicitRegisterUseE2EJLNS1_11OperandTypeE9ELS4_5ELS4_5EEE17kOperandTypeInfosE, i32 0, i32 0), i8* getelementptr inbounds ([3 x i8], [3 x i8]* @_ZN2v88internal11interpreter14BytecodeTraitsILNS1_19ImplicitRegisterUseE3EJLNS1_11OperandTypeE9ELS4_5ELS4_5EEE17kOperandTypeInfosE, i32 0, i32 0), i8* getelementptr inbounds ([2 x i8], [2 x i8]* @_ZN2v88internal11interpreter14BytecodeTraitsILNS1_19ImplicitRegisterUseE3EJLNS1_11OperandTypeE9ELS4_5EEE17kOperandTypeInfosE, i32 0, i32 0), i8* getelementptr inbounds ([2 x i8], [2 x i8]* @_ZN2v88internal11interpreter14BytecodeTraitsILNS1_19ImplicitRegisterUseE2EJLNS1_11OperandTypeE8ELS4_6EEE17kOperandTypeInfosE, i32 0, i32 0), i8* getelementptr inbounds ([2 x i8], [2 x i8]* @_ZN2v88internal11interpreter14BytecodeTraitsILNS1_19ImplicitRegisterUseE1EJLNS1_11OperandTypeE8ELS4_6EEE17kOperandTypeInfosE, i32 0, i32 0), i8* getelementptr inbounds ([3 x i8], [3 x i8]* @_ZN2v88internal11interpreter14BytecodeTraitsILNS1_19ImplicitRegisterUseE3EJLNS1_11OperandTypeE9ELS4_5ELS4_5EEE17kOperandTypeInfosE, i32 0, i32 0), i8* getelementptr inbounds ([3 x i8], [3 x i8]* @_ZN2v88internal11interpreter14BytecodeTraitsILNS1_19ImplicitRegisterUseE3EJLNS1_11OperandTypeE9ELS4_5ELS4_5EEE17kOperandTypeInfosE, i32 0, i32 0), i8* getelementptr inbounds ([3 x i8], [3 x i8]* @_ZN2v88internal11interpreter14BytecodeTraitsILNS1_19ImplicitRegisterUseE3EJLNS1_11OperandTypeE9ELS4_9ELS4_5EEE17kOperandTypeInfosE, i32 0, i32 0), i8* getelementptr inbounds ([3 x i8], [3 x i8]* @_ZN2v88internal11interpreter14BytecodeTraitsILNS1_19ImplicitRegisterUseE3EJLNS1_11OperandTypeE9ELS4_9ELS4_5EEE17kOperandTypeInfosE, i32 0, i32 0), i8* getelementptr inbounds ([4 x i8], [4 x i8]* @_ZN2v88internal11interpreter14BytecodeTraitsILNS1_19ImplicitRegisterUseE1EJLNS1_11OperandTypeE9ELS4_9ELS4_1ELS4_5EEE17kOperandTypeInfosE, i32 0, i32 0), i8* getelementptr inbounds ([1 x i8], [1 x i8]* @_ZN2v88internal11interpreter14BytecodeTraitsILNS1_19ImplicitRegisterUseE1EJLNS1_11OperandTypeE8EEE17kOperandTypeInfosE, i32 0, i32 0), i8* getelementptr inbounds ([2 x i8], [2 x i8]* @_ZN2v88internal11interpreter14BytecodeTraitsILNS1_19ImplicitRegisterUseE3EJLNS1_11OperandTypeE9ELS4_5EEE17kOperandTypeInfosE, i32 0, i32 0), i8* getelementptr inbounds ([2 x i8], [2 x i8]* @_ZN2v88internal11interpreter14BytecodeTraitsILNS1_19ImplicitRegisterUseE3EJLNS1_11OperandTypeE9ELS4_5EEE17kOperandTypeInfosE, i32 0, i32 0), i8* getelementptr inbounds ([2 x i8], [2 x i8]* @_ZN2v88internal11interpreter14BytecodeTraitsILNS1_19ImplicitRegisterUseE3EJLNS1_11OperandTypeE9ELS4_5EEE17kOperandTypeInfosE, i32 0, i32 0), i8* getelementptr inbounds ([2 x i8], [2 x i8]* @_ZN2v88internal11interpreter14BytecodeTraitsILNS1_19ImplicitRegisterUseE3EJLNS1_11OperandTypeE9ELS4_5EEE17kOperandTypeInfosE, i32 0, i32 0), i8* getelementptr inbounds ([2 x i8], [2 x i8]* @_ZN2v88internal11interpreter14BytecodeTraitsILNS1_19ImplicitRegisterUseE3EJLNS1_11OperandTypeE9ELS4_5EEE17kOperandTypeInfosE, i32 0, i32 0), i8* getelementptr inbounds ([2 x i8], [2 x i8]* @_ZN2v88internal11interpreter14BytecodeTraitsILNS1_19ImplicitRegisterUseE3EJLNS1_11OperandTypeE9ELS4_5EEE17kOperandTypeInfosE, i32 0, i32 0), i8* getelementptr inbounds ([2 x i8], [2 x i8]* @_ZN2v88internal11interpreter14BytecodeTraitsILNS1_19ImplicitRegisterUseE3EJLNS1_11OperandTypeE9ELS4_5EEE17kOperandTypeInfosE, i32 0, i32 0), i8* getelementptr inbounds ([2 x i8], [2 x i8]* @_ZN2v88internal11interpreter14BytecodeTraitsILNS1_19ImplicitRegisterUseE3EJLNS1_11OperandTypeE9ELS4_5EEE17kOperandTypeInfosE, i32 0, i32 0), i8* getelementptr inbounds ([2 x i8], [2 x i8]* @_ZN2v88internal11interpreter14BytecodeTraitsILNS1_19ImplicitRegisterUseE3EJLNS1_11OperandTypeE9ELS4_5EEE17kOperandTypeInfosE, i32 0, i32 0), i8* getelementptr inbounds ([2 x i8], [2 x i8]* @_ZN2v88internal11interpreter14BytecodeTraitsILNS1_19ImplicitRegisterUseE3EJLNS1_11OperandTypeE9ELS4_5EEE17kOperandTypeInfosE, i32 0, i32 0), i8* getelementptr inbounds ([2 x i8], [2 x i8]* @_ZN2v88internal11interpreter14BytecodeTraitsILNS1_19ImplicitRegisterUseE3EJLNS1_11OperandTypeE9ELS4_5EEE17kOperandTypeInfosE, i32 0, i32 0), i8* getelementptr inbounds ([2 x i8], [2 x i8]* @_ZN2v88internal11interpreter14BytecodeTraitsILNS1_19ImplicitRegisterUseE3EJLNS1_11OperandTypeE9ELS4_5EEE17kOperandTypeInfosE, i32 0, i32 0), i8* getelementptr inbounds ([2 x i8], [2 x i8]* @_ZN2v88internal11interpreter14BytecodeTraitsILNS1_19ImplicitRegisterUseE3EJLNS1_11OperandTypeE8ELS4_5EEE17kOperandTypeInfosE, i32 0, i32 0), i8* getelementptr inbounds ([2 x i8], [2 x i8]* @_ZN2v88internal11interpreter14BytecodeTraitsILNS1_19ImplicitRegisterUseE3EJLNS1_11OperandTypeE8ELS4_5EEE17kOperandTypeInfosE, i32 0, i32 0), i8* getelementptr inbounds ([2 x i8], [2 x i8]* @_ZN2v88internal11interpreter14BytecodeTraitsILNS1_19ImplicitRegisterUseE3EJLNS1_11OperandTypeE8ELS4_5EEE17kOperandTypeInfosE, i32 0, i32 0), i8* getelementptr inbounds ([2 x i8], [2 x i8]* @_ZN2v88internal11interpreter14BytecodeTraitsILNS1_19ImplicitRegisterUseE3EJLNS1_11OperandTypeE8ELS4_5EEE17kOperandTypeInfosE, i32 0, i32 0), i8* getelementptr inbounds ([2 x i8], [2 x i8]* @_ZN2v88internal11interpreter14BytecodeTraitsILNS1_19ImplicitRegisterUseE3EJLNS1_11OperandTypeE8ELS4_5EEE17kOperandTypeInfosE, i32 0, i32 0), i8* getelementptr inbounds ([2 x i8], [2 x i8]* @_ZN2v88internal11interpreter14BytecodeTraitsILNS1_19ImplicitRegisterUseE3EJLNS1_11OperandTypeE8ELS4_5EEE17kOperandTypeInfosE, i32 0, i32 0), i8* getelementptr inbounds ([2 x i8], [2 x i8]* @_ZN2v88internal11interpreter14BytecodeTraitsILNS1_19ImplicitRegisterUseE3EJLNS1_11OperandTypeE8ELS4_5EEE17kOperandTypeInfosE, i32 0, i32 0), i8* getelementptr inbounds ([2 x i8], [2 x i8]* @_ZN2v88internal11interpreter14BytecodeTraitsILNS1_19ImplicitRegisterUseE3EJLNS1_11OperandTypeE8ELS4_5EEE17kOperandTypeInfosE, i32 0, i32 0), i8* getelementptr inbounds ([2 x i8], [2 x i8]* @_ZN2v88internal11interpreter14BytecodeTraitsILNS1_19ImplicitRegisterUseE3EJLNS1_11OperandTypeE8ELS4_5EEE17kOperandTypeInfosE, i32 0, i32 0), i8* getelementptr inbounds ([2 x i8], [2 x i8]* @_ZN2v88internal11interpreter14BytecodeTraitsILNS1_19ImplicitRegisterUseE3EJLNS1_11OperandTypeE8ELS4_5EEE17kOperandTypeInfosE, i32 0, i32 0), i8* getelementptr inbounds ([2 x i8], [2 x i8]* @_ZN2v88internal11interpreter14BytecodeTraitsILNS1_19ImplicitRegisterUseE3EJLNS1_11OperandTypeE8ELS4_5EEE17kOperandTypeInfosE, i32 0, i32 0), i8* getelementptr inbounds ([2 x i8], [2 x i8]* @_ZN2v88internal11interpreter14BytecodeTraitsILNS1_19ImplicitRegisterUseE3EJLNS1_11OperandTypeE8ELS4_5EEE17kOperandTypeInfosE, i32 0, i32 0), i8* getelementptr inbounds ([1 x i8], [1 x i8]* @_ZN2v88internal11interpreter14BytecodeTraitsILNS1_19ImplicitRegisterUseE3EJLNS1_11OperandTypeE5EEE17kOperandTypeInfosE, i32 0, i32 0), i8* getelementptr inbounds ([1 x i8], [1 x i8]* @_ZN2v88internal11interpreter14BytecodeTraitsILNS1_19ImplicitRegisterUseE3EJLNS1_11OperandTypeE5EEE17kOperandTypeInfosE, i32 0, i32 0), i8* getelementptr inbounds ([1 x i8], [1 x i8]* @_ZN2v88internal11interpreter14BytecodeTraitsILNS1_19ImplicitRegisterUseE3EJLNS1_11OperandTypeE5EEE17kOperandTypeInfosE, i32 0, i32 0), i8* getelementptr inbounds ([1 x i8], [1 x i8]* @_ZN2v88internal11interpreter14BytecodeTraitsILNS1_19ImplicitRegisterUseE3EJLNS1_11OperandTypeE5EEE17kOperandTypeInfosE, i32 0, i32 0), i8* getelementptr inbounds ([1 x i8], [1 x i8]* @_ZN2v88internal11interpreter14BytecodeTraitsILNS1_19ImplicitRegisterUseE3EJEE17kOperandTypeInfosE, i32 0, i32 0), i8* getelementptr inbounds ([1 x i8], [1 x i8]* @_ZN2v88internal11interpreter14BytecodeTraitsILNS1_19ImplicitRegisterUseE3EJEE17kOperandTypeInfosE, i32 0, i32 0), i8* getelementptr inbounds ([1 x i8], [1 x i8]* @_ZN2v88internal11interpreter14BytecodeTraitsILNS1_19ImplicitRegisterUseE3EJEE17kOperandTypeInfosE, i32 0, i32 0), i8* getelementptr inbounds ([1 x i8], [1 x i8]* @_ZN2v88internal11interpreter14BytecodeTraitsILNS1_19ImplicitRegisterUseE3EJLNS1_11OperandTypeE9EEE17kOperandTypeInfosE, i32 0, i32 0), i8* getelementptr inbounds ([1 x i8], [1 x i8]* @_ZN2v88internal11interpreter14BytecodeTraitsILNS1_19ImplicitRegisterUseE3EJLNS1_11OperandTypeE9EEE17kOperandTypeInfosE, i32 0, i32 0), i8* getelementptr inbounds ([1 x i8], [1 x i8]* @_ZN2v88internal11interpreter14BytecodeTraitsILNS1_19ImplicitRegisterUseE1EJLNS1_11OperandTypeE12EEE17kOperandTypeInfosE, i32 0, i32 0), i8* getelementptr inbounds ([4 x i8], [4 x i8]* @_ZN2v88internal11interpreter14BytecodeTraitsILNS1_19ImplicitRegisterUseE2EJLNS1_11OperandTypeE9ELS4_10ELS4_7ELS4_5EEE17kOperandTypeInfosE, i32 0, i32 0), i8* getelementptr inbounds ([4 x i8], [4 x i8]* @_ZN2v88internal11interpreter14BytecodeTraitsILNS1_19ImplicitRegisterUseE2EJLNS1_11OperandTypeE9ELS4_10ELS4_7ELS4_5EEE17kOperandTypeInfosE, i32 0, i32 0), i8* getelementptr inbounds ([3 x i8], [3 x i8]* @_ZN2v88internal11interpreter14BytecodeTraitsILNS1_19ImplicitRegisterUseE2EJLNS1_11OperandTypeE9ELS4_9ELS4_5EEE17kOperandTypeInfosE, i32 0, i32 0), i8* getelementptr inbounds ([4 x i8], [4 x i8]* @_ZN2v88internal11interpreter14BytecodeTraitsILNS1_19ImplicitRegisterUseE2EJLNS1_11OperandTypeE9ELS4_9ELS4_9ELS4_5EEE17kOperandTypeInfosE, i32 0, i32 0), i8* getelementptr inbounds ([5 x i8], [5 x i8]* @_ZN2v88internal11interpreter14BytecodeTraitsILNS1_19ImplicitRegisterUseE2EJLNS1_11OperandTypeE9ELS4_9ELS4_9ELS4_9ELS4_5EEE17kOperandTypeInfosE, i32 0, i32 0), i8* getelementptr inbounds ([4 x i8], [4 x i8]* @_ZN2v88internal11interpreter14BytecodeTraitsILNS1_19ImplicitRegisterUseE2EJLNS1_11OperandTypeE9ELS4_10ELS4_7ELS4_5EEE17kOperandTypeInfosE, i32 0, i32 0), i8* getelementptr inbounds ([2 x i8], [2 x i8]* @_ZN2v88internal11interpreter14BytecodeTraitsILNS1_19ImplicitRegisterUseE2EJLNS1_11OperandTypeE9ELS4_5EEE17kOperandTypeInfosE, i32 0, i32 0), i8* getelementptr inbounds ([3 x i8], [3 x i8]* @_ZN2v88internal11interpreter14BytecodeTraitsILNS1_19ImplicitRegisterUseE2EJLNS1_11OperandTypeE9ELS4_9ELS4_5EEE17kOperandTypeInfosE, i32 0, i32 0), i8* getelementptr inbounds ([4 x i8], [4 x i8]* @_ZN2v88internal11interpreter14BytecodeTraitsILNS1_19ImplicitRegisterUseE2EJLNS1_11OperandTypeE9ELS4_9ELS4_9ELS4_5EEE17kOperandTypeInfosE, i32 0, i32 0), i8* getelementptr inbounds ([4 x i8], [4 x i8]* @_ZN2v88internal11interpreter14BytecodeTraitsILNS1_19ImplicitRegisterUseE2EJLNS1_11OperandTypeE9ELS4_10ELS4_7ELS4_5EEE17kOperandTypeInfosE, i32 0, i32 0), i8* getelementptr inbounds ([3 x i8], [3 x i8]* @_ZN2v88internal11interpreter14BytecodeTraitsILNS1_19ImplicitRegisterUseE2EJLNS1_11OperandTypeE3ELS4_10ELS4_7EEE17kOperandTypeInfosE, i32 0, i32 0), i8* getelementptr inbounds ([4 x i8], [4 x i8]* @_ZN2v88internal11interpreter14BytecodeTraitsILNS1_19ImplicitRegisterUseE0EJLNS1_11OperandTypeE3ELS4_10ELS4_7ELS4_14EEE17kOperandTypeInfosE, i32 0, i32 0), i8* getelementptr inbounds ([3 x i8], [3 x i8]* @_ZN2v88internal11interpreter14BytecodeTraitsILNS1_19ImplicitRegisterUseE2EJLNS1_11OperandTypeE4ELS4_10ELS4_7EEE17kOperandTypeInfosE, i32 0, i32 0), i8* getelementptr inbounds ([3 x i8], [3 x i8]* @_ZN2v88internal11interpreter14BytecodeTraitsILNS1_19ImplicitRegisterUseE2EJLNS1_11OperandTypeE2ELS4_10ELS4_7EEE17kOperandTypeInfosE, i32 0, i32 0), i8* getelementptr inbounds ([4 x i8], [4 x i8]* @_ZN2v88internal11interpreter14BytecodeTraitsILNS1_19ImplicitRegisterUseE3EJLNS1_11OperandTypeE9ELS4_10ELS4_7ELS4_5EEE17kOperandTypeInfosE, i32 0, i32 0), i8* getelementptr inbounds ([4 x i8], [4 x i8]* @_ZN2v88internal11interpreter14BytecodeTraitsILNS1_19ImplicitRegisterUseE3EJLNS1_11OperandTypeE9ELS4_10ELS4_7ELS4_5EEE17kOperandTypeInfosE, i32 0, i32 0), i8* getelementptr inbounds ([2 x i8], [2 x i8]* @_ZN2v88internal11interpreter14BytecodeTraitsILNS1_19ImplicitRegisterUseE3EJLNS1_11OperandTypeE9ELS4_5EEE17kOperandTypeInfosE, i32 0, i32 0), i8* getelementptr inbounds ([2 x i8], [2 x i8]* @_ZN2v88internal11interpreter14BytecodeTraitsILNS1_19ImplicitRegisterUseE3EJLNS1_11OperandTypeE9ELS4_5EEE17kOperandTypeInfosE, i32 0, i32 0), i8* getelementptr inbounds ([2 x i8], [2 x i8]* @_ZN2v88internal11interpreter14BytecodeTraitsILNS1_19ImplicitRegisterUseE3EJLNS1_11OperandTypeE9ELS4_5EEE17kOperandTypeInfosE, i32 0, i32 0), i8* getelementptr inbounds ([2 x i8], [2 x i8]* @_ZN2v88internal11interpreter14BytecodeTraitsILNS1_19ImplicitRegisterUseE3EJLNS1_11OperandTypeE9ELS4_5EEE17kOperandTypeInfosE, i32 0, i32 0), i8* getelementptr inbounds ([2 x i8], [2 x i8]* @_ZN2v88internal11interpreter14BytecodeTraitsILNS1_19ImplicitRegisterUseE3EJLNS1_11OperandTypeE9ELS4_5EEE17kOperandTypeInfosE, i32 0, i32 0), i8* getelementptr inbounds ([2 x i8], [2 x i8]* @_ZN2v88internal11interpreter14BytecodeTraitsILNS1_19ImplicitRegisterUseE3EJLNS1_11OperandTypeE9ELS4_5EEE17kOperandTypeInfosE, i32 0, i32 0), i8* getelementptr inbounds ([2 x i8], [2 x i8]* @_ZN2v88internal11interpreter14BytecodeTraitsILNS1_19ImplicitRegisterUseE3EJLNS1_11OperandTypeE9ELS4_5EEE17kOperandTypeInfosE, i32 0, i32 0), i8* getelementptr inbounds ([2 x i8], [2 x i8]* @_ZN2v88internal11interpreter14BytecodeTraitsILNS1_19ImplicitRegisterUseE3EJLNS1_11OperandTypeE9ELS4_5EEE17kOperandTypeInfosE, i32 0, i32 0), i8* getelementptr inbounds ([1 x i8], [1 x i8]* @_ZN2v88internal11interpreter14BytecodeTraitsILNS1_19ImplicitRegisterUseE1EJLNS1_11OperandTypeE12EEE17kOperandTypeInfosE, i32 0, i32 0), i8* getelementptr inbounds ([1 x i8], [1 x i8]* @_ZN2v88internal11interpreter14BytecodeTraitsILNS1_19ImplicitRegisterUseE3EJLNS1_11OperandTypeE5EEE17kOperandTypeInfosE, i32 0, i32 0), i8* getelementptr inbounds ([1 x i8], [1 x i8]* @_ZN2v88internal11interpreter14BytecodeTraitsILNS1_19ImplicitRegisterUseE3EJLNS1_11OperandTypeE5EEE17kOperandTypeInfosE, i32 0, i32 0), i8* getelementptr inbounds ([1 x i8], [1 x i8]* @_ZN2v88internal11interpreter14BytecodeTraitsILNS1_19ImplicitRegisterUseE1EJLNS1_11OperandTypeE12EEE17kOperandTypeInfosE, i32 0, i32 0), i8* getelementptr inbounds ([1 x i8], [1 x i8]* @_ZN2v88internal11interpreter14BytecodeTraitsILNS1_19ImplicitRegisterUseE3EJEE17kOperandTypeInfosE, i32 0, i32 0), i8* getelementptr inbounds ([3 x i8], [3 x i8]* @_ZN2v88internal11interpreter14BytecodeTraitsILNS1_19ImplicitRegisterUseE2EJLNS1_11OperandTypeE5ELS4_5ELS4_1EEE17kOperandTypeInfosE, i32 0, i32 0), i8* getelementptr inbounds ([3 x i8], [3 x i8]* @_ZN2v88internal11interpreter14BytecodeTraitsILNS1_19ImplicitRegisterUseE2EJLNS1_11OperandTypeE5ELS4_5ELS4_1EEE17kOperandTypeInfosE, i32 0, i32 0), i8* getelementptr inbounds ([1 x i8], [1 x i8]* @_ZN2v88internal11interpreter14BytecodeTraitsILNS1_19ImplicitRegisterUseE3EJEE17kOperandTypeInfosE, i32 0, i32 0), i8* getelementptr inbounds ([1 x i8], [1 x i8]* @_ZN2v88internal11interpreter14BytecodeTraitsILNS1_19ImplicitRegisterUseE2EJLNS1_11OperandTypeE5EEE17kOperandTypeInfosE, i32 0, i32 0), i8* getelementptr inbounds ([3 x i8], [3 x i8]* @_ZN2v88internal11interpreter14BytecodeTraitsILNS1_19ImplicitRegisterUseE2EJLNS1_11OperandTypeE5ELS4_5ELS4_1EEE17kOperandTypeInfosE, i32 0, i32 0), i8* getelementptr inbounds ([1 x i8], [1 x i8]* @_ZN2v88internal11interpreter14BytecodeTraitsILNS1_19ImplicitRegisterUseE2EJEE17kOperandTypeInfosE, i32 0, i32 0), i8* getelementptr inbounds ([3 x i8], [3 x i8]* @_ZN2v88internal11interpreter14BytecodeTraitsILNS1_19ImplicitRegisterUseE2EJLNS1_11OperandTypeE9ELS4_1ELS4_5EEE17kOperandTypeInfosE, i32 0, i32 0), i8* getelementptr inbounds ([2 x i8], [2 x i8]* @_ZN2v88internal11interpreter14BytecodeTraitsILNS1_19ImplicitRegisterUseE2EJLNS1_11OperandTypeE5ELS4_5EEE17kOperandTypeInfosE, i32 0, i32 0), i8* getelementptr inbounds ([3 x i8], [3 x i8]* @_ZN2v88internal11interpreter14BytecodeTraitsILNS1_19ImplicitRegisterUseE2EJLNS1_11OperandTypeE5ELS4_5ELS4_1EEE17kOperandTypeInfosE, i32 0, i32 0), i8* getelementptr inbounds ([1 x i8], [1 x i8]* @_ZN2v88internal11interpreter14BytecodeTraitsILNS1_19ImplicitRegisterUseE2EJLNS1_11OperandTypeE5EEE17kOperandTypeInfosE, i32 0, i32 0), i8* getelementptr inbounds ([2 x i8], [2 x i8]* @_ZN2v88internal11interpreter14BytecodeTraitsILNS1_19ImplicitRegisterUseE2EJLNS1_11OperandTypeE9ELS4_5EEE17kOperandTypeInfosE, i32 0, i32 0), i8* getelementptr inbounds ([2 x i8], [2 x i8]* @_ZN2v88internal11interpreter14BytecodeTraitsILNS1_19ImplicitRegisterUseE2EJLNS1_11OperandTypeE5ELS4_6EEE17kOperandTypeInfosE, i32 0, i32 0), i8* getelementptr inbounds ([2 x i8], [2 x i8]* @_ZN2v88internal11interpreter14BytecodeTraitsILNS1_19ImplicitRegisterUseE2EJLNS1_11OperandTypeE5ELS4_6EEE17kOperandTypeInfosE, i32 0, i32 0), i8* getelementptr inbounds ([2 x i8], [2 x i8]* @_ZN2v88internal11interpreter14BytecodeTraitsILNS1_19ImplicitRegisterUseE2EJLNS1_11OperandTypeE9ELS4_5EEE17kOperandTypeInfosE, i32 0, i32 0), i8* getelementptr inbounds ([1 x i8], [1 x i8]* @_ZN2v88internal11interpreter14BytecodeTraitsILNS1_19ImplicitRegisterUseE2EJEE17kOperandTypeInfosE, i32 0, i32 0), i8* getelementptr inbounds ([1 x i8], [1 x i8]* @_ZN2v88internal11interpreter14BytecodeTraitsILNS1_19ImplicitRegisterUseE2EJEE17kOperandTypeInfosE, i32 0, i32 0), i8* getelementptr inbounds ([1 x i8], [1 x i8]* @_ZN2v88internal11interpreter14BytecodeTraitsILNS1_19ImplicitRegisterUseE2EJEE17kOperandTypeInfosE, i32 0, i32 0), i8* getelementptr inbounds ([2 x i8], [2 x i8]* @_ZN2v88internal11interpreter14BytecodeTraitsILNS1_19ImplicitRegisterUseE0EJLNS1_11OperandTypeE6ELS4_8EEE17kOperandTypeInfosE, i32 0, i32 0), i8* getelementptr inbounds ([1 x i8], [1 x i8]* @_ZN2v88internal11interpreter14BytecodeTraitsILNS1_19ImplicitRegisterUseE0EJLNS1_11OperandTypeE6EEE17kOperandTypeInfosE, i32 0, i32 0), i8* getelementptr inbounds ([1 x i8], [1 x i8]* @_ZN2v88internal11interpreter14BytecodeTraitsILNS1_19ImplicitRegisterUseE0EJLNS1_11OperandTypeE5EEE17kOperandTypeInfosE, i32 0, i32 0), i8* getelementptr inbounds ([1 x i8], [1 x i8]* @_ZN2v88internal11interpreter14BytecodeTraitsILNS1_19ImplicitRegisterUseE1EJLNS1_11OperandTypeE5EEE17kOperandTypeInfosE, i32 0, i32 0), i8* getelementptr inbounds ([1 x i8], [1 x i8]* @_ZN2v88internal11interpreter14BytecodeTraitsILNS1_19ImplicitRegisterUseE1EJLNS1_11OperandTypeE5EEE17kOperandTypeInfosE, i32 0, i32 0), i8* getelementptr inbounds ([1 x i8], [1 x i8]* @_ZN2v88internal11interpreter14BytecodeTraitsILNS1_19ImplicitRegisterUseE1EJLNS1_11OperandTypeE5EEE17kOperandTypeInfosE, i32 0, i32 0), i8* getelementptr inbounds ([1 x i8], [1 x i8]* @_ZN2v88internal11interpreter14BytecodeTraitsILNS1_19ImplicitRegisterUseE1EJLNS1_11OperandTypeE5EEE17kOperandTypeInfosE, i32 0, i32 0), i8* getelementptr inbounds ([1 x i8], [1 x i8]* @_ZN2v88internal11interpreter14BytecodeTraitsILNS1_19ImplicitRegisterUseE1EJLNS1_11OperandTypeE5EEE17kOperandTypeInfosE, i32 0, i32 0), i8* getelementptr inbounds ([1 x i8], [1 x i8]* @_ZN2v88internal11interpreter14BytecodeTraitsILNS1_19ImplicitRegisterUseE1EJLNS1_11OperandTypeE5EEE17kOperandTypeInfosE, i32 0, i32 0), i8* getelementptr inbounds ([1 x i8], [1 x i8]* @_ZN2v88internal11interpreter14BytecodeTraitsILNS1_19ImplicitRegisterUseE1EJLNS1_11OperandTypeE5EEE17kOperandTypeInfosE, i32 0, i32 0), i8* getelementptr inbounds ([1 x i8], [1 x i8]* @_ZN2v88internal11interpreter14BytecodeTraitsILNS1_19ImplicitRegisterUseE1EJLNS1_11OperandTypeE5EEE17kOperandTypeInfosE, i32 0, i32 0), i8* getelementptr inbounds ([1 x i8], [1 x i8]* @_ZN2v88internal11interpreter14BytecodeTraitsILNS1_19ImplicitRegisterUseE1EJLNS1_11OperandTypeE5EEE17kOperandTypeInfosE, i32 0, i32 0), i8* getelementptr inbounds ([1 x i8], [1 x i8]* @_ZN2v88internal11interpreter14BytecodeTraitsILNS1_19ImplicitRegisterUseE1EJLNS1_11OperandTypeE5EEE17kOperandTypeInfosE, i32 0, i32 0), i8* getelementptr inbounds ([1 x i8], [1 x i8]* @_ZN2v88internal11interpreter14BytecodeTraitsILNS1_19ImplicitRegisterUseE1EJLNS1_11OperandTypeE6EEE17kOperandTypeInfosE, i32 0, i32 0), i8* getelementptr inbounds ([1 x i8], [1 x i8]* @_ZN2v88internal11interpreter14BytecodeTraitsILNS1_19ImplicitRegisterUseE1EJLNS1_11OperandTypeE6EEE17kOperandTypeInfosE, i32 0, i32 0), i8* getelementptr inbounds ([1 x i8], [1 x i8]* @_ZN2v88internal11interpreter14BytecodeTraitsILNS1_19ImplicitRegisterUseE1EJLNS1_11OperandTypeE6EEE17kOperandTypeInfosE, i32 0, i32 0), i8* getelementptr inbounds ([1 x i8], [1 x i8]* @_ZN2v88internal11interpreter14BytecodeTraitsILNS1_19ImplicitRegisterUseE1EJLNS1_11OperandTypeE6EEE17kOperandTypeInfosE, i32 0, i32 0), i8* getelementptr inbounds ([1 x i8], [1 x i8]* @_ZN2v88internal11interpreter14BytecodeTraitsILNS1_19ImplicitRegisterUseE1EJLNS1_11OperandTypeE6EEE17kOperandTypeInfosE, i32 0, i32 0), i8* getelementptr inbounds ([1 x i8], [1 x i8]* @_ZN2v88internal11interpreter14BytecodeTraitsILNS1_19ImplicitRegisterUseE1EJLNS1_11OperandTypeE6EEE17kOperandTypeInfosE, i32 0, i32 0), i8* getelementptr inbounds ([1 x i8], [1 x i8]* @_ZN2v88internal11interpreter14BytecodeTraitsILNS1_19ImplicitRegisterUseE1EJLNS1_11OperandTypeE6EEE17kOperandTypeInfosE, i32 0, i32 0), i8* getelementptr inbounds ([1 x i8], [1 x i8]* @_ZN2v88internal11interpreter14BytecodeTraitsILNS1_19ImplicitRegisterUseE1EJLNS1_11OperandTypeE6EEE17kOperandTypeInfosE, i32 0, i32 0), i8* getelementptr inbounds ([1 x i8], [1 x i8]* @_ZN2v88internal11interpreter14BytecodeTraitsILNS1_19ImplicitRegisterUseE1EJLNS1_11OperandTypeE6EEE17kOperandTypeInfosE, i32 0, i32 0), i8* getelementptr inbounds ([1 x i8], [1 x i8]* @_ZN2v88internal11interpreter14BytecodeTraitsILNS1_19ImplicitRegisterUseE1EJLNS1_11OperandTypeE6EEE17kOperandTypeInfosE, i32 0, i32 0), i8* getelementptr inbounds ([3 x i8], [3 x i8]* @_ZN2v88internal11interpreter14BytecodeTraitsILNS1_19ImplicitRegisterUseE1EJLNS1_11OperandTypeE5ELS4_6ELS4_8EEE17kOperandTypeInfosE, i32 0, i32 0), i8* getelementptr inbounds ([1 x i8], [1 x i8]* @_ZN2v88internal11interpreter14BytecodeTraitsILNS1_19ImplicitRegisterUseE2EJLNS1_11OperandTypeE9EEE17kOperandTypeInfosE, i32 0, i32 0), i8* getelementptr inbounds ([2 x i8], [2 x i8]* @_ZN2v88internal11interpreter14BytecodeTraitsILNS1_19ImplicitRegisterUseE1EJLNS1_11OperandTypeE15ELS4_5EEE17kOperandTypeInfosE, i32 0, i32 0), i8* getelementptr inbounds ([2 x i8], [2 x i8]* @_ZN2v88internal11interpreter14BytecodeTraitsILNS1_19ImplicitRegisterUseE2EJLNS1_11OperandTypeE9ELS4_9EEE17kOperandTypeInfosE, i32 0, i32 0), i8* getelementptr inbounds ([4 x i8], [4 x i8]* @_ZN2v88internal11interpreter14BytecodeTraitsILNS1_19ImplicitRegisterUseE2EJLNS1_11OperandTypeE9ELS4_9ELS4_11ELS4_5EEE17kOperandTypeInfosE, i32 0, i32 0), i8* getelementptr inbounds ([1 x i8], [1 x i8]* @_ZN2v88internal11interpreter14BytecodeTraitsILNS1_19ImplicitRegisterUseE2EJLNS1_11OperandTypeE9EEE17kOperandTypeInfosE, i32 0, i32 0), i8* getelementptr inbounds ([1 x i8], [1 x i8]* @_ZN2v88internal11interpreter14BytecodeTraitsILNS1_19ImplicitRegisterUseE3EJEE17kOperandTypeInfosE, i32 0, i32 0), i8* getelementptr inbounds ([1 x i8], [1 x i8]* @_ZN2v88internal11interpreter14BytecodeTraitsILNS1_19ImplicitRegisterUseE1EJEE17kOperandTypeInfosE, i32 0, i32 0), i8* getelementptr inbounds ([1 x i8], [1 x i8]* @_ZN2v88internal11interpreter14BytecodeTraitsILNS1_19ImplicitRegisterUseE1EJEE17kOperandTypeInfosE, i32 0, i32 0), i8* getelementptr inbounds ([1 x i8], [1 x i8]* @_ZN2v88internal11interpreter14BytecodeTraitsILNS1_19ImplicitRegisterUseE1EJEE17kOperandTypeInfosE, i32 0, i32 0), i8* getelementptr inbounds ([1 x i8], [1 x i8]* @_ZN2v88internal11interpreter14BytecodeTraitsILNS1_19ImplicitRegisterUseE1EJLNS1_11OperandTypeE5EEE17kOperandTypeInfosE, i32 0, i32 0), i8* getelementptr inbounds ([1 x i8], [1 x i8]* @_ZN2v88internal11interpreter14BytecodeTraitsILNS1_19ImplicitRegisterUseE1EJEE17kOperandTypeInfosE, i32 0, i32 0), i8* getelementptr inbounds ([1 x i8], [1 x i8]* @_ZN2v88internal11interpreter14BytecodeTraitsILNS1_19ImplicitRegisterUseE1EJEE17kOperandTypeInfosE, i32 0, i32 0), i8* getelementptr inbounds ([1 x i8], [1 x i8]* @_ZN2v88internal11interpreter14BytecodeTraitsILNS1_19ImplicitRegisterUseE0EJLNS1_11OperandTypeE9EEE17kOperandTypeInfosE, i32 0, i32 0), i8* getelementptr inbounds ([3 x i8], [3 x i8]* @_ZN2v88internal11interpreter14BytecodeTraitsILNS1_19ImplicitRegisterUseE0EJLNS1_11OperandTypeE9ELS4_5ELS4_6EEE17kOperandTypeInfosE, i32 0, i32 0), i8* getelementptr inbounds ([4 x i8], [4 x i8]* @_ZN2v88internal11interpreter14BytecodeTraitsILNS1_19ImplicitRegisterUseE1EJLNS1_11OperandTypeE9ELS4_10ELS4_7ELS4_6EEE17kOperandTypeInfosE, i32 0, i32 0), i8* getelementptr inbounds ([3 x i8], [3 x i8]* @_ZN2v88internal11interpreter14BytecodeTraitsILNS1_19ImplicitRegisterUseE2EJLNS1_11OperandTypeE9ELS4_13ELS4_7EEE17kOperandTypeInfosE, i32 0, i32 0), i8* getelementptr inbounds ([3 x i8], [3 x i8]* @_ZN2v88internal11interpreter14BytecodeTraitsILNS1_19ImplicitRegisterUseE2EJLNS1_11OperandTypeE9ELS4_5ELS4_5EEE17kOperandTypeInfosE, i32 0, i32 0), i8* getelementptr inbounds ([1 x i8], [1 x i8]* @_ZN2v88internal11interpreter14BytecodeTraitsILNS1_19ImplicitRegisterUseE0EJEE17kOperandTypeInfosE, i32 0, i32 0), i8* getelementptr inbounds ([1 x i8], [1 x i8]* @_ZN2v88internal11interpreter14BytecodeTraitsILNS1_19ImplicitRegisterUseE0EJLNS1_11OperandTypeE5EEE17kOperandTypeInfosE, i32 0, i32 0), i8* getelementptr inbounds ([1 x i8], [1 x i8]* @_ZN2v88internal11interpreter14BytecodeTraitsILNS1_19ImplicitRegisterUseE0EJLNS1_11OperandTypeE5EEE17kOperandTypeInfosE, i32 0, i32 0), i8* getelementptr inbounds ([1 x i8], [1 x i8]* @_ZN2v88internal11interpreter14BytecodeTraitsILNS1_19ImplicitRegisterUseE5EJEE17kOperandTypeInfosE, i32 0, i32 0), i8* getelementptr inbounds ([1 x i8], [1 x i8]* @_ZN2v88internal11interpreter14BytecodeTraitsILNS1_19ImplicitRegisterUseE5EJEE17kOperandTypeInfosE, i32 0, i32 0), i8* getelementptr inbounds ([1 x i8], [1 x i8]* @_ZN2v88internal11interpreter14BytecodeTraitsILNS1_19ImplicitRegisterUseE5EJEE17kOperandTypeInfosE, i32 0, i32 0), i8* getelementptr inbounds ([1 x i8], [1 x i8]* @_ZN2v88internal11interpreter14BytecodeTraitsILNS1_19ImplicitRegisterUseE5EJEE17kOperandTypeInfosE, i32 0, i32 0), i8* getelementptr inbounds ([1 x i8], [1 x i8]* @_ZN2v88internal11interpreter14BytecodeTraitsILNS1_19ImplicitRegisterUseE5EJEE17kOperandTypeInfosE, i32 0, i32 0), i8* getelementptr inbounds ([1 x i8], [1 x i8]* @_ZN2v88internal11interpreter14BytecodeTraitsILNS1_19ImplicitRegisterUseE5EJEE17kOperandTypeInfosE, i32 0, i32 0), i8* getelementptr inbounds ([1 x i8], [1 x i8]* @_ZN2v88internal11interpreter14BytecodeTraitsILNS1_19ImplicitRegisterUseE5EJEE17kOperandTypeInfosE, i32 0, i32 0), i8* getelementptr inbounds ([1 x i8], [1 x i8]* @_ZN2v88internal11interpreter14BytecodeTraitsILNS1_19ImplicitRegisterUseE5EJEE17kOperandTypeInfosE, i32 0, i32 0), i8* getelementptr inbounds ([1 x i8], [1 x i8]* @_ZN2v88internal11interpreter14BytecodeTraitsILNS1_19ImplicitRegisterUseE5EJEE17kOperandTypeInfosE, i32 0, i32 0), i8* getelementptr inbounds ([1 x i8], [1 x i8]* @_ZN2v88internal11interpreter14BytecodeTraitsILNS1_19ImplicitRegisterUseE5EJEE17kOperandTypeInfosE, i32 0, i32 0), i8* getelementptr inbounds ([1 x i8], [1 x i8]* @_ZN2v88internal11interpreter14BytecodeTraitsILNS1_19ImplicitRegisterUseE5EJEE17kOperandTypeInfosE, i32 0, i32 0), i8* getelementptr inbounds ([1 x i8], [1 x i8]* @_ZN2v88internal11interpreter14BytecodeTraitsILNS1_19ImplicitRegisterUseE5EJEE17kOperandTypeInfosE, i32 0, i32 0), i8* getelementptr inbounds ([1 x i8], [1 x i8]* @_ZN2v88internal11interpreter14BytecodeTraitsILNS1_19ImplicitRegisterUseE5EJEE17kOperandTypeInfosE, i32 0, i32 0), i8* getelementptr inbounds ([1 x i8], [1 x i8]* @_ZN2v88internal11interpreter14BytecodeTraitsILNS1_19ImplicitRegisterUseE5EJEE17kOperandTypeInfosE, i32 0, i32 0), i8* getelementptr inbounds ([1 x i8], [1 x i8]* @_ZN2v88internal11interpreter14BytecodeTraitsILNS1_19ImplicitRegisterUseE5EJEE17kOperandTypeInfosE, i32 0, i32 0), i8* getelementptr inbounds ([1 x i8], [1 x i8]* @_ZN2v88internal11interpreter14BytecodeTraitsILNS1_19ImplicitRegisterUseE5EJEE17kOperandTypeInfosE, i32 0, i32 0), i8* getelementptr inbounds ([1 x i8], [1 x i8]* @_ZN2v88internal11interpreter14BytecodeTraitsILNS1_19ImplicitRegisterUseE0EJEE17kOperandTypeInfosE, i32 0, i32 0)], align 16
@_ZN2v88internal11interpreter9Bytecodes13kOperandCountE = hidden local_unnamed_addr constant <{ [180 x i32], [17 x i32] }> <{ [180 x i32] [i32 0, i32 0, i32 0, i32 0, i32 0, i32 1, i32 2, i32 3, i32 4, i32 3, i32 4, i32 1, i32 0, i32 1, i32 0, i32 0, i32 0, i32 0, i32 0, i32 1, i32 3, i32 3, i32 1, i32 1, i32 1, i32 2, i32 1, i32 1, i32 1, i32 0, i32 0, i32 0, i32 1, i32 2, i32 2, i32 2, i32 3, i32 1, i32 1, i32 3, i32 3, i32 1, i32 3, i32 3, i32 2, i32 3, i32 3, i32 2, i32 2, i32 2, i32 3, i32 3, i32 3, i32 3, i32 4, i32 1, i32 2, i32 2, i32 2, i32 2, i32 2, i32 2, i32 2, i32 2, i32 2, i32 2, i32 2, i32 2, i32 2, i32 2, i32 2, i32 2, i32 2, i32 2, i32 2, i32 2, i32 2, i32 2, i32 2, i32 2, i32 1, i32 1, i32 1, i32 1, i32 0, i32 0, i32 0, i32 1, i32 1, i32 1, i32 4, i32 4, i32 3, i32 4, i32 5, i32 4, i32 2, i32 3, i32 4, i32 4, i32 3, i32 4, i32 3, i32 3, i32 4, i32 4, i32 2, i32 2, i32 2, i32 2, i32 2, i32 2, i32 2, i32 2, i32 1, i32 1, i32 1, i32 1, i32 0, i32 3, i32 3, i32 0, i32 1, i32 3, i32 0, i32 3, i32 2, i32 3, i32 1, i32 2, i32 2, i32 2, i32 2, i32 0, i32 0, i32 0, i32 2, i32 1, i32 1, i32 1, i32 1, i32 1, i32 1, i32 1, i32 1, i32 1, i32 1, i32 1, i32 1, i32 1, i32 1, i32 1, i32 1, i32 1, i32 1, i32 1, i32 1, i32 1, i32 1, i32 3, i32 1, i32 2, i32 2, i32 4, i32 1, i32 0, i32 0, i32 0, i32 0, i32 1, i32 0, i32 0, i32 1, i32 3, i32 4, i32 3, i32 3, i32 0, i32 1, i32 1], [17 x i32] zeroinitializer }>, align 16
@_ZN2v88internal11interpreter9Bytecodes20kImplicitRegisterUseE = hidden local_unnamed_addr constant [197 x i8] c"\00\00\03\03\03\03\03\03\03\03\03\02\02\02\02\02\02\02\02\02\02\02\02\02\01\00\01\00\03\03\03\03\03\02\02\01\01\01\02\02\02\02\02\02\03\02\03\03\02\01\03\03\03\03\01\01\03\03\03\03\03\03\03\03\03\03\03\03\03\03\03\03\03\03\03\03\03\03\03\03\03\03\03\03\03\03\03\03\03\01\02\02\02\02\02\02\02\02\02\02\02\00\02\02\03\03\03\03\03\03\03\03\03\03\01\03\03\01\03\02\02\03\02\02\02\02\02\02\02\02\02\02\02\02\02\02\00\00\00\01\01\01\01\01\01\01\01\01\01\01\01\01\01\01\01\01\01\01\01\01\02\01\02\02\02\03\01\01\01\01\01\01\00\00\01\02\02\00\00\00\05\05\05\05\05\05\05\05\05\05\05\05\05\05\05\05\00", align 16
@_ZN2v88internal11interpreter9Bytecodes14kBytecodeSizesE = hidden local_unnamed_addr constant [3 x [197 x i8]] [[197 x i8] c"\01\01\01\01\01\02\03\04\05\05\06\02\01\02\01\01\01\01\01\02\04\04\02\02\02\03\02\02\02\01\01\01\02\03\03\03\04\02\02\04\04\02\04\04\03\04\04\03\03\03\04\04\04\04\05\02\03\03\03\03\03\03\03\03\03\03\03\03\03\03\03\03\03\03\03\03\03\03\03\03\02\02\02\02\01\01\01\02\02\02\05\05\04\05\06\05\03\04\05\05\05\06\04\04\05\05\03\03\03\03\03\03\03\03\02\02\02\02\01\04\04\01\02\04\01\04\03\04\02\03\03\03\03\01\01\01\03\02\02\02\02\02\02\02\02\02\02\02\02\02\02\02\02\02\02\02\02\02\02\04\02\03\03\05\02\01\01\01\01\02\01\01\02\04\05\04\04\01\02\02\01\01\01\01\01\01\01\01\01\01\01\01\01\01\01\01\01", [197 x i8] c"\01\01\01\01\01\03\05\07\09\07\09\03\01\03\01\01\01\01\01\03\07\07\03\03\03\05\03\03\03\01\01\01\02\05\05\05\07\03\03\07\07\03\07\07\04\07\07\05\05\05\07\07\07\07\08\03\05\05\05\05\05\05\05\05\05\05\05\05\05\05\05\05\05\05\05\05\05\05\05\05\03\03\03\03\01\01\01\03\03\03\09\09\07\09\0B\09\05\07\09\09\07\09\06\06\09\09\05\05\05\05\05\05\05\05\03\03\03\03\01\06\06\01\03\06\01\06\05\06\03\05\05\05\05\01\01\01\05\03\03\03\03\03\03\03\03\03\03\03\03\03\03\03\03\03\03\03\03\03\03\07\03\05\05\09\03\01\01\01\01\03\01\01\03\07\09\07\07\01\03\03\01\01\01\01\01\01\01\01\01\01\01\01\01\01\01\01\01", [197 x i8] c"\01\01\01\01\01\05\09\0D\11\0B\0F\05\01\05\01\01\01\01\01\05\0D\0D\05\05\05\09\05\05\05\01\01\01\02\09\09\09\0D\05\05\0D\0D\05\0D\0D\06\0D\0D\09\09\09\0D\0D\0D\0D\0E\05\09\09\09\09\09\09\09\09\09\09\09\09\09\09\09\09\09\09\09\09\09\09\09\09\05\05\05\05\01\01\01\05\05\05\11\11\0D\11\15\11\09\0D\11\11\0B\0F\0A\0A\11\11\09\09\09\09\09\09\09\09\05\05\05\05\01\0A\0A\01\05\0A\01\0A\09\0A\05\09\09\09\09\01\01\01\09\05\05\05\05\05\05\05\05\05\05\05\05\05\05\05\05\05\05\05\05\05\05\0D\05\09\09\11\05\01\01\01\01\05\01\01\05\0D\11\0D\0D\01\05\05\01\01\01\01\01\01\01\01\01\01\01\01\01\01\01\01\01"], align 16
@_ZN2v88internal11interpreter9Bytecodes13kOperandSizesE = hidden local_unnamed_addr constant [3 x [197 x i8*]] [[197 x i8*] [i8* getelementptr inbounds ([1 x i8], [1 x i8]* @_ZN2v88internal11interpreter14BytecodeTraitsILNS1_19ImplicitRegisterUseE0EJEE24kSingleScaleOperandSizesE, i32 0, i32 0), i8* getelementptr inbounds ([1 x i8], [1 x i8]* @_ZN2v88internal11interpreter14BytecodeTraitsILNS1_19ImplicitRegisterUseE0EJEE24kSingleScaleOperandSizesE, i32 0, i32 0), i8* getelementptr inbounds ([1 x i8], [1 x i8]* @_ZN2v88internal11interpreter14BytecodeTraitsILNS1_19ImplicitRegisterUseE3EJEE24kSingleScaleOperandSizesE, i32 0, i32 0), i8* getelementptr inbounds ([1 x i8], [1 x i8]* @_ZN2v88internal11interpreter14BytecodeTraitsILNS1_19ImplicitRegisterUseE3EJEE24kSingleScaleOperandSizesE, i32 0, i32 0), i8* getelementptr inbounds ([1 x i8], [1 x i8]* @_ZN2v88internal11interpreter14BytecodeTraitsILNS1_19ImplicitRegisterUseE3EJEE24kSingleScaleOperandSizesE, i32 0, i32 0), i8* getelementptr inbounds ([1 x i8], [1 x i8]* @_ZN2v88internal11interpreter14BytecodeTraitsILNS1_19ImplicitRegisterUseE3EJLNS1_11OperandTypeE9EEE24kSingleScaleOperandSizesE, i32 0, i32 0), i8* getelementptr inbounds ([2 x i8], [2 x i8]* @_ZN2v88internal11interpreter14BytecodeTraitsILNS1_19ImplicitRegisterUseE3EJLNS1_11OperandTypeE9ELS4_9EEE24kSingleScaleOperandSizesE, i32 0, i32 0), i8* getelementptr inbounds ([3 x i8], [3 x i8]* @_ZN2v88internal11interpreter14BytecodeTraitsILNS1_19ImplicitRegisterUseE3EJLNS1_11OperandTypeE9ELS4_9ELS4_9EEE24kSingleScaleOperandSizesE, i32 0, i32 0), i8* getelementptr inbounds ([4 x i8], [4 x i8]* @_ZN2v88internal11interpreter14BytecodeTraitsILNS1_19ImplicitRegisterUseE3EJLNS1_11OperandTypeE9ELS4_9ELS4_9ELS4_9EEE24kSingleScaleOperandSizesE, i32 0, i32 0), i8* getelementptr inbounds ([3 x i8], [3 x i8]* @_ZN2v88internal11interpreter14BytecodeTraitsILNS1_19ImplicitRegisterUseE3EJLNS1_11OperandTypeE3ELS4_9ELS4_9EEE24kSingleScaleOperandSizesE, i32 0, i32 0), i8* getelementptr inbounds ([4 x i8], [4 x i8]* @_ZN2v88internal11interpreter14BytecodeTraitsILNS1_19ImplicitRegisterUseE3EJLNS1_11OperandTypeE3ELS4_9ELS4_9ELS4_9EEE24kSingleScaleOperandSizesE, i32 0, i32 0), i8* getelementptr inbounds ([1 x i8], [1 x i8]* @_ZN2v88internal11interpreter14BytecodeTraitsILNS1_19ImplicitRegisterUseE2EJLNS1_11OperandTypeE9EEE24kSingleScaleOperandSizesE, i32 0, i32 0), i8* getelementptr inbounds ([1 x i8], [1 x i8]* @_ZN2v88internal11interpreter14BytecodeTraitsILNS1_19ImplicitRegisterUseE2EJEE24kSingleScaleOperandSizesE, i32 0, i32 0), i8* getelementptr inbounds ([1 x i8], [1 x i8]* @_ZN2v88internal11interpreter14BytecodeTraitsILNS1_19ImplicitRegisterUseE2EJLNS1_11OperandTypeE8EEE24kSingleScaleOperandSizesE, i32 0, i32 0), i8* getelementptr inbounds ([1 x i8], [1 x i8]* @_ZN2v88internal11interpreter14BytecodeTraitsILNS1_19ImplicitRegisterUseE2EJEE24kSingleScaleOperandSizesE, i32 0, i32 0), i8* getelementptr inbounds ([1 x i8], [1 x i8]* @_ZN2v88internal11interpreter14BytecodeTraitsILNS1_19ImplicitRegisterUseE2EJEE24kSingleScaleOperandSizesE, i32 0, i32 0), i8* getelementptr inbounds ([1 x i8], [1 x i8]* @_ZN2v88internal11interpreter14BytecodeTraitsILNS1_19ImplicitRegisterUseE2EJEE24kSingleScaleOperandSizesE, i32 0, i32 0), i8* getelementptr inbounds ([1 x i8], [1 x i8]* @_ZN2v88internal11interpreter14BytecodeTraitsILNS1_19ImplicitRegisterUseE2EJEE24kSingleScaleOperandSizesE, i32 0, i32 0), i8* getelementptr inbounds ([1 x i8], [1 x i8]* @_ZN2v88internal11interpreter14BytecodeTraitsILNS1_19ImplicitRegisterUseE2EJEE24kSingleScaleOperandSizesE, i32 0, i32 0), i8* getelementptr inbounds ([1 x i8], [1 x i8]* @_ZN2v88internal11interpreter14BytecodeTraitsILNS1_19ImplicitRegisterUseE2EJLNS1_11OperandTypeE5EEE24kSingleScaleOperandSizesE, i32 0, i32 0), i8* getelementptr inbounds ([3 x i8], [3 x i8]* @_ZN2v88internal11interpreter14BytecodeTraitsILNS1_19ImplicitRegisterUseE2EJLNS1_11OperandTypeE9ELS4_5ELS4_6EEE24kSingleScaleOperandSizesE, i32 0, i32 0), i8* getelementptr inbounds ([3 x i8], [3 x i8]* @_ZN2v88internal11interpreter14BytecodeTraitsILNS1_19ImplicitRegisterUseE2EJLNS1_11OperandTypeE9ELS4_5ELS4_6EEE24kSingleScaleOperandSizesE, i32 0, i32 0), i8* getelementptr inbounds ([1 x i8], [1 x i8]* @_ZN2v88internal11interpreter14BytecodeTraitsILNS1_19ImplicitRegisterUseE2EJLNS1_11OperandTypeE5EEE24kSingleScaleOperandSizesE, i32 0, i32 0), i8* getelementptr inbounds ([1 x i8], [1 x i8]* @_ZN2v88internal11interpreter14BytecodeTraitsILNS1_19ImplicitRegisterUseE2EJLNS1_11OperandTypeE5EEE24kSingleScaleOperandSizesE, i32 0, i32 0), i8* getelementptr inbounds ([1 x i8], [1 x i8]* @_ZN2v88internal11interpreter14BytecodeTraitsILNS1_19ImplicitRegisterUseE1EJLNS1_11OperandTypeE12EEE24kSingleScaleOperandSizesE, i32 0, i32 0), i8* getelementptr inbounds ([2 x i8], [2 x i8]* @_ZN2v88internal11interpreter14BytecodeTraitsILNS1_19ImplicitRegisterUseE0EJLNS1_11OperandTypeE9ELS4_12EEE24kSingleScaleOperandSizesE, i32 0, i32 0), i8* getelementptr inbounds ([1 x i8], [1 x i8]* @_ZN2v88internal11interpreter14BytecodeTraitsILNS1_19ImplicitRegisterUseE1EJLNS1_11OperandTypeE12EEE24kSingleScaleOperandSizesE, i32 0, i32 0), i8* getelementptr inbounds ([1 x i8], [1 x i8]* @_ZN2v88internal11interpreter14BytecodeTraitsILNS1_19ImplicitRegisterUseE0EJLNS1_11OperandTypeE9EEE24kSingleScaleOperandSizesE, i32 0, i32 0), i8* getelementptr inbounds ([1 x i8], [1 x i8]* @_ZN2v88internal11interpreter14BytecodeTraitsILNS1_19ImplicitRegisterUseE3EJLNS1_11OperandTypeE9EEE24kSingleScaleOperandSizesE, i32 0, i32 0), i8* getelementptr inbounds ([1 x i8], [1 x i8]* @_ZN2v88internal11interpreter14BytecodeTraitsILNS1_19ImplicitRegisterUseE3EJEE24kSingleScaleOperandSizesE, i32 0, i32 0), i8* getelementptr inbounds ([1 x i8], [1 x i8]* @_ZN2v88internal11interpreter14BytecodeTraitsILNS1_19ImplicitRegisterUseE3EJEE24kSingleScaleOperandSizesE, i32 0, i32 0), i8* getelementptr inbounds ([1 x i8], [1 x i8]* @_ZN2v88internal11interpreter14BytecodeTraitsILNS1_19ImplicitRegisterUseE3EJEE24kSingleScaleOperandSizesE, i32 0, i32 0), i8* getelementptr inbounds ([1 x i8], [1 x i8]* @_ZN2v88internal11interpreter14BytecodeTraitsILNS1_19ImplicitRegisterUseE3EJLNS1_11OperandTypeE1EEE24kSingleScaleOperandSizesE, i32 0, i32 0), i8* getelementptr inbounds ([2 x i8], [2 x i8]* @_ZN2v88internal11interpreter14BytecodeTraitsILNS1_19ImplicitRegisterUseE2EJLNS1_11OperandTypeE5ELS4_5EEE24kSingleScaleOperandSizesE, i32 0, i32 0), i8* getelementptr inbounds ([2 x i8], [2 x i8]* @_ZN2v88internal11interpreter14BytecodeTraitsILNS1_19ImplicitRegisterUseE2EJLNS1_11OperandTypeE5ELS4_5EEE24kSingleScaleOperandSizesE, i32 0, i32 0), i8* getelementptr inbounds ([2 x i8], [2 x i8]* @_ZN2v88internal11interpreter14BytecodeTraitsILNS1_19ImplicitRegisterUseE1EJLNS1_11OperandTypeE5ELS4_5EEE24kSingleScaleOperandSizesE, i32 0, i32 0), i8* getelementptr inbounds ([3 x i8], [3 x i8]* @_ZN2v88internal11interpreter14BytecodeTraitsILNS1_19ImplicitRegisterUseE1EJLNS1_11OperandTypeE9ELS4_5ELS4_6EEE24kSingleScaleOperandSizesE, i32 0, i32 0), i8* getelementptr inbounds ([1 x i8], [1 x i8]* @_ZN2v88internal11interpreter14BytecodeTraitsILNS1_19ImplicitRegisterUseE1EJLNS1_11OperandTypeE5EEE24kSingleScaleOperandSizesE, i32 0, i32 0), i8* getelementptr inbounds ([1 x i8], [1 x i8]* @_ZN2v88internal11interpreter14BytecodeTraitsILNS1_19ImplicitRegisterUseE2EJLNS1_11OperandTypeE5EEE24kSingleScaleOperandSizesE, i32 0, i32 0), i8* getelementptr inbounds ([3 x i8], [3 x i8]* @_ZN2v88internal11interpreter14BytecodeTraitsILNS1_19ImplicitRegisterUseE2EJLNS1_11OperandTypeE5ELS4_5ELS4_6EEE24kSingleScaleOperandSizesE, i32 0, i32 0), i8* getelementptr inbounds ([3 x i8], [3 x i8]* @_ZN2v88internal11interpreter14BytecodeTraitsILNS1_19ImplicitRegisterUseE2EJLNS1_11OperandTypeE5ELS4_5ELS4_6EEE24kSingleScaleOperandSizesE, i32 0, i32 0), i8* getelementptr inbounds ([1 x i8], [1 x i8]* @_ZN2v88internal11interpreter14BytecodeTraitsILNS1_19ImplicitRegisterUseE2EJLNS1_11OperandTypeE5EEE24kSingleScaleOperandSizesE, i32 0, i32 0), i8* getelementptr inbounds ([3 x i8], [3 x i8]* @_ZN2v88internal11interpreter14BytecodeTraitsILNS1_19ImplicitRegisterUseE2EJLNS1_11OperandTypeE5ELS4_5ELS4_6EEE24kSingleScaleOperandSizesE, i32 0, i32 0), i8* getelementptr inbounds ([3 x i8], [3 x i8]* @_ZN2v88internal11interpreter14BytecodeTraitsILNS1_19ImplicitRegisterUseE2EJLNS1_11OperandTypeE5ELS4_5ELS4_6EEE24kSingleScaleOperandSizesE, i32 0, i32 0), i8* getelementptr inbounds ([2 x i8], [2 x i8]* @_ZN2v88internal11interpreter14BytecodeTraitsILNS1_19ImplicitRegisterUseE3EJLNS1_11OperandTypeE5ELS4_1EEE24kSingleScaleOperandSizesE, i32 0, i32 0), i8* getelementptr inbounds ([3 x i8], [3 x i8]* @_ZN2v88internal11interpreter14BytecodeTraitsILNS1_19ImplicitRegisterUseE2EJLNS1_11OperandTypeE9ELS4_5ELS4_5EEE24kSingleScaleOperandSizesE, i32 0, i32 0), i8* getelementptr inbounds ([3 x i8], [3 x i8]* @_ZN2v88internal11interpreter14BytecodeTraitsILNS1_19ImplicitRegisterUseE3EJLNS1_11OperandTypeE9ELS4_5ELS4_5EEE24kSingleScaleOperandSizesE, i32 0, i32 0), i8* getelementptr inbounds ([2 x i8], [2 x i8]* @_ZN2v88internal11interpreter14BytecodeTraitsILNS1_19ImplicitRegisterUseE3EJLNS1_11OperandTypeE9ELS4_5EEE24kSingleScaleOperandSizesE, i32 0, i32 0), i8* getelementptr inbounds ([2 x i8], [2 x i8]* @_ZN2v88internal11interpreter14BytecodeTraitsILNS1_19ImplicitRegisterUseE2EJLNS1_11OperandTypeE8ELS4_6EEE24kSingleScaleOperandSizesE, i32 0, i32 0), i8* getelementptr inbounds ([2 x i8], [2 x i8]* @_ZN2v88internal11interpreter14BytecodeTraitsILNS1_19ImplicitRegisterUseE1EJLNS1_11OperandTypeE8ELS4_6EEE24kSingleScaleOperandSizesE, i32 0, i32 0), i8* getelementptr inbounds ([3 x i8], [3 x i8]* @_ZN2v88internal11interpreter14BytecodeTraitsILNS1_19ImplicitRegisterUseE3EJLNS1_11OperandTypeE9ELS4_5ELS4_5EEE24kSingleScaleOperandSizesE, i32 0, i32 0), i8* getelementptr inbounds ([3 x i8], [3 x i8]* @_ZN2v88internal11interpreter14BytecodeTraitsILNS1_19ImplicitRegisterUseE3EJLNS1_11OperandTypeE9ELS4_5ELS4_5EEE24kSingleScaleOperandSizesE, i32 0, i32 0), i8* getelementptr inbounds ([3 x i8], [3 x i8]* @_ZN2v88internal11interpreter14BytecodeTraitsILNS1_19ImplicitRegisterUseE3EJLNS1_11OperandTypeE9ELS4_9ELS4_5EEE24kSingleScaleOperandSizesE, i32 0, i32 0), i8* getelementptr inbounds ([3 x i8], [3 x i8]* @_ZN2v88internal11interpreter14BytecodeTraitsILNS1_19ImplicitRegisterUseE3EJLNS1_11OperandTypeE9ELS4_9ELS4_5EEE24kSingleScaleOperandSizesE, i32 0, i32 0), i8* getelementptr inbounds ([4 x i8], [4 x i8]* @_ZN2v88internal11interpreter14BytecodeTraitsILNS1_19ImplicitRegisterUseE1EJLNS1_11OperandTypeE9ELS4_9ELS4_1ELS4_5EEE24kSingleScaleOperandSizesE, i32 0, i32 0), i8* getelementptr inbounds ([1 x i8], [1 x i8]* @_ZN2v88internal11interpreter14BytecodeTraitsILNS1_19ImplicitRegisterUseE1EJLNS1_11OperandTypeE8EEE24kSingleScaleOperandSizesE, i32 0, i32 0), i8* getelementptr inbounds ([2 x i8], [2 x i8]* @_ZN2v88internal11interpreter14BytecodeTraitsILNS1_19ImplicitRegisterUseE3EJLNS1_11OperandTypeE9ELS4_5EEE24kSingleScaleOperandSizesE, i32 0, i32 0), i8* getelementptr inbounds ([2 x i8], [2 x i8]* @_ZN2v88internal11interpreter14BytecodeTraitsILNS1_19ImplicitRegisterUseE3EJLNS1_11OperandTypeE9ELS4_5EEE24kSingleScaleOperandSizesE, i32 0, i32 0), i8* getelementptr inbounds ([2 x i8], [2 x i8]* @_ZN2v88internal11interpreter14BytecodeTraitsILNS1_19ImplicitRegisterUseE3EJLNS1_11OperandTypeE9ELS4_5EEE24kSingleScaleOperandSizesE, i32 0, i32 0), i8* getelementptr inbounds ([2 x i8], [2 x i8]* @_ZN2v88internal11interpreter14BytecodeTraitsILNS1_19ImplicitRegisterUseE3EJLNS1_11OperandTypeE9ELS4_5EEE24kSingleScaleOperandSizesE, i32 0, i32 0), i8* getelementptr inbounds ([2 x i8], [2 x i8]* @_ZN2v88internal11interpreter14BytecodeTraitsILNS1_19ImplicitRegisterUseE3EJLNS1_11OperandTypeE9ELS4_5EEE24kSingleScaleOperandSizesE, i32 0, i32 0), i8* getelementptr inbounds ([2 x i8], [2 x i8]* @_ZN2v88internal11interpreter14BytecodeTraitsILNS1_19ImplicitRegisterUseE3EJLNS1_11OperandTypeE9ELS4_5EEE24kSingleScaleOperandSizesE, i32 0, i32 0), i8* getelementptr inbounds ([2 x i8], [2 x i8]* @_ZN2v88internal11interpreter14BytecodeTraitsILNS1_19ImplicitRegisterUseE3EJLNS1_11OperandTypeE9ELS4_5EEE24kSingleScaleOperandSizesE, i32 0, i32 0), i8* getelementptr inbounds ([2 x i8], [2 x i8]* @_ZN2v88internal11interpreter14BytecodeTraitsILNS1_19ImplicitRegisterUseE3EJLNS1_11OperandTypeE9ELS4_5EEE24kSingleScaleOperandSizesE, i32 0, i32 0), i8* getelementptr inbounds ([2 x i8], [2 x i8]* @_ZN2v88internal11interpreter14BytecodeTraitsILNS1_19ImplicitRegisterUseE3EJLNS1_11OperandTypeE9ELS4_5EEE24kSingleScaleOperandSizesE, i32 0, i32 0), i8* getelementptr inbounds ([2 x i8], [2 x i8]* @_ZN2v88internal11interpreter14BytecodeTraitsILNS1_19ImplicitRegisterUseE3EJLNS1_11OperandTypeE9ELS4_5EEE24kSingleScaleOperandSizesE, i32 0, i32 0), i8* getelementptr inbounds ([2 x i8], [2 x i8]* @_ZN2v88internal11interpreter14BytecodeTraitsILNS1_19ImplicitRegisterUseE3EJLNS1_11OperandTypeE9ELS4_5EEE24kSingleScaleOperandSizesE, i32 0, i32 0), i8* getelementptr inbounds ([2 x i8], [2 x i8]* @_ZN2v88internal11interpreter14BytecodeTraitsILNS1_19ImplicitRegisterUseE3EJLNS1_11OperandTypeE9ELS4_5EEE24kSingleScaleOperandSizesE, i32 0, i32 0), i8* getelementptr inbounds ([2 x i8], [2 x i8]* @_ZN2v88internal11interpreter14BytecodeTraitsILNS1_19ImplicitRegisterUseE3EJLNS1_11OperandTypeE8ELS4_5EEE24kSingleScaleOperandSizesE, i32 0, i32 0), i8* getelementptr inbounds ([2 x i8], [2 x i8]* @_ZN2v88internal11interpreter14BytecodeTraitsILNS1_19ImplicitRegisterUseE3EJLNS1_11OperandTypeE8ELS4_5EEE24kSingleScaleOperandSizesE, i32 0, i32 0), i8* getelementptr inbounds ([2 x i8], [2 x i8]* @_ZN2v88internal11interpreter14BytecodeTraitsILNS1_19ImplicitRegisterUseE3EJLNS1_11OperandTypeE8ELS4_5EEE24kSingleScaleOperandSizesE, i32 0, i32 0), i8* getelementptr inbounds ([2 x i8], [2 x i8]* @_ZN2v88internal11interpreter14BytecodeTraitsILNS1_19ImplicitRegisterUseE3EJLNS1_11OperandTypeE8ELS4_5EEE24kSingleScaleOperandSizesE, i32 0, i32 0), i8* getelementptr inbounds ([2 x i8], [2 x i8]* @_ZN2v88internal11interpreter14BytecodeTraitsILNS1_19ImplicitRegisterUseE3EJLNS1_11OperandTypeE8ELS4_5EEE24kSingleScaleOperandSizesE, i32 0, i32 0), i8* getelementptr inbounds ([2 x i8], [2 x i8]* @_ZN2v88internal11interpreter14BytecodeTraitsILNS1_19ImplicitRegisterUseE3EJLNS1_11OperandTypeE8ELS4_5EEE24kSingleScaleOperandSizesE, i32 0, i32 0), i8* getelementptr inbounds ([2 x i8], [2 x i8]* @_ZN2v88internal11interpreter14BytecodeTraitsILNS1_19ImplicitRegisterUseE3EJLNS1_11OperandTypeE8ELS4_5EEE24kSingleScaleOperandSizesE, i32 0, i32 0), i8* getelementptr inbounds ([2 x i8], [2 x i8]* @_ZN2v88internal11interpreter14BytecodeTraitsILNS1_19ImplicitRegisterUseE3EJLNS1_11OperandTypeE8ELS4_5EEE24kSingleScaleOperandSizesE, i32 0, i32 0), i8* getelementptr inbounds ([2 x i8], [2 x i8]* @_ZN2v88internal11interpreter14BytecodeTraitsILNS1_19ImplicitRegisterUseE3EJLNS1_11OperandTypeE8ELS4_5EEE24kSingleScaleOperandSizesE, i32 0, i32 0), i8* getelementptr inbounds ([2 x i8], [2 x i8]* @_ZN2v88internal11interpreter14BytecodeTraitsILNS1_19ImplicitRegisterUseE3EJLNS1_11OperandTypeE8ELS4_5EEE24kSingleScaleOperandSizesE, i32 0, i32 0), i8* getelementptr inbounds ([2 x i8], [2 x i8]* @_ZN2v88internal11interpreter14BytecodeTraitsILNS1_19ImplicitRegisterUseE3EJLNS1_11OperandTypeE8ELS4_5EEE24kSingleScaleOperandSizesE, i32 0, i32 0), i8* getelementptr inbounds ([2 x i8], [2 x i8]* @_ZN2v88internal11interpreter14BytecodeTraitsILNS1_19ImplicitRegisterUseE3EJLNS1_11OperandTypeE8ELS4_5EEE24kSingleScaleOperandSizesE, i32 0, i32 0), i8* getelementptr inbounds ([1 x i8], [1 x i8]* @_ZN2v88internal11interpreter14BytecodeTraitsILNS1_19ImplicitRegisterUseE3EJLNS1_11OperandTypeE5EEE24kSingleScaleOperandSizesE, i32 0, i32 0), i8* getelementptr inbounds ([1 x i8], [1 x i8]* @_ZN2v88internal11interpreter14BytecodeTraitsILNS1_19ImplicitRegisterUseE3EJLNS1_11OperandTypeE5EEE24kSingleScaleOperandSizesE, i32 0, i32 0), i8* getelementptr inbounds ([1 x i8], [1 x i8]* @_ZN2v88internal11interpreter14BytecodeTraitsILNS1_19ImplicitRegisterUseE3EJLNS1_11OperandTypeE5EEE24kSingleScaleOperandSizesE, i32 0, i32 0), i8* getelementptr inbounds ([1 x i8], [1 x i8]* @_ZN2v88internal11interpreter14BytecodeTraitsILNS1_19ImplicitRegisterUseE3EJLNS1_11OperandTypeE5EEE24kSingleScaleOperandSizesE, i32 0, i32 0), i8* getelementptr inbounds ([1 x i8], [1 x i8]* @_ZN2v88internal11interpreter14BytecodeTraitsILNS1_19ImplicitRegisterUseE3EJEE24kSingleScaleOperandSizesE, i32 0, i32 0), i8* getelementptr inbounds ([1 x i8], [1 x i8]* @_ZN2v88internal11interpreter14BytecodeTraitsILNS1_19ImplicitRegisterUseE3EJEE24kSingleScaleOperandSizesE, i32 0, i32 0), i8* getelementptr inbounds ([1 x i8], [1 x i8]* @_ZN2v88internal11interpreter14BytecodeTraitsILNS1_19ImplicitRegisterUseE3EJEE24kSingleScaleOperandSizesE, i32 0, i32 0), i8* getelementptr inbounds ([1 x i8], [1 x i8]* @_ZN2v88internal11interpreter14BytecodeTraitsILNS1_19ImplicitRegisterUseE3EJLNS1_11OperandTypeE9EEE24kSingleScaleOperandSizesE, i32 0, i32 0), i8* getelementptr inbounds ([1 x i8], [1 x i8]* @_ZN2v88internal11interpreter14BytecodeTraitsILNS1_19ImplicitRegisterUseE3EJLNS1_11OperandTypeE9EEE24kSingleScaleOperandSizesE, i32 0, i32 0), i8* getelementptr inbounds ([1 x i8], [1 x i8]* @_ZN2v88internal11interpreter14BytecodeTraitsILNS1_19ImplicitRegisterUseE1EJLNS1_11OperandTypeE12EEE24kSingleScaleOperandSizesE, i32 0, i32 0), i8* getelementptr inbounds ([4 x i8], [4 x i8]* @_ZN2v88internal11interpreter14BytecodeTraitsILNS1_19ImplicitRegisterUseE2EJLNS1_11OperandTypeE9ELS4_10ELS4_7ELS4_5EEE24kSingleScaleOperandSizesE, i32 0, i32 0), i8* getelementptr inbounds ([4 x i8], [4 x i8]* @_ZN2v88internal11interpreter14BytecodeTraitsILNS1_19ImplicitRegisterUseE2EJLNS1_11OperandTypeE9ELS4_10ELS4_7ELS4_5EEE24kSingleScaleOperandSizesE, i32 0, i32 0), i8* getelementptr inbounds ([3 x i8], [3 x i8]* @_ZN2v88internal11interpreter14BytecodeTraitsILNS1_19ImplicitRegisterUseE2EJLNS1_11OperandTypeE9ELS4_9ELS4_5EEE24kSingleScaleOperandSizesE, i32 0, i32 0), i8* getelementptr inbounds ([4 x i8], [4 x i8]* @_ZN2v88internal11interpreter14BytecodeTraitsILNS1_19ImplicitRegisterUseE2EJLNS1_11OperandTypeE9ELS4_9ELS4_9ELS4_5EEE24kSingleScaleOperandSizesE, i32 0, i32 0), i8* getelementptr inbounds ([5 x i8], [5 x i8]* @_ZN2v88internal11interpreter14BytecodeTraitsILNS1_19ImplicitRegisterUseE2EJLNS1_11OperandTypeE9ELS4_9ELS4_9ELS4_9ELS4_5EEE24kSingleScaleOperandSizesE, i32 0, i32 0), i8* getelementptr inbounds ([4 x i8], [4 x i8]* @_ZN2v88internal11interpreter14BytecodeTraitsILNS1_19ImplicitRegisterUseE2EJLNS1_11OperandTypeE9ELS4_10ELS4_7ELS4_5EEE24kSingleScaleOperandSizesE, i32 0, i32 0), i8* getelementptr inbounds ([2 x i8], [2 x i8]* @_ZN2v88internal11interpreter14BytecodeTraitsILNS1_19ImplicitRegisterUseE2EJLNS1_11OperandTypeE9ELS4_5EEE24kSingleScaleOperandSizesE, i32 0, i32 0), i8* getelementptr inbounds ([3 x i8], [3 x i8]* @_ZN2v88internal11interpreter14BytecodeTraitsILNS1_19ImplicitRegisterUseE2EJLNS1_11OperandTypeE9ELS4_9ELS4_5EEE24kSingleScaleOperandSizesE, i32 0, i32 0), i8* getelementptr inbounds ([4 x i8], [4 x i8]* @_ZN2v88internal11interpreter14BytecodeTraitsILNS1_19ImplicitRegisterUseE2EJLNS1_11OperandTypeE9ELS4_9ELS4_9ELS4_5EEE24kSingleScaleOperandSizesE, i32 0, i32 0), i8* getelementptr inbounds ([4 x i8], [4 x i8]* @_ZN2v88internal11interpreter14BytecodeTraitsILNS1_19ImplicitRegisterUseE2EJLNS1_11OperandTypeE9ELS4_10ELS4_7ELS4_5EEE24kSingleScaleOperandSizesE, i32 0, i32 0), i8* getelementptr inbounds ([3 x i8], [3 x i8]* @_ZN2v88internal11interpreter14BytecodeTraitsILNS1_19ImplicitRegisterUseE2EJLNS1_11OperandTypeE3ELS4_10ELS4_7EEE24kSingleScaleOperandSizesE, i32 0, i32 0), i8* getelementptr inbounds ([4 x i8], [4 x i8]* @_ZN2v88internal11interpreter14BytecodeTraitsILNS1_19ImplicitRegisterUseE0EJLNS1_11OperandTypeE3ELS4_10ELS4_7ELS4_14EEE24kSingleScaleOperandSizesE, i32 0, i32 0), i8* getelementptr inbounds ([3 x i8], [3 x i8]* @_ZN2v88internal11interpreter14BytecodeTraitsILNS1_19ImplicitRegisterUseE2EJLNS1_11OperandTypeE4ELS4_10ELS4_7EEE24kSingleScaleOperandSizesE, i32 0, i32 0), i8* getelementptr inbounds ([3 x i8], [3 x i8]* @_ZN2v88internal11interpreter14BytecodeTraitsILNS1_19ImplicitRegisterUseE2EJLNS1_11OperandTypeE2ELS4_10ELS4_7EEE24kSingleScaleOperandSizesE, i32 0, i32 0), i8* getelementptr inbounds ([4 x i8], [4 x i8]* @_ZN2v88internal11interpreter14BytecodeTraitsILNS1_19ImplicitRegisterUseE3EJLNS1_11OperandTypeE9ELS4_10ELS4_7ELS4_5EEE24kSingleScaleOperandSizesE, i32 0, i32 0), i8* getelementptr inbounds ([4 x i8], [4 x i8]* @_ZN2v88internal11interpreter14BytecodeTraitsILNS1_19ImplicitRegisterUseE3EJLNS1_11OperandTypeE9ELS4_10ELS4_7ELS4_5EEE24kSingleScaleOperandSizesE, i32 0, i32 0), i8* getelementptr inbounds ([2 x i8], [2 x i8]* @_ZN2v88internal11interpreter14BytecodeTraitsILNS1_19ImplicitRegisterUseE3EJLNS1_11OperandTypeE9ELS4_5EEE24kSingleScaleOperandSizesE, i32 0, i32 0), i8* getelementptr inbounds ([2 x i8], [2 x i8]* @_ZN2v88internal11interpreter14BytecodeTraitsILNS1_19ImplicitRegisterUseE3EJLNS1_11OperandTypeE9ELS4_5EEE24kSingleScaleOperandSizesE, i32 0, i32 0), i8* getelementptr inbounds ([2 x i8], [2 x i8]* @_ZN2v88internal11interpreter14BytecodeTraitsILNS1_19ImplicitRegisterUseE3EJLNS1_11OperandTypeE9ELS4_5EEE24kSingleScaleOperandSizesE, i32 0, i32 0), i8* getelementptr inbounds ([2 x i8], [2 x i8]* @_ZN2v88internal11interpreter14BytecodeTraitsILNS1_19ImplicitRegisterUseE3EJLNS1_11OperandTypeE9ELS4_5EEE24kSingleScaleOperandSizesE, i32 0, i32 0), i8* getelementptr inbounds ([2 x i8], [2 x i8]* @_ZN2v88internal11interpreter14BytecodeTraitsILNS1_19ImplicitRegisterUseE3EJLNS1_11OperandTypeE9ELS4_5EEE24kSingleScaleOperandSizesE, i32 0, i32 0), i8* getelementptr inbounds ([2 x i8], [2 x i8]* @_ZN2v88internal11interpreter14BytecodeTraitsILNS1_19ImplicitRegisterUseE3EJLNS1_11OperandTypeE9ELS4_5EEE24kSingleScaleOperandSizesE, i32 0, i32 0), i8* getelementptr inbounds ([2 x i8], [2 x i8]* @_ZN2v88internal11interpreter14BytecodeTraitsILNS1_19ImplicitRegisterUseE3EJLNS1_11OperandTypeE9ELS4_5EEE24kSingleScaleOperandSizesE, i32 0, i32 0), i8* getelementptr inbounds ([2 x i8], [2 x i8]* @_ZN2v88internal11interpreter14BytecodeTraitsILNS1_19ImplicitRegisterUseE3EJLNS1_11OperandTypeE9ELS4_5EEE24kSingleScaleOperandSizesE, i32 0, i32 0), i8* getelementptr inbounds ([1 x i8], [1 x i8]* @_ZN2v88internal11interpreter14BytecodeTraitsILNS1_19ImplicitRegisterUseE1EJLNS1_11OperandTypeE12EEE24kSingleScaleOperandSizesE, i32 0, i32 0), i8* getelementptr inbounds ([1 x i8], [1 x i8]* @_ZN2v88internal11interpreter14BytecodeTraitsILNS1_19ImplicitRegisterUseE3EJLNS1_11OperandTypeE5EEE24kSingleScaleOperandSizesE, i32 0, i32 0), i8* getelementptr inbounds ([1 x i8], [1 x i8]* @_ZN2v88internal11interpreter14BytecodeTraitsILNS1_19ImplicitRegisterUseE3EJLNS1_11OperandTypeE5EEE24kSingleScaleOperandSizesE, i32 0, i32 0), i8* getelementptr inbounds ([1 x i8], [1 x i8]* @_ZN2v88internal11interpreter14BytecodeTraitsILNS1_19ImplicitRegisterUseE1EJLNS1_11OperandTypeE12EEE24kSingleScaleOperandSizesE, i32 0, i32 0), i8* getelementptr inbounds ([1 x i8], [1 x i8]* @_ZN2v88internal11interpreter14BytecodeTraitsILNS1_19ImplicitRegisterUseE3EJEE24kSingleScaleOperandSizesE, i32 0, i32 0), i8* getelementptr inbounds ([3 x i8], [3 x i8]* @_ZN2v88internal11interpreter14BytecodeTraitsILNS1_19ImplicitRegisterUseE2EJLNS1_11OperandTypeE5ELS4_5ELS4_1EEE24kSingleScaleOperandSizesE, i32 0, i32 0), i8* getelementptr inbounds ([3 x i8], [3 x i8]* @_ZN2v88internal11interpreter14BytecodeTraitsILNS1_19ImplicitRegisterUseE2EJLNS1_11OperandTypeE5ELS4_5ELS4_1EEE24kSingleScaleOperandSizesE, i32 0, i32 0), i8* getelementptr inbounds ([1 x i8], [1 x i8]* @_ZN2v88internal11interpreter14BytecodeTraitsILNS1_19ImplicitRegisterUseE3EJEE24kSingleScaleOperandSizesE, i32 0, i32 0), i8* getelementptr inbounds ([1 x i8], [1 x i8]* @_ZN2v88internal11interpreter14BytecodeTraitsILNS1_19ImplicitRegisterUseE2EJLNS1_11OperandTypeE5EEE24kSingleScaleOperandSizesE, i32 0, i32 0), i8* getelementptr inbounds ([3 x i8], [3 x i8]* @_ZN2v88internal11interpreter14BytecodeTraitsILNS1_19ImplicitRegisterUseE2EJLNS1_11OperandTypeE5ELS4_5ELS4_1EEE24kSingleScaleOperandSizesE, i32 0, i32 0), i8* getelementptr inbounds ([1 x i8], [1 x i8]* @_ZN2v88internal11interpreter14BytecodeTraitsILNS1_19ImplicitRegisterUseE2EJEE24kSingleScaleOperandSizesE, i32 0, i32 0), i8* getelementptr inbounds ([3 x i8], [3 x i8]* @_ZN2v88internal11interpreter14BytecodeTraitsILNS1_19ImplicitRegisterUseE2EJLNS1_11OperandTypeE9ELS4_1ELS4_5EEE24kSingleScaleOperandSizesE, i32 0, i32 0), i8* getelementptr inbounds ([2 x i8], [2 x i8]* @_ZN2v88internal11interpreter14BytecodeTraitsILNS1_19ImplicitRegisterUseE2EJLNS1_11OperandTypeE5ELS4_5EEE24kSingleScaleOperandSizesE, i32 0, i32 0), i8* getelementptr inbounds ([3 x i8], [3 x i8]* @_ZN2v88internal11interpreter14BytecodeTraitsILNS1_19ImplicitRegisterUseE2EJLNS1_11OperandTypeE5ELS4_5ELS4_1EEE24kSingleScaleOperandSizesE, i32 0, i32 0), i8* getelementptr inbounds ([1 x i8], [1 x i8]* @_ZN2v88internal11interpreter14BytecodeTraitsILNS1_19ImplicitRegisterUseE2EJLNS1_11OperandTypeE5EEE24kSingleScaleOperandSizesE, i32 0, i32 0), i8* getelementptr inbounds ([2 x i8], [2 x i8]* @_ZN2v88internal11interpreter14BytecodeTraitsILNS1_19ImplicitRegisterUseE2EJLNS1_11OperandTypeE9ELS4_5EEE24kSingleScaleOperandSizesE, i32 0, i32 0), i8* getelementptr inbounds ([2 x i8], [2 x i8]* @_ZN2v88internal11interpreter14BytecodeTraitsILNS1_19ImplicitRegisterUseE2EJLNS1_11OperandTypeE5ELS4_6EEE24kSingleScaleOperandSizesE, i32 0, i32 0), i8* getelementptr inbounds ([2 x i8], [2 x i8]* @_ZN2v88internal11interpreter14BytecodeTraitsILNS1_19ImplicitRegisterUseE2EJLNS1_11OperandTypeE5ELS4_6EEE24kSingleScaleOperandSizesE, i32 0, i32 0), i8* getelementptr inbounds ([2 x i8], [2 x i8]* @_ZN2v88internal11interpreter14BytecodeTraitsILNS1_19ImplicitRegisterUseE2EJLNS1_11OperandTypeE9ELS4_5EEE24kSingleScaleOperandSizesE, i32 0, i32 0), i8* getelementptr inbounds ([1 x i8], [1 x i8]* @_ZN2v88internal11interpreter14BytecodeTraitsILNS1_19ImplicitRegisterUseE2EJEE24kSingleScaleOperandSizesE, i32 0, i32 0), i8* getelementptr inbounds ([1 x i8], [1 x i8]* @_ZN2v88internal11interpreter14BytecodeTraitsILNS1_19ImplicitRegisterUseE2EJEE24kSingleScaleOperandSizesE, i32 0, i32 0), i8* getelementptr inbounds ([1 x i8], [1 x i8]* @_ZN2v88internal11interpreter14BytecodeTraitsILNS1_19ImplicitRegisterUseE2EJEE24kSingleScaleOperandSizesE, i32 0, i32 0), i8* getelementptr inbounds ([2 x i8], [2 x i8]* @_ZN2v88internal11interpreter14BytecodeTraitsILNS1_19ImplicitRegisterUseE0EJLNS1_11OperandTypeE6ELS4_8EEE24kSingleScaleOperandSizesE, i32 0, i32 0), i8* getelementptr inbounds ([1 x i8], [1 x i8]* @_ZN2v88internal11interpreter14BytecodeTraitsILNS1_19ImplicitRegisterUseE0EJLNS1_11OperandTypeE6EEE24kSingleScaleOperandSizesE, i32 0, i32 0), i8* getelementptr inbounds ([1 x i8], [1 x i8]* @_ZN2v88internal11interpreter14BytecodeTraitsILNS1_19ImplicitRegisterUseE0EJLNS1_11OperandTypeE5EEE24kSingleScaleOperandSizesE, i32 0, i32 0), i8* getelementptr inbounds ([1 x i8], [1 x i8]* @_ZN2v88internal11interpreter14BytecodeTraitsILNS1_19ImplicitRegisterUseE1EJLNS1_11OperandTypeE5EEE24kSingleScaleOperandSizesE, i32 0, i32 0), i8* getelementptr inbounds ([1 x i8], [1 x i8]* @_ZN2v88internal11interpreter14BytecodeTraitsILNS1_19ImplicitRegisterUseE1EJLNS1_11OperandTypeE5EEE24kSingleScaleOperandSizesE, i32 0, i32 0), i8* getelementptr inbounds ([1 x i8], [1 x i8]* @_ZN2v88internal11interpreter14BytecodeTraitsILNS1_19ImplicitRegisterUseE1EJLNS1_11OperandTypeE5EEE24kSingleScaleOperandSizesE, i32 0, i32 0), i8* getelementptr inbounds ([1 x i8], [1 x i8]* @_ZN2v88internal11interpreter14BytecodeTraitsILNS1_19ImplicitRegisterUseE1EJLNS1_11OperandTypeE5EEE24kSingleScaleOperandSizesE, i32 0, i32 0), i8* getelementptr inbounds ([1 x i8], [1 x i8]* @_ZN2v88internal11interpreter14BytecodeTraitsILNS1_19ImplicitRegisterUseE1EJLNS1_11OperandTypeE5EEE24kSingleScaleOperandSizesE, i32 0, i32 0), i8* getelementptr inbounds ([1 x i8], [1 x i8]* @_ZN2v88internal11interpreter14BytecodeTraitsILNS1_19ImplicitRegisterUseE1EJLNS1_11OperandTypeE5EEE24kSingleScaleOperandSizesE, i32 0, i32 0), i8* getelementptr inbounds ([1 x i8], [1 x i8]* @_ZN2v88internal11interpreter14BytecodeTraitsILNS1_19ImplicitRegisterUseE1EJLNS1_11OperandTypeE5EEE24kSingleScaleOperandSizesE, i32 0, i32 0), i8* getelementptr inbounds ([1 x i8], [1 x i8]* @_ZN2v88internal11interpreter14BytecodeTraitsILNS1_19ImplicitRegisterUseE1EJLNS1_11OperandTypeE5EEE24kSingleScaleOperandSizesE, i32 0, i32 0), i8* getelementptr inbounds ([1 x i8], [1 x i8]* @_ZN2v88internal11interpreter14BytecodeTraitsILNS1_19ImplicitRegisterUseE1EJLNS1_11OperandTypeE5EEE24kSingleScaleOperandSizesE, i32 0, i32 0), i8* getelementptr inbounds ([1 x i8], [1 x i8]* @_ZN2v88internal11interpreter14BytecodeTraitsILNS1_19ImplicitRegisterUseE1EJLNS1_11OperandTypeE5EEE24kSingleScaleOperandSizesE, i32 0, i32 0), i8* getelementptr inbounds ([1 x i8], [1 x i8]* @_ZN2v88internal11interpreter14BytecodeTraitsILNS1_19ImplicitRegisterUseE1EJLNS1_11OperandTypeE6EEE24kSingleScaleOperandSizesE, i32 0, i32 0), i8* getelementptr inbounds ([1 x i8], [1 x i8]* @_ZN2v88internal11interpreter14BytecodeTraitsILNS1_19ImplicitRegisterUseE1EJLNS1_11OperandTypeE6EEE24kSingleScaleOperandSizesE, i32 0, i32 0), i8* getelementptr inbounds ([1 x i8], [1 x i8]* @_ZN2v88internal11interpreter14BytecodeTraitsILNS1_19ImplicitRegisterUseE1EJLNS1_11OperandTypeE6EEE24kSingleScaleOperandSizesE, i32 0, i32 0), i8* getelementptr inbounds ([1 x i8], [1 x i8]* @_ZN2v88internal11interpreter14BytecodeTraitsILNS1_19ImplicitRegisterUseE1EJLNS1_11OperandTypeE6EEE24kSingleScaleOperandSizesE, i32 0, i32 0), i8* getelementptr inbounds ([1 x i8], [1 x i8]* @_ZN2v88internal11interpreter14BytecodeTraitsILNS1_19ImplicitRegisterUseE1EJLNS1_11OperandTypeE6EEE24kSingleScaleOperandSizesE, i32 0, i32 0), i8* getelementptr inbounds ([1 x i8], [1 x i8]* @_ZN2v88internal11interpreter14BytecodeTraitsILNS1_19ImplicitRegisterUseE1EJLNS1_11OperandTypeE6EEE24kSingleScaleOperandSizesE, i32 0, i32 0), i8* getelementptr inbounds ([1 x i8], [1 x i8]* @_ZN2v88internal11interpreter14BytecodeTraitsILNS1_19ImplicitRegisterUseE1EJLNS1_11OperandTypeE6EEE24kSingleScaleOperandSizesE, i32 0, i32 0), i8* getelementptr inbounds ([1 x i8], [1 x i8]* @_ZN2v88internal11interpreter14BytecodeTraitsILNS1_19ImplicitRegisterUseE1EJLNS1_11OperandTypeE6EEE24kSingleScaleOperandSizesE, i32 0, i32 0), i8* getelementptr inbounds ([1 x i8], [1 x i8]* @_ZN2v88internal11interpreter14BytecodeTraitsILNS1_19ImplicitRegisterUseE1EJLNS1_11OperandTypeE6EEE24kSingleScaleOperandSizesE, i32 0, i32 0), i8* getelementptr inbounds ([1 x i8], [1 x i8]* @_ZN2v88internal11interpreter14BytecodeTraitsILNS1_19ImplicitRegisterUseE1EJLNS1_11OperandTypeE6EEE24kSingleScaleOperandSizesE, i32 0, i32 0), i8* getelementptr inbounds ([3 x i8], [3 x i8]* @_ZN2v88internal11interpreter14BytecodeTraitsILNS1_19ImplicitRegisterUseE1EJLNS1_11OperandTypeE5ELS4_6ELS4_8EEE24kSingleScaleOperandSizesE, i32 0, i32 0), i8* getelementptr inbounds ([1 x i8], [1 x i8]* @_ZN2v88internal11interpreter14BytecodeTraitsILNS1_19ImplicitRegisterUseE2EJLNS1_11OperandTypeE9EEE24kSingleScaleOperandSizesE, i32 0, i32 0), i8* getelementptr inbounds ([2 x i8], [2 x i8]* @_ZN2v88internal11interpreter14BytecodeTraitsILNS1_19ImplicitRegisterUseE1EJLNS1_11OperandTypeE15ELS4_5EEE24kSingleScaleOperandSizesE, i32 0, i32 0), i8* getelementptr inbounds ([2 x i8], [2 x i8]* @_ZN2v88internal11interpreter14BytecodeTraitsILNS1_19ImplicitRegisterUseE2EJLNS1_11OperandTypeE9ELS4_9EEE24kSingleScaleOperandSizesE, i32 0, i32 0), i8* getelementptr inbounds ([4 x i8], [4 x i8]* @_ZN2v88internal11interpreter14BytecodeTraitsILNS1_19ImplicitRegisterUseE2EJLNS1_11OperandTypeE9ELS4_9ELS4_11ELS4_5EEE24kSingleScaleOperandSizesE, i32 0, i32 0), i8* getelementptr inbounds ([1 x i8], [1 x i8]* @_ZN2v88internal11interpreter14BytecodeTraitsILNS1_19ImplicitRegisterUseE2EJLNS1_11OperandTypeE9EEE24kSingleScaleOperandSizesE, i32 0, i32 0), i8* getelementptr inbounds ([1 x i8], [1 x i8]* @_ZN2v88internal11interpreter14BytecodeTraitsILNS1_19ImplicitRegisterUseE3EJEE24kSingleScaleOperandSizesE, i32 0, i32 0), i8* getelementptr inbounds ([1 x i8], [1 x i8]* @_ZN2v88internal11interpreter14BytecodeTraitsILNS1_19ImplicitRegisterUseE1EJEE24kSingleScaleOperandSizesE, i32 0, i32 0), i8* getelementptr inbounds ([1 x i8], [1 x i8]* @_ZN2v88internal11interpreter14BytecodeTraitsILNS1_19ImplicitRegisterUseE1EJEE24kSingleScaleOperandSizesE, i32 0, i32 0), i8* getelementptr inbounds ([1 x i8], [1 x i8]* @_ZN2v88internal11interpreter14BytecodeTraitsILNS1_19ImplicitRegisterUseE1EJEE24kSingleScaleOperandSizesE, i32 0, i32 0), i8* getelementptr inbounds ([1 x i8], [1 x i8]* @_ZN2v88internal11interpreter14BytecodeTraitsILNS1_19ImplicitRegisterUseE1EJLNS1_11OperandTypeE5EEE24kSingleScaleOperandSizesE, i32 0, i32 0), i8* getelementptr inbounds ([1 x i8], [1 x i8]* @_ZN2v88internal11interpreter14BytecodeTraitsILNS1_19ImplicitRegisterUseE1EJEE24kSingleScaleOperandSizesE, i32 0, i32 0), i8* getelementptr inbounds ([1 x i8], [1 x i8]* @_ZN2v88internal11interpreter14BytecodeTraitsILNS1_19ImplicitRegisterUseE1EJEE24kSingleScaleOperandSizesE, i32 0, i32 0), i8* getelementptr inbounds ([1 x i8], [1 x i8]* @_ZN2v88internal11interpreter14BytecodeTraitsILNS1_19ImplicitRegisterUseE0EJLNS1_11OperandTypeE9EEE24kSingleScaleOperandSizesE, i32 0, i32 0), i8* getelementptr inbounds ([3 x i8], [3 x i8]* @_ZN2v88internal11interpreter14BytecodeTraitsILNS1_19ImplicitRegisterUseE0EJLNS1_11OperandTypeE9ELS4_5ELS4_6EEE24kSingleScaleOperandSizesE, i32 0, i32 0), i8* getelementptr inbounds ([4 x i8], [4 x i8]* @_ZN2v88internal11interpreter14BytecodeTraitsILNS1_19ImplicitRegisterUseE1EJLNS1_11OperandTypeE9ELS4_10ELS4_7ELS4_6EEE24kSingleScaleOperandSizesE, i32 0, i32 0), i8* getelementptr inbounds ([3 x i8], [3 x i8]* @_ZN2v88internal11interpreter14BytecodeTraitsILNS1_19ImplicitRegisterUseE2EJLNS1_11OperandTypeE9ELS4_13ELS4_7EEE24kSingleScaleOperandSizesE, i32 0, i32 0), i8* getelementptr inbounds ([3 x i8], [3 x i8]* @_ZN2v88internal11interpreter14BytecodeTraitsILNS1_19ImplicitRegisterUseE2EJLNS1_11OperandTypeE9ELS4_5ELS4_5EEE24kSingleScaleOperandSizesE, i32 0, i32 0), i8* getelementptr inbounds ([1 x i8], [1 x i8]* @_ZN2v88internal11interpreter14BytecodeTraitsILNS1_19ImplicitRegisterUseE0EJEE24kSingleScaleOperandSizesE, i32 0, i32 0), i8* getelementptr inbounds ([1 x i8], [1 x i8]* @_ZN2v88internal11interpreter14BytecodeTraitsILNS1_19ImplicitRegisterUseE0EJLNS1_11OperandTypeE5EEE24kSingleScaleOperandSizesE, i32 0, i32 0), i8* getelementptr inbounds ([1 x i8], [1 x i8]* @_ZN2v88internal11interpreter14BytecodeTraitsILNS1_19ImplicitRegisterUseE0EJLNS1_11OperandTypeE5EEE24kSingleScaleOperandSizesE, i32 0, i32 0), i8* getelementptr inbounds ([1 x i8], [1 x i8]* @_ZN2v88internal11interpreter14BytecodeTraitsILNS1_19ImplicitRegisterUseE5EJEE24kSingleScaleOperandSizesE, i32 0, i32 0), i8* getelementptr inbounds ([1 x i8], [1 x i8]* @_ZN2v88internal11interpreter14BytecodeTraitsILNS1_19ImplicitRegisterUseE5EJEE24kSingleScaleOperandSizesE, i32 0, i32 0), i8* getelementptr inbounds ([1 x i8], [1 x i8]* @_ZN2v88internal11interpreter14BytecodeTraitsILNS1_19ImplicitRegisterUseE5EJEE24kSingleScaleOperandSizesE, i32 0, i32 0), i8* getelementptr inbounds ([1 x i8], [1 x i8]* @_ZN2v88internal11interpreter14BytecodeTraitsILNS1_19ImplicitRegisterUseE5EJEE24kSingleScaleOperandSizesE, i32 0, i32 0), i8* getelementptr inbounds ([1 x i8], [1 x i8]* @_ZN2v88internal11interpreter14BytecodeTraitsILNS1_19ImplicitRegisterUseE5EJEE24kSingleScaleOperandSizesE, i32 0, i32 0), i8* getelementptr inbounds ([1 x i8], [1 x i8]* @_ZN2v88internal11interpreter14BytecodeTraitsILNS1_19ImplicitRegisterUseE5EJEE24kSingleScaleOperandSizesE, i32 0, i32 0), i8* getelementptr inbounds ([1 x i8], [1 x i8]* @_ZN2v88internal11interpreter14BytecodeTraitsILNS1_19ImplicitRegisterUseE5EJEE24kSingleScaleOperandSizesE, i32 0, i32 0), i8* getelementptr inbounds ([1 x i8], [1 x i8]* @_ZN2v88internal11interpreter14BytecodeTraitsILNS1_19ImplicitRegisterUseE5EJEE24kSingleScaleOperandSizesE, i32 0, i32 0), i8* getelementptr inbounds ([1 x i8], [1 x i8]* @_ZN2v88internal11interpreter14BytecodeTraitsILNS1_19ImplicitRegisterUseE5EJEE24kSingleScaleOperandSizesE, i32 0, i32 0), i8* getelementptr inbounds ([1 x i8], [1 x i8]* @_ZN2v88internal11interpreter14BytecodeTraitsILNS1_19ImplicitRegisterUseE5EJEE24kSingleScaleOperandSizesE, i32 0, i32 0), i8* getelementptr inbounds ([1 x i8], [1 x i8]* @_ZN2v88internal11interpreter14BytecodeTraitsILNS1_19ImplicitRegisterUseE5EJEE24kSingleScaleOperandSizesE, i32 0, i32 0), i8* getelementptr inbounds ([1 x i8], [1 x i8]* @_ZN2v88internal11interpreter14BytecodeTraitsILNS1_19ImplicitRegisterUseE5EJEE24kSingleScaleOperandSizesE, i32 0, i32 0), i8* getelementptr inbounds ([1 x i8], [1 x i8]* @_ZN2v88internal11interpreter14BytecodeTraitsILNS1_19ImplicitRegisterUseE5EJEE24kSingleScaleOperandSizesE, i32 0, i32 0), i8* getelementptr inbounds ([1 x i8], [1 x i8]* @_ZN2v88internal11interpreter14BytecodeTraitsILNS1_19ImplicitRegisterUseE5EJEE24kSingleScaleOperandSizesE, i32 0, i32 0), i8* getelementptr inbounds ([1 x i8], [1 x i8]* @_ZN2v88internal11interpreter14BytecodeTraitsILNS1_19ImplicitRegisterUseE5EJEE24kSingleScaleOperandSizesE, i32 0, i32 0), i8* getelementptr inbounds ([1 x i8], [1 x i8]* @_ZN2v88internal11interpreter14BytecodeTraitsILNS1_19ImplicitRegisterUseE5EJEE24kSingleScaleOperandSizesE, i32 0, i32 0), i8* getelementptr inbounds ([1 x i8], [1 x i8]* @_ZN2v88internal11interpreter14BytecodeTraitsILNS1_19ImplicitRegisterUseE0EJEE24kSingleScaleOperandSizesE, i32 0, i32 0)], [197 x i8*] [i8* getelementptr inbounds ([1 x i8], [1 x i8]* @_ZN2v88internal11interpreter14BytecodeTraitsILNS1_19ImplicitRegisterUseE0EJEE24kDoubleScaleOperandSizesE, i32 0, i32 0), i8* getelementptr inbounds ([1 x i8], [1 x i8]* @_ZN2v88internal11interpreter14BytecodeTraitsILNS1_19ImplicitRegisterUseE0EJEE24kDoubleScaleOperandSizesE, i32 0, i32 0), i8* getelementptr inbounds ([1 x i8], [1 x i8]* @_ZN2v88internal11interpreter14BytecodeTraitsILNS1_19ImplicitRegisterUseE3EJEE24kDoubleScaleOperandSizesE, i32 0, i32 0), i8* getelementptr inbounds ([1 x i8], [1 x i8]* @_ZN2v88internal11interpreter14BytecodeTraitsILNS1_19ImplicitRegisterUseE3EJEE24kDoubleScaleOperandSizesE, i32 0, i32 0), i8* getelementptr inbounds ([1 x i8], [1 x i8]* @_ZN2v88internal11interpreter14BytecodeTraitsILNS1_19ImplicitRegisterUseE3EJEE24kDoubleScaleOperandSizesE, i32 0, i32 0), i8* getelementptr inbounds ([1 x i8], [1 x i8]* @_ZN2v88internal11interpreter14BytecodeTraitsILNS1_19ImplicitRegisterUseE3EJLNS1_11OperandTypeE9EEE24kDoubleScaleOperandSizesE, i32 0, i32 0), i8* getelementptr inbounds ([2 x i8], [2 x i8]* @_ZN2v88internal11interpreter14BytecodeTraitsILNS1_19ImplicitRegisterUseE3EJLNS1_11OperandTypeE9ELS4_9EEE24kDoubleScaleOperandSizesE, i32 0, i32 0), i8* getelementptr inbounds ([3 x i8], [3 x i8]* @_ZN2v88internal11interpreter14BytecodeTraitsILNS1_19ImplicitRegisterUseE3EJLNS1_11OperandTypeE9ELS4_9ELS4_9EEE24kDoubleScaleOperandSizesE, i32 0, i32 0), i8* getelementptr inbounds ([4 x i8], [4 x i8]* @_ZN2v88internal11interpreter14BytecodeTraitsILNS1_19ImplicitRegisterUseE3EJLNS1_11OperandTypeE9ELS4_9ELS4_9ELS4_9EEE24kDoubleScaleOperandSizesE, i32 0, i32 0), i8* getelementptr inbounds ([3 x i8], [3 x i8]* @_ZN2v88internal11interpreter14BytecodeTraitsILNS1_19ImplicitRegisterUseE3EJLNS1_11OperandTypeE3ELS4_9ELS4_9EEE24kDoubleScaleOperandSizesE, i32 0, i32 0), i8* getelementptr inbounds ([4 x i8], [4 x i8]* @_ZN2v88internal11interpreter14BytecodeTraitsILNS1_19ImplicitRegisterUseE3EJLNS1_11OperandTypeE3ELS4_9ELS4_9ELS4_9EEE24kDoubleScaleOperandSizesE, i32 0, i32 0), i8* getelementptr inbounds ([1 x i8], [1 x i8]* @_ZN2v88internal11interpreter14BytecodeTraitsILNS1_19ImplicitRegisterUseE2EJLNS1_11OperandTypeE9EEE24kDoubleScaleOperandSizesE, i32 0, i32 0), i8* getelementptr inbounds ([1 x i8], [1 x i8]* @_ZN2v88internal11interpreter14BytecodeTraitsILNS1_19ImplicitRegisterUseE2EJEE24kDoubleScaleOperandSizesE, i32 0, i32 0), i8* getelementptr inbounds ([1 x i8], [1 x i8]* @_ZN2v88internal11interpreter14BytecodeTraitsILNS1_19ImplicitRegisterUseE2EJLNS1_11OperandTypeE8EEE24kDoubleScaleOperandSizesE, i32 0, i32 0), i8* getelementptr inbounds ([1 x i8], [1 x i8]* @_ZN2v88internal11interpreter14BytecodeTraitsILNS1_19ImplicitRegisterUseE2EJEE24kDoubleScaleOperandSizesE, i32 0, i32 0), i8* getelementptr inbounds ([1 x i8], [1 x i8]* @_ZN2v88internal11interpreter14BytecodeTraitsILNS1_19ImplicitRegisterUseE2EJEE24kDoubleScaleOperandSizesE, i32 0, i32 0), i8* getelementptr inbounds ([1 x i8], [1 x i8]* @_ZN2v88internal11interpreter14BytecodeTraitsILNS1_19ImplicitRegisterUseE2EJEE24kDoubleScaleOperandSizesE, i32 0, i32 0), i8* getelementptr inbounds ([1 x i8], [1 x i8]* @_ZN2v88internal11interpreter14BytecodeTraitsILNS1_19ImplicitRegisterUseE2EJEE24kDoubleScaleOperandSizesE, i32 0, i32 0), i8* getelementptr inbounds ([1 x i8], [1 x i8]* @_ZN2v88internal11interpreter14BytecodeTraitsILNS1_19ImplicitRegisterUseE2EJEE24kDoubleScaleOperandSizesE, i32 0, i32 0), i8* getelementptr inbounds ([1 x i8], [1 x i8]* @_ZN2v88internal11interpreter14BytecodeTraitsILNS1_19ImplicitRegisterUseE2EJLNS1_11OperandTypeE5EEE24kDoubleScaleOperandSizesE, i32 0, i32 0), i8* getelementptr inbounds ([3 x i8], [3 x i8]* @_ZN2v88internal11interpreter14BytecodeTraitsILNS1_19ImplicitRegisterUseE2EJLNS1_11OperandTypeE9ELS4_5ELS4_6EEE24kDoubleScaleOperandSizesE, i32 0, i32 0), i8* getelementptr inbounds ([3 x i8], [3 x i8]* @_ZN2v88internal11interpreter14BytecodeTraitsILNS1_19ImplicitRegisterUseE2EJLNS1_11OperandTypeE9ELS4_5ELS4_6EEE24kDoubleScaleOperandSizesE, i32 0, i32 0), i8* getelementptr inbounds ([1 x i8], [1 x i8]* @_ZN2v88internal11interpreter14BytecodeTraitsILNS1_19ImplicitRegisterUseE2EJLNS1_11OperandTypeE5EEE24kDoubleScaleOperandSizesE, i32 0, i32 0), i8* getelementptr inbounds ([1 x i8], [1 x i8]* @_ZN2v88internal11interpreter14BytecodeTraitsILNS1_19ImplicitRegisterUseE2EJLNS1_11OperandTypeE5EEE24kDoubleScaleOperandSizesE, i32 0, i32 0), i8* getelementptr inbounds ([1 x i8], [1 x i8]* @_ZN2v88internal11interpreter14BytecodeTraitsILNS1_19ImplicitRegisterUseE1EJLNS1_11OperandTypeE12EEE24kDoubleScaleOperandSizesE, i32 0, i32 0), i8* getelementptr inbounds ([2 x i8], [2 x i8]* @_ZN2v88internal11interpreter14BytecodeTraitsILNS1_19ImplicitRegisterUseE0EJLNS1_11OperandTypeE9ELS4_12EEE24kDoubleScaleOperandSizesE, i32 0, i32 0), i8* getelementptr inbounds ([1 x i8], [1 x i8]* @_ZN2v88internal11interpreter14BytecodeTraitsILNS1_19ImplicitRegisterUseE1EJLNS1_11OperandTypeE12EEE24kDoubleScaleOperandSizesE, i32 0, i32 0), i8* getelementptr inbounds ([1 x i8], [1 x i8]* @_ZN2v88internal11interpreter14BytecodeTraitsILNS1_19ImplicitRegisterUseE0EJLNS1_11OperandTypeE9EEE24kDoubleScaleOperandSizesE, i32 0, i32 0), i8* getelementptr inbounds ([1 x i8], [1 x i8]* @_ZN2v88internal11interpreter14BytecodeTraitsILNS1_19ImplicitRegisterUseE3EJLNS1_11OperandTypeE9EEE24kDoubleScaleOperandSizesE, i32 0, i32 0), i8* getelementptr inbounds ([1 x i8], [1 x i8]* @_ZN2v88internal11interpreter14BytecodeTraitsILNS1_19ImplicitRegisterUseE3EJEE24kDoubleScaleOperandSizesE, i32 0, i32 0), i8* getelementptr inbounds ([1 x i8], [1 x i8]* @_ZN2v88internal11interpreter14BytecodeTraitsILNS1_19ImplicitRegisterUseE3EJEE24kDoubleScaleOperandSizesE, i32 0, i32 0), i8* getelementptr inbounds ([1 x i8], [1 x i8]* @_ZN2v88internal11interpreter14BytecodeTraitsILNS1_19ImplicitRegisterUseE3EJEE24kDoubleScaleOperandSizesE, i32 0, i32 0), i8* getelementptr inbounds ([1 x i8], [1 x i8]* @_ZN2v88internal11interpreter14BytecodeTraitsILNS1_19ImplicitRegisterUseE3EJLNS1_11OperandTypeE1EEE24kDoubleScaleOperandSizesE, i32 0, i32 0), i8* getelementptr inbounds ([2 x i8], [2 x i8]* @_ZN2v88internal11interpreter14BytecodeTraitsILNS1_19ImplicitRegisterUseE2EJLNS1_11OperandTypeE5ELS4_5EEE24kDoubleScaleOperandSizesE, i32 0, i32 0), i8* getelementptr inbounds ([2 x i8], [2 x i8]* @_ZN2v88internal11interpreter14BytecodeTraitsILNS1_19ImplicitRegisterUseE2EJLNS1_11OperandTypeE5ELS4_5EEE24kDoubleScaleOperandSizesE, i32 0, i32 0), i8* getelementptr inbounds ([2 x i8], [2 x i8]* @_ZN2v88internal11interpreter14BytecodeTraitsILNS1_19ImplicitRegisterUseE1EJLNS1_11OperandTypeE5ELS4_5EEE24kDoubleScaleOperandSizesE, i32 0, i32 0), i8* getelementptr inbounds ([3 x i8], [3 x i8]* @_ZN2v88internal11interpreter14BytecodeTraitsILNS1_19ImplicitRegisterUseE1EJLNS1_11OperandTypeE9ELS4_5ELS4_6EEE24kDoubleScaleOperandSizesE, i32 0, i32 0), i8* getelementptr inbounds ([1 x i8], [1 x i8]* @_ZN2v88internal11interpreter14BytecodeTraitsILNS1_19ImplicitRegisterUseE1EJLNS1_11OperandTypeE5EEE24kDoubleScaleOperandSizesE, i32 0, i32 0), i8* getelementptr inbounds ([1 x i8], [1 x i8]* @_ZN2v88internal11interpreter14BytecodeTraitsILNS1_19ImplicitRegisterUseE2EJLNS1_11OperandTypeE5EEE24kDoubleScaleOperandSizesE, i32 0, i32 0), i8* getelementptr inbounds ([3 x i8], [3 x i8]* @_ZN2v88internal11interpreter14BytecodeTraitsILNS1_19ImplicitRegisterUseE2EJLNS1_11OperandTypeE5ELS4_5ELS4_6EEE24kDoubleScaleOperandSizesE, i32 0, i32 0), i8* getelementptr inbounds ([3 x i8], [3 x i8]* @_ZN2v88internal11interpreter14BytecodeTraitsILNS1_19ImplicitRegisterUseE2EJLNS1_11OperandTypeE5ELS4_5ELS4_6EEE24kDoubleScaleOperandSizesE, i32 0, i32 0), i8* getelementptr inbounds ([1 x i8], [1 x i8]* @_ZN2v88internal11interpreter14BytecodeTraitsILNS1_19ImplicitRegisterUseE2EJLNS1_11OperandTypeE5EEE24kDoubleScaleOperandSizesE, i32 0, i32 0), i8* getelementptr inbounds ([3 x i8], [3 x i8]* @_ZN2v88internal11interpreter14BytecodeTraitsILNS1_19ImplicitRegisterUseE2EJLNS1_11OperandTypeE5ELS4_5ELS4_6EEE24kDoubleScaleOperandSizesE, i32 0, i32 0), i8* getelementptr inbounds ([3 x i8], [3 x i8]* @_ZN2v88internal11interpreter14BytecodeTraitsILNS1_19ImplicitRegisterUseE2EJLNS1_11OperandTypeE5ELS4_5ELS4_6EEE24kDoubleScaleOperandSizesE, i32 0, i32 0), i8* getelementptr inbounds ([2 x i8], [2 x i8]* @_ZN2v88internal11interpreter14BytecodeTraitsILNS1_19ImplicitRegisterUseE3EJLNS1_11OperandTypeE5ELS4_1EEE24kDoubleScaleOperandSizesE, i32 0, i32 0), i8* getelementptr inbounds ([3 x i8], [3 x i8]* @_ZN2v88internal11interpreter14BytecodeTraitsILNS1_19ImplicitRegisterUseE2EJLNS1_11OperandTypeE9ELS4_5ELS4_5EEE24kDoubleScaleOperandSizesE, i32 0, i32 0), i8* getelementptr inbounds ([3 x i8], [3 x i8]* @_ZN2v88internal11interpreter14BytecodeTraitsILNS1_19ImplicitRegisterUseE3EJLNS1_11OperandTypeE9ELS4_5ELS4_5EEE24kDoubleScaleOperandSizesE, i32 0, i32 0), i8* getelementptr inbounds ([2 x i8], [2 x i8]* @_ZN2v88internal11interpreter14BytecodeTraitsILNS1_19ImplicitRegisterUseE3EJLNS1_11OperandTypeE9ELS4_5EEE24kDoubleScaleOperandSizesE, i32 0, i32 0), i8* getelementptr inbounds ([2 x i8], [2 x i8]* @_ZN2v88internal11interpreter14BytecodeTraitsILNS1_19ImplicitRegisterUseE2EJLNS1_11OperandTypeE8ELS4_6EEE24kDoubleScaleOperandSizesE, i32 0, i32 0), i8* getelementptr inbounds ([2 x i8], [2 x i8]* @_ZN2v88internal11interpreter14BytecodeTraitsILNS1_19ImplicitRegisterUseE1EJLNS1_11OperandTypeE8ELS4_6EEE24kDoubleScaleOperandSizesE, i32 0, i32 0), i8* getelementptr inbounds ([3 x i8], [3 x i8]* @_ZN2v88internal11interpreter14BytecodeTraitsILNS1_19ImplicitRegisterUseE3EJLNS1_11OperandTypeE9ELS4_5ELS4_5EEE24kDoubleScaleOperandSizesE, i32 0, i32 0), i8* getelementptr inbounds ([3 x i8], [3 x i8]* @_ZN2v88internal11interpreter14BytecodeTraitsILNS1_19ImplicitRegisterUseE3EJLNS1_11OperandTypeE9ELS4_5ELS4_5EEE24kDoubleScaleOperandSizesE, i32 0, i32 0), i8* getelementptr inbounds ([3 x i8], [3 x i8]* @_ZN2v88internal11interpreter14BytecodeTraitsILNS1_19ImplicitRegisterUseE3EJLNS1_11OperandTypeE9ELS4_9ELS4_5EEE24kDoubleScaleOperandSizesE, i32 0, i32 0), i8* getelementptr inbounds ([3 x i8], [3 x i8]* @_ZN2v88internal11interpreter14BytecodeTraitsILNS1_19ImplicitRegisterUseE3EJLNS1_11OperandTypeE9ELS4_9ELS4_5EEE24kDoubleScaleOperandSizesE, i32 0, i32 0), i8* getelementptr inbounds ([4 x i8], [4 x i8]* @_ZN2v88internal11interpreter14BytecodeTraitsILNS1_19ImplicitRegisterUseE1EJLNS1_11OperandTypeE9ELS4_9ELS4_1ELS4_5EEE24kDoubleScaleOperandSizesE, i32 0, i32 0), i8* getelementptr inbounds ([1 x i8], [1 x i8]* @_ZN2v88internal11interpreter14BytecodeTraitsILNS1_19ImplicitRegisterUseE1EJLNS1_11OperandTypeE8EEE24kDoubleScaleOperandSizesE, i32 0, i32 0), i8* getelementptr inbounds ([2 x i8], [2 x i8]* @_ZN2v88internal11interpreter14BytecodeTraitsILNS1_19ImplicitRegisterUseE3EJLNS1_11OperandTypeE9ELS4_5EEE24kDoubleScaleOperandSizesE, i32 0, i32 0), i8* getelementptr inbounds ([2 x i8], [2 x i8]* @_ZN2v88internal11interpreter14BytecodeTraitsILNS1_19ImplicitRegisterUseE3EJLNS1_11OperandTypeE9ELS4_5EEE24kDoubleScaleOperandSizesE, i32 0, i32 0), i8* getelementptr inbounds ([2 x i8], [2 x i8]* @_ZN2v88internal11interpreter14BytecodeTraitsILNS1_19ImplicitRegisterUseE3EJLNS1_11OperandTypeE9ELS4_5EEE24kDoubleScaleOperandSizesE, i32 0, i32 0), i8* getelementptr inbounds ([2 x i8], [2 x i8]* @_ZN2v88internal11interpreter14BytecodeTraitsILNS1_19ImplicitRegisterUseE3EJLNS1_11OperandTypeE9ELS4_5EEE24kDoubleScaleOperandSizesE, i32 0, i32 0), i8* getelementptr inbounds ([2 x i8], [2 x i8]* @_ZN2v88internal11interpreter14BytecodeTraitsILNS1_19ImplicitRegisterUseE3EJLNS1_11OperandTypeE9ELS4_5EEE24kDoubleScaleOperandSizesE, i32 0, i32 0), i8* getelementptr inbounds ([2 x i8], [2 x i8]* @_ZN2v88internal11interpreter14BytecodeTraitsILNS1_19ImplicitRegisterUseE3EJLNS1_11OperandTypeE9ELS4_5EEE24kDoubleScaleOperandSizesE, i32 0, i32 0), i8* getelementptr inbounds ([2 x i8], [2 x i8]* @_ZN2v88internal11interpreter14BytecodeTraitsILNS1_19ImplicitRegisterUseE3EJLNS1_11OperandTypeE9ELS4_5EEE24kDoubleScaleOperandSizesE, i32 0, i32 0), i8* getelementptr inbounds ([2 x i8], [2 x i8]* @_ZN2v88internal11interpreter14BytecodeTraitsILNS1_19ImplicitRegisterUseE3EJLNS1_11OperandTypeE9ELS4_5EEE24kDoubleScaleOperandSizesE, i32 0, i32 0), i8* getelementptr inbounds ([2 x i8], [2 x i8]* @_ZN2v88internal11interpreter14BytecodeTraitsILNS1_19ImplicitRegisterUseE3EJLNS1_11OperandTypeE9ELS4_5EEE24kDoubleScaleOperandSizesE, i32 0, i32 0), i8* getelementptr inbounds ([2 x i8], [2 x i8]* @_ZN2v88internal11interpreter14BytecodeTraitsILNS1_19ImplicitRegisterUseE3EJLNS1_11OperandTypeE9ELS4_5EEE24kDoubleScaleOperandSizesE, i32 0, i32 0), i8* getelementptr inbounds ([2 x i8], [2 x i8]* @_ZN2v88internal11interpreter14BytecodeTraitsILNS1_19ImplicitRegisterUseE3EJLNS1_11OperandTypeE9ELS4_5EEE24kDoubleScaleOperandSizesE, i32 0, i32 0), i8* getelementptr inbounds ([2 x i8], [2 x i8]* @_ZN2v88internal11interpreter14BytecodeTraitsILNS1_19ImplicitRegisterUseE3EJLNS1_11OperandTypeE9ELS4_5EEE24kDoubleScaleOperandSizesE, i32 0, i32 0), i8* getelementptr inbounds ([2 x i8], [2 x i8]* @_ZN2v88internal11interpreter14BytecodeTraitsILNS1_19ImplicitRegisterUseE3EJLNS1_11OperandTypeE8ELS4_5EEE24kDoubleScaleOperandSizesE, i32 0, i32 0), i8* getelementptr inbounds ([2 x i8], [2 x i8]* @_ZN2v88internal11interpreter14BytecodeTraitsILNS1_19ImplicitRegisterUseE3EJLNS1_11OperandTypeE8ELS4_5EEE24kDoubleScaleOperandSizesE, i32 0, i32 0), i8* getelementptr inbounds ([2 x i8], [2 x i8]* @_ZN2v88internal11interpreter14BytecodeTraitsILNS1_19ImplicitRegisterUseE3EJLNS1_11OperandTypeE8ELS4_5EEE24kDoubleScaleOperandSizesE, i32 0, i32 0), i8* getelementptr inbounds ([2 x i8], [2 x i8]* @_ZN2v88internal11interpreter14BytecodeTraitsILNS1_19ImplicitRegisterUseE3EJLNS1_11OperandTypeE8ELS4_5EEE24kDoubleScaleOperandSizesE, i32 0, i32 0), i8* getelementptr inbounds ([2 x i8], [2 x i8]* @_ZN2v88internal11interpreter14BytecodeTraitsILNS1_19ImplicitRegisterUseE3EJLNS1_11OperandTypeE8ELS4_5EEE24kDoubleScaleOperandSizesE, i32 0, i32 0), i8* getelementptr inbounds ([2 x i8], [2 x i8]* @_ZN2v88internal11interpreter14BytecodeTraitsILNS1_19ImplicitRegisterUseE3EJLNS1_11OperandTypeE8ELS4_5EEE24kDoubleScaleOperandSizesE, i32 0, i32 0), i8* getelementptr inbounds ([2 x i8], [2 x i8]* @_ZN2v88internal11interpreter14BytecodeTraitsILNS1_19ImplicitRegisterUseE3EJLNS1_11OperandTypeE8ELS4_5EEE24kDoubleScaleOperandSizesE, i32 0, i32 0), i8* getelementptr inbounds ([2 x i8], [2 x i8]* @_ZN2v88internal11interpreter14BytecodeTraitsILNS1_19ImplicitRegisterUseE3EJLNS1_11OperandTypeE8ELS4_5EEE24kDoubleScaleOperandSizesE, i32 0, i32 0), i8* getelementptr inbounds ([2 x i8], [2 x i8]* @_ZN2v88internal11interpreter14BytecodeTraitsILNS1_19ImplicitRegisterUseE3EJLNS1_11OperandTypeE8ELS4_5EEE24kDoubleScaleOperandSizesE, i32 0, i32 0), i8* getelementptr inbounds ([2 x i8], [2 x i8]* @_ZN2v88internal11interpreter14BytecodeTraitsILNS1_19ImplicitRegisterUseE3EJLNS1_11OperandTypeE8ELS4_5EEE24kDoubleScaleOperandSizesE, i32 0, i32 0), i8* getelementptr inbounds ([2 x i8], [2 x i8]* @_ZN2v88internal11interpreter14BytecodeTraitsILNS1_19ImplicitRegisterUseE3EJLNS1_11OperandTypeE8ELS4_5EEE24kDoubleScaleOperandSizesE, i32 0, i32 0), i8* getelementptr inbounds ([2 x i8], [2 x i8]* @_ZN2v88internal11interpreter14BytecodeTraitsILNS1_19ImplicitRegisterUseE3EJLNS1_11OperandTypeE8ELS4_5EEE24kDoubleScaleOperandSizesE, i32 0, i32 0), i8* getelementptr inbounds ([1 x i8], [1 x i8]* @_ZN2v88internal11interpreter14BytecodeTraitsILNS1_19ImplicitRegisterUseE3EJLNS1_11OperandTypeE5EEE24kDoubleScaleOperandSizesE, i32 0, i32 0), i8* getelementptr inbounds ([1 x i8], [1 x i8]* @_ZN2v88internal11interpreter14BytecodeTraitsILNS1_19ImplicitRegisterUseE3EJLNS1_11OperandTypeE5EEE24kDoubleScaleOperandSizesE, i32 0, i32 0), i8* getelementptr inbounds ([1 x i8], [1 x i8]* @_ZN2v88internal11interpreter14BytecodeTraitsILNS1_19ImplicitRegisterUseE3EJLNS1_11OperandTypeE5EEE24kDoubleScaleOperandSizesE, i32 0, i32 0), i8* getelementptr inbounds ([1 x i8], [1 x i8]* @_ZN2v88internal11interpreter14BytecodeTraitsILNS1_19ImplicitRegisterUseE3EJLNS1_11OperandTypeE5EEE24kDoubleScaleOperandSizesE, i32 0, i32 0), i8* getelementptr inbounds ([1 x i8], [1 x i8]* @_ZN2v88internal11interpreter14BytecodeTraitsILNS1_19ImplicitRegisterUseE3EJEE24kDoubleScaleOperandSizesE, i32 0, i32 0), i8* getelementptr inbounds ([1 x i8], [1 x i8]* @_ZN2v88internal11interpreter14BytecodeTraitsILNS1_19ImplicitRegisterUseE3EJEE24kDoubleScaleOperandSizesE, i32 0, i32 0), i8* getelementptr inbounds ([1 x i8], [1 x i8]* @_ZN2v88internal11interpreter14BytecodeTraitsILNS1_19ImplicitRegisterUseE3EJEE24kDoubleScaleOperandSizesE, i32 0, i32 0), i8* getelementptr inbounds ([1 x i8], [1 x i8]* @_ZN2v88internal11interpreter14BytecodeTraitsILNS1_19ImplicitRegisterUseE3EJLNS1_11OperandTypeE9EEE24kDoubleScaleOperandSizesE, i32 0, i32 0), i8* getelementptr inbounds ([1 x i8], [1 x i8]* @_ZN2v88internal11interpreter14BytecodeTraitsILNS1_19ImplicitRegisterUseE3EJLNS1_11OperandTypeE9EEE24kDoubleScaleOperandSizesE, i32 0, i32 0), i8* getelementptr inbounds ([1 x i8], [1 x i8]* @_ZN2v88internal11interpreter14BytecodeTraitsILNS1_19ImplicitRegisterUseE1EJLNS1_11OperandTypeE12EEE24kDoubleScaleOperandSizesE, i32 0, i32 0), i8* getelementptr inbounds ([4 x i8], [4 x i8]* @_ZN2v88internal11interpreter14BytecodeTraitsILNS1_19ImplicitRegisterUseE2EJLNS1_11OperandTypeE9ELS4_10ELS4_7ELS4_5EEE24kDoubleScaleOperandSizesE, i32 0, i32 0), i8* getelementptr inbounds ([4 x i8], [4 x i8]* @_ZN2v88internal11interpreter14BytecodeTraitsILNS1_19ImplicitRegisterUseE2EJLNS1_11OperandTypeE9ELS4_10ELS4_7ELS4_5EEE24kDoubleScaleOperandSizesE, i32 0, i32 0), i8* getelementptr inbounds ([3 x i8], [3 x i8]* @_ZN2v88internal11interpreter14BytecodeTraitsILNS1_19ImplicitRegisterUseE2EJLNS1_11OperandTypeE9ELS4_9ELS4_5EEE24kDoubleScaleOperandSizesE, i32 0, i32 0), i8* getelementptr inbounds ([4 x i8], [4 x i8]* @_ZN2v88internal11interpreter14BytecodeTraitsILNS1_19ImplicitRegisterUseE2EJLNS1_11OperandTypeE9ELS4_9ELS4_9ELS4_5EEE24kDoubleScaleOperandSizesE, i32 0, i32 0), i8* getelementptr inbounds ([5 x i8], [5 x i8]* @_ZN2v88internal11interpreter14BytecodeTraitsILNS1_19ImplicitRegisterUseE2EJLNS1_11OperandTypeE9ELS4_9ELS4_9ELS4_9ELS4_5EEE24kDoubleScaleOperandSizesE, i32 0, i32 0), i8* getelementptr inbounds ([4 x i8], [4 x i8]* @_ZN2v88internal11interpreter14BytecodeTraitsILNS1_19ImplicitRegisterUseE2EJLNS1_11OperandTypeE9ELS4_10ELS4_7ELS4_5EEE24kDoubleScaleOperandSizesE, i32 0, i32 0), i8* getelementptr inbounds ([2 x i8], [2 x i8]* @_ZN2v88internal11interpreter14BytecodeTraitsILNS1_19ImplicitRegisterUseE2EJLNS1_11OperandTypeE9ELS4_5EEE24kDoubleScaleOperandSizesE, i32 0, i32 0), i8* getelementptr inbounds ([3 x i8], [3 x i8]* @_ZN2v88internal11interpreter14BytecodeTraitsILNS1_19ImplicitRegisterUseE2EJLNS1_11OperandTypeE9ELS4_9ELS4_5EEE24kDoubleScaleOperandSizesE, i32 0, i32 0), i8* getelementptr inbounds ([4 x i8], [4 x i8]* @_ZN2v88internal11interpreter14BytecodeTraitsILNS1_19ImplicitRegisterUseE2EJLNS1_11OperandTypeE9ELS4_9ELS4_9ELS4_5EEE24kDoubleScaleOperandSizesE, i32 0, i32 0), i8* getelementptr inbounds ([4 x i8], [4 x i8]* @_ZN2v88internal11interpreter14BytecodeTraitsILNS1_19ImplicitRegisterUseE2EJLNS1_11OperandTypeE9ELS4_10ELS4_7ELS4_5EEE24kDoubleScaleOperandSizesE, i32 0, i32 0), i8* getelementptr inbounds ([3 x i8], [3 x i8]* @_ZN2v88internal11interpreter14BytecodeTraitsILNS1_19ImplicitRegisterUseE2EJLNS1_11OperandTypeE3ELS4_10ELS4_7EEE24kDoubleScaleOperandSizesE, i32 0, i32 0), i8* getelementptr inbounds ([4 x i8], [4 x i8]* @_ZN2v88internal11interpreter14BytecodeTraitsILNS1_19ImplicitRegisterUseE0EJLNS1_11OperandTypeE3ELS4_10ELS4_7ELS4_14EEE24kDoubleScaleOperandSizesE, i32 0, i32 0), i8* getelementptr inbounds ([3 x i8], [3 x i8]* @_ZN2v88internal11interpreter14BytecodeTraitsILNS1_19ImplicitRegisterUseE2EJLNS1_11OperandTypeE4ELS4_10ELS4_7EEE24kDoubleScaleOperandSizesE, i32 0, i32 0), i8* getelementptr inbounds ([3 x i8], [3 x i8]* @_ZN2v88internal11interpreter14BytecodeTraitsILNS1_19ImplicitRegisterUseE2EJLNS1_11OperandTypeE2ELS4_10ELS4_7EEE24kDoubleScaleOperandSizesE, i32 0, i32 0), i8* getelementptr inbounds ([4 x i8], [4 x i8]* @_ZN2v88internal11interpreter14BytecodeTraitsILNS1_19ImplicitRegisterUseE3EJLNS1_11OperandTypeE9ELS4_10ELS4_7ELS4_5EEE24kDoubleScaleOperandSizesE, i32 0, i32 0), i8* getelementptr inbounds ([4 x i8], [4 x i8]* @_ZN2v88internal11interpreter14BytecodeTraitsILNS1_19ImplicitRegisterUseE3EJLNS1_11OperandTypeE9ELS4_10ELS4_7ELS4_5EEE24kDoubleScaleOperandSizesE, i32 0, i32 0), i8* getelementptr inbounds ([2 x i8], [2 x i8]* @_ZN2v88internal11interpreter14BytecodeTraitsILNS1_19ImplicitRegisterUseE3EJLNS1_11OperandTypeE9ELS4_5EEE24kDoubleScaleOperandSizesE, i32 0, i32 0), i8* getelementptr inbounds ([2 x i8], [2 x i8]* @_ZN2v88internal11interpreter14BytecodeTraitsILNS1_19ImplicitRegisterUseE3EJLNS1_11OperandTypeE9ELS4_5EEE24kDoubleScaleOperandSizesE, i32 0, i32 0), i8* getelementptr inbounds ([2 x i8], [2 x i8]* @_ZN2v88internal11interpreter14BytecodeTraitsILNS1_19ImplicitRegisterUseE3EJLNS1_11OperandTypeE9ELS4_5EEE24kDoubleScaleOperandSizesE, i32 0, i32 0), i8* getelementptr inbounds ([2 x i8], [2 x i8]* @_ZN2v88internal11interpreter14BytecodeTraitsILNS1_19ImplicitRegisterUseE3EJLNS1_11OperandTypeE9ELS4_5EEE24kDoubleScaleOperandSizesE, i32 0, i32 0), i8* getelementptr inbounds ([2 x i8], [2 x i8]* @_ZN2v88internal11interpreter14BytecodeTraitsILNS1_19ImplicitRegisterUseE3EJLNS1_11OperandTypeE9ELS4_5EEE24kDoubleScaleOperandSizesE, i32 0, i32 0), i8* getelementptr inbounds ([2 x i8], [2 x i8]* @_ZN2v88internal11interpreter14BytecodeTraitsILNS1_19ImplicitRegisterUseE3EJLNS1_11OperandTypeE9ELS4_5EEE24kDoubleScaleOperandSizesE, i32 0, i32 0), i8* getelementptr inbounds ([2 x i8], [2 x i8]* @_ZN2v88internal11interpreter14BytecodeTraitsILNS1_19ImplicitRegisterUseE3EJLNS1_11OperandTypeE9ELS4_5EEE24kDoubleScaleOperandSizesE, i32 0, i32 0), i8* getelementptr inbounds ([2 x i8], [2 x i8]* @_ZN2v88internal11interpreter14BytecodeTraitsILNS1_19ImplicitRegisterUseE3EJLNS1_11OperandTypeE9ELS4_5EEE24kDoubleScaleOperandSizesE, i32 0, i32 0), i8* getelementptr inbounds ([1 x i8], [1 x i8]* @_ZN2v88internal11interpreter14BytecodeTraitsILNS1_19ImplicitRegisterUseE1EJLNS1_11OperandTypeE12EEE24kDoubleScaleOperandSizesE, i32 0, i32 0), i8* getelementptr inbounds ([1 x i8], [1 x i8]* @_ZN2v88internal11interpreter14BytecodeTraitsILNS1_19ImplicitRegisterUseE3EJLNS1_11OperandTypeE5EEE24kDoubleScaleOperandSizesE, i32 0, i32 0), i8* getelementptr inbounds ([1 x i8], [1 x i8]* @_ZN2v88internal11interpreter14BytecodeTraitsILNS1_19ImplicitRegisterUseE3EJLNS1_11OperandTypeE5EEE24kDoubleScaleOperandSizesE, i32 0, i32 0), i8* getelementptr inbounds ([1 x i8], [1 x i8]* @_ZN2v88internal11interpreter14BytecodeTraitsILNS1_19ImplicitRegisterUseE1EJLNS1_11OperandTypeE12EEE24kDoubleScaleOperandSizesE, i32 0, i32 0), i8* getelementptr inbounds ([1 x i8], [1 x i8]* @_ZN2v88internal11interpreter14BytecodeTraitsILNS1_19ImplicitRegisterUseE3EJEE24kDoubleScaleOperandSizesE, i32 0, i32 0), i8* getelementptr inbounds ([3 x i8], [3 x i8]* @_ZN2v88internal11interpreter14BytecodeTraitsILNS1_19ImplicitRegisterUseE2EJLNS1_11OperandTypeE5ELS4_5ELS4_1EEE24kDoubleScaleOperandSizesE, i32 0, i32 0), i8* getelementptr inbounds ([3 x i8], [3 x i8]* @_ZN2v88internal11interpreter14BytecodeTraitsILNS1_19ImplicitRegisterUseE2EJLNS1_11OperandTypeE5ELS4_5ELS4_1EEE24kDoubleScaleOperandSizesE, i32 0, i32 0), i8* getelementptr inbounds ([1 x i8], [1 x i8]* @_ZN2v88internal11interpreter14BytecodeTraitsILNS1_19ImplicitRegisterUseE3EJEE24kDoubleScaleOperandSizesE, i32 0, i32 0), i8* getelementptr inbounds ([1 x i8], [1 x i8]* @_ZN2v88internal11interpreter14BytecodeTraitsILNS1_19ImplicitRegisterUseE2EJLNS1_11OperandTypeE5EEE24kDoubleScaleOperandSizesE, i32 0, i32 0), i8* getelementptr inbounds ([3 x i8], [3 x i8]* @_ZN2v88internal11interpreter14BytecodeTraitsILNS1_19ImplicitRegisterUseE2EJLNS1_11OperandTypeE5ELS4_5ELS4_1EEE24kDoubleScaleOperandSizesE, i32 0, i32 0), i8* getelementptr inbounds ([1 x i8], [1 x i8]* @_ZN2v88internal11interpreter14BytecodeTraitsILNS1_19ImplicitRegisterUseE2EJEE24kDoubleScaleOperandSizesE, i32 0, i32 0), i8* getelementptr inbounds ([3 x i8], [3 x i8]* @_ZN2v88internal11interpreter14BytecodeTraitsILNS1_19ImplicitRegisterUseE2EJLNS1_11OperandTypeE9ELS4_1ELS4_5EEE24kDoubleScaleOperandSizesE, i32 0, i32 0), i8* getelementptr inbounds ([2 x i8], [2 x i8]* @_ZN2v88internal11interpreter14BytecodeTraitsILNS1_19ImplicitRegisterUseE2EJLNS1_11OperandTypeE5ELS4_5EEE24kDoubleScaleOperandSizesE, i32 0, i32 0), i8* getelementptr inbounds ([3 x i8], [3 x i8]* @_ZN2v88internal11interpreter14BytecodeTraitsILNS1_19ImplicitRegisterUseE2EJLNS1_11OperandTypeE5ELS4_5ELS4_1EEE24kDoubleScaleOperandSizesE, i32 0, i32 0), i8* getelementptr inbounds ([1 x i8], [1 x i8]* @_ZN2v88internal11interpreter14BytecodeTraitsILNS1_19ImplicitRegisterUseE2EJLNS1_11OperandTypeE5EEE24kDoubleScaleOperandSizesE, i32 0, i32 0), i8* getelementptr inbounds ([2 x i8], [2 x i8]* @_ZN2v88internal11interpreter14BytecodeTraitsILNS1_19ImplicitRegisterUseE2EJLNS1_11OperandTypeE9ELS4_5EEE24kDoubleScaleOperandSizesE, i32 0, i32 0), i8* getelementptr inbounds ([2 x i8], [2 x i8]* @_ZN2v88internal11interpreter14BytecodeTraitsILNS1_19ImplicitRegisterUseE2EJLNS1_11OperandTypeE5ELS4_6EEE24kDoubleScaleOperandSizesE, i32 0, i32 0), i8* getelementptr inbounds ([2 x i8], [2 x i8]* @_ZN2v88internal11interpreter14BytecodeTraitsILNS1_19ImplicitRegisterUseE2EJLNS1_11OperandTypeE5ELS4_6EEE24kDoubleScaleOperandSizesE, i32 0, i32 0), i8* getelementptr inbounds ([2 x i8], [2 x i8]* @_ZN2v88internal11interpreter14BytecodeTraitsILNS1_19ImplicitRegisterUseE2EJLNS1_11OperandTypeE9ELS4_5EEE24kDoubleScaleOperandSizesE, i32 0, i32 0), i8* getelementptr inbounds ([1 x i8], [1 x i8]* @_ZN2v88internal11interpreter14BytecodeTraitsILNS1_19ImplicitRegisterUseE2EJEE24kDoubleScaleOperandSizesE, i32 0, i32 0), i8* getelementptr inbounds ([1 x i8], [1 x i8]* @_ZN2v88internal11interpreter14BytecodeTraitsILNS1_19ImplicitRegisterUseE2EJEE24kDoubleScaleOperandSizesE, i32 0, i32 0), i8* getelementptr inbounds ([1 x i8], [1 x i8]* @_ZN2v88internal11interpreter14BytecodeTraitsILNS1_19ImplicitRegisterUseE2EJEE24kDoubleScaleOperandSizesE, i32 0, i32 0), i8* getelementptr inbounds ([2 x i8], [2 x i8]* @_ZN2v88internal11interpreter14BytecodeTraitsILNS1_19ImplicitRegisterUseE0EJLNS1_11OperandTypeE6ELS4_8EEE24kDoubleScaleOperandSizesE, i32 0, i32 0), i8* getelementptr inbounds ([1 x i8], [1 x i8]* @_ZN2v88internal11interpreter14BytecodeTraitsILNS1_19ImplicitRegisterUseE0EJLNS1_11OperandTypeE6EEE24kDoubleScaleOperandSizesE, i32 0, i32 0), i8* getelementptr inbounds ([1 x i8], [1 x i8]* @_ZN2v88internal11interpreter14BytecodeTraitsILNS1_19ImplicitRegisterUseE0EJLNS1_11OperandTypeE5EEE24kDoubleScaleOperandSizesE, i32 0, i32 0), i8* getelementptr inbounds ([1 x i8], [1 x i8]* @_ZN2v88internal11interpreter14BytecodeTraitsILNS1_19ImplicitRegisterUseE1EJLNS1_11OperandTypeE5EEE24kDoubleScaleOperandSizesE, i32 0, i32 0), i8* getelementptr inbounds ([1 x i8], [1 x i8]* @_ZN2v88internal11interpreter14BytecodeTraitsILNS1_19ImplicitRegisterUseE1EJLNS1_11OperandTypeE5EEE24kDoubleScaleOperandSizesE, i32 0, i32 0), i8* getelementptr inbounds ([1 x i8], [1 x i8]* @_ZN2v88internal11interpreter14BytecodeTraitsILNS1_19ImplicitRegisterUseE1EJLNS1_11OperandTypeE5EEE24kDoubleScaleOperandSizesE, i32 0, i32 0), i8* getelementptr inbounds ([1 x i8], [1 x i8]* @_ZN2v88internal11interpreter14BytecodeTraitsILNS1_19ImplicitRegisterUseE1EJLNS1_11OperandTypeE5EEE24kDoubleScaleOperandSizesE, i32 0, i32 0), i8* getelementptr inbounds ([1 x i8], [1 x i8]* @_ZN2v88internal11interpreter14BytecodeTraitsILNS1_19ImplicitRegisterUseE1EJLNS1_11OperandTypeE5EEE24kDoubleScaleOperandSizesE, i32 0, i32 0), i8* getelementptr inbounds ([1 x i8], [1 x i8]* @_ZN2v88internal11interpreter14BytecodeTraitsILNS1_19ImplicitRegisterUseE1EJLNS1_11OperandTypeE5EEE24kDoubleScaleOperandSizesE, i32 0, i32 0), i8* getelementptr inbounds ([1 x i8], [1 x i8]* @_ZN2v88internal11interpreter14BytecodeTraitsILNS1_19ImplicitRegisterUseE1EJLNS1_11OperandTypeE5EEE24kDoubleScaleOperandSizesE, i32 0, i32 0), i8* getelementptr inbounds ([1 x i8], [1 x i8]* @_ZN2v88internal11interpreter14BytecodeTraitsILNS1_19ImplicitRegisterUseE1EJLNS1_11OperandTypeE5EEE24kDoubleScaleOperandSizesE, i32 0, i32 0), i8* getelementptr inbounds ([1 x i8], [1 x i8]* @_ZN2v88internal11interpreter14BytecodeTraitsILNS1_19ImplicitRegisterUseE1EJLNS1_11OperandTypeE5EEE24kDoubleScaleOperandSizesE, i32 0, i32 0), i8* getelementptr inbounds ([1 x i8], [1 x i8]* @_ZN2v88internal11interpreter14BytecodeTraitsILNS1_19ImplicitRegisterUseE1EJLNS1_11OperandTypeE5EEE24kDoubleScaleOperandSizesE, i32 0, i32 0), i8* getelementptr inbounds ([1 x i8], [1 x i8]* @_ZN2v88internal11interpreter14BytecodeTraitsILNS1_19ImplicitRegisterUseE1EJLNS1_11OperandTypeE6EEE24kDoubleScaleOperandSizesE, i32 0, i32 0), i8* getelementptr inbounds ([1 x i8], [1 x i8]* @_ZN2v88internal11interpreter14BytecodeTraitsILNS1_19ImplicitRegisterUseE1EJLNS1_11OperandTypeE6EEE24kDoubleScaleOperandSizesE, i32 0, i32 0), i8* getelementptr inbounds ([1 x i8], [1 x i8]* @_ZN2v88internal11interpreter14BytecodeTraitsILNS1_19ImplicitRegisterUseE1EJLNS1_11OperandTypeE6EEE24kDoubleScaleOperandSizesE, i32 0, i32 0), i8* getelementptr inbounds ([1 x i8], [1 x i8]* @_ZN2v88internal11interpreter14BytecodeTraitsILNS1_19ImplicitRegisterUseE1EJLNS1_11OperandTypeE6EEE24kDoubleScaleOperandSizesE, i32 0, i32 0), i8* getelementptr inbounds ([1 x i8], [1 x i8]* @_ZN2v88internal11interpreter14BytecodeTraitsILNS1_19ImplicitRegisterUseE1EJLNS1_11OperandTypeE6EEE24kDoubleScaleOperandSizesE, i32 0, i32 0), i8* getelementptr inbounds ([1 x i8], [1 x i8]* @_ZN2v88internal11interpreter14BytecodeTraitsILNS1_19ImplicitRegisterUseE1EJLNS1_11OperandTypeE6EEE24kDoubleScaleOperandSizesE, i32 0, i32 0), i8* getelementptr inbounds ([1 x i8], [1 x i8]* @_ZN2v88internal11interpreter14BytecodeTraitsILNS1_19ImplicitRegisterUseE1EJLNS1_11OperandTypeE6EEE24kDoubleScaleOperandSizesE, i32 0, i32 0), i8* getelementptr inbounds ([1 x i8], [1 x i8]* @_ZN2v88internal11interpreter14BytecodeTraitsILNS1_19ImplicitRegisterUseE1EJLNS1_11OperandTypeE6EEE24kDoubleScaleOperandSizesE, i32 0, i32 0), i8* getelementptr inbounds ([1 x i8], [1 x i8]* @_ZN2v88internal11interpreter14BytecodeTraitsILNS1_19ImplicitRegisterUseE1EJLNS1_11OperandTypeE6EEE24kDoubleScaleOperandSizesE, i32 0, i32 0), i8* getelementptr inbounds ([1 x i8], [1 x i8]* @_ZN2v88internal11interpreter14BytecodeTraitsILNS1_19ImplicitRegisterUseE1EJLNS1_11OperandTypeE6EEE24kDoubleScaleOperandSizesE, i32 0, i32 0), i8* getelementptr inbounds ([3 x i8], [3 x i8]* @_ZN2v88internal11interpreter14BytecodeTraitsILNS1_19ImplicitRegisterUseE1EJLNS1_11OperandTypeE5ELS4_6ELS4_8EEE24kDoubleScaleOperandSizesE, i32 0, i32 0), i8* getelementptr inbounds ([1 x i8], [1 x i8]* @_ZN2v88internal11interpreter14BytecodeTraitsILNS1_19ImplicitRegisterUseE2EJLNS1_11OperandTypeE9EEE24kDoubleScaleOperandSizesE, i32 0, i32 0), i8* getelementptr inbounds ([2 x i8], [2 x i8]* @_ZN2v88internal11interpreter14BytecodeTraitsILNS1_19ImplicitRegisterUseE1EJLNS1_11OperandTypeE15ELS4_5EEE24kDoubleScaleOperandSizesE, i32 0, i32 0), i8* getelementptr inbounds ([2 x i8], [2 x i8]* @_ZN2v88internal11interpreter14BytecodeTraitsILNS1_19ImplicitRegisterUseE2EJLNS1_11OperandTypeE9ELS4_9EEE24kDoubleScaleOperandSizesE, i32 0, i32 0), i8* getelementptr inbounds ([4 x i8], [4 x i8]* @_ZN2v88internal11interpreter14BytecodeTraitsILNS1_19ImplicitRegisterUseE2EJLNS1_11OperandTypeE9ELS4_9ELS4_11ELS4_5EEE24kDoubleScaleOperandSizesE, i32 0, i32 0), i8* getelementptr inbounds ([1 x i8], [1 x i8]* @_ZN2v88internal11interpreter14BytecodeTraitsILNS1_19ImplicitRegisterUseE2EJLNS1_11OperandTypeE9EEE24kDoubleScaleOperandSizesE, i32 0, i32 0), i8* getelementptr inbounds ([1 x i8], [1 x i8]* @_ZN2v88internal11interpreter14BytecodeTraitsILNS1_19ImplicitRegisterUseE3EJEE24kDoubleScaleOperandSizesE, i32 0, i32 0), i8* getelementptr inbounds ([1 x i8], [1 x i8]* @_ZN2v88internal11interpreter14BytecodeTraitsILNS1_19ImplicitRegisterUseE1EJEE24kDoubleScaleOperandSizesE, i32 0, i32 0), i8* getelementptr inbounds ([1 x i8], [1 x i8]* @_ZN2v88internal11interpreter14BytecodeTraitsILNS1_19ImplicitRegisterUseE1EJEE24kDoubleScaleOperandSizesE, i32 0, i32 0), i8* getelementptr inbounds ([1 x i8], [1 x i8]* @_ZN2v88internal11interpreter14BytecodeTraitsILNS1_19ImplicitRegisterUseE1EJEE24kDoubleScaleOperandSizesE, i32 0, i32 0), i8* getelementptr inbounds ([1 x i8], [1 x i8]* @_ZN2v88internal11interpreter14BytecodeTraitsILNS1_19ImplicitRegisterUseE1EJLNS1_11OperandTypeE5EEE24kDoubleScaleOperandSizesE, i32 0, i32 0), i8* getelementptr inbounds ([1 x i8], [1 x i8]* @_ZN2v88internal11interpreter14BytecodeTraitsILNS1_19ImplicitRegisterUseE1EJEE24kDoubleScaleOperandSizesE, i32 0, i32 0), i8* getelementptr inbounds ([1 x i8], [1 x i8]* @_ZN2v88internal11interpreter14BytecodeTraitsILNS1_19ImplicitRegisterUseE1EJEE24kDoubleScaleOperandSizesE, i32 0, i32 0), i8* getelementptr inbounds ([1 x i8], [1 x i8]* @_ZN2v88internal11interpreter14BytecodeTraitsILNS1_19ImplicitRegisterUseE0EJLNS1_11OperandTypeE9EEE24kDoubleScaleOperandSizesE, i32 0, i32 0), i8* getelementptr inbounds ([3 x i8], [3 x i8]* @_ZN2v88internal11interpreter14BytecodeTraitsILNS1_19ImplicitRegisterUseE0EJLNS1_11OperandTypeE9ELS4_5ELS4_6EEE24kDoubleScaleOperandSizesE, i32 0, i32 0), i8* getelementptr inbounds ([4 x i8], [4 x i8]* @_ZN2v88internal11interpreter14BytecodeTraitsILNS1_19ImplicitRegisterUseE1EJLNS1_11OperandTypeE9ELS4_10ELS4_7ELS4_6EEE24kDoubleScaleOperandSizesE, i32 0, i32 0), i8* getelementptr inbounds ([3 x i8], [3 x i8]* @_ZN2v88internal11interpreter14BytecodeTraitsILNS1_19ImplicitRegisterUseE2EJLNS1_11OperandTypeE9ELS4_13ELS4_7EEE24kDoubleScaleOperandSizesE, i32 0, i32 0), i8* getelementptr inbounds ([3 x i8], [3 x i8]* @_ZN2v88internal11interpreter14BytecodeTraitsILNS1_19ImplicitRegisterUseE2EJLNS1_11OperandTypeE9ELS4_5ELS4_5EEE24kDoubleScaleOperandSizesE, i32 0, i32 0), i8* getelementptr inbounds ([1 x i8], [1 x i8]* @_ZN2v88internal11interpreter14BytecodeTraitsILNS1_19ImplicitRegisterUseE0EJEE24kDoubleScaleOperandSizesE, i32 0, i32 0), i8* getelementptr inbounds ([1 x i8], [1 x i8]* @_ZN2v88internal11interpreter14BytecodeTraitsILNS1_19ImplicitRegisterUseE0EJLNS1_11OperandTypeE5EEE24kDoubleScaleOperandSizesE, i32 0, i32 0), i8* getelementptr inbounds ([1 x i8], [1 x i8]* @_ZN2v88internal11interpreter14BytecodeTraitsILNS1_19ImplicitRegisterUseE0EJLNS1_11OperandTypeE5EEE24kDoubleScaleOperandSizesE, i32 0, i32 0), i8* getelementptr inbounds ([1 x i8], [1 x i8]* @_ZN2v88internal11interpreter14BytecodeTraitsILNS1_19ImplicitRegisterUseE5EJEE24kDoubleScaleOperandSizesE, i32 0, i32 0), i8* getelementptr inbounds ([1 x i8], [1 x i8]* @_ZN2v88internal11interpreter14BytecodeTraitsILNS1_19ImplicitRegisterUseE5EJEE24kDoubleScaleOperandSizesE, i32 0, i32 0), i8* getelementptr inbounds ([1 x i8], [1 x i8]* @_ZN2v88internal11interpreter14BytecodeTraitsILNS1_19ImplicitRegisterUseE5EJEE24kDoubleScaleOperandSizesE, i32 0, i32 0), i8* getelementptr inbounds ([1 x i8], [1 x i8]* @_ZN2v88internal11interpreter14BytecodeTraitsILNS1_19ImplicitRegisterUseE5EJEE24kDoubleScaleOperandSizesE, i32 0, i32 0), i8* getelementptr inbounds ([1 x i8], [1 x i8]* @_ZN2v88internal11interpreter14BytecodeTraitsILNS1_19ImplicitRegisterUseE5EJEE24kDoubleScaleOperandSizesE, i32 0, i32 0), i8* getelementptr inbounds ([1 x i8], [1 x i8]* @_ZN2v88internal11interpreter14BytecodeTraitsILNS1_19ImplicitRegisterUseE5EJEE24kDoubleScaleOperandSizesE, i32 0, i32 0), i8* getelementptr inbounds ([1 x i8], [1 x i8]* @_ZN2v88internal11interpreter14BytecodeTraitsILNS1_19ImplicitRegisterUseE5EJEE24kDoubleScaleOperandSizesE, i32 0, i32 0), i8* getelementptr inbounds ([1 x i8], [1 x i8]* @_ZN2v88internal11interpreter14BytecodeTraitsILNS1_19ImplicitRegisterUseE5EJEE24kDoubleScaleOperandSizesE, i32 0, i32 0), i8* getelementptr inbounds ([1 x i8], [1 x i8]* @_ZN2v88internal11interpreter14BytecodeTraitsILNS1_19ImplicitRegisterUseE5EJEE24kDoubleScaleOperandSizesE, i32 0, i32 0), i8* getelementptr inbounds ([1 x i8], [1 x i8]* @_ZN2v88internal11interpreter14BytecodeTraitsILNS1_19ImplicitRegisterUseE5EJEE24kDoubleScaleOperandSizesE, i32 0, i32 0), i8* getelementptr inbounds ([1 x i8], [1 x i8]* @_ZN2v88internal11interpreter14BytecodeTraitsILNS1_19ImplicitRegisterUseE5EJEE24kDoubleScaleOperandSizesE, i32 0, i32 0), i8* getelementptr inbounds ([1 x i8], [1 x i8]* @_ZN2v88internal11interpreter14BytecodeTraitsILNS1_19ImplicitRegisterUseE5EJEE24kDoubleScaleOperandSizesE, i32 0, i32 0), i8* getelementptr inbounds ([1 x i8], [1 x i8]* @_ZN2v88internal11interpreter14BytecodeTraitsILNS1_19ImplicitRegisterUseE5EJEE24kDoubleScaleOperandSizesE, i32 0, i32 0), i8* getelementptr inbounds ([1 x i8], [1 x i8]* @_ZN2v88internal11interpreter14BytecodeTraitsILNS1_19ImplicitRegisterUseE5EJEE24kDoubleScaleOperandSizesE, i32 0, i32 0), i8* getelementptr inbounds ([1 x i8], [1 x i8]* @_ZN2v88internal11interpreter14BytecodeTraitsILNS1_19ImplicitRegisterUseE5EJEE24kDoubleScaleOperandSizesE, i32 0, i32 0), i8* getelementptr inbounds ([1 x i8], [1 x i8]* @_ZN2v88internal11interpreter14BytecodeTraitsILNS1_19ImplicitRegisterUseE5EJEE24kDoubleScaleOperandSizesE, i32 0, i32 0), i8* getelementptr inbounds ([1 x i8], [1 x i8]* @_ZN2v88internal11interpreter14BytecodeTraitsILNS1_19ImplicitRegisterUseE0EJEE24kDoubleScaleOperandSizesE, i32 0, i32 0)], [197 x i8*] [i8* getelementptr inbounds ([1 x i8], [1 x i8]* @_ZN2v88internal11interpreter14BytecodeTraitsILNS1_19ImplicitRegisterUseE0EJEE27kQuadrupleScaleOperandSizesE, i32 0, i32 0), i8* getelementptr inbounds ([1 x i8], [1 x i8]* @_ZN2v88internal11interpreter14BytecodeTraitsILNS1_19ImplicitRegisterUseE0EJEE27kQuadrupleScaleOperandSizesE, i32 0, i32 0), i8* getelementptr inbounds ([1 x i8], [1 x i8]* @_ZN2v88internal11interpreter14BytecodeTraitsILNS1_19ImplicitRegisterUseE3EJEE27kQuadrupleScaleOperandSizesE, i32 0, i32 0), i8* getelementptr inbounds ([1 x i8], [1 x i8]* @_ZN2v88internal11interpreter14BytecodeTraitsILNS1_19ImplicitRegisterUseE3EJEE27kQuadrupleScaleOperandSizesE, i32 0, i32 0), i8* getelementptr inbounds ([1 x i8], [1 x i8]* @_ZN2v88internal11interpreter14BytecodeTraitsILNS1_19ImplicitRegisterUseE3EJEE27kQuadrupleScaleOperandSizesE, i32 0, i32 0), i8* getelementptr inbounds ([1 x i8], [1 x i8]* @_ZN2v88internal11interpreter14BytecodeTraitsILNS1_19ImplicitRegisterUseE3EJLNS1_11OperandTypeE9EEE27kQuadrupleScaleOperandSizesE, i32 0, i32 0), i8* getelementptr inbounds ([2 x i8], [2 x i8]* @_ZN2v88internal11interpreter14BytecodeTraitsILNS1_19ImplicitRegisterUseE3EJLNS1_11OperandTypeE9ELS4_9EEE27kQuadrupleScaleOperandSizesE, i32 0, i32 0), i8* getelementptr inbounds ([3 x i8], [3 x i8]* @_ZN2v88internal11interpreter14BytecodeTraitsILNS1_19ImplicitRegisterUseE3EJLNS1_11OperandTypeE9ELS4_9ELS4_9EEE27kQuadrupleScaleOperandSizesE, i32 0, i32 0), i8* getelementptr inbounds ([4 x i8], [4 x i8]* @_ZN2v88internal11interpreter14BytecodeTraitsILNS1_19ImplicitRegisterUseE3EJLNS1_11OperandTypeE9ELS4_9ELS4_9ELS4_9EEE27kQuadrupleScaleOperandSizesE, i32 0, i32 0), i8* getelementptr inbounds ([3 x i8], [3 x i8]* @_ZN2v88internal11interpreter14BytecodeTraitsILNS1_19ImplicitRegisterUseE3EJLNS1_11OperandTypeE3ELS4_9ELS4_9EEE27kQuadrupleScaleOperandSizesE, i32 0, i32 0), i8* getelementptr inbounds ([4 x i8], [4 x i8]* @_ZN2v88internal11interpreter14BytecodeTraitsILNS1_19ImplicitRegisterUseE3EJLNS1_11OperandTypeE3ELS4_9ELS4_9ELS4_9EEE27kQuadrupleScaleOperandSizesE, i32 0, i32 0), i8* getelementptr inbounds ([1 x i8], [1 x i8]* @_ZN2v88internal11interpreter14BytecodeTraitsILNS1_19ImplicitRegisterUseE2EJLNS1_11OperandTypeE9EEE27kQuadrupleScaleOperandSizesE, i32 0, i32 0), i8* getelementptr inbounds ([1 x i8], [1 x i8]* @_ZN2v88internal11interpreter14BytecodeTraitsILNS1_19ImplicitRegisterUseE2EJEE27kQuadrupleScaleOperandSizesE, i32 0, i32 0), i8* getelementptr inbounds ([1 x i8], [1 x i8]* @_ZN2v88internal11interpreter14BytecodeTraitsILNS1_19ImplicitRegisterUseE2EJLNS1_11OperandTypeE8EEE27kQuadrupleScaleOperandSizesE, i32 0, i32 0), i8* getelementptr inbounds ([1 x i8], [1 x i8]* @_ZN2v88internal11interpreter14BytecodeTraitsILNS1_19ImplicitRegisterUseE2EJEE27kQuadrupleScaleOperandSizesE, i32 0, i32 0), i8* getelementptr inbounds ([1 x i8], [1 x i8]* @_ZN2v88internal11interpreter14BytecodeTraitsILNS1_19ImplicitRegisterUseE2EJEE27kQuadrupleScaleOperandSizesE, i32 0, i32 0), i8* getelementptr inbounds ([1 x i8], [1 x i8]* @_ZN2v88internal11interpreter14BytecodeTraitsILNS1_19ImplicitRegisterUseE2EJEE27kQuadrupleScaleOperandSizesE, i32 0, i32 0), i8* getelementptr inbounds ([1 x i8], [1 x i8]* @_ZN2v88internal11interpreter14BytecodeTraitsILNS1_19ImplicitRegisterUseE2EJEE27kQuadrupleScaleOperandSizesE, i32 0, i32 0), i8* getelementptr inbounds ([1 x i8], [1 x i8]* @_ZN2v88internal11interpreter14BytecodeTraitsILNS1_19ImplicitRegisterUseE2EJEE27kQuadrupleScaleOperandSizesE, i32 0, i32 0), i8* getelementptr inbounds ([1 x i8], [1 x i8]* @_ZN2v88internal11interpreter14BytecodeTraitsILNS1_19ImplicitRegisterUseE2EJLNS1_11OperandTypeE5EEE27kQuadrupleScaleOperandSizesE, i32 0, i32 0), i8* getelementptr inbounds ([3 x i8], [3 x i8]* @_ZN2v88internal11interpreter14BytecodeTraitsILNS1_19ImplicitRegisterUseE2EJLNS1_11OperandTypeE9ELS4_5ELS4_6EEE27kQuadrupleScaleOperandSizesE, i32 0, i32 0), i8* getelementptr inbounds ([3 x i8], [3 x i8]* @_ZN2v88internal11interpreter14BytecodeTraitsILNS1_19ImplicitRegisterUseE2EJLNS1_11OperandTypeE9ELS4_5ELS4_6EEE27kQuadrupleScaleOperandSizesE, i32 0, i32 0), i8* getelementptr inbounds ([1 x i8], [1 x i8]* @_ZN2v88internal11interpreter14BytecodeTraitsILNS1_19ImplicitRegisterUseE2EJLNS1_11OperandTypeE5EEE27kQuadrupleScaleOperandSizesE, i32 0, i32 0), i8* getelementptr inbounds ([1 x i8], [1 x i8]* @_ZN2v88internal11interpreter14BytecodeTraitsILNS1_19ImplicitRegisterUseE2EJLNS1_11OperandTypeE5EEE27kQuadrupleScaleOperandSizesE, i32 0, i32 0), i8* getelementptr inbounds ([1 x i8], [1 x i8]* @_ZN2v88internal11interpreter14BytecodeTraitsILNS1_19ImplicitRegisterUseE1EJLNS1_11OperandTypeE12EEE27kQuadrupleScaleOperandSizesE, i32 0, i32 0), i8* getelementptr inbounds ([2 x i8], [2 x i8]* @_ZN2v88internal11interpreter14BytecodeTraitsILNS1_19ImplicitRegisterUseE0EJLNS1_11OperandTypeE9ELS4_12EEE27kQuadrupleScaleOperandSizesE, i32 0, i32 0), i8* getelementptr inbounds ([1 x i8], [1 x i8]* @_ZN2v88internal11interpreter14BytecodeTraitsILNS1_19ImplicitRegisterUseE1EJLNS1_11OperandTypeE12EEE27kQuadrupleScaleOperandSizesE, i32 0, i32 0), i8* getelementptr inbounds ([1 x i8], [1 x i8]* @_ZN2v88internal11interpreter14BytecodeTraitsILNS1_19ImplicitRegisterUseE0EJLNS1_11OperandTypeE9EEE27kQuadrupleScaleOperandSizesE, i32 0, i32 0), i8* getelementptr inbounds ([1 x i8], [1 x i8]* @_ZN2v88internal11interpreter14BytecodeTraitsILNS1_19ImplicitRegisterUseE3EJLNS1_11OperandTypeE9EEE27kQuadrupleScaleOperandSizesE, i32 0, i32 0), i8* getelementptr inbounds ([1 x i8], [1 x i8]* @_ZN2v88internal11interpreter14BytecodeTraitsILNS1_19ImplicitRegisterUseE3EJEE27kQuadrupleScaleOperandSizesE, i32 0, i32 0), i8* getelementptr inbounds ([1 x i8], [1 x i8]* @_ZN2v88internal11interpreter14BytecodeTraitsILNS1_19ImplicitRegisterUseE3EJEE27kQuadrupleScaleOperandSizesE, i32 0, i32 0), i8* getelementptr inbounds ([1 x i8], [1 x i8]* @_ZN2v88internal11interpreter14BytecodeTraitsILNS1_19ImplicitRegisterUseE3EJEE27kQuadrupleScaleOperandSizesE, i32 0, i32 0), i8* getelementptr inbounds ([1 x i8], [1 x i8]* @_ZN2v88internal11interpreter14BytecodeTraitsILNS1_19ImplicitRegisterUseE3EJLNS1_11OperandTypeE1EEE27kQuadrupleScaleOperandSizesE, i32 0, i32 0), i8* getelementptr inbounds ([2 x i8], [2 x i8]* @_ZN2v88internal11interpreter14BytecodeTraitsILNS1_19ImplicitRegisterUseE2EJLNS1_11OperandTypeE5ELS4_5EEE27kQuadrupleScaleOperandSizesE, i32 0, i32 0), i8* getelementptr inbounds ([2 x i8], [2 x i8]* @_ZN2v88internal11interpreter14BytecodeTraitsILNS1_19ImplicitRegisterUseE2EJLNS1_11OperandTypeE5ELS4_5EEE27kQuadrupleScaleOperandSizesE, i32 0, i32 0), i8* getelementptr inbounds ([2 x i8], [2 x i8]* @_ZN2v88internal11interpreter14BytecodeTraitsILNS1_19ImplicitRegisterUseE1EJLNS1_11OperandTypeE5ELS4_5EEE27kQuadrupleScaleOperandSizesE, i32 0, i32 0), i8* getelementptr inbounds ([3 x i8], [3 x i8]* @_ZN2v88internal11interpreter14BytecodeTraitsILNS1_19ImplicitRegisterUseE1EJLNS1_11OperandTypeE9ELS4_5ELS4_6EEE27kQuadrupleScaleOperandSizesE, i32 0, i32 0), i8* getelementptr inbounds ([1 x i8], [1 x i8]* @_ZN2v88internal11interpreter14BytecodeTraitsILNS1_19ImplicitRegisterUseE1EJLNS1_11OperandTypeE5EEE27kQuadrupleScaleOperandSizesE, i32 0, i32 0), i8* getelementptr inbounds ([1 x i8], [1 x i8]* @_ZN2v88internal11interpreter14BytecodeTraitsILNS1_19ImplicitRegisterUseE2EJLNS1_11OperandTypeE5EEE27kQuadrupleScaleOperandSizesE, i32 0, i32 0), i8* getelementptr inbounds ([3 x i8], [3 x i8]* @_ZN2v88internal11interpreter14BytecodeTraitsILNS1_19ImplicitRegisterUseE2EJLNS1_11OperandTypeE5ELS4_5ELS4_6EEE27kQuadrupleScaleOperandSizesE, i32 0, i32 0), i8* getelementptr inbounds ([3 x i8], [3 x i8]* @_ZN2v88internal11interpreter14BytecodeTraitsILNS1_19ImplicitRegisterUseE2EJLNS1_11OperandTypeE5ELS4_5ELS4_6EEE27kQuadrupleScaleOperandSizesE, i32 0, i32 0), i8* getelementptr inbounds ([1 x i8], [1 x i8]* @_ZN2v88internal11interpreter14BytecodeTraitsILNS1_19ImplicitRegisterUseE2EJLNS1_11OperandTypeE5EEE27kQuadrupleScaleOperandSizesE, i32 0, i32 0), i8* getelementptr inbounds ([3 x i8], [3 x i8]* @_ZN2v88internal11interpreter14BytecodeTraitsILNS1_19ImplicitRegisterUseE2EJLNS1_11OperandTypeE5ELS4_5ELS4_6EEE27kQuadrupleScaleOperandSizesE, i32 0, i32 0), i8* getelementptr inbounds ([3 x i8], [3 x i8]* @_ZN2v88internal11interpreter14BytecodeTraitsILNS1_19ImplicitRegisterUseE2EJLNS1_11OperandTypeE5ELS4_5ELS4_6EEE27kQuadrupleScaleOperandSizesE, i32 0, i32 0), i8* getelementptr inbounds ([2 x i8], [2 x i8]* @_ZN2v88internal11interpreter14BytecodeTraitsILNS1_19ImplicitRegisterUseE3EJLNS1_11OperandTypeE5ELS4_1EEE27kQuadrupleScaleOperandSizesE, i32 0, i32 0), i8* getelementptr inbounds ([3 x i8], [3 x i8]* @_ZN2v88internal11interpreter14BytecodeTraitsILNS1_19ImplicitRegisterUseE2EJLNS1_11OperandTypeE9ELS4_5ELS4_5EEE27kQuadrupleScaleOperandSizesE, i32 0, i32 0), i8* getelementptr inbounds ([3 x i8], [3 x i8]* @_ZN2v88internal11interpreter14BytecodeTraitsILNS1_19ImplicitRegisterUseE3EJLNS1_11OperandTypeE9ELS4_5ELS4_5EEE27kQuadrupleScaleOperandSizesE, i32 0, i32 0), i8* getelementptr inbounds ([2 x i8], [2 x i8]* @_ZN2v88internal11interpreter14BytecodeTraitsILNS1_19ImplicitRegisterUseE3EJLNS1_11OperandTypeE9ELS4_5EEE27kQuadrupleScaleOperandSizesE, i32 0, i32 0), i8* getelementptr inbounds ([2 x i8], [2 x i8]* @_ZN2v88internal11interpreter14BytecodeTraitsILNS1_19ImplicitRegisterUseE2EJLNS1_11OperandTypeE8ELS4_6EEE27kQuadrupleScaleOperandSizesE, i32 0, i32 0), i8* getelementptr inbounds ([2 x i8], [2 x i8]* @_ZN2v88internal11interpreter14BytecodeTraitsILNS1_19ImplicitRegisterUseE1EJLNS1_11OperandTypeE8ELS4_6EEE27kQuadrupleScaleOperandSizesE, i32 0, i32 0), i8* getelementptr inbounds ([3 x i8], [3 x i8]* @_ZN2v88internal11interpreter14BytecodeTraitsILNS1_19ImplicitRegisterUseE3EJLNS1_11OperandTypeE9ELS4_5ELS4_5EEE27kQuadrupleScaleOperandSizesE, i32 0, i32 0), i8* getelementptr inbounds ([3 x i8], [3 x i8]* @_ZN2v88internal11interpreter14BytecodeTraitsILNS1_19ImplicitRegisterUseE3EJLNS1_11OperandTypeE9ELS4_5ELS4_5EEE27kQuadrupleScaleOperandSizesE, i32 0, i32 0), i8* getelementptr inbounds ([3 x i8], [3 x i8]* @_ZN2v88internal11interpreter14BytecodeTraitsILNS1_19ImplicitRegisterUseE3EJLNS1_11OperandTypeE9ELS4_9ELS4_5EEE27kQuadrupleScaleOperandSizesE, i32 0, i32 0), i8* getelementptr inbounds ([3 x i8], [3 x i8]* @_ZN2v88internal11interpreter14BytecodeTraitsILNS1_19ImplicitRegisterUseE3EJLNS1_11OperandTypeE9ELS4_9ELS4_5EEE27kQuadrupleScaleOperandSizesE, i32 0, i32 0), i8* getelementptr inbounds ([4 x i8], [4 x i8]* @_ZN2v88internal11interpreter14BytecodeTraitsILNS1_19ImplicitRegisterUseE1EJLNS1_11OperandTypeE9ELS4_9ELS4_1ELS4_5EEE27kQuadrupleScaleOperandSizesE, i32 0, i32 0), i8* getelementptr inbounds ([1 x i8], [1 x i8]* @_ZN2v88internal11interpreter14BytecodeTraitsILNS1_19ImplicitRegisterUseE1EJLNS1_11OperandTypeE8EEE27kQuadrupleScaleOperandSizesE, i32 0, i32 0), i8* getelementptr inbounds ([2 x i8], [2 x i8]* @_ZN2v88internal11interpreter14BytecodeTraitsILNS1_19ImplicitRegisterUseE3EJLNS1_11OperandTypeE9ELS4_5EEE27kQuadrupleScaleOperandSizesE, i32 0, i32 0), i8* getelementptr inbounds ([2 x i8], [2 x i8]* @_ZN2v88internal11interpreter14BytecodeTraitsILNS1_19ImplicitRegisterUseE3EJLNS1_11OperandTypeE9ELS4_5EEE27kQuadrupleScaleOperandSizesE, i32 0, i32 0), i8* getelementptr inbounds ([2 x i8], [2 x i8]* @_ZN2v88internal11interpreter14BytecodeTraitsILNS1_19ImplicitRegisterUseE3EJLNS1_11OperandTypeE9ELS4_5EEE27kQuadrupleScaleOperandSizesE, i32 0, i32 0), i8* getelementptr inbounds ([2 x i8], [2 x i8]* @_ZN2v88internal11interpreter14BytecodeTraitsILNS1_19ImplicitRegisterUseE3EJLNS1_11OperandTypeE9ELS4_5EEE27kQuadrupleScaleOperandSizesE, i32 0, i32 0), i8* getelementptr inbounds ([2 x i8], [2 x i8]* @_ZN2v88internal11interpreter14BytecodeTraitsILNS1_19ImplicitRegisterUseE3EJLNS1_11OperandTypeE9ELS4_5EEE27kQuadrupleScaleOperandSizesE, i32 0, i32 0), i8* getelementptr inbounds ([2 x i8], [2 x i8]* @_ZN2v88internal11interpreter14BytecodeTraitsILNS1_19ImplicitRegisterUseE3EJLNS1_11OperandTypeE9ELS4_5EEE27kQuadrupleScaleOperandSizesE, i32 0, i32 0), i8* getelementptr inbounds ([2 x i8], [2 x i8]* @_ZN2v88internal11interpreter14BytecodeTraitsILNS1_19ImplicitRegisterUseE3EJLNS1_11OperandTypeE9ELS4_5EEE27kQuadrupleScaleOperandSizesE, i32 0, i32 0), i8* getelementptr inbounds ([2 x i8], [2 x i8]* @_ZN2v88internal11interpreter14BytecodeTraitsILNS1_19ImplicitRegisterUseE3EJLNS1_11OperandTypeE9ELS4_5EEE27kQuadrupleScaleOperandSizesE, i32 0, i32 0), i8* getelementptr inbounds ([2 x i8], [2 x i8]* @_ZN2v88internal11interpreter14BytecodeTraitsILNS1_19ImplicitRegisterUseE3EJLNS1_11OperandTypeE9ELS4_5EEE27kQuadrupleScaleOperandSizesE, i32 0, i32 0), i8* getelementptr inbounds ([2 x i8], [2 x i8]* @_ZN2v88internal11interpreter14BytecodeTraitsILNS1_19ImplicitRegisterUseE3EJLNS1_11OperandTypeE9ELS4_5EEE27kQuadrupleScaleOperandSizesE, i32 0, i32 0), i8* getelementptr inbounds ([2 x i8], [2 x i8]* @_ZN2v88internal11interpreter14BytecodeTraitsILNS1_19ImplicitRegisterUseE3EJLNS1_11OperandTypeE9ELS4_5EEE27kQuadrupleScaleOperandSizesE, i32 0, i32 0), i8* getelementptr inbounds ([2 x i8], [2 x i8]* @_ZN2v88internal11interpreter14BytecodeTraitsILNS1_19ImplicitRegisterUseE3EJLNS1_11OperandTypeE9ELS4_5EEE27kQuadrupleScaleOperandSizesE, i32 0, i32 0), i8* getelementptr inbounds ([2 x i8], [2 x i8]* @_ZN2v88internal11interpreter14BytecodeTraitsILNS1_19ImplicitRegisterUseE3EJLNS1_11OperandTypeE8ELS4_5EEE27kQuadrupleScaleOperandSizesE, i32 0, i32 0), i8* getelementptr inbounds ([2 x i8], [2 x i8]* @_ZN2v88internal11interpreter14BytecodeTraitsILNS1_19ImplicitRegisterUseE3EJLNS1_11OperandTypeE8ELS4_5EEE27kQuadrupleScaleOperandSizesE, i32 0, i32 0), i8* getelementptr inbounds ([2 x i8], [2 x i8]* @_ZN2v88internal11interpreter14BytecodeTraitsILNS1_19ImplicitRegisterUseE3EJLNS1_11OperandTypeE8ELS4_5EEE27kQuadrupleScaleOperandSizesE, i32 0, i32 0), i8* getelementptr inbounds ([2 x i8], [2 x i8]* @_ZN2v88internal11interpreter14BytecodeTraitsILNS1_19ImplicitRegisterUseE3EJLNS1_11OperandTypeE8ELS4_5EEE27kQuadrupleScaleOperandSizesE, i32 0, i32 0), i8* getelementptr inbounds ([2 x i8], [2 x i8]* @_ZN2v88internal11interpreter14BytecodeTraitsILNS1_19ImplicitRegisterUseE3EJLNS1_11OperandTypeE8ELS4_5EEE27kQuadrupleScaleOperandSizesE, i32 0, i32 0), i8* getelementptr inbounds ([2 x i8], [2 x i8]* @_ZN2v88internal11interpreter14BytecodeTraitsILNS1_19ImplicitRegisterUseE3EJLNS1_11OperandTypeE8ELS4_5EEE27kQuadrupleScaleOperandSizesE, i32 0, i32 0), i8* getelementptr inbounds ([2 x i8], [2 x i8]* @_ZN2v88internal11interpreter14BytecodeTraitsILNS1_19ImplicitRegisterUseE3EJLNS1_11OperandTypeE8ELS4_5EEE27kQuadrupleScaleOperandSizesE, i32 0, i32 0), i8* getelementptr inbounds ([2 x i8], [2 x i8]* @_ZN2v88internal11interpreter14BytecodeTraitsILNS1_19ImplicitRegisterUseE3EJLNS1_11OperandTypeE8ELS4_5EEE27kQuadrupleScaleOperandSizesE, i32 0, i32 0), i8* getelementptr inbounds ([2 x i8], [2 x i8]* @_ZN2v88internal11interpreter14BytecodeTraitsILNS1_19ImplicitRegisterUseE3EJLNS1_11OperandTypeE8ELS4_5EEE27kQuadrupleScaleOperandSizesE, i32 0, i32 0), i8* getelementptr inbounds ([2 x i8], [2 x i8]* @_ZN2v88internal11interpreter14BytecodeTraitsILNS1_19ImplicitRegisterUseE3EJLNS1_11OperandTypeE8ELS4_5EEE27kQuadrupleScaleOperandSizesE, i32 0, i32 0), i8* getelementptr inbounds ([2 x i8], [2 x i8]* @_ZN2v88internal11interpreter14BytecodeTraitsILNS1_19ImplicitRegisterUseE3EJLNS1_11OperandTypeE8ELS4_5EEE27kQuadrupleScaleOperandSizesE, i32 0, i32 0), i8* getelementptr inbounds ([2 x i8], [2 x i8]* @_ZN2v88internal11interpreter14BytecodeTraitsILNS1_19ImplicitRegisterUseE3EJLNS1_11OperandTypeE8ELS4_5EEE27kQuadrupleScaleOperandSizesE, i32 0, i32 0), i8* getelementptr inbounds ([1 x i8], [1 x i8]* @_ZN2v88internal11interpreter14BytecodeTraitsILNS1_19ImplicitRegisterUseE3EJLNS1_11OperandTypeE5EEE27kQuadrupleScaleOperandSizesE, i32 0, i32 0), i8* getelementptr inbounds ([1 x i8], [1 x i8]* @_ZN2v88internal11interpreter14BytecodeTraitsILNS1_19ImplicitRegisterUseE3EJLNS1_11OperandTypeE5EEE27kQuadrupleScaleOperandSizesE, i32 0, i32 0), i8* getelementptr inbounds ([1 x i8], [1 x i8]* @_ZN2v88internal11interpreter14BytecodeTraitsILNS1_19ImplicitRegisterUseE3EJLNS1_11OperandTypeE5EEE27kQuadrupleScaleOperandSizesE, i32 0, i32 0), i8* getelementptr inbounds ([1 x i8], [1 x i8]* @_ZN2v88internal11interpreter14BytecodeTraitsILNS1_19ImplicitRegisterUseE3EJLNS1_11OperandTypeE5EEE27kQuadrupleScaleOperandSizesE, i32 0, i32 0), i8* getelementptr inbounds ([1 x i8], [1 x i8]* @_ZN2v88internal11interpreter14BytecodeTraitsILNS1_19ImplicitRegisterUseE3EJEE27kQuadrupleScaleOperandSizesE, i32 0, i32 0), i8* getelementptr inbounds ([1 x i8], [1 x i8]* @_ZN2v88internal11interpreter14BytecodeTraitsILNS1_19ImplicitRegisterUseE3EJEE27kQuadrupleScaleOperandSizesE, i32 0, i32 0), i8* getelementptr inbounds ([1 x i8], [1 x i8]* @_ZN2v88internal11interpreter14BytecodeTraitsILNS1_19ImplicitRegisterUseE3EJEE27kQuadrupleScaleOperandSizesE, i32 0, i32 0), i8* getelementptr inbounds ([1 x i8], [1 x i8]* @_ZN2v88internal11interpreter14BytecodeTraitsILNS1_19ImplicitRegisterUseE3EJLNS1_11OperandTypeE9EEE27kQuadrupleScaleOperandSizesE, i32 0, i32 0), i8* getelementptr inbounds ([1 x i8], [1 x i8]* @_ZN2v88internal11interpreter14BytecodeTraitsILNS1_19ImplicitRegisterUseE3EJLNS1_11OperandTypeE9EEE27kQuadrupleScaleOperandSizesE, i32 0, i32 0), i8* getelementptr inbounds ([1 x i8], [1 x i8]* @_ZN2v88internal11interpreter14BytecodeTraitsILNS1_19ImplicitRegisterUseE1EJLNS1_11OperandTypeE12EEE27kQuadrupleScaleOperandSizesE, i32 0, i32 0), i8* getelementptr inbounds ([4 x i8], [4 x i8]* @_ZN2v88internal11interpreter14BytecodeTraitsILNS1_19ImplicitRegisterUseE2EJLNS1_11OperandTypeE9ELS4_10ELS4_7ELS4_5EEE27kQuadrupleScaleOperandSizesE, i32 0, i32 0), i8* getelementptr inbounds ([4 x i8], [4 x i8]* @_ZN2v88internal11interpreter14BytecodeTraitsILNS1_19ImplicitRegisterUseE2EJLNS1_11OperandTypeE9ELS4_10ELS4_7ELS4_5EEE27kQuadrupleScaleOperandSizesE, i32 0, i32 0), i8* getelementptr inbounds ([3 x i8], [3 x i8]* @_ZN2v88internal11interpreter14BytecodeTraitsILNS1_19ImplicitRegisterUseE2EJLNS1_11OperandTypeE9ELS4_9ELS4_5EEE27kQuadrupleScaleOperandSizesE, i32 0, i32 0), i8* getelementptr inbounds ([4 x i8], [4 x i8]* @_ZN2v88internal11interpreter14BytecodeTraitsILNS1_19ImplicitRegisterUseE2EJLNS1_11OperandTypeE9ELS4_9ELS4_9ELS4_5EEE27kQuadrupleScaleOperandSizesE, i32 0, i32 0), i8* getelementptr inbounds ([5 x i8], [5 x i8]* @_ZN2v88internal11interpreter14BytecodeTraitsILNS1_19ImplicitRegisterUseE2EJLNS1_11OperandTypeE9ELS4_9ELS4_9ELS4_9ELS4_5EEE27kQuadrupleScaleOperandSizesE, i32 0, i32 0), i8* getelementptr inbounds ([4 x i8], [4 x i8]* @_ZN2v88internal11interpreter14BytecodeTraitsILNS1_19ImplicitRegisterUseE2EJLNS1_11OperandTypeE9ELS4_10ELS4_7ELS4_5EEE27kQuadrupleScaleOperandSizesE, i32 0, i32 0), i8* getelementptr inbounds ([2 x i8], [2 x i8]* @_ZN2v88internal11interpreter14BytecodeTraitsILNS1_19ImplicitRegisterUseE2EJLNS1_11OperandTypeE9ELS4_5EEE27kQuadrupleScaleOperandSizesE, i32 0, i32 0), i8* getelementptr inbounds ([3 x i8], [3 x i8]* @_ZN2v88internal11interpreter14BytecodeTraitsILNS1_19ImplicitRegisterUseE2EJLNS1_11OperandTypeE9ELS4_9ELS4_5EEE27kQuadrupleScaleOperandSizesE, i32 0, i32 0), i8* getelementptr inbounds ([4 x i8], [4 x i8]* @_ZN2v88internal11interpreter14BytecodeTraitsILNS1_19ImplicitRegisterUseE2EJLNS1_11OperandTypeE9ELS4_9ELS4_9ELS4_5EEE27kQuadrupleScaleOperandSizesE, i32 0, i32 0), i8* getelementptr inbounds ([4 x i8], [4 x i8]* @_ZN2v88internal11interpreter14BytecodeTraitsILNS1_19ImplicitRegisterUseE2EJLNS1_11OperandTypeE9ELS4_10ELS4_7ELS4_5EEE27kQuadrupleScaleOperandSizesE, i32 0, i32 0), i8* getelementptr inbounds ([3 x i8], [3 x i8]* @_ZN2v88internal11interpreter14BytecodeTraitsILNS1_19ImplicitRegisterUseE2EJLNS1_11OperandTypeE3ELS4_10ELS4_7EEE27kQuadrupleScaleOperandSizesE, i32 0, i32 0), i8* getelementptr inbounds ([4 x i8], [4 x i8]* @_ZN2v88internal11interpreter14BytecodeTraitsILNS1_19ImplicitRegisterUseE0EJLNS1_11OperandTypeE3ELS4_10ELS4_7ELS4_14EEE27kQuadrupleScaleOperandSizesE, i32 0, i32 0), i8* getelementptr inbounds ([3 x i8], [3 x i8]* @_ZN2v88internal11interpreter14BytecodeTraitsILNS1_19ImplicitRegisterUseE2EJLNS1_11OperandTypeE4ELS4_10ELS4_7EEE27kQuadrupleScaleOperandSizesE, i32 0, i32 0), i8* getelementptr inbounds ([3 x i8], [3 x i8]* @_ZN2v88internal11interpreter14BytecodeTraitsILNS1_19ImplicitRegisterUseE2EJLNS1_11OperandTypeE2ELS4_10ELS4_7EEE27kQuadrupleScaleOperandSizesE, i32 0, i32 0), i8* getelementptr inbounds ([4 x i8], [4 x i8]* @_ZN2v88internal11interpreter14BytecodeTraitsILNS1_19ImplicitRegisterUseE3EJLNS1_11OperandTypeE9ELS4_10ELS4_7ELS4_5EEE27kQuadrupleScaleOperandSizesE, i32 0, i32 0), i8* getelementptr inbounds ([4 x i8], [4 x i8]* @_ZN2v88internal11interpreter14BytecodeTraitsILNS1_19ImplicitRegisterUseE3EJLNS1_11OperandTypeE9ELS4_10ELS4_7ELS4_5EEE27kQuadrupleScaleOperandSizesE, i32 0, i32 0), i8* getelementptr inbounds ([2 x i8], [2 x i8]* @_ZN2v88internal11interpreter14BytecodeTraitsILNS1_19ImplicitRegisterUseE3EJLNS1_11OperandTypeE9ELS4_5EEE27kQuadrupleScaleOperandSizesE, i32 0, i32 0), i8* getelementptr inbounds ([2 x i8], [2 x i8]* @_ZN2v88internal11interpreter14BytecodeTraitsILNS1_19ImplicitRegisterUseE3EJLNS1_11OperandTypeE9ELS4_5EEE27kQuadrupleScaleOperandSizesE, i32 0, i32 0), i8* getelementptr inbounds ([2 x i8], [2 x i8]* @_ZN2v88internal11interpreter14BytecodeTraitsILNS1_19ImplicitRegisterUseE3EJLNS1_11OperandTypeE9ELS4_5EEE27kQuadrupleScaleOperandSizesE, i32 0, i32 0), i8* getelementptr inbounds ([2 x i8], [2 x i8]* @_ZN2v88internal11interpreter14BytecodeTraitsILNS1_19ImplicitRegisterUseE3EJLNS1_11OperandTypeE9ELS4_5EEE27kQuadrupleScaleOperandSizesE, i32 0, i32 0), i8* getelementptr inbounds ([2 x i8], [2 x i8]* @_ZN2v88internal11interpreter14BytecodeTraitsILNS1_19ImplicitRegisterUseE3EJLNS1_11OperandTypeE9ELS4_5EEE27kQuadrupleScaleOperandSizesE, i32 0, i32 0), i8* getelementptr inbounds ([2 x i8], [2 x i8]* @_ZN2v88internal11interpreter14BytecodeTraitsILNS1_19ImplicitRegisterUseE3EJLNS1_11OperandTypeE9ELS4_5EEE27kQuadrupleScaleOperandSizesE, i32 0, i32 0), i8* getelementptr inbounds ([2 x i8], [2 x i8]* @_ZN2v88internal11interpreter14BytecodeTraitsILNS1_19ImplicitRegisterUseE3EJLNS1_11OperandTypeE9ELS4_5EEE27kQuadrupleScaleOperandSizesE, i32 0, i32 0), i8* getelementptr inbounds ([2 x i8], [2 x i8]* @_ZN2v88internal11interpreter14BytecodeTraitsILNS1_19ImplicitRegisterUseE3EJLNS1_11OperandTypeE9ELS4_5EEE27kQuadrupleScaleOperandSizesE, i32 0, i32 0), i8* getelementptr inbounds ([1 x i8], [1 x i8]* @_ZN2v88internal11interpreter14BytecodeTraitsILNS1_19ImplicitRegisterUseE1EJLNS1_11OperandTypeE12EEE27kQuadrupleScaleOperandSizesE, i32 0, i32 0), i8* getelementptr inbounds ([1 x i8], [1 x i8]* @_ZN2v88internal11interpreter14BytecodeTraitsILNS1_19ImplicitRegisterUseE3EJLNS1_11OperandTypeE5EEE27kQuadrupleScaleOperandSizesE, i32 0, i32 0), i8* getelementptr inbounds ([1 x i8], [1 x i8]* @_ZN2v88internal11interpreter14BytecodeTraitsILNS1_19ImplicitRegisterUseE3EJLNS1_11OperandTypeE5EEE27kQuadrupleScaleOperandSizesE, i32 0, i32 0), i8* getelementptr inbounds ([1 x i8], [1 x i8]* @_ZN2v88internal11interpreter14BytecodeTraitsILNS1_19ImplicitRegisterUseE1EJLNS1_11OperandTypeE12EEE27kQuadrupleScaleOperandSizesE, i32 0, i32 0), i8* getelementptr inbounds ([1 x i8], [1 x i8]* @_ZN2v88internal11interpreter14BytecodeTraitsILNS1_19ImplicitRegisterUseE3EJEE27kQuadrupleScaleOperandSizesE, i32 0, i32 0), i8* getelementptr inbounds ([3 x i8], [3 x i8]* @_ZN2v88internal11interpreter14BytecodeTraitsILNS1_19ImplicitRegisterUseE2EJLNS1_11OperandTypeE5ELS4_5ELS4_1EEE27kQuadrupleScaleOperandSizesE, i32 0, i32 0), i8* getelementptr inbounds ([3 x i8], [3 x i8]* @_ZN2v88internal11interpreter14BytecodeTraitsILNS1_19ImplicitRegisterUseE2EJLNS1_11OperandTypeE5ELS4_5ELS4_1EEE27kQuadrupleScaleOperandSizesE, i32 0, i32 0), i8* getelementptr inbounds ([1 x i8], [1 x i8]* @_ZN2v88internal11interpreter14BytecodeTraitsILNS1_19ImplicitRegisterUseE3EJEE27kQuadrupleScaleOperandSizesE, i32 0, i32 0), i8* getelementptr inbounds ([1 x i8], [1 x i8]* @_ZN2v88internal11interpreter14BytecodeTraitsILNS1_19ImplicitRegisterUseE2EJLNS1_11OperandTypeE5EEE27kQuadrupleScaleOperandSizesE, i32 0, i32 0), i8* getelementptr inbounds ([3 x i8], [3 x i8]* @_ZN2v88internal11interpreter14BytecodeTraitsILNS1_19ImplicitRegisterUseE2EJLNS1_11OperandTypeE5ELS4_5ELS4_1EEE27kQuadrupleScaleOperandSizesE, i32 0, i32 0), i8* getelementptr inbounds ([1 x i8], [1 x i8]* @_ZN2v88internal11interpreter14BytecodeTraitsILNS1_19ImplicitRegisterUseE2EJEE27kQuadrupleScaleOperandSizesE, i32 0, i32 0), i8* getelementptr inbounds ([3 x i8], [3 x i8]* @_ZN2v88internal11interpreter14BytecodeTraitsILNS1_19ImplicitRegisterUseE2EJLNS1_11OperandTypeE9ELS4_1ELS4_5EEE27kQuadrupleScaleOperandSizesE, i32 0, i32 0), i8* getelementptr inbounds ([2 x i8], [2 x i8]* @_ZN2v88internal11interpreter14BytecodeTraitsILNS1_19ImplicitRegisterUseE2EJLNS1_11OperandTypeE5ELS4_5EEE27kQuadrupleScaleOperandSizesE, i32 0, i32 0), i8* getelementptr inbounds ([3 x i8], [3 x i8]* @_ZN2v88internal11interpreter14BytecodeTraitsILNS1_19ImplicitRegisterUseE2EJLNS1_11OperandTypeE5ELS4_5ELS4_1EEE27kQuadrupleScaleOperandSizesE, i32 0, i32 0), i8* getelementptr inbounds ([1 x i8], [1 x i8]* @_ZN2v88internal11interpreter14BytecodeTraitsILNS1_19ImplicitRegisterUseE2EJLNS1_11OperandTypeE5EEE27kQuadrupleScaleOperandSizesE, i32 0, i32 0), i8* getelementptr inbounds ([2 x i8], [2 x i8]* @_ZN2v88internal11interpreter14BytecodeTraitsILNS1_19ImplicitRegisterUseE2EJLNS1_11OperandTypeE9ELS4_5EEE27kQuadrupleScaleOperandSizesE, i32 0, i32 0), i8* getelementptr inbounds ([2 x i8], [2 x i8]* @_ZN2v88internal11interpreter14BytecodeTraitsILNS1_19ImplicitRegisterUseE2EJLNS1_11OperandTypeE5ELS4_6EEE27kQuadrupleScaleOperandSizesE, i32 0, i32 0), i8* getelementptr inbounds ([2 x i8], [2 x i8]* @_ZN2v88internal11interpreter14BytecodeTraitsILNS1_19ImplicitRegisterUseE2EJLNS1_11OperandTypeE5ELS4_6EEE27kQuadrupleScaleOperandSizesE, i32 0, i32 0), i8* getelementptr inbounds ([2 x i8], [2 x i8]* @_ZN2v88internal11interpreter14BytecodeTraitsILNS1_19ImplicitRegisterUseE2EJLNS1_11OperandTypeE9ELS4_5EEE27kQuadrupleScaleOperandSizesE, i32 0, i32 0), i8* getelementptr inbounds ([1 x i8], [1 x i8]* @_ZN2v88internal11interpreter14BytecodeTraitsILNS1_19ImplicitRegisterUseE2EJEE27kQuadrupleScaleOperandSizesE, i32 0, i32 0), i8* getelementptr inbounds ([1 x i8], [1 x i8]* @_ZN2v88internal11interpreter14BytecodeTraitsILNS1_19ImplicitRegisterUseE2EJEE27kQuadrupleScaleOperandSizesE, i32 0, i32 0), i8* getelementptr inbounds ([1 x i8], [1 x i8]* @_ZN2v88internal11interpreter14BytecodeTraitsILNS1_19ImplicitRegisterUseE2EJEE27kQuadrupleScaleOperandSizesE, i32 0, i32 0), i8* getelementptr inbounds ([2 x i8], [2 x i8]* @_ZN2v88internal11interpreter14BytecodeTraitsILNS1_19ImplicitRegisterUseE0EJLNS1_11OperandTypeE6ELS4_8EEE27kQuadrupleScaleOperandSizesE, i32 0, i32 0), i8* getelementptr inbounds ([1 x i8], [1 x i8]* @_ZN2v88internal11interpreter14BytecodeTraitsILNS1_19ImplicitRegisterUseE0EJLNS1_11OperandTypeE6EEE27kQuadrupleScaleOperandSizesE, i32 0, i32 0), i8* getelementptr inbounds ([1 x i8], [1 x i8]* @_ZN2v88internal11interpreter14BytecodeTraitsILNS1_19ImplicitRegisterUseE0EJLNS1_11OperandTypeE5EEE27kQuadrupleScaleOperandSizesE, i32 0, i32 0), i8* getelementptr inbounds ([1 x i8], [1 x i8]* @_ZN2v88internal11interpreter14BytecodeTraitsILNS1_19ImplicitRegisterUseE1EJLNS1_11OperandTypeE5EEE27kQuadrupleScaleOperandSizesE, i32 0, i32 0), i8* getelementptr inbounds ([1 x i8], [1 x i8]* @_ZN2v88internal11interpreter14BytecodeTraitsILNS1_19ImplicitRegisterUseE1EJLNS1_11OperandTypeE5EEE27kQuadrupleScaleOperandSizesE, i32 0, i32 0), i8* getelementptr inbounds ([1 x i8], [1 x i8]* @_ZN2v88internal11interpreter14BytecodeTraitsILNS1_19ImplicitRegisterUseE1EJLNS1_11OperandTypeE5EEE27kQuadrupleScaleOperandSizesE, i32 0, i32 0), i8* getelementptr inbounds ([1 x i8], [1 x i8]* @_ZN2v88internal11interpreter14BytecodeTraitsILNS1_19ImplicitRegisterUseE1EJLNS1_11OperandTypeE5EEE27kQuadrupleScaleOperandSizesE, i32 0, i32 0), i8* getelementptr inbounds ([1 x i8], [1 x i8]* @_ZN2v88internal11interpreter14BytecodeTraitsILNS1_19ImplicitRegisterUseE1EJLNS1_11OperandTypeE5EEE27kQuadrupleScaleOperandSizesE, i32 0, i32 0), i8* getelementptr inbounds ([1 x i8], [1 x i8]* @_ZN2v88internal11interpreter14BytecodeTraitsILNS1_19ImplicitRegisterUseE1EJLNS1_11OperandTypeE5EEE27kQuadrupleScaleOperandSizesE, i32 0, i32 0), i8* getelementptr inbounds ([1 x i8], [1 x i8]* @_ZN2v88internal11interpreter14BytecodeTraitsILNS1_19ImplicitRegisterUseE1EJLNS1_11OperandTypeE5EEE27kQuadrupleScaleOperandSizesE, i32 0, i32 0), i8* getelementptr inbounds ([1 x i8], [1 x i8]* @_ZN2v88internal11interpreter14BytecodeTraitsILNS1_19ImplicitRegisterUseE1EJLNS1_11OperandTypeE5EEE27kQuadrupleScaleOperandSizesE, i32 0, i32 0), i8* getelementptr inbounds ([1 x i8], [1 x i8]* @_ZN2v88internal11interpreter14BytecodeTraitsILNS1_19ImplicitRegisterUseE1EJLNS1_11OperandTypeE5EEE27kQuadrupleScaleOperandSizesE, i32 0, i32 0), i8* getelementptr inbounds ([1 x i8], [1 x i8]* @_ZN2v88internal11interpreter14BytecodeTraitsILNS1_19ImplicitRegisterUseE1EJLNS1_11OperandTypeE5EEE27kQuadrupleScaleOperandSizesE, i32 0, i32 0), i8* getelementptr inbounds ([1 x i8], [1 x i8]* @_ZN2v88internal11interpreter14BytecodeTraitsILNS1_19ImplicitRegisterUseE1EJLNS1_11OperandTypeE6EEE27kQuadrupleScaleOperandSizesE, i32 0, i32 0), i8* getelementptr inbounds ([1 x i8], [1 x i8]* @_ZN2v88internal11interpreter14BytecodeTraitsILNS1_19ImplicitRegisterUseE1EJLNS1_11OperandTypeE6EEE27kQuadrupleScaleOperandSizesE, i32 0, i32 0), i8* getelementptr inbounds ([1 x i8], [1 x i8]* @_ZN2v88internal11interpreter14BytecodeTraitsILNS1_19ImplicitRegisterUseE1EJLNS1_11OperandTypeE6EEE27kQuadrupleScaleOperandSizesE, i32 0, i32 0), i8* getelementptr inbounds ([1 x i8], [1 x i8]* @_ZN2v88internal11interpreter14BytecodeTraitsILNS1_19ImplicitRegisterUseE1EJLNS1_11OperandTypeE6EEE27kQuadrupleScaleOperandSizesE, i32 0, i32 0), i8* getelementptr inbounds ([1 x i8], [1 x i8]* @_ZN2v88internal11interpreter14BytecodeTraitsILNS1_19ImplicitRegisterUseE1EJLNS1_11OperandTypeE6EEE27kQuadrupleScaleOperandSizesE, i32 0, i32 0), i8* getelementptr inbounds ([1 x i8], [1 x i8]* @_ZN2v88internal11interpreter14BytecodeTraitsILNS1_19ImplicitRegisterUseE1EJLNS1_11OperandTypeE6EEE27kQuadrupleScaleOperandSizesE, i32 0, i32 0), i8* getelementptr inbounds ([1 x i8], [1 x i8]* @_ZN2v88internal11interpreter14BytecodeTraitsILNS1_19ImplicitRegisterUseE1EJLNS1_11OperandTypeE6EEE27kQuadrupleScaleOperandSizesE, i32 0, i32 0), i8* getelementptr inbounds ([1 x i8], [1 x i8]* @_ZN2v88internal11interpreter14BytecodeTraitsILNS1_19ImplicitRegisterUseE1EJLNS1_11OperandTypeE6EEE27kQuadrupleScaleOperandSizesE, i32 0, i32 0), i8* getelementptr inbounds ([1 x i8], [1 x i8]* @_ZN2v88internal11interpreter14BytecodeTraitsILNS1_19ImplicitRegisterUseE1EJLNS1_11OperandTypeE6EEE27kQuadrupleScaleOperandSizesE, i32 0, i32 0), i8* getelementptr inbounds ([1 x i8], [1 x i8]* @_ZN2v88internal11interpreter14BytecodeTraitsILNS1_19ImplicitRegisterUseE1EJLNS1_11OperandTypeE6EEE27kQuadrupleScaleOperandSizesE, i32 0, i32 0), i8* getelementptr inbounds ([3 x i8], [3 x i8]* @_ZN2v88internal11interpreter14BytecodeTraitsILNS1_19ImplicitRegisterUseE1EJLNS1_11OperandTypeE5ELS4_6ELS4_8EEE27kQuadrupleScaleOperandSizesE, i32 0, i32 0), i8* getelementptr inbounds ([1 x i8], [1 x i8]* @_ZN2v88internal11interpreter14BytecodeTraitsILNS1_19ImplicitRegisterUseE2EJLNS1_11OperandTypeE9EEE27kQuadrupleScaleOperandSizesE, i32 0, i32 0), i8* getelementptr inbounds ([2 x i8], [2 x i8]* @_ZN2v88internal11interpreter14BytecodeTraitsILNS1_19ImplicitRegisterUseE1EJLNS1_11OperandTypeE15ELS4_5EEE27kQuadrupleScaleOperandSizesE, i32 0, i32 0), i8* getelementptr inbounds ([2 x i8], [2 x i8]* @_ZN2v88internal11interpreter14BytecodeTraitsILNS1_19ImplicitRegisterUseE2EJLNS1_11OperandTypeE9ELS4_9EEE27kQuadrupleScaleOperandSizesE, i32 0, i32 0), i8* getelementptr inbounds ([4 x i8], [4 x i8]* @_ZN2v88internal11interpreter14BytecodeTraitsILNS1_19ImplicitRegisterUseE2EJLNS1_11OperandTypeE9ELS4_9ELS4_11ELS4_5EEE27kQuadrupleScaleOperandSizesE, i32 0, i32 0), i8* getelementptr inbounds ([1 x i8], [1 x i8]* @_ZN2v88internal11interpreter14BytecodeTraitsILNS1_19ImplicitRegisterUseE2EJLNS1_11OperandTypeE9EEE27kQuadrupleScaleOperandSizesE, i32 0, i32 0), i8* getelementptr inbounds ([1 x i8], [1 x i8]* @_ZN2v88internal11interpreter14BytecodeTraitsILNS1_19ImplicitRegisterUseE3EJEE27kQuadrupleScaleOperandSizesE, i32 0, i32 0), i8* getelementptr inbounds ([1 x i8], [1 x i8]* @_ZN2v88internal11interpreter14BytecodeTraitsILNS1_19ImplicitRegisterUseE1EJEE27kQuadrupleScaleOperandSizesE, i32 0, i32 0), i8* getelementptr inbounds ([1 x i8], [1 x i8]* @_ZN2v88internal11interpreter14BytecodeTraitsILNS1_19ImplicitRegisterUseE1EJEE27kQuadrupleScaleOperandSizesE, i32 0, i32 0), i8* getelementptr inbounds ([1 x i8], [1 x i8]* @_ZN2v88internal11interpreter14BytecodeTraitsILNS1_19ImplicitRegisterUseE1EJEE27kQuadrupleScaleOperandSizesE, i32 0, i32 0), i8* getelementptr inbounds ([1 x i8], [1 x i8]* @_ZN2v88internal11interpreter14BytecodeTraitsILNS1_19ImplicitRegisterUseE1EJLNS1_11OperandTypeE5EEE27kQuadrupleScaleOperandSizesE, i32 0, i32 0), i8* getelementptr inbounds ([1 x i8], [1 x i8]* @_ZN2v88internal11interpreter14BytecodeTraitsILNS1_19ImplicitRegisterUseE1EJEE27kQuadrupleScaleOperandSizesE, i32 0, i32 0), i8* getelementptr inbounds ([1 x i8], [1 x i8]* @_ZN2v88internal11interpreter14BytecodeTraitsILNS1_19ImplicitRegisterUseE1EJEE27kQuadrupleScaleOperandSizesE, i32 0, i32 0), i8* getelementptr inbounds ([1 x i8], [1 x i8]* @_ZN2v88internal11interpreter14BytecodeTraitsILNS1_19ImplicitRegisterUseE0EJLNS1_11OperandTypeE9EEE27kQuadrupleScaleOperandSizesE, i32 0, i32 0), i8* getelementptr inbounds ([3 x i8], [3 x i8]* @_ZN2v88internal11interpreter14BytecodeTraitsILNS1_19ImplicitRegisterUseE0EJLNS1_11OperandTypeE9ELS4_5ELS4_6EEE27kQuadrupleScaleOperandSizesE, i32 0, i32 0), i8* getelementptr inbounds ([4 x i8], [4 x i8]* @_ZN2v88internal11interpreter14BytecodeTraitsILNS1_19ImplicitRegisterUseE1EJLNS1_11OperandTypeE9ELS4_10ELS4_7ELS4_6EEE27kQuadrupleScaleOperandSizesE, i32 0, i32 0), i8* getelementptr inbounds ([3 x i8], [3 x i8]* @_ZN2v88internal11interpreter14BytecodeTraitsILNS1_19ImplicitRegisterUseE2EJLNS1_11OperandTypeE9ELS4_13ELS4_7EEE27kQuadrupleScaleOperandSizesE, i32 0, i32 0), i8* getelementptr inbounds ([3 x i8], [3 x i8]* @_ZN2v88internal11interpreter14BytecodeTraitsILNS1_19ImplicitRegisterUseE2EJLNS1_11OperandTypeE9ELS4_5ELS4_5EEE27kQuadrupleScaleOperandSizesE, i32 0, i32 0), i8* getelementptr inbounds ([1 x i8], [1 x i8]* @_ZN2v88internal11interpreter14BytecodeTraitsILNS1_19ImplicitRegisterUseE0EJEE27kQuadrupleScaleOperandSizesE, i32 0, i32 0), i8* getelementptr inbounds ([1 x i8], [1 x i8]* @_ZN2v88internal11interpreter14BytecodeTraitsILNS1_19ImplicitRegisterUseE0EJLNS1_11OperandTypeE5EEE27kQuadrupleScaleOperandSizesE, i32 0, i32 0), i8* getelementptr inbounds ([1 x i8], [1 x i8]* @_ZN2v88internal11interpreter14BytecodeTraitsILNS1_19ImplicitRegisterUseE0EJLNS1_11OperandTypeE5EEE27kQuadrupleScaleOperandSizesE, i32 0, i32 0), i8* getelementptr inbounds ([1 x i8], [1 x i8]* @_ZN2v88internal11interpreter14BytecodeTraitsILNS1_19ImplicitRegisterUseE5EJEE27kQuadrupleScaleOperandSizesE, i32 0, i32 0), i8* getelementptr inbounds ([1 x i8], [1 x i8]* @_ZN2v88internal11interpreter14BytecodeTraitsILNS1_19ImplicitRegisterUseE5EJEE27kQuadrupleScaleOperandSizesE, i32 0, i32 0), i8* getelementptr inbounds ([1 x i8], [1 x i8]* @_ZN2v88internal11interpreter14BytecodeTraitsILNS1_19ImplicitRegisterUseE5EJEE27kQuadrupleScaleOperandSizesE, i32 0, i32 0), i8* getelementptr inbounds ([1 x i8], [1 x i8]* @_ZN2v88internal11interpreter14BytecodeTraitsILNS1_19ImplicitRegisterUseE5EJEE27kQuadrupleScaleOperandSizesE, i32 0, i32 0), i8* getelementptr inbounds ([1 x i8], [1 x i8]* @_ZN2v88internal11interpreter14BytecodeTraitsILNS1_19ImplicitRegisterUseE5EJEE27kQuadrupleScaleOperandSizesE, i32 0, i32 0), i8* getelementptr inbounds ([1 x i8], [1 x i8]* @_ZN2v88internal11interpreter14BytecodeTraitsILNS1_19ImplicitRegisterUseE5EJEE27kQuadrupleScaleOperandSizesE, i32 0, i32 0), i8* getelementptr inbounds ([1 x i8], [1 x i8]* @_ZN2v88internal11interpreter14BytecodeTraitsILNS1_19ImplicitRegisterUseE5EJEE27kQuadrupleScaleOperandSizesE, i32 0, i32 0), i8* getelementptr inbounds ([1 x i8], [1 x i8]* @_ZN2v88internal11interpreter14BytecodeTraitsILNS1_19ImplicitRegisterUseE5EJEE27kQuadrupleScaleOperandSizesE, i32 0, i32 0), i8* getelementptr inbounds ([1 x i8], [1 x i8]* @_ZN2v88internal11interpreter14BytecodeTraitsILNS1_19ImplicitRegisterUseE5EJEE27kQuadrupleScaleOperandSizesE, i32 0, i32 0), i8* getelementptr inbounds ([1 x i8], [1 x i8]* @_ZN2v88internal11interpreter14BytecodeTraitsILNS1_19ImplicitRegisterUseE5EJEE27kQuadrupleScaleOperandSizesE, i32 0, i32 0), i8* getelementptr inbounds ([1 x i8], [1 x i8]* @_ZN2v88internal11interpreter14BytecodeTraitsILNS1_19ImplicitRegisterUseE5EJEE27kQuadrupleScaleOperandSizesE, i32 0, i32 0), i8* getelementptr inbounds ([1 x i8], [1 x i8]* @_ZN2v88internal11interpreter14BytecodeTraitsILNS1_19ImplicitRegisterUseE5EJEE27kQuadrupleScaleOperandSizesE, i32 0, i32 0), i8* getelementptr inbounds ([1 x i8], [1 x i8]* @_ZN2v88internal11interpreter14BytecodeTraitsILNS1_19ImplicitRegisterUseE5EJEE27kQuadrupleScaleOperandSizesE, i32 0, i32 0), i8* getelementptr inbounds ([1 x i8], [1 x i8]* @_ZN2v88internal11interpreter14BytecodeTraitsILNS1_19ImplicitRegisterUseE5EJEE27kQuadrupleScaleOperandSizesE, i32 0, i32 0), i8* getelementptr inbounds ([1 x i8], [1 x i8]* @_ZN2v88internal11interpreter14BytecodeTraitsILNS1_19ImplicitRegisterUseE5EJEE27kQuadrupleScaleOperandSizesE, i32 0, i32 0), i8* getelementptr inbounds ([1 x i8], [1 x i8]* @_ZN2v88internal11interpreter14BytecodeTraitsILNS1_19ImplicitRegisterUseE5EJEE27kQuadrupleScaleOperandSizesE, i32 0, i32 0), i8* getelementptr inbounds ([1 x i8], [1 x i8]* @_ZN2v88internal11interpreter14BytecodeTraitsILNS1_19ImplicitRegisterUseE0EJEE27kQuadrupleScaleOperandSizesE, i32 0, i32 0)]], align 16
@_ZN2v88internal11interpreter9Bytecodes17kOperandKindSizesE = hidden local_unnamed_addr constant [3 x [16 x i8]] [[16 x i8] c"\00\01\01\02\01\01\01\01\01\01\01\01\01\01\01\01", [16 x i8] c"\00\01\01\02\01\02\02\02\02\02\02\02\02\02\02\02", [16 x i8] c"\00\01\01\02\01\04\04\04\04\04\04\04\04\04\04\04"], align 16
@.str = private unnamed_addr constant [5 x i8] c"Wide\00", align 1
@.str.1 = private unnamed_addr constant [10 x i8] c"ExtraWide\00", align 1
@.str.2 = private unnamed_addr constant [15 x i8] c"DebugBreakWide\00", align 1
@.str.3 = private unnamed_addr constant [20 x i8] c"DebugBreakExtraWide\00", align 1
@.str.4 = private unnamed_addr constant [12 x i8] c"DebugBreak0\00", align 1
@.str.5 = private unnamed_addr constant [12 x i8] c"DebugBreak1\00", align 1
@.str.6 = private unnamed_addr constant [12 x i8] c"DebugBreak2\00", align 1
@.str.7 = private unnamed_addr constant [12 x i8] c"DebugBreak3\00", align 1
@.str.8 = private unnamed_addr constant [12 x i8] c"DebugBreak4\00", align 1
@.str.9 = private unnamed_addr constant [12 x i8] c"DebugBreak5\00", align 1
@.str.10 = private unnamed_addr constant [12 x i8] c"DebugBreak6\00", align 1
@.str.11 = private unnamed_addr constant [5 x i8] c"Ldar\00", align 1
@.str.12 = private unnamed_addr constant [8 x i8] c"LdaZero\00", align 1
@.str.13 = private unnamed_addr constant [7 x i8] c"LdaSmi\00", align 1
@.str.14 = private unnamed_addr constant [13 x i8] c"LdaUndefined\00", align 1
@.str.15 = private unnamed_addr constant [8 x i8] c"LdaNull\00", align 1
@.str.16 = private unnamed_addr constant [11 x i8] c"LdaTheHole\00", align 1
@.str.17 = private unnamed_addr constant [8 x i8] c"LdaTrue\00", align 1
@.str.18 = private unnamed_addr constant [9 x i8] c"LdaFalse\00", align 1
@.str.19 = private unnamed_addr constant [12 x i8] c"LdaConstant\00", align 1
@.str.20 = private unnamed_addr constant [15 x i8] c"LdaContextSlot\00", align 1
@.str.21 = private unnamed_addr constant [24 x i8] c"LdaImmutableContextSlot\00", align 1
@.str.22 = private unnamed_addr constant [22 x i8] c"LdaCurrentContextSlot\00", align 1
@.str.23 = private unnamed_addr constant [31 x i8] c"LdaImmutableCurrentContextSlot\00", align 1
@.str.24 = private unnamed_addr constant [5 x i8] c"Star\00", align 1
@.str.25 = private unnamed_addr constant [4 x i8] c"Mov\00", align 1
@.str.26 = private unnamed_addr constant [12 x i8] c"PushContext\00", align 1
@.str.27 = private unnamed_addr constant [11 x i8] c"PopContext\00", align 1
@.str.28 = private unnamed_addr constant [19 x i8] c"TestReferenceEqual\00", align 1
@.str.29 = private unnamed_addr constant [17 x i8] c"TestUndetectable\00", align 1
@.str.30 = private unnamed_addr constant [9 x i8] c"TestNull\00", align 1
@.str.31 = private unnamed_addr constant [14 x i8] c"TestUndefined\00", align 1
@.str.32 = private unnamed_addr constant [11 x i8] c"TestTypeOf\00", align 1
@.str.33 = private unnamed_addr constant [10 x i8] c"LdaGlobal\00", align 1
@.str.34 = private unnamed_addr constant [22 x i8] c"LdaGlobalInsideTypeof\00", align 1
@.str.35 = private unnamed_addr constant [10 x i8] c"StaGlobal\00", align 1
@.str.36 = private unnamed_addr constant [15 x i8] c"StaContextSlot\00", align 1
@.str.37 = private unnamed_addr constant [22 x i8] c"StaCurrentContextSlot\00", align 1
@.str.38 = private unnamed_addr constant [14 x i8] c"LdaLookupSlot\00", align 1
@.str.39 = private unnamed_addr constant [21 x i8] c"LdaLookupContextSlot\00", align 1
@.str.40 = private unnamed_addr constant [20 x i8] c"LdaLookupGlobalSlot\00", align 1
@.str.41 = private unnamed_addr constant [26 x i8] c"LdaLookupSlotInsideTypeof\00", align 1
@.str.42 = private unnamed_addr constant [33 x i8] c"LdaLookupContextSlotInsideTypeof\00", align 1
@.str.43 = private unnamed_addr constant [32 x i8] c"LdaLookupGlobalSlotInsideTypeof\00", align 1
@.str.44 = private unnamed_addr constant [14 x i8] c"StaLookupSlot\00", align 1
@.str.45 = private unnamed_addr constant [17 x i8] c"LdaNamedProperty\00", align 1
@.str.46 = private unnamed_addr constant [26 x i8] c"LdaNamedPropertyFromSuper\00", align 1
@.str.47 = private unnamed_addr constant [17 x i8] c"LdaKeyedProperty\00", align 1
@.str.48 = private unnamed_addr constant [18 x i8] c"LdaModuleVariable\00", align 1
@.str.49 = private unnamed_addr constant [18 x i8] c"StaModuleVariable\00", align 1
@.str.50 = private unnamed_addr constant [17 x i8] c"StaNamedProperty\00", align 1
@.str.51 = private unnamed_addr constant [20 x i8] c"StaNamedOwnProperty\00", align 1
@.str.52 = private unnamed_addr constant [17 x i8] c"StaKeyedProperty\00", align 1
@.str.53 = private unnamed_addr constant [18 x i8] c"StaInArrayLiteral\00", align 1
@.str.54 = private unnamed_addr constant [25 x i8] c"StaDataPropertyInLiteral\00", align 1
@.str.55 = private unnamed_addr constant [19 x i8] c"CollectTypeProfile\00", align 1
@.str.56 = private unnamed_addr constant [4 x i8] c"Add\00", align 1
@.str.57 = private unnamed_addr constant [4 x i8] c"Sub\00", align 1
@.str.58 = private unnamed_addr constant [4 x i8] c"Mul\00", align 1
@.str.59 = private unnamed_addr constant [4 x i8] c"Div\00", align 1
@.str.60 = private unnamed_addr constant [4 x i8] c"Mod\00", align 1
@.str.61 = private unnamed_addr constant [4 x i8] c"Exp\00", align 1
@.str.62 = private unnamed_addr constant [10 x i8] c"BitwiseOr\00", align 1
@.str.63 = private unnamed_addr constant [11 x i8] c"BitwiseXor\00", align 1
@.str.64 = private unnamed_addr constant [11 x i8] c"BitwiseAnd\00", align 1
@.str.65 = private unnamed_addr constant [10 x i8] c"ShiftLeft\00", align 1
@.str.66 = private unnamed_addr constant [11 x i8] c"ShiftRight\00", align 1
@.str.67 = private unnamed_addr constant [18 x i8] c"ShiftRightLogical\00", align 1
@.str.68 = private unnamed_addr constant [7 x i8] c"AddSmi\00", align 1
@.str.69 = private unnamed_addr constant [7 x i8] c"SubSmi\00", align 1
@.str.70 = private unnamed_addr constant [7 x i8] c"MulSmi\00", align 1
@.str.71 = private unnamed_addr constant [7 x i8] c"DivSmi\00", align 1
@.str.72 = private unnamed_addr constant [7 x i8] c"ModSmi\00", align 1
@.str.73 = private unnamed_addr constant [7 x i8] c"ExpSmi\00", align 1
@.str.74 = private unnamed_addr constant [13 x i8] c"BitwiseOrSmi\00", align 1
@.str.75 = private unnamed_addr constant [14 x i8] c"BitwiseXorSmi\00", align 1
@.str.76 = private unnamed_addr constant [14 x i8] c"BitwiseAndSmi\00", align 1
@.str.77 = private unnamed_addr constant [13 x i8] c"ShiftLeftSmi\00", align 1
@.str.78 = private unnamed_addr constant [14 x i8] c"ShiftRightSmi\00", align 1
@.str.79 = private unnamed_addr constant [21 x i8] c"ShiftRightLogicalSmi\00", align 1
@.str.80 = private unnamed_addr constant [4 x i8] c"Inc\00", align 1
@.str.81 = private unnamed_addr constant [4 x i8] c"Dec\00", align 1
@.str.82 = private unnamed_addr constant [7 x i8] c"Negate\00", align 1
@.str.83 = private unnamed_addr constant [11 x i8] c"BitwiseNot\00", align 1
@.str.84 = private unnamed_addr constant [20 x i8] c"ToBooleanLogicalNot\00", align 1
@.str.85 = private unnamed_addr constant [11 x i8] c"LogicalNot\00", align 1
@.str.86 = private unnamed_addr constant [7 x i8] c"TypeOf\00", align 1
@.str.87 = private unnamed_addr constant [21 x i8] c"DeletePropertyStrict\00", align 1
@.str.88 = private unnamed_addr constant [21 x i8] c"DeletePropertySloppy\00", align 1
@.str.89 = private unnamed_addr constant [20 x i8] c"GetSuperConstructor\00", align 1
@.str.90 = private unnamed_addr constant [16 x i8] c"CallAnyReceiver\00", align 1
@.str.91 = private unnamed_addr constant [13 x i8] c"CallProperty\00", align 1
@.str.92 = private unnamed_addr constant [14 x i8] c"CallProperty0\00", align 1
@.str.93 = private unnamed_addr constant [14 x i8] c"CallProperty1\00", align 1
@.str.94 = private unnamed_addr constant [14 x i8] c"CallProperty2\00", align 1
@.str.95 = private unnamed_addr constant [22 x i8] c"CallUndefinedReceiver\00", align 1
@.str.96 = private unnamed_addr constant [23 x i8] c"CallUndefinedReceiver0\00", align 1
@.str.97 = private unnamed_addr constant [23 x i8] c"CallUndefinedReceiver1\00", align 1
@.str.98 = private unnamed_addr constant [23 x i8] c"CallUndefinedReceiver2\00", align 1
@.str.99 = private unnamed_addr constant [15 x i8] c"CallWithSpread\00", align 1
@.str.100 = private unnamed_addr constant [12 x i8] c"CallRuntime\00", align 1
@.str.101 = private unnamed_addr constant [19 x i8] c"CallRuntimeForPair\00", align 1
@.str.102 = private unnamed_addr constant [14 x i8] c"CallJSRuntime\00", align 1
@.str.103 = private unnamed_addr constant [16 x i8] c"InvokeIntrinsic\00", align 1
@.str.104 = private unnamed_addr constant [10 x i8] c"Construct\00", align 1
@.str.105 = private unnamed_addr constant [20 x i8] c"ConstructWithSpread\00", align 1
@.str.106 = private unnamed_addr constant [10 x i8] c"TestEqual\00", align 1
@.str.107 = private unnamed_addr constant [16 x i8] c"TestEqualStrict\00", align 1
@.str.108 = private unnamed_addr constant [13 x i8] c"TestLessThan\00", align 1
@.str.109 = private unnamed_addr constant [16 x i8] c"TestGreaterThan\00", align 1
@.str.110 = private unnamed_addr constant [20 x i8] c"TestLessThanOrEqual\00", align 1
@.str.111 = private unnamed_addr constant [23 x i8] c"TestGreaterThanOrEqual\00", align 1
@.str.112 = private unnamed_addr constant [15 x i8] c"TestInstanceOf\00", align 1
@.str.113 = private unnamed_addr constant [7 x i8] c"TestIn\00", align 1
@.str.114 = private unnamed_addr constant [7 x i8] c"ToName\00", align 1
@.str.115 = private unnamed_addr constant [9 x i8] c"ToNumber\00", align 1
@.str.116 = private unnamed_addr constant [10 x i8] c"ToNumeric\00", align 1
@.str.117 = private unnamed_addr constant [9 x i8] c"ToObject\00", align 1
@.str.118 = private unnamed_addr constant [9 x i8] c"ToString\00", align 1
@.str.119 = private unnamed_addr constant [20 x i8] c"CreateRegExpLiteral\00", align 1
@.str.120 = private unnamed_addr constant [19 x i8] c"CreateArrayLiteral\00", align 1
@.str.121 = private unnamed_addr constant [24 x i8] c"CreateArrayFromIterable\00", align 1
@.str.122 = private unnamed_addr constant [24 x i8] c"CreateEmptyArrayLiteral\00", align 1
@.str.123 = private unnamed_addr constant [20 x i8] c"CreateObjectLiteral\00", align 1
@.str.124 = private unnamed_addr constant [25 x i8] c"CreateEmptyObjectLiteral\00", align 1
@.str.125 = private unnamed_addr constant [12 x i8] c"CloneObject\00", align 1
@.str.126 = private unnamed_addr constant [18 x i8] c"GetTemplateObject\00", align 1
@.str.127 = private unnamed_addr constant [14 x i8] c"CreateClosure\00", align 1
@.str.128 = private unnamed_addr constant [19 x i8] c"CreateBlockContext\00", align 1
@.str.129 = private unnamed_addr constant [19 x i8] c"CreateCatchContext\00", align 1
@.str.130 = private unnamed_addr constant [22 x i8] c"CreateFunctionContext\00", align 1
@.str.131 = private unnamed_addr constant [18 x i8] c"CreateEvalContext\00", align 1
@.str.132 = private unnamed_addr constant [18 x i8] c"CreateWithContext\00", align 1
@.str.133 = private unnamed_addr constant [22 x i8] c"CreateMappedArguments\00", align 1
@.str.134 = private unnamed_addr constant [24 x i8] c"CreateUnmappedArguments\00", align 1
@.str.135 = private unnamed_addr constant [20 x i8] c"CreateRestParameter\00", align 1
@.str.136 = private unnamed_addr constant [9 x i8] c"JumpLoop\00", align 1
@.str.137 = private unnamed_addr constant [5 x i8] c"Jump\00", align 1
@.str.138 = private unnamed_addr constant [13 x i8] c"JumpConstant\00", align 1
@.str.139 = private unnamed_addr constant [19 x i8] c"JumpIfNullConstant\00", align 1
@.str.140 = private unnamed_addr constant [22 x i8] c"JumpIfNotNullConstant\00", align 1
@.str.141 = private unnamed_addr constant [24 x i8] c"JumpIfUndefinedConstant\00", align 1
@.str.142 = private unnamed_addr constant [27 x i8] c"JumpIfNotUndefinedConstant\00", align 1
@.str.143 = private unnamed_addr constant [30 x i8] c"JumpIfUndefinedOrNullConstant\00", align 1
@.str.144 = private unnamed_addr constant [19 x i8] c"JumpIfTrueConstant\00", align 1
@.str.145 = private unnamed_addr constant [20 x i8] c"JumpIfFalseConstant\00", align 1
@.str.146 = private unnamed_addr constant [25 x i8] c"JumpIfJSReceiverConstant\00", align 1
@.str.147 = private unnamed_addr constant [28 x i8] c"JumpIfToBooleanTrueConstant\00", align 1
@.str.148 = private unnamed_addr constant [29 x i8] c"JumpIfToBooleanFalseConstant\00", align 1
@.str.149 = private unnamed_addr constant [20 x i8] c"JumpIfToBooleanTrue\00", align 1
@.str.150 = private unnamed_addr constant [21 x i8] c"JumpIfToBooleanFalse\00", align 1
@.str.151 = private unnamed_addr constant [11 x i8] c"JumpIfTrue\00", align 1
@.str.152 = private unnamed_addr constant [12 x i8] c"JumpIfFalse\00", align 1
@.str.153 = private unnamed_addr constant [11 x i8] c"JumpIfNull\00", align 1
@.str.154 = private unnamed_addr constant [14 x i8] c"JumpIfNotNull\00", align 1
@.str.155 = private unnamed_addr constant [16 x i8] c"JumpIfUndefined\00", align 1
@.str.156 = private unnamed_addr constant [19 x i8] c"JumpIfNotUndefined\00", align 1
@.str.157 = private unnamed_addr constant [22 x i8] c"JumpIfUndefinedOrNull\00", align 1
@.str.158 = private unnamed_addr constant [17 x i8] c"JumpIfJSReceiver\00", align 1
@.str.159 = private unnamed_addr constant [22 x i8] c"SwitchOnSmiNoFeedback\00", align 1
@.str.160 = private unnamed_addr constant [15 x i8] c"ForInEnumerate\00", align 1
@.str.161 = private unnamed_addr constant [13 x i8] c"ForInPrepare\00", align 1
@.str.162 = private unnamed_addr constant [14 x i8] c"ForInContinue\00", align 1
@.str.163 = private unnamed_addr constant [10 x i8] c"ForInNext\00", align 1
@.str.164 = private unnamed_addr constant [10 x i8] c"ForInStep\00", align 1
@.str.165 = private unnamed_addr constant [18 x i8] c"SetPendingMessage\00", align 1
@.str.166 = private unnamed_addr constant [6 x i8] c"Throw\00", align 1
@.str.167 = private unnamed_addr constant [8 x i8] c"ReThrow\00", align 1
@.str.168 = private unnamed_addr constant [7 x i8] c"Return\00", align 1
@.str.169 = private unnamed_addr constant [26 x i8] c"ThrowReferenceErrorIfHole\00", align 1
@.str.170 = private unnamed_addr constant [26 x i8] c"ThrowSuperNotCalledIfHole\00", align 1
@.str.171 = private unnamed_addr constant [33 x i8] c"ThrowSuperAlreadyCalledIfNotHole\00", align 1
@.str.172 = private unnamed_addr constant [27 x i8] c"ThrowIfNotSuperConstructor\00", align 1
@.str.173 = private unnamed_addr constant [23 x i8] c"SwitchOnGeneratorState\00", align 1
@.str.174 = private unnamed_addr constant [17 x i8] c"SuspendGenerator\00", align 1
@.str.175 = private unnamed_addr constant [16 x i8] c"ResumeGenerator\00", align 1
@.str.176 = private unnamed_addr constant [12 x i8] c"GetIterator\00", align 1
@.str.177 = private unnamed_addr constant [9 x i8] c"Debugger\00", align 1
@.str.178 = private unnamed_addr constant [16 x i8] c"IncBlockCounter\00", align 1
@.str.179 = private unnamed_addr constant [6 x i8] c"Abort\00", align 1
@.str.180 = private unnamed_addr constant [7 x i8] c"Star15\00", align 1
@.str.181 = private unnamed_addr constant [7 x i8] c"Star14\00", align 1
@.str.182 = private unnamed_addr constant [7 x i8] c"Star13\00", align 1
@.str.183 = private unnamed_addr constant [7 x i8] c"Star12\00", align 1
@.str.184 = private unnamed_addr constant [7 x i8] c"Star11\00", align 1
@.str.185 = private unnamed_addr constant [7 x i8] c"Star10\00", align 1
@.str.186 = private unnamed_addr constant [6 x i8] c"Star9\00", align 1
@.str.187 = private unnamed_addr constant [6 x i8] c"Star8\00", align 1
@.str.188 = private unnamed_addr constant [6 x i8] c"Star7\00", align 1
@.str.189 = private unnamed_addr constant [6 x i8] c"Star6\00", align 1
@.str.190 = private unnamed_addr constant [6 x i8] c"Star5\00", align 1
@.str.191 = private unnamed_addr constant [6 x i8] c"Star4\00", align 1
@.str.192 = private unnamed_addr constant [6 x i8] c"Star3\00", align 1
@.str.193 = private unnamed_addr constant [6 x i8] c"Star2\00", align 1
@.str.194 = private unnamed_addr constant [6 x i8] c"Star1\00", align 1
@.str.195 = private unnamed_addr constant [6 x i8] c"Star0\00", align 1
@.str.196 = private unnamed_addr constant [8 x i8] c"Illegal\00", align 1
@.str.197 = private unnamed_addr constant [17 x i8] c"unreachable code\00", align 1
@.str.198 = private unnamed_addr constant [18 x i8] c"Check failed: %s.\00", align 1
@.str.199 = private unnamed_addr constant [31 x i8] c"i < NumberOfOperands(bytecode)\00", align 1
@_ZNSt3__15ctypeIcE2idE = external global %"class.std::__1::locale::id", align 8
@_ZN2v88internal11interpreter14BytecodeTraitsILNS1_19ImplicitRegisterUseE0EJEE13kOperandTypesE = linkonce_odr hidden constant [1 x i8] zeroinitializer, comdat, align 1
@_ZN2v88internal11interpreter14BytecodeTraitsILNS1_19ImplicitRegisterUseE3EJEE13kOperandTypesE = linkonce_odr hidden constant [1 x i8] zeroinitializer, comdat, align 1
@_ZN2v88internal11interpreter14BytecodeTraitsILNS1_19ImplicitRegisterUseE3EJLNS1_11OperandTypeE9EEE13kOperandTypesE = linkonce_odr hidden constant [1 x i8] c"\09", comdat, align 1
@_ZN2v88internal11interpreter14BytecodeTraitsILNS1_19ImplicitRegisterUseE3EJLNS1_11OperandTypeE9ELS4_9EEE13kOperandTypesE = linkonce_odr hidden constant [2 x i8] c"\09\09", comdat, align 1
@_ZN2v88internal11interpreter14BytecodeTraitsILNS1_19ImplicitRegisterUseE3EJLNS1_11OperandTypeE9ELS4_9ELS4_9EEE13kOperandTypesE = linkonce_odr hidden constant [3 x i8] c"\09\09\09", comdat, align 1
@_ZN2v88internal11interpreter14BytecodeTraitsILNS1_19ImplicitRegisterUseE3EJLNS1_11OperandTypeE9ELS4_9ELS4_9ELS4_9EEE13kOperandTypesE = linkonce_odr hidden constant [4 x i8] c"\09\09\09\09", comdat, align 1
@_ZN2v88internal11interpreter14BytecodeTraitsILNS1_19ImplicitRegisterUseE3EJLNS1_11OperandTypeE3ELS4_9ELS4_9EEE13kOperandTypesE = linkonce_odr hidden constant [3 x i8] c"\03\09\09", comdat, align 1
@_ZN2v88internal11interpreter14BytecodeTraitsILNS1_19ImplicitRegisterUseE3EJLNS1_11OperandTypeE3ELS4_9ELS4_9ELS4_9EEE13kOperandTypesE = linkonce_odr hidden constant [4 x i8] c"\03\09\09\09", comdat, align 1
@_ZN2v88internal11interpreter14BytecodeTraitsILNS1_19ImplicitRegisterUseE2EJLNS1_11OperandTypeE9EEE13kOperandTypesE = linkonce_odr hidden constant [1 x i8] c"\09", comdat, align 1
@_ZN2v88internal11interpreter14BytecodeTraitsILNS1_19ImplicitRegisterUseE2EJEE13kOperandTypesE = linkonce_odr hidden constant [1 x i8] zeroinitializer, comdat, align 1
@_ZN2v88internal11interpreter14BytecodeTraitsILNS1_19ImplicitRegisterUseE2EJLNS1_11OperandTypeE8EEE13kOperandTypesE = linkonce_odr hidden constant [1 x i8] c"\08", comdat, align 1
@_ZN2v88internal11interpreter14BytecodeTraitsILNS1_19ImplicitRegisterUseE2EJLNS1_11OperandTypeE5EEE13kOperandTypesE = linkonce_odr hidden constant [1 x i8] c"\05", comdat, align 1
@_ZN2v88internal11interpreter14BytecodeTraitsILNS1_19ImplicitRegisterUseE2EJLNS1_11OperandTypeE9ELS4_5ELS4_6EEE13kOperandTypesE = linkonce_odr hidden constant [3 x i8] c"\09\05\06", comdat, align 1
@_ZN2v88internal11interpreter14BytecodeTraitsILNS1_19ImplicitRegisterUseE1EJLNS1_11OperandTypeE12EEE13kOperandTypesE = linkonce_odr hidden constant [1 x i8] c"\0C", comdat, align 1
@_ZN2v88internal11interpreter14BytecodeTraitsILNS1_19ImplicitRegisterUseE0EJLNS1_11OperandTypeE9ELS4_12EEE13kOperandTypesE = linkonce_odr hidden constant [2 x i8] c"\09\0C", comdat, align 1
@_ZN2v88internal11interpreter14BytecodeTraitsILNS1_19ImplicitRegisterUseE0EJLNS1_11OperandTypeE9EEE13kOperandTypesE = linkonce_odr hidden constant [1 x i8] c"\09", comdat, align 1
@_ZN2v88internal11interpreter14BytecodeTraitsILNS1_19ImplicitRegisterUseE3EJLNS1_11OperandTypeE1EEE13kOperandTypesE = linkonce_odr hidden constant [1 x i8] c"\01", comdat, align 1
@_ZN2v88internal11interpreter14BytecodeTraitsILNS1_19ImplicitRegisterUseE2EJLNS1_11OperandTypeE5ELS4_5EEE13kOperandTypesE = linkonce_odr hidden constant [2 x i8] c"\05\05", comdat, align 1
@_ZN2v88internal11interpreter14BytecodeTraitsILNS1_19ImplicitRegisterUseE1EJLNS1_11OperandTypeE5ELS4_5EEE13kOperandTypesE = linkonce_odr hidden constant [2 x i8] c"\05\05", comdat, align 1
@_ZN2v88internal11interpreter14BytecodeTraitsILNS1_19ImplicitRegisterUseE1EJLNS1_11OperandTypeE9ELS4_5ELS4_6EEE13kOperandTypesE = linkonce_odr hidden constant [3 x i8] c"\09\05\06", comdat, align 1
@_ZN2v88internal11interpreter14BytecodeTraitsILNS1_19ImplicitRegisterUseE1EJLNS1_11OperandTypeE5EEE13kOperandTypesE = linkonce_odr hidden constant [1 x i8] c"\05", comdat, align 1
@_ZN2v88internal11interpreter14BytecodeTraitsILNS1_19ImplicitRegisterUseE2EJLNS1_11OperandTypeE5ELS4_5ELS4_6EEE13kOperandTypesE = linkonce_odr hidden constant [3 x i8] c"\05\05\06", comdat, align 1
@_ZN2v88internal11interpreter14BytecodeTraitsILNS1_19ImplicitRegisterUseE3EJLNS1_11OperandTypeE5ELS4_1EEE13kOperandTypesE = linkonce_odr hidden constant [2 x i8] c"\05\01", comdat, align 1
@_ZN2v88internal11interpreter14BytecodeTraitsILNS1_19ImplicitRegisterUseE2EJLNS1_11OperandTypeE9ELS4_5ELS4_5EEE13kOperandTypesE = linkonce_odr hidden constant [3 x i8] c"\09\05\05", comdat, align 1
@_ZN2v88internal11interpreter14BytecodeTraitsILNS1_19ImplicitRegisterUseE3EJLNS1_11OperandTypeE9ELS4_5ELS4_5EEE13kOperandTypesE = linkonce_odr hidden constant [3 x i8] c"\09\05\05", comdat, align 1
@_ZN2v88internal11interpreter14BytecodeTraitsILNS1_19ImplicitRegisterUseE3EJLNS1_11OperandTypeE9ELS4_5EEE13kOperandTypesE = linkonce_odr hidden constant [2 x i8] c"\09\05", comdat, align 1
@_ZN2v88internal11interpreter14BytecodeTraitsILNS1_19ImplicitRegisterUseE2EJLNS1_11OperandTypeE8ELS4_6EEE13kOperandTypesE = linkonce_odr hidden constant [2 x i8] c"\08\06", comdat, align 1
@_ZN2v88internal11interpreter14BytecodeTraitsILNS1_19ImplicitRegisterUseE1EJLNS1_11OperandTypeE8ELS4_6EEE13kOperandTypesE = linkonce_odr hidden constant [2 x i8] c"\08\06", comdat, align 1
@_ZN2v88internal11interpreter14BytecodeTraitsILNS1_19ImplicitRegisterUseE3EJLNS1_11OperandTypeE9ELS4_9ELS4_5EEE13kOperandTypesE = linkonce_odr hidden constant [3 x i8] c"\09\09\05", comdat, align 1
@_ZN2v88internal11interpreter14BytecodeTraitsILNS1_19ImplicitRegisterUseE1EJLNS1_11OperandTypeE9ELS4_9ELS4_1ELS4_5EEE13kOperandTypesE = linkonce_odr hidden constant [4 x i8] c"\09\09\01\05", comdat, align 1
@_ZN2v88internal11interpreter14BytecodeTraitsILNS1_19ImplicitRegisterUseE1EJLNS1_11OperandTypeE8EEE13kOperandTypesE = linkonce_odr hidden constant [1 x i8] c"\08", comdat, align 1
@_ZN2v88internal11interpreter14BytecodeTraitsILNS1_19ImplicitRegisterUseE3EJLNS1_11OperandTypeE8ELS4_5EEE13kOperandTypesE = linkonce_odr hidden constant [2 x i8] c"\08\05", comdat, align 1
@_ZN2v88internal11interpreter14BytecodeTraitsILNS1_19ImplicitRegisterUseE3EJLNS1_11OperandTypeE5EEE13kOperandTypesE = linkonce_odr hidden constant [1 x i8] c"\05", comdat, align 1
@_ZN2v88internal11interpreter14BytecodeTraitsILNS1_19ImplicitRegisterUseE2EJLNS1_11OperandTypeE9ELS4_10ELS4_7ELS4_5EEE13kOperandTypesE = linkonce_odr hidden constant [4 x i8] c"\09\0A\07\05", comdat, align 1
@_ZN2v88internal11interpreter14BytecodeTraitsILNS1_19ImplicitRegisterUseE2EJLNS1_11OperandTypeE9ELS4_9ELS4_5EEE13kOperandTypesE = linkonce_odr hidden constant [3 x i8] c"\09\09\05", comdat, align 1
@_ZN2v88internal11interpreter14BytecodeTraitsILNS1_19ImplicitRegisterUseE2EJLNS1_11OperandTypeE9ELS4_9ELS4_9ELS4_5EEE13kOperandTypesE = linkonce_odr hidden constant [4 x i8] c"\09\09\09\05", comdat, align 1
@_ZN2v88internal11interpreter14BytecodeTraitsILNS1_19ImplicitRegisterUseE2EJLNS1_11OperandTypeE9ELS4_9ELS4_9ELS4_9ELS4_5EEE13kOperandTypesE = linkonce_odr hidden constant [5 x i8] c"\09\09\09\09\05", comdat, align 1
@_ZN2v88internal11interpreter14BytecodeTraitsILNS1_19ImplicitRegisterUseE2EJLNS1_11OperandTypeE9ELS4_5EEE13kOperandTypesE = linkonce_odr hidden constant [2 x i8] c"\09\05", comdat, align 1
@_ZN2v88internal11interpreter14BytecodeTraitsILNS1_19ImplicitRegisterUseE2EJLNS1_11OperandTypeE3ELS4_10ELS4_7EEE13kOperandTypesE = linkonce_odr hidden constant [3 x i8] c"\03\0A\07", comdat, align 1
@_ZN2v88internal11interpreter14BytecodeTraitsILNS1_19ImplicitRegisterUseE0EJLNS1_11OperandTypeE3ELS4_10ELS4_7ELS4_14EEE13kOperandTypesE = linkonce_odr hidden constant [4 x i8] c"\03\0A\07\0E", comdat, align 1
@_ZN2v88internal11interpreter14BytecodeTraitsILNS1_19ImplicitRegisterUseE2EJLNS1_11OperandTypeE4ELS4_10ELS4_7EEE13kOperandTypesE = linkonce_odr hidden constant [3 x i8] c"\04\0A\07", comdat, align 1
@_ZN2v88internal11interpreter14BytecodeTraitsILNS1_19ImplicitRegisterUseE2EJLNS1_11OperandTypeE2ELS4_10ELS4_7EEE13kOperandTypesE = linkonce_odr hidden constant [3 x i8] c"\02\0A\07", comdat, align 1
@_ZN2v88internal11interpreter14BytecodeTraitsILNS1_19ImplicitRegisterUseE3EJLNS1_11OperandTypeE9ELS4_10ELS4_7ELS4_5EEE13kOperandTypesE = linkonce_odr hidden constant [4 x i8] c"\09\0A\07\05", comdat, align 1
@_ZN2v88internal11interpreter14BytecodeTraitsILNS1_19ImplicitRegisterUseE2EJLNS1_11OperandTypeE5ELS4_5ELS4_1EEE13kOperandTypesE = linkonce_odr hidden constant [3 x i8] c"\05\05\01", comdat, align 1
@_ZN2v88internal11interpreter14BytecodeTraitsILNS1_19ImplicitRegisterUseE2EJLNS1_11OperandTypeE9ELS4_1ELS4_5EEE13kOperandTypesE = linkonce_odr hidden constant [3 x i8] c"\09\01\05", comdat, align 1
@_ZN2v88internal11interpreter14BytecodeTraitsILNS1_19ImplicitRegisterUseE2EJLNS1_11OperandTypeE5ELS4_6EEE13kOperandTypesE = linkonce_odr hidden constant [2 x i8] c"\05\06", comdat, align 1
@_ZN2v88internal11interpreter14BytecodeTraitsILNS1_19ImplicitRegisterUseE0EJLNS1_11OperandTypeE6ELS4_8EEE13kOperandTypesE = linkonce_odr hidden constant [2 x i8] c"\06\08", comdat, align 1
@_ZN2v88internal11interpreter14BytecodeTraitsILNS1_19ImplicitRegisterUseE0EJLNS1_11OperandTypeE6EEE13kOperandTypesE = linkonce_odr hidden constant [1 x i8] c"\06", comdat, align 1
@_ZN2v88internal11interpreter14BytecodeTraitsILNS1_19ImplicitRegisterUseE0EJLNS1_11OperandTypeE5EEE13kOperandTypesE = linkonce_odr hidden constant [1 x i8] c"\05", comdat, align 1
@_ZN2v88internal11interpreter14BytecodeTraitsILNS1_19ImplicitRegisterUseE1EJLNS1_11OperandTypeE6EEE13kOperandTypesE = linkonce_odr hidden constant [1 x i8] c"\06", comdat, align 1
@_ZN2v88internal11interpreter14BytecodeTraitsILNS1_19ImplicitRegisterUseE1EJLNS1_11OperandTypeE5ELS4_6ELS4_8EEE13kOperandTypesE = linkonce_odr hidden constant [3 x i8] c"\05\06\08", comdat, align 1
@_ZN2v88internal11interpreter14BytecodeTraitsILNS1_19ImplicitRegisterUseE1EJLNS1_11OperandTypeE15ELS4_5EEE13kOperandTypesE = linkonce_odr hidden constant [2 x i8] c"\0F\05", comdat, align 1
@_ZN2v88internal11interpreter14BytecodeTraitsILNS1_19ImplicitRegisterUseE2EJLNS1_11OperandTypeE9ELS4_9EEE13kOperandTypesE = linkonce_odr hidden constant [2 x i8] c"\09\09", comdat, align 1
@_ZN2v88internal11interpreter14BytecodeTraitsILNS1_19ImplicitRegisterUseE2EJLNS1_11OperandTypeE9ELS4_9ELS4_11ELS4_5EEE13kOperandTypesE = linkonce_odr hidden constant [4 x i8] c"\09\09\0B\05", comdat, align 1
@_ZN2v88internal11interpreter14BytecodeTraitsILNS1_19ImplicitRegisterUseE1EJEE13kOperandTypesE = linkonce_odr hidden constant [1 x i8] zeroinitializer, comdat, align 1
@_ZN2v88internal11interpreter14BytecodeTraitsILNS1_19ImplicitRegisterUseE0EJLNS1_11OperandTypeE9ELS4_5ELS4_6EEE13kOperandTypesE = linkonce_odr hidden constant [3 x i8] c"\09\05\06", comdat, align 1
@_ZN2v88internal11interpreter14BytecodeTraitsILNS1_19ImplicitRegisterUseE1EJLNS1_11OperandTypeE9ELS4_10ELS4_7ELS4_6EEE13kOperandTypesE = linkonce_odr hidden constant [4 x i8] c"\09\0A\07\06", comdat, align 1
@_ZN2v88internal11interpreter14BytecodeTraitsILNS1_19ImplicitRegisterUseE2EJLNS1_11OperandTypeE9ELS4_13ELS4_7EEE13kOperandTypesE = linkonce_odr hidden constant [3 x i8] c"\09\0D\07", comdat, align 1
@_ZN2v88internal11interpreter14BytecodeTraitsILNS1_19ImplicitRegisterUseE5EJEE13kOperandTypesE = linkonce_odr hidden constant [1 x i8] zeroinitializer, comdat, align 1
@_ZN2v88internal11interpreter14BytecodeTraitsILNS1_19ImplicitRegisterUseE0EJEE17kOperandTypeInfosE = linkonce_odr hidden constant [1 x i8] zeroinitializer, comdat, align 1
@_ZN2v88internal11interpreter14BytecodeTraitsILNS1_19ImplicitRegisterUseE3EJEE17kOperandTypeInfosE = linkonce_odr hidden constant [1 x i8] zeroinitializer, comdat, align 1
@_ZN2v88internal11interpreter14BytecodeTraitsILNS1_19ImplicitRegisterUseE3EJLNS1_11OperandTypeE9EEE17kOperandTypeInfosE = linkonce_odr hidden constant [1 x i8] c"\01", comdat, align 1
@_ZN2v88internal11interpreter14BytecodeTraitsILNS1_19ImplicitRegisterUseE3EJLNS1_11OperandTypeE9ELS4_9EEE17kOperandTypeInfosE = linkonce_odr hidden constant [2 x i8] c"\01\01", comdat, align 1
@_ZN2v88internal11interpreter14BytecodeTraitsILNS1_19ImplicitRegisterUseE3EJLNS1_11OperandTypeE9ELS4_9ELS4_9EEE17kOperandTypeInfosE = linkonce_odr hidden constant [3 x i8] c"\01\01\01", comdat, align 1
@_ZN2v88internal11interpreter14BytecodeTraitsILNS1_19ImplicitRegisterUseE3EJLNS1_11OperandTypeE9ELS4_9ELS4_9ELS4_9EEE17kOperandTypeInfosE = linkonce_odr hidden constant [4 x i8] c"\01\01\01\01", comdat, align 1
@_ZN2v88internal11interpreter14BytecodeTraitsILNS1_19ImplicitRegisterUseE3EJLNS1_11OperandTypeE3ELS4_9ELS4_9EEE17kOperandTypeInfosE = linkonce_odr hidden constant [3 x i8] c"\04\01\01", comdat, align 1
@_ZN2v88internal11interpreter14BytecodeTraitsILNS1_19ImplicitRegisterUseE3EJLNS1_11OperandTypeE3ELS4_9ELS4_9ELS4_9EEE17kOperandTypeInfosE = linkonce_odr hidden constant [4 x i8] c"\04\01\01\01", comdat, align 1
@_ZN2v88internal11interpreter14BytecodeTraitsILNS1_19ImplicitRegisterUseE2EJLNS1_11OperandTypeE9EEE17kOperandTypeInfosE = linkonce_odr hidden constant [1 x i8] c"\01", comdat, align 1
@_ZN2v88internal11interpreter14BytecodeTraitsILNS1_19ImplicitRegisterUseE2EJEE17kOperandTypeInfosE = linkonce_odr hidden constant [1 x i8] zeroinitializer, comdat, align 1
@_ZN2v88internal11interpreter14BytecodeTraitsILNS1_19ImplicitRegisterUseE2EJLNS1_11OperandTypeE8EEE17kOperandTypeInfosE = linkonce_odr hidden constant [1 x i8] c"\01", comdat, align 1
@_ZN2v88internal11interpreter14BytecodeTraitsILNS1_19ImplicitRegisterUseE2EJLNS1_11OperandTypeE5EEE17kOperandTypeInfosE = linkonce_odr hidden constant [1 x i8] c"\02", comdat, align 1
@_ZN2v88internal11interpreter14BytecodeTraitsILNS1_19ImplicitRegisterUseE2EJLNS1_11OperandTypeE9ELS4_5ELS4_6EEE17kOperandTypeInfosE = linkonce_odr hidden constant [3 x i8] c"\01\02\02", comdat, align 1
@_ZN2v88internal11interpreter14BytecodeTraitsILNS1_19ImplicitRegisterUseE1EJLNS1_11OperandTypeE12EEE17kOperandTypeInfosE = linkonce_odr hidden constant [1 x i8] c"\01", comdat, align 1
@_ZN2v88internal11interpreter14BytecodeTraitsILNS1_19ImplicitRegisterUseE0EJLNS1_11OperandTypeE9ELS4_12EEE17kOperandTypeInfosE = linkonce_odr hidden constant [2 x i8] c"\01\01", comdat, align 1
@_ZN2v88internal11interpreter14BytecodeTraitsILNS1_19ImplicitRegisterUseE0EJLNS1_11OperandTypeE9EEE17kOperandTypeInfosE = linkonce_odr hidden constant [1 x i8] c"\01", comdat, align 1
@_ZN2v88internal11interpreter14BytecodeTraitsILNS1_19ImplicitRegisterUseE3EJLNS1_11OperandTypeE1EEE17kOperandTypeInfosE = linkonce_odr hidden constant [1 x i8] c"\03", comdat, align 1
@_ZN2v88internal11interpreter14BytecodeTraitsILNS1_19ImplicitRegisterUseE2EJLNS1_11OperandTypeE5ELS4_5EEE17kOperandTypeInfosE = linkonce_odr hidden constant [2 x i8] c"\02\02", comdat, align 1
@_ZN2v88internal11interpreter14BytecodeTraitsILNS1_19ImplicitRegisterUseE1EJLNS1_11OperandTypeE5ELS4_5EEE17kOperandTypeInfosE = linkonce_odr hidden constant [2 x i8] c"\02\02", comdat, align 1
@_ZN2v88internal11interpreter14BytecodeTraitsILNS1_19ImplicitRegisterUseE1EJLNS1_11OperandTypeE9ELS4_5ELS4_6EEE17kOperandTypeInfosE = linkonce_odr hidden constant [3 x i8] c"\01\02\02", comdat, align 1
@_ZN2v88internal11interpreter14BytecodeTraitsILNS1_19ImplicitRegisterUseE1EJLNS1_11OperandTypeE5EEE17kOperandTypeInfosE = linkonce_odr hidden constant [1 x i8] c"\02", comdat, align 1
@_ZN2v88internal11interpreter14BytecodeTraitsILNS1_19ImplicitRegisterUseE2EJLNS1_11OperandTypeE5ELS4_5ELS4_6EEE17kOperandTypeInfosE = linkonce_odr hidden constant [3 x i8] c"\02\02\02", comdat, align 1
@_ZN2v88internal11interpreter14BytecodeTraitsILNS1_19ImplicitRegisterUseE3EJLNS1_11OperandTypeE5ELS4_1EEE17kOperandTypeInfosE = linkonce_odr hidden constant [2 x i8] c"\02\03", comdat, align 1
@_ZN2v88internal11interpreter14BytecodeTraitsILNS1_19ImplicitRegisterUseE2EJLNS1_11OperandTypeE9ELS4_5ELS4_5EEE17kOperandTypeInfosE = linkonce_odr hidden constant [3 x i8] c"\01\02\02", comdat, align 1
@_ZN2v88internal11interpreter14BytecodeTraitsILNS1_19ImplicitRegisterUseE3EJLNS1_11OperandTypeE9ELS4_5ELS4_5EEE17kOperandTypeInfosE = linkonce_odr hidden constant [3 x i8] c"\01\02\02", comdat, align 1
@_ZN2v88internal11interpreter14BytecodeTraitsILNS1_19ImplicitRegisterUseE3EJLNS1_11OperandTypeE9ELS4_5EEE17kOperandTypeInfosE = linkonce_odr hidden constant [2 x i8] c"\01\02", comdat, align 1
@_ZN2v88internal11interpreter14BytecodeTraitsILNS1_19ImplicitRegisterUseE2EJLNS1_11OperandTypeE8ELS4_6EEE17kOperandTypeInfosE = linkonce_odr hidden constant [2 x i8] c"\01\02", comdat, align 1
@_ZN2v88internal11interpreter14BytecodeTraitsILNS1_19ImplicitRegisterUseE1EJLNS1_11OperandTypeE8ELS4_6EEE17kOperandTypeInfosE = linkonce_odr hidden constant [2 x i8] c"\01\02", comdat, align 1
@_ZN2v88internal11interpreter14BytecodeTraitsILNS1_19ImplicitRegisterUseE3EJLNS1_11OperandTypeE9ELS4_9ELS4_5EEE17kOperandTypeInfosE = linkonce_odr hidden constant [3 x i8] c"\01\01\02", comdat, align 1
@_ZN2v88internal11interpreter14BytecodeTraitsILNS1_19ImplicitRegisterUseE1EJLNS1_11OperandTypeE9ELS4_9ELS4_1ELS4_5EEE17kOperandTypeInfosE = linkonce_odr hidden constant [4 x i8] c"\01\01\03\02", comdat, align 1
@_ZN2v88internal11interpreter14BytecodeTraitsILNS1_19ImplicitRegisterUseE1EJLNS1_11OperandTypeE8EEE17kOperandTypeInfosE = linkonce_odr hidden constant [1 x i8] c"\01", comdat, align 1
@_ZN2v88internal11interpreter14BytecodeTraitsILNS1_19ImplicitRegisterUseE3EJLNS1_11OperandTypeE8ELS4_5EEE17kOperandTypeInfosE = linkonce_odr hidden constant [2 x i8] c"\01\02", comdat, align 1
@_ZN2v88internal11interpreter14BytecodeTraitsILNS1_19ImplicitRegisterUseE3EJLNS1_11OperandTypeE5EEE17kOperandTypeInfosE = linkonce_odr hidden constant [1 x i8] c"\02", comdat, align 1
@_ZN2v88internal11interpreter14BytecodeTraitsILNS1_19ImplicitRegisterUseE2EJLNS1_11OperandTypeE9ELS4_10ELS4_7ELS4_5EEE17kOperandTypeInfosE = linkonce_odr hidden constant [4 x i8] c"\01\01\02\02", comdat, align 1
@_ZN2v88internal11interpreter14BytecodeTraitsILNS1_19ImplicitRegisterUseE2EJLNS1_11OperandTypeE9ELS4_9ELS4_5EEE17kOperandTypeInfosE = linkonce_odr hidden constant [3 x i8] c"\01\01\02", comdat, align 1
@_ZN2v88internal11interpreter14BytecodeTraitsILNS1_19ImplicitRegisterUseE2EJLNS1_11OperandTypeE9ELS4_9ELS4_9ELS4_5EEE17kOperandTypeInfosE = linkonce_odr hidden constant [4 x i8] c"\01\01\01\02", comdat, align 1
@_ZN2v88internal11interpreter14BytecodeTraitsILNS1_19ImplicitRegisterUseE2EJLNS1_11OperandTypeE9ELS4_9ELS4_9ELS4_9ELS4_5EEE17kOperandTypeInfosE = linkonce_odr hidden constant [5 x i8] c"\01\01\01\01\02", comdat, align 1
@_ZN2v88internal11interpreter14BytecodeTraitsILNS1_19ImplicitRegisterUseE2EJLNS1_11OperandTypeE9ELS4_5EEE17kOperandTypeInfosE = linkonce_odr hidden constant [2 x i8] c"\01\02", comdat, align 1
@_ZN2v88internal11interpreter14BytecodeTraitsILNS1_19ImplicitRegisterUseE2EJLNS1_11OperandTypeE3ELS4_10ELS4_7EEE17kOperandTypeInfosE = linkonce_odr hidden constant [3 x i8] c"\04\01\02", comdat, align 1
@_ZN2v88internal11interpreter14BytecodeTraitsILNS1_19ImplicitRegisterUseE0EJLNS1_11OperandTypeE3ELS4_10ELS4_7ELS4_14EEE17kOperandTypeInfosE = linkonce_odr hidden constant [4 x i8] c"\04\01\02\01", comdat, align 1
@_ZN2v88internal11interpreter14BytecodeTraitsILNS1_19ImplicitRegisterUseE2EJLNS1_11OperandTypeE4ELS4_10ELS4_7EEE17kOperandTypeInfosE = linkonce_odr hidden constant [3 x i8] c"\03\01\02", comdat, align 1
@_ZN2v88internal11interpreter14BytecodeTraitsILNS1_19ImplicitRegisterUseE2EJLNS1_11OperandTypeE2ELS4_10ELS4_7EEE17kOperandTypeInfosE = linkonce_odr hidden constant [3 x i8] c"\03\01\02", comdat, align 1
@_ZN2v88internal11interpreter14BytecodeTraitsILNS1_19ImplicitRegisterUseE3EJLNS1_11OperandTypeE9ELS4_10ELS4_7ELS4_5EEE17kOperandTypeInfosE = linkonce_odr hidden constant [4 x i8] c"\01\01\02\02", comdat, align 1
@_ZN2v88internal11interpreter14BytecodeTraitsILNS1_19ImplicitRegisterUseE2EJLNS1_11OperandTypeE5ELS4_5ELS4_1EEE17kOperandTypeInfosE = linkonce_odr hidden constant [3 x i8] c"\02\02\03", comdat, align 1
@_ZN2v88internal11interpreter14BytecodeTraitsILNS1_19ImplicitRegisterUseE2EJLNS1_11OperandTypeE9ELS4_1ELS4_5EEE17kOperandTypeInfosE = linkonce_odr hidden constant [3 x i8] c"\01\03\02", comdat, align 1
@_ZN2v88internal11interpreter14BytecodeTraitsILNS1_19ImplicitRegisterUseE2EJLNS1_11OperandTypeE5ELS4_6EEE17kOperandTypeInfosE = linkonce_odr hidden constant [2 x i8] c"\02\02", comdat, align 1
@_ZN2v88internal11interpreter14BytecodeTraitsILNS1_19ImplicitRegisterUseE0EJLNS1_11OperandTypeE6ELS4_8EEE17kOperandTypeInfosE = linkonce_odr hidden constant [2 x i8] c"\02\01", comdat, align 1
@_ZN2v88internal11interpreter14BytecodeTraitsILNS1_19ImplicitRegisterUseE0EJLNS1_11OperandTypeE6EEE17kOperandTypeInfosE = linkonce_odr hidden constant [1 x i8] c"\02", comdat, align 1
@_ZN2v88internal11interpreter14BytecodeTraitsILNS1_19ImplicitRegisterUseE0EJLNS1_11OperandTypeE5EEE17kOperandTypeInfosE = linkonce_odr hidden constant [1 x i8] c"\02", comdat, align 1
@_ZN2v88internal11interpreter14BytecodeTraitsILNS1_19ImplicitRegisterUseE1EJLNS1_11OperandTypeE6EEE17kOperandTypeInfosE = linkonce_odr hidden constant [1 x i8] c"\02", comdat, align 1
@_ZN2v88internal11interpreter14BytecodeTraitsILNS1_19ImplicitRegisterUseE1EJLNS1_11OperandTypeE5ELS4_6ELS4_8EEE17kOperandTypeInfosE = linkonce_odr hidden constant [3 x i8] c"\02\02\01", comdat, align 1
@_ZN2v88internal11interpreter14BytecodeTraitsILNS1_19ImplicitRegisterUseE1EJLNS1_11OperandTypeE15ELS4_5EEE17kOperandTypeInfosE = linkonce_odr hidden constant [2 x i8] c"\01\02", comdat, align 1
@_ZN2v88internal11interpreter14BytecodeTraitsILNS1_19ImplicitRegisterUseE2EJLNS1_11OperandTypeE9ELS4_9EEE17kOperandTypeInfosE = linkonce_odr hidden constant [2 x i8] c"\01\01", comdat, align 1
@_ZN2v88internal11interpreter14BytecodeTraitsILNS1_19ImplicitRegisterUseE2EJLNS1_11OperandTypeE9ELS4_9ELS4_11ELS4_5EEE17kOperandTypeInfosE = linkonce_odr hidden constant [4 x i8] c"\01\01\01\02", comdat, align 1
@_ZN2v88internal11interpreter14BytecodeTraitsILNS1_19ImplicitRegisterUseE1EJEE17kOperandTypeInfosE = linkonce_odr hidden constant [1 x i8] zeroinitializer, comdat, align 1
@_ZN2v88internal11interpreter14BytecodeTraitsILNS1_19ImplicitRegisterUseE0EJLNS1_11OperandTypeE9ELS4_5ELS4_6EEE17kOperandTypeInfosE = linkonce_odr hidden constant [3 x i8] c"\01\02\02", comdat, align 1
@_ZN2v88internal11interpreter14BytecodeTraitsILNS1_19ImplicitRegisterUseE1EJLNS1_11OperandTypeE9ELS4_10ELS4_7ELS4_6EEE17kOperandTypeInfosE = linkonce_odr hidden constant [4 x i8] c"\01\01\02\02", comdat, align 1
@_ZN2v88internal11interpreter14BytecodeTraitsILNS1_19ImplicitRegisterUseE2EJLNS1_11OperandTypeE9ELS4_13ELS4_7EEE17kOperandTypeInfosE = linkonce_odr hidden constant [3 x i8] c"\01\01\02", comdat, align 1
@_ZN2v88internal11interpreter14BytecodeTraitsILNS1_19ImplicitRegisterUseE5EJEE17kOperandTypeInfosE = linkonce_odr hidden constant [1 x i8] zeroinitializer, comdat, align 1
@_ZN2v88internal11interpreter14BytecodeTraitsILNS1_19ImplicitRegisterUseE0EJEE24kSingleScaleOperandSizesE = linkonce_odr hidden constant [1 x i8] zeroinitializer, comdat, align 1
@_ZN2v88internal11interpreter14BytecodeTraitsILNS1_19ImplicitRegisterUseE3EJEE24kSingleScaleOperandSizesE = linkonce_odr hidden constant [1 x i8] zeroinitializer, comdat, align 1
@_ZN2v88internal11interpreter14BytecodeTraitsILNS1_19ImplicitRegisterUseE3EJLNS1_11OperandTypeE9EEE24kSingleScaleOperandSizesE = linkonce_odr hidden constant [1 x i8] c"\01", comdat, align 1
@_ZN2v88internal11interpreter14BytecodeTraitsILNS1_19ImplicitRegisterUseE3EJLNS1_11OperandTypeE9ELS4_9EEE24kSingleScaleOperandSizesE = linkonce_odr hidden constant [2 x i8] c"\01\01", comdat, align 1
@_ZN2v88internal11interpreter14BytecodeTraitsILNS1_19ImplicitRegisterUseE3EJLNS1_11OperandTypeE9ELS4_9ELS4_9EEE24kSingleScaleOperandSizesE = linkonce_odr hidden constant [3 x i8] c"\01\01\01", comdat, align 1
@_ZN2v88internal11interpreter14BytecodeTraitsILNS1_19ImplicitRegisterUseE3EJLNS1_11OperandTypeE9ELS4_9ELS4_9ELS4_9EEE24kSingleScaleOperandSizesE = linkonce_odr hidden constant [4 x i8] c"\01\01\01\01", comdat, align 1
@_ZN2v88internal11interpreter14BytecodeTraitsILNS1_19ImplicitRegisterUseE3EJLNS1_11OperandTypeE3ELS4_9ELS4_9EEE24kSingleScaleOperandSizesE = linkonce_odr hidden constant [3 x i8] c"\02\01\01", comdat, align 1
@_ZN2v88internal11interpreter14BytecodeTraitsILNS1_19ImplicitRegisterUseE3EJLNS1_11OperandTypeE3ELS4_9ELS4_9ELS4_9EEE24kSingleScaleOperandSizesE = linkonce_odr hidden constant [4 x i8] c"\02\01\01\01", comdat, align 1
@_ZN2v88internal11interpreter14BytecodeTraitsILNS1_19ImplicitRegisterUseE2EJLNS1_11OperandTypeE9EEE24kSingleScaleOperandSizesE = linkonce_odr hidden constant [1 x i8] c"\01", comdat, align 1
@_ZN2v88internal11interpreter14BytecodeTraitsILNS1_19ImplicitRegisterUseE2EJEE24kSingleScaleOperandSizesE = linkonce_odr hidden constant [1 x i8] zeroinitializer, comdat, align 1
@_ZN2v88internal11interpreter14BytecodeTraitsILNS1_19ImplicitRegisterUseE2EJLNS1_11OperandTypeE8EEE24kSingleScaleOperandSizesE = linkonce_odr hidden constant [1 x i8] c"\01", comdat, align 1
@_ZN2v88internal11interpreter14BytecodeTraitsILNS1_19ImplicitRegisterUseE2EJLNS1_11OperandTypeE5EEE24kSingleScaleOperandSizesE = linkonce_odr hidden constant [1 x i8] c"\01", comdat, align 1
@_ZN2v88internal11interpreter14BytecodeTraitsILNS1_19ImplicitRegisterUseE2EJLNS1_11OperandTypeE9ELS4_5ELS4_6EEE24kSingleScaleOperandSizesE = linkonce_odr hidden constant [3 x i8] c"\01\01\01", comdat, align 1
@_ZN2v88internal11interpreter14BytecodeTraitsILNS1_19ImplicitRegisterUseE1EJLNS1_11OperandTypeE12EEE24kSingleScaleOperandSizesE = linkonce_odr hidden constant [1 x i8] c"\01", comdat, align 1
@_ZN2v88internal11interpreter14BytecodeTraitsILNS1_19ImplicitRegisterUseE0EJLNS1_11OperandTypeE9ELS4_12EEE24kSingleScaleOperandSizesE = linkonce_odr hidden constant [2 x i8] c"\01\01", comdat, align 1
@_ZN2v88internal11interpreter14BytecodeTraitsILNS1_19ImplicitRegisterUseE0EJLNS1_11OperandTypeE9EEE24kSingleScaleOperandSizesE = linkonce_odr hidden constant [1 x i8] c"\01", comdat, align 1
@_ZN2v88internal11interpreter14BytecodeTraitsILNS1_19ImplicitRegisterUseE3EJLNS1_11OperandTypeE1EEE24kSingleScaleOperandSizesE = linkonce_odr hidden constant [1 x i8] c"\01", comdat, align 1
@_ZN2v88internal11interpreter14BytecodeTraitsILNS1_19ImplicitRegisterUseE2EJLNS1_11OperandTypeE5ELS4_5EEE24kSingleScaleOperandSizesE = linkonce_odr hidden constant [2 x i8] c"\01\01", comdat, align 1
@_ZN2v88internal11interpreter14BytecodeTraitsILNS1_19ImplicitRegisterUseE1EJLNS1_11OperandTypeE5ELS4_5EEE24kSingleScaleOperandSizesE = linkonce_odr hidden constant [2 x i8] c"\01\01", comdat, align 1
@_ZN2v88internal11interpreter14BytecodeTraitsILNS1_19ImplicitRegisterUseE1EJLNS1_11OperandTypeE9ELS4_5ELS4_6EEE24kSingleScaleOperandSizesE = linkonce_odr hidden constant [3 x i8] c"\01\01\01", comdat, align 1
@_ZN2v88internal11interpreter14BytecodeTraitsILNS1_19ImplicitRegisterUseE1EJLNS1_11OperandTypeE5EEE24kSingleScaleOperandSizesE = linkonce_odr hidden constant [1 x i8] c"\01", comdat, align 1
@_ZN2v88internal11interpreter14BytecodeTraitsILNS1_19ImplicitRegisterUseE2EJLNS1_11OperandTypeE5ELS4_5ELS4_6EEE24kSingleScaleOperandSizesE = linkonce_odr hidden constant [3 x i8] c"\01\01\01", comdat, align 1
@_ZN2v88internal11interpreter14BytecodeTraitsILNS1_19ImplicitRegisterUseE3EJLNS1_11OperandTypeE5ELS4_1EEE24kSingleScaleOperandSizesE = linkonce_odr hidden constant [2 x i8] c"\01\01", comdat, align 1
@_ZN2v88internal11interpreter14BytecodeTraitsILNS1_19ImplicitRegisterUseE2EJLNS1_11OperandTypeE9ELS4_5ELS4_5EEE24kSingleScaleOperandSizesE = linkonce_odr hidden constant [3 x i8] c"\01\01\01", comdat, align 1
@_ZN2v88internal11interpreter14BytecodeTraitsILNS1_19ImplicitRegisterUseE3EJLNS1_11OperandTypeE9ELS4_5ELS4_5EEE24kSingleScaleOperandSizesE = linkonce_odr hidden constant [3 x i8] c"\01\01\01", comdat, align 1
@_ZN2v88internal11interpreter14BytecodeTraitsILNS1_19ImplicitRegisterUseE3EJLNS1_11OperandTypeE9ELS4_5EEE24kSingleScaleOperandSizesE = linkonce_odr hidden constant [2 x i8] c"\01\01", comdat, align 1
@_ZN2v88internal11interpreter14BytecodeTraitsILNS1_19ImplicitRegisterUseE2EJLNS1_11OperandTypeE8ELS4_6EEE24kSingleScaleOperandSizesE = linkonce_odr hidden constant [2 x i8] c"\01\01", comdat, align 1
@_ZN2v88internal11interpreter14BytecodeTraitsILNS1_19ImplicitRegisterUseE1EJLNS1_11OperandTypeE8ELS4_6EEE24kSingleScaleOperandSizesE = linkonce_odr hidden constant [2 x i8] c"\01\01", comdat, align 1
@_ZN2v88internal11interpreter14BytecodeTraitsILNS1_19ImplicitRegisterUseE3EJLNS1_11OperandTypeE9ELS4_9ELS4_5EEE24kSingleScaleOperandSizesE = linkonce_odr hidden constant [3 x i8] c"\01\01\01", comdat, align 1
@_ZN2v88internal11interpreter14BytecodeTraitsILNS1_19ImplicitRegisterUseE1EJLNS1_11OperandTypeE9ELS4_9ELS4_1ELS4_5EEE24kSingleScaleOperandSizesE = linkonce_odr hidden constant [4 x i8] c"\01\01\01\01", comdat, align 1
@_ZN2v88internal11interpreter14BytecodeTraitsILNS1_19ImplicitRegisterUseE1EJLNS1_11OperandTypeE8EEE24kSingleScaleOperandSizesE = linkonce_odr hidden constant [1 x i8] c"\01", comdat, align 1
@_ZN2v88internal11interpreter14BytecodeTraitsILNS1_19ImplicitRegisterUseE3EJLNS1_11OperandTypeE8ELS4_5EEE24kSingleScaleOperandSizesE = linkonce_odr hidden constant [2 x i8] c"\01\01", comdat, align 1
@_ZN2v88internal11interpreter14BytecodeTraitsILNS1_19ImplicitRegisterUseE3EJLNS1_11OperandTypeE5EEE24kSingleScaleOperandSizesE = linkonce_odr hidden constant [1 x i8] c"\01", comdat, align 1
@_ZN2v88internal11interpreter14BytecodeTraitsILNS1_19ImplicitRegisterUseE2EJLNS1_11OperandTypeE9ELS4_10ELS4_7ELS4_5EEE24kSingleScaleOperandSizesE = linkonce_odr hidden constant [4 x i8] c"\01\01\01\01", comdat, align 1
@_ZN2v88internal11interpreter14BytecodeTraitsILNS1_19ImplicitRegisterUseE2EJLNS1_11OperandTypeE9ELS4_9ELS4_5EEE24kSingleScaleOperandSizesE = linkonce_odr hidden constant [3 x i8] c"\01\01\01", comdat, align 1
@_ZN2v88internal11interpreter14BytecodeTraitsILNS1_19ImplicitRegisterUseE2EJLNS1_11OperandTypeE9ELS4_9ELS4_9ELS4_5EEE24kSingleScaleOperandSizesE = linkonce_odr hidden constant [4 x i8] c"\01\01\01\01", comdat, align 1
@_ZN2v88internal11interpreter14BytecodeTraitsILNS1_19ImplicitRegisterUseE2EJLNS1_11OperandTypeE9ELS4_9ELS4_9ELS4_9ELS4_5EEE24kSingleScaleOperandSizesE = linkonce_odr hidden constant [5 x i8] c"\01\01\01\01\01", comdat, align 1
@_ZN2v88internal11interpreter14BytecodeTraitsILNS1_19ImplicitRegisterUseE2EJLNS1_11OperandTypeE9ELS4_5EEE24kSingleScaleOperandSizesE = linkonce_odr hidden constant [2 x i8] c"\01\01", comdat, align 1
@_ZN2v88internal11interpreter14BytecodeTraitsILNS1_19ImplicitRegisterUseE2EJLNS1_11OperandTypeE3ELS4_10ELS4_7EEE24kSingleScaleOperandSizesE = linkonce_odr hidden constant [3 x i8] c"\02\01\01", comdat, align 1
@_ZN2v88internal11interpreter14BytecodeTraitsILNS1_19ImplicitRegisterUseE0EJLNS1_11OperandTypeE3ELS4_10ELS4_7ELS4_14EEE24kSingleScaleOperandSizesE = linkonce_odr hidden constant [4 x i8] c"\02\01\01\01", comdat, align 1
@_ZN2v88internal11interpreter14BytecodeTraitsILNS1_19ImplicitRegisterUseE2EJLNS1_11OperandTypeE4ELS4_10ELS4_7EEE24kSingleScaleOperandSizesE = linkonce_odr hidden constant [3 x i8] c"\01\01\01", comdat, align 1
@_ZN2v88internal11interpreter14BytecodeTraitsILNS1_19ImplicitRegisterUseE2EJLNS1_11OperandTypeE2ELS4_10ELS4_7EEE24kSingleScaleOperandSizesE = linkonce_odr hidden constant [3 x i8] c"\01\01\01", comdat, align 1
@_ZN2v88internal11interpreter14BytecodeTraitsILNS1_19ImplicitRegisterUseE3EJLNS1_11OperandTypeE9ELS4_10ELS4_7ELS4_5EEE24kSingleScaleOperandSizesE = linkonce_odr hidden constant [4 x i8] c"\01\01\01\01", comdat, align 1
@_ZN2v88internal11interpreter14BytecodeTraitsILNS1_19ImplicitRegisterUseE2EJLNS1_11OperandTypeE5ELS4_5ELS4_1EEE24kSingleScaleOperandSizesE = linkonce_odr hidden constant [3 x i8] c"\01\01\01", comdat, align 1
@_ZN2v88internal11interpreter14BytecodeTraitsILNS1_19ImplicitRegisterUseE2EJLNS1_11OperandTypeE9ELS4_1ELS4_5EEE24kSingleScaleOperandSizesE = linkonce_odr hidden constant [3 x i8] c"\01\01\01", comdat, align 1
@_ZN2v88internal11interpreter14BytecodeTraitsILNS1_19ImplicitRegisterUseE2EJLNS1_11OperandTypeE5ELS4_6EEE24kSingleScaleOperandSizesE = linkonce_odr hidden constant [2 x i8] c"\01\01", comdat, align 1
@_ZN2v88internal11interpreter14BytecodeTraitsILNS1_19ImplicitRegisterUseE0EJLNS1_11OperandTypeE6ELS4_8EEE24kSingleScaleOperandSizesE = linkonce_odr hidden constant [2 x i8] c"\01\01", comdat, align 1
@_ZN2v88internal11interpreter14BytecodeTraitsILNS1_19ImplicitRegisterUseE0EJLNS1_11OperandTypeE6EEE24kSingleScaleOperandSizesE = linkonce_odr hidden constant [1 x i8] c"\01", comdat, align 1
@_ZN2v88internal11interpreter14BytecodeTraitsILNS1_19ImplicitRegisterUseE0EJLNS1_11OperandTypeE5EEE24kSingleScaleOperandSizesE = linkonce_odr hidden constant [1 x i8] c"\01", comdat, align 1
@_ZN2v88internal11interpreter14BytecodeTraitsILNS1_19ImplicitRegisterUseE1EJLNS1_11OperandTypeE6EEE24kSingleScaleOperandSizesE = linkonce_odr hidden constant [1 x i8] c"\01", comdat, align 1
@_ZN2v88internal11interpreter14BytecodeTraitsILNS1_19ImplicitRegisterUseE1EJLNS1_11OperandTypeE5ELS4_6ELS4_8EEE24kSingleScaleOperandSizesE = linkonce_odr hidden constant [3 x i8] c"\01\01\01", comdat, align 1
@_ZN2v88internal11interpreter14BytecodeTraitsILNS1_19ImplicitRegisterUseE1EJLNS1_11OperandTypeE15ELS4_5EEE24kSingleScaleOperandSizesE = linkonce_odr hidden constant [2 x i8] c"\01\01", comdat, align 1
@_ZN2v88internal11interpreter14BytecodeTraitsILNS1_19ImplicitRegisterUseE2EJLNS1_11OperandTypeE9ELS4_9EEE24kSingleScaleOperandSizesE = linkonce_odr hidden constant [2 x i8] c"\01\01", comdat, align 1
@_ZN2v88internal11interpreter14BytecodeTraitsILNS1_19ImplicitRegisterUseE2EJLNS1_11OperandTypeE9ELS4_9ELS4_11ELS4_5EEE24kSingleScaleOperandSizesE = linkonce_odr hidden constant [4 x i8] c"\01\01\01\01", comdat, align 1
@_ZN2v88internal11interpreter14BytecodeTraitsILNS1_19ImplicitRegisterUseE1EJEE24kSingleScaleOperandSizesE = linkonce_odr hidden constant [1 x i8] zeroinitializer, comdat, align 1
@_ZN2v88internal11interpreter14BytecodeTraitsILNS1_19ImplicitRegisterUseE0EJLNS1_11OperandTypeE9ELS4_5ELS4_6EEE24kSingleScaleOperandSizesE = linkonce_odr hidden constant [3 x i8] c"\01\01\01", comdat, align 1
@_ZN2v88internal11interpreter14BytecodeTraitsILNS1_19ImplicitRegisterUseE1EJLNS1_11OperandTypeE9ELS4_10ELS4_7ELS4_6EEE24kSingleScaleOperandSizesE = linkonce_odr hidden constant [4 x i8] c"\01\01\01\01", comdat, align 1
@_ZN2v88internal11interpreter14BytecodeTraitsILNS1_19ImplicitRegisterUseE2EJLNS1_11OperandTypeE9ELS4_13ELS4_7EEE24kSingleScaleOperandSizesE = linkonce_odr hidden constant [3 x i8] c"\01\01\01", comdat, align 1
@_ZN2v88internal11interpreter14BytecodeTraitsILNS1_19ImplicitRegisterUseE5EJEE24kSingleScaleOperandSizesE = linkonce_odr hidden constant [1 x i8] zeroinitializer, comdat, align 1
@_ZN2v88internal11interpreter14BytecodeTraitsILNS1_19ImplicitRegisterUseE0EJEE24kDoubleScaleOperandSizesE = linkonce_odr hidden constant [1 x i8] zeroinitializer, comdat, align 1
@_ZN2v88internal11interpreter14BytecodeTraitsILNS1_19ImplicitRegisterUseE3EJEE24kDoubleScaleOperandSizesE = linkonce_odr hidden constant [1 x i8] zeroinitializer, comdat, align 1
@_ZN2v88internal11interpreter14BytecodeTraitsILNS1_19ImplicitRegisterUseE3EJLNS1_11OperandTypeE9EEE24kDoubleScaleOperandSizesE = linkonce_odr hidden constant [1 x i8] c"\02", comdat, align 1
@_ZN2v88internal11interpreter14BytecodeTraitsILNS1_19ImplicitRegisterUseE3EJLNS1_11OperandTypeE9ELS4_9EEE24kDoubleScaleOperandSizesE = linkonce_odr hidden constant [2 x i8] c"\02\02", comdat, align 1
@_ZN2v88internal11interpreter14BytecodeTraitsILNS1_19ImplicitRegisterUseE3EJLNS1_11OperandTypeE9ELS4_9ELS4_9EEE24kDoubleScaleOperandSizesE = linkonce_odr hidden constant [3 x i8] c"\02\02\02", comdat, align 1
@_ZN2v88internal11interpreter14BytecodeTraitsILNS1_19ImplicitRegisterUseE3EJLNS1_11OperandTypeE9ELS4_9ELS4_9ELS4_9EEE24kDoubleScaleOperandSizesE = linkonce_odr hidden constant [4 x i8] c"\02\02\02\02", comdat, align 1
@_ZN2v88internal11interpreter14BytecodeTraitsILNS1_19ImplicitRegisterUseE3EJLNS1_11OperandTypeE3ELS4_9ELS4_9EEE24kDoubleScaleOperandSizesE = linkonce_odr hidden constant [3 x i8] c"\02\02\02", comdat, align 1
@_ZN2v88internal11interpreter14BytecodeTraitsILNS1_19ImplicitRegisterUseE3EJLNS1_11OperandTypeE3ELS4_9ELS4_9ELS4_9EEE24kDoubleScaleOperandSizesE = linkonce_odr hidden constant [4 x i8] c"\02\02\02\02", comdat, align 1
@_ZN2v88internal11interpreter14BytecodeTraitsILNS1_19ImplicitRegisterUseE2EJLNS1_11OperandTypeE9EEE24kDoubleScaleOperandSizesE = linkonce_odr hidden constant [1 x i8] c"\02", comdat, align 1
@_ZN2v88internal11interpreter14BytecodeTraitsILNS1_19ImplicitRegisterUseE2EJEE24kDoubleScaleOperandSizesE = linkonce_odr hidden constant [1 x i8] zeroinitializer, comdat, align 1
@_ZN2v88internal11interpreter14BytecodeTraitsILNS1_19ImplicitRegisterUseE2EJLNS1_11OperandTypeE8EEE24kDoubleScaleOperandSizesE = linkonce_odr hidden constant [1 x i8] c"\02", comdat, align 1
@_ZN2v88internal11interpreter14BytecodeTraitsILNS1_19ImplicitRegisterUseE2EJLNS1_11OperandTypeE5EEE24kDoubleScaleOperandSizesE = linkonce_odr hidden constant [1 x i8] c"\02", comdat, align 1
@_ZN2v88internal11interpreter14BytecodeTraitsILNS1_19ImplicitRegisterUseE2EJLNS1_11OperandTypeE9ELS4_5ELS4_6EEE24kDoubleScaleOperandSizesE = linkonce_odr hidden constant [3 x i8] c"\02\02\02", comdat, align 1
@_ZN2v88internal11interpreter14BytecodeTraitsILNS1_19ImplicitRegisterUseE1EJLNS1_11OperandTypeE12EEE24kDoubleScaleOperandSizesE = linkonce_odr hidden constant [1 x i8] c"\02", comdat, align 1
@_ZN2v88internal11interpreter14BytecodeTraitsILNS1_19ImplicitRegisterUseE0EJLNS1_11OperandTypeE9ELS4_12EEE24kDoubleScaleOperandSizesE = linkonce_odr hidden constant [2 x i8] c"\02\02", comdat, align 1
@_ZN2v88internal11interpreter14BytecodeTraitsILNS1_19ImplicitRegisterUseE0EJLNS1_11OperandTypeE9EEE24kDoubleScaleOperandSizesE = linkonce_odr hidden constant [1 x i8] c"\02", comdat, align 1
@_ZN2v88internal11interpreter14BytecodeTraitsILNS1_19ImplicitRegisterUseE3EJLNS1_11OperandTypeE1EEE24kDoubleScaleOperandSizesE = linkonce_odr hidden constant [1 x i8] c"\01", comdat, align 1
@_ZN2v88internal11interpreter14BytecodeTraitsILNS1_19ImplicitRegisterUseE2EJLNS1_11OperandTypeE5ELS4_5EEE24kDoubleScaleOperandSizesE = linkonce_odr hidden constant [2 x i8] c"\02\02", comdat, align 1
@_ZN2v88internal11interpreter14BytecodeTraitsILNS1_19ImplicitRegisterUseE1EJLNS1_11OperandTypeE5ELS4_5EEE24kDoubleScaleOperandSizesE = linkonce_odr hidden constant [2 x i8] c"\02\02", comdat, align 1
@_ZN2v88internal11interpreter14BytecodeTraitsILNS1_19ImplicitRegisterUseE1EJLNS1_11OperandTypeE9ELS4_5ELS4_6EEE24kDoubleScaleOperandSizesE = linkonce_odr hidden constant [3 x i8] c"\02\02\02", comdat, align 1
@_ZN2v88internal11interpreter14BytecodeTraitsILNS1_19ImplicitRegisterUseE1EJLNS1_11OperandTypeE5EEE24kDoubleScaleOperandSizesE = linkonce_odr hidden constant [1 x i8] c"\02", comdat, align 1
@_ZN2v88internal11interpreter14BytecodeTraitsILNS1_19ImplicitRegisterUseE2EJLNS1_11OperandTypeE5ELS4_5ELS4_6EEE24kDoubleScaleOperandSizesE = linkonce_odr hidden constant [3 x i8] c"\02\02\02", comdat, align 1
@_ZN2v88internal11interpreter14BytecodeTraitsILNS1_19ImplicitRegisterUseE3EJLNS1_11OperandTypeE5ELS4_1EEE24kDoubleScaleOperandSizesE = linkonce_odr hidden constant [2 x i8] c"\02\01", comdat, align 1
@_ZN2v88internal11interpreter14BytecodeTraitsILNS1_19ImplicitRegisterUseE2EJLNS1_11OperandTypeE9ELS4_5ELS4_5EEE24kDoubleScaleOperandSizesE = linkonce_odr hidden constant [3 x i8] c"\02\02\02", comdat, align 1
@_ZN2v88internal11interpreter14BytecodeTraitsILNS1_19ImplicitRegisterUseE3EJLNS1_11OperandTypeE9ELS4_5ELS4_5EEE24kDoubleScaleOperandSizesE = linkonce_odr hidden constant [3 x i8] c"\02\02\02", comdat, align 1
@_ZN2v88internal11interpreter14BytecodeTraitsILNS1_19ImplicitRegisterUseE3EJLNS1_11OperandTypeE9ELS4_5EEE24kDoubleScaleOperandSizesE = linkonce_odr hidden constant [2 x i8] c"\02\02", comdat, align 1
@_ZN2v88internal11interpreter14BytecodeTraitsILNS1_19ImplicitRegisterUseE2EJLNS1_11OperandTypeE8ELS4_6EEE24kDoubleScaleOperandSizesE = linkonce_odr hidden constant [2 x i8] c"\02\02", comdat, align 1
@_ZN2v88internal11interpreter14BytecodeTraitsILNS1_19ImplicitRegisterUseE1EJLNS1_11OperandTypeE8ELS4_6EEE24kDoubleScaleOperandSizesE = linkonce_odr hidden constant [2 x i8] c"\02\02", comdat, align 1
@_ZN2v88internal11interpreter14BytecodeTraitsILNS1_19ImplicitRegisterUseE3EJLNS1_11OperandTypeE9ELS4_9ELS4_5EEE24kDoubleScaleOperandSizesE = linkonce_odr hidden constant [3 x i8] c"\02\02\02", comdat, align 1
@_ZN2v88internal11interpreter14BytecodeTraitsILNS1_19ImplicitRegisterUseE1EJLNS1_11OperandTypeE9ELS4_9ELS4_1ELS4_5EEE24kDoubleScaleOperandSizesE = linkonce_odr hidden constant [4 x i8] c"\02\02\01\02", comdat, align 1
@_ZN2v88internal11interpreter14BytecodeTraitsILNS1_19ImplicitRegisterUseE1EJLNS1_11OperandTypeE8EEE24kDoubleScaleOperandSizesE = linkonce_odr hidden constant [1 x i8] c"\02", comdat, align 1
@_ZN2v88internal11interpreter14BytecodeTraitsILNS1_19ImplicitRegisterUseE3EJLNS1_11OperandTypeE8ELS4_5EEE24kDoubleScaleOperandSizesE = linkonce_odr hidden constant [2 x i8] c"\02\02", comdat, align 1
@_ZN2v88internal11interpreter14BytecodeTraitsILNS1_19ImplicitRegisterUseE3EJLNS1_11OperandTypeE5EEE24kDoubleScaleOperandSizesE = linkonce_odr hidden constant [1 x i8] c"\02", comdat, align 1
@_ZN2v88internal11interpreter14BytecodeTraitsILNS1_19ImplicitRegisterUseE2EJLNS1_11OperandTypeE9ELS4_10ELS4_7ELS4_5EEE24kDoubleScaleOperandSizesE = linkonce_odr hidden constant [4 x i8] c"\02\02\02\02", comdat, align 1
@_ZN2v88internal11interpreter14BytecodeTraitsILNS1_19ImplicitRegisterUseE2EJLNS1_11OperandTypeE9ELS4_9ELS4_5EEE24kDoubleScaleOperandSizesE = linkonce_odr hidden constant [3 x i8] c"\02\02\02", comdat, align 1
@_ZN2v88internal11interpreter14BytecodeTraitsILNS1_19ImplicitRegisterUseE2EJLNS1_11OperandTypeE9ELS4_9ELS4_9ELS4_5EEE24kDoubleScaleOperandSizesE = linkonce_odr hidden constant [4 x i8] c"\02\02\02\02", comdat, align 1
@_ZN2v88internal11interpreter14BytecodeTraitsILNS1_19ImplicitRegisterUseE2EJLNS1_11OperandTypeE9ELS4_9ELS4_9ELS4_9ELS4_5EEE24kDoubleScaleOperandSizesE = linkonce_odr hidden constant [5 x i8] c"\02\02\02\02\02", comdat, align 1
@_ZN2v88internal11interpreter14BytecodeTraitsILNS1_19ImplicitRegisterUseE2EJLNS1_11OperandTypeE9ELS4_5EEE24kDoubleScaleOperandSizesE = linkonce_odr hidden constant [2 x i8] c"\02\02", comdat, align 1
@_ZN2v88internal11interpreter14BytecodeTraitsILNS1_19ImplicitRegisterUseE2EJLNS1_11OperandTypeE3ELS4_10ELS4_7EEE24kDoubleScaleOperandSizesE = linkonce_odr hidden constant [3 x i8] c"\02\02\02", comdat, align 1
@_ZN2v88internal11interpreter14BytecodeTraitsILNS1_19ImplicitRegisterUseE0EJLNS1_11OperandTypeE3ELS4_10ELS4_7ELS4_14EEE24kDoubleScaleOperandSizesE = linkonce_odr hidden constant [4 x i8] c"\02\02\02\02", comdat, align 1
@_ZN2v88internal11interpreter14BytecodeTraitsILNS1_19ImplicitRegisterUseE2EJLNS1_11OperandTypeE4ELS4_10ELS4_7EEE24kDoubleScaleOperandSizesE = linkonce_odr hidden constant [3 x i8] c"\01\02\02", comdat, align 1
@_ZN2v88internal11interpreter14BytecodeTraitsILNS1_19ImplicitRegisterUseE2EJLNS1_11OperandTypeE2ELS4_10ELS4_7EEE24kDoubleScaleOperandSizesE = linkonce_odr hidden constant [3 x i8] c"\01\02\02", comdat, align 1
@_ZN2v88internal11interpreter14BytecodeTraitsILNS1_19ImplicitRegisterUseE3EJLNS1_11OperandTypeE9ELS4_10ELS4_7ELS4_5EEE24kDoubleScaleOperandSizesE = linkonce_odr hidden constant [4 x i8] c"\02\02\02\02", comdat, align 1
@_ZN2v88internal11interpreter14BytecodeTraitsILNS1_19ImplicitRegisterUseE2EJLNS1_11OperandTypeE5ELS4_5ELS4_1EEE24kDoubleScaleOperandSizesE = linkonce_odr hidden constant [3 x i8] c"\02\02\01", comdat, align 1
@_ZN2v88internal11interpreter14BytecodeTraitsILNS1_19ImplicitRegisterUseE2EJLNS1_11OperandTypeE9ELS4_1ELS4_5EEE24kDoubleScaleOperandSizesE = linkonce_odr hidden constant [3 x i8] c"\02\01\02", comdat, align 1
@_ZN2v88internal11interpreter14BytecodeTraitsILNS1_19ImplicitRegisterUseE2EJLNS1_11OperandTypeE5ELS4_6EEE24kDoubleScaleOperandSizesE = linkonce_odr hidden constant [2 x i8] c"\02\02", comdat, align 1
@_ZN2v88internal11interpreter14BytecodeTraitsILNS1_19ImplicitRegisterUseE0EJLNS1_11OperandTypeE6ELS4_8EEE24kDoubleScaleOperandSizesE = linkonce_odr hidden constant [2 x i8] c"\02\02", comdat, align 1
@_ZN2v88internal11interpreter14BytecodeTraitsILNS1_19ImplicitRegisterUseE0EJLNS1_11OperandTypeE6EEE24kDoubleScaleOperandSizesE = linkonce_odr hidden constant [1 x i8] c"\02", comdat, align 1
@_ZN2v88internal11interpreter14BytecodeTraitsILNS1_19ImplicitRegisterUseE0EJLNS1_11OperandTypeE5EEE24kDoubleScaleOperandSizesE = linkonce_odr hidden constant [1 x i8] c"\02", comdat, align 1
@_ZN2v88internal11interpreter14BytecodeTraitsILNS1_19ImplicitRegisterUseE1EJLNS1_11OperandTypeE6EEE24kDoubleScaleOperandSizesE = linkonce_odr hidden constant [1 x i8] c"\02", comdat, align 1
@_ZN2v88internal11interpreter14BytecodeTraitsILNS1_19ImplicitRegisterUseE1EJLNS1_11OperandTypeE5ELS4_6ELS4_8EEE24kDoubleScaleOperandSizesE = linkonce_odr hidden constant [3 x i8] c"\02\02\02", comdat, align 1
@_ZN2v88internal11interpreter14BytecodeTraitsILNS1_19ImplicitRegisterUseE1EJLNS1_11OperandTypeE15ELS4_5EEE24kDoubleScaleOperandSizesE = linkonce_odr hidden constant [2 x i8] c"\02\02", comdat, align 1
@_ZN2v88internal11interpreter14BytecodeTraitsILNS1_19ImplicitRegisterUseE2EJLNS1_11OperandTypeE9ELS4_9EEE24kDoubleScaleOperandSizesE = linkonce_odr hidden constant [2 x i8] c"\02\02", comdat, align 1
@_ZN2v88internal11interpreter14BytecodeTraitsILNS1_19ImplicitRegisterUseE2EJLNS1_11OperandTypeE9ELS4_9ELS4_11ELS4_5EEE24kDoubleScaleOperandSizesE = linkonce_odr hidden constant [4 x i8] c"\02\02\02\02", comdat, align 1
@_ZN2v88internal11interpreter14BytecodeTraitsILNS1_19ImplicitRegisterUseE1EJEE24kDoubleScaleOperandSizesE = linkonce_odr hidden constant [1 x i8] zeroinitializer, comdat, align 1
@_ZN2v88internal11interpreter14BytecodeTraitsILNS1_19ImplicitRegisterUseE0EJLNS1_11OperandTypeE9ELS4_5ELS4_6EEE24kDoubleScaleOperandSizesE = linkonce_odr hidden constant [3 x i8] c"\02\02\02", comdat, align 1
@_ZN2v88internal11interpreter14BytecodeTraitsILNS1_19ImplicitRegisterUseE1EJLNS1_11OperandTypeE9ELS4_10ELS4_7ELS4_6EEE24kDoubleScaleOperandSizesE = linkonce_odr hidden constant [4 x i8] c"\02\02\02\02", comdat, align 1
@_ZN2v88internal11interpreter14BytecodeTraitsILNS1_19ImplicitRegisterUseE2EJLNS1_11OperandTypeE9ELS4_13ELS4_7EEE24kDoubleScaleOperandSizesE = linkonce_odr hidden constant [3 x i8] c"\02\02\02", comdat, align 1
@_ZN2v88internal11interpreter14BytecodeTraitsILNS1_19ImplicitRegisterUseE5EJEE24kDoubleScaleOperandSizesE = linkonce_odr hidden constant [1 x i8] zeroinitializer, comdat, align 1
@_ZN2v88internal11interpreter14BytecodeTraitsILNS1_19ImplicitRegisterUseE0EJEE27kQuadrupleScaleOperandSizesE = linkonce_odr hidden constant [1 x i8] zeroinitializer, comdat, align 1
@_ZN2v88internal11interpreter14BytecodeTraitsILNS1_19ImplicitRegisterUseE3EJEE27kQuadrupleScaleOperandSizesE = linkonce_odr hidden constant [1 x i8] zeroinitializer, comdat, align 1
@_ZN2v88internal11interpreter14BytecodeTraitsILNS1_19ImplicitRegisterUseE3EJLNS1_11OperandTypeE9EEE27kQuadrupleScaleOperandSizesE = linkonce_odr hidden constant [1 x i8] c"\04", comdat, align 1
@_ZN2v88internal11interpreter14BytecodeTraitsILNS1_19ImplicitRegisterUseE3EJLNS1_11OperandTypeE9ELS4_9EEE27kQuadrupleScaleOperandSizesE = linkonce_odr hidden constant [2 x i8] c"\04\04", comdat, align 1
@_ZN2v88internal11interpreter14BytecodeTraitsILNS1_19ImplicitRegisterUseE3EJLNS1_11OperandTypeE9ELS4_9ELS4_9EEE27kQuadrupleScaleOperandSizesE = linkonce_odr hidden constant [3 x i8] c"\04\04\04", comdat, align 1
@_ZN2v88internal11interpreter14BytecodeTraitsILNS1_19ImplicitRegisterUseE3EJLNS1_11OperandTypeE9ELS4_9ELS4_9ELS4_9EEE27kQuadrupleScaleOperandSizesE = linkonce_odr hidden constant [4 x i8] c"\04\04\04\04", comdat, align 1
@_ZN2v88internal11interpreter14BytecodeTraitsILNS1_19ImplicitRegisterUseE3EJLNS1_11OperandTypeE3ELS4_9ELS4_9EEE27kQuadrupleScaleOperandSizesE = linkonce_odr hidden constant [3 x i8] c"\02\04\04", comdat, align 1
@_ZN2v88internal11interpreter14BytecodeTraitsILNS1_19ImplicitRegisterUseE3EJLNS1_11OperandTypeE3ELS4_9ELS4_9ELS4_9EEE27kQuadrupleScaleOperandSizesE = linkonce_odr hidden constant [4 x i8] c"\02\04\04\04", comdat, align 1
@_ZN2v88internal11interpreter14BytecodeTraitsILNS1_19ImplicitRegisterUseE2EJLNS1_11OperandTypeE9EEE27kQuadrupleScaleOperandSizesE = linkonce_odr hidden constant [1 x i8] c"\04", comdat, align 1
@_ZN2v88internal11interpreter14BytecodeTraitsILNS1_19ImplicitRegisterUseE2EJEE27kQuadrupleScaleOperandSizesE = linkonce_odr hidden constant [1 x i8] zeroinitializer, comdat, align 1
@_ZN2v88internal11interpreter14BytecodeTraitsILNS1_19ImplicitRegisterUseE2EJLNS1_11OperandTypeE8EEE27kQuadrupleScaleOperandSizesE = linkonce_odr hidden constant [1 x i8] c"\04", comdat, align 1
@_ZN2v88internal11interpreter14BytecodeTraitsILNS1_19ImplicitRegisterUseE2EJLNS1_11OperandTypeE5EEE27kQuadrupleScaleOperandSizesE = linkonce_odr hidden constant [1 x i8] c"\04", comdat, align 1
@_ZN2v88internal11interpreter14BytecodeTraitsILNS1_19ImplicitRegisterUseE2EJLNS1_11OperandTypeE9ELS4_5ELS4_6EEE27kQuadrupleScaleOperandSizesE = linkonce_odr hidden constant [3 x i8] c"\04\04\04", comdat, align 1
@_ZN2v88internal11interpreter14BytecodeTraitsILNS1_19ImplicitRegisterUseE1EJLNS1_11OperandTypeE12EEE27kQuadrupleScaleOperandSizesE = linkonce_odr hidden constant [1 x i8] c"\04", comdat, align 1
@_ZN2v88internal11interpreter14BytecodeTraitsILNS1_19ImplicitRegisterUseE0EJLNS1_11OperandTypeE9ELS4_12EEE27kQuadrupleScaleOperandSizesE = linkonce_odr hidden constant [2 x i8] c"\04\04", comdat, align 1
@_ZN2v88internal11interpreter14BytecodeTraitsILNS1_19ImplicitRegisterUseE0EJLNS1_11OperandTypeE9EEE27kQuadrupleScaleOperandSizesE = linkonce_odr hidden constant [1 x i8] c"\04", comdat, align 1
@_ZN2v88internal11interpreter14BytecodeTraitsILNS1_19ImplicitRegisterUseE3EJLNS1_11OperandTypeE1EEE27kQuadrupleScaleOperandSizesE = linkonce_odr hidden constant [1 x i8] c"\01", comdat, align 1
@_ZN2v88internal11interpreter14BytecodeTraitsILNS1_19ImplicitRegisterUseE2EJLNS1_11OperandTypeE5ELS4_5EEE27kQuadrupleScaleOperandSizesE = linkonce_odr hidden constant [2 x i8] c"\04\04", comdat, align 1
@_ZN2v88internal11interpreter14BytecodeTraitsILNS1_19ImplicitRegisterUseE1EJLNS1_11OperandTypeE5ELS4_5EEE27kQuadrupleScaleOperandSizesE = linkonce_odr hidden constant [2 x i8] c"\04\04", comdat, align 1
@_ZN2v88internal11interpreter14BytecodeTraitsILNS1_19ImplicitRegisterUseE1EJLNS1_11OperandTypeE9ELS4_5ELS4_6EEE27kQuadrupleScaleOperandSizesE = linkonce_odr hidden constant [3 x i8] c"\04\04\04", comdat, align 1
@_ZN2v88internal11interpreter14BytecodeTraitsILNS1_19ImplicitRegisterUseE1EJLNS1_11OperandTypeE5EEE27kQuadrupleScaleOperandSizesE = linkonce_odr hidden constant [1 x i8] c"\04", comdat, align 1
@_ZN2v88internal11interpreter14BytecodeTraitsILNS1_19ImplicitRegisterUseE2EJLNS1_11OperandTypeE5ELS4_5ELS4_6EEE27kQuadrupleScaleOperandSizesE = linkonce_odr hidden constant [3 x i8] c"\04\04\04", comdat, align 1
@_ZN2v88internal11interpreter14BytecodeTraitsILNS1_19ImplicitRegisterUseE3EJLNS1_11OperandTypeE5ELS4_1EEE27kQuadrupleScaleOperandSizesE = linkonce_odr hidden constant [2 x i8] c"\04\01", comdat, align 1
@_ZN2v88internal11interpreter14BytecodeTraitsILNS1_19ImplicitRegisterUseE2EJLNS1_11OperandTypeE9ELS4_5ELS4_5EEE27kQuadrupleScaleOperandSizesE = linkonce_odr hidden constant [3 x i8] c"\04\04\04", comdat, align 1
@_ZN2v88internal11interpreter14BytecodeTraitsILNS1_19ImplicitRegisterUseE3EJLNS1_11OperandTypeE9ELS4_5ELS4_5EEE27kQuadrupleScaleOperandSizesE = linkonce_odr hidden constant [3 x i8] c"\04\04\04", comdat, align 1
@_ZN2v88internal11interpreter14BytecodeTraitsILNS1_19ImplicitRegisterUseE3EJLNS1_11OperandTypeE9ELS4_5EEE27kQuadrupleScaleOperandSizesE = linkonce_odr hidden constant [2 x i8] c"\04\04", comdat, align 1
@_ZN2v88internal11interpreter14BytecodeTraitsILNS1_19ImplicitRegisterUseE2EJLNS1_11OperandTypeE8ELS4_6EEE27kQuadrupleScaleOperandSizesE = linkonce_odr hidden constant [2 x i8] c"\04\04", comdat, align 1
@_ZN2v88internal11interpreter14BytecodeTraitsILNS1_19ImplicitRegisterUseE1EJLNS1_11OperandTypeE8ELS4_6EEE27kQuadrupleScaleOperandSizesE = linkonce_odr hidden constant [2 x i8] c"\04\04", comdat, align 1
@_ZN2v88internal11interpreter14BytecodeTraitsILNS1_19ImplicitRegisterUseE3EJLNS1_11OperandTypeE9ELS4_9ELS4_5EEE27kQuadrupleScaleOperandSizesE = linkonce_odr hidden constant [3 x i8] c"\04\04\04", comdat, align 1
@_ZN2v88internal11interpreter14BytecodeTraitsILNS1_19ImplicitRegisterUseE1EJLNS1_11OperandTypeE9ELS4_9ELS4_1ELS4_5EEE27kQuadrupleScaleOperandSizesE = linkonce_odr hidden constant [4 x i8] c"\04\04\01\04", comdat, align 1
@_ZN2v88internal11interpreter14BytecodeTraitsILNS1_19ImplicitRegisterUseE1EJLNS1_11OperandTypeE8EEE27kQuadrupleScaleOperandSizesE = linkonce_odr hidden constant [1 x i8] c"\04", comdat, align 1
@_ZN2v88internal11interpreter14BytecodeTraitsILNS1_19ImplicitRegisterUseE3EJLNS1_11OperandTypeE8ELS4_5EEE27kQuadrupleScaleOperandSizesE = linkonce_odr hidden constant [2 x i8] c"\04\04", comdat, align 1
@_ZN2v88internal11interpreter14BytecodeTraitsILNS1_19ImplicitRegisterUseE3EJLNS1_11OperandTypeE5EEE27kQuadrupleScaleOperandSizesE = linkonce_odr hidden constant [1 x i8] c"\04", comdat, align 1
@_ZN2v88internal11interpreter14BytecodeTraitsILNS1_19ImplicitRegisterUseE2EJLNS1_11OperandTypeE9ELS4_10ELS4_7ELS4_5EEE27kQuadrupleScaleOperandSizesE = linkonce_odr hidden constant [4 x i8] c"\04\04\04\04", comdat, align 1
@_ZN2v88internal11interpreter14BytecodeTraitsILNS1_19ImplicitRegisterUseE2EJLNS1_11OperandTypeE9ELS4_9ELS4_5EEE27kQuadrupleScaleOperandSizesE = linkonce_odr hidden constant [3 x i8] c"\04\04\04", comdat, align 1
@_ZN2v88internal11interpreter14BytecodeTraitsILNS1_19ImplicitRegisterUseE2EJLNS1_11OperandTypeE9ELS4_9ELS4_9ELS4_5EEE27kQuadrupleScaleOperandSizesE = linkonce_odr hidden constant [4 x i8] c"\04\04\04\04", comdat, align 1
@_ZN2v88internal11interpreter14BytecodeTraitsILNS1_19ImplicitRegisterUseE2EJLNS1_11OperandTypeE9ELS4_9ELS4_9ELS4_9ELS4_5EEE27kQuadrupleScaleOperandSizesE = linkonce_odr hidden constant [5 x i8] c"\04\04\04\04\04", comdat, align 1
@_ZN2v88internal11interpreter14BytecodeTraitsILNS1_19ImplicitRegisterUseE2EJLNS1_11OperandTypeE9ELS4_5EEE27kQuadrupleScaleOperandSizesE = linkonce_odr hidden constant [2 x i8] c"\04\04", comdat, align 1
@_ZN2v88internal11interpreter14BytecodeTraitsILNS1_19ImplicitRegisterUseE2EJLNS1_11OperandTypeE3ELS4_10ELS4_7EEE27kQuadrupleScaleOperandSizesE = linkonce_odr hidden constant [3 x i8] c"\02\04\04", comdat, align 1
@_ZN2v88internal11interpreter14BytecodeTraitsILNS1_19ImplicitRegisterUseE0EJLNS1_11OperandTypeE3ELS4_10ELS4_7ELS4_14EEE27kQuadrupleScaleOperandSizesE = linkonce_odr hidden constant [4 x i8] c"\02\04\04\04", comdat, align 1
@_ZN2v88internal11interpreter14BytecodeTraitsILNS1_19ImplicitRegisterUseE2EJLNS1_11OperandTypeE4ELS4_10ELS4_7EEE27kQuadrupleScaleOperandSizesE = linkonce_odr hidden constant [3 x i8] c"\01\04\04", comdat, align 1
@_ZN2v88internal11interpreter14BytecodeTraitsILNS1_19ImplicitRegisterUseE2EJLNS1_11OperandTypeE2ELS4_10ELS4_7EEE27kQuadrupleScaleOperandSizesE = linkonce_odr hidden constant [3 x i8] c"\01\04\04", comdat, align 1
@_ZN2v88internal11interpreter14BytecodeTraitsILNS1_19ImplicitRegisterUseE3EJLNS1_11OperandTypeE9ELS4_10ELS4_7ELS4_5EEE27kQuadrupleScaleOperandSizesE = linkonce_odr hidden constant [4 x i8] c"\04\04\04\04", comdat, align 1
@_ZN2v88internal11interpreter14BytecodeTraitsILNS1_19ImplicitRegisterUseE2EJLNS1_11OperandTypeE5ELS4_5ELS4_1EEE27kQuadrupleScaleOperandSizesE = linkonce_odr hidden constant [3 x i8] c"\04\04\01", comdat, align 1
@_ZN2v88internal11interpreter14BytecodeTraitsILNS1_19ImplicitRegisterUseE2EJLNS1_11OperandTypeE9ELS4_1ELS4_5EEE27kQuadrupleScaleOperandSizesE = linkonce_odr hidden constant [3 x i8] c"\04\01\04", comdat, align 1
@_ZN2v88internal11interpreter14BytecodeTraitsILNS1_19ImplicitRegisterUseE2EJLNS1_11OperandTypeE5ELS4_6EEE27kQuadrupleScaleOperandSizesE = linkonce_odr hidden constant [2 x i8] c"\04\04", comdat, align 1
@_ZN2v88internal11interpreter14BytecodeTraitsILNS1_19ImplicitRegisterUseE0EJLNS1_11OperandTypeE6ELS4_8EEE27kQuadrupleScaleOperandSizesE = linkonce_odr hidden constant [2 x i8] c"\04\04", comdat, align 1
@_ZN2v88internal11interpreter14BytecodeTraitsILNS1_19ImplicitRegisterUseE0EJLNS1_11OperandTypeE6EEE27kQuadrupleScaleOperandSizesE = linkonce_odr hidden constant [1 x i8] c"\04", comdat, align 1
@_ZN2v88internal11interpreter14BytecodeTraitsILNS1_19ImplicitRegisterUseE0EJLNS1_11OperandTypeE5EEE27kQuadrupleScaleOperandSizesE = linkonce_odr hidden constant [1 x i8] c"\04", comdat, align 1
@_ZN2v88internal11interpreter14BytecodeTraitsILNS1_19ImplicitRegisterUseE1EJLNS1_11OperandTypeE6EEE27kQuadrupleScaleOperandSizesE = linkonce_odr hidden constant [1 x i8] c"\04", comdat, align 1
@_ZN2v88internal11interpreter14BytecodeTraitsILNS1_19ImplicitRegisterUseE1EJLNS1_11OperandTypeE5ELS4_6ELS4_8EEE27kQuadrupleScaleOperandSizesE = linkonce_odr hidden constant [3 x i8] c"\04\04\04", comdat, align 1
@_ZN2v88internal11interpreter14BytecodeTraitsILNS1_19ImplicitRegisterUseE1EJLNS1_11OperandTypeE15ELS4_5EEE27kQuadrupleScaleOperandSizesE = linkonce_odr hidden constant [2 x i8] c"\04\04", comdat, align 1
@_ZN2v88internal11interpreter14BytecodeTraitsILNS1_19ImplicitRegisterUseE2EJLNS1_11OperandTypeE9ELS4_9EEE27kQuadrupleScaleOperandSizesE = linkonce_odr hidden constant [2 x i8] c"\04\04", comdat, align 1
@_ZN2v88internal11interpreter14BytecodeTraitsILNS1_19ImplicitRegisterUseE2EJLNS1_11OperandTypeE9ELS4_9ELS4_11ELS4_5EEE27kQuadrupleScaleOperandSizesE = linkonce_odr hidden constant [4 x i8] c"\04\04\04\04", comdat, align 1
@_ZN2v88internal11interpreter14BytecodeTraitsILNS1_19ImplicitRegisterUseE1EJEE27kQuadrupleScaleOperandSizesE = linkonce_odr hidden constant [1 x i8] zeroinitializer, comdat, align 1
@_ZN2v88internal11interpreter14BytecodeTraitsILNS1_19ImplicitRegisterUseE0EJLNS1_11OperandTypeE9ELS4_5ELS4_6EEE27kQuadrupleScaleOperandSizesE = linkonce_odr hidden constant [3 x i8] c"\04\04\04", comdat, align 1
@_ZN2v88internal11interpreter14BytecodeTraitsILNS1_19ImplicitRegisterUseE1EJLNS1_11OperandTypeE9ELS4_10ELS4_7ELS4_6EEE27kQuadrupleScaleOperandSizesE = linkonce_odr hidden constant [4 x i8] c"\04\04\04\04", comdat, align 1
@_ZN2v88internal11interpreter14BytecodeTraitsILNS1_19ImplicitRegisterUseE2EJLNS1_11OperandTypeE9ELS4_13ELS4_7EEE27kQuadrupleScaleOperandSizesE = linkonce_odr hidden constant [3 x i8] c"\04\04\04", comdat, align 1
@_ZN2v88internal11interpreter14BytecodeTraitsILNS1_19ImplicitRegisterUseE5EJEE27kQuadrupleScaleOperandSizesE = linkonce_odr hidden constant [1 x i8] zeroinitializer, comdat, align 1

; Function Attrs: nounwind ssp uwtable
define hidden i8* @_ZN2v88internal11interpreter9Bytecodes8ToStringENS1_8BytecodeE(i8 zeroext) local_unnamed_addr #0 align 2 {
  switch i8 %0, label %198 [
    i8 0, label %199
    i8 1, label %2
    i8 2, label %3
    i8 3, label %4
    i8 4, label %5
    i8 5, label %6
    i8 6, label %7
    i8 7, label %8
    i8 8, label %9
    i8 9, label %10
    i8 10, label %11
    i8 11, label %12
    i8 12, label %13
    i8 13, label %14
    i8 14, label %15
    i8 15, label %16
    i8 16, label %17
    i8 17, label %18
    i8 18, label %19
    i8 19, label %20
    i8 20, label %21
    i8 21, label %22
    i8 22, label %23
    i8 23, label %24
    i8 24, label %25
    i8 25, label %26
    i8 26, label %27
    i8 27, label %28
    i8 28, label %29
    i8 29, label %30
    i8 30, label %31
    i8 31, label %32
    i8 32, label %33
    i8 33, label %34
    i8 34, label %35
    i8 35, label %36
    i8 36, label %37
    i8 37, label %38
    i8 38, label %39
    i8 39, label %40
    i8 40, label %41
    i8 41, label %42
    i8 42, label %43
    i8 43, label %44
    i8 44, label %45
    i8 45, label %46
    i8 46, label %47
    i8 47, label %48
    i8 48, label %49
    i8 49, label %50
    i8 50, label %51
    i8 51, label %52
    i8 52, label %53
    i8 53, label %54
    i8 54, label %55
    i8 55, label %56
    i8 56, label %57
    i8 57, label %58
    i8 58, label %59
    i8 59, label %60
    i8 60, label %61
    i8 61, label %62
    i8 62, label %63
    i8 63, label %64
    i8 64, label %65
    i8 65, label %66
    i8 66, label %67
    i8 67, label %68
    i8 68, label %69
    i8 69, label %70
    i8 70, label %71
    i8 71, label %72
    i8 72, label %73
    i8 73, label %74
    i8 74, label %75
    i8 75, label %76
    i8 76, label %77
    i8 77, label %78
    i8 78, label %79
    i8 79, label %80
    i8 80, label %81
    i8 81, label %82
    i8 82, label %83
    i8 83, label %84
    i8 84, label %85
    i8 85, label %86
    i8 86, label %87
    i8 87, label %88
    i8 88, label %89
    i8 89, label %90
    i8 90, label %91
    i8 91, label %92
    i8 92, label %93
    i8 93, label %94
    i8 94, label %95
    i8 95, label %96
    i8 96, label %97
    i8 97, label %98
    i8 98, label %99
    i8 99, label %100
    i8 100, label %101
    i8 101, label %102
    i8 102, label %103
    i8 103, label %104
    i8 104, label %105
    i8 105, label %106
    i8 106, label %107
    i8 107, label %108
    i8 108, label %109
    i8 109, label %110
    i8 110, label %111
    i8 111, label %112
    i8 112, label %113
    i8 113, label %114
    i8 114, label %115
    i8 115, label %116
    i8 116, label %117
    i8 117, label %118
    i8 118, label %119
    i8 119, label %120
    i8 120, label %121
    i8 121, label %122
    i8 122, label %123
    i8 123, label %124
    i8 124, label %125
    i8 125, label %126
    i8 126, label %127
    i8 127, label %128
    i8 -128, label %129
    i8 -127, label %130
    i8 -126, label %131
    i8 -125, label %132
    i8 -124, label %133
    i8 -123, label %134
    i8 -122, label %135
    i8 -121, label %136
    i8 -120, label %137
    i8 -119, label %138
    i8 -118, label %139
    i8 -117, label %140
    i8 -116, label %141
    i8 -115, label %142
    i8 -114, label %143
    i8 -113, label %144
    i8 -112, label %145
    i8 -111, label %146
    i8 -110, label %147
    i8 -109, label %148
    i8 -108, label %149
    i8 -107, label %150
    i8 -106, label %151
    i8 -105, label %152
    i8 -104, label %153
    i8 -103, label %154
    i8 -102, label %155
    i8 -101, label %156
    i8 -100, label %157
    i8 -99, label %158
    i8 -98, label %159
    i8 -97, label %160
    i8 -96, label %161
    i8 -95, label %162
    i8 -94, label %163
    i8 -93, label %164
    i8 -92, label %165
    i8 -91, label %166
    i8 -90, label %167
    i8 -89, label %168
    i8 -88, label %169
    i8 -87, label %170
    i8 -86, label %171
    i8 -85, label %172
    i8 -84, label %173
    i8 -83, label %174
    i8 -82, label %175
    i8 -81, label %176
    i8 -80, label %177
    i8 -79, label %178
    i8 -78, label %179
    i8 -77, label %180
    i8 -76, label %181
    i8 -75, label %182
    i8 -74, label %183
    i8 -73, label %184
    i8 -72, label %185
    i8 -71, label %186
    i8 -70, label %187
    i8 -69, label %188
    i8 -68, label %189
    i8 -67, label %190
    i8 -66, label %191
    i8 -65, label %192
    i8 -64, label %193
    i8 -63, label %194
    i8 -62, label %195
    i8 -61, label %196
    i8 -60, label %197
  ]

2:                                                ; preds = %1
  br label %199

3:                                                ; preds = %1
  br label %199

4:                                                ; preds = %1
  br label %199

5:                                                ; preds = %1
  br label %199

6:                                                ; preds = %1
  br label %199

7:                                                ; preds = %1
  br label %199

8:                                                ; preds = %1
  br label %199

9:                                                ; preds = %1
  br label %199

10:                                               ; preds = %1
  br label %199

11:                                               ; preds = %1
  br label %199

12:                                               ; preds = %1
  br label %199

13:                                               ; preds = %1
  br label %199

14:                                               ; preds = %1
  br label %199

15:                                               ; preds = %1
  br label %199

16:                                               ; preds = %1
  br label %199

17:                                               ; preds = %1
  br label %199

18:                                               ; preds = %1
  br label %199

19:                                               ; preds = %1
  br label %199

20:                                               ; preds = %1
  br label %199

21:                                               ; preds = %1
  br label %199

22:                                               ; preds = %1
  br label %199

23:                                               ; preds = %1
  br label %199

24:                                               ; preds = %1
  br label %199

25:                                               ; preds = %1
  br label %199

26:                                               ; preds = %1
  br label %199

27:                                               ; preds = %1
  br label %199

28:                                               ; preds = %1
  br label %199

29:                                               ; preds = %1
  br label %199

30:                                               ; preds = %1
  br label %199

31:                                               ; preds = %1
  br label %199

32:                                               ; preds = %1
  br label %199

33:                                               ; preds = %1
  br label %199

34:                                               ; preds = %1
  br label %199

35:                                               ; preds = %1
  br label %199

36:                                               ; preds = %1
  br label %199

37:                                               ; preds = %1
  br label %199

38:                                               ; preds = %1
  br label %199

39:                                               ; preds = %1
  br label %199

40:                                               ; preds = %1
  br label %199

41:                                               ; preds = %1
  br label %199

42:                                               ; preds = %1
  br label %199

43:                                               ; preds = %1
  br label %199

44:                                               ; preds = %1
  br label %199

45:                                               ; preds = %1
  br label %199

46:                                               ; preds = %1
  br label %199

47:                                               ; preds = %1
  br label %199

48:                                               ; preds = %1
  br label %199

49:                                               ; preds = %1
  br label %199

50:                                               ; preds = %1
  br label %199

51:                                               ; preds = %1
  br label %199

52:                                               ; preds = %1
  br label %199

53:                                               ; preds = %1
  br label %199

54:                                               ; preds = %1
  br label %199

55:                                               ; preds = %1
  br label %199

56:                                               ; preds = %1
  br label %199

57:                                               ; preds = %1
  br label %199

58:                                               ; preds = %1
  br label %199

59:                                               ; preds = %1
  br label %199

60:                                               ; preds = %1
  br label %199

61:                                               ; preds = %1
  br label %199

62:                                               ; preds = %1
  br label %199

63:                                               ; preds = %1
  br label %199

64:                                               ; preds = %1
  br label %199

65:                                               ; preds = %1
  br label %199

66:                                               ; preds = %1
  br label %199

67:                                               ; preds = %1
  br label %199

68:                                               ; preds = %1
  br label %199

69:                                               ; preds = %1
  br label %199

70:                                               ; preds = %1
  br label %199

71:                                               ; preds = %1
  br label %199

72:                                               ; preds = %1
  br label %199

73:                                               ; preds = %1
  br label %199

74:                                               ; preds = %1
  br label %199

75:                                               ; preds = %1
  br label %199

76:                                               ; preds = %1
  br label %199

77:                                               ; preds = %1
  br label %199

78:                                               ; preds = %1
  br label %199

79:                                               ; preds = %1
  br label %199

80:                                               ; preds = %1
  br label %199

81:                                               ; preds = %1
  br label %199

82:                                               ; preds = %1
  br label %199

83:                                               ; preds = %1
  br label %199

84:                                               ; preds = %1
  br label %199

85:                                               ; preds = %1
  br label %199

86:                                               ; preds = %1
  br label %199

87:                                               ; preds = %1
  br label %199

88:                                               ; preds = %1
  br label %199

89:                                               ; preds = %1
  br label %199

90:                                               ; preds = %1
  br label %199

91:                                               ; preds = %1
  br label %199

92:                                               ; preds = %1
  br label %199

93:                                               ; preds = %1
  br label %199

94:                                               ; preds = %1
  br label %199

95:                                               ; preds = %1
  br label %199

96:                                               ; preds = %1
  br label %199

97:                                               ; preds = %1
  br label %199

98:                                               ; preds = %1
  br label %199

99:                                               ; preds = %1
  br label %199

100:                                              ; preds = %1
  br label %199

101:                                              ; preds = %1
  br label %199

102:                                              ; preds = %1
  br label %199

103:                                              ; preds = %1
  br label %199

104:                                              ; preds = %1
  br label %199

105:                                              ; preds = %1
  br label %199

106:                                              ; preds = %1
  br label %199

107:                                              ; preds = %1
  br label %199

108:                                              ; preds = %1
  br label %199

109:                                              ; preds = %1
  br label %199

110:                                              ; preds = %1
  br label %199

111:                                              ; preds = %1
  br label %199

112:                                              ; preds = %1
  br label %199

113:                                              ; preds = %1
  br label %199

114:                                              ; preds = %1
  br label %199

115:                                              ; preds = %1
  br label %199

116:                                              ; preds = %1
  br label %199

117:                                              ; preds = %1
  br label %199

118:                                              ; preds = %1
  br label %199

119:                                              ; preds = %1
  br label %199

120:                                              ; preds = %1
  br label %199

121:                                              ; preds = %1
  br label %199

122:                                              ; preds = %1
  br label %199

123:                                              ; preds = %1
  br label %199

124:                                              ; preds = %1
  br label %199

125:                                              ; preds = %1
  br label %199

126:                                              ; preds = %1
  br label %199

127:                                              ; preds = %1
  br label %199

128:                                              ; preds = %1
  br label %199

129:                                              ; preds = %1
  br label %199

130:                                              ; preds = %1
  br label %199

131:                                              ; preds = %1
  br label %199

132:                                              ; preds = %1
  br label %199

133:                                              ; preds = %1
  br label %199

134:                                              ; preds = %1
  br label %199

135:                                              ; preds = %1
  br label %199

136:                                              ; preds = %1
  br label %199

137:                                              ; preds = %1
  br label %199

138:                                              ; preds = %1
  br label %199

139:                                              ; preds = %1
  br label %199

140:                                              ; preds = %1
  br label %199

141:                                              ; preds = %1
  br label %199

142:                                              ; preds = %1
  br label %199

143:                                              ; preds = %1
  br label %199

144:                                              ; preds = %1
  br label %199

145:                                              ; preds = %1
  br label %199

146:                                              ; preds = %1
  br label %199

147:                                              ; preds = %1
  br label %199

148:                                              ; preds = %1
  br label %199

149:                                              ; preds = %1
  br label %199

150:                                              ; preds = %1
  br label %199

151:                                              ; preds = %1
  br label %199

152:                                              ; preds = %1
  br label %199

153:                                              ; preds = %1
  br label %199

154:                                              ; preds = %1
  br label %199

155:                                              ; preds = %1
  br label %199

156:                                              ; preds = %1
  br label %199

157:                                              ; preds = %1
  br label %199

158:                                              ; preds = %1
  br label %199

159:                                              ; preds = %1
  br label %199

160:                                              ; preds = %1
  br label %199

161:                                              ; preds = %1
  br label %199

162:                                              ; preds = %1
  br label %199

163:                                              ; preds = %1
  br label %199

164:                                              ; preds = %1
  br label %199

165:                                              ; preds = %1
  br label %199

166:                                              ; preds = %1
  br label %199

167:                                              ; preds = %1
  br label %199

168:                                              ; preds = %1
  br label %199

169:                                              ; preds = %1
  br label %199

170:                                              ; preds = %1
  br label %199

171:                                              ; preds = %1
  br label %199

172:                                              ; preds = %1
  br label %199

173:                                              ; preds = %1
  br label %199

174:                                              ; preds = %1
  br label %199

175:                                              ; preds = %1
  br label %199

176:                                              ; preds = %1
  br label %199

177:                                              ; preds = %1
  br label %199

178:                                              ; preds = %1
  br label %199

179:                                              ; preds = %1
  br label %199

180:                                              ; preds = %1
  br label %199

181:                                              ; preds = %1
  br label %199

182:                                              ; preds = %1
  br label %199

183:                                              ; preds = %1
  br label %199

184:                                              ; preds = %1
  br label %199

185:                                              ; preds = %1
  br label %199

186:                                              ; preds = %1
  br label %199

187:                                              ; preds = %1
  br label %199

188:                                              ; preds = %1
  br label %199

189:                                              ; preds = %1
  br label %199

190:                                              ; preds = %1
  br label %199

191:                                              ; preds = %1
  br label %199

192:                                              ; preds = %1
  br label %199

193:                                              ; preds = %1
  br label %199

194:                                              ; preds = %1
  br label %199

195:                                              ; preds = %1
  br label %199

196:                                              ; preds = %1
  br label %199

197:                                              ; preds = %1
  br label %199

198:                                              ; preds = %1
  tail call void (i8*, ...) @_Z8V8_FatalPKcz(i8* getelementptr inbounds ([17 x i8], [17 x i8]* @.str.197, i64 0, i64 0)) #10
  unreachable

199:                                              ; preds = %1, %197, %196, %195, %194, %193, %192, %191, %190, %189, %188, %187, %186, %185, %184, %183, %182, %181, %180, %179, %178, %177, %176, %175, %174, %173, %172, %171, %170, %169, %168, %167, %166, %165, %164, %163, %162, %161, %160, %159, %158, %157, %156, %155, %154, %153, %152, %151, %150, %149, %148, %147, %146, %145, %144, %143, %142, %141, %140, %139, %138, %137, %136, %135, %134, %133, %132, %131, %130, %129, %128, %127, %126, %125, %124, %123, %122, %121, %120, %119, %118, %117, %116, %115, %114, %113, %112, %111, %110, %109, %108, %107, %106, %105, %104, %103, %102, %101, %100, %99, %98, %97, %96, %95, %94, %93, %92, %91, %90, %89, %88, %87, %86, %85, %84, %83, %82, %81, %80, %79, %78, %77, %76, %75, %74, %73, %72, %71, %70, %69, %68, %67, %66, %65, %64, %63, %62, %61, %60, %59, %58, %57, %56, %55, %54, %53, %52, %51, %50, %49, %48, %47, %46, %45, %44, %43, %42, %41, %40, %39, %38, %37, %36, %35, %34, %33, %32, %31, %30, %29, %28, %27, %26, %25, %24, %23, %22, %21, %20, %19, %18, %17, %16, %15, %14, %13, %12, %11, %10, %9, %8, %7, %6, %5, %4, %3, %2
  %200 = phi i8* [ getelementptr inbounds ([8 x i8], [8 x i8]* @.str.196, i64 0, i64 0), %197 ], [ getelementptr inbounds ([6 x i8], [6 x i8]* @.str.195, i64 0, i64 0), %196 ], [ getelementptr inbounds ([6 x i8], [6 x i8]* @.str.194, i64 0, i64 0), %195 ], [ getelementptr inbounds ([6 x i8], [6 x i8]* @.str.193, i64 0, i64 0), %194 ], [ getelementptr inbounds ([6 x i8], [6 x i8]* @.str.192, i64 0, i64 0), %193 ], [ getelementptr inbounds ([6 x i8], [6 x i8]* @.str.191, i64 0, i64 0), %192 ], [ getelementptr inbounds ([6 x i8], [6 x i8]* @.str.190, i64 0, i64 0), %191 ], [ getelementptr inbounds ([6 x i8], [6 x i8]* @.str.189, i64 0, i64 0), %190 ], [ getelementptr inbounds ([6 x i8], [6 x i8]* @.str.188, i64 0, i64 0), %189 ], [ getelementptr inbounds ([6 x i8], [6 x i8]* @.str.187, i64 0, i64 0), %188 ], [ getelementptr inbounds ([6 x i8], [6 x i8]* @.str.186, i64 0, i64 0), %187 ], [ getelementptr inbounds ([7 x i8], [7 x i8]* @.str.185, i64 0, i64 0), %186 ], [ getelementptr inbounds ([7 x i8], [7 x i8]* @.str.184, i64 0, i64 0), %185 ], [ getelementptr inbounds ([7 x i8], [7 x i8]* @.str.183, i64 0, i64 0), %184 ], [ getelementptr inbounds ([7 x i8], [7 x i8]* @.str.182, i64 0, i64 0), %183 ], [ getelementptr inbounds ([7 x i8], [7 x i8]* @.str.181, i64 0, i64 0), %182 ], [ getelementptr inbounds ([7 x i8], [7 x i8]* @.str.180, i64 0, i64 0), %181 ], [ getelementptr inbounds ([6 x i8], [6 x i8]* @.str.179, i64 0, i64 0), %180 ], [ getelementptr inbounds ([16 x i8], [16 x i8]* @.str.178, i64 0, i64 0), %179 ], [ getelementptr inbounds ([9 x i8], [9 x i8]* @.str.177, i64 0, i64 0), %178 ], [ getelementptr inbounds ([12 x i8], [12 x i8]* @.str.176, i64 0, i64 0), %177 ], [ getelementptr inbounds ([16 x i8], [16 x i8]* @.str.175, i64 0, i64 0), %176 ], [ getelementptr inbounds ([17 x i8], [17 x i8]* @.str.174, i64 0, i64 0), %175 ], [ getelementptr inbounds ([23 x i8], [23 x i8]* @.str.173, i64 0, i64 0), %174 ], [ getelementptr inbounds ([27 x i8], [27 x i8]* @.str.172, i64 0, i64 0), %173 ], [ getelementptr inbounds ([33 x i8], [33 x i8]* @.str.171, i64 0, i64 0), %172 ], [ getelementptr inbounds ([26 x i8], [26 x i8]* @.str.170, i64 0, i64 0), %171 ], [ getelementptr inbounds ([26 x i8], [26 x i8]* @.str.169, i64 0, i64 0), %170 ], [ getelementptr inbounds ([7 x i8], [7 x i8]* @.str.168, i64 0, i64 0), %169 ], [ getelementptr inbounds ([8 x i8], [8 x i8]* @.str.167, i64 0, i64 0), %168 ], [ getelementptr inbounds ([6 x i8], [6 x i8]* @.str.166, i64 0, i64 0), %167 ], [ getelementptr inbounds ([18 x i8], [18 x i8]* @.str.165, i64 0, i64 0), %166 ], [ getelementptr inbounds ([10 x i8], [10 x i8]* @.str.164, i64 0, i64 0), %165 ], [ getelementptr inbounds ([10 x i8], [10 x i8]* @.str.163, i64 0, i64 0), %164 ], [ getelementptr inbounds ([14 x i8], [14 x i8]* @.str.162, i64 0, i64 0), %163 ], [ getelementptr inbounds ([13 x i8], [13 x i8]* @.str.161, i64 0, i64 0), %162 ], [ getelementptr inbounds ([15 x i8], [15 x i8]* @.str.160, i64 0, i64 0), %161 ], [ getelementptr inbounds ([22 x i8], [22 x i8]* @.str.159, i64 0, i64 0), %160 ], [ getelementptr inbounds ([17 x i8], [17 x i8]* @.str.158, i64 0, i64 0), %159 ], [ getelementptr inbounds ([22 x i8], [22 x i8]* @.str.157, i64 0, i64 0), %158 ], [ getelementptr inbounds ([19 x i8], [19 x i8]* @.str.156, i64 0, i64 0), %157 ], [ getelementptr inbounds ([16 x i8], [16 x i8]* @.str.155, i64 0, i64 0), %156 ], [ getelementptr inbounds ([14 x i8], [14 x i8]* @.str.154, i64 0, i64 0), %155 ], [ getelementptr inbounds ([11 x i8], [11 x i8]* @.str.153, i64 0, i64 0), %154 ], [ getelementptr inbounds ([12 x i8], [12 x i8]* @.str.152, i64 0, i64 0), %153 ], [ getelementptr inbounds ([11 x i8], [11 x i8]* @.str.151, i64 0, i64 0), %152 ], [ getelementptr inbounds ([21 x i8], [21 x i8]* @.str.150, i64 0, i64 0), %151 ], [ getelementptr inbounds ([20 x i8], [20 x i8]* @.str.149, i64 0, i64 0), %150 ], [ getelementptr inbounds ([29 x i8], [29 x i8]* @.str.148, i64 0, i64 0), %149 ], [ getelementptr inbounds ([28 x i8], [28 x i8]* @.str.147, i64 0, i64 0), %148 ], [ getelementptr inbounds ([25 x i8], [25 x i8]* @.str.146, i64 0, i64 0), %147 ], [ getelementptr inbounds ([20 x i8], [20 x i8]* @.str.145, i64 0, i64 0), %146 ], [ getelementptr inbounds ([19 x i8], [19 x i8]* @.str.144, i64 0, i64 0), %145 ], [ getelementptr inbounds ([30 x i8], [30 x i8]* @.str.143, i64 0, i64 0), %144 ], [ getelementptr inbounds ([27 x i8], [27 x i8]* @.str.142, i64 0, i64 0), %143 ], [ getelementptr inbounds ([24 x i8], [24 x i8]* @.str.141, i64 0, i64 0), %142 ], [ getelementptr inbounds ([22 x i8], [22 x i8]* @.str.140, i64 0, i64 0), %141 ], [ getelementptr inbounds ([19 x i8], [19 x i8]* @.str.139, i64 0, i64 0), %140 ], [ getelementptr inbounds ([13 x i8], [13 x i8]* @.str.138, i64 0, i64 0), %139 ], [ getelementptr inbounds ([5 x i8], [5 x i8]* @.str.137, i64 0, i64 0), %138 ], [ getelementptr inbounds ([9 x i8], [9 x i8]* @.str.136, i64 0, i64 0), %137 ], [ getelementptr inbounds ([20 x i8], [20 x i8]* @.str.135, i64 0, i64 0), %136 ], [ getelementptr inbounds ([24 x i8], [24 x i8]* @.str.134, i64 0, i64 0), %135 ], [ getelementptr inbounds ([22 x i8], [22 x i8]* @.str.133, i64 0, i64 0), %134 ], [ getelementptr inbounds ([18 x i8], [18 x i8]* @.str.132, i64 0, i64 0), %133 ], [ getelementptr inbounds ([18 x i8], [18 x i8]* @.str.131, i64 0, i64 0), %132 ], [ getelementptr inbounds ([22 x i8], [22 x i8]* @.str.130, i64 0, i64 0), %131 ], [ getelementptr inbounds ([19 x i8], [19 x i8]* @.str.129, i64 0, i64 0), %130 ], [ getelementptr inbounds ([19 x i8], [19 x i8]* @.str.128, i64 0, i64 0), %129 ], [ getelementptr inbounds ([14 x i8], [14 x i8]* @.str.127, i64 0, i64 0), %128 ], [ getelementptr inbounds ([18 x i8], [18 x i8]* @.str.126, i64 0, i64 0), %127 ], [ getelementptr inbounds ([12 x i8], [12 x i8]* @.str.125, i64 0, i64 0), %126 ], [ getelementptr inbounds ([25 x i8], [25 x i8]* @.str.124, i64 0, i64 0), %125 ], [ getelementptr inbounds ([20 x i8], [20 x i8]* @.str.123, i64 0, i64 0), %124 ], [ getelementptr inbounds ([24 x i8], [24 x i8]* @.str.122, i64 0, i64 0), %123 ], [ getelementptr inbounds ([24 x i8], [24 x i8]* @.str.121, i64 0, i64 0), %122 ], [ getelementptr inbounds ([19 x i8], [19 x i8]* @.str.120, i64 0, i64 0), %121 ], [ getelementptr inbounds ([20 x i8], [20 x i8]* @.str.119, i64 0, i64 0), %120 ], [ getelementptr inbounds ([9 x i8], [9 x i8]* @.str.118, i64 0, i64 0), %119 ], [ getelementptr inbounds ([9 x i8], [9 x i8]* @.str.117, i64 0, i64 0), %118 ], [ getelementptr inbounds ([10 x i8], [10 x i8]* @.str.116, i64 0, i64 0), %117 ], [ getelementptr inbounds ([9 x i8], [9 x i8]* @.str.115, i64 0, i64 0), %116 ], [ getelementptr inbounds ([7 x i8], [7 x i8]* @.str.114, i64 0, i64 0), %115 ], [ getelementptr inbounds ([7 x i8], [7 x i8]* @.str.113, i64 0, i64 0), %114 ], [ getelementptr inbounds ([15 x i8], [15 x i8]* @.str.112, i64 0, i64 0), %113 ], [ getelementptr inbounds ([23 x i8], [23 x i8]* @.str.111, i64 0, i64 0), %112 ], [ getelementptr inbounds ([20 x i8], [20 x i8]* @.str.110, i64 0, i64 0), %111 ], [ getelementptr inbounds ([16 x i8], [16 x i8]* @.str.109, i64 0, i64 0), %110 ], [ getelementptr inbounds ([13 x i8], [13 x i8]* @.str.108, i64 0, i64 0), %109 ], [ getelementptr inbounds ([16 x i8], [16 x i8]* @.str.107, i64 0, i64 0), %108 ], [ getelementptr inbounds ([10 x i8], [10 x i8]* @.str.106, i64 0, i64 0), %107 ], [ getelementptr inbounds ([20 x i8], [20 x i8]* @.str.105, i64 0, i64 0), %106 ], [ getelementptr inbounds ([10 x i8], [10 x i8]* @.str.104, i64 0, i64 0), %105 ], [ getelementptr inbounds ([16 x i8], [16 x i8]* @.str.103, i64 0, i64 0), %104 ], [ getelementptr inbounds ([14 x i8], [14 x i8]* @.str.102, i64 0, i64 0), %103 ], [ getelementptr inbounds ([19 x i8], [19 x i8]* @.str.101, i64 0, i64 0), %102 ], [ getelementptr inbounds ([12 x i8], [12 x i8]* @.str.100, i64 0, i64 0), %101 ], [ getelementptr inbounds ([15 x i8], [15 x i8]* @.str.99, i64 0, i64 0), %100 ], [ getelementptr inbounds ([23 x i8], [23 x i8]* @.str.98, i64 0, i64 0), %99 ], [ getelementptr inbounds ([23 x i8], [23 x i8]* @.str.97, i64 0, i64 0), %98 ], [ getelementptr inbounds ([23 x i8], [23 x i8]* @.str.96, i64 0, i64 0), %97 ], [ getelementptr inbounds ([22 x i8], [22 x i8]* @.str.95, i64 0, i64 0), %96 ], [ getelementptr inbounds ([14 x i8], [14 x i8]* @.str.94, i64 0, i64 0), %95 ], [ getelementptr inbounds ([14 x i8], [14 x i8]* @.str.93, i64 0, i64 0), %94 ], [ getelementptr inbounds ([14 x i8], [14 x i8]* @.str.92, i64 0, i64 0), %93 ], [ getelementptr inbounds ([13 x i8], [13 x i8]* @.str.91, i64 0, i64 0), %92 ], [ getelementptr inbounds ([16 x i8], [16 x i8]* @.str.90, i64 0, i64 0), %91 ], [ getelementptr inbounds ([20 x i8], [20 x i8]* @.str.89, i64 0, i64 0), %90 ], [ getelementptr inbounds ([21 x i8], [21 x i8]* @.str.88, i64 0, i64 0), %89 ], [ getelementptr inbounds ([21 x i8], [21 x i8]* @.str.87, i64 0, i64 0), %88 ], [ getelementptr inbounds ([7 x i8], [7 x i8]* @.str.86, i64 0, i64 0), %87 ], [ getelementptr inbounds ([11 x i8], [11 x i8]* @.str.85, i64 0, i64 0), %86 ], [ getelementptr inbounds ([20 x i8], [20 x i8]* @.str.84, i64 0, i64 0), %85 ], [ getelementptr inbounds ([11 x i8], [11 x i8]* @.str.83, i64 0, i64 0), %84 ], [ getelementptr inbounds ([7 x i8], [7 x i8]* @.str.82, i64 0, i64 0), %83 ], [ getelementptr inbounds ([4 x i8], [4 x i8]* @.str.81, i64 0, i64 0), %82 ], [ getelementptr inbounds ([4 x i8], [4 x i8]* @.str.80, i64 0, i64 0), %81 ], [ getelementptr inbounds ([21 x i8], [21 x i8]* @.str.79, i64 0, i64 0), %80 ], [ getelementptr inbounds ([14 x i8], [14 x i8]* @.str.78, i64 0, i64 0), %79 ], [ getelementptr inbounds ([13 x i8], [13 x i8]* @.str.77, i64 0, i64 0), %78 ], [ getelementptr inbounds ([14 x i8], [14 x i8]* @.str.76, i64 0, i64 0), %77 ], [ getelementptr inbounds ([14 x i8], [14 x i8]* @.str.75, i64 0, i64 0), %76 ], [ getelementptr inbounds ([13 x i8], [13 x i8]* @.str.74, i64 0, i64 0), %75 ], [ getelementptr inbounds ([7 x i8], [7 x i8]* @.str.73, i64 0, i64 0), %74 ], [ getelementptr inbounds ([7 x i8], [7 x i8]* @.str.72, i64 0, i64 0), %73 ], [ getelementptr inbounds ([7 x i8], [7 x i8]* @.str.71, i64 0, i64 0), %72 ], [ getelementptr inbounds ([7 x i8], [7 x i8]* @.str.70, i64 0, i64 0), %71 ], [ getelementptr inbounds ([7 x i8], [7 x i8]* @.str.69, i64 0, i64 0), %70 ], [ getelementptr inbounds ([7 x i8], [7 x i8]* @.str.68, i64 0, i64 0), %69 ], [ getelementptr inbounds ([18 x i8], [18 x i8]* @.str.67, i64 0, i64 0), %68 ], [ getelementptr inbounds ([11 x i8], [11 x i8]* @.str.66, i64 0, i64 0), %67 ], [ getelementptr inbounds ([10 x i8], [10 x i8]* @.str.65, i64 0, i64 0), %66 ], [ getelementptr inbounds ([11 x i8], [11 x i8]* @.str.64, i64 0, i64 0), %65 ], [ getelementptr inbounds ([11 x i8], [11 x i8]* @.str.63, i64 0, i64 0), %64 ], [ getelementptr inbounds ([10 x i8], [10 x i8]* @.str.62, i64 0, i64 0), %63 ], [ getelementptr inbounds ([4 x i8], [4 x i8]* @.str.61, i64 0, i64 0), %62 ], [ getelementptr inbounds ([4 x i8], [4 x i8]* @.str.60, i64 0, i64 0), %61 ], [ getelementptr inbounds ([4 x i8], [4 x i8]* @.str.59, i64 0, i64 0), %60 ], [ getelementptr inbounds ([4 x i8], [4 x i8]* @.str.58, i64 0, i64 0), %59 ], [ getelementptr inbounds ([4 x i8], [4 x i8]* @.str.57, i64 0, i64 0), %58 ], [ getelementptr inbounds ([4 x i8], [4 x i8]* @.str.56, i64 0, i64 0), %57 ], [ getelementptr inbounds ([19 x i8], [19 x i8]* @.str.55, i64 0, i64 0), %56 ], [ getelementptr inbounds ([25 x i8], [25 x i8]* @.str.54, i64 0, i64 0), %55 ], [ getelementptr inbounds ([18 x i8], [18 x i8]* @.str.53, i64 0, i64 0), %54 ], [ getelementptr inbounds ([17 x i8], [17 x i8]* @.str.52, i64 0, i64 0), %53 ], [ getelementptr inbounds ([20 x i8], [20 x i8]* @.str.51, i64 0, i64 0), %52 ], [ getelementptr inbounds ([17 x i8], [17 x i8]* @.str.50, i64 0, i64 0), %51 ], [ getelementptr inbounds ([18 x i8], [18 x i8]* @.str.49, i64 0, i64 0), %50 ], [ getelementptr inbounds ([18 x i8], [18 x i8]* @.str.48, i64 0, i64 0), %49 ], [ getelementptr inbounds ([17 x i8], [17 x i8]* @.str.47, i64 0, i64 0), %48 ], [ getelementptr inbounds ([26 x i8], [26 x i8]* @.str.46, i64 0, i64 0), %47 ], [ getelementptr inbounds ([17 x i8], [17 x i8]* @.str.45, i64 0, i64 0), %46 ], [ getelementptr inbounds ([14 x i8], [14 x i8]* @.str.44, i64 0, i64 0), %45 ], [ getelementptr inbounds ([32 x i8], [32 x i8]* @.str.43, i64 0, i64 0), %44 ], [ getelementptr inbounds ([33 x i8], [33 x i8]* @.str.42, i64 0, i64 0), %43 ], [ getelementptr inbounds ([26 x i8], [26 x i8]* @.str.41, i64 0, i64 0), %42 ], [ getelementptr inbounds ([20 x i8], [20 x i8]* @.str.40, i64 0, i64 0), %41 ], [ getelementptr inbounds ([21 x i8], [21 x i8]* @.str.39, i64 0, i64 0), %40 ], [ getelementptr inbounds ([14 x i8], [14 x i8]* @.str.38, i64 0, i64 0), %39 ], [ getelementptr inbounds ([22 x i8], [22 x i8]* @.str.37, i64 0, i64 0), %38 ], [ getelementptr inbounds ([15 x i8], [15 x i8]* @.str.36, i64 0, i64 0), %37 ], [ getelementptr inbounds ([10 x i8], [10 x i8]* @.str.35, i64 0, i64 0), %36 ], [ getelementptr inbounds ([22 x i8], [22 x i8]* @.str.34, i64 0, i64 0), %35 ], [ getelementptr inbounds ([10 x i8], [10 x i8]* @.str.33, i64 0, i64 0), %34 ], [ getelementptr inbounds ([11 x i8], [11 x i8]* @.str.32, i64 0, i64 0), %33 ], [ getelementptr inbounds ([14 x i8], [14 x i8]* @.str.31, i64 0, i64 0), %32 ], [ getelementptr inbounds ([9 x i8], [9 x i8]* @.str.30, i64 0, i64 0), %31 ], [ getelementptr inbounds ([17 x i8], [17 x i8]* @.str.29, i64 0, i64 0), %30 ], [ getelementptr inbounds ([19 x i8], [19 x i8]* @.str.28, i64 0, i64 0), %29 ], [ getelementptr inbounds ([11 x i8], [11 x i8]* @.str.27, i64 0, i64 0), %28 ], [ getelementptr inbounds ([12 x i8], [12 x i8]* @.str.26, i64 0, i64 0), %27 ], [ getelementptr inbounds ([4 x i8], [4 x i8]* @.str.25, i64 0, i64 0), %26 ], [ getelementptr inbounds ([5 x i8], [5 x i8]* @.str.24, i64 0, i64 0), %25 ], [ getelementptr inbounds ([31 x i8], [31 x i8]* @.str.23, i64 0, i64 0), %24 ], [ getelementptr inbounds ([22 x i8], [22 x i8]* @.str.22, i64 0, i64 0), %23 ], [ getelementptr inbounds ([24 x i8], [24 x i8]* @.str.21, i64 0, i64 0), %22 ], [ getelementptr inbounds ([15 x i8], [15 x i8]* @.str.20, i64 0, i64 0), %21 ], [ getelementptr inbounds ([12 x i8], [12 x i8]* @.str.19, i64 0, i64 0), %20 ], [ getelementptr inbounds ([9 x i8], [9 x i8]* @.str.18, i64 0, i64 0), %19 ], [ getelementptr inbounds ([8 x i8], [8 x i8]* @.str.17, i64 0, i64 0), %18 ], [ getelementptr inbounds ([11 x i8], [11 x i8]* @.str.16, i64 0, i64 0), %17 ], [ getelementptr inbounds ([8 x i8], [8 x i8]* @.str.15, i64 0, i64 0), %16 ], [ getelementptr inbounds ([13 x i8], [13 x i8]* @.str.14, i64 0, i64 0), %15 ], [ getelementptr inbounds ([7 x i8], [7 x i8]* @.str.13, i64 0, i64 0), %14 ], [ getelementptr inbounds ([8 x i8], [8 x i8]* @.str.12, i64 0, i64 0), %13 ], [ getelementptr inbounds ([5 x i8], [5 x i8]* @.str.11, i64 0, i64 0), %12 ], [ getelementptr inbounds ([12 x i8], [12 x i8]* @.str.10, i64 0, i64 0), %11 ], [ getelementptr inbounds ([12 x i8], [12 x i8]* @.str.9, i64 0, i64 0), %10 ], [ getelementptr inbounds ([12 x i8], [12 x i8]* @.str.8, i64 0, i64 0), %9 ], [ getelementptr inbounds ([12 x i8], [12 x i8]* @.str.7, i64 0, i64 0), %8 ], [ getelementptr inbounds ([12 x i8], [12 x i8]* @.str.6, i64 0, i64 0), %7 ], [ getelementptr inbounds ([12 x i8], [12 x i8]* @.str.5, i64 0, i64 0), %6 ], [ getelementptr inbounds ([12 x i8], [12 x i8]* @.str.4, i64 0, i64 0), %5 ], [ getelementptr inbounds ([20 x i8], [20 x i8]* @.str.3, i64 0, i64 0), %4 ], [ getelementptr inbounds ([15 x i8], [15 x i8]* @.str.2, i64 0, i64 0), %3 ], [ getelementptr inbounds ([10 x i8], [10 x i8]* @.str.1, i64 0, i64 0), %2 ], [ getelementptr inbounds ([5 x i8], [5 x i8]* @.str, i64 0, i64 0), %1 ]
  ret i8* %200
}

; Function Attrs: noreturn
declare void @_Z8V8_FatalPKcz(i8*, ...) local_unnamed_addr #1

; Function Attrs: nounwind ssp uwtable
define hidden void @_ZN2v88internal11interpreter9Bytecodes8ToStringENS1_8BytecodeENS1_12OperandScaleEPKc(%"class.std::__1::basic_string"* noalias sret, i8 zeroext, i8 zeroext, i8*) local_unnamed_addr #0 align 2 {
  %5 = alloca %"class.std::__1::basic_string", align 8
  %6 = alloca %"class.std::__1::basic_string", align 8
  %7 = bitcast %"class.std::__1::basic_string"* %5 to i8*
  call void @llvm.lifetime.start.p0i8(i64 24, i8* nonnull %7) #11
  %8 = tail call i8* @_ZN2v88internal11interpreter9Bytecodes8ToStringENS1_8BytecodeE(i8 zeroext %1)
  %9 = tail call i64 @strlen(i8* %8) #11
  %10 = icmp ugt i64 %9, -17
  br i1 %10, label %11, label %13

11:                                               ; preds = %4
  %12 = bitcast %"class.std::__1::basic_string"* %5 to %"class.std::__1::__basic_string_common"*
  call void @_ZNKSt3__121__basic_string_commonILb1EE20__throw_length_errorEv(%"class.std::__1::__basic_string_common"* nonnull %12) #10
  unreachable

13:                                               ; preds = %4
  %14 = icmp ult i64 %9, 23
  br i1 %14, label %23, label %15

15:                                               ; preds = %13
  %16 = add nuw i64 %9, 16
  %17 = and i64 %16, -16
  %18 = tail call i8* @_Znwm(i64 %17) #12
  %19 = getelementptr inbounds %"class.std::__1::basic_string", %"class.std::__1::basic_string"* %5, i64 0, i32 0, i32 0, i32 0, i32 0, i32 0, i32 0
  store i8* %18, i8** %19, align 8
  %20 = or i64 %17, -9223372036854775808
  %21 = getelementptr inbounds %"class.std::__1::basic_string", %"class.std::__1::basic_string"* %5, i64 0, i32 0, i32 0, i32 0, i32 0, i32 0, i32 2
  store i64 %20, i64* %21, align 8
  %22 = getelementptr inbounds %"class.std::__1::basic_string", %"class.std::__1::basic_string"* %5, i64 0, i32 0, i32 0, i32 0, i32 0, i32 0, i32 1
  store i64 %9, i64* %22, align 8
  br label %28

23:                                               ; preds = %13
  %24 = trunc i64 %9 to i8
  %25 = bitcast %"class.std::__1::basic_string"* %5 to %"struct.std::__1::basic_string<char, std::__1::char_traits<char>, std::__1::allocator<char> >::__short"*
  %26 = getelementptr inbounds %"struct.std::__1::basic_string<char, std::__1::char_traits<char>, std::__1::allocator<char> >::__short", %"struct.std::__1::basic_string<char, std::__1::char_traits<char>, std::__1::allocator<char> >::__short"* %25, i64 0, i32 1, i32 0
  store i8 %24, i8* %26, align 1
  %27 = icmp eq i64 %9, 0
  br i1 %27, label %30, label %28

28:                                               ; preds = %23, %15
  %29 = phi i8* [ %18, %15 ], [ %7, %23 ]
  call void @llvm.memcpy.p0i8.p0i8.i64(i8* nonnull align 1 %29, i8* align 1 %8, i64 %9, i1 false) #11
  br label %30

30:                                               ; preds = %23, %28
  %31 = phi i8* [ %7, %23 ], [ %29, %28 ]
  %32 = getelementptr inbounds i8, i8* %31, i64 %9
  store i8 0, i8* %32, align 1
  %33 = icmp ugt i8 %2, 1
  br i1 %33, label %34, label %97

34:                                               ; preds = %30
  switch i8 %2, label %36 [
    i8 4, label %37
    i8 2, label %35
  ]

35:                                               ; preds = %34
  br label %37

36:                                               ; preds = %34
  tail call void (i8*, ...) @_Z8V8_FatalPKcz(i8* getelementptr inbounds ([17 x i8], [17 x i8]* @.str.197, i64 0, i64 0)) #10
  unreachable

37:                                               ; preds = %34, %35
  %38 = phi i8 [ 0, %35 ], [ 1, %34 ]
  %39 = bitcast %"class.std::__1::basic_string"* %6 to i8*
  call void @llvm.lifetime.start.p0i8(i64 24, i8* nonnull %39) #11
  %40 = tail call i8* @_ZN2v88internal11interpreter9Bytecodes8ToStringENS1_8BytecodeE(i8 zeroext %38)
  %41 = tail call i64 @strlen(i8* %40) #11
  %42 = icmp ugt i64 %41, -17
  br i1 %42, label %43, label %45

43:                                               ; preds = %37
  %44 = bitcast %"class.std::__1::basic_string"* %6 to %"class.std::__1::__basic_string_common"*
  call void @_ZNKSt3__121__basic_string_commonILb1EE20__throw_length_errorEv(%"class.std::__1::__basic_string_common"* nonnull %44) #10
  unreachable

45:                                               ; preds = %37
  %46 = icmp ult i64 %41, 23
  br i1 %46, label %56, label %47

47:                                               ; preds = %45
  %48 = add nuw i64 %41, 16
  %49 = and i64 %48, -16
  %50 = tail call i8* @_Znwm(i64 %49) #12
  %51 = getelementptr inbounds %"class.std::__1::basic_string", %"class.std::__1::basic_string"* %6, i64 0, i32 0, i32 0, i32 0, i32 0, i32 0, i32 0
  store i8* %50, i8** %51, align 8
  %52 = or i64 %49, -9223372036854775808
  %53 = getelementptr inbounds %"class.std::__1::basic_string", %"class.std::__1::basic_string"* %6, i64 0, i32 0, i32 0, i32 0, i32 0, i32 0, i32 2
  store i64 %52, i64* %53, align 8
  %54 = getelementptr inbounds %"class.std::__1::basic_string", %"class.std::__1::basic_string"* %6, i64 0, i32 0, i32 0, i32 0, i32 0, i32 0, i32 1
  store i64 %41, i64* %54, align 8
  %55 = bitcast %"class.std::__1::basic_string"* %6 to %"struct.std::__1::basic_string<char, std::__1::char_traits<char>, std::__1::allocator<char> >::__short"*
  br label %61

56:                                               ; preds = %45
  %57 = trunc i64 %41 to i8
  %58 = bitcast %"class.std::__1::basic_string"* %6 to %"struct.std::__1::basic_string<char, std::__1::char_traits<char>, std::__1::allocator<char> >::__short"*
  %59 = getelementptr inbounds %"struct.std::__1::basic_string<char, std::__1::char_traits<char>, std::__1::allocator<char> >::__short", %"struct.std::__1::basic_string<char, std::__1::char_traits<char>, std::__1::allocator<char> >::__short"* %58, i64 0, i32 1, i32 0
  store i8 %57, i8* %59, align 1
  %60 = icmp eq i64 %41, 0
  br i1 %60, label %64, label %61

61:                                               ; preds = %56, %47
  %62 = phi %"struct.std::__1::basic_string<char, std::__1::char_traits<char>, std::__1::allocator<char> >::__short"* [ %58, %56 ], [ %55, %47 ]
  %63 = phi i8* [ %39, %56 ], [ %50, %47 ]
  call void @llvm.memcpy.p0i8.p0i8.i64(i8* nonnull align 1 %63, i8* align 1 %40, i64 %41, i1 false) #11
  br label %64

64:                                               ; preds = %56, %61
  %65 = phi %"struct.std::__1::basic_string<char, std::__1::char_traits<char>, std::__1::allocator<char> >::__short"* [ %58, %56 ], [ %62, %61 ]
  %66 = phi i8* [ %39, %56 ], [ %63, %61 ]
  %67 = getelementptr inbounds i8, i8* %66, i64 %41
  store i8 0, i8* %67, align 1
  %68 = call dereferenceable(24) %"class.std::__1::basic_string"* @_ZNSt3__112basic_stringIcNS_11char_traitsIcEENS_9allocatorIcEEE6appendEPKc(%"class.std::__1::basic_string"* nonnull %5, i8* %3) #11
  %69 = getelementptr inbounds %"struct.std::__1::basic_string<char, std::__1::char_traits<char>, std::__1::allocator<char> >::__short", %"struct.std::__1::basic_string<char, std::__1::char_traits<char>, std::__1::allocator<char> >::__short"* %65, i64 0, i32 1, i32 0
  %70 = load i8, i8* %69, align 1
  %71 = icmp slt i8 %70, 0
  %72 = getelementptr inbounds %"class.std::__1::basic_string", %"class.std::__1::basic_string"* %6, i64 0, i32 0, i32 0, i32 0, i32 0, i32 0, i32 0
  %73 = load i8*, i8** %72, align 8
  %74 = getelementptr inbounds %"class.std::__1::basic_string", %"class.std::__1::basic_string"* %6, i64 0, i32 0, i32 0, i32 0, i32 0, i32 0, i32 1
  %75 = load i64, i64* %74, align 8
  %76 = zext i8 %70 to i64
  %77 = select i1 %71, i8* %73, i8* %39
  %78 = select i1 %71, i64 %75, i64 %76
  %79 = call dereferenceable(24) %"class.std::__1::basic_string"* @_ZNSt3__112basic_stringIcNS_11char_traitsIcEENS_9allocatorIcEEE6appendEPKcm(%"class.std::__1::basic_string"* %68, i8* %77, i64 %78) #11
  %80 = bitcast %"class.std::__1::basic_string"* %79 to %"struct.std::__1::basic_string<char, std::__1::char_traits<char>, std::__1::allocator<char> >::__short"*
  %81 = getelementptr inbounds %"struct.std::__1::basic_string<char, std::__1::char_traits<char>, std::__1::allocator<char> >::__short", %"struct.std::__1::basic_string<char, std::__1::char_traits<char>, std::__1::allocator<char> >::__short"* %80, i64 0, i32 1, i32 0
  %82 = load i8, i8* %81, align 1
  %83 = icmp slt i8 %82, 0
  br i1 %83, label %87, label %84

84:                                               ; preds = %64
  %85 = bitcast %"class.std::__1::basic_string"* %0 to i8*
  %86 = bitcast %"class.std::__1::basic_string"* %79 to i8*
  call void @llvm.memcpy.p0i8.p0i8.i64(i8* align 8 %85, i8* align 8 %86, i64 24, i1 false) #11
  br label %92

87:                                               ; preds = %64
  %88 = getelementptr inbounds %"class.std::__1::basic_string", %"class.std::__1::basic_string"* %79, i64 0, i32 0, i32 0, i32 0, i32 0, i32 0, i32 0
  %89 = load i8*, i8** %88, align 8
  %90 = getelementptr inbounds %"class.std::__1::basic_string", %"class.std::__1::basic_string"* %79, i64 0, i32 0, i32 0, i32 0, i32 0, i32 0, i32 1
  %91 = load i64, i64* %90, align 8
  call void @_ZNSt3__112basic_stringIcNS_11char_traitsIcEENS_9allocatorIcEEE25__init_copy_ctor_externalEPKcm(%"class.std::__1::basic_string"* %0, i8* %89, i64 %91) #11
  br label %92

92:                                               ; preds = %84, %87
  %93 = load i8, i8* %69, align 1
  %94 = icmp slt i8 %93, 0
  br i1 %94, label %95, label %99

95:                                               ; preds = %92
  %96 = load i8*, i8** %72, align 8
  call void @_ZdlPv(i8* %96) #12
  br label %99

97:                                               ; preds = %30
  %98 = bitcast %"class.std::__1::basic_string"* %0 to i8*
  call void @llvm.memcpy.p0i8.p0i8.i64(i8* align 8 %98, i8* nonnull align 8 %7, i64 24, i1 false) #11
  call void @llvm.memset.p0i8.i64(i8* nonnull align 8 %7, i8 0, i64 24, i1 false) #11
  br label %107

99:                                               ; preds = %95, %92
  call void @llvm.lifetime.end.p0i8(i64 24, i8* nonnull %39) #11
  %100 = bitcast %"class.std::__1::basic_string"* %5 to %"struct.std::__1::basic_string<char, std::__1::char_traits<char>, std::__1::allocator<char> >::__short"*
  %101 = getelementptr inbounds %"struct.std::__1::basic_string<char, std::__1::char_traits<char>, std::__1::allocator<char> >::__short", %"struct.std::__1::basic_string<char, std::__1::char_traits<char>, std::__1::allocator<char> >::__short"* %100, i64 0, i32 1, i32 0
  %102 = load i8, i8* %101, align 1
  %103 = icmp slt i8 %102, 0
  br i1 %103, label %104, label %107

104:                                              ; preds = %99
  %105 = getelementptr inbounds %"class.std::__1::basic_string", %"class.std::__1::basic_string"* %5, i64 0, i32 0, i32 0, i32 0, i32 0, i32 0, i32 0
  %106 = load i8*, i8** %105, align 8
  call void @_ZdlPv(i8* %106) #12
  br label %107

107:                                              ; preds = %97, %99, %104
  call void @llvm.lifetime.end.p0i8(i64 24, i8* nonnull %7) #11
  ret void
}

; Function Attrs: argmemonly nounwind
declare void @llvm.lifetime.start.p0i8(i64 immarg, i8* nocapture) #2

declare dereferenceable(24) %"class.std::__1::basic_string"* @_ZNSt3__112basic_stringIcNS_11char_traitsIcEENS_9allocatorIcEEE6appendEPKc(%"class.std::__1::basic_string"*, i8*) local_unnamed_addr #3

; Function Attrs: argmemonly nounwind
declare void @llvm.lifetime.end.p0i8(i64 immarg, i8* nocapture) #2

; Function Attrs: nounwind ssp uwtable
define hidden zeroext i8 @_ZN2v88internal11interpreter9Bytecodes13GetDebugBreakENS1_8BytecodeE(i8 zeroext) local_unnamed_addr #0 align 2 {
  switch i8 %0, label %3 [
    i8 0, label %15
    i8 1, label %2
  ]

2:                                                ; preds = %1
  br label %15

3:                                                ; preds = %1
  %4 = zext i8 %0 to i64
  %5 = getelementptr inbounds [3 x [197 x i8]], [3 x [197 x i8]]* @_ZN2v88internal11interpreter9Bytecodes14kBytecodeSizesE, i64 0, i64 0, i64 %4
  %6 = load i8, i8* %5, align 1
  %7 = add i8 %6, -1
  %8 = icmp ult i8 %7, 6
  br i1 %8, label %10, label %9

9:                                                ; preds = %3
  tail call void (i8*, ...) @_Z8V8_FatalPKcz(i8* getelementptr inbounds ([17 x i8], [17 x i8]* @.str.197, i64 0, i64 0)) #10
  unreachable

10:                                               ; preds = %3
  %11 = zext i8 %7 to i48
  %12 = shl nuw nsw i48 %11, 3
  %13 = lshr i48 11029593851140, %12
  %14 = trunc i48 %13 to i8
  ret i8 %14

15:                                               ; preds = %1, %2
  %16 = phi i8 [ 3, %2 ], [ 2, %1 ]
  ret i8 %16
}

; Function Attrs: nounwind ssp uwtable
define hidden i32 @_ZN2v88internal11interpreter9Bytecodes16GetOperandOffsetENS1_8BytecodeEiNS1_12OperandScaleE(i8 zeroext, i32, i8 zeroext) local_unnamed_addr #0 align 2 {
  %4 = icmp sgt i32 %1, 0
  br i1 %4, label %5, label %14

5:                                                ; preds = %3
  %6 = zext i8 %0 to i64
  %7 = getelementptr inbounds [0 x i32], [0 x i32]* bitcast (<{ [180 x i32], [17 x i32] }>* @_ZN2v88internal11interpreter9Bytecodes13kOperandCountE to [0 x i32]*), i64 0, i64 %6
  %8 = load i32, i32* %7, align 4
  %9 = lshr i8 %2, 1
  %10 = zext i8 %9 to i64
  %11 = getelementptr inbounds [3 x [197 x i8*]], [3 x [197 x i8*]]* @_ZN2v88internal11interpreter9Bytecodes13kOperandSizesE, i64 0, i64 %10, i64 %6
  %12 = sext i32 %8 to i64
  %13 = zext i32 %1 to i64
  br label %16

14:                                               ; preds = %21, %3
  %15 = phi i32 [ 1, %3 ], [ %26, %21 ]
  ret i32 %15

16:                                               ; preds = %21, %5
  %17 = phi i64 [ 0, %5 ], [ %27, %21 ]
  %18 = phi i32 [ 1, %5 ], [ %26, %21 ]
  %19 = icmp slt i64 %17, %12
  br i1 %19, label %21, label %20, !prof !2

20:                                               ; preds = %16
  tail call void (i8*, ...) @_Z8V8_FatalPKcz(i8* getelementptr inbounds ([18 x i8], [18 x i8]* @.str.198, i64 0, i64 0), i8* getelementptr inbounds ([31 x i8], [31 x i8]* @.str.199, i64 0, i64 0)) #10
  unreachable

21:                                               ; preds = %16
  %22 = load i8*, i8** %11, align 8
  %23 = getelementptr inbounds i8, i8* %22, i64 %17
  %24 = load i8, i8* %23, align 1
  %25 = zext i8 %24 to i32
  %26 = add nuw nsw i32 %18, %25
  %27 = add nuw nsw i64 %17, 1
  %28 = icmp eq i64 %27, %13
  br i1 %28, label %14, label %16
}

; Function Attrs: nounwind ssp uwtable
define hidden zeroext i8 @_ZN2v88internal11interpreter9Bytecodes23GetJumpWithoutToBooleanENS1_8BytecodeE(i8 zeroext) local_unnamed_addr #0 align 2 {
  %2 = add i8 %0, 109
  %3 = icmp ult i8 %2, 4
  br i1 %3, label %5, label %4

4:                                                ; preds = %1
  tail call void (i8*, ...) @_Z8V8_FatalPKcz(i8* getelementptr inbounds ([17 x i8], [17 x i8]* @.str.197, i64 0, i64 0)) #10
  unreachable

5:                                                ; preds = %1
  %6 = zext i8 %2 to i32
  %7 = shl nuw nsw i32 %6, 3
  %8 = lshr i32 -1734897264, %7
  %9 = trunc i32 %8 to i8
  ret i8 %9
}

; Function Attrs: norecurse nounwind readnone ssp uwtable
define hidden zeroext i1 @_ZN2v88internal11interpreter9Bytecodes12IsDebugBreakENS1_8BytecodeE(i8 zeroext) local_unnamed_addr #4 align 2 {
  %2 = add i8 %0, -2
  %3 = icmp ult i8 %2, 9
  ret i1 %3
}

; Function Attrs: norecurse nounwind readnone ssp uwtable
define hidden zeroext i1 @_ZN2v88internal11interpreter9Bytecodes21IsRegisterOperandTypeENS1_11OperandTypeE(i8 zeroext) local_unnamed_addr #4 align 2 {
  %2 = add i8 %0, -9
  %3 = icmp ult i8 %2, 7
  ret i1 %3
}

; Function Attrs: norecurse nounwind readnone ssp uwtable
define hidden zeroext i1 @_ZN2v88internal11interpreter9Bytecodes25IsRegisterListOperandTypeENS1_11OperandTypeE(i8 zeroext) local_unnamed_addr #4 align 2 {
  switch i8 %0, label %2 [
    i8 10, label %3
    i8 13, label %3
  ]

2:                                                ; preds = %1
  br label %3

3:                                                ; preds = %1, %1, %2
  %4 = phi i1 [ false, %2 ], [ true, %1 ], [ true, %1 ]
  ret i1 %4
}

; Function Attrs: norecurse nounwind readnone ssp uwtable
define hidden zeroext i1 @_ZN2v88internal11interpreter9Bytecodes26MakesCallAlongCriticalPathENS1_8BytecodeE(i8 zeroext) local_unnamed_addr #4 align 2 {
  switch i8 %0, label %2 [
    i8 105, label %3
    i8 104, label %3
    i8 99, label %3
    i8 98, label %3
    i8 97, label %3
    i8 96, label %3
    i8 95, label %3
    i8 94, label %3
    i8 93, label %3
    i8 92, label %3
    i8 91, label %3
    i8 90, label %3
    i8 102, label %3
    i8 103, label %3
    i8 101, label %3
    i8 100, label %3
    i8 -124, label %3
    i8 -128, label %3
    i8 -127, label %3
    i8 119, label %3
    i8 -80, label %3
  ]

2:                                                ; preds = %1
  br label %3

3:                                                ; preds = %1, %1, %1, %1, %1, %1, %1, %1, %1, %1, %1, %1, %1, %1, %1, %1, %1, %1, %1, %1, %1, %2
  %4 = phi i1 [ false, %2 ], [ true, %1 ], [ true, %1 ], [ true, %1 ], [ true, %1 ], [ true, %1 ], [ true, %1 ], [ true, %1 ], [ true, %1 ], [ true, %1 ], [ true, %1 ], [ true, %1 ], [ true, %1 ], [ true, %1 ], [ true, %1 ], [ true, %1 ], [ true, %1 ], [ true, %1 ], [ true, %1 ], [ true, %1 ], [ true, %1 ], [ true, %1 ]
  ret i1 %4
}

; Function Attrs: norecurse nounwind readnone ssp uwtable
define hidden zeroext i1 @_ZN2v88internal11interpreter9Bytecodes26IsRegisterInputOperandTypeENS1_11OperandTypeE(i8 zeroext) local_unnamed_addr #4 align 2 {
  %2 = add i8 %0, -9
  %3 = icmp ult i8 %2, 3
  ret i1 %3
}

; Function Attrs: norecurse nounwind readnone ssp uwtable
define hidden zeroext i1 @_ZN2v88internal11interpreter9Bytecodes27IsRegisterOutputOperandTypeENS1_11OperandTypeE(i8 zeroext) local_unnamed_addr #4 align 2 {
  %2 = and i8 %0, -4
  %3 = icmp eq i8 %2, 12
  ret i1 %3
}

; Function Attrs: norecurse nounwind readnone ssp uwtable
define hidden zeroext i1 @_ZN2v88internal11interpreter9Bytecodes15IsStarLookaheadENS1_8BytecodeENS1_12OperandScaleE(i8 zeroext, i8 zeroext) local_unnamed_addr #4 align 2 {
  %3 = icmp eq i8 %1, 1
  br i1 %3, label %4, label %6

4:                                                ; preds = %2
  switch i8 %0, label %5 [
    i8 4, label %6
    i8 12, label %6
    i8 13, label %6
    i8 15, label %6
    i8 16, label %6
    i8 19, label %6
    i8 14, label %6
    i8 33, label %6
    i8 45, label %6
    i8 47, label %6
    i8 20, label %6
    i8 21, label %6
    i8 22, label %6
    i8 23, label %6
    i8 56, label %6
    i8 57, label %6
    i8 58, label %6
    i8 68, label %6
    i8 69, label %6
    i8 80, label %6
    i8 81, label %6
    i8 86, label %6
    i8 90, label %6
    i8 91, label %6
    i8 92, label %6
    i8 93, label %6
    i8 94, label %6
    i8 95, label %6
    i8 96, label %6
    i8 97, label %6
    i8 98, label %6
    i8 104, label %6
    i8 105, label %6
    i8 123, label %6
    i8 120, label %6
    i8 -87, label %6
    i8 126, label %6
  ]

5:                                                ; preds = %4
  br label %6

6:                                                ; preds = %2, %4, %4, %4, %4, %4, %4, %4, %4, %4, %4, %4, %4, %4, %4, %4, %4, %4, %4, %4, %4, %4, %4, %4, %4, %4, %4, %4, %4, %4, %4, %4, %4, %4, %4, %4, %4, %4, %5
  %7 = phi i1 [ false, %5 ], [ true, %4 ], [ true, %4 ], [ true, %4 ], [ true, %4 ], [ true, %4 ], [ true, %4 ], [ true, %4 ], [ true, %4 ], [ true, %4 ], [ true, %4 ], [ true, %4 ], [ true, %4 ], [ true, %4 ], [ true, %4 ], [ true, %4 ], [ true, %4 ], [ true, %4 ], [ true, %4 ], [ true, %4 ], [ true, %4 ], [ true, %4 ], [ true, %4 ], [ true, %4 ], [ true, %4 ], [ true, %4 ], [ true, %4 ], [ true, %4 ], [ true, %4 ], [ true, %4 ], [ true, %4 ], [ true, %4 ], [ true, %4 ], [ true, %4 ], [ true, %4 ], [ true, %4 ], [ true, %4 ], [ true, %4 ], [ false, %2 ]
  ret i1 %7
}

; Function Attrs: norecurse nounwind readonly ssp uwtable
define hidden zeroext i1 @_ZN2v88internal11interpreter9Bytecodes30IsBytecodeWithScalableOperandsENS1_8BytecodeE(i8 zeroext) local_unnamed_addr #5 align 2 {
  %2 = zext i8 %0 to i64
  %3 = getelementptr inbounds [0 x i32], [0 x i32]* bitcast (<{ [180 x i32], [17 x i32] }>* @_ZN2v88internal11interpreter9Bytecodes13kOperandCountE to [0 x i32]*), i64 0, i64 %2
  %4 = load i32, i32* %3, align 4
  %5 = icmp sgt i32 %4, 0
  br i1 %5, label %6, label %19

6:                                                ; preds = %1
  %7 = getelementptr inbounds [197 x i8*], [197 x i8*]* @_ZN2v88internal11interpreter9Bytecodes17kOperandTypeInfosE, i64 0, i64 %2
  %8 = load i8*, i8** %7, align 8
  %9 = sext i32 %4 to i64
  br label %12

10:                                               ; preds = %12
  %11 = icmp slt i64 %18, %9
  br i1 %11, label %12, label %19

12:                                               ; preds = %6, %10
  %13 = phi i64 [ 0, %6 ], [ %18, %10 ]
  %14 = getelementptr inbounds i8, i8* %8, i64 %13
  %15 = load i8, i8* %14, align 1
  %16 = add i8 %15, -1
  %17 = icmp ult i8 %16, 2
  %18 = add nuw nsw i64 %13, 1
  br i1 %17, label %19, label %10

19:                                               ; preds = %12, %10, %1
  %20 = phi i1 [ false, %1 ], [ false, %10 ], [ true, %12 ]
  ret i1 %20
}

; Function Attrs: nounwind ssp uwtable
define hidden zeroext i1 @_ZN2v88internal11interpreter9Bytecodes21IsUnsignedOperandTypeENS1_11OperandTypeE(i8 zeroext) local_unnamed_addr #0 align 2 {
  %2 = icmp ult i8 %0, 16
  br i1 %2, label %4, label %3

3:                                                ; preds = %1
  tail call void (i8*, ...) @_Z8V8_FatalPKcz(i8* getelementptr inbounds ([17 x i8], [17 x i8]* @.str.197, i64 0, i64 0)) #10
  unreachable

4:                                                ; preds = %1
  %5 = zext i8 %0 to i16
  %6 = lshr i16 254, %5
  %7 = and i16 %6, 1
  %8 = icmp ne i16 %7, 0
  ret i1 %8
}

; Function Attrs: norecurse nounwind readonly ssp uwtable
define hidden zeroext i1 @_ZN2v88internal11interpreter9Bytecodes18BytecodeHasHandlerENS1_8BytecodeENS1_12OperandScaleE(i8 zeroext, i8 zeroext) local_unnamed_addr #5 align 2 {
  %3 = icmp eq i8 %1, 1
  br i1 %3, label %4, label %9

4:                                                ; preds = %2
  %5 = add i8 %0, 76
  %6 = icmp ugt i8 %5, 15
  %7 = icmp eq i8 %0, -61
  %8 = or i1 %7, %6
  br i1 %8, label %27, label %9

9:                                                ; preds = %4, %2
  %10 = zext i8 %0 to i64
  %11 = getelementptr inbounds [0 x i32], [0 x i32]* bitcast (<{ [180 x i32], [17 x i32] }>* @_ZN2v88internal11interpreter9Bytecodes13kOperandCountE to [0 x i32]*), i64 0, i64 %10
  %12 = load i32, i32* %11, align 4
  %13 = icmp sgt i32 %12, 0
  br i1 %13, label %14, label %27

14:                                               ; preds = %9
  %15 = getelementptr inbounds [197 x i8*], [197 x i8*]* @_ZN2v88internal11interpreter9Bytecodes17kOperandTypeInfosE, i64 0, i64 %10
  %16 = load i8*, i8** %15, align 8
  %17 = sext i32 %12 to i64
  br label %20

18:                                               ; preds = %20
  %19 = icmp eq i64 %26, %17
  br i1 %19, label %27, label %20

20:                                               ; preds = %18, %14
  %21 = phi i64 [ 0, %14 ], [ %26, %18 ]
  %22 = getelementptr inbounds i8, i8* %16, i64 %21
  %23 = load i8, i8* %22, align 1
  %24 = add i8 %23, -1
  %25 = icmp ult i8 %24, 2
  %26 = add nuw nsw i64 %21, 1
  br i1 %25, label %27, label %18

27:                                               ; preds = %20, %18, %9, %4
  %28 = phi i1 [ true, %4 ], [ false, %9 ], [ true, %20 ], [ false, %18 ]
  ret i1 %28
}

; Function Attrs: nounwind ssp uwtable
define hidden dereferenceable(160) %"class.std::__1::basic_ostream"* @_ZN2v88internal11interpreterlsERNSt3__113basic_ostreamIcNS2_11char_traitsIcEEEERKNS1_8BytecodeE(%"class.std::__1::basic_ostream"* dereferenceable(160), i8* nocapture readonly dereferenceable(1)) local_unnamed_addr #0 {
  %3 = load i8, i8* %1, align 1
  %4 = tail call i8* @_ZN2v88internal11interpreter9Bytecodes8ToStringENS1_8BytecodeE(i8 zeroext %3)
  %5 = tail call i64 @strlen(i8* %4) #11
  %6 = tail call dereferenceable(160) %"class.std::__1::basic_ostream"* @_ZNSt3__124__put_character_sequenceIcNS_11char_traitsIcEEEERNS_13basic_ostreamIT_T0_EES7_PKS4_m(%"class.std::__1::basic_ostream"* dereferenceable(160) %0, i8* %4, i64 %5) #11
  ret %"class.std::__1::basic_ostream"* %6
}

; Function Attrs: nobuiltin nounwind
declare void @_ZdlPv(i8*) local_unnamed_addr #6

; Function Attrs: argmemonly nounwind
declare void @llvm.memcpy.p0i8.p0i8.i64(i8* nocapture writeonly, i8* nocapture readonly, i64, i1 immarg) #2

; Function Attrs: nounwind ssp uwtable
define linkonce_odr hidden dereferenceable(160) %"class.std::__1::basic_ostream"* @_ZNSt3__124__put_character_sequenceIcNS_11char_traitsIcEEEERNS_13basic_ostreamIT_T0_EES7_PKS4_m(%"class.std::__1::basic_ostream"* dereferenceable(160), i8*, i64) local_unnamed_addr #0 comdat {
  %4 = alloca %"class.std::__1::locale", align 8
  %5 = alloca %"class.std::__1::basic_ostream<char, std::__1::char_traits<char> >::sentry", align 8
  %6 = getelementptr inbounds %"class.std::__1::basic_ostream<char, std::__1::char_traits<char> >::sentry", %"class.std::__1::basic_ostream<char, std::__1::char_traits<char> >::sentry"* %5, i64 0, i32 0
  call void @llvm.lifetime.start.p0i8(i64 16, i8* nonnull %6) #11
  call void @_ZNSt3__113basic_ostreamIcNS_11char_traitsIcEEE6sentryC1ERS3_(%"class.std::__1::basic_ostream<char, std::__1::char_traits<char> >::sentry"* nonnull %5, %"class.std::__1::basic_ostream"* dereferenceable(160) %0) #11
  %7 = load i8, i8* %6, align 8, !range !3
  %8 = icmp eq i8 %7, 0
  br i1 %8, label %58, label %9

9:                                                ; preds = %3
  %10 = bitcast %"class.std::__1::basic_ostream"* %0 to i8**
  %11 = load i8*, i8** %10, align 8
  %12 = getelementptr i8, i8* %11, i64 -24
  %13 = bitcast i8* %12 to i64*
  %14 = load i64, i64* %13, align 8
  %15 = bitcast %"class.std::__1::basic_ostream"* %0 to i8*
  %16 = getelementptr inbounds i8, i8* %15, i64 %14
  %17 = getelementptr inbounds i8, i8* %16, i64 40
  %18 = bitcast i8* %17 to %"class.std::__1::basic_streambuf"**
  %19 = load %"class.std::__1::basic_streambuf"*, %"class.std::__1::basic_streambuf"** %18, align 8
  %20 = bitcast i8* %16 to %"class.std::__1::ios_base"*
  %21 = getelementptr inbounds i8, i8* %16, i64 8
  %22 = bitcast i8* %21 to i32*
  %23 = load i32, i32* %22, align 8
  %24 = and i32 %23, 176
  %25 = icmp eq i32 %24, 32
  %26 = getelementptr inbounds i8, i8* %1, i64 %2
  %27 = select i1 %25, i8* %26, i8* %1
  %28 = getelementptr inbounds i8, i8* %16, i64 144
  %29 = bitcast i8* %28 to i32*
  %30 = load i32, i32* %29, align 8
  %31 = icmp eq i32 %30, -1
  br i1 %31, label %32, label %42

32:                                               ; preds = %9
  %33 = bitcast %"class.std::__1::locale"* %4 to i8*
  call void @llvm.lifetime.start.p0i8(i64 8, i8* nonnull %33) #11
  call void @_ZNKSt3__18ios_base6getlocEv(%"class.std::__1::locale"* nonnull sret %4, %"class.std::__1::ios_base"* %20) #11
  %34 = call %"class.std::__1::locale::facet"* @_ZNKSt3__16locale9use_facetERNS0_2idE(%"class.std::__1::locale"* nonnull %4, %"class.std::__1::locale::id"* nonnull dereferenceable(16) @_ZNSt3__15ctypeIcE2idE) #11
  %35 = bitcast %"class.std::__1::locale::facet"* %34 to %"class.std::__1::ctype"*
  %36 = bitcast %"class.std::__1::locale::facet"* %34 to i8 (%"class.std::__1::ctype"*, i8)***
  %37 = load i8 (%"class.std::__1::ctype"*, i8)**, i8 (%"class.std::__1::ctype"*, i8)*** %36, align 8
  %38 = getelementptr inbounds i8 (%"class.std::__1::ctype"*, i8)*, i8 (%"class.std::__1::ctype"*, i8)** %37, i64 7
  %39 = load i8 (%"class.std::__1::ctype"*, i8)*, i8 (%"class.std::__1::ctype"*, i8)** %38, align 8
  %40 = call signext i8 %39(%"class.std::__1::ctype"* %35, i8 signext 32) #11
  call void @_ZNSt3__16localeD1Ev(%"class.std::__1::locale"* nonnull %4) #11
  call void @llvm.lifetime.end.p0i8(i64 8, i8* nonnull %33) #11
  %41 = sext i8 %40 to i32
  store i32 %41, i32* %29, align 8
  br label %42

42:                                               ; preds = %9, %32
  %43 = phi i32 [ %41, %32 ], [ %30, %9 ]
  %44 = trunc i32 %43 to i8
  %45 = call %"class.std::__1::basic_streambuf"* @_ZNSt3__116__pad_and_outputIcNS_11char_traitsIcEEEENS_19ostreambuf_iteratorIT_T0_EES6_PKS4_S8_S8_RNS_8ios_baseES4_(%"class.std::__1::basic_streambuf"* %19, i8* %1, i8* %27, i8* %26, %"class.std::__1::ios_base"* dereferenceable(136) %20, i8 signext %44)
  %46 = icmp eq %"class.std::__1::basic_streambuf"* %45, null
  br i1 %46, label %47, label %58

47:                                               ; preds = %42
  %48 = load i8*, i8** %10, align 8
  %49 = getelementptr i8, i8* %48, i64 -24
  %50 = bitcast i8* %49 to i64*
  %51 = load i64, i64* %50, align 8
  %52 = getelementptr inbounds i8, i8* %15, i64 %51
  %53 = bitcast i8* %52 to %"class.std::__1::ios_base"*
  %54 = getelementptr inbounds i8, i8* %52, i64 32
  %55 = bitcast i8* %54 to i32*
  %56 = load i32, i32* %55, align 8
  %57 = or i32 %56, 5
  call void @_ZNSt3__18ios_base5clearEj(%"class.std::__1::ios_base"* %53, i32 %57) #11
  br label %58

58:                                               ; preds = %3, %42, %47
  call void @_ZNSt3__113basic_ostreamIcNS_11char_traitsIcEEE6sentryD1Ev(%"class.std::__1::basic_ostream<char, std::__1::char_traits<char> >::sentry"* nonnull %5) #11
  call void @llvm.lifetime.end.p0i8(i64 16, i8* nonnull %6) #11
  ret %"class.std::__1::basic_ostream"* %0
}

declare void @_ZNSt3__113basic_ostreamIcNS_11char_traitsIcEEE6sentryC1ERS3_(%"class.std::__1::basic_ostream<char, std::__1::char_traits<char> >::sentry"*, %"class.std::__1::basic_ostream"* dereferenceable(160)) unnamed_addr #3

; Function Attrs: nounwind ssp uwtable
define linkonce_odr hidden %"class.std::__1::basic_streambuf"* @_ZNSt3__116__pad_and_outputIcNS_11char_traitsIcEEEENS_19ostreambuf_iteratorIT_T0_EES6_PKS4_S8_S8_RNS_8ios_baseES4_(%"class.std::__1::basic_streambuf"*, i8*, i8*, i8*, %"class.std::__1::ios_base"* dereferenceable(136), i8 signext) local_unnamed_addr #0 comdat {
  %7 = alloca %"class.std::__1::basic_string", align 8
  %8 = icmp eq %"class.std::__1::basic_streambuf"* %0, null
  br i1 %8, label %78, label %9

9:                                                ; preds = %6
  %10 = ptrtoint i8* %3 to i64
  %11 = ptrtoint i8* %1 to i64
  %12 = sub i64 %10, %11
  %13 = getelementptr inbounds %"class.std::__1::ios_base", %"class.std::__1::ios_base"* %4, i64 0, i32 3
  %14 = load i64, i64* %13, align 8
  %15 = icmp sgt i64 %14, %12
  %16 = sub nsw i64 %14, %12
  %17 = select i1 %15, i64 %16, i64 0
  %18 = ptrtoint i8* %2 to i64
  %19 = sub i64 %18, %11
  %20 = icmp sgt i64 %19, 0
  br i1 %20, label %21, label %28

21:                                               ; preds = %9
  %22 = bitcast %"class.std::__1::basic_streambuf"* %0 to i64 (%"class.std::__1::basic_streambuf"*, i8*, i64)***
  %23 = load i64 (%"class.std::__1::basic_streambuf"*, i8*, i64)**, i64 (%"class.std::__1::basic_streambuf"*, i8*, i64)*** %22, align 8
  %24 = getelementptr inbounds i64 (%"class.std::__1::basic_streambuf"*, i8*, i64)*, i64 (%"class.std::__1::basic_streambuf"*, i8*, i64)** %23, i64 12
  %25 = load i64 (%"class.std::__1::basic_streambuf"*, i8*, i64)*, i64 (%"class.std::__1::basic_streambuf"*, i8*, i64)** %24, align 8
  %26 = tail call i64 %25(%"class.std::__1::basic_streambuf"* nonnull %0, i8* %1, i64 %19) #11
  %27 = icmp eq i64 %26, %19
  br i1 %27, label %28, label %78

28:                                               ; preds = %21, %9
  %29 = icmp sgt i64 %17, 0
  br i1 %29, label %30, label %67

30:                                               ; preds = %28
  %31 = bitcast %"class.std::__1::basic_string"* %7 to i8*
  call void @llvm.lifetime.start.p0i8(i64 24, i8* nonnull %31) #11
  %32 = icmp ult i64 %17, 23
  br i1 %32, label %42, label %33

33:                                               ; preds = %30
  %34 = add nuw i64 %17, 16
  %35 = and i64 %34, -16
  %36 = tail call i8* @_Znwm(i64 %35) #12
  %37 = getelementptr inbounds %"class.std::__1::basic_string", %"class.std::__1::basic_string"* %7, i64 0, i32 0, i32 0, i32 0, i32 0, i32 0, i32 0
  store i8* %36, i8** %37, align 8
  %38 = or i64 %35, -9223372036854775808
  %39 = getelementptr inbounds %"class.std::__1::basic_string", %"class.std::__1::basic_string"* %7, i64 0, i32 0, i32 0, i32 0, i32 0, i32 0, i32 2
  store i64 %38, i64* %39, align 8
  %40 = getelementptr inbounds %"class.std::__1::basic_string", %"class.std::__1::basic_string"* %7, i64 0, i32 0, i32 0, i32 0, i32 0, i32 0, i32 1
  store i64 %17, i64* %40, align 8
  %41 = bitcast %"class.std::__1::basic_string"* %7 to %"struct.std::__1::basic_string<char, std::__1::char_traits<char>, std::__1::allocator<char> >::__short"*
  br label %46

42:                                               ; preds = %30
  %43 = trunc i64 %17 to i8
  %44 = bitcast %"class.std::__1::basic_string"* %7 to %"struct.std::__1::basic_string<char, std::__1::char_traits<char>, std::__1::allocator<char> >::__short"*
  %45 = getelementptr inbounds %"struct.std::__1::basic_string<char, std::__1::char_traits<char>, std::__1::allocator<char> >::__short", %"struct.std::__1::basic_string<char, std::__1::char_traits<char>, std::__1::allocator<char> >::__short"* %44, i64 0, i32 1, i32 0
  store i8 %43, i8* %45, align 1
  br label %46

46:                                               ; preds = %33, %42
  %47 = phi %"struct.std::__1::basic_string<char, std::__1::char_traits<char>, std::__1::allocator<char> >::__short"* [ %41, %33 ], [ %44, %42 ]
  %48 = phi i8* [ %36, %33 ], [ %31, %42 ]
  call void @llvm.memset.p0i8.i64(i8* nonnull align 1 %48, i8 %5, i64 %17, i1 false) #11
  %49 = getelementptr inbounds i8, i8* %48, i64 %17
  store i8 0, i8* %49, align 1
  %50 = getelementptr inbounds %"struct.std::__1::basic_string<char, std::__1::char_traits<char>, std::__1::allocator<char> >::__short", %"struct.std::__1::basic_string<char, std::__1::char_traits<char>, std::__1::allocator<char> >::__short"* %47, i64 0, i32 1, i32 0
  %51 = load i8, i8* %50, align 1
  %52 = icmp slt i8 %51, 0
  %53 = getelementptr inbounds %"class.std::__1::basic_string", %"class.std::__1::basic_string"* %7, i64 0, i32 0, i32 0, i32 0, i32 0, i32 0, i32 0
  %54 = load i8*, i8** %53, align 8
  %55 = select i1 %52, i8* %54, i8* %31
  %56 = bitcast %"class.std::__1::basic_streambuf"* %0 to i64 (%"class.std::__1::basic_streambuf"*, i8*, i64)***
  %57 = load i64 (%"class.std::__1::basic_streambuf"*, i8*, i64)**, i64 (%"class.std::__1::basic_streambuf"*, i8*, i64)*** %56, align 8
  %58 = getelementptr inbounds i64 (%"class.std::__1::basic_streambuf"*, i8*, i64)*, i64 (%"class.std::__1::basic_streambuf"*, i8*, i64)** %57, i64 12
  %59 = load i64 (%"class.std::__1::basic_streambuf"*, i8*, i64)*, i64 (%"class.std::__1::basic_streambuf"*, i8*, i64)** %58, align 8
  %60 = call i64 %59(%"class.std::__1::basic_streambuf"* nonnull %0, i8* %55, i64 %17) #11
  %61 = icmp eq i64 %60, %17
  %62 = load i8, i8* %50, align 1
  %63 = icmp slt i8 %62, 0
  br i1 %63, label %64, label %66

64:                                               ; preds = %46
  %65 = load i8*, i8** %53, align 8
  call void @_ZdlPv(i8* %65) #12
  br label %66

66:                                               ; preds = %46, %64
  call void @llvm.lifetime.end.p0i8(i64 24, i8* nonnull %31) #11
  br i1 %61, label %67, label %78

67:                                               ; preds = %66, %28
  %68 = sub i64 %10, %18
  %69 = icmp sgt i64 %68, 0
  br i1 %69, label %70, label %77

70:                                               ; preds = %67
  %71 = bitcast %"class.std::__1::basic_streambuf"* %0 to i64 (%"class.std::__1::basic_streambuf"*, i8*, i64)***
  %72 = load i64 (%"class.std::__1::basic_streambuf"*, i8*, i64)**, i64 (%"class.std::__1::basic_streambuf"*, i8*, i64)*** %71, align 8
  %73 = getelementptr inbounds i64 (%"class.std::__1::basic_streambuf"*, i8*, i64)*, i64 (%"class.std::__1::basic_streambuf"*, i8*, i64)** %72, i64 12
  %74 = load i64 (%"class.std::__1::basic_streambuf"*, i8*, i64)*, i64 (%"class.std::__1::basic_streambuf"*, i8*, i64)** %73, align 8
  %75 = call i64 %74(%"class.std::__1::basic_streambuf"* nonnull %0, i8* %2, i64 %68) #11
  %76 = icmp eq i64 %75, %68
  br i1 %76, label %77, label %78

77:                                               ; preds = %70, %67
  store i64 0, i64* %13, align 8
  br label %78

78:                                               ; preds = %77, %66, %21, %70, %6
  %79 = phi %"class.std::__1::basic_streambuf"* [ null, %6 ], [ %0, %77 ], [ null, %66 ], [ null, %21 ], [ null, %70 ]
  ret %"class.std::__1::basic_streambuf"* %79
}

; Function Attrs: nounwind
declare void @_ZNSt3__113basic_ostreamIcNS_11char_traitsIcEEE6sentryD1Ev(%"class.std::__1::basic_ostream<char, std::__1::char_traits<char> >::sentry"*) unnamed_addr #7

; Function Attrs: noreturn
declare void @_ZNKSt3__121__basic_string_commonILb1EE20__throw_length_errorEv(%"class.std::__1::__basic_string_common"*) local_unnamed_addr #1

; Function Attrs: nobuiltin nofree
declare noalias nonnull i8* @_Znwm(i64) local_unnamed_addr #8

; Function Attrs: argmemonly nounwind
declare void @llvm.memset.p0i8.i64(i8* nocapture writeonly, i8, i64, i1 immarg) #2

declare void @_ZNKSt3__18ios_base6getlocEv(%"class.std::__1::locale"* sret, %"class.std::__1::ios_base"*) local_unnamed_addr #3

; Function Attrs: nounwind
declare void @_ZNSt3__16localeD1Ev(%"class.std::__1::locale"*) unnamed_addr #7

declare %"class.std::__1::locale::facet"* @_ZNKSt3__16locale9use_facetERNS0_2idE(%"class.std::__1::locale"*, %"class.std::__1::locale::id"* dereferenceable(16)) local_unnamed_addr #3

declare void @_ZNSt3__18ios_base5clearEj(%"class.std::__1::ios_base"*, i32) local_unnamed_addr #3

; Function Attrs: argmemonly nofree nounwind readonly
declare i64 @strlen(i8* nocapture) local_unnamed_addr #9

declare dereferenceable(24) %"class.std::__1::basic_string"* @_ZNSt3__112basic_stringIcNS_11char_traitsIcEENS_9allocatorIcEEE6appendEPKcm(%"class.std::__1::basic_string"*, i8*, i64) local_unnamed_addr #3

declare void @_ZNSt3__112basic_stringIcNS_11char_traitsIcEENS_9allocatorIcEEE25__init_copy_ctor_externalEPKcm(%"class.std::__1::basic_string"*, i8*, i64) local_unnamed_addr #3

attributes #0 = { nounwind ssp uwtable "correctly-rounded-divide-sqrt-fp-math"="false" "disable-tail-calls"="false" "less-precise-fpmad"="false" "min-legal-vector-width"="0" "no-frame-pointer-elim"="false" "no-frame-pointer-elim-non-leaf" "no-infs-fp-math"="false" "no-jump-tables"="false" "no-nans-fp-math"="false" "no-signed-zeros-fp-math"="false" "no-trapping-math"="false" "null-pointer-is-valid"="true" "stack-protector-buffer-size"="4" "target-cpu"="x86-64" "target-features"="+cx8,+fxsr,+mmx,+sse,+sse2,+sse3,+x87" "unsafe-fp-math"="false" "use-soft-float"="false" }
attributes #1 = { noreturn "correctly-rounded-divide-sqrt-fp-math"="false" "disable-tail-calls"="false" "less-precise-fpmad"="false" "no-frame-pointer-elim"="false" "no-frame-pointer-elim-non-leaf" "no-infs-fp-math"="false" "no-nans-fp-math"="false" "no-signed-zeros-fp-math"="false" "no-trapping-math"="false" "null-pointer-is-valid"="true" "stack-protector-buffer-size"="4" "target-cpu"="x86-64" "target-features"="+cx8,+fxsr,+mmx,+sse,+sse2,+sse3,+x87" "unsafe-fp-math"="false" "use-soft-float"="false" }
attributes #2 = { argmemonly nounwind }
attributes #3 = { "correctly-rounded-divide-sqrt-fp-math"="false" "disable-tail-calls"="false" "less-precise-fpmad"="false" "no-frame-pointer-elim"="false" "no-frame-pointer-elim-non-leaf" "no-infs-fp-math"="false" "no-nans-fp-math"="false" "no-signed-zeros-fp-math"="false" "no-trapping-math"="false" "null-pointer-is-valid"="true" "stack-protector-buffer-size"="4" "target-cpu"="x86-64" "target-features"="+cx8,+fxsr,+mmx,+sse,+sse2,+sse3,+x87" "unsafe-fp-math"="false" "use-soft-float"="false" }
attributes #4 = { norecurse nounwind readnone ssp uwtable "correctly-rounded-divide-sqrt-fp-math"="false" "disable-tail-calls"="false" "less-precise-fpmad"="false" "min-legal-vector-width"="0" "no-frame-pointer-elim"="false" "no-frame-pointer-elim-non-leaf" "no-infs-fp-math"="false" "no-jump-tables"="false" "no-nans-fp-math"="false" "no-signed-zeros-fp-math"="false" "no-trapping-math"="false" "null-pointer-is-valid"="true" "stack-protector-buffer-size"="4" "target-cpu"="x86-64" "target-features"="+cx8,+fxsr,+mmx,+sse,+sse2,+sse3,+x87" "unsafe-fp-math"="false" "use-soft-float"="false" }
attributes #5 = { norecurse nounwind readonly ssp uwtable "correctly-rounded-divide-sqrt-fp-math"="false" "disable-tail-calls"="false" "less-precise-fpmad"="false" "min-legal-vector-width"="0" "no-frame-pointer-elim"="false" "no-frame-pointer-elim-non-leaf" "no-infs-fp-math"="false" "no-jump-tables"="false" "no-nans-fp-math"="false" "no-signed-zeros-fp-math"="false" "no-trapping-math"="false" "null-pointer-is-valid"="true" "stack-protector-buffer-size"="4" "target-cpu"="x86-64" "target-features"="+cx8,+fxsr,+mmx,+sse,+sse2,+sse3,+x87" "unsafe-fp-math"="false" "use-soft-float"="false" }
attributes #6 = { nobuiltin nounwind "correctly-rounded-divide-sqrt-fp-math"="false" "disable-tail-calls"="false" "less-precise-fpmad"="false" "no-frame-pointer-elim"="false" "no-frame-pointer-elim-non-leaf" "no-infs-fp-math"="false" "no-nans-fp-math"="false" "no-signed-zeros-fp-math"="false" "no-trapping-math"="false" "null-pointer-is-valid"="true" "stack-protector-buffer-size"="4" "target-cpu"="x86-64" "target-features"="+cx8,+fxsr,+mmx,+sse,+sse2,+sse3,+x87" "unsafe-fp-math"="false" "use-soft-float"="false" }
attributes #7 = { nounwind "correctly-rounded-divide-sqrt-fp-math"="false" "disable-tail-calls"="false" "less-precise-fpmad"="false" "no-frame-pointer-elim"="false" "no-frame-pointer-elim-non-leaf" "no-infs-fp-math"="false" "no-nans-fp-math"="false" "no-signed-zeros-fp-math"="false" "no-trapping-math"="false" "null-pointer-is-valid"="true" "stack-protector-buffer-size"="4" "target-cpu"="x86-64" "target-features"="+cx8,+fxsr,+mmx,+sse,+sse2,+sse3,+x87" "unsafe-fp-math"="false" "use-soft-float"="false" }
attributes #8 = { nobuiltin nofree "correctly-rounded-divide-sqrt-fp-math"="false" "disable-tail-calls"="false" "less-precise-fpmad"="false" "no-frame-pointer-elim"="false" "no-frame-pointer-elim-non-leaf" "no-infs-fp-math"="false" "no-nans-fp-math"="false" "no-signed-zeros-fp-math"="false" "no-trapping-math"="false" "null-pointer-is-valid"="true" "stack-protector-buffer-size"="4" "target-cpu"="x86-64" "target-features"="+cx8,+fxsr,+mmx,+sse,+sse2,+sse3,+x87" "unsafe-fp-math"="false" "use-soft-float"="false" }
attributes #9 = { argmemonly nofree nounwind readonly "correctly-rounded-divide-sqrt-fp-math"="false" "disable-tail-calls"="false" "less-precise-fpmad"="false" "no-frame-pointer-elim"="false" "no-frame-pointer-elim-non-leaf" "no-infs-fp-math"="false" "no-nans-fp-math"="false" "no-signed-zeros-fp-math"="false" "no-trapping-math"="false" "null-pointer-is-valid"="true" "stack-protector-buffer-size"="4" "target-cpu"="x86-64" "target-features"="+cx8,+fxsr,+mmx,+sse,+sse2,+sse3,+x87" "unsafe-fp-math"="false" "use-soft-float"="false" }
attributes #10 = { noreturn nounwind }
attributes #11 = { nounwind }
attributes #12 = { builtin nounwind }

!llvm.module.flags = !{!0, !1}

!0 = !{i32 1, !"wchar_size", i32 4}
!1 = !{i32 7, !"PIC Level", i32 2}
!2 = !{!"branch_weights", i32 2000, i32 1}
!3 = !{i8 0, i8 2}
