; ModuleID = '../../v8/src/interpreter/bytecode-decoder.cc'
source_filename = "../../v8/src/interpreter/bytecode-decoder.cc"
target datalayout = "e-m:e-i64:64-f80:128-n8:16:32:64-S128"
target triple = "x86_64-unknown-linux-gnu"

module asm ".symver exp, exp@GLIBC_2.2.5"
module asm ".symver exp2, exp2@GLIBC_2.2.5"
module asm ".symver exp2f, exp2f@GLIBC_2.2.5"
module asm ".symver expf, expf@GLIBC_2.2.5"
module asm ".symver lgamma, lgamma@GLIBC_2.2.5"
module asm ".symver lgammaf, lgammaf@GLIBC_2.2.5"
module asm ".symver lgammal, lgammal@GLIBC_2.2.5"
module asm ".symver log, log@GLIBC_2.2.5"
module asm ".symver log2, log2@GLIBC_2.2.5"
module asm ".symver log2f, log2f@GLIBC_2.2.5"
module asm ".symver logf, logf@GLIBC_2.2.5"
module asm ".symver pow, pow@GLIBC_2.2.5"
module asm ".symver powf, powf@GLIBC_2.2.5"

%"class.std::__1::locale::id" = type <{ %"struct.std::__1::once_flag", i32, [4 x i8] }>
%"struct.std::__1::once_flag" = type { i64 }
%"class.std::__1::basic_ostream" = type { i32 (...)**, %"class.std::__1::basic_ios.base" }
%"class.std::__1::basic_ios.base" = type <{ %"class.std::__1::ios_base", %"class.std::__1::basic_ostream"*, i32 }>
%"class.std::__1::ios_base" = type { i32 (...)**, i32, i64, i64, i32, i32, i8*, i8*, void (i32, %"class.std::__1::ios_base"*, i32)**, i32*, i64, i64, i64*, i64, i64, i8**, i64, i64 }
%"class.std::__1::basic_ios" = type <{ %"class.std::__1::ios_base", %"class.std::__1::basic_ostream"*, i32, [4 x i8] }>
%"class.std::__1::basic_string" = type { %"class.std::__1::__compressed_pair" }
%"class.std::__1::__compressed_pair" = type { %"struct.std::__1::__compressed_pair_elem" }
%"struct.std::__1::__compressed_pair_elem" = type { %"struct.std::__1::basic_string<char, std::__1::char_traits<char>, std::__1::allocator<char> >::__rep" }
%"struct.std::__1::basic_string<char, std::__1::char_traits<char>, std::__1::allocator<char> >::__rep" = type { %union.anon }
%union.anon = type { %"struct.std::__1::basic_string<char, std::__1::char_traits<char>, std::__1::allocator<char> >::__long" }
%"struct.std::__1::basic_string<char, std::__1::char_traits<char>, std::__1::allocator<char> >::__long" = type { i8*, i64, i64 }
%"class.v8::internal::interpreter::Register" = type { i32 }
%"struct.std::__1::basic_string<char, std::__1::char_traits<char>, std::__1::allocator<char> >::__short" = type { [23 x i8], %struct.anon }
%struct.anon = type { i8 }
%"struct.v8::internal::Runtime::Function" = type { i32, i32, i8*, i64, i8, i8 }
%"class.std::__1::locale" = type { %"class.std::__1::locale::__imp"* }
%"class.std::__1::locale::__imp" = type opaque
%"class.std::__1::basic_ostream<char, std::__1::char_traits<char> >::sentry" = type { i8, %"class.std::__1::basic_ostream"* }
%"class.std::__1::basic_streambuf" = type { i32 (...)**, %"class.std::__1::locale", i8*, i8*, i8*, i8*, i8*, i8* }
%"class.std::__1::locale::facet" = type { %"class.std::__1::__shared_count" }
%"class.std::__1::__shared_count" = type { i32 (...)**, i64 }
%"class.std::__1::ctype" = type <{ %"class.std::__1::locale::facet", i16*, i8, [7 x i8] }>

$_ZNSt3__124__put_character_sequenceIcNS_11char_traitsIcEEEERNS_13basic_ostreamIT_T0_EES7_PKS4_m = comdat any

$_ZNSt3__116__pad_and_outputIcNS_11char_traitsIcEEEENS_19ostreambuf_iteratorIT_T0_EES6_PKS4_S8_S8_RNS_8ios_baseES4_ = comdat any

@.str = private unnamed_addr constant [17 x i8] c"unreachable code\00", align 1
@.str.1 = private unnamed_addr constant [4 x i8] c"   \00", align 1
@.str.2 = private unnamed_addr constant [2 x i8] c".\00", align 1
@.str.3 = private unnamed_addr constant [2 x i8] c" \00", align 1
@.str.4 = private unnamed_addr constant [2 x i8] c"[\00", align 1
@.str.5 = private unnamed_addr constant [2 x i8] c"]\00", align 1
@.str.6 = private unnamed_addr constant [2 x i8] c"#\00", align 1
@.str.7 = private unnamed_addr constant [2 x i8] c"-\00", align 1
@.str.8 = private unnamed_addr constant [3 x i8] c", \00", align 1
@_ZN2v88internal11interpreter9Bytecodes17kOperandKindSizesE = external local_unnamed_addr constant [3 x [16 x i8]], align 16
@_ZN2v88internal11interpreter9Bytecodes14kBytecodeSizesE = external local_unnamed_addr constant [3 x [197 x i8]], align 16
@_ZN2v88internal11interpreter9Bytecodes13kOperandCountE = external local_unnamed_addr constant [0 x i32], align 4
@_ZN2v88internal11interpreter9Bytecodes13kOperandTypesE = external local_unnamed_addr constant [0 x i8*], align 8
@.str.9 = private unnamed_addr constant [20 x i8] c"global_proxy_object\00", align 1
@.str.10 = private unnamed_addr constant [14 x i8] c"embedder_data\00", align 1
@.str.11 = private unnamed_addr constant [37 x i8] c"continuation_preserved_embedder_data\00", align 1
@.str.12 = private unnamed_addr constant [24 x i8] c"generator_next_internal\00", align 1
@.str.13 = private unnamed_addr constant [31 x i8] c"async_module_evaluate_internal\00", align 1
@.str.14 = private unnamed_addr constant [14 x i8] c"object_create\00", align 1
@.str.15 = private unnamed_addr constant [14 x i8] c"reflect_apply\00", align 1
@.str.16 = private unnamed_addr constant [18 x i8] c"reflect_construct\00", align 1
@.str.17 = private unnamed_addr constant [11 x i8] c"math_floor\00", align 1
@.str.18 = private unnamed_addr constant [9 x i8] c"math_pow\00", align 1
@.str.19 = private unnamed_addr constant [29 x i8] c"promise_internal_constructor\00", align 1
@.str.20 = private unnamed_addr constant [13 x i8] c"promise_then\00", align 1
@.str.21 = private unnamed_addr constant [25 x i8] c"function_prototype_apply\00", align 1
@.str.22 = private unnamed_addr constant [16 x i8] c"uint8_array_fun\00", align 1
@.str.23 = private unnamed_addr constant [15 x i8] c"int8_array_fun\00", align 1
@.str.24 = private unnamed_addr constant [17 x i8] c"uint16_array_fun\00", align 1
@.str.25 = private unnamed_addr constant [16 x i8] c"int16_array_fun\00", align 1
@.str.26 = private unnamed_addr constant [17 x i8] c"uint32_array_fun\00", align 1
@.str.27 = private unnamed_addr constant [16 x i8] c"int32_array_fun\00", align 1
@.str.28 = private unnamed_addr constant [18 x i8] c"float32_array_fun\00", align 1
@.str.29 = private unnamed_addr constant [18 x i8] c"float64_array_fun\00", align 1
@.str.30 = private unnamed_addr constant [24 x i8] c"uint8_clamped_array_fun\00", align 1
@.str.31 = private unnamed_addr constant [20 x i8] c"biguint64_array_fun\00", align 1
@.str.32 = private unnamed_addr constant [19 x i8] c"bigint64_array_fun\00", align 1
@.str.33 = private unnamed_addr constant [25 x i8] c"rab_gsab_uint8_array_map\00", align 1
@.str.34 = private unnamed_addr constant [24 x i8] c"rab_gsab_int8_array_map\00", align 1
@.str.35 = private unnamed_addr constant [26 x i8] c"rab_gsab_uint16_array_map\00", align 1
@.str.36 = private unnamed_addr constant [25 x i8] c"rab_gsab_int16_array_map\00", align 1
@.str.37 = private unnamed_addr constant [26 x i8] c"rab_gsab_uint32_array_map\00", align 1
@.str.38 = private unnamed_addr constant [25 x i8] c"rab_gsab_int32_array_map\00", align 1
@.str.39 = private unnamed_addr constant [27 x i8] c"rab_gsab_float32_array_map\00", align 1
@.str.40 = private unnamed_addr constant [27 x i8] c"rab_gsab_float64_array_map\00", align 1
@.str.41 = private unnamed_addr constant [33 x i8] c"rab_gsab_uint8_clamped_array_map\00", align 1
@.str.42 = private unnamed_addr constant [29 x i8] c"rab_gsab_biguint64_array_map\00", align 1
@.str.43 = private unnamed_addr constant [28 x i8] c"rab_gsab_bigint64_array_map\00", align 1
@.str.44 = private unnamed_addr constant [33 x i8] c"accessor_property_descriptor_map\00", align 1
@.str.45 = private unnamed_addr constant [28 x i8] c"allow_code_gen_from_strings\00", align 1
@.str.46 = private unnamed_addr constant [17 x i8] c"array_buffer_fun\00", align 1
@.str.47 = private unnamed_addr constant [17 x i8] c"array_buffer_map\00", align 1
@.str.48 = private unnamed_addr constant [24 x i8] c"array_buffer_noinit_fun\00", align 1
@.str.49 = private unnamed_addr constant [15 x i8] c"array_function\00", align 1
@.str.50 = private unnamed_addr constant [17 x i8] c"array_join_stack\00", align 1
@.str.51 = private unnamed_addr constant [29 x i8] c"async_from_sync_iterator_map\00", align 1
@.str.52 = private unnamed_addr constant [27 x i8] c"async_function_constructor\00", align 1
@.str.53 = private unnamed_addr constant [26 x i8] c"async_function_object_map\00", align 1
@.str.54 = private unnamed_addr constant [34 x i8] c"async_generator_function_function\00", align 1
@.str.55 = private unnamed_addr constant [15 x i8] c"atomics_object\00", align 1
@.str.56 = private unnamed_addr constant [16 x i8] c"bigint_function\00", align 1
@.str.57 = private unnamed_addr constant [17 x i8] c"boolean_function\00", align 1
@.str.58 = private unnamed_addr constant [36 x i8] c"bound_function_with_constructor_map\00", align 1
@.str.59 = private unnamed_addr constant [39 x i8] c"bound_function_without_constructor_map\00", align 1
@.str.60 = private unnamed_addr constant [29 x i8] c"call_as_constructor_delegate\00", align 1
@.str.61 = private unnamed_addr constant [26 x i8] c"call_as_function_delegate\00", align 1
@.str.62 = private unnamed_addr constant [28 x i8] c"call_async_module_fulfilled\00", align 1
@.str.63 = private unnamed_addr constant [27 x i8] c"call_async_module_rejected\00", align 1
@.str.64 = private unnamed_addr constant [18 x i8] c"callsite_function\00", align 1
@.str.65 = private unnamed_addr constant [27 x i8] c"context_extension_function\00", align 1
@.str.66 = private unnamed_addr constant [29 x i8] c"data_property_descriptor_map\00", align 1
@.str.67 = private unnamed_addr constant [14 x i8] c"data_view_fun\00", align 1
@.str.68 = private unnamed_addr constant [14 x i8] c"date_function\00", align 1
@.str.69 = private unnamed_addr constant [17 x i8] c"debug_context_id\00", align 1
@.str.70 = private unnamed_addr constant [15 x i8] c"empty_function\00", align 1
@.str.71 = private unnamed_addr constant [40 x i8] c"error_message_for_code_gen_from_strings\00", align 1
@.str.72 = private unnamed_addr constant [14 x i8] c"errors_thrown\00", align 1
@.str.73 = private unnamed_addr constant [22 x i8] c"extras_binding_object\00", align 1
@.str.74 = private unnamed_addr constant [27 x i8] c"fast_aliased_arguments_map\00", align 1
@.str.75 = private unnamed_addr constant [35 x i8] c"fast_template_instantiations_cache\00", align 1
@.str.76 = private unnamed_addr constant [18 x i8] c"function_function\00", align 1
@.str.77 = private unnamed_addr constant [28 x i8] c"generator_function_function\00", align 1
@.str.78 = private unnamed_addr constant [31 x i8] c"generator_object_prototype_map\00", align 1
@.str.79 = private unnamed_addr constant [37 x i8] c"async_generator_object_prototype_map\00", align 1
@.str.80 = private unnamed_addr constant [33 x i8] c"growable_shared_array_buffer_fun\00", align 1
@.str.81 = private unnamed_addr constant [27 x i8] c"initial_array_iterator_map\00", align 1
@.str.82 = private unnamed_addr constant [33 x i8] c"initial_array_iterator_prototype\00", align 1
@.str.83 = private unnamed_addr constant [24 x i8] c"initial_array_prototype\00", align 1
@.str.84 = private unnamed_addr constant [24 x i8] c"initial_error_prototype\00", align 1
@.str.85 = private unnamed_addr constant [28 x i8] c"initial_generator_prototype\00", align 1
@.str.86 = private unnamed_addr constant [33 x i8] c"initial_async_iterator_prototype\00", align 1
@.str.87 = private unnamed_addr constant [34 x i8] c"initial_async_generator_prototype\00", align 1
@.str.88 = private unnamed_addr constant [27 x i8] c"initial_iterator_prototype\00", align 1
@.str.89 = private unnamed_addr constant [31 x i8] c"initial_map_iterator_prototype\00", align 1
@.str.90 = private unnamed_addr constant [26 x i8] c"initial_map_prototype_map\00", align 1
@.str.91 = private unnamed_addr constant [25 x i8] c"initial_object_prototype\00", align 1
@.str.92 = private unnamed_addr constant [31 x i8] c"initial_set_iterator_prototype\00", align 1
@.str.93 = private unnamed_addr constant [22 x i8] c"initial_set_prototype\00", align 1
@.str.94 = private unnamed_addr constant [26 x i8] c"initial_set_prototype_map\00", align 1
@.str.95 = private unnamed_addr constant [28 x i8] c"initial_string_iterator_map\00", align 1
@.str.96 = private unnamed_addr constant [34 x i8] c"initial_string_iterator_prototype\00", align 1
@.str.97 = private unnamed_addr constant [25 x i8] c"initial_string_prototype\00", align 1
@.str.98 = private unnamed_addr constant [30 x i8] c"initial_weakmap_prototype_map\00", align 1
@.str.99 = private unnamed_addr constant [30 x i8] c"initial_weakset_prototype_map\00", align 1
@.str.100 = private unnamed_addr constant [23 x i8] c"intl_collator_function\00", align 1
@.str.101 = private unnamed_addr constant [31 x i8] c"intl_date_time_format_function\00", align 1
@.str.102 = private unnamed_addr constant [28 x i8] c"intl_display_names_function\00", align 1
@.str.103 = private unnamed_addr constant [28 x i8] c"intl_number_format_function\00", align 1
@.str.104 = private unnamed_addr constant [21 x i8] c"intl_locale_function\00", align 1
@.str.105 = private unnamed_addr constant [26 x i8] c"intl_list_format_function\00", align 1
@.str.106 = private unnamed_addr constant [27 x i8] c"intl_plural_rules_function\00", align 1
@.str.107 = private unnamed_addr constant [35 x i8] c"intl_relative_time_format_function\00", align 1
@.str.108 = private unnamed_addr constant [24 x i8] c"intl_segmenter_function\00", align 1
@.str.109 = private unnamed_addr constant [18 x i8] c"intl_segments_map\00", align 1
@.str.110 = private unnamed_addr constant [26 x i8] c"intl_segment_iterator_map\00", align 1
@.str.111 = private unnamed_addr constant [20 x i8] c"iterator_result_map\00", align 1
@.str.112 = private unnamed_addr constant [33 x i8] c"js_array_packed_smi_elements_map\00", align 1
@.str.113 = private unnamed_addr constant [32 x i8] c"js_array_holey_smi_elements_map\00", align 1
@.str.114 = private unnamed_addr constant [29 x i8] c"js_array_packed_elements_map\00", align 1
@.str.115 = private unnamed_addr constant [28 x i8] c"js_array_holey_elements_map\00", align 1
@.str.116 = private unnamed_addr constant [36 x i8] c"js_array_packed_double_elements_map\00", align 1
@.str.117 = private unnamed_addr constant [35 x i8] c"js_array_holey_double_elements_map\00", align 1
@.str.118 = private unnamed_addr constant [11 x i8] c"js_map_fun\00", align 1
@.str.119 = private unnamed_addr constant [11 x i8] c"js_map_map\00", align 1
@.str.120 = private unnamed_addr constant [24 x i8] c"js_module_namespace_map\00", align 1
@.str.121 = private unnamed_addr constant [11 x i8] c"js_set_fun\00", align 1
@.str.122 = private unnamed_addr constant [11 x i8] c"js_set_map\00", align 1
@.str.123 = private unnamed_addr constant [16 x i8] c"js_weak_map_fun\00", align 1
@.str.124 = private unnamed_addr constant [16 x i8] c"js_weak_set_fun\00", align 1
@.str.125 = private unnamed_addr constant [16 x i8] c"js_weak_ref_fun\00", align 1
@.str.126 = private unnamed_addr constant [29 x i8] c"js_finalization_registry_fun\00", align 1
@.str.127 = private unnamed_addr constant [19 x i8] c"native_context_map\00", align 1
@.str.128 = private unnamed_addr constant [21 x i8] c"function_context_map\00", align 1
@.str.129 = private unnamed_addr constant [19 x i8] c"module_context_map\00", align 1
@.str.130 = private unnamed_addr constant [17 x i8] c"eval_context_map\00", align 1
@.str.131 = private unnamed_addr constant [19 x i8] c"script_context_map\00", align 1
@.str.132 = private unnamed_addr constant [18 x i8] c"await_context_map\00", align 1
@.str.133 = private unnamed_addr constant [18 x i8] c"block_context_map\00", align 1
@.str.134 = private unnamed_addr constant [18 x i8] c"catch_context_map\00", align 1
@.str.135 = private unnamed_addr constant [17 x i8] c"with_context_map\00", align 1
@.str.136 = private unnamed_addr constant [27 x i8] c"debug_evaluate_context_map\00", align 1
@.str.137 = private unnamed_addr constant [10 x i8] c"map_cache\00", align 1
@.str.138 = private unnamed_addr constant [21 x i8] c"map_key_iterator_map\00", align 1
@.str.139 = private unnamed_addr constant [27 x i8] c"map_key_value_iterator_map\00", align 1
@.str.140 = private unnamed_addr constant [23 x i8] c"map_value_iterator_map\00", align 1
@.str.141 = private unnamed_addr constant [18 x i8] c"math_random_index\00", align 1
@.str.142 = private unnamed_addr constant [18 x i8] c"math_random_state\00", align 1
@.str.143 = private unnamed_addr constant [18 x i8] c"math_random_cache\00", align 1
@.str.144 = private unnamed_addr constant [18 x i8] c"message_listeners\00", align 1
@.str.145 = private unnamed_addr constant [21 x i8] c"normalized_map_cache\00", align 1
@.str.146 = private unnamed_addr constant [16 x i8] c"number_function\00", align 1
@.str.147 = private unnamed_addr constant [16 x i8] c"object_function\00", align 1
@.str.148 = private unnamed_addr constant [30 x i8] c"object_function_prototype_map\00", align 1
@.str.149 = private unnamed_addr constant [27 x i8] c"promise_hook_init_function\00", align 1
@.str.150 = private unnamed_addr constant [29 x i8] c"promise_hook_before_function\00", align 1
@.str.151 = private unnamed_addr constant [28 x i8] c"promise_hook_after_function\00", align 1
@.str.152 = private unnamed_addr constant [30 x i8] c"promise_hook_resolve_function\00", align 1
@.str.153 = private unnamed_addr constant [19 x i8] c"proxy_callable_map\00", align 1
@.str.154 = private unnamed_addr constant [22 x i8] c"proxy_constructor_map\00", align 1
@.str.155 = private unnamed_addr constant [15 x i8] c"proxy_function\00", align 1
@.str.156 = private unnamed_addr constant [10 x i8] c"proxy_map\00", align 1
@.str.157 = private unnamed_addr constant [27 x i8] c"proxy_revocable_result_map\00", align 1
@.str.158 = private unnamed_addr constant [18 x i8] c"promise_prototype\00", align 1
@.str.159 = private unnamed_addr constant [20 x i8] c"recorder_context_id\00", align 1
@.str.160 = private unnamed_addr constant [21 x i8] c"regexp_exec_function\00", align 1
@.str.161 = private unnamed_addr constant [16 x i8] c"regexp_function\00", align 1
@.str.162 = private unnamed_addr constant [23 x i8] c"regexp_last_match_info\00", align 1
@.str.163 = private unnamed_addr constant [26 x i8] c"regexp_match_all_function\00", align 1
@.str.164 = private unnamed_addr constant [22 x i8] c"regexp_match_function\00", align 1
@.str.165 = private unnamed_addr constant [17 x i8] c"regexp_prototype\00", align 1
@.str.166 = private unnamed_addr constant [21 x i8] c"regexp_prototype_map\00", align 1
@.str.167 = private unnamed_addr constant [24 x i8] c"regexp_replace_function\00", align 1
@.str.168 = private unnamed_addr constant [18 x i8] c"regexp_result_map\00", align 1
@.str.169 = private unnamed_addr constant [31 x i8] c"regexp_result_with_indices_map\00", align 1
@.str.170 = private unnamed_addr constant [26 x i8] c"regexp_result_indices_map\00", align 1
@.str.171 = private unnamed_addr constant [23 x i8] c"regexp_search_function\00", align 1
@.str.172 = private unnamed_addr constant [22 x i8] c"regexp_split_function\00", align 1
@.str.173 = private unnamed_addr constant [45 x i8] c"initial_regexp_string_iterator_prototype_map\00", align 1
@.str.174 = private unnamed_addr constant [27 x i8] c"resizable_array_buffer_fun\00", align 1
@.str.175 = private unnamed_addr constant [21 x i8] c"script_context_table\00", align 1
@.str.176 = private unnamed_addr constant [26 x i8] c"script_execution_callback\00", align 1
@.str.177 = private unnamed_addr constant [15 x i8] c"security_token\00", align 1
@.str.178 = private unnamed_addr constant [19 x i8] c"serialized_objects\00", align 1
@.str.179 = private unnamed_addr constant [23 x i8] c"set_value_iterator_map\00", align 1
@.str.180 = private unnamed_addr constant [27 x i8] c"set_key_value_iterator_map\00", align 1
@.str.181 = private unnamed_addr constant [24 x i8] c"shared_array_buffer_fun\00", align 1
@.str.182 = private unnamed_addr constant [21 x i8] c"sloppy_arguments_map\00", align 1
@.str.183 = private unnamed_addr constant [27 x i8] c"slow_aliased_arguments_map\00", align 1
@.str.184 = private unnamed_addr constant [21 x i8] c"strict_arguments_map\00", align 1
@.str.185 = private unnamed_addr constant [36 x i8] c"slow_object_with_null_prototype_map\00", align 1
@.str.186 = private unnamed_addr constant [38 x i8] c"slow_object_with_object_prototype_map\00", align 1
@.str.187 = private unnamed_addr constant [35 x i8] c"slow_template_instantiations_cache\00", align 1
@.str.188 = private unnamed_addr constant [27 x i8] c"atomics_waitasync_promises\00", align 1
@.str.189 = private unnamed_addr constant [16 x i8] c"wasm_debug_maps\00", align 1
@.str.190 = private unnamed_addr constant [25 x i8] c"regexp_species_protector\00", align 1
@.str.191 = private unnamed_addr constant [20 x i8] c"sloppy_function_map\00", align 1
@.str.192 = private unnamed_addr constant [30 x i8] c"sloppy_function_with_name_map\00", align 1
@.str.193 = private unnamed_addr constant [38 x i8] c"sloppy_function_without_prototype_map\00", align 1
@.str.194 = private unnamed_addr constant [44 x i8] c"sloppy_function_with_readonly_prototype_map\00", align 1
@.str.195 = private unnamed_addr constant [20 x i8] c"strict_function_map\00", align 1
@.str.196 = private unnamed_addr constant [30 x i8] c"strict_function_with_name_map\00", align 1
@.str.197 = private unnamed_addr constant [44 x i8] c"strict_function_with_readonly_prototype_map\00", align 1
@.str.198 = private unnamed_addr constant [38 x i8] c"strict_function_without_prototype_map\00", align 1
@.str.199 = private unnamed_addr constant [21 x i8] c"method_with_name_map\00", align 1
@.str.200 = private unnamed_addr constant [19 x i8] c"async_function_map\00", align 1
@.str.201 = private unnamed_addr constant [29 x i8] c"async_function_with_name_map\00", align 1
@.str.202 = private unnamed_addr constant [23 x i8] c"generator_function_map\00", align 1
@.str.203 = private unnamed_addr constant [33 x i8] c"generator_function_with_name_map\00", align 1
@.str.204 = private unnamed_addr constant [29 x i8] c"async_generator_function_map\00", align 1
@.str.205 = private unnamed_addr constant [39 x i8] c"async_generator_function_with_name_map\00", align 1
@.str.206 = private unnamed_addr constant [19 x i8] c"class_function_map\00", align 1
@.str.207 = private unnamed_addr constant [16 x i8] c"string_function\00", align 1
@.str.208 = private unnamed_addr constant [30 x i8] c"string_function_prototype_map\00", align 1
@.str.209 = private unnamed_addr constant [16 x i8] c"symbol_function\00", align 1
@.str.210 = private unnamed_addr constant [27 x i8] c"wasm_exported_function_map\00", align 1
@.str.211 = private unnamed_addr constant [27 x i8] c"wasm_exception_constructor\00", align 1
@.str.212 = private unnamed_addr constant [24 x i8] c"wasm_global_constructor\00", align 1
@.str.213 = private unnamed_addr constant [26 x i8] c"wasm_instance_constructor\00", align 1
@.str.214 = private unnamed_addr constant [24 x i8] c"wasm_memory_constructor\00", align 1
@.str.215 = private unnamed_addr constant [24 x i8] c"wasm_module_constructor\00", align 1
@.str.216 = private unnamed_addr constant [23 x i8] c"wasm_table_constructor\00", align 1
@.str.217 = private unnamed_addr constant [17 x i8] c"template_weakmap\00", align 1
@.str.218 = private unnamed_addr constant [21 x i8] c"typed_array_function\00", align 1
@.str.219 = private unnamed_addr constant [22 x i8] c"typed_array_prototype\00", align 1
@.str.220 = private unnamed_addr constant [23 x i8] c"array_entries_iterator\00", align 1
@.str.221 = private unnamed_addr constant [24 x i8] c"array_for_each_iterator\00", align 1
@.str.222 = private unnamed_addr constant [20 x i8] c"array_keys_iterator\00", align 1
@.str.223 = private unnamed_addr constant [22 x i8] c"array_values_iterator\00", align 1
@.str.224 = private unnamed_addr constant [15 x i8] c"error_function\00", align 1
@.str.225 = private unnamed_addr constant [16 x i8] c"error_to_string\00", align 1
@.str.226 = private unnamed_addr constant [20 x i8] c"eval_error_function\00", align 1
@.str.227 = private unnamed_addr constant [25 x i8] c"aggregate_error_function\00", align 1
@.str.228 = private unnamed_addr constant [16 x i8] c"global_eval_fun\00", align 1
@.str.229 = private unnamed_addr constant [22 x i8] c"global_proxy_function\00", align 1
@.str.230 = private unnamed_addr constant [11 x i8] c"map_delete\00", align 1
@.str.231 = private unnamed_addr constant [8 x i8] c"map_get\00", align 1
@.str.232 = private unnamed_addr constant [8 x i8] c"map_has\00", align 1
@.str.233 = private unnamed_addr constant [8 x i8] c"map_set\00", align 1
@.str.234 = private unnamed_addr constant [35 x i8] c"finalization_registry_cleanup_some\00", align 1
@.str.235 = private unnamed_addr constant [22 x i8] c"function_has_instance\00", align 1
@.str.236 = private unnamed_addr constant [19 x i8] c"function_to_string\00", align 1
@.str.237 = private unnamed_addr constant [17 x i8] c"object_to_string\00", align 1
@.str.238 = private unnamed_addr constant [25 x i8] c"object_value_of_function\00", align 1
@.str.239 = private unnamed_addr constant [12 x i8] c"promise_all\00", align 1
@.str.240 = private unnamed_addr constant [12 x i8] c"promise_any\00", align 1
@.str.241 = private unnamed_addr constant [17 x i8] c"promise_function\00", align 1
@.str.242 = private unnamed_addr constant [21 x i8] c"range_error_function\00", align 1
@.str.243 = private unnamed_addr constant [25 x i8] c"reference_error_function\00", align 1
@.str.244 = private unnamed_addr constant [8 x i8] c"set_add\00", align 1
@.str.245 = private unnamed_addr constant [11 x i8] c"set_delete\00", align 1
@.str.246 = private unnamed_addr constant [8 x i8] c"set_has\00", align 1
@.str.247 = private unnamed_addr constant [22 x i8] c"syntax_error_function\00", align 1
@.str.248 = private unnamed_addr constant [20 x i8] c"type_error_function\00", align 1
@.str.249 = private unnamed_addr constant [19 x i8] c"uri_error_function\00", align 1
@.str.250 = private unnamed_addr constant [28 x i8] c"wasm_compile_error_function\00", align 1
@.str.251 = private unnamed_addr constant [25 x i8] c"wasm_link_error_function\00", align 1
@.str.252 = private unnamed_addr constant [28 x i8] c"wasm_runtime_error_function\00", align 1
@.str.253 = private unnamed_addr constant [12 x i8] c"weakmap_set\00", align 1
@.str.254 = private unnamed_addr constant [12 x i8] c"weakmap_get\00", align 1
@.str.255 = private unnamed_addr constant [12 x i8] c"weakset_add\00", align 1
@.str.256 = private unnamed_addr constant [14 x i8] c"retained_maps\00", align 1
@.str.257 = private unnamed_addr constant [15 x i8] c"osr_code_cache\00", align 1
@_ZNSt3__15ctypeIcE2idE = external global %"class.std::__1::locale::id", align 8
@_ZTVNSt3__19basic_iosIcNS_11char_traitsIcEEEE = external unnamed_addr constant { [4 x i8*] }, align 8
@switch.table._ZN2v88internal11interpreter15BytecodeDecoder6DecodeERNSt3__113basic_ostreamIcNS3_11char_traitsIcEEEEPKhi = private unnamed_addr constant [249 x i8*] [i8* getelementptr inbounds ([20 x i8], [20 x i8]* @.str.9, i64 0, i64 0), i8* getelementptr inbounds ([14 x i8], [14 x i8]* @.str.10, i64 0, i64 0), i8* getelementptr inbounds ([37 x i8], [37 x i8]* @.str.11, i64 0, i64 0), i8* getelementptr inbounds ([24 x i8], [24 x i8]* @.str.12, i64 0, i64 0), i8* getelementptr inbounds ([31 x i8], [31 x i8]* @.str.13, i64 0, i64 0), i8* getelementptr inbounds ([14 x i8], [14 x i8]* @.str.14, i64 0, i64 0), i8* getelementptr inbounds ([14 x i8], [14 x i8]* @.str.15, i64 0, i64 0), i8* getelementptr inbounds ([18 x i8], [18 x i8]* @.str.16, i64 0, i64 0), i8* getelementptr inbounds ([11 x i8], [11 x i8]* @.str.17, i64 0, i64 0), i8* getelementptr inbounds ([9 x i8], [9 x i8]* @.str.18, i64 0, i64 0), i8* getelementptr inbounds ([29 x i8], [29 x i8]* @.str.19, i64 0, i64 0), i8* getelementptr inbounds ([13 x i8], [13 x i8]* @.str.20, i64 0, i64 0), i8* getelementptr inbounds ([25 x i8], [25 x i8]* @.str.21, i64 0, i64 0), i8* getelementptr inbounds ([16 x i8], [16 x i8]* @.str.22, i64 0, i64 0), i8* getelementptr inbounds ([15 x i8], [15 x i8]* @.str.23, i64 0, i64 0), i8* getelementptr inbounds ([17 x i8], [17 x i8]* @.str.24, i64 0, i64 0), i8* getelementptr inbounds ([16 x i8], [16 x i8]* @.str.25, i64 0, i64 0), i8* getelementptr inbounds ([17 x i8], [17 x i8]* @.str.26, i64 0, i64 0), i8* getelementptr inbounds ([16 x i8], [16 x i8]* @.str.27, i64 0, i64 0), i8* getelementptr inbounds ([18 x i8], [18 x i8]* @.str.28, i64 0, i64 0), i8* getelementptr inbounds ([18 x i8], [18 x i8]* @.str.29, i64 0, i64 0), i8* getelementptr inbounds ([24 x i8], [24 x i8]* @.str.30, i64 0, i64 0), i8* getelementptr inbounds ([20 x i8], [20 x i8]* @.str.31, i64 0, i64 0), i8* getelementptr inbounds ([19 x i8], [19 x i8]* @.str.32, i64 0, i64 0), i8* getelementptr inbounds ([25 x i8], [25 x i8]* @.str.33, i64 0, i64 0), i8* getelementptr inbounds ([24 x i8], [24 x i8]* @.str.34, i64 0, i64 0), i8* getelementptr inbounds ([26 x i8], [26 x i8]* @.str.35, i64 0, i64 0), i8* getelementptr inbounds ([25 x i8], [25 x i8]* @.str.36, i64 0, i64 0), i8* getelementptr inbounds ([26 x i8], [26 x i8]* @.str.37, i64 0, i64 0), i8* getelementptr inbounds ([25 x i8], [25 x i8]* @.str.38, i64 0, i64 0), i8* getelementptr inbounds ([27 x i8], [27 x i8]* @.str.39, i64 0, i64 0), i8* getelementptr inbounds ([27 x i8], [27 x i8]* @.str.40, i64 0, i64 0), i8* getelementptr inbounds ([33 x i8], [33 x i8]* @.str.41, i64 0, i64 0), i8* getelementptr inbounds ([29 x i8], [29 x i8]* @.str.42, i64 0, i64 0), i8* getelementptr inbounds ([28 x i8], [28 x i8]* @.str.43, i64 0, i64 0), i8* getelementptr inbounds ([33 x i8], [33 x i8]* @.str.44, i64 0, i64 0), i8* getelementptr inbounds ([28 x i8], [28 x i8]* @.str.45, i64 0, i64 0), i8* getelementptr inbounds ([17 x i8], [17 x i8]* @.str.46, i64 0, i64 0), i8* getelementptr inbounds ([17 x i8], [17 x i8]* @.str.47, i64 0, i64 0), i8* getelementptr inbounds ([24 x i8], [24 x i8]* @.str.48, i64 0, i64 0), i8* getelementptr inbounds ([15 x i8], [15 x i8]* @.str.49, i64 0, i64 0), i8* getelementptr inbounds ([17 x i8], [17 x i8]* @.str.50, i64 0, i64 0), i8* getelementptr inbounds ([29 x i8], [29 x i8]* @.str.51, i64 0, i64 0), i8* getelementptr inbounds ([27 x i8], [27 x i8]* @.str.52, i64 0, i64 0), i8* getelementptr inbounds ([26 x i8], [26 x i8]* @.str.53, i64 0, i64 0), i8* getelementptr inbounds ([34 x i8], [34 x i8]* @.str.54, i64 0, i64 0), i8* getelementptr inbounds ([15 x i8], [15 x i8]* @.str.55, i64 0, i64 0), i8* getelementptr inbounds ([16 x i8], [16 x i8]* @.str.56, i64 0, i64 0), i8* getelementptr inbounds ([17 x i8], [17 x i8]* @.str.57, i64 0, i64 0), i8* getelementptr inbounds ([36 x i8], [36 x i8]* @.str.58, i64 0, i64 0), i8* getelementptr inbounds ([39 x i8], [39 x i8]* @.str.59, i64 0, i64 0), i8* getelementptr inbounds ([29 x i8], [29 x i8]* @.str.60, i64 0, i64 0), i8* getelementptr inbounds ([26 x i8], [26 x i8]* @.str.61, i64 0, i64 0), i8* getelementptr inbounds ([28 x i8], [28 x i8]* @.str.62, i64 0, i64 0), i8* getelementptr inbounds ([27 x i8], [27 x i8]* @.str.63, i64 0, i64 0), i8* getelementptr inbounds ([18 x i8], [18 x i8]* @.str.64, i64 0, i64 0), i8* getelementptr inbounds ([27 x i8], [27 x i8]* @.str.65, i64 0, i64 0), i8* getelementptr inbounds ([29 x i8], [29 x i8]* @.str.66, i64 0, i64 0), i8* getelementptr inbounds ([14 x i8], [14 x i8]* @.str.67, i64 0, i64 0), i8* getelementptr inbounds ([14 x i8], [14 x i8]* @.str.68, i64 0, i64 0), i8* getelementptr inbounds ([17 x i8], [17 x i8]* @.str.69, i64 0, i64 0), i8* getelementptr inbounds ([15 x i8], [15 x i8]* @.str.70, i64 0, i64 0), i8* getelementptr inbounds ([40 x i8], [40 x i8]* @.str.71, i64 0, i64 0), i8* getelementptr inbounds ([14 x i8], [14 x i8]* @.str.72, i64 0, i64 0), i8* getelementptr inbounds ([22 x i8], [22 x i8]* @.str.73, i64 0, i64 0), i8* getelementptr inbounds ([27 x i8], [27 x i8]* @.str.74, i64 0, i64 0), i8* getelementptr inbounds ([35 x i8], [35 x i8]* @.str.75, i64 0, i64 0), i8* getelementptr inbounds ([18 x i8], [18 x i8]* @.str.76, i64 0, i64 0), i8* getelementptr inbounds ([28 x i8], [28 x i8]* @.str.77, i64 0, i64 0), i8* getelementptr inbounds ([31 x i8], [31 x i8]* @.str.78, i64 0, i64 0), i8* getelementptr inbounds ([37 x i8], [37 x i8]* @.str.79, i64 0, i64 0), i8* getelementptr inbounds ([33 x i8], [33 x i8]* @.str.80, i64 0, i64 0), i8* getelementptr inbounds ([27 x i8], [27 x i8]* @.str.81, i64 0, i64 0), i8* getelementptr inbounds ([33 x i8], [33 x i8]* @.str.82, i64 0, i64 0), i8* getelementptr inbounds ([24 x i8], [24 x i8]* @.str.83, i64 0, i64 0), i8* getelementptr inbounds ([24 x i8], [24 x i8]* @.str.84, i64 0, i64 0), i8* getelementptr inbounds ([28 x i8], [28 x i8]* @.str.85, i64 0, i64 0), i8* getelementptr inbounds ([33 x i8], [33 x i8]* @.str.86, i64 0, i64 0), i8* getelementptr inbounds ([34 x i8], [34 x i8]* @.str.87, i64 0, i64 0), i8* getelementptr inbounds ([27 x i8], [27 x i8]* @.str.88, i64 0, i64 0), i8* getelementptr inbounds ([31 x i8], [31 x i8]* @.str.89, i64 0, i64 0), i8* getelementptr inbounds ([26 x i8], [26 x i8]* @.str.90, i64 0, i64 0), i8* getelementptr inbounds ([25 x i8], [25 x i8]* @.str.91, i64 0, i64 0), i8* getelementptr inbounds ([31 x i8], [31 x i8]* @.str.92, i64 0, i64 0), i8* getelementptr inbounds ([22 x i8], [22 x i8]* @.str.93, i64 0, i64 0), i8* getelementptr inbounds ([26 x i8], [26 x i8]* @.str.94, i64 0, i64 0), i8* getelementptr inbounds ([28 x i8], [28 x i8]* @.str.95, i64 0, i64 0), i8* getelementptr inbounds ([34 x i8], [34 x i8]* @.str.96, i64 0, i64 0), i8* getelementptr inbounds ([25 x i8], [25 x i8]* @.str.97, i64 0, i64 0), i8* getelementptr inbounds ([30 x i8], [30 x i8]* @.str.98, i64 0, i64 0), i8* getelementptr inbounds ([30 x i8], [30 x i8]* @.str.99, i64 0, i64 0), i8* getelementptr inbounds ([23 x i8], [23 x i8]* @.str.100, i64 0, i64 0), i8* getelementptr inbounds ([31 x i8], [31 x i8]* @.str.101, i64 0, i64 0), i8* getelementptr inbounds ([28 x i8], [28 x i8]* @.str.102, i64 0, i64 0), i8* getelementptr inbounds ([28 x i8], [28 x i8]* @.str.103, i64 0, i64 0), i8* getelementptr inbounds ([21 x i8], [21 x i8]* @.str.104, i64 0, i64 0), i8* getelementptr inbounds ([26 x i8], [26 x i8]* @.str.105, i64 0, i64 0), i8* getelementptr inbounds ([27 x i8], [27 x i8]* @.str.106, i64 0, i64 0), i8* getelementptr inbounds ([35 x i8], [35 x i8]* @.str.107, i64 0, i64 0), i8* getelementptr inbounds ([24 x i8], [24 x i8]* @.str.108, i64 0, i64 0), i8* getelementptr inbounds ([18 x i8], [18 x i8]* @.str.109, i64 0, i64 0), i8* getelementptr inbounds ([26 x i8], [26 x i8]* @.str.110, i64 0, i64 0), i8* getelementptr inbounds ([20 x i8], [20 x i8]* @.str.111, i64 0, i64 0), i8* getelementptr inbounds ([33 x i8], [33 x i8]* @.str.112, i64 0, i64 0), i8* getelementptr inbounds ([32 x i8], [32 x i8]* @.str.113, i64 0, i64 0), i8* getelementptr inbounds ([29 x i8], [29 x i8]* @.str.114, i64 0, i64 0), i8* getelementptr inbounds ([28 x i8], [28 x i8]* @.str.115, i64 0, i64 0), i8* getelementptr inbounds ([36 x i8], [36 x i8]* @.str.116, i64 0, i64 0), i8* getelementptr inbounds ([35 x i8], [35 x i8]* @.str.117, i64 0, i64 0), i8* getelementptr inbounds ([11 x i8], [11 x i8]* @.str.118, i64 0, i64 0), i8* getelementptr inbounds ([11 x i8], [11 x i8]* @.str.119, i64 0, i64 0), i8* getelementptr inbounds ([24 x i8], [24 x i8]* @.str.120, i64 0, i64 0), i8* getelementptr inbounds ([11 x i8], [11 x i8]* @.str.121, i64 0, i64 0), i8* getelementptr inbounds ([11 x i8], [11 x i8]* @.str.122, i64 0, i64 0), i8* getelementptr inbounds ([16 x i8], [16 x i8]* @.str.123, i64 0, i64 0), i8* getelementptr inbounds ([16 x i8], [16 x i8]* @.str.124, i64 0, i64 0), i8* getelementptr inbounds ([16 x i8], [16 x i8]* @.str.125, i64 0, i64 0), i8* getelementptr inbounds ([29 x i8], [29 x i8]* @.str.126, i64 0, i64 0), i8* getelementptr inbounds ([19 x i8], [19 x i8]* @.str.127, i64 0, i64 0), i8* getelementptr inbounds ([21 x i8], [21 x i8]* @.str.128, i64 0, i64 0), i8* getelementptr inbounds ([19 x i8], [19 x i8]* @.str.129, i64 0, i64 0), i8* getelementptr inbounds ([17 x i8], [17 x i8]* @.str.130, i64 0, i64 0), i8* getelementptr inbounds ([19 x i8], [19 x i8]* @.str.131, i64 0, i64 0), i8* getelementptr inbounds ([18 x i8], [18 x i8]* @.str.132, i64 0, i64 0), i8* getelementptr inbounds ([18 x i8], [18 x i8]* @.str.133, i64 0, i64 0), i8* getelementptr inbounds ([18 x i8], [18 x i8]* @.str.134, i64 0, i64 0), i8* getelementptr inbounds ([17 x i8], [17 x i8]* @.str.135, i64 0, i64 0), i8* getelementptr inbounds ([27 x i8], [27 x i8]* @.str.136, i64 0, i64 0), i8* getelementptr inbounds ([10 x i8], [10 x i8]* @.str.137, i64 0, i64 0), i8* getelementptr inbounds ([21 x i8], [21 x i8]* @.str.138, i64 0, i64 0), i8* getelementptr inbounds ([27 x i8], [27 x i8]* @.str.139, i64 0, i64 0), i8* getelementptr inbounds ([23 x i8], [23 x i8]* @.str.140, i64 0, i64 0), i8* getelementptr inbounds ([18 x i8], [18 x i8]* @.str.141, i64 0, i64 0), i8* getelementptr inbounds ([18 x i8], [18 x i8]* @.str.142, i64 0, i64 0), i8* getelementptr inbounds ([18 x i8], [18 x i8]* @.str.143, i64 0, i64 0), i8* getelementptr inbounds ([18 x i8], [18 x i8]* @.str.144, i64 0, i64 0), i8* getelementptr inbounds ([21 x i8], [21 x i8]* @.str.145, i64 0, i64 0), i8* getelementptr inbounds ([16 x i8], [16 x i8]* @.str.146, i64 0, i64 0), i8* getelementptr inbounds ([16 x i8], [16 x i8]* @.str.147, i64 0, i64 0), i8* getelementptr inbounds ([30 x i8], [30 x i8]* @.str.148, i64 0, i64 0), i8* getelementptr inbounds ([27 x i8], [27 x i8]* @.str.149, i64 0, i64 0), i8* getelementptr inbounds ([29 x i8], [29 x i8]* @.str.150, i64 0, i64 0), i8* getelementptr inbounds ([28 x i8], [28 x i8]* @.str.151, i64 0, i64 0), i8* getelementptr inbounds ([30 x i8], [30 x i8]* @.str.152, i64 0, i64 0), i8* getelementptr inbounds ([19 x i8], [19 x i8]* @.str.153, i64 0, i64 0), i8* getelementptr inbounds ([22 x i8], [22 x i8]* @.str.154, i64 0, i64 0), i8* getelementptr inbounds ([15 x i8], [15 x i8]* @.str.155, i64 0, i64 0), i8* getelementptr inbounds ([10 x i8], [10 x i8]* @.str.156, i64 0, i64 0), i8* getelementptr inbounds ([27 x i8], [27 x i8]* @.str.157, i64 0, i64 0), i8* getelementptr inbounds ([18 x i8], [18 x i8]* @.str.158, i64 0, i64 0), i8* getelementptr inbounds ([20 x i8], [20 x i8]* @.str.159, i64 0, i64 0), i8* getelementptr inbounds ([21 x i8], [21 x i8]* @.str.160, i64 0, i64 0), i8* getelementptr inbounds ([16 x i8], [16 x i8]* @.str.161, i64 0, i64 0), i8* getelementptr inbounds ([23 x i8], [23 x i8]* @.str.162, i64 0, i64 0), i8* getelementptr inbounds ([26 x i8], [26 x i8]* @.str.163, i64 0, i64 0), i8* getelementptr inbounds ([22 x i8], [22 x i8]* @.str.164, i64 0, i64 0), i8* getelementptr inbounds ([17 x i8], [17 x i8]* @.str.165, i64 0, i64 0), i8* getelementptr inbounds ([21 x i8], [21 x i8]* @.str.166, i64 0, i64 0), i8* getelementptr inbounds ([24 x i8], [24 x i8]* @.str.167, i64 0, i64 0), i8* getelementptr inbounds ([18 x i8], [18 x i8]* @.str.168, i64 0, i64 0), i8* getelementptr inbounds ([31 x i8], [31 x i8]* @.str.169, i64 0, i64 0), i8* getelementptr inbounds ([26 x i8], [26 x i8]* @.str.170, i64 0, i64 0), i8* getelementptr inbounds ([23 x i8], [23 x i8]* @.str.171, i64 0, i64 0), i8* getelementptr inbounds ([22 x i8], [22 x i8]* @.str.172, i64 0, i64 0), i8* getelementptr inbounds ([45 x i8], [45 x i8]* @.str.173, i64 0, i64 0), i8* getelementptr inbounds ([27 x i8], [27 x i8]* @.str.174, i64 0, i64 0), i8* getelementptr inbounds ([21 x i8], [21 x i8]* @.str.175, i64 0, i64 0), i8* getelementptr inbounds ([26 x i8], [26 x i8]* @.str.176, i64 0, i64 0), i8* getelementptr inbounds ([15 x i8], [15 x i8]* @.str.177, i64 0, i64 0), i8* getelementptr inbounds ([19 x i8], [19 x i8]* @.str.178, i64 0, i64 0), i8* getelementptr inbounds ([23 x i8], [23 x i8]* @.str.179, i64 0, i64 0), i8* getelementptr inbounds ([27 x i8], [27 x i8]* @.str.180, i64 0, i64 0), i8* getelementptr inbounds ([24 x i8], [24 x i8]* @.str.181, i64 0, i64 0), i8* getelementptr inbounds ([21 x i8], [21 x i8]* @.str.182, i64 0, i64 0), i8* getelementptr inbounds ([27 x i8], [27 x i8]* @.str.183, i64 0, i64 0), i8* getelementptr inbounds ([21 x i8], [21 x i8]* @.str.184, i64 0, i64 0), i8* getelementptr inbounds ([36 x i8], [36 x i8]* @.str.185, i64 0, i64 0), i8* getelementptr inbounds ([38 x i8], [38 x i8]* @.str.186, i64 0, i64 0), i8* getelementptr inbounds ([35 x i8], [35 x i8]* @.str.187, i64 0, i64 0), i8* getelementptr inbounds ([27 x i8], [27 x i8]* @.str.188, i64 0, i64 0), i8* getelementptr inbounds ([16 x i8], [16 x i8]* @.str.189, i64 0, i64 0), i8* getelementptr inbounds ([25 x i8], [25 x i8]* @.str.190, i64 0, i64 0), i8* getelementptr inbounds ([20 x i8], [20 x i8]* @.str.191, i64 0, i64 0), i8* getelementptr inbounds ([30 x i8], [30 x i8]* @.str.192, i64 0, i64 0), i8* getelementptr inbounds ([38 x i8], [38 x i8]* @.str.193, i64 0, i64 0), i8* getelementptr inbounds ([44 x i8], [44 x i8]* @.str.194, i64 0, i64 0), i8* getelementptr inbounds ([20 x i8], [20 x i8]* @.str.195, i64 0, i64 0), i8* getelementptr inbounds ([30 x i8], [30 x i8]* @.str.196, i64 0, i64 0), i8* getelementptr inbounds ([44 x i8], [44 x i8]* @.str.197, i64 0, i64 0), i8* getelementptr inbounds ([38 x i8], [38 x i8]* @.str.198, i64 0, i64 0), i8* getelementptr inbounds ([21 x i8], [21 x i8]* @.str.199, i64 0, i64 0), i8* getelementptr inbounds ([19 x i8], [19 x i8]* @.str.200, i64 0, i64 0), i8* getelementptr inbounds ([29 x i8], [29 x i8]* @.str.201, i64 0, i64 0), i8* getelementptr inbounds ([23 x i8], [23 x i8]* @.str.202, i64 0, i64 0), i8* getelementptr inbounds ([33 x i8], [33 x i8]* @.str.203, i64 0, i64 0), i8* getelementptr inbounds ([29 x i8], [29 x i8]* @.str.204, i64 0, i64 0), i8* getelementptr inbounds ([39 x i8], [39 x i8]* @.str.205, i64 0, i64 0), i8* getelementptr inbounds ([19 x i8], [19 x i8]* @.str.206, i64 0, i64 0), i8* getelementptr inbounds ([16 x i8], [16 x i8]* @.str.207, i64 0, i64 0), i8* getelementptr inbounds ([30 x i8], [30 x i8]* @.str.208, i64 0, i64 0), i8* getelementptr inbounds ([16 x i8], [16 x i8]* @.str.209, i64 0, i64 0), i8* getelementptr inbounds ([27 x i8], [27 x i8]* @.str.210, i64 0, i64 0), i8* getelementptr inbounds ([27 x i8], [27 x i8]* @.str.211, i64 0, i64 0), i8* getelementptr inbounds ([24 x i8], [24 x i8]* @.str.212, i64 0, i64 0), i8* getelementptr inbounds ([26 x i8], [26 x i8]* @.str.213, i64 0, i64 0), i8* getelementptr inbounds ([24 x i8], [24 x i8]* @.str.214, i64 0, i64 0), i8* getelementptr inbounds ([24 x i8], [24 x i8]* @.str.215, i64 0, i64 0), i8* getelementptr inbounds ([23 x i8], [23 x i8]* @.str.216, i64 0, i64 0), i8* getelementptr inbounds ([17 x i8], [17 x i8]* @.str.217, i64 0, i64 0), i8* getelementptr inbounds ([21 x i8], [21 x i8]* @.str.218, i64 0, i64 0), i8* getelementptr inbounds ([22 x i8], [22 x i8]* @.str.219, i64 0, i64 0), i8* getelementptr inbounds ([23 x i8], [23 x i8]* @.str.220, i64 0, i64 0), i8* getelementptr inbounds ([24 x i8], [24 x i8]* @.str.221, i64 0, i64 0), i8* getelementptr inbounds ([20 x i8], [20 x i8]* @.str.222, i64 0, i64 0), i8* getelementptr inbounds ([22 x i8], [22 x i8]* @.str.223, i64 0, i64 0), i8* getelementptr inbounds ([15 x i8], [15 x i8]* @.str.224, i64 0, i64 0), i8* getelementptr inbounds ([16 x i8], [16 x i8]* @.str.225, i64 0, i64 0), i8* getelementptr inbounds ([20 x i8], [20 x i8]* @.str.226, i64 0, i64 0), i8* getelementptr inbounds ([25 x i8], [25 x i8]* @.str.227, i64 0, i64 0), i8* getelementptr inbounds ([16 x i8], [16 x i8]* @.str.228, i64 0, i64 0), i8* getelementptr inbounds ([22 x i8], [22 x i8]* @.str.229, i64 0, i64 0), i8* getelementptr inbounds ([11 x i8], [11 x i8]* @.str.230, i64 0, i64 0), i8* getelementptr inbounds ([8 x i8], [8 x i8]* @.str.231, i64 0, i64 0), i8* getelementptr inbounds ([8 x i8], [8 x i8]* @.str.232, i64 0, i64 0), i8* getelementptr inbounds ([8 x i8], [8 x i8]* @.str.233, i64 0, i64 0), i8* getelementptr inbounds ([35 x i8], [35 x i8]* @.str.234, i64 0, i64 0), i8* getelementptr inbounds ([22 x i8], [22 x i8]* @.str.235, i64 0, i64 0), i8* getelementptr inbounds ([19 x i8], [19 x i8]* @.str.236, i64 0, i64 0), i8* getelementptr inbounds ([17 x i8], [17 x i8]* @.str.237, i64 0, i64 0), i8* getelementptr inbounds ([25 x i8], [25 x i8]* @.str.238, i64 0, i64 0), i8* getelementptr inbounds ([12 x i8], [12 x i8]* @.str.239, i64 0, i64 0), i8* getelementptr inbounds ([12 x i8], [12 x i8]* @.str.240, i64 0, i64 0), i8* getelementptr inbounds ([17 x i8], [17 x i8]* @.str.241, i64 0, i64 0), i8* getelementptr inbounds ([21 x i8], [21 x i8]* @.str.242, i64 0, i64 0), i8* getelementptr inbounds ([25 x i8], [25 x i8]* @.str.243, i64 0, i64 0), i8* getelementptr inbounds ([8 x i8], [8 x i8]* @.str.244, i64 0, i64 0), i8* getelementptr inbounds ([11 x i8], [11 x i8]* @.str.245, i64 0, i64 0), i8* getelementptr inbounds ([8 x i8], [8 x i8]* @.str.246, i64 0, i64 0), i8* getelementptr inbounds ([22 x i8], [22 x i8]* @.str.247, i64 0, i64 0), i8* getelementptr inbounds ([20 x i8], [20 x i8]* @.str.248, i64 0, i64 0), i8* getelementptr inbounds ([19 x i8], [19 x i8]* @.str.249, i64 0, i64 0), i8* getelementptr inbounds ([28 x i8], [28 x i8]* @.str.250, i64 0, i64 0), i8* getelementptr inbounds ([25 x i8], [25 x i8]* @.str.251, i64 0, i64 0), i8* getelementptr inbounds ([28 x i8], [28 x i8]* @.str.252, i64 0, i64 0), i8* getelementptr inbounds ([12 x i8], [12 x i8]* @.str.253, i64 0, i64 0), i8* getelementptr inbounds ([12 x i8], [12 x i8]* @.str.254, i64 0, i64 0), i8* getelementptr inbounds ([12 x i8], [12 x i8]* @.str.255, i64 0, i64 0), i8* getelementptr inbounds ([14 x i8], [14 x i8]* @.str.256, i64 0, i64 0), i8* getelementptr inbounds ([15 x i8], [15 x i8]* @.str.257, i64 0, i64 0)], align 8

; Function Attrs: nounwind ssp uwtable
define hidden i32 @_ZN2v88internal11interpreter15BytecodeDecoder21DecodeRegisterOperandEmNS1_11OperandTypeENS1_12OperandScaleE(i64, i8 zeroext, i8 zeroext) local_unnamed_addr #0 align 2 {
  %4 = lshr i8 %2, 1
  %5 = zext i8 %4 to i64
  %6 = zext i8 %1 to i64
  %7 = getelementptr inbounds [3 x [16 x i8]], [3 x [16 x i8]]* @_ZN2v88internal11interpreter9Bytecodes17kOperandKindSizesE, i64 0, i64 %5, i64 %6
  %8 = load i8, i8* %7, align 1
  switch i8 %8, label %21 [
    i8 1, label %9
    i8 2, label %13
    i8 4, label %17
    i8 0, label %20
  ]

9:                                                ; preds = %3
  %10 = inttoptr i64 %0 to i8*
  %11 = load i8, i8* %10, align 1
  %12 = sext i8 %11 to i32
  br label %21

13:                                               ; preds = %3
  %14 = inttoptr i64 %0 to i16*
  %15 = load i16, i16* %14, align 1
  %16 = sext i16 %15 to i32
  br label %21

17:                                               ; preds = %3
  %18 = inttoptr i64 %0 to i32*
  %19 = load i32, i32* %18, align 1
  br label %21

20:                                               ; preds = %3
  tail call void (i8*, ...) @_Z8V8_FatalPKcz(i8* getelementptr inbounds ([17 x i8], [17 x i8]* @.str, i64 0, i64 0)) #8
  unreachable

21:                                               ; preds = %3, %9, %13, %17
  %22 = phi i32 [ %19, %17 ], [ %16, %13 ], [ %12, %9 ], [ 0, %3 ]
  %23 = sub nsw i32 -6, %22
  ret i32 %23
}

; Function Attrs: argmemonly nounwind
declare void @llvm.lifetime.start.p0i8(i64 immarg, i8* nocapture) #1

; Function Attrs: nounwind ssp uwtable
define hidden i32 @_ZN2v88internal11interpreter15BytecodeDecoder19DecodeSignedOperandEmNS1_11OperandTypeENS1_12OperandScaleE(i64, i8 zeroext, i8 zeroext) local_unnamed_addr #0 align 2 {
  %4 = lshr i8 %2, 1
  %5 = zext i8 %4 to i64
  %6 = zext i8 %1 to i64
  %7 = getelementptr inbounds [3 x [16 x i8]], [3 x [16 x i8]]* @_ZN2v88internal11interpreter9Bytecodes17kOperandKindSizesE, i64 0, i64 %5, i64 %6
  %8 = load i8, i8* %7, align 1
  switch i8 %8, label %21 [
    i8 1, label %9
    i8 2, label %13
    i8 4, label %17
    i8 0, label %20
  ]

9:                                                ; preds = %3
  %10 = inttoptr i64 %0 to i8*
  %11 = load i8, i8* %10, align 1
  %12 = sext i8 %11 to i32
  br label %21

13:                                               ; preds = %3
  %14 = inttoptr i64 %0 to i16*
  %15 = load i16, i16* %14, align 1
  %16 = sext i16 %15 to i32
  br label %21

17:                                               ; preds = %3
  %18 = inttoptr i64 %0 to i32*
  %19 = load i32, i32* %18, align 1
  br label %21

20:                                               ; preds = %3
  tail call void (i8*, ...) @_Z8V8_FatalPKcz(i8* getelementptr inbounds ([17 x i8], [17 x i8]* @.str, i64 0, i64 0)) #8
  unreachable

21:                                               ; preds = %3, %17, %13, %9
  %22 = phi i32 [ %19, %17 ], [ %16, %13 ], [ %12, %9 ], [ 0, %3 ]
  ret i32 %22
}

; Function Attrs: argmemonly nounwind
declare void @llvm.lifetime.end.p0i8(i64 immarg, i8* nocapture) #1

; Function Attrs: nounwind ssp uwtable
define hidden i64 @_ZN2v88internal11interpreter15BytecodeDecoder25DecodeRegisterListOperandEmjNS1_11OperandTypeENS1_12OperandScaleE(i64, i32, i8 zeroext, i8 zeroext) local_unnamed_addr #0 align 2 {
  %5 = lshr i8 %3, 1
  %6 = zext i8 %5 to i64
  %7 = zext i8 %2 to i64
  %8 = getelementptr inbounds [3 x [16 x i8]], [3 x [16 x i8]]* @_ZN2v88internal11interpreter9Bytecodes17kOperandKindSizesE, i64 0, i64 %6, i64 %7
  %9 = load i8, i8* %8, align 1
  switch i8 %9, label %22 [
    i8 1, label %10
    i8 2, label %14
    i8 4, label %18
    i8 0, label %21
  ]

10:                                               ; preds = %4
  %11 = inttoptr i64 %0 to i8*
  %12 = load i8, i8* %11, align 1
  %13 = sext i8 %12 to i32
  br label %22

14:                                               ; preds = %4
  %15 = inttoptr i64 %0 to i16*
  %16 = load i16, i16* %15, align 1
  %17 = sext i16 %16 to i32
  br label %22

18:                                               ; preds = %4
  %19 = inttoptr i64 %0 to i32*
  %20 = load i32, i32* %19, align 1
  br label %22

21:                                               ; preds = %4
  tail call void (i8*, ...) @_Z8V8_FatalPKcz(i8* getelementptr inbounds ([17 x i8], [17 x i8]* @.str, i64 0, i64 0)) #8
  unreachable

22:                                               ; preds = %4, %10, %14, %18
  %23 = phi i32 [ %20, %18 ], [ %17, %14 ], [ %13, %10 ], [ 0, %4 ]
  %24 = sub nsw i32 -6, %23
  %25 = zext i32 %1 to i64
  %26 = shl nuw i64 %25, 32
  %27 = zext i32 %24 to i64
  %28 = or i64 %26, %27
  ret i64 %28
}

; Function Attrs: noreturn
declare void @_Z8V8_FatalPKcz(i8*, ...) local_unnamed_addr #2

; Function Attrs: nounwind ssp uwtable
define hidden i32 @_ZN2v88internal11interpreter15BytecodeDecoder21DecodeUnsignedOperandEmNS1_11OperandTypeENS1_12OperandScaleE(i64, i8 zeroext, i8 zeroext) local_unnamed_addr #0 align 2 {
  %4 = lshr i8 %2, 1
  %5 = zext i8 %4 to i64
  %6 = zext i8 %1 to i64
  %7 = getelementptr inbounds [3 x [16 x i8]], [3 x [16 x i8]]* @_ZN2v88internal11interpreter9Bytecodes17kOperandKindSizesE, i64 0, i64 %5, i64 %6
  %8 = load i8, i8* %7, align 1
  switch i8 %8, label %21 [
    i8 1, label %9
    i8 2, label %13
    i8 4, label %17
    i8 0, label %20
  ]

9:                                                ; preds = %3
  %10 = inttoptr i64 %0 to i8*
  %11 = load i8, i8* %10, align 1
  %12 = zext i8 %11 to i32
  br label %21

13:                                               ; preds = %3
  %14 = inttoptr i64 %0 to i16*
  %15 = load i16, i16* %14, align 1
  %16 = zext i16 %15 to i32
  br label %21

17:                                               ; preds = %3
  %18 = inttoptr i64 %0 to i32*
  %19 = load i32, i32* %18, align 1
  br label %21

20:                                               ; preds = %3
  tail call void (i8*, ...) @_Z8V8_FatalPKcz(i8* getelementptr inbounds ([17 x i8], [17 x i8]* @.str, i64 0, i64 0)) #8
  unreachable

21:                                               ; preds = %3, %17, %13, %9
  %22 = phi i32 [ %19, %17 ], [ %16, %13 ], [ %12, %9 ], [ 0, %3 ]
  ret i32 %22
}

; Function Attrs: nounwind ssp uwtable
define hidden dereferenceable(160) %"class.std::__1::basic_ostream"* @_ZN2v88internal11interpreter15BytecodeDecoder6DecodeERNSt3__113basic_ostreamIcNS3_11char_traitsIcEEEEPKhi(%"class.std::__1::basic_ostream"* returned dereferenceable(160), i8*, i32) local_unnamed_addr #0 align 2 {
  %4 = alloca i8, align 1
  %5 = alloca %"class.std::__1::basic_ios", align 8
  %6 = alloca %"class.std::__1::basic_string", align 8
  %7 = alloca %"class.v8::internal::interpreter::Register", align 4
  %8 = alloca %"class.std::__1::basic_string", align 8
  %9 = alloca %"class.std::__1::basic_string", align 8
  %10 = alloca %"class.v8::internal::interpreter::Register", align 4
  %11 = alloca %"class.std::__1::basic_string", align 8
  %12 = alloca %"class.v8::internal::interpreter::Register", align 4
  %13 = alloca %"class.std::__1::basic_string", align 8
  %14 = alloca %"class.v8::internal::interpreter::Register", align 4
  %15 = alloca %"class.std::__1::basic_string", align 8
  %16 = alloca %"class.v8::internal::interpreter::Register", align 4
  %17 = alloca %"class.std::__1::basic_string", align 8
  %18 = alloca %"class.v8::internal::interpreter::Register", align 4
  %19 = alloca %"class.std::__1::basic_string", align 8
  %20 = alloca %"class.v8::internal::interpreter::Register", align 4
  %21 = load i8, i8* %1, align 1
  %22 = icmp ult i8 %21, 4
  br i1 %22, label %23, label %30

23:                                               ; preds = %3
  %24 = zext i8 %21 to i32
  %25 = shl nuw nsw i32 %24, 3
  %26 = lshr i32 67240962, %25
  %27 = trunc i32 %26 to i8
  %28 = getelementptr inbounds i8, i8* %1, i64 1
  %29 = load i8, i8* %28, align 1
  br label %30

30:                                               ; preds = %23, %3
  %31 = phi i8 [ %27, %23 ], [ 1, %3 ]
  %32 = phi i32 [ 1, %23 ], [ 0, %3 ]
  %33 = phi i8 [ %29, %23 ], [ %21, %3 ]
  %34 = bitcast %"class.std::__1::basic_ios"* %5 to i8*
  call void @llvm.lifetime.start.p0i8(i64 152, i8* nonnull %34) #9
  %35 = getelementptr inbounds %"class.std::__1::basic_ios", %"class.std::__1::basic_ios"* %5, i64 0, i32 0
  %36 = getelementptr inbounds %"class.std::__1::basic_ios", %"class.std::__1::basic_ios"* %5, i64 0, i32 0, i32 0
  store i32 (...)** bitcast (i8** getelementptr inbounds ({ [4 x i8*] }, { [4 x i8*] }* @_ZTVNSt3__19basic_iosIcNS_11char_traitsIcEEEE, i64 0, inrange i32 0, i64 2) to i32 (...)**), i32 (...)*** %36, align 8
  call void @_ZNSt3__18ios_base4initEPv(%"class.std::__1::ios_base"* nonnull %35, i8* null) #9
  %37 = getelementptr inbounds %"class.std::__1::basic_ios", %"class.std::__1::basic_ios"* %5, i64 0, i32 1
  store %"class.std::__1::basic_ostream"* null, %"class.std::__1::basic_ostream"** %37, align 8
  %38 = getelementptr inbounds %"class.std::__1::basic_ios", %"class.std::__1::basic_ios"* %5, i64 0, i32 2
  store i32 -1, i32* %38, align 8
  %39 = call dereferenceable(152) %"class.std::__1::basic_ios"* @_ZNSt3__19basic_iosIcNS_11char_traitsIcEEE7copyfmtERKS3_(%"class.std::__1::basic_ios"* nonnull %5, %"class.std::__1::basic_ios"* nonnull dereferenceable(152) %5) #9
  %40 = bitcast %"class.std::__1::basic_ostream"* %0 to i8**
  %41 = load i8*, i8** %40, align 8
  %42 = getelementptr i8, i8* %41, i64 -24
  %43 = bitcast i8* %42 to i64*
  %44 = load i64, i64* %43, align 8
  %45 = bitcast %"class.std::__1::basic_ostream"* %0 to i8*
  %46 = getelementptr inbounds i8, i8* %45, i64 %44
  %47 = getelementptr inbounds i8, i8* %46, i64 144
  %48 = bitcast i8* %47 to i32*
  store i32 48, i32* %48, align 8
  %49 = load i8*, i8** %40, align 8
  %50 = getelementptr i8, i8* %49, i64 -24
  %51 = bitcast i8* %50 to i64*
  %52 = load i64, i64* %51, align 8
  %53 = getelementptr inbounds i8, i8* %45, i64 %52
  %54 = getelementptr inbounds i8, i8* %53, i64 8
  %55 = bitcast i8* %54 to i32*
  store i32 8, i32* %55, align 8
  %56 = lshr i8 %31, 1
  %57 = zext i8 %56 to i64
  %58 = zext i8 %33 to i64
  %59 = getelementptr inbounds [3 x [197 x i8]], [3 x [197 x i8]]* @_ZN2v88internal11interpreter9Bytecodes14kBytecodeSizesE, i64 0, i64 %57, i64 %58
  %60 = load i8, i8* %59, align 1
  %61 = zext i8 %60 to i32
  %62 = add nuw nsw i32 %32, %61
  %63 = icmp eq i32 %62, 0
  %64 = load i8*, i8** %40, align 8
  %65 = getelementptr i8, i8* %64, i64 -24
  %66 = bitcast i8* %65 to i64*
  %67 = load i64, i64* %66, align 8
  br i1 %63, label %68, label %72

68:                                               ; preds = %30
  %69 = getelementptr inbounds i8, i8* %45, i64 %67
  %70 = bitcast i8* %69 to %"class.std::__1::basic_ios"*
  %71 = call dereferenceable(152) %"class.std::__1::basic_ios"* @_ZNSt3__19basic_iosIcNS_11char_traitsIcEEE7copyfmtERKS3_(%"class.std::__1::basic_ios"* %70, %"class.std::__1::basic_ios"* nonnull dereferenceable(152) %5) #9
  br label %81

72:                                               ; preds = %30
  %73 = zext i32 %62 to i64
  %74 = getelementptr inbounds %"class.std::__1::basic_ostream", %"class.std::__1::basic_ostream"* %0, i64 0, i32 1, i32 0, i32 2
  %75 = bitcast i64* %74 to i8*
  br label %82

76:                                               ; preds = %82
  %77 = getelementptr inbounds i8, i8* %45, i64 %96
  %78 = bitcast i8* %77 to %"class.std::__1::basic_ios"*
  %79 = call dereferenceable(152) %"class.std::__1::basic_ios"* @_ZNSt3__19basic_iosIcNS_11char_traitsIcEEE7copyfmtERKS3_(%"class.std::__1::basic_ios"* %78, %"class.std::__1::basic_ios"* nonnull dereferenceable(152) %5) #9
  %80 = icmp ult i32 %62, 6
  br i1 %80, label %81, label %98

81:                                               ; preds = %68, %76
  br label %119

82:                                               ; preds = %82, %72
  %83 = phi i64 [ 0, %72 ], [ %92, %82 ]
  %84 = phi i64 [ %67, %72 ], [ %96, %82 ]
  %85 = getelementptr inbounds i8, i8* %75, i64 %84
  %86 = bitcast i8* %85 to i64*
  store i64 2, i64* %86, align 8
  %87 = getelementptr inbounds i8, i8* %1, i64 %83
  %88 = load i8, i8* %87, align 1
  %89 = zext i8 %88 to i32
  %90 = call dereferenceable(160) %"class.std::__1::basic_ostream"* @_ZNSt3__113basic_ostreamIcNS_11char_traitsIcEEElsEj(%"class.std::__1::basic_ostream"* %0, i32 %89) #9
  call void @llvm.lifetime.start.p0i8(i64 1, i8* nonnull %4)
  store i8 32, i8* %4, align 1
  %91 = call dereferenceable(160) %"class.std::__1::basic_ostream"* @_ZNSt3__124__put_character_sequenceIcNS_11char_traitsIcEEEERNS_13basic_ostreamIT_T0_EES7_PKS4_m(%"class.std::__1::basic_ostream"* dereferenceable(160) %90, i8* nonnull %4, i64 1) #9
  call void @llvm.lifetime.end.p0i8(i64 1, i8* nonnull %4)
  %92 = add nuw nsw i64 %83, 1
  %93 = load i8*, i8** %40, align 8
  %94 = getelementptr i8, i8* %93, i64 -24
  %95 = bitcast i8* %94 to i64*
  %96 = load i64, i64* %95, align 8
  %97 = icmp eq i64 %92, %73
  br i1 %97, label %76, label %82

98:                                               ; preds = %119, %76
  %99 = bitcast %"class.std::__1::basic_string"* %6 to i8*
  call void @llvm.lifetime.start.p0i8(i64 24, i8* nonnull %99) #9
  call void @_ZN2v88internal11interpreter9Bytecodes8ToStringENS1_8BytecodeENS1_12OperandScaleEPKc(%"class.std::__1::basic_string"* nonnull sret %6, i8 zeroext %33, i8 zeroext %31, i8* getelementptr inbounds ([2 x i8], [2 x i8]* @.str.2, i64 0, i64 0)) #9
  %100 = bitcast %"class.std::__1::basic_string"* %6 to %"struct.std::__1::basic_string<char, std::__1::char_traits<char>, std::__1::allocator<char> >::__short"*
  %101 = getelementptr inbounds %"struct.std::__1::basic_string<char, std::__1::char_traits<char>, std::__1::allocator<char> >::__short", %"struct.std::__1::basic_string<char, std::__1::char_traits<char>, std::__1::allocator<char> >::__short"* %100, i64 0, i32 1, i32 0
  %102 = load i8, i8* %101, align 1
  %103 = icmp slt i8 %102, 0
  %104 = getelementptr inbounds %"class.std::__1::basic_string", %"class.std::__1::basic_string"* %6, i64 0, i32 0, i32 0, i32 0, i32 0, i32 0, i32 0
  %105 = load i8*, i8** %104, align 8
  %106 = getelementptr inbounds %"class.std::__1::basic_string", %"class.std::__1::basic_string"* %6, i64 0, i32 0, i32 0, i32 0, i32 0, i32 0, i32 1
  %107 = load i64, i64* %106, align 8
  %108 = zext i8 %102 to i64
  %109 = select i1 %103, i8* %105, i8* %99
  %110 = select i1 %103, i64 %107, i64 %108
  %111 = call dereferenceable(160) %"class.std::__1::basic_ostream"* @_ZNSt3__124__put_character_sequenceIcNS_11char_traitsIcEEEERNS_13basic_ostreamIT_T0_EES7_PKS4_m(%"class.std::__1::basic_ostream"* dereferenceable(160) %0, i8* %109, i64 %110) #9
  %112 = call dereferenceable(160) %"class.std::__1::basic_ostream"* @_ZNSt3__124__put_character_sequenceIcNS_11char_traitsIcEEEERNS_13basic_ostreamIT_T0_EES7_PKS4_m(%"class.std::__1::basic_ostream"* dereferenceable(160) %111, i8* getelementptr inbounds ([2 x i8], [2 x i8]* @.str.3, i64 0, i64 0), i64 1) #9
  %113 = load i8, i8* %101, align 1
  %114 = icmp slt i8 %113, 0
  br i1 %114, label %115, label %117

115:                                              ; preds = %98
  %116 = load i8*, i8** %104, align 8
  call void @_ZdlPv(i8* %116) #10
  br label %117

117:                                              ; preds = %98, %115
  call void @llvm.lifetime.end.p0i8(i64 24, i8* nonnull %99) #9
  %118 = call zeroext i1 @_ZN2v88internal11interpreter9Bytecodes12IsDebugBreakENS1_8BytecodeE(i8 zeroext %33) #9
  br i1 %118, label %524, label %124

119:                                              ; preds = %81, %119
  %120 = phi i32 [ %122, %119 ], [ %62, %81 ]
  %121 = call dereferenceable(160) %"class.std::__1::basic_ostream"* @_ZNSt3__124__put_character_sequenceIcNS_11char_traitsIcEEEERNS_13basic_ostreamIT_T0_EES7_PKS4_m(%"class.std::__1::basic_ostream"* dereferenceable(160) %0, i8* getelementptr inbounds ([4 x i8], [4 x i8]* @.str.1, i64 0, i64 0), i64 3) #9
  %122 = add nuw nsw i32 %120, 1
  %123 = icmp eq i32 %122, 6
  br i1 %123, label %98, label %119

124:                                              ; preds = %117
  %125 = getelementptr inbounds [0 x i32], [0 x i32]* @_ZN2v88internal11interpreter9Bytecodes13kOperandCountE, i64 0, i64 %58
  %126 = load i32, i32* %125, align 4
  %127 = icmp sgt i32 %126, 0
  br i1 %127, label %128, label %524

128:                                              ; preds = %124
  %129 = getelementptr inbounds [0 x i8*], [0 x i8*]* @_ZN2v88internal11interpreter9Bytecodes13kOperandTypesE, i64 0, i64 %58
  %130 = load i8*, i8** %129, align 8
  %131 = getelementptr inbounds [3 x [16 x i8]], [3 x [16 x i8]]* @_ZN2v88internal11interpreter9Bytecodes17kOperandKindSizesE, i64 0, i64 %57, i64 7
  %132 = bitcast %"class.std::__1::basic_string"* %17 to i8*
  %133 = bitcast %"class.v8::internal::interpreter::Register"* %18 to i8*
  %134 = getelementptr inbounds %"class.v8::internal::interpreter::Register", %"class.v8::internal::interpreter::Register"* %18, i64 0, i32 0
  %135 = bitcast %"class.std::__1::basic_string"* %17 to %"struct.std::__1::basic_string<char, std::__1::char_traits<char>, std::__1::allocator<char> >::__short"*
  %136 = getelementptr inbounds %"struct.std::__1::basic_string<char, std::__1::char_traits<char>, std::__1::allocator<char> >::__short", %"struct.std::__1::basic_string<char, std::__1::char_traits<char>, std::__1::allocator<char> >::__short"* %135, i64 0, i32 1, i32 0
  %137 = getelementptr inbounds %"class.std::__1::basic_string", %"class.std::__1::basic_string"* %17, i64 0, i32 0, i32 0, i32 0, i32 0, i32 0, i32 0
  %138 = getelementptr inbounds %"class.std::__1::basic_string", %"class.std::__1::basic_string"* %17, i64 0, i32 0, i32 0, i32 0, i32 0, i32 0, i32 1
  %139 = bitcast %"class.std::__1::basic_string"* %19 to i8*
  %140 = bitcast %"class.v8::internal::interpreter::Register"* %20 to i8*
  %141 = getelementptr inbounds %"class.v8::internal::interpreter::Register", %"class.v8::internal::interpreter::Register"* %20, i64 0, i32 0
  %142 = bitcast %"class.std::__1::basic_string"* %19 to %"struct.std::__1::basic_string<char, std::__1::char_traits<char>, std::__1::allocator<char> >::__short"*
  %143 = getelementptr inbounds %"struct.std::__1::basic_string<char, std::__1::char_traits<char>, std::__1::allocator<char> >::__short", %"struct.std::__1::basic_string<char, std::__1::char_traits<char>, std::__1::allocator<char> >::__short"* %142, i64 0, i32 1, i32 0
  %144 = getelementptr inbounds %"class.std::__1::basic_string", %"class.std::__1::basic_string"* %19, i64 0, i32 0, i32 0, i32 0, i32 0, i32 0, i32 0
  %145 = getelementptr inbounds %"class.std::__1::basic_string", %"class.std::__1::basic_string"* %19, i64 0, i32 0, i32 0, i32 0, i32 0, i32 0, i32 1
  %146 = bitcast %"class.std::__1::basic_string"* %13 to i8*
  %147 = bitcast %"class.v8::internal::interpreter::Register"* %14 to i8*
  %148 = getelementptr inbounds %"class.v8::internal::interpreter::Register", %"class.v8::internal::interpreter::Register"* %14, i64 0, i32 0
  %149 = bitcast %"class.std::__1::basic_string"* %13 to %"struct.std::__1::basic_string<char, std::__1::char_traits<char>, std::__1::allocator<char> >::__short"*
  %150 = getelementptr inbounds %"struct.std::__1::basic_string<char, std::__1::char_traits<char>, std::__1::allocator<char> >::__short", %"struct.std::__1::basic_string<char, std::__1::char_traits<char>, std::__1::allocator<char> >::__short"* %149, i64 0, i32 1, i32 0
  %151 = getelementptr inbounds %"class.std::__1::basic_string", %"class.std::__1::basic_string"* %13, i64 0, i32 0, i32 0, i32 0, i32 0, i32 0, i32 0
  %152 = getelementptr inbounds %"class.std::__1::basic_string", %"class.std::__1::basic_string"* %13, i64 0, i32 0, i32 0, i32 0, i32 0, i32 0, i32 1
  %153 = bitcast %"class.std::__1::basic_string"* %15 to i8*
  %154 = bitcast %"class.v8::internal::interpreter::Register"* %16 to i8*
  %155 = getelementptr inbounds %"class.v8::internal::interpreter::Register", %"class.v8::internal::interpreter::Register"* %16, i64 0, i32 0
  %156 = bitcast %"class.std::__1::basic_string"* %15 to %"struct.std::__1::basic_string<char, std::__1::char_traits<char>, std::__1::allocator<char> >::__short"*
  %157 = getelementptr inbounds %"struct.std::__1::basic_string<char, std::__1::char_traits<char>, std::__1::allocator<char> >::__short", %"struct.std::__1::basic_string<char, std::__1::char_traits<char>, std::__1::allocator<char> >::__short"* %156, i64 0, i32 1, i32 0
  %158 = getelementptr inbounds %"class.std::__1::basic_string", %"class.std::__1::basic_string"* %15, i64 0, i32 0, i32 0, i32 0, i32 0, i32 0, i32 0
  %159 = getelementptr inbounds %"class.std::__1::basic_string", %"class.std::__1::basic_string"* %15, i64 0, i32 0, i32 0, i32 0, i32 0, i32 0, i32 1
  %160 = bitcast %"class.std::__1::basic_string"* %9 to i8*
  %161 = bitcast %"class.v8::internal::interpreter::Register"* %10 to i8*
  %162 = getelementptr inbounds %"class.v8::internal::interpreter::Register", %"class.v8::internal::interpreter::Register"* %10, i64 0, i32 0
  %163 = bitcast %"class.std::__1::basic_string"* %9 to %"struct.std::__1::basic_string<char, std::__1::char_traits<char>, std::__1::allocator<char> >::__short"*
  %164 = getelementptr inbounds %"struct.std::__1::basic_string<char, std::__1::char_traits<char>, std::__1::allocator<char> >::__short", %"struct.std::__1::basic_string<char, std::__1::char_traits<char>, std::__1::allocator<char> >::__short"* %163, i64 0, i32 1, i32 0
  %165 = getelementptr inbounds %"class.std::__1::basic_string", %"class.std::__1::basic_string"* %9, i64 0, i32 0, i32 0, i32 0, i32 0, i32 0, i32 0
  %166 = getelementptr inbounds %"class.std::__1::basic_string", %"class.std::__1::basic_string"* %9, i64 0, i32 0, i32 0, i32 0, i32 0, i32 0, i32 1
  %167 = bitcast %"class.std::__1::basic_string"* %11 to i8*
  %168 = bitcast %"class.v8::internal::interpreter::Register"* %12 to i8*
  %169 = getelementptr inbounds %"class.v8::internal::interpreter::Register", %"class.v8::internal::interpreter::Register"* %12, i64 0, i32 0
  %170 = bitcast %"class.std::__1::basic_string"* %11 to %"struct.std::__1::basic_string<char, std::__1::char_traits<char>, std::__1::allocator<char> >::__short"*
  %171 = getelementptr inbounds %"struct.std::__1::basic_string<char, std::__1::char_traits<char>, std::__1::allocator<char> >::__short", %"struct.std::__1::basic_string<char, std::__1::char_traits<char>, std::__1::allocator<char> >::__short"* %170, i64 0, i32 1, i32 0
  %172 = getelementptr inbounds %"class.std::__1::basic_string", %"class.std::__1::basic_string"* %11, i64 0, i32 0, i32 0, i32 0, i32 0, i32 0, i32 0
  %173 = getelementptr inbounds %"class.std::__1::basic_string", %"class.std::__1::basic_string"* %11, i64 0, i32 0, i32 0, i32 0, i32 0, i32 0, i32 1
  %174 = bitcast %"class.v8::internal::interpreter::Register"* %7 to i8*
  %175 = getelementptr inbounds %"class.v8::internal::interpreter::Register", %"class.v8::internal::interpreter::Register"* %7, i64 0, i32 0
  %176 = bitcast %"class.std::__1::basic_string"* %8 to i8*
  %177 = bitcast %"class.std::__1::basic_string"* %8 to %"struct.std::__1::basic_string<char, std::__1::char_traits<char>, std::__1::allocator<char> >::__short"*
  %178 = getelementptr inbounds %"struct.std::__1::basic_string<char, std::__1::char_traits<char>, std::__1::allocator<char> >::__short", %"struct.std::__1::basic_string<char, std::__1::char_traits<char>, std::__1::allocator<char> >::__short"* %177, i64 0, i32 1, i32 0
  %179 = getelementptr inbounds %"class.std::__1::basic_string", %"class.std::__1::basic_string"* %8, i64 0, i32 0, i32 0, i32 0, i32 0, i32 0, i32 0
  %180 = getelementptr inbounds %"class.std::__1::basic_string", %"class.std::__1::basic_string"* %8, i64 0, i32 0, i32 0, i32 0, i32 0, i32 0, i32 1
  %181 = add nsw i32 %126, -1
  %182 = getelementptr inbounds [3 x [16 x i8]], [3 x [16 x i8]]* @_ZN2v88internal11interpreter9Bytecodes17kOperandKindSizesE, i64 0, i64 %57, i64 15
  %183 = getelementptr inbounds [3 x [16 x i8]], [3 x [16 x i8]]* @_ZN2v88internal11interpreter9Bytecodes17kOperandKindSizesE, i64 0, i64 %57, i64 1
  %184 = getelementptr inbounds [3 x [16 x i8]], [3 x [16 x i8]]* @_ZN2v88internal11interpreter9Bytecodes17kOperandKindSizesE, i64 0, i64 %57, i64 8
  %185 = getelementptr inbounds [3 x [16 x i8]], [3 x [16 x i8]]* @_ZN2v88internal11interpreter9Bytecodes17kOperandKindSizesE, i64 0, i64 %57, i64 3
  %186 = getelementptr inbounds [3 x [16 x i8]], [3 x [16 x i8]]* @_ZN2v88internal11interpreter9Bytecodes17kOperandKindSizesE, i64 0, i64 %57, i64 4
  %187 = getelementptr inbounds [3 x [16 x i8]], [3 x [16 x i8]]* @_ZN2v88internal11interpreter9Bytecodes17kOperandKindSizesE, i64 0, i64 %57, i64 2
  br label %188

188:                                              ; preds = %128, %521
  %189 = phi i32 [ 0, %128 ], [ %522, %521 ]
  %190 = sext i32 %189 to i64
  %191 = getelementptr inbounds i8, i8* %130, i64 %190
  %192 = load i8, i8* %191, align 1
  %193 = call i32 @_ZN2v88internal11interpreter9Bytecodes16GetOperandOffsetENS1_8BytecodeEiNS1_12OperandScaleE(i8 zeroext %33, i32 %189, i8 zeroext %31) #9
  %194 = add nsw i32 %193, %32
  %195 = sext i32 %194 to i64
  %196 = getelementptr inbounds i8, i8* %1, i64 %195
  switch i8 %192, label %516 [
    i8 5, label %197
    i8 6, label %197
    i8 2, label %217
    i8 4, label %240
    i8 3, label %268
    i8 8, label %290
    i8 1, label %308
    i8 9, label %325
    i8 12, label %325
    i8 15, label %356
    i8 14, label %400
    i8 11, label %400
    i8 13, label %446
    i8 10, label %446
    i8 0, label %515
    i8 7, label %515
  ]

197:                                              ; preds = %188, %188
  %198 = call dereferenceable(160) %"class.std::__1::basic_ostream"* @_ZNSt3__124__put_character_sequenceIcNS_11char_traitsIcEEEERNS_13basic_ostreamIT_T0_EES7_PKS4_m(%"class.std::__1::basic_ostream"* dereferenceable(160) %0, i8* getelementptr inbounds ([2 x i8], [2 x i8]* @.str.4, i64 0, i64 0), i64 1) #9
  %199 = zext i8 %192 to i64
  %200 = getelementptr inbounds [3 x [16 x i8]], [3 x [16 x i8]]* @_ZN2v88internal11interpreter9Bytecodes17kOperandKindSizesE, i64 0, i64 %57, i64 %199
  %201 = load i8, i8* %200, align 1
  switch i8 %201, label %213 [
    i8 1, label %202
    i8 2, label %205
    i8 4, label %209
    i8 0, label %212
  ]

202:                                              ; preds = %197
  %203 = load i8, i8* %196, align 1
  %204 = zext i8 %203 to i32
  br label %213

205:                                              ; preds = %197
  %206 = bitcast i8* %196 to i16*
  %207 = load i16, i16* %206, align 1
  %208 = zext i16 %207 to i32
  br label %213

209:                                              ; preds = %197
  %210 = bitcast i8* %196 to i32*
  %211 = load i32, i32* %210, align 1
  br label %213

212:                                              ; preds = %197
  call void (i8*, ...) @_Z8V8_FatalPKcz(i8* getelementptr inbounds ([17 x i8], [17 x i8]* @.str, i64 0, i64 0)) #8
  unreachable

213:                                              ; preds = %197, %202, %205, %209
  %214 = phi i32 [ %211, %209 ], [ %208, %205 ], [ %204, %202 ], [ 0, %197 ]
  %215 = call dereferenceable(160) %"class.std::__1::basic_ostream"* @_ZNSt3__113basic_ostreamIcNS_11char_traitsIcEEElsEj(%"class.std::__1::basic_ostream"* %198, i32 %214) #9
  %216 = call dereferenceable(160) %"class.std::__1::basic_ostream"* @_ZNSt3__124__put_character_sequenceIcNS_11char_traitsIcEEEERNS_13basic_ostreamIT_T0_EES7_PKS4_m(%"class.std::__1::basic_ostream"* dereferenceable(160) %215, i8* getelementptr inbounds ([2 x i8], [2 x i8]* @.str.5, i64 0, i64 0), i64 1) #9
  br label %516

217:                                              ; preds = %188
  %218 = load i8, i8* %187, align 2
  switch i8 %218, label %230 [
    i8 1, label %219
    i8 2, label %222
    i8 4, label %226
    i8 0, label %229
  ]

219:                                              ; preds = %217
  %220 = load i8, i8* %196, align 1
  %221 = zext i8 %220 to i32
  br label %230

222:                                              ; preds = %217
  %223 = bitcast i8* %196 to i16*
  %224 = load i16, i16* %223, align 1
  %225 = zext i16 %224 to i32
  br label %230

226:                                              ; preds = %217
  %227 = bitcast i8* %196 to i32*
  %228 = load i32, i32* %227, align 1
  br label %230

229:                                              ; preds = %217
  call void (i8*, ...) @_Z8V8_FatalPKcz(i8* getelementptr inbounds ([17 x i8], [17 x i8]* @.str, i64 0, i64 0)) #8
  unreachable

230:                                              ; preds = %217, %219, %222, %226
  %231 = phi i32 [ %228, %226 ], [ %225, %222 ], [ %221, %219 ], [ 0, %217 ]
  %232 = call dereferenceable(160) %"class.std::__1::basic_ostream"* @_ZNSt3__124__put_character_sequenceIcNS_11char_traitsIcEEEERNS_13basic_ostreamIT_T0_EES7_PKS4_m(%"class.std::__1::basic_ostream"* dereferenceable(160) %0, i8* getelementptr inbounds ([2 x i8], [2 x i8]* @.str.4, i64 0, i64 0), i64 1) #9
  %233 = call i32 @_ZN2v88internal11interpreter16IntrinsicsHelper11ToRuntimeIdENS2_11IntrinsicIdE(i32 %231) #9
  %234 = call %"struct.v8::internal::Runtime::Function"* @_ZN2v88internal7Runtime13FunctionForIdENS1_10FunctionIdE(i32 %233) #9
  %235 = getelementptr inbounds %"struct.v8::internal::Runtime::Function", %"struct.v8::internal::Runtime::Function"* %234, i64 0, i32 2
  %236 = load i8*, i8** %235, align 8
  %237 = call i64 @strlen(i8* %236) #9
  %238 = call dereferenceable(160) %"class.std::__1::basic_ostream"* @_ZNSt3__124__put_character_sequenceIcNS_11char_traitsIcEEEERNS_13basic_ostreamIT_T0_EES7_PKS4_m(%"class.std::__1::basic_ostream"* dereferenceable(160) %232, i8* %236, i64 %237) #9
  %239 = call dereferenceable(160) %"class.std::__1::basic_ostream"* @_ZNSt3__124__put_character_sequenceIcNS_11char_traitsIcEEEERNS_13basic_ostreamIT_T0_EES7_PKS4_m(%"class.std::__1::basic_ostream"* dereferenceable(160) %238, i8* getelementptr inbounds ([2 x i8], [2 x i8]* @.str.5, i64 0, i64 0), i64 1) #9
  br label %516

240:                                              ; preds = %188
  %241 = load i8, i8* %186, align 4
  switch i8 %241, label %242 [
    i8 1, label %244
    i8 2, label %247
    i8 4, label %251
    i8 0, label %254
  ]

242:                                              ; preds = %240
  %243 = call dereferenceable(160) %"class.std::__1::basic_ostream"* @_ZNSt3__124__put_character_sequenceIcNS_11char_traitsIcEEEERNS_13basic_ostreamIT_T0_EES7_PKS4_m(%"class.std::__1::basic_ostream"* dereferenceable(160) %0, i8* getelementptr inbounds ([2 x i8], [2 x i8]* @.str.4, i64 0, i64 0), i64 1) #9
  br label %260

244:                                              ; preds = %240
  %245 = load i8, i8* %196, align 1
  %246 = zext i8 %245 to i32
  br label %255

247:                                              ; preds = %240
  %248 = bitcast i8* %196 to i16*
  %249 = load i16, i16* %248, align 1
  %250 = zext i16 %249 to i32
  br label %255

251:                                              ; preds = %240
  %252 = bitcast i8* %196 to i32*
  %253 = load i32, i32* %252, align 1
  br label %255

254:                                              ; preds = %240
  call void (i8*, ...) @_Z8V8_FatalPKcz(i8* getelementptr inbounds ([17 x i8], [17 x i8]* @.str, i64 0, i64 0)) #8
  unreachable

255:                                              ; preds = %244, %247, %251
  %256 = phi i32 [ %253, %251 ], [ %250, %247 ], [ %246, %244 ]
  %257 = call dereferenceable(160) %"class.std::__1::basic_ostream"* @_ZNSt3__124__put_character_sequenceIcNS_11char_traitsIcEEEERNS_13basic_ostreamIT_T0_EES7_PKS4_m(%"class.std::__1::basic_ostream"* dereferenceable(160) %0, i8* getelementptr inbounds ([2 x i8], [2 x i8]* @.str.4, i64 0, i64 0), i64 1) #9
  %258 = add i32 %256, -3
  %259 = icmp ult i32 %258, 249
  br i1 %259, label %261, label %260

260:                                              ; preds = %255, %242
  call void (i8*, ...) @_Z8V8_FatalPKcz(i8* getelementptr inbounds ([17 x i8], [17 x i8]* @.str, i64 0, i64 0)) #8
  unreachable

261:                                              ; preds = %255
  %262 = sext i32 %258 to i64
  %263 = getelementptr inbounds [249 x i8*], [249 x i8*]* @switch.table._ZN2v88internal11interpreter15BytecodeDecoder6DecodeERNSt3__113basic_ostreamIcNS3_11char_traitsIcEEEEPKhi, i64 0, i64 %262
  %264 = load i8*, i8** %263, align 8
  %265 = call i64 @strlen(i8* nonnull %264) #9
  %266 = call dereferenceable(160) %"class.std::__1::basic_ostream"* @_ZNSt3__124__put_character_sequenceIcNS_11char_traitsIcEEEERNS_13basic_ostreamIT_T0_EES7_PKS4_m(%"class.std::__1::basic_ostream"* dereferenceable(160) %257, i8* nonnull %264, i64 %265) #9
  %267 = call dereferenceable(160) %"class.std::__1::basic_ostream"* @_ZNSt3__124__put_character_sequenceIcNS_11char_traitsIcEEEERNS_13basic_ostreamIT_T0_EES7_PKS4_m(%"class.std::__1::basic_ostream"* dereferenceable(160) %266, i8* getelementptr inbounds ([2 x i8], [2 x i8]* @.str.5, i64 0, i64 0), i64 1) #9
  br label %516

268:                                              ; preds = %188
  %269 = call dereferenceable(160) %"class.std::__1::basic_ostream"* @_ZNSt3__124__put_character_sequenceIcNS_11char_traitsIcEEEERNS_13basic_ostreamIT_T0_EES7_PKS4_m(%"class.std::__1::basic_ostream"* dereferenceable(160) %0, i8* getelementptr inbounds ([2 x i8], [2 x i8]* @.str.4, i64 0, i64 0), i64 1) #9
  %270 = load i8, i8* %185, align 1
  switch i8 %270, label %282 [
    i8 1, label %271
    i8 2, label %274
    i8 4, label %278
    i8 0, label %281
  ]

271:                                              ; preds = %268
  %272 = load i8, i8* %196, align 1
  %273 = zext i8 %272 to i32
  br label %282

274:                                              ; preds = %268
  %275 = bitcast i8* %196 to i16*
  %276 = load i16, i16* %275, align 1
  %277 = zext i16 %276 to i32
  br label %282

278:                                              ; preds = %268
  %279 = bitcast i8* %196 to i32*
  %280 = load i32, i32* %279, align 1
  br label %282

281:                                              ; preds = %268
  call void (i8*, ...) @_Z8V8_FatalPKcz(i8* getelementptr inbounds ([17 x i8], [17 x i8]* @.str, i64 0, i64 0)) #8
  unreachable

282:                                              ; preds = %268, %271, %274, %278
  %283 = phi i32 [ %280, %278 ], [ %277, %274 ], [ %273, %271 ], [ 0, %268 ]
  %284 = call %"struct.v8::internal::Runtime::Function"* @_ZN2v88internal7Runtime13FunctionForIdENS1_10FunctionIdE(i32 %283) #9
  %285 = getelementptr inbounds %"struct.v8::internal::Runtime::Function", %"struct.v8::internal::Runtime::Function"* %284, i64 0, i32 2
  %286 = load i8*, i8** %285, align 8
  %287 = call i64 @strlen(i8* %286) #9
  %288 = call dereferenceable(160) %"class.std::__1::basic_ostream"* @_ZNSt3__124__put_character_sequenceIcNS_11char_traitsIcEEEERNS_13basic_ostreamIT_T0_EES7_PKS4_m(%"class.std::__1::basic_ostream"* dereferenceable(160) %269, i8* %286, i64 %287) #9
  %289 = call dereferenceable(160) %"class.std::__1::basic_ostream"* @_ZNSt3__124__put_character_sequenceIcNS_11char_traitsIcEEEERNS_13basic_ostreamIT_T0_EES7_PKS4_m(%"class.std::__1::basic_ostream"* dereferenceable(160) %288, i8* getelementptr inbounds ([2 x i8], [2 x i8]* @.str.5, i64 0, i64 0), i64 1) #9
  br label %516

290:                                              ; preds = %188
  %291 = call dereferenceable(160) %"class.std::__1::basic_ostream"* @_ZNSt3__124__put_character_sequenceIcNS_11char_traitsIcEEEERNS_13basic_ostreamIT_T0_EES7_PKS4_m(%"class.std::__1::basic_ostream"* dereferenceable(160) %0, i8* getelementptr inbounds ([2 x i8], [2 x i8]* @.str.4, i64 0, i64 0), i64 1) #9
  %292 = load i8, i8* %184, align 8
  switch i8 %292, label %304 [
    i8 1, label %293
    i8 2, label %296
    i8 4, label %300
    i8 0, label %303
  ]

293:                                              ; preds = %290
  %294 = load i8, i8* %196, align 1
  %295 = sext i8 %294 to i32
  br label %304

296:                                              ; preds = %290
  %297 = bitcast i8* %196 to i16*
  %298 = load i16, i16* %297, align 1
  %299 = sext i16 %298 to i32
  br label %304

300:                                              ; preds = %290
  %301 = bitcast i8* %196 to i32*
  %302 = load i32, i32* %301, align 1
  br label %304

303:                                              ; preds = %290
  call void (i8*, ...) @_Z8V8_FatalPKcz(i8* getelementptr inbounds ([17 x i8], [17 x i8]* @.str, i64 0, i64 0)) #8
  unreachable

304:                                              ; preds = %290, %293, %296, %300
  %305 = phi i32 [ %302, %300 ], [ %299, %296 ], [ %295, %293 ], [ 0, %290 ]
  %306 = call dereferenceable(160) %"class.std::__1::basic_ostream"* @_ZNSt3__113basic_ostreamIcNS_11char_traitsIcEEElsEi(%"class.std::__1::basic_ostream"* %291, i32 %305) #9
  %307 = call dereferenceable(160) %"class.std::__1::basic_ostream"* @_ZNSt3__124__put_character_sequenceIcNS_11char_traitsIcEEEERNS_13basic_ostreamIT_T0_EES7_PKS4_m(%"class.std::__1::basic_ostream"* dereferenceable(160) %306, i8* getelementptr inbounds ([2 x i8], [2 x i8]* @.str.5, i64 0, i64 0), i64 1) #9
  br label %516

308:                                              ; preds = %188
  %309 = call dereferenceable(160) %"class.std::__1::basic_ostream"* @_ZNSt3__124__put_character_sequenceIcNS_11char_traitsIcEEEERNS_13basic_ostreamIT_T0_EES7_PKS4_m(%"class.std::__1::basic_ostream"* dereferenceable(160) %0, i8* getelementptr inbounds ([2 x i8], [2 x i8]* @.str.6, i64 0, i64 0), i64 1) #9
  %310 = load i8, i8* %183, align 1
  switch i8 %310, label %322 [
    i8 1, label %311
    i8 2, label %314
    i8 4, label %318
    i8 0, label %321
  ]

311:                                              ; preds = %308
  %312 = load i8, i8* %196, align 1
  %313 = zext i8 %312 to i32
  br label %322

314:                                              ; preds = %308
  %315 = bitcast i8* %196 to i16*
  %316 = load i16, i16* %315, align 1
  %317 = zext i16 %316 to i32
  br label %322

318:                                              ; preds = %308
  %319 = bitcast i8* %196 to i32*
  %320 = load i32, i32* %319, align 1
  br label %322

321:                                              ; preds = %308
  call void (i8*, ...) @_Z8V8_FatalPKcz(i8* getelementptr inbounds ([17 x i8], [17 x i8]* @.str, i64 0, i64 0)) #8
  unreachable

322:                                              ; preds = %308, %311, %314, %318
  %323 = phi i32 [ %320, %318 ], [ %317, %314 ], [ %313, %311 ], [ 0, %308 ]
  %324 = call dereferenceable(160) %"class.std::__1::basic_ostream"* @_ZNSt3__113basic_ostreamIcNS_11char_traitsIcEEElsEj(%"class.std::__1::basic_ostream"* %309, i32 %323) #9
  br label %516

325:                                              ; preds = %188, %188
  call void @llvm.lifetime.start.p0i8(i64 4, i8* nonnull %174) #9
  %326 = zext i8 %192 to i64
  %327 = getelementptr inbounds [3 x [16 x i8]], [3 x [16 x i8]]* @_ZN2v88internal11interpreter9Bytecodes17kOperandKindSizesE, i64 0, i64 %57, i64 %326
  %328 = load i8, i8* %327, align 1
  switch i8 %328, label %340 [
    i8 1, label %329
    i8 2, label %332
    i8 4, label %336
    i8 0, label %339
  ]

329:                                              ; preds = %325
  %330 = load i8, i8* %196, align 1
  %331 = sext i8 %330 to i32
  br label %340

332:                                              ; preds = %325
  %333 = bitcast i8* %196 to i16*
  %334 = load i16, i16* %333, align 1
  %335 = sext i16 %334 to i32
  br label %340

336:                                              ; preds = %325
  %337 = bitcast i8* %196 to i32*
  %338 = load i32, i32* %337, align 1
  br label %340

339:                                              ; preds = %325
  call void (i8*, ...) @_Z8V8_FatalPKcz(i8* getelementptr inbounds ([17 x i8], [17 x i8]* @.str, i64 0, i64 0)) #8
  unreachable

340:                                              ; preds = %325, %329, %332, %336
  %341 = phi i32 [ %338, %336 ], [ %335, %332 ], [ %331, %329 ], [ 0, %325 ]
  %342 = sub nsw i32 -6, %341
  store i32 %342, i32* %175, align 4
  call void @llvm.lifetime.start.p0i8(i64 24, i8* nonnull %176) #9
  call void @_ZNK2v88internal11interpreter8Register8ToStringEi(%"class.std::__1::basic_string"* nonnull sret %8, %"class.v8::internal::interpreter::Register"* nonnull %7, i32 %2) #9
  %343 = load i8, i8* %178, align 1
  %344 = icmp slt i8 %343, 0
  %345 = load i8*, i8** %179, align 8
  %346 = load i64, i64* %180, align 8
  %347 = zext i8 %343 to i64
  %348 = select i1 %344, i8* %345, i8* %176
  %349 = select i1 %344, i64 %346, i64 %347
  %350 = call dereferenceable(160) %"class.std::__1::basic_ostream"* @_ZNSt3__124__put_character_sequenceIcNS_11char_traitsIcEEEERNS_13basic_ostreamIT_T0_EES7_PKS4_m(%"class.std::__1::basic_ostream"* dereferenceable(160) %0, i8* %348, i64 %349) #9
  %351 = load i8, i8* %178, align 1
  %352 = icmp slt i8 %351, 0
  br i1 %352, label %353, label %355

353:                                              ; preds = %340
  %354 = load i8*, i8** %179, align 8
  call void @_ZdlPv(i8* %354) #10
  br label %355

355:                                              ; preds = %340, %353
  call void @llvm.lifetime.end.p0i8(i64 24, i8* nonnull %176) #9
  call void @llvm.lifetime.end.p0i8(i64 4, i8* nonnull %174) #9
  br label %516

356:                                              ; preds = %188
  %357 = load i8, i8* %182, align 1
  switch i8 %357, label %369 [
    i8 1, label %358
    i8 2, label %361
    i8 4, label %365
    i8 0, label %368
  ]

358:                                              ; preds = %356
  %359 = load i8, i8* %196, align 1
  %360 = sext i8 %359 to i32
  br label %369

361:                                              ; preds = %356
  %362 = bitcast i8* %196 to i16*
  %363 = load i16, i16* %362, align 1
  %364 = sext i16 %363 to i32
  br label %369

365:                                              ; preds = %356
  %366 = bitcast i8* %196 to i32*
  %367 = load i32, i32* %366, align 1
  br label %369

368:                                              ; preds = %356
  call void (i8*, ...) @_Z8V8_FatalPKcz(i8* getelementptr inbounds ([17 x i8], [17 x i8]* @.str, i64 0, i64 0)) #8
  unreachable

369:                                              ; preds = %356, %358, %361, %365
  %370 = phi i32 [ %367, %365 ], [ %364, %361 ], [ %360, %358 ], [ 0, %356 ]
  %371 = sub nsw i32 -6, %370
  call void @llvm.lifetime.start.p0i8(i64 24, i8* nonnull %160) #9
  call void @llvm.lifetime.start.p0i8(i64 4, i8* nonnull %161) #9
  store i32 %371, i32* %162, align 4
  call void @_ZNK2v88internal11interpreter8Register8ToStringEi(%"class.std::__1::basic_string"* nonnull sret %9, %"class.v8::internal::interpreter::Register"* nonnull %10, i32 %2) #9
  %372 = load i8, i8* %164, align 1
  %373 = icmp slt i8 %372, 0
  %374 = load i8*, i8** %165, align 8
  %375 = load i64, i64* %166, align 8
  %376 = zext i8 %372 to i64
  %377 = select i1 %373, i8* %374, i8* %160
  %378 = select i1 %373, i64 %375, i64 %376
  %379 = call dereferenceable(160) %"class.std::__1::basic_ostream"* @_ZNSt3__124__put_character_sequenceIcNS_11char_traitsIcEEEERNS_13basic_ostreamIT_T0_EES7_PKS4_m(%"class.std::__1::basic_ostream"* dereferenceable(160) %0, i8* %377, i64 %378) #9
  %380 = call dereferenceable(160) %"class.std::__1::basic_ostream"* @_ZNSt3__124__put_character_sequenceIcNS_11char_traitsIcEEEERNS_13basic_ostreamIT_T0_EES7_PKS4_m(%"class.std::__1::basic_ostream"* dereferenceable(160) %379, i8* getelementptr inbounds ([2 x i8], [2 x i8]* @.str.7, i64 0, i64 0), i64 1) #9
  call void @llvm.lifetime.start.p0i8(i64 24, i8* nonnull %167) #9
  call void @llvm.lifetime.start.p0i8(i64 4, i8* nonnull %168) #9
  %381 = sub i32 -4, %370
  store i32 %381, i32* %169, align 4
  call void @_ZNK2v88internal11interpreter8Register8ToStringEi(%"class.std::__1::basic_string"* nonnull sret %11, %"class.v8::internal::interpreter::Register"* nonnull %12, i32 %2) #9
  %382 = load i8, i8* %171, align 1
  %383 = icmp slt i8 %382, 0
  %384 = load i8*, i8** %172, align 8
  %385 = load i64, i64* %173, align 8
  %386 = zext i8 %382 to i64
  %387 = select i1 %383, i8* %384, i8* %167
  %388 = select i1 %383, i64 %385, i64 %386
  %389 = call dereferenceable(160) %"class.std::__1::basic_ostream"* @_ZNSt3__124__put_character_sequenceIcNS_11char_traitsIcEEEERNS_13basic_ostreamIT_T0_EES7_PKS4_m(%"class.std::__1::basic_ostream"* dereferenceable(160) %380, i8* %387, i64 %388) #9
  %390 = load i8, i8* %171, align 1
  %391 = icmp slt i8 %390, 0
  br i1 %391, label %392, label %394

392:                                              ; preds = %369
  %393 = load i8*, i8** %172, align 8
  call void @_ZdlPv(i8* %393) #10
  br label %394

394:                                              ; preds = %369, %392
  call void @llvm.lifetime.end.p0i8(i64 4, i8* nonnull %168) #9
  call void @llvm.lifetime.end.p0i8(i64 24, i8* nonnull %167) #9
  %395 = load i8, i8* %164, align 1
  %396 = icmp slt i8 %395, 0
  br i1 %396, label %397, label %399

397:                                              ; preds = %394
  %398 = load i8*, i8** %165, align 8
  call void @_ZdlPv(i8* %398) #10
  br label %399

399:                                              ; preds = %394, %397
  call void @llvm.lifetime.end.p0i8(i64 4, i8* nonnull %161) #9
  call void @llvm.lifetime.end.p0i8(i64 24, i8* nonnull %160) #9
  br label %516

400:                                              ; preds = %188, %188
  %401 = zext i8 %192 to i64
  %402 = getelementptr inbounds [3 x [16 x i8]], [3 x [16 x i8]]* @_ZN2v88internal11interpreter9Bytecodes17kOperandKindSizesE, i64 0, i64 %57, i64 %401
  %403 = load i8, i8* %402, align 1
  switch i8 %403, label %415 [
    i8 1, label %404
    i8 2, label %407
    i8 4, label %411
    i8 0, label %414
  ]

404:                                              ; preds = %400
  %405 = load i8, i8* %196, align 1
  %406 = sext i8 %405 to i32
  br label %415

407:                                              ; preds = %400
  %408 = bitcast i8* %196 to i16*
  %409 = load i16, i16* %408, align 1
  %410 = sext i16 %409 to i32
  br label %415

411:                                              ; preds = %400
  %412 = bitcast i8* %196 to i32*
  %413 = load i32, i32* %412, align 1
  br label %415

414:                                              ; preds = %400
  call void (i8*, ...) @_Z8V8_FatalPKcz(i8* getelementptr inbounds ([17 x i8], [17 x i8]* @.str, i64 0, i64 0)) #8
  unreachable

415:                                              ; preds = %400, %404, %407, %411
  %416 = phi i32 [ %413, %411 ], [ %410, %407 ], [ %406, %404 ], [ 0, %400 ]
  %417 = sub nsw i32 -6, %416
  call void @llvm.lifetime.start.p0i8(i64 24, i8* nonnull %146) #9
  call void @llvm.lifetime.start.p0i8(i64 4, i8* nonnull %147) #9
  store i32 %417, i32* %148, align 4
  call void @_ZNK2v88internal11interpreter8Register8ToStringEi(%"class.std::__1::basic_string"* nonnull sret %13, %"class.v8::internal::interpreter::Register"* nonnull %14, i32 %2) #9
  %418 = load i8, i8* %150, align 1
  %419 = icmp slt i8 %418, 0
  %420 = load i8*, i8** %151, align 8
  %421 = load i64, i64* %152, align 8
  %422 = zext i8 %418 to i64
  %423 = select i1 %419, i8* %420, i8* %146
  %424 = select i1 %419, i64 %421, i64 %422
  %425 = call dereferenceable(160) %"class.std::__1::basic_ostream"* @_ZNSt3__124__put_character_sequenceIcNS_11char_traitsIcEEEERNS_13basic_ostreamIT_T0_EES7_PKS4_m(%"class.std::__1::basic_ostream"* dereferenceable(160) %0, i8* %423, i64 %424) #9
  %426 = call dereferenceable(160) %"class.std::__1::basic_ostream"* @_ZNSt3__124__put_character_sequenceIcNS_11char_traitsIcEEEERNS_13basic_ostreamIT_T0_EES7_PKS4_m(%"class.std::__1::basic_ostream"* dereferenceable(160) %425, i8* getelementptr inbounds ([2 x i8], [2 x i8]* @.str.7, i64 0, i64 0), i64 1) #9
  call void @llvm.lifetime.start.p0i8(i64 24, i8* nonnull %153) #9
  call void @llvm.lifetime.start.p0i8(i64 4, i8* nonnull %154) #9
  %427 = sub i32 -5, %416
  store i32 %427, i32* %155, align 4
  call void @_ZNK2v88internal11interpreter8Register8ToStringEi(%"class.std::__1::basic_string"* nonnull sret %15, %"class.v8::internal::interpreter::Register"* nonnull %16, i32 %2) #9
  %428 = load i8, i8* %157, align 1
  %429 = icmp slt i8 %428, 0
  %430 = load i8*, i8** %158, align 8
  %431 = load i64, i64* %159, align 8
  %432 = zext i8 %428 to i64
  %433 = select i1 %429, i8* %430, i8* %153
  %434 = select i1 %429, i64 %431, i64 %432
  %435 = call dereferenceable(160) %"class.std::__1::basic_ostream"* @_ZNSt3__124__put_character_sequenceIcNS_11char_traitsIcEEEERNS_13basic_ostreamIT_T0_EES7_PKS4_m(%"class.std::__1::basic_ostream"* dereferenceable(160) %426, i8* %433, i64 %434) #9
  %436 = load i8, i8* %157, align 1
  %437 = icmp slt i8 %436, 0
  br i1 %437, label %438, label %440

438:                                              ; preds = %415
  %439 = load i8*, i8** %158, align 8
  call void @_ZdlPv(i8* %439) #10
  br label %440

440:                                              ; preds = %415, %438
  call void @llvm.lifetime.end.p0i8(i64 4, i8* nonnull %154) #9
  call void @llvm.lifetime.end.p0i8(i64 24, i8* nonnull %153) #9
  %441 = load i8, i8* %150, align 1
  %442 = icmp slt i8 %441, 0
  br i1 %442, label %443, label %445

443:                                              ; preds = %440
  %444 = load i8*, i8** %151, align 8
  call void @_ZdlPv(i8* %444) #10
  br label %445

445:                                              ; preds = %440, %443
  call void @llvm.lifetime.end.p0i8(i64 4, i8* nonnull %147) #9
  call void @llvm.lifetime.end.p0i8(i64 24, i8* nonnull %146) #9
  br label %516

446:                                              ; preds = %188, %188
  %447 = add nsw i32 %189, 1
  %448 = call i32 @_ZN2v88internal11interpreter9Bytecodes16GetOperandOffsetENS1_8BytecodeEiNS1_12OperandScaleE(i8 zeroext %33, i32 %447, i8 zeroext %31) #9
  %449 = add nsw i32 %448, %32
  %450 = sext i32 %449 to i64
  %451 = getelementptr inbounds i8, i8* %1, i64 %450
  %452 = load i8, i8* %131, align 1
  switch i8 %452, label %464 [
    i8 1, label %453
    i8 2, label %456
    i8 4, label %460
    i8 0, label %463
  ]

453:                                              ; preds = %446
  %454 = load i8, i8* %451, align 1
  %455 = zext i8 %454 to i32
  br label %464

456:                                              ; preds = %446
  %457 = bitcast i8* %451 to i16*
  %458 = load i16, i16* %457, align 1
  %459 = zext i16 %458 to i32
  br label %464

460:                                              ; preds = %446
  %461 = bitcast i8* %451 to i32*
  %462 = load i32, i32* %461, align 1
  br label %464

463:                                              ; preds = %446
  call void (i8*, ...) @_Z8V8_FatalPKcz(i8* getelementptr inbounds ([17 x i8], [17 x i8]* @.str, i64 0, i64 0)) #8
  unreachable

464:                                              ; preds = %446, %453, %456, %460
  %465 = phi i32 [ %462, %460 ], [ %459, %456 ], [ %455, %453 ], [ 0, %446 ]
  %466 = zext i8 %192 to i64
  %467 = getelementptr inbounds [3 x [16 x i8]], [3 x [16 x i8]]* @_ZN2v88internal11interpreter9Bytecodes17kOperandKindSizesE, i64 0, i64 %57, i64 %466
  %468 = load i8, i8* %467, align 1
  switch i8 %468, label %480 [
    i8 1, label %469
    i8 2, label %472
    i8 4, label %476
    i8 0, label %479
  ]

469:                                              ; preds = %464
  %470 = load i8, i8* %196, align 1
  %471 = sext i8 %470 to i32
  br label %480

472:                                              ; preds = %464
  %473 = bitcast i8* %196 to i16*
  %474 = load i16, i16* %473, align 1
  %475 = sext i16 %474 to i32
  br label %480

476:                                              ; preds = %464
  %477 = bitcast i8* %196 to i32*
  %478 = load i32, i32* %477, align 1
  br label %480

479:                                              ; preds = %464
  call void (i8*, ...) @_Z8V8_FatalPKcz(i8* getelementptr inbounds ([17 x i8], [17 x i8]* @.str, i64 0, i64 0)) #8
  unreachable

480:                                              ; preds = %464, %469, %472, %476
  %481 = phi i32 [ %478, %476 ], [ %475, %472 ], [ %471, %469 ], [ 0, %464 ]
  %482 = sub nsw i32 -6, %481
  call void @llvm.lifetime.start.p0i8(i64 24, i8* nonnull %132) #9
  call void @llvm.lifetime.start.p0i8(i64 4, i8* nonnull %133) #9
  %483 = icmp eq i32 %465, 0
  %484 = select i1 %483, i32 0, i32 %482
  store i32 %484, i32* %134, align 4
  call void @_ZNK2v88internal11interpreter8Register8ToStringEi(%"class.std::__1::basic_string"* nonnull sret %17, %"class.v8::internal::interpreter::Register"* nonnull %18, i32 %2) #9
  %485 = load i8, i8* %136, align 1
  %486 = icmp slt i8 %485, 0
  %487 = load i8*, i8** %137, align 8
  %488 = load i64, i64* %138, align 8
  %489 = zext i8 %485 to i64
  %490 = select i1 %486, i8* %487, i8* %132
  %491 = select i1 %486, i64 %488, i64 %489
  %492 = call dereferenceable(160) %"class.std::__1::basic_ostream"* @_ZNSt3__124__put_character_sequenceIcNS_11char_traitsIcEEEERNS_13basic_ostreamIT_T0_EES7_PKS4_m(%"class.std::__1::basic_ostream"* dereferenceable(160) %0, i8* %490, i64 %491) #9
  %493 = call dereferenceable(160) %"class.std::__1::basic_ostream"* @_ZNSt3__124__put_character_sequenceIcNS_11char_traitsIcEEEERNS_13basic_ostreamIT_T0_EES7_PKS4_m(%"class.std::__1::basic_ostream"* dereferenceable(160) %492, i8* getelementptr inbounds ([2 x i8], [2 x i8]* @.str.7, i64 0, i64 0), i64 1) #9
  call void @llvm.lifetime.start.p0i8(i64 24, i8* nonnull %139) #9
  call void @llvm.lifetime.start.p0i8(i64 4, i8* nonnull %140) #9
  %494 = add nsw i32 %465, -1
  %495 = add nsw i32 %494, %482
  %496 = select i1 %483, i32 0, i32 %495
  store i32 %496, i32* %141, align 4
  call void @_ZNK2v88internal11interpreter8Register8ToStringEi(%"class.std::__1::basic_string"* nonnull sret %19, %"class.v8::internal::interpreter::Register"* nonnull %20, i32 %2) #9
  %497 = load i8, i8* %143, align 1
  %498 = icmp slt i8 %497, 0
  %499 = load i8*, i8** %144, align 8
  %500 = load i64, i64* %145, align 8
  %501 = zext i8 %497 to i64
  %502 = select i1 %498, i8* %499, i8* %139
  %503 = select i1 %498, i64 %500, i64 %501
  %504 = call dereferenceable(160) %"class.std::__1::basic_ostream"* @_ZNSt3__124__put_character_sequenceIcNS_11char_traitsIcEEEERNS_13basic_ostreamIT_T0_EES7_PKS4_m(%"class.std::__1::basic_ostream"* dereferenceable(160) %493, i8* %502, i64 %503) #9
  %505 = load i8, i8* %143, align 1
  %506 = icmp slt i8 %505, 0
  br i1 %506, label %507, label %509

507:                                              ; preds = %480
  %508 = load i8*, i8** %144, align 8
  call void @_ZdlPv(i8* %508) #10
  br label %509

509:                                              ; preds = %480, %507
  call void @llvm.lifetime.end.p0i8(i64 4, i8* nonnull %140) #9
  call void @llvm.lifetime.end.p0i8(i64 24, i8* nonnull %139) #9
  %510 = load i8, i8* %136, align 1
  %511 = icmp slt i8 %510, 0
  br i1 %511, label %512, label %514

512:                                              ; preds = %509
  %513 = load i8*, i8** %137, align 8
  call void @_ZdlPv(i8* %513) #10
  br label %514

514:                                              ; preds = %509, %512
  call void @llvm.lifetime.end.p0i8(i64 4, i8* nonnull %133) #9
  call void @llvm.lifetime.end.p0i8(i64 24, i8* nonnull %132) #9
  br label %516

515:                                              ; preds = %188, %188
  call void (i8*, ...) @_Z8V8_FatalPKcz(i8* getelementptr inbounds ([17 x i8], [17 x i8]* @.str, i64 0, i64 0)) #8
  unreachable

516:                                              ; preds = %188, %514, %445, %399, %355, %322, %304, %282, %261, %230, %213
  %517 = phi i32 [ %189, %188 ], [ %447, %514 ], [ %189, %445 ], [ %189, %399 ], [ %189, %355 ], [ %189, %322 ], [ %189, %304 ], [ %189, %282 ], [ %189, %261 ], [ %189, %230 ], [ %189, %213 ]
  %518 = icmp eq i32 %517, %181
  br i1 %518, label %521, label %519

519:                                              ; preds = %516
  %520 = call dereferenceable(160) %"class.std::__1::basic_ostream"* @_ZNSt3__124__put_character_sequenceIcNS_11char_traitsIcEEEERNS_13basic_ostreamIT_T0_EES7_PKS4_m(%"class.std::__1::basic_ostream"* dereferenceable(160) %0, i8* getelementptr inbounds ([3 x i8], [3 x i8]* @.str.8, i64 0, i64 0), i64 2) #9
  br label %521

521:                                              ; preds = %516, %519
  %522 = add nsw i32 %517, 1
  %523 = icmp slt i32 %522, %126
  br i1 %523, label %188, label %524

524:                                              ; preds = %521, %124, %117
  call void @_ZNSt3__19basic_iosIcNS_11char_traitsIcEEED1Ev(%"class.std::__1::basic_ios"* nonnull %5) #9
  call void @llvm.lifetime.end.p0i8(i64 152, i8* nonnull %34) #9
  ret %"class.std::__1::basic_ostream"* %0
}

declare dereferenceable(152) %"class.std::__1::basic_ios"* @_ZNSt3__19basic_iosIcNS_11char_traitsIcEEE7copyfmtERKS3_(%"class.std::__1::basic_ios"*, %"class.std::__1::basic_ios"* dereferenceable(152)) local_unnamed_addr #3

declare dereferenceable(160) %"class.std::__1::basic_ostream"* @_ZNSt3__113basic_ostreamIcNS_11char_traitsIcEEElsEj(%"class.std::__1::basic_ostream"*, i32) local_unnamed_addr #3

declare void @_ZN2v88internal11interpreter9Bytecodes8ToStringENS1_8BytecodeENS1_12OperandScaleEPKc(%"class.std::__1::basic_string"* sret, i8 zeroext, i8 zeroext, i8*) local_unnamed_addr #3

declare zeroext i1 @_ZN2v88internal11interpreter9Bytecodes12IsDebugBreakENS1_8BytecodeE(i8 zeroext) local_unnamed_addr #3

declare i32 @_ZN2v88internal11interpreter9Bytecodes16GetOperandOffsetENS1_8BytecodeEiNS1_12OperandScaleE(i8 zeroext, i32, i8 zeroext) local_unnamed_addr #3

declare i32 @_ZN2v88internal11interpreter16IntrinsicsHelper11ToRuntimeIdENS2_11IntrinsicIdE(i32) local_unnamed_addr #3

declare dereferenceable(160) %"class.std::__1::basic_ostream"* @_ZNSt3__113basic_ostreamIcNS_11char_traitsIcEEElsEi(%"class.std::__1::basic_ostream"*, i32) local_unnamed_addr #3

declare void @_ZNK2v88internal11interpreter8Register8ToStringEi(%"class.std::__1::basic_string"* sret, %"class.v8::internal::interpreter::Register"*, i32) local_unnamed_addr #3

; Function Attrs: nounwind
declare void @_ZNSt3__19basic_iosIcNS_11char_traitsIcEEED1Ev(%"class.std::__1::basic_ios"*) unnamed_addr #4

declare %"struct.v8::internal::Runtime::Function"* @_ZN2v88internal7Runtime13FunctionForIdENS1_10FunctionIdE(i32) local_unnamed_addr #3

; Function Attrs: nobuiltin nounwind
declare void @_ZdlPv(i8*) local_unnamed_addr #5

; Function Attrs: nounwind ssp uwtable
define linkonce_odr hidden dereferenceable(160) %"class.std::__1::basic_ostream"* @_ZNSt3__124__put_character_sequenceIcNS_11char_traitsIcEEEERNS_13basic_ostreamIT_T0_EES7_PKS4_m(%"class.std::__1::basic_ostream"* dereferenceable(160), i8*, i64) local_unnamed_addr #0 comdat {
  %4 = alloca %"class.std::__1::locale", align 8
  %5 = alloca %"class.std::__1::basic_ostream<char, std::__1::char_traits<char> >::sentry", align 8
  %6 = getelementptr inbounds %"class.std::__1::basic_ostream<char, std::__1::char_traits<char> >::sentry", %"class.std::__1::basic_ostream<char, std::__1::char_traits<char> >::sentry"* %5, i64 0, i32 0
  call void @llvm.lifetime.start.p0i8(i64 16, i8* nonnull %6) #9
  call void @_ZNSt3__113basic_ostreamIcNS_11char_traitsIcEEE6sentryC1ERS3_(%"class.std::__1::basic_ostream<char, std::__1::char_traits<char> >::sentry"* nonnull %5, %"class.std::__1::basic_ostream"* dereferenceable(160) %0) #9
  %7 = load i8, i8* %6, align 8, !range !2
  %8 = icmp eq i8 %7, 0
  br i1 %8, label %58, label %9

9:                                                ; preds = %3
  %10 = bitcast %"class.std::__1::basic_ostream"* %0 to i8**
  %11 = load i8*, i8** %10, align 8
  %12 = getelementptr i8, i8* %11, i64 -24
  %13 = bitcast i8* %12 to i64*
  %14 = load i64, i64* %13, align 8
  %15 = bitcast %"class.std::__1::basic_ostream"* %0 to i8*
  %16 = getelementptr inbounds i8, i8* %15, i64 %14
  %17 = getelementptr inbounds i8, i8* %16, i64 40
  %18 = bitcast i8* %17 to %"class.std::__1::basic_streambuf"**
  %19 = load %"class.std::__1::basic_streambuf"*, %"class.std::__1::basic_streambuf"** %18, align 8
  %20 = bitcast i8* %16 to %"class.std::__1::ios_base"*
  %21 = getelementptr inbounds i8, i8* %16, i64 8
  %22 = bitcast i8* %21 to i32*
  %23 = load i32, i32* %22, align 8
  %24 = and i32 %23, 176
  %25 = icmp eq i32 %24, 32
  %26 = getelementptr inbounds i8, i8* %1, i64 %2
  %27 = select i1 %25, i8* %26, i8* %1
  %28 = getelementptr inbounds i8, i8* %16, i64 144
  %29 = bitcast i8* %28 to i32*
  %30 = load i32, i32* %29, align 8
  %31 = icmp eq i32 %30, -1
  br i1 %31, label %32, label %42

32:                                               ; preds = %9
  %33 = bitcast %"class.std::__1::locale"* %4 to i8*
  call void @llvm.lifetime.start.p0i8(i64 8, i8* nonnull %33) #9
  call void @_ZNKSt3__18ios_base6getlocEv(%"class.std::__1::locale"* nonnull sret %4, %"class.std::__1::ios_base"* %20) #9
  %34 = call %"class.std::__1::locale::facet"* @_ZNKSt3__16locale9use_facetERNS0_2idE(%"class.std::__1::locale"* nonnull %4, %"class.std::__1::locale::id"* nonnull dereferenceable(16) @_ZNSt3__15ctypeIcE2idE) #9
  %35 = bitcast %"class.std::__1::locale::facet"* %34 to %"class.std::__1::ctype"*
  %36 = bitcast %"class.std::__1::locale::facet"* %34 to i8 (%"class.std::__1::ctype"*, i8)***
  %37 = load i8 (%"class.std::__1::ctype"*, i8)**, i8 (%"class.std::__1::ctype"*, i8)*** %36, align 8
  %38 = getelementptr inbounds i8 (%"class.std::__1::ctype"*, i8)*, i8 (%"class.std::__1::ctype"*, i8)** %37, i64 7
  %39 = load i8 (%"class.std::__1::ctype"*, i8)*, i8 (%"class.std::__1::ctype"*, i8)** %38, align 8
  %40 = call signext i8 %39(%"class.std::__1::ctype"* %35, i8 signext 32) #9
  call void @_ZNSt3__16localeD1Ev(%"class.std::__1::locale"* nonnull %4) #9
  call void @llvm.lifetime.end.p0i8(i64 8, i8* nonnull %33) #9
  %41 = sext i8 %40 to i32
  store i32 %41, i32* %29, align 8
  br label %42

42:                                               ; preds = %9, %32
  %43 = phi i32 [ %41, %32 ], [ %30, %9 ]
  %44 = trunc i32 %43 to i8
  %45 = call %"class.std::__1::basic_streambuf"* @_ZNSt3__116__pad_and_outputIcNS_11char_traitsIcEEEENS_19ostreambuf_iteratorIT_T0_EES6_PKS4_S8_S8_RNS_8ios_baseES4_(%"class.std::__1::basic_streambuf"* %19, i8* %1, i8* %27, i8* %26, %"class.std::__1::ios_base"* dereferenceable(136) %20, i8 signext %44)
  %46 = icmp eq %"class.std::__1::basic_streambuf"* %45, null
  br i1 %46, label %47, label %58

47:                                               ; preds = %42
  %48 = load i8*, i8** %10, align 8
  %49 = getelementptr i8, i8* %48, i64 -24
  %50 = bitcast i8* %49 to i64*
  %51 = load i64, i64* %50, align 8
  %52 = getelementptr inbounds i8, i8* %15, i64 %51
  %53 = bitcast i8* %52 to %"class.std::__1::ios_base"*
  %54 = getelementptr inbounds i8, i8* %52, i64 32
  %55 = bitcast i8* %54 to i32*
  %56 = load i32, i32* %55, align 8
  %57 = or i32 %56, 5
  call void @_ZNSt3__18ios_base5clearEj(%"class.std::__1::ios_base"* %53, i32 %57) #9
  br label %58

58:                                               ; preds = %3, %42, %47
  call void @_ZNSt3__113basic_ostreamIcNS_11char_traitsIcEEE6sentryD1Ev(%"class.std::__1::basic_ostream<char, std::__1::char_traits<char> >::sentry"* nonnull %5) #9
  call void @llvm.lifetime.end.p0i8(i64 16, i8* nonnull %6) #9
  ret %"class.std::__1::basic_ostream"* %0
}

declare void @_ZNSt3__113basic_ostreamIcNS_11char_traitsIcEEE6sentryC1ERS3_(%"class.std::__1::basic_ostream<char, std::__1::char_traits<char> >::sentry"*, %"class.std::__1::basic_ostream"* dereferenceable(160)) unnamed_addr #3

; Function Attrs: nounwind ssp uwtable
define linkonce_odr hidden %"class.std::__1::basic_streambuf"* @_ZNSt3__116__pad_and_outputIcNS_11char_traitsIcEEEENS_19ostreambuf_iteratorIT_T0_EES6_PKS4_S8_S8_RNS_8ios_baseES4_(%"class.std::__1::basic_streambuf"*, i8*, i8*, i8*, %"class.std::__1::ios_base"* dereferenceable(136), i8 signext) local_unnamed_addr #0 comdat {
  %7 = alloca %"class.std::__1::basic_string", align 8
  %8 = icmp eq %"class.std::__1::basic_streambuf"* %0, null
  br i1 %8, label %78, label %9

9:                                                ; preds = %6
  %10 = ptrtoint i8* %3 to i64
  %11 = ptrtoint i8* %1 to i64
  %12 = sub i64 %10, %11
  %13 = getelementptr inbounds %"class.std::__1::ios_base", %"class.std::__1::ios_base"* %4, i64 0, i32 3
  %14 = load i64, i64* %13, align 8
  %15 = icmp sgt i64 %14, %12
  %16 = sub nsw i64 %14, %12
  %17 = select i1 %15, i64 %16, i64 0
  %18 = ptrtoint i8* %2 to i64
  %19 = sub i64 %18, %11
  %20 = icmp sgt i64 %19, 0
  br i1 %20, label %21, label %28

21:                                               ; preds = %9
  %22 = bitcast %"class.std::__1::basic_streambuf"* %0 to i64 (%"class.std::__1::basic_streambuf"*, i8*, i64)***
  %23 = load i64 (%"class.std::__1::basic_streambuf"*, i8*, i64)**, i64 (%"class.std::__1::basic_streambuf"*, i8*, i64)*** %22, align 8
  %24 = getelementptr inbounds i64 (%"class.std::__1::basic_streambuf"*, i8*, i64)*, i64 (%"class.std::__1::basic_streambuf"*, i8*, i64)** %23, i64 12
  %25 = load i64 (%"class.std::__1::basic_streambuf"*, i8*, i64)*, i64 (%"class.std::__1::basic_streambuf"*, i8*, i64)** %24, align 8
  %26 = tail call i64 %25(%"class.std::__1::basic_streambuf"* nonnull %0, i8* %1, i64 %19) #9
  %27 = icmp eq i64 %26, %19
  br i1 %27, label %28, label %78

28:                                               ; preds = %21, %9
  %29 = icmp sgt i64 %17, 0
  br i1 %29, label %30, label %67

30:                                               ; preds = %28
  %31 = bitcast %"class.std::__1::basic_string"* %7 to i8*
  call void @llvm.lifetime.start.p0i8(i64 24, i8* nonnull %31) #9
  %32 = icmp ult i64 %17, 23
  br i1 %32, label %42, label %33

33:                                               ; preds = %30
  %34 = add nuw i64 %17, 16
  %35 = and i64 %34, -16
  %36 = tail call i8* @_Znwm(i64 %35) #10
  %37 = getelementptr inbounds %"class.std::__1::basic_string", %"class.std::__1::basic_string"* %7, i64 0, i32 0, i32 0, i32 0, i32 0, i32 0, i32 0
  store i8* %36, i8** %37, align 8
  %38 = or i64 %35, -9223372036854775808
  %39 = getelementptr inbounds %"class.std::__1::basic_string", %"class.std::__1::basic_string"* %7, i64 0, i32 0, i32 0, i32 0, i32 0, i32 0, i32 2
  store i64 %38, i64* %39, align 8
  %40 = getelementptr inbounds %"class.std::__1::basic_string", %"class.std::__1::basic_string"* %7, i64 0, i32 0, i32 0, i32 0, i32 0, i32 0, i32 1
  store i64 %17, i64* %40, align 8
  %41 = bitcast %"class.std::__1::basic_string"* %7 to %"struct.std::__1::basic_string<char, std::__1::char_traits<char>, std::__1::allocator<char> >::__short"*
  br label %46

42:                                               ; preds = %30
  %43 = trunc i64 %17 to i8
  %44 = bitcast %"class.std::__1::basic_string"* %7 to %"struct.std::__1::basic_string<char, std::__1::char_traits<char>, std::__1::allocator<char> >::__short"*
  %45 = getelementptr inbounds %"struct.std::__1::basic_string<char, std::__1::char_traits<char>, std::__1::allocator<char> >::__short", %"struct.std::__1::basic_string<char, std::__1::char_traits<char>, std::__1::allocator<char> >::__short"* %44, i64 0, i32 1, i32 0
  store i8 %43, i8* %45, align 1
  br label %46

46:                                               ; preds = %33, %42
  %47 = phi %"struct.std::__1::basic_string<char, std::__1::char_traits<char>, std::__1::allocator<char> >::__short"* [ %41, %33 ], [ %44, %42 ]
  %48 = phi i8* [ %36, %33 ], [ %31, %42 ]
  call void @llvm.memset.p0i8.i64(i8* nonnull align 1 %48, i8 %5, i64 %17, i1 false) #9
  %49 = getelementptr inbounds i8, i8* %48, i64 %17
  store i8 0, i8* %49, align 1
  %50 = getelementptr inbounds %"struct.std::__1::basic_string<char, std::__1::char_traits<char>, std::__1::allocator<char> >::__short", %"struct.std::__1::basic_string<char, std::__1::char_traits<char>, std::__1::allocator<char> >::__short"* %47, i64 0, i32 1, i32 0
  %51 = load i8, i8* %50, align 1
  %52 = icmp slt i8 %51, 0
  %53 = getelementptr inbounds %"class.std::__1::basic_string", %"class.std::__1::basic_string"* %7, i64 0, i32 0, i32 0, i32 0, i32 0, i32 0, i32 0
  %54 = load i8*, i8** %53, align 8
  %55 = select i1 %52, i8* %54, i8* %31
  %56 = bitcast %"class.std::__1::basic_streambuf"* %0 to i64 (%"class.std::__1::basic_streambuf"*, i8*, i64)***
  %57 = load i64 (%"class.std::__1::basic_streambuf"*, i8*, i64)**, i64 (%"class.std::__1::basic_streambuf"*, i8*, i64)*** %56, align 8
  %58 = getelementptr inbounds i64 (%"class.std::__1::basic_streambuf"*, i8*, i64)*, i64 (%"class.std::__1::basic_streambuf"*, i8*, i64)** %57, i64 12
  %59 = load i64 (%"class.std::__1::basic_streambuf"*, i8*, i64)*, i64 (%"class.std::__1::basic_streambuf"*, i8*, i64)** %58, align 8
  %60 = call i64 %59(%"class.std::__1::basic_streambuf"* nonnull %0, i8* %55, i64 %17) #9
  %61 = icmp eq i64 %60, %17
  %62 = load i8, i8* %50, align 1
  %63 = icmp slt i8 %62, 0
  br i1 %63, label %64, label %66

64:                                               ; preds = %46
  %65 = load i8*, i8** %53, align 8
  call void @_ZdlPv(i8* %65) #10
  br label %66

66:                                               ; preds = %46, %64
  call void @llvm.lifetime.end.p0i8(i64 24, i8* nonnull %31) #9
  br i1 %61, label %67, label %78

67:                                               ; preds = %66, %28
  %68 = sub i64 %10, %18
  %69 = icmp sgt i64 %68, 0
  br i1 %69, label %70, label %77

70:                                               ; preds = %67
  %71 = bitcast %"class.std::__1::basic_streambuf"* %0 to i64 (%"class.std::__1::basic_streambuf"*, i8*, i64)***
  %72 = load i64 (%"class.std::__1::basic_streambuf"*, i8*, i64)**, i64 (%"class.std::__1::basic_streambuf"*, i8*, i64)*** %71, align 8
  %73 = getelementptr inbounds i64 (%"class.std::__1::basic_streambuf"*, i8*, i64)*, i64 (%"class.std::__1::basic_streambuf"*, i8*, i64)** %72, i64 12
  %74 = load i64 (%"class.std::__1::basic_streambuf"*, i8*, i64)*, i64 (%"class.std::__1::basic_streambuf"*, i8*, i64)** %73, align 8
  %75 = call i64 %74(%"class.std::__1::basic_streambuf"* nonnull %0, i8* %2, i64 %68) #9
  %76 = icmp eq i64 %75, %68
  br i1 %76, label %77, label %78

77:                                               ; preds = %70, %67
  store i64 0, i64* %13, align 8
  br label %78

78:                                               ; preds = %77, %66, %21, %70, %6
  %79 = phi %"class.std::__1::basic_streambuf"* [ null, %6 ], [ %0, %77 ], [ null, %66 ], [ null, %21 ], [ null, %70 ]
  ret %"class.std::__1::basic_streambuf"* %79
}

; Function Attrs: nounwind
declare void @_ZNSt3__113basic_ostreamIcNS_11char_traitsIcEEE6sentryD1Ev(%"class.std::__1::basic_ostream<char, std::__1::char_traits<char> >::sentry"*) unnamed_addr #4

; Function Attrs: nobuiltin nofree
declare noalias nonnull i8* @_Znwm(i64) local_unnamed_addr #6

; Function Attrs: argmemonly nounwind
declare void @llvm.memset.p0i8.i64(i8* nocapture writeonly, i8, i64, i1 immarg) #1

declare void @_ZNKSt3__18ios_base6getlocEv(%"class.std::__1::locale"* sret, %"class.std::__1::ios_base"*) local_unnamed_addr #3

; Function Attrs: nounwind
declare void @_ZNSt3__16localeD1Ev(%"class.std::__1::locale"*) unnamed_addr #4

declare %"class.std::__1::locale::facet"* @_ZNKSt3__16locale9use_facetERNS0_2idE(%"class.std::__1::locale"*, %"class.std::__1::locale::id"* dereferenceable(16)) local_unnamed_addr #3

declare void @_ZNSt3__18ios_base5clearEj(%"class.std::__1::ios_base"*, i32) local_unnamed_addr #3

; Function Attrs: argmemonly nofree nounwind readonly
declare i64 @strlen(i8* nocapture) local_unnamed_addr #7

declare void @_ZNSt3__18ios_base4initEPv(%"class.std::__1::ios_base"*, i8*) local_unnamed_addr #3

attributes #0 = { nounwind ssp uwtable "correctly-rounded-divide-sqrt-fp-math"="false" "disable-tail-calls"="false" "less-precise-fpmad"="false" "min-legal-vector-width"="0" "no-frame-pointer-elim"="false" "no-frame-pointer-elim-non-leaf" "no-infs-fp-math"="false" "no-jump-tables"="false" "no-nans-fp-math"="false" "no-signed-zeros-fp-math"="false" "no-trapping-math"="false" "null-pointer-is-valid"="true" "stack-protector-buffer-size"="4" "target-cpu"="x86-64" "target-features"="+cx8,+fxsr,+mmx,+sse,+sse2,+sse3,+x87" "unsafe-fp-math"="false" "use-soft-float"="false" }
attributes #1 = { argmemonly nounwind }
attributes #2 = { noreturn "correctly-rounded-divide-sqrt-fp-math"="false" "disable-tail-calls"="false" "less-precise-fpmad"="false" "no-frame-pointer-elim"="false" "no-frame-pointer-elim-non-leaf" "no-infs-fp-math"="false" "no-nans-fp-math"="false" "no-signed-zeros-fp-math"="false" "no-trapping-math"="false" "null-pointer-is-valid"="true" "stack-protector-buffer-size"="4" "target-cpu"="x86-64" "target-features"="+cx8,+fxsr,+mmx,+sse,+sse2,+sse3,+x87" "unsafe-fp-math"="false" "use-soft-float"="false" }
attributes #3 = { "correctly-rounded-divide-sqrt-fp-math"="false" "disable-tail-calls"="false" "less-precise-fpmad"="false" "no-frame-pointer-elim"="false" "no-frame-pointer-elim-non-leaf" "no-infs-fp-math"="false" "no-nans-fp-math"="false" "no-signed-zeros-fp-math"="false" "no-trapping-math"="false" "null-pointer-is-valid"="true" "stack-protector-buffer-size"="4" "target-cpu"="x86-64" "target-features"="+cx8,+fxsr,+mmx,+sse,+sse2,+sse3,+x87" "unsafe-fp-math"="false" "use-soft-float"="false" }
attributes #4 = { nounwind "correctly-rounded-divide-sqrt-fp-math"="false" "disable-tail-calls"="false" "less-precise-fpmad"="false" "no-frame-pointer-elim"="false" "no-frame-pointer-elim-non-leaf" "no-infs-fp-math"="false" "no-nans-fp-math"="false" "no-signed-zeros-fp-math"="false" "no-trapping-math"="false" "null-pointer-is-valid"="true" "stack-protector-buffer-size"="4" "target-cpu"="x86-64" "target-features"="+cx8,+fxsr,+mmx,+sse,+sse2,+sse3,+x87" "unsafe-fp-math"="false" "use-soft-float"="false" }
attributes #5 = { nobuiltin nounwind "correctly-rounded-divide-sqrt-fp-math"="false" "disable-tail-calls"="false" "less-precise-fpmad"="false" "no-frame-pointer-elim"="false" "no-frame-pointer-elim-non-leaf" "no-infs-fp-math"="false" "no-nans-fp-math"="false" "no-signed-zeros-fp-math"="false" "no-trapping-math"="false" "null-pointer-is-valid"="true" "stack-protector-buffer-size"="4" "target-cpu"="x86-64" "target-features"="+cx8,+fxsr,+mmx,+sse,+sse2,+sse3,+x87" "unsafe-fp-math"="false" "use-soft-float"="false" }
attributes #6 = { nobuiltin nofree "correctly-rounded-divide-sqrt-fp-math"="false" "disable-tail-calls"="false" "less-precise-fpmad"="false" "no-frame-pointer-elim"="false" "no-frame-pointer-elim-non-leaf" "no-infs-fp-math"="false" "no-nans-fp-math"="false" "no-signed-zeros-fp-math"="false" "no-trapping-math"="false" "null-pointer-is-valid"="true" "stack-protector-buffer-size"="4" "target-cpu"="x86-64" "target-features"="+cx8,+fxsr,+mmx,+sse,+sse2,+sse3,+x87" "unsafe-fp-math"="false" "use-soft-float"="false" }
attributes #7 = { argmemonly nofree nounwind readonly "correctly-rounded-divide-sqrt-fp-math"="false" "disable-tail-calls"="false" "less-precise-fpmad"="false" "no-frame-pointer-elim"="false" "no-frame-pointer-elim-non-leaf" "no-infs-fp-math"="false" "no-nans-fp-math"="false" "no-signed-zeros-fp-math"="false" "no-trapping-math"="false" "null-pointer-is-valid"="true" "stack-protector-buffer-size"="4" "target-cpu"="x86-64" "target-features"="+cx8,+fxsr,+mmx,+sse,+sse2,+sse3,+x87" "unsafe-fp-math"="false" "use-soft-float"="false" }
attributes #8 = { noreturn nounwind }
attributes #9 = { nounwind }
attributes #10 = { builtin nounwind }

!llvm.module.flags = !{!0, !1}

!0 = !{i32 1, !"wchar_size", i32 4}
!1 = !{i32 7, !"PIC Level", i32 2}
!2 = !{i8 0, i8 2}
