; ModuleID = 'gen/services/network/public/mojom/cert_verifier_service.mojom-blink-test-utils.cc'
source_filename = "gen/services/network/public/mojom/cert_verifier_service.mojom-blink-test-utils.cc"
target datalayout = "e-m:e-i64:64-f80:128-n8:16:32:64-S128"
target triple = "x86_64-unknown-linux-gnu"

module asm ".symver exp, exp@GLIBC_2.2.5"
module asm ".symver exp2, exp2@GLIBC_2.2.5"
module asm ".symver exp2f, exp2f@GLIBC_2.2.5"
module asm ".symver expf, expf@GLIBC_2.2.5"
module asm ".symver lgamma, lgamma@GLIBC_2.2.5"
module asm ".symver lgammaf, lgammaf@GLIBC_2.2.5"
module asm ".symver lgammal, lgammal@GLIBC_2.2.5"
module asm ".symver log, log@GLIBC_2.2.5"
module asm ".symver log2, log2@GLIBC_2.2.5"
module asm ".symver log2f, log2f@GLIBC_2.2.5"
module asm ".symver logf, logf@GLIBC_2.2.5"
module asm ".symver pow, pow@GLIBC_2.2.5"
module asm ".symver powf, powf@GLIBC_2.2.5"

%"class.cert_verifier::mojom::blink::URLLoaderFactoryConnectorAsyncWaiter" = type { %"class.cert_verifier::mojom::blink::URLLoaderFactoryConnector"* }
%"class.cert_verifier::mojom::blink::URLLoaderFactoryConnector" = type { i32 (...)** }
%"class.cert_verifier::mojom::blink::CertVerifierServiceAsyncWaiter" = type { %"class.cert_verifier::mojom::blink::CertVerifierService"* }
%"class.cert_verifier::mojom::blink::CertVerifierService" = type { i32 (...)** }
%"class.cert_verifier::mojom::blink::CertVerifierRequestAsyncWaiter" = type { %"class.cert_verifier::mojom::blink::CertVerifierRequest"* }
%"class.cert_verifier::mojom::blink::CertVerifierRequest" = type { i32 (...)** }
%"class.cert_verifier::mojom::blink::URLLoaderFactoryConnectorInterceptorForTesting" = type { %"class.cert_verifier::mojom::blink::URLLoaderFactoryConnector" }
%"class.mojo::PendingReceiver" = type { %"struct.mojo::internal::PendingReceiverState" }
%"struct.mojo::internal::PendingReceiverState" = type { %"class.mojo::ScopedHandleBase", %"class.mojo::ConnectionGroup::Ref" }
%"class.mojo::ScopedHandleBase" = type { %"class.mojo::MessagePipeHandle" }
%"class.mojo::MessagePipeHandle" = type { %"class.mojo::Handle" }
%"class.mojo::Handle" = type { i32 }
%"class.mojo::ConnectionGroup::Ref" = type { i32, %class.scoped_refptr }
%class.scoped_refptr = type { %"class.mojo::ConnectionGroup"* }
%"class.mojo::ConnectionGroup" = type <{ i32 (...)**, %"class.base::RefCountedThreadSafe", [4 x i8], %"class.base::RepeatingCallback", %class.scoped_refptr.3, %"class.mojo::ConnectionGroup::Ref", %"struct.std::__1::atomic.5", [4 x i8] }>
%"class.base::RefCountedThreadSafe" = type { %"class.base::subtle::RefCountedThreadSafeBase" }
%"class.base::subtle::RefCountedThreadSafeBase" = type { %"class.base::AtomicRefCount" }
%"class.base::AtomicRefCount" = type { %"struct.std::__1::atomic" }
%"struct.std::__1::atomic" = type { %"struct.std::__1::__atomic_base" }
%"struct.std::__1::__atomic_base" = type { %"struct.std::__1::__atomic_base.0" }
%"struct.std::__1::__atomic_base.0" = type { %"struct.std::__1::__cxx_atomic_impl" }
%"struct.std::__1::__cxx_atomic_impl" = type { %"struct.std::__1::__cxx_atomic_base_impl" }
%"struct.std::__1::__cxx_atomic_base_impl" = type { i32 }
%"class.base::RepeatingCallback" = type { %"class.base::internal::CallbackBaseCopyable" }
%"class.base::internal::CallbackBaseCopyable" = type { %"class.base::internal::CallbackBase" }
%"class.base::internal::CallbackBase" = type { %class.scoped_refptr.1 }
%class.scoped_refptr.1 = type { %"class.base::internal::BindStateBase"* }
%"class.base::internal::BindStateBase" = type { %"class.base::RefCountedThreadSafe.2", void ()*, void (%"class.base::internal::BindStateBase"*)*, i1 (%"class.base::internal::BindStateBase"*, i32)* }
%"class.base::RefCountedThreadSafe.2" = type { %"class.base::subtle::RefCountedThreadSafeBase" }
%class.scoped_refptr.3 = type { %"class.base::SequencedTaskRunner"* }
%"class.base::SequencedTaskRunner" = type { %"class.base::TaskRunner.base", [4 x i8] }
%"class.base::TaskRunner.base" = type <{ i32 (...)**, %"class.base::RefCountedThreadSafe.4" }>
%"class.base::RefCountedThreadSafe.4" = type { %"class.base::subtle::RefCountedThreadSafeBase" }
%"struct.std::__1::atomic.5" = type { %"struct.std::__1::__atomic_base.6" }
%"struct.std::__1::__atomic_base.6" = type { %"struct.std::__1::__atomic_base.7" }
%"struct.std::__1::__atomic_base.7" = type { %"struct.std::__1::__cxx_atomic_impl.8" }
%"struct.std::__1::__cxx_atomic_impl.8" = type { %"struct.std::__1::__cxx_atomic_base_impl.9" }
%"struct.std::__1::__cxx_atomic_base_impl.9" = type { i32 }
%"class.cert_verifier::mojom::blink::CertVerifierServiceInterceptorForTesting" = type { %"class.cert_verifier::mojom::blink::CertVerifierService" }
%"class.mojo::PendingRemote" = type { %"struct.mojo::internal::PendingRemoteState" }
%"struct.mojo::internal::PendingRemoteState" = type { %"class.mojo::ScopedHandleBase", i32 }
%"class.mojo::PendingRemote.10" = type { %"struct.mojo::internal::PendingRemoteState" }
%"class.mojo::StructPtr" = type { %"class.std::__1::unique_ptr" }
%"class.std::__1::unique_ptr" = type { %"class.std::__1::__compressed_pair" }
%"class.std::__1::__compressed_pair" = type { %"struct.std::__1::__compressed_pair_elem" }
%"struct.std::__1::__compressed_pair_elem" = type { %"class.cert_verifier::mojom::blink::RequestParams"* }
%"class.cert_verifier::mojom::blink::RequestParams" = type { %"class.mojo::StructPtr.11", %"class.WTF::String", i32, %"class.std::__1::basic_string", %"class.std::__1::basic_string" }
%"class.mojo::StructPtr.11" = type { %"class.std::__1::unique_ptr.12" }
%"class.std::__1::unique_ptr.12" = type { %"class.std::__1::__compressed_pair.13" }
%"class.std::__1::__compressed_pair.13" = type { %"struct.std::__1::__compressed_pair_elem.14" }
%"struct.std::__1::__compressed_pair_elem.14" = type { %"class.mojo::native::NativeStruct"* }
%"class.mojo::native::NativeStruct" = type { %"class.std::__1::vector", %"class.absl::optional" }
%"class.std::__1::vector" = type { %"class.std::__1::__vector_base" }
%"class.std::__1::__vector_base" = type { i8*, i8*, %"class.std::__1::__compressed_pair.15" }
%"class.std::__1::__compressed_pair.15" = type { %"struct.std::__1::__compressed_pair_elem.16" }
%"struct.std::__1::__compressed_pair_elem.16" = type { i8* }
%"class.absl::optional" = type { %"class.absl::optional_internal::optional_data" }
%"class.absl::optional_internal::optional_data" = type { %"class.absl::optional_internal::optional_data_base" }
%"class.absl::optional_internal::optional_data_base" = type { %"class.absl::optional_internal::optional_data_dtor_base" }
%"class.absl::optional_internal::optional_data_dtor_base" = type { i8, %union.anon }
%union.anon = type { %"class.std::__1::vector.18" }
%"class.std::__1::vector.18" = type { %"class.std::__1::__vector_base.19" }
%"class.std::__1::__vector_base.19" = type { %"class.mojo::StructPtr.20"*, %"class.mojo::StructPtr.20"*, %"class.std::__1::__compressed_pair.26" }
%"class.mojo::StructPtr.20" = type { %"class.std::__1::unique_ptr.21" }
%"class.std::__1::unique_ptr.21" = type { %"class.std::__1::__compressed_pair.22" }
%"class.std::__1::__compressed_pair.22" = type { %"struct.std::__1::__compressed_pair_elem.23" }
%"struct.std::__1::__compressed_pair_elem.23" = type { %"class.mojo::native::SerializedHandle"* }
%"class.mojo::native::SerializedHandle" = type { %"class.mojo::ScopedHandleBase.24", i32 }
%"class.mojo::ScopedHandleBase.24" = type { %"class.mojo::Handle" }
%"class.std::__1::__compressed_pair.26" = type { %"struct.std::__1::__compressed_pair_elem.27" }
%"struct.std::__1::__compressed_pair_elem.27" = type { %"class.mojo::StructPtr.20"* }
%"class.WTF::String" = type { %class.scoped_refptr.34 }
%class.scoped_refptr.34 = type { %"class.WTF::StringImpl"* }
%"class.WTF::StringImpl" = type { i32, i32, %"struct.std::__1::atomic.5" }
%"class.std::__1::basic_string" = type { %"class.std::__1::__compressed_pair.35" }
%"class.std::__1::__compressed_pair.35" = type { %"struct.std::__1::__compressed_pair_elem.36" }
%"struct.std::__1::__compressed_pair_elem.36" = type { %"struct.std::__1::basic_string<char, std::__1::char_traits<char>, std::__1::allocator<char> >::__rep" }
%"struct.std::__1::basic_string<char, std::__1::char_traits<char>, std::__1::allocator<char> >::__rep" = type { %union.anon.37 }
%union.anon.37 = type { %"struct.std::__1::basic_string<char, std::__1::char_traits<char>, std::__1::allocator<char> >::__long" }
%"struct.std::__1::basic_string<char, std::__1::char_traits<char>, std::__1::allocator<char> >::__long" = type { i8*, i64, i64 }
%"class.mojo::PendingRemote.44" = type { %"struct.mojo::internal::PendingRemoteState" }
%"class.mojo::StructPtr.45" = type { %"class.std::__1::unique_ptr.46" }
%"class.std::__1::unique_ptr.46" = type { %"class.std::__1::__compressed_pair.47" }
%"class.std::__1::__compressed_pair.47" = type { %"struct.std::__1::__compressed_pair_elem.48" }
%"struct.std::__1::__compressed_pair_elem.48" = type { %"class.cert_verifier::mojom::blink::CertVerifierConfig"* }
%"class.cert_verifier::mojom::blink::CertVerifierConfig" = type { i8, i8, i8, i8, %"class.mojo_base::BigBuffer", %"class.WTF::Vector", %"class.WTF::Vector" }
%"class.mojo_base::BigBuffer" = type { i32, %"class.std::__1::unique_ptr.49", i64, %"class.absl::optional.54" }
%"class.std::__1::unique_ptr.49" = type { %"class.std::__1::__compressed_pair.50" }
%"class.std::__1::__compressed_pair.50" = type { %"struct.std::__1::__compressed_pair_elem.16" }
%"class.absl::optional.54" = type { %"class.absl::optional_internal::optional_data.55" }
%"class.absl::optional_internal::optional_data.55" = type { %"class.absl::optional_internal::optional_data_base.56" }
%"class.absl::optional_internal::optional_data_base.56" = type { %"class.absl::optional_internal::optional_data_dtor_base.57" }
%"class.absl::optional_internal::optional_data_dtor_base.57" = type { i8, %union.anon.58 }
%union.anon.58 = type { %"class.mojo_base::internal::BigBufferSharedMemoryRegion" }
%"class.mojo_base::internal::BigBufferSharedMemoryRegion" = type { i64, %"class.mojo::ScopedHandleBase.59", %"class.std::__1::unique_ptr.60" }
%"class.mojo::ScopedHandleBase.59" = type { %"class.mojo::SharedBufferHandle" }
%"class.mojo::SharedBufferHandle" = type { %"class.mojo::Handle" }
%"class.std::__1::unique_ptr.60" = type { %"class.std::__1::__compressed_pair.61" }
%"class.std::__1::__compressed_pair.61" = type { %"struct.std::__1::__compressed_pair_elem.62" }
%"struct.std::__1::__compressed_pair_elem.62" = type { i8* }
%"class.WTF::Vector" = type { %"class.WTF::VectorBuffer" }
%"class.WTF::VectorBuffer" = type { %"class.WTF::VectorBufferBase" }
%"class.WTF::VectorBufferBase" = type { %"class.mojo::StructPtr.11"*, i32, i32 }
%"class.cert_verifier::mojom::blink::CertVerifierRequestInterceptorForTesting" = type { %"class.cert_verifier::mojom::blink::CertVerifierRequest" }

$_ZN13cert_verifier5mojom5blink25URLLoaderFactoryConnectorD2Ev = comdat any

$_ZN13cert_verifier5mojom5blink46URLLoaderFactoryConnectorInterceptorForTestingD0Ev = comdat any

$_ZN13cert_verifier5mojom5blink19CertVerifierServiceD2Ev = comdat any

$_ZN13cert_verifier5mojom5blink40CertVerifierServiceInterceptorForTestingD0Ev = comdat any

$_ZN13cert_verifier5mojom5blink19CertVerifierRequestD2Ev = comdat any

$_ZN13cert_verifier5mojom5blink40CertVerifierRequestInterceptorForTestingD0Ev = comdat any

@_ZTVN13cert_verifier5mojom5blink46URLLoaderFactoryConnectorInterceptorForTestingE = hidden unnamed_addr constant { [6 x i8*] } { [6 x i8*] [i8* null, i8* null, i8* bitcast (void (%"class.cert_verifier::mojom::blink::URLLoaderFactoryConnector"*)* @_ZN13cert_verifier5mojom5blink25URLLoaderFactoryConnectorD2Ev to i8*), i8* bitcast (void (%"class.cert_verifier::mojom::blink::URLLoaderFactoryConnectorInterceptorForTesting"*)* @_ZN13cert_verifier5mojom5blink46URLLoaderFactoryConnectorInterceptorForTestingD0Ev to i8*), i8* bitcast (void (%"class.cert_verifier::mojom::blink::URLLoaderFactoryConnectorInterceptorForTesting"*, %"class.mojo::PendingReceiver"*)* @_ZN13cert_verifier5mojom5blink46URLLoaderFactoryConnectorInterceptorForTesting22CreateURLLoaderFactoryEN4mojo15PendingReceiverIN7network5mojom5blink16URLLoaderFactoryEEE to i8*), i8* bitcast (void ()* @__cxa_pure_virtual to i8*)] }, align 8
@_ZTVN13cert_verifier5mojom5blink40CertVerifierServiceInterceptorForTestingE = hidden unnamed_addr constant { [8 x i8*] } { [8 x i8*] [i8* null, i8* null, i8* bitcast (void (%"class.cert_verifier::mojom::blink::CertVerifierService"*)* @_ZN13cert_verifier5mojom5blink19CertVerifierServiceD2Ev to i8*), i8* bitcast (void (%"class.cert_verifier::mojom::blink::CertVerifierServiceInterceptorForTesting"*)* @_ZN13cert_verifier5mojom5blink40CertVerifierServiceInterceptorForTestingD0Ev to i8*), i8* bitcast (void (%"class.cert_verifier::mojom::blink::CertVerifierServiceInterceptorForTesting"*, %"class.mojo::PendingRemote"*, %"class.mojo::PendingRemote.10"*)* @_ZN13cert_verifier5mojom5blink40CertVerifierServiceInterceptorForTesting19EnableNetworkAccessEN4mojo13PendingRemoteIN7network5mojom5blink16URLLoaderFactoryEEENS4_INS1_25URLLoaderFactoryConnectorEEE to i8*), i8* bitcast (void (%"class.cert_verifier::mojom::blink::CertVerifierServiceInterceptorForTesting"*, %"class.mojo::StructPtr"*, %"class.mojo::PendingRemote.44"*)* @_ZN13cert_verifier5mojom5blink40CertVerifierServiceInterceptorForTesting6VerifyEN4mojo9StructPtrINS1_13RequestParamsEEENS3_13PendingRemoteINS1_19CertVerifierRequestEEE to i8*), i8* bitcast (void (%"class.cert_verifier::mojom::blink::CertVerifierServiceInterceptorForTesting"*, %"class.mojo::StructPtr.45"*)* @_ZN13cert_verifier5mojom5blink40CertVerifierServiceInterceptorForTesting9SetConfigEN4mojo9StructPtrINS1_18CertVerifierConfigEEE to i8*), i8* bitcast (void ()* @__cxa_pure_virtual to i8*)] }, align 8
@_ZTVN13cert_verifier5mojom5blink40CertVerifierRequestInterceptorForTestingE = hidden unnamed_addr constant { [6 x i8*] } { [6 x i8*] [i8* null, i8* null, i8* bitcast (void (%"class.cert_verifier::mojom::blink::CertVerifierRequest"*)* @_ZN13cert_verifier5mojom5blink19CertVerifierRequestD2Ev to i8*), i8* bitcast (void (%"class.cert_verifier::mojom::blink::CertVerifierRequestInterceptorForTesting"*)* @_ZN13cert_verifier5mojom5blink40CertVerifierRequestInterceptorForTestingD0Ev to i8*), i8* bitcast (void (%"class.cert_verifier::mojom::blink::CertVerifierRequestInterceptorForTesting"*, %"class.mojo::StructPtr.11"*, i32)* @_ZN13cert_verifier5mojom5blink40CertVerifierRequestInterceptorForTesting8CompleteEN4mojo9StructPtrINS3_6native12NativeStructEEEi to i8*), i8* bitcast (void ()* @__cxa_pure_virtual to i8*)] }, align 8

@_ZN13cert_verifier5mojom5blink36URLLoaderFactoryConnectorAsyncWaiterC1EPNS1_25URLLoaderFactoryConnectorE = hidden unnamed_addr alias void (%"class.cert_verifier::mojom::blink::URLLoaderFactoryConnectorAsyncWaiter"*, %"class.cert_verifier::mojom::blink::URLLoaderFactoryConnector"*), void (%"class.cert_verifier::mojom::blink::URLLoaderFactoryConnectorAsyncWaiter"*, %"class.cert_verifier::mojom::blink::URLLoaderFactoryConnector"*)* @_ZN13cert_verifier5mojom5blink36URLLoaderFactoryConnectorAsyncWaiterC2EPNS1_25URLLoaderFactoryConnectorE
@_ZN13cert_verifier5mojom5blink36URLLoaderFactoryConnectorAsyncWaiterD1Ev = hidden unnamed_addr alias void (%"class.cert_verifier::mojom::blink::URLLoaderFactoryConnectorAsyncWaiter"*), void (%"class.cert_verifier::mojom::blink::URLLoaderFactoryConnectorAsyncWaiter"*)* @_ZN13cert_verifier5mojom5blink36URLLoaderFactoryConnectorAsyncWaiterD2Ev
@_ZN13cert_verifier5mojom5blink30CertVerifierServiceAsyncWaiterC1EPNS1_19CertVerifierServiceE = hidden unnamed_addr alias void (%"class.cert_verifier::mojom::blink::CertVerifierServiceAsyncWaiter"*, %"class.cert_verifier::mojom::blink::CertVerifierService"*), void (%"class.cert_verifier::mojom::blink::CertVerifierServiceAsyncWaiter"*, %"class.cert_verifier::mojom::blink::CertVerifierService"*)* @_ZN13cert_verifier5mojom5blink30CertVerifierServiceAsyncWaiterC2EPNS1_19CertVerifierServiceE
@_ZN13cert_verifier5mojom5blink30CertVerifierServiceAsyncWaiterD1Ev = hidden unnamed_addr alias void (%"class.cert_verifier::mojom::blink::CertVerifierServiceAsyncWaiter"*), void (%"class.cert_verifier::mojom::blink::CertVerifierServiceAsyncWaiter"*)* @_ZN13cert_verifier5mojom5blink30CertVerifierServiceAsyncWaiterD2Ev
@_ZN13cert_verifier5mojom5blink30CertVerifierRequestAsyncWaiterC1EPNS1_19CertVerifierRequestE = hidden unnamed_addr alias void (%"class.cert_verifier::mojom::blink::CertVerifierRequestAsyncWaiter"*, %"class.cert_verifier::mojom::blink::CertVerifierRequest"*), void (%"class.cert_verifier::mojom::blink::CertVerifierRequestAsyncWaiter"*, %"class.cert_verifier::mojom::blink::CertVerifierRequest"*)* @_ZN13cert_verifier5mojom5blink30CertVerifierRequestAsyncWaiterC2EPNS1_19CertVerifierRequestE
@_ZN13cert_verifier5mojom5blink30CertVerifierRequestAsyncWaiterD1Ev = hidden unnamed_addr alias void (%"class.cert_verifier::mojom::blink::CertVerifierRequestAsyncWaiter"*), void (%"class.cert_verifier::mojom::blink::CertVerifierRequestAsyncWaiter"*)* @_ZN13cert_verifier5mojom5blink30CertVerifierRequestAsyncWaiterD2Ev

; Function Attrs: nounwind ssp uwtable
define hidden void @_ZN13cert_verifier5mojom5blink46URLLoaderFactoryConnectorInterceptorForTesting22CreateURLLoaderFactoryEN4mojo15PendingReceiverIN7network5mojom5blink16URLLoaderFactoryEEE(%"class.cert_verifier::mojom::blink::URLLoaderFactoryConnectorInterceptorForTesting"*, %"class.mojo::PendingReceiver"*) unnamed_addr #0 align 2 {
  %3 = alloca %"class.mojo::PendingReceiver", align 8
  %4 = bitcast %"class.cert_verifier::mojom::blink::URLLoaderFactoryConnectorInterceptorForTesting"* %0 to %"class.cert_verifier::mojom::blink::URLLoaderFactoryConnector"* (%"class.cert_verifier::mojom::blink::URLLoaderFactoryConnectorInterceptorForTesting"*)***
  %5 = load %"class.cert_verifier::mojom::blink::URLLoaderFactoryConnector"* (%"class.cert_verifier::mojom::blink::URLLoaderFactoryConnectorInterceptorForTesting"*)**, %"class.cert_verifier::mojom::blink::URLLoaderFactoryConnector"* (%"class.cert_verifier::mojom::blink::URLLoaderFactoryConnectorInterceptorForTesting"*)*** %4, align 8
  %6 = getelementptr inbounds %"class.cert_verifier::mojom::blink::URLLoaderFactoryConnector"* (%"class.cert_verifier::mojom::blink::URLLoaderFactoryConnectorInterceptorForTesting"*)*, %"class.cert_verifier::mojom::blink::URLLoaderFactoryConnector"* (%"class.cert_verifier::mojom::blink::URLLoaderFactoryConnectorInterceptorForTesting"*)** %5, i64 3
  %7 = load %"class.cert_verifier::mojom::blink::URLLoaderFactoryConnector"* (%"class.cert_verifier::mojom::blink::URLLoaderFactoryConnectorInterceptorForTesting"*)*, %"class.cert_verifier::mojom::blink::URLLoaderFactoryConnector"* (%"class.cert_verifier::mojom::blink::URLLoaderFactoryConnectorInterceptorForTesting"*)** %6, align 8
  %8 = tail call %"class.cert_verifier::mojom::blink::URLLoaderFactoryConnector"* %7(%"class.cert_verifier::mojom::blink::URLLoaderFactoryConnectorInterceptorForTesting"* %0) #7
  %9 = getelementptr inbounds %"class.mojo::PendingReceiver", %"class.mojo::PendingReceiver"* %3, i64 0, i32 0
  %10 = getelementptr inbounds %"class.mojo::PendingReceiver", %"class.mojo::PendingReceiver"* %1, i64 0, i32 0
  call void @_ZN4mojo8internal20PendingReceiverStateC1EOS1_(%"struct.mojo::internal::PendingReceiverState"* nonnull %9, %"struct.mojo::internal::PendingReceiverState"* dereferenceable(24) %10) #7
  %11 = bitcast %"class.cert_verifier::mojom::blink::URLLoaderFactoryConnector"* %8 to void (%"class.cert_verifier::mojom::blink::URLLoaderFactoryConnector"*, %"class.mojo::PendingReceiver"*)***
  %12 = load void (%"class.cert_verifier::mojom::blink::URLLoaderFactoryConnector"*, %"class.mojo::PendingReceiver"*)**, void (%"class.cert_verifier::mojom::blink::URLLoaderFactoryConnector"*, %"class.mojo::PendingReceiver"*)*** %11, align 8
  %13 = getelementptr inbounds void (%"class.cert_verifier::mojom::blink::URLLoaderFactoryConnector"*, %"class.mojo::PendingReceiver"*)*, void (%"class.cert_verifier::mojom::blink::URLLoaderFactoryConnector"*, %"class.mojo::PendingReceiver"*)** %12, i64 2
  %14 = load void (%"class.cert_verifier::mojom::blink::URLLoaderFactoryConnector"*, %"class.mojo::PendingReceiver"*)*, void (%"class.cert_verifier::mojom::blink::URLLoaderFactoryConnector"*, %"class.mojo::PendingReceiver"*)** %13, align 8
  call void %14(%"class.cert_verifier::mojom::blink::URLLoaderFactoryConnector"* %8, %"class.mojo::PendingReceiver"* nonnull %3) #7
  call void @_ZN4mojo8internal20PendingReceiverStateD1Ev(%"struct.mojo::internal::PendingReceiverState"* nonnull %9) #7
  ret void
}

; Function Attrs: nofree norecurse nounwind ssp uwtable writeonly
define hidden void @_ZN13cert_verifier5mojom5blink36URLLoaderFactoryConnectorAsyncWaiterC2EPNS1_25URLLoaderFactoryConnectorE(%"class.cert_verifier::mojom::blink::URLLoaderFactoryConnectorAsyncWaiter"* nocapture, %"class.cert_verifier::mojom::blink::URLLoaderFactoryConnector"*) unnamed_addr #1 align 2 {
  %3 = getelementptr inbounds %"class.cert_verifier::mojom::blink::URLLoaderFactoryConnectorAsyncWaiter", %"class.cert_verifier::mojom::blink::URLLoaderFactoryConnectorAsyncWaiter"* %0, i64 0, i32 0
  store %"class.cert_verifier::mojom::blink::URLLoaderFactoryConnector"* %1, %"class.cert_verifier::mojom::blink::URLLoaderFactoryConnector"** %3, align 8
  ret void
}

; Function Attrs: norecurse nounwind readnone ssp uwtable
define hidden void @_ZN13cert_verifier5mojom5blink36URLLoaderFactoryConnectorAsyncWaiterD2Ev(%"class.cert_verifier::mojom::blink::URLLoaderFactoryConnectorAsyncWaiter"* nocapture) unnamed_addr #2 align 2 {
  ret void
}

; Function Attrs: nounwind ssp uwtable
define hidden void @_ZN13cert_verifier5mojom5blink40CertVerifierServiceInterceptorForTesting19EnableNetworkAccessEN4mojo13PendingRemoteIN7network5mojom5blink16URLLoaderFactoryEEENS4_INS1_25URLLoaderFactoryConnectorEEE(%"class.cert_verifier::mojom::blink::CertVerifierServiceInterceptorForTesting"*, %"class.mojo::PendingRemote"*, %"class.mojo::PendingRemote.10"*) unnamed_addr #0 align 2 {
  %4 = alloca %"class.mojo::PendingRemote", align 4
  %5 = alloca %"class.mojo::PendingRemote.10", align 4
  %6 = bitcast %"class.cert_verifier::mojom::blink::CertVerifierServiceInterceptorForTesting"* %0 to %"class.cert_verifier::mojom::blink::CertVerifierService"* (%"class.cert_verifier::mojom::blink::CertVerifierServiceInterceptorForTesting"*)***
  %7 = load %"class.cert_verifier::mojom::blink::CertVerifierService"* (%"class.cert_verifier::mojom::blink::CertVerifierServiceInterceptorForTesting"*)**, %"class.cert_verifier::mojom::blink::CertVerifierService"* (%"class.cert_verifier::mojom::blink::CertVerifierServiceInterceptorForTesting"*)*** %6, align 8
  %8 = getelementptr inbounds %"class.cert_verifier::mojom::blink::CertVerifierService"* (%"class.cert_verifier::mojom::blink::CertVerifierServiceInterceptorForTesting"*)*, %"class.cert_verifier::mojom::blink::CertVerifierService"* (%"class.cert_verifier::mojom::blink::CertVerifierServiceInterceptorForTesting"*)** %7, i64 5
  %9 = load %"class.cert_verifier::mojom::blink::CertVerifierService"* (%"class.cert_verifier::mojom::blink::CertVerifierServiceInterceptorForTesting"*)*, %"class.cert_verifier::mojom::blink::CertVerifierService"* (%"class.cert_verifier::mojom::blink::CertVerifierServiceInterceptorForTesting"*)** %8, align 8
  %10 = tail call %"class.cert_verifier::mojom::blink::CertVerifierService"* %9(%"class.cert_verifier::mojom::blink::CertVerifierServiceInterceptorForTesting"* %0) #7
  %11 = getelementptr inbounds %"class.mojo::PendingRemote", %"class.mojo::PendingRemote"* %4, i64 0, i32 0
  %12 = getelementptr inbounds %"class.mojo::PendingRemote", %"class.mojo::PendingRemote"* %1, i64 0, i32 0
  call void @_ZN4mojo8internal18PendingRemoteStateC1EOS1_(%"struct.mojo::internal::PendingRemoteState"* nonnull %11, %"struct.mojo::internal::PendingRemoteState"* dereferenceable(8) %12) #7
  %13 = getelementptr inbounds %"class.mojo::PendingRemote.10", %"class.mojo::PendingRemote.10"* %5, i64 0, i32 0
  %14 = getelementptr inbounds %"class.mojo::PendingRemote.10", %"class.mojo::PendingRemote.10"* %2, i64 0, i32 0
  call void @_ZN4mojo8internal18PendingRemoteStateC1EOS1_(%"struct.mojo::internal::PendingRemoteState"* nonnull %13, %"struct.mojo::internal::PendingRemoteState"* dereferenceable(8) %14) #7
  %15 = bitcast %"class.cert_verifier::mojom::blink::CertVerifierService"* %10 to void (%"class.cert_verifier::mojom::blink::CertVerifierService"*, %"class.mojo::PendingRemote"*, %"class.mojo::PendingRemote.10"*)***
  %16 = load void (%"class.cert_verifier::mojom::blink::CertVerifierService"*, %"class.mojo::PendingRemote"*, %"class.mojo::PendingRemote.10"*)**, void (%"class.cert_verifier::mojom::blink::CertVerifierService"*, %"class.mojo::PendingRemote"*, %"class.mojo::PendingRemote.10"*)*** %15, align 8
  %17 = getelementptr inbounds void (%"class.cert_verifier::mojom::blink::CertVerifierService"*, %"class.mojo::PendingRemote"*, %"class.mojo::PendingRemote.10"*)*, void (%"class.cert_verifier::mojom::blink::CertVerifierService"*, %"class.mojo::PendingRemote"*, %"class.mojo::PendingRemote.10"*)** %16, i64 2
  %18 = load void (%"class.cert_verifier::mojom::blink::CertVerifierService"*, %"class.mojo::PendingRemote"*, %"class.mojo::PendingRemote.10"*)*, void (%"class.cert_verifier::mojom::blink::CertVerifierService"*, %"class.mojo::PendingRemote"*, %"class.mojo::PendingRemote.10"*)** %17, align 8
  call void %18(%"class.cert_verifier::mojom::blink::CertVerifierService"* %10, %"class.mojo::PendingRemote"* nonnull %4, %"class.mojo::PendingRemote.10"* nonnull %5) #7
  call void @_ZN4mojo8internal18PendingRemoteStateD1Ev(%"struct.mojo::internal::PendingRemoteState"* nonnull %13) #7
  call void @_ZN4mojo8internal18PendingRemoteStateD1Ev(%"struct.mojo::internal::PendingRemoteState"* nonnull %11) #7
  ret void
}

; Function Attrs: nounwind ssp uwtable
define hidden void @_ZN13cert_verifier5mojom5blink40CertVerifierServiceInterceptorForTesting6VerifyEN4mojo9StructPtrINS1_13RequestParamsEEENS3_13PendingRemoteINS1_19CertVerifierRequestEEE(%"class.cert_verifier::mojom::blink::CertVerifierServiceInterceptorForTesting"*, %"class.mojo::StructPtr"* nocapture, %"class.mojo::PendingRemote.44"*) unnamed_addr #0 align 2 {
  %4 = alloca %"class.mojo::StructPtr", align 8
  %5 = alloca %"class.mojo::PendingRemote.44", align 4
  %6 = bitcast %"class.cert_verifier::mojom::blink::CertVerifierServiceInterceptorForTesting"* %0 to %"class.cert_verifier::mojom::blink::CertVerifierService"* (%"class.cert_verifier::mojom::blink::CertVerifierServiceInterceptorForTesting"*)***
  %7 = load %"class.cert_verifier::mojom::blink::CertVerifierService"* (%"class.cert_verifier::mojom::blink::CertVerifierServiceInterceptorForTesting"*)**, %"class.cert_verifier::mojom::blink::CertVerifierService"* (%"class.cert_verifier::mojom::blink::CertVerifierServiceInterceptorForTesting"*)*** %6, align 8
  %8 = getelementptr inbounds %"class.cert_verifier::mojom::blink::CertVerifierService"* (%"class.cert_verifier::mojom::blink::CertVerifierServiceInterceptorForTesting"*)*, %"class.cert_verifier::mojom::blink::CertVerifierService"* (%"class.cert_verifier::mojom::blink::CertVerifierServiceInterceptorForTesting"*)** %7, i64 5
  %9 = load %"class.cert_verifier::mojom::blink::CertVerifierService"* (%"class.cert_verifier::mojom::blink::CertVerifierServiceInterceptorForTesting"*)*, %"class.cert_verifier::mojom::blink::CertVerifierService"* (%"class.cert_verifier::mojom::blink::CertVerifierServiceInterceptorForTesting"*)** %8, align 8
  %10 = tail call %"class.cert_verifier::mojom::blink::CertVerifierService"* %9(%"class.cert_verifier::mojom::blink::CertVerifierServiceInterceptorForTesting"* %0) #7
  %11 = bitcast %"class.mojo::StructPtr"* %4 to i64*
  %12 = getelementptr inbounds %"class.mojo::StructPtr", %"class.mojo::StructPtr"* %4, i64 0, i32 0, i32 0, i32 0, i32 0
  %13 = bitcast %"class.mojo::StructPtr"* %1 to i64*
  %14 = load i64, i64* %13, align 8
  store i64 %14, i64* %11, align 8
  store i64 0, i64* %13, align 8
  %15 = getelementptr inbounds %"class.mojo::PendingRemote.44", %"class.mojo::PendingRemote.44"* %5, i64 0, i32 0
  %16 = getelementptr inbounds %"class.mojo::PendingRemote.44", %"class.mojo::PendingRemote.44"* %2, i64 0, i32 0
  call void @_ZN4mojo8internal18PendingRemoteStateC1EOS1_(%"struct.mojo::internal::PendingRemoteState"* nonnull %15, %"struct.mojo::internal::PendingRemoteState"* dereferenceable(8) %16) #7
  %17 = bitcast %"class.cert_verifier::mojom::blink::CertVerifierService"* %10 to void (%"class.cert_verifier::mojom::blink::CertVerifierService"*, %"class.mojo::StructPtr"*, %"class.mojo::PendingRemote.44"*)***
  %18 = load void (%"class.cert_verifier::mojom::blink::CertVerifierService"*, %"class.mojo::StructPtr"*, %"class.mojo::PendingRemote.44"*)**, void (%"class.cert_verifier::mojom::blink::CertVerifierService"*, %"class.mojo::StructPtr"*, %"class.mojo::PendingRemote.44"*)*** %17, align 8
  %19 = getelementptr inbounds void (%"class.cert_verifier::mojom::blink::CertVerifierService"*, %"class.mojo::StructPtr"*, %"class.mojo::PendingRemote.44"*)*, void (%"class.cert_verifier::mojom::blink::CertVerifierService"*, %"class.mojo::StructPtr"*, %"class.mojo::PendingRemote.44"*)** %18, i64 3
  %20 = load void (%"class.cert_verifier::mojom::blink::CertVerifierService"*, %"class.mojo::StructPtr"*, %"class.mojo::PendingRemote.44"*)*, void (%"class.cert_verifier::mojom::blink::CertVerifierService"*, %"class.mojo::StructPtr"*, %"class.mojo::PendingRemote.44"*)** %19, align 8
  call void %20(%"class.cert_verifier::mojom::blink::CertVerifierService"* %10, %"class.mojo::StructPtr"* nonnull %4, %"class.mojo::PendingRemote.44"* nonnull %5) #7
  call void @_ZN4mojo8internal18PendingRemoteStateD1Ev(%"struct.mojo::internal::PendingRemoteState"* nonnull %15) #7
  %21 = load %"class.cert_verifier::mojom::blink::RequestParams"*, %"class.cert_verifier::mojom::blink::RequestParams"** %12, align 8
  store %"class.cert_verifier::mojom::blink::RequestParams"* null, %"class.cert_verifier::mojom::blink::RequestParams"** %12, align 8
  %22 = icmp eq %"class.cert_verifier::mojom::blink::RequestParams"* %21, null
  br i1 %22, label %25, label %23

23:                                               ; preds = %3
  call void @_ZN13cert_verifier5mojom5blink13RequestParamsD1Ev(%"class.cert_verifier::mojom::blink::RequestParams"* nonnull %21) #7
  %24 = bitcast %"class.cert_verifier::mojom::blink::RequestParams"* %21 to i8*
  call void @_ZdlPv(i8* %24) #8
  br label %25

25:                                               ; preds = %3, %23
  ret void
}

; Function Attrs: nounwind ssp uwtable
define hidden void @_ZN13cert_verifier5mojom5blink40CertVerifierServiceInterceptorForTesting9SetConfigEN4mojo9StructPtrINS1_18CertVerifierConfigEEE(%"class.cert_verifier::mojom::blink::CertVerifierServiceInterceptorForTesting"*, %"class.mojo::StructPtr.45"* nocapture) unnamed_addr #0 align 2 {
  %3 = alloca %"class.mojo::StructPtr.45", align 8
  %4 = bitcast %"class.cert_verifier::mojom::blink::CertVerifierServiceInterceptorForTesting"* %0 to %"class.cert_verifier::mojom::blink::CertVerifierService"* (%"class.cert_verifier::mojom::blink::CertVerifierServiceInterceptorForTesting"*)***
  %5 = load %"class.cert_verifier::mojom::blink::CertVerifierService"* (%"class.cert_verifier::mojom::blink::CertVerifierServiceInterceptorForTesting"*)**, %"class.cert_verifier::mojom::blink::CertVerifierService"* (%"class.cert_verifier::mojom::blink::CertVerifierServiceInterceptorForTesting"*)*** %4, align 8
  %6 = getelementptr inbounds %"class.cert_verifier::mojom::blink::CertVerifierService"* (%"class.cert_verifier::mojom::blink::CertVerifierServiceInterceptorForTesting"*)*, %"class.cert_verifier::mojom::blink::CertVerifierService"* (%"class.cert_verifier::mojom::blink::CertVerifierServiceInterceptorForTesting"*)** %5, i64 5
  %7 = load %"class.cert_verifier::mojom::blink::CertVerifierService"* (%"class.cert_verifier::mojom::blink::CertVerifierServiceInterceptorForTesting"*)*, %"class.cert_verifier::mojom::blink::CertVerifierService"* (%"class.cert_verifier::mojom::blink::CertVerifierServiceInterceptorForTesting"*)** %6, align 8
  %8 = tail call %"class.cert_verifier::mojom::blink::CertVerifierService"* %7(%"class.cert_verifier::mojom::blink::CertVerifierServiceInterceptorForTesting"* %0) #7
  %9 = bitcast %"class.mojo::StructPtr.45"* %3 to i64*
  %10 = getelementptr inbounds %"class.mojo::StructPtr.45", %"class.mojo::StructPtr.45"* %3, i64 0, i32 0, i32 0, i32 0, i32 0
  %11 = bitcast %"class.mojo::StructPtr.45"* %1 to i64*
  %12 = load i64, i64* %11, align 8
  store i64 %12, i64* %9, align 8
  store i64 0, i64* %11, align 8
  %13 = bitcast %"class.cert_verifier::mojom::blink::CertVerifierService"* %8 to void (%"class.cert_verifier::mojom::blink::CertVerifierService"*, %"class.mojo::StructPtr.45"*)***
  %14 = load void (%"class.cert_verifier::mojom::blink::CertVerifierService"*, %"class.mojo::StructPtr.45"*)**, void (%"class.cert_verifier::mojom::blink::CertVerifierService"*, %"class.mojo::StructPtr.45"*)*** %13, align 8
  %15 = getelementptr inbounds void (%"class.cert_verifier::mojom::blink::CertVerifierService"*, %"class.mojo::StructPtr.45"*)*, void (%"class.cert_verifier::mojom::blink::CertVerifierService"*, %"class.mojo::StructPtr.45"*)** %14, i64 4
  %16 = load void (%"class.cert_verifier::mojom::blink::CertVerifierService"*, %"class.mojo::StructPtr.45"*)*, void (%"class.cert_verifier::mojom::blink::CertVerifierService"*, %"class.mojo::StructPtr.45"*)** %15, align 8
  call void %16(%"class.cert_verifier::mojom::blink::CertVerifierService"* %8, %"class.mojo::StructPtr.45"* nonnull %3) #7
  %17 = load %"class.cert_verifier::mojom::blink::CertVerifierConfig"*, %"class.cert_verifier::mojom::blink::CertVerifierConfig"** %10, align 8
  store %"class.cert_verifier::mojom::blink::CertVerifierConfig"* null, %"class.cert_verifier::mojom::blink::CertVerifierConfig"** %10, align 8
  %18 = icmp eq %"class.cert_verifier::mojom::blink::CertVerifierConfig"* %17, null
  br i1 %18, label %21, label %19

19:                                               ; preds = %2
  call void @_ZN13cert_verifier5mojom5blink18CertVerifierConfigD1Ev(%"class.cert_verifier::mojom::blink::CertVerifierConfig"* nonnull %17) #7
  %20 = getelementptr inbounds %"class.cert_verifier::mojom::blink::CertVerifierConfig", %"class.cert_verifier::mojom::blink::CertVerifierConfig"* %17, i64 0, i32 0
  call void @_ZdlPv(i8* %20) #8
  br label %21

21:                                               ; preds = %2, %19
  ret void
}

; Function Attrs: nofree norecurse nounwind ssp uwtable writeonly
define hidden void @_ZN13cert_verifier5mojom5blink30CertVerifierServiceAsyncWaiterC2EPNS1_19CertVerifierServiceE(%"class.cert_verifier::mojom::blink::CertVerifierServiceAsyncWaiter"* nocapture, %"class.cert_verifier::mojom::blink::CertVerifierService"*) unnamed_addr #1 align 2 {
  %3 = getelementptr inbounds %"class.cert_verifier::mojom::blink::CertVerifierServiceAsyncWaiter", %"class.cert_verifier::mojom::blink::CertVerifierServiceAsyncWaiter"* %0, i64 0, i32 0
  store %"class.cert_verifier::mojom::blink::CertVerifierService"* %1, %"class.cert_verifier::mojom::blink::CertVerifierService"** %3, align 8
  ret void
}

; Function Attrs: norecurse nounwind readnone ssp uwtable
define hidden void @_ZN13cert_verifier5mojom5blink30CertVerifierServiceAsyncWaiterD2Ev(%"class.cert_verifier::mojom::blink::CertVerifierServiceAsyncWaiter"* nocapture) unnamed_addr #2 align 2 {
  ret void
}

; Function Attrs: nounwind ssp uwtable
define hidden void @_ZN13cert_verifier5mojom5blink40CertVerifierRequestInterceptorForTesting8CompleteEN4mojo9StructPtrINS3_6native12NativeStructEEEi(%"class.cert_verifier::mojom::blink::CertVerifierRequestInterceptorForTesting"*, %"class.mojo::StructPtr.11"* nocapture, i32) unnamed_addr #0 align 2 {
  %4 = alloca %"class.mojo::StructPtr.11", align 8
  %5 = bitcast %"class.cert_verifier::mojom::blink::CertVerifierRequestInterceptorForTesting"* %0 to %"class.cert_verifier::mojom::blink::CertVerifierRequest"* (%"class.cert_verifier::mojom::blink::CertVerifierRequestInterceptorForTesting"*)***
  %6 = load %"class.cert_verifier::mojom::blink::CertVerifierRequest"* (%"class.cert_verifier::mojom::blink::CertVerifierRequestInterceptorForTesting"*)**, %"class.cert_verifier::mojom::blink::CertVerifierRequest"* (%"class.cert_verifier::mojom::blink::CertVerifierRequestInterceptorForTesting"*)*** %5, align 8
  %7 = getelementptr inbounds %"class.cert_verifier::mojom::blink::CertVerifierRequest"* (%"class.cert_verifier::mojom::blink::CertVerifierRequestInterceptorForTesting"*)*, %"class.cert_verifier::mojom::blink::CertVerifierRequest"* (%"class.cert_verifier::mojom::blink::CertVerifierRequestInterceptorForTesting"*)** %6, i64 3
  %8 = load %"class.cert_verifier::mojom::blink::CertVerifierRequest"* (%"class.cert_verifier::mojom::blink::CertVerifierRequestInterceptorForTesting"*)*, %"class.cert_verifier::mojom::blink::CertVerifierRequest"* (%"class.cert_verifier::mojom::blink::CertVerifierRequestInterceptorForTesting"*)** %7, align 8
  %9 = tail call %"class.cert_verifier::mojom::blink::CertVerifierRequest"* %8(%"class.cert_verifier::mojom::blink::CertVerifierRequestInterceptorForTesting"* %0) #7
  %10 = bitcast %"class.mojo::StructPtr.11"* %4 to i64*
  %11 = getelementptr inbounds %"class.mojo::StructPtr.11", %"class.mojo::StructPtr.11"* %4, i64 0, i32 0, i32 0, i32 0, i32 0
  %12 = bitcast %"class.mojo::StructPtr.11"* %1 to i64*
  %13 = load i64, i64* %12, align 8
  store i64 %13, i64* %10, align 8
  store i64 0, i64* %12, align 8
  %14 = bitcast %"class.cert_verifier::mojom::blink::CertVerifierRequest"* %9 to void (%"class.cert_verifier::mojom::blink::CertVerifierRequest"*, %"class.mojo::StructPtr.11"*, i32)***
  %15 = load void (%"class.cert_verifier::mojom::blink::CertVerifierRequest"*, %"class.mojo::StructPtr.11"*, i32)**, void (%"class.cert_verifier::mojom::blink::CertVerifierRequest"*, %"class.mojo::StructPtr.11"*, i32)*** %14, align 8
  %16 = getelementptr inbounds void (%"class.cert_verifier::mojom::blink::CertVerifierRequest"*, %"class.mojo::StructPtr.11"*, i32)*, void (%"class.cert_verifier::mojom::blink::CertVerifierRequest"*, %"class.mojo::StructPtr.11"*, i32)** %15, i64 2
  %17 = load void (%"class.cert_verifier::mojom::blink::CertVerifierRequest"*, %"class.mojo::StructPtr.11"*, i32)*, void (%"class.cert_verifier::mojom::blink::CertVerifierRequest"*, %"class.mojo::StructPtr.11"*, i32)** %16, align 8
  call void %17(%"class.cert_verifier::mojom::blink::CertVerifierRequest"* %9, %"class.mojo::StructPtr.11"* nonnull %4, i32 %2) #7
  %18 = load %"class.mojo::native::NativeStruct"*, %"class.mojo::native::NativeStruct"** %11, align 8
  store %"class.mojo::native::NativeStruct"* null, %"class.mojo::native::NativeStruct"** %11, align 8
  %19 = icmp eq %"class.mojo::native::NativeStruct"* %18, null
  br i1 %19, label %22, label %20

20:                                               ; preds = %3
  call void @_ZN4mojo6native12NativeStructD1Ev(%"class.mojo::native::NativeStruct"* nonnull %18) #7
  %21 = bitcast %"class.mojo::native::NativeStruct"* %18 to i8*
  call void @_ZdlPv(i8* %21) #8
  br label %22

22:                                               ; preds = %3, %20
  ret void
}

; Function Attrs: nofree norecurse nounwind ssp uwtable writeonly
define hidden void @_ZN13cert_verifier5mojom5blink30CertVerifierRequestAsyncWaiterC2EPNS1_19CertVerifierRequestE(%"class.cert_verifier::mojom::blink::CertVerifierRequestAsyncWaiter"* nocapture, %"class.cert_verifier::mojom::blink::CertVerifierRequest"*) unnamed_addr #1 align 2 {
  %3 = getelementptr inbounds %"class.cert_verifier::mojom::blink::CertVerifierRequestAsyncWaiter", %"class.cert_verifier::mojom::blink::CertVerifierRequestAsyncWaiter"* %0, i64 0, i32 0
  store %"class.cert_verifier::mojom::blink::CertVerifierRequest"* %1, %"class.cert_verifier::mojom::blink::CertVerifierRequest"** %3, align 8
  ret void
}

; Function Attrs: norecurse nounwind readnone ssp uwtable
define hidden void @_ZN13cert_verifier5mojom5blink30CertVerifierRequestAsyncWaiterD2Ev(%"class.cert_verifier::mojom::blink::CertVerifierRequestAsyncWaiter"* nocapture) unnamed_addr #2 align 2 {
  ret void
}

; Function Attrs: nounwind ssp uwtable
define linkonce_odr hidden void @_ZN13cert_verifier5mojom5blink25URLLoaderFactoryConnectorD2Ev(%"class.cert_verifier::mojom::blink::URLLoaderFactoryConnector"*) unnamed_addr #0 comdat align 2 {
  ret void
}

; Function Attrs: inlinehint nounwind ssp uwtable
define linkonce_odr hidden void @_ZN13cert_verifier5mojom5blink46URLLoaderFactoryConnectorInterceptorForTestingD0Ev(%"class.cert_verifier::mojom::blink::URLLoaderFactoryConnectorInterceptorForTesting"*) unnamed_addr #3 comdat align 2 {
  tail call void @llvm.trap() #9
  unreachable
}

declare void @__cxa_pure_virtual() unnamed_addr

; Function Attrs: nounwind ssp uwtable
define linkonce_odr hidden void @_ZN13cert_verifier5mojom5blink19CertVerifierServiceD2Ev(%"class.cert_verifier::mojom::blink::CertVerifierService"*) unnamed_addr #0 comdat align 2 {
  ret void
}

; Function Attrs: inlinehint nounwind ssp uwtable
define linkonce_odr hidden void @_ZN13cert_verifier5mojom5blink40CertVerifierServiceInterceptorForTestingD0Ev(%"class.cert_verifier::mojom::blink::CertVerifierServiceInterceptorForTesting"*) unnamed_addr #3 comdat align 2 {
  tail call void @llvm.trap() #9
  unreachable
}

; Function Attrs: nounwind ssp uwtable
define linkonce_odr hidden void @_ZN13cert_verifier5mojom5blink19CertVerifierRequestD2Ev(%"class.cert_verifier::mojom::blink::CertVerifierRequest"*) unnamed_addr #0 comdat align 2 {
  ret void
}

; Function Attrs: inlinehint nounwind ssp uwtable
define linkonce_odr hidden void @_ZN13cert_verifier5mojom5blink40CertVerifierRequestInterceptorForTestingD0Ev(%"class.cert_verifier::mojom::blink::CertVerifierRequestInterceptorForTesting"*) unnamed_addr #3 comdat align 2 {
  tail call void @llvm.trap() #9
  unreachable
}

; Function Attrs: nounwind
declare void @_ZN4mojo8internal20PendingReceiverStateC1EOS1_(%"struct.mojo::internal::PendingReceiverState"*, %"struct.mojo::internal::PendingReceiverState"* dereferenceable(24)) unnamed_addr #4

; Function Attrs: nounwind
declare void @_ZN4mojo8internal20PendingReceiverStateD1Ev(%"struct.mojo::internal::PendingReceiverState"*) unnamed_addr #4

; Function Attrs: nounwind
declare void @_ZN4mojo8internal18PendingRemoteStateC1EOS1_(%"struct.mojo::internal::PendingRemoteState"*, %"struct.mojo::internal::PendingRemoteState"* dereferenceable(8)) unnamed_addr #4

; Function Attrs: nounwind
declare void @_ZN4mojo8internal18PendingRemoteStateD1Ev(%"struct.mojo::internal::PendingRemoteState"*) unnamed_addr #4

; Function Attrs: nounwind
declare void @_ZN13cert_verifier5mojom5blink13RequestParamsD1Ev(%"class.cert_verifier::mojom::blink::RequestParams"*) unnamed_addr #4

; Function Attrs: nobuiltin nounwind
declare void @_ZdlPv(i8*) local_unnamed_addr #5

; Function Attrs: nounwind
declare void @_ZN13cert_verifier5mojom5blink18CertVerifierConfigD1Ev(%"class.cert_verifier::mojom::blink::CertVerifierConfig"*) unnamed_addr #4

; Function Attrs: nounwind
declare void @_ZN4mojo6native12NativeStructD1Ev(%"class.mojo::native::NativeStruct"*) unnamed_addr #4

; Function Attrs: cold noreturn nounwind
declare void @llvm.trap() #6

attributes #0 = { nounwind ssp uwtable "correctly-rounded-divide-sqrt-fp-math"="false" "disable-tail-calls"="false" "less-precise-fpmad"="false" "min-legal-vector-width"="0" "no-frame-pointer-elim"="false" "no-frame-pointer-elim-non-leaf" "no-infs-fp-math"="false" "no-jump-tables"="false" "no-nans-fp-math"="false" "no-signed-zeros-fp-math"="false" "no-trapping-math"="false" "null-pointer-is-valid"="true" "stack-protector-buffer-size"="4" "target-cpu"="x86-64" "target-features"="+cx8,+fxsr,+mmx,+sse,+sse2,+sse3,+x87" "unsafe-fp-math"="false" "use-soft-float"="false" }
attributes #1 = { nofree norecurse nounwind ssp uwtable writeonly "correctly-rounded-divide-sqrt-fp-math"="false" "disable-tail-calls"="false" "less-precise-fpmad"="false" "min-legal-vector-width"="0" "no-frame-pointer-elim"="false" "no-frame-pointer-elim-non-leaf" "no-infs-fp-math"="false" "no-jump-tables"="false" "no-nans-fp-math"="false" "no-signed-zeros-fp-math"="false" "no-trapping-math"="false" "null-pointer-is-valid"="true" "stack-protector-buffer-size"="4" "target-cpu"="x86-64" "target-features"="+cx8,+fxsr,+mmx,+sse,+sse2,+sse3,+x87" "unsafe-fp-math"="false" "use-soft-float"="false" }
attributes #2 = { norecurse nounwind readnone ssp uwtable "correctly-rounded-divide-sqrt-fp-math"="false" "disable-tail-calls"="false" "less-precise-fpmad"="false" "min-legal-vector-width"="0" "no-frame-pointer-elim"="false" "no-frame-pointer-elim-non-leaf" "no-infs-fp-math"="false" "no-jump-tables"="false" "no-nans-fp-math"="false" "no-signed-zeros-fp-math"="false" "no-trapping-math"="false" "null-pointer-is-valid"="true" "stack-protector-buffer-size"="4" "target-cpu"="x86-64" "target-features"="+cx8,+fxsr,+mmx,+sse,+sse2,+sse3,+x87" "unsafe-fp-math"="false" "use-soft-float"="false" }
attributes #3 = { inlinehint nounwind ssp uwtable "correctly-rounded-divide-sqrt-fp-math"="false" "disable-tail-calls"="false" "less-precise-fpmad"="false" "min-legal-vector-width"="0" "no-frame-pointer-elim"="false" "no-frame-pointer-elim-non-leaf" "no-infs-fp-math"="false" "no-jump-tables"="false" "no-nans-fp-math"="false" "no-signed-zeros-fp-math"="false" "no-trapping-math"="false" "null-pointer-is-valid"="true" "stack-protector-buffer-size"="4" "target-cpu"="x86-64" "target-features"="+cx8,+fxsr,+mmx,+sse,+sse2,+sse3,+x87" "unsafe-fp-math"="false" "use-soft-float"="false" }
attributes #4 = { nounwind "correctly-rounded-divide-sqrt-fp-math"="false" "disable-tail-calls"="false" "less-precise-fpmad"="false" "no-frame-pointer-elim"="false" "no-frame-pointer-elim-non-leaf" "no-infs-fp-math"="false" "no-nans-fp-math"="false" "no-signed-zeros-fp-math"="false" "no-trapping-math"="false" "null-pointer-is-valid"="true" "stack-protector-buffer-size"="4" "target-cpu"="x86-64" "target-features"="+cx8,+fxsr,+mmx,+sse,+sse2,+sse3,+x87" "unsafe-fp-math"="false" "use-soft-float"="false" }
attributes #5 = { nobuiltin nounwind "correctly-rounded-divide-sqrt-fp-math"="false" "disable-tail-calls"="false" "less-precise-fpmad"="false" "no-frame-pointer-elim"="false" "no-frame-pointer-elim-non-leaf" "no-infs-fp-math"="false" "no-nans-fp-math"="false" "no-signed-zeros-fp-math"="false" "no-trapping-math"="false" "null-pointer-is-valid"="true" "stack-protector-buffer-size"="4" "target-cpu"="x86-64" "target-features"="+cx8,+fxsr,+mmx,+sse,+sse2,+sse3,+x87" "unsafe-fp-math"="false" "use-soft-float"="false" }
attributes #6 = { cold noreturn nounwind }
attributes #7 = { nounwind }
attributes #8 = { builtin nounwind }
attributes #9 = { noreturn nounwind }

!llvm.module.flags = !{!0, !1}

!0 = !{i32 1, !"wchar_size", i32 4}
!1 = !{i32 7, !"PIC Level", i32 2}
