; ModuleID = '../../chrome/browser/devtools/chrome_devtools_manager_delegate.cc'
source_filename = "../../chrome/browser/devtools/chrome_devtools_manager_delegate.cc"
target datalayout = "e-m:e-i64:64-f80:128-n8:16:32:64-S128"
target triple = "x86_64-unknown-linux-gnu"

module asm ".symver exp, exp@GLIBC_2.2.5"
module asm ".symver exp2, exp2@GLIBC_2.2.5"
module asm ".symver exp2f, exp2f@GLIBC_2.2.5"
module asm ".symver expf, expf@GLIBC_2.2.5"
module asm ".symver lgamma, lgamma@GLIBC_2.2.5"
module asm ".symver lgammaf, lgammaf@GLIBC_2.2.5"
module asm ".symver lgammal, lgammal@GLIBC_2.2.5"
module asm ".symver log, log@GLIBC_2.2.5"
module asm ".symver log2, log2@GLIBC_2.2.5"
module asm ".symver log2f, log2f@GLIBC_2.2.5"
module asm ".symver logf, logf@GLIBC_2.2.5"
module asm ".symver pow, pow@GLIBC_2.2.5"
module asm ".symver powf, powf@GLIBC_2.2.5"

%class.ChromeDevToolsManagerDelegate = type { %"class.content::DevToolsManagerDelegate", %"class.std::__1::map", %"class.std::__1::unique_ptr", %"class.std::__1::unique_ptr.67", %"class.std::__1::vector.77", %"class.std::__1::set", %"class.std::__1::unique_ptr.94" }
%"class.content::DevToolsManagerDelegate" = type { i32 (...)** }
%"class.std::__1::map" = type { %"class.std::__1::__tree" }
%"class.std::__1::__tree" = type { %"class.std::__1::__tree_end_node"*, %"class.std::__1::__compressed_pair", %"class.std::__1::__compressed_pair.1" }
%"class.std::__1::__tree_end_node" = type { %"class.std::__1::__tree_node_base"* }
%"class.std::__1::__tree_node_base" = type <{ %"class.std::__1::__tree_end_node", %"class.std::__1::__tree_node_base"*, %"class.std::__1::__tree_end_node"*, i8, [7 x i8] }>
%"class.std::__1::__compressed_pair" = type { %"struct.std::__1::__compressed_pair_elem" }
%"struct.std::__1::__compressed_pair_elem" = type { %"class.std::__1::__tree_end_node" }
%"class.std::__1::__compressed_pair.1" = type { %"struct.std::__1::__compressed_pair_elem.2" }
%"struct.std::__1::__compressed_pair_elem.2" = type { i64 }
%"class.std::__1::unique_ptr" = type { %"class.std::__1::__compressed_pair.4" }
%"class.std::__1::__compressed_pair.4" = type { %"struct.std::__1::__compressed_pair_elem.5" }
%"struct.std::__1::__compressed_pair_elem.5" = type { %class.AndroidDeviceManager* }
%class.AndroidDeviceManager = type { i32 (...)**, %class.scoped_refptr, %"class.std::__1::vector.43", %"class.std::__1::map.52", %"class.base::WeakPtrFactory.63" }
%class.scoped_refptr = type { %"class.AndroidDeviceManager::HandlerThread"* }
%"class.AndroidDeviceManager::HandlerThread" = type { i32 (...)**, %"class.base::RefCountedThreadSafe", %"class.base::Thread"* }
%"class.base::RefCountedThreadSafe" = type { %"class.base::subtle::RefCountedThreadSafeBase" }
%"class.base::subtle::RefCountedThreadSafeBase" = type { %"class.base::AtomicRefCount" }
%"class.base::AtomicRefCount" = type { %"struct.std::__1::atomic" }
%"struct.std::__1::atomic" = type { %"struct.std::__1::__atomic_base" }
%"struct.std::__1::__atomic_base" = type { %"struct.std::__1::__atomic_base.6" }
%"struct.std::__1::__atomic_base.6" = type { %"struct.std::__1::__cxx_atomic_impl" }
%"struct.std::__1::__cxx_atomic_impl" = type { %"struct.std::__1::__cxx_atomic_base_impl" }
%"struct.std::__1::__cxx_atomic_base_impl" = type { i32 }
%"class.base::Thread" = type <{ %"class.base::PlatformThread::Delegate", i8, i8, i8, [5 x i8], %"class.base::Lock", %"class.base::PlatformThreadHandle", %"class.base::Lock", i32, [4 x i8], %"class.base::WaitableEvent", %"class.std::__1::unique_ptr.13", %"class.base::RunLoop"*, i32, [4 x i8], %"class.std::__1::basic_string", %"class.base::WaitableEvent", %"class.base::SequenceCheckerDoNothing", [7 x i8] }>
%"class.base::PlatformThread::Delegate" = type { i32 (...)** }
%"class.base::PlatformThreadHandle" = type { i64 }
%"class.base::Lock" = type { %"class.base::internal::LockImpl" }
%"class.base::internal::LockImpl" = type { %union.pthread_mutex_t }
%union.pthread_mutex_t = type { %struct.__pthread_mutex_s }
%struct.__pthread_mutex_s = type { i32, i32, i32, i32, i32, i16, i16, %struct.__pthread_internal_list }
%struct.__pthread_internal_list = type { %struct.__pthread_internal_list*, %struct.__pthread_internal_list* }
%"class.std::__1::unique_ptr.13" = type { %"class.std::__1::__compressed_pair.14" }
%"class.std::__1::__compressed_pair.14" = type { %"struct.std::__1::__compressed_pair_elem.15" }
%"struct.std::__1::__compressed_pair_elem.15" = type { %"class.base::Thread::Delegate"* }
%"class.base::Thread::Delegate" = type { i32 (...)** }
%"class.base::RunLoop" = type { %"class.base::RunLoop::Delegate"*, i32, i8, i8, i8, i8, i8, %class.scoped_refptr.29, %"class.base::WeakPtrFactory" }
%"class.base::RunLoop::Delegate" = type <{ i32 (...)**, %"class.std::__1::stack", %"class.base::ObserverList", i8, [7 x i8] }>
%"class.std::__1::stack" = type { %"class.std::__1::vector" }
%"class.std::__1::vector" = type { %"class.std::__1::__vector_base" }
%"class.std::__1::__vector_base" = type { %"class.base::RunLoop"**, %"class.base::RunLoop"**, %"class.std::__1::__compressed_pair.17" }
%"class.std::__1::__compressed_pair.17" = type { %"struct.std::__1::__compressed_pair_elem.18" }
%"struct.std::__1::__compressed_pair_elem.18" = type { %"class.base::RunLoop"** }
%"class.base::ObserverList" = type <{ %"class.std::__1::vector.22", %"class.base::LinkedList", i64, i32, [4 x i8] }>
%"class.std::__1::vector.22" = type { %"class.std::__1::__vector_base.23" }
%"class.std::__1::__vector_base.23" = type { %"class.base::internal::UncheckedObserverAdapter"*, %"class.base::internal::UncheckedObserverAdapter"*, %"class.std::__1::__compressed_pair.24" }
%"class.base::internal::UncheckedObserverAdapter" = type { i8* }
%"class.std::__1::__compressed_pair.24" = type { %"struct.std::__1::__compressed_pair_elem.25" }
%"struct.std::__1::__compressed_pair_elem.25" = type { %"class.base::internal::UncheckedObserverAdapter"* }
%"class.base::LinkedList" = type { %"class.base::LinkNode" }
%"class.base::LinkNode" = type { %"class.base::internal::LinkNodeBase" }
%"class.base::internal::LinkNodeBase" = type { %"class.base::internal::LinkNodeBase"*, %"class.base::internal::LinkNodeBase"* }
%class.scoped_refptr.29 = type { %"class.base::SingleThreadTaskRunner"* }
%"class.base::SingleThreadTaskRunner" = type { %"class.base::SequencedTaskRunner.base", [4 x i8] }
%"class.base::SequencedTaskRunner.base" = type { %"class.base::TaskRunner.base" }
%"class.base::TaskRunner.base" = type <{ i32 (...)**, %"class.base::RefCountedThreadSafe.30" }>
%"class.base::RefCountedThreadSafe.30" = type { %"class.base::subtle::RefCountedThreadSafeBase" }
%"class.base::WeakPtrFactory" = type { %"class.base::internal::WeakPtrFactoryBase" }
%"class.base::internal::WeakPtrFactoryBase" = type { %"class.base::internal::WeakReferenceOwner", i64 }
%"class.base::internal::WeakReferenceOwner" = type { %class.scoped_refptr.31 }
%class.scoped_refptr.31 = type { %"class.base::internal::WeakReference::Flag"* }
%"class.base::internal::WeakReference::Flag" = type <{ %"class.base::RefCountedThreadSafe.32", %"class.base::AtomicFlag", [3 x i8] }>
%"class.base::RefCountedThreadSafe.32" = type { %"class.base::subtle::RefCountedThreadSafeBase" }
%"class.base::AtomicFlag" = type { %"struct.std::__1::atomic.33" }
%"struct.std::__1::atomic.33" = type { %"struct.std::__1::__atomic_base.34" }
%"struct.std::__1::__atomic_base.34" = type { %"struct.std::__1::__atomic_base.35" }
%"struct.std::__1::__atomic_base.35" = type { %"struct.std::__1::__cxx_atomic_impl.36" }
%"struct.std::__1::__cxx_atomic_impl.36" = type { %"struct.std::__1::__cxx_atomic_base_impl.37" }
%"struct.std::__1::__cxx_atomic_base_impl.37" = type { i8 }
%"class.std::__1::basic_string" = type { %"class.std::__1::__compressed_pair.38" }
%"class.std::__1::__compressed_pair.38" = type { %"struct.std::__1::__compressed_pair_elem.39" }
%"struct.std::__1::__compressed_pair_elem.39" = type { %"struct.std::__1::basic_string<char, std::__1::char_traits<char>, std::__1::allocator<char> >::__rep" }
%"struct.std::__1::basic_string<char, std::__1::char_traits<char>, std::__1::allocator<char> >::__rep" = type { %union.anon }
%union.anon = type { %"struct.std::__1::basic_string<char, std::__1::char_traits<char>, std::__1::allocator<char> >::__long" }
%"struct.std::__1::basic_string<char, std::__1::char_traits<char>, std::__1::allocator<char> >::__long" = type { i8*, i64, i64 }
%"class.base::WaitableEvent" = type <{ %class.scoped_refptr.7, i8, [7 x i8] }>
%class.scoped_refptr.7 = type { %"struct.base::WaitableEvent::WaitableEventKernel"* }
%"struct.base::WaitableEvent::WaitableEventKernel" = type { %"class.base::RefCountedThreadSafe.8", %"class.base::Lock", i8, i8, %"class.std::__1::list" }
%"class.base::RefCountedThreadSafe.8" = type { %"class.base::subtle::RefCountedThreadSafeBase" }
%"class.std::__1::list" = type { %"class.std::__1::__list_imp" }
%"class.std::__1::__list_imp" = type { %"struct.std::__1::__list_node_base", %"class.std::__1::__compressed_pair.9" }
%"struct.std::__1::__list_node_base" = type { %"struct.std::__1::__list_node_base"*, %"struct.std::__1::__list_node_base"* }
%"class.std::__1::__compressed_pair.9" = type { %"struct.std::__1::__compressed_pair_elem.2" }
%"class.base::SequenceCheckerDoNothing" = type { i8 }
%"class.std::__1::vector.43" = type { %"class.std::__1::__vector_base.44" }
%"class.std::__1::__vector_base.44" = type { %class.scoped_refptr.45*, %class.scoped_refptr.45*, %"class.std::__1::__compressed_pair.47" }
%class.scoped_refptr.45 = type { %"class.AndroidDeviceManager::DeviceProvider"* }
%"class.AndroidDeviceManager::DeviceProvider" = type <{ i32 (...)**, %"class.base::RefCountedThreadSafe.46", [4 x i8] }>
%"class.base::RefCountedThreadSafe.46" = type { %"class.base::subtle::RefCountedThreadSafeBase" }
%"class.std::__1::__compressed_pair.47" = type { %"struct.std::__1::__compressed_pair_elem.48" }
%"struct.std::__1::__compressed_pair_elem.48" = type { %class.scoped_refptr.45* }
%"class.std::__1::map.52" = type { %"class.std::__1::__tree.53" }
%"class.std::__1::__tree.53" = type { %"class.std::__1::__tree_end_node"*, %"class.std::__1::__compressed_pair.54", %"class.std::__1::__compressed_pair.58" }
%"class.std::__1::__compressed_pair.54" = type { %"struct.std::__1::__compressed_pair_elem" }
%"class.std::__1::__compressed_pair.58" = type { %"struct.std::__1::__compressed_pair_elem.2" }
%"class.base::WeakPtrFactory.63" = type { %"class.base::internal::WeakPtrFactoryBase" }
%"class.std::__1::unique_ptr.67" = type { %"class.std::__1::__compressed_pair.68" }
%"class.std::__1::__compressed_pair.68" = type { %"struct.std::__1::__compressed_pair_elem.69" }
%"struct.std::__1::__compressed_pair_elem.69" = type { %class.DevToolsDeviceDiscovery* }
%class.DevToolsDeviceDiscovery = type { %class.AndroidDeviceManager*, %"class.base::RepeatingCallback", %"class.base::RepeatingCallback.72", %"class.base::WeakPtrFactory.73" }
%"class.base::RepeatingCallback" = type { %"class.base::internal::CallbackBaseCopyable" }
%"class.base::internal::CallbackBaseCopyable" = type { %"class.base::internal::CallbackBase" }
%"class.base::internal::CallbackBase" = type { %class.scoped_refptr.70 }
%class.scoped_refptr.70 = type { %"class.base::internal::BindStateBase"* }
%"class.base::internal::BindStateBase" = type { %"class.base::RefCountedThreadSafe.71", void ()*, void (%"class.base::internal::BindStateBase"*)*, i1 (%"class.base::internal::BindStateBase"*, i32)* }
%"class.base::RefCountedThreadSafe.71" = type { %"class.base::subtle::RefCountedThreadSafeBase" }
%"class.base::RepeatingCallback.72" = type { %"class.base::internal::CallbackBaseCopyable" }
%"class.base::WeakPtrFactory.73" = type { %"class.base::internal::WeakPtrFactoryBase" }
%"class.std::__1::vector.77" = type { %"class.std::__1::__vector_base.78" }
%"class.std::__1::__vector_base.78" = type { %class.scoped_refptr.79*, %class.scoped_refptr.79*, %"class.std::__1::__compressed_pair.80" }
%class.scoped_refptr.79 = type { %"class.content::DevToolsAgentHost"* }
%"class.content::DevToolsAgentHost" = type <{ i32 (...)**, %"class.base::RefCounted", [4 x i8] }>
%"class.base::RefCounted" = type { %"class.base::subtle::RefCountedBase" }
%"class.base::subtle::RefCountedBase" = type { i32 }
%"class.std::__1::__compressed_pair.80" = type { %"struct.std::__1::__compressed_pair_elem.81" }
%"struct.std::__1::__compressed_pair_elem.81" = type { %class.scoped_refptr.79* }
%"class.std::__1::set" = type { %"class.std::__1::__tree.85" }
%"class.std::__1::__tree.85" = type { %"class.std::__1::__tree_end_node"*, %"class.std::__1::__compressed_pair.86", %"class.std::__1::__compressed_pair.90" }
%"class.std::__1::__compressed_pair.86" = type { %"struct.std::__1::__compressed_pair_elem" }
%"class.std::__1::__compressed_pair.90" = type { %"struct.std::__1::__compressed_pair_elem.2" }
%"class.std::__1::unique_ptr.94" = type { %"class.std::__1::__compressed_pair.95" }
%"class.std::__1::__compressed_pair.95" = type { %"struct.std::__1::__compressed_pair_elem.96" }
%"struct.std::__1::__compressed_pair_elem.96" = type { %class.ScopedKeepAlive* }
%class.ScopedKeepAlive = type { i32, i32 }
%"struct.base::TaskTraitsExtensionStorage" = type { i8, %"struct.std::__1::array" }
%"struct.std::__1::array" = type { [8 x i8] }
%"class.base::CommandLine" = type { %"class.std::__1::vector.100", %"class.std::__1::map.107", i64 }
%"class.std::__1::vector.100" = type { %"class.std::__1::__vector_base.101" }
%"class.std::__1::__vector_base.101" = type { %"class.std::__1::basic_string"*, %"class.std::__1::basic_string"*, %"class.std::__1::__compressed_pair.102" }
%"class.std::__1::__compressed_pair.102" = type { %"struct.std::__1::__compressed_pair_elem.103" }
%"struct.std::__1::__compressed_pair_elem.103" = type { %"class.std::__1::basic_string"* }
%"class.std::__1::map.107" = type { %"class.std::__1::__tree.108" }
%"class.std::__1::__tree.108" = type { %"class.std::__1::__tree_end_node"*, %"class.std::__1::__compressed_pair.109", %"class.std::__1::__compressed_pair.113" }
%"class.std::__1::__compressed_pair.109" = type { %"struct.std::__1::__compressed_pair_elem" }
%"class.std::__1::__compressed_pair.113" = type { %"struct.std::__1::__compressed_pair_elem.2" }
%"class.std::__1::__tree_node.832" = type { %"class.std::__1::__tree_node_base.base", [7 x i8], %"class.net::HostPortPair" }
%"class.std::__1::__tree_node_base.base" = type <{ %"class.std::__1::__tree_end_node", %"class.std::__1::__tree_node_base"*, %"class.std::__1::__tree_end_node"*, i8 }>
%"class.net::HostPortPair" = type <{ %"class.std::__1::basic_string", i16, [6 x i8] }>
%"class.std::__1::__tree_node" = type { %"class.std::__1::__tree_node_base.base", %"struct.std::__1::__value_type" }
%"struct.std::__1::__value_type" = type { %"struct.std::__1::pair" }
%"struct.std::__1::pair" = type { %"class.content::DevToolsAgentHostClientChannel"*, %"class.std::__1::unique_ptr.158" }
%"class.content::DevToolsAgentHostClientChannel" = type { i32 (...)** }
%"class.std::__1::unique_ptr.158" = type { %"class.std::__1::__compressed_pair.159" }
%"class.std::__1::__compressed_pair.159" = type { %"struct.std::__1::__compressed_pair_elem.160" }
%"struct.std::__1::__compressed_pair_elem.160" = type { %class.ChromeDevToolsSession* }
%class.ChromeDevToolsSession = type { %"class.crdtp::FrontendChannel", %"class.base::flat_map", %"class.crdtp::UberDispatcher", %"class.std::__1::unique_ptr.185", %"class.std::__1::unique_ptr.191", %"class.std::__1::unique_ptr.197", %"class.std::__1::unique_ptr.203", %"class.std::__1::unique_ptr.209", %"class.content::DevToolsAgentHostClientChannel"* }
%"class.crdtp::FrontendChannel" = type { i32 (...)** }
%"class.base::flat_map" = type { %"class.base::internal::flat_tree" }
%"class.base::internal::flat_tree" = type { %"class.std::__1::vector.161" }
%"class.std::__1::vector.161" = type { %"class.std::__1::__vector_base.162" }
%"class.std::__1::__vector_base.162" = type { %"struct.std::__1::pair.163"*, %"struct.std::__1::pair.163"*, %"class.std::__1::__compressed_pair.164" }
%"struct.std::__1::pair.163" = type opaque
%"class.std::__1::__compressed_pair.164" = type { %"struct.std::__1::__compressed_pair_elem.165" }
%"struct.std::__1::__compressed_pair_elem.165" = type { %"struct.std::__1::pair.163"* }
%"class.crdtp::UberDispatcher" = type { i32 (...)**, %"class.crdtp::FrontendChannel"*, %"class.std::__1::vector.169", %"class.std::__1::vector.177" }
%"class.std::__1::vector.169" = type { %"class.std::__1::__vector_base.170" }
%"class.std::__1::__vector_base.170" = type { %"struct.std::__1::pair.171"*, %"struct.std::__1::pair.171"*, %"class.std::__1::__compressed_pair.172" }
%"struct.std::__1::pair.171" = type opaque
%"class.std::__1::__compressed_pair.172" = type { %"struct.std::__1::__compressed_pair_elem.173" }
%"struct.std::__1::__compressed_pair_elem.173" = type { %"struct.std::__1::pair.171"* }
%"class.std::__1::vector.177" = type { %"class.std::__1::__vector_base.178" }
%"class.std::__1::__vector_base.178" = type { %"struct.std::__1::pair.179"*, %"struct.std::__1::pair.179"*, %"class.std::__1::__compressed_pair.180" }
%"struct.std::__1::pair.179" = type opaque
%"class.std::__1::__compressed_pair.180" = type { %"struct.std::__1::__compressed_pair_elem.181" }
%"struct.std::__1::__compressed_pair_elem.181" = type { %"struct.std::__1::pair.179"* }
%"class.std::__1::unique_ptr.185" = type { %"class.std::__1::__compressed_pair.186" }
%"class.std::__1::__compressed_pair.186" = type { %"struct.std::__1::__compressed_pair_elem.187" }
%"struct.std::__1::__compressed_pair_elem.187" = type { %class.BrowserHandler* }
%class.BrowserHandler = type opaque
%"class.std::__1::unique_ptr.191" = type { %"class.std::__1::__compressed_pair.192" }
%"class.std::__1::__compressed_pair.192" = type { %"struct.std::__1::__compressed_pair_elem.193" }
%"struct.std::__1::__compressed_pair_elem.193" = type { %class.CastHandler* }
%class.CastHandler = type opaque
%"class.std::__1::unique_ptr.197" = type { %"class.std::__1::__compressed_pair.198" }
%"class.std::__1::__compressed_pair.198" = type { %"struct.std::__1::__compressed_pair_elem.199" }
%"struct.std::__1::__compressed_pair_elem.199" = type { %class.PageHandler* }
%class.PageHandler = type opaque
%"class.std::__1::unique_ptr.203" = type { %"class.std::__1::__compressed_pair.204" }
%"class.std::__1::__compressed_pair.204" = type { %"struct.std::__1::__compressed_pair_elem.205" }
%"struct.std::__1::__compressed_pair_elem.205" = type { %class.SecurityHandler* }
%class.SecurityHandler = type opaque
%"class.std::__1::unique_ptr.209" = type { %"class.std::__1::__compressed_pair.210" }
%"class.std::__1::__compressed_pair.210" = type { %"struct.std::__1::__compressed_pair_elem.211" }
%"struct.std::__1::__compressed_pair_elem.211" = type { %class.TargetHandler* }
%class.TargetHandler = type { %"class.protocol::Target::Backend", %"class.std::__1::set" }
%"class.protocol::Target::Backend" = type { i32 (...)** }
%class.Profile = type { %"class.content::BrowserContext", %"class.std::__1::unique_ptr.134", i8, i8, i32, %"class.base::ObserverList.140", %"class.std::__1::unique_ptr.152" }
%"class.content::BrowserContext" = type { %"class.base::SupportsUserData.base", %"class.std::__1::unique_ptr.128" }
%"class.base::SupportsUserData.base" = type <{ i32 (...)**, %"class.std::__1::map.117", %"class.base::SequenceCheckerDoNothing" }>
%"class.std::__1::map.117" = type { %"class.std::__1::__tree.118" }
%"class.std::__1::__tree.118" = type { %"class.std::__1::__tree_end_node"*, %"class.std::__1::__compressed_pair.119", %"class.std::__1::__compressed_pair.123" }
%"class.std::__1::__compressed_pair.119" = type { %"struct.std::__1::__compressed_pair_elem" }
%"class.std::__1::__compressed_pair.123" = type { %"struct.std::__1::__compressed_pair_elem.2" }
%"class.std::__1::unique_ptr.128" = type { %"class.std::__1::__compressed_pair.129" }
%"class.std::__1::__compressed_pair.129" = type { %"struct.std::__1::__compressed_pair_elem.130" }
%"struct.std::__1::__compressed_pair_elem.130" = type { %"class.content::BrowserContext::Impl"* }
%"class.content::BrowserContext::Impl" = type opaque
%"class.std::__1::unique_ptr.134" = type { %"class.std::__1::__compressed_pair.135" }
%"class.std::__1::__compressed_pair.135" = type { %"struct.std::__1::__compressed_pair_elem.136" }
%"struct.std::__1::__compressed_pair_elem.136" = type { %"class.content::ResourceContext"* }
%"class.content::ResourceContext" = type opaque
%"class.base::ObserverList.140" = type <{ %"class.std::__1::vector.141", %"class.base::LinkedList.149", i64, i32, [4 x i8] }>
%"class.std::__1::vector.141" = type { %"class.std::__1::__vector_base.142" }
%"class.std::__1::__vector_base.142" = type { %"class.base::internal::CheckedObserverAdapter"*, %"class.base::internal::CheckedObserverAdapter"*, %"class.std::__1::__compressed_pair.144" }
%"class.base::internal::CheckedObserverAdapter" = type { %"class.base::WeakPtr" }
%"class.base::WeakPtr" = type { %"class.base::internal::WeakPtrBase" }
%"class.base::internal::WeakPtrBase" = type { %"class.base::internal::WeakReference", i64 }
%"class.base::internal::WeakReference" = type { %class.scoped_refptr.143 }
%class.scoped_refptr.143 = type { %"class.base::internal::WeakReference::Flag"* }
%"class.std::__1::__compressed_pair.144" = type { %"struct.std::__1::__compressed_pair_elem.145" }
%"struct.std::__1::__compressed_pair_elem.145" = type { %"class.base::internal::CheckedObserverAdapter"* }
%"class.base::LinkedList.149" = type { %"class.base::LinkNode.150" }
%"class.base::LinkNode.150" = type { %"class.base::internal::LinkNodeBase" }
%"class.std::__1::unique_ptr.152" = type { %"class.std::__1::__compressed_pair.153" }
%"class.std::__1::__compressed_pair.153" = type { %"struct.std::__1::__compressed_pair_elem.154" }
%"struct.std::__1::__compressed_pair_elem.154" = type { %"class.variations::VariationsClient"* }
%"class.variations::VariationsClient" = type opaque
%"class.base::OnceCallback" = type { %"class.base::internal::CallbackBase" }
%"class.base::span" = type { %"struct.base::internal::ExtentStorage", i8* }
%"struct.base::internal::ExtentStorage" = type { i64 }
%"class.content::WebContents" = type <{ %"class.content::PageNavigator", %"class.base::SupportsUserData.base", [7 x i8] }>
%"class.content::PageNavigator" = type { i32 (...)** }
%"class.AllTabContentsesList::Iterator" = type { i32, %"class.content::WebContents"*, %"class.std::__1::__wrap_iter.790" }
%"class.std::__1::__wrap_iter.790" = type { %class.Browser** }
%class.Browser = type { %class.TabStripModelObserver, %"class.content::WebContentsDelegate", %class.ChromeWebModalDialogManagerDelegate, %class.BookmarkTabHelperObserver, %"class.zoom::ZoomObserver", %"class.content::PageNavigator", %class.ThemeServiceObserver, %"class.translate::ContentTranslateDriver::TranslationObserver", %"class.ui::SelectFileDialog::Listener", %class.PrefChangeRegistrar, %"struct.Browser::CreateParams", i32, %class.Profile*, %"class.std::__1::unique_ptr.477", %class.BrowserWindow*, %"class.std::__1::unique_ptr.483", %"class.std::__1::unique_ptr.489", %"class.std::__1::basic_string", i8, i8, %class.SessionID, %"class.std::__1::unique_ptr.536", %"class.std::__1::map.542", i32, %"class.gfx::Rect", i32, %"class.std::__1::basic_string", i8, i8, %"class.base::TimeTicks", %class.UnloadController, %"class.std::__1::unique_ptr.565", %class.scoped_refptr.571, %"class.std::__1::unique_ptr.579", %"class.std::__1::unique_ptr.585", %"class.std::__1::unique_ptr.591", %"class.std::__1::unique_ptr.597", %"class.std::__1::unique_ptr.603", %"class.std::__1::unique_ptr.609", i32, %"class.std::__1::unique_ptr.615", %"class.std::__1::unique_ptr.621", %"class.std::__1::unique_ptr.627", i8, %"class.std::__1::basic_string", %class.SigninViewController, %"class.std::__1::unique_ptr.94", %"class.base::OnceCallback.638", %"class.std::__1::unique_ptr.639", %"class.base::ElapsedTimer", %"class.base::WeakPtrFactory.645", %"class.base::WeakPtrFactory.645" }
%class.TabStripModelObserver = type { i32 (...)**, %"class.std::__1::set.448" }
%"class.std::__1::set.448" = type { %"class.std::__1::__tree.449" }
%"class.std::__1::__tree.449" = type { %"class.std::__1::__tree_end_node"*, %"class.std::__1::__compressed_pair.450", %"class.std::__1::__compressed_pair.454" }
%"class.std::__1::__compressed_pair.450" = type { %"struct.std::__1::__compressed_pair_elem" }
%"class.std::__1::__compressed_pair.454" = type { %"struct.std::__1::__compressed_pair_elem.2" }
%"class.content::WebContentsDelegate" = type { i32 (...)**, %"class.std::__1::set.458" }
%"class.std::__1::set.458" = type { %"class.std::__1::__tree.459" }
%"class.std::__1::__tree.459" = type { %"class.std::__1::__tree_end_node"*, %"class.std::__1::__compressed_pair.460", %"class.std::__1::__compressed_pair.464" }
%"class.std::__1::__compressed_pair.460" = type { %"struct.std::__1::__compressed_pair_elem" }
%"class.std::__1::__compressed_pair.464" = type { %"struct.std::__1::__compressed_pair_elem.2" }
%class.ChromeWebModalDialogManagerDelegate = type { %"class.web_modal::WebContentsModalDialogManagerDelegate" }
%"class.web_modal::WebContentsModalDialogManagerDelegate" = type { i32 (...)** }
%class.BookmarkTabHelperObserver = type { i32 (...)** }
%"class.zoom::ZoomObserver" = type { i32 (...)** }
%class.ThemeServiceObserver = type { %"class.base::CheckedObserver" }
%"class.base::CheckedObserver" = type { i32 (...)**, %"class.base::WeakPtrFactory.314" }
%"class.base::WeakPtrFactory.314" = type { %"class.base::internal::WeakPtrFactoryBase" }
%"class.translate::ContentTranslateDriver::TranslationObserver" = type { %"class.base::CheckedObserver" }
%"class.ui::SelectFileDialog::Listener" = type { i32 (...)** }
%class.PrefChangeRegistrar = type { %class.PrefObserver, %"class.std::__1::map.468", %class.PrefService* }
%class.PrefObserver = type { i32 (...)** }
%"class.std::__1::map.468" = type { %"class.std::__1::__tree.469" }
%"class.std::__1::__tree.469" = type { %"class.std::__1::__tree_end_node"*, %"class.std::__1::__compressed_pair.470", %"class.std::__1::__compressed_pair.474" }
%"class.std::__1::__compressed_pair.470" = type { %"struct.std::__1::__compressed_pair_elem" }
%"class.std::__1::__compressed_pair.474" = type { %"struct.std::__1::__compressed_pair_elem.2" }
%class.PrefService = type opaque
%"struct.Browser::CreateParams" = type <{ i32, [4 x i8], %class.Profile*, i8, [3 x i8], %"class.gfx::Rect", [4 x i8], %"class.std::__1::basic_string", i8, [3 x i8], i32, i8, i8, i8, i8, [4 x i8], %class.BrowserWindow*, %"class.std::__1::basic_string", i8, i8, [6 x i8], %"class.std::__1::basic_string", i8, [7 x i8] }>
%"class.std::__1::unique_ptr.477" = type { %"class.std::__1::__compressed_pair.478" }
%"class.std::__1::__compressed_pair.478" = type { %"struct.std::__1::__compressed_pair_elem.479" }
%"struct.std::__1::__compressed_pair_elem.479" = type { %class.ScopedProfileKeepAlive* }
%class.ScopedProfileKeepAlive = type opaque
%class.BrowserWindow = type opaque
%"class.std::__1::unique_ptr.483" = type { %"class.std::__1::__compressed_pair.484" }
%"class.std::__1::__compressed_pair.484" = type { %"struct.std::__1::__compressed_pair_elem.485" }
%"struct.std::__1::__compressed_pair_elem.485" = type { %class.TabStripModelDelegate* }
%class.TabStripModelDelegate = type opaque
%"class.std::__1::unique_ptr.489" = type { %"class.std::__1::__compressed_pair.490" }
%"class.std::__1::__compressed_pair.490" = type { %"struct.std::__1::__compressed_pair_elem.491" }
%"struct.std::__1::__compressed_pair_elem.491" = type { %class.TabStripModel* }
%class.TabStripModel = type { %class.TabGroupController, %"class.std::__1::vector.492", %"class.std::__1::unique_ptr.500", %class.TabStripModelDelegate*, i8, [7 x i8], %"class.base::ObserverList.506", %class.Profile*, i8, %"class.std::__1::unique_ptr.510", %"class.ui::ListSelectionModel", i8, %class.TabSwitchEventLatencyRecorder, %"class.base::RepeatingTimer", %"class.base::TimeTicks", i64, i64, %"class.base::WeakPtrFactory.532" }
%class.TabGroupController = type { i32 (...)** }
%"class.std::__1::vector.492" = type { %"class.std::__1::__vector_base.493" }
%"class.std::__1::__vector_base.493" = type { %"class.std::__1::unique_ptr.494"*, %"class.std::__1::unique_ptr.494"*, %"class.std::__1::__compressed_pair.495" }
%"class.std::__1::unique_ptr.494" = type { %"class.std::__1::__compressed_pair.783" }
%"class.std::__1::__compressed_pair.783" = type { %"struct.std::__1::__compressed_pair_elem.784" }
%"struct.std::__1::__compressed_pair_elem.784" = type { %"class.TabStripModel::WebContentsData"* }
%"class.TabStripModel::WebContentsData" = type opaque
%"class.std::__1::__compressed_pair.495" = type { %"struct.std::__1::__compressed_pair_elem.496" }
%"struct.std::__1::__compressed_pair_elem.496" = type { %"class.std::__1::unique_ptr.494"* }
%"class.std::__1::unique_ptr.500" = type { %"class.std::__1::__compressed_pair.501" }
%"class.std::__1::__compressed_pair.501" = type { %"struct.std::__1::__compressed_pair_elem.502" }
%"struct.std::__1::__compressed_pair_elem.502" = type { %class.TabGroupModel* }
%class.TabGroupModel = type opaque
%"class.base::ObserverList.506" = type <{ %"class.std::__1::vector.22", %"class.base::LinkedList.507", i64, i32, [4 x i8] }>
%"class.base::LinkedList.507" = type { %"class.base::LinkNode.508" }
%"class.base::LinkNode.508" = type { %"class.base::internal::LinkNodeBase" }
%"class.std::__1::unique_ptr.510" = type { %"class.std::__1::__compressed_pair.511" }
%"class.std::__1::__compressed_pair.511" = type { %"struct.std::__1::__compressed_pair_elem.512" }
%"struct.std::__1::__compressed_pair_elem.512" = type { %class.TabStripModelOrderController* }
%class.TabStripModelOrderController = type { %class.TabStripModelObserver, %class.TabStripModel* }
%"class.ui::ListSelectionModel" = type { %"class.base::internal::flat_tree.516", i32, i32 }
%"class.base::internal::flat_tree.516" = type { %"class.std::__1::vector.517" }
%"class.std::__1::vector.517" = type { %"class.std::__1::__vector_base.518" }
%"class.std::__1::__vector_base.518" = type { i32*, i32*, %"class.std::__1::__compressed_pair.519" }
%"class.std::__1::__compressed_pair.519" = type { %"struct.std::__1::__compressed_pair_elem.520" }
%"struct.std::__1::__compressed_pair_elem.520" = type { i32* }
%class.TabSwitchEventLatencyRecorder = type { %"class.base::TimeTicks", %"class.absl::optional.525" }
%"class.absl::optional.525" = type { %"class.absl::optional_internal::optional_data.526" }
%"class.absl::optional_internal::optional_data.526" = type { %"class.absl::optional_internal::optional_data_base.527" }
%"class.absl::optional_internal::optional_data_base.527" = type { %"class.absl::optional_internal::optional_data_dtor_base.528" }
%"class.absl::optional_internal::optional_data_dtor_base.528" = type { i8, %union.anon.529 }
%union.anon.529 = type { i32 }
%"class.base::RepeatingTimer" = type { %"class.base::internal::TimerBase", %"class.base::RepeatingCallback.531" }
%"class.base::internal::TimerBase" = type { i32 (...)**, %class.scoped_refptr.351, %"class.base::SequenceCheckerDoNothing", %"class.base::internal::TaskDestructionDetector"*, %"class.base::Location", %"class.base::TimeDelta", %"class.base::TimeTicks", %"class.base::TimeTicks", %"class.base::TickClock"*, i8, %"class.base::WeakPtrFactory.530" }
%class.scoped_refptr.351 = type { %"class.base::SequencedTaskRunner"* }
%"class.base::SequencedTaskRunner" = type { %"class.base::TaskRunner.base", [4 x i8] }
%"class.base::internal::TaskDestructionDetector" = type opaque
%"class.base::Location" = type { i8*, i8*, i32, i8* }
%"class.base::TimeDelta" = type { i64 }
%"class.base::TickClock" = type { i32 (...)** }
%"class.base::WeakPtrFactory.530" = type { %"class.base::internal::WeakPtrFactoryBase" }
%"class.base::RepeatingCallback.531" = type { %"class.base::internal::CallbackBaseCopyable" }
%"class.base::WeakPtrFactory.532" = type { %"class.base::internal::WeakPtrFactoryBase" }
%class.SessionID = type { i32 }
%"class.std::__1::unique_ptr.536" = type { %"class.std::__1::__compressed_pair.537" }
%"class.std::__1::__compressed_pair.537" = type { %"struct.std::__1::__compressed_pair_elem.538" }
%"struct.std::__1::__compressed_pair_elem.538" = type { %class.LocationBarModel* }
%class.LocationBarModel = type opaque
%"class.std::__1::map.542" = type { %"class.std::__1::__tree.543" }
%"class.std::__1::__tree.543" = type { %"class.std::__1::__tree_end_node"*, %"class.std::__1::__compressed_pair.544", %"class.std::__1::__compressed_pair.548" }
%"class.std::__1::__compressed_pair.544" = type { %"struct.std::__1::__compressed_pair_elem" }
%"class.std::__1::__compressed_pair.548" = type { %"struct.std::__1::__compressed_pair_elem.2" }
%"class.gfx::Rect" = type { %"class.gfx::Point", %"class.gfx::Size" }
%"class.gfx::Point" = type { i32, i32 }
%"class.gfx::Size" = type { i32, i32 }
%"class.base::TimeTicks" = type { %"class.base::time_internal::TimeBase.524" }
%"class.base::time_internal::TimeBase.524" = type { i64 }
%class.UnloadController = type { %"class.WebContentsCollection::Observer", %class.TabStripModelObserver, %class.Browser*, %class.WebContentsCollection, %"class.std::__1::set.458", %"class.std::__1::set.458", i8, %"class.base::RepeatingCallback.563", %"class.base::WeakPtrFactory.564" }
%"class.WebContentsCollection::Observer" = type { i32 (...)** }
%class.WebContentsCollection = type { %"class.WebContentsCollection::Observer"*, %"class.base::flat_map.553" }
%"class.base::flat_map.553" = type { %"class.base::internal::flat_tree.554" }
%"class.base::internal::flat_tree.554" = type { %"class.std::__1::vector.555" }
%"class.std::__1::vector.555" = type { %"class.std::__1::__vector_base.556" }
%"class.std::__1::__vector_base.556" = type { %"struct.std::__1::pair.557"*, %"struct.std::__1::pair.557"*, %"class.std::__1::__compressed_pair.558" }
%"struct.std::__1::pair.557" = type opaque
%"class.std::__1::__compressed_pair.558" = type { %"struct.std::__1::__compressed_pair_elem.559" }
%"struct.std::__1::__compressed_pair_elem.559" = type { %"struct.std::__1::pair.557"* }
%"class.base::RepeatingCallback.563" = type { %"class.base::internal::CallbackBaseCopyable" }
%"class.base::WeakPtrFactory.564" = type { %"class.base::internal::WeakPtrFactoryBase" }
%"class.std::__1::unique_ptr.565" = type { %"class.std::__1::__compressed_pair.566" }
%"class.std::__1::__compressed_pair.566" = type { %"struct.std::__1::__compressed_pair_elem.567" }
%"struct.std::__1::__compressed_pair_elem.567" = type { %class.FindBarController* }
%class.FindBarController = type opaque
%class.scoped_refptr.571 = type { %"class.ui::SelectFileDialog"* }
%"class.ui::SelectFileDialog" = type { %"class.ui::BaseShellDialog", %"class.base::RefCountedThreadSafe.572", %"class.ui::SelectFileDialog::Listener"*, %"class.std::__1::unique_ptr.573" }
%"class.ui::BaseShellDialog" = type { i32 (...)** }
%"class.base::RefCountedThreadSafe.572" = type { %"class.base::subtle::RefCountedThreadSafeBase" }
%"class.std::__1::unique_ptr.573" = type { %"class.std::__1::__compressed_pair.574" }
%"class.std::__1::__compressed_pair.574" = type { %"struct.std::__1::__compressed_pair_elem.575" }
%"struct.std::__1::__compressed_pair_elem.575" = type { %"class.ui::SelectFilePolicy"* }
%"class.ui::SelectFilePolicy" = type opaque
%"class.std::__1::unique_ptr.579" = type { %"class.std::__1::__compressed_pair.580" }
%"class.std::__1::__compressed_pair.580" = type { %"struct.std::__1::__compressed_pair_elem.581" }
%"struct.std::__1::__compressed_pair_elem.581" = type { %class.BrowserContentSettingBubbleModelDelegate* }
%class.BrowserContentSettingBubbleModelDelegate = type opaque
%"class.std::__1::unique_ptr.585" = type { %"class.std::__1::__compressed_pair.586" }
%"class.std::__1::__compressed_pair.586" = type { %"struct.std::__1::__compressed_pair_elem.587" }
%"struct.std::__1::__compressed_pair_elem.587" = type { %class.BrowserLocationBarModelDelegate* }
%class.BrowserLocationBarModelDelegate = type opaque
%"class.std::__1::unique_ptr.591" = type { %"class.std::__1::__compressed_pair.592" }
%"class.std::__1::__compressed_pair.592" = type { %"struct.std::__1::__compressed_pair_elem.593" }
%"struct.std::__1::__compressed_pair_elem.593" = type { %class.BrowserLiveTabContext* }
%class.BrowserLiveTabContext = type opaque
%"class.std::__1::unique_ptr.597" = type { %"class.std::__1::__compressed_pair.598" }
%"class.std::__1::__compressed_pair.598" = type { %"struct.std::__1::__compressed_pair_elem.599" }
%"struct.std::__1::__compressed_pair_elem.599" = type { %class.BrowserSyncedWindowDelegate* }
%class.BrowserSyncedWindowDelegate = type opaque
%"class.std::__1::unique_ptr.603" = type { %"class.std::__1::__compressed_pair.604" }
%"class.std::__1::__compressed_pair.604" = type { %"struct.std::__1::__compressed_pair_elem.605" }
%"struct.std::__1::__compressed_pair_elem.605" = type { %class.BrowserInstantController* }
%class.BrowserInstantController = type opaque
%"class.std::__1::unique_ptr.609" = type { %"class.std::__1::__compressed_pair.610" }
%"class.std::__1::__compressed_pair.610" = type { %"struct.std::__1::__compressed_pair_elem.611" }
%"struct.std::__1::__compressed_pair_elem.611" = type { %"class.web_app::AppBrowserController"* }
%"class.web_app::AppBrowserController" = type opaque
%"class.std::__1::unique_ptr.615" = type { %"class.std::__1::__compressed_pair.616" }
%"class.std::__1::__compressed_pair.616" = type { %"struct.std::__1::__compressed_pair_elem.617" }
%"struct.std::__1::__compressed_pair_elem.617" = type { %class.ExclusiveAccessManager* }
%class.ExclusiveAccessManager = type opaque
%"class.std::__1::unique_ptr.621" = type { %"class.std::__1::__compressed_pair.622" }
%"class.std::__1::__compressed_pair.622" = type { %"struct.std::__1::__compressed_pair_elem.623" }
%"struct.std::__1::__compressed_pair_elem.623" = type { %"class.extensions::BrowserExtensionWindowController"* }
%"class.extensions::BrowserExtensionWindowController" = type opaque
%"class.std::__1::unique_ptr.627" = type { %"class.std::__1::__compressed_pair.628" }
%"class.std::__1::__compressed_pair.628" = type { %"struct.std::__1::__compressed_pair_elem.629" }
%"struct.std::__1::__compressed_pair_elem.629" = type { %"class.chrome::BrowserCommandController"* }
%"class.chrome::BrowserCommandController" = type opaque
%class.SigninViewController = type { %"class.SigninViewControllerDelegate::Observer", %class.Browser*, %class.SigninViewControllerDelegate*, %"class.base::ScopedObservation", %"class.base::WeakPtrFactory.637" }
%"class.SigninViewControllerDelegate::Observer" = type { %"class.base::CheckedObserver" }
%class.SigninViewControllerDelegate = type { i32 (...)**, %"class.base::ObserverList.633" }
%"class.base::ObserverList.633" = type <{ %"class.std::__1::vector.141", %"class.base::LinkedList.634", i64, i32, [4 x i8] }>
%"class.base::LinkedList.634" = type { %"class.base::LinkNode.635" }
%"class.base::LinkNode.635" = type { %"class.base::internal::LinkNodeBase" }
%"class.base::ScopedObservation" = type { %"class.SigninViewControllerDelegate::Observer"*, %class.SigninViewControllerDelegate* }
%"class.base::WeakPtrFactory.637" = type { %"class.base::internal::WeakPtrFactoryBase" }
%"class.base::OnceCallback.638" = type { %"class.base::internal::CallbackBase" }
%"class.std::__1::unique_ptr.639" = type { %"class.std::__1::__compressed_pair.640" }
%"class.std::__1::__compressed_pair.640" = type { %"struct.std::__1::__compressed_pair_elem.641" }
%"struct.std::__1::__compressed_pair_elem.641" = type { %"class.extensions::ExtensionBrowserWindowHelper"* }
%"class.extensions::ExtensionBrowserWindowHelper" = type opaque
%"class.base::ElapsedTimer" = type { %"class.base::TimeTicks" }
%"class.base::WeakPtrFactory.645" = type { %"class.base::internal::WeakPtrFactoryBase" }
%class.AllTabContentsesList = type { i8 }
%"class.std::__1::__basic_string_common" = type { i8 }
%"struct.std::__1::basic_string<char, std::__1::char_traits<char>, std::__1::allocator<char> >::__short" = type { [23 x i8], %struct.anon }
%struct.anon = type { i8 }
%"class.extensions::ProcessManager" = type { %class.KeyedService, %"class.extensions::ExtensionRegistryObserver", %"class.extensions::EventPageTracker", %"class.content::DevToolsAgentHostObserver", %"class.content::RenderProcessHostObserver", %"class.extensions::ExtensionHostObserver", %"class.extensions::ExtensionRegistry"*, %"class.std::__1::set.328", %class.scoped_refptr.338, %"class.content::BrowserContext"*, %"class.std::__1::map.340", %class.scoped_refptr.351, %"class.extensions::WorkerIdSet", %"class.std::__1::map.362", i8, [7 x i8], %"class.base::ObserverList.371", i64, %"class.std::__1::map.375", %"class.base::ScopedMultiSourceObservation", %"class.std::__1::map.393", %"class.base::WeakPtrFactory.402" }
%class.KeyedService = type { i32 (...)** }
%"class.extensions::ExtensionRegistryObserver" = type { i32 (...)** }
%"class.extensions::EventPageTracker" = type { i32 (...)** }
%"class.content::DevToolsAgentHostObserver" = type { i32 (...)** }
%"class.content::RenderProcessHostObserver" = type { %"class.base::CheckedObserver" }
%"class.extensions::ExtensionHostObserver" = type { i32 (...)** }
%"class.extensions::ExtensionRegistry" = type { %class.KeyedService, %"class.extensions::ExtensionSet", %"class.extensions::ExtensionSet", %"class.extensions::ExtensionSet", %"class.extensions::ExtensionSet", %"class.extensions::ExtensionSet", %"class.extensions::ExtensionSet", %"class.base::ObserverList.324", %"class.content::BrowserContext"* }
%"class.extensions::ExtensionSet" = type { %"class.std::__1::map.315" }
%"class.std::__1::map.315" = type { %"class.std::__1::__tree.316" }
%"class.std::__1::__tree.316" = type { %"class.std::__1::__tree_end_node"*, %"class.std::__1::__compressed_pair.317", %"class.std::__1::__compressed_pair.321" }
%"class.std::__1::__compressed_pair.317" = type { %"struct.std::__1::__compressed_pair_elem" }
%"class.std::__1::__compressed_pair.321" = type { %"struct.std::__1::__compressed_pair_elem.2" }
%"class.base::ObserverList.324" = type <{ %"class.std::__1::vector.22", %"class.base::LinkedList.325", i64, i32, [4 x i8] }>
%"class.base::LinkedList.325" = type { %"class.base::LinkNode.326" }
%"class.base::LinkNode.326" = type { %"class.base::internal::LinkNodeBase" }
%"class.std::__1::set.328" = type { %"class.std::__1::__tree.329" }
%"class.std::__1::__tree.329" = type { %"class.std::__1::__tree_end_node"*, %"class.std::__1::__compressed_pair.330", %"class.std::__1::__compressed_pair.334" }
%"class.std::__1::__compressed_pair.330" = type { %"struct.std::__1::__compressed_pair_elem" }
%"class.std::__1::__compressed_pair.334" = type { %"struct.std::__1::__compressed_pair_elem.2" }
%class.scoped_refptr.338 = type { %"class.content::SiteInstance"* }
%"class.content::SiteInstance" = type <{ i32 (...)**, %"class.base::RefCounted.339", [4 x i8] }>
%"class.base::RefCounted.339" = type { %"class.base::subtle::RefCountedBase" }
%"class.std::__1::map.340" = type { %"class.std::__1::__tree.341" }
%"class.std::__1::__tree.341" = type { %"class.std::__1::__tree_end_node"*, %"class.std::__1::__compressed_pair.342", %"class.std::__1::__compressed_pair.346" }
%"class.std::__1::__compressed_pair.342" = type { %"struct.std::__1::__compressed_pair_elem" }
%"class.std::__1::__compressed_pair.346" = type { %"struct.std::__1::__compressed_pair_elem.2" }
%"class.extensions::WorkerIdSet" = type { %"class.std::__1::set.352" }
%"class.std::__1::set.352" = type { %"class.std::__1::__tree.353" }
%"class.std::__1::__tree.353" = type { %"class.std::__1::__tree_end_node"*, %"class.std::__1::__compressed_pair.354", %"class.std::__1::__compressed_pair.358" }
%"class.std::__1::__compressed_pair.354" = type { %"struct.std::__1::__compressed_pair_elem" }
%"class.std::__1::__compressed_pair.358" = type { %"struct.std::__1::__compressed_pair_elem.2" }
%"class.std::__1::map.362" = type { %"class.std::__1::__tree.363" }
%"class.std::__1::__tree.363" = type { %"class.std::__1::__tree_end_node"*, %"class.std::__1::__compressed_pair.364", %"class.std::__1::__compressed_pair.368" }
%"class.std::__1::__compressed_pair.364" = type { %"struct.std::__1::__compressed_pair_elem" }
%"class.std::__1::__compressed_pair.368" = type { %"struct.std::__1::__compressed_pair_elem.2" }
%"class.base::ObserverList.371" = type <{ %"class.std::__1::vector.141", %"class.base::LinkedList.372", i64, i32, [4 x i8] }>
%"class.base::LinkedList.372" = type { %"class.base::LinkNode.373" }
%"class.base::LinkNode.373" = type { %"class.base::internal::LinkNodeBase" }
%"class.std::__1::map.375" = type { %"class.std::__1::__tree.376" }
%"class.std::__1::__tree.376" = type { %"class.std::__1::__tree_end_node"*, %"class.std::__1::__compressed_pair.377", %"class.std::__1::__compressed_pair.381" }
%"class.std::__1::__compressed_pair.377" = type { %"struct.std::__1::__compressed_pair_elem" }
%"class.std::__1::__compressed_pair.381" = type { %"struct.std::__1::__compressed_pair_elem.2" }
%"class.base::ScopedMultiSourceObservation" = type { %"class.content::RenderProcessHostObserver"*, %"class.std::__1::vector.386" }
%"class.std::__1::vector.386" = type { %"class.std::__1::__vector_base.387" }
%"class.std::__1::__vector_base.387" = type { %"class.content::RenderProcessHost"**, %"class.content::RenderProcessHost"**, %"class.std::__1::__compressed_pair.388" }
%"class.content::RenderProcessHost" = type <{ %"class.IPC::Sender", %"class.IPC::Listener", %"class.base::SupportsUserData.base", [7 x i8] }>
%"class.IPC::Sender" = type { i32 (...)** }
%"class.IPC::Listener" = type { i32 (...)** }
%"class.std::__1::__compressed_pair.388" = type { %"struct.std::__1::__compressed_pair_elem.389" }
%"struct.std::__1::__compressed_pair_elem.389" = type { %"class.content::RenderProcessHost"** }
%"class.std::__1::map.393" = type { %"class.std::__1::__tree.394" }
%"class.std::__1::__tree.394" = type { %"class.std::__1::__tree_end_node"*, %"class.std::__1::__compressed_pair.395", %"class.std::__1::__compressed_pair.399" }
%"class.std::__1::__compressed_pair.395" = type { %"struct.std::__1::__compressed_pair_elem" }
%"class.std::__1::__compressed_pair.399" = type { %"struct.std::__1::__compressed_pair_elem.2" }
%"class.base::WeakPtrFactory.402" = type { %"class.base::internal::WeakPtrFactoryBase" }
%"class.extensions::Extension" = type { %"class.base::RefCountedThreadSafe.218", %"class.std::__1::basic_string", %"class.std::__1::basic_string", %"class.std::__1::basic_string", i32, %"class.base::FilePath", %"class.extensions::URLPatternSet", %"class.std::__1::unique_ptr.229", %"class.std::__1::unique_ptr.235", %"class.std::__1::vector.241", %class.GURL, %"class.base::Version", %"class.std::__1::basic_string", %"class.std::__1::basic_string", i8, %"class.std::__1::basic_string", %"class.std::__1::unique_ptr.261", %"class.std::__1::map.305", i8, %"class.base::ThreadChecker", i8, i8, i8, i32, %"class.base::GUID" }
%"class.base::RefCountedThreadSafe.218" = type { %"class.base::subtle::RefCountedThreadSafeBase" }
%"class.base::FilePath" = type { %"class.std::__1::basic_string" }
%"class.extensions::URLPatternSet" = type { %"class.std::__1::set.219" }
%"class.std::__1::set.219" = type { %"class.std::__1::__tree.220" }
%"class.std::__1::__tree.220" = type { %"class.std::__1::__tree_end_node"*, %"class.std::__1::__compressed_pair.221", %"class.std::__1::__compressed_pair.225" }
%"class.std::__1::__compressed_pair.221" = type { %"struct.std::__1::__compressed_pair_elem" }
%"class.std::__1::__compressed_pair.225" = type { %"struct.std::__1::__compressed_pair_elem.2" }
%"class.std::__1::unique_ptr.229" = type { %"class.std::__1::__compressed_pair.230" }
%"class.std::__1::__compressed_pair.230" = type { %"struct.std::__1::__compressed_pair_elem.231" }
%"struct.std::__1::__compressed_pair_elem.231" = type { %"class.extensions::PermissionsParser"* }
%"class.extensions::PermissionsParser" = type opaque
%"class.std::__1::unique_ptr.235" = type { %"class.std::__1::__compressed_pair.236" }
%"class.std::__1::__compressed_pair.236" = type { %"struct.std::__1::__compressed_pair_elem.237" }
%"struct.std::__1::__compressed_pair_elem.237" = type { %"class.extensions::PermissionsData"* }
%"class.extensions::PermissionsData" = type opaque
%"class.std::__1::vector.241" = type { %"class.std::__1::__vector_base.242" }
%"class.std::__1::__vector_base.242" = type { %"struct.extensions::InstallWarning"*, %"struct.extensions::InstallWarning"*, %"class.std::__1::__compressed_pair.243" }
%"struct.extensions::InstallWarning" = type { %"class.std::__1::basic_string", %"class.std::__1::basic_string", %"class.std::__1::basic_string" }
%"class.std::__1::__compressed_pair.243" = type { %"struct.std::__1::__compressed_pair_elem.244" }
%"struct.std::__1::__compressed_pair_elem.244" = type { %"struct.extensions::InstallWarning"* }
%class.GURL = type { %"class.std::__1::basic_string", i8, %"struct.url::Parsed", %"class.std::__1::unique_ptr.248" }
%"struct.url::Parsed" = type { %"struct.url::Component", %"struct.url::Component", %"struct.url::Component", %"struct.url::Component", %"struct.url::Component", %"struct.url::Component", %"struct.url::Component", %"struct.url::Component", i8, %"struct.url::Parsed"* }
%"struct.url::Component" = type { i32, i32 }
%"class.std::__1::unique_ptr.248" = type { %"class.std::__1::__compressed_pair.249" }
%"class.std::__1::__compressed_pair.249" = type { %"struct.std::__1::__compressed_pair_elem.250" }
%"struct.std::__1::__compressed_pair_elem.250" = type { %class.GURL* }
%"class.base::Version" = type { %"class.std::__1::vector.254" }
%"class.std::__1::vector.254" = type { %"class.std::__1::__vector_base.255" }
%"class.std::__1::__vector_base.255" = type { i32*, i32*, %"class.std::__1::__compressed_pair.256" }
%"class.std::__1::__compressed_pair.256" = type { %"struct.std::__1::__compressed_pair_elem.257" }
%"struct.std::__1::__compressed_pair_elem.257" = type { i32* }
%"class.std::__1::unique_ptr.261" = type { %"class.std::__1::__compressed_pair.262" }
%"class.std::__1::__compressed_pair.262" = type { %"struct.std::__1::__compressed_pair_elem.263" }
%"struct.std::__1::__compressed_pair_elem.263" = type { %"class.extensions::Manifest"* }
%"class.extensions::Manifest" = type { %"class.std::__1::basic_string", %"class.extensions::HashedExtensionId", i32, %"class.std::__1::unique_ptr.264", %"class.std::__1::unique_ptr.264", i32, i32 }
%"class.extensions::HashedExtensionId" = type { %"class.std::__1::basic_string" }
%"class.std::__1::unique_ptr.264" = type { %"class.std::__1::__compressed_pair.265" }
%"class.std::__1::__compressed_pair.265" = type { %"struct.std::__1::__compressed_pair_elem.266" }
%"struct.std::__1::__compressed_pair_elem.266" = type { %"class.base::DictionaryValue"* }
%"class.base::DictionaryValue" = type { %"class.base::Value" }
%"class.base::Value" = type { %"class.absl::variant" }
%"class.absl::variant" = type { %"class.absl::variant_internal::VariantCopyAssignBaseNontrivial" }
%"class.absl::variant_internal::VariantCopyAssignBaseNontrivial" = type { %"class.absl::variant_internal::VariantMoveAssignBaseNontrivial" }
%"class.absl::variant_internal::VariantMoveAssignBaseNontrivial" = type { %"class.absl::variant_internal::VariantCopyBaseNontrivial" }
%"class.absl::variant_internal::VariantCopyBaseNontrivial" = type { %"class.absl::variant_internal::VariantMoveBaseNontrivial" }
%"class.absl::variant_internal::VariantMoveBaseNontrivial" = type { %"class.absl::variant_internal::VariantStateBaseDestructorNontrivial" }
%"class.absl::variant_internal::VariantStateBaseDestructorNontrivial" = type { %"class.absl::variant_internal::VariantStateBase" }
%"class.absl::variant_internal::VariantStateBase" = type { %"union.absl::variant_internal::DestructibleUnionImpl", i64 }
%"union.absl::variant_internal::DestructibleUnionImpl" = type { %"union.absl::variant_internal::DestructibleUnionImpl.267" }
%"union.absl::variant_internal::DestructibleUnionImpl.267" = type { %"union.absl::variant_internal::DestructibleUnionImpl.268" }
%"union.absl::variant_internal::DestructibleUnionImpl.268" = type { %"union.absl::variant_internal::DestructibleUnionImpl.269" }
%"union.absl::variant_internal::DestructibleUnionImpl.269" = type { %"union.absl::variant_internal::DestructibleUnionImpl.270" }
%"union.absl::variant_internal::DestructibleUnionImpl.270" = type { %"class.std::__1::basic_string" }
%"class.std::__1::map.305" = type { %"class.std::__1::__tree.306" }
%"class.std::__1::__tree.306" = type { %"class.std::__1::__tree_end_node"*, %"class.std::__1::__compressed_pair.307", %"class.std::__1::__compressed_pair.311" }
%"class.std::__1::__compressed_pair.307" = type { %"struct.std::__1::__compressed_pair_elem" }
%"class.std::__1::__compressed_pair.311" = type { %"struct.std::__1::__compressed_pair_elem.2" }
%"class.base::ThreadChecker" = type { i8 }
%"class.base::GUID" = type { %"class.std::__1::basic_string" }
%"class.extensions::ExtensionHost" = type { %"class.extensions::DeferredStartRenderHost", %"class.content::WebContentsDelegate", %"class.content::WebContentsObserver", %"class.extensions::ExtensionFunctionDispatcher::Delegate", %"class.extensions::ExtensionRegistryObserver", %"class.std::__1::unique_ptr.791", %"class.extensions::Extension"*, %"class.std::__1::basic_string", %"class.content::BrowserContext"*, %"class.std::__1::unique_ptr.442", %"class.content::RenderFrameHost"*, i8, i8, i8, i8, %class.GURL, %"class.std::__1::unordered_map.797", i32, %"class.base::ElapsedTimer", %"class.std::__1::unique_ptr.821", %"class.base::ObserverList.827", %"class.base::WeakPtrFactory.831" }
%"class.extensions::DeferredStartRenderHost" = type { i32 (...)** }
%"class.content::WebContentsObserver" = type { %"class.IPC::Listener", %"class.content::WebContents"* }
%"class.extensions::ExtensionFunctionDispatcher::Delegate" = type { i32 (...)** }
%"class.std::__1::unique_ptr.791" = type { %"class.std::__1::__compressed_pair.792" }
%"class.std::__1::__compressed_pair.792" = type { %"struct.std::__1::__compressed_pair_elem.793" }
%"struct.std::__1::__compressed_pair_elem.793" = type { %"class.extensions::ExtensionHostDelegate"* }
%"class.extensions::ExtensionHostDelegate" = type opaque
%"class.std::__1::unique_ptr.442" = type { %"class.std::__1::__compressed_pair.443" }
%"class.std::__1::__compressed_pair.443" = type { %"struct.std::__1::__compressed_pair_elem.444" }
%"struct.std::__1::__compressed_pair_elem.444" = type { %"class.content::WebContents"* }
%"class.content::RenderFrameHost" = type { %"class.IPC::Listener", %"class.IPC::Sender" }
%"class.std::__1::unordered_map.797" = type { %"class.std::__1::__hash_table.798" }
%"class.std::__1::__hash_table.798" = type <{ %"class.std::__1::unique_ptr.799", %"class.std::__1::__compressed_pair.809", %"class.std::__1::__compressed_pair.814", %"class.std::__1::__compressed_pair.817", [4 x i8] }>
%"class.std::__1::unique_ptr.799" = type { %"class.std::__1::__compressed_pair.800" }
%"class.std::__1::__compressed_pair.800" = type { %"struct.std::__1::__compressed_pair_elem.801", %"struct.std::__1::__compressed_pair_elem.803" }
%"struct.std::__1::__compressed_pair_elem.801" = type { %"struct.std::__1::__hash_node_base.802"** }
%"struct.std::__1::__hash_node_base.802" = type { %"struct.std::__1::__hash_node_base.802"* }
%"struct.std::__1::__compressed_pair_elem.803" = type { %"class.std::__1::__bucket_list_deallocator.804" }
%"class.std::__1::__bucket_list_deallocator.804" = type { %"class.std::__1::__compressed_pair.805" }
%"class.std::__1::__compressed_pair.805" = type { %"struct.std::__1::__compressed_pair_elem.2" }
%"class.std::__1::__compressed_pair.809" = type { %"struct.std::__1::__compressed_pair_elem.810" }
%"struct.std::__1::__compressed_pair_elem.810" = type { %"struct.std::__1::__hash_node_base.802" }
%"class.std::__1::__compressed_pair.814" = type { %"struct.std::__1::__compressed_pair_elem.2" }
%"class.std::__1::__compressed_pair.817" = type { %"struct.std::__1::__compressed_pair_elem.719" }
%"struct.std::__1::__compressed_pair_elem.719" = type { float }
%"class.std::__1::unique_ptr.821" = type { %"class.std::__1::__compressed_pair.822" }
%"class.std::__1::__compressed_pair.822" = type { %"struct.std::__1::__compressed_pair_elem.823" }
%"struct.std::__1::__compressed_pair_elem.823" = type { %"class.base::ElapsedTimer"* }
%"class.base::ObserverList.827" = type <{ %"class.std::__1::vector.22", %"class.base::LinkedList.828", i64, i32, [4 x i8] }>
%"class.base::LinkedList.828" = type { %"class.base::LinkNode.829" }
%"class.base::LinkNode.829" = type { %"class.base::internal::LinkNodeBase" }
%"class.base::WeakPtrFactory.831" = type { %"class.base::internal::WeakPtrFactoryBase" }
%struct.NavigateParams = type <{ %class.GURL, %"struct.content::Referrer", %"class.absl::optional", i32, [4 x i8], %"class.absl::optional.405", %"class.std::__1::basic_string", i32, [4 x i8], %"class.std::__1::vector.415", %class.scoped_refptr.421, %"class.std::__1::basic_string", %"class.std::__1::unique_ptr.442", %"class.content::WebContents"*, %"class.content::WebContents"*, %"class.content::WebContents"*, i32, [4 x i8], %"class.content::RenderFrameHost"*, i8, [3 x i8], i32, i8, [3 x i8], i32, %"class.std::__1::basic_string", %"class.gfx::Rect", i32, i8, i8, [2 x i8], i32, [4 x i8], %class.Browser*, %"class.absl::optional.646", i32, [4 x i8], %class.Profile*, i8, i8, i8, [5 x i8], %class.scoped_refptr.338, %class.scoped_refptr.651, i8, [7 x i8], %"class.base::TimeTicks", i32, [4 x i8], %"class.std::__1::basic_string", i32, [4 x i8], %"class.absl::optional.653", i8, [7 x i8] }>
%"struct.content::Referrer" = type <{ %class.GURL, i32, [4 x i8] }>
%"class.absl::optional" = type { %"class.absl::optional_internal::optional_data" }
%"class.absl::optional_internal::optional_data" = type { %"class.absl::optional_internal::optional_data_base" }
%"class.absl::optional_internal::optional_data_base" = type { %"class.absl::optional_internal::optional_data_dtor_base" }
%"class.absl::optional_internal::optional_data_dtor_base" = type { i8, %union.anon.404 }
%union.anon.404 = type { %"class.util::TokenType" }
%"class.util::TokenType" = type { %"class.base::StrongAlias" }
%"class.base::StrongAlias" = type { %"class.base::UnguessableToken" }
%"class.base::UnguessableToken" = type { %"class.base::Token" }
%"class.base::Token" = type { i64, i64 }
%"class.absl::optional.405" = type { %"class.absl::optional_internal::optional_data.406" }
%"class.absl::optional_internal::optional_data.406" = type { %"class.absl::optional_internal::optional_data_base.407" }
%"class.absl::optional_internal::optional_data_base.407" = type { %"class.absl::optional_internal::optional_data_dtor_base.408" }
%"class.absl::optional_internal::optional_data_dtor_base.408" = type { i8, %union.anon.409 }
%union.anon.409 = type { %"class.url::Origin" }
%"class.url::Origin" = type { %"class.url::SchemeHostPort", %"class.absl::optional.410" }
%"class.url::SchemeHostPort" = type <{ %"class.std::__1::basic_string", %"class.std::__1::basic_string", i16, [6 x i8] }>
%"class.absl::optional.410" = type { %"class.absl::optional_internal::optional_data.411" }
%"class.absl::optional_internal::optional_data.411" = type { %"class.absl::optional_internal::optional_data_base.412" }
%"class.absl::optional_internal::optional_data_base.412" = type { %"class.absl::optional_internal::optional_data_dtor_base.413" }
%"class.absl::optional_internal::optional_data_dtor_base.413" = type { i8, %union.anon.414 }
%union.anon.414 = type { %"class.url::Origin::Nonce" }
%"class.url::Origin::Nonce" = type { %"class.base::UnguessableToken" }
%"class.std::__1::vector.415" = type { %"class.std::__1::__vector_base.416" }
%"class.std::__1::__vector_base.416" = type { %class.GURL*, %class.GURL*, %"class.std::__1::__compressed_pair.417" }
%"class.std::__1::__compressed_pair.417" = type { %"struct.std::__1::__compressed_pair_elem.250" }
%class.scoped_refptr.421 = type { %"class.network::ResourceRequestBody"* }
%"class.network::ResourceRequestBody" = type <{ %"class.base::RefCountedThreadSafe.422", [4 x i8], %"class.std::__1::vector.423", i64, i8, i8, [6 x i8] }>
%"class.base::RefCountedThreadSafe.422" = type { %"class.base::subtle::RefCountedThreadSafeBase" }
%"class.std::__1::vector.423" = type { %"class.std::__1::__vector_base.424" }
%"class.std::__1::__vector_base.424" = type { %"class.network::DataElement"*, %"class.network::DataElement"*, %"class.std::__1::__compressed_pair.437" }
%"class.network::DataElement" = type { %"class.absl::variant.425" }
%"class.absl::variant.425" = type { %"class.absl::variant_internal::VariantMoveAssignBaseNontrivial.426" }
%"class.absl::variant_internal::VariantMoveAssignBaseNontrivial.426" = type { %"class.absl::variant_internal::VariantMoveBaseNontrivial.427" }
%"class.absl::variant_internal::VariantMoveBaseNontrivial.427" = type { %"class.absl::variant_internal::VariantStateBaseDestructorNontrivial.428" }
%"class.absl::variant_internal::VariantStateBaseDestructorNontrivial.428" = type { %"class.absl::variant_internal::VariantStateBase.429" }
%"class.absl::variant_internal::VariantStateBase.429" = type { %"union.absl::variant_internal::DestructibleUnionImpl.430", i64 }
%"union.absl::variant_internal::DestructibleUnionImpl.430" = type { %"union.absl::variant_internal::DestructibleUnionImpl.431" }
%"union.absl::variant_internal::DestructibleUnionImpl.431" = type { %"union.absl::variant_internal::DestructibleUnionImpl.432" }
%"union.absl::variant_internal::DestructibleUnionImpl.432" = type { %"union.absl::variant_internal::DestructibleUnionImpl.433" }
%"union.absl::variant_internal::DestructibleUnionImpl.433" = type { %"union.absl::variant_internal::DestructibleUnionImpl.436" }
%"union.absl::variant_internal::DestructibleUnionImpl.436" = type { %"class.network::DataElementFile" }
%"class.network::DataElementFile" = type { %"class.base::FilePath", i64, i64, %"class.base::Time" }
%"class.base::Time" = type { %"class.base::time_internal::TimeBase" }
%"class.base::time_internal::TimeBase" = type { i64 }
%"class.std::__1::__compressed_pair.437" = type { %"struct.std::__1::__compressed_pair_elem.438" }
%"struct.std::__1::__compressed_pair_elem.438" = type { %"class.network::DataElement"* }
%"class.absl::optional.646" = type { %"class.absl::optional_internal::optional_data.647" }
%"class.absl::optional_internal::optional_data.647" = type { %"class.absl::optional_internal::optional_data_base.648" }
%"class.absl::optional_internal::optional_data_base.648" = type { %"class.absl::optional_internal::optional_data_dtor_base.649" }
%"class.absl::optional_internal::optional_data_dtor_base.649" = type { i8, %union.anon.650 }
%union.anon.650 = type { %"class.tab_groups::TabGroupId" }
%"class.tab_groups::TabGroupId" = type { %"class.base::Token" }
%class.scoped_refptr.651 = type { %"class.network::SharedURLLoaderFactory"* }
%"class.network::SharedURLLoaderFactory" = type <{ %"class.network::mojom::URLLoaderFactory", %"class.base::RefCounted.652", [4 x i8] }>
%"class.network::mojom::URLLoaderFactory" = type { i32 (...)** }
%"class.base::RefCounted.652" = type { %"class.base::subtle::RefCountedBase" }
%"class.absl::optional.653" = type { %"class.absl::optional_internal::optional_data.654" }
%"class.absl::optional_internal::optional_data.654" = type { %"class.absl::optional_internal::optional_data_base.655" }
%"class.absl::optional_internal::optional_data_base.655" = type { %"class.absl::optional_internal::optional_data_dtor_base.656" }
%"class.absl::optional_internal::optional_data_dtor_base.656" = type { i8, %union.anon.657 }
%union.anon.657 = type { %"struct.blink::Impression" }
%"struct.blink::Impression" = type { %"class.url::Origin", %"class.absl::optional.405", i64, %"class.absl::optional.658", i64 }
%"class.absl::optional.658" = type { %"class.absl::optional_internal::optional_data.659" }
%"class.absl::optional_internal::optional_data.659" = type { %"class.absl::optional_internal::optional_data_base.660" }
%"class.absl::optional_internal::optional_data_base.660" = type { %"class.absl::optional_internal::optional_data_dtor_base.661" }
%"class.absl::optional_internal::optional_data_dtor_base.661" = type { i8, %union.anon.662 }
%union.anon.662 = type { %"class.base::TimeDelta" }
%"class.ui::ResourceBundle" = type { %"class.ui::ResourceBundle::Delegate"*, %"class.std::__1::unique_ptr.663", %"class.std::__1::unique_ptr.669", %"class.std::__1::unique_ptr.669", %"class.std::__1::vector.675", i32, %"class.std::__1::map.682", %"class.gfx::Image", %"class.std::__1::map.692", %"class.base::FilePath", %"class.std::__1::unordered_map", i8, i8, %"class.std::__1::basic_string" }
%"class.ui::ResourceBundle::Delegate" = type { i32 (...)** }
%"class.std::__1::unique_ptr.663" = type { %"class.std::__1::__compressed_pair.664" }
%"class.std::__1::__compressed_pair.664" = type { %"struct.std::__1::__compressed_pair_elem.665" }
%"struct.std::__1::__compressed_pair_elem.665" = type { %"class.base::Lock"* }
%"class.std::__1::unique_ptr.669" = type { %"class.std::__1::__compressed_pair.670" }
%"class.std::__1::__compressed_pair.670" = type { %"struct.std::__1::__compressed_pair_elem.671" }
%"struct.std::__1::__compressed_pair_elem.671" = type { %"class.ui::ResourceHandle"* }
%"class.ui::ResourceHandle" = type opaque
%"class.std::__1::vector.675" = type { %"class.std::__1::__vector_base.676" }
%"class.std::__1::__vector_base.676" = type { %"class.std::__1::unique_ptr.669"*, %"class.std::__1::unique_ptr.669"*, %"class.std::__1::__compressed_pair.677" }
%"class.std::__1::__compressed_pair.677" = type { %"struct.std::__1::__compressed_pair_elem.678" }
%"struct.std::__1::__compressed_pair_elem.678" = type { %"class.std::__1::unique_ptr.669"* }
%"class.std::__1::map.682" = type { %"class.std::__1::__tree.683" }
%"class.std::__1::__tree.683" = type { %"class.std::__1::__tree_end_node"*, %"class.std::__1::__compressed_pair.684", %"class.std::__1::__compressed_pair.688" }
%"class.std::__1::__compressed_pair.684" = type { %"struct.std::__1::__compressed_pair_elem" }
%"class.std::__1::__compressed_pair.688" = type { %"struct.std::__1::__compressed_pair_elem.2" }
%"class.gfx::Image" = type { %class.scoped_refptr.691 }
%class.scoped_refptr.691 = type { %"class.gfx::internal::ImageStorage"* }
%"class.gfx::internal::ImageStorage" = type opaque
%"class.std::__1::map.692" = type { %"class.std::__1::__tree.693" }
%"class.std::__1::__tree.693" = type { %"class.std::__1::__tree_end_node"*, %"class.std::__1::__compressed_pair.694", %"class.std::__1::__compressed_pair.698" }
%"class.std::__1::__compressed_pair.694" = type { %"struct.std::__1::__compressed_pair_elem" }
%"class.std::__1::__compressed_pair.698" = type { %"struct.std::__1::__compressed_pair_elem.2" }
%"class.std::__1::unordered_map" = type { %"class.std::__1::__hash_table" }
%"class.std::__1::__hash_table" = type <{ %"class.std::__1::unique_ptr.703", %"class.std::__1::__compressed_pair.711", %"class.std::__1::__compressed_pair.716", %"class.std::__1::__compressed_pair.718", [4 x i8] }>
%"class.std::__1::unique_ptr.703" = type { %"class.std::__1::__compressed_pair.704" }
%"class.std::__1::__compressed_pair.704" = type { %"struct.std::__1::__compressed_pair_elem.705", %"struct.std::__1::__compressed_pair_elem.706" }
%"struct.std::__1::__compressed_pair_elem.705" = type { %"struct.std::__1::__hash_node_base"** }
%"struct.std::__1::__hash_node_base" = type { %"struct.std::__1::__hash_node_base"* }
%"struct.std::__1::__compressed_pair_elem.706" = type { %"class.std::__1::__bucket_list_deallocator" }
%"class.std::__1::__bucket_list_deallocator" = type { %"class.std::__1::__compressed_pair.707" }
%"class.std::__1::__compressed_pair.707" = type { %"struct.std::__1::__compressed_pair_elem.2" }
%"class.std::__1::__compressed_pair.711" = type { %"struct.std::__1::__compressed_pair_elem.712" }
%"struct.std::__1::__compressed_pair_elem.712" = type { %"struct.std::__1::__hash_node_base" }
%"class.std::__1::__compressed_pair.716" = type { %"struct.std::__1::__compressed_pair_elem.2" }
%"class.std::__1::__compressed_pair.718" = type { %"struct.std::__1::__compressed_pair_elem.719" }
%"class.std::__1::vector.721" = type { %"class.std::__1::__vector_base.722" }
%"class.std::__1::__vector_base.722" = type { %"class.content::BrowserContext"**, %"class.content::BrowserContext"**, %"class.std::__1::__compressed_pair.723" }
%"class.std::__1::__compressed_pair.723" = type { %"struct.std::__1::__compressed_pair_elem.724" }
%"struct.std::__1::__compressed_pair_elem.724" = type { %"class.content::BrowserContext"** }
%class.DevToolsBrowserContextManager = type { %class.BrowserListObserver, %class.ProfileObserver, %"class.base::flat_map.728", %"class.base::flat_map.738", %"class.base::WeakPtrFactory.748" }
%class.BrowserListObserver = type { i32 (...)** }
%class.ProfileObserver = type { %"class.base::CheckedObserver" }
%"class.base::flat_map.728" = type { %"class.base::internal::flat_tree.729" }
%"class.base::internal::flat_tree.729" = type { %"class.std::__1::vector.730" }
%"class.std::__1::vector.730" = type { %"class.std::__1::__vector_base.731" }
%"class.std::__1::__vector_base.731" = type { %"struct.std::__1::pair.732"*, %"struct.std::__1::pair.732"*, %"class.std::__1::__compressed_pair.733" }
%"struct.std::__1::pair.732" = type opaque
%"class.std::__1::__compressed_pair.733" = type { %"struct.std::__1::__compressed_pair_elem.734" }
%"struct.std::__1::__compressed_pair_elem.734" = type { %"struct.std::__1::pair.732"* }
%"class.base::flat_map.738" = type { %"class.base::internal::flat_tree.739" }
%"class.base::internal::flat_tree.739" = type { %"class.std::__1::vector.740" }
%"class.std::__1::vector.740" = type { %"class.std::__1::__vector_base.741" }
%"class.std::__1::__vector_base.741" = type { %"struct.std::__1::pair.742"*, %"struct.std::__1::pair.742"*, %"class.std::__1::__compressed_pair.743" }
%"struct.std::__1::pair.742" = type opaque
%"class.std::__1::__compressed_pair.743" = type { %"struct.std::__1::__compressed_pair_elem.744" }
%"struct.std::__1::__compressed_pair_elem.744" = type { %"struct.std::__1::pair.742"* }
%"class.base::WeakPtrFactory.748" = type { %"class.base::internal::WeakPtrFactoryBase" }
%"class.base::OnceCallback.749" = type { %"class.base::internal::CallbackBase" }
%"class.std::__1::vector.750" = type { %"class.std::__1::__vector_base.751" }
%"class.std::__1::__vector_base.751" = type { %"struct.std::__1::pair.752"*, %"struct.std::__1::pair.752"*, %"class.std::__1::__compressed_pair.775" }
%"struct.std::__1::pair.752" = type { %class.scoped_refptr.753, %class.scoped_refptr.755 }
%class.scoped_refptr.753 = type { %"class.AndroidDeviceManager::Device"* }
%"class.AndroidDeviceManager::Device" = type { %"class.base::RefCountedDeleteOnSequence", %class.scoped_refptr.29, %class.scoped_refptr.45, %"class.std::__1::basic_string", %"class.base::WeakPtrFactory.754" }
%"class.base::RefCountedDeleteOnSequence" = type { %"class.base::subtle::RefCountedThreadSafeBase", %class.scoped_refptr.351 }
%"class.base::WeakPtrFactory.754" = type { %"class.base::internal::WeakPtrFactoryBase" }
%class.scoped_refptr.755 = type { %"class.DevToolsDeviceDiscovery::RemoteDevice"* }
%"class.DevToolsDeviceDiscovery::RemoteDevice" = type { i32 (...)**, %"class.base::RefCountedThreadSafe.756", %"class.std::__1::basic_string", %"class.std::__1::basic_string", i8, %"class.std::__1::vector.757", %"class.gfx::Size" }
%"class.base::RefCountedThreadSafe.756" = type { %"class.base::subtle::RefCountedThreadSafeBase" }
%"class.std::__1::vector.757" = type { %"class.std::__1::__vector_base.758" }
%"class.std::__1::__vector_base.758" = type { %class.scoped_refptr.759*, %class.scoped_refptr.759*, %"class.std::__1::__compressed_pair.770" }
%class.scoped_refptr.759 = type { %"class.DevToolsDeviceDiscovery::RemoteBrowser"* }
%"class.DevToolsDeviceDiscovery::RemoteBrowser" = type { i32 (...)**, %"class.base::RefCountedThreadSafe.760", %"class.std::__1::basic_string", %"class.std::__1::basic_string", %"class.std::__1::basic_string", %"class.std::__1::basic_string", i32, %"class.std::__1::basic_string", %"class.std::__1::basic_string", %"class.std::__1::vector.761" }
%"class.base::RefCountedThreadSafe.760" = type { %"class.base::subtle::RefCountedThreadSafeBase" }
%"class.std::__1::vector.761" = type { %"class.std::__1::__vector_base.762" }
%"class.std::__1::__vector_base.762" = type { %class.scoped_refptr.763*, %class.scoped_refptr.763*, %"class.std::__1::__compressed_pair.765" }
%class.scoped_refptr.763 = type { %"class.DevToolsDeviceDiscovery::RemotePage"* }
%"class.DevToolsDeviceDiscovery::RemotePage" = type { i32 (...)**, %"class.base::RefCountedThreadSafe.764", %class.scoped_refptr.753, %"class.std::__1::basic_string", %"class.std::__1::basic_string", %"class.std::__1::basic_string", %"class.base::Value", %class.scoped_refptr.79 }
%"class.base::RefCountedThreadSafe.764" = type { %"class.base::subtle::RefCountedThreadSafeBase" }
%"class.std::__1::__compressed_pair.765" = type { %"struct.std::__1::__compressed_pair_elem.766" }
%"struct.std::__1::__compressed_pair_elem.766" = type { %class.scoped_refptr.763* }
%"class.std::__1::__compressed_pair.770" = type { %"struct.std::__1::__compressed_pair_elem.771" }
%"struct.std::__1::__compressed_pair_elem.771" = type { %class.scoped_refptr.759* }
%"class.std::__1::__compressed_pair.775" = type { %"struct.std::__1::__compressed_pair_elem.776" }
%"struct.std::__1::__compressed_pair_elem.776" = type { %"struct.std::__1::pair.752"* }
%class.TCPDeviceProvider = type { %"class.AndroidDeviceManager::DeviceProvider.base", %"class.std::__1::set", %"class.base::OnceCallback.782" }
%"class.AndroidDeviceManager::DeviceProvider.base" = type <{ i32 (...)**, %"class.base::RefCountedThreadSafe.46" }>
%"class.base::OnceCallback.782" = type { %"class.base::internal::CallbackBase" }
%"class.content::BrowserTaskTraits" = type { %"class.base::TaskTraits" }
%"class.base::TaskTraits" = type { %"struct.base::TaskTraitsExtensionStorage", i8, i8, i8, i8, i8, i8 }
%"class.base::TaskRunner" = type <{ i32 (...)**, %"class.base::RefCountedThreadSafe.30", [4 x i8] }>
%"class.std::__1::__vector_base_common" = type { i8 }

$_ZN4base6ranges4findIRK20AllTabContentsesListPN7content11WebContentsENS_8identityENSt3__120forward_iterator_tagEEEDaOT_RKT0_T1_ = comdat any

$_ZNSt3__16__treeINS_12__value_typeIPN7content30DevToolsAgentHostClientChannelENS_10unique_ptrI21ChromeDevToolsSessionNS_14default_deleteIS6_EEEEEENS_19__map_value_compareIS4_SA_NS_4lessIS4_EELb1EEENS_9allocatorISA_EEE7destroyEPNS_11__tree_nodeISA_PvEE = comdat any

$_ZNSt3__16__treeIN3net12HostPortPairENS_4lessIS2_EENS_9allocatorIS2_EEE7destroyEPNS_11__tree_nodeIS2_PvEE = comdat any

$_ZNSt3__127__tree_balance_after_insertIPNS_16__tree_node_baseIPvEEEEvT_S5_ = comdat any

$_ZNSt3__16__treeINS_12__value_typeIPN7content30DevToolsAgentHostClientChannelENS_10unique_ptrI21ChromeDevToolsSessionNS_14default_deleteIS6_EEEEEENS_19__map_value_compareIS4_SA_NS_4lessIS4_EELb1EEENS_9allocatorISA_EEE14__erase_uniqueIS4_EEmRKT_ = comdat any

$_ZNSt3__113__tree_removeIPNS_16__tree_node_baseIPvEEEEvT_S5_ = comdat any

$_ZNSt3__16vectorI13scoped_refptrIN7content17DevToolsAgentHostEENS_9allocatorIS4_EEE21__push_back_slow_pathIS4_EEvOT_ = comdat any

$_ZNSt3__16__treeIN3net12HostPortPairENS_4lessIS2_EENS_9allocatorIS2_EEE30__emplace_hint_unique_key_argsIS2_JRKS2_EEENS_4pairINS_15__tree_iteratorIS2_PNS_11__tree_nodeIS2_PvEElEEbEENS_21__tree_const_iteratorIS2_SG_lEERKT_DpOT0_ = comdat any

$_ZNSt3__16__treeIN3net12HostPortPairENS_4lessIS2_EENS_9allocatorIS2_EEE12__find_equalIS2_EERPNS_16__tree_node_baseIPvEENS_21__tree_const_iteratorIS2_PNS_11__tree_nodeIS2_SA_EElEERPNS_15__tree_end_nodeISC_EESD_RKT_ = comdat any

$_ZNSt3__16__treeIN3net12HostPortPairENS_4lessIS2_EENS_9allocatorIS2_EEE12__find_equalIS2_EERPNS_16__tree_node_baseIPvEERPNS_15__tree_end_nodeISC_EERKT_ = comdat any

$_ZNSt3__16vectorI13scoped_refptrIN20AndroidDeviceManager14DeviceProviderEENS_9allocatorIS4_EEE21__push_back_slow_pathIS4_EEvOT_ = comdat any

$_ZN4base8internal7InvokerINS0_9BindStateIM29ChromeDevToolsManagerDelegateFvRKNSt3__16vectorINS4_4pairI13scoped_refptrIN20AndroidDeviceManager6DeviceEES7_IN23DevToolsDeviceDiscovery12RemoteDeviceEEEENS4_9allocatorISE_EEEEEJNS0_17UnretainedWrapperIS3_EEEEEFvSJ_EE3RunEPNS0_13BindStateBaseESJ_ = comdat any

$_ZN4base8internal9BindStateIM29ChromeDevToolsManagerDelegateFvRKNSt3__16vectorINS3_4pairI13scoped_refptrIN20AndroidDeviceManager6DeviceEES6_IN23DevToolsDeviceDiscovery12RemoteDeviceEEEENS3_9allocatorISD_EEEEEJNS0_17UnretainedWrapperIS2_EEEE7DestroyEPKNS0_13BindStateBaseE = comdat any

@_ZN29ChromeDevToolsManagerDelegate8kTypeAppE = hidden local_unnamed_addr constant [4 x i8] c"app\00", align 1
@_ZN29ChromeDevToolsManagerDelegate19kTypeBackgroundPageE = hidden local_unnamed_addr constant [16 x i8] c"background_page\00", align 16
@_ZN12_GLOBAL__N_110g_instanceE = internal unnamed_addr global %class.ChromeDevToolsManagerDelegate* null, align 8
@_ZTV29ChromeDevToolsManagerDelegate = hidden unnamed_addr constant { [21 x i8*] } { [21 x i8*] [i8* null, i8* null, i8* bitcast (void (%class.ChromeDevToolsManagerDelegate*, %"class.content::DevToolsAgentHost"*)* @_ZN29ChromeDevToolsManagerDelegate7InspectEPN7content17DevToolsAgentHostE to i8*), i8* bitcast (void (%"class.std::__1::basic_string"*, %class.ChromeDevToolsManagerDelegate*, %"class.content::WebContents"*)* @_ZN29ChromeDevToolsManagerDelegate13GetTargetTypeEPN7content11WebContentsE to i8*), i8* bitcast (void (%"class.std::__1::basic_string"*, %class.ChromeDevToolsManagerDelegate*, %"class.content::WebContents"*)* @_ZN29ChromeDevToolsManagerDelegate14GetTargetTitleEPN7content11WebContentsE to i8*), i8* bitcast (void (%"class.std::__1::basic_string"*, %"class.content::DevToolsManagerDelegate"*, %"class.content::WebContents"*)* @_ZN7content23DevToolsManagerDelegate20GetTargetDescriptionEPNS_11WebContentsE to i8*), i8* bitcast (i1 (%class.ChromeDevToolsManagerDelegate*, %"class.content::RenderFrameHost"*)* @_ZN29ChromeDevToolsManagerDelegate30AllowInspectingRenderFrameHostEPN7content15RenderFrameHostE to i8*), i8* bitcast (void (%"class.std::__1::vector.77"*, %"class.content::DevToolsManagerDelegate"*)* @_ZN7content23DevToolsManagerDelegate22RemoteDebuggingTargetsEv to i8*), i8* bitcast (%"class.content::DevToolsAgentHost"* (%class.ChromeDevToolsManagerDelegate*, %class.GURL*)* @_ZN29ChromeDevToolsManagerDelegate15CreateNewTargetERK4GURL to i8*), i8* bitcast (void (%"class.std::__1::vector.721"*, %class.ChromeDevToolsManagerDelegate*)* @_ZN29ChromeDevToolsManagerDelegate18GetBrowserContextsEv to i8*), i8* bitcast (%"class.content::BrowserContext"* (%class.ChromeDevToolsManagerDelegate*)* @_ZN29ChromeDevToolsManagerDelegate24GetDefaultBrowserContextEv to i8*), i8* bitcast (%"class.content::BrowserContext"* (%class.ChromeDevToolsManagerDelegate*)* @_ZN29ChromeDevToolsManagerDelegate20CreateBrowserContextEv to i8*), i8* bitcast (void (%class.ChromeDevToolsManagerDelegate*, %"class.content::BrowserContext"*, %"class.base::OnceCallback.749"*)* @_ZN29ChromeDevToolsManagerDelegate21DisposeBrowserContextEPN7content14BrowserContextEN4base12OnceCallbackIFvbRKNSt3__112basic_stringIcNS5_11char_traitsIcEENS5_9allocatorIcEEEEEEE to i8*), i8* bitcast (void (%class.ChromeDevToolsManagerDelegate*, %"class.content::DevToolsAgentHostClientChannel"*)* @_ZN29ChromeDevToolsManagerDelegate14ClientAttachedEPN7content30DevToolsAgentHostClientChannelE to i8*), i8* bitcast (void (%class.ChromeDevToolsManagerDelegate*, %"class.content::DevToolsAgentHostClientChannel"*)* @_ZN29ChromeDevToolsManagerDelegate14ClientDetachedEPN7content30DevToolsAgentHostClientChannelE to i8*), i8* bitcast (void (%class.ChromeDevToolsManagerDelegate*, %"class.content::DevToolsAgentHostClientChannel"*, i64, i8*, %"class.base::OnceCallback"*)* @_ZN29ChromeDevToolsManagerDelegate13HandleCommandEPN7content30DevToolsAgentHostClientChannelEN4base4spanIKhLm18446744073709551615EEENS3_12OnceCallbackIFvS6_EEE to i8*), i8* bitcast (void (%"class.std::__1::basic_string"*, %class.ChromeDevToolsManagerDelegate*)* @_ZN29ChromeDevToolsManagerDelegate20GetDiscoveryPageHTMLEv to i8*), i8* bitcast (i1 (%class.ChromeDevToolsManagerDelegate*)* @_ZN29ChromeDevToolsManagerDelegate27HasBundledFrontendResourcesEv to i8*), i8* bitcast (i1 (%"class.content::DevToolsManagerDelegate"*)* @_ZN7content23DevToolsManagerDelegate27IsBrowserTargetDiscoverableEv to i8*), i8* bitcast (void (%class.ChromeDevToolsManagerDelegate*)* @_ZN29ChromeDevToolsManagerDelegateD2Ev to i8*), i8* bitcast (void (%class.ChromeDevToolsManagerDelegate*)* @_ZN29ChromeDevToolsManagerDelegateD0Ev to i8*)] }, align 8
@_ZN8switches16kNoStartupWindowE = external constant [0 x i8], align 1
@_ZN8switches20kRemoteDebuggingPipeE = external constant [0 x i8], align 1
@_ZN8switches20kRemoteDebuggingPortE = external constant [0 x i8], align 1
@_ZN7content17DevToolsAgentHost9kTypePageE = external constant [0 x i8], align 1
@_ZN7content17DevToolsAgentHost10kTypeOtherE = external constant [0 x i8], align 1
@.ref.tmp = private constant { %"struct.base::TaskTraitsExtensionStorage", i8, i8, i8, i8, i8, i8 } { %"struct.base::TaskTraitsExtensionStorage" zeroinitializer, i8 2, i8 1, i8 0, i8 0, i8 0, i8 0 }, align 1
@.str = private unnamed_addr constant [17 x i8] c"CloseBrowserSoon\00", align 1
@.str.1 = private unnamed_addr constant [66 x i8] c"../../chrome/browser/devtools/chrome_devtools_manager_delegate.cc\00", align 1

@_ZN29ChromeDevToolsManagerDelegateC1Ev = hidden unnamed_addr alias void (%class.ChromeDevToolsManagerDelegate*), void (%class.ChromeDevToolsManagerDelegate*)* @_ZN29ChromeDevToolsManagerDelegateC2Ev
@_ZN29ChromeDevToolsManagerDelegateD1Ev = hidden unnamed_addr alias void (%class.ChromeDevToolsManagerDelegate*), void (%class.ChromeDevToolsManagerDelegate*)* @_ZN29ChromeDevToolsManagerDelegateD2Ev

; Function Attrs: norecurse nounwind readonly ssp uwtable
define hidden %class.ChromeDevToolsManagerDelegate* @_ZN29ChromeDevToolsManagerDelegate11GetInstanceEv() local_unnamed_addr #0 align 2 {
  %1 = load %class.ChromeDevToolsManagerDelegate*, %class.ChromeDevToolsManagerDelegate** @_ZN12_GLOBAL__N_110g_instanceE, align 8
  ret %class.ChromeDevToolsManagerDelegate* %1
}

; Function Attrs: nounwind ssp uwtable
define hidden void @_ZN29ChromeDevToolsManagerDelegateC2Ev(%class.ChromeDevToolsManagerDelegate*) unnamed_addr #1 align 2 {
  %2 = getelementptr inbounds %class.ChromeDevToolsManagerDelegate, %class.ChromeDevToolsManagerDelegate* %0, i64 0, i32 0, i32 0
  store i32 (...)** bitcast (i8** getelementptr inbounds ({ [21 x i8*] }, { [21 x i8*] }* @_ZTV29ChromeDevToolsManagerDelegate, i64 0, inrange i32 0, i64 2) to i32 (...)**), i32 (...)*** %2, align 8
  %3 = getelementptr inbounds %class.ChromeDevToolsManagerDelegate, %class.ChromeDevToolsManagerDelegate* %0, i64 0, i32 1, i32 0, i32 1, i32 0, i32 0, i32 0
  %4 = getelementptr inbounds %class.ChromeDevToolsManagerDelegate, %class.ChromeDevToolsManagerDelegate* %0, i64 0, i32 1, i32 0, i32 1, i32 0, i32 0
  %5 = getelementptr inbounds %class.ChromeDevToolsManagerDelegate, %class.ChromeDevToolsManagerDelegate* %0, i64 0, i32 1, i32 0, i32 0
  %6 = bitcast %"class.std::__1::__tree_node_base"** %3 to i8*
  tail call void @llvm.memset.p0i8.i64(i8* align 8 %6, i8 0, i64 16, i1 false) #14
  store %"class.std::__1::__tree_end_node"* %4, %"class.std::__1::__tree_end_node"** %5, align 8
  %7 = getelementptr inbounds %class.ChromeDevToolsManagerDelegate, %class.ChromeDevToolsManagerDelegate* %0, i64 0, i32 2
  %8 = getelementptr inbounds %class.ChromeDevToolsManagerDelegate, %class.ChromeDevToolsManagerDelegate* %0, i64 0, i32 5, i32 0, i32 1, i32 0, i32 0, i32 0
  %9 = getelementptr inbounds %class.ChromeDevToolsManagerDelegate, %class.ChromeDevToolsManagerDelegate* %0, i64 0, i32 5, i32 0, i32 1, i32 0, i32 0
  %10 = getelementptr inbounds %class.ChromeDevToolsManagerDelegate, %class.ChromeDevToolsManagerDelegate* %0, i64 0, i32 5, i32 0, i32 0
  %11 = bitcast %"class.std::__1::__tree_node_base"** %8 to i8*
  tail call void @llvm.memset.p0i8.i64(i8* align 8 %11, i8 0, i64 16, i1 false) #14
  %12 = bitcast %"class.std::__1::unique_ptr"* %7 to i8*
  call void @llvm.memset.p0i8.i64(i8* align 8 %12, i8 0, i64 40, i1 false)
  store %"class.std::__1::__tree_end_node"* %9, %"class.std::__1::__tree_end_node"** %10, align 8
  %13 = getelementptr inbounds %class.ChromeDevToolsManagerDelegate, %class.ChromeDevToolsManagerDelegate* %0, i64 0, i32 6
  %14 = bitcast %"class.std::__1::unique_ptr.94"* %13 to i64*
  store i64 0, i64* %14, align 8
  store %class.ChromeDevToolsManagerDelegate* %0, %class.ChromeDevToolsManagerDelegate** @_ZN12_GLOBAL__N_110g_instanceE, align 8
  %15 = tail call %"class.base::CommandLine"* @_ZN4base11CommandLine17ForCurrentProcessEv() #14
  %16 = tail call zeroext i1 @_ZNK4base11CommandLine9HasSwitchEPKc(%"class.base::CommandLine"* %15, i8* getelementptr inbounds ([0 x i8], [0 x i8]* @_ZN8switches16kNoStartupWindowE, i64 0, i64 0)) #14
  br i1 %16, label %17, label %30

17:                                               ; preds = %1
  %18 = tail call zeroext i1 @_ZNK4base11CommandLine9HasSwitchEPKc(%"class.base::CommandLine"* %15, i8* getelementptr inbounds ([0 x i8], [0 x i8]* @_ZN8switches20kRemoteDebuggingPipeE, i64 0, i64 0)) #14
  br i1 %18, label %21, label %19

19:                                               ; preds = %17
  %20 = tail call zeroext i1 @_ZNK4base11CommandLine9HasSwitchEPKc(%"class.base::CommandLine"* %15, i8* getelementptr inbounds ([0 x i8], [0 x i8]* @_ZN8switches20kRemoteDebuggingPortE, i64 0, i64 0)) #14
  br i1 %20, label %21, label %30

21:                                               ; preds = %19, %17
  %22 = tail call i8* @_Znwm(i64 8) #15
  %23 = bitcast i8* %22 to %class.ScopedKeepAlive*
  tail call void @_ZN15ScopedKeepAliveC1E15KeepAliveOrigin22KeepAliveRestartOption(%class.ScopedKeepAlive* nonnull %23, i32 12, i32 0) #14
  %24 = ptrtoint i8* %22 to i64
  %25 = getelementptr inbounds %"class.std::__1::unique_ptr.94", %"class.std::__1::unique_ptr.94"* %13, i64 0, i32 0, i32 0, i32 0
  %26 = load %class.ScopedKeepAlive*, %class.ScopedKeepAlive** %25, align 8
  store i64 %24, i64* %14, align 8
  %27 = icmp eq %class.ScopedKeepAlive* %26, null
  br i1 %27, label %30, label %28

28:                                               ; preds = %21
  tail call void @_ZN15ScopedKeepAliveD1Ev(%class.ScopedKeepAlive* nonnull %26) #14
  %29 = bitcast %class.ScopedKeepAlive* %26 to i8*
  tail call void @_ZdlPv(i8* %29) #15
  br label %30

30:                                               ; preds = %21, %28, %19, %1
  ret void
}

; Function Attrs: argmemonly nounwind
declare void @llvm.lifetime.start.p0i8(i64 immarg, i8* nocapture) #2

declare %"class.base::CommandLine"* @_ZN4base11CommandLine17ForCurrentProcessEv() local_unnamed_addr #3

declare zeroext i1 @_ZNK4base11CommandLine9HasSwitchEPKc(%"class.base::CommandLine"*, i8*) local_unnamed_addr #3

; Function Attrs: argmemonly nounwind
declare void @llvm.lifetime.end.p0i8(i64 immarg, i8* nocapture) #2

; Function Attrs: nounwind ssp uwtable
define hidden void @_ZN29ChromeDevToolsManagerDelegateD2Ev(%class.ChromeDevToolsManagerDelegate*) unnamed_addr #1 align 2 {
  %2 = getelementptr inbounds %class.ChromeDevToolsManagerDelegate, %class.ChromeDevToolsManagerDelegate* %0, i64 0, i32 0, i32 0
  store i32 (...)** bitcast (i8** getelementptr inbounds ({ [21 x i8*] }, { [21 x i8*] }* @_ZTV29ChromeDevToolsManagerDelegate, i64 0, inrange i32 0, i64 2) to i32 (...)**), i32 (...)*** %2, align 8
  store %class.ChromeDevToolsManagerDelegate* null, %class.ChromeDevToolsManagerDelegate** @_ZN12_GLOBAL__N_110g_instanceE, align 8
  %3 = getelementptr inbounds %class.ChromeDevToolsManagerDelegate, %class.ChromeDevToolsManagerDelegate* %0, i64 0, i32 6, i32 0, i32 0, i32 0
  %4 = load %class.ScopedKeepAlive*, %class.ScopedKeepAlive** %3, align 8
  store %class.ScopedKeepAlive* null, %class.ScopedKeepAlive** %3, align 8
  %5 = icmp eq %class.ScopedKeepAlive* %4, null
  br i1 %5, label %8, label %6

6:                                                ; preds = %1
  tail call void @_ZN15ScopedKeepAliveD1Ev(%class.ScopedKeepAlive* nonnull %4) #14
  %7 = bitcast %class.ScopedKeepAlive* %4 to i8*
  tail call void @_ZdlPv(i8* %7) #15
  br label %8

8:                                                ; preds = %1, %6
  %9 = getelementptr inbounds %class.ChromeDevToolsManagerDelegate, %class.ChromeDevToolsManagerDelegate* %0, i64 0, i32 5, i32 0
  %10 = getelementptr inbounds %class.ChromeDevToolsManagerDelegate, %class.ChromeDevToolsManagerDelegate* %0, i64 0, i32 5, i32 0, i32 1, i32 0, i32 0
  %11 = bitcast %"class.std::__1::__tree_end_node"* %10 to %"class.std::__1::__tree_node.832"**
  %12 = load %"class.std::__1::__tree_node.832"*, %"class.std::__1::__tree_node.832"** %11, align 8
  tail call void @_ZNSt3__16__treeIN3net12HostPortPairENS_4lessIS2_EENS_9allocatorIS2_EEE7destroyEPNS_11__tree_nodeIS2_PvEE(%"class.std::__1::__tree.85"* %9, %"class.std::__1::__tree_node.832"* %12) #14
  %13 = getelementptr inbounds %class.ChromeDevToolsManagerDelegate, %class.ChromeDevToolsManagerDelegate* %0, i64 0, i32 4
  %14 = getelementptr inbounds %"class.std::__1::vector.77", %"class.std::__1::vector.77"* %13, i64 0, i32 0, i32 0
  %15 = load %class.scoped_refptr.79*, %class.scoped_refptr.79** %14, align 8
  %16 = icmp eq %class.scoped_refptr.79* %15, null
  br i1 %16, label %48, label %17

17:                                               ; preds = %8
  %18 = bitcast %class.scoped_refptr.79* %15 to i8*
  %19 = getelementptr inbounds %class.ChromeDevToolsManagerDelegate, %class.ChromeDevToolsManagerDelegate* %0, i64 0, i32 4, i32 0, i32 1
  %20 = load %class.scoped_refptr.79*, %class.scoped_refptr.79** %19, align 8
  %21 = icmp eq %class.scoped_refptr.79* %20, %15
  br i1 %21, label %46, label %22

22:                                               ; preds = %17, %41
  %23 = phi %class.scoped_refptr.79* [ %24, %41 ], [ %20, %17 ]
  %24 = getelementptr inbounds %class.scoped_refptr.79, %class.scoped_refptr.79* %23, i64 -1
  %25 = getelementptr inbounds %class.scoped_refptr.79, %class.scoped_refptr.79* %24, i64 0, i32 0
  %26 = load %"class.content::DevToolsAgentHost"*, %"class.content::DevToolsAgentHost"** %25, align 8
  %27 = icmp eq %"class.content::DevToolsAgentHost"* %26, null
  br i1 %27, label %41, label %28

28:                                               ; preds = %22
  %29 = getelementptr inbounds %"class.content::DevToolsAgentHost", %"class.content::DevToolsAgentHost"* %26, i64 0, i32 1
  %30 = getelementptr inbounds %"class.base::RefCounted", %"class.base::RefCounted"* %29, i64 0, i32 0
  tail call void @_ZNK4base6subtle14RefCountedBase11ReleaseImplEv(%"class.base::subtle::RefCountedBase"* %30) #14
  %31 = getelementptr inbounds %"class.base::RefCounted", %"class.base::RefCounted"* %29, i64 0, i32 0, i32 0
  %32 = load i32, i32* %31, align 4
  %33 = icmp eq i32 %32, 0
  br i1 %33, label %34, label %41

34:                                               ; preds = %28
  %35 = getelementptr inbounds %"class.base::RefCounted", %"class.base::RefCounted"* %29, i64 -2
  %36 = bitcast %"class.base::RefCounted"* %35 to %"class.content::DevToolsAgentHost"*
  %37 = bitcast %"class.base::RefCounted"* %35 to void (%"class.content::DevToolsAgentHost"*)***
  %38 = load void (%"class.content::DevToolsAgentHost"*)**, void (%"class.content::DevToolsAgentHost"*)*** %37, align 8
  %39 = getelementptr inbounds void (%"class.content::DevToolsAgentHost"*)*, void (%"class.content::DevToolsAgentHost"*)** %38, i64 28
  %40 = load void (%"class.content::DevToolsAgentHost"*)*, void (%"class.content::DevToolsAgentHost"*)** %39, align 8
  tail call void %40(%"class.content::DevToolsAgentHost"* nonnull %36) #14
  br label %41

41:                                               ; preds = %34, %28, %22
  %42 = icmp eq %class.scoped_refptr.79* %24, %15
  br i1 %42, label %43, label %22

43:                                               ; preds = %41
  %44 = bitcast %"class.std::__1::vector.77"* %13 to i8**
  %45 = load i8*, i8** %44, align 8
  br label %46

46:                                               ; preds = %43, %17
  %47 = phi i8* [ %45, %43 ], [ %18, %17 ]
  store %class.scoped_refptr.79* %15, %class.scoped_refptr.79** %19, align 8
  tail call void @_ZdlPv(i8* %47) #15
  br label %48

48:                                               ; preds = %8, %46
  %49 = getelementptr inbounds %class.ChromeDevToolsManagerDelegate, %class.ChromeDevToolsManagerDelegate* %0, i64 0, i32 3, i32 0, i32 0, i32 0
  %50 = load %class.DevToolsDeviceDiscovery*, %class.DevToolsDeviceDiscovery** %49, align 8
  store %class.DevToolsDeviceDiscovery* null, %class.DevToolsDeviceDiscovery** %49, align 8
  %51 = icmp eq %class.DevToolsDeviceDiscovery* %50, null
  br i1 %51, label %54, label %52

52:                                               ; preds = %48
  tail call void @_ZN23DevToolsDeviceDiscoveryD1Ev(%class.DevToolsDeviceDiscovery* nonnull %50) #14
  %53 = bitcast %class.DevToolsDeviceDiscovery* %50 to i8*
  tail call void @_ZdlPv(i8* %53) #15
  br label %54

54:                                               ; preds = %48, %52
  %55 = getelementptr inbounds %class.ChromeDevToolsManagerDelegate, %class.ChromeDevToolsManagerDelegate* %0, i64 0, i32 2, i32 0, i32 0, i32 0
  %56 = load %class.AndroidDeviceManager*, %class.AndroidDeviceManager** %55, align 8
  store %class.AndroidDeviceManager* null, %class.AndroidDeviceManager** %55, align 8
  %57 = icmp eq %class.AndroidDeviceManager* %56, null
  br i1 %57, label %63, label %58

58:                                               ; preds = %54
  %59 = bitcast %class.AndroidDeviceManager* %56 to void (%class.AndroidDeviceManager*)***
  %60 = load void (%class.AndroidDeviceManager*)**, void (%class.AndroidDeviceManager*)*** %59, align 8
  %61 = getelementptr inbounds void (%class.AndroidDeviceManager*)*, void (%class.AndroidDeviceManager*)** %60, i64 1
  %62 = load void (%class.AndroidDeviceManager*)*, void (%class.AndroidDeviceManager*)** %61, align 8
  tail call void %62(%class.AndroidDeviceManager* nonnull %56) #14
  br label %63

63:                                               ; preds = %54, %58
  %64 = getelementptr inbounds %class.ChromeDevToolsManagerDelegate, %class.ChromeDevToolsManagerDelegate* %0, i64 0, i32 1, i32 0
  %65 = getelementptr inbounds %class.ChromeDevToolsManagerDelegate, %class.ChromeDevToolsManagerDelegate* %0, i64 0, i32 1, i32 0, i32 1, i32 0, i32 0
  %66 = bitcast %"class.std::__1::__tree_end_node"* %65 to %"class.std::__1::__tree_node"**
  %67 = load %"class.std::__1::__tree_node"*, %"class.std::__1::__tree_node"** %66, align 8
  tail call void @_ZNSt3__16__treeINS_12__value_typeIPN7content30DevToolsAgentHostClientChannelENS_10unique_ptrI21ChromeDevToolsSessionNS_14default_deleteIS6_EEEEEENS_19__map_value_compareIS4_SA_NS_4lessIS4_EELb1EEENS_9allocatorISA_EEE7destroyEPNS_11__tree_nodeISA_PvEE(%"class.std::__1::__tree"* %64, %"class.std::__1::__tree_node"* %67) #14
  %68 = getelementptr inbounds %class.ChromeDevToolsManagerDelegate, %class.ChromeDevToolsManagerDelegate* %0, i64 0, i32 0
  tail call void @_ZN7content23DevToolsManagerDelegateD2Ev(%"class.content::DevToolsManagerDelegate"* %68) #14
  ret void
}

; Function Attrs: nounwind
declare void @_ZN7content23DevToolsManagerDelegateD2Ev(%"class.content::DevToolsManagerDelegate"*) unnamed_addr #4

; Function Attrs: nounwind ssp uwtable
define hidden void @_ZN29ChromeDevToolsManagerDelegateD0Ev(%class.ChromeDevToolsManagerDelegate*) unnamed_addr #1 align 2 {
  tail call void @_ZN29ChromeDevToolsManagerDelegateD2Ev(%class.ChromeDevToolsManagerDelegate* %0) #14
  %2 = bitcast %class.ChromeDevToolsManagerDelegate* %0 to i8*
  tail call void @_ZdlPv(i8* %2) #15
  ret void
}

; Function Attrs: nobuiltin nounwind
declare void @_ZdlPv(i8*) local_unnamed_addr #5

; Function Attrs: nounwind ssp uwtable
define hidden void @_ZN29ChromeDevToolsManagerDelegate7InspectEPN7content17DevToolsAgentHostE(%class.ChromeDevToolsManagerDelegate* nocapture readnone, %"class.content::DevToolsAgentHost"*) unnamed_addr #1 align 2 {
  %3 = icmp eq %"class.content::DevToolsAgentHost"* %1, null
  br i1 %3, label %6, label %4

4:                                                ; preds = %2
  %5 = getelementptr inbounds %"class.content::DevToolsAgentHost", %"class.content::DevToolsAgentHost"* %1, i64 0, i32 1, i32 0
  tail call void @_ZNK4base6subtle14RefCountedBase10AddRefImplEv(%"class.base::subtle::RefCountedBase"* %5) #14
  br label %6

6:                                                ; preds = %2, %4
  tail call void @_ZN14DevToolsWindow18OpenDevToolsWindowE13scoped_refptrIN7content17DevToolsAgentHostEEP7Profile(%"class.content::DevToolsAgentHost"* %1, %class.Profile* null) #14
  ret void
}

declare void @_ZN14DevToolsWindow18OpenDevToolsWindowE13scoped_refptrIN7content17DevToolsAgentHostEEP7Profile(%"class.content::DevToolsAgentHost"*, %class.Profile*) local_unnamed_addr #3

; Function Attrs: nounwind ssp uwtable
define hidden void @_ZN29ChromeDevToolsManagerDelegate13HandleCommandEPN7content30DevToolsAgentHostClientChannelEN4base4spanIKhLm18446744073709551615EEENS3_12OnceCallbackIFvS6_EEE(%class.ChromeDevToolsManagerDelegate*, %"class.content::DevToolsAgentHostClientChannel"*, i64, i8*, %"class.base::OnceCallback"* nocapture) unnamed_addr #1 align 2 {
  %6 = alloca %"class.base::span", align 8
  %7 = alloca %"class.base::OnceCallback", align 8
  %8 = alloca %"class.base::OnceCallback", align 8
  %9 = getelementptr inbounds %class.ChromeDevToolsManagerDelegate, %class.ChromeDevToolsManagerDelegate* %0, i64 0, i32 1, i32 0, i32 1, i32 0, i32 0
  %10 = bitcast %"class.std::__1::__tree_end_node"* %9 to %"class.std::__1::__tree_node"**
  %11 = load %"class.std::__1::__tree_node"*, %"class.std::__1::__tree_node"** %10, align 8
  %12 = icmp eq %"class.std::__1::__tree_node"* %11, null
  br i1 %12, label %34, label %13

13:                                               ; preds = %5, %13
  %14 = phi %"class.std::__1::__tree_end_node"* [ %24, %13 ], [ %9, %5 ]
  %15 = phi %"class.std::__1::__tree_node"* [ %25, %13 ], [ %11, %5 ]
  %16 = getelementptr inbounds %"class.std::__1::__tree_node", %"class.std::__1::__tree_node"* %15, i64 0, i32 1, i32 0, i32 0
  %17 = load %"class.content::DevToolsAgentHostClientChannel"*, %"class.content::DevToolsAgentHostClientChannel"** %16, align 8
  %18 = icmp ult %"class.content::DevToolsAgentHostClientChannel"* %17, %1
  %19 = getelementptr inbounds %"class.std::__1::__tree_node", %"class.std::__1::__tree_node"* %15, i64 0, i32 0, i32 1
  %20 = bitcast %"class.std::__1::__tree_node_base"** %19 to %"class.std::__1::__tree_node"**
  %21 = getelementptr inbounds %"class.std::__1::__tree_node", %"class.std::__1::__tree_node"* %15, i64 0, i32 0, i32 0
  %22 = bitcast %"class.std::__1::__tree_node"* %15 to %"class.std::__1::__tree_node"**
  %23 = select i1 %18, %"class.std::__1::__tree_node"** %20, %"class.std::__1::__tree_node"** %22
  %24 = select i1 %18, %"class.std::__1::__tree_end_node"* %14, %"class.std::__1::__tree_end_node"* %21
  %25 = load %"class.std::__1::__tree_node"*, %"class.std::__1::__tree_node"** %23, align 8
  %26 = icmp eq %"class.std::__1::__tree_node"* %25, null
  br i1 %26, label %27, label %13

27:                                               ; preds = %13
  %28 = icmp eq %"class.std::__1::__tree_end_node"* %24, %9
  br i1 %28, label %34, label %29

29:                                               ; preds = %27
  %30 = getelementptr inbounds %"class.std::__1::__tree_end_node", %"class.std::__1::__tree_end_node"* %24, i64 4
  %31 = bitcast %"class.std::__1::__tree_end_node"* %30 to %"class.content::DevToolsAgentHostClientChannel"**
  %32 = load %"class.content::DevToolsAgentHostClientChannel"*, %"class.content::DevToolsAgentHostClientChannel"** %31, align 8
  %33 = icmp ugt %"class.content::DevToolsAgentHostClientChannel"* %32, %1
  br i1 %33, label %34, label %48

34:                                               ; preds = %29, %27, %5
  %35 = bitcast %"class.base::span"* %6 to i8*
  call void @llvm.lifetime.start.p0i8(i64 16, i8* nonnull %35)
  %36 = getelementptr inbounds %"class.base::span", %"class.base::span"* %6, i64 0, i32 0, i32 0
  store i64 %2, i64* %36, align 8
  %37 = getelementptr inbounds %"class.base::span", %"class.base::span"* %6, i64 0, i32 1
  store i8* %3, i8** %37, align 8
  %38 = bitcast %"class.base::OnceCallback"* %7 to i8*
  call void @llvm.lifetime.start.p0i8(i64 8, i8* nonnull %38) #14
  %39 = getelementptr inbounds %"class.base::OnceCallback", %"class.base::OnceCallback"* %4, i64 0, i32 0, i32 0, i32 0
  %40 = bitcast %"class.base::OnceCallback"* %4 to i64*
  %41 = load i64, i64* %40, align 8
  %42 = bitcast %"class.base::OnceCallback"* %7 to i64*
  store i64 %41, i64* %42, align 8
  store %"class.base::internal::BindStateBase"* null, %"class.base::internal::BindStateBase"** %39, align 8
  %43 = getelementptr inbounds %"class.base::OnceCallback", %"class.base::OnceCallback"* %7, i64 0, i32 0
  %44 = inttoptr i64 %41 to %"class.base::internal::BindStateBase"*
  %45 = getelementptr inbounds %"class.base::internal::BindStateBase", %"class.base::internal::BindStateBase"* %44, i64 0, i32 1
  %46 = bitcast void ()** %45 to void (%"class.base::internal::BindStateBase"*, %"class.base::span"*)**
  %47 = load void (%"class.base::internal::BindStateBase"*, %"class.base::span"*)*, void (%"class.base::internal::BindStateBase"*, %"class.base::span"*)** %46, align 8
  call void %47(%"class.base::internal::BindStateBase"* %44, %"class.base::span"* nonnull dereferenceable(16) %6) #14
  call void @_ZN4base8internal12CallbackBaseD2Ev(%"class.base::internal::CallbackBase"* nonnull %43) #14
  call void @llvm.lifetime.end.p0i8(i64 8, i8* nonnull %38) #14
  call void @llvm.lifetime.end.p0i8(i64 16, i8* nonnull %35)
  br label %57

48:                                               ; preds = %29
  %49 = getelementptr inbounds %"class.std::__1::__tree_end_node", %"class.std::__1::__tree_end_node"* %24, i64 5
  %50 = bitcast %"class.std::__1::__tree_end_node"* %49 to %class.ChromeDevToolsSession**
  %51 = load %class.ChromeDevToolsSession*, %class.ChromeDevToolsSession** %50, align 8
  %52 = getelementptr inbounds %"class.base::OnceCallback", %"class.base::OnceCallback"* %4, i64 0, i32 0, i32 0, i32 0
  %53 = bitcast %"class.base::OnceCallback"* %4 to i64*
  %54 = load i64, i64* %53, align 8
  %55 = bitcast %"class.base::OnceCallback"* %8 to i64*
  store i64 %54, i64* %55, align 8
  store %"class.base::internal::BindStateBase"* null, %"class.base::internal::BindStateBase"** %52, align 8
  call void @_ZN21ChromeDevToolsSession13HandleCommandEN4base4spanIKhLm18446744073709551615EEENS0_12OnceCallbackIFvS3_EEE(%class.ChromeDevToolsSession* %51, i64 %2, i8* %3, %"class.base::OnceCallback"* nonnull %8) #14
  %56 = getelementptr inbounds %"class.base::OnceCallback", %"class.base::OnceCallback"* %8, i64 0, i32 0
  call void @_ZN4base8internal12CallbackBaseD2Ev(%"class.base::internal::CallbackBase"* nonnull %56) #14
  br label %57

57:                                               ; preds = %48, %34
  ret void
}

; Function Attrs: argmemonly nounwind
declare void @llvm.memcpy.p0i8.p0i8.i64(i8* nocapture writeonly, i8* nocapture readonly, i64, i1 immarg) #2

declare void @_ZN21ChromeDevToolsSession13HandleCommandEN4base4spanIKhLm18446744073709551615EEENS0_12OnceCallbackIFvS3_EEE(%class.ChromeDevToolsSession*, i64, i8*, %"class.base::OnceCallback"*) local_unnamed_addr #3

; Function Attrs: nounwind ssp uwtable
define hidden void @_ZN29ChromeDevToolsManagerDelegate13GetTargetTypeEPN7content11WebContentsE(%"class.std::__1::basic_string"* noalias sret, %class.ChromeDevToolsManagerDelegate* nocapture readnone, %"class.content::WebContents"*) unnamed_addr #1 align 2 {
  %4 = alloca %"class.AllTabContentsesList::Iterator", align 8
  %5 = alloca %"class.AllTabContentsesList::Iterator", align 8
  %6 = alloca %"class.content::WebContents"*, align 8
  %7 = alloca %"class.std::__1::basic_string", align 8
  %8 = alloca %"class.std::__1::basic_string", align 8
  store %"class.content::WebContents"* %2, %"class.content::WebContents"** %6, align 8
  %9 = tail call dereferenceable(1) %class.AllTabContentsesList* @_Z16AllTabContentsesv() #14
  %10 = bitcast %"class.AllTabContentsesList::Iterator"* %4 to i8*
  call void @llvm.lifetime.start.p0i8(i64 24, i8* nonnull %10) #14
  call void @_ZN4base6ranges4findIRK20AllTabContentsesListPN7content11WebContentsENS_8identityENSt3__120forward_iterator_tagEEEDaOT_RKT0_T1_(%"class.AllTabContentsesList::Iterator"* nonnull sret %4, %class.AllTabContentsesList* dereferenceable(1) %9, %"class.content::WebContents"** nonnull dereferenceable(8) %6) #14
  %11 = bitcast %"class.AllTabContentsesList::Iterator"* %5 to i8*
  call void @llvm.lifetime.start.p0i8(i64 24, i8* nonnull %11) #14
  call void @_ZN20AllTabContentsesList8IteratorC1Eb(%"class.AllTabContentsesList::Iterator"* nonnull %5, i1 zeroext true) #14
  %12 = getelementptr inbounds %"class.AllTabContentsesList::Iterator", %"class.AllTabContentsesList::Iterator"* %4, i64 0, i32 1
  %13 = load %"class.content::WebContents"*, %"class.content::WebContents"** %12, align 8
  %14 = getelementptr inbounds %"class.AllTabContentsesList::Iterator", %"class.AllTabContentsesList::Iterator"* %5, i64 0, i32 1
  %15 = load %"class.content::WebContents"*, %"class.content::WebContents"** %14, align 8
  %16 = icmp eq %"class.content::WebContents"* %13, %15
  call void @_ZN20AllTabContentsesList8IteratorD1Ev(%"class.AllTabContentsesList::Iterator"* nonnull %5) #14
  call void @llvm.lifetime.end.p0i8(i64 24, i8* nonnull %11) #14
  call void @_ZN20AllTabContentsesList8IteratorD1Ev(%"class.AllTabContentsesList::Iterator"* nonnull %4) #14
  call void @llvm.lifetime.end.p0i8(i64 24, i8* nonnull %10) #14
  br i1 %16, label %43, label %17

17:                                               ; preds = %3
  %18 = call i64 @strlen(i8* getelementptr inbounds ([0 x i8], [0 x i8]* @_ZN7content17DevToolsAgentHost9kTypePageE, i64 0, i64 0)) #14
  %19 = icmp ugt i64 %18, -17
  br i1 %19, label %20, label %22

20:                                               ; preds = %17
  %21 = bitcast %"class.std::__1::basic_string"* %0 to %"class.std::__1::__basic_string_common"*
  call void @_ZNKSt3__121__basic_string_commonILb1EE20__throw_length_errorEv(%"class.std::__1::__basic_string_common"* %21) #16
  unreachable

22:                                               ; preds = %17
  %23 = icmp ult i64 %18, 23
  br i1 %23, label %32, label %24

24:                                               ; preds = %22
  %25 = add nuw i64 %18, 16
  %26 = and i64 %25, -16
  %27 = call i8* @_Znwm(i64 %26) #15
  %28 = getelementptr inbounds %"class.std::__1::basic_string", %"class.std::__1::basic_string"* %0, i64 0, i32 0, i32 0, i32 0, i32 0, i32 0, i32 0
  store i8* %27, i8** %28, align 8
  %29 = or i64 %26, -9223372036854775808
  %30 = getelementptr inbounds %"class.std::__1::basic_string", %"class.std::__1::basic_string"* %0, i64 0, i32 0, i32 0, i32 0, i32 0, i32 0, i32 2
  store i64 %29, i64* %30, align 8
  %31 = getelementptr inbounds %"class.std::__1::basic_string", %"class.std::__1::basic_string"* %0, i64 0, i32 0, i32 0, i32 0, i32 0, i32 0, i32 1
  store i64 %18, i64* %31, align 8
  br label %38

32:                                               ; preds = %22
  %33 = trunc i64 %18 to i8
  %34 = bitcast %"class.std::__1::basic_string"* %0 to %"struct.std::__1::basic_string<char, std::__1::char_traits<char>, std::__1::allocator<char> >::__short"*
  %35 = getelementptr inbounds %"struct.std::__1::basic_string<char, std::__1::char_traits<char>, std::__1::allocator<char> >::__short", %"struct.std::__1::basic_string<char, std::__1::char_traits<char>, std::__1::allocator<char> >::__short"* %34, i64 0, i32 1, i32 0
  store i8 %33, i8* %35, align 1
  %36 = bitcast %"class.std::__1::basic_string"* %0 to i8*
  %37 = icmp eq i64 %18, 0
  br i1 %37, label %40, label %38

38:                                               ; preds = %32, %24
  %39 = phi i8* [ %27, %24 ], [ %36, %32 ]
  call void @llvm.memcpy.p0i8.p0i8.i64(i8* align 1 %39, i8* align 1 getelementptr inbounds ([0 x i8], [0 x i8]* @_ZN7content17DevToolsAgentHost9kTypePageE, i64 0, i64 0), i64 %18, i1 false) #14
  br label %40

40:                                               ; preds = %32, %38
  %41 = phi i8* [ %36, %32 ], [ %39, %38 ]
  %42 = getelementptr inbounds i8, i8* %41, i64 %18
  store i8 0, i8* %42, align 1
  br label %92

43:                                               ; preds = %3
  %44 = bitcast %"class.std::__1::basic_string"* %7 to i8*
  call void @llvm.lifetime.start.p0i8(i64 24, i8* nonnull %44) #14
  %45 = getelementptr inbounds %"class.std::__1::basic_string", %"class.std::__1::basic_string"* %7, i64 0, i32 0, i32 0, i32 0, i32 0, i32 0, i32 0
  call void @llvm.memset.p0i8.i64(i8* nonnull align 8 %44, i8 0, i64 24, i1 false) #14
  %46 = bitcast %"class.std::__1::basic_string"* %8 to i8*
  call void @llvm.lifetime.start.p0i8(i64 24, i8* nonnull %46) #14
  %47 = getelementptr inbounds %"class.std::__1::basic_string", %"class.std::__1::basic_string"* %8, i64 0, i32 0, i32 0, i32 0, i32 0, i32 0, i32 0
  call void @llvm.memset.p0i8.i64(i8* nonnull align 8 %46, i8 0, i64 24, i1 false) #14
  %48 = load %"class.content::WebContents"*, %"class.content::WebContents"** %6, align 8
  %49 = call fastcc zeroext i1 @_ZN12_GLOBAL__N_116GetExtensionInfoEPN7content11WebContentsEPNSt3__112basic_stringIcNS3_11char_traitsIcEENS3_9allocatorIcEEEESA_(%"class.content::WebContents"* %48, %"class.std::__1::basic_string"* nonnull %7, %"class.std::__1::basic_string"* nonnull %8)
  br i1 %49, label %73, label %50

50:                                               ; preds = %43
  %51 = call i64 @strlen(i8* getelementptr inbounds ([0 x i8], [0 x i8]* @_ZN7content17DevToolsAgentHost10kTypeOtherE, i64 0, i64 0)) #14
  %52 = icmp ugt i64 %51, -17
  br i1 %52, label %53, label %55

53:                                               ; preds = %50
  %54 = bitcast %"class.std::__1::basic_string"* %0 to %"class.std::__1::__basic_string_common"*
  call void @_ZNKSt3__121__basic_string_commonILb1EE20__throw_length_errorEv(%"class.std::__1::__basic_string_common"* %54) #16
  unreachable

55:                                               ; preds = %50
  %56 = icmp ult i64 %51, 23
  br i1 %56, label %65, label %57

57:                                               ; preds = %55
  %58 = add nuw i64 %51, 16
  %59 = and i64 %58, -16
  %60 = call i8* @_Znwm(i64 %59) #15
  %61 = getelementptr inbounds %"class.std::__1::basic_string", %"class.std::__1::basic_string"* %0, i64 0, i32 0, i32 0, i32 0, i32 0, i32 0, i32 0
  store i8* %60, i8** %61, align 8
  %62 = or i64 %59, -9223372036854775808
  %63 = getelementptr inbounds %"class.std::__1::basic_string", %"class.std::__1::basic_string"* %0, i64 0, i32 0, i32 0, i32 0, i32 0, i32 0, i32 2
  store i64 %62, i64* %63, align 8
  %64 = getelementptr inbounds %"class.std::__1::basic_string", %"class.std::__1::basic_string"* %0, i64 0, i32 0, i32 0, i32 0, i32 0, i32 0, i32 1
  store i64 %51, i64* %64, align 8
  br label %71

65:                                               ; preds = %55
  %66 = trunc i64 %51 to i8
  %67 = bitcast %"class.std::__1::basic_string"* %0 to %"struct.std::__1::basic_string<char, std::__1::char_traits<char>, std::__1::allocator<char> >::__short"*
  %68 = getelementptr inbounds %"struct.std::__1::basic_string<char, std::__1::char_traits<char>, std::__1::allocator<char> >::__short", %"struct.std::__1::basic_string<char, std::__1::char_traits<char>, std::__1::allocator<char> >::__short"* %67, i64 0, i32 1, i32 0
  store i8 %66, i8* %68, align 1
  %69 = bitcast %"class.std::__1::basic_string"* %0 to i8*
  %70 = icmp eq i64 %51, 0
  br i1 %70, label %75, label %71

71:                                               ; preds = %65, %57
  %72 = phi i8* [ %60, %57 ], [ %69, %65 ]
  call void @llvm.memcpy.p0i8.p0i8.i64(i8* align 1 %72, i8* align 1 getelementptr inbounds ([0 x i8], [0 x i8]* @_ZN7content17DevToolsAgentHost10kTypeOtherE, i64 0, i64 0), i64 %51, i1 false) #14
  br label %75

73:                                               ; preds = %43
  %74 = bitcast %"class.std::__1::basic_string"* %0 to i8*
  call void @llvm.memcpy.p0i8.p0i8.i64(i8* align 8 %74, i8* nonnull align 8 %46, i64 24, i1 false) #14
  call void @llvm.memset.p0i8.i64(i8* nonnull align 8 %46, i8 0, i64 24, i1 false) #14
  br label %84

75:                                               ; preds = %71, %65
  %76 = phi i8* [ %69, %65 ], [ %72, %71 ]
  %77 = getelementptr inbounds i8, i8* %76, i64 %51
  store i8 0, i8* %77, align 1
  %78 = bitcast %"class.std::__1::basic_string"* %8 to %"struct.std::__1::basic_string<char, std::__1::char_traits<char>, std::__1::allocator<char> >::__short"*
  %79 = getelementptr inbounds %"struct.std::__1::basic_string<char, std::__1::char_traits<char>, std::__1::allocator<char> >::__short", %"struct.std::__1::basic_string<char, std::__1::char_traits<char>, std::__1::allocator<char> >::__short"* %78, i64 0, i32 1, i32 0
  %80 = load i8, i8* %79, align 1
  %81 = icmp slt i8 %80, 0
  br i1 %81, label %82, label %84

82:                                               ; preds = %75
  %83 = load i8*, i8** %47, align 8
  call void @_ZdlPv(i8* %83) #15
  br label %84

84:                                               ; preds = %73, %75, %82
  call void @llvm.lifetime.end.p0i8(i64 24, i8* nonnull %46) #14
  %85 = bitcast %"class.std::__1::basic_string"* %7 to %"struct.std::__1::basic_string<char, std::__1::char_traits<char>, std::__1::allocator<char> >::__short"*
  %86 = getelementptr inbounds %"struct.std::__1::basic_string<char, std::__1::char_traits<char>, std::__1::allocator<char> >::__short", %"struct.std::__1::basic_string<char, std::__1::char_traits<char>, std::__1::allocator<char> >::__short"* %85, i64 0, i32 1, i32 0
  %87 = load i8, i8* %86, align 1
  %88 = icmp slt i8 %87, 0
  br i1 %88, label %89, label %91

89:                                               ; preds = %84
  %90 = load i8*, i8** %45, align 8
  call void @_ZdlPv(i8* %90) #15
  br label %91

91:                                               ; preds = %84, %89
  call void @llvm.lifetime.end.p0i8(i64 24, i8* nonnull %44) #14
  br label %92

92:                                               ; preds = %91, %40
  ret void
}

declare dereferenceable(1) %class.AllTabContentsesList* @_Z16AllTabContentsesv() local_unnamed_addr #3

; Function Attrs: nounwind ssp uwtable
define internal fastcc zeroext i1 @_ZN12_GLOBAL__N_116GetExtensionInfoEPN7content11WebContentsEPNSt3__112basic_stringIcNS3_11char_traitsIcEENS3_9allocatorIcEEEESA_(%"class.content::WebContents"*, %"class.std::__1::basic_string"*, %"class.std::__1::basic_string"*) unnamed_addr #1 {
  %4 = bitcast %"class.content::WebContents"* %0 to %"class.content::BrowserContext"* (%"class.content::WebContents"*)***
  %5 = load %"class.content::BrowserContext"* (%"class.content::WebContents"*)**, %"class.content::BrowserContext"* (%"class.content::WebContents"*)*** %4, align 8
  %6 = getelementptr inbounds %"class.content::BrowserContext"* (%"class.content::WebContents"*)*, %"class.content::BrowserContext"* (%"class.content::WebContents"*)** %5, i64 6
  %7 = load %"class.content::BrowserContext"* (%"class.content::WebContents"*)*, %"class.content::BrowserContext"* (%"class.content::WebContents"*)** %6, align 8
  %8 = tail call %"class.content::BrowserContext"* %7(%"class.content::WebContents"* %0) #14
  %9 = tail call %class.Profile* @_ZN7Profile18FromBrowserContextEPN7content14BrowserContextE(%"class.content::BrowserContext"* %8) #14
  %10 = icmp eq %class.Profile* %9, null
  br i1 %10, label %123, label %11

11:                                               ; preds = %3
  %12 = getelementptr inbounds %class.Profile, %class.Profile* %9, i64 0, i32 0
  %13 = tail call %"class.extensions::ProcessManager"* @_ZN10extensions14ProcessManager3GetEPN7content14BrowserContextE(%"class.content::BrowserContext"* %12) #14
  %14 = tail call %"class.extensions::Extension"* @_ZN10extensions14ProcessManager26GetExtensionForWebContentsEPN7content11WebContentsE(%"class.extensions::ProcessManager"* %13, %"class.content::WebContents"* %0) #14
  %15 = icmp eq %"class.extensions::Extension"* %14, null
  br i1 %15, label %123, label %16

16:                                               ; preds = %11
  %17 = tail call %"class.extensions::ProcessManager"* @_ZN10extensions14ProcessManager3GetEPN7content14BrowserContextE(%"class.content::BrowserContext"* %12) #14
  %18 = tail call dereferenceable(24) %"class.std::__1::basic_string"* @_ZNK10extensions9Extension2idEv(%"class.extensions::Extension"* nonnull %14) #14
  %19 = tail call %"class.extensions::ExtensionHost"* @_ZN10extensions14ProcessManager29GetBackgroundHostForExtensionERKNSt3__112basic_stringIcNS1_11char_traitsIcEENS1_9allocatorIcEEEE(%"class.extensions::ProcessManager"* %17, %"class.std::__1::basic_string"* dereferenceable(24) %18) #14
  %20 = icmp eq %"class.extensions::ExtensionHost"* %19, null
  br i1 %20, label %71, label %21

21:                                               ; preds = %16
  %22 = getelementptr inbounds %"class.extensions::ExtensionHost", %"class.extensions::ExtensionHost"* %19, i64 0, i32 9, i32 0, i32 0, i32 0
  %23 = load %"class.content::WebContents"*, %"class.content::WebContents"** %22, align 8
  %24 = icmp eq %"class.content::WebContents"* %23, %0
  br i1 %24, label %25, label %71

25:                                               ; preds = %21
  %26 = getelementptr inbounds %"class.extensions::Extension", %"class.extensions::Extension"* %14, i64 0, i32 1
  %27 = icmp eq %"class.std::__1::basic_string"* %26, %1
  br i1 %27, label %57, label %28

28:                                               ; preds = %25
  %29 = bitcast %"class.std::__1::basic_string"* %1 to %"struct.std::__1::basic_string<char, std::__1::char_traits<char>, std::__1::allocator<char> >::__short"*
  %30 = getelementptr inbounds %"struct.std::__1::basic_string<char, std::__1::char_traits<char>, std::__1::allocator<char> >::__short", %"struct.std::__1::basic_string<char, std::__1::char_traits<char>, std::__1::allocator<char> >::__short"* %29, i64 0, i32 1, i32 0
  %31 = load i8, i8* %30, align 1
  %32 = icmp slt i8 %31, 0
  %33 = bitcast %"class.std::__1::basic_string"* %26 to %"struct.std::__1::basic_string<char, std::__1::char_traits<char>, std::__1::allocator<char> >::__short"*
  %34 = getelementptr inbounds %"struct.std::__1::basic_string<char, std::__1::char_traits<char>, std::__1::allocator<char> >::__short", %"struct.std::__1::basic_string<char, std::__1::char_traits<char>, std::__1::allocator<char> >::__short"* %33, i64 0, i32 1, i32 0
  %35 = load i8, i8* %34, align 1
  %36 = icmp slt i8 %35, 0
  br i1 %32, label %47, label %37

37:                                               ; preds = %28
  br i1 %36, label %41, label %38

38:                                               ; preds = %37
  %39 = bitcast %"class.std::__1::basic_string"* %1 to i8*
  %40 = bitcast %"class.std::__1::basic_string"* %26 to i8*
  tail call void @llvm.memcpy.p0i8.p0i8.i64(i8* align 8 %39, i8* align 8 %40, i64 24, i1 false) #14
  br label %57

41:                                               ; preds = %37
  %42 = getelementptr inbounds %"class.std::__1::basic_string", %"class.std::__1::basic_string"* %26, i64 0, i32 0, i32 0, i32 0, i32 0, i32 0, i32 0
  %43 = load i8*, i8** %42, align 8
  %44 = getelementptr inbounds %"class.extensions::Extension", %"class.extensions::Extension"* %14, i64 0, i32 1, i32 0, i32 0, i32 0, i32 0, i32 0, i32 1
  %45 = load i64, i64* %44, align 8
  %46 = tail call dereferenceable(24) %"class.std::__1::basic_string"* @_ZNSt3__112basic_stringIcNS_11char_traitsIcEENS_9allocatorIcEEE17__assign_no_aliasILb1EEERS5_PKcm(%"class.std::__1::basic_string"* %1, i8* %43, i64 %45) #14
  br label %57

47:                                               ; preds = %28
  %48 = getelementptr inbounds %"class.std::__1::basic_string", %"class.std::__1::basic_string"* %26, i64 0, i32 0, i32 0, i32 0, i32 0, i32 0, i32 0
  %49 = load i8*, i8** %48, align 8
  %50 = getelementptr inbounds %"class.extensions::Extension", %"class.extensions::Extension"* %14, i64 0, i32 1, i32 0, i32 0, i32 0, i32 0, i32 0, i32 1
  %51 = load i64, i64* %50, align 8
  %52 = bitcast %"class.std::__1::basic_string"* %26 to i8*
  %53 = zext i8 %35 to i64
  %54 = select i1 %36, i8* %49, i8* %52
  %55 = select i1 %36, i64 %51, i64 %53
  %56 = tail call dereferenceable(24) %"class.std::__1::basic_string"* @_ZNSt3__112basic_stringIcNS_11char_traitsIcEENS_9allocatorIcEEE17__assign_no_aliasILb0EEERS5_PKcm(%"class.std::__1::basic_string"* %1, i8* %54, i64 %55) #14
  br label %57

57:                                               ; preds = %47, %41, %38, %25
  %58 = bitcast %"class.std::__1::basic_string"* %2 to %"struct.std::__1::basic_string<char, std::__1::char_traits<char>, std::__1::allocator<char> >::__short"*
  %59 = getelementptr inbounds %"struct.std::__1::basic_string<char, std::__1::char_traits<char>, std::__1::allocator<char> >::__short", %"struct.std::__1::basic_string<char, std::__1::char_traits<char>, std::__1::allocator<char> >::__short"* %58, i64 0, i32 1, i32 0
  %60 = load i8, i8* %59, align 1
  %61 = icmp slt i8 %60, 0
  br i1 %61, label %62, label %66

62:                                               ; preds = %57
  %63 = getelementptr inbounds %"class.std::__1::basic_string", %"class.std::__1::basic_string"* %2, i64 0, i32 0, i32 0, i32 0, i32 0, i32 0, i32 1
  store i64 15, i64* %63, align 8
  %64 = getelementptr inbounds %"class.std::__1::basic_string", %"class.std::__1::basic_string"* %2, i64 0, i32 0, i32 0, i32 0, i32 0, i32 0, i32 0
  %65 = load i8*, i8** %64, align 8
  br label %68

66:                                               ; preds = %57
  store i8 15, i8* %59, align 1
  %67 = bitcast %"class.std::__1::basic_string"* %2 to i8*
  br label %68

68:                                               ; preds = %62, %66
  %69 = phi i8* [ %65, %62 ], [ %67, %66 ]
  tail call void @llvm.memcpy.p0i8.p0i8.i64(i8* align 1 %69, i8* align 16 getelementptr inbounds ([16 x i8], [16 x i8]* @_ZN29ChromeDevToolsManagerDelegate19kTypeBackgroundPageE, i64 0, i64 0), i64 15, i1 false) #14
  %70 = getelementptr inbounds i8, i8* %69, i64 15
  store i8 0, i8* %70, align 1
  br label %123

71:                                               ; preds = %16, %21
  %72 = tail call zeroext i1 @_ZNK10extensions9Extension13is_hosted_appEv(%"class.extensions::Extension"* nonnull %14) #14
  br i1 %72, label %77, label %73

73:                                               ; preds = %71
  %74 = tail call zeroext i1 @_ZNK10extensions9Extension22is_legacy_packaged_appEv(%"class.extensions::Extension"* nonnull %14) #14
  br i1 %74, label %77, label %75

75:                                               ; preds = %73
  %76 = tail call zeroext i1 @_ZNK10extensions9Extension15is_platform_appEv(%"class.extensions::Extension"* nonnull %14) #14
  br i1 %76, label %77, label %123

77:                                               ; preds = %75, %73, %71
  %78 = getelementptr inbounds %"class.extensions::Extension", %"class.extensions::Extension"* %14, i64 0, i32 1
  %79 = icmp eq %"class.std::__1::basic_string"* %78, %1
  br i1 %79, label %109, label %80

80:                                               ; preds = %77
  %81 = bitcast %"class.std::__1::basic_string"* %1 to %"struct.std::__1::basic_string<char, std::__1::char_traits<char>, std::__1::allocator<char> >::__short"*
  %82 = getelementptr inbounds %"struct.std::__1::basic_string<char, std::__1::char_traits<char>, std::__1::allocator<char> >::__short", %"struct.std::__1::basic_string<char, std::__1::char_traits<char>, std::__1::allocator<char> >::__short"* %81, i64 0, i32 1, i32 0
  %83 = load i8, i8* %82, align 1
  %84 = icmp slt i8 %83, 0
  %85 = bitcast %"class.std::__1::basic_string"* %78 to %"struct.std::__1::basic_string<char, std::__1::char_traits<char>, std::__1::allocator<char> >::__short"*
  %86 = getelementptr inbounds %"struct.std::__1::basic_string<char, std::__1::char_traits<char>, std::__1::allocator<char> >::__short", %"struct.std::__1::basic_string<char, std::__1::char_traits<char>, std::__1::allocator<char> >::__short"* %85, i64 0, i32 1, i32 0
  %87 = load i8, i8* %86, align 1
  %88 = icmp slt i8 %87, 0
  br i1 %84, label %99, label %89

89:                                               ; preds = %80
  br i1 %88, label %93, label %90

90:                                               ; preds = %89
  %91 = bitcast %"class.std::__1::basic_string"* %1 to i8*
  %92 = bitcast %"class.std::__1::basic_string"* %78 to i8*
  tail call void @llvm.memcpy.p0i8.p0i8.i64(i8* align 8 %91, i8* align 8 %92, i64 24, i1 false) #14
  br label %109

93:                                               ; preds = %89
  %94 = getelementptr inbounds %"class.std::__1::basic_string", %"class.std::__1::basic_string"* %78, i64 0, i32 0, i32 0, i32 0, i32 0, i32 0, i32 0
  %95 = load i8*, i8** %94, align 8
  %96 = getelementptr inbounds %"class.extensions::Extension", %"class.extensions::Extension"* %14, i64 0, i32 1, i32 0, i32 0, i32 0, i32 0, i32 0, i32 1
  %97 = load i64, i64* %96, align 8
  %98 = tail call dereferenceable(24) %"class.std::__1::basic_string"* @_ZNSt3__112basic_stringIcNS_11char_traitsIcEENS_9allocatorIcEEE17__assign_no_aliasILb1EEERS5_PKcm(%"class.std::__1::basic_string"* %1, i8* %95, i64 %97) #14
  br label %109

99:                                               ; preds = %80
  %100 = getelementptr inbounds %"class.std::__1::basic_string", %"class.std::__1::basic_string"* %78, i64 0, i32 0, i32 0, i32 0, i32 0, i32 0, i32 0
  %101 = load i8*, i8** %100, align 8
  %102 = getelementptr inbounds %"class.extensions::Extension", %"class.extensions::Extension"* %14, i64 0, i32 1, i32 0, i32 0, i32 0, i32 0, i32 0, i32 1
  %103 = load i64, i64* %102, align 8
  %104 = bitcast %"class.std::__1::basic_string"* %78 to i8*
  %105 = zext i8 %87 to i64
  %106 = select i1 %88, i8* %101, i8* %104
  %107 = select i1 %88, i64 %103, i64 %105
  %108 = tail call dereferenceable(24) %"class.std::__1::basic_string"* @_ZNSt3__112basic_stringIcNS_11char_traitsIcEENS_9allocatorIcEEE17__assign_no_aliasILb0EEERS5_PKcm(%"class.std::__1::basic_string"* %1, i8* %106, i64 %107) #14
  br label %109

109:                                              ; preds = %99, %93, %90, %77
  %110 = bitcast %"class.std::__1::basic_string"* %2 to %"struct.std::__1::basic_string<char, std::__1::char_traits<char>, std::__1::allocator<char> >::__short"*
  %111 = getelementptr inbounds %"struct.std::__1::basic_string<char, std::__1::char_traits<char>, std::__1::allocator<char> >::__short", %"struct.std::__1::basic_string<char, std::__1::char_traits<char>, std::__1::allocator<char> >::__short"* %110, i64 0, i32 1, i32 0
  %112 = load i8, i8* %111, align 1
  %113 = icmp slt i8 %112, 0
  br i1 %113, label %114, label %118

114:                                              ; preds = %109
  %115 = getelementptr inbounds %"class.std::__1::basic_string", %"class.std::__1::basic_string"* %2, i64 0, i32 0, i32 0, i32 0, i32 0, i32 0, i32 1
  store i64 3, i64* %115, align 8
  %116 = getelementptr inbounds %"class.std::__1::basic_string", %"class.std::__1::basic_string"* %2, i64 0, i32 0, i32 0, i32 0, i32 0, i32 0, i32 0
  %117 = load i8*, i8** %116, align 8
  br label %120

118:                                              ; preds = %109
  store i8 3, i8* %111, align 1
  %119 = bitcast %"class.std::__1::basic_string"* %2 to i8*
  br label %120

120:                                              ; preds = %114, %118
  %121 = phi i8* [ %117, %114 ], [ %119, %118 ]
  tail call void @llvm.memcpy.p0i8.p0i8.i64(i8* align 1 %121, i8* align 1 getelementptr inbounds ([4 x i8], [4 x i8]* @_ZN29ChromeDevToolsManagerDelegate8kTypeAppE, i64 0, i64 0), i64 3, i1 false) #14
  %122 = getelementptr inbounds i8, i8* %121, i64 3
  store i8 0, i8* %122, align 1
  br label %123

123:                                              ; preds = %120, %68, %11, %75, %3
  %124 = phi i1 [ false, %3 ], [ false, %11 ], [ false, %75 ], [ true, %68 ], [ true, %120 ]
  ret i1 %124
}

; Function Attrs: nounwind ssp uwtable
define hidden void @_ZN29ChromeDevToolsManagerDelegate14GetTargetTitleEPN7content11WebContentsE(%"class.std::__1::basic_string"* noalias nocapture sret, %class.ChromeDevToolsManagerDelegate* nocapture readnone, %"class.content::WebContents"*) unnamed_addr #1 align 2 {
  %4 = alloca %"class.std::__1::basic_string", align 8
  %5 = alloca %"class.std::__1::basic_string", align 8
  %6 = bitcast %"class.std::__1::basic_string"* %4 to i8*
  call void @llvm.lifetime.start.p0i8(i64 24, i8* nonnull %6) #14
  %7 = getelementptr inbounds %"class.std::__1::basic_string", %"class.std::__1::basic_string"* %4, i64 0, i32 0, i32 0, i32 0, i32 0, i32 0, i32 0
  call void @llvm.memset.p0i8.i64(i8* nonnull align 8 %6, i8 0, i64 24, i1 false) #14
  %8 = bitcast %"class.std::__1::basic_string"* %5 to i8*
  call void @llvm.lifetime.start.p0i8(i64 24, i8* nonnull %8) #14
  %9 = getelementptr inbounds %"class.std::__1::basic_string", %"class.std::__1::basic_string"* %5, i64 0, i32 0, i32 0, i32 0, i32 0, i32 0, i32 0
  call void @llvm.memset.p0i8.i64(i8* nonnull align 8 %8, i8 0, i64 24, i1 false) #14
  %10 = call fastcc zeroext i1 @_ZN12_GLOBAL__N_116GetExtensionInfoEPN7content11WebContentsEPNSt3__112basic_stringIcNS3_11char_traitsIcEENS3_9allocatorIcEEEESA_(%"class.content::WebContents"* %2, %"class.std::__1::basic_string"* nonnull %4, %"class.std::__1::basic_string"* nonnull %5)
  %11 = bitcast %"class.std::__1::basic_string"* %0 to i8*
  br i1 %10, label %13, label %12

12:                                               ; preds = %3
  call void @llvm.memset.p0i8.i64(i8* align 8 %11, i8 0, i64 24, i1 false) #14
  br label %14

13:                                               ; preds = %3
  call void @llvm.memcpy.p0i8.p0i8.i64(i8* align 8 %11, i8* nonnull align 8 %6, i64 24, i1 false) #14
  call void @llvm.memset.p0i8.i64(i8* nonnull align 8 %6, i8 0, i64 24, i1 false) #14
  br label %14

14:                                               ; preds = %13, %12
  %15 = bitcast %"class.std::__1::basic_string"* %5 to %"struct.std::__1::basic_string<char, std::__1::char_traits<char>, std::__1::allocator<char> >::__short"*
  %16 = getelementptr inbounds %"struct.std::__1::basic_string<char, std::__1::char_traits<char>, std::__1::allocator<char> >::__short", %"struct.std::__1::basic_string<char, std::__1::char_traits<char>, std::__1::allocator<char> >::__short"* %15, i64 0, i32 1, i32 0
  %17 = load i8, i8* %16, align 1
  %18 = icmp slt i8 %17, 0
  br i1 %18, label %19, label %21

19:                                               ; preds = %14
  %20 = load i8*, i8** %9, align 8
  call void @_ZdlPv(i8* %20) #15
  br label %21

21:                                               ; preds = %14, %19
  call void @llvm.lifetime.end.p0i8(i64 24, i8* nonnull %8) #14
  %22 = bitcast %"class.std::__1::basic_string"* %4 to %"struct.std::__1::basic_string<char, std::__1::char_traits<char>, std::__1::allocator<char> >::__short"*
  %23 = getelementptr inbounds %"struct.std::__1::basic_string<char, std::__1::char_traits<char>, std::__1::allocator<char> >::__short", %"struct.std::__1::basic_string<char, std::__1::char_traits<char>, std::__1::allocator<char> >::__short"* %22, i64 0, i32 1, i32 0
  %24 = load i8, i8* %23, align 1
  %25 = icmp slt i8 %24, 0
  br i1 %25, label %26, label %28

26:                                               ; preds = %21
  %27 = load i8*, i8** %7, align 8
  call void @_ZdlPv(i8* %27) #15
  br label %28

28:                                               ; preds = %21, %26
  call void @llvm.lifetime.end.p0i8(i64 24, i8* nonnull %6) #14
  ret void
}

; Function Attrs: nounwind ssp uwtable
define hidden zeroext i1 @_ZN29ChromeDevToolsManagerDelegate30AllowInspectingRenderFrameHostEPN7content15RenderFrameHostE(%class.ChromeDevToolsManagerDelegate* nocapture readnone, %"class.content::RenderFrameHost"*) unnamed_addr #1 align 2 {
  %3 = bitcast %"class.content::RenderFrameHost"* %1 to %"class.content::RenderProcessHost"* (%"class.content::RenderFrameHost"*)***
  %4 = load %"class.content::RenderProcessHost"* (%"class.content::RenderFrameHost"*)**, %"class.content::RenderProcessHost"* (%"class.content::RenderFrameHost"*)*** %3, align 8
  %5 = getelementptr inbounds %"class.content::RenderProcessHost"* (%"class.content::RenderFrameHost"*)*, %"class.content::RenderProcessHost"* (%"class.content::RenderFrameHost"*)** %4, i64 14
  %6 = load %"class.content::RenderProcessHost"* (%"class.content::RenderFrameHost"*)*, %"class.content::RenderProcessHost"* (%"class.content::RenderFrameHost"*)** %5, align 8
  %7 = tail call %"class.content::RenderProcessHost"* %6(%"class.content::RenderFrameHost"* %1) #14
  %8 = bitcast %"class.content::RenderProcessHost"* %7 to %"class.content::BrowserContext"* (%"class.content::RenderProcessHost"*)***
  %9 = load %"class.content::BrowserContext"* (%"class.content::RenderProcessHost"*)**, %"class.content::BrowserContext"* (%"class.content::RenderProcessHost"*)*** %8, align 8
  %10 = getelementptr inbounds %"class.content::BrowserContext"* (%"class.content::RenderProcessHost"*)*, %"class.content::BrowserContext"* (%"class.content::RenderProcessHost"*)** %9, i64 27
  %11 = load %"class.content::BrowserContext"* (%"class.content::RenderProcessHost"*)*, %"class.content::BrowserContext"* (%"class.content::RenderProcessHost"*)** %10, align 8
  %12 = tail call %"class.content::BrowserContext"* %11(%"class.content::RenderProcessHost"* %7) #14
  %13 = tail call %class.Profile* @_ZN7Profile18FromBrowserContextEPN7content14BrowserContextE(%"class.content::BrowserContext"* %12) #14
  %14 = getelementptr inbounds %class.Profile, %class.Profile* %13, i64 0, i32 0
  %15 = tail call %"class.extensions::ProcessManager"* @_ZN10extensions14ProcessManager3GetEPN7content14BrowserContextE(%"class.content::BrowserContext"* %14) #14
  %16 = tail call %"class.extensions::Extension"* @_ZN10extensions14ProcessManager30GetExtensionForRenderFrameHostEPN7content15RenderFrameHostE(%"class.extensions::ProcessManager"* %15, %"class.content::RenderFrameHost"* %1) #14
  %17 = bitcast %class.Profile* %13 to %class.PrefService* (%class.Profile*)***
  %18 = load %class.PrefService* (%class.Profile*)**, %class.PrefService* (%class.Profile*)*** %17, align 8
  %19 = getelementptr inbounds %class.PrefService* (%class.Profile*)*, %class.PrefService* (%class.Profile*)** %18, i64 46
  %20 = load %class.PrefService* (%class.Profile*)*, %class.PrefService* (%class.Profile*)** %19, align 8
  %21 = tail call %class.PrefService* %20(%class.Profile* %13) #14
  %22 = tail call i32 @_ZN6policy27DeveloperToolsPolicyHandler23GetDevToolsAvailabilityEPK11PrefService(%class.PrefService* %21) #14
  switch i32 %22, label %31 [
    i32 2, label %32
    i32 1, label %23
    i32 0, label %24
  ]

23:                                               ; preds = %2
  br label %32

24:                                               ; preds = %2
  %25 = icmp eq %"class.extensions::Extension"* %16, null
  br i1 %25, label %32, label %26

26:                                               ; preds = %24
  %27 = tail call i32 @_ZNK10extensions9Extension8locationEv(%"class.extensions::Extension"* nonnull %16) #14
  %28 = icmp ne i32 %27, 9
  %29 = icmp ne i32 %27, 7
  %30 = and i1 %28, %29
  br label %32

31:                                               ; preds = %2
  br label %32

32:                                               ; preds = %2, %23, %24, %26, %31
  %33 = phi i1 [ true, %31 ], [ true, %23 ], [ false, %2 ], [ true, %24 ], [ %30, %26 ]
  ret i1 %33
}

declare %class.Profile* @_ZN7Profile18FromBrowserContextEPN7content14BrowserContextE(%"class.content::BrowserContext"*) local_unnamed_addr #3

; Function Attrs: nounwind ssp uwtable
define hidden zeroext i1 @_ZN29ChromeDevToolsManagerDelegate15AllowInspectionEP7ProfilePKN10extensions9ExtensionE(%class.Profile*, %"class.extensions::Extension"*) local_unnamed_addr #1 align 2 {
  %3 = bitcast %class.Profile* %0 to %class.PrefService* (%class.Profile*)***
  %4 = load %class.PrefService* (%class.Profile*)**, %class.PrefService* (%class.Profile*)*** %3, align 8
  %5 = getelementptr inbounds %class.PrefService* (%class.Profile*)*, %class.PrefService* (%class.Profile*)** %4, i64 46
  %6 = load %class.PrefService* (%class.Profile*)*, %class.PrefService* (%class.Profile*)** %5, align 8
  %7 = tail call %class.PrefService* %6(%class.Profile* %0) #14
  %8 = tail call i32 @_ZN6policy27DeveloperToolsPolicyHandler23GetDevToolsAvailabilityEPK11PrefService(%class.PrefService* %7) #14
  switch i32 %8, label %17 [
    i32 2, label %18
    i32 1, label %9
    i32 0, label %10
  ]

9:                                                ; preds = %2
  br label %18

10:                                               ; preds = %2
  %11 = icmp eq %"class.extensions::Extension"* %1, null
  br i1 %11, label %18, label %12

12:                                               ; preds = %10
  %13 = tail call i32 @_ZNK10extensions9Extension8locationEv(%"class.extensions::Extension"* nonnull %1) #14
  %14 = icmp ne i32 %13, 9
  %15 = icmp ne i32 %13, 7
  %16 = and i1 %14, %15
  br label %18

17:                                               ; preds = %2
  br label %18

18:                                               ; preds = %12, %10, %2, %17, %9
  %19 = phi i1 [ true, %17 ], [ true, %9 ], [ false, %2 ], [ true, %10 ], [ %16, %12 ]
  ret i1 %19
}

declare %"class.extensions::ProcessManager"* @_ZN10extensions14ProcessManager3GetEPN7content14BrowserContextE(%"class.content::BrowserContext"*) local_unnamed_addr #3

declare %"class.extensions::Extension"* @_ZN10extensions14ProcessManager30GetExtensionForRenderFrameHostEPN7content15RenderFrameHostE(%"class.extensions::ProcessManager"*, %"class.content::RenderFrameHost"*) local_unnamed_addr #3

; Function Attrs: nounwind ssp uwtable
define hidden zeroext i1 @_ZN29ChromeDevToolsManagerDelegate15AllowInspectionEP7ProfilePN7content11WebContentsE(%class.Profile*, %"class.content::WebContents"*) local_unnamed_addr #1 align 2 {
  %3 = icmp eq %"class.content::WebContents"* %1, null
  br i1 %3, label %14, label %4

4:                                                ; preds = %2
  %5 = bitcast %"class.content::WebContents"* %1 to %"class.content::BrowserContext"* (%"class.content::WebContents"*)***
  %6 = load %"class.content::BrowserContext"* (%"class.content::WebContents"*)**, %"class.content::BrowserContext"* (%"class.content::WebContents"*)*** %5, align 8
  %7 = getelementptr inbounds %"class.content::BrowserContext"* (%"class.content::WebContents"*)*, %"class.content::BrowserContext"* (%"class.content::WebContents"*)** %6, i64 6
  %8 = load %"class.content::BrowserContext"* (%"class.content::WebContents"*)*, %"class.content::BrowserContext"* (%"class.content::WebContents"*)** %7, align 8
  %9 = tail call %"class.content::BrowserContext"* %8(%"class.content::WebContents"* nonnull %1) #14
  %10 = tail call %class.Profile* @_ZN7Profile18FromBrowserContextEPN7content14BrowserContextE(%"class.content::BrowserContext"* %9) #14
  %11 = getelementptr inbounds %class.Profile, %class.Profile* %10, i64 0, i32 0
  %12 = tail call %"class.extensions::ProcessManager"* @_ZN10extensions14ProcessManager3GetEPN7content14BrowserContextE(%"class.content::BrowserContext"* %11) #14
  %13 = tail call %"class.extensions::Extension"* @_ZN10extensions14ProcessManager26GetExtensionForWebContentsEPN7content11WebContentsE(%"class.extensions::ProcessManager"* %12, %"class.content::WebContents"* nonnull %1) #14
  br label %14

14:                                               ; preds = %2, %4
  %15 = phi %"class.extensions::Extension"* [ %13, %4 ], [ null, %2 ]
  %16 = bitcast %class.Profile* %0 to %class.PrefService* (%class.Profile*)***
  %17 = load %class.PrefService* (%class.Profile*)**, %class.PrefService* (%class.Profile*)*** %16, align 8
  %18 = getelementptr inbounds %class.PrefService* (%class.Profile*)*, %class.PrefService* (%class.Profile*)** %17, i64 46
  %19 = load %class.PrefService* (%class.Profile*)*, %class.PrefService* (%class.Profile*)** %18, align 8
  %20 = tail call %class.PrefService* %19(%class.Profile* %0) #14
  %21 = tail call i32 @_ZN6policy27DeveloperToolsPolicyHandler23GetDevToolsAvailabilityEPK11PrefService(%class.PrefService* %20) #14
  switch i32 %21, label %30 [
    i32 2, label %31
    i32 1, label %22
    i32 0, label %23
  ]

22:                                               ; preds = %14
  br label %31

23:                                               ; preds = %14
  %24 = icmp eq %"class.extensions::Extension"* %15, null
  br i1 %24, label %31, label %25

25:                                               ; preds = %23
  %26 = tail call i32 @_ZNK10extensions9Extension8locationEv(%"class.extensions::Extension"* nonnull %15) #14
  %27 = icmp ne i32 %26, 9
  %28 = icmp ne i32 %26, 7
  %29 = and i1 %27, %28
  br label %31

30:                                               ; preds = %14
  br label %31

31:                                               ; preds = %14, %22, %23, %25, %30
  %32 = phi i1 [ true, %30 ], [ true, %22 ], [ false, %14 ], [ true, %23 ], [ %29, %25 ]
  ret i1 %32
}

declare %"class.extensions::Extension"* @_ZN10extensions14ProcessManager26GetExtensionForWebContentsEPN7content11WebContentsE(%"class.extensions::ProcessManager"*, %"class.content::WebContents"*) local_unnamed_addr #3

declare i32 @_ZN6policy27DeveloperToolsPolicyHandler23GetDevToolsAvailabilityEPK11PrefService(%class.PrefService*) local_unnamed_addr #3

declare i32 @_ZNK10extensions9Extension8locationEv(%"class.extensions::Extension"*) local_unnamed_addr #3

; Function Attrs: nounwind ssp uwtable
define hidden void @_ZN29ChromeDevToolsManagerDelegate14ClientAttachedEPN7content30DevToolsAgentHostClientChannelE(%class.ChromeDevToolsManagerDelegate*, %"class.content::DevToolsAgentHostClientChannel"*) unnamed_addr #1 align 2 {
  %3 = ptrtoint %"class.content::DevToolsAgentHostClientChannel"* %1 to i64
  %4 = getelementptr inbounds %class.ChromeDevToolsManagerDelegate, %class.ChromeDevToolsManagerDelegate* %0, i64 0, i32 1
  %5 = tail call i8* @_Znwm(i64 144) #15
  %6 = bitcast i8* %5 to %class.ChromeDevToolsSession*
  tail call void @_ZN21ChromeDevToolsSessionC1EPN7content30DevToolsAgentHostClientChannelE(%class.ChromeDevToolsSession* nonnull %6, %"class.content::DevToolsAgentHostClientChannel"* %1) #14
  %7 = ptrtoint i8* %5 to i64
  %8 = getelementptr inbounds %class.ChromeDevToolsManagerDelegate, %class.ChromeDevToolsManagerDelegate* %0, i64 0, i32 1, i32 0, i32 1, i32 0, i32 0
  %9 = bitcast %"class.std::__1::__tree_end_node"* %8 to %"class.std::__1::__tree_node"**
  %10 = load %"class.std::__1::__tree_node"*, %"class.std::__1::__tree_node"** %9, align 8
  %11 = icmp eq %"class.std::__1::__tree_node"* %10, null
  br i1 %11, label %40, label %12

12:                                               ; preds = %2
  %13 = getelementptr inbounds %class.ChromeDevToolsManagerDelegate, %class.ChromeDevToolsManagerDelegate* %0, i64 0, i32 1, i32 0, i32 1, i32 0, i32 0, i32 0
  br label %14

14:                                               ; preds = %36, %12
  %15 = phi %"class.std::__1::__tree_node"* [ %39, %36 ], [ %10, %12 ]
  %16 = phi %"class.std::__1::__tree_node_base"** [ %38, %36 ], [ %13, %12 ]
  %17 = getelementptr inbounds %"class.std::__1::__tree_node", %"class.std::__1::__tree_node"* %15, i64 0, i32 1, i32 0, i32 0
  %18 = load %"class.content::DevToolsAgentHostClientChannel"*, %"class.content::DevToolsAgentHostClientChannel"** %17, align 8
  %19 = icmp ugt %"class.content::DevToolsAgentHostClientChannel"* %18, %1
  br i1 %19, label %20, label %26

20:                                               ; preds = %14
  %21 = getelementptr inbounds %"class.std::__1::__tree_node", %"class.std::__1::__tree_node"* %15, i64 0, i32 0, i32 0, i32 0
  %22 = load %"class.std::__1::__tree_node_base"*, %"class.std::__1::__tree_node_base"** %21, align 8
  %23 = icmp eq %"class.std::__1::__tree_node_base"* %22, null
  br i1 %23, label %24, label %36

24:                                               ; preds = %20
  %25 = getelementptr inbounds %"class.std::__1::__tree_node", %"class.std::__1::__tree_node"* %15, i64 0, i32 0, i32 0
  br label %42

26:                                               ; preds = %14
  %27 = icmp ult %"class.content::DevToolsAgentHostClientChannel"* %18, %1
  br i1 %27, label %28, label %34

28:                                               ; preds = %26
  %29 = getelementptr inbounds %"class.std::__1::__tree_node", %"class.std::__1::__tree_node"* %15, i64 0, i32 0, i32 1
  %30 = load %"class.std::__1::__tree_node_base"*, %"class.std::__1::__tree_node_base"** %29, align 8
  %31 = icmp eq %"class.std::__1::__tree_node_base"* %30, null
  br i1 %31, label %32, label %36

32:                                               ; preds = %28
  %33 = getelementptr inbounds %"class.std::__1::__tree_node", %"class.std::__1::__tree_node"* %15, i64 0, i32 0, i32 0
  br label %42

34:                                               ; preds = %26
  %35 = getelementptr inbounds %"class.std::__1::__tree_node", %"class.std::__1::__tree_node"* %15, i64 0, i32 0, i32 0
  br label %42

36:                                               ; preds = %28, %20
  %37 = phi %"class.std::__1::__tree_node_base"* [ %22, %20 ], [ %30, %28 ]
  %38 = phi %"class.std::__1::__tree_node_base"** [ %21, %20 ], [ %29, %28 ]
  %39 = bitcast %"class.std::__1::__tree_node_base"* %37 to %"class.std::__1::__tree_node"*
  br label %14

40:                                               ; preds = %2
  %41 = getelementptr inbounds %"class.std::__1::__tree_end_node", %"class.std::__1::__tree_end_node"* %8, i64 0, i32 0
  br label %42

42:                                               ; preds = %40, %34, %32, %24
  %43 = phi %"class.std::__1::__tree_end_node"* [ %8, %40 ], [ %25, %24 ], [ %33, %32 ], [ %35, %34 ]
  %44 = phi %"class.std::__1::__tree_node_base"** [ %41, %40 ], [ %21, %24 ], [ %29, %32 ], [ %16, %34 ]
  %45 = bitcast %"class.std::__1::__tree_node_base"** %44 to %"class.std::__1::__tree_node"**
  %46 = load %"class.std::__1::__tree_node"*, %"class.std::__1::__tree_node"** %45, align 8
  %47 = icmp eq %"class.std::__1::__tree_node"* %46, null
  br i1 %47, label %48, label %74

48:                                               ; preds = %42
  %49 = tail call i8* @_Znwm(i64 48) #15, !noalias !2
  %50 = getelementptr inbounds i8, i8* %49, i64 32
  %51 = bitcast i8* %50 to i64*
  store i64 %3, i64* %51, align 8, !noalias !2
  %52 = getelementptr inbounds i8, i8* %49, i64 40
  %53 = bitcast i8* %52 to i64*
  store i64 %7, i64* %53, align 8, !noalias !2
  %54 = bitcast i8* %49 to %"class.std::__1::__tree_node_base"*
  %55 = getelementptr inbounds i8, i8* %49, i64 16
  %56 = bitcast i8* %55 to %"class.std::__1::__tree_end_node"**
  tail call void @llvm.memset.p0i8.i64(i8* nonnull align 8 %49, i8 0, i64 16, i1 false) #14
  store %"class.std::__1::__tree_end_node"* %43, %"class.std::__1::__tree_end_node"** %56, align 8
  %57 = bitcast %"class.std::__1::__tree_node_base"** %44 to i8**
  store i8* %49, i8** %57, align 8
  %58 = getelementptr inbounds %"class.std::__1::map", %"class.std::__1::map"* %4, i64 0, i32 0, i32 0
  %59 = load %"class.std::__1::__tree_end_node"*, %"class.std::__1::__tree_end_node"** %58, align 8
  %60 = getelementptr inbounds %"class.std::__1::__tree_end_node", %"class.std::__1::__tree_end_node"* %59, i64 0, i32 0
  %61 = load %"class.std::__1::__tree_node_base"*, %"class.std::__1::__tree_node_base"** %60, align 8
  %62 = icmp eq %"class.std::__1::__tree_node_base"* %61, null
  br i1 %62, label %67, label %63

63:                                               ; preds = %48
  %64 = ptrtoint %"class.std::__1::__tree_node_base"* %61 to i64
  %65 = bitcast %"class.std::__1::map"* %4 to i64*
  store i64 %64, i64* %65, align 8
  %66 = load %"class.std::__1::__tree_node_base"*, %"class.std::__1::__tree_node_base"** %44, align 8
  br label %67

67:                                               ; preds = %48, %63
  %68 = phi %"class.std::__1::__tree_node_base"* [ %54, %48 ], [ %66, %63 ]
  %69 = getelementptr inbounds %class.ChromeDevToolsManagerDelegate, %class.ChromeDevToolsManagerDelegate* %0, i64 0, i32 1, i32 0, i32 1, i32 0, i32 0, i32 0
  %70 = load %"class.std::__1::__tree_node_base"*, %"class.std::__1::__tree_node_base"** %69, align 8
  tail call void @_ZNSt3__127__tree_balance_after_insertIPNS_16__tree_node_baseIPvEEEEvT_S5_(%"class.std::__1::__tree_node_base"* %70, %"class.std::__1::__tree_node_base"* %68) #14
  %71 = getelementptr inbounds %class.ChromeDevToolsManagerDelegate, %class.ChromeDevToolsManagerDelegate* %0, i64 0, i32 1, i32 0, i32 2, i32 0, i32 0
  %72 = load i64, i64* %71, align 8
  %73 = add i64 %72, 1
  store i64 %73, i64* %71, align 8
  br label %79

74:                                               ; preds = %42
  %75 = bitcast i8* %5 to void (%class.ChromeDevToolsSession*)***
  %76 = load void (%class.ChromeDevToolsSession*)**, void (%class.ChromeDevToolsSession*)*** %75, align 8
  %77 = getelementptr inbounds void (%class.ChromeDevToolsSession*)*, void (%class.ChromeDevToolsSession*)** %76, i64 1
  %78 = load void (%class.ChromeDevToolsSession*)*, void (%class.ChromeDevToolsSession*)** %77, align 8
  tail call void %78(%class.ChromeDevToolsSession* nonnull %6) #14
  br label %79

79:                                               ; preds = %67, %74
  ret void
}

; Function Attrs: nounwind ssp uwtable
define hidden void @_ZN29ChromeDevToolsManagerDelegate14ClientDetachedEPN7content30DevToolsAgentHostClientChannelE(%class.ChromeDevToolsManagerDelegate*, %"class.content::DevToolsAgentHostClientChannel"*) unnamed_addr #1 align 2 {
  %3 = alloca %"class.content::DevToolsAgentHostClientChannel"*, align 8
  store %"class.content::DevToolsAgentHostClientChannel"* %1, %"class.content::DevToolsAgentHostClientChannel"** %3, align 8
  %4 = getelementptr inbounds %class.ChromeDevToolsManagerDelegate, %class.ChromeDevToolsManagerDelegate* %0, i64 0, i32 1, i32 0
  %5 = call i64 @_ZNSt3__16__treeINS_12__value_typeIPN7content30DevToolsAgentHostClientChannelENS_10unique_ptrI21ChromeDevToolsSessionNS_14default_deleteIS6_EEEEEENS_19__map_value_compareIS4_SA_NS_4lessIS4_EELb1EEENS_9allocatorISA_EEE14__erase_uniqueIS4_EEmRKT_(%"class.std::__1::__tree"* %4, %"class.content::DevToolsAgentHostClientChannel"** nonnull dereferenceable(8) %3) #14
  ret void
}

; Function Attrs: nounwind ssp uwtable
define hidden %"class.content::DevToolsAgentHost"* @_ZN29ChromeDevToolsManagerDelegate15CreateNewTargetERK4GURL(%class.ChromeDevToolsManagerDelegate* nocapture readnone, %class.GURL* dereferenceable(120)) unnamed_addr #1 align 2 {
  %3 = alloca %struct.NavigateParams, align 8
  %4 = bitcast %struct.NavigateParams* %3 to i8*
  call void @llvm.lifetime.start.p0i8(i64 920, i8* nonnull %4) #14
  call void @llvm.memset.p0i8.i64(i8* nonnull align 8 %4, i8 -86, i64 920, i1 false)
  %5 = tail call %class.Profile* @_ZN14ProfileManager18GetLastUsedProfileEv() #14
  call void @_ZN14NavigateParamsC1EP7ProfileRK4GURLN2ui14PageTransitionE(%struct.NavigateParams* nonnull %3, %class.Profile* %5, %class.GURL* dereferenceable(120) %1, i32 6) #14
  %6 = getelementptr inbounds %struct.NavigateParams, %struct.NavigateParams* %3, i64 0, i32 16
  store i32 3, i32* %6, align 8
  call void @_Z8NavigateP14NavigateParams(%struct.NavigateParams* nonnull %3) #14
  %7 = getelementptr inbounds %struct.NavigateParams, %struct.NavigateParams* %3, i64 0, i32 14
  %8 = load %"class.content::WebContents"*, %"class.content::WebContents"** %7, align 8
  %9 = icmp eq %"class.content::WebContents"* %8, null
  br i1 %9, label %12, label %10

10:                                               ; preds = %2
  %11 = call %"class.content::DevToolsAgentHost"* @_ZN7content17DevToolsAgentHost14GetOrCreateForEPNS_11WebContentsE(%"class.content::WebContents"* nonnull %8) #14
  br label %12

12:                                               ; preds = %2, %10
  %13 = phi %"class.content::DevToolsAgentHost"* [ %11, %10 ], [ null, %2 ]
  call void @_ZN14NavigateParamsD1Ev(%struct.NavigateParams* nonnull %3) #14
  call void @llvm.lifetime.end.p0i8(i64 920, i8* nonnull %4) #14
  ret %"class.content::DevToolsAgentHost"* %13
}

; Function Attrs: argmemonly nounwind
declare void @llvm.memset.p0i8.i64(i8* nocapture writeonly, i8, i64, i1 immarg) #2

declare %class.Profile* @_ZN14ProfileManager18GetLastUsedProfileEv() local_unnamed_addr #3

declare void @_ZN14NavigateParamsC1EP7ProfileRK4GURLN2ui14PageTransitionE(%struct.NavigateParams*, %class.Profile*, %class.GURL* dereferenceable(120), i32) unnamed_addr #3

declare void @_Z8NavigateP14NavigateParams(%struct.NavigateParams*) local_unnamed_addr #3

declare %"class.content::DevToolsAgentHost"* @_ZN7content17DevToolsAgentHost14GetOrCreateForEPNS_11WebContentsE(%"class.content::WebContents"*) local_unnamed_addr #3

; Function Attrs: nounwind
declare void @_ZN14NavigateParamsD1Ev(%struct.NavigateParams*) unnamed_addr #4

; Function Attrs: nounwind ssp uwtable
define hidden void @_ZN29ChromeDevToolsManagerDelegate20GetDiscoveryPageHTMLEv(%"class.std::__1::basic_string"* noalias sret, %class.ChromeDevToolsManagerDelegate* nocapture readnone) unnamed_addr #1 align 2 {
  %3 = tail call dereferenceable(216) %"class.ui::ResourceBundle"* @_ZN2ui14ResourceBundle17GetSharedInstanceEv() #14
  tail call void @_ZNK2ui14ResourceBundle22LoadDataResourceStringEi(%"class.std::__1::basic_string"* sret %0, %"class.ui::ResourceBundle"* %3, i32 11588) #14
  ret void
}

declare dereferenceable(216) %"class.ui::ResourceBundle"* @_ZN2ui14ResourceBundle17GetSharedInstanceEv() local_unnamed_addr #3

declare void @_ZNK2ui14ResourceBundle22LoadDataResourceStringEi(%"class.std::__1::basic_string"* sret, %"class.ui::ResourceBundle"*, i32) local_unnamed_addr #3

; Function Attrs: nounwind ssp uwtable
define hidden void @_ZN29ChromeDevToolsManagerDelegate18GetBrowserContextsEv(%"class.std::__1::vector.721"* noalias sret, %class.ChromeDevToolsManagerDelegate* nocapture readnone) unnamed_addr #1 align 2 {
  %3 = tail call dereferenceable(96) %class.DevToolsBrowserContextManager* @_ZN29DevToolsBrowserContextManager11GetInstanceEv() #14
  tail call void @_ZN29DevToolsBrowserContextManager18GetBrowserContextsEv(%"class.std::__1::vector.721"* sret %0, %class.DevToolsBrowserContextManager* %3) #14
  ret void
}

declare dereferenceable(96) %class.DevToolsBrowserContextManager* @_ZN29DevToolsBrowserContextManager11GetInstanceEv() local_unnamed_addr #3

declare void @_ZN29DevToolsBrowserContextManager18GetBrowserContextsEv(%"class.std::__1::vector.721"* sret, %class.DevToolsBrowserContextManager*) local_unnamed_addr #3

; Function Attrs: nounwind ssp uwtable
define hidden %"class.content::BrowserContext"* @_ZN29ChromeDevToolsManagerDelegate24GetDefaultBrowserContextEv(%class.ChromeDevToolsManagerDelegate* nocapture readnone) unnamed_addr #1 align 2 {
  %2 = tail call dereferenceable(96) %class.DevToolsBrowserContextManager* @_ZN29DevToolsBrowserContextManager11GetInstanceEv() #14
  %3 = tail call %"class.content::BrowserContext"* @_ZN29DevToolsBrowserContextManager24GetDefaultBrowserContextEv(%class.DevToolsBrowserContextManager* %2) #14
  ret %"class.content::BrowserContext"* %3
}

declare %"class.content::BrowserContext"* @_ZN29DevToolsBrowserContextManager24GetDefaultBrowserContextEv(%class.DevToolsBrowserContextManager*) local_unnamed_addr #3

; Function Attrs: nounwind ssp uwtable
define hidden %"class.content::BrowserContext"* @_ZN29ChromeDevToolsManagerDelegate20CreateBrowserContextEv(%class.ChromeDevToolsManagerDelegate* nocapture readnone) unnamed_addr #1 align 2 {
  %2 = tail call dereferenceable(96) %class.DevToolsBrowserContextManager* @_ZN29DevToolsBrowserContextManager11GetInstanceEv() #14
  %3 = tail call %"class.content::BrowserContext"* @_ZN29DevToolsBrowserContextManager20CreateBrowserContextEv(%class.DevToolsBrowserContextManager* %2) #14
  ret %"class.content::BrowserContext"* %3
}

declare %"class.content::BrowserContext"* @_ZN29DevToolsBrowserContextManager20CreateBrowserContextEv(%class.DevToolsBrowserContextManager*) local_unnamed_addr #3

; Function Attrs: nounwind ssp uwtable
define hidden void @_ZN29ChromeDevToolsManagerDelegate21DisposeBrowserContextEPN7content14BrowserContextEN4base12OnceCallbackIFvbRKNSt3__112basic_stringIcNS5_11char_traitsIcEENS5_9allocatorIcEEEEEEE(%class.ChromeDevToolsManagerDelegate* nocapture readnone, %"class.content::BrowserContext"*, %"class.base::OnceCallback.749"* nocapture) unnamed_addr #1 align 2 {
  %4 = alloca %"class.base::OnceCallback.749", align 8
  %5 = tail call dereferenceable(96) %class.DevToolsBrowserContextManager* @_ZN29DevToolsBrowserContextManager11GetInstanceEv() #14
  %6 = getelementptr inbounds %"class.base::OnceCallback.749", %"class.base::OnceCallback.749"* %2, i64 0, i32 0, i32 0, i32 0
  %7 = bitcast %"class.base::OnceCallback.749"* %2 to i64*
  %8 = load i64, i64* %7, align 8
  %9 = bitcast %"class.base::OnceCallback.749"* %4 to i64*
  store i64 %8, i64* %9, align 8
  store %"class.base::internal::BindStateBase"* null, %"class.base::internal::BindStateBase"** %6, align 8
  call void @_ZN29DevToolsBrowserContextManager21DisposeBrowserContextEPN7content14BrowserContextEN4base12OnceCallbackIFvbRKNSt3__112basic_stringIcNS5_11char_traitsIcEENS5_9allocatorIcEEEEEEE(%class.DevToolsBrowserContextManager* %5, %"class.content::BrowserContext"* %1, %"class.base::OnceCallback.749"* nonnull %4) #14
  %10 = getelementptr inbounds %"class.base::OnceCallback.749", %"class.base::OnceCallback.749"* %4, i64 0, i32 0
  call void @_ZN4base8internal12CallbackBaseD2Ev(%"class.base::internal::CallbackBase"* nonnull %10) #14
  ret void
}

declare void @_ZN29DevToolsBrowserContextManager21DisposeBrowserContextEPN7content14BrowserContextEN4base12OnceCallbackIFvbRKNSt3__112basic_stringIcNS5_11char_traitsIcEENS5_9allocatorIcEEEEEEE(%class.DevToolsBrowserContextManager*, %"class.content::BrowserContext"*, %"class.base::OnceCallback.749"*) local_unnamed_addr #3

; Function Attrs: norecurse nounwind readnone ssp uwtable
define hidden zeroext i1 @_ZN29ChromeDevToolsManagerDelegate27HasBundledFrontendResourcesEv(%class.ChromeDevToolsManagerDelegate* nocapture readnone) unnamed_addr #6 align 2 {
  ret i1 true
}

; Function Attrs: nounwind ssp uwtable
define hidden void @_ZN29ChromeDevToolsManagerDelegate16DevicesAvailableERKNSt3__16vectorINS0_4pairI13scoped_refptrIN20AndroidDeviceManager6DeviceEES3_IN23DevToolsDeviceDiscovery12RemoteDeviceEEEENS0_9allocatorISA_EEEE(%class.ChromeDevToolsManagerDelegate* nocapture, %"class.std::__1::vector.750"* nocapture readonly dereferenceable(24)) #1 align 2 {
  %3 = alloca %"class.std::__1::vector.77", align 16
  %4 = alloca %class.scoped_refptr.79, align 8
  %5 = bitcast %"class.std::__1::vector.77"* %3 to i8*
  call void @llvm.lifetime.start.p0i8(i64 24, i8* nonnull %5) #14
  %6 = getelementptr inbounds %"class.std::__1::vector.77", %"class.std::__1::vector.77"* %3, i64 0, i32 0, i32 1
  %7 = getelementptr inbounds %"class.std::__1::vector.77", %"class.std::__1::vector.77"* %3, i64 0, i32 0, i32 2, i32 0, i32 0
  call void @llvm.memset.p0i8.i64(i8* nonnull align 16 %5, i8 0, i64 24, i1 false) #14
  %8 = getelementptr inbounds %"class.std::__1::vector.750", %"class.std::__1::vector.750"* %1, i64 0, i32 0, i32 0
  %9 = load %"struct.std::__1::pair.752"*, %"struct.std::__1::pair.752"** %8, align 8
  %10 = getelementptr inbounds %"class.std::__1::vector.750", %"class.std::__1::vector.750"* %1, i64 0, i32 0, i32 1
  %11 = load %"struct.std::__1::pair.752"*, %"struct.std::__1::pair.752"** %10, align 8
  %12 = icmp eq %"struct.std::__1::pair.752"* %9, %11
  br i1 %12, label %13, label %16

13:                                               ; preds = %2
  %14 = bitcast %class.scoped_refptr.79** %6 to i64*
  %15 = bitcast %class.scoped_refptr.79** %7 to i64*
  br label %25

16:                                               ; preds = %2
  %17 = bitcast %class.scoped_refptr.79* %4 to i8*
  %18 = getelementptr inbounds %class.scoped_refptr.79, %class.scoped_refptr.79* %4, i64 0, i32 0
  %19 = bitcast %class.scoped_refptr.79** %6 to i64*
  br label %74

20:                                               ; preds = %83
  %21 = bitcast %"class.std::__1::vector.77"* %3 to <2 x i64>*
  %22 = load <2 x i64>, <2 x i64>* %21, align 16
  %23 = bitcast %class.scoped_refptr.79** %7 to i64*
  %24 = load i64, i64* %23, align 16
  br label %25

25:                                               ; preds = %13, %20
  %26 = phi i64* [ %15, %13 ], [ %23, %20 ]
  %27 = phi i64* [ %14, %13 ], [ %19, %20 ]
  %28 = phi i64 [ 0, %13 ], [ %24, %20 ]
  %29 = phi <2 x i64> [ zeroinitializer, %13 ], [ %22, %20 ]
  %30 = bitcast %"class.std::__1::vector.77"* %3 to i64*
  %31 = getelementptr inbounds %class.ChromeDevToolsManagerDelegate, %class.ChromeDevToolsManagerDelegate* %0, i64 0, i32 4
  %32 = bitcast %"class.std::__1::vector.77"* %31 to i64*
  %33 = load i64, i64* %32, align 8
  store i64 %33, i64* %30, align 16
  %34 = getelementptr inbounds %class.ChromeDevToolsManagerDelegate, %class.ChromeDevToolsManagerDelegate* %0, i64 0, i32 4, i32 0, i32 1
  %35 = bitcast %class.scoped_refptr.79** %34 to i64*
  %36 = load i64, i64* %35, align 8
  %37 = bitcast %"class.std::__1::vector.77"* %31 to <2 x i64>*
  store <2 x i64> %29, <2 x i64>* %37, align 8
  store i64 %36, i64* %27, align 8
  %38 = getelementptr inbounds %class.ChromeDevToolsManagerDelegate, %class.ChromeDevToolsManagerDelegate* %0, i64 0, i32 4, i32 0, i32 2, i32 0, i32 0
  %39 = bitcast %class.scoped_refptr.79** %38 to i64*
  %40 = load i64, i64* %39, align 8
  store i64 %28, i64* %39, align 8
  store i64 %40, i64* %26, align 8
  %41 = inttoptr i64 %33 to %class.scoped_refptr.79*
  %42 = icmp eq i64 %33, 0
  %43 = inttoptr i64 %36 to %class.scoped_refptr.79*
  br i1 %42, label %73, label %44

44:                                               ; preds = %25
  %45 = inttoptr i64 %33 to i8*
  %46 = icmp eq %class.scoped_refptr.79* %43, %41
  br i1 %46, label %71, label %47

47:                                               ; preds = %44, %66
  %48 = phi %class.scoped_refptr.79* [ %49, %66 ], [ %43, %44 ]
  %49 = getelementptr inbounds %class.scoped_refptr.79, %class.scoped_refptr.79* %48, i64 -1
  %50 = getelementptr inbounds %class.scoped_refptr.79, %class.scoped_refptr.79* %49, i64 0, i32 0
  %51 = load %"class.content::DevToolsAgentHost"*, %"class.content::DevToolsAgentHost"** %50, align 8
  %52 = icmp eq %"class.content::DevToolsAgentHost"* %51, null
  br i1 %52, label %66, label %53

53:                                               ; preds = %47
  %54 = getelementptr inbounds %"class.content::DevToolsAgentHost", %"class.content::DevToolsAgentHost"* %51, i64 0, i32 1
  %55 = getelementptr inbounds %"class.base::RefCounted", %"class.base::RefCounted"* %54, i64 0, i32 0
  call void @_ZNK4base6subtle14RefCountedBase11ReleaseImplEv(%"class.base::subtle::RefCountedBase"* %55) #14
  %56 = getelementptr inbounds %"class.base::RefCounted", %"class.base::RefCounted"* %54, i64 0, i32 0, i32 0
  %57 = load i32, i32* %56, align 4
  %58 = icmp eq i32 %57, 0
  br i1 %58, label %59, label %66

59:                                               ; preds = %53
  %60 = getelementptr inbounds %"class.base::RefCounted", %"class.base::RefCounted"* %54, i64 -2
  %61 = bitcast %"class.base::RefCounted"* %60 to %"class.content::DevToolsAgentHost"*
  %62 = bitcast %"class.base::RefCounted"* %60 to void (%"class.content::DevToolsAgentHost"*)***
  %63 = load void (%"class.content::DevToolsAgentHost"*)**, void (%"class.content::DevToolsAgentHost"*)*** %62, align 8
  %64 = getelementptr inbounds void (%"class.content::DevToolsAgentHost"*)*, void (%"class.content::DevToolsAgentHost"*)** %63, i64 28
  %65 = load void (%"class.content::DevToolsAgentHost"*)*, void (%"class.content::DevToolsAgentHost"*)** %64, align 8
  call void %65(%"class.content::DevToolsAgentHost"* nonnull %61) #14
  br label %66

66:                                               ; preds = %59, %53, %47
  %67 = icmp eq %class.scoped_refptr.79* %49, %41
  br i1 %67, label %68, label %47

68:                                               ; preds = %66
  %69 = bitcast %"class.std::__1::vector.77"* %3 to i8**
  %70 = load i8*, i8** %69, align 16
  br label %71

71:                                               ; preds = %68, %44
  %72 = phi i8* [ %70, %68 ], [ %45, %44 ]
  store %class.scoped_refptr.79* %41, %class.scoped_refptr.79** %6, align 8
  call void @_ZdlPv(i8* %72) #15
  br label %73

73:                                               ; preds = %25, %71
  call void @llvm.lifetime.end.p0i8(i64 24, i8* nonnull %5) #14
  ret void

74:                                               ; preds = %16, %83
  %75 = phi %"struct.std::__1::pair.752"* [ %9, %16 ], [ %84, %83 ]
  %76 = getelementptr inbounds %"struct.std::__1::pair.752", %"struct.std::__1::pair.752"* %75, i64 0, i32 1, i32 0
  %77 = load %"class.DevToolsDeviceDiscovery::RemoteDevice"*, %"class.DevToolsDeviceDiscovery::RemoteDevice"** %76, align 8
  %78 = getelementptr inbounds %"class.DevToolsDeviceDiscovery::RemoteDevice", %"class.DevToolsDeviceDiscovery::RemoteDevice"* %77, i64 0, i32 5, i32 0, i32 0
  %79 = load %class.scoped_refptr.759*, %class.scoped_refptr.759** %78, align 8
  %80 = getelementptr inbounds %"class.DevToolsDeviceDiscovery::RemoteDevice", %"class.DevToolsDeviceDiscovery::RemoteDevice"* %77, i64 0, i32 5, i32 0, i32 1
  %81 = load %class.scoped_refptr.759*, %class.scoped_refptr.759** %80, align 8
  %82 = icmp eq %class.scoped_refptr.759* %79, %81
  br i1 %82, label %83, label %86

83:                                               ; preds = %95, %74
  %84 = getelementptr inbounds %"struct.std::__1::pair.752", %"struct.std::__1::pair.752"* %75, i64 1
  %85 = icmp eq %"struct.std::__1::pair.752"* %84, %11
  br i1 %85, label %20, label %74

86:                                               ; preds = %74, %95
  %87 = phi %class.scoped_refptr.759* [ %96, %95 ], [ %79, %74 ]
  %88 = getelementptr inbounds %class.scoped_refptr.759, %class.scoped_refptr.759* %87, i64 0, i32 0
  %89 = load %"class.DevToolsDeviceDiscovery::RemoteBrowser"*, %"class.DevToolsDeviceDiscovery::RemoteBrowser"** %88, align 8
  %90 = getelementptr inbounds %"class.DevToolsDeviceDiscovery::RemoteBrowser", %"class.DevToolsDeviceDiscovery::RemoteBrowser"* %89, i64 0, i32 9, i32 0, i32 0
  %91 = load %class.scoped_refptr.763*, %class.scoped_refptr.763** %90, align 8
  %92 = getelementptr inbounds %"class.DevToolsDeviceDiscovery::RemoteBrowser", %"class.DevToolsDeviceDiscovery::RemoteBrowser"* %89, i64 0, i32 9, i32 0, i32 1
  %93 = load %class.scoped_refptr.763*, %class.scoped_refptr.763** %92, align 8
  %94 = icmp eq %class.scoped_refptr.763* %91, %93
  br i1 %94, label %95, label %98

95:                                               ; preds = %127, %86
  %96 = getelementptr inbounds %class.scoped_refptr.759, %class.scoped_refptr.759* %87, i64 1
  %97 = icmp eq %class.scoped_refptr.759* %96, %81
  br i1 %97, label %83, label %86

98:                                               ; preds = %86, %127
  %99 = phi %class.scoped_refptr.763* [ %128, %127 ], [ %91, %86 ]
  call void @llvm.lifetime.start.p0i8(i64 8, i8* nonnull %17) #14
  %100 = getelementptr inbounds %class.scoped_refptr.763, %class.scoped_refptr.763* %99, i64 0, i32 0
  %101 = load %"class.DevToolsDeviceDiscovery::RemotePage"*, %"class.DevToolsDeviceDiscovery::RemotePage"** %100, align 8
  %102 = call %"class.content::DevToolsAgentHost"* @_ZN23DevToolsDeviceDiscovery10RemotePage12CreateTargetEv(%"class.DevToolsDeviceDiscovery::RemotePage"* %101) #14
  store %"class.content::DevToolsAgentHost"* %102, %"class.content::DevToolsAgentHost"** %18, align 8
  %103 = load %class.scoped_refptr.79*, %class.scoped_refptr.79** %6, align 8
  %104 = load %class.scoped_refptr.79*, %class.scoped_refptr.79** %7, align 16
  %105 = icmp ult %class.scoped_refptr.79* %103, %104
  br i1 %105, label %106, label %111

106:                                              ; preds = %98
  %107 = ptrtoint %"class.content::DevToolsAgentHost"* %102 to i64
  %108 = bitcast %class.scoped_refptr.79* %103 to i64*
  store i64 %107, i64* %108, align 8
  store %"class.content::DevToolsAgentHost"* null, %"class.content::DevToolsAgentHost"** %18, align 8
  %109 = getelementptr inbounds %class.scoped_refptr.79, %class.scoped_refptr.79* %103, i64 1
  %110 = ptrtoint %class.scoped_refptr.79* %109 to i64
  store i64 %110, i64* %19, align 8
  br label %127

111:                                              ; preds = %98
  call void @_ZNSt3__16vectorI13scoped_refptrIN7content17DevToolsAgentHostEENS_9allocatorIS4_EEE21__push_back_slow_pathIS4_EEvOT_(%"class.std::__1::vector.77"* nonnull %3, %class.scoped_refptr.79* nonnull dereferenceable(8) %4) #14
  %112 = load %"class.content::DevToolsAgentHost"*, %"class.content::DevToolsAgentHost"** %18, align 8
  %113 = icmp eq %"class.content::DevToolsAgentHost"* %112, null
  br i1 %113, label %127, label %114

114:                                              ; preds = %111
  %115 = getelementptr inbounds %"class.content::DevToolsAgentHost", %"class.content::DevToolsAgentHost"* %112, i64 0, i32 1
  %116 = getelementptr inbounds %"class.base::RefCounted", %"class.base::RefCounted"* %115, i64 0, i32 0
  call void @_ZNK4base6subtle14RefCountedBase11ReleaseImplEv(%"class.base::subtle::RefCountedBase"* %116) #14
  %117 = getelementptr inbounds %"class.base::RefCounted", %"class.base::RefCounted"* %115, i64 0, i32 0, i32 0
  %118 = load i32, i32* %117, align 4
  %119 = icmp eq i32 %118, 0
  br i1 %119, label %120, label %127

120:                                              ; preds = %114
  %121 = getelementptr inbounds %"class.base::RefCounted", %"class.base::RefCounted"* %115, i64 -2
  %122 = bitcast %"class.base::RefCounted"* %121 to %"class.content::DevToolsAgentHost"*
  %123 = bitcast %"class.base::RefCounted"* %121 to void (%"class.content::DevToolsAgentHost"*)***
  %124 = load void (%"class.content::DevToolsAgentHost"*)**, void (%"class.content::DevToolsAgentHost"*)*** %123, align 8
  %125 = getelementptr inbounds void (%"class.content::DevToolsAgentHost"*)*, void (%"class.content::DevToolsAgentHost"*)** %124, i64 28
  %126 = load void (%"class.content::DevToolsAgentHost"*)*, void (%"class.content::DevToolsAgentHost"*)** %125, align 8
  call void %126(%"class.content::DevToolsAgentHost"* nonnull %122) #14
  br label %127

127:                                              ; preds = %106, %111, %114, %120
  call void @llvm.lifetime.end.p0i8(i64 8, i8* nonnull %17) #14
  %128 = getelementptr inbounds %class.scoped_refptr.763, %class.scoped_refptr.763* %99, i64 1
  %129 = icmp eq %class.scoped_refptr.763* %128, %93
  br i1 %129, label %95, label %98
}

declare %"class.content::DevToolsAgentHost"* @_ZN23DevToolsDeviceDiscovery10RemotePage12CreateTargetEv(%"class.DevToolsDeviceDiscovery::RemotePage"*) local_unnamed_addr #3

; Function Attrs: nounwind ssp uwtable
define hidden void @_ZN29ChromeDevToolsManagerDelegate21UpdateDeviceDiscoveryEv(%class.ChromeDevToolsManagerDelegate*) local_unnamed_addr #1 align 2 {
  %2 = alloca %"class.base::RepeatingCallback", align 8
  %3 = alloca %"class.std::__1::set", align 16
  %4 = alloca %"class.std::__1::vector.43", align 8
  %5 = alloca %class.scoped_refptr.45, align 8
  %6 = alloca %"class.base::RepeatingCallback", align 8
  %7 = bitcast %"class.std::__1::set"* %3 to i8*
  call void @llvm.lifetime.start.p0i8(i64 24, i8* nonnull %7) #14
  %8 = getelementptr inbounds %"class.std::__1::set", %"class.std::__1::set"* %3, i64 0, i32 0, i32 0
  %9 = getelementptr inbounds %"class.std::__1::set", %"class.std::__1::set"* %3, i64 0, i32 0, i32 1, i32 0, i32 0, i32 0
  %10 = getelementptr inbounds %"class.std::__1::set", %"class.std::__1::set"* %3, i64 0, i32 0, i32 2, i32 0, i32 0
  %11 = getelementptr inbounds %"class.std::__1::set", %"class.std::__1::set"* %3, i64 0, i32 0, i32 1, i32 0, i32 0
  %12 = bitcast %"class.std::__1::__tree_node_base"** %9 to i8*
  call void @llvm.memset.p0i8.i64(i8* align 8 %12, i8 0, i64 16, i1 false) #14
  store %"class.std::__1::__tree_end_node"* %11, %"class.std::__1::__tree_end_node"** %8, align 16
  %13 = getelementptr inbounds %class.ChromeDevToolsManagerDelegate, %class.ChromeDevToolsManagerDelegate* %0, i64 0, i32 1, i32 0, i32 0
  %14 = load %"class.std::__1::__tree_end_node"*, %"class.std::__1::__tree_end_node"** %13, align 8
  %15 = getelementptr inbounds %class.ChromeDevToolsManagerDelegate, %class.ChromeDevToolsManagerDelegate* %0, i64 0, i32 1, i32 0, i32 1, i32 0, i32 0
  %16 = icmp eq %"class.std::__1::__tree_end_node"* %14, %15
  br i1 %16, label %21, label %17

17:                                               ; preds = %1
  %18 = getelementptr inbounds %"class.std::__1::set", %"class.std::__1::set"* %3, i64 0, i32 0
  br label %27

19:                                               ; preds = %103
  %20 = load i64, i64* %10, align 16
  br label %21

21:                                               ; preds = %19, %1
  %22 = phi i64 [ %20, %19 ], [ 0, %1 ]
  %23 = getelementptr inbounds %class.ChromeDevToolsManagerDelegate, %class.ChromeDevToolsManagerDelegate* %0, i64 0, i32 5
  %24 = getelementptr inbounds %class.ChromeDevToolsManagerDelegate, %class.ChromeDevToolsManagerDelegate* %0, i64 0, i32 5, i32 0, i32 2, i32 0, i32 0
  %25 = load i64, i64* %24, align 8
  %26 = icmp eq i64 %22, %25
  br i1 %26, label %106, label %245

27:                                               ; preds = %17, %103
  %28 = phi %"class.std::__1::__tree_end_node"* [ %14, %17 ], [ %104, %103 ]
  %29 = getelementptr inbounds %"class.std::__1::__tree_end_node", %"class.std::__1::__tree_end_node"* %28, i64 5
  %30 = bitcast %"class.std::__1::__tree_end_node"* %29 to %class.ChromeDevToolsSession**
  %31 = load %class.ChromeDevToolsSession*, %class.ChromeDevToolsSession** %30, align 8
  %32 = getelementptr inbounds %class.ChromeDevToolsSession, %class.ChromeDevToolsSession* %31, i64 0, i32 7, i32 0, i32 0, i32 0
  %33 = load %class.TargetHandler*, %class.TargetHandler** %32, align 8
  %34 = icmp eq %class.TargetHandler* %33, null
  br i1 %34, label %75, label %35

35:                                               ; preds = %27
  %36 = getelementptr inbounds %class.TargetHandler, %class.TargetHandler* %33, i64 0, i32 1, i32 0, i32 0
  %37 = load %"class.std::__1::__tree_end_node"*, %"class.std::__1::__tree_end_node"** %36, align 8
  %38 = getelementptr inbounds %class.TargetHandler, %class.TargetHandler* %33, i64 0, i32 1, i32 0, i32 1, i32 0, i32 0
  %39 = icmp eq %"class.std::__1::__tree_end_node"* %37, %38
  br i1 %39, label %75, label %40

40:                                               ; preds = %35, %72
  %41 = phi %"class.std::__1::__tree_end_node"* [ %73, %72 ], [ %37, %35 ]
  %42 = getelementptr inbounds %"class.std::__1::__tree_end_node", %"class.std::__1::__tree_end_node"* %41, i64 4
  %43 = bitcast %"class.std::__1::__tree_end_node"* %42 to %"class.net::HostPortPair"*
  %44 = call { %"class.std::__1::__tree_end_node"*, i8 } @_ZNSt3__16__treeIN3net12HostPortPairENS_4lessIS2_EENS_9allocatorIS2_EEE30__emplace_hint_unique_key_argsIS2_JRKS2_EEENS_4pairINS_15__tree_iteratorIS2_PNS_11__tree_nodeIS2_PvEElEEbEENS_21__tree_const_iteratorIS2_SG_lEERKT_DpOT0_(%"class.std::__1::__tree.85"* nonnull %18, %"class.std::__1::__tree_end_node"* %11, %"class.net::HostPortPair"* dereferenceable(32) %43, %"class.net::HostPortPair"* dereferenceable(32) %43) #14
  %45 = getelementptr inbounds %"class.std::__1::__tree_end_node", %"class.std::__1::__tree_end_node"* %41, i64 1, i32 0
  %46 = load %"class.std::__1::__tree_node_base"*, %"class.std::__1::__tree_node_base"** %45, align 8
  %47 = icmp eq %"class.std::__1::__tree_node_base"* %46, null
  br i1 %47, label %48, label %56

48:                                               ; preds = %40
  %49 = bitcast %"class.std::__1::__tree_end_node"* %41 to %"class.std::__1::__tree_node_base"*
  %50 = getelementptr inbounds %"class.std::__1::__tree_end_node", %"class.std::__1::__tree_end_node"* %41, i64 2
  %51 = bitcast %"class.std::__1::__tree_end_node"* %50 to %"class.std::__1::__tree_end_node"**
  %52 = load %"class.std::__1::__tree_end_node"*, %"class.std::__1::__tree_end_node"** %51, align 8
  %53 = getelementptr inbounds %"class.std::__1::__tree_end_node", %"class.std::__1::__tree_end_node"* %52, i64 0, i32 0
  %54 = load %"class.std::__1::__tree_node_base"*, %"class.std::__1::__tree_node_base"** %53, align 8
  %55 = icmp eq %"class.std::__1::__tree_node_base"* %54, %49
  br i1 %55, label %72, label %63

56:                                               ; preds = %40, %56
  %57 = phi %"class.std::__1::__tree_node_base"* [ %59, %56 ], [ %46, %40 ]
  %58 = getelementptr inbounds %"class.std::__1::__tree_node_base", %"class.std::__1::__tree_node_base"* %57, i64 0, i32 0, i32 0
  %59 = load %"class.std::__1::__tree_node_base"*, %"class.std::__1::__tree_node_base"** %58, align 8
  %60 = icmp eq %"class.std::__1::__tree_node_base"* %59, null
  br i1 %60, label %61, label %56

61:                                               ; preds = %56
  %62 = getelementptr inbounds %"class.std::__1::__tree_node_base", %"class.std::__1::__tree_node_base"* %57, i64 0, i32 0
  br label %72

63:                                               ; preds = %48, %63
  %64 = phi %"class.std::__1::__tree_end_node"** [ %67, %63 ], [ %51, %48 ]
  %65 = bitcast %"class.std::__1::__tree_end_node"** %64 to %"class.std::__1::__tree_node_base"**
  %66 = load %"class.std::__1::__tree_node_base"*, %"class.std::__1::__tree_node_base"** %65, align 8
  %67 = getelementptr inbounds %"class.std::__1::__tree_node_base", %"class.std::__1::__tree_node_base"* %66, i64 0, i32 2
  %68 = load %"class.std::__1::__tree_end_node"*, %"class.std::__1::__tree_end_node"** %67, align 8
  %69 = getelementptr inbounds %"class.std::__1::__tree_end_node", %"class.std::__1::__tree_end_node"* %68, i64 0, i32 0
  %70 = load %"class.std::__1::__tree_node_base"*, %"class.std::__1::__tree_node_base"** %69, align 8
  %71 = icmp eq %"class.std::__1::__tree_node_base"* %70, %66
  br i1 %71, label %72, label %63

72:                                               ; preds = %63, %61, %48
  %73 = phi %"class.std::__1::__tree_end_node"* [ %62, %61 ], [ %52, %48 ], [ %68, %63 ]
  %74 = icmp eq %"class.std::__1::__tree_end_node"* %73, %38
  br i1 %74, label %75, label %40

75:                                               ; preds = %72, %35, %27
  %76 = getelementptr inbounds %"class.std::__1::__tree_end_node", %"class.std::__1::__tree_end_node"* %28, i64 1, i32 0
  %77 = load %"class.std::__1::__tree_node_base"*, %"class.std::__1::__tree_node_base"** %76, align 8
  %78 = icmp eq %"class.std::__1::__tree_node_base"* %77, null
  br i1 %78, label %79, label %87

79:                                               ; preds = %75
  %80 = bitcast %"class.std::__1::__tree_end_node"* %28 to %"class.std::__1::__tree_node_base"*
  %81 = getelementptr inbounds %"class.std::__1::__tree_end_node", %"class.std::__1::__tree_end_node"* %28, i64 2
  %82 = bitcast %"class.std::__1::__tree_end_node"* %81 to %"class.std::__1::__tree_end_node"**
  %83 = load %"class.std::__1::__tree_end_node"*, %"class.std::__1::__tree_end_node"** %82, align 8
  %84 = getelementptr inbounds %"class.std::__1::__tree_end_node", %"class.std::__1::__tree_end_node"* %83, i64 0, i32 0
  %85 = load %"class.std::__1::__tree_node_base"*, %"class.std::__1::__tree_node_base"** %84, align 8
  %86 = icmp eq %"class.std::__1::__tree_node_base"* %85, %80
  br i1 %86, label %103, label %94

87:                                               ; preds = %75, %87
  %88 = phi %"class.std::__1::__tree_node_base"* [ %90, %87 ], [ %77, %75 ]
  %89 = getelementptr inbounds %"class.std::__1::__tree_node_base", %"class.std::__1::__tree_node_base"* %88, i64 0, i32 0, i32 0
  %90 = load %"class.std::__1::__tree_node_base"*, %"class.std::__1::__tree_node_base"** %89, align 8
  %91 = icmp eq %"class.std::__1::__tree_node_base"* %90, null
  br i1 %91, label %92, label %87

92:                                               ; preds = %87
  %93 = getelementptr inbounds %"class.std::__1::__tree_node_base", %"class.std::__1::__tree_node_base"* %88, i64 0, i32 0
  br label %103

94:                                               ; preds = %79, %94
  %95 = phi %"class.std::__1::__tree_end_node"** [ %98, %94 ], [ %82, %79 ]
  %96 = bitcast %"class.std::__1::__tree_end_node"** %95 to %"class.std::__1::__tree_node_base"**
  %97 = load %"class.std::__1::__tree_node_base"*, %"class.std::__1::__tree_node_base"** %96, align 8
  %98 = getelementptr inbounds %"class.std::__1::__tree_node_base", %"class.std::__1::__tree_node_base"* %97, i64 0, i32 2
  %99 = load %"class.std::__1::__tree_end_node"*, %"class.std::__1::__tree_end_node"** %98, align 8
  %100 = getelementptr inbounds %"class.std::__1::__tree_end_node", %"class.std::__1::__tree_end_node"* %99, i64 0, i32 0
  %101 = load %"class.std::__1::__tree_node_base"*, %"class.std::__1::__tree_node_base"** %100, align 8
  %102 = icmp eq %"class.std::__1::__tree_node_base"* %101, %97
  br i1 %102, label %103, label %94

103:                                              ; preds = %94, %79, %92
  %104 = phi %"class.std::__1::__tree_end_node"* [ %93, %92 ], [ %83, %79 ], [ %99, %94 ]
  %105 = icmp eq %"class.std::__1::__tree_end_node"* %104, %15
  br i1 %105, label %19, label %27

106:                                              ; preds = %21
  %107 = load %"class.std::__1::__tree_end_node"*, %"class.std::__1::__tree_end_node"** %8, align 16
  %108 = icmp eq %"class.std::__1::__tree_end_node"* %107, %11
  br i1 %108, label %242, label %109

109:                                              ; preds = %106
  %110 = getelementptr inbounds %"class.std::__1::set", %"class.std::__1::set"* %23, i64 0, i32 0, i32 0
  %111 = load %"class.std::__1::__tree_end_node"*, %"class.std::__1::__tree_end_node"** %110, align 8
  br label %112

112:                                              ; preds = %109, %236
  %113 = phi i8 [ %179, %236 ], [ 1, %109 ]
  %114 = phi %"class.std::__1::__tree_end_node"* [ %208, %236 ], [ %107, %109 ]
  %115 = phi %"class.std::__1::__tree_end_node"* [ %237, %236 ], [ %111, %109 ]
  %116 = getelementptr inbounds %"class.std::__1::__tree_end_node", %"class.std::__1::__tree_end_node"* %114, i64 4
  %117 = getelementptr inbounds %"class.std::__1::__tree_end_node", %"class.std::__1::__tree_end_node"* %115, i64 4
  %118 = bitcast %"class.std::__1::__tree_end_node"* %116 to %"struct.std::__1::basic_string<char, std::__1::char_traits<char>, std::__1::allocator<char> >::__short"*
  %119 = getelementptr inbounds %"struct.std::__1::basic_string<char, std::__1::char_traits<char>, std::__1::allocator<char> >::__short", %"struct.std::__1::basic_string<char, std::__1::char_traits<char>, std::__1::allocator<char> >::__short"* %118, i64 0, i32 1, i32 0
  %120 = load i8, i8* %119, align 1
  %121 = icmp slt i8 %120, 0
  %122 = getelementptr inbounds %"class.std::__1::__tree_end_node", %"class.std::__1::__tree_end_node"* %114, i64 5
  %123 = bitcast %"class.std::__1::__tree_end_node"* %122 to i64*
  %124 = load i64, i64* %123, align 8
  %125 = zext i8 %120 to i64
  %126 = select i1 %121, i64 %124, i64 %125
  %127 = bitcast %"class.std::__1::__tree_end_node"* %117 to %"struct.std::__1::basic_string<char, std::__1::char_traits<char>, std::__1::allocator<char> >::__short"*
  %128 = getelementptr inbounds %"struct.std::__1::basic_string<char, std::__1::char_traits<char>, std::__1::allocator<char> >::__short", %"struct.std::__1::basic_string<char, std::__1::char_traits<char>, std::__1::allocator<char> >::__short"* %127, i64 0, i32 1, i32 0
  %129 = load i8, i8* %128, align 1
  %130 = icmp slt i8 %129, 0
  %131 = getelementptr inbounds %"class.std::__1::__tree_end_node", %"class.std::__1::__tree_end_node"* %115, i64 5
  %132 = bitcast %"class.std::__1::__tree_end_node"* %131 to i64*
  %133 = load i64, i64* %132, align 8
  %134 = zext i8 %129 to i64
  %135 = select i1 %130, i64 %133, i64 %134
  %136 = icmp eq i64 %126, %135
  br i1 %136, label %137, label %178

137:                                              ; preds = %112
  %138 = bitcast %"class.std::__1::__tree_end_node"* %116 to i8**
  %139 = load i8*, i8** %138, align 8
  %140 = bitcast %"class.std::__1::__tree_end_node"* %116 to i8*
  %141 = select i1 %121, i8* %139, i8* %140
  %142 = bitcast %"class.std::__1::__tree_end_node"* %117 to i8**
  %143 = load i8*, i8** %142, align 8
  %144 = bitcast %"class.std::__1::__tree_end_node"* %117 to i8*
  %145 = select i1 %130, i8* %143, i8* %144
  %146 = icmp eq i64 %126, 0
  br i1 %121, label %153, label %147

147:                                              ; preds = %137
  br i1 %146, label %169, label %148

148:                                              ; preds = %147
  %149 = ptrtoint i8* %139 to i64
  %150 = trunc i64 %149 to i8
  %151 = load i8, i8* %145, align 1
  %152 = icmp eq i8 %151, %150
  br i1 %152, label %154, label %178

153:                                              ; preds = %137
  br i1 %146, label %169, label %166

154:                                              ; preds = %148, %161
  %155 = phi i64 [ %158, %161 ], [ %125, %148 ]
  %156 = phi i8* [ %159, %161 ], [ %140, %148 ]
  %157 = phi i8* [ %162, %161 ], [ %145, %148 ]
  %158 = add i64 %155, -1
  %159 = getelementptr inbounds i8, i8* %156, i64 1
  %160 = icmp eq i64 %158, 0
  br i1 %160, label %169, label %161

161:                                              ; preds = %154
  %162 = getelementptr inbounds i8, i8* %157, i64 1
  %163 = load i8, i8* %159, align 1
  %164 = load i8, i8* %162, align 1
  %165 = icmp eq i8 %163, %164
  br i1 %165, label %154, label %178

166:                                              ; preds = %153
  %167 = call i32 @bcmp(i8* %141, i8* %145, i64 %126) #14
  %168 = icmp eq i32 %167, 0
  br i1 %168, label %169, label %178

169:                                              ; preds = %154, %147, %153, %166
  %170 = getelementptr inbounds %"class.std::__1::__tree_end_node", %"class.std::__1::__tree_end_node"* %114, i64 7
  %171 = bitcast %"class.std::__1::__tree_end_node"* %170 to i16*
  %172 = load i16, i16* %171, align 8
  %173 = getelementptr inbounds %"class.std::__1::__tree_end_node", %"class.std::__1::__tree_end_node"* %115, i64 7
  %174 = bitcast %"class.std::__1::__tree_end_node"* %173 to i16*
  %175 = load i16, i16* %174, align 8
  %176 = icmp eq i16 %172, %175
  %177 = select i1 %176, i8 %113, i8 0
  br label %178

178:                                              ; preds = %161, %148, %169, %112, %166
  %179 = phi i8 [ 0, %166 ], [ 0, %112 ], [ %177, %169 ], [ 0, %148 ], [ 0, %161 ]
  %180 = getelementptr inbounds %"class.std::__1::__tree_end_node", %"class.std::__1::__tree_end_node"* %114, i64 1, i32 0
  %181 = load %"class.std::__1::__tree_node_base"*, %"class.std::__1::__tree_node_base"** %180, align 8
  %182 = icmp eq %"class.std::__1::__tree_node_base"* %181, null
  br i1 %182, label %183, label %191

183:                                              ; preds = %178
  %184 = bitcast %"class.std::__1::__tree_end_node"* %114 to %"class.std::__1::__tree_node_base"*
  %185 = getelementptr inbounds %"class.std::__1::__tree_end_node", %"class.std::__1::__tree_end_node"* %114, i64 2
  %186 = bitcast %"class.std::__1::__tree_end_node"* %185 to %"class.std::__1::__tree_end_node"**
  %187 = load %"class.std::__1::__tree_end_node"*, %"class.std::__1::__tree_end_node"** %186, align 8
  %188 = getelementptr inbounds %"class.std::__1::__tree_end_node", %"class.std::__1::__tree_end_node"* %187, i64 0, i32 0
  %189 = load %"class.std::__1::__tree_node_base"*, %"class.std::__1::__tree_node_base"** %188, align 8
  %190 = icmp eq %"class.std::__1::__tree_node_base"* %189, %184
  br i1 %190, label %207, label %198

191:                                              ; preds = %178, %191
  %192 = phi %"class.std::__1::__tree_node_base"* [ %194, %191 ], [ %181, %178 ]
  %193 = getelementptr inbounds %"class.std::__1::__tree_node_base", %"class.std::__1::__tree_node_base"* %192, i64 0, i32 0, i32 0
  %194 = load %"class.std::__1::__tree_node_base"*, %"class.std::__1::__tree_node_base"** %193, align 8
  %195 = icmp eq %"class.std::__1::__tree_node_base"* %194, null
  br i1 %195, label %196, label %191

196:                                              ; preds = %191
  %197 = getelementptr inbounds %"class.std::__1::__tree_node_base", %"class.std::__1::__tree_node_base"* %192, i64 0, i32 0
  br label %207

198:                                              ; preds = %183, %198
  %199 = phi %"class.std::__1::__tree_end_node"** [ %202, %198 ], [ %186, %183 ]
  %200 = bitcast %"class.std::__1::__tree_end_node"** %199 to %"class.std::__1::__tree_node_base"**
  %201 = load %"class.std::__1::__tree_node_base"*, %"class.std::__1::__tree_node_base"** %200, align 8
  %202 = getelementptr inbounds %"class.std::__1::__tree_node_base", %"class.std::__1::__tree_node_base"* %201, i64 0, i32 2
  %203 = load %"class.std::__1::__tree_end_node"*, %"class.std::__1::__tree_end_node"** %202, align 8
  %204 = getelementptr inbounds %"class.std::__1::__tree_end_node", %"class.std::__1::__tree_end_node"* %203, i64 0, i32 0
  %205 = load %"class.std::__1::__tree_node_base"*, %"class.std::__1::__tree_node_base"** %204, align 8
  %206 = icmp eq %"class.std::__1::__tree_node_base"* %205, %201
  br i1 %206, label %207, label %198

207:                                              ; preds = %198, %183, %196
  %208 = phi %"class.std::__1::__tree_end_node"* [ %197, %196 ], [ %187, %183 ], [ %203, %198 ]
  %209 = getelementptr inbounds %"class.std::__1::__tree_end_node", %"class.std::__1::__tree_end_node"* %115, i64 1, i32 0
  %210 = load %"class.std::__1::__tree_node_base"*, %"class.std::__1::__tree_node_base"** %209, align 8
  %211 = icmp eq %"class.std::__1::__tree_node_base"* %210, null
  br i1 %211, label %212, label %220

212:                                              ; preds = %207
  %213 = bitcast %"class.std::__1::__tree_end_node"* %115 to %"class.std::__1::__tree_node_base"*
  %214 = getelementptr inbounds %"class.std::__1::__tree_end_node", %"class.std::__1::__tree_end_node"* %115, i64 2
  %215 = bitcast %"class.std::__1::__tree_end_node"* %214 to %"class.std::__1::__tree_end_node"**
  %216 = load %"class.std::__1::__tree_end_node"*, %"class.std::__1::__tree_end_node"** %215, align 8
  %217 = getelementptr inbounds %"class.std::__1::__tree_end_node", %"class.std::__1::__tree_end_node"* %216, i64 0, i32 0
  %218 = load %"class.std::__1::__tree_node_base"*, %"class.std::__1::__tree_node_base"** %217, align 8
  %219 = icmp eq %"class.std::__1::__tree_node_base"* %218, %213
  br i1 %219, label %236, label %227

220:                                              ; preds = %207, %220
  %221 = phi %"class.std::__1::__tree_node_base"* [ %223, %220 ], [ %210, %207 ]
  %222 = getelementptr inbounds %"class.std::__1::__tree_node_base", %"class.std::__1::__tree_node_base"* %221, i64 0, i32 0, i32 0
  %223 = load %"class.std::__1::__tree_node_base"*, %"class.std::__1::__tree_node_base"** %222, align 8
  %224 = icmp eq %"class.std::__1::__tree_node_base"* %223, null
  br i1 %224, label %225, label %220

225:                                              ; preds = %220
  %226 = getelementptr inbounds %"class.std::__1::__tree_node_base", %"class.std::__1::__tree_node_base"* %221, i64 0, i32 0
  br label %236

227:                                              ; preds = %212, %227
  %228 = phi %"class.std::__1::__tree_end_node"** [ %231, %227 ], [ %215, %212 ]
  %229 = bitcast %"class.std::__1::__tree_end_node"** %228 to %"class.std::__1::__tree_node_base"**
  %230 = load %"class.std::__1::__tree_node_base"*, %"class.std::__1::__tree_node_base"** %229, align 8
  %231 = getelementptr inbounds %"class.std::__1::__tree_node_base", %"class.std::__1::__tree_node_base"* %230, i64 0, i32 2
  %232 = load %"class.std::__1::__tree_end_node"*, %"class.std::__1::__tree_end_node"** %231, align 8
  %233 = getelementptr inbounds %"class.std::__1::__tree_end_node", %"class.std::__1::__tree_end_node"* %232, i64 0, i32 0
  %234 = load %"class.std::__1::__tree_node_base"*, %"class.std::__1::__tree_node_base"** %233, align 8
  %235 = icmp eq %"class.std::__1::__tree_node_base"* %234, %230
  br i1 %235, label %236, label %227

236:                                              ; preds = %227, %212, %225
  %237 = phi %"class.std::__1::__tree_end_node"* [ %226, %225 ], [ %216, %212 ], [ %232, %227 ]
  %238 = icmp eq %"class.std::__1::__tree_end_node"* %208, %11
  br i1 %238, label %239, label %112

239:                                              ; preds = %236
  %240 = and i8 %179, 1
  %241 = icmp eq i8 %240, 0
  br i1 %241, label %245, label %242

242:                                              ; preds = %106, %239
  %243 = bitcast %"class.std::__1::__tree_end_node"* %11 to %"class.std::__1::__tree_node.832"**
  %244 = load %"class.std::__1::__tree_node.832"*, %"class.std::__1::__tree_node.832"** %243, align 8
  br label %410

245:                                              ; preds = %21, %239
  %246 = icmp eq i64 %22, 0
  br i1 %246, label %247, label %281

247:                                              ; preds = %245
  %248 = getelementptr inbounds %class.ChromeDevToolsManagerDelegate, %class.ChromeDevToolsManagerDelegate* %0, i64 0, i32 3, i32 0, i32 0, i32 0
  %249 = load %class.DevToolsDeviceDiscovery*, %class.DevToolsDeviceDiscovery** %248, align 8
  store %class.DevToolsDeviceDiscovery* null, %class.DevToolsDeviceDiscovery** %248, align 8
  %250 = icmp eq %class.DevToolsDeviceDiscovery* %249, null
  br i1 %250, label %253, label %251

251:                                              ; preds = %247
  call void @_ZN23DevToolsDeviceDiscoveryD1Ev(%class.DevToolsDeviceDiscovery* nonnull %249) #14
  %252 = bitcast %class.DevToolsDeviceDiscovery* %249 to i8*
  call void @_ZdlPv(i8* %252) #15
  br label %253

253:                                              ; preds = %247, %251
  %254 = getelementptr inbounds %class.ChromeDevToolsManagerDelegate, %class.ChromeDevToolsManagerDelegate* %0, i64 0, i32 4, i32 0, i32 0
  %255 = load %class.scoped_refptr.79*, %class.scoped_refptr.79** %254, align 8
  %256 = getelementptr inbounds %class.ChromeDevToolsManagerDelegate, %class.ChromeDevToolsManagerDelegate* %0, i64 0, i32 4, i32 0, i32 1
  %257 = load %class.scoped_refptr.79*, %class.scoped_refptr.79** %256, align 8
  %258 = icmp eq %class.scoped_refptr.79* %257, %255
  br i1 %258, label %280, label %259

259:                                              ; preds = %253, %278
  %260 = phi %class.scoped_refptr.79* [ %261, %278 ], [ %257, %253 ]
  %261 = getelementptr inbounds %class.scoped_refptr.79, %class.scoped_refptr.79* %260, i64 -1
  %262 = getelementptr inbounds %class.scoped_refptr.79, %class.scoped_refptr.79* %261, i64 0, i32 0
  %263 = load %"class.content::DevToolsAgentHost"*, %"class.content::DevToolsAgentHost"** %262, align 8
  %264 = icmp eq %"class.content::DevToolsAgentHost"* %263, null
  br i1 %264, label %278, label %265

265:                                              ; preds = %259
  %266 = getelementptr inbounds %"class.content::DevToolsAgentHost", %"class.content::DevToolsAgentHost"* %263, i64 0, i32 1
  %267 = getelementptr inbounds %"class.base::RefCounted", %"class.base::RefCounted"* %266, i64 0, i32 0
  call void @_ZNK4base6subtle14RefCountedBase11ReleaseImplEv(%"class.base::subtle::RefCountedBase"* %267) #14
  %268 = getelementptr inbounds %"class.base::RefCounted", %"class.base::RefCounted"* %266, i64 0, i32 0, i32 0
  %269 = load i32, i32* %268, align 4
  %270 = icmp eq i32 %269, 0
  br i1 %270, label %271, label %278

271:                                              ; preds = %265
  %272 = getelementptr inbounds %"class.base::RefCounted", %"class.base::RefCounted"* %266, i64 -2
  %273 = bitcast %"class.base::RefCounted"* %272 to %"class.content::DevToolsAgentHost"*
  %274 = bitcast %"class.base::RefCounted"* %272 to void (%"class.content::DevToolsAgentHost"*)***
  %275 = load void (%"class.content::DevToolsAgentHost"*)**, void (%"class.content::DevToolsAgentHost"*)*** %274, align 8
  %276 = getelementptr inbounds void (%"class.content::DevToolsAgentHost"*)*, void (%"class.content::DevToolsAgentHost"*)** %275, i64 28
  %277 = load void (%"class.content::DevToolsAgentHost"*)*, void (%"class.content::DevToolsAgentHost"*)** %276, align 8
  call void %277(%"class.content::DevToolsAgentHost"* nonnull %273) #14
  br label %278

278:                                              ; preds = %271, %265, %259
  %279 = icmp eq %class.scoped_refptr.79* %261, %255
  br i1 %279, label %280, label %259

280:                                              ; preds = %278, %253
  store %class.scoped_refptr.79* %255, %class.scoped_refptr.79** %256, align 8
  br label %383

281:                                              ; preds = %245
  %282 = getelementptr inbounds %class.ChromeDevToolsManagerDelegate, %class.ChromeDevToolsManagerDelegate* %0, i64 0, i32 2
  %283 = getelementptr inbounds %"class.std::__1::unique_ptr", %"class.std::__1::unique_ptr"* %282, i64 0, i32 0, i32 0, i32 0
  %284 = load %class.AndroidDeviceManager*, %class.AndroidDeviceManager** %283, align 8
  %285 = icmp eq %class.AndroidDeviceManager* %284, null
  br i1 %285, label %286, label %297

286:                                              ; preds = %281
  %287 = call %class.AndroidDeviceManager* @_ZN20AndroidDeviceManager6CreateEv() #14
  %288 = ptrtoint %class.AndroidDeviceManager* %287 to i64
  %289 = load %class.AndroidDeviceManager*, %class.AndroidDeviceManager** %283, align 8
  %290 = bitcast %"class.std::__1::unique_ptr"* %282 to i64*
  store i64 %288, i64* %290, align 8
  %291 = icmp eq %class.AndroidDeviceManager* %289, null
  br i1 %291, label %297, label %292

292:                                              ; preds = %286
  %293 = bitcast %class.AndroidDeviceManager* %289 to void (%class.AndroidDeviceManager*)***
  %294 = load void (%class.AndroidDeviceManager*)**, void (%class.AndroidDeviceManager*)*** %293, align 8
  %295 = getelementptr inbounds void (%class.AndroidDeviceManager*)*, void (%class.AndroidDeviceManager*)** %294, i64 1
  %296 = load void (%class.AndroidDeviceManager*)*, void (%class.AndroidDeviceManager*)** %295, align 8
  call void %296(%class.AndroidDeviceManager* nonnull %289) #14
  br label %297

297:                                              ; preds = %292, %286, %281
  %298 = bitcast %"class.std::__1::vector.43"* %4 to i8*
  call void @llvm.lifetime.start.p0i8(i64 24, i8* nonnull %298) #14
  %299 = getelementptr inbounds %"class.std::__1::vector.43", %"class.std::__1::vector.43"* %4, i64 0, i32 0, i32 0
  %300 = getelementptr inbounds %"class.std::__1::vector.43", %"class.std::__1::vector.43"* %4, i64 0, i32 0, i32 1
  call void @llvm.memset.p0i8.i64(i8* nonnull align 8 %298, i8 0, i64 24, i1 false) #14
  %301 = bitcast %class.scoped_refptr.45* %5 to i8*
  call void @llvm.lifetime.start.p0i8(i64 8, i8* nonnull %301) #14
  %302 = call i8* @_Znwm(i64 48) #15
  %303 = bitcast i8* %302 to %class.TCPDeviceProvider*
  call void @_ZN17TCPDeviceProviderC1ERKNSt3__13setIN3net12HostPortPairENS0_4lessIS3_EENS0_9allocatorIS3_EEEE(%class.TCPDeviceProvider* nonnull %303, %"class.std::__1::set"* nonnull dereferenceable(24) %3) #14
  %304 = bitcast %class.scoped_refptr.45* %5 to i8**
  store i8* %302, i8** %304, align 8
  %305 = getelementptr inbounds i8, i8* %302, i64 8
  %306 = bitcast i8* %305 to i32*
  %307 = atomicrmw add i32* %306, i32 1 monotonic
  %308 = getelementptr inbounds %class.scoped_refptr.45, %class.scoped_refptr.45* %5, i64 0, i32 0
  call void @_ZNSt3__16vectorI13scoped_refptrIN20AndroidDeviceManager14DeviceProviderEENS_9allocatorIS4_EEE21__push_back_slow_pathIS4_EEvOT_(%"class.std::__1::vector.43"* nonnull %4, %class.scoped_refptr.45* nonnull dereferenceable(8) %5) #14
  %309 = load %"class.AndroidDeviceManager::DeviceProvider"*, %"class.AndroidDeviceManager::DeviceProvider"** %308, align 8
  %310 = icmp eq %"class.AndroidDeviceManager::DeviceProvider"* %309, null
  br i1 %310, label %323, label %311

311:                                              ; preds = %297
  %312 = getelementptr inbounds %"class.AndroidDeviceManager::DeviceProvider", %"class.AndroidDeviceManager::DeviceProvider"* %309, i64 0, i32 1
  %313 = getelementptr inbounds %"class.base::RefCountedThreadSafe.46", %"class.base::RefCountedThreadSafe.46"* %312, i64 0, i32 0, i32 0, i32 0, i32 0, i32 0, i32 0, i32 0, i32 0
  %314 = atomicrmw sub i32* %313, i32 1 acq_rel
  %315 = icmp eq i32 %314, 1
  br i1 %315, label %316, label %323

316:                                              ; preds = %311
  %317 = getelementptr inbounds %"class.base::RefCountedThreadSafe.46", %"class.base::RefCountedThreadSafe.46"* %312, i64 -2
  %318 = bitcast %"class.base::RefCountedThreadSafe.46"* %317 to %"class.AndroidDeviceManager::DeviceProvider"*
  %319 = bitcast %"class.base::RefCountedThreadSafe.46"* %317 to void (%"class.AndroidDeviceManager::DeviceProvider"*)***
  %320 = load void (%"class.AndroidDeviceManager::DeviceProvider"*)**, void (%"class.AndroidDeviceManager::DeviceProvider"*)*** %319, align 8
  %321 = getelementptr inbounds void (%"class.AndroidDeviceManager::DeviceProvider"*)*, void (%"class.AndroidDeviceManager::DeviceProvider"*)** %320, i64 6
  %322 = load void (%"class.AndroidDeviceManager::DeviceProvider"*)*, void (%"class.AndroidDeviceManager::DeviceProvider"*)** %321, align 8
  call void %322(%"class.AndroidDeviceManager::DeviceProvider"* nonnull %318) #14
  br label %323

323:                                              ; preds = %297, %311, %316
  call void @llvm.lifetime.end.p0i8(i64 8, i8* nonnull %301) #14
  %324 = load %class.AndroidDeviceManager*, %class.AndroidDeviceManager** %283, align 8
  call void @_ZN20AndroidDeviceManager18SetDeviceProvidersERKNSt3__16vectorI13scoped_refptrINS_14DeviceProviderEENS0_9allocatorIS4_EEEE(%class.AndroidDeviceManager* %324, %"class.std::__1::vector.43"* nonnull dereferenceable(24) %4) #14
  %325 = load %class.AndroidDeviceManager*, %class.AndroidDeviceManager** %283, align 8
  %326 = bitcast %"class.base::RepeatingCallback"* %6 to i8*
  call void @llvm.lifetime.start.p0i8(i64 8, i8* nonnull %326) #14
  %327 = ptrtoint %class.ChromeDevToolsManagerDelegate* %0 to i64
  %328 = call i8* @_Znwm(i64 56) #15, !noalias !5
  %329 = bitcast i8* %328 to %"class.base::internal::BindStateBase"*
  call void @_ZN4base8internal13BindStateBaseC2EPFvvEPFvPKS1_E(%"class.base::internal::BindStateBase"* nonnull %329, void ()* bitcast (void (%"class.base::internal::BindStateBase"*, %"class.std::__1::vector.750"*)* @_ZN4base8internal7InvokerINS0_9BindStateIM29ChromeDevToolsManagerDelegateFvRKNSt3__16vectorINS4_4pairI13scoped_refptrIN20AndroidDeviceManager6DeviceEES7_IN23DevToolsDeviceDiscovery12RemoteDeviceEEEENS4_9allocatorISE_EEEEEJNS0_17UnretainedWrapperIS3_EEEEEFvSJ_EE3RunEPNS0_13BindStateBaseESJ_ to void ()*), void (%"class.base::internal::BindStateBase"*)* nonnull @_ZN4base8internal9BindStateIM29ChromeDevToolsManagerDelegateFvRKNSt3__16vectorINS3_4pairI13scoped_refptrIN20AndroidDeviceManager6DeviceEES6_IN23DevToolsDeviceDiscovery12RemoteDeviceEEEENS3_9allocatorISD_EEEEEJNS0_17UnretainedWrapperIS2_EEEE7DestroyEPKNS0_13BindStateBaseE) #14, !noalias !5
  %330 = getelementptr inbounds i8, i8* %328, i64 32
  %331 = bitcast i8* %330 to <2 x i64>*
  store <2 x i64> <i64 ptrtoint (void (%class.ChromeDevToolsManagerDelegate*, %"class.std::__1::vector.750"*)* @_ZN29ChromeDevToolsManagerDelegate16DevicesAvailableERKNSt3__16vectorINS0_4pairI13scoped_refptrIN20AndroidDeviceManager6DeviceEES3_IN23DevToolsDeviceDiscovery12RemoteDeviceEEEENS0_9allocatorISA_EEEE to i64), i64 0>, <2 x i64>* %331, align 8, !noalias !5
  %332 = getelementptr inbounds i8, i8* %328, i64 48
  %333 = bitcast i8* %332 to i64*
  store i64 %327, i64* %333, align 8, !noalias !5
  %334 = bitcast %"class.base::RepeatingCallback"* %2 to i8*
  call void @llvm.lifetime.start.p0i8(i64 8, i8* nonnull %334)
  %335 = call i8* @_Znwm(i64 40) #15
  %336 = bitcast i8* %335 to %class.DevToolsDeviceDiscovery*
  %337 = getelementptr inbounds %"class.base::RepeatingCallback", %"class.base::RepeatingCallback"* %6, i64 0, i32 0, i32 0, i32 0, i32 0
  %338 = ptrtoint i8* %328 to i64
  %339 = bitcast %"class.base::RepeatingCallback"* %2 to i64*
  store i64 %338, i64* %339, align 8
  store %"class.base::internal::BindStateBase"* null, %"class.base::internal::BindStateBase"** %337, align 8
  call void @_ZN23DevToolsDeviceDiscoveryC1EP20AndroidDeviceManagerN4base17RepeatingCallbackIFvRKNSt3__16vectorINS4_4pairI13scoped_refptrINS0_6DeviceEES7_INS_12RemoteDeviceEEEENS4_9allocatorISC_EEEEEEE(%class.DevToolsDeviceDiscovery* nonnull %336, %class.AndroidDeviceManager* %325, %"class.base::RepeatingCallback"* nonnull %2) #14
  %340 = getelementptr inbounds %"class.base::RepeatingCallback", %"class.base::RepeatingCallback"* %2, i64 0, i32 0, i32 0
  call void @_ZN4base8internal12CallbackBaseD2Ev(%"class.base::internal::CallbackBase"* nonnull %340) #14
  call void @llvm.lifetime.end.p0i8(i64 8, i8* nonnull %334)
  %341 = ptrtoint i8* %335 to i64
  %342 = getelementptr inbounds %class.ChromeDevToolsManagerDelegate, %class.ChromeDevToolsManagerDelegate* %0, i64 0, i32 3
  %343 = getelementptr inbounds %"class.std::__1::unique_ptr.67", %"class.std::__1::unique_ptr.67"* %342, i64 0, i32 0, i32 0, i32 0
  %344 = load %class.DevToolsDeviceDiscovery*, %class.DevToolsDeviceDiscovery** %343, align 8
  %345 = bitcast %"class.std::__1::unique_ptr.67"* %342 to i64*
  store i64 %341, i64* %345, align 8
  %346 = icmp eq %class.DevToolsDeviceDiscovery* %344, null
  br i1 %346, label %349, label %347

347:                                              ; preds = %323
  call void @_ZN23DevToolsDeviceDiscoveryD1Ev(%class.DevToolsDeviceDiscovery* nonnull %344) #14
  %348 = bitcast %class.DevToolsDeviceDiscovery* %344 to i8*
  call void @_ZdlPv(i8* %348) #15
  br label %349

349:                                              ; preds = %347, %323
  %350 = getelementptr inbounds %"class.base::RepeatingCallback", %"class.base::RepeatingCallback"* %6, i64 0, i32 0, i32 0
  call void @_ZN4base8internal12CallbackBaseD2Ev(%"class.base::internal::CallbackBase"* nonnull %350) #14
  call void @llvm.lifetime.end.p0i8(i64 8, i8* nonnull %326) #14
  %351 = load %class.scoped_refptr.45*, %class.scoped_refptr.45** %299, align 8
  %352 = icmp eq %class.scoped_refptr.45* %351, null
  br i1 %352, label %382, label %353

353:                                              ; preds = %349
  %354 = bitcast %class.scoped_refptr.45* %351 to i8*
  %355 = load %class.scoped_refptr.45*, %class.scoped_refptr.45** %300, align 8
  %356 = icmp eq %class.scoped_refptr.45* %355, %351
  br i1 %356, label %380, label %357

357:                                              ; preds = %353, %375
  %358 = phi %class.scoped_refptr.45* [ %359, %375 ], [ %355, %353 ]
  %359 = getelementptr inbounds %class.scoped_refptr.45, %class.scoped_refptr.45* %358, i64 -1
  %360 = getelementptr inbounds %class.scoped_refptr.45, %class.scoped_refptr.45* %359, i64 0, i32 0
  %361 = load %"class.AndroidDeviceManager::DeviceProvider"*, %"class.AndroidDeviceManager::DeviceProvider"** %360, align 8
  %362 = icmp eq %"class.AndroidDeviceManager::DeviceProvider"* %361, null
  br i1 %362, label %375, label %363

363:                                              ; preds = %357
  %364 = getelementptr inbounds %"class.AndroidDeviceManager::DeviceProvider", %"class.AndroidDeviceManager::DeviceProvider"* %361, i64 0, i32 1
  %365 = getelementptr inbounds %"class.base::RefCountedThreadSafe.46", %"class.base::RefCountedThreadSafe.46"* %364, i64 0, i32 0, i32 0, i32 0, i32 0, i32 0, i32 0, i32 0, i32 0
  %366 = atomicrmw sub i32* %365, i32 1 acq_rel
  %367 = icmp eq i32 %366, 1
  br i1 %367, label %368, label %375

368:                                              ; preds = %363
  %369 = getelementptr inbounds %"class.base::RefCountedThreadSafe.46", %"class.base::RefCountedThreadSafe.46"* %364, i64 -2
  %370 = bitcast %"class.base::RefCountedThreadSafe.46"* %369 to %"class.AndroidDeviceManager::DeviceProvider"*
  %371 = bitcast %"class.base::RefCountedThreadSafe.46"* %369 to void (%"class.AndroidDeviceManager::DeviceProvider"*)***
  %372 = load void (%"class.AndroidDeviceManager::DeviceProvider"*)**, void (%"class.AndroidDeviceManager::DeviceProvider"*)*** %371, align 8
  %373 = getelementptr inbounds void (%"class.AndroidDeviceManager::DeviceProvider"*)*, void (%"class.AndroidDeviceManager::DeviceProvider"*)** %372, i64 6
  %374 = load void (%"class.AndroidDeviceManager::DeviceProvider"*)*, void (%"class.AndroidDeviceManager::DeviceProvider"*)** %373, align 8
  call void %374(%"class.AndroidDeviceManager::DeviceProvider"* nonnull %370) #14
  br label %375

375:                                              ; preds = %368, %363, %357
  %376 = icmp eq %class.scoped_refptr.45* %359, %351
  br i1 %376, label %377, label %357

377:                                              ; preds = %375
  %378 = bitcast %"class.std::__1::vector.43"* %4 to i8**
  %379 = load i8*, i8** %378, align 8
  br label %380

380:                                              ; preds = %377, %353
  %381 = phi i8* [ %379, %377 ], [ %354, %353 ]
  store %class.scoped_refptr.45* %351, %class.scoped_refptr.45** %300, align 8
  call void @_ZdlPv(i8* %381) #15
  br label %382

382:                                              ; preds = %349, %380
  call void @llvm.lifetime.end.p0i8(i64 24, i8* nonnull %298) #14
  br label %383

383:                                              ; preds = %382, %280
  %384 = bitcast %"class.std::__1::set"* %3 to <2 x i64>*
  %385 = load <2 x i64>, <2 x i64>* %384, align 16
  %386 = getelementptr inbounds %class.ChromeDevToolsManagerDelegate, %class.ChromeDevToolsManagerDelegate* %0, i64 0, i32 5, i32 0, i32 1, i32 0, i32 0
  %387 = bitcast %"class.std::__1::set"* %23 to <2 x i64>*
  %388 = load <2 x i64>, <2 x i64>* %387, align 8
  %389 = bitcast %"class.std::__1::set"* %23 to <2 x i64>*
  store <2 x i64> %385, <2 x i64>* %389, align 8
  %390 = bitcast %"class.std::__1::set"* %3 to <2 x i64>*
  store <2 x i64> %388, <2 x i64>* %390, align 16
  %391 = load i64, i64* %24, align 8
  %392 = load i64, i64* %10, align 16
  store i64 %392, i64* %24, align 8
  store i64 %391, i64* %10, align 16
  %393 = icmp eq i64 %392, 0
  %394 = extractelement <2 x i64> %388, i32 1
  %395 = inttoptr i64 %394 to %"class.std::__1::__tree_node_base"*
  %396 = inttoptr i64 %394 to %"class.std::__1::__tree_node.832"*
  br i1 %393, label %397, label %399

397:                                              ; preds = %383
  %398 = getelementptr inbounds %"class.std::__1::set", %"class.std::__1::set"* %23, i64 0, i32 0, i32 0
  store %"class.std::__1::__tree_end_node"* %386, %"class.std::__1::__tree_end_node"** %398, align 8
  br label %404

399:                                              ; preds = %383
  %400 = extractelement <2 x i64> %385, i32 1
  %401 = inttoptr i64 %400 to %"class.std::__1::__tree_node_base"*
  %402 = getelementptr inbounds %"class.std::__1::__tree_node_base", %"class.std::__1::__tree_node_base"* %401, i64 0, i32 2
  store %"class.std::__1::__tree_end_node"* %386, %"class.std::__1::__tree_end_node"** %402, align 8
  %403 = load i64, i64* %10, align 16
  br label %404

404:                                              ; preds = %399, %397
  %405 = phi i64 [ %403, %399 ], [ %391, %397 ]
  %406 = icmp eq i64 %405, 0
  br i1 %406, label %407, label %408

407:                                              ; preds = %404
  store %"class.std::__1::__tree_end_node"* %11, %"class.std::__1::__tree_end_node"** %8, align 16
  br label %410

408:                                              ; preds = %404
  %409 = getelementptr inbounds %"class.std::__1::__tree_node_base", %"class.std::__1::__tree_node_base"* %395, i64 0, i32 2
  store %"class.std::__1::__tree_end_node"* %11, %"class.std::__1::__tree_end_node"** %409, align 8
  br label %410

410:                                              ; preds = %242, %408, %407
  %411 = phi %"class.std::__1::__tree_node.832"* [ %244, %242 ], [ %396, %408 ], [ %396, %407 ]
  %412 = getelementptr inbounds %"class.std::__1::set", %"class.std::__1::set"* %3, i64 0, i32 0
  call void @_ZNSt3__16__treeIN3net12HostPortPairENS_4lessIS2_EENS_9allocatorIS2_EEE7destroyEPNS_11__tree_nodeIS2_PvEE(%"class.std::__1::__tree.85"* nonnull %412, %"class.std::__1::__tree_node.832"* %411) #14
  call void @llvm.lifetime.end.p0i8(i64 24, i8* nonnull %7) #14
  ret void
}

declare %class.AndroidDeviceManager* @_ZN20AndroidDeviceManager6CreateEv() local_unnamed_addr #3

; Function Attrs: nobuiltin nofree
declare noalias nonnull i8* @_Znwm(i64) local_unnamed_addr #7

declare void @_ZN17TCPDeviceProviderC1ERKNSt3__13setIN3net12HostPortPairENS0_4lessIS3_EENS0_9allocatorIS3_EEEE(%class.TCPDeviceProvider*, %"class.std::__1::set"* dereferenceable(24)) unnamed_addr #3

declare void @_ZN20AndroidDeviceManager18SetDeviceProvidersERKNSt3__16vectorI13scoped_refptrINS_14DeviceProviderEENS0_9allocatorIS4_EEEE(%class.AndroidDeviceManager*, %"class.std::__1::vector.43"* dereferenceable(24)) local_unnamed_addr #3

; Function Attrs: nounwind
declare void @_ZN4base8internal12CallbackBaseD2Ev(%"class.base::internal::CallbackBase"*) unnamed_addr #4

; Function Attrs: nounwind ssp uwtable
define hidden void @_ZN29ChromeDevToolsManagerDelegate35ResetAndroidDeviceManagerForTestingEv(%class.ChromeDevToolsManagerDelegate* nocapture) local_unnamed_addr #1 align 2 {
  %2 = getelementptr inbounds %class.ChromeDevToolsManagerDelegate, %class.ChromeDevToolsManagerDelegate* %0, i64 0, i32 2, i32 0, i32 0, i32 0
  %3 = load %class.AndroidDeviceManager*, %class.AndroidDeviceManager** %2, align 8
  store %class.AndroidDeviceManager* null, %class.AndroidDeviceManager** %2, align 8
  %4 = icmp eq %class.AndroidDeviceManager* %3, null
  br i1 %4, label %10, label %5

5:                                                ; preds = %1
  %6 = bitcast %class.AndroidDeviceManager* %3 to void (%class.AndroidDeviceManager*)***
  %7 = load void (%class.AndroidDeviceManager*)**, void (%class.AndroidDeviceManager*)*** %6, align 8
  %8 = getelementptr inbounds void (%class.AndroidDeviceManager*)*, void (%class.AndroidDeviceManager*)** %7, i64 1
  %9 = load void (%class.AndroidDeviceManager*)*, void (%class.AndroidDeviceManager*)** %8, align 8
  tail call void %9(%class.AndroidDeviceManager* nonnull %3) #14
  br label %10

10:                                               ; preds = %1, %5
  %11 = getelementptr inbounds %class.ChromeDevToolsManagerDelegate, %class.ChromeDevToolsManagerDelegate* %0, i64 0, i32 3, i32 0, i32 0, i32 0
  %12 = load %class.DevToolsDeviceDiscovery*, %class.DevToolsDeviceDiscovery** %11, align 8
  store %class.DevToolsDeviceDiscovery* null, %class.DevToolsDeviceDiscovery** %11, align 8
  %13 = icmp eq %class.DevToolsDeviceDiscovery* %12, null
  br i1 %13, label %16, label %14

14:                                               ; preds = %10
  tail call void @_ZN23DevToolsDeviceDiscoveryD1Ev(%class.DevToolsDeviceDiscovery* nonnull %12) #14
  %15 = bitcast %class.DevToolsDeviceDiscovery* %12 to i8*
  tail call void @_ZdlPv(i8* %15) #15
  br label %16

16:                                               ; preds = %10, %14
  ret void
}

; Function Attrs: nounwind ssp uwtable
define hidden void @_ZN29ChromeDevToolsManagerDelegate16CloseBrowserSoonEv() local_unnamed_addr #1 align 2 {
  %1 = alloca %"class.base::Location", align 8
  %2 = alloca %"class.base::OnceCallback.782", align 8
  %3 = tail call %"class.base::SingleThreadTaskRunner"* @_ZN7content21GetUIThreadTaskRunnerERKNS_17BrowserTaskTraitsE(%"class.content::BrowserTaskTraits"* dereferenceable(15) bitcast ({ %"struct.base::TaskTraitsExtensionStorage", i8, i8, i8, i8, i8, i8 }* @.ref.tmp to %"class.content::BrowserTaskTraits"*)) #14
  %4 = bitcast %"class.base::SingleThreadTaskRunner"* %3 to %"class.base::TaskRunner"*
  %5 = bitcast %"class.base::Location"* %1 to i8*
  call void @llvm.lifetime.start.p0i8(i64 32, i8* nonnull %5) #14
  call void @_ZN4base8Location7CurrentEPKcS2_i(%"class.base::Location"* nonnull sret %1, i8* getelementptr inbounds ([17 x i8], [17 x i8]* @.str, i64 0, i64 0), i8* getelementptr inbounds ([66 x i8], [66 x i8]* @.str.1, i64 0, i64 0), i32 353) #14
  %6 = call i8* @_Znwm(i64 40) #15, !noalias !10
  %7 = bitcast i8* %6 to %"class.base::internal::BindStateBase"*
  call void @_ZN4base8internal13BindStateBaseC2EPFvvEPFvPKS1_E(%"class.base::internal::BindStateBase"* nonnull %7, void ()* bitcast (void (%"class.base::internal::BindStateBase"*)* @"_ZN4base8internal7InvokerINS0_9BindStateIZN29ChromeDevToolsManagerDelegate16CloseBrowserSoonEvE3$_0JEEEFvvEE7RunOnceEPNS0_13BindStateBaseE" to void ()*), void (%"class.base::internal::BindStateBase"*)* nonnull @"_ZN4base8internal9BindStateIZN29ChromeDevToolsManagerDelegate16CloseBrowserSoonEvE3$_0JEE7DestroyEPKNS0_13BindStateBaseE") #14, !noalias !10
  %8 = bitcast %"class.base::OnceCallback.782"* %2 to i8**
  store i8* %6, i8** %8, align 8, !alias.scope !10
  %9 = call zeroext i1 @_ZN4base10TaskRunner8PostTaskERKNS_8LocationENS_12OnceCallbackIFvvEEE(%"class.base::TaskRunner"* %4, %"class.base::Location"* nonnull dereferenceable(32) %1, %"class.base::OnceCallback.782"* nonnull %2) #14
  %10 = getelementptr inbounds %"class.base::OnceCallback.782", %"class.base::OnceCallback.782"* %2, i64 0, i32 0
  call void @_ZN4base8internal12CallbackBaseD2Ev(%"class.base::internal::CallbackBase"* nonnull %10) #14
  call void @llvm.lifetime.end.p0i8(i64 32, i8* nonnull %5) #14
  %11 = icmp eq %"class.base::SingleThreadTaskRunner"* %3, null
  br i1 %11, label %20, label %12

12:                                               ; preds = %0
  %13 = getelementptr inbounds %"class.base::SingleThreadTaskRunner", %"class.base::SingleThreadTaskRunner"* %3, i64 0, i32 0, i32 0, i32 1
  %14 = getelementptr inbounds %"class.base::RefCountedThreadSafe.30", %"class.base::RefCountedThreadSafe.30"* %13, i64 0, i32 0, i32 0, i32 0, i32 0, i32 0, i32 0, i32 0, i32 0
  %15 = atomicrmw sub i32* %14, i32 1 acq_rel
  %16 = icmp eq i32 %15, 1
  br i1 %16, label %17, label %20

17:                                               ; preds = %12
  %18 = getelementptr inbounds %"class.base::RefCountedThreadSafe.30", %"class.base::RefCountedThreadSafe.30"* %13, i64 -2
  %19 = bitcast %"class.base::RefCountedThreadSafe.30"* %18 to %"class.base::TaskRunner"*
  call void @_ZN4base16TaskRunnerTraits8DestructEPKNS_10TaskRunnerE(%"class.base::TaskRunner"* %19) #14
  br label %20

20:                                               ; preds = %0, %12, %17
  ret void
}

declare %"class.base::SingleThreadTaskRunner"* @_ZN7content21GetUIThreadTaskRunnerERKNS_17BrowserTaskTraitsE(%"class.content::BrowserTaskTraits"* dereferenceable(15)) local_unnamed_addr #3

declare zeroext i1 @_ZN4base10TaskRunner8PostTaskERKNS_8LocationENS_12OnceCallbackIFvvEEE(%"class.base::TaskRunner"*, %"class.base::Location"* dereferenceable(32), %"class.base::OnceCallback.782"*) local_unnamed_addr #3

declare void @_ZN4base8Location7CurrentEPKcS2_i(%"class.base::Location"* sret, i8*, i8*, i32) local_unnamed_addr #3

declare void @_ZN7content23DevToolsManagerDelegate20GetTargetDescriptionEPNS_11WebContentsE(%"class.std::__1::basic_string"* sret, %"class.content::DevToolsManagerDelegate"*, %"class.content::WebContents"*) unnamed_addr #3

declare void @_ZN7content23DevToolsManagerDelegate22RemoteDebuggingTargetsEv(%"class.std::__1::vector.77"* sret, %"class.content::DevToolsManagerDelegate"*) unnamed_addr #3

declare zeroext i1 @_ZN7content23DevToolsManagerDelegate27IsBrowserTargetDiscoverableEv(%"class.content::DevToolsManagerDelegate"*) unnamed_addr #3

; Function Attrs: nounwind ssp uwtable
define linkonce_odr hidden void @_ZN4base6ranges4findIRK20AllTabContentsesListPN7content11WebContentsENS_8identityENSt3__120forward_iterator_tagEEEDaOT_RKT0_T1_(%"class.AllTabContentsesList::Iterator"* noalias sret, %class.AllTabContentsesList* dereferenceable(1), %"class.content::WebContents"** dereferenceable(8)) local_unnamed_addr #1 comdat {
  %4 = alloca %"class.AllTabContentsesList::Iterator", align 8
  %5 = alloca %"class.AllTabContentsesList::Iterator", align 8
  call void @_ZN20AllTabContentsesList8IteratorC1Eb(%"class.AllTabContentsesList::Iterator"* nonnull %4, i1 zeroext false) #14
  call void @_ZN20AllTabContentsesList8IteratorC1Eb(%"class.AllTabContentsesList::Iterator"* nonnull %5, i1 zeroext true) #14
  %6 = getelementptr inbounds %"class.AllTabContentsesList::Iterator", %"class.AllTabContentsesList::Iterator"* %4, i64 0, i32 1
  %7 = load %"class.content::WebContents"*, %"class.content::WebContents"** %6, align 8, !noalias !15
  %8 = getelementptr inbounds %"class.AllTabContentsesList::Iterator", %"class.AllTabContentsesList::Iterator"* %5, i64 0, i32 1
  %9 = load %"class.content::WebContents"*, %"class.content::WebContents"** %8, align 8, !noalias !15
  %10 = icmp eq %"class.content::WebContents"* %7, %9
  %11 = load %"class.content::WebContents"*, %"class.content::WebContents"** %2, align 8, !noalias !15
  %12 = icmp eq %"class.content::WebContents"* %7, %11
  %13 = or i1 %10, %12
  br i1 %13, label %21, label %14

14:                                               ; preds = %3, %14
  call void @_ZN20AllTabContentsesList8Iterator4NextEv(%"class.AllTabContentsesList::Iterator"* nonnull %4) #14
  %15 = load %"class.content::WebContents"*, %"class.content::WebContents"** %6, align 8, !noalias !15
  %16 = load %"class.content::WebContents"*, %"class.content::WebContents"** %8, align 8, !noalias !15
  %17 = icmp eq %"class.content::WebContents"* %15, %16
  %18 = load %"class.content::WebContents"*, %"class.content::WebContents"** %2, align 8, !noalias !15
  %19 = icmp eq %"class.content::WebContents"* %15, %18
  %20 = or i1 %17, %19
  br i1 %20, label %21, label %14

21:                                               ; preds = %14, %3
  call void @_ZN20AllTabContentsesList8IteratorC1ERKS0_(%"class.AllTabContentsesList::Iterator"* %0, %"class.AllTabContentsesList::Iterator"* nonnull dereferenceable(24) %4) #14
  call void @_ZN20AllTabContentsesList8IteratorD1Ev(%"class.AllTabContentsesList::Iterator"* nonnull %5) #14
  call void @_ZN20AllTabContentsesList8IteratorD1Ev(%"class.AllTabContentsesList::Iterator"* nonnull %4) #14
  ret void
}

; Function Attrs: nounwind
declare void @_ZN20AllTabContentsesList8IteratorD1Ev(%"class.AllTabContentsesList::Iterator"*) unnamed_addr #4

declare void @_ZN20AllTabContentsesList8IteratorC1ERKS0_(%"class.AllTabContentsesList::Iterator"*, %"class.AllTabContentsesList::Iterator"* dereferenceable(24)) unnamed_addr #3

declare void @_ZN20AllTabContentsesList8Iterator4NextEv(%"class.AllTabContentsesList::Iterator"*) local_unnamed_addr #3

declare void @_ZN20AllTabContentsesList8IteratorC1Eb(%"class.AllTabContentsesList::Iterator"*, i1 zeroext) unnamed_addr #3

declare %"class.extensions::ExtensionHost"* @_ZN10extensions14ProcessManager29GetBackgroundHostForExtensionERKNSt3__112basic_stringIcNS1_11char_traitsIcEENS1_9allocatorIcEEEE(%"class.extensions::ProcessManager"*, %"class.std::__1::basic_string"* dereferenceable(24)) local_unnamed_addr #3

declare dereferenceable(24) %"class.std::__1::basic_string"* @_ZNK10extensions9Extension2idEv(%"class.extensions::Extension"*) local_unnamed_addr #3

declare zeroext i1 @_ZNK10extensions9Extension13is_hosted_appEv(%"class.extensions::Extension"*) local_unnamed_addr #3

declare zeroext i1 @_ZNK10extensions9Extension22is_legacy_packaged_appEv(%"class.extensions::Extension"*) local_unnamed_addr #3

declare zeroext i1 @_ZNK10extensions9Extension15is_platform_appEv(%"class.extensions::Extension"*) local_unnamed_addr #3

declare dereferenceable(24) %"class.std::__1::basic_string"* @_ZNSt3__112basic_stringIcNS_11char_traitsIcEENS_9allocatorIcEEE17__assign_no_aliasILb1EEERS5_PKcm(%"class.std::__1::basic_string"*, i8*, i64) local_unnamed_addr #3

declare dereferenceable(24) %"class.std::__1::basic_string"* @_ZNSt3__112basic_stringIcNS_11char_traitsIcEENS_9allocatorIcEEE17__assign_no_aliasILb0EEERS5_PKcm(%"class.std::__1::basic_string"*, i8*, i64) local_unnamed_addr #3

; Function Attrs: argmemonly nofree nounwind readonly
declare i64 @strlen(i8* nocapture) local_unnamed_addr #8

; Function Attrs: nofree nounwind readonly
declare i32 @memcmp(i8* nocapture, i8* nocapture, i64) local_unnamed_addr #9

declare void @_ZN4base16TaskRunnerTraits8DestructEPKNS_10TaskRunnerE(%"class.base::TaskRunner"*) local_unnamed_addr #3

; Function Attrs: noreturn
declare void @_ZNKSt3__121__basic_string_commonILb1EE20__throw_length_errorEv(%"class.std::__1::__basic_string_common"*) local_unnamed_addr #10

; Function Attrs: noreturn nounwind
declare void @abort() local_unnamed_addr #11

; Function Attrs: nounwind ssp uwtable
define linkonce_odr hidden void @_ZNSt3__16__treeINS_12__value_typeIPN7content30DevToolsAgentHostClientChannelENS_10unique_ptrI21ChromeDevToolsSessionNS_14default_deleteIS6_EEEEEENS_19__map_value_compareIS4_SA_NS_4lessIS4_EELb1EEENS_9allocatorISA_EEE7destroyEPNS_11__tree_nodeISA_PvEE(%"class.std::__1::__tree"*, %"class.std::__1::__tree_node"*) local_unnamed_addr #1 comdat align 2 {
  %3 = icmp eq %"class.std::__1::__tree_node"* %1, null
  br i1 %3, label %20, label %4

4:                                                ; preds = %2
  %5 = bitcast %"class.std::__1::__tree_node"* %1 to %"class.std::__1::__tree_node"**
  %6 = load %"class.std::__1::__tree_node"*, %"class.std::__1::__tree_node"** %5, align 8
  tail call void @_ZNSt3__16__treeINS_12__value_typeIPN7content30DevToolsAgentHostClientChannelENS_10unique_ptrI21ChromeDevToolsSessionNS_14default_deleteIS6_EEEEEENS_19__map_value_compareIS4_SA_NS_4lessIS4_EELb1EEENS_9allocatorISA_EEE7destroyEPNS_11__tree_nodeISA_PvEE(%"class.std::__1::__tree"* %0, %"class.std::__1::__tree_node"* %6) #14
  %7 = getelementptr inbounds %"class.std::__1::__tree_node", %"class.std::__1::__tree_node"* %1, i64 0, i32 0, i32 1
  %8 = bitcast %"class.std::__1::__tree_node_base"** %7 to %"class.std::__1::__tree_node"**
  %9 = load %"class.std::__1::__tree_node"*, %"class.std::__1::__tree_node"** %8, align 8
  tail call void @_ZNSt3__16__treeINS_12__value_typeIPN7content30DevToolsAgentHostClientChannelENS_10unique_ptrI21ChromeDevToolsSessionNS_14default_deleteIS6_EEEEEENS_19__map_value_compareIS4_SA_NS_4lessIS4_EELb1EEENS_9allocatorISA_EEE7destroyEPNS_11__tree_nodeISA_PvEE(%"class.std::__1::__tree"* %0, %"class.std::__1::__tree_node"* %9) #14
  %10 = getelementptr inbounds %"class.std::__1::__tree_node", %"class.std::__1::__tree_node"* %1, i64 0, i32 1, i32 0, i32 1, i32 0, i32 0, i32 0
  %11 = load %class.ChromeDevToolsSession*, %class.ChromeDevToolsSession** %10, align 8
  store %class.ChromeDevToolsSession* null, %class.ChromeDevToolsSession** %10, align 8
  %12 = icmp eq %class.ChromeDevToolsSession* %11, null
  br i1 %12, label %18, label %13

13:                                               ; preds = %4
  %14 = bitcast %class.ChromeDevToolsSession* %11 to void (%class.ChromeDevToolsSession*)***
  %15 = load void (%class.ChromeDevToolsSession*)**, void (%class.ChromeDevToolsSession*)*** %14, align 8
  %16 = getelementptr inbounds void (%class.ChromeDevToolsSession*)*, void (%class.ChromeDevToolsSession*)** %15, i64 1
  %17 = load void (%class.ChromeDevToolsSession*)*, void (%class.ChromeDevToolsSession*)** %16, align 8
  tail call void %17(%class.ChromeDevToolsSession* nonnull %11) #14
  br label %18

18:                                               ; preds = %4, %13
  %19 = bitcast %"class.std::__1::__tree_node"* %1 to i8*
  tail call void @_ZdlPv(i8* %19) #15
  br label %20

20:                                               ; preds = %2, %18
  ret void
}

; Function Attrs: nounwind ssp uwtable
define linkonce_odr hidden void @_ZNSt3__16__treeIN3net12HostPortPairENS_4lessIS2_EENS_9allocatorIS2_EEE7destroyEPNS_11__tree_nodeIS2_PvEE(%"class.std::__1::__tree.85"*, %"class.std::__1::__tree_node.832"*) local_unnamed_addr #1 comdat align 2 {
  %3 = icmp eq %"class.std::__1::__tree_node.832"* %1, null
  br i1 %3, label %20, label %4

4:                                                ; preds = %2
  %5 = bitcast %"class.std::__1::__tree_node.832"* %1 to %"class.std::__1::__tree_node.832"**
  %6 = load %"class.std::__1::__tree_node.832"*, %"class.std::__1::__tree_node.832"** %5, align 8
  tail call void @_ZNSt3__16__treeIN3net12HostPortPairENS_4lessIS2_EENS_9allocatorIS2_EEE7destroyEPNS_11__tree_nodeIS2_PvEE(%"class.std::__1::__tree.85"* %0, %"class.std::__1::__tree_node.832"* %6) #14
  %7 = getelementptr inbounds %"class.std::__1::__tree_node.832", %"class.std::__1::__tree_node.832"* %1, i64 0, i32 0, i32 1
  %8 = bitcast %"class.std::__1::__tree_node_base"** %7 to %"class.std::__1::__tree_node.832"**
  %9 = load %"class.std::__1::__tree_node.832"*, %"class.std::__1::__tree_node.832"** %8, align 8
  tail call void @_ZNSt3__16__treeIN3net12HostPortPairENS_4lessIS2_EENS_9allocatorIS2_EEE7destroyEPNS_11__tree_nodeIS2_PvEE(%"class.std::__1::__tree.85"* %0, %"class.std::__1::__tree_node.832"* %9) #14
  %10 = getelementptr inbounds %"class.std::__1::__tree_node.832", %"class.std::__1::__tree_node.832"* %1, i64 0, i32 2
  %11 = bitcast %"class.net::HostPortPair"* %10 to %"struct.std::__1::basic_string<char, std::__1::char_traits<char>, std::__1::allocator<char> >::__short"*
  %12 = getelementptr inbounds %"struct.std::__1::basic_string<char, std::__1::char_traits<char>, std::__1::allocator<char> >::__short", %"struct.std::__1::basic_string<char, std::__1::char_traits<char>, std::__1::allocator<char> >::__short"* %11, i64 0, i32 1, i32 0
  %13 = load i8, i8* %12, align 1
  %14 = icmp slt i8 %13, 0
  br i1 %14, label %15, label %18

15:                                               ; preds = %4
  %16 = getelementptr inbounds %"class.net::HostPortPair", %"class.net::HostPortPair"* %10, i64 0, i32 0, i32 0, i32 0, i32 0, i32 0, i32 0, i32 0
  %17 = load i8*, i8** %16, align 8
  tail call void @_ZdlPv(i8* %17) #15
  br label %18

18:                                               ; preds = %4, %15
  %19 = bitcast %"class.std::__1::__tree_node.832"* %1 to i8*
  tail call void @_ZdlPv(i8* %19) #15
  br label %20

20:                                               ; preds = %2, %18
  ret void
}

; Function Attrs: nounwind
declare void @_ZN15ScopedKeepAliveD1Ev(%class.ScopedKeepAlive*) unnamed_addr #4

declare void @_ZN15ScopedKeepAliveC1E15KeepAliveOrigin22KeepAliveRestartOption(%class.ScopedKeepAlive*, i32, i32) unnamed_addr #3

declare void @_ZNK4base6subtle14RefCountedBase10AddRefImplEv(%"class.base::subtle::RefCountedBase"*) local_unnamed_addr #3

declare void @_ZNK4base6subtle14RefCountedBase11ReleaseImplEv(%"class.base::subtle::RefCountedBase"*) local_unnamed_addr #3

declare void @_ZN21ChromeDevToolsSessionC1EPN7content30DevToolsAgentHostClientChannelE(%class.ChromeDevToolsSession*, %"class.content::DevToolsAgentHostClientChannel"*) unnamed_addr #3

; Function Attrs: nounwind ssp uwtable
define linkonce_odr hidden void @_ZNSt3__127__tree_balance_after_insertIPNS_16__tree_node_baseIPvEEEEvT_S5_(%"class.std::__1::__tree_node_base"*, %"class.std::__1::__tree_node_base"*) local_unnamed_addr #1 comdat {
  %3 = icmp eq %"class.std::__1::__tree_node_base"* %1, %0
  %4 = getelementptr inbounds %"class.std::__1::__tree_node_base", %"class.std::__1::__tree_node_base"* %1, i64 0, i32 3
  %5 = zext i1 %3 to i8
  store i8 %5, i8* %4, align 8
  br i1 %3, label %156, label %6

6:                                                ; preds = %2, %149
  %7 = phi %"class.std::__1::__tree_node_base"* [ %20, %149 ], [ %1, %2 ]
  %8 = getelementptr inbounds %"class.std::__1::__tree_node_base", %"class.std::__1::__tree_node_base"* %7, i64 0, i32 2
  %9 = bitcast %"class.std::__1::__tree_end_node"** %8 to %"class.std::__1::__tree_node_base"**
  %10 = load %"class.std::__1::__tree_node_base"*, %"class.std::__1::__tree_node_base"** %9, align 8
  %11 = getelementptr inbounds %"class.std::__1::__tree_node_base", %"class.std::__1::__tree_node_base"* %10, i64 0, i32 3
  %12 = load i8, i8* %11, align 8, !range !18
  %13 = icmp eq i8 %12, 0
  br i1 %13, label %14, label %156

14:                                               ; preds = %6
  %15 = getelementptr inbounds %"class.std::__1::__tree_node_base", %"class.std::__1::__tree_node_base"* %10, i64 0, i32 2
  %16 = load %"class.std::__1::__tree_end_node"*, %"class.std::__1::__tree_end_node"** %15, align 8
  %17 = getelementptr inbounds %"class.std::__1::__tree_end_node", %"class.std::__1::__tree_end_node"* %16, i64 0, i32 0
  %18 = load %"class.std::__1::__tree_node_base"*, %"class.std::__1::__tree_node_base"** %17, align 8
  %19 = icmp eq %"class.std::__1::__tree_node_base"* %18, %10
  %20 = bitcast %"class.std::__1::__tree_end_node"* %16 to %"class.std::__1::__tree_node_base"*
  br i1 %19, label %21, label %87

21:                                               ; preds = %14
  %22 = getelementptr inbounds %"class.std::__1::__tree_end_node", %"class.std::__1::__tree_end_node"* %16, i64 1, i32 0
  %23 = load %"class.std::__1::__tree_node_base"*, %"class.std::__1::__tree_node_base"** %22, align 8
  %24 = icmp eq %"class.std::__1::__tree_node_base"* %23, null
  br i1 %24, label %29, label %25

25:                                               ; preds = %21
  %26 = getelementptr inbounds %"class.std::__1::__tree_node_base", %"class.std::__1::__tree_node_base"* %23, i64 0, i32 3
  %27 = load i8, i8* %26, align 8, !range !18
  %28 = icmp eq i8 %27, 0
  br i1 %28, label %149, label %29

29:                                               ; preds = %25, %21
  %30 = getelementptr inbounds %"class.std::__1::__tree_node_base", %"class.std::__1::__tree_node_base"* %10, i64 0, i32 2
  %31 = bitcast %"class.std::__1::__tree_end_node"* %16 to %"class.std::__1::__tree_node_base"*
  %32 = getelementptr inbounds %"class.std::__1::__tree_node_base", %"class.std::__1::__tree_node_base"* %10, i64 0, i32 0, i32 0
  %33 = load %"class.std::__1::__tree_node_base"*, %"class.std::__1::__tree_node_base"** %32, align 8
  %34 = icmp eq %"class.std::__1::__tree_node_base"* %33, %7
  br i1 %34, label %61, label %35

35:                                               ; preds = %29
  %36 = ptrtoint %"class.std::__1::__tree_end_node"* %16 to i64
  %37 = getelementptr inbounds %"class.std::__1::__tree_node_base", %"class.std::__1::__tree_node_base"* %10, i64 0, i32 1
  %38 = load %"class.std::__1::__tree_node_base"*, %"class.std::__1::__tree_node_base"** %37, align 8
  %39 = getelementptr inbounds %"class.std::__1::__tree_node_base", %"class.std::__1::__tree_node_base"* %38, i64 0, i32 0, i32 0
  %40 = load %"class.std::__1::__tree_node_base"*, %"class.std::__1::__tree_node_base"** %39, align 8
  store %"class.std::__1::__tree_node_base"* %40, %"class.std::__1::__tree_node_base"** %37, align 8
  %41 = icmp eq %"class.std::__1::__tree_node_base"* %40, null
  br i1 %41, label %47, label %42

42:                                               ; preds = %35
  %43 = getelementptr inbounds %"class.std::__1::__tree_node_base", %"class.std::__1::__tree_node_base"* %10, i64 0, i32 0
  %44 = getelementptr inbounds %"class.std::__1::__tree_node_base", %"class.std::__1::__tree_node_base"* %40, i64 0, i32 2
  store %"class.std::__1::__tree_end_node"* %43, %"class.std::__1::__tree_end_node"** %44, align 8
  %45 = bitcast %"class.std::__1::__tree_end_node"** %30 to i64*
  %46 = load i64, i64* %45, align 8
  br label %47

47:                                               ; preds = %35, %42
  %48 = phi i64 [ %46, %42 ], [ %36, %35 ]
  %49 = getelementptr inbounds %"class.std::__1::__tree_node_base", %"class.std::__1::__tree_node_base"* %38, i64 0, i32 2
  %50 = bitcast %"class.std::__1::__tree_end_node"** %49 to i64*
  store i64 %48, i64* %50, align 8
  %51 = load %"class.std::__1::__tree_end_node"*, %"class.std::__1::__tree_end_node"** %30, align 8
  %52 = getelementptr inbounds %"class.std::__1::__tree_end_node", %"class.std::__1::__tree_end_node"* %51, i64 0, i32 0
  %53 = load %"class.std::__1::__tree_node_base"*, %"class.std::__1::__tree_node_base"** %52, align 8
  %54 = icmp eq %"class.std::__1::__tree_node_base"* %53, %10
  %55 = getelementptr inbounds %"class.std::__1::__tree_end_node", %"class.std::__1::__tree_end_node"* %51, i64 1, i32 0
  %56 = select i1 %54, %"class.std::__1::__tree_node_base"** %52, %"class.std::__1::__tree_node_base"** %55
  store %"class.std::__1::__tree_node_base"* %38, %"class.std::__1::__tree_node_base"** %56, align 8
  store %"class.std::__1::__tree_node_base"* %10, %"class.std::__1::__tree_node_base"** %39, align 8
  %57 = getelementptr inbounds %"class.std::__1::__tree_node_base", %"class.std::__1::__tree_node_base"* %38, i64 0, i32 0
  store %"class.std::__1::__tree_end_node"* %57, %"class.std::__1::__tree_end_node"** %30, align 8
  %58 = getelementptr inbounds %"class.std::__1::__tree_node_base", %"class.std::__1::__tree_node_base"* %38, i64 0, i32 2
  %59 = bitcast %"class.std::__1::__tree_end_node"** %58 to %"class.std::__1::__tree_node_base"**
  %60 = load %"class.std::__1::__tree_node_base"*, %"class.std::__1::__tree_node_base"** %59, align 8
  br label %61

61:                                               ; preds = %47, %29
  %62 = phi %"class.std::__1::__tree_node_base"* [ %31, %29 ], [ %60, %47 ]
  %63 = phi %"class.std::__1::__tree_node_base"* [ %10, %29 ], [ %38, %47 ]
  %64 = getelementptr inbounds %"class.std::__1::__tree_node_base", %"class.std::__1::__tree_node_base"* %63, i64 0, i32 3
  store i8 1, i8* %64, align 8
  %65 = getelementptr inbounds %"class.std::__1::__tree_node_base", %"class.std::__1::__tree_node_base"* %62, i64 0, i32 3
  store i8 0, i8* %65, align 8
  %66 = getelementptr inbounds %"class.std::__1::__tree_node_base", %"class.std::__1::__tree_node_base"* %62, i64 0, i32 0, i32 0
  %67 = load %"class.std::__1::__tree_node_base"*, %"class.std::__1::__tree_node_base"** %66, align 8
  %68 = getelementptr inbounds %"class.std::__1::__tree_node_base", %"class.std::__1::__tree_node_base"* %67, i64 0, i32 1
  %69 = load %"class.std::__1::__tree_node_base"*, %"class.std::__1::__tree_node_base"** %68, align 8
  store %"class.std::__1::__tree_node_base"* %69, %"class.std::__1::__tree_node_base"** %66, align 8
  %70 = icmp eq %"class.std::__1::__tree_node_base"* %69, null
  br i1 %70, label %74, label %71

71:                                               ; preds = %61
  %72 = getelementptr inbounds %"class.std::__1::__tree_node_base", %"class.std::__1::__tree_node_base"* %62, i64 0, i32 0
  %73 = getelementptr inbounds %"class.std::__1::__tree_node_base", %"class.std::__1::__tree_node_base"* %69, i64 0, i32 2
  store %"class.std::__1::__tree_end_node"* %72, %"class.std::__1::__tree_end_node"** %73, align 8
  br label %74

74:                                               ; preds = %71, %61
  %75 = getelementptr inbounds %"class.std::__1::__tree_node_base", %"class.std::__1::__tree_node_base"* %62, i64 0, i32 2
  %76 = bitcast %"class.std::__1::__tree_end_node"** %75 to i64*
  %77 = load i64, i64* %76, align 8
  %78 = getelementptr inbounds %"class.std::__1::__tree_node_base", %"class.std::__1::__tree_node_base"* %67, i64 0, i32 2
  %79 = bitcast %"class.std::__1::__tree_end_node"** %78 to i64*
  store i64 %77, i64* %79, align 8
  %80 = load %"class.std::__1::__tree_end_node"*, %"class.std::__1::__tree_end_node"** %75, align 8
  %81 = getelementptr inbounds %"class.std::__1::__tree_end_node", %"class.std::__1::__tree_end_node"* %80, i64 0, i32 0
  %82 = load %"class.std::__1::__tree_node_base"*, %"class.std::__1::__tree_node_base"** %81, align 8
  %83 = icmp eq %"class.std::__1::__tree_node_base"* %82, %62
  %84 = getelementptr inbounds %"class.std::__1::__tree_end_node", %"class.std::__1::__tree_end_node"* %80, i64 1, i32 0
  %85 = select i1 %83, %"class.std::__1::__tree_node_base"** %81, %"class.std::__1::__tree_node_base"** %84
  store %"class.std::__1::__tree_node_base"* %67, %"class.std::__1::__tree_node_base"** %85, align 8
  store %"class.std::__1::__tree_node_base"* %62, %"class.std::__1::__tree_node_base"** %68, align 8
  %86 = getelementptr inbounds %"class.std::__1::__tree_node_base", %"class.std::__1::__tree_node_base"* %67, i64 0, i32 0
  store %"class.std::__1::__tree_end_node"* %86, %"class.std::__1::__tree_end_node"** %75, align 8
  br label %156

87:                                               ; preds = %14
  %88 = icmp eq %"class.std::__1::__tree_node_base"* %18, null
  br i1 %88, label %93, label %89

89:                                               ; preds = %87
  %90 = getelementptr inbounds %"class.std::__1::__tree_node_base", %"class.std::__1::__tree_node_base"* %18, i64 0, i32 3
  %91 = load i8, i8* %90, align 8, !range !18
  %92 = icmp eq i8 %91, 0
  br i1 %92, label %149, label %93

93:                                               ; preds = %89, %87
  %94 = getelementptr inbounds %"class.std::__1::__tree_node_base", %"class.std::__1::__tree_node_base"* %10, i64 0, i32 2
  %95 = bitcast %"class.std::__1::__tree_end_node"* %16 to %"class.std::__1::__tree_node_base"*
  %96 = getelementptr inbounds %"class.std::__1::__tree_node_base", %"class.std::__1::__tree_node_base"* %10, i64 0, i32 0, i32 0
  %97 = load %"class.std::__1::__tree_node_base"*, %"class.std::__1::__tree_node_base"** %96, align 8
  %98 = icmp eq %"class.std::__1::__tree_node_base"* %97, %7
  br i1 %98, label %99, label %123

99:                                               ; preds = %93
  %100 = ptrtoint %"class.std::__1::__tree_end_node"* %16 to i64
  %101 = getelementptr inbounds %"class.std::__1::__tree_node_base", %"class.std::__1::__tree_node_base"* %10, i64 0, i32 0, i32 0
  %102 = getelementptr inbounds %"class.std::__1::__tree_node_base", %"class.std::__1::__tree_node_base"* %7, i64 0, i32 1
  %103 = load %"class.std::__1::__tree_node_base"*, %"class.std::__1::__tree_node_base"** %102, align 8
  store %"class.std::__1::__tree_node_base"* %103, %"class.std::__1::__tree_node_base"** %101, align 8
  %104 = icmp eq %"class.std::__1::__tree_node_base"* %103, null
  br i1 %104, label %110, label %105

105:                                              ; preds = %99
  %106 = getelementptr inbounds %"class.std::__1::__tree_node_base", %"class.std::__1::__tree_node_base"* %10, i64 0, i32 0
  %107 = getelementptr inbounds %"class.std::__1::__tree_node_base", %"class.std::__1::__tree_node_base"* %103, i64 0, i32 2
  store %"class.std::__1::__tree_end_node"* %106, %"class.std::__1::__tree_end_node"** %107, align 8
  %108 = bitcast %"class.std::__1::__tree_end_node"** %94 to i64*
  %109 = load i64, i64* %108, align 8
  br label %110

110:                                              ; preds = %99, %105
  %111 = phi i64 [ %109, %105 ], [ %100, %99 ]
  %112 = bitcast %"class.std::__1::__tree_end_node"** %8 to i64*
  store i64 %111, i64* %112, align 8
  %113 = load %"class.std::__1::__tree_end_node"*, %"class.std::__1::__tree_end_node"** %94, align 8
  %114 = getelementptr inbounds %"class.std::__1::__tree_end_node", %"class.std::__1::__tree_end_node"* %113, i64 0, i32 0
  %115 = load %"class.std::__1::__tree_node_base"*, %"class.std::__1::__tree_node_base"** %114, align 8
  %116 = icmp eq %"class.std::__1::__tree_node_base"* %115, %10
  %117 = getelementptr inbounds %"class.std::__1::__tree_end_node", %"class.std::__1::__tree_end_node"* %113, i64 1, i32 0
  %118 = select i1 %116, %"class.std::__1::__tree_node_base"** %114, %"class.std::__1::__tree_node_base"** %117
  store %"class.std::__1::__tree_node_base"* %7, %"class.std::__1::__tree_node_base"** %118, align 8
  store %"class.std::__1::__tree_node_base"* %10, %"class.std::__1::__tree_node_base"** %102, align 8
  %119 = getelementptr inbounds %"class.std::__1::__tree_node_base", %"class.std::__1::__tree_node_base"* %7, i64 0, i32 0
  store %"class.std::__1::__tree_end_node"* %119, %"class.std::__1::__tree_end_node"** %94, align 8
  %120 = getelementptr inbounds %"class.std::__1::__tree_node_base", %"class.std::__1::__tree_node_base"* %7, i64 0, i32 2
  %121 = bitcast %"class.std::__1::__tree_end_node"** %120 to %"class.std::__1::__tree_node_base"**
  %122 = load %"class.std::__1::__tree_node_base"*, %"class.std::__1::__tree_node_base"** %121, align 8
  br label %123

123:                                              ; preds = %93, %110
  %124 = phi %"class.std::__1::__tree_node_base"* [ %122, %110 ], [ %95, %93 ]
  %125 = phi %"class.std::__1::__tree_node_base"* [ %7, %110 ], [ %10, %93 ]
  %126 = getelementptr inbounds %"class.std::__1::__tree_node_base", %"class.std::__1::__tree_node_base"* %125, i64 0, i32 3
  store i8 1, i8* %126, align 8
  %127 = getelementptr inbounds %"class.std::__1::__tree_node_base", %"class.std::__1::__tree_node_base"* %124, i64 0, i32 3
  store i8 0, i8* %127, align 8
  %128 = getelementptr inbounds %"class.std::__1::__tree_node_base", %"class.std::__1::__tree_node_base"* %124, i64 0, i32 1
  %129 = load %"class.std::__1::__tree_node_base"*, %"class.std::__1::__tree_node_base"** %128, align 8
  %130 = getelementptr inbounds %"class.std::__1::__tree_node_base", %"class.std::__1::__tree_node_base"* %129, i64 0, i32 0, i32 0
  %131 = load %"class.std::__1::__tree_node_base"*, %"class.std::__1::__tree_node_base"** %130, align 8
  store %"class.std::__1::__tree_node_base"* %131, %"class.std::__1::__tree_node_base"** %128, align 8
  %132 = icmp eq %"class.std::__1::__tree_node_base"* %131, null
  br i1 %132, label %136, label %133

133:                                              ; preds = %123
  %134 = getelementptr inbounds %"class.std::__1::__tree_node_base", %"class.std::__1::__tree_node_base"* %124, i64 0, i32 0
  %135 = getelementptr inbounds %"class.std::__1::__tree_node_base", %"class.std::__1::__tree_node_base"* %131, i64 0, i32 2
  store %"class.std::__1::__tree_end_node"* %134, %"class.std::__1::__tree_end_node"** %135, align 8
  br label %136

136:                                              ; preds = %133, %123
  %137 = getelementptr inbounds %"class.std::__1::__tree_node_base", %"class.std::__1::__tree_node_base"* %124, i64 0, i32 2
  %138 = bitcast %"class.std::__1::__tree_end_node"** %137 to i64*
  %139 = load i64, i64* %138, align 8
  %140 = getelementptr inbounds %"class.std::__1::__tree_node_base", %"class.std::__1::__tree_node_base"* %129, i64 0, i32 2
  %141 = bitcast %"class.std::__1::__tree_end_node"** %140 to i64*
  store i64 %139, i64* %141, align 8
  %142 = load %"class.std::__1::__tree_end_node"*, %"class.std::__1::__tree_end_node"** %137, align 8
  %143 = getelementptr inbounds %"class.std::__1::__tree_end_node", %"class.std::__1::__tree_end_node"* %142, i64 0, i32 0
  %144 = load %"class.std::__1::__tree_node_base"*, %"class.std::__1::__tree_node_base"** %143, align 8
  %145 = icmp eq %"class.std::__1::__tree_node_base"* %144, %124
  %146 = getelementptr inbounds %"class.std::__1::__tree_end_node", %"class.std::__1::__tree_end_node"* %142, i64 1, i32 0
  %147 = select i1 %145, %"class.std::__1::__tree_node_base"** %143, %"class.std::__1::__tree_node_base"** %146
  store %"class.std::__1::__tree_node_base"* %129, %"class.std::__1::__tree_node_base"** %147, align 8
  store %"class.std::__1::__tree_node_base"* %124, %"class.std::__1::__tree_node_base"** %130, align 8
  %148 = getelementptr inbounds %"class.std::__1::__tree_node_base", %"class.std::__1::__tree_node_base"* %129, i64 0, i32 0
  store %"class.std::__1::__tree_end_node"* %148, %"class.std::__1::__tree_end_node"** %137, align 8
  br label %156

149:                                              ; preds = %89, %25
  %150 = phi i8* [ %26, %25 ], [ %90, %89 ]
  store i8 1, i8* %11, align 8
  %151 = icmp eq %"class.std::__1::__tree_node_base"* %20, %0
  %152 = getelementptr inbounds %"class.std::__1::__tree_end_node", %"class.std::__1::__tree_end_node"* %16, i64 3
  %153 = bitcast %"class.std::__1::__tree_end_node"* %152 to i8*
  %154 = zext i1 %151 to i8
  store i8 %154, i8* %153, align 8
  store i8 1, i8* %150, align 8
  %155 = icmp eq %"class.std::__1::__tree_node_base"* %20, %0
  br i1 %155, label %156, label %6

156:                                              ; preds = %6, %149, %2, %136, %74
  ret void
}

; Function Attrs: nounwind ssp uwtable
define linkonce_odr hidden i64 @_ZNSt3__16__treeINS_12__value_typeIPN7content30DevToolsAgentHostClientChannelENS_10unique_ptrI21ChromeDevToolsSessionNS_14default_deleteIS6_EEEEEENS_19__map_value_compareIS4_SA_NS_4lessIS4_EELb1EEENS_9allocatorISA_EEE14__erase_uniqueIS4_EEmRKT_(%"class.std::__1::__tree"*, %"class.content::DevToolsAgentHostClientChannel"** dereferenceable(8)) local_unnamed_addr #1 comdat align 2 {
  %3 = getelementptr inbounds %"class.std::__1::__tree", %"class.std::__1::__tree"* %0, i64 0, i32 1, i32 0, i32 0
  %4 = bitcast %"class.std::__1::__tree_end_node"* %3 to %"class.std::__1::__tree_node"**
  %5 = load %"class.std::__1::__tree_node"*, %"class.std::__1::__tree_node"** %4, align 8
