; ModuleID = 'gen/third_party/perfetto/protos/perfetto/trace/track_event/chrome_compositor_scheduler_state.pb.cc'
source_filename = "gen/third_party/perfetto/protos/perfetto/trace/track_event/chrome_compositor_scheduler_state.pb.cc"
target datalayout = "e-m:e-i64:64-f80:128-n8:16:32:64-S128"
target triple = "x86_64-unknown-linux-gnu"

module asm ".symver exp, exp@GLIBC_2.2.5"
module asm ".symver exp2, exp2@GLIBC_2.2.5"
module asm ".symver exp2f, exp2f@GLIBC_2.2.5"
module asm ".symver expf, expf@GLIBC_2.2.5"
module asm ".symver lgamma, lgamma@GLIBC_2.2.5"
module asm ".symver lgammaf, lgammaf@GLIBC_2.2.5"
module asm ".symver lgammal, lgammal@GLIBC_2.2.5"
module asm ".symver log, log@GLIBC_2.2.5"
module asm ".symver log2, log2@GLIBC_2.2.5"
module asm ".symver log2f, log2f@GLIBC_2.2.5"
module asm ".symver logf, logf@GLIBC_2.2.5"
module asm ".symver pow, pow@GLIBC_2.2.5"
module asm ".symver powf, powf@GLIBC_2.2.5"

%"class.perfetto::protos::ChromeCompositorSchedulerStateDefaultTypeInternal" = type { %"class.google::protobuf::internal::ExplicitlyConstructed" }
%"class.google::protobuf::internal::ExplicitlyConstructed" = type { %"union.google::protobuf::internal::ExplicitlyConstructed<perfetto::protos::ChromeCompositorSchedulerState>::AlignedUnion" }
%"union.google::protobuf::internal::ExplicitlyConstructed<perfetto::protos::ChromeCompositorSchedulerState>::AlignedUnion" = type { i64, [112 x i8] }
%"class.perfetto::protos::ChromeCompositorStateMachine_MajorStateDefaultTypeInternal" = type { %"class.google::protobuf::internal::ExplicitlyConstructed.0" }
%"class.google::protobuf::internal::ExplicitlyConstructed.0" = type { %"union.google::protobuf::internal::ExplicitlyConstructed<perfetto::protos::ChromeCompositorStateMachine_MajorState>::AlignedUnion" }
%"union.google::protobuf::internal::ExplicitlyConstructed<perfetto::protos::ChromeCompositorStateMachine_MajorState>::AlignedUnion" = type { i64, [40 x i8] }
%"class.perfetto::protos::ChromeCompositorStateMachine_MinorStateDefaultTypeInternal" = type { %"class.google::protobuf::internal::ExplicitlyConstructed.1" }
%"class.google::protobuf::internal::ExplicitlyConstructed.1" = type { %"union.google::protobuf::internal::ExplicitlyConstructed<perfetto::protos::ChromeCompositorStateMachine_MinorState>::AlignedUnion" }
%"union.google::protobuf::internal::ExplicitlyConstructed<perfetto::protos::ChromeCompositorStateMachine_MinorState>::AlignedUnion" = type { i64, [96 x i8] }
%"class.perfetto::protos::ChromeCompositorStateMachineDefaultTypeInternal" = type { %"class.google::protobuf::internal::ExplicitlyConstructed.2" }
%"class.google::protobuf::internal::ExplicitlyConstructed.2" = type { %"union.google::protobuf::internal::ExplicitlyConstructed<perfetto::protos::ChromeCompositorStateMachine>::AlignedUnion" }
%"union.google::protobuf::internal::ExplicitlyConstructed<perfetto::protos::ChromeCompositorStateMachine>::AlignedUnion" = type { i64, [32 x i8] }
%"class.perfetto::protos::BeginFrameArgsDefaultTypeInternal" = type { %"class.google::protobuf::internal::ExplicitlyConstructed.3" }
%"class.google::protobuf::internal::ExplicitlyConstructed.3" = type { %"union.google::protobuf::internal::ExplicitlyConstructed<perfetto::protos::BeginFrameArgs>::AlignedUnion" }
%"union.google::protobuf::internal::ExplicitlyConstructed<perfetto::protos::BeginFrameArgs>::AlignedUnion" = type { i64, [80 x i8] }
%"class.perfetto::protos::BeginImplFrameArgs_TimestampsInUsDefaultTypeInternal" = type { %"class.google::protobuf::internal::ExplicitlyConstructed.4" }
%"class.google::protobuf::internal::ExplicitlyConstructed.4" = type { %"union.google::protobuf::internal::ExplicitlyConstructed<perfetto::protos::BeginImplFrameArgs_TimestampsInUs>::AlignedUnion" }
%"union.google::protobuf::internal::ExplicitlyConstructed<perfetto::protos::BeginImplFrameArgs_TimestampsInUs>::AlignedUnion" = type { i64, [72 x i8] }
%"class.perfetto::protos::BeginImplFrameArgsDefaultTypeInternal" = type { %"class.google::protobuf::internal::ExplicitlyConstructed.5" }
%"class.google::protobuf::internal::ExplicitlyConstructed.5" = type { %"union.google::protobuf::internal::ExplicitlyConstructed<perfetto::protos::BeginImplFrameArgs>::AlignedUnion" }
%"union.google::protobuf::internal::ExplicitlyConstructed<perfetto::protos::BeginImplFrameArgs>::AlignedUnion" = type { i64, [64 x i8] }
%"class.perfetto::protos::BeginFrameObserverStateDefaultTypeInternal" = type { %"class.google::protobuf::internal::ExplicitlyConstructed.6" }
%"class.google::protobuf::internal::ExplicitlyConstructed.6" = type { %"union.google::protobuf::internal::ExplicitlyConstructed<perfetto::protos::BeginFrameObserverState>::AlignedUnion" }
%"union.google::protobuf::internal::ExplicitlyConstructed<perfetto::protos::BeginFrameObserverState>::AlignedUnion" = type { i64, [32 x i8] }
%"class.perfetto::protos::BeginFrameSourceStateDefaultTypeInternal" = type { %"class.google::protobuf::internal::ExplicitlyConstructed.7" }
%"class.google::protobuf::internal::ExplicitlyConstructed.7" = type { %"union.google::protobuf::internal::ExplicitlyConstructed<perfetto::protos::BeginFrameSourceState>::AlignedUnion" }
%"union.google::protobuf::internal::ExplicitlyConstructed<perfetto::protos::BeginFrameSourceState>::AlignedUnion" = type { i64, [40 x i8] }
%"class.perfetto::protos::CompositorTimingHistoryDefaultTypeInternal" = type { %"class.google::protobuf::internal::ExplicitlyConstructed.8" }
%"class.google::protobuf::internal::ExplicitlyConstructed.8" = type { %"union.google::protobuf::internal::ExplicitlyConstructed<perfetto::protos::CompositorTimingHistory>::AlignedUnion" }
%"union.google::protobuf::internal::ExplicitlyConstructed<perfetto::protos::CompositorTimingHistory>::AlignedUnion" = type { i64, [72 x i8] }
%"struct.google::protobuf::internal::SCCInfo" = type { %"struct.google::protobuf::internal::SCCInfoBase", [0 x i8*] }
%"struct.google::protobuf::internal::SCCInfoBase" = type { %"struct.std::__1::atomic", i32, i32, void ()* }
%"struct.std::__1::atomic" = type { %"struct.std::__1::__atomic_base" }
%"struct.std::__1::__atomic_base" = type { %"struct.std::__1::__atomic_base.9" }
%"struct.std::__1::__atomic_base.9" = type { %"struct.std::__1::__cxx_atomic_impl" }
%"struct.std::__1::__cxx_atomic_impl" = type { %"struct.std::__1::__cxx_atomic_base_impl" }
%"struct.std::__1::__cxx_atomic_base_impl" = type { i32 }
%"struct.google::protobuf::internal::EnumEntry" = type <{ %"class.google::protobuf::StringPiece", i32, [4 x i8] }>
%"class.google::protobuf::StringPiece" = type { i8*, i64 }
%"class.google::protobuf::internal::ExplicitlyConstructed.14" = type { %"union.google::protobuf::internal::ExplicitlyConstructed<std::__1::basic_string<char, std::__1::char_traits<char>, std::__1::allocator<char> > >::AlignedUnion" }
%"union.google::protobuf::internal::ExplicitlyConstructed<std::__1::basic_string<char, std::__1::char_traits<char>, std::__1::allocator<char> > >::AlignedUnion" = type { i64, [16 x i8] }
%"class.perfetto::protos::SourceLocationDefaultTypeInternal" = type opaque
%"class.perfetto::protos::ChromeCompositorSchedulerState" = type { %"class.google::protobuf::MessageLite", %"class.google::protobuf::internal::HasBits", %"class.google::protobuf::internal::CachedSize", %"class.perfetto::protos::ChromeCompositorStateMachine"*, %"class.perfetto::protos::BeginImplFrameArgs"*, %"class.perfetto::protos::BeginFrameObserverState"*, %"class.perfetto::protos::BeginFrameSourceState"*, %"class.perfetto::protos::CompositorTimingHistory"*, i8, i8, i8, i8, i8, i32, i32, i64, i64, i64, i64, i64 }
%"class.google::protobuf::MessageLite" = type { i32 (...)**, %"class.google::protobuf::internal::InternalMetadata" }
%"class.google::protobuf::internal::InternalMetadata" = type { i8* }
%"class.google::protobuf::internal::HasBits" = type { [1 x i32] }
%"class.google::protobuf::internal::CachedSize" = type { %"struct.std::__1::atomic" }
%"class.perfetto::protos::ChromeCompositorStateMachine" = type { %"class.google::protobuf::MessageLite", %"class.google::protobuf::internal::HasBits", %"class.google::protobuf::internal::CachedSize", %"class.perfetto::protos::ChromeCompositorStateMachine_MajorState"*, %"class.perfetto::protos::ChromeCompositorStateMachine_MinorState"* }
%"class.perfetto::protos::ChromeCompositorStateMachine_MajorState" = type <{ %"class.google::protobuf::MessageLite", %"class.google::protobuf::internal::HasBits", %"class.google::protobuf::internal::CachedSize", i32, i32, i32, i32, i32, [4 x i8] }>
%"class.perfetto::protos::ChromeCompositorStateMachine_MinorState" = type { %"class.google::protobuf::MessageLite", %"class.google::protobuf::internal::HasBits.15", %"class.google::protobuf::internal::CachedSize", i32, i32, i32, i32, i32, i8, i8, i8, i8, i8, i8, i8, i8, i32, i32, i32, i8, i8, i8, i8, i8, i8, i8, i8, i8, i8, i8, i8, i32, i8, i8, i8, i8, i32, i8, i8, i8, i8, i8, i8, i8, i8, i8, i8, i8, i8 }
%"class.google::protobuf::internal::HasBits.15" = type { [2 x i32] }
%"class.perfetto::protos::BeginImplFrameArgs" = type <{ %"class.google::protobuf::MessageLite", %"class.google::protobuf::internal::HasBits", %"class.google::protobuf::internal::CachedSize", %"class.perfetto::protos::BeginImplFrameArgs_TimestampsInUs"*, i64, i64, i32, [4 x i8], %"union.perfetto::protos::BeginImplFrameArgs::ArgsUnion", [1 x i32], [4 x i8] }>
%"class.perfetto::protos::BeginImplFrameArgs_TimestampsInUs" = type { %"class.google::protobuf::MessageLite", %"class.google::protobuf::internal::HasBits", %"class.google::protobuf::internal::CachedSize", i64, i64, i64, i64, i64, i64, i64 }
%"union.perfetto::protos::BeginImplFrameArgs::ArgsUnion" = type { %"class.perfetto::protos::BeginFrameArgs"* }
%"class.perfetto::protos::BeginFrameArgs" = type <{ %"class.google::protobuf::MessageLite", %"class.google::protobuf::internal::HasBits", %"class.google::protobuf::internal::CachedSize", i64, i64, i64, i64, i32, i8, i8, [2 x i8], i64, %"union.perfetto::protos::BeginFrameArgs::CreatedFromUnion", [1 x i32], [4 x i8] }>
%"union.perfetto::protos::BeginFrameArgs::CreatedFromUnion" = type { i64 }
%"class.perfetto::protos::BeginFrameObserverState" = type { %"class.google::protobuf::MessageLite", %"class.google::protobuf::internal::HasBits", %"class.google::protobuf::internal::CachedSize", %"class.perfetto::protos::BeginFrameArgs"*, i64 }
%"class.perfetto::protos::BeginFrameSourceState" = type <{ %"class.google::protobuf::MessageLite", %"class.google::protobuf::internal::HasBits", %"class.google::protobuf::internal::CachedSize", %"class.perfetto::protos::BeginFrameArgs"*, i32, i8, [3 x i8], i32, [4 x i8] }>
%"class.perfetto::protos::CompositorTimingHistory" = type { %"class.google::protobuf::MessageLite", %"class.google::protobuf::internal::HasBits", %"class.google::protobuf::internal::CachedSize", i64, i64, i64, i64, i64, i64, i64 }
%"class.google::protobuf::Arena" = type { %"class.google::protobuf::internal::ArenaImpl", void (%"class.std::type_info"*, i64, i8*)*, void (%"class.google::protobuf::Arena"*, i8*, i64)*, void (%"class.google::protobuf::Arena"*, i8*, i64)*, i8* }
%"class.google::protobuf::internal::ArenaImpl" = type { %"struct.std::__1::atomic.16", %"struct.std::__1::atomic.16", %"struct.std::__1::atomic.20", %"class.google::protobuf::internal::ArenaImpl::Block"*, i64, %"struct.google::protobuf::internal::ArenaImpl::Options" }
%"struct.std::__1::atomic.16" = type { %"struct.std::__1::__atomic_base.17" }
%"struct.std::__1::__atomic_base.17" = type { %"struct.std::__1::__cxx_atomic_impl.18" }
%"struct.std::__1::__cxx_atomic_impl.18" = type { %"struct.std::__1::__cxx_atomic_base_impl.19" }
%"struct.std::__1::__cxx_atomic_base_impl.19" = type { %"class.google::protobuf::internal::ArenaImpl::SerialArena"* }
%"class.google::protobuf::internal::ArenaImpl::SerialArena" = type { %"class.google::protobuf::internal::ArenaImpl"*, i8*, %"class.google::protobuf::internal::ArenaImpl::Block"*, %"struct.google::protobuf::internal::ArenaImpl::CleanupChunk"*, %"class.google::protobuf::internal::ArenaImpl::SerialArena"*, i8*, i8*, %"struct.google::protobuf::internal::ArenaImpl::CleanupNode"*, %"struct.google::protobuf::internal::ArenaImpl::CleanupNode"* }
%"struct.google::protobuf::internal::ArenaImpl::CleanupChunk" = type { i64, %"struct.google::protobuf::internal::ArenaImpl::CleanupChunk"*, [1 x %"struct.google::protobuf::internal::ArenaImpl::CleanupNode"] }
%"struct.google::protobuf::internal::ArenaImpl::CleanupNode" = type { i8*, void (i8*)* }
%"struct.std::__1::atomic.20" = type { %"struct.std::__1::__atomic_base.21" }
%"struct.std::__1::__atomic_base.21" = type { %"struct.std::__1::__atomic_base.22" }
%"struct.std::__1::__atomic_base.22" = type { %"struct.std::__1::__cxx_atomic_impl.23" }
%"struct.std::__1::__cxx_atomic_impl.23" = type { %"struct.std::__1::__cxx_atomic_base_impl.24" }
%"struct.std::__1::__cxx_atomic_base_impl.24" = type { i64 }
%"class.google::protobuf::internal::ArenaImpl::Block" = type { %"class.google::protobuf::internal::ArenaImpl::Block"*, i64, i64 }
%"struct.google::protobuf::internal::ArenaImpl::Options" = type { i64, i64, i8*, i64, i8* (i64)*, void (i8*, i64)* }
%"class.std::type_info" = type { i32 (...)**, i8* }
%"class.std::__1::basic_string" = type { %"class.std::__1::__compressed_pair" }
%"class.std::__1::__compressed_pair" = type { %"struct.std::__1::__compressed_pair_elem" }
%"struct.std::__1::__compressed_pair_elem" = type { %"struct.std::__1::basic_string<char, std::__1::char_traits<char>, std::__1::allocator<char> >::__rep" }
%"struct.std::__1::basic_string<char, std::__1::char_traits<char>, std::__1::allocator<char> >::__rep" = type { %union.anon }
%union.anon = type { %"struct.std::__1::basic_string<char, std::__1::char_traits<char>, std::__1::allocator<char> >::__long" }
%"struct.std::__1::basic_string<char, std::__1::char_traits<char>, std::__1::allocator<char> >::__long" = type { i8*, i64, i64 }
%"struct.std::__1::basic_string<char, std::__1::char_traits<char>, std::__1::allocator<char> >::__short" = type { [23 x i8], %struct.anon }
%struct.anon = type { i8 }
%"struct.google::protobuf::internal::InternalMetadata::Container" = type { %"struct.google::protobuf::internal::InternalMetadata::ContainerBase", %"class.std::__1::basic_string" }
%"struct.google::protobuf::internal::InternalMetadata::ContainerBase" = type { %"class.google::protobuf::Arena"* }
%"class.perfetto::protos::SourceLocation" = type <{ %"class.google::protobuf::MessageLite", %"class.google::protobuf::internal::HasBits", %"class.google::protobuf::internal::CachedSize", %"struct.google::protobuf::internal::ArenaStringPtr", %"struct.google::protobuf::internal::ArenaStringPtr", i64, i32, [4 x i8] }>
%"struct.google::protobuf::internal::ArenaStringPtr" = type { %"class.std::__1::basic_string"* }
%"class.google::protobuf::internal::ParseContext" = type { %"class.google::protobuf::internal::EpsCopyInputStream", i32, i32, %"struct.google::protobuf::internal::ParseContext::Data" }
%"class.google::protobuf::internal::EpsCopyInputStream" = type { i8*, i8*, i8*, i32, i32, %"class.google::protobuf::io::ZeroCopyInputStream"*, [32 x i8], i64, i32, i32 }
%"class.google::protobuf::io::ZeroCopyInputStream" = type { i32 (...)** }
%"struct.google::protobuf::internal::ParseContext::Data" = type { %"class.google::protobuf::DescriptorPool"*, %"class.google::protobuf::MessageFactory"* }
%"class.google::protobuf::DescriptorPool" = type opaque
%"class.google::protobuf::MessageFactory" = type opaque
%"class.google::protobuf::io::EpsCopyOutputStream" = type <{ i8*, i8*, [32 x i8], %"class.google::protobuf::io::ZeroCopyOutputStream"*, i8, i8, i8, [5 x i8] }>
%"class.google::protobuf::io::ZeroCopyOutputStream" = type { i32 (...)** }

$_ZN6google8protobuf8internal12ParseContext12ParseMessageIN8perfetto6protos28ChromeCompositorStateMachineEEEPKcPT_S8_ = comdat any

$_ZN6google8protobuf8internal12ParseContext12ParseMessageIN8perfetto6protos18BeginImplFrameArgsEEEPKcPT_S8_ = comdat any

$_ZN6google8protobuf8internal12ParseContext12ParseMessageIN8perfetto6protos23BeginFrameObserverStateEEEPKcPT_S8_ = comdat any

$_ZN6google8protobuf8internal12ParseContext12ParseMessageIN8perfetto6protos21BeginFrameSourceStateEEEPKcPT_S8_ = comdat any

$_ZN6google8protobuf8internal12ParseContext12ParseMessageIN8perfetto6protos23CompositorTimingHistoryEEEPKcPT_S8_ = comdat any

$_ZN6google8protobuf8internal12ParseContext12ParseMessageIN8perfetto6protos39ChromeCompositorStateMachine_MajorStateEEEPKcPT_S8_ = comdat any

$_ZN6google8protobuf8internal12ParseContext12ParseMessageIN8perfetto6protos39ChromeCompositorStateMachine_MinorStateEEEPKcPT_S8_ = comdat any

$_ZN6google8protobuf8internal12ParseContext12ParseMessageIN8perfetto6protos14SourceLocationEEEPKcPT_S8_ = comdat any

$_ZN6google8protobuf8internal12ParseContext12ParseMessageIN8perfetto6protos14BeginFrameArgsEEEPKcPT_S8_ = comdat any

$_ZN6google8protobuf8internal12ParseContext12ParseMessageIN8perfetto6protos33BeginImplFrameArgs_TimestampsInUsEEEPKcPT_S8_ = comdat any

$_ZNK8perfetto6protos30ChromeCompositorSchedulerState3NewEv = comdat any

$_ZNK8perfetto6protos30ChromeCompositorSchedulerState3NewEPN6google8protobuf5ArenaE = comdat any

$_ZNK8perfetto6protos30ChromeCompositorSchedulerState13GetCachedSizeEv = comdat any

$_ZNK6google8protobuf11MessageLite16InternalGetTableEv = comdat any

$_ZNK8perfetto6protos39ChromeCompositorStateMachine_MajorState3NewEv = comdat any

$_ZNK8perfetto6protos39ChromeCompositorStateMachine_MajorState3NewEPN6google8protobuf5ArenaE = comdat any

$_ZNK8perfetto6protos39ChromeCompositorStateMachine_MajorState13GetCachedSizeEv = comdat any

$_ZNK8perfetto6protos39ChromeCompositorStateMachine_MinorState3NewEv = comdat any

$_ZNK8perfetto6protos39ChromeCompositorStateMachine_MinorState3NewEPN6google8protobuf5ArenaE = comdat any

$_ZNK8perfetto6protos39ChromeCompositorStateMachine_MinorState13GetCachedSizeEv = comdat any

$_ZNK8perfetto6protos28ChromeCompositorStateMachine3NewEv = comdat any

$_ZNK8perfetto6protos28ChromeCompositorStateMachine3NewEPN6google8protobuf5ArenaE = comdat any

$_ZNK8perfetto6protos28ChromeCompositorStateMachine13GetCachedSizeEv = comdat any

$_ZNK8perfetto6protos14BeginFrameArgs3NewEv = comdat any

$_ZNK8perfetto6protos14BeginFrameArgs3NewEPN6google8protobuf5ArenaE = comdat any

$_ZNK8perfetto6protos14BeginFrameArgs13GetCachedSizeEv = comdat any

$_ZNK8perfetto6protos33BeginImplFrameArgs_TimestampsInUs3NewEv = comdat any

$_ZNK8perfetto6protos33BeginImplFrameArgs_TimestampsInUs3NewEPN6google8protobuf5ArenaE = comdat any

$_ZNK8perfetto6protos33BeginImplFrameArgs_TimestampsInUs13GetCachedSizeEv = comdat any

$_ZNK8perfetto6protos18BeginImplFrameArgs3NewEv = comdat any

$_ZNK8perfetto6protos18BeginImplFrameArgs3NewEPN6google8protobuf5ArenaE = comdat any

$_ZNK8perfetto6protos18BeginImplFrameArgs13GetCachedSizeEv = comdat any

$_ZNK8perfetto6protos23BeginFrameObserverState3NewEv = comdat any

$_ZNK8perfetto6protos23BeginFrameObserverState3NewEPN6google8protobuf5ArenaE = comdat any

$_ZNK8perfetto6protos23BeginFrameObserverState13GetCachedSizeEv = comdat any

$_ZNK8perfetto6protos21BeginFrameSourceState3NewEv = comdat any

$_ZNK8perfetto6protos21BeginFrameSourceState3NewEPN6google8protobuf5ArenaE = comdat any

$_ZNK8perfetto6protos21BeginFrameSourceState13GetCachedSizeEv = comdat any

$_ZNK8perfetto6protos23CompositorTimingHistory3NewEv = comdat any

$_ZNK8perfetto6protos23CompositorTimingHistory3NewEPN6google8protobuf5ArenaE = comdat any

$_ZNK8perfetto6protos23CompositorTimingHistory13GetCachedSizeEv = comdat any

$_ZN6google8protobuf8internal16InternalMetadata27mutable_unknown_fields_slowINSt3__112basic_stringIcNS4_11char_traitsIcEENS4_9allocatorIcEEEEEEPT_v = comdat any

$_ZN6google8protobuf8internal21arena_destruct_objectINS1_16InternalMetadata9ContainerINSt3__112basic_stringIcNS5_11char_traitsIcEENS5_9allocatorIcEEEEEEEEvPv = comdat any

@_ZN8perfetto6protos49_ChromeCompositorSchedulerState_default_instance_E = hidden global %"class.perfetto::protos::ChromeCompositorSchedulerStateDefaultTypeInternal" zeroinitializer, align 8
@_ZN8perfetto6protos58_ChromeCompositorStateMachine_MajorState_default_instance_E = hidden global %"class.perfetto::protos::ChromeCompositorStateMachine_MajorStateDefaultTypeInternal" zeroinitializer, align 8
@_ZN8perfetto6protos58_ChromeCompositorStateMachine_MinorState_default_instance_E = hidden global %"class.perfetto::protos::ChromeCompositorStateMachine_MinorStateDefaultTypeInternal" zeroinitializer, align 8
@_ZN8perfetto6protos47_ChromeCompositorStateMachine_default_instance_E = hidden global %"class.perfetto::protos::ChromeCompositorStateMachineDefaultTypeInternal" zeroinitializer, align 8
@_ZN8perfetto6protos33_BeginFrameArgs_default_instance_E = hidden global %"class.perfetto::protos::BeginFrameArgsDefaultTypeInternal" zeroinitializer, align 8
@_ZN8perfetto6protos52_BeginImplFrameArgs_TimestampsInUs_default_instance_E = hidden global %"class.perfetto::protos::BeginImplFrameArgs_TimestampsInUsDefaultTypeInternal" zeroinitializer, align 8
@_ZN8perfetto6protos37_BeginImplFrameArgs_default_instance_E = hidden global %"class.perfetto::protos::BeginImplFrameArgsDefaultTypeInternal" zeroinitializer, align 8
@_ZN8perfetto6protos42_BeginFrameObserverState_default_instance_E = hidden global %"class.perfetto::protos::BeginFrameObserverStateDefaultTypeInternal" zeroinitializer, align 8
@_ZN8perfetto6protos40_BeginFrameSourceState_default_instance_E = hidden global %"class.perfetto::protos::BeginFrameSourceStateDefaultTypeInternal" zeroinitializer, align 8
@_ZN8perfetto6protos42_CompositorTimingHistory_default_instance_E = hidden global %"class.perfetto::protos::CompositorTimingHistoryDefaultTypeInternal" zeroinitializer, align 8
@scc_info_SourceLocation_protos_2fperfetto_2ftrace_2ftrack_5fevent_2fsource_5flocation_2eproto = external global %"struct.google::protobuf::internal::SCCInfo", align 8
@scc_info_BeginFrameArgs_protos_2fperfetto_2ftrace_2ftrack_5fevent_2fchrome_5fcompositor_5fscheduler_5fstate_2eproto = hidden global { { { { i32 } }, i32, i32, void ()* }, [1 x i8*] } { { { { i32 } }, i32, i32, void ()* } { { { i32 } } { { i32 } { i32 -1 } }, i32 1, i32 0, void ()* @_ZL127InitDefaultsscc_info_BeginFrameArgs_protos_2fperfetto_2ftrace_2ftrack_5fevent_2fchrome_5fcompositor_5fscheduler_5fstate_2eprotov }, [1 x i8*] [i8* bitcast (%"struct.google::protobuf::internal::SCCInfo"* @scc_info_SourceLocation_protos_2fperfetto_2ftrace_2ftrack_5fevent_2fsource_5flocation_2eproto to i8*)] }, align 8
@scc_info_BeginFrameObserverState_protos_2fperfetto_2ftrace_2ftrack_5fevent_2fchrome_5fcompositor_5fscheduler_5fstate_2eproto = hidden global { { { { i32 } }, i32, i32, void ()* }, [1 x i8*] } { { { { i32 } }, i32, i32, void ()* } { { { i32 } } { { i32 } { i32 -1 } }, i32 1, i32 0, void ()* @_ZL136InitDefaultsscc_info_BeginFrameObserverState_protos_2fperfetto_2ftrace_2ftrack_5fevent_2fchrome_5fcompositor_5fscheduler_5fstate_2eprotov }, [1 x i8*] [i8* bitcast ({ { { { i32 } }, i32, i32, void ()* }, [1 x i8*] }* @scc_info_BeginFrameArgs_protos_2fperfetto_2ftrace_2ftrack_5fevent_2fchrome_5fcompositor_5fscheduler_5fstate_2eproto to i8*)] }, align 8
@scc_info_BeginFrameSourceState_protos_2fperfetto_2ftrace_2ftrack_5fevent_2fchrome_5fcompositor_5fscheduler_5fstate_2eproto = hidden global { { { { i32 } }, i32, i32, void ()* }, [1 x i8*] } { { { { i32 } }, i32, i32, void ()* } { { { i32 } } { { i32 } { i32 -1 } }, i32 1, i32 0, void ()* @_ZL134InitDefaultsscc_info_BeginFrameSourceState_protos_2fperfetto_2ftrace_2ftrack_5fevent_2fchrome_5fcompositor_5fscheduler_5fstate_2eprotov }, [1 x i8*] [i8* bitcast ({ { { { i32 } }, i32, i32, void ()* }, [1 x i8*] }* @scc_info_BeginFrameArgs_protos_2fperfetto_2ftrace_2ftrack_5fevent_2fchrome_5fcompositor_5fscheduler_5fstate_2eproto to i8*)] }, align 8
@scc_info_BeginImplFrameArgs_protos_2fperfetto_2ftrace_2ftrack_5fevent_2fchrome_5fcompositor_5fscheduler_5fstate_2eproto = hidden global { { { { i32 } }, i32, i32, void ()* }, [2 x i8*] } { { { { i32 } }, i32, i32, void ()* } { { { i32 } } { { i32 } { i32 -1 } }, i32 2, i32 0, void ()* @_ZL131InitDefaultsscc_info_BeginImplFrameArgs_protos_2fperfetto_2ftrace_2ftrack_5fevent_2fchrome_5fcompositor_5fscheduler_5fstate_2eprotov }, [2 x i8*] [i8* bitcast ({ { { { i32 } }, i32, i32, void ()* }, [1 x i8*] }* @scc_info_BeginFrameArgs_protos_2fperfetto_2ftrace_2ftrack_5fevent_2fchrome_5fcompositor_5fscheduler_5fstate_2eproto to i8*), i8* bitcast ({ { { { i32 } }, i32, i32, void ()* }, [0 x i8*] }* @scc_info_BeginImplFrameArgs_TimestampsInUs_protos_2fperfetto_2ftrace_2ftrack_5fevent_2fchrome_5fcompositor_5fscheduler_5fstate_2eproto to i8*)] }, align 8
@scc_info_BeginImplFrameArgs_TimestampsInUs_protos_2fperfetto_2ftrace_2ftrack_5fevent_2fchrome_5fcompositor_5fscheduler_5fstate_2eproto = hidden global { { { { i32 } }, i32, i32, void ()* }, [0 x i8*] } { { { { i32 } }, i32, i32, void ()* } { { { i32 } } { { i32 } { i32 -1 } }, i32 0, i32 0, void ()* @_ZL146InitDefaultsscc_info_BeginImplFrameArgs_TimestampsInUs_protos_2fperfetto_2ftrace_2ftrack_5fevent_2fchrome_5fcompositor_5fscheduler_5fstate_2eprotov }, [0 x i8*] zeroinitializer }, align 8
@scc_info_ChromeCompositorSchedulerState_protos_2fperfetto_2ftrace_2ftrack_5fevent_2fchrome_5fcompositor_5fscheduler_5fstate_2eproto = hidden global { { { { i32 } }, i32, i32, void ()* }, [5 x i8*] } { { { { i32 } }, i32, i32, void ()* } { { { i32 } } { { i32 } { i32 -1 } }, i32 5, i32 0, void ()* @_ZL143InitDefaultsscc_info_ChromeCompositorSchedulerState_protos_2fperfetto_2ftrace_2ftrack_5fevent_2fchrome_5fcompositor_5fscheduler_5fstate_2eprotov }, [5 x i8*] [i8* bitcast ({ { { { i32 } }, i32, i32, void ()* }, [2 x i8*] }* @scc_info_ChromeCompositorStateMachine_protos_2fperfetto_2ftrace_2ftrack_5fevent_2fchrome_5fcompositor_5fscheduler_5fstate_2eproto to i8*), i8* bitcast ({ { { { i32 } }, i32, i32, void ()* }, [2 x i8*] }* @scc_info_BeginImplFrameArgs_protos_2fperfetto_2ftrace_2ftrack_5fevent_2fchrome_5fcompositor_5fscheduler_5fstate_2eproto to i8*), i8* bitcast ({ { { { i32 } }, i32, i32, void ()* }, [1 x i8*] }* @scc_info_BeginFrameObserverState_protos_2fperfetto_2ftrace_2ftrack_5fevent_2fchrome_5fcompositor_5fscheduler_5fstate_2eproto to i8*), i8* bitcast ({ { { { i32 } }, i32, i32, void ()* }, [1 x i8*] }* @scc_info_BeginFrameSourceState_protos_2fperfetto_2ftrace_2ftrack_5fevent_2fchrome_5fcompositor_5fscheduler_5fstate_2eproto to i8*), i8* bitcast ({ { { { i32 } }, i32, i32, void ()* }, [0 x i8*] }* @scc_info_CompositorTimingHistory_protos_2fperfetto_2ftrace_2ftrack_5fevent_2fchrome_5fcompositor_5fscheduler_5fstate_2eproto to i8*)] }, align 8
@scc_info_ChromeCompositorStateMachine_protos_2fperfetto_2ftrace_2ftrack_5fevent_2fchrome_5fcompositor_5fscheduler_5fstate_2eproto = hidden global { { { { i32 } }, i32, i32, void ()* }, [2 x i8*] } { { { { i32 } }, i32, i32, void ()* } { { { i32 } } { { i32 } { i32 -1 } }, i32 2, i32 0, void ()* @_ZL141InitDefaultsscc_info_ChromeCompositorStateMachine_protos_2fperfetto_2ftrace_2ftrack_5fevent_2fchrome_5fcompositor_5fscheduler_5fstate_2eprotov }, [2 x i8*] [i8* bitcast ({ { { { i32 } }, i32, i32, void ()* }, [0 x i8*] }* @scc_info_ChromeCompositorStateMachine_MajorState_protos_2fperfetto_2ftrace_2ftrack_5fevent_2fchrome_5fcompositor_5fscheduler_5fstate_2eproto to i8*), i8* bitcast ({ { { { i32 } }, i32, i32, void ()* }, [0 x i8*] }* @scc_info_ChromeCompositorStateMachine_MinorState_protos_2fperfetto_2ftrace_2ftrack_5fevent_2fchrome_5fcompositor_5fscheduler_5fstate_2eproto to i8*)] }, align 8
@scc_info_ChromeCompositorStateMachine_MajorState_protos_2fperfetto_2ftrace_2ftrack_5fevent_2fchrome_5fcompositor_5fscheduler_5fstate_2eproto = hidden global { { { { i32 } }, i32, i32, void ()* }, [0 x i8*] } { { { { i32 } }, i32, i32, void ()* } { { { i32 } } { { i32 } { i32 -1 } }, i32 0, i32 0, void ()* @_ZL152InitDefaultsscc_info_ChromeCompositorStateMachine_MajorState_protos_2fperfetto_2ftrace_2ftrack_5fevent_2fchrome_5fcompositor_5fscheduler_5fstate_2eprotov }, [0 x i8*] zeroinitializer }, align 8
@scc_info_ChromeCompositorStateMachine_MinorState_protos_2fperfetto_2ftrace_2ftrack_5fevent_2fchrome_5fcompositor_5fscheduler_5fstate_2eproto = hidden global { { { { i32 } }, i32, i32, void ()* }, [0 x i8*] } { { { { i32 } }, i32, i32, void ()* } { { { i32 } } { { i32 } { i32 -1 } }, i32 0, i32 0, void ()* @_ZL152InitDefaultsscc_info_ChromeCompositorStateMachine_MinorState_protos_2fperfetto_2ftrace_2ftrack_5fevent_2fchrome_5fcompositor_5fscheduler_5fstate_2eprotov }, [0 x i8*] zeroinitializer }, align 8
@scc_info_CompositorTimingHistory_protos_2fperfetto_2ftrace_2ftrack_5fevent_2fchrome_5fcompositor_5fscheduler_5fstate_2eproto = hidden global { { { { i32 } }, i32, i32, void ()* }, [0 x i8*] } { { { { i32 } }, i32, i32, void ()* } { { { i32 } } { { i32 } { i32 -1 } }, i32 0, i32 0, void ()* @_ZL136InitDefaultsscc_info_CompositorTimingHistory_protos_2fperfetto_2ftrace_2ftrack_5fevent_2fchrome_5fcompositor_5fscheduler_5fstate_2eprotov }, [0 x i8*] zeroinitializer }, align 8
@_ZN8perfetto6protosL65ChromeCompositorSchedulerState_BeginImplFrameDeadlineMode_entriesE = internal constant [6 x %"struct.google::protobuf::internal::EnumEntry"] [%"struct.google::protobuf::internal::EnumEntry" <{ %"class.google::protobuf::StringPiece" { i8* getelementptr inbounds ([127 x i8], [127 x i8]* @_ZN8perfetto6protosL63ChromeCompositorSchedulerState_BeginImplFrameDeadlineMode_namesE, i64 0, i64 0), i64 21 }, i32 5, [4 x i8] zeroinitializer }>, %"struct.google::protobuf::internal::EnumEntry" <{ %"class.google::protobuf::StringPiece" { i8* getelementptr inbounds ([127 x i8], [127 x i8]* @_ZN8perfetto6protosL63ChromeCompositorSchedulerState_BeginImplFrameDeadlineMode_namesE, i64 0, i64 21), i64 23 }, i32 2, [4 x i8] zeroinitializer }>, %"struct.google::protobuf::internal::EnumEntry" <{ %"class.google::protobuf::StringPiece" { i8* getelementptr inbounds ([127 x i8], [127 x i8]* @_ZN8perfetto6protosL63ChromeCompositorSchedulerState_BeginImplFrameDeadlineMode_namesE, i64 0, i64 44), i64 18 }, i32 4, [4 x i8] zeroinitializer }>, %"struct.google::protobuf::internal::EnumEntry" <{ %"class.google::protobuf::StringPiece" { i8* getelementptr inbounds ([127 x i8], [127 x i8]* @_ZN8perfetto6protosL63ChromeCompositorSchedulerState_BeginImplFrameDeadlineMode_namesE, i64 0, i64 62), i64 18 }, i32 1, [4 x i8] zeroinitializer }>, %"struct.google::protobuf::internal::EnumEntry" <{ %"class.google::protobuf::StringPiece" { i8* getelementptr inbounds ([127 x i8], [127 x i8]* @_ZN8perfetto6protosL63ChromeCompositorSchedulerState_BeginImplFrameDeadlineMode_namesE, i64 0, i64 80), i64 21 }, i32 3, [4 x i8] zeroinitializer }>, %"struct.google::protobuf::internal::EnumEntry" <{ %"class.google::protobuf::StringPiece" { i8* getelementptr inbounds ([127 x i8], [127 x i8]* @_ZN8perfetto6protosL63ChromeCompositorSchedulerState_BeginImplFrameDeadlineMode_namesE, i64 0, i64 101), i64 25 }, i32 0, [4 x i8] zeroinitializer }>], align 16
@_ZN8perfetto6protosL63ChromeCompositorSchedulerState_BeginImplFrameDeadlineMode_namesE = internal constant [127 x i8] c"DEADLINE_MODE_BLOCKEDDEADLINE_MODE_IMMEDIATEDEADLINE_MODE_LATEDEADLINE_MODE_NONEDEADLINE_MODE_REGULARDEADLINE_MODE_UNSPECIFIED\00", align 16
@_ZZN8perfetto6protos62ChromeCompositorSchedulerState_BeginImplFrameDeadlineMode_NameENS0_57ChromeCompositorSchedulerState_BeginImplFrameDeadlineModeEE5dummy = internal global i8 0, align 1
@_ZGVZN8perfetto6protos62ChromeCompositorSchedulerState_BeginImplFrameDeadlineMode_NameENS0_57ChromeCompositorSchedulerState_BeginImplFrameDeadlineModeEE5dummy = internal global i64 0, align 8
@_ZN8perfetto6protosL75ChromeCompositorSchedulerState_BeginImplFrameDeadlineMode_entries_by_numberE = internal constant [6 x i32] [i32 5, i32 3, i32 1, i32 4, i32 2, i32 0], align 16
@_ZN8perfetto6protosL65ChromeCompositorSchedulerState_BeginImplFrameDeadlineMode_stringsE = internal global [6 x %"class.google::protobuf::internal::ExplicitlyConstructed.14"] zeroinitializer, align 16
@_ZN8perfetto6protos30ChromeCompositorSchedulerState25DEADLINE_MODE_UNSPECIFIEDE = hidden local_unnamed_addr constant i32 0, align 4
@_ZN8perfetto6protos30ChromeCompositorSchedulerState18DEADLINE_MODE_NONEE = hidden local_unnamed_addr constant i32 1, align 4
@_ZN8perfetto6protos30ChromeCompositorSchedulerState23DEADLINE_MODE_IMMEDIATEE = hidden local_unnamed_addr constant i32 2, align 4
@_ZN8perfetto6protos30ChromeCompositorSchedulerState21DEADLINE_MODE_REGULARE = hidden local_unnamed_addr constant i32 3, align 4
@_ZN8perfetto6protos30ChromeCompositorSchedulerState18DEADLINE_MODE_LATEE = hidden local_unnamed_addr constant i32 4, align 4
@_ZN8perfetto6protos30ChromeCompositorSchedulerState21DEADLINE_MODE_BLOCKEDE = hidden local_unnamed_addr constant i32 5, align 4
@_ZN8perfetto6protos30ChromeCompositorSchedulerState30BeginImplFrameDeadlineMode_MINE = hidden local_unnamed_addr constant i32 0, align 4
@_ZN8perfetto6protos30ChromeCompositorSchedulerState30BeginImplFrameDeadlineMode_MAXE = hidden local_unnamed_addr constant i32 5, align 4
@_ZN8perfetto6protos30ChromeCompositorSchedulerState36BeginImplFrameDeadlineMode_ARRAYSIZEE = hidden local_unnamed_addr constant i32 6, align 4
@_ZN8perfetto6protosL67ChromeCompositorStateMachine_MajorState_BeginImplFrameState_entriesE = internal constant [4 x %"struct.google::protobuf::internal::EnumEntry"] [%"struct.google::protobuf::internal::EnumEntry" <{ %"class.google::protobuf::StringPiece" { i8* getelementptr inbounds ([117 x i8], [117 x i8]* @_ZN8perfetto6protosL65ChromeCompositorStateMachine_MajorState_BeginImplFrameState_namesE, i64 0, i64 0), i64 21 }, i32 1, [4 x i8] zeroinitializer }>, %"struct.google::protobuf::internal::EnumEntry" <{ %"class.google::protobuf::StringPiece" { i8* getelementptr inbounds ([117 x i8], [117 x i8]* @_ZN8perfetto6protosL65ChromeCompositorStateMachine_MajorState_BeginImplFrameState_namesE, i64 0, i64 21), i64 35 }, i32 2, [4 x i8] zeroinitializer }>, %"struct.google::protobuf::internal::EnumEntry" <{ %"class.google::protobuf::StringPiece" { i8* getelementptr inbounds ([117 x i8], [117 x i8]* @_ZN8perfetto6protosL65ChromeCompositorStateMachine_MajorState_BeginImplFrameState_namesE, i64 0, i64 56), i64 32 }, i32 3, [4 x i8] zeroinitializer }>, %"struct.google::protobuf::internal::EnumEntry" <{ %"class.google::protobuf::StringPiece" { i8* getelementptr inbounds ([117 x i8], [117 x i8]* @_ZN8perfetto6protosL65ChromeCompositorStateMachine_MajorState_BeginImplFrameState_namesE, i64 0, i64 88), i64 28 }, i32 0, [4 x i8] zeroinitializer }>], align 16
@_ZN8perfetto6protosL65ChromeCompositorStateMachine_MajorState_BeginImplFrameState_namesE = internal constant [117 x i8] c"BEGIN_IMPL_FRAME_IDLEBEGIN_IMPL_FRAME_INSIDE_BEGIN_FRAMEBEGIN_IMPL_FRAME_INSIDE_DEADLINEBEGIN_IMPL_FRAME_UNSPECIFIED\00", align 16
@_ZZN8perfetto6protos64ChromeCompositorStateMachine_MajorState_BeginImplFrameState_NameENS0_59ChromeCompositorStateMachine_MajorState_BeginImplFrameStateEE5dummy = internal global i8 0, align 1
@_ZGVZN8perfetto6protos64ChromeCompositorStateMachine_MajorState_BeginImplFrameState_NameENS0_59ChromeCompositorStateMachine_MajorState_BeginImplFrameStateEE5dummy = internal global i64 0, align 8
@_ZN8perfetto6protosL77ChromeCompositorStateMachine_MajorState_BeginImplFrameState_entries_by_numberE = internal constant [4 x i32] [i32 3, i32 0, i32 1, i32 2], align 16
@_ZN8perfetto6protosL67ChromeCompositorStateMachine_MajorState_BeginImplFrameState_stringsE = internal global [4 x %"class.google::protobuf::internal::ExplicitlyConstructed.14"] zeroinitializer, align 16
@_ZN8perfetto6protos39ChromeCompositorStateMachine_MajorState28BEGIN_IMPL_FRAME_UNSPECIFIEDE = hidden local_unnamed_addr constant i32 0, align 4
@_ZN8perfetto6protos39ChromeCompositorStateMachine_MajorState21BEGIN_IMPL_FRAME_IDLEE = hidden local_unnamed_addr constant i32 1, align 4
@_ZN8perfetto6protos39ChromeCompositorStateMachine_MajorState35BEGIN_IMPL_FRAME_INSIDE_BEGIN_FRAMEE = hidden local_unnamed_addr constant i32 2, align 4
@_ZN8perfetto6protos39ChromeCompositorStateMachine_MajorState32BEGIN_IMPL_FRAME_INSIDE_DEADLINEE = hidden local_unnamed_addr constant i32 3, align 4
@_ZN8perfetto6protos39ChromeCompositorStateMachine_MajorState23BeginImplFrameState_MINE = hidden local_unnamed_addr constant i32 0, align 4
@_ZN8perfetto6protos39ChromeCompositorStateMachine_MajorState23BeginImplFrameState_MAXE = hidden local_unnamed_addr constant i32 3, align 4
@_ZN8perfetto6protos39ChromeCompositorStateMachine_MajorState29BeginImplFrameState_ARRAYSIZEE = hidden local_unnamed_addr constant i32 4, align 4
@_ZN8perfetto6protosL67ChromeCompositorStateMachine_MajorState_BeginMainFrameState_entriesE = internal constant [4 x %"struct.google::protobuf::internal::EnumEntry"] [%"struct.google::protobuf::internal::EnumEntry" <{ %"class.google::protobuf::StringPiece" { i8* getelementptr inbounds ([103 x i8], [103 x i8]* @_ZN8perfetto6protosL65ChromeCompositorStateMachine_MajorState_BeginMainFrameState_namesE, i64 0, i64 0), i64 21 }, i32 1, [4 x i8] zeroinitializer }>, %"struct.google::protobuf::internal::EnumEntry" <{ %"class.google::protobuf::StringPiece" { i8* getelementptr inbounds ([103 x i8], [103 x i8]* @_ZN8perfetto6protosL65ChromeCompositorStateMachine_MajorState_BeginMainFrameState_namesE, i64 0, i64 21), i64 32 }, i32 3, [4 x i8] zeroinitializer }>, %"struct.google::protobuf::internal::EnumEntry" <{ %"class.google::protobuf::StringPiece" { i8* getelementptr inbounds ([103 x i8], [103 x i8]* @_ZN8perfetto6protosL65ChromeCompositorStateMachine_MajorState_BeginMainFrameState_namesE, i64 0, i64 53), i64 21 }, i32 2, [4 x i8] zeroinitializer }>, %"struct.google::protobuf::internal::EnumEntry" <{ %"class.google::protobuf::StringPiece" { i8* getelementptr inbounds ([103 x i8], [103 x i8]* @_ZN8perfetto6protosL65ChromeCompositorStateMachine_MajorState_BeginMainFrameState_namesE, i64 0, i64 74), i64 28 }, i32 0, [4 x i8] zeroinitializer }>], align 16
@_ZN8perfetto6protosL65ChromeCompositorStateMachine_MajorState_BeginMainFrameState_namesE = internal constant [103 x i8] c"BEGIN_MAIN_FRAME_IDLEBEGIN_MAIN_FRAME_READY_TO_COMMITBEGIN_MAIN_FRAME_SENTBEGIN_MAIN_FRAME_UNSPECIFIED\00", align 16
@_ZZN8perfetto6protos64ChromeCompositorStateMachine_MajorState_BeginMainFrameState_NameENS0_59ChromeCompositorStateMachine_MajorState_BeginMainFrameStateEE5dummy = internal global i8 0, align 1
@_ZGVZN8perfetto6protos64ChromeCompositorStateMachine_MajorState_BeginMainFrameState_NameENS0_59ChromeCompositorStateMachine_MajorState_BeginMainFrameStateEE5dummy = internal global i64 0, align 8
@_ZN8perfetto6protosL77ChromeCompositorStateMachine_MajorState_BeginMainFrameState_entries_by_numberE = internal constant [4 x i32] [i32 3, i32 0, i32 2, i32 1], align 16
@_ZN8perfetto6protosL67ChromeCompositorStateMachine_MajorState_BeginMainFrameState_stringsE = internal global [4 x %"class.google::protobuf::internal::ExplicitlyConstructed.14"] zeroinitializer, align 16
@_ZN8perfetto6protos39ChromeCompositorStateMachine_MajorState28BEGIN_MAIN_FRAME_UNSPECIFIEDE = hidden local_unnamed_addr constant i32 0, align 4
@_ZN8perfetto6protos39ChromeCompositorStateMachine_MajorState21BEGIN_MAIN_FRAME_IDLEE = hidden local_unnamed_addr constant i32 1, align 4
@_ZN8perfetto6protos39ChromeCompositorStateMachine_MajorState21BEGIN_MAIN_FRAME_SENTE = hidden local_unnamed_addr constant i32 2, align 4
@_ZN8perfetto6protos39ChromeCompositorStateMachine_MajorState32BEGIN_MAIN_FRAME_READY_TO_COMMITE = hidden local_unnamed_addr constant i32 3, align 4
@_ZN8perfetto6protos39ChromeCompositorStateMachine_MajorState23BeginMainFrameState_MINE = hidden local_unnamed_addr constant i32 0, align 4
@_ZN8perfetto6protos39ChromeCompositorStateMachine_MajorState23BeginMainFrameState_MAXE = hidden local_unnamed_addr constant i32 3, align 4
@_ZN8perfetto6protos39ChromeCompositorStateMachine_MajorState29BeginMainFrameState_ARRAYSIZEE = hidden local_unnamed_addr constant i32 4, align 4
@_ZN8perfetto6protosL71ChromeCompositorStateMachine_MajorState_LayerTreeFrameSinkState_entriesE = internal constant [6 x %"struct.google::protobuf::internal::EnumEntry"] [%"struct.google::protobuf::internal::EnumEntry" <{ %"class.google::protobuf::StringPiece" { i8* getelementptr inbounds ([184 x i8], [184 x i8]* @_ZN8perfetto6protosL69ChromeCompositorStateMachine_MajorState_LayerTreeFrameSinkState_namesE, i64 0, i64 0), i64 23 }, i32 2, [4 x i8] zeroinitializer }>, %"struct.google::protobuf::internal::EnumEntry" <{ %"class.google::protobuf::StringPiece" { i8* getelementptr inbounds ([184 x i8], [184 x i8]* @_ZN8perfetto6protosL69ChromeCompositorStateMachine_MajorState_LayerTreeFrameSinkState_namesE, i64 0, i64 23), i64 25 }, i32 3, [4 x i8] zeroinitializer }>, %"struct.google::protobuf::internal::EnumEntry" <{ %"class.google::protobuf::StringPiece" { i8* getelementptr inbounds ([184 x i8], [184 x i8]* @_ZN8perfetto6protosL69ChromeCompositorStateMachine_MajorState_LayerTreeFrameSinkState_namesE, i64 0, i64 48), i64 21 }, i32 1, [4 x i8] zeroinitializer }>, %"struct.google::protobuf::internal::EnumEntry" <{ %"class.google::protobuf::StringPiece" { i8* getelementptr inbounds ([184 x i8], [184 x i8]* @_ZN8perfetto6protosL69ChromeCompositorStateMachine_MajorState_LayerTreeFrameSinkState_namesE, i64 0, i64 69), i64 28 }, i32 0, [4 x i8] zeroinitializer }>, %"struct.google::protobuf::internal::EnumEntry" <{ %"class.google::protobuf::StringPiece" { i8* getelementptr inbounds ([184 x i8], [184 x i8]* @_ZN8perfetto6protosL69ChromeCompositorStateMachine_MajorState_LayerTreeFrameSinkState_namesE, i64 0, i64 97), i64 45 }, i32 5, [4 x i8] zeroinitializer }>, %"struct.google::protobuf::internal::EnumEntry" <{ %"class.google::protobuf::StringPiece" { i8* getelementptr inbounds ([184 x i8], [184 x i8]* @_ZN8perfetto6protosL69ChromeCompositorStateMachine_MajorState_LayerTreeFrameSinkState_namesE, i64 0, i64 142), i64 41 }, i32 4, [4 x i8] zeroinitializer }>], align 16
@_ZN8perfetto6protosL69ChromeCompositorStateMachine_MajorState_LayerTreeFrameSinkState_namesE = internal constant [184 x i8] c"LAYER_TREE_FRAME_ACTIVELAYER_TREE_FRAME_CREATINGLAYER_TREE_FRAME_NONELAYER_TREE_FRAME_UNSPECIFIEDLAYER_TREE_FRAME_WAITING_FOR_FIRST_ACTIVATIONLAYER_TREE_FRAME_WAITING_FOR_FIRST_COMMIT\00", align 16
@_ZZN8perfetto6protos68ChromeCompositorStateMachine_MajorState_LayerTreeFrameSinkState_NameENS0_63ChromeCompositorStateMachine_MajorState_LayerTreeFrameSinkStateEE5dummy = internal global i8 0, align 1
@_ZGVZN8perfetto6protos68ChromeCompositorStateMachine_MajorState_LayerTreeFrameSinkState_NameENS0_63ChromeCompositorStateMachine_MajorState_LayerTreeFrameSinkStateEE5dummy = internal global i64 0, align 8
@_ZN8perfetto6protosL81ChromeCompositorStateMachine_MajorState_LayerTreeFrameSinkState_entries_by_numberE = internal constant [6 x i32] [i32 3, i32 2, i32 0, i32 1, i32 5, i32 4], align 16
@_ZN8perfetto6protosL71ChromeCompositorStateMachine_MajorState_LayerTreeFrameSinkState_stringsE = internal global [6 x %"class.google::protobuf::internal::ExplicitlyConstructed.14"] zeroinitializer, align 16
@_ZN8perfetto6protos39ChromeCompositorStateMachine_MajorState28LAYER_TREE_FRAME_UNSPECIFIEDE = hidden local_unnamed_addr constant i32 0, align 4
@_ZN8perfetto6protos39ChromeCompositorStateMachine_MajorState21LAYER_TREE_FRAME_NONEE = hidden local_unnamed_addr constant i32 1, align 4
@_ZN8perfetto6protos39ChromeCompositorStateMachine_MajorState23LAYER_TREE_FRAME_ACTIVEE = hidden local_unnamed_addr constant i32 2, align 4
@_ZN8perfetto6protos39ChromeCompositorStateMachine_MajorState25LAYER_TREE_FRAME_CREATINGE = hidden local_unnamed_addr constant i32 3, align 4
@_ZN8perfetto6protos39ChromeCompositorStateMachine_MajorState41LAYER_TREE_FRAME_WAITING_FOR_FIRST_COMMITE = hidden local_unnamed_addr constant i32 4, align 4
@_ZN8perfetto6protos39ChromeCompositorStateMachine_MajorState45LAYER_TREE_FRAME_WAITING_FOR_FIRST_ACTIVATIONE = hidden local_unnamed_addr constant i32 5, align 4
@_ZN8perfetto6protos39ChromeCompositorStateMachine_MajorState27LayerTreeFrameSinkState_MINE = hidden local_unnamed_addr constant i32 0, align 4
@_ZN8perfetto6protos39ChromeCompositorStateMachine_MajorState27LayerTreeFrameSinkState_MAXE = hidden local_unnamed_addr constant i32 5, align 4
@_ZN8perfetto6protos39ChromeCompositorStateMachine_MajorState33LayerTreeFrameSinkState_ARRAYSIZEE = hidden local_unnamed_addr constant i32 6, align 4
@_ZN8perfetto6protosL74ChromeCompositorStateMachine_MajorState_ForcedRedrawOnTimeoutState_entriesE = internal constant [5 x %"struct.google::protobuf::internal::EnumEntry"] [%"struct.google::protobuf::internal::EnumEntry" <{ %"class.google::protobuf::StringPiece" { i8* getelementptr inbounds ([142 x i8], [142 x i8]* @_ZN8perfetto6protosL72ChromeCompositorStateMachine_MajorState_ForcedRedrawOnTimeoutState_namesE, i64 0, i64 0), i64 18 }, i32 1, [4 x i8] zeroinitializer }>, %"struct.google::protobuf::internal::EnumEntry" <{ %"class.google::protobuf::StringPiece" { i8* getelementptr inbounds ([142 x i8], [142 x i8]* @_ZN8perfetto6protosL72ChromeCompositorStateMachine_MajorState_ForcedRedrawOnTimeoutState_namesE, i64 0, i64 18), i64 25 }, i32 0, [4 x i8] zeroinitializer }>, %"struct.google::protobuf::internal::EnumEntry" <{ %"class.google::protobuf::StringPiece" { i8* getelementptr inbounds ([142 x i8], [142 x i8]* @_ZN8perfetto6protosL72ChromeCompositorStateMachine_MajorState_ForcedRedrawOnTimeoutState_namesE, i64 0, i64 43), i64 36 }, i32 3, [4 x i8] zeroinitializer }>, %"struct.google::protobuf::internal::EnumEntry" <{ %"class.google::protobuf::StringPiece" { i8* getelementptr inbounds ([142 x i8], [142 x i8]* @_ZN8perfetto6protosL72ChromeCompositorStateMachine_MajorState_ForcedRedrawOnTimeoutState_namesE, i64 0, i64 79), i64 32 }, i32 2, [4 x i8] zeroinitializer }>, %"struct.google::protobuf::internal::EnumEntry" <{ %"class.google::protobuf::StringPiece" { i8* getelementptr inbounds ([142 x i8], [142 x i8]* @_ZN8perfetto6protosL72ChromeCompositorStateMachine_MajorState_ForcedRedrawOnTimeoutState_namesE, i64 0, i64 111), i64 30 }, i32 4, [4 x i8] zeroinitializer }>], align 16
@_ZN8perfetto6protosL72ChromeCompositorStateMachine_MajorState_ForcedRedrawOnTimeoutState_namesE = internal constant [142 x i8] c"FORCED_REDRAW_IDLEFORCED_REDRAW_UNSPECIFIEDFORCED_REDRAW_WAITING_FOR_ACTIVATIONFORCED_REDRAW_WAITING_FOR_COMMITFORCED_REDRAW_WAITING_FOR_DRAW\00", align 16
@_ZZN8perfetto6protos71ChromeCompositorStateMachine_MajorState_ForcedRedrawOnTimeoutState_NameENS0_66ChromeCompositorStateMachine_MajorState_ForcedRedrawOnTimeoutStateEE5dummy = internal global i8 0, align 1
@_ZGVZN8perfetto6protos71ChromeCompositorStateMachine_MajorState_ForcedRedrawOnTimeoutState_NameENS0_66ChromeCompositorStateMachine_MajorState_ForcedRedrawOnTimeoutStateEE5dummy = internal global i64 0, align 8
@_ZN8perfetto6protosL84ChromeCompositorStateMachine_MajorState_ForcedRedrawOnTimeoutState_entries_by_numberE = internal constant [5 x i32] [i32 1, i32 0, i32 3, i32 2, i32 4], align 16
@_ZN8perfetto6protosL74ChromeCompositorStateMachine_MajorState_ForcedRedrawOnTimeoutState_stringsE = internal global [5 x %"class.google::protobuf::internal::ExplicitlyConstructed.14"] zeroinitializer, align 16
@_ZN8perfetto6protos39ChromeCompositorStateMachine_MajorState25FORCED_REDRAW_UNSPECIFIEDE = hidden local_unnamed_addr constant i32 0, align 4
@_ZN8perfetto6protos39ChromeCompositorStateMachine_MajorState18FORCED_REDRAW_IDLEE = hidden local_unnamed_addr constant i32 1, align 4
@_ZN8perfetto6protos39ChromeCompositorStateMachine_MajorState32FORCED_REDRAW_WAITING_FOR_COMMITE = hidden local_unnamed_addr constant i32 2, align 4
@_ZN8perfetto6protos39ChromeCompositorStateMachine_MajorState36FORCED_REDRAW_WAITING_FOR_ACTIVATIONE = hidden local_unnamed_addr constant i32 3, align 4
@_ZN8perfetto6protos39ChromeCompositorStateMachine_MajorState30FORCED_REDRAW_WAITING_FOR_DRAWE = hidden local_unnamed_addr constant i32 4, align 4
@_ZN8perfetto6protos39ChromeCompositorStateMachine_MajorState30ForcedRedrawOnTimeoutState_MINE = hidden local_unnamed_addr constant i32 0, align 4
@_ZN8perfetto6protos39ChromeCompositorStateMachine_MajorState30ForcedRedrawOnTimeoutState_MAXE = hidden local_unnamed_addr constant i32 4, align 4
@_ZN8perfetto6protos39ChromeCompositorStateMachine_MajorState36ForcedRedrawOnTimeoutState_ARRAYSIZEE = hidden local_unnamed_addr constant i32 5, align 4
@_ZN8perfetto6protosL60ChromeCompositorStateMachine_MinorState_TreePriority_entriesE = internal constant [4 x %"struct.google::protobuf::internal::EnumEntry"] [%"struct.google::protobuf::internal::EnumEntry" <{ %"class.google::protobuf::StringPiece" { i8* getelementptr inbounds ([147 x i8], [147 x i8]* @_ZN8perfetto6protosL58ChromeCompositorStateMachine_MinorState_TreePriority_namesE, i64 0, i64 0), i64 40 }, i32 3, [4 x i8] zeroinitializer }>, %"struct.google::protobuf::internal::EnumEntry" <{ %"class.google::protobuf::StringPiece" { i8* getelementptr inbounds ([147 x i8], [147 x i8]* @_ZN8perfetto6protosL58ChromeCompositorStateMachine_MinorState_TreePriority_namesE, i64 0, i64 40), i64 42 }, i32 1, [4 x i8] zeroinitializer }>, %"struct.google::protobuf::internal::EnumEntry" <{ %"class.google::protobuf::StringPiece" { i8* getelementptr inbounds ([147 x i8], [147 x i8]* @_ZN8perfetto6protosL58ChromeCompositorStateMachine_MinorState_TreePriority_namesE, i64 0, i64 82), i64 39 }, i32 2, [4 x i8] zeroinitializer }>, %"struct.google::protobuf::internal::EnumEntry" <{ %"class.google::protobuf::StringPiece" { i8* getelementptr inbounds ([147 x i8], [147 x i8]* @_ZN8perfetto6protosL58ChromeCompositorStateMachine_MinorState_TreePriority_namesE, i64 0, i64 121), i64 25 }, i32 0, [4 x i8] zeroinitializer }>], align 16
@_ZN8perfetto6protosL58ChromeCompositorStateMachine_MinorState_TreePriority_namesE = internal constant [147 x i8] c"TREE_PRIORITY_NEW_CONTENT_TAKES_PRIORITYTREE_PRIORITY_SAME_PRIORITY_FOR_BOTH_TREESTREE_PRIORITY_SMOOTHNESS_TAKES_PRIORITYTREE_PRIORITY_UNSPECIFIED\00", align 16
@_ZZN8perfetto6protos57ChromeCompositorStateMachine_MinorState_TreePriority_NameENS0_52ChromeCompositorStateMachine_MinorState_TreePriorityEE5dummy = internal global i8 0, align 1
@_ZGVZN8perfetto6protos57ChromeCompositorStateMachine_MinorState_TreePriority_NameENS0_52ChromeCompositorStateMachine_MinorState_TreePriorityEE5dummy = internal global i64 0, align 8
@_ZN8perfetto6protosL70ChromeCompositorStateMachine_MinorState_TreePriority_entries_by_numberE = internal constant [4 x i32] [i32 3, i32 1, i32 2, i32 0], align 16
@_ZN8perfetto6protosL60ChromeCompositorStateMachine_MinorState_TreePriority_stringsE = internal global [4 x %"class.google::protobuf::internal::ExplicitlyConstructed.14"] zeroinitializer, align 16
@_ZN8perfetto6protos39ChromeCompositorStateMachine_MinorState25TREE_PRIORITY_UNSPECIFIEDE = hidden local_unnamed_addr constant i32 0, align 4
@_ZN8perfetto6protos39ChromeCompositorStateMachine_MinorState42TREE_PRIORITY_SAME_PRIORITY_FOR_BOTH_TREESE = hidden local_unnamed_addr constant i32 1, align 4
@_ZN8perfetto6protos39ChromeCompositorStateMachine_MinorState39TREE_PRIORITY_SMOOTHNESS_TAKES_PRIORITYE = hidden local_unnamed_addr constant i32 2, align 4
@_ZN8perfetto6protos39ChromeCompositorStateMachine_MinorState40TREE_PRIORITY_NEW_CONTENT_TAKES_PRIORITYE = hidden local_unnamed_addr constant i32 3, align 4
@_ZN8perfetto6protos39ChromeCompositorStateMachine_MinorState16TreePriority_MINE = hidden local_unnamed_addr constant i32 0, align 4
@_ZN8perfetto6protos39ChromeCompositorStateMachine_MinorState16TreePriority_MAXE = hidden local_unnamed_addr constant i32 3, align 4
@_ZN8perfetto6protos39ChromeCompositorStateMachine_MinorState22TreePriority_ARRAYSIZEE = hidden local_unnamed_addr constant i32 4, align 4
@_ZN8perfetto6protosL66ChromeCompositorStateMachine_MinorState_ScrollHandlerState_entriesE = internal constant [3 x %"struct.google::protobuf::internal::EnumEntry"] [%"struct.google::protobuf::internal::EnumEntry" <{ %"class.google::protobuf::StringPiece" { i8* getelementptr inbounds ([93 x i8], [93 x i8]* @_ZN8perfetto6protosL64ChromeCompositorStateMachine_MinorState_ScrollHandlerState_namesE, i64 0, i64 0), i64 29 }, i32 1, [4 x i8] zeroinitializer }>, %"struct.google::protobuf::internal::EnumEntry" <{ %"class.google::protobuf::StringPiece" { i8* getelementptr inbounds ([93 x i8], [93 x i8]* @_ZN8perfetto6protosL64ChromeCompositorStateMachine_MinorState_ScrollHandlerState_namesE, i64 0, i64 29), i64 37 }, i32 2, [4 x i8] zeroinitializer }>, %"struct.google::protobuf::internal::EnumEntry" <{ %"class.google::protobuf::StringPiece" { i8* getelementptr inbounds ([93 x i8], [93 x i8]* @_ZN8perfetto6protosL64ChromeCompositorStateMachine_MinorState_ScrollHandlerState_namesE, i64 0, i64 66), i64 26 }, i32 0, [4 x i8] zeroinitializer }>], align 16
@_ZN8perfetto6protosL64ChromeCompositorStateMachine_MinorState_ScrollHandlerState_namesE = internal constant [93 x i8] c"SCROLL_AFFECTS_SCROLL_HANDLERSCROLL_DOES_NOT_AFFECT_SCROLL_HANDLERSCROLL_HANDLER_UNSPECIFIED\00", align 16
@_ZZN8perfetto6protos63ChromeCompositorStateMachine_MinorState_ScrollHandlerState_NameENS0_58ChromeCompositorStateMachine_MinorState_ScrollHandlerStateEE5dummy = internal global i8 0, align 1
@_ZGVZN8perfetto6protos63ChromeCompositorStateMachine_MinorState_ScrollHandlerState_NameENS0_58ChromeCompositorStateMachine_MinorState_ScrollHandlerStateEE5dummy = internal global i64 0, align 8
@_ZN8perfetto6protosL76ChromeCompositorStateMachine_MinorState_ScrollHandlerState_entries_by_numberE = internal constant [3 x i32] [i32 2, i32 0, i32 1], align 4
@_ZN8perfetto6protosL66ChromeCompositorStateMachine_MinorState_ScrollHandlerState_stringsE = internal global [3 x %"class.google::protobuf::internal::ExplicitlyConstructed.14"] zeroinitializer, align 16
@_ZN8perfetto6protos39ChromeCompositorStateMachine_MinorState26SCROLL_HANDLER_UNSPECIFIEDE = hidden local_unnamed_addr constant i32 0, align 4
@_ZN8perfetto6protos39ChromeCompositorStateMachine_MinorState29SCROLL_AFFECTS_SCROLL_HANDLERE = hidden local_unnamed_addr constant i32 1, align 4
@_ZN8perfetto6protos39ChromeCompositorStateMachine_MinorState37SCROLL_DOES_NOT_AFFECT_SCROLL_HANDLERE = hidden local_unnamed_addr constant i32 2, align 4
@_ZN8perfetto6protos39ChromeCompositorStateMachine_MinorState22ScrollHandlerState_MINE = hidden local_unnamed_addr constant i32 0, align 4
@_ZN8perfetto6protos39ChromeCompositorStateMachine_MinorState22ScrollHandlerState_MAXE = hidden local_unnamed_addr constant i32 2, align 4
@_ZN8perfetto6protos39ChromeCompositorStateMachine_MinorState28ScrollHandlerState_ARRAYSIZEE = hidden local_unnamed_addr constant i32 3, align 4
@_ZN8perfetto6protosL41BeginFrameArgs_BeginFrameArgsType_entriesE = internal constant [4 x %"struct.google::protobuf::internal::EnumEntry"] [%"struct.google::protobuf::internal::EnumEntry" <{ %"class.google::protobuf::StringPiece" { i8* getelementptr inbounds ([119 x i8], [119 x i8]* @_ZN8perfetto6protosL39BeginFrameArgs_BeginFrameArgsType_namesE, i64 0, i64 0), i64 29 }, i32 1, [4 x i8] zeroinitializer }>, %"struct.google::protobuf::internal::EnumEntry" <{ %"class.google::protobuf::StringPiece" { i8* getelementptr inbounds ([119 x i8], [119 x i8]* @_ZN8perfetto6protosL39BeginFrameArgs_BeginFrameArgsType_namesE, i64 0, i64 29), i64 28 }, i32 3, [4 x i8] zeroinitializer }>, %"struct.google::protobuf::internal::EnumEntry" <{ %"class.google::protobuf::StringPiece" { i8* getelementptr inbounds ([119 x i8], [119 x i8]* @_ZN8perfetto6protosL39BeginFrameArgs_BeginFrameArgsType_namesE, i64 0, i64 57), i64 28 }, i32 2, [4 x i8] zeroinitializer }>, %"struct.google::protobuf::internal::EnumEntry" <{ %"class.google::protobuf::StringPiece" { i8* getelementptr inbounds ([119 x i8], [119 x i8]* @_ZN8perfetto6protosL39BeginFrameArgs_BeginFrameArgsType_namesE, i64 0, i64 85), i64 33 }, i32 0, [4 x i8] zeroinitializer }>], align 16
@_ZN8perfetto6protosL39BeginFrameArgs_BeginFrameArgsType_namesE = internal constant [119 x i8] c"BEGIN_FRAME_ARGS_TYPE_INVALIDBEGIN_FRAME_ARGS_TYPE_MISSEDBEGIN_FRAME_ARGS_TYPE_NORMALBEGIN_FRAME_ARGS_TYPE_UNSPECIFIED\00", align 16
@_ZZN8perfetto6protos38BeginFrameArgs_BeginFrameArgsType_NameENS0_33BeginFrameArgs_BeginFrameArgsTypeEE5dummy = internal global i8 0, align 1
@_ZGVZN8perfetto6protos38BeginFrameArgs_BeginFrameArgsType_NameENS0_33BeginFrameArgs_BeginFrameArgsTypeEE5dummy = internal global i64 0, align 8
@_ZN8perfetto6protosL51BeginFrameArgs_BeginFrameArgsType_entries_by_numberE = internal constant [4 x i32] [i32 3, i32 0, i32 2, i32 1], align 16
@_ZN8perfetto6protosL41BeginFrameArgs_BeginFrameArgsType_stringsE = internal global [4 x %"class.google::protobuf::internal::ExplicitlyConstructed.14"] zeroinitializer, align 16
@_ZN8perfetto6protos14BeginFrameArgs33BEGIN_FRAME_ARGS_TYPE_UNSPECIFIEDE = hidden local_unnamed_addr constant i32 0, align 4
@_ZN8perfetto6protos14BeginFrameArgs29BEGIN_FRAME_ARGS_TYPE_INVALIDE = hidden local_unnamed_addr constant i32 1, align 4
@_ZN8perfetto6protos14BeginFrameArgs28BEGIN_FRAME_ARGS_TYPE_NORMALE = hidden local_unnamed_addr constant i32 2, align 4
@_ZN8perfetto6protos14BeginFrameArgs28BEGIN_FRAME_ARGS_TYPE_MISSEDE = hidden local_unnamed_addr constant i32 3, align 4
@_ZN8perfetto6protos14BeginFrameArgs22BeginFrameArgsType_MINE = hidden local_unnamed_addr constant i32 0, align 4
@_ZN8perfetto6protos14BeginFrameArgs22BeginFrameArgsType_MAXE = hidden local_unnamed_addr constant i32 3, align 4
@_ZN8perfetto6protos14BeginFrameArgs28BeginFrameArgsType_ARRAYSIZEE = hidden local_unnamed_addr constant i32 4, align 4
@_ZN8perfetto6protosL32BeginImplFrameArgs_State_entriesE = internal constant [2 x %"struct.google::protobuf::internal::EnumEntry"] [%"struct.google::protobuf::internal::EnumEntry" <{ %"class.google::protobuf::StringPiece" { i8* getelementptr inbounds ([38 x i8], [38 x i8]* @_ZN8perfetto6protosL30BeginImplFrameArgs_State_namesE, i64 0, i64 0), i64 20 }, i32 0, [4 x i8] zeroinitializer }>, %"struct.google::protobuf::internal::EnumEntry" <{ %"class.google::protobuf::StringPiece" { i8* getelementptr inbounds ([38 x i8], [38 x i8]* @_ZN8perfetto6protosL30BeginImplFrameArgs_State_namesE, i64 0, i64 20), i64 17 }, i32 1, [4 x i8] zeroinitializer }>], align 16
@_ZN8perfetto6protosL30BeginImplFrameArgs_State_namesE = internal constant [38 x i8] c"BEGIN_FRAME_FINISHEDBEGIN_FRAME_USING\00", align 16
@_ZZN8perfetto6protos29BeginImplFrameArgs_State_NameENS0_24BeginImplFrameArgs_StateEE5dummy = internal global i8 0, align 1
@_ZGVZN8perfetto6protos29BeginImplFrameArgs_State_NameENS0_24BeginImplFrameArgs_StateEE5dummy = internal global i64 0, align 8
@_ZN8perfetto6protosL42BeginImplFrameArgs_State_entries_by_numberE = internal constant [2 x i32] [i32 0, i32 1], align 4
@_ZN8perfetto6protosL32BeginImplFrameArgs_State_stringsE = internal global [2 x %"class.google::protobuf::internal::ExplicitlyConstructed.14"] zeroinitializer, align 16
@_ZN8perfetto6protos18BeginImplFrameArgs20BEGIN_FRAME_FINISHEDE = hidden local_unnamed_addr constant i32 0, align 4
@_ZN8perfetto6protos18BeginImplFrameArgs17BEGIN_FRAME_USINGE = hidden local_unnamed_addr constant i32 1, align 4
@_ZN8perfetto6protos18BeginImplFrameArgs9State_MINE = hidden local_unnamed_addr constant i32 0, align 4
@_ZN8perfetto6protos18BeginImplFrameArgs9State_MAXE = hidden local_unnamed_addr constant i32 1, align 4
@_ZN8perfetto6protos18BeginImplFrameArgs15State_ARRAYSIZEE = hidden local_unnamed_addr constant i32 2, align 4
@_ZN8perfetto6protosL39ChromeCompositorSchedulerAction_entriesE = internal constant [14 x %"struct.google::protobuf::internal::EnumEntry"] [%"struct.google::protobuf::internal::EnumEntry" <{ %"class.google::protobuf::StringPiece" { i8* getelementptr inbounds ([572 x i8], [572 x i8]* @_ZN8perfetto6protosL37ChromeCompositorSchedulerAction_namesE, i64 0, i64 0), i64 38 }, i32 4, [4 x i8] zeroinitializer }>, %"struct.google::protobuf::internal::EnumEntry" <{ %"class.google::protobuf::StringPiece" { i8* getelementptr inbounds ([572 x i8], [572 x i8]* @_ZN8perfetto6protosL37ChromeCompositorSchedulerAction_namesE, i64 0, i64 38), i64 56 }, i32 8, [4 x i8] zeroinitializer }>, %"struct.google::protobuf::internal::EnumEntry" <{ %"class.google::protobuf::StringPiece" { i8* getelementptr inbounds ([572 x i8], [572 x i8]* @_ZN8perfetto6protosL37ChromeCompositorSchedulerAction_namesE, i64 0, i64 94), i64 26 }, i32 3, [4 x i8] zeroinitializer }>, %"struct.google::protobuf::internal::EnumEntry" <{ %"class.google::protobuf::StringPiece" { i8* getelementptr inbounds ([572 x i8], [572 x i8]* @_ZN8perfetto6protosL37ChromeCompositorSchedulerAction_namesE, i64 0, i64 120), i64 30 }, i32 7, [4 x i8] zeroinitializer }>, %"struct.google::protobuf::internal::EnumEntry" <{ %"class.google::protobuf::StringPiece" { i8* getelementptr inbounds ([572 x i8], [572 x i8]* @_ZN8perfetto6protosL37ChromeCompositorSchedulerAction_namesE, i64 0, i64 150), i64 31 }, i32 6, [4 x i8] zeroinitializer }>, %"struct.google::protobuf::internal::EnumEntry" <{ %"class.google::protobuf::StringPiece" { i8* getelementptr inbounds ([572 x i8], [572 x i8]* @_ZN8perfetto6protosL37ChromeCompositorSchedulerAction_namesE, i64 0, i64 181), i64 36 }, i32 5, [4 x i8] zeroinitializer }>, %"struct.google::protobuf::internal::EnumEntry" <{ %"class.google::protobuf::StringPiece" { i8* getelementptr inbounds ([572 x i8], [572 x i8]* @_ZN8perfetto6protosL37ChromeCompositorSchedulerAction_namesE, i64 0, i64 217), i64 52 }, i32 10, [4 x i8] zeroinitializer }>, %"struct.google::protobuf::internal::EnumEntry" <{ %"class.google::protobuf::StringPiece" { i8* getelementptr inbounds ([572 x i8], [572 x i8]* @_ZN8perfetto6protosL37ChromeCompositorSchedulerAction_namesE, i64 0, i64 269), i64 24 }, i32 1, [4 x i8] zeroinitializer }>, %"struct.google::protobuf::internal::EnumEntry" <{ %"class.google::protobuf::StringPiece" { i8* getelementptr inbounds ([572 x i8], [572 x i8]* @_ZN8perfetto6protosL37ChromeCompositorSchedulerAction_namesE, i64 0, i64 293), i64 61 }, i32 13, [4 x i8] zeroinitializer }>, %"struct.google::protobuf::internal::EnumEntry" <{ %"class.google::protobuf::StringPiece" { i8* getelementptr inbounds ([572 x i8], [572 x i8]* @_ZN8perfetto6protosL37ChromeCompositorSchedulerAction_namesE, i64 0, i64 354), i64 62 }, i32 12, [4 x i8] zeroinitializer }>, %"struct.google::protobuf::internal::EnumEntry" <{ %"class.google::protobuf::StringPiece" { i8* getelementptr inbounds ([572 x i8], [572 x i8]* @_ZN8perfetto6protosL37ChromeCompositorSchedulerAction_namesE, i64 0, i64 416), i64 50 }, i32 11, [4 x i8] zeroinitializer }>, %"struct.google::protobuf::internal::EnumEntry" <{ %"class.google::protobuf::StringPiece" { i8* getelementptr inbounds ([572 x i8], [572 x i8]* @_ZN8perfetto6protosL37ChromeCompositorSchedulerAction_namesE, i64 0, i64 466), i64 33 }, i32 9, [4 x i8] zeroinitializer }>, %"struct.google::protobuf::internal::EnumEntry" <{ %"class.google::protobuf::StringPiece" { i8* getelementptr inbounds ([572 x i8], [572 x i8]* @_ZN8perfetto6protosL37ChromeCompositorSchedulerAction_namesE, i64 0, i64 499), i64 41 }, i32 2, [4 x i8] zeroinitializer }>, %"struct.google::protobuf::internal::EnumEntry" <{ %"class.google::protobuf::StringPiece" { i8* getelementptr inbounds ([572 x i8], [572 x i8]* @_ZN8perfetto6protosL37ChromeCompositorSchedulerAction_namesE, i64 0, i64 540), i64 31 }, i32 0, [4 x i8] zeroinitializer }>], align 16
@_ZN8perfetto6protosL37ChromeCompositorSchedulerAction_namesE = internal constant [572 x i8] c"CC_SCHEDULER_ACTION_ACTIVATE_SYNC_TREECC_SCHEDULER_ACTION_BEGIN_LAYER_TREE_FRAME_SINK_CREATIONCC_SCHEDULER_ACTION_COMMITCC_SCHEDULER_ACTION_DRAW_ABORTCC_SCHEDULER_ACTION_DRAW_FORCEDCC_SCHEDULER_ACTION_DRAW_IF_POSSIBLECC_SCHEDULER_ACTION_INVALIDATE_LAYER_TREE_FRAME_SINKCC_SCHEDULER_ACTION_NONECC_SCHEDULER_ACTION_NOTIFY_BEGIN_MAIN_FRAME_NOT_EXPECTED_SOONCC_SCHEDULER_ACTION_NOTIFY_BEGIN_MAIN_FRAME_NOT_EXPECTED_UNTILCC_SCHEDULER_ACTION_PERFORM_IMPL_SIDE_INVALIDATIONCC_SCHEDULER_ACTION_PREPARE_TILESCC_SCHEDULER_ACTION_SEND_BEGIN_MAIN_FRAMECC_SCHEDULER_ACTION_UNSPECIFIED\00", align 16
@_ZZN8perfetto6protos36ChromeCompositorSchedulerAction_NameENS0_31ChromeCompositorSchedulerActionEE5dummy = internal global i8 0, align 1
@_ZGVZN8perfetto6protos36ChromeCompositorSchedulerAction_NameENS0_31ChromeCompositorSchedulerActionEE5dummy = internal global i64 0, align 8
@_ZN8perfetto6protosL49ChromeCompositorSchedulerAction_entries_by_numberE = internal constant [14 x i32] [i32 13, i32 7, i32 12, i32 2, i32 0, i32 5, i32 4, i32 3, i32 1, i32 11, i32 6, i32 10, i32 9, i32 8], align 16
@_ZN8perfetto6protosL39ChromeCompositorSchedulerAction_stringsE = internal global [14 x %"class.google::protobuf::internal::ExplicitlyConstructed.14"] zeroinitializer, align 16
@_ZTVN8perfetto6protos30ChromeCompositorSchedulerStateE = hidden unnamed_addr constant { [16 x i8*] } { [16 x i8*] [i8* null, i8* null, i8* bitcast (void (%"class.perfetto::protos::ChromeCompositorSchedulerState"*)* @_ZN8perfetto6protos30ChromeCompositorSchedulerStateD2Ev to i8*), i8* bitcast (void (%"class.perfetto::protos::ChromeCompositorSchedulerState"*)* @_ZN8perfetto6protos30ChromeCompositorSchedulerStateD0Ev to i8*), i8* bitcast (void (%"class.std::__1::basic_string"*, %"class.perfetto::protos::ChromeCompositorSchedulerState"*)* @_ZNK8perfetto6protos30ChromeCompositorSchedulerState11GetTypeNameEv to i8*), i8* bitcast (%"class.perfetto::protos::ChromeCompositorSchedulerState"* (%"class.perfetto::protos::ChromeCompositorSchedulerState"*)* @_ZNK8perfetto6protos30ChromeCompositorSchedulerState3NewEv to i8*), i8* bitcast (%"class.perfetto::protos::ChromeCompositorSchedulerState"* (%"class.perfetto::protos::ChromeCompositorSchedulerState"*, %"class.google::protobuf::Arena"*)* @_ZNK8perfetto6protos30ChromeCompositorSchedulerState3NewEPN6google8protobuf5ArenaE to i8*), i8* bitcast (void (%"class.perfetto::protos::ChromeCompositorSchedulerState"*)* @_ZN8perfetto6protos30ChromeCompositorSchedulerState5ClearEv to i8*), i8* bitcast (i1 (%"class.perfetto::protos::ChromeCompositorSchedulerState"*)* @_ZNK8perfetto6protos30ChromeCompositorSchedulerState13IsInitializedEv to i8*), i8* bitcast (void (%"class.std::__1::basic_string"*, %"class.google::protobuf::MessageLite"*)* @_ZNK6google8protobuf11MessageLite25InitializationErrorStringEv to i8*), i8* bitcast (void (%"class.perfetto::protos::ChromeCompositorSchedulerState"*, %"class.google::protobuf::MessageLite"*)* @_ZN8perfetto6protos30ChromeCompositorSchedulerState21CheckTypeAndMergeFromERKN6google8protobuf11MessageLiteE to i8*), i8* bitcast (i64 (%"class.perfetto::protos::ChromeCompositorSchedulerState"*)* @_ZNK8perfetto6protos30ChromeCompositorSchedulerState12ByteSizeLongEv to i8*), i8* bitcast (i32 (%"class.perfetto::protos::ChromeCompositorSchedulerState"*)* @_ZNK8perfetto6protos30ChromeCompositorSchedulerState13GetCachedSizeEv to i8*), i8* bitcast (i8* (%"class.perfetto::protos::ChromeCompositorSchedulerState"*, i8*, %"class.google::protobuf::internal::ParseContext"*)* @_ZN8perfetto6protos30ChromeCompositorSchedulerState14_InternalParseEPKcPN6google8protobuf8internal12ParseContextE to i8*), i8* bitcast (i8* (%"class.perfetto::protos::ChromeCompositorSchedulerState"*, i8*, %"class.google::protobuf::io::EpsCopyOutputStream"*)* @_ZNK8perfetto6protos30ChromeCompositorSchedulerState18_InternalSerializeEPhPN6google8protobuf2io19EpsCopyOutputStreamE to i8*), i8* bitcast (i8* (%"class.google::protobuf::MessageLite"*)* @_ZNK6google8protobuf11MessageLite16InternalGetTableEv to i8*)] }, align 8
@.str = private unnamed_addr constant [99 x i8] c"gen/third_party/perfetto/protos/perfetto/trace/track_event/chrome_compositor_scheduler_state.pb.cc\00", align 1
@.str.21 = private unnamed_addr constant [47 x i8] c"perfetto.protos.ChromeCompositorSchedulerState\00", align 1
@_ZTVN8perfetto6protos39ChromeCompositorStateMachine_MajorStateE = hidden unnamed_addr constant { [16 x i8*] } { [16 x i8*] [i8* null, i8* null, i8* bitcast (void (%"class.perfetto::protos::ChromeCompositorStateMachine_MajorState"*)* @_ZN8perfetto6protos39ChromeCompositorStateMachine_MajorStateD2Ev to i8*), i8* bitcast (void (%"class.perfetto::protos::ChromeCompositorStateMachine_MajorState"*)* @_ZN8perfetto6protos39ChromeCompositorStateMachine_MajorStateD0Ev to i8*), i8* bitcast (void (%"class.std::__1::basic_string"*, %"class.perfetto::protos::ChromeCompositorStateMachine_MajorState"*)* @_ZNK8perfetto6protos39ChromeCompositorStateMachine_MajorState11GetTypeNameEv to i8*), i8* bitcast (%"class.perfetto::protos::ChromeCompositorStateMachine_MajorState"* (%"class.perfetto::protos::ChromeCompositorStateMachine_MajorState"*)* @_ZNK8perfetto6protos39ChromeCompositorStateMachine_MajorState3NewEv to i8*), i8* bitcast (%"class.perfetto::protos::ChromeCompositorStateMachine_MajorState"* (%"class.perfetto::protos::ChromeCompositorStateMachine_MajorState"*, %"class.google::protobuf::Arena"*)* @_ZNK8perfetto6protos39ChromeCompositorStateMachine_MajorState3NewEPN6google8protobuf5ArenaE to i8*), i8* bitcast (void (%"class.perfetto::protos::ChromeCompositorStateMachine_MajorState"*)* @_ZN8perfetto6protos39ChromeCompositorStateMachine_MajorState5ClearEv to i8*), i8* bitcast (i1 (%"class.perfetto::protos::ChromeCompositorStateMachine_MajorState"*)* @_ZNK8perfetto6protos39ChromeCompositorStateMachine_MajorState13IsInitializedEv to i8*), i8* bitcast (void (%"class.std::__1::basic_string"*, %"class.google::protobuf::MessageLite"*)* @_ZNK6google8protobuf11MessageLite25InitializationErrorStringEv to i8*), i8* bitcast (void (%"class.perfetto::protos::ChromeCompositorStateMachine_MajorState"*, %"class.google::protobuf::MessageLite"*)* @_ZN8perfetto6protos39ChromeCompositorStateMachine_MajorState21CheckTypeAndMergeFromERKN6google8protobuf11MessageLiteE to i8*), i8* bitcast (i64 (%"class.perfetto::protos::ChromeCompositorStateMachine_MajorState"*)* @_ZNK8perfetto6protos39ChromeCompositorStateMachine_MajorState12ByteSizeLongEv to i8*), i8* bitcast (i32 (%"class.perfetto::protos::ChromeCompositorStateMachine_MajorState"*)* @_ZNK8perfetto6protos39ChromeCompositorStateMachine_MajorState13GetCachedSizeEv to i8*), i8* bitcast (i8* (%"class.perfetto::protos::ChromeCompositorStateMachine_MajorState"*, i8*, %"class.google::protobuf::internal::ParseContext"*)* @_ZN8perfetto6protos39ChromeCompositorStateMachine_MajorState14_InternalParseEPKcPN6google8protobuf8internal12ParseContextE to i8*), i8* bitcast (i8* (%"class.perfetto::protos::ChromeCompositorStateMachine_MajorState"*, i8*, %"class.google::protobuf::io::EpsCopyOutputStream"*)* @_ZNK8perfetto6protos39ChromeCompositorStateMachine_MajorState18_InternalSerializeEPhPN6google8protobuf2io19EpsCopyOutputStreamE to i8*), i8* bitcast (i8* (%"class.google::protobuf::MessageLite"*)* @_ZNK6google8protobuf11MessageLite16InternalGetTableEv to i8*)] }, align 8
@.str.22 = private unnamed_addr constant [56 x i8] c"perfetto.protos.ChromeCompositorStateMachine.MajorState\00", align 1
@_ZTVN8perfetto6protos39ChromeCompositorStateMachine_MinorStateE = hidden unnamed_addr constant { [16 x i8*] } { [16 x i8*] [i8* null, i8* null, i8* bitcast (void (%"class.perfetto::protos::ChromeCompositorStateMachine_MinorState"*)* @_ZN8perfetto6protos39ChromeCompositorStateMachine_MinorStateD2Ev to i8*), i8* bitcast (void (%"class.perfetto::protos::ChromeCompositorStateMachine_MinorState"*)* @_ZN8perfetto6protos39ChromeCompositorStateMachine_MinorStateD0Ev to i8*), i8* bitcast (void (%"class.std::__1::basic_string"*, %"class.perfetto::protos::ChromeCompositorStateMachine_MinorState"*)* @_ZNK8perfetto6protos39ChromeCompositorStateMachine_MinorState11GetTypeNameEv to i8*), i8* bitcast (%"class.perfetto::protos::ChromeCompositorStateMachine_MinorState"* (%"class.perfetto::protos::ChromeCompositorStateMachine_MinorState"*)* @_ZNK8perfetto6protos39ChromeCompositorStateMachine_MinorState3NewEv to i8*), i8* bitcast (%"class.perfetto::protos::ChromeCompositorStateMachine_MinorState"* (%"class.perfetto::protos::ChromeCompositorStateMachine_MinorState"*, %"class.google::protobuf::Arena"*)* @_ZNK8perfetto6protos39ChromeCompositorStateMachine_MinorState3NewEPN6google8protobuf5ArenaE to i8*), i8* bitcast (void (%"class.perfetto::protos::ChromeCompositorStateMachine_MinorState"*)* @_ZN8perfetto6protos39ChromeCompositorStateMachine_MinorState5ClearEv to i8*), i8* bitcast (i1 (%"class.perfetto::protos::ChromeCompositorStateMachine_MinorState"*)* @_ZNK8perfetto6protos39ChromeCompositorStateMachine_MinorState13IsInitializedEv to i8*), i8* bitcast (void (%"class.std::__1::basic_string"*, %"class.google::protobuf::MessageLite"*)* @_ZNK6google8protobuf11MessageLite25InitializationErrorStringEv to i8*), i8* bitcast (void (%"class.perfetto::protos::ChromeCompositorStateMachine_MinorState"*, %"class.google::protobuf::MessageLite"*)* @_ZN8perfetto6protos39ChromeCompositorStateMachine_MinorState21CheckTypeAndMergeFromERKN6google8protobuf11MessageLiteE to i8*), i8* bitcast (i64 (%"class.perfetto::protos::ChromeCompositorStateMachine_MinorState"*)* @_ZNK8perfetto6protos39ChromeCompositorStateMachine_MinorState12ByteSizeLongEv to i8*), i8* bitcast (i32 (%"class.perfetto::protos::ChromeCompositorStateMachine_MinorState"*)* @_ZNK8perfetto6protos39ChromeCompositorStateMachine_MinorState13GetCachedSizeEv to i8*), i8* bitcast (i8* (%"class.perfetto::protos::ChromeCompositorStateMachine_MinorState"*, i8*, %"class.google::protobuf::internal::ParseContext"*)* @_ZN8perfetto6protos39ChromeCompositorStateMachine_MinorState14_InternalParseEPKcPN6google8protobuf8internal12ParseContextE to i8*), i8* bitcast (i8* (%"class.perfetto::protos::ChromeCompositorStateMachine_MinorState"*, i8*, %"class.google::protobuf::io::EpsCopyOutputStream"*)* @_ZNK8perfetto6protos39ChromeCompositorStateMachine_MinorState18_InternalSerializeEPhPN6google8protobuf2io19EpsCopyOutputStreamE to i8*), i8* bitcast (i8* (%"class.google::protobuf::MessageLite"*)* @_ZNK6google8protobuf11MessageLite16InternalGetTableEv to i8*)] }, align 8
@.str.23 = private unnamed_addr constant [56 x i8] c"perfetto.protos.ChromeCompositorStateMachine.MinorState\00", align 1
@_ZTVN8perfetto6protos28ChromeCompositorStateMachineE = hidden unnamed_addr constant { [16 x i8*] } { [16 x i8*] [i8* null, i8* null, i8* bitcast (void (%"class.perfetto::protos::ChromeCompositorStateMachine"*)* @_ZN8perfetto6protos28ChromeCompositorStateMachineD2Ev to i8*), i8* bitcast (void (%"class.perfetto::protos::ChromeCompositorStateMachine"*)* @_ZN8perfetto6protos28ChromeCompositorStateMachineD0Ev to i8*), i8* bitcast (void (%"class.std::__1::basic_string"*, %"class.perfetto::protos::ChromeCompositorStateMachine"*)* @_ZNK8perfetto6protos28ChromeCompositorStateMachine11GetTypeNameEv to i8*), i8* bitcast (%"class.perfetto::protos::ChromeCompositorStateMachine"* (%"class.perfetto::protos::ChromeCompositorStateMachine"*)* @_ZNK8perfetto6protos28ChromeCompositorStateMachine3NewEv to i8*), i8* bitcast (%"class.perfetto::protos::ChromeCompositorStateMachine"* (%"class.perfetto::protos::ChromeCompositorStateMachine"*, %"class.google::protobuf::Arena"*)* @_ZNK8perfetto6protos28ChromeCompositorStateMachine3NewEPN6google8protobuf5ArenaE to i8*), i8* bitcast (void (%"class.perfetto::protos::ChromeCompositorStateMachine"*)* @_ZN8perfetto6protos28ChromeCompositorStateMachine5ClearEv to i8*), i8* bitcast (i1 (%"class.perfetto::protos::ChromeCompositorStateMachine"*)* @_ZNK8perfetto6protos28ChromeCompositorStateMachine13IsInitializedEv to i8*), i8* bitcast (void (%"class.std::__1::basic_string"*, %"class.google::protobuf::MessageLite"*)* @_ZNK6google8protobuf11MessageLite25InitializationErrorStringEv to i8*), i8* bitcast (void (%"class.perfetto::protos::ChromeCompositorStateMachine"*, %"class.google::protobuf::MessageLite"*)* @_ZN8perfetto6protos28ChromeCompositorStateMachine21CheckTypeAndMergeFromERKN6google8protobuf11MessageLiteE to i8*), i8* bitcast (i64 (%"class.perfetto::protos::ChromeCompositorStateMachine"*)* @_ZNK8perfetto6protos28ChromeCompositorStateMachine12ByteSizeLongEv to i8*), i8* bitcast (i32 (%"class.perfetto::protos::ChromeCompositorStateMachine"*)* @_ZNK8perfetto6protos28ChromeCompositorStateMachine13GetCachedSizeEv to i8*), i8* bitcast (i8* (%"class.perfetto::protos::ChromeCompositorStateMachine"*, i8*, %"class.google::protobuf::internal::ParseContext"*)* @_ZN8perfetto6protos28ChromeCompositorStateMachine14_InternalParseEPKcPN6google8protobuf8internal12ParseContextE to i8*), i8* bitcast (i8* (%"class.perfetto::protos::ChromeCompositorStateMachine"*, i8*, %"class.google::protobuf::io::EpsCopyOutputStream"*)* @_ZNK8perfetto6protos28ChromeCompositorStateMachine18_InternalSerializeEPhPN6google8protobuf2io19EpsCopyOutputStreamE to i8*), i8* bitcast (i8* (%"class.google::protobuf::MessageLite"*)* @_ZNK6google8protobuf11MessageLite16InternalGetTableEv to i8*)] }, align 8
@.str.26 = private unnamed_addr constant [45 x i8] c"perfetto.protos.ChromeCompositorStateMachine\00", align 1
@_ZTVN8perfetto6protos14BeginFrameArgsE = hidden unnamed_addr constant { [16 x i8*] } { [16 x i8*] [i8* null, i8* null, i8* bitcast (void (%"class.perfetto::protos::BeginFrameArgs"*)* @_ZN8perfetto6protos14BeginFrameArgsD2Ev to i8*), i8* bitcast (void (%"class.perfetto::protos::BeginFrameArgs"*)* @_ZN8perfetto6protos14BeginFrameArgsD0Ev to i8*), i8* bitcast (void (%"class.std::__1::basic_string"*, %"class.perfetto::protos::BeginFrameArgs"*)* @_ZNK8perfetto6protos14BeginFrameArgs11GetTypeNameEv to i8*), i8* bitcast (%"class.perfetto::protos::BeginFrameArgs"* (%"class.perfetto::protos::BeginFrameArgs"*)* @_ZNK8perfetto6protos14BeginFrameArgs3NewEv to i8*), i8* bitcast (%"class.perfetto::protos::BeginFrameArgs"* (%"class.perfetto::protos::BeginFrameArgs"*, %"class.google::protobuf::Arena"*)* @_ZNK8perfetto6protos14BeginFrameArgs3NewEPN6google8protobuf5ArenaE to i8*), i8* bitcast (void (%"class.perfetto::protos::BeginFrameArgs"*)* @_ZN8perfetto6protos14BeginFrameArgs5ClearEv to i8*), i8* bitcast (i1 (%"class.perfetto::protos::BeginFrameArgs"*)* @_ZNK8perfetto6protos14BeginFrameArgs13IsInitializedEv to i8*), i8* bitcast (void (%"class.std::__1::basic_string"*, %"class.google::protobuf::MessageLite"*)* @_ZNK6google8protobuf11MessageLite25InitializationErrorStringEv to i8*), i8* bitcast (void (%"class.perfetto::protos::BeginFrameArgs"*, %"class.google::protobuf::MessageLite"*)* @_ZN8perfetto6protos14BeginFrameArgs21CheckTypeAndMergeFromERKN6google8protobuf11MessageLiteE to i8*), i8* bitcast (i64 (%"class.perfetto::protos::BeginFrameArgs"*)* @_ZNK8perfetto6protos14BeginFrameArgs12ByteSizeLongEv to i8*), i8* bitcast (i32 (%"class.perfetto::protos::BeginFrameArgs"*)* @_ZNK8perfetto6protos14BeginFrameArgs13GetCachedSizeEv to i8*), i8* bitcast (i8* (%"class.perfetto::protos::BeginFrameArgs"*, i8*, %"class.google::protobuf::internal::ParseContext"*)* @_ZN8perfetto6protos14BeginFrameArgs14_InternalParseEPKcPN6google8protobuf8internal12ParseContextE to i8*), i8* bitcast (i8* (%"class.perfetto::protos::BeginFrameArgs"*, i8*, %"class.google::protobuf::io::EpsCopyOutputStream"*)* @_ZNK8perfetto6protos14BeginFrameArgs18_InternalSerializeEPhPN6google8protobuf2io19EpsCopyOutputStreamE to i8*), i8* bitcast (i8* (%"class.google::protobuf::MessageLite"*)* @_ZNK6google8protobuf11MessageLite16InternalGetTableEv to i8*)] }, align 8
@.str.27 = private unnamed_addr constant [31 x i8] c"perfetto.protos.BeginFrameArgs\00", align 1
@_ZTVN8perfetto6protos33BeginImplFrameArgs_TimestampsInUsE = hidden unnamed_addr constant { [16 x i8*] } { [16 x i8*] [i8* null, i8* null, i8* bitcast (void (%"class.perfetto::protos::BeginImplFrameArgs_TimestampsInUs"*)* @_ZN8perfetto6protos33BeginImplFrameArgs_TimestampsInUsD2Ev to i8*), i8* bitcast (void (%"class.perfetto::protos::BeginImplFrameArgs_TimestampsInUs"*)* @_ZN8perfetto6protos33BeginImplFrameArgs_TimestampsInUsD0Ev to i8*), i8* bitcast (void (%"class.std::__1::basic_string"*, %"class.perfetto::protos::BeginImplFrameArgs_TimestampsInUs"*)* @_ZNK8perfetto6protos33BeginImplFrameArgs_TimestampsInUs11GetTypeNameEv to i8*), i8* bitcast (%"class.perfetto::protos::BeginImplFrameArgs_TimestampsInUs"* (%"class.perfetto::protos::BeginImplFrameArgs_TimestampsInUs"*)* @_ZNK8perfetto6protos33BeginImplFrameArgs_TimestampsInUs3NewEv to i8*), i8* bitcast (%"class.perfetto::protos::BeginImplFrameArgs_TimestampsInUs"* (%"class.perfetto::protos::BeginImplFrameArgs_TimestampsInUs"*, %"class.google::protobuf::Arena"*)* @_ZNK8perfetto6protos33BeginImplFrameArgs_TimestampsInUs3NewEPN6google8protobuf5ArenaE to i8*), i8* bitcast (void (%"class.perfetto::protos::BeginImplFrameArgs_TimestampsInUs"*)* @_ZN8perfetto6protos33BeginImplFrameArgs_TimestampsInUs5ClearEv to i8*), i8* bitcast (i1 (%"class.perfetto::protos::BeginImplFrameArgs_TimestampsInUs"*)* @_ZNK8perfetto6protos33BeginImplFrameArgs_TimestampsInUs13IsInitializedEv to i8*), i8* bitcast (void (%"class.std::__1::basic_string"*, %"class.google::protobuf::MessageLite"*)* @_ZNK6google8protobuf11MessageLite25InitializationErrorStringEv to i8*), i8* bitcast (void (%"class.perfetto::protos::BeginImplFrameArgs_TimestampsInUs"*, %"class.google::protobuf::MessageLite"*)* @_ZN8perfetto6protos33BeginImplFrameArgs_TimestampsInUs21CheckTypeAndMergeFromERKN6google8protobuf11MessageLiteE to i8*), i8* bitcast (i64 (%"class.perfetto::protos::BeginImplFrameArgs_TimestampsInUs"*)* @_ZNK8perfetto6protos33BeginImplFrameArgs_TimestampsInUs12ByteSizeLongEv to i8*), i8* bitcast (i32 (%"class.perfetto::protos::BeginImplFrameArgs_TimestampsInUs"*)* @_ZNK8perfetto6protos33BeginImplFrameArgs_TimestampsInUs13GetCachedSizeEv to i8*), i8* bitcast (i8* (%"class.perfetto::protos::BeginImplFrameArgs_TimestampsInUs"*, i8*, %"class.google::protobuf::internal::ParseContext"*)* @_ZN8perfetto6protos33BeginImplFrameArgs_TimestampsInUs14_InternalParseEPKcPN6google8protobuf8internal12ParseContextE to i8*), i8* bitcast (i8* (%"class.perfetto::protos::BeginImplFrameArgs_TimestampsInUs"*, i8*, %"class.google::protobuf::io::EpsCopyOutputStream"*)* @_ZNK8perfetto6protos33BeginImplFrameArgs_TimestampsInUs18_InternalSerializeEPhPN6google8protobuf2io19EpsCopyOutputStreamE to i8*), i8* bitcast (i8* (%"class.google::protobuf::MessageLite"*)* @_ZNK6google8protobuf11MessageLite16InternalGetTableEv to i8*)] }, align 8
@.str.28 = private unnamed_addr constant [50 x i8] c"perfetto.protos.BeginImplFrameArgs.TimestampsInUs\00", align 1
@_ZTVN8perfetto6protos18BeginImplFrameArgsE = hidden unnamed_addr constant { [16 x i8*] } { [16 x i8*] [i8* null, i8* null, i8* bitcast (void (%"class.perfetto::protos::BeginImplFrameArgs"*)* @_ZN8perfetto6protos18BeginImplFrameArgsD2Ev to i8*), i8* bitcast (void (%"class.perfetto::protos::BeginImplFrameArgs"*)* @_ZN8perfetto6protos18BeginImplFrameArgsD0Ev to i8*), i8* bitcast (void (%"class.std::__1::basic_string"*, %"class.perfetto::protos::BeginImplFrameArgs"*)* @_ZNK8perfetto6protos18BeginImplFrameArgs11GetTypeNameEv to i8*), i8* bitcast (%"class.perfetto::protos::BeginImplFrameArgs"* (%"class.perfetto::protos::BeginImplFrameArgs"*)* @_ZNK8perfetto6protos18BeginImplFrameArgs3NewEv to i8*), i8* bitcast (%"class.perfetto::protos::BeginImplFrameArgs"* (%"class.perfetto::protos::BeginImplFrameArgs"*, %"class.google::protobuf::Arena"*)* @_ZNK8perfetto6protos18BeginImplFrameArgs3NewEPN6google8protobuf5ArenaE to i8*), i8* bitcast (void (%"class.perfetto::protos::BeginImplFrameArgs"*)* @_ZN8perfetto6protos18BeginImplFrameArgs5ClearEv to i8*), i8* bitcast (i1 (%"class.perfetto::protos::BeginImplFrameArgs"*)* @_ZNK8perfetto6protos18BeginImplFrameArgs13IsInitializedEv to i8*), i8* bitcast (void (%"class.std::__1::basic_string"*, %"class.google::protobuf::MessageLite"*)* @_ZNK6google8protobuf11MessageLite25InitializationErrorStringEv to i8*), i8* bitcast (void (%"class.perfetto::protos::BeginImplFrameArgs"*, %"class.google::protobuf::MessageLite"*)* @_ZN8perfetto6protos18BeginImplFrameArgs21CheckTypeAndMergeFromERKN6google8protobuf11MessageLiteE to i8*), i8* bitcast (i64 (%"class.perfetto::protos::BeginImplFrameArgs"*)* @_ZNK8perfetto6protos18BeginImplFrameArgs12ByteSizeLongEv to i8*), i8* bitcast (i32 (%"class.perfetto::protos::BeginImplFrameArgs"*)* @_ZNK8perfetto6protos18BeginImplFrameArgs13GetCachedSizeEv to i8*), i8* bitcast (i8* (%"class.perfetto::protos::BeginImplFrameArgs"*, i8*, %"class.google::protobuf::internal::ParseContext"*)* @_ZN8perfetto6protos18BeginImplFrameArgs14_InternalParseEPKcPN6google8protobuf8internal12ParseContextE to i8*), i8* bitcast (i8* (%"class.perfetto::protos::BeginImplFrameArgs"*, i8*, %"class.google::protobuf::io::EpsCopyOutputStream"*)* @_ZNK8perfetto6protos18BeginImplFrameArgs18_InternalSerializeEPhPN6google8protobuf2io19EpsCopyOutputStreamE to i8*), i8* bitcast (i8* (%"class.google::protobuf::MessageLite"*)* @_ZNK6google8protobuf11MessageLite16InternalGetTableEv to i8*)] }, align 8
@.str.30 = private unnamed_addr constant [35 x i8] c"perfetto.protos.BeginImplFrameArgs\00", align 1
@_ZTVN8perfetto6protos23BeginFrameObserverStateE = hidden unnamed_addr constant { [16 x i8*] } { [16 x i8*] [i8* null, i8* null, i8* bitcast (void (%"class.perfetto::protos::BeginFrameObserverState"*)* @_ZN8perfetto6protos23BeginFrameObserverStateD2Ev to i8*), i8* bitcast (void (%"class.perfetto::protos::BeginFrameObserverState"*)* @_ZN8perfetto6protos23BeginFrameObserverStateD0Ev to i8*), i8* bitcast (void (%"class.std::__1::basic_string"*, %"class.perfetto::protos::BeginFrameObserverState"*)* @_ZNK8perfetto6protos23BeginFrameObserverState11GetTypeNameEv to i8*), i8* bitcast (%"class.perfetto::protos::BeginFrameObserverState"* (%"class.perfetto::protos::BeginFrameObserverState"*)* @_ZNK8perfetto6protos23BeginFrameObserverState3NewEv to i8*), i8* bitcast (%"class.perfetto::protos::BeginFrameObserverState"* (%"class.perfetto::protos::BeginFrameObserverState"*, %"class.google::protobuf::Arena"*)* @_ZNK8perfetto6protos23BeginFrameObserverState3NewEPN6google8protobuf5ArenaE to i8*), i8* bitcast (void (%"class.perfetto::protos::BeginFrameObserverState"*)* @_ZN8perfetto6protos23BeginFrameObserverState5ClearEv to i8*), i8* bitcast (i1 (%"class.perfetto::protos::BeginFrameObserverState"*)* @_ZNK8perfetto6protos23BeginFrameObserverState13IsInitializedEv to i8*), i8* bitcast (void (%"class.std::__1::basic_string"*, %"class.google::protobuf::MessageLite"*)* @_ZNK6google8protobuf11MessageLite25InitializationErrorStringEv to i8*), i8* bitcast (void (%"class.perfetto::protos::BeginFrameObserverState"*, %"class.google::protobuf::MessageLite"*)* @_ZN8perfetto6protos23BeginFrameObserverState21CheckTypeAndMergeFromERKN6google8protobuf11MessageLiteE to i8*), i8* bitcast (i64 (%"class.perfetto::protos::BeginFrameObserverState"*)* @_ZNK8perfetto6protos23BeginFrameObserverState12ByteSizeLongEv to i8*), i8* bitcast (i32 (%"class.perfetto::protos::BeginFrameObserverState"*)* @_ZNK8perfetto6protos23BeginFrameObserverState13GetCachedSizeEv to i8*), i8* bitcast (i8* (%"class.perfetto::protos::BeginFrameObserverState"*, i8*, %"class.google::protobuf::internal::ParseContext"*)* @_ZN8perfetto6protos23BeginFrameObserverState14_InternalParseEPKcPN6google8protobuf8internal12ParseContextE to i8*), i8* bitcast (i8* (%"class.perfetto::protos::BeginFrameObserverState"*, i8*, %"class.google::protobuf::io::EpsCopyOutputStream"*)* @_ZNK8perfetto6protos23BeginFrameObserverState18_InternalSerializeEPhPN6google8protobuf2io19EpsCopyOutputStreamE to i8*), i8* bitcast (i8* (%"class.google::protobuf::MessageLite"*)* @_ZNK6google8protobuf11MessageLite16InternalGetTableEv to i8*)] }, align 8
@.str.32 = private unnamed_addr constant [40 x i8] c"perfetto.protos.BeginFrameObserverState\00", align 1
@_ZTVN8perfetto6protos21BeginFrameSourceStateE = hidden unnamed_addr constant { [16 x i8*] } { [16 x i8*] [i8* null, i8* null, i8* bitcast (void (%"class.perfetto::protos::BeginFrameSourceState"*)* @_ZN8perfetto6protos21BeginFrameSourceStateD2Ev to i8*), i8* bitcast (void (%"class.perfetto::protos::BeginFrameSourceState"*)* @_ZN8perfetto6protos21BeginFrameSourceStateD0Ev to i8*), i8* bitcast (void (%"class.std::__1::basic_string"*, %"class.perfetto::protos::BeginFrameSourceState"*)* @_ZNK8perfetto6protos21BeginFrameSourceState11GetTypeNameEv to i8*), i8* bitcast (%"class.perfetto::protos::BeginFrameSourceState"* (%"class.perfetto::protos::BeginFrameSourceState"*)* @_ZNK8perfetto6protos21BeginFrameSourceState3NewEv to i8*), i8* bitcast (%"class.perfetto::protos::BeginFrameSourceState"* (%"class.perfetto::protos::BeginFrameSourceState"*, %"class.google::protobuf::Arena"*)* @_ZNK8perfetto6protos21BeginFrameSourceState3NewEPN6google8protobuf5ArenaE to i8*), i8* bitcast (void (%"class.perfetto::protos::BeginFrameSourceState"*)* @_ZN8perfetto6protos21BeginFrameSourceState5ClearEv to i8*), i8* bitcast (i1 (%"class.perfetto::protos::BeginFrameSourceState"*)* @_ZNK8perfetto6protos21BeginFrameSourceState13IsInitializedEv to i8*), i8* bitcast (void (%"class.std::__1::basic_string"*, %"class.google::protobuf::MessageLite"*)* @_ZNK6google8protobuf11MessageLite25InitializationErrorStringEv to i8*), i8* bitcast (void (%"class.perfetto::protos::BeginFrameSourceState"*, %"class.google::protobuf::MessageLite"*)* @_ZN8perfetto6protos21BeginFrameSourceState21CheckTypeAndMergeFromERKN6google8protobuf11MessageLiteE to i8*), i8* bitcast (i64 (%"class.perfetto::protos::BeginFrameSourceState"*)* @_ZNK8perfetto6protos21BeginFrameSourceState12ByteSizeLongEv to i8*), i8* bitcast (i32 (%"class.perfetto::protos::BeginFrameSourceState"*)* @_ZNK8perfetto6protos21BeginFrameSourceState13GetCachedSizeEv to i8*), i8* bitcast (i8* (%"class.perfetto::protos::BeginFrameSourceState"*, i8*, %"class.google::protobuf::internal::ParseContext"*)* @_ZN8perfetto6protos21BeginFrameSourceState14_InternalParseEPKcPN6google8protobuf8internal12ParseContextE to i8*), i8* bitcast (i8* (%"class.perfetto::protos::BeginFrameSourceState"*, i8*, %"class.google::protobuf::io::EpsCopyOutputStream"*)* @_ZNK8perfetto6protos21BeginFrameSourceState18_InternalSerializeEPhPN6google8protobuf2io19EpsCopyOutputStreamE to i8*), i8* bitcast (i8* (%"class.google::protobuf::MessageLite"*)* @_ZNK6google8protobuf11MessageLite16InternalGetTableEv to i8*)] }, align 8
@.str.33 = private unnamed_addr constant [38 x i8] c"perfetto.protos.BeginFrameSourceState\00", align 1
@_ZTVN8perfetto6protos23CompositorTimingHistoryE = hidden unnamed_addr constant { [16 x i8*] } { [16 x i8*] [i8* null, i8* null, i8* bitcast (void (%"class.perfetto::protos::CompositorTimingHistory"*)* @_ZN8perfetto6protos23CompositorTimingHistoryD2Ev to i8*), i8* bitcast (void (%"class.perfetto::protos::CompositorTimingHistory"*)* @_ZN8perfetto6protos23CompositorTimingHistoryD0Ev to i8*), i8* bitcast (void (%"class.std::__1::basic_string"*, %"class.perfetto::protos::CompositorTimingHistory"*)* @_ZNK8perfetto6protos23CompositorTimingHistory11GetTypeNameEv to i8*), i8* bitcast (%"class.perfetto::protos::CompositorTimingHistory"* (%"class.perfetto::protos::CompositorTimingHistory"*)* @_ZNK8perfetto6protos23CompositorTimingHistory3NewEv to i8*), i8* bitcast (%"class.perfetto::protos::CompositorTimingHistory"* (%"class.perfetto::protos::CompositorTimingHistory"*, %"class.google::protobuf::Arena"*)* @_ZNK8perfetto6protos23CompositorTimingHistory3NewEPN6google8protobuf5ArenaE to i8*), i8* bitcast (void (%"class.perfetto::protos::CompositorTimingHistory"*)* @_ZN8perfetto6protos23CompositorTimingHistory5ClearEv to i8*), i8* bitcast (i1 (%"class.perfetto::protos::CompositorTimingHistory"*)* @_ZNK8perfetto6protos23CompositorTimingHistory13IsInitializedEv to i8*), i8* bitcast (void (%"class.std::__1::basic_string"*, %"class.google::protobuf::MessageLite"*)* @_ZNK6google8protobuf11MessageLite25InitializationErrorStringEv to i8*), i8* bitcast (void (%"class.perfetto::protos::CompositorTimingHistory"*, %"class.google::protobuf::MessageLite"*)* @_ZN8perfetto6protos23CompositorTimingHistory21CheckTypeAndMergeFromERKN6google8protobuf11MessageLiteE to i8*), i8* bitcast (i64 (%"class.perfetto::protos::CompositorTimingHistory"*)* @_ZNK8perfetto6protos23CompositorTimingHistory12ByteSizeLongEv to i8*), i8* bitcast (i32 (%"class.perfetto::protos::CompositorTimingHistory"*)* @_ZNK8perfetto6protos23CompositorTimingHistory13GetCachedSizeEv to i8*), i8* bitcast (i8* (%"class.perfetto::protos::CompositorTimingHistory"*, i8*, %"class.google::protobuf::internal::ParseContext"*)* @_ZN8perfetto6protos23CompositorTimingHistory14_InternalParseEPKcPN6google8protobuf8internal12ParseContextE to i8*), i8* bitcast (i8* (%"class.perfetto::protos::CompositorTimingHistory"*, i8*, %"class.google::protobuf::io::EpsCopyOutputStream"*)* @_ZNK8perfetto6protos23CompositorTimingHistory18_InternalSerializeEPhPN6google8protobuf2io19EpsCopyOutputStreamE to i8*), i8* bitcast (i8* (%"class.google::protobuf::MessageLite"*)* @_ZNK6google8protobuf11MessageLite16InternalGetTableEv to i8*)] }, align 8
@.str.34 = private unnamed_addr constant [40 x i8] c"perfetto.protos.CompositorTimingHistory\00", align 1
@_ZN8perfetto6protos33_SourceLocation_default_instance_E = external global %"class.perfetto::protos::SourceLocationDefaultTypeInternal", align 1
@.str.49 = private unnamed_addr constant [25 x i8] c"size_t to int conversion\00", align 1
@llvm.global_ctors = appending global [0 x { i32, void ()*, i8* }] zeroinitializer

@_ZN8perfetto6protos30ChromeCompositorSchedulerStateC1EPN6google8protobuf5ArenaE = hidden unnamed_addr alias void (%"class.perfetto::protos::ChromeCompositorSchedulerState"*, %"class.google::protobuf::Arena"*), void (%"class.perfetto::protos::ChromeCompositorSchedulerState"*, %"class.google::protobuf::Arena"*)* @_ZN8perfetto6protos30ChromeCompositorSchedulerStateC2EPN6google8protobuf5ArenaE
@_ZN8perfetto6protos30ChromeCompositorSchedulerStateC1ERKS1_ = hidden unnamed_addr alias void (%"class.perfetto::protos::ChromeCompositorSchedulerState"*, %"class.perfetto::protos::ChromeCompositorSchedulerState"*), void (%"class.perfetto::protos::ChromeCompositorSchedulerState"*, %"class.perfetto::protos::ChromeCompositorSchedulerState"*)* @_ZN8perfetto6protos30ChromeCompositorSchedulerStateC2ERKS1_
@_ZN8perfetto6protos30ChromeCompositorSchedulerStateD1Ev = hidden unnamed_addr alias void (%"class.perfetto::protos::ChromeCompositorSchedulerState"*), void (%"class.perfetto::protos::ChromeCompositorSchedulerState"*)* @_ZN8perfetto6protos30ChromeCompositorSchedulerStateD2Ev
@_ZN8perfetto6protos39ChromeCompositorStateMachine_MajorStateC1EPN6google8protobuf5ArenaE = hidden unnamed_addr alias void (%"class.perfetto::protos::ChromeCompositorStateMachine_MajorState"*, %"class.google::protobuf::Arena"*), void (%"class.perfetto::protos::ChromeCompositorStateMachine_MajorState"*, %"class.google::protobuf::Arena"*)* @_ZN8perfetto6protos39ChromeCompositorStateMachine_MajorStateC2EPN6google8protobuf5ArenaE
@_ZN8perfetto6protos39ChromeCompositorStateMachine_MajorStateC1ERKS1_ = hidden unnamed_addr alias void (%"class.perfetto::protos::ChromeCompositorStateMachine_MajorState"*, %"class.perfetto::protos::ChromeCompositorStateMachine_MajorState"*), void (%"class.perfetto::protos::ChromeCompositorStateMachine_MajorState"*, %"class.perfetto::protos::ChromeCompositorStateMachine_MajorState"*)* @_ZN8perfetto6protos39ChromeCompositorStateMachine_MajorStateC2ERKS1_
@_ZN8perfetto6protos39ChromeCompositorStateMachine_MajorStateD1Ev = hidden unnamed_addr alias void (%"class.perfetto::protos::ChromeCompositorStateMachine_MajorState"*), void (%"class.perfetto::protos::ChromeCompositorStateMachine_MajorState"*)* @_ZN8perfetto6protos39ChromeCompositorStateMachine_MajorStateD2Ev
@_ZN8perfetto6protos39ChromeCompositorStateMachine_MinorStateC1EPN6google8protobuf5ArenaE = hidden unnamed_addr alias void (%"class.perfetto::protos::ChromeCompositorStateMachine_MinorState"*, %"class.google::protobuf::Arena"*), void (%"class.perfetto::protos::ChromeCompositorStateMachine_MinorState"*, %"class.google::protobuf::Arena"*)* @_ZN8perfetto6protos39ChromeCompositorStateMachine_MinorStateC2EPN6google8protobuf5ArenaE
@_ZN8perfetto6protos39ChromeCompositorStateMachine_MinorStateC1ERKS1_ = hidden unnamed_addr alias void (%"class.perfetto::protos::ChromeCompositorStateMachine_MinorState"*, %"class.perfetto::protos::ChromeCompositorStateMachine_MinorState"*), void (%"class.perfetto::protos::ChromeCompositorStateMachine_MinorState"*, %"class.perfetto::protos::ChromeCompositorStateMachine_MinorState"*)* @_ZN8perfetto6protos39ChromeCompositorStateMachine_MinorStateC2ERKS1_
@_ZN8perfetto6protos39ChromeCompositorStateMachine_MinorStateD1Ev = hidden unnamed_addr alias void (%"class.perfetto::protos::ChromeCompositorStateMachine_MinorState"*), void (%"class.perfetto::protos::ChromeCompositorStateMachine_MinorState"*)* @_ZN8perfetto6protos39ChromeCompositorStateMachine_MinorStateD2Ev
@_ZN8perfetto6protos28ChromeCompositorStateMachineC1EPN6google8protobuf5ArenaE = hidden unnamed_addr alias void (%"class.perfetto::protos::ChromeCompositorStateMachine"*, %"class.google::protobuf::Arena"*), void (%"class.perfetto::protos::ChromeCompositorStateMachine"*, %"class.google::protobuf::Arena"*)* @_ZN8perfetto6protos28ChromeCompositorStateMachineC2EPN6google8protobuf5ArenaE
@_ZN8perfetto6protos28ChromeCompositorStateMachineC1ERKS1_ = hidden unnamed_addr alias void (%"class.perfetto::protos::ChromeCompositorStateMachine"*, %"class.perfetto::protos::ChromeCompositorStateMachine"*), void (%"class.perfetto::protos::ChromeCompositorStateMachine"*, %"class.perfetto::protos::ChromeCompositorStateMachine"*)* @_ZN8perfetto6protos28ChromeCompositorStateMachineC2ERKS1_
@_ZN8perfetto6protos28ChromeCompositorStateMachineD1Ev = hidden unnamed_addr alias void (%"class.perfetto::protos::ChromeCompositorStateMachine"*), void (%"class.perfetto::protos::ChromeCompositorStateMachine"*)* @_ZN8perfetto6protos28ChromeCompositorStateMachineD2Ev
@_ZN8perfetto6protos14BeginFrameArgsC1EPN6google8protobuf5ArenaE = hidden unnamed_addr alias void (%"class.perfetto::protos::BeginFrameArgs"*, %"class.google::protobuf::Arena"*), void (%"class.perfetto::protos::BeginFrameArgs"*, %"class.google::protobuf::Arena"*)* @_ZN8perfetto6protos14BeginFrameArgsC2EPN6google8protobuf5ArenaE
@_ZN8perfetto6protos14BeginFrameArgsC1ERKS1_ = hidden unnamed_addr alias void (%"class.perfetto::protos::BeginFrameArgs"*, %"class.perfetto::protos::BeginFrameArgs"*), void (%"class.perfetto::protos::BeginFrameArgs"*, %"class.perfetto::protos::BeginFrameArgs"*)* @_ZN8perfetto6protos14BeginFrameArgsC2ERKS1_
@_ZN8perfetto6protos14BeginFrameArgsD1Ev = hidden unnamed_addr alias void (%"class.perfetto::protos::BeginFrameArgs"*), void (%"class.perfetto::protos::BeginFrameArgs"*)* @_ZN8perfetto6protos14BeginFrameArgsD2Ev
@_ZN8perfetto6protos33BeginImplFrameArgs_TimestampsInUsC1EPN6google8protobuf5ArenaE = hidden unnamed_addr alias void (%"class.perfetto::protos::BeginImplFrameArgs_TimestampsInUs"*, %"class.google::protobuf::Arena"*), void (%"class.perfetto::protos::BeginImplFrameArgs_TimestampsInUs"*, %"class.google::protobuf::Arena"*)* @_ZN8perfetto6protos33BeginImplFrameArgs_TimestampsInUsC2EPN6google8protobuf5ArenaE
@_ZN8perfetto6protos33BeginImplFrameArgs_TimestampsInUsC1ERKS1_ = hidden unnamed_addr alias void (%"class.perfetto::protos::BeginImplFrameArgs_TimestampsInUs"*, %"class.perfetto::protos::BeginImplFrameArgs_TimestampsInUs"*), void (%"class.perfetto::protos::BeginImplFrameArgs_TimestampsInUs"*, %"class.perfetto::protos::BeginImplFrameArgs_TimestampsInUs"*)* @_ZN8perfetto6protos33BeginImplFrameArgs_TimestampsInUsC2ERKS1_
@_ZN8perfetto6protos33BeginImplFrameArgs_TimestampsInUsD1Ev = hidden unnamed_addr alias void (%"class.perfetto::protos::BeginImplFrameArgs_TimestampsInUs"*), void (%"class.perfetto::protos::BeginImplFrameArgs_TimestampsInUs"*)* @_ZN8perfetto6protos33BeginImplFrameArgs_TimestampsInUsD2Ev
@_ZN8perfetto6protos18BeginImplFrameArgsC1EPN6google8protobuf5ArenaE = hidden unnamed_addr alias void (%"class.perfetto::protos::BeginImplFrameArgs"*, %"class.google::protobuf::Arena"*), void (%"class.perfetto::protos::BeginImplFrameArgs"*, %"class.google::protobuf::Arena"*)* @_ZN8perfetto6protos18BeginImplFrameArgsC2EPN6google8protobuf5ArenaE
@_ZN8perfetto6protos18BeginImplFrameArgsC1ERKS1_ = hidden unnamed_addr alias void (%"class.perfetto::protos::BeginImplFrameArgs"*, %"class.perfetto::protos::BeginImplFrameArgs"*), void (%"class.perfetto::protos::BeginImplFrameArgs"*, %"class.perfetto::protos::BeginImplFrameArgs"*)* @_ZN8perfetto6protos18BeginImplFrameArgsC2ERKS1_
@_ZN8perfetto6protos18BeginImplFrameArgsD1Ev = hidden unnamed_addr alias void (%"class.perfetto::protos::BeginImplFrameArgs"*), void (%"class.perfetto::protos::BeginImplFrameArgs"*)* @_ZN8perfetto6protos18BeginImplFrameArgsD2Ev
@_ZN8perfetto6protos23BeginFrameObserverStateC1EPN6google8protobuf5ArenaE = hidden unnamed_addr alias void (%"class.perfetto::protos::BeginFrameObserverState"*, %"class.google::protobuf::Arena"*), void (%"class.perfetto::protos::BeginFrameObserverState"*, %"class.google::protobuf::Arena"*)* @_ZN8perfetto6protos23BeginFrameObserverStateC2EPN6google8protobuf5ArenaE
@_ZN8perfetto6protos23BeginFrameObserverStateC1ERKS1_ = hidden unnamed_addr alias void (%"class.perfetto::protos::BeginFrameObserverState"*, %"class.perfetto::protos::BeginFrameObserverState"*), void (%"class.perfetto::protos::BeginFrameObserverState"*, %"class.perfetto::protos::BeginFrameObserverState"*)* @_ZN8perfetto6protos23BeginFrameObserverStateC2ERKS1_
@_ZN8perfetto6protos23BeginFrameObserverStateD1Ev = hidden unnamed_addr alias void (%"class.perfetto::protos::BeginFrameObserverState"*), void (%"class.perfetto::protos::BeginFrameObserverState"*)* @_ZN8perfetto6protos23BeginFrameObserverStateD2Ev
@_ZN8perfetto6protos21BeginFrameSourceStateC1EPN6google8protobuf5ArenaE = hidden unnamed_addr alias void (%"class.perfetto::protos::BeginFrameSourceState"*, %"class.google::protobuf::Arena"*), void (%"class.perfetto::protos::BeginFrameSourceState"*, %"class.google::protobuf::Arena"*)* @_ZN8perfetto6protos21BeginFrameSourceStateC2EPN6google8protobuf5ArenaE
@_ZN8perfetto6protos21BeginFrameSourceStateC1ERKS1_ = hidden unnamed_addr alias void (%"class.perfetto::protos::BeginFrameSourceState"*, %"class.perfetto::protos::BeginFrameSourceState"*), void (%"class.perfetto::protos::BeginFrameSourceState"*, %"class.perfetto::protos::BeginFrameSourceState"*)* @_ZN8perfetto6protos21BeginFrameSourceStateC2ERKS1_
@_ZN8perfetto6protos21BeginFrameSourceStateD1Ev = hidden unnamed_addr alias void (%"class.perfetto::protos::BeginFrameSourceState"*), void (%"class.perfetto::protos::BeginFrameSourceState"*)* @_ZN8perfetto6protos21BeginFrameSourceStateD2Ev
@_ZN8perfetto6protos23CompositorTimingHistoryC1EPN6google8protobuf5ArenaE = hidden unnamed_addr alias void (%"class.perfetto::protos::CompositorTimingHistory"*, %"class.google::protobuf::Arena"*), void (%"class.perfetto::protos::CompositorTimingHistory"*, %"class.google::protobuf::Arena"*)* @_ZN8perfetto6protos23CompositorTimingHistoryC2EPN6google8protobuf5ArenaE
@_ZN8perfetto6protos23CompositorTimingHistoryC1ERKS1_ = hidden unnamed_addr alias void (%"class.perfetto::protos::CompositorTimingHistory"*, %"class.perfetto::protos::CompositorTimingHistory"*), void (%"class.perfetto::protos::CompositorTimingHistory"*, %"class.perfetto::protos::CompositorTimingHistory"*)* @_ZN8perfetto6protos23CompositorTimingHistoryC2ERKS1_
@_ZN8perfetto6protos23CompositorTimingHistoryD1Ev = hidden unnamed_addr alias void (%"class.perfetto::protos::CompositorTimingHistory"*), void (%"class.perfetto::protos::CompositorTimingHistory"*)* @_ZN8perfetto6protos23CompositorTimingHistoryD2Ev

; Function Attrs: nounwind ssp uwtable
define internal void @_ZL127InitDefaultsscc_info_BeginFrameArgs_protos_2fperfetto_2ftrace_2ftrack_5fevent_2fchrome_5fcompositor_5fscheduler_5fstate_2eprotov() #0 {
  tail call void @_ZN6google8protobuf8internal13VerifyVersionEiiPKc(i32 3013000, i32 3013000, i8* getelementptr inbounds ([99 x i8], [99 x i8]* @.str, i64 0, i64 0)) #12
  store %"class.google::protobuf::Arena"* null, %"class.google::protobuf::Arena"** bitcast (i8* getelementptr inbounds (%"class.perfetto::protos::BeginFrameArgsDefaultTypeInternal", %"class.perfetto::protos::BeginFrameArgsDefaultTypeInternal"* @_ZN8perfetto6protos33_BeginFrameArgs_default_instance_E, i64 0, i32 0, i32 0, i32 1, i64 0) to %"class.google::protobuf::Arena"**), align 8
  store i32 (...)** bitcast (i8** getelementptr inbounds ({ [16 x i8*] }, { [16 x i8*] }* @_ZTVN8perfetto6protos14BeginFrameArgsE, i64 0, inrange i32 0, i64 2) to i32 (...)**), i32 (...)*** bitcast (%"class.perfetto::protos::BeginFrameArgsDefaultTypeInternal"* @_ZN8perfetto6protos33_BeginFrameArgs_default_instance_E to i32 (...)***), align 8
  store i32 0, i32* bitcast (i8* getelementptr inbounds (%"class.perfetto::protos::BeginFrameArgsDefaultTypeInternal", %"class.perfetto::protos::BeginFrameArgsDefaultTypeInternal"* @_ZN8perfetto6protos33_BeginFrameArgs_default_instance_E, i64 0, i32 0, i32 0, i32 1, i64 8) to i32*), align 8
  store i32 0, i32* bitcast (i8* getelementptr inbounds (%"class.perfetto::protos::BeginFrameArgsDefaultTypeInternal", %"class.perfetto::protos::BeginFrameArgsDefaultTypeInternal"* @_ZN8perfetto6protos33_BeginFrameArgs_default_instance_E, i64 0, i32 0, i32 0, i32 1, i64 12) to i32*), align 4
  %1 = load atomic i32, i32* getelementptr inbounds ({ { { { i32 } }, i32, i32, void ()* }, [1 x i8*] }, { { { { i32 } }, i32, i32, void ()* }, [1 x i8*] }* @scc_info_BeginFrameArgs_protos_2fperfetto_2ftrace_2ftrack_5fevent_2fchrome_5fcompositor_5fscheduler_5fstate_2eproto, i64 0, i32 0, i32 0, i32 0, i32 0) acquire, align 8
  %2 = icmp eq i32 %1, 0
  br i1 %2, label %4, label %3, !prof !2

3:                                                ; preds = %0
  tail call void @_ZN6google8protobuf8internal11InitSCCImplEPNS1_11SCCInfoBaseE(%"struct.google::protobuf::internal::SCCInfoBase"* bitcast ({ { { { i32 } }, i32, i32, void ()* }, [1 x i8*] }* @scc_info_BeginFrameArgs_protos_2fperfetto_2ftrace_2ftrack_5fevent_2fchrome_5fcompositor_5fscheduler_5fstate_2eproto to %"struct.google::protobuf::internal::SCCInfoBase"*)) #12
  br label %4

4:                                                ; preds = %0, %3
  tail call void @llvm.memset.p0i8.i64(i8* align 8 getelementptr inbounds (%"class.perfetto::protos::BeginFrameArgsDefaultTypeInternal", %"class.perfetto::protos::BeginFrameArgsDefaultTypeInternal"* @_ZN8perfetto6protos33_BeginFrameArgs_default_instance_E, i64 0, i32 0, i32 0, i32 1, i64 16), i8 0, i64 48, i1 false) #12
  store i32 0, i32* bitcast (i8* getelementptr inbounds (%"class.perfetto::protos::BeginFrameArgsDefaultTypeInternal", %"class.perfetto::protos::BeginFrameArgsDefaultTypeInternal"* @_ZN8perfetto6protos33_BeginFrameArgs_default_instance_E, i64 0, i32 0, i32 0, i32 1, i64 72) to i32*), align 8
  tail call void @_ZN6google8protobuf8internal13OnShutdownRunEPFvPKvES3_(void (i8*)* nonnull @_ZN6google8protobuf8internal14DestroyMessageEPKv, i8* bitcast (%"class.perfetto::protos::BeginFrameArgsDefaultTypeInternal"* @_ZN8perfetto6protos33_BeginFrameArgs_default_instance_E to i8*)) #12
  ret void
}

; Function Attrs: nounwind ssp uwtable
define internal void @_ZL136InitDefaultsscc_info_BeginFrameObserverState_protos_2fperfetto_2ftrace_2ftrack_5fevent_2fchrome_5fcompositor_5fscheduler_5fstate_2eprotov() #0 {
  tail call void @_ZN6google8protobuf8internal13VerifyVersionEiiPKc(i32 3013000, i32 3013000, i8* getelementptr inbounds ([99 x i8], [99 x i8]* @.str, i64 0, i64 0)) #12
  store %"class.google::protobuf::Arena"* null, %"class.google::protobuf::Arena"** bitcast (i8* getelementptr inbounds (%"class.perfetto::protos::BeginFrameObserverStateDefaultTypeInternal", %"class.perfetto::protos::BeginFrameObserverStateDefaultTypeInternal"* @_ZN8perfetto6protos42_BeginFrameObserverState_default_instance_E, i64 0, i32 0, i32 0, i32 1, i64 0) to %"class.google::protobuf::Arena"**), align 8
  store i32 (...)** bitcast (i8** getelementptr inbounds ({ [16 x i8*] }, { [16 x i8*] }* @_ZTVN8perfetto6protos23BeginFrameObserverStateE, i64 0, inrange i32 0, i64 2) to i32 (...)**), i32 (...)*** bitcast (%"class.perfetto::protos::BeginFrameObserverStateDefaultTypeInternal"* @_ZN8perfetto6protos42_BeginFrameObserverState_default_instance_E to i32 (...)***), align 8
  store i32 0, i32* bitcast (i8* getelementptr inbounds (%"class.perfetto::protos::BeginFrameObserverStateDefaultTypeInternal", %"class.perfetto::protos::BeginFrameObserverStateDefaultTypeInternal"* @_ZN8perfetto6protos42_BeginFrameObserverState_default_instance_E, i64 0, i32 0, i32 0, i32 1, i64 8) to i32*), align 8
  store i32 0, i32* bitcast (i8* getelementptr inbounds (%"class.perfetto::protos::BeginFrameObserverStateDefaultTypeInternal", %"class.perfetto::protos::BeginFrameObserverStateDefaultTypeInternal"* @_ZN8perfetto6protos42_BeginFrameObserverState_default_instance_E, i64 0, i32 0, i32 0, i32 1, i64 12) to i32*), align 4
  %1 = load atomic i32, i32* getelementptr inbounds ({ { { { i32 } }, i32, i32, void ()* }, [1 x i8*] }, { { { { i32 } }, i32, i32, void ()* }, [1 x i8*] }* @scc_info_BeginFrameObserverState_protos_2fperfetto_2ftrace_2ftrack_5fevent_2fchrome_5fcompositor_5fscheduler_5fstate_2eproto, i64 0, i32 0, i32 0, i32 0, i32 0) acquire, align 8
  %2 = icmp eq i32 %1, 0
  br i1 %2, label %4, label %3, !prof !2

3:                                                ; preds = %0
  tail call void @_ZN6google8protobuf8internal11InitSCCImplEPNS1_11SCCInfoBaseE(%"struct.google::protobuf::internal::SCCInfoBase"* bitcast ({ { { { i32 } }, i32, i32, void ()* }, [1 x i8*] }* @scc_info_BeginFrameObserverState_protos_2fperfetto_2ftrace_2ftrack_5fevent_2fchrome_5fcompositor_5fscheduler_5fstate_2eproto to %"struct.google::protobuf::internal::SCCInfoBase"*)) #12
  br label %4

4:                                                ; preds = %0, %3
  tail call void @llvm.memset.p0i8.i64(i8* align 8 getelementptr inbounds (%"class.perfetto::protos::BeginFrameObserverStateDefaultTypeInternal", %"class.perfetto::protos::BeginFrameObserverStateDefaultTypeInternal"* @_ZN8perfetto6protos42_BeginFrameObserverState_default_instance_E, i64 0, i32 0, i32 0, i32 1, i64 16), i8 0, i64 16, i1 false) #12
  tail call void @_ZN6google8protobuf8internal13OnShutdownRunEPFvPKvES3_(void (i8*)* nonnull @_ZN6google8protobuf8internal14DestroyMessageEPKv, i8* bitcast (%"class.perfetto::protos::BeginFrameObserverStateDefaultTypeInternal"* @_ZN8perfetto6protos42_BeginFrameObserverState_default_instance_E to i8*)) #12
  ret void
}

; Function Attrs: nounwind ssp uwtable
define internal void @_ZL134InitDefaultsscc_info_BeginFrameSourceState_protos_2fperfetto_2ftrace_2ftrack_5fevent_2fchrome_5fcompositor_5fscheduler_5fstate_2eprotov() #0 {
  tail call void @_ZN6google8protobuf8internal13VerifyVersionEiiPKc(i32 3013000, i32 3013000, i8* getelementptr inbounds ([99 x i8], [99 x i8]* @.str, i64 0, i64 0)) #12
  store %"class.google::protobuf::Arena"* null, %"class.google::protobuf::Arena"** bitcast (i8* getelementptr inbounds (%"class.perfetto::protos::BeginFrameSourceStateDefaultTypeInternal", %"class.perfetto::protos::BeginFrameSourceStateDefaultTypeInternal"* @_ZN8perfetto6protos40_BeginFrameSourceState_default_instance_E, i64 0, i32 0, i32 0, i32 1, i64 0) to %"class.google::protobuf::Arena"**), align 8
  store i32 (...)** bitcast (i8** getelementptr inbounds ({ [16 x i8*] }, { [16 x i8*] }* @_ZTVN8perfetto6protos21BeginFrameSourceStateE, i64 0, inrange i32 0, i64 2) to i32 (...)**), i32 (...)*** bitcast (%"class.perfetto::protos::BeginFrameSourceStateDefaultTypeInternal"* @_ZN8perfetto6protos40_BeginFrameSourceState_default_instance_E to i32 (...)***), align 8
  store i32 0, i32* bitcast (i8* getelementptr inbounds (%"class.perfetto::protos::BeginFrameSourceStateDefaultTypeInternal", %"class.perfetto::protos::BeginFrameSourceStateDefaultTypeInternal"* @_ZN8perfetto6protos40_BeginFrameSourceState_default_instance_E, i64 0, i32 0, i32 0, i32 1, i64 8) to i32*), align 8
  store i32 0, i32* bitcast (i8* getelementptr inbounds (%"class.perfetto::protos::BeginFrameSourceStateDefaultTypeInternal", %"class.perfetto::protos::BeginFrameSourceStateDefaultTypeInternal"* @_ZN8perfetto6protos40_BeginFrameSourceState_default_instance_E, i64 0, i32 0, i32 0, i32 1, i64 12) to i32*), align 4
  %1 = load atomic i32, i32* getelementptr inbounds ({ { { { i32 } }, i32, i32, void ()* }, [1 x i8*] }, { { { { i32 } }, i32, i32, void ()* }, [1 x i8*] }* @scc_info_BeginFrameSourceState_protos_2fperfetto_2ftrace_2ftrack_5fevent_2fchrome_5fcompositor_5fscheduler_5fstate_2eproto, i64 0, i32 0, i32 0, i32 0, i32 0) acquire, align 8
  %2 = icmp eq i32 %1, 0
  br i1 %2, label %4, label %3, !prof !2

3:                                                ; preds = %0
  tail call void @_ZN6google8protobuf8internal11InitSCCImplEPNS1_11SCCInfoBaseE(%"struct.google::protobuf::internal::SCCInfoBase"* bitcast ({ { { { i32 } }, i32, i32, void ()* }, [1 x i8*] }* @scc_info_BeginFrameSourceState_protos_2fperfetto_2ftrace_2ftrack_5fevent_2fchrome_5fcompositor_5fscheduler_5fstate_2eproto to %"struct.google::protobuf::internal::SCCInfoBase"*)) #12
  br label %4

4:                                                ; preds = %0, %3
  tail call void @llvm.memset.p0i8.i64(i8* align 8 getelementptr inbounds (%"class.perfetto::protos::BeginFrameSourceStateDefaultTypeInternal", %"class.perfetto::protos::BeginFrameSourceStateDefaultTypeInternal"* @_ZN8perfetto6protos40_BeginFrameSourceState_default_instance_E, i64 0, i32 0, i32 0, i32 1, i64 16), i8 0, i64 20, i1 false) #12
  tail call void @_ZN6google8protobuf8internal13OnShutdownRunEPFvPKvES3_(void (i8*)* nonnull @_ZN6google8protobuf8internal14DestroyMessageEPKv, i8* bitcast (%"class.perfetto::protos::BeginFrameSourceStateDefaultTypeInternal"* @_ZN8perfetto6protos40_BeginFrameSourceState_default_instance_E to i8*)) #12
  ret void
}

; Function Attrs: nounwind ssp uwtable
define internal void @_ZL131InitDefaultsscc_info_BeginImplFrameArgs_protos_2fperfetto_2ftrace_2ftrack_5fevent_2fchrome_5fcompositor_5fscheduler_5fstate_2eprotov() #0 {
  tail call void @_ZN6google8protobuf8internal13VerifyVersionEiiPKc(i32 3013000, i32 3013000, i8* getelementptr inbounds ([99 x i8], [99 x i8]* @.str, i64 0, i64 0)) #12
  store %"class.google::protobuf::Arena"* null, %"class.google::protobuf::Arena"** bitcast (i8* getelementptr inbounds (%"class.perfetto::protos::BeginImplFrameArgsDefaultTypeInternal", %"class.perfetto::protos::BeginImplFrameArgsDefaultTypeInternal"* @_ZN8perfetto6protos37_BeginImplFrameArgs_default_instance_E, i64 0, i32 0, i32 0, i32 1, i64 0) to %"class.google::protobuf::Arena"**), align 8
  store i32 (...)** bitcast (i8** getelementptr inbounds ({ [16 x i8*] }, { [16 x i8*] }* @_ZTVN8perfetto6protos18BeginImplFrameArgsE, i64 0, inrange i32 0, i64 2) to i32 (...)**), i32 (...)*** bitcast (%"class.perfetto::protos::BeginImplFrameArgsDefaultTypeInternal"* @_ZN8perfetto6protos37_BeginImplFrameArgs_default_instance_E to i32 (...)***), align 8
  store i32 0, i32* bitcast (i8* getelementptr inbounds (%"class.perfetto::protos::BeginImplFrameArgsDefaultTypeInternal", %"class.perfetto::protos::BeginImplFrameArgsDefaultTypeInternal"* @_ZN8perfetto6protos37_BeginImplFrameArgs_default_instance_E, i64 0, i32 0, i32 0, i32 1, i64 8) to i32*), align 8
  store i32 0, i32* bitcast (i8* getelementptr inbounds (%"class.perfetto::protos::BeginImplFrameArgsDefaultTypeInternal", %"class.perfetto::protos::BeginImplFrameArgsDefaultTypeInternal"* @_ZN8perfetto6protos37_BeginImplFrameArgs_default_instance_E, i64 0, i32 0, i32 0, i32 1, i64 12) to i32*), align 4
  %1 = load atomic i32, i32* getelementptr inbounds ({ { { { i32 } }, i32, i32, void ()* }, [2 x i8*] }, { { { { i32 } }, i32, i32, void ()* }, [2 x i8*] }* @scc_info_BeginImplFrameArgs_protos_2fperfetto_2ftrace_2ftrack_5fevent_2fchrome_5fcompositor_5fscheduler_5fstate_2eproto, i64 0, i32 0, i32 0, i32 0, i32 0) acquire, align 8
  %2 = icmp eq i32 %1, 0
  br i1 %2, label %4, label %3, !prof !2

3:                                                ; preds = %0
  tail call void @_ZN6google8protobuf8internal11InitSCCImplEPNS1_11SCCInfoBaseE(%"struct.google::protobuf::internal::SCCInfoBase"* bitcast ({ { { { i32 } }, i32, i32, void ()* }, [2 x i8*] }* @scc_info_BeginImplFrameArgs_protos_2fperfetto_2ftrace_2ftrack_5fevent_2fchrome_5fcompositor_5fscheduler_5fstate_2eproto to %"struct.google::protobuf::internal::SCCInfoBase"*)) #12
  br label %4

4:                                                ; preds = %0, %3
  tail call void @llvm.memset.p0i8.i64(i8* align 8 getelementptr inbounds (%"class.perfetto::protos::BeginImplFrameArgsDefaultTypeInternal", %"class.perfetto::protos::BeginImplFrameArgsDefaultTypeInternal"* @_ZN8perfetto6protos37_BeginImplFrameArgs_default_instance_E, i64 0, i32 0, i32 0, i32 1, i64 16), i8 0, i64 28, i1 false) #12
  store i32 0, i32* bitcast (i8* getelementptr inbounds (%"class.perfetto::protos::BeginImplFrameArgsDefaultTypeInternal", %"class.perfetto::protos::BeginImplFrameArgsDefaultTypeInternal"* @_ZN8perfetto6protos37_BeginImplFrameArgs_default_instance_E, i64 0, i32 0, i32 0, i32 1, i64 56) to i32*), align 8
  tail call void @_ZN6google8protobuf8internal13OnShutdownRunEPFvPKvES3_(void (i8*)* nonnull @_ZN6google8protobuf8internal14DestroyMessageEPKv, i8* bitcast (%"class.perfetto::protos::BeginImplFrameArgsDefaultTypeInternal"* @_ZN8perfetto6protos37_BeginImplFrameArgs_default_instance_E to i8*)) #12
  ret void
}

; Function Attrs: nounwind ssp uwtable
define internal void @_ZL146InitDefaultsscc_info_BeginImplFrameArgs_TimestampsInUs_protos_2fperfetto_2ftrace_2ftrack_5fevent_2fchrome_5fcompositor_5fscheduler_5fstate_2eprotov() #0 {
  tail call void @_ZN6google8protobuf8internal13VerifyVersionEiiPKc(i32 3013000, i32 3013000, i8* getelementptr inbounds ([99 x i8], [99 x i8]* @.str, i64 0, i64 0)) #12
  store %"class.google::protobuf::Arena"* null, %"class.google::protobuf::Arena"** bitcast (i8* getelementptr inbounds (%"class.perfetto::protos::BeginImplFrameArgs_TimestampsInUsDefaultTypeInternal", %"class.perfetto::protos::BeginImplFrameArgs_TimestampsInUsDefaultTypeInternal"* @_ZN8perfetto6protos52_BeginImplFrameArgs_TimestampsInUs_default_instance_E, i64 0, i32 0, i32 0, i32 1, i64 0) to %"class.google::protobuf::Arena"**), align 8
  store i32 (...)** bitcast (i8** getelementptr inbounds ({ [16 x i8*] }, { [16 x i8*] }* @_ZTVN8perfetto6protos33BeginImplFrameArgs_TimestampsInUsE, i64 0, inrange i32 0, i64 2) to i32 (...)**), i32 (...)*** bitcast (%"class.perfetto::protos::BeginImplFrameArgs_TimestampsInUsDefaultTypeInternal"* @_ZN8perfetto6protos52_BeginImplFrameArgs_TimestampsInUs_default_instance_E to i32 (...)***), align 8
  tail call void @llvm.memset.p0i8.i64(i8* align 8 getelementptr inbounds (%"class.perfetto::protos::BeginImplFrameArgs_TimestampsInUsDefaultTypeInternal", %"class.perfetto::protos::BeginImplFrameArgs_TimestampsInUsDefaultTypeInternal"* @_ZN8perfetto6protos52_BeginImplFrameArgs_TimestampsInUs_default_instance_E, i64 0, i32 0, i32 0, i32 1, i64 8), i8 0, i64 64, i1 false) #12
  tail call void @_ZN6google8protobuf8internal13OnShutdownRunEPFvPKvES3_(void (i8*)* nonnull @_ZN6google8protobuf8internal14DestroyMessageEPKv, i8* bitcast (%"class.perfetto::protos::BeginImplFrameArgs_TimestampsInUsDefaultTypeInternal"* @_ZN8perfetto6protos52_BeginImplFrameArgs_TimestampsInUs_default_instance_E to i8*)) #12
  ret void
}

; Function Attrs: nounwind ssp uwtable
define internal void @_ZL143InitDefaultsscc_info_ChromeCompositorSchedulerState_protos_2fperfetto_2ftrace_2ftrack_5fevent_2fchrome_5fcompositor_5fscheduler_5fstate_2eprotov() #0 {
  tail call void @_ZN6google8protobuf8internal13VerifyVersionEiiPKc(i32 3013000, i32 3013000, i8* getelementptr inbounds ([99 x i8], [99 x i8]* @.str, i64 0, i64 0)) #12
  store %"class.google::protobuf::Arena"* null, %"class.google::protobuf::Arena"** bitcast (i8* getelementptr inbounds (%"class.perfetto::protos::ChromeCompositorSchedulerStateDefaultTypeInternal", %"class.perfetto::protos::ChromeCompositorSchedulerStateDefaultTypeInternal"* @_ZN8perfetto6protos49_ChromeCompositorSchedulerState_default_instance_E, i64 0, i32 0, i32 0, i32 1, i64 0) to %"class.google::protobuf::Arena"**), align 8
  store i32 (...)** bitcast (i8** getelementptr inbounds ({ [16 x i8*] }, { [16 x i8*] }* @_ZTVN8perfetto6protos30ChromeCompositorSchedulerStateE, i64 0, inrange i32 0, i64 2) to i32 (...)**), i32 (...)*** bitcast (%"class.perfetto::protos::ChromeCompositorSchedulerStateDefaultTypeInternal"* @_ZN8perfetto6protos49_ChromeCompositorSchedulerState_default_instance_E to i32 (...)***), align 8
  store i32 0, i32* bitcast (i8* getelementptr inbounds (%"class.perfetto::protos::ChromeCompositorSchedulerStateDefaultTypeInternal", %"class.perfetto::protos::ChromeCompositorSchedulerStateDefaultTypeInternal"* @_ZN8perfetto6protos49_ChromeCompositorSchedulerState_default_instance_E, i64 0, i32 0, i32 0, i32 1, i64 8) to i32*), align 8
  store i32 0, i32* bitcast (i8* getelementptr inbounds (%"class.perfetto::protos::ChromeCompositorSchedulerStateDefaultTypeInternal", %"class.perfetto::protos::ChromeCompositorSchedulerStateDefaultTypeInternal"* @_ZN8perfetto6protos49_ChromeCompositorSchedulerState_default_instance_E, i64 0, i32 0, i32 0, i32 1, i64 12) to i32*), align 4
  %1 = load atomic i32, i32* getelementptr inbounds ({ { { { i32 } }, i32, i32, void ()* }, [5 x i8*] }, { { { { i32 } }, i32, i32, void ()* }, [5 x i8*] }* @scc_info_ChromeCompositorSchedulerState_protos_2fperfetto_2ftrace_2ftrack_5fevent_2fchrome_5fcompositor_5fscheduler_5fstate_2eproto, i64 0, i32 0, i32 0, i32 0, i32 0) acquire, align 8
  %2 = icmp eq i32 %1, 0
  br i1 %2, label %4, label %3, !prof !2

3:                                                ; preds = %0
  tail call void @_ZN6google8protobuf8internal11InitSCCImplEPNS1_11SCCInfoBaseE(%"struct.google::protobuf::internal::SCCInfoBase"* bitcast ({ { { { i32 } }, i32, i32, void ()* }, [5 x i8*] }* @scc_info_ChromeCompositorSchedulerState_protos_2fperfetto_2ftrace_2ftrack_5fevent_2fchrome_5fcompositor_5fscheduler_5fstate_2eproto to %"struct.google::protobuf::internal::SCCInfoBase"*)) #12
  br label %4

4:                                                ; preds = %0, %3
  tail call void @llvm.memset.p0i8.i64(i8* align 8 getelementptr inbounds (%"class.perfetto::protos::ChromeCompositorSchedulerStateDefaultTypeInternal", %"class.perfetto::protos::ChromeCompositorSchedulerStateDefaultTypeInternal"* @_ZN8perfetto6protos49_ChromeCompositorSchedulerState_default_instance_E, i64 0, i32 0, i32 0, i32 1, i64 16), i8 0, i64 96, i1 false) #12
  tail call void @_ZN6google8protobuf8internal13OnShutdownRunEPFvPKvES3_(void (i8*)* nonnull @_ZN6google8protobuf8internal14DestroyMessageEPKv, i8* bitcast (%"class.perfetto::protos::ChromeCompositorSchedulerStateDefaultTypeInternal"* @_ZN8perfetto6protos49_ChromeCompositorSchedulerState_default_instance_E to i8*)) #12
  ret void
}

; Function Attrs: nounwind ssp uwtable
define internal void @_ZL141InitDefaultsscc_info_ChromeCompositorStateMachine_protos_2fperfetto_2ftrace_2ftrack_5fevent_2fchrome_5fcompositor_5fscheduler_5fstate_2eprotov() #0 {
  tail call void @_ZN6google8protobuf8internal13VerifyVersionEiiPKc(i32 3013000, i32 3013000, i8* getelementptr inbounds ([99 x i8], [99 x i8]* @.str, i64 0, i64 0)) #12
  store %"class.google::protobuf::Arena"* null, %"class.google::protobuf::Arena"** bitcast (i8* getelementptr inbounds (%"class.perfetto::protos::ChromeCompositorStateMachineDefaultTypeInternal", %"class.perfetto::protos::ChromeCompositorStateMachineDefaultTypeInternal"* @_ZN8perfetto6protos47_ChromeCompositorStateMachine_default_instance_E, i64 0, i32 0, i32 0, i32 1, i64 0) to %"class.google::protobuf::Arena"**), align 8
  store i32 (...)** bitcast (i8** getelementptr inbounds ({ [16 x i8*] }, { [16 x i8*] }* @_ZTVN8perfetto6protos28ChromeCompositorStateMachineE, i64 0, inrange i32 0, i64 2) to i32 (...)**), i32 (...)*** bitcast (%"class.perfetto::protos::ChromeCompositorStateMachineDefaultTypeInternal"* @_ZN8perfetto6protos47_ChromeCompositorStateMachine_default_instance_E to i32 (...)***), align 8
  store i32 0, i32* bitcast (i8* getelementptr inbounds (%"class.perfetto::protos::ChromeCompositorStateMachineDefaultTypeInternal", %"class.perfetto::protos::ChromeCompositorStateMachineDefaultTypeInternal"* @_ZN8perfetto6protos47_ChromeCompositorStateMachine_default_instance_E, i64 0, i32 0, i32 0, i32 1, i64 8) to i32*), align 8
  store i32 0, i32* bitcast (i8* getelementptr inbounds (%"class.perfetto::protos::ChromeCompositorStateMachineDefaultTypeInternal", %"class.perfetto::protos::ChromeCompositorStateMachineDefaultTypeInternal"* @_ZN8perfetto6protos47_ChromeCompositorStateMachine_default_instance_E, i64 0, i32 0, i32 0, i32 1, i64 12) to i32*), align 4
  %1 = load atomic i32, i32* getelementptr inbounds ({ { { { i32 } }, i32, i32, void ()* }, [2 x i8*] }, { { { { i32 } }, i32, i32, void ()* }, [2 x i8*] }* @scc_info_ChromeCompositorStateMachine_protos_2fperfetto_2ftrace_2ftrack_5fevent_2fchrome_5fcompositor_5fscheduler_5fstate_2eproto, i64 0, i32 0, i32 0, i32 0, i32 0) acquire, align 8
  %2 = icmp eq i32 %1, 0
  br i1 %2, label %4, label %3, !prof !2

3:                                                ; preds = %0
  tail call void @_ZN6google8protobuf8internal11InitSCCImplEPNS1_11SCCInfoBaseE(%"struct.google::protobuf::internal::SCCInfoBase"* bitcast ({ { { { i32 } }, i32, i32, void ()* }, [2 x i8*] }* @scc_info_ChromeCompositorStateMachine_protos_2fperfetto_2ftrace_2ftrack_5fevent_2fchrome_5fcompositor_5fscheduler_5fstate_2eproto to %"struct.google::protobuf::internal::SCCInfoBase"*)) #12
  br label %4

4:                                                ; preds = %0, %3
  tail call void @llvm.memset.p0i8.i64(i8* align 8 getelementptr inbounds (%"class.perfetto::protos::ChromeCompositorStateMachineDefaultTypeInternal", %"class.perfetto::protos::ChromeCompositorStateMachineDefaultTypeInternal"* @_ZN8perfetto6protos47_ChromeCompositorStateMachine_default_instance_E, i64 0, i32 0, i32 0, i32 1, i64 16), i8 0, i64 16, i1 false) #12
  tail call void @_ZN6google8protobuf8internal13OnShutdownRunEPFvPKvES3_(void (i8*)* nonnull @_ZN6google8protobuf8internal14DestroyMessageEPKv, i8* bitcast (%"class.perfetto::protos::ChromeCompositorStateMachineDefaultTypeInternal"* @_ZN8perfetto6protos47_ChromeCompositorStateMachine_default_instance_E to i8*)) #12
  ret void
}

; Function Attrs: nounwind ssp uwtable
define internal void @_ZL152InitDefaultsscc_info_ChromeCompositorStateMachine_MajorState_protos_2fperfetto_2ftrace_2ftrack_5fevent_2fchrome_5fcompositor_5fscheduler_5fstate_2eprotov() #0 {
  tail call void @_ZN6google8protobuf8internal13VerifyVersionEiiPKc(i32 3013000, i32 3013000, i8* getelementptr inbounds ([99 x i8], [99 x i8]* @.str, i64 0, i64 0)) #12
  store %"class.google::protobuf::Arena"* null, %"class.google::protobuf::Arena"** bitcast (i8* getelementptr inbounds (%"class.perfetto::protos::ChromeCompositorStateMachine_MajorStateDefaultTypeInternal", %"class.perfetto::protos::ChromeCompositorStateMachine_MajorStateDefaultTypeInternal"* @_ZN8perfetto6protos58_ChromeCompositorStateMachine_MajorState_default_instance_E, i64 0, i32 0, i32 0, i32 1, i64 0) to %"class.google::protobuf::Arena"**), align 8
  store i32 (...)** bitcast (i8** getelementptr inbounds ({ [16 x i8*] }, { [16 x i8*] }* @_ZTVN8perfetto6protos39ChromeCompositorStateMachine_MajorStateE, i64 0, inrange i32 0, i64 2) to i32 (...)**), i32 (...)*** bitcast (%"class.perfetto::protos::ChromeCompositorStateMachine_MajorStateDefaultTypeInternal"* @_ZN8perfetto6protos58_ChromeCompositorStateMachine_MajorState_default_instance_E to i32 (...)***), align 8
  tail call void @llvm.memset.p0i8.i64(i8* align 8 getelementptr inbounds (%"class.perfetto::protos::ChromeCompositorStateMachine_MajorStateDefaultTypeInternal", %"class.perfetto::protos::ChromeCompositorStateMachine_MajorStateDefaultTypeInternal"* @_ZN8perfetto6protos58_ChromeCompositorStateMachine_MajorState_default_instance_E, i64 0, i32 0, i32 0, i32 1, i64 8), i8 0, i64 28, i1 false) #12
  tail call void @_ZN6google8protobuf8internal13OnShutdownRunEPFvPKvES3_(void (i8*)* nonnull @_ZN6google8protobuf8internal14DestroyMessageEPKv, i8* bitcast (%"class.perfetto::protos::ChromeCompositorStateMachine_MajorStateDefaultTypeInternal"* @_ZN8perfetto6protos58_ChromeCompositorStateMachine_MajorState_default_instance_E to i8*)) #12
  ret void
}

; Function Attrs: nounwind ssp uwtable
define internal void @_ZL152InitDefaultsscc_info_ChromeCompositorStateMachine_MinorState_protos_2fperfetto_2ftrace_2ftrack_5fevent_2fchrome_5fcompositor_5fscheduler_5fstate_2eprotov() #0 {
  tail call void @_ZN6google8protobuf8internal13VerifyVersionEiiPKc(i32 3013000, i32 3013000, i8* getelementptr inbounds ([99 x i8], [99 x i8]* @.str, i64 0, i64 0)) #12
  store %"class.google::protobuf::Arena"* null, %"class.google::protobuf::Arena"** bitcast (i8* getelementptr inbounds (%"class.perfetto::protos::ChromeCompositorStateMachine_MinorStateDefaultTypeInternal", %"class.perfetto::protos::ChromeCompositorStateMachine_MinorStateDefaultTypeInternal"* @_ZN8perfetto6protos58_ChromeCompositorStateMachine_MinorState_default_instance_E, i64 0, i32 0, i32 0, i32 1, i64 0) to %"class.google::protobuf::Arena"**), align 8
  store i32 (...)** bitcast (i8** getelementptr inbounds ({ [16 x i8*] }, { [16 x i8*] }* @_ZTVN8perfetto6protos39ChromeCompositorStateMachine_MinorStateE, i64 0, inrange i32 0, i64 2) to i32 (...)**), i32 (...)*** bitcast (%"class.perfetto::protos::ChromeCompositorStateMachine_MinorStateDefaultTypeInternal"* @_ZN8perfetto6protos58_ChromeCompositorStateMachine_MinorState_default_instance_E to i32 (...)***), align 8
  tail call void @llvm.memset.p0i8.i64(i8* align 8 getelementptr inbounds (%"class.perfetto::protos::ChromeCompositorStateMachine_MinorStateDefaultTypeInternal", %"class.perfetto::protos::ChromeCompositorStateMachine_MinorStateDefaultTypeInternal"* @_ZN8perfetto6protos58_ChromeCompositorStateMachine_MinorState_default_instance_E, i64 0, i32 0, i32 0, i32 1, i64 8), i8 0, i64 88, i1 false) #12
  tail call void @_ZN6google8protobuf8internal13OnShutdownRunEPFvPKvES3_(void (i8*)* nonnull @_ZN6google8protobuf8internal14DestroyMessageEPKv, i8* bitcast (%"class.perfetto::protos::ChromeCompositorStateMachine_MinorStateDefaultTypeInternal"* @_ZN8perfetto6protos58_ChromeCompositorStateMachine_MinorState_default_instance_E to i8*)) #12
  ret void
}

; Function Attrs: nounwind ssp uwtable
define internal void @_ZL136InitDefaultsscc_info_CompositorTimingHistory_protos_2fperfetto_2ftrace_2ftrack_5fevent_2fchrome_5fcompositor_5fscheduler_5fstate_2eprotov() #0 {
  tail call void @_ZN6google8protobuf8internal13VerifyVersionEiiPKc(i32 3013000, i32 3013000, i8* getelementptr inbounds ([99 x i8], [99 x i8]* @.str, i64 0, i64 0)) #12
  store %"class.google::protobuf::Arena"* null, %"class.google::protobuf::Arena"** bitcast (i8* getelementptr inbounds (%"class.perfetto::protos::CompositorTimingHistoryDefaultTypeInternal", %"class.perfetto::protos::CompositorTimingHistoryDefaultTypeInternal"* @_ZN8perfetto6protos42_CompositorTimingHistory_default_instance_E, i64 0, i32 0, i32 0, i32 1, i64 0) to %"class.google::protobuf::Arena"**), align 8
  store i32 (...)** bitcast (i8** getelementptr inbounds ({ [16 x i8*] }, { [16 x i8*] }* @_ZTVN8perfetto6protos23CompositorTimingHistoryE, i64 0, inrange i32 0, i64 2) to i32 (...)**), i32 (...)*** bitcast (%"class.perfetto::protos::CompositorTimingHistoryDefaultTypeInternal"* @_ZN8perfetto6protos42_CompositorTimingHistory_default_instance_E to i32 (...)***), align 8
  tail call void @llvm.memset.p0i8.i64(i8* align 8 getelementptr inbounds (%"class.perfetto::protos::CompositorTimingHistoryDefaultTypeInternal", %"class.perfetto::protos::CompositorTimingHistoryDefaultTypeInternal"* @_ZN8perfetto6protos42_CompositorTimingHistory_default_instance_E, i64 0, i32 0, i32 0, i32 1, i64 8), i8 0, i64 64, i1 false) #12
  tail call void @_ZN6google8protobuf8internal13OnShutdownRunEPFvPKvES3_(void (i8*)* nonnull @_ZN6google8protobuf8internal14DestroyMessageEPKv, i8* bitcast (%"class.perfetto::protos::CompositorTimingHistoryDefaultTypeInternal"* @_ZN8perfetto6protos42_CompositorTimingHistory_default_instance_E to i8*)) #12
  ret void
}

; Function Attrs: norecurse nounwind readnone ssp uwtable
define hidden zeroext i1 @_ZN8perfetto6protos65ChromeCompositorSchedulerState_BeginImplFrameDeadlineMode_IsValidEi(i32) local_unnamed_addr #1 {
  %2 = icmp ult i32 %0, 6
  ret i1 %2
}

; Function Attrs: argmemonly nounwind
declare {}* @llvm.invariant.start.p0i8(i64 immarg, i8* nocapture) #2

; Function Attrs: nounwind ssp uwtable
define hidden dereferenceable(24) %"class.std::__1::basic_string"* @_ZN8perfetto6protos62ChromeCompositorSchedulerState_BeginImplFrameDeadlineMode_NameENS0_57ChromeCompositorSchedulerState_BeginImplFrameDeadlineModeE(i32) local_unnamed_addr #0 {
  %2 = load atomic i8, i8* bitcast (i64* @_ZGVZN8perfetto6protos62ChromeCompositorSchedulerState_BeginImplFrameDeadlineMode_NameENS0_57ChromeCompositorSchedulerState_BeginImplFrameDeadlineModeEE5dummy to i8*) acquire, align 8
  %3 = icmp eq i8 %2, 0
  br i1 %3, label %4, label %11, !prof !3

4:                                                ; preds = %1
  %5 = tail call i32 @__cxa_guard_acquire(i64* nonnull @_ZGVZN8perfetto6protos62ChromeCompositorSchedulerState_BeginImplFrameDeadlineMode_NameENS0_57ChromeCompositorSchedulerState_BeginImplFrameDeadlineModeEE5dummy) #12
  %6 = icmp eq i32 %5, 0
  br i1 %6, label %11, label %7

7:                                                ; preds = %4
  %8 = tail call zeroext i1 @_ZN6google8protobuf8internal21InitializeEnumStringsEPKNS1_9EnumEntryEPKimPNS1_21ExplicitlyConstructedINSt3__112basic_stringIcNS8_11char_traitsIcEENS8_9allocatorIcEEEEEE(%"struct.google::protobuf::internal::EnumEntry"* getelementptr inbounds ([6 x %"struct.google::protobuf::internal::EnumEntry"], [6 x %"struct.google::protobuf::internal::EnumEntry"]* @_ZN8perfetto6protosL65ChromeCompositorSchedulerState_BeginImplFrameDeadlineMode_entriesE, i64 0, i64 0), i32* getelementptr inbounds ([6 x i32], [6 x i32]* @_ZN8perfetto6protosL75ChromeCompositorSchedulerState_BeginImplFrameDeadlineMode_entries_by_numberE, i64 0, i64 0), i64 6, %"class.google::protobuf::internal::ExplicitlyConstructed.14"* getelementptr inbounds ([6 x %"class.google::protobuf::internal::ExplicitlyConstructed.14"], [6 x %"class.google::protobuf::internal::ExplicitlyConstructed.14"]* @_ZN8perfetto6protosL65ChromeCompositorSchedulerState_BeginImplFrameDeadlineMode_stringsE, i64 0, i64 0)) #12
  %9 = zext i1 %8 to i8
  store i8 %9, i8* @_ZZN8perfetto6protos62ChromeCompositorSchedulerState_BeginImplFrameDeadlineMode_NameENS0_57ChromeCompositorSchedulerState_BeginImplFrameDeadlineModeEE5dummy, align 1
  %10 = tail call {}* @llvm.invariant.start.p0i8(i64 1, i8* nonnull @_ZZN8perfetto6protos62ChromeCompositorSchedulerState_BeginImplFrameDeadlineMode_NameENS0_57ChromeCompositorSchedulerState_BeginImplFrameDeadlineModeEE5dummy)
  tail call void @__cxa_guard_release(i64* nonnull @_ZGVZN8perfetto6protos62ChromeCompositorSchedulerState_BeginImplFrameDeadlineMode_NameENS0_57ChromeCompositorSchedulerState_BeginImplFrameDeadlineModeEE5dummy) #12
  br label %11

11:                                               ; preds = %4, %7, %1
  %12 = tail call i32 @_ZN6google8protobuf8internal14LookUpEnumNameEPKNS1_9EnumEntryEPKimi(%"struct.google::protobuf::internal::EnumEntry"* getelementptr inbounds ([6 x %"struct.google::protobuf::internal::EnumEntry"], [6 x %"struct.google::protobuf::internal::EnumEntry"]* @_ZN8perfetto6protosL65ChromeCompositorSchedulerState_BeginImplFrameDeadlineMode_entriesE, i64 0, i64 0), i32* getelementptr inbounds ([6 x i32], [6 x i32]* @_ZN8perfetto6protosL75ChromeCompositorSchedulerState_BeginImplFrameDeadlineMode_entries_by_numberE, i64 0, i64 0), i64 6, i32 %0) #12
  %13 = icmp eq i32 %12, -1
  br i1 %13, label %14, label %16

14:                                               ; preds = %11
  %15 = tail call dereferenceable(24) %"class.std::__1::basic_string"* @_ZN6google8protobuf8internal14GetEmptyStringEv() #12
  br label %20

16:                                               ; preds = %11
  %17 = sext i32 %12 to i64
  %18 = getelementptr inbounds [6 x %"class.google::protobuf::internal::ExplicitlyConstructed.14"], [6 x %"class.google::protobuf::internal::ExplicitlyConstructed.14"]* @_ZN8perfetto6protosL65ChromeCompositorSchedulerState_BeginImplFrameDeadlineMode_stringsE, i64 0, i64 %17
  %19 = bitcast %"class.google::protobuf::internal::ExplicitlyConstructed.14"* %18 to %"class.std::__1::basic_string"*
  br label %20

20:                                               ; preds = %16, %14
  %21 = phi %"class.std::__1::basic_string"* [ %15, %14 ], [ %19, %16 ]
  ret %"class.std::__1::basic_string"* %21
}

; Function Attrs: nofree nounwind
declare i32 @__cxa_guard_acquire(i64*) local_unnamed_addr #3

declare zeroext i1 @_ZN6google8protobuf8internal21InitializeEnumStringsEPKNS1_9EnumEntryEPKimPNS1_21ExplicitlyConstructedINSt3__112basic_stringIcNS8_11char_traitsIcEENS8_9allocatorIcEEEEEE(%"struct.google::protobuf::internal::EnumEntry"*, i32*, i64, %"class.google::protobuf::internal::ExplicitlyConstructed.14"*) local_unnamed_addr #4

; Function Attrs: nofree nounwind
declare void @__cxa_guard_release(i64*) local_unnamed_addr #3

; Function Attrs: argmemonly nounwind
declare void @llvm.lifetime.start.p0i8(i64 immarg, i8* nocapture) #2

declare i32 @_ZN6google8protobuf8internal14LookUpEnumNameEPKNS1_9EnumEntryEPKimi(%"struct.google::protobuf::internal::EnumEntry"*, i32*, i64, i32) local_unnamed_addr #4

declare dereferenceable(24) %"class.std::__1::basic_string"* @_ZN6google8protobuf8internal14GetEmptyStringEv() local_unnamed_addr #4

; Function Attrs: argmemonly nounwind
declare void @llvm.lifetime.end.p0i8(i64 immarg, i8* nocapture) #2

; Function Attrs: nounwind ssp uwtable
define hidden zeroext i1 @_ZN8perfetto6protos63ChromeCompositorSchedulerState_BeginImplFrameDeadlineMode_ParseERKNSt3__112basic_stringIcNS1_11char_traitsIcEENS1_9allocatorIcEEEEPNS0_57ChromeCompositorSchedulerState_BeginImplFrameDeadlineModeE(%"class.std::__1::basic_string"* dereferenceable(24), i32* nocapture) local_unnamed_addr #0 {
  %3 = alloca i32, align 4
  %4 = bitcast i32* %3 to i8*
  call void @llvm.lifetime.start.p0i8(i64 4, i8* nonnull %4) #12
  store i32 -1431655766, i32* %3, align 4
  %5 = bitcast %"class.std::__1::basic_string"* %0 to %"struct.std::__1::basic_string<char, std::__1::char_traits<char>, std::__1::allocator<char> >::__short"*
  %6 = getelementptr inbounds %"struct.std::__1::basic_string<char, std::__1::char_traits<char>, std::__1::allocator<char> >::__short", %"struct.std::__1::basic_string<char, std::__1::char_traits<char>, std::__1::allocator<char> >::__short"* %5, i64 0, i32 1, i32 0
  %7 = load i8, i8* %6, align 1
  %8 = icmp slt i8 %7, 0
  %9 = getelementptr inbounds %"class.std::__1::basic_string", %"class.std::__1::basic_string"* %0, i64 0, i32 0, i32 0, i32 0, i32 0, i32 0, i32 0
  %10 = load i8*, i8** %9, align 8
  %11 = bitcast %"class.std::__1::basic_string"* %0 to i8*
  %12 = select i1 %8, i8* %10, i8* %11
  br i1 %8, label %15, label %13

13:                                               ; preds = %2
  %14 = zext i8 %7 to i64
  br label %20

15:                                               ; preds = %2
  %16 = getelementptr inbounds %"class.std::__1::basic_string", %"class.std::__1::basic_string"* %0, i64 0, i32 0, i32 0, i32 0, i32 0, i32 0, i32 1
  %17 = load i64, i64* %16, align 8
  %18 = icmp slt i64 %17, 0
  br i1 %18, label %19, label %20

19:                                               ; preds = %15
  tail call void @_ZN6google8protobuf11StringPiece18LogFatalSizeTooBigEmPKc(i64 %17, i8* getelementptr inbounds ([25 x i8], [25 x i8]* @.str.49, i64 0, i64 0)) #12
  br label %20

20:                                               ; preds = %13, %15, %19
  %21 = phi i64 [ %14, %13 ], [ %17, %15 ], [ %17, %19 ]
  %22 = call zeroext i1 @_ZN6google8protobuf8internal15LookUpEnumValueEPKNS1_9EnumEntryEmNS0_11StringPieceEPi(%"struct.google::protobuf::internal::EnumEntry"* getelementptr inbounds ([6 x %"struct.google::protobuf::internal::EnumEntry"], [6 x %"struct.google::protobuf::internal::EnumEntry"]* @_ZN8perfetto6protosL65ChromeCompositorSchedulerState_BeginImplFrameDeadlineMode_entriesE, i64 0, i64 0), i64 6, i8* %12, i64 %21, i32* nonnull %3) #12
  br i1 %22, label %23, label %25

23:                                               ; preds = %20
  %24 = load i32, i32* %3, align 4
  store i32 %24, i32* %1, align 4
  br label %25

25:                                               ; preds = %23, %20
  call void @llvm.lifetime.end.p0i8(i64 4, i8* nonnull %4) #12
  ret i1 %22
}

declare zeroext i1 @_ZN6google8protobuf8internal15LookUpEnumValueEPKNS1_9EnumEntryEmNS0_11StringPieceEPi(%"struct.google::protobuf::internal::EnumEntry"*, i64, i8*, i64, i32*) local_unnamed_addr #4

; Function Attrs: norecurse nounwind readnone ssp uwtable
define hidden zeroext i1 @_ZN8perfetto6protos67ChromeCompositorStateMachine_MajorState_BeginImplFrameState_IsValidEi(i32) local_unnamed_addr #1 {
  %2 = icmp ult i32 %0, 4
  ret i1 %2
}

; Function Attrs: nounwind ssp uwtable
define hidden dereferenceable(24) %"class.std::__1::basic_string"* @_ZN8perfetto6protos64ChromeCompositorStateMachine_MajorState_BeginImplFrameState_NameENS0_59ChromeCompositorStateMachine_MajorState_BeginImplFrameStateE(i32) local_unnamed_addr #0 {
  %2 = load atomic i8, i8* bitcast (i64* @_ZGVZN8perfetto6protos64ChromeCompositorStateMachine_MajorState_BeginImplFrameState_NameENS0_59ChromeCompositorStateMachine_MajorState_BeginImplFrameStateEE5dummy to i8*) acquire, align 8
  %3 = icmp eq i8 %2, 0
  br i1 %3, label %4, label %11, !prof !3

4:                                                ; preds = %1
  %5 = tail call i32 @__cxa_guard_acquire(i64* nonnull @_ZGVZN8perfetto6protos64ChromeCompositorStateMachine_MajorState_BeginImplFrameState_NameENS0_59ChromeCompositorStateMachine_MajorState_BeginImplFrameStateEE5dummy) #12
  %6 = icmp eq i32 %5, 0
  br i1 %6, label %11, label %7

7:                                                ; preds = %4
  %8 = tail call zeroext i1 @_ZN6google8protobuf8internal21InitializeEnumStringsEPKNS1_9EnumEntryEPKimPNS1_21ExplicitlyConstructedINSt3__112basic_stringIcNS8_11char_traitsIcEENS8_9allocatorIcEEEEEE(%"struct.google::protobuf::internal::EnumEntry"* getelementptr inbounds ([4 x %"struct.google::protobuf::internal::EnumEntry"], [4 x %"struct.google::protobuf::internal::EnumEntry"]* @_ZN8perfetto6protosL67ChromeCompositorStateMachine_MajorState_BeginImplFrameState_entriesE, i64 0, i64 0), i32* getelementptr inbounds ([4 x i32], [4 x i32]* @_ZN8perfetto6protosL77ChromeCompositorStateMachine_MajorState_BeginImplFrameState_entries_by_numberE, i64 0, i64 0), i64 4, %"class.google::protobuf::internal::ExplicitlyConstructed.14"* getelementptr inbounds ([4 x %"class.google::protobuf::internal::ExplicitlyConstructed.14"], [4 x %"class.google::protobuf::internal::ExplicitlyConstructed.14"]* @_ZN8perfetto6protosL67ChromeCompositorStateMachine_MajorState_BeginImplFrameState_stringsE, i64 0, i64 0)) #12
  %9 = zext i1 %8 to i8
  store i8 %9, i8* @_ZZN8perfetto6protos64ChromeCompositorStateMachine_MajorState_BeginImplFrameState_NameENS0_59ChromeCompositorStateMachine_MajorState_BeginImplFrameStateEE5dummy, align 1
  %10 = tail call {}* @llvm.invariant.start.p0i8(i64 1, i8* nonnull @_ZZN8perfetto6protos64ChromeCompositorStateMachine_MajorState_BeginImplFrameState_NameENS0_59ChromeCompositorStateMachine_MajorState_BeginImplFrameStateEE5dummy)
  tail call void @__cxa_guard_release(i64* nonnull @_ZGVZN8perfetto6protos64ChromeCompositorStateMachine_MajorState_BeginImplFrameState_NameENS0_59ChromeCompositorStateMachine_MajorState_BeginImplFrameStateEE5dummy) #12
  br label %11

11:                                               ; preds = %4, %7, %1
  %12 = tail call i32 @_ZN6google8protobuf8internal14LookUpEnumNameEPKNS1_9EnumEntryEPKimi(%"struct.google::protobuf::internal::EnumEntry"* getelementptr inbounds ([4 x %"struct.google::protobuf::internal::EnumEntry"], [4 x %"struct.google::protobuf::internal::EnumEntry"]* @_ZN8perfetto6protosL67ChromeCompositorStateMachine_MajorState_BeginImplFrameState_entriesE, i64 0, i64 0), i32* getelementptr inbounds ([4 x i32], [4 x i32]* @_ZN8perfetto6protosL77ChromeCompositorStateMachine_MajorState_BeginImplFrameState_entries_by_numberE, i64 0, i64 0), i64 4, i32 %0) #12
  %13 = icmp eq i32 %12, -1
  br i1 %13, label %14, label %16

14:                                               ; preds = %11
  %15 = tail call dereferenceable(24) %"class.std::__1::basic_string"* @_ZN6google8protobuf8internal14GetEmptyStringEv() #12
  br label %20

16:                                               ; preds = %11
  %17 = sext i32 %12 to i64
  %18 = getelementptr inbounds [4 x %"class.google::protobuf::internal::ExplicitlyConstructed.14"], [4 x %"class.google::protobuf::internal::ExplicitlyConstructed.14"]* @_ZN8perfetto6protosL67ChromeCompositorStateMachine_MajorState_BeginImplFrameState_stringsE, i64 0, i64 %17
  %19 = bitcast %"class.google::protobuf::internal::ExplicitlyConstructed.14"* %18 to %"class.std::__1::basic_string"*
  br label %20

20:                                               ; preds = %16, %14
  %21 = phi %"class.std::__1::basic_string"* [ %15, %14 ], [ %19, %16 ]
  ret %"class.std::__1::basic_string"* %21
}

; Function Attrs: nounwind ssp uwtable
define hidden zeroext i1 @_ZN8perfetto6protos65ChromeCompositorStateMachine_MajorState_BeginImplFrameState_ParseERKNSt3__112basic_stringIcNS1_11char_traitsIcEENS1_9allocatorIcEEEEPNS0_59ChromeCompositorStateMachine_MajorState_BeginImplFrameStateE(%"class.std::__1::basic_string"* dereferenceable(24), i32* nocapture) local_unnamed_addr #0 {
  %3 = alloca i32, align 4
  %4 = bitcast i32* %3 to i8*
  call void @llvm.lifetime.start.p0i8(i64 4, i8* nonnull %4) #12
  store i32 -1431655766, i32* %3, align 4
  %5 = bitcast %"class.std::__1::basic_string"* %0 to %"struct.std::__1::basic_string<char, std::__1::char_traits<char>, std::__1::allocator<char> >::__short"*
  %6 = getelementptr inbounds %"struct.std::__1::basic_string<char, std::__1::char_traits<char>, std::__1::allocator<char> >::__short", %"struct.std::__1::basic_string<char, std::__1::char_traits<char>, std::__1::allocator<char> >::__short"* %5, i64 0, i32 1, i32 0
  %7 = load i8, i8* %6, align 1
  %8 = icmp slt i8 %7, 0
  %9 = getelementptr inbounds %"class.std::__1::basic_string", %"class.std::__1::basic_string"* %0, i64 0, i32 0, i32 0, i32 0, i32 0, i32 0, i32 0
  %10 = load i8*, i8** %9, align 8
  %11 = bitcast %"class.std::__1::basic_string"* %0 to i8*
  %12 = select i1 %8, i8* %10, i8* %11
  br i1 %8, label %15, label %13

13:                                               ; preds = %2
  %14 = zext i8 %7 to i64
  br label %20

15:                                               ; preds = %2
  %16 = getelementptr inbounds %"class.std::__1::basic_string", %"class.std::__1::basic_string"* %0, i64 0, i32 0, i32 0, i32 0, i32 0, i32 0, i32 1
  %17 = load i64, i64* %16, align 8
  %18 = icmp slt i64 %17, 0
  br i1 %18, label %19, label %20

19:                                               ; preds = %15
  tail call void @_ZN6google8protobuf11StringPiece18LogFatalSizeTooBigEmPKc(i64 %17, i8* getelementptr inbounds ([25 x i8], [25 x i8]* @.str.49, i64 0, i64 0)) #12
  br label %20

20:                                               ; preds = %13, %15, %19
  %21 = phi i64 [ %14, %13 ], [ %17, %15 ], [ %17, %19 ]
  %22 = call zeroext i1 @_ZN6google8protobuf8internal15LookUpEnumValueEPKNS1_9EnumEntryEmNS0_11StringPieceEPi(%"struct.google::protobuf::internal::EnumEntry"* getelementptr inbounds ([4 x %"struct.google::protobuf::internal::EnumEntry"], [4 x %"struct.google::protobuf::internal::EnumEntry"]* @_ZN8perfetto6protosL67ChromeCompositorStateMachine_MajorState_BeginImplFrameState_entriesE, i64 0, i64 0), i64 4, i8* %12, i64 %21, i32* nonnull %3) #12
  br i1 %22, label %23, label %25

23:                                               ; preds = %20
  %24 = load i32, i32* %3, align 4
  store i32 %24, i32* %1, align 4
  br label %25

25:                                               ; preds = %23, %20
  call void @llvm.lifetime.end.p0i8(i64 4, i8* nonnull %4) #12
  ret i1 %22
}

; Function Attrs: norecurse nounwind readnone ssp uwtable
define hidden zeroext i1 @_ZN8perfetto6protos67ChromeCompositorStateMachine_MajorState_BeginMainFrameState_IsValidEi(i32) local_unnamed_addr #1 {
  %2 = icmp ult i32 %0, 4
  ret i1 %2
}

; Function Attrs: nounwind ssp uwtable
define hidden dereferenceable(24) %"class.std::__1::basic_string"* @_ZN8perfetto6protos64ChromeCompositorStateMachine_MajorState_BeginMainFrameState_NameENS0_59ChromeCompositorStateMachine_MajorState_BeginMainFrameStateE(i32) local_unnamed_addr #0 {
  %2 = load atomic i8, i8* bitcast (i64* @_ZGVZN8perfetto6protos64ChromeCompositorStateMachine_MajorState_BeginMainFrameState_NameENS0_59ChromeCompositorStateMachine_MajorState_BeginMainFrameStateEE5dummy to i8*) acquire, align 8
  %3 = icmp eq i8 %2, 0
  br i1 %3, label %4, label %11, !prof !3

4:                                                ; preds = %1
  %5 = tail call i32 @__cxa_guard_acquire(i64* nonnull @_ZGVZN8perfetto6protos64ChromeCompositorStateMachine_MajorState_BeginMainFrameState_NameENS0_59ChromeCompositorStateMachine_MajorState_BeginMainFrameStateEE5dummy) #12
  %6 = icmp eq i32 %5, 0
  br i1 %6, label %11, label %7

7:                                                ; preds = %4
  %8 = tail call zeroext i1 @_ZN6google8protobuf8internal21InitializeEnumStringsEPKNS1_9EnumEntryEPKimPNS1_21ExplicitlyConstructedINSt3__112basic_stringIcNS8_11char_traitsIcEENS8_9allocatorIcEEEEEE(%"struct.google::protobuf::internal::EnumEntry"* getelementptr inbounds ([4 x %"struct.google::protobuf::internal::EnumEntry"], [4 x %"struct.google::protobuf::internal::EnumEntry"]* @_ZN8perfetto6protosL67ChromeCompositorStateMachine_MajorState_BeginMainFrameState_entriesE, i64 0, i64 0), i32* getelementptr inbounds ([4 x i32], [4 x i32]* @_ZN8perfetto6protosL77ChromeCompositorStateMachine_MajorState_BeginMainFrameState_entries_by_numberE, i64 0, i64 0), i64 4, %"class.google::protobuf::internal::ExplicitlyConstructed.14"* getelementptr inbounds ([4 x %"class.google::protobuf::internal::ExplicitlyConstructed.14"], [4 x %"class.google::protobuf::internal::ExplicitlyConstructed.14"]* @_ZN8perfetto6protosL67ChromeCompositorStateMachine_MajorState_BeginMainFrameState_stringsE, i64 0, i64 0)) #12
  %9 = zext i1 %8 to i8
  store i8 %9, i8* @_ZZN8perfetto6protos64ChromeCompositorStateMachine_MajorState_BeginMainFrameState_NameENS0_59ChromeCompositorStateMachine_MajorState_BeginMainFrameStateEE5dummy, align 1
  %10 = tail call {}* @llvm.invariant.start.p0i8(i64 1, i8* nonnull @_ZZN8perfetto6protos64ChromeCompositorStateMachine_MajorState_BeginMainFrameState_NameENS0_59ChromeCompositorStateMachine_MajorState_BeginMainFrameStateEE5dummy)
  tail call void @__cxa_guard_release(i64* nonnull @_ZGVZN8perfetto6protos64ChromeCompositorStateMachine_MajorState_BeginMainFrameState_NameENS0_59ChromeCompositorStateMachine_MajorState_BeginMainFrameStateEE5dummy) #12
  br label %11

11:                                               ; preds = %4, %7, %1
  %12 = tail call i32 @_ZN6google8protobuf8internal14LookUpEnumNameEPKNS1_9EnumEntryEPKimi(%"struct.google::protobuf::internal::EnumEntry"* getelementptr inbounds ([4 x %"struct.google::protobuf::internal::EnumEntry"], [4 x %"struct.google::protobuf::internal::EnumEntry"]* @_ZN8perfetto6protosL67ChromeCompositorStateMachine_MajorState_BeginMainFrameState_entriesE, i64 0, i64 0), i32* getelementptr inbounds ([4 x i32], [4 x i32]* @_ZN8perfetto6protosL77ChromeCompositorStateMachine_MajorState_BeginMainFrameState_entries_by_numberE, i64 0, i64 0), i64 4, i32 %0) #12
  %13 = icmp eq i32 %12, -1
  br i1 %13, label %14, label %16

14:                                               ; preds = %11
  %15 = tail call dereferenceable(24) %"class.std::__1::basic_string"* @_ZN6google8protobuf8internal14GetEmptyStringEv() #12
  br label %20

16:                                               ; preds = %11
  %17 = sext i32 %12 to i64
  %18 = getelementptr inbounds [4 x %"class.google::protobuf::internal::ExplicitlyConstructed.14"], [4 x %"class.google::protobuf::internal::ExplicitlyConstructed.14"]* @_ZN8perfetto6protosL67ChromeCompositorStateMachine_MajorState_BeginMainFrameState_stringsE, i64 0, i64 %17
  %19 = bitcast %"class.google::protobuf::internal::ExplicitlyConstructed.14"* %18 to %"class.std::__1::basic_string"*
  br label %20

20:                                               ; preds = %16, %14
  %21 = phi %"class.std::__1::basic_string"* [ %15, %14 ], [ %19, %16 ]
  ret %"class.std::__1::basic_string"* %21
}

; Function Attrs: nounwind ssp uwtable
define hidden zeroext i1 @_ZN8perfetto6protos65ChromeCompositorStateMachine_MajorState_BeginMainFrameState_ParseERKNSt3__112basic_stringIcNS1_11char_traitsIcEENS1_9allocatorIcEEEEPNS0_59ChromeCompositorStateMachine_MajorState_BeginMainFrameStateE(%"class.std::__1::basic_string"* dereferenceable(24), i32* nocapture) local_unnamed_addr #0 {
  %3 = alloca i32, align 4
  %4 = bitcast i32* %3 to i8*
  call void @llvm.lifetime.start.p0i8(i64 4, i8* nonnull %4) #12
  store i32 -1431655766, i32* %3, align 4
  %5 = bitcast %"class.std::__1::basic_string"* %0 to %"struct.std::__1::basic_string<char, std::__1::char_traits<char>, std::__1::allocator<char> >::__short"*
  %6 = getelementptr inbounds %"struct.std::__1::basic_string<char, std::__1::char_traits<char>, std::__1::allocator<char> >::__short", %"struct.std::__1::basic_string<char, std::__1::char_traits<char>, std::__1::allocator<char> >::__short"* %5, i64 0, i32 1, i32 0
  %7 = load i8, i8* %6, align 1
  %8 = icmp slt i8 %7, 0
  %9 = getelementptr inbounds %"class.std::__1::basic_string", %"class.std::__1::basic_string"* %0, i64 0, i32 0, i32 0, i32 0, i32 0, i32 0, i32 0
  %10 = load i8*, i8** %9, align 8
  %11 = bitcast %"class.std::__1::basic_string"* %0 to i8*
  %12 = select i1 %8, i8* %10, i8* %11
  br i1 %8, label %15, label %13

13:                                               ; preds = %2
  %14 = zext i8 %7 to i64
  br label %20

15:                                               ; preds = %2
  %16 = getelementptr inbounds %"class.std::__1::basic_string", %"class.std::__1::basic_string"* %0, i64 0, i32 0, i32 0, i32 0, i32 0, i32 0, i32 1
  %17 = load i64, i64* %16, align 8
  %18 = icmp slt i64 %17, 0
  br i1 %18, label %19, label %20

19:                                               ; preds = %15
  tail call void @_ZN6google8protobuf11StringPiece18LogFatalSizeTooBigEmPKc(i64 %17, i8* getelementptr inbounds ([25 x i8], [25 x i8]* @.str.49, i64 0, i64 0)) #12
  br label %20

20:                                               ; preds = %13, %15, %19
  %21 = phi i64 [ %14, %13 ], [ %17, %15 ], [ %17, %19 ]
  %22 = call zeroext i1 @_ZN6google8protobuf8internal15LookUpEnumValueEPKNS1_9EnumEntryEmNS0_11StringPieceEPi(%"struct.google::protobuf::internal::EnumEntry"* getelementptr inbounds ([4 x %"struct.google::protobuf::internal::EnumEntry"], [4 x %"struct.google::protobuf::internal::EnumEntry"]* @_ZN8perfetto6protosL67ChromeCompositorStateMachine_MajorState_BeginMainFrameState_entriesE, i64 0, i64 0), i64 4, i8* %12, i64 %21, i32* nonnull %3) #12
  br i1 %22, label %23, label %25

23:                                               ; preds = %20
  %24 = load i32, i32* %3, align 4
  store i32 %24, i32* %1, align 4
  br label %25

25:                                               ; preds = %23, %20
  call void @llvm.lifetime.end.p0i8(i64 4, i8* nonnull %4) #12
  ret i1 %22
}

; Function Attrs: norecurse nounwind readnone ssp uwtable
define hidden zeroext i1 @_ZN8perfetto6protos71ChromeCompositorStateMachine_MajorState_LayerTreeFrameSinkState_IsValidEi(i32) local_unnamed_addr #1 {
  %2 = icmp ult i32 %0, 6
  ret i1 %2
}

; Function Attrs: nounwind ssp uwtable
define hidden dereferenceable(24) %"class.std::__1::basic_string"* @_ZN8perfetto6protos68ChromeCompositorStateMachine_MajorState_LayerTreeFrameSinkState_NameENS0_63ChromeCompositorStateMachine_MajorState_LayerTreeFrameSinkStateE(i32) local_unnamed_addr #0 {
  %2 = load atomic i8, i8* bitcast (i64* @_ZGVZN8perfetto6protos68ChromeCompositorStateMachine_MajorState_LayerTreeFrameSinkState_NameENS0_63ChromeCompositorStateMachine_MajorState_LayerTreeFrameSinkStateEE5dummy to i8*) acquire, align 8
  %3 = icmp eq i8 %2, 0
  br i1 %3, label %4, label %11, !prof !3

4:                                                ; preds = %1
  %5 = tail call i32 @__cxa_guard_acquire(i64* nonnull @_ZGVZN8perfetto6protos68ChromeCompositorStateMachine_MajorState_LayerTreeFrameSinkState_NameENS0_63ChromeCompositorStateMachine_MajorState_LayerTreeFrameSinkStateEE5dummy) #12
  %6 = icmp eq i32 %5, 0
  br i1 %6, label %11, label %7

7:                                                ; preds = %4
  %8 = tail call zeroext i1 @_ZN6google8protobuf8internal21InitializeEnumStringsEPKNS1_9EnumEntryEPKimPNS1_21ExplicitlyConstructedINSt3__112basic_stringIcNS8_11char_traitsIcEENS8_9allocatorIcEEEEEE(%"struct.google::protobuf::internal::EnumEntry"* getelementptr inbounds ([6 x %"struct.google::protobuf::internal::EnumEntry"], [6 x %"struct.google::protobuf::internal::EnumEntry"]* @_ZN8perfetto6protosL71ChromeCompositorStateMachine_MajorState_LayerTreeFrameSinkState_entriesE, i64 0, i64 0), i32* getelementptr inbounds ([6 x i32], [6 x i32]* @_ZN8perfetto6protosL81ChromeCompositorStateMachine_MajorState_LayerTreeFrameSinkState_entries_by_numberE, i64 0, i64 0), i64 6, %"class.google::protobuf::internal::ExplicitlyConstructed.14"* getelementptr inbounds ([6 x %"class.google::protobuf::internal::ExplicitlyConstructed.14"], [6 x %"class.google::protobuf::internal::ExplicitlyConstructed.14"]* @_ZN8perfetto6protosL71ChromeCompositorStateMachine_MajorState_LayerTreeFrameSinkState_stringsE, i64 0, i64 0)) #12
  %9 = zext i1 %8 to i8
  store i8 %9, i8* @_ZZN8perfetto6protos68ChromeCompositorStateMachine_MajorState_LayerTreeFrameSinkState_NameENS0_63ChromeCompositorStateMachine_MajorState_LayerTreeFrameSinkStateEE5dummy, align 1
  %10 = tail call {}* @llvm.invariant.start.p0i8(i64 1, i8* nonnull @_ZZN8perfetto6protos68ChromeCompositorStateMachine_MajorState_LayerTreeFrameSinkState_NameENS0_63ChromeCompositorStateMachine_MajorState_LayerTreeFrameSinkStateEE5dummy)
  tail call void @__cxa_guard_release(i64* nonnull @_ZGVZN8perfetto6protos68ChromeCompositorStateMachine_MajorState_LayerTreeFrameSinkState_NameENS0_63ChromeCompositorStateMachine_MajorState_LayerTreeFrameSinkStateEE5dummy) #12
  br label %11

11:                                               ; preds = %4, %7, %1
  %12 = tail call i32 @_ZN6google8protobuf8internal14LookUpEnumNameEPKNS1_9EnumEntryEPKimi(%"struct.google::protobuf::internal::EnumEntry"* getelementptr inbounds ([6 x %"struct.google::protobuf::internal::EnumEntry"], [6 x %"struct.google::protobuf::internal::EnumEntry"]* @_ZN8perfetto6protosL71ChromeCompositorStateMachine_MajorState_LayerTreeFrameSinkState_entriesE, i64 0, i64 0), i32* getelementptr inbounds ([6 x i32], [6 x i32]* @_ZN8perfetto6protosL81ChromeCompositorStateMachine_MajorState_LayerTreeFrameSinkState_entries_by_numberE, i64 0, i64 0), i64 6, i32 %0) #12
  %13 = icmp eq i32 %12, -1
  br i1 %13, label %14, label %16

14:                                               ; preds = %11
  %15 = tail call dereferenceable(24) %"class.std::__1::basic_string"* @_ZN6google8protobuf8internal14GetEmptyStringEv() #12
  br label %20

16:                                               ; preds = %11
  %17 = sext i32 %12 to i64
  %18 = getelementptr inbounds [6 x %"class.google::protobuf::internal::ExplicitlyConstructed.14"], [6 x %"class.google::protobuf::internal::ExplicitlyConstructed.14"]* @_ZN8perfetto6protosL71ChromeCompositorStateMachine_MajorState_LayerTreeFrameSinkState_stringsE, i64 0, i64 %17
  %19 = bitcast %"class.google::protobuf::internal::ExplicitlyConstructed.14"* %18 to %"class.std::__1::basic_string"*
  br label %20

20:                                               ; preds = %16, %14
  %21 = phi %"class.std::__1::basic_string"* [ %15, %14 ], [ %19, %16 ]
  ret %"class.std::__1::basic_string"* %21
}

; Function Attrs: nounwind ssp uwtable
define hidden zeroext i1 @_ZN8perfetto6protos69ChromeCompositorStateMachine_MajorState_LayerTreeFrameSinkState_ParseERKNSt3__112basic_stringIcNS1_11char_traitsIcEENS1_9allocatorIcEEEEPNS0_63ChromeCompositorStateMachine_MajorState_LayerTreeFrameSinkStateE(%"class.std::__1::basic_string"* dereferenceable(24), i32* nocapture) local_unnamed_addr #0 {
  %3 = alloca i32, align 4
  %4 = bitcast i32* %3 to i8*
  call void @llvm.lifetime.start.p0i8(i64 4, i8* nonnull %4) #12
  store i32 -1431655766, i32* %3, align 4
  %5 = bitcast %"class.std::__1::basic_string"* %0 to %"struct.std::__1::basic_string<char, std::__1::char_traits<char>, std::__1::allocator<char> >::__short"*
  %6 = getelementptr inbounds %"struct.std::__1::basic_string<char, std::__1::char_traits<char>, std::__1::allocator<char> >::__short", %"struct.std::__1::basic_string<char, std::__1::char_traits<char>, std::__1::allocator<char> >::__short"* %5, i64 0, i32 1, i32 0
  %7 = load i8, i8* %6, align 1
  %8 = icmp slt i8 %7, 0
  %9 = getelementptr inbounds %"class.std::__1::basic_string", %"class.std::__1::basic_string"* %0, i64 0, i32 0, i32 0, i32 0, i32 0, i32 0, i32 0
  %10 = load i8*, i8** %9, align 8
  %11 = bitcast %"class.std::__1::basic_string"* %0 to i8*
  %12 = select i1 %8, i8* %10, i8* %11
  br i1 %8, label %15, label %13

13:                                               ; preds = %2
  %14 = zext i8 %7 to i64
  br label %20

15:                                               ; preds = %2
  %16 = getelementptr inbounds %"class.std::__1::basic_string", %"class.std::__1::basic_string"* %0, i64 0, i32 0, i32 0, i32 0, i32 0, i32 0, i32 1
  %17 = load i64, i64* %16, align 8
  %18 = icmp slt i64 %17, 0
  br i1 %18, label %19, label %20

19:                                               ; preds = %15
  tail call void @_ZN6google8protobuf11StringPiece18LogFatalSizeTooBigEmPKc(i64 %17, i8* getelementptr inbounds ([25 x i8], [25 x i8]* @.str.49, i64 0, i64 0)) #12
  br label %20

20:                                               ; preds = %13, %15, %19
  %21 = phi i64 [ %14, %13 ], [ %17, %15 ], [ %17, %19 ]
  %22 = call zeroext i1 @_ZN6google8protobuf8internal15LookUpEnumValueEPKNS1_9EnumEntryEmNS0_11StringPieceEPi(%"struct.google::protobuf::internal::EnumEntry"* getelementptr inbounds ([6 x %"struct.google::protobuf::internal::EnumEntry"], [6 x %"struct.google::protobuf::internal::EnumEntry"]* @_ZN8perfetto6protosL71ChromeCompositorStateMachine_MajorState_LayerTreeFrameSinkState_entriesE, i64 0, i64 0), i64 6, i8* %12, i64 %21, i32* nonnull %3) #12
  br i1 %22, label %23, label %25

23:                                               ; preds = %20
  %24 = load i32, i32* %3, align 4
  store i32 %24, i32* %1, align 4
  br label %25

25:                                               ; preds = %23, %20
  call void @llvm.lifetime.end.p0i8(i64 4, i8* nonnull %4) #12
  ret i1 %22
}

; Function Attrs: norecurse nounwind readnone ssp uwtable
define hidden zeroext i1 @_ZN8perfetto6protos74ChromeCompositorStateMachine_MajorState_ForcedRedrawOnTimeoutState_IsValidEi(i32) local_unnamed_addr #1 {
  %2 = icmp ult i32 %0, 5
  ret i1 %2
}

; Function Attrs: nounwind ssp uwtable
define hidden dereferenceable(24) %"class.std::__1::basic_string"* @_ZN8perfetto6protos71ChromeCompositorStateMachine_MajorState_ForcedRedrawOnTimeoutState_NameENS0_66ChromeCompositorStateMachine_MajorState_ForcedRedrawOnTimeoutStateE(i32) local_unnamed_addr #0 {
  %2 = load atomic i8, i8* bitcast (i64* @_ZGVZN8perfetto6protos71ChromeCompositorStateMachine_MajorState_ForcedRedrawOnTimeoutState_NameENS0_66ChromeCompositorStateMachine_MajorState_ForcedRedrawOnTimeoutStateEE5dummy to i8*) acquire, align 8
  %3 = icmp eq i8 %2, 0
  br i1 %3, label %4, label %11, !prof !3

4:                                                ; preds = %1
  %5 = tail call i32 @__cxa_guard_acquire(i64* nonnull @_ZGVZN8perfetto6protos71ChromeCompositorStateMachine_MajorState_ForcedRedrawOnTimeoutState_NameENS0_66ChromeCompositorStateMachine_MajorState_ForcedRedrawOnTimeoutStateEE5dummy) #12
  %6 = icmp eq i32 %5, 0
  br i1 %6, label %11, label %7

7:                                                ; preds = %4
  %8 = tail call zeroext i1 @_ZN6google8protobuf8internal21InitializeEnumStringsEPKNS1_9EnumEntryEPKimPNS1_21ExplicitlyConstructedINSt3__112basic_stringIcNS8_11char_traitsIcEENS8_9allocatorIcEEEEEE(%"struct.google::protobuf::internal::EnumEntry"* getelementptr inbounds ([5 x %"struct.google::protobuf::internal::EnumEntry"], [5 x %"struct.google::protobuf::internal::EnumEntry"]* @_ZN8perfetto6protosL74ChromeCompositorStateMachine_MajorState_ForcedRedrawOnTimeoutState_entriesE, i64 0, i64 0), i32* getelementptr inbounds ([5 x i32], [5 x i32]* @_ZN8perfetto6protosL84ChromeCompositorStateMachine_MajorState_ForcedRedrawOnTimeoutState_entries_by_numberE, i64 0, i64 0), i64 5, %"class.google::protobuf::internal::ExplicitlyConstructed.14"* getelementptr inbounds ([5 x %"class.google::protobuf::internal::ExplicitlyConstructed.14"], [5 x %"class.google::protobuf::internal::ExplicitlyConstructed.14"]* @_ZN8perfetto6protosL74ChromeCompositorStateMachine_MajorState_ForcedRedrawOnTimeoutState_stringsE, i64 0, i64 0)) #12
  %9 = zext i1 %8 to i8
  store i8 %9, i8* @_ZZN8perfetto6protos71ChromeCompositorStateMachine_MajorState_ForcedRedrawOnTimeoutState_NameENS0_66ChromeCompositorStateMachine_MajorState_ForcedRedrawOnTimeoutStateEE5dummy, align 1
  %10 = tail call {}* @llvm.invariant.start.p0i8(i64 1, i8* nonnull @_ZZN8perfetto6protos71ChromeCompositorStateMachine_MajorState_ForcedRedrawOnTimeoutState_NameENS0_66ChromeCompositorStateMachine_MajorState_ForcedRedrawOnTimeoutStateEE5dummy)
  tail call void @__cxa_guard_release(i64* nonnull @_ZGVZN8perfetto6protos71ChromeCompositorStateMachine_MajorState_ForcedRedrawOnTimeoutState_NameENS0_66ChromeCompositorStateMachine_MajorState_ForcedRedrawOnTimeoutStateEE5dummy) #12
  br label %11

11:                                               ; preds = %4, %7, %1
  %12 = tail call i32 @_ZN6google8protobuf8internal14LookUpEnumNameEPKNS1_9EnumEntryEPKimi(%"struct.google::protobuf::internal::EnumEntry"* getelementptr inbounds ([5 x %"struct.google::protobuf::internal::EnumEntry"], [5 x %"struct.google::protobuf::internal::EnumEntry"]* @_ZN8perfetto6protosL74ChromeCompositorStateMachine_MajorState_ForcedRedrawOnTimeoutState_entriesE, i64 0, i64 0), i32* getelementptr inbounds ([5 x i32], [5 x i32]* @_ZN8perfetto6protosL84ChromeCompositorStateMachine_MajorState_ForcedRedrawOnTimeoutState_entries_by_numberE, i64 0, i64 0), i64 5, i32 %0) #12
  %13 = icmp eq i32 %12, -1
  br i1 %13, label %14, label %16

14:                                               ; preds = %11
  %15 = tail call dereferenceable(24) %"class.std::__1::basic_string"* @_ZN6google8protobuf8internal14GetEmptyStringEv() #12
  br label %20

16:                                               ; preds = %11
  %17 = sext i32 %12 to i64
  %18 = getelementptr inbounds [5 x %"class.google::protobuf::internal::ExplicitlyConstructed.14"], [5 x %"class.google::protobuf::internal::ExplicitlyConstructed.14"]* @_ZN8perfetto6protosL74ChromeCompositorStateMachine_MajorState_ForcedRedrawOnTimeoutState_stringsE, i64 0, i64 %17
  %19 = bitcast %"class.google::protobuf::internal::ExplicitlyConstructed.14"* %18 to %"class.std::__1::basic_string"*
  br label %20

20:                                               ; preds = %16, %14
  %21 = phi %"class.std::__1::basic_string"* [ %15, %14 ], [ %19, %16 ]
  ret %"class.std::__1::basic_string"* %21
}

; Function Attrs: nounwind ssp uwtable
define hidden zeroext i1 @_ZN8perfetto6protos72ChromeCompositorStateMachine_MajorState_ForcedRedrawOnTimeoutState_ParseERKNSt3__112basic_stringIcNS1_11char_traitsIcEENS1_9allocatorIcEEEEPNS0_66ChromeCompositorStateMachine_MajorState_ForcedRedrawOnTimeoutStateE(%"class.std::__1::basic_string"* dereferenceable(24), i32* nocapture) local_unnamed_addr #0 {
  %3 = alloca i32, align 4
  %4 = bitcast i32* %3 to i8*
  call void @llvm.lifetime.start.p0i8(i64 4, i8* nonnull %4) #12
  store i32 -1431655766, i32* %3, align 4
  %5 = bitcast %"class.std::__1::basic_string"* %0 to %"struct.std::__1::basic_string<char, std::__1::char_traits<char>, std::__1::allocator<char> >::__short"*
  %6 = getelementptr inbounds %"struct.std::__1::basic_string<char, std::__1::char_traits<char>, std::__1::allocator<char> >::__short", %"struct.std::__1::basic_string<char, std::__1::char_traits<char>, std::__1::allocator<char> >::__short"* %5, i64 0, i32 1, i32 0
  %7 = load i8, i8* %6, align 1
  %8 = icmp slt i8 %7, 0
  %9 = getelementptr inbounds %"class.std::__1::basic_string", %"class.std::__1::basic_string"* %0, i64 0, i32 0, i32 0, i32 0, i32 0, i32 0, i32 0
  %10 = load i8*, i8** %9, align 8
  %11 = bitcast %"class.std::__1::basic_string"* %0 to i8*
  %12 = select i1 %8, i8* %10, i8* %11
  br i1 %8, label %15, label %13

13:                                               ; preds = %2
  %14 = zext i8 %7 to i64
  br label %20

15:                                               ; preds = %2
  %16 = getelementptr inbounds %"class.std::__1::basic_string", %"class.std::__1::basic_string"* %0, i64 0, i32 0, i32 0, i32 0, i32 0, i32 0, i32 1
  %17 = load i64, i64* %16, align 8
  %18 = icmp slt i64 %17, 0
  br i1 %18, label %19, label %20

19:                                               ; preds = %15
  tail call void @_ZN6google8protobuf11StringPiece18LogFatalSizeTooBigEmPKc(i64 %17, i8* getelementptr inbounds ([25 x i8], [25 x i8]* @.str.49, i64 0, i64 0)) #12
  br label %20

20:                                               ; preds = %13, %15, %19
  %21 = phi i64 [ %14, %13 ], [ %17, %15 ], [ %17, %19 ]
  %22 = call zeroext i1 @_ZN6google8protobuf8internal15LookUpEnumValueEPKNS1_9EnumEntryEmNS0_11StringPieceEPi(%"struct.google::protobuf::internal::EnumEntry"* getelementptr inbounds ([5 x %"struct.google::protobuf::internal::EnumEntry"], [5 x %"struct.google::protobuf::internal::EnumEntry"]* @_ZN8perfetto6protosL74ChromeCompositorStateMachine_MajorState_ForcedRedrawOnTimeoutState_entriesE, i64 0, i64 0), i64 5, i8* %12, i64 %21, i32* nonnull %3) #12
  br i1 %22, label %23, label %25

23:                                               ; preds = %20
  %24 = load i32, i32* %3, align 4
  store i32 %24, i32* %1, align 4
  br label %25

25:                                               ; preds = %23, %20
  call void @llvm.lifetime.end.p0i8(i64 4, i8* nonnull %4) #12
  ret i1 %22
}

; Function Attrs: norecurse nounwind readnone ssp uwtable
define hidden zeroext i1 @_ZN8perfetto6protos60ChromeCompositorStateMachine_MinorState_TreePriority_IsValidEi(i32) local_unnamed_addr #1 {
  %2 = icmp ult i32 %0, 4
  ret i1 %2
}

; Function Attrs: nounwind ssp uwtable
define hidden dereferenceable(24) %"class.std::__1::basic_string"* @_ZN8perfetto6protos57ChromeCompositorStateMachine_MinorState_TreePriority_NameENS0_52ChromeCompositorStateMachine_MinorState_TreePriorityE(i32) local_unnamed_addr #0 {
  %2 = load atomic i8, i8* bitcast (i64* @_ZGVZN8perfetto6protos57ChromeCompositorStateMachine_MinorState_TreePriority_NameENS0_52ChromeCompositorStateMachine_MinorState_TreePriorityEE5dummy to i8*) acquire, align 8
  %3 = icmp eq i8 %2, 0
  br i1 %3, label %4, label %11, !prof !3

4:                                                ; preds = %1
  %5 = tail call i32 @__cxa_guard_acquire(i64* nonnull @_ZGVZN8perfetto6protos57ChromeCompositorStateMachine_MinorState_TreePriority_NameENS0_52ChromeCompositorStateMachine_MinorState_TreePriorityEE5dummy) #12
  %6 = icmp eq i32 %5, 0
  br i1 %6, label %11, label %7

7:                                                ; preds = %4
  %8 = tail call zeroext i1 @_ZN6google8protobuf8internal21InitializeEnumStringsEPKNS1_9EnumEntryEPKimPNS1_21ExplicitlyConstructedINSt3__112basic_stringIcNS8_11char_traitsIcEENS8_9allocatorIcEEEEEE(%"struct.google::protobuf::internal::EnumEntry"* getelementptr inbounds ([4 x %"struct.google::protobuf::internal::EnumEntry"], [4 x %"struct.google::protobuf::internal::EnumEntry"]* @_ZN8perfetto6protosL60ChromeCompositorStateMachine_MinorState_TreePriority_entriesE, i64 0, i64 0), i32* getelementptr inbounds ([4 x i32], [4 x i32]* @_ZN8perfetto6protosL70ChromeCompositorStateMachine_MinorState_TreePriority_entries_by_numberE, i64 0, i64 0), i64 4, %"class.google::protobuf::internal::ExplicitlyConstructed.14"* getelementptr inbounds ([4 x %"class.google::protobuf::internal::ExplicitlyConstructed.14"], [4 x %"class.google::protobuf::internal::ExplicitlyConstructed.14"]* @_ZN8perfetto6protosL60ChromeCompositorStateMachine_MinorState_TreePriority_stringsE, i64 0, i64 0)) #12
  %9 = zext i1 %8 to i8
  store i8 %9, i8* @_ZZN8perfetto6protos57ChromeCompositorStateMachine_MinorState_TreePriority_NameENS0_52ChromeCompositorStateMachine_MinorState_TreePriorityEE5dummy, align 1
  %10 = tail call {}* @llvm.invariant.start.p0i8(i64 1, i8* nonnull @_ZZN8perfetto6protos57ChromeCompositorStateMachine_MinorState_TreePriority_NameENS0_52ChromeCompositorStateMachine_MinorState_TreePriorityEE5dummy)
  tail call void @__cxa_guard_release(i64* nonnull @_ZGVZN8perfetto6protos57ChromeCompositorStateMachine_MinorState_TreePriority_NameENS0_52ChromeCompositorStateMachine_MinorState_TreePriorityEE5dummy) #12
  br label %11

11:                                               ; preds = %4, %7, %1
  %12 = tail call i32 @_ZN6google8protobuf8internal14LookUpEnumNameEPKNS1_9EnumEntryEPKimi(%"struct.google::protobuf::internal::EnumEntry"* getelementptr inbounds ([4 x %"struct.google::protobuf::internal::EnumEntry"], [4 x %"struct.google::protobuf::internal::EnumEntry"]* @_ZN8perfetto6protosL60ChromeCompositorStateMachine_MinorState_TreePriority_entriesE, i64 0, i64 0), i32* getelementptr inbounds ([4 x i32], [4 x i32]* @_ZN8perfetto6protosL70ChromeCompositorStateMachine_MinorState_TreePriority_entries_by_numberE, i64 0, i64 0), i64 4, i32 %0) #12
  %13 = icmp eq i32 %12, -1
  br i1 %13, label %14, label %16

14:                                               ; preds = %11
  %15 = tail call dereferenceable(24) %"class.std::__1::basic_string"* @_ZN6google8protobuf8internal14GetEmptyStringEv() #12
  br label %20

16:                                               ; preds = %11
  %17 = sext i32 %12 to i64
  %18 = getelementptr inbounds [4 x %"class.google::protobuf::internal::ExplicitlyConstructed.14"], [4 x %"class.google::protobuf::internal::ExplicitlyConstructed.14"]* @_ZN8perfetto6protosL60ChromeCompositorStateMachine_MinorState_TreePriority_stringsE, i64 0, i64 %17
  %19 = bitcast %"class.google::protobuf::internal::ExplicitlyConstructed.14"* %18 to %"class.std::__1::basic_string"*
  br label %20

20:                                               ; preds = %16, %14
  %21 = phi %"class.std::__1::basic_string"* [ %15, %14 ], [ %19, %16 ]
  ret %"class.std::__1::basic_string"* %21
}

; Function Attrs: nounwind ssp uwtable
define hidden zeroext i1 @_ZN8perfetto6protos58ChromeCompositorStateMachine_MinorState_TreePriority_ParseERKNSt3__112basic_stringIcNS1_11char_traitsIcEENS1_9allocatorIcEEEEPNS0_52ChromeCompositorStateMachine_MinorState_TreePriorityE(%"class.std::__1::basic_string"* dereferenceable(24), i32* nocapture) local_unnamed_addr #0 {
  %3 = alloca i32, align 4
  %4 = bitcast i32* %3 to i8*
  call void @llvm.lifetime.start.p0i8(i64 4, i8* nonnull %4) #12
  store i32 -1431655766, i32* %3, align 4
  %5 = bitcast %"class.std::__1::basic_string"* %0 to %"struct.std::__1::basic_string<char, std::__1::char_traits<char>, std::__1::allocator<char> >::__short"*
  %6 = getelementptr inbounds %"struct.std::__1::basic_string<char, std::__1::char_traits<char>, std::__1::allocator<char> >::__short", %"struct.std::__1::basic_string<char, std::__1::char_traits<char>, std::__1::allocator<char> >::__short"* %5, i64 0, i32 1, i32 0
  %7 = load i8, i8* %6, align 1
  %8 = icmp slt i8 %7, 0
  %9 = getelementptr inbounds %"class.std::__1::basic_string", %"class.std::__1::basic_string"* %0, i64 0, i32 0, i32 0, i32 0, i32 0, i32 0, i32 0
  %10 = load i8*, i8** %9, align 8
  %11 = bitcast %"class.std::__1::basic_string"* %0 to i8*
  %12 = select i1 %8, i8* %10, i8* %11
  br i1 %8, label %15, label %13

13:                                               ; preds = %2
  %14 = zext i8 %7 to i64
  br label %20

15:                                               ; preds = %2
  %16 = getelementptr inbounds %"class.std::__1::basic_string", %"class.std::__1::basic_string"* %0, i64 0, i32 0, i32 0, i32 0, i32 0, i32 0, i32 1
  %17 = load i64, i64* %16, align 8
  %18 = icmp slt i64 %17, 0
  br i1 %18, label %19, label %20

19:                                               ; preds = %15
  tail call void @_ZN6google8protobuf11StringPiece18LogFatalSizeTooBigEmPKc(i64 %17, i8* getelementptr inbounds ([25 x i8], [25 x i8]* @.str.49, i64 0, i64 0)) #12
  br label %20

20:                                               ; preds = %13, %15, %19
  %21 = phi i64 [ %14, %13 ], [ %17, %15 ], [ %17, %19 ]
  %22 = call zeroext i1 @_ZN6google8protobuf8internal15LookUpEnumValueEPKNS1_9EnumEntryEmNS0_11StringPieceEPi(%"struct.google::protobuf::internal::EnumEntry"* getelementptr inbounds ([4 x %"struct.google::protobuf::internal::EnumEntry"], [4 x %"struct.google::protobuf::internal::EnumEntry"]* @_ZN8perfetto6protosL60ChromeCompositorStateMachine_MinorState_TreePriority_entriesE, i64 0, i64 0), i64 4, i8* %12, i64 %21, i32* nonnull %3) #12
  br i1 %22, label %23, label %25

23:                                               ; preds = %20
  %24 = load i32, i32* %3, align 4
  store i32 %24, i32* %1, align 4
  br label %25

25:                                               ; preds = %23, %20
  call void @llvm.lifetime.end.p0i8(i64 4, i8* nonnull %4) #12
  ret i1 %22
}

; Function Attrs: norecurse nounwind readnone ssp uwtable
define hidden zeroext i1 @_ZN8perfetto6protos66ChromeCompositorStateMachine_MinorState_ScrollHandlerState_IsValidEi(i32) local_unnamed_addr #1 {
  %2 = icmp ult i32 %0, 3
  ret i1 %2
}

; Function Attrs: nounwind ssp uwtable
define hidden dereferenceable(24) %"class.std::__1::basic_string"* @_ZN8perfetto6protos63ChromeCompositorStateMachine_MinorState_ScrollHandlerState_NameENS0_58ChromeCompositorStateMachine_MinorState_ScrollHandlerStateE(i32) local_unnamed_addr #0 {
  %2 = load atomic i8, i8* bitcast (i64* @_ZGVZN8perfetto6protos63ChromeCompositorStateMachine_MinorState_ScrollHandlerState_NameENS0_58ChromeCompositorStateMachine_MinorState_ScrollHandlerStateEE5dummy to i8*) acquire, align 8
  %3 = icmp eq i8 %2, 0
  br i1 %3, label %4, label %11, !prof !3

4:                                                ; preds = %1
  %5 = tail call i32 @__cxa_guard_acquire(i64* nonnull @_ZGVZN8perfetto6protos63ChromeCompositorStateMachine_MinorState_ScrollHandlerState_NameENS0_58ChromeCompositorStateMachine_MinorState_ScrollHandlerStateEE5dummy) #12
  %6 = icmp eq i32 %5, 0
  br i1 %6, label %11, label %7

7:                                                ; preds = %4
  %8 = tail call zeroext i1 @_ZN6google8protobuf8internal21InitializeEnumStringsEPKNS1_9EnumEntryEPKimPNS1_21ExplicitlyConstructedINSt3__112basic_stringIcNS8_11char_traitsIcEENS8_9allocatorIcEEEEEE(%"struct.google::protobuf::internal::EnumEntry"* getelementptr inbounds ([3 x %"struct.google::protobuf::internal::EnumEntry"], [3 x %"struct.google::protobuf::internal::EnumEntry"]* @_ZN8perfetto6protosL66ChromeCompositorStateMachine_MinorState_ScrollHandlerState_entriesE, i64 0, i64 0), i32* getelementptr inbounds ([3 x i32], [3 x i32]* @_ZN8perfetto6protosL76ChromeCompositorStateMachine_MinorState_ScrollHandlerState_entries_by_numberE, i64 0, i64 0), i64 3, %"class.google::protobuf::internal::ExplicitlyConstructed.14"* getelementptr inbounds ([3 x %"class.google::protobuf::internal::ExplicitlyConstructed.14"], [3 x %"class.google::protobuf::internal::ExplicitlyConstructed.14"]* @_ZN8perfetto6protosL66ChromeCompositorStateMachine_MinorState_ScrollHandlerState_stringsE, i64 0, i64 0)) #12
  %9 = zext i1 %8 to i8
  store i8 %9, i8* @_ZZN8perfetto6protos63ChromeCompositorStateMachine_MinorState_ScrollHandlerState_NameENS0_58ChromeCompositorStateMachine_MinorState_ScrollHandlerStateEE5dummy, align 1
  %10 = tail call {}* @llvm.invariant.start.p0i8(i64 1, i8* nonnull @_ZZN8perfetto6protos63ChromeCompositorStateMachine_MinorState_ScrollHandlerState_NameENS0_58ChromeCompositorStateMachine_MinorState_ScrollHandlerStateEE5dummy)
  tail call void @__cxa_guard_release(i64* nonnull @_ZGVZN8perfetto6protos63ChromeCompositorStateMachine_MinorState_ScrollHandlerState_NameENS0_58ChromeCompositorStateMachine_MinorState_ScrollHandlerStateEE5dummy) #12
  br label %11

11:                                               ; preds = %4, %7, %1
  %12 = tail call i32 @_ZN6google8protobuf8internal14LookUpEnumNameEPKNS1_9EnumEntryEPKimi(%"struct.google::protobuf::internal::EnumEntry"* getelementptr inbounds ([3 x %"struct.google::protobuf::internal::EnumEntry"], [3 x %"struct.google::protobuf::internal::EnumEntry"]* @_ZN8perfetto6protosL66ChromeCompositorStateMachine_MinorState_ScrollHandlerState_entriesE, i64 0, i64 0), i32* getelementptr inbounds ([3 x i32], [3 x i32]* @_ZN8perfetto6protosL76ChromeCompositorStateMachine_MinorState_ScrollHandlerState_entries_by_numberE, i64 0, i64 0), i64 3, i32 %0) #12
  %13 = icmp eq i32 %12, -1
  br i1 %13, label %14, label %16

14:                                               ; preds = %11
  %15 = tail call dereferenceable(24) %"class.std::__1::basic_string"* @_ZN6google8protobuf8internal14GetEmptyStringEv() #12
  br label %20

16:                                               ; preds = %11
  %17 = sext i32 %12 to i64
  %18 = getelementptr inbounds [3 x %"class.google::protobuf::internal::ExplicitlyConstructed.14"], [3 x %"class.google::protobuf::internal::ExplicitlyConstructed.14"]* @_ZN8perfetto6protosL66ChromeCompositorStateMachine_MinorState_ScrollHandlerState_stringsE, i64 0, i64 %17
  %19 = bitcast %"class.google::protobuf::internal::ExplicitlyConstructed.14"* %18 to %"class.std::__1::basic_string"*
  br label %20

20:                                               ; preds = %16, %14
  %21 = phi %"class.std::__1::basic_string"* [ %15, %14 ], [ %19, %16 ]
  ret %"class.std::__1::basic_string"* %21
}

; Function Attrs: nounwind ssp uwtable
define hidden zeroext i1 @_ZN8perfetto6protos64ChromeCompositorStateMachine_MinorState_ScrollHandlerState_ParseERKNSt3__112basic_stringIcNS1_11char_traitsIcEENS1_9allocatorIcEEEEPNS0_58ChromeCompositorStateMachine_MinorState_ScrollHandlerStateE(%"class.std::__1::basic_string"* dereferenceable(24), i32* nocapture) local_unnamed_addr #0 {
  %3 = alloca i32, align 4
  %4 = bitcast i32* %3 to i8*
  call void @llvm.lifetime.start.p0i8(i64 4, i8* nonnull %4) #12
  store i32 -1431655766, i32* %3, align 4
  %5 = bitcast %"class.std::__1::basic_string"* %0 to %"struct.std::__1::basic_string<char, std::__1::char_traits<char>, std::__1::allocator<char> >::__short"*
  %6 = getelementptr inbounds %"struct.std::__1::basic_string<char, std::__1::char_traits<char>, std::__1::allocator<char> >::__short", %"struct.std::__1::basic_string<char, std::__1::char_traits<char>, std::__1::allocator<char> >::__short"* %5, i64 0, i32 1, i32 0
  %7 = load i8, i8* %6, align 1
  %8 = icmp slt i8 %7, 0
  %9 = getelementptr inbounds %"class.std::__1::basic_string", %"class.std::__1::basic_string"* %0, i64 0, i32 0, i32 0, i32 0, i32 0, i32 0, i32 0
  %10 = load i8*, i8** %9, align 8
  %11 = bitcast %"class.std::__1::basic_string"* %0 to i8*
  %12 = select i1 %8, i8* %10, i8* %11
  br i1 %8, label %15, label %13

13:                                               ; preds = %2
  %14 = zext i8 %7 to i64
  br label %20

15:                                               ; preds = %2
  %16 = getelementptr inbounds %"class.std::__1::basic_string", %"class.std::__1::basic_string"* %0, i64 0, i32 0, i32 0, i32 0, i32 0, i32 0, i32 1
  %17 = load i64, i64* %16, align 8
  %18 = icmp slt i64 %17, 0
  br i1 %18, label %19, label %20

19:                                               ; preds = %15
  tail call void @_ZN6google8protobuf11StringPiece18LogFatalSizeTooBigEmPKc(i64 %17, i8* getelementptr inbounds ([25 x i8], [25 x i8]* @.str.49, i64 0, i64 0)) #12
  br label %20

20:                                               ; preds = %13, %15, %19
  %21 = phi i64 [ %14, %13 ], [ %17, %15 ], [ %17, %19 ]
  %22 = call zeroext i1 @_ZN6google8protobuf8internal15LookUpEnumValueEPKNS1_9EnumEntryEmNS0_11StringPieceEPi(%"struct.google::protobuf::internal::EnumEntry"* getelementptr inbounds ([3 x %"struct.google::protobuf::internal::EnumEntry"], [3 x %"struct.google::protobuf::internal::EnumEntry"]* @_ZN8perfetto6protosL66ChromeCompositorStateMachine_MinorState_ScrollHandlerState_entriesE, i64 0, i64 0), i64 3, i8* %12, i64 %21, i32* nonnull %3) #12
  br i1 %22, label %23, label %25

23:                                               ; preds = %20
  %24 = load i32, i32* %3, align 4
  store i32 %24, i32* %1, align 4
  br label %25

25:                                               ; preds = %23, %20
  call void @llvm.lifetime.end.p0i8(i64 4, i8* nonnull %4) #12
  ret i1 %22
}

; Function Attrs: norecurse nounwind readnone ssp uwtable
define hidden zeroext i1 @_ZN8perfetto6protos41BeginFrameArgs_BeginFrameArgsType_IsValidEi(i32) local_unnamed_addr #1 {
  %2 = icmp ult i32 %0, 4
  ret i1 %2
}

; Function Attrs: nounwind ssp uwtable
define hidden dereferenceable(24) %"class.std::__1::basic_string"* @_ZN8perfetto6protos38BeginFrameArgs_BeginFrameArgsType_NameENS0_33BeginFrameArgs_BeginFrameArgsTypeE(i32) local_unnamed_addr #0 {
  %2 = load atomic i8, i8* bitcast (i64* @_ZGVZN8perfetto6protos38BeginFrameArgs_BeginFrameArgsType_NameENS0_33BeginFrameArgs_BeginFrameArgsTypeEE5dummy to i8*) acquire, align 8
  %3 = icmp eq i8 %2, 0
  br i1 %3, label %4, label %11, !prof !3

4:                                                ; preds = %1
  %5 = tail call i32 @__cxa_guard_acquire(i64* nonnull @_ZGVZN8perfetto6protos38BeginFrameArgs_BeginFrameArgsType_NameENS0_33BeginFrameArgs_BeginFrameArgsTypeEE5dummy) #12
  %6 = icmp eq i32 %5, 0
  br i1 %6, label %11, label %7

7:                                                ; preds = %4
  %8 = tail call zeroext i1 @_ZN6google8protobuf8internal21InitializeEnumStringsEPKNS1_9EnumEntryEPKimPNS1_21ExplicitlyConstructedINSt3__112basic_stringIcNS8_11char_traitsIcEENS8_9allocatorIcEEEEEE(%"struct.google::protobuf::internal::EnumEntry"* getelementptr inbounds ([4 x %"struct.google::protobuf::internal::EnumEntry"], [4 x %"struct.google::protobuf::internal::EnumEntry"]* @_ZN8perfetto6protosL41BeginFrameArgs_BeginFrameArgsType_entriesE, i64 0, i64 0), i32* getelementptr inbounds ([4 x i32], [4 x i32]* @_ZN8perfetto6protosL51BeginFrameArgs_BeginFrameArgsType_entries_by_numberE, i64 0, i64 0), i64 4, %"class.google::protobuf::internal::ExplicitlyConstructed.14"* getelementptr inbounds ([4 x %"class.google::protobuf::internal::ExplicitlyConstructed.14"], [4 x %"class.google::protobuf::internal::ExplicitlyConstructed.14"]* @_ZN8perfetto6protosL41BeginFrameArgs_BeginFrameArgsType_stringsE, i64 0, i64 0)) #12
  %9 = zext i1 %8 to i8
  store i8 %9, i8* @_ZZN8perfetto6protos38BeginFrameArgs_BeginFrameArgsType_NameENS0_33BeginFrameArgs_BeginFrameArgsTypeEE5dummy, align 1
  %10 = tail call {}* @llvm.invariant.start.p0i8(i64 1, i8* nonnull @_ZZN8perfetto6protos38BeginFrameArgs_BeginFrameArgsType_NameENS0_33BeginFrameArgs_BeginFrameArgsTypeEE5dummy)
  tail call void @__cxa_guard_release(i64* nonnull @_ZGVZN8perfetto6protos38BeginFrameArgs_BeginFrameArgsType_NameENS0_33BeginFrameArgs_BeginFrameArgsTypeEE5dummy) #12
  br label %11

11:                                               ; preds = %4, %7, %1
  %12 = tail call i32 @_ZN6google8protobuf8internal14LookUpEnumNameEPKNS1_9EnumEntryEPKimi(%"struct.google::protobuf::internal::EnumEntry"* getelementptr inbounds ([4 x %"struct.google::protobuf::internal::EnumEntry"], [4 x %"struct.google::protobuf::internal::EnumEntry"]* @_ZN8perfetto6protosL41BeginFrameArgs_BeginFrameArgsType_entriesE, i64 0, i64 0), i32* getelementptr inbounds ([4 x i32], [4 x i32]* @_ZN8perfetto6protosL51BeginFrameArgs_BeginFrameArgsType_entries_by_numberE, i64 0, i64 0), i64 4, i32 %0) #12
  %13 = icmp eq i32 %12, -1
  br i1 %13, label %14, label %16

14:                                               ; preds = %11
  %15 = tail call dereferenceable(24) %"class.std::__1::basic_string"* @_ZN6google8protobuf8internal14GetEmptyStringEv() #12
  br label %20

16:                                               ; preds = %11
  %17 = sext i32 %12 to i64
  %18 = getelementptr inbounds [4 x %"class.google::protobuf::internal::ExplicitlyConstructed.14"], [4 x %"class.google::protobuf::internal::ExplicitlyConstructed.14"]* @_ZN8perfetto6protosL41BeginFrameArgs_BeginFrameArgsType_stringsE, i64 0, i64 %17
  %19 = bitcast %"class.google::protobuf::internal::ExplicitlyConstructed.14"* %18 to %"class.std::__1::basic_string"*
  br label %20

20:                                               ; preds = %16, %14
  %21 = phi %"class.std::__1::basic_string"* [ %15, %14 ], [ %19, %16 ]
  ret %"class.std::__1::basic_string"* %21
}

; Function Attrs: nounwind ssp uwtable
define hidden zeroext i1 @_ZN8perfetto6protos39BeginFrameArgs_BeginFrameArgsType_ParseERKNSt3__112basic_stringIcNS1_11char_traitsIcEENS1_9allocatorIcEEEEPNS0_33BeginFrameArgs_BeginFrameArgsTypeE(%"class.std::__1::basic_string"* dereferenceable(24), i32* nocapture) local_unnamed_addr #0 {
  %3 = alloca i32, align 4
  %4 = bitcast i32* %3 to i8*
  call void @llvm.lifetime.start.p0i8(i64 4, i8* nonnull %4) #12
  store i32 -1431655766, i32* %3, align 4
  %5 = bitcast %"class.std::__1::basic_string"* %0 to %"struct.std::__1::basic_string<char, std::__1::char_traits<char>, std::__1::allocator<char> >::__short"*
  %6 = getelementptr inbounds %"struct.std::__1::basic_string<char, std::__1::char_traits<char>, std::__1::allocator<char> >::__short", %"struct.std::__1::basic_string<char, std::__1::char_traits<char>, std::__1::allocator<char> >::__short"* %5, i64 0, i32 1, i32 0
  %7 = load i8, i8* %6, align 1
  %8 = icmp slt i8 %7, 0
  %9 = getelementptr inbounds %"class.std::__1::basic_string", %"class.std::__1::basic_string"* %0, i64 0, i32 0, i32 0, i32 0, i32 0, i32 0, i32 0
  %10 = load i8*, i8** %9, align 8
  %11 = bitcast %"class.std::__1::basic_string"* %0 to i8*
  %12 = select i1 %8, i8* %10, i8* %11
  br i1 %8, label %15, label %13

13:                                               ; preds = %2
  %14 = zext i8 %7 to i64
  br label %20

15:                                               ; preds = %2
  %16 = getelementptr inbounds %"class.std::__1::basic_string", %"class.std::__1::basic_string"* %0, i64 0, i32 0, i32 0, i32 0, i32 0, i32 0, i32 1
  %17 = load i64, i64* %16, align 8
  %18 = icmp slt i64 %17, 0
  br i1 %18, label %19, label %20

19:                                               ; preds = %15
  tail call void @_ZN6google8protobuf11StringPiece18LogFatalSizeTooBigEmPKc(i64 %17, i8* getelementptr inbounds ([25 x i8], [25 x i8]* @.str.49, i64 0, i64 0)) #12
  br label %20

20:                                               ; preds = %13, %15, %19
  %21 = phi i64 [ %14, %13 ], [ %17, %15 ], [ %17, %19 ]
  %22 = call zeroext i1 @_ZN6google8protobuf8internal15LookUpEnumValueEPKNS1_9EnumEntryEmNS0_11StringPieceEPi(%"struct.google::protobuf::internal::EnumEntry"* getelementptr inbounds ([4 x %"struct.google::protobuf::internal::EnumEntry"], [4 x %"struct.google::protobuf::internal::EnumEntry"]* @_ZN8perfetto6protosL41BeginFrameArgs_BeginFrameArgsType_entriesE, i64 0, i64 0), i64 4, i8* %12, i64 %21, i32* nonnull %3) #12
  br i1 %22, label %23, label %25

23:                                               ; preds = %20
  %24 = load i32, i32* %3, align 4
  store i32 %24, i32* %1, align 4
  br label %25

25:                                               ; preds = %23, %20
  call void @llvm.lifetime.end.p0i8(i64 4, i8* nonnull %4) #12
  ret i1 %22
}

; Function Attrs: norecurse nounwind readnone ssp uwtable
define hidden zeroext i1 @_ZN8perfetto6protos32BeginImplFrameArgs_State_IsValidEi(i32) local_unnamed_addr #1 {
  %2 = icmp ult i32 %0, 2
  ret i1 %2
}

; Function Attrs: nounwind ssp uwtable
define hidden dereferenceable(24) %"class.std::__1::basic_string"* @_ZN8perfetto6protos29BeginImplFrameArgs_State_NameENS0_24BeginImplFrameArgs_StateE(i32) local_unnamed_addr #0 {
  %2 = load atomic i8, i8* bitcast (i64* @_ZGVZN8perfetto6protos29BeginImplFrameArgs_State_NameENS0_24BeginImplFrameArgs_StateEE5dummy to i8*) acquire, align 8
  %3 = icmp eq i8 %2, 0
  br i1 %3, label %4, label %11, !prof !3

4:                                                ; preds = %1
  %5 = tail call i32 @__cxa_guard_acquire(i64* nonnull @_ZGVZN8perfetto6protos29BeginImplFrameArgs_State_NameENS0_24BeginImplFrameArgs_StateEE5dummy) #12
  %6 = icmp eq i32 %5, 0
  br i1 %6, label %11, label %7

7:                                                ; preds = %4
  %8 = tail call zeroext i1 @_ZN6google8protobuf8internal21InitializeEnumStringsEPKNS1_9EnumEntryEPKimPNS1_21ExplicitlyConstructedINSt3__112basic_stringIcNS8_11char_traitsIcEENS8_9allocatorIcEEEEEE(%"struct.google::protobuf::internal::EnumEntry"* getelementptr inbounds ([2 x %"struct.google::protobuf::internal::EnumEntry"], [2 x %"struct.google::protobuf::internal::EnumEntry"]* @_ZN8perfetto6protosL32BeginImplFrameArgs_State_entriesE, i64 0, i64 0), i32* getelementptr inbounds ([2 x i32], [2 x i32]* @_ZN8perfetto6protosL42BeginImplFrameArgs_State_entries_by_numberE, i64 0, i64 0), i64 2, %"class.google::protobuf::internal::ExplicitlyConstructed.14"* getelementptr inbounds ([2 x %"class.google::protobuf::internal::ExplicitlyConstructed.14"], [2 x %"class.google::protobuf::internal::ExplicitlyConstructed.14"]* @_ZN8perfetto6protosL32BeginImplFrameArgs_State_stringsE, i64 0, i64 0)) #12
  %9 = zext i1 %8 to i8
  store i8 %9, i8* @_ZZN8perfetto6protos29BeginImplFrameArgs_State_NameENS0_24BeginImplFrameArgs_StateEE5dummy, align 1
  %10 = tail call {}* @llvm.invariant.start.p0i8(i64 1, i8* nonnull @_ZZN8perfetto6protos29BeginImplFrameArgs_State_NameENS0_24BeginImplFrameArgs_StateEE5dummy)
  tail call void @__cxa_guard_release(i64* nonnull @_ZGVZN8perfetto6protos29BeginImplFrameArgs_State_NameENS0_24BeginImplFrameArgs_StateEE5dummy) #12
  br label %11

11:                                               ; preds = %4, %7, %1
  %12 = tail call i32 @_ZN6google8protobuf8internal14LookUpEnumNameEPKNS1_9EnumEntryEPKimi(%"struct.google::protobuf::internal::EnumEntry"* getelementptr inbounds ([2 x %"struct.google::protobuf::internal::EnumEntry"], [2 x %"struct.google::protobuf::internal::EnumEntry"]* @_ZN8perfetto6protosL32BeginImplFrameArgs_State_entriesE, i64 0, i64 0), i32* getelementptr inbounds ([2 x i32], [2 x i32]* @_ZN8perfetto6protosL42BeginImplFrameArgs_State_entries_by_numberE, i64 0, i64 0), i64 2, i32 %0) #12
  %13 = icmp eq i32 %12, -1
  br i1 %13, label %14, label %16

14:                                               ; preds = %11
  %15 = tail call dereferenceable(24) %"class.std::__1::basic_string"* @_ZN6google8protobuf8internal14GetEmptyStringEv() #12
  br label %20

16:                                               ; preds = %11
  %17 = sext i32 %12 to i64
  %18 = getelementptr inbounds [2 x %"class.google::protobuf::internal::ExplicitlyConstructed.14"], [2 x %"class.google::protobuf::internal::ExplicitlyConstructed.14"]* @_ZN8perfetto6protosL32BeginImplFrameArgs_State_stringsE, i64 0, i64 %17
  %19 = bitcast %"class.google::protobuf::internal::ExplicitlyConstructed.14"* %18 to %"class.std::__1::basic_string"*
  br label %20

20:                                               ; preds = %16, %14
  %21 = phi %"class.std::__1::basic_string"* [ %15, %14 ], [ %19, %16 ]
  ret %"class.std::__1::basic_string"* %21
}

; Function Attrs: nounwind ssp uwtable
define hidden zeroext i1 @_ZN8perfetto6protos30BeginImplFrameArgs_State_ParseERKNSt3__112basic_stringIcNS1_11char_traitsIcEENS1_9allocatorIcEEEEPNS0_24BeginImplFrameArgs_StateE(%"class.std::__1::basic_string"* dereferenceable(24), i32* nocapture) local_unnamed_addr #0 {
  %3 = alloca i32, align 4
  %4 = bitcast i32* %3 to i8*
  call void @llvm.lifetime.start.p0i8(i64 4, i8* nonnull %4) #12
  store i32 -1431655766, i32* %3, align 4
  %5 = bitcast %"class.std::__1::basic_string"* %0 to %"struct.std::__1::basic_string<char, std::__1::char_traits<char>, std::__1::allocator<char> >::__short"*
  %6 = getelementptr inbounds %"struct.std::__1::basic_string<char, std::__1::char_traits<char>, std::__1::allocator<char> >::__short", %"struct.std::__1::basic_string<char, std::__1::char_traits<char>, std::__1::allocator<char> >::__short"* %5, i64 0, i32 1, i32 0
  %7 = load i8, i8* %6, align 1
  %8 = icmp slt i8 %7, 0
  %9 = getelementptr inbounds %"class.std::__1::basic_string", %"class.std::__1::basic_string"* %0, i64 0, i32 0, i32 0, i32 0, i32 0, i32 0, i32 0
  %10 = load i8*, i8** %9, align 8
  %11 = bitcast %"class.std::__1::basic_string"* %0 to i8*
  %12 = select i1 %8, i8* %10, i8* %11
  br i1 %8, label %15, label %13

13:                                               ; preds = %2
  %14 = zext i8 %7 to i64
  br label %20

15:                                               ; preds = %2
  %16 = getelementptr inbounds %"class.std::__1::basic_string", %"class.std::__1::basic_string"* %0, i64 0, i32 0, i32 0, i32 0, i32 0, i32 0, i32 1
  %17 = load i64, i64* %16, align 8
  %18 = icmp slt i64 %17, 0
  br i1 %18, label %19, label %20

19:                                               ; preds = %15
  tail call void @_ZN6google8protobuf11StringPiece18LogFatalSizeTooBigEmPKc(i64 %17, i8* getelementptr inbounds ([25 x i8], [25 x i8]* @.str.49, i64 0, i64 0)) #12
  br label %20

20:                                               ; preds = %13, %15, %19
  %21 = phi i64 [ %14, %13 ], [ %17, %15 ], [ %17, %19 ]
  %22 = call zeroext i1 @_ZN6google8protobuf8internal15LookUpEnumValueEPKNS1_9EnumEntryEmNS0_11StringPieceEPi(%"struct.google::protobuf::internal::EnumEntry"* getelementptr inbounds ([2 x %"struct.google::protobuf::internal::EnumEntry"], [2 x %"struct.google::protobuf::internal::EnumEntry"]* @_ZN8perfetto6protosL32BeginImplFrameArgs_State_entriesE, i64 0, i64 0), i64 2, i8* %12, i64 %21, i32* nonnull %3) #12
  br i1 %22, label %23, label %25

23:                                               ; preds = %20
  %24 = load i32, i32* %3, align 4
  store i32 %24, i32* %1, align 4
  br label %25

25:                                               ; preds = %23, %20
  call void @llvm.lifetime.end.p0i8(i64 4, i8* nonnull %4) #12
  ret i1 %22
}

; Function Attrs: norecurse nounwind readnone ssp uwtable
define hidden zeroext i1 @_ZN8perfetto6protos39ChromeCompositorSchedulerAction_IsValidEi(i32) local_unnamed_addr #1 {
  %2 = icmp ult i32 %0, 14
  ret i1 %2
}

; Function Attrs: nounwind ssp uwtable
define hidden dereferenceable(24) %"class.std::__1::basic_string"* @_ZN8perfetto6protos36ChromeCompositorSchedulerAction_NameENS0_31ChromeCompositorSchedulerActionE(i32) local_unnamed_addr #0 {
  %2 = load atomic i8, i8* bitcast (i64* @_ZGVZN8perfetto6protos36ChromeCompositorSchedulerAction_NameENS0_31ChromeCompositorSchedulerActionEE5dummy to i8*) acquire, align 8
  %3 = icmp eq i8 %2, 0
  br i1 %3, label %4, label %11, !prof !3

4:                                                ; preds = %1
  %5 = tail call i32 @__cxa_guard_acquire(i64* nonnull @_ZGVZN8perfetto6protos36ChromeCompositorSchedulerAction_NameENS0_31ChromeCompositorSchedulerActionEE5dummy) #12
  %6 = icmp eq i32 %5, 0
  br i1 %6, label %11, label %7

7:                                                ; preds = %4
  %8 = tail call zeroext i1 @_ZN6google8protobuf8internal21InitializeEnumStringsEPKNS1_9EnumEntryEPKimPNS1_21ExplicitlyConstructedINSt3__112basic_stringIcNS8_11char_traitsIcEENS8_9allocatorIcEEEEEE(%"struct.google::protobuf::internal::EnumEntry"* getelementptr inbounds ([14 x %"struct.google::protobuf::internal::EnumEntry"], [14 x %"struct.google::protobuf::internal::EnumEntry"]* @_ZN8perfetto6protosL39ChromeCompositorSchedulerAction_entriesE, i64 0, i64 0), i32* getelementptr inbounds ([14 x i32], [14 x i32]* @_ZN8perfetto6protosL49ChromeCompositorSchedulerAction_entries_by_numberE, i64 0, i64 0), i64 14, %"class.google::protobuf::internal::ExplicitlyConstructed.14"* getelementptr inbounds ([14 x %"class.google::protobuf::internal::ExplicitlyConstructed.14"], [14 x %"class.google::protobuf::internal::ExplicitlyConstructed.14"]* @_ZN8perfetto6protosL39ChromeCompositorSchedulerAction_stringsE, i64 0, i64 0)) #12
  %9 = zext i1 %8 to i8
  store i8 %9, i8* @_ZZN8perfetto6protos36ChromeCompositorSchedulerAction_NameENS0_31ChromeCompositorSchedulerActionEE5dummy, align 1
  %10 = tail call {}* @llvm.invariant.start.p0i8(i64 1, i8* nonnull @_ZZN8perfetto6protos36ChromeCompositorSchedulerAction_NameENS0_31ChromeCompositorSchedulerActionEE5dummy)
  tail call void @__cxa_guard_release(i64* nonnull @_ZGVZN8perfetto6protos36ChromeCompositorSchedulerAction_NameENS0_31ChromeCompositorSchedulerActionEE5dummy) #12
  br label %11

11:                                               ; preds = %4, %7, %1
  %12 = tail call i32 @_ZN6google8protobuf8internal14LookUpEnumNameEPKNS1_9EnumEntryEPKimi(%"struct.google::protobuf::internal::EnumEntry"* getelementptr inbounds ([14 x %"struct.google::protobuf::internal::EnumEntry"], [14 x %"struct.google::protobuf::internal::EnumEntry"]* @_ZN8perfetto6protosL39ChromeCompositorSchedulerAction_entriesE, i64 0, i64 0), i32* getelementptr inbounds ([14 x i32], [14 x i32]* @_ZN8perfetto6protosL49ChromeCompositorSchedulerAction_entries_by_numberE, i64 0, i64 0), i64 14, i32 %0) #12
  %13 = icmp eq i32 %12, -1
  br i1 %13, label %14, label %16

14:                                               ; preds = %11
  %15 = tail call dereferenceable(24) %"class.std::__1::basic_string"* @_ZN6google8protobuf8internal14GetEmptyStringEv() #12
  br label %20

16:                                               ; preds = %11
  %17 = sext i32 %12 to i64
  %18 = getelementptr inbounds [14 x %"class.google::protobuf::internal::ExplicitlyConstructed.14"], [14 x %"class.google::protobuf::internal::ExplicitlyConstructed.14"]* @_ZN8perfetto6protosL39ChromeCompositorSchedulerAction_stringsE, i64 0, i64 %17
  %19 = bitcast %"class.google::protobuf::internal::ExplicitlyConstructed.14"* %18 to %"class.std::__1::basic_string"*
  br label %20

20:                                               ; preds = %16, %14
  %21 = phi %"class.std::__1::basic_string"* [ %15, %14 ], [ %19, %16 ]
  ret %"class.std::__1::basic_string"* %21
}

; Function Attrs: nounwind ssp uwtable
define hidden zeroext i1 @_ZN8perfetto6protos37ChromeCompositorSchedulerAction_ParseERKNSt3__112basic_stringIcNS1_11char_traitsIcEENS1_9allocatorIcEEEEPNS0_31ChromeCompositorSchedulerActionE(%"class.std::__1::basic_string"* dereferenceable(24), i32* nocapture) local_unnamed_addr #0 {
  %3 = alloca i32, align 4
  %4 = bitcast i32* %3 to i8*
  call void @llvm.lifetime.start.p0i8(i64 4, i8* nonnull %4) #12
  store i32 -1431655766, i32* %3, align 4
  %5 = bitcast %"class.std::__1::basic_string"* %0 to %"struct.std::__1::basic_string<char, std::__1::char_traits<char>, std::__1::allocator<char> >::__short"*
  %6 = getelementptr inbounds %"struct.std::__1::basic_string<char, std::__1::char_traits<char>, std::__1::allocator<char> >::__short", %"struct.std::__1::basic_string<char, std::__1::char_traits<char>, std::__1::allocator<char> >::__short"* %5, i64 0, i32 1, i32 0
  %7 = load i8, i8* %6, align 1
  %8 = icmp slt i8 %7, 0
  %9 = getelementptr inbounds %"class.std::__1::basic_string", %"class.std::__1::basic_string"* %0, i64 0, i32 0, i32 0, i32 0, i32 0, i32 0, i32 0
  %10 = load i8*, i8** %9, align 8
  %11 = bitcast %"class.std::__1::basic_string"* %0 to i8*
  %12 = select i1 %8, i8* %10, i8* %11
  br i1 %8, label %15, label %13

13:                                               ; preds = %2
  %14 = zext i8 %7 to i64
  br label %20

15:                                               ; preds = %2
  %16 = getelementptr inbounds %"class.std::__1::basic_string", %"class.std::__1::basic_string"* %0, i64 0, i32 0, i32 0, i32 0, i32 0, i32 0, i32 1
  %17 = load i64, i64* %16, align 8
  %18 = icmp slt i64 %17, 0
  br i1 %18, label %19, label %20

19:                                               ; preds = %15
  tail call void @_ZN6google8protobuf11StringPiece18LogFatalSizeTooBigEmPKc(i64 %17, i8* getelementptr inbounds ([25 x i8], [25 x i8]* @.str.49, i64 0, i64 0)) #12
  br label %20

20:                                               ; preds = %13, %15, %19
  %21 = phi i64 [ %14, %13 ], [ %17, %15 ], [ %17, %19 ]
  %22 = call zeroext i1 @_ZN6google8protobuf8internal15LookUpEnumValueEPKNS1_9EnumEntryEmNS0_11StringPieceEPi(%"struct.google::protobuf::internal::EnumEntry"* getelementptr inbounds ([14 x %"struct.google::protobuf::internal::EnumEntry"], [14 x %"struct.google::protobuf::internal::EnumEntry"]* @_ZN8perfetto6protosL39ChromeCompositorSchedulerAction_entriesE, i64 0, i64 0), i64 14, i8* %12, i64 %21, i32* nonnull %3) #12
  br i1 %22, label %23, label %25

23:                                               ; preds = %20
  %24 = load i32, i32* %3, align 4
  store i32 %24, i32* %1, align 4
  br label %25

25:                                               ; preds = %23, %20
  call void @llvm.lifetime.end.p0i8(i64 4, i8* nonnull %4) #12
  ret i1 %22
}

; Function Attrs: norecurse nounwind readonly ssp uwtable
define hidden dereferenceable(40) %"class.perfetto::protos::ChromeCompositorStateMachine"* @_ZN8perfetto6protos30ChromeCompositorSchedulerState9_Internal13state_machineEPKS1_(%"class.perfetto::protos::ChromeCompositorSchedulerState"* nocapture readonly) local_unnamed_addr #5 align 2 {
  %2 = getelementptr inbounds %"class.perfetto::protos::ChromeCompositorSchedulerState", %"class.perfetto::protos::ChromeCompositorSchedulerState"* %0, i64 0, i32 3
  %3 = load %"class.perfetto::protos::ChromeCompositorStateMachine"*, %"class.perfetto::protos::ChromeCompositorStateMachine"** %2, align 8
  ret %"class.perfetto::protos::ChromeCompositorStateMachine"* %3
}

; Function Attrs: norecurse nounwind readonly ssp uwtable
define hidden dereferenceable(72) %"class.perfetto::protos::BeginImplFrameArgs"* @_ZN8perfetto6protos30ChromeCompositorSchedulerState9_Internal21begin_impl_frame_argsEPKS1_(%"class.perfetto::protos::ChromeCompositorSchedulerState"* nocapture readonly) local_unnamed_addr #5 align 2 {
  %2 = getelementptr inbounds %"class.perfetto::protos::ChromeCompositorSchedulerState", %"class.perfetto::protos::ChromeCompositorSchedulerState"* %0, i64 0, i32 4
  %3 = load %"class.perfetto::protos::BeginImplFrameArgs"*, %"class.perfetto::protos::BeginImplFrameArgs"** %2, align 8
  ret %"class.perfetto::protos::BeginImplFrameArgs"* %3
}

; Function Attrs: norecurse nounwind readonly ssp uwtable
define hidden dereferenceable(40) %"class.perfetto::protos::BeginFrameObserverState"* @_ZN8perfetto6protos30ChromeCompositorSchedulerState9_Internal26begin_frame_observer_stateEPKS1_(%"class.perfetto::protos::ChromeCompositorSchedulerState"* nocapture readonly) local_unnamed_addr #5 align 2 {
  %2 = getelementptr inbounds %"class.perfetto::protos::ChromeCompositorSchedulerState", %"class.perfetto::protos::ChromeCompositorSchedulerState"* %0, i64 0, i32 5
  %3 = load %"class.perfetto::protos::BeginFrameObserverState"*, %"class.perfetto::protos::BeginFrameObserverState"** %2, align 8
  ret %"class.perfetto::protos::BeginFrameObserverState"* %3
}

; Function Attrs: norecurse nounwind readonly ssp uwtable
define hidden dereferenceable(48) %"class.perfetto::protos::BeginFrameSourceState"* @_ZN8perfetto6protos30ChromeCompositorSchedulerState9_Internal24begin_frame_source_stateEPKS1_(%"class.perfetto::protos::ChromeCompositorSchedulerState"* nocapture readonly) local_unnamed_addr #5 align 2 {
  %2 = getelementptr inbounds %"class.perfetto::protos::ChromeCompositorSchedulerState", %"class.perfetto::protos::ChromeCompositorSchedulerState"* %0, i64 0, i32 6
  %3 = load %"class.perfetto::protos::BeginFrameSourceState"*, %"class.perfetto::protos::BeginFrameSourceState"** %2, align 8
  ret %"class.perfetto::protos::BeginFrameSourceState"* %3
}

; Function Attrs: norecurse nounwind readonly ssp uwtable
define hidden dereferenceable(80) %"class.perfetto::protos::CompositorTimingHistory"* @_ZN8perfetto6protos30ChromeCompositorSchedulerState9_Internal25compositor_timing_historyEPKS1_(%"class.perfetto::protos::ChromeCompositorSchedulerState"* nocapture readonly) local_unnamed_addr #5 align 2 {
  %2 = getelementptr inbounds %"class.perfetto::protos::ChromeCompositorSchedulerState", %"class.perfetto::protos::ChromeCompositorSchedulerState"* %0, i64 0, i32 7
  %3 = load %"class.perfetto::protos::CompositorTimingHistory"*, %"class.perfetto::protos::CompositorTimingHistory"** %2, align 8
  ret %"class.perfetto::protos::CompositorTimingHistory"* %3
}

; Function Attrs: nounwind ssp uwtable
define hidden void @_ZN8perfetto6protos30ChromeCompositorSchedulerStateC2EPN6google8protobuf5ArenaE(%"class.perfetto::protos::ChromeCompositorSchedulerState"* nocapture, %"class.google::protobuf::Arena"*) unnamed_addr #0 align 2 {
  %3 = getelementptr inbounds %"class.perfetto::protos::ChromeCompositorSchedulerState", %"class.perfetto::protos::ChromeCompositorSchedulerState"* %0, i64 0, i32 0, i32 0
  %4 = getelementptr inbounds %"class.perfetto::protos::ChromeCompositorSchedulerState", %"class.perfetto::protos::ChromeCompositorSchedulerState"* %0, i64 0, i32 0, i32 1
  %5 = bitcast %"class.google::protobuf::internal::InternalMetadata"* %4 to %"class.google::protobuf::Arena"**
  store %"class.google::protobuf::Arena"* %1, %"class.google::protobuf::Arena"** %5, align 8
  store i32 (...)** bitcast (i8** getelementptr inbounds ({ [16 x i8*] }, { [16 x i8*] }* @_ZTVN8perfetto6protos30ChromeCompositorSchedulerStateE, i64 0, inrange i32 0, i64 2) to i32 (...)**), i32 (...)*** %3, align 8
  %6 = getelementptr inbounds %"class.perfetto::protos::ChromeCompositorSchedulerState", %"class.perfetto::protos::ChromeCompositorSchedulerState"* %0, i64 0, i32 1, i32 0, i64 0
  store i32 0, i32* %6, align 4
  %7 = getelementptr inbounds %"class.perfetto::protos::ChromeCompositorSchedulerState", %"class.perfetto::protos::ChromeCompositorSchedulerState"* %0, i64 0, i32 2, i32 0, i32 0, i32 0, i32 0, i32 0, i32 0
  store i32 0, i32* %7, align 4
  %8 = load atomic i32, i32* getelementptr inbounds ({ { { { i32 } }, i32, i32, void ()* }, [5 x i8*] }, { { { { i32 } }, i32, i32, void ()* }, [5 x i8*] }* @scc_info_ChromeCompositorSchedulerState_protos_2fperfetto_2ftrace_2ftrack_5fevent_2fchrome_5fcompositor_5fscheduler_5fstate_2eproto, i64 0, i32 0, i32 0, i32 0, i32 0) acquire, align 8
  %9 = icmp eq i32 %8, 0
  br i1 %9, label %11, label %10, !prof !2

10:                                               ; preds = %2
  tail call void @_ZN6google8protobuf8internal11InitSCCImplEPNS1_11SCCInfoBaseE(%"struct.google::protobuf::internal::SCCInfoBase"* bitcast ({ { { { i32 } }, i32, i32, void ()* }, [5 x i8*] }* @scc_info_ChromeCompositorSchedulerState_protos_2fperfetto_2ftrace_2ftrack_5fevent_2fchrome_5fcompositor_5fscheduler_5fstate_2eproto to %"struct.google::protobuf::internal::SCCInfoBase"*)) #12
  br label %11

11:                                               ; preds = %2, %10
  %12 = getelementptr inbounds %"class.perfetto::protos::ChromeCompositorSchedulerState", %"class.perfetto::protos::ChromeCompositorSchedulerState"* %0, i64 0, i32 3
  %13 = bitcast %"class.perfetto::protos::ChromeCompositorStateMachine"** %12 to i8*
  tail call void @llvm.memset.p0i8.i64(i8* align 1 %13, i8 0, i64 96, i1 false) #12
  ret void
}

; Function Attrs: nounwind ssp uwtable
define hidden void @_ZN8perfetto6protos30ChromeCompositorSchedulerStateC2ERKS1_(%"class.perfetto::protos::ChromeCompositorSchedulerState"*, %"class.perfetto::protos::ChromeCompositorSchedulerState"* nocapture readonly dereferenceable(120)) unnamed_addr #0 align 2 {
  %3 = getelementptr inbounds %"class.perfetto::protos::ChromeCompositorSchedulerState", %"class.perfetto::protos::ChromeCompositorSchedulerState"* %0, i64 0, i32 0, i32 0
  %4 = getelementptr inbounds %"class.perfetto::protos::ChromeCompositorSchedulerState", %"class.perfetto::protos::ChromeCompositorSchedulerState"* %0, i64 0, i32 0, i32 1, i32 0
  store i8* null, i8** %4, align 8
  store i32 (...)** bitcast (i8** getelementptr inbounds ({ [16 x i8*] }, { [16 x i8*] }* @_ZTVN8perfetto6protos30ChromeCompositorSchedulerStateE, i64 0, inrange i32 0, i64 2) to i32 (...)**), i32 (...)*** %3, align 8
  %5 = getelementptr inbounds %"class.perfetto::protos::ChromeCompositorSchedulerState", %"class.perfetto::protos::ChromeCompositorSchedulerState"* %1, i64 0, i32 1, i32 0, i64 0
  %6 = getelementptr inbounds %"class.perfetto::protos::ChromeCompositorSchedulerState", %"class.perfetto::protos::ChromeCompositorSchedulerState"* %0, i64 0, i32 1, i32 0, i64 0
  %7 = load i32, i32* %5, align 8
  store i32 %7, i32* %6, align 8
  %8 = getelementptr inbounds %"class.perfetto::protos::ChromeCompositorSchedulerState", %"class.perfetto::protos::ChromeCompositorSchedulerState"* %0, i64 0, i32 2, i32 0, i32 0, i32 0, i32 0, i32 0, i32 0
  store i32 0, i32* %8, align 4
  %9 = getelementptr inbounds %"class.perfetto::protos::ChromeCompositorSchedulerState", %"class.perfetto::protos::ChromeCompositorSchedulerState"* %1, i64 0, i32 0, i32 1
  %10 = bitcast %"class.google::protobuf::internal::InternalMetadata"* %9 to i64*
  %11 = load i64, i64* %10, align 8
  %12 = and i64 %11, 1
  %13 = icmp eq i64 %12, 0
  br i1 %13, label %33, label %14

14:                                               ; preds = %2
  %15 = getelementptr inbounds %"class.perfetto::protos::ChromeCompositorSchedulerState", %"class.perfetto::protos::ChromeCompositorSchedulerState"* %0, i64 0, i32 0, i32 1
  %16 = and i64 %11, -2
  %17 = inttoptr i64 %16 to %"struct.google::protobuf::internal::InternalMetadata::Container"*
  %18 = getelementptr inbounds %"struct.google::protobuf::internal::InternalMetadata::Container", %"struct.google::protobuf::internal::InternalMetadata::Container"* %17, i64 0, i32 1
  %19 = tail call %"class.std::__1::basic_string"* @_ZN6google8protobuf8internal16InternalMetadata27mutable_unknown_fields_slowINSt3__112basic_stringIcNS4_11char_traitsIcEENS4_9allocatorIcEEEEEEPT_v(%"class.google::protobuf::internal::InternalMetadata"* %15) #12
  %20 = bitcast %"class.std::__1::basic_string"* %18 to %"struct.std::__1::basic_string<char, std::__1::char_traits<char>, std::__1::allocator<char> >::__short"*
  %21 = getelementptr inbounds %"struct.std::__1::basic_string<char, std::__1::char_traits<char>, std::__1::allocator<char> >::__short", %"struct.std::__1::basic_string<char, std::__1::char_traits<char>, std::__1::allocator<char> >::__short"* %20, i64 0, i32 1, i32 0
  %22 = load i8, i8* %21, align 1
  %23 = icmp slt i8 %22, 0
  %24 = getelementptr inbounds %"class.std::__1::basic_string", %"class.std::__1::basic_string"* %18, i64 0, i32 0, i32 0, i32 0, i32 0, i32 0, i32 0
  %25 = load i8*, i8** %24, align 8
  %26 = getelementptr inbounds %"struct.google::protobuf::internal::InternalMetadata::Container", %"struct.google::protobuf::internal::InternalMetadata::Container"* %17, i64 0, i32 1, i32 0, i32 0, i32 0, i32 0, i32 0, i32 1
  %27 = load i64, i64* %26, align 8
  %28 = bitcast %"class.std::__1::basic_string"* %18 to i8*
  %29 = zext i8 %22 to i64
  %30 = select i1 %23, i8* %25, i8* %28
  %31 = select i1 %23, i64 %27, i64 %29
  %32 = tail call dereferenceable(24) %"class.std::__1::basic_string"* @_ZNSt3__112basic_stringIcNS_11char_traitsIcEENS_9allocatorIcEEE6appendEPKcm(%"class.std::__1::basic_string"* %19, i8* %30, i64 %31) #12
  br label %33

33:                                               ; preds = %2, %14
  %34 = load i32, i32* %5, align 4
  %35 = and i32 %34, 1
  %36 = icmp eq i32 %35, 0
  br i1 %36, label %44, label %37

37:                                               ; preds = %33
  %38 = getelementptr inbounds %"class.perfetto::protos::ChromeCompositorSchedulerState", %"class.perfetto::protos::ChromeCompositorSchedulerState"* %1, i64 0, i32 3
  %39 = load %"class.perfetto::protos::ChromeCompositorStateMachine"*, %"class.perfetto::protos::ChromeCompositorStateMachine"** %38, align 8, !nonnull !4
  %40 = tail call i8* @_Znwm(i64 40) #13
  %41 = bitcast i8* %40 to %"class.perfetto::protos::ChromeCompositorStateMachine"*
  tail call void @_ZN8perfetto6protos28ChromeCompositorStateMachineC2ERKS1_(%"class.perfetto::protos::ChromeCompositorStateMachine"* nonnull %41, %"class.perfetto::protos::ChromeCompositorStateMachine"* nonnull dereferenceable(40) %39)
  %42 = getelementptr inbounds %"class.perfetto::protos::ChromeCompositorSchedulerState", %"class.perfetto::protos::ChromeCompositorSchedulerState"* %0, i64 0, i32 3
  %43 = bitcast %"class.perfetto::protos::ChromeCompositorStateMachine"** %42 to i8**
  store i8* %40, i8** %43, align 8
  br label %46

44:                                               ; preds = %33
  %45 = getelementptr inbounds %"class.perfetto::protos::ChromeCompositorSchedulerState", %"class.perfetto::protos::ChromeCompositorSchedulerState"* %0, i64 0, i32 3
  store %"class.perfetto::protos::ChromeCompositorStateMachine"* null, %"class.perfetto::protos::ChromeCompositorStateMachine"** %45, align 8
  br label %46

46:                                               ; preds = %44, %37
  %47 = load i32, i32* %5, align 4
  %48 = and i32 %47, 2
  %49 = icmp eq i32 %48, 0
  br i1 %49, label %57, label %50

50:                                               ; preds = %46
  %51 = getelementptr inbounds %"class.perfetto::protos::ChromeCompositorSchedulerState", %"class.perfetto::protos::ChromeCompositorSchedulerState"* %1, i64 0, i32 4
  %52 = load %"class.perfetto::protos::BeginImplFrameArgs"*, %"class.perfetto::protos::BeginImplFrameArgs"** %51, align 8, !nonnull !4
  %53 = tail call i8* @_Znwm(i64 72) #13
  %54 = bitcast i8* %53 to %"class.perfetto::protos::BeginImplFrameArgs"*
  tail call void @_ZN8perfetto6protos18BeginImplFrameArgsC2ERKS1_(%"class.perfetto::protos::BeginImplFrameArgs"* nonnull %54, %"class.perfetto::protos::BeginImplFrameArgs"* nonnull dereferenceable(72) %52)
  %55 = getelementptr inbounds %"class.perfetto::protos::ChromeCompositorSchedulerState", %"class.perfetto::protos::ChromeCompositorSchedulerState"* %0, i64 0, i32 4
  %56 = bitcast %"class.perfetto::protos::BeginImplFrameArgs"** %55 to i8**
  store i8* %53, i8** %56, align 8
  br label %59

57:                                               ; preds = %46
  %58 = getelementptr inbounds %"class.perfetto::protos::ChromeCompositorSchedulerState", %"class.perfetto::protos::ChromeCompositorSchedulerState"* %0, i64 0, i32 4
  store %"class.perfetto::protos::BeginImplFrameArgs"* null, %"class.perfetto::protos::BeginImplFrameArgs"** %58, align 8
  br label %59

59:                                               ; preds = %57, %50
  %60 = load i32, i32* %5, align 4
  %61 = and i32 %60, 4
  %62 = icmp eq i32 %61, 0
  br i1 %62, label %70, label %63

63:                                               ; preds = %59
  %64 = getelementptr inbounds %"class.perfetto::protos::ChromeCompositorSchedulerState", %"class.perfetto::protos::ChromeCompositorSchedulerState"* %1, i64 0, i32 5
  %65 = load %"class.perfetto::protos::BeginFrameObserverState"*, %"class.perfetto::protos::BeginFrameObserverState"** %64, align 8, !nonnull !4
  %66 = tail call i8* @_Znwm(i64 40) #13
  %67 = bitcast i8* %66 to %"class.perfetto::protos::BeginFrameObserverState"*
  tail call void @_ZN8perfetto6protos23BeginFrameObserverStateC2ERKS1_(%"class.perfetto::protos::BeginFrameObserverState"* nonnull %67, %"class.perfetto::protos::BeginFrameObserverState"* nonnull dereferenceable(40) %65)
  %68 = getelementptr inbounds %"class.perfetto::protos::ChromeCompositorSchedulerState", %"class.perfetto::protos::ChromeCompositorSchedulerState"* %0, i64 0, i32 5
  %69 = bitcast %"class.perfetto::protos::BeginFrameObserverState"** %68 to i8**
  store i8* %66, i8** %69, align 8
  br label %72

70:                                               ; preds = %59
  %71 = getelementptr inbounds %"class.perfetto::protos::ChromeCompositorSchedulerState", %"class.perfetto::protos::ChromeCompositorSchedulerState"* %0, i64 0, i32 5
  store %"class.perfetto::protos::BeginFrameObserverState"* null, %"class.perfetto::protos::BeginFrameObserverState"** %71, align 8
  br label %72

72:                                               ; preds = %70, %63
  %73 = load i32, i32* %5, align 4
  %74 = and i32 %73, 8
  %75 = icmp eq i32 %74, 0
  br i1 %75, label %83, label %76

76:                                               ; preds = %72
  %77 = getelementptr inbounds %"class.perfetto::protos::ChromeCompositorSchedulerState", %"class.perfetto::protos::ChromeCompositorSchedulerState"* %1, i64 0, i32 6
  %78 = load %"class.perfetto::protos::BeginFrameSourceState"*, %"class.perfetto::protos::BeginFrameSourceState"** %77, align 8, !nonnull !4
  %79 = tail call i8* @_Znwm(i64 48) #13
  %80 = bitcast i8* %79 to %"class.perfetto::protos::BeginFrameSourceState"*
  tail call void @_ZN8perfetto6protos21BeginFrameSourceStateC2ERKS1_(%"class.perfetto::protos::BeginFrameSourceState"* nonnull %80, %"class.perfetto::protos::BeginFrameSourceState"* nonnull dereferenceable(48) %78)
  %81 = getelementptr inbounds %"class.perfetto::protos::ChromeCompositorSchedulerState", %"class.perfetto::protos::ChromeCompositorSchedulerState"* %0, i64 0, i32 6
  %82 = bitcast %"class.perfetto::protos::BeginFrameSourceState"** %81 to i8**
  store i8* %79, i8** %82, align 8
  br label %85

83:                                               ; preds = %72
  %84 = getelementptr inbounds %"class.perfetto::protos::ChromeCompositorSchedulerState", %"class.perfetto::protos::ChromeCompositorSchedulerState"* %0, i64 0, i32 6
  store %"class.perfetto::protos::BeginFrameSourceState"* null, %"class.perfetto::protos::BeginFrameSourceState"** %84, align 8
  br label %85

85:                                               ; preds = %83, %76
  %86 = load i32, i32* %5, align 4
  %87 = and i32 %86, 16
  %88 = icmp eq i32 %87, 0
  br i1 %88, label %132, label %89

89:                                               ; preds = %85
  %90 = getelementptr inbounds %"class.perfetto::protos::ChromeCompositorSchedulerState", %"class.perfetto::protos::ChromeCompositorSchedulerState"* %1, i64 0, i32 7
  %91 = load %"class.perfetto::protos::CompositorTimingHistory"*, %"class.perfetto::protos::CompositorTimingHistory"** %90, align 8, !nonnull !4
  %92 = tail call i8* @_Znwm(i64 80) #13
  %93 = bitcast i8* %92 to i32 (...)***
  %94 = getelementptr inbounds i8, i8* %92, i64 8
  %95 = bitcast i8* %94 to i8**
  store i8* null, i8** %95, align 8
  store i32 (...)** bitcast (i8** getelementptr inbounds ({ [16 x i8*] }, { [16 x i8*] }* @_ZTVN8perfetto6protos23CompositorTimingHistoryE, i64 0, inrange i32 0, i64 2) to i32 (...)**), i32 (...)*** %93, align 8
  %96 = getelementptr inbounds %"class.perfetto::protos::CompositorTimingHistory", %"class.perfetto::protos::CompositorTimingHistory"* %91, i64 0, i32 1, i32 0, i64 0
  %97 = getelementptr inbounds i8, i8* %92, i64 16
  %98 = bitcast i8* %97 to i32*
  %99 = load i32, i32* %96, align 8
  store i32 %99, i32* %98, align 8
  %100 = getelementptr inbounds i8, i8* %92, i64 20
  %101 = bitcast i8* %100 to i32*
  store i32 0, i32* %101, align 4
  %102 = getelementptr inbounds %"class.perfetto::protos::CompositorTimingHistory", %"class.perfetto::protos::CompositorTimingHistory"* %91, i64 0, i32 0, i32 1
  %103 = bitcast %"class.google::protobuf::internal::InternalMetadata"* %102 to i64*
  %104 = load i64, i64* %103, align 8
  %105 = and i64 %104, 1
  %106 = icmp eq i64 %105, 0
  br i1 %106, label %126, label %107

107:                                              ; preds = %89
  %108 = bitcast i8* %94 to %"class.google::protobuf::internal::InternalMetadata"*
  %109 = and i64 %104, -2
  %110 = inttoptr i64 %109 to %"struct.google::protobuf::internal::InternalMetadata::Container"*
  %111 = getelementptr inbounds %"struct.google::protobuf::internal::InternalMetadata::Container", %"struct.google::protobuf::internal::InternalMetadata::Container"* %110, i64 0, i32 1
  %112 = tail call %"class.std::__1::basic_string"* @_ZN6google8protobuf8internal16InternalMetadata27mutable_unknown_fields_slowINSt3__112basic_stringIcNS4_11char_traitsIcEENS4_9allocatorIcEEEEEEPT_v(%"class.google::protobuf::internal::InternalMetadata"* %108) #12
  %113 = bitcast %"class.std::__1::basic_string"* %111 to %"struct.std::__1::basic_string<char, std::__1::char_traits<char>, std::__1::allocator<char> >::__short"*
  %114 = getelementptr inbounds %"struct.std::__1::basic_string<char, std::__1::char_traits<char>, std::__1::allocator<char> >::__short", %"struct.std::__1::basic_string<char, std::__1::char_traits<char>, std::__1::allocator<char> >::__short"* %113, i64 0, i32 1, i32 0
  %115 = load i8, i8* %114, align 1
  %116 = icmp slt i8 %115, 0
  %117 = getelementptr inbounds %"class.std::__1::basic_string", %"class.std::__1::basic_string"* %111, i64 0, i32 0, i32 0, i32 0, i32 0, i32 0, i32 0
  %118 = load i8*, i8** %117, align 8
  %119 = getelementptr inbounds %"struct.google::protobuf::internal::InternalMetadata::Container", %"struct.google::protobuf::internal::InternalMetadata::Container"* %110, i64 0, i32 1, i32 0, i32 0, i32 0, i32 0, i32 0, i32 1
  %120 = load i64, i64* %119, align 8
  %121 = bitcast %"class.std::__1::basic_string"* %111 to i8*
  %122 = zext i8 %115 to i64
  %123 = select i1 %116, i8* %118, i8* %121
  %124 = select i1 %116, i64 %120, i64 %122
  %125 = tail call dereferenceable(24) %"class.std::__1::basic_string"* @_ZNSt3__112basic_stringIcNS_11char_traitsIcEENS_9allocatorIcEEE6appendEPKcm(%"class.std::__1::basic_string"* %112, i8* %123, i64 %124) #12
  br label %126

126:                                              ; preds = %89, %107
  %127 = getelementptr inbounds i8, i8* %92, i64 24
  %128 = getelementptr inbounds %"class.perfetto::protos::CompositorTimingHistory", %"class.perfetto::protos::CompositorTimingHistory"* %91, i64 0, i32 3
  %129 = bitcast i64* %128 to i8*
  tail call void @llvm.memcpy.p0i8.p0i8.i64(i8* align 8 %127, i8* align 8 %129, i64 56, i1 false) #12
  %130 = getelementptr inbounds %"class.perfetto::protos::ChromeCompositorSchedulerState", %"class.perfetto::protos::ChromeCompositorSchedulerState"* %0, i64 0, i32 7
  %131 = bitcast %"class.perfetto::protos::CompositorTimingHistory"** %130 to i8**
  store i8* %92, i8** %131, align 8
  br label %134

132:                                              ; preds = %85
  %133 = getelementptr inbounds %"class.perfetto::protos::ChromeCompositorSchedulerState", %"class.perfetto::protos::ChromeCompositorSchedulerState"* %0, i64 0, i32 7
  store %"class.perfetto::protos::CompositorTimingHistory"* null, %"class.perfetto::protos::CompositorTimingHistory"** %133, align 8
  br label %134

134:                                              ; preds = %132, %126
  %135 = getelementptr inbounds %"class.perfetto::protos::ChromeCompositorSchedulerState", %"class.perfetto::protos::ChromeCompositorSchedulerState"* %0, i64 0, i32 8
  %136 = getelementptr inbounds %"class.perfetto::protos::ChromeCompositorSchedulerState", %"class.perfetto::protos::ChromeCompositorSchedulerState"* %1, i64 0, i32 8
  tail call void @llvm.memcpy.p0i8.p0i8.i64(i8* align 8 %135, i8* align 8 %136, i64 56, i1 false)
  ret void
}

; Function Attrs: argmemonly nounwind
declare void @llvm.memcpy.p0i8.p0i8.i64(i8* nocapture writeonly, i8* nocapture readonly, i64, i1 immarg) #2

; Function Attrs: nobuiltin nofree
declare noalias nonnull i8* @_Znwm(i64) local_unnamed_addr #6

; Function Attrs: nounwind ssp uwtable
define hidden void @_ZN8perfetto6protos30ChromeCompositorSchedulerStateD2Ev(%"class.perfetto::protos::ChromeCompositorSchedulerState"*) unnamed_addr #0 align 2 {
  %2 = getelementptr inbounds %"class.perfetto::protos::ChromeCompositorSchedulerState", %"class.perfetto::protos::ChromeCompositorSchedulerState"* %0, i64 0, i32 0, i32 0
  store i32 (...)** bitcast (i8** getelementptr inbounds ({ [16 x i8*] }, { [16 x i8*] }* @_ZTVN8perfetto6protos30ChromeCompositorSchedulerStateE, i64 0, inrange i32 0, i64 2) to i32 (...)**), i32 (...)*** %2, align 8
  %3 = icmp eq %"class.perfetto::protos::ChromeCompositorSchedulerState"* %0, bitcast (%"class.perfetto::protos::ChromeCompositorSchedulerStateDefaultTypeInternal"* @_ZN8perfetto6protos49_ChromeCompositorSchedulerState_default_instance_E to %"class.perfetto::protos::ChromeCompositorSchedulerState"*)
  br i1 %3, label %49, label %4

4:                                                ; preds = %1
  %5 = getelementptr inbounds %"class.perfetto::protos::ChromeCompositorSchedulerState", %"class.perfetto::protos::ChromeCompositorSchedulerState"* %0, i64 0, i32 3
  %6 = load %"class.perfetto::protos::ChromeCompositorStateMachine"*, %"class.perfetto::protos::ChromeCompositorStateMachine"** %5, align 8
  %7 = icmp eq %"class.perfetto::protos::ChromeCompositorStateMachine"* %6, null
  br i1 %7, label %13, label %8

8:                                                ; preds = %4
  %9 = bitcast %"class.perfetto::protos::ChromeCompositorStateMachine"* %6 to void (%"class.perfetto::protos::ChromeCompositorStateMachine"*)***
  %10 = load void (%"class.perfetto::protos::ChromeCompositorStateMachine"*)**, void (%"class.perfetto::protos::ChromeCompositorStateMachine"*)*** %9, align 8
  %11 = getelementptr inbounds void (%"class.perfetto::protos::ChromeCompositorStateMachine"*)*, void (%"class.perfetto::protos::ChromeCompositorStateMachine"*)** %10, i64 1
  %12 = load void (%"class.perfetto::protos::ChromeCompositorStateMachine"*)*, void (%"class.perfetto::protos::ChromeCompositorStateMachine"*)** %11, align 8
  tail call void %12(%"class.perfetto::protos::ChromeCompositorStateMachine"* nonnull %6) #12
  br label %13

13:                                               ; preds = %8, %4
  %14 = getelementptr inbounds %"class.perfetto::protos::ChromeCompositorSchedulerState", %"class.perfetto::protos::ChromeCompositorSchedulerState"* %0, i64 0, i32 4
  %15 = load %"class.perfetto::protos::BeginImplFrameArgs"*, %"class.perfetto::protos::BeginImplFrameArgs"** %14, align 8
  %16 = icmp eq %"class.perfetto::protos::BeginImplFrameArgs"* %15, null
  br i1 %16, label %22, label %17

17:                                               ; preds = %13
  %18 = bitcast %"class.perfetto::protos::BeginImplFrameArgs"* %15 to void (%"class.perfetto::protos::BeginImplFrameArgs"*)***
  %19 = load void (%"class.perfetto::protos::BeginImplFrameArgs"*)**, void (%"class.perfetto::protos::BeginImplFrameArgs"*)*** %18, align 8
  %20 = getelementptr inbounds void (%"class.perfetto::protos::BeginImplFrameArgs"*)*, void (%"class.perfetto::protos::BeginImplFrameArgs"*)** %19, i64 1
  %21 = load void (%"class.perfetto::protos::BeginImplFrameArgs"*)*, void (%"class.perfetto::protos::BeginImplFrameArgs"*)** %20, align 8
  tail call void %21(%"class.perfetto::protos::BeginImplFrameArgs"* nonnull %15) #12
  br label %22

22:                                               ; preds = %17, %13
  %23 = getelementptr inbounds %"class.perfetto::protos::ChromeCompositorSchedulerState", %"class.perfetto::protos::ChromeCompositorSchedulerState"* %0, i64 0, i32 5
  %24 = load %"class.perfetto::protos::BeginFrameObserverState"*, %"class.perfetto::protos::BeginFrameObserverState"** %23, align 8
  %25 = icmp eq %"class.perfetto::protos::BeginFrameObserverState"* %24, null
  br i1 %25, label %31, label %26

26:                                               ; preds = %22
  %27 = bitcast %"class.perfetto::protos::BeginFrameObserverState"* %24 to void (%"class.perfetto::protos::BeginFrameObserverState"*)***
  %28 = load void (%"class.perfetto::protos::BeginFrameObserverState"*)**, void (%"class.perfetto::protos::BeginFrameObserverState"*)*** %27, align 8
  %29 = getelementptr inbounds void (%"class.perfetto::protos::BeginFrameObserverState"*)*, void (%"class.perfetto::protos::BeginFrameObserverState"*)** %28, i64 1
  %30 = load void (%"class.perfetto::protos::BeginFrameObserverState"*)*, void (%"class.perfetto::protos::BeginFrameObserverState"*)** %29, align 8
  tail call void %30(%"class.perfetto::protos::BeginFrameObserverState"* nonnull %24) #12
  br label %31

31:                                               ; preds = %26, %22
  %32 = getelementptr inbounds %"class.perfetto::protos::ChromeCompositorSchedulerState", %"class.perfetto::protos::ChromeCompositorSchedulerState"* %0, i64 0, i32 6
  %33 = load %"class.perfetto::protos::BeginFrameSourceState"*, %"class.perfetto::protos::BeginFrameSourceState"** %32, align 8
  %34 = icmp eq %"class.perfetto::protos::BeginFrameSourceState"* %33, null
  br i1 %34, label %40, label %35

35:                                               ; preds = %31
  %36 = bitcast %"class.perfetto::protos::BeginFrameSourceState"* %33 to void (%"class.perfetto::protos::BeginFrameSourceState"*)***
  %37 = load void (%"class.perfetto::protos::BeginFrameSourceState"*)**, void (%"class.perfetto::protos::BeginFrameSourceState"*)*** %36, align 8
  %38 = getelementptr inbounds void (%"class.perfetto::protos::BeginFrameSourceState"*)*, void (%"class.perfetto::protos::BeginFrameSourceState"*)** %37, i64 1
  %39 = load void (%"class.perfetto::protos::BeginFrameSourceState"*)*, void (%"class.perfetto::protos::BeginFrameSourceState"*)** %38, align 8
  tail call void %39(%"class.perfetto::protos::BeginFrameSourceState"* nonnull %33) #12
  br label %40

40:                                               ; preds = %35, %31
  %41 = getelementptr inbounds %"class.perfetto::protos::ChromeCompositorSchedulerState", %"class.perfetto::protos::ChromeCompositorSchedulerState"* %0, i64 0, i32 7
  %42 = load %"class.perfetto::protos::CompositorTimingHistory"*, %"class.perfetto::protos::CompositorTimingHistory"** %41, align 8
  %43 = icmp eq %"class.perfetto::protos::CompositorTimingHistory"* %42, null
  br i1 %43, label %49, label %44

44:                                               ; preds = %40
  %45 = bitcast %"class.perfetto::protos::CompositorTimingHistory"* %42 to void (%"class.perfetto::protos::CompositorTimingHistory"*)***
  %46 = load void (%"class.perfetto::protos::CompositorTimingHistory"*)**, void (%"class.perfetto::protos::CompositorTimingHistory"*)*** %45, align 8
  %47 = getelementptr inbounds void (%"class.perfetto::protos::CompositorTimingHistory"*)*, void (%"class.perfetto::protos::CompositorTimingHistory"*)** %46, i64 1
  %48 = load void (%"class.perfetto::protos::CompositorTimingHistory"*)*, void (%"class.perfetto::protos::CompositorTimingHistory"*)** %47, align 8
  tail call void %48(%"class.perfetto::protos::CompositorTimingHistory"* nonnull %42) #12
  br label %49

49:                                               ; preds = %1, %40, %44
  %50 = getelementptr inbounds %"class.perfetto::protos::ChromeCompositorSchedulerState", %"class.perfetto::protos::ChromeCompositorSchedulerState"* %0, i64 0, i32 0, i32 1
  %51 = bitcast %"class.google::protobuf::internal::InternalMetadata"* %50 to i64*
  %52 = load i64, i64* %51, align 8
  %53 = and i64 %52, 1
  %54 = icmp eq i64 %53, 0
  br i1 %54, label %75, label %55

55:                                               ; preds = %49
  %56 = and i64 %52, -2
  %57 = inttoptr i64 %56 to %"struct.google::protobuf::internal::InternalMetadata::ContainerBase"*
  %58 = getelementptr inbounds %"struct.google::protobuf::internal::InternalMetadata::ContainerBase", %"struct.google::protobuf::internal::InternalMetadata::ContainerBase"* %57, i64 0, i32 0
  %59 = load %"class.google::protobuf::Arena"*, %"class.google::protobuf::Arena"** %58, align 8
  %60 = icmp ne %"class.google::protobuf::Arena"* %59, null
  %61 = icmp eq i64 %56, 0
  %62 = or i1 %61, %60
  br i1 %62, label %75, label %63

63:                                               ; preds = %55
  %64 = inttoptr i64 %56 to %"struct.google::protobuf::internal::InternalMetadata::Container"*
  %65 = getelementptr inbounds %"struct.google::protobuf::internal::InternalMetadata::Container", %"struct.google::protobuf::internal::InternalMetadata::Container"* %64, i64 0, i32 1
  %66 = bitcast %"class.std::__1::basic_string"* %65 to %"struct.std::__1::basic_string<char, std::__1::char_traits<char>, std::__1::allocator<char> >::__short"*
  %67 = getelementptr inbounds %"struct.std::__1::basic_string<char, std::__1::char_traits<char>, std::__1::allocator<char> >::__short", %"struct.std::__1::basic_string<char, std::__1::char_traits<char>, std::__1::allocator<char> >::__short"* %66, i64 0, i32 1, i32 0
  %68 = load i8, i8* %67, align 1
  %69 = icmp slt i8 %68, 0
  br i1 %69, label %70, label %73

70:                                               ; preds = %63
  %71 = getelementptr inbounds %"class.std::__1::basic_string", %"class.std::__1::basic_string"* %65, i64 0, i32 0, i32 0, i32 0, i32 0, i32 0, i32 0
  %72 = load i8*, i8** %71, align 8
  tail call void @_ZdlPv(i8* %72) #13
  br label %73

73:                                               ; preds = %70, %63
  %74 = inttoptr i64 %56 to i8*
  tail call void @_ZdlPv(i8* %74) #13
  br label %75

75:                                               ; preds = %49, %55, %73
  ret void
}

; Function Attrs: nounwind ssp uwtable
define hidden void @_ZN8perfetto6protos30ChromeCompositorSchedulerStateD0Ev(%"class.perfetto::protos::ChromeCompositorSchedulerState"*) unnamed_addr #0 align 2 {
  tail call void @_ZN8perfetto6protos30ChromeCompositorSchedulerStateD2Ev(%"class.perfetto::protos::ChromeCompositorSchedulerState"* %0) #12
  %2 = bitcast %"class.perfetto::protos::ChromeCompositorSchedulerState"* %0 to i8*
  tail call void @_ZdlPv(i8* %2) #13
  ret void
}

; Function Attrs: nobuiltin nounwind
declare void @_ZdlPv(i8*) local_unnamed_addr #7

; Function Attrs: norecurse nounwind readnone ssp uwtable
define hidden void @_ZN8perfetto6protos30ChromeCompositorSchedulerState9ArenaDtorEPv(i8* nocapture) local_unnamed_addr #1 align 2 {
  ret void
}

; Function Attrs: nofree norecurse nounwind ssp uwtable
define hidden void @_ZNK8perfetto6protos30ChromeCompositorSchedulerState13SetCachedSizeEi(%"class.perfetto::protos::ChromeCompositorSchedulerState"* nocapture, i32) local_unnamed_addr #8 align 2 {
  %3 = getelementptr inbounds %"class.perfetto::protos::ChromeCompositorSchedulerState", %"class.perfetto::protos::ChromeCompositorSchedulerState"* %0, i64 0, i32 2, i32 0, i32 0, i32 0, i32 0, i32 0, i32 0
  store atomic i32 %1, i32* %3 monotonic, align 4
  ret void
}

; Function Attrs: nounwind ssp uwtable
define hidden dereferenceable(120) %"class.perfetto::protos::ChromeCompositorSchedulerState"* @_ZN8perfetto6protos30ChromeCompositorSchedulerState16default_instanceEv() local_unnamed_addr #0 align 2 {
  %1 = load atomic i32, i32* getelementptr inbounds ({ { { { i32 } }, i32, i32, void ()* }, [5 x i8*] }, { { { { i32 } }, i32, i32, void ()* }, [5 x i8*] }* @scc_info_ChromeCompositorSchedulerState_protos_2fperfetto_2ftrace_2ftrack_5fevent_2fchrome_5fcompositor_5fscheduler_5fstate_2eproto, i64 0, i32 0, i32 0, i32 0, i32 0) acquire, align 8
  %2 = icmp eq i32 %1, 0
  br i1 %2, label %4, label %3, !prof !2

3:                                                ; preds = %0
  tail call void @_ZN6google8protobuf8internal11InitSCCImplEPNS1_11SCCInfoBaseE(%"struct.google::protobuf::internal::SCCInfoBase"* bitcast ({ { { { i32 } }, i32, i32, void ()* }, [5 x i8*] }* @scc_info_ChromeCompositorSchedulerState_protos_2fperfetto_2ftrace_2ftrack_5fevent_2fchrome_5fcompositor_5fscheduler_5fstate_2eproto to %"struct.google::protobuf::internal::SCCInfoBase"*)) #12
  br label %4

4:                                                ; preds = %0, %3
  ret %"class.perfetto::protos::ChromeCompositorSchedulerState"* bitcast (%"class.perfetto::protos::ChromeCompositorSchedulerStateDefaultTypeInternal"* @_ZN8perfetto6protos49_ChromeCompositorSchedulerState_default_instance_E to %"class.perfetto::protos::ChromeCompositorSchedulerState"*)
}

; Function Attrs: nounwind ssp uwtable
define hidden void @_ZN8perfetto6protos30ChromeCompositorSchedulerState5ClearEv(%"class.perfetto::protos::ChromeCompositorSchedulerState"* nocapture) unnamed_addr #0 align 2 {
  %2 = getelementptr inbounds %"class.perfetto::protos::ChromeCompositorSchedulerState", %"class.perfetto::protos::ChromeCompositorSchedulerState"* %0, i64 0, i32 1, i32 0, i64 0
  %3 = load i32, i32* %2, align 4
  %4 = and i32 %3, 31
  %5 = icmp eq i32 %4, 0
  br i1 %5, label %63, label %6

6:                                                ; preds = %1
  %7 = and i32 %3, 1
  %8 = icmp eq i32 %7, 0
  br i1 %8, label %12, label %9

9:                                                ; preds = %6
  %10 = getelementptr inbounds %"class.perfetto::protos::ChromeCompositorSchedulerState", %"class.perfetto::protos::ChromeCompositorSchedulerState"* %0, i64 0, i32 3
  %11 = load %"class.perfetto::protos::ChromeCompositorStateMachine"*, %"class.perfetto::protos::ChromeCompositorStateMachine"** %10, align 8
  tail call void @_ZN8perfetto6protos28ChromeCompositorStateMachine5ClearEv(%"class.perfetto::protos::ChromeCompositorStateMachine"* %11)
  br label %12

12:                                               ; preds = %6, %9
  %13 = and i32 %3, 2
  %14 = icmp eq i32 %13, 0
  br i1 %14, label %18, label %15

15:                                               ; preds = %12
  %16 = getelementptr inbounds %"class.perfetto::protos::ChromeCompositorSchedulerState", %"class.perfetto::protos::ChromeCompositorSchedulerState"* %0, i64 0, i32 4
  %17 = load %"class.perfetto::protos::BeginImplFrameArgs"*, %"class.perfetto::protos::BeginImplFrameArgs"** %16, align 8
  tail call void @_ZN8perfetto6protos18BeginImplFrameArgs5ClearEv(%"class.perfetto::protos::BeginImplFrameArgs"* %17)
  br label %18

18:                                               ; preds = %12, %15
  %19 = and i32 %3, 4
  %20 = icmp eq i32 %19, 0
  br i1 %20, label %24, label %21

21:                                               ; preds = %18
  %22 = getelementptr inbounds %"class.perfetto::protos::ChromeCompositorSchedulerState", %"class.perfetto::protos::ChromeCompositorSchedulerState"* %0, i64 0, i32 5
  %23 = load %"class.perfetto::protos::BeginFrameObserverState"*, %"class.perfetto::protos::BeginFrameObserverState"** %22, align 8
  tail call void @_ZN8perfetto6protos23BeginFrameObserverState5ClearEv(%"class.perfetto::protos::BeginFrameObserverState"* %23)
  br label %24

24:                                               ; preds = %18, %21
  %25 = and i32 %3, 8
  %26 = icmp eq i32 %25, 0
  br i1 %26, label %30, label %27

27:                                               ; preds = %24
  %28 = getelementptr inbounds %"class.perfetto::protos::ChromeCompositorSchedulerState", %"class.perfetto::protos::ChromeCompositorSchedulerState"* %0, i64 0, i32 6
  %29 = load %"class.perfetto::protos::BeginFrameSourceState"*, %"class.perfetto::protos::BeginFrameSourceState"** %28, align 8
  tail call void @_ZN8perfetto6protos21BeginFrameSourceState5ClearEv(%"class.perfetto::protos::BeginFrameSourceState"* %29)
  br label %30

30:                                               ; preds = %24, %27
  %31 = and i32 %3, 16
  %32 = icmp eq i32 %31, 0
  br i1 %32, label %63, label %33

33:                                               ; preds = %30
  %34 = getelementptr inbounds %"class.perfetto::protos::ChromeCompositorSchedulerState", %"class.perfetto::protos::ChromeCompositorSchedulerState"* %0, i64 0, i32 7
  %35 = load %"class.perfetto::protos::CompositorTimingHistory"*, %"class.perfetto::protos::CompositorTimingHistory"** %34, align 8
  %36 = getelementptr inbounds %"class.perfetto::protos::CompositorTimingHistory", %"class.perfetto::protos::CompositorTimingHistory"* %35, i64 0, i32 1, i32 0, i64 0
  %37 = load i32, i32* %36, align 4
  %38 = and i32 %37, 127
  %39 = icmp eq i32 %38, 0
  br i1 %39, label %43, label %40

40:                                               ; preds = %33
  %41 = getelementptr inbounds %"class.perfetto::protos::CompositorTimingHistory", %"class.perfetto::protos::CompositorTimingHistory"* %35, i64 0, i32 3
  %42 = bitcast i64* %41 to i8*
  tail call void @llvm.memset.p0i8.i64(i8* align 8 %42, i8 0, i64 56, i1 false) #12
  br label %43

43:                                               ; preds = %40, %33
  store i32 0, i32* %36, align 4
  %44 = getelementptr inbounds %"class.perfetto::protos::CompositorTimingHistory", %"class.perfetto::protos::CompositorTimingHistory"* %35, i64 0, i32 0, i32 1
  %45 = bitcast %"class.google::protobuf::internal::InternalMetadata"* %44 to i64*
  %46 = load i64, i64* %45, align 8
  %47 = and i64 %46, 1
  %48 = icmp eq i64 %47, 0
  br i1 %48, label %63, label %49

49:                                               ; preds = %43
  %50 = and i64 %46, -2
  %51 = inttoptr i64 %50 to %"struct.google::protobuf::internal::InternalMetadata::Container"*
  %52 = getelementptr inbounds %"struct.google::protobuf::internal::InternalMetadata::Container", %"struct.google::protobuf::internal::InternalMetadata::Container"* %51, i64 0, i32 1
  %53 = bitcast %"class.std::__1::basic_string"* %52 to %"struct.std::__1::basic_string<char, std::__1::char_traits<char>, std::__1::allocator<char> >::__short"*
  %54 = getelementptr inbounds %"struct.std::__1::basic_string<char, std::__1::char_traits<char>, std::__1::allocator<char> >::__short", %"struct.std::__1::basic_string<char, std::__1::char_traits<char>, std::__1::allocator<char> >::__short"* %53, i64 0, i32 1, i32 0
  %55 = load i8, i8* %54, align 1
  %56 = icmp slt i8 %55, 0
  br i1 %56, label %57, label %61

57:                                               ; preds = %49
  %58 = getelementptr inbounds %"class.std::__1::basic_string", %"class.std::__1::basic_string"* %52, i64 0, i32 0, i32 0, i32 0, i32 0, i32 0, i32 0
  %59 = load i8*, i8** %58, align 8
  store i8 0, i8* %59, align 1
  %60 = getelementptr inbounds %"struct.google::protobuf::internal::InternalMetadata::Container", %"struct.google::protobuf::internal::InternalMetadata::Container"* %51, i64 0, i32 1, i32 0, i32 0, i32 0, i32 0, i32 0, i32 1
  store i64 0, i64* %60, align 8
  br label %63

61:                                               ; preds = %49
  %62 = bitcast %"class.std::__1::basic_string"* %52 to i8*
  store i8 0, i8* %62, align 2
  store i8 0, i8* %54, align 1
  br label %63

63:                                               ; preds = %61, %57, %43, %30, %1
  %64 = and i32 %3, 224
  %65 = icmp eq i32 %64, 0
  br i1 %65, label %68, label %66

66:                                               ; preds = %63
  %67 = getelementptr inbounds %"class.perfetto::protos::ChromeCompositorSchedulerState", %"class.perfetto::protos::ChromeCompositorSchedulerState"* %0, i64 0, i32 8
  tail call void @llvm.memset.p0i8.i64(i8* align 8 %67, i8 0, i64 3, i1 false)
  br label %68

68:                                               ; preds = %63, %66
  %69 = and i32 %3, 65280
  %70 = icmp eq i32 %69, 0
  br i1 %70, label %73, label %71

71:                                               ; preds = %68
  %72 = getelementptr inbounds %"class.perfetto::protos::ChromeCompositorSchedulerState", %"class.perfetto::protos::ChromeCompositorSchedulerState"* %0, i64 0, i32 11
  tail call void @llvm.memset.p0i8.i64(i8* align 1 %72, i8 0, i64 45, i1 false)
  br label %73

73:                                               ; preds = %68, %71
  %74 = getelementptr inbounds %"class.perfetto::protos::ChromeCompositorSchedulerState", %"class.perfetto::protos::ChromeCompositorSchedulerState"* %0, i64 0, i32 19
  store i64 0, i64* %74, align 8
  store i32 0, i32* %2, align 4
  %75 = getelementptr inbounds %"class.perfetto::protos::ChromeCompositorSchedulerState", %"class.perfetto::protos::ChromeCompositorSchedulerState"* %0, i64 0, i32 0, i32 1
  %76 = bitcast %"class.google::protobuf::internal::InternalMetadata"* %75 to i64*
  %77 = load i64, i64* %76, align 8
  %78 = and i64 %77, 1
  %79 = icmp eq i64 %78, 0
  br i1 %79, label %94, label %80

80:                                               ; preds = %73
  %81 = and i64 %77, -2
  %82 = inttoptr i64 %81 to %"struct.google::protobuf::internal::InternalMetadata::Container"*
  %83 = getelementptr inbounds %"struct.google::protobuf::internal::InternalMetadata::Container", %"struct.google::protobuf::internal::InternalMetadata::Container"* %82, i64 0, i32 1
  %84 = bitcast %"class.std::__1::basic_string"* %83 to %"struct.std::__1::basic_string<char, std::__1::char_traits<char>, std::__1::allocator<char> >::__short"*
  %85 = getelementptr inbounds %"struct.std::__1::basic_string<char, std::__1::char_traits<char>, std::__1::allocator<char> >::__short", %"struct.std::__1::basic_string<char, std::__1::char_traits<char>, std::__1::allocator<char> >::__short"* %84, i64 0, i32 1, i32 0
  %86 = load i8, i8* %85, align 1
  %87 = icmp slt i8 %86, 0
  br i1 %87, label %88, label %92

88:                                               ; preds = %80
  %89 = getelementptr inbounds %"class.std::__1::basic_string", %"class.std::__1::basic_string"* %83, i64 0, i32 0, i32 0, i32 0, i32 0, i32 0, i32 0
  %90 = load i8*, i8** %89, align 8
  store i8 0, i8* %90, align 1
  %91 = getelementptr inbounds %"struct.google::protobuf::internal::InternalMetadata::Container", %"struct.google::protobuf::internal::InternalMetadata::Container"* %82, i64 0, i32 1, i32 0, i32 0, i32 0, i32 0, i32 0, i32 1
  store i64 0, i64* %91, align 8
  br label %94

92:                                               ; preds = %80
  %93 = bitcast %"class.std::__1::basic_string"* %83 to i8*
  store i8 0, i8* %93, align 2
  store i8 0, i8* %85, align 1
  br label %94

94:                                               ; preds = %73, %88, %92
  ret void
}

; Function Attrs: nounwind ssp uwtable
define hidden void @_ZN8perfetto6protos28ChromeCompositorStateMachine5ClearEv(%"class.perfetto::protos::ChromeCompositorStateMachine"* nocapture) unnamed_addr #0 align 2 {
  %2 = getelementptr inbounds %"class.perfetto::protos::ChromeCompositorStateMachine", %"class.perfetto::protos::ChromeCompositorStateMachine"* %0, i64 0, i32 1, i32 0, i64 0
  %3 = load i32, i32* %2, align 4
  %4 = and i32 %3, 3
  %5 = icmp eq i32 %4, 0
  br i1 %5, label %101, label %6

6:                                                ; preds = %1
  %7 = and i32 %3, 1
  %8 = icmp eq i32 %7, 0
  br i1 %8, label %39, label %9

9:                                                ; preds = %6
  %10 = getelementptr inbounds %"class.perfetto::protos::ChromeCompositorStateMachine", %"class.perfetto::protos::ChromeCompositorStateMachine"* %0, i64 0, i32 3
  %11 = load %"class.perfetto::protos::ChromeCompositorStateMachine_MajorState"*, %"class.perfetto::protos::ChromeCompositorStateMachine_MajorState"** %10, align 8
  %12 = getelementptr inbounds %"class.perfetto::protos::ChromeCompositorStateMachine_MajorState", %"class.perfetto::protos::ChromeCompositorStateMachine_MajorState"* %11, i64 0, i32 1, i32 0, i64 0
  %13 = load i32, i32* %12, align 4
  %14 = and i32 %13, 31
  %15 = icmp eq i32 %14, 0
  br i1 %15, label %19, label %16

16:                                               ; preds = %9
  %17 = getelementptr inbounds %"class.perfetto::protos::ChromeCompositorStateMachine_MajorState", %"class.perfetto::protos::ChromeCompositorStateMachine_MajorState"* %11, i64 0, i32 3
  %18 = bitcast i32* %17 to i8*
  tail call void @llvm.memset.p0i8.i64(i8* align 8 %18, i8 0, i64 20, i1 false) #12
  br label %19

19:                                               ; preds = %16, %9
  store i32 0, i32* %12, align 4
  %20 = getelementptr inbounds %"class.perfetto::protos::ChromeCompositorStateMachine_MajorState", %"class.perfetto::protos::ChromeCompositorStateMachine_MajorState"* %11, i64 0, i32 0, i32 1
  %21 = bitcast %"class.google::protobuf::internal::InternalMetadata"* %20 to i64*
  %22 = load i64, i64* %21, align 8
  %23 = and i64 %22, 1
  %24 = icmp eq i64 %23, 0
  br i1 %24, label %39, label %25

25:                                               ; preds = %19
  %26 = and i64 %22, -2
  %27 = inttoptr i64 %26 to %"struct.google::protobuf::internal::InternalMetadata::Container"*
  %28 = getelementptr inbounds %"struct.google::protobuf::internal::InternalMetadata::Container", %"struct.google::protobuf::internal::InternalMetadata::Container"* %27, i64 0, i32 1
  %29 = bitcast %"class.std::__1::basic_string"* %28 to %"struct.std::__1::basic_string<char, std::__1::char_traits<char>, std::__1::allocator<char> >::__short"*
  %30 = getelementptr inbounds %"struct.std::__1::basic_string<char, std::__1::char_traits<char>, std::__1::allocator<char> >::__short", %"struct.std::__1::basic_string<char, std::__1::char_traits<char>, std::__1::allocator<char> >::__short"* %29, i64 0, i32 1, i32 0
  %31 = load i8, i8* %30, align 1
  %32 = icmp slt i8 %31, 0
  br i1 %32, label %33, label %37

33:                                               ; preds = %25
  %34 = getelementptr inbounds %"class.std::__1::basic_string", %"class.std::__1::basic_string"* %28, i64 0, i32 0, i32 0, i32 0, i32 0, i32 0, i32 0
  %35 = load i8*, i8** %34, align 8
  store i8 0, i8* %35, align 1
  %36 = getelementptr inbounds %"struct.google::protobuf::internal::InternalMetadata::Container", %"struct.google::protobuf::internal::InternalMetadata::Container"* %27, i64 0, i32 1, i32 0, i32 0, i32 0, i32 0, i32 0, i32 1
  store i64 0, i64* %36, align 8
  br label %39

37:                                               ; preds = %25
  %38 = bitcast %"class.std::__1::basic_string"* %28 to i8*
  store i8 0, i8* %38, align 2
  store i8 0, i8* %30, align 1
  br label %39

39:                                               ; preds = %37, %33, %19, %6
  %40 = and i32 %3, 2
  %41 = icmp eq i32 %40, 0
  br i1 %41, label %101, label %42

42:                                               ; preds = %39
  %43 = getelementptr inbounds %"class.perfetto::protos::ChromeCompositorStateMachine", %"class.perfetto::protos::ChromeCompositorStateMachine"* %0, i64 0, i32 4
  %44 = load %"class.perfetto::protos::ChromeCompositorStateMachine_MinorState"*, %"class.perfetto::protos::ChromeCompositorStateMachine_MinorState"** %43, align 8
  %45 = getelementptr inbounds %"class.perfetto::protos::ChromeCompositorStateMachine_MinorState", %"class.perfetto::protos::ChromeCompositorStateMachine_MinorState"* %44, i64 0, i32 1
  %46 = getelementptr inbounds %"class.google::protobuf::internal::HasBits.15", %"class.google::protobuf::internal::HasBits.15"* %45, i64 0, i32 0, i64 0
  %47 = load i32, i32* %46, align 4
  %48 = and i32 %47, 255
  %49 = icmp eq i32 %48, 0
  br i1 %49, label %53, label %50

50:                                               ; preds = %42
  %51 = getelementptr inbounds %"class.perfetto::protos::ChromeCompositorStateMachine_MinorState", %"class.perfetto::protos::ChromeCompositorStateMachine_MinorState"* %44, i64 0, i32 3
  %52 = bitcast i32* %51 to i8*
  tail call void @llvm.memset.p0i8.i64(i8* align 4 %52, i8 0, i64 23, i1 false) #12
  br label %53

53:                                               ; preds = %50, %42
  %54 = and i32 %47, 65280
  %55 = icmp eq i32 %54, 0
  br i1 %55, label %58, label %56

56:                                               ; preds = %53
  %57 = getelementptr inbounds %"class.perfetto::protos::ChromeCompositorStateMachine_MinorState", %"class.perfetto::protos::ChromeCompositorStateMachine_MinorState"* %44, i64 0, i32 11
  tail call void @llvm.memset.p0i8.i64(i8* align 1 %57, i8 0, i64 17, i1 false) #12
  br label %58

58:                                               ; preds = %56, %53
  %59 = and i32 %47, 16711680
  %60 = icmp eq i32 %59, 0
  br i1 %60, label %64, label %61

61:                                               ; preds = %58
  %62 = getelementptr inbounds %"class.perfetto::protos::ChromeCompositorStateMachine_MinorState", %"class.perfetto::protos::ChromeCompositorStateMachine_MinorState"* %44, i64 0, i32 19
  %63 = bitcast i8* %62 to i64*
  store i64 0, i64* %63, align 4
  br label %64

64:                                               ; preds = %61, %58
  %65 = icmp ugt i32 %47, 16777215
  br i1 %65, label %66, label %68

66:                                               ; preds = %64
  %67 = getelementptr inbounds %"class.perfetto::protos::ChromeCompositorStateMachine_MinorState", %"class.perfetto::protos::ChromeCompositorStateMachine_MinorState"* %44, i64 0, i32 27
  tail call void @llvm.memset.p0i8.i64(i8* align 4 %67, i8 0, i64 11, i1 false) #12
  br label %68

68:                                               ; preds = %66, %64
  %69 = getelementptr inbounds %"class.perfetto::protos::ChromeCompositorStateMachine_MinorState", %"class.perfetto::protos::ChromeCompositorStateMachine_MinorState"* %44, i64 0, i32 1, i32 0, i64 1
  %70 = load i32, i32* %69, align 4
  %71 = and i32 %70, 255
  %72 = icmp eq i32 %71, 0
  br i1 %72, label %75, label %73

73:                                               ; preds = %68
  %74 = getelementptr inbounds %"class.perfetto::protos::ChromeCompositorStateMachine_MinorState", %"class.perfetto::protos::ChromeCompositorStateMachine_MinorState"* %44, i64 0, i32 35
  tail call void @llvm.memset.p0i8.i64(i8* align 1 %74, i8 0, i64 11, i1 false) #12
  br label %75

75:                                               ; preds = %73, %68
  %76 = and i32 %70, 16128
  %77 = icmp eq i32 %76, 0
  br i1 %77, label %80, label %78

78:                                               ; preds = %75
  %79 = getelementptr inbounds %"class.perfetto::protos::ChromeCompositorStateMachine_MinorState", %"class.perfetto::protos::ChromeCompositorStateMachine_MinorState"* %44, i64 0, i32 43
  tail call void @llvm.memset.p0i8.i64(i8* align 2 %79, i8 0, i64 6, i1 false) #12
  br label %80

80:                                               ; preds = %78, %75
  %81 = bitcast %"class.google::protobuf::internal::HasBits.15"* %45 to i64*
  store i64 0, i64* %81, align 4
  %82 = getelementptr inbounds %"class.perfetto::protos::ChromeCompositorStateMachine_MinorState", %"class.perfetto::protos::ChromeCompositorStateMachine_MinorState"* %44, i64 0, i32 0, i32 1
  %83 = bitcast %"class.google::protobuf::internal::InternalMetadata"* %82 to i64*
  %84 = load i64, i64* %83, align 8
  %85 = and i64 %84, 1
  %86 = icmp eq i64 %85, 0
  br i1 %86, label %101, label %87

87:                                               ; preds = %80
  %88 = and i64 %84, -2
  %89 = inttoptr i64 %88 to %"struct.google::protobuf::internal::InternalMetadata::Container"*
  %90 = getelementptr inbounds %"struct.google::protobuf::internal::InternalMetadata::Container", %"struct.google::protobuf::internal::InternalMetadata::Container"* %89, i64 0, i32 1
  %91 = bitcast %"class.std::__1::basic_string"* %90 to %"struct.std::__1::basic_string<char, std::__1::char_traits<char>, std::__1::allocator<char> >::__short"*
  %92 = getelementptr inbounds %"struct.std::__1::basic_string<char, std::__1::char_traits<char>, std::__1::allocator<char> >::__short", %"struct.std::__1::basic_string<char, std::__1::char_traits<char>, std::__1::allocator<char> >::__short"* %91, i64 0, i32 1, i32 0
  %93 = load i8, i8* %92, align 1
  %94 = icmp slt i8 %93, 0
  br i1 %94, label %95, label %99

95:                                               ; preds = %87
  %96 = getelementptr inbounds %"class.std::__1::basic_string", %"class.std::__1::basic_string"* %90, i64 0, i32 0, i32 0, i32 0, i32 0, i32 0, i32 0
  %97 = load i8*, i8** %96, align 8
  store i8 0, i8* %97, align 1
  %98 = getelementptr inbounds %"struct.google::protobuf::internal::InternalMetadata::Container", %"struct.google::protobuf::internal::InternalMetadata::Container"* %89, i64 0, i32 1, i32 0, i32 0, i32 0, i32 0, i32 0, i32 1
  store i64 0, i64* %98, align 8
  br label %101

99:                                               ; preds = %87
  %100 = bitcast %"class.std::__1::basic_string"* %90 to i8*
  store i8 0, i8* %100, align 2
  store i8 0, i8* %92, align 1
  br label %101

101:                                              ; preds = %99, %95, %80, %39, %1
  store i32 0, i32* %2, align 4
  %102 = getelementptr inbounds %"class.perfetto::protos::ChromeCompositorStateMachine", %"class.perfetto::protos::ChromeCompositorStateMachine"* %0, i64 0, i32 0, i32 1
  %103 = bitcast %"class.google::protobuf::internal::InternalMetadata"* %102 to i64*
  %104 = load i64, i64* %103, align 8
  %105 = and i64 %104, 1
  %106 = icmp eq i64 %105, 0
  br i1 %106, label %121, label %107

107:                                              ; preds = %101
  %108 = and i64 %104, -2
  %109 = inttoptr i64 %108 to %"struct.google::protobuf::internal::InternalMetadata::Container"*
  %110 = getelementptr inbounds %"struct.google::protobuf::internal::InternalMetadata::Container", %"struct.google::protobuf::internal::InternalMetadata::Container"* %109, i64 0, i32 1
  %111 = bitcast %"class.std::__1::basic_string"* %110 to %"struct.std::__1::basic_string<char, std::__1::char_traits<char>, std::__1::allocator<char> >::__short"*
  %112 = getelementptr inbounds %"struct.std::__1::basic_string<char, std::__1::char_traits<char>, std::__1::allocator<char> >::__short", %"struct.std::__1::basic_string<char, std::__1::char_traits<char>, std::__1::allocator<char> >::__short"* %111, i64 0, i32 1, i32 0
  %113 = load i8, i8* %112, align 1
  %114 = icmp slt i8 %113, 0
  br i1 %114, label %115, label %119

115:                                              ; preds = %107
  %116 = getelementptr inbounds %"class.std::__1::basic_string", %"class.std::__1::basic_string"* %110, i64 0, i32 0, i32 0, i32 0, i32 0, i32 0, i32 0
  %117 = load i8*, i8** %116, align 8
  store i8 0, i8* %117, align 1
  %118 = getelementptr inbounds %"struct.google::protobuf::internal::InternalMetadata::Container", %"struct.google::protobuf::internal::InternalMetadata::Container"* %109, i64 0, i32 1, i32 0, i32 0, i32 0, i32 0, i32 0, i32 1
  store i64 0, i64* %118, align 8
  br label %121

119:                                              ; preds = %107
  %120 = bitcast %"class.std::__1::basic_string"* %110 to i8*
  store i8 0, i8* %120, align 2
  store i8 0, i8* %112, align 1
  br label %121

121:                                              ; preds = %101, %115, %119
  ret void
}

; Function Attrs: nounwind ssp uwtable
define hidden void @_ZN8perfetto6protos18BeginImplFrameArgs5ClearEv(%"class.perfetto::protos::BeginImplFrameArgs"* nocapture) unnamed_addr #0 align 2 {
  %2 = getelementptr inbounds %"class.perfetto::protos::BeginImplFrameArgs", %"class.perfetto::protos::BeginImplFrameArgs"* %0, i64 0, i32 1, i32 0, i64 0
  %3 = load i32, i32* %2, align 4
  %4 = and i32 %3, 1
  %5 = icmp eq i32 %4, 0
  br i1 %5, label %36, label %6

6:                                                ; preds = %1
  %7 = getelementptr inbounds %"class.perfetto::protos::BeginImplFrameArgs", %"class.perfetto::protos::BeginImplFrameArgs"* %0, i64 0, i32 3
  %8 = load %"class.perfetto::protos::BeginImplFrameArgs_TimestampsInUs"*, %"class.perfetto::protos::BeginImplFrameArgs_TimestampsInUs"** %7, align 8
  %9 = getelementptr inbounds %"class.perfetto::protos::BeginImplFrameArgs_TimestampsInUs", %"class.perfetto::protos::BeginImplFrameArgs_TimestampsInUs"* %8, i64 0, i32 1, i32 0, i64 0
  %10 = load i32, i32* %9, align 4
  %11 = and i32 %10, 127
  %12 = icmp eq i32 %11, 0
  br i1 %12, label %16, label %13

13:                                               ; preds = %6
  %14 = getelementptr inbounds %"class.perfetto::protos::BeginImplFrameArgs_TimestampsInUs", %"class.perfetto::protos::BeginImplFrameArgs_TimestampsInUs"* %8, i64 0, i32 3
  %15 = bitcast i64* %14 to i8*
  tail call void @llvm.memset.p0i8.i64(i8* align 8 %15, i8 0, i64 56, i1 false) #12
  br label %16

16:                                               ; preds = %13, %6
  store i32 0, i32* %9, align 4
  %17 = getelementptr inbounds %"class.perfetto::protos::BeginImplFrameArgs_TimestampsInUs", %"class.perfetto::protos::BeginImplFrameArgs_TimestampsInUs"* %8, i64 0, i32 0, i32 1
  %18 = bitcast %"class.google::protobuf::internal::InternalMetadata"* %17 to i64*
  %19 = load i64, i64* %18, align 8
  %20 = and i64 %19, 1
  %21 = icmp eq i64 %20, 0
  br i1 %21, label %36, label %22

22:                                               ; preds = %16
  %23 = and i64 %19, -2
  %24 = inttoptr i64 %23 to %"struct.google::protobuf::internal::InternalMetadata::Container"*
  %25 = getelementptr inbounds %"struct.google::protobuf::internal::InternalMetadata::Container", %"struct.google::protobuf::internal::InternalMetadata::Container"* %24, i64 0, i32 1
  %26 = bitcast %"class.std::__1::basic_string"* %25 to %"struct.std::__1::basic_string<char, std::__1::char_traits<char>, std::__1::allocator<char> >::__short"*
  %27 = getelementptr inbounds %"struct.std::__1::basic_string<char, std::__1::char_traits<char>, std::__1::allocator<char> >::__short", %"struct.std::__1::basic_string<char, std::__1::char_traits<char>, std::__1::allocator<char> >::__short"* %26, i64 0, i32 1, i32 0
  %28 = load i8, i8* %27, align 1
  %29 = icmp slt i8 %28, 0
  br i1 %29, label %30, label %34

30:                                               ; preds = %22
  %31 = getelementptr inbounds %"class.std::__1::basic_string", %"class.std::__1::basic_string"* %25, i64 0, i32 0, i32 0, i32 0, i32 0, i32 0, i32 0
  %32 = load i8*, i8** %31, align 8
  store i8 0, i8* %32, align 1
  %33 = getelementptr inbounds %"struct.google::protobuf::internal::InternalMetadata::Container", %"struct.google::protobuf::internal::InternalMetadata::Container"* %24, i64 0, i32 1, i32 0, i32 0, i32 0, i32 0, i32 0, i32 1
  store i64 0, i64* %33, align 8
  br label %36

34:                                               ; preds = %22
  %35 = bitcast %"class.std::__1::basic_string"* %25 to i8*
  store i8 0, i8* %35, align 2
  store i8 0, i8* %27, align 1
  br label %36

36:                                               ; preds = %34, %30, %16, %1
  %37 = and i32 %3, 14
  %38 = icmp eq i32 %37, 0
  br i1 %38, label %42, label %39

39:                                               ; preds = %36
  %40 = getelementptr inbounds %"class.perfetto::protos::BeginImplFrameArgs", %"class.perfetto::protos::BeginImplFrameArgs"* %0, i64 0, i32 4
  %41 = bitcast i64* %40 to i8*
  tail call void @llvm.memset.p0i8.i64(i8* align 8 %41, i8 0, i64 20, i1 false)
  br label %42

42:                                               ; preds = %36, %39
  %43 = getelementptr inbounds %"class.perfetto::protos::BeginImplFrameArgs", %"class.perfetto::protos::BeginImplFrameArgs"* %0, i64 0, i32 9, i64 0
  %44 = load i32, i32* %43, align 8
  switch i32 %44, label %95 [
    i32 4, label %45
    i32 5, label %70
  ]

45:                                               ; preds = %42
  %46 = getelementptr inbounds %"class.perfetto::protos::BeginImplFrameArgs", %"class.perfetto::protos::BeginImplFrameArgs"* %0, i64 0, i32 0, i32 1
  %47 = bitcast %"class.google::protobuf::internal::InternalMetadata"* %46 to i64*
  %48 = load i64, i64* %47, align 8
  %49 = and i64 %48, 1
  %50 = icmp eq i64 %49, 0
  %51 = and i64 %48, -2
  br i1 %50, label %56, label %52, !prof !2

52:                                               ; preds = %45
  %53 = inttoptr i64 %51 to %"struct.google::protobuf::internal::InternalMetadata::ContainerBase"*
  %54 = getelementptr inbounds %"struct.google::protobuf::internal::InternalMetadata::ContainerBase", %"struct.google::protobuf::internal::InternalMetadata::ContainerBase"* %53, i64 0, i32 0
  %55 = load %"class.google::protobuf::Arena"*, %"class.google::protobuf::Arena"** %54, align 8
  br label %58

56:                                               ; preds = %45
  %57 = inttoptr i64 %51 to %"class.google::protobuf::Arena"*
  br label %58

58:                                               ; preds = %56, %52
  %59 = phi %"class.google::protobuf::Arena"* [ %55, %52 ], [ %57, %56 ]
  %60 = icmp eq %"class.google::protobuf::Arena"* %59, null
  br i1 %60, label %61, label %95

61:                                               ; preds = %58
  %62 = getelementptr inbounds %"class.perfetto::protos::BeginImplFrameArgs", %"class.perfetto::protos::BeginImplFrameArgs"* %0, i64 0, i32 8, i32 0
  %63 = load %"class.perfetto::protos::BeginFrameArgs"*, %"class.perfetto::protos::BeginFrameArgs"** %62, align 8
  %64 = icmp eq %"class.perfetto::protos::BeginFrameArgs"* %63, null
  br i1 %64, label %95, label %65

65:                                               ; preds = %61
  %66 = bitcast %"class.perfetto::protos::BeginFrameArgs"* %63 to void (%"class.perfetto::protos::BeginFrameArgs"*)***
  %67 = load void (%"class.perfetto::protos::BeginFrameArgs"*)**, void (%"class.perfetto::protos::BeginFrameArgs"*)*** %66, align 8
  %68 = getelementptr inbounds void (%"class.perfetto::protos::BeginFrameArgs"*)*, void (%"class.perfetto::protos::BeginFrameArgs"*)** %67, i64 1
  %69 = load void (%"class.perfetto::protos::BeginFrameArgs"*)*, void (%"class.perfetto::protos::BeginFrameArgs"*)** %68, align 8
  tail call void %69(%"class.perfetto::protos::BeginFrameArgs"* nonnull %63) #12
  br label %95

70:                                               ; preds = %42
  %71 = getelementptr inbounds %"class.perfetto::protos::BeginImplFrameArgs", %"class.perfetto::protos::BeginImplFrameArgs"* %0, i64 0, i32 0, i32 1
  %72 = bitcast %"class.google::protobuf::internal::InternalMetadata"* %71 to i64*
  %73 = load i64, i64* %72, align 8
  %74 = and i64 %73, 1
  %75 = icmp eq i64 %74, 0
  %76 = and i64 %73, -2
  br i1 %75, label %81, label %77, !prof !2

77:                                               ; preds = %70
  %78 = inttoptr i64 %76 to %"struct.google::protobuf::internal::InternalMetadata::ContainerBase"*
  %79 = getelementptr inbounds %"struct.google::protobuf::internal::InternalMetadata::ContainerBase", %"struct.google::protobuf::internal::InternalMetadata::ContainerBase"* %78, i64 0, i32 0
  %80 = load %"class.google::protobuf::Arena"*, %"class.google::protobuf::Arena"** %79, align 8
  br label %83

81:                                               ; preds = %70
  %82 = inttoptr i64 %76 to %"class.google::protobuf::Arena"*
  br label %83

83:                                               ; preds = %81, %77
  %84 = phi %"class.google::protobuf::Arena"* [ %80, %77 ], [ %82, %81 ]
  %85 = icmp eq %"class.google::protobuf::Arena"* %84, null
  br i1 %85, label %86, label %95

86:                                               ; preds = %83
  %87 = getelementptr inbounds %"class.perfetto::protos::BeginImplFrameArgs", %"class.perfetto::protos::BeginImplFrameArgs"* %0, i64 0, i32 8, i32 0
  %88 = load %"class.perfetto::protos::BeginFrameArgs"*, %"class.perfetto::protos::BeginFrameArgs"** %87, align 8
  %89 = icmp eq %"class.perfetto::protos::BeginFrameArgs"* %88, null
  br i1 %89, label %95, label %90

90:                                               ; preds = %86
  %91 = bitcast %"class.perfetto::protos::BeginFrameArgs"* %88 to void (%"class.perfetto::protos::BeginFrameArgs"*)***
  %92 = load void (%"class.perfetto::protos::BeginFrameArgs"*)**, void (%"class.perfetto::protos::BeginFrameArgs"*)*** %91, align 8
  %93 = getelementptr inbounds void (%"class.perfetto::protos::BeginFrameArgs"*)*, void (%"class.perfetto::protos::BeginFrameArgs"*)** %92, i64 1
  %94 = load void (%"class.perfetto::protos::BeginFrameArgs"*)*, void (%"class.perfetto::protos::BeginFrameArgs"*)** %93, align 8
  tail call void %94(%"class.perfetto::protos::BeginFrameArgs"* nonnull %88) #12
  br label %95

95:                                               ; preds = %42, %58, %61, %65, %83, %86, %90
  store i32 0, i32* %43, align 8
  store i32 0, i32* %2, align 4
  %96 = getelementptr inbounds %"class.perfetto::protos::BeginImplFrameArgs", %"class.perfetto::protos::BeginImplFrameArgs"* %0, i64 0, i32 0, i32 1
  %97 = bitcast %"class.google::protobuf::internal::InternalMetadata"* %96 to i64*
  %98 = load i64, i64* %97, align 8
  %99 = and i64 %98, 1
  %100 = icmp eq i64 %99, 0
  br i1 %100, label %115, label %101

101:                                              ; preds = %95
  %102 = and i64 %98, -2
  %103 = inttoptr i64 %102 to %"struct.google::protobuf::internal::InternalMetadata::Container"*
  %104 = getelementptr inbounds %"struct.google::protobuf::internal::InternalMetadata::Container", %"struct.google::protobuf::internal::InternalMetadata::Container"* %103, i64 0, i32 1
  %105 = bitcast %"class.std::__1::basic_string"* %104 to %"struct.std::__1::basic_string<char, std::__1::char_traits<char>, std::__1::allocator<char> >::__short"*
  %106 = getelementptr inbounds %"struct.std::__1::basic_string<char, std::__1::char_traits<char>, std::__1::allocator<char> >::__short", %"struct.std::__1::basic_string<char, std::__1::char_traits<char>, std::__1::allocator<char> >::__short"* %105, i64 0, i32 1, i32 0
  %107 = load i8, i8* %106, align 1
  %108 = icmp slt i8 %107, 0
  br i1 %108, label %109, label %113

109:                                              ; preds = %101
  %110 = getelementptr inbounds %"class.std::__1::basic_string", %"class.std::__1::basic_string"* %104, i64 0, i32 0, i32 0, i32 0, i32 0, i32 0, i32 0
  %111 = load i8*, i8** %110, align 8
  store i8 0, i8* %111, align 1
  %112 = getelementptr inbounds %"struct.google::protobuf::internal::InternalMetadata::Container", %"struct.google::protobuf::internal::InternalMetadata::Container"* %103, i64 0, i32 1, i32 0, i32 0, i32 0, i32 0, i32 0, i32 1
  store i64 0, i64* %112, align 8
  br label %115

113:                                              ; preds = %101
  %114 = bitcast %"class.std::__1::basic_string"* %104 to i8*
  store i8 0, i8* %114, align 2
  store i8 0, i8* %106, align 1
  br label %115

115:                                              ; preds = %95, %109, %113
  ret void
}

; Function Attrs: nounwind ssp uwtable
define hidden void @_ZN8perfetto6protos23BeginFrameObserverState5ClearEv(%"class.perfetto::protos::BeginFrameObserverState"* nocapture) unnamed_addr #0 align 2 {
  %2 = getelementptr inbounds %"class.perfetto::protos::BeginFrameObserverState", %"class.perfetto::protos::BeginFrameObserverState"* %0, i64 0, i32 1, i32 0, i64 0
  %3 = load i32, i32* %2, align 4
  %4 = and i32 %3, 1
  %5 = icmp eq i32 %4, 0
  br i1 %5, label %66, label %6

6:                                                ; preds = %1
  %7 = getelementptr inbounds %"class.perfetto::protos::BeginFrameObserverState", %"class.perfetto::protos::BeginFrameObserverState"* %0, i64 0, i32 3
  %8 = load %"class.perfetto::protos::BeginFrameArgs"*, %"class.perfetto::protos::BeginFrameArgs"** %7, align 8
  %9 = getelementptr inbounds %"class.perfetto::protos::BeginFrameArgs", %"class.perfetto::protos::BeginFrameArgs"* %8, i64 0, i32 1, i32 0, i64 0
  %10 = load i32, i32* %9, align 4
  %11 = and i32 %10, 255
  %12 = icmp eq i32 %11, 0
  br i1 %12, label %16, label %13

13:                                               ; preds = %6
  %14 = getelementptr inbounds %"class.perfetto::protos::BeginFrameArgs", %"class.perfetto::protos::BeginFrameArgs"* %8, i64 0, i32 3
  %15 = bitcast i64* %14 to i8*
  tail call void @llvm.memset.p0i8.i64(i8* align 8 %15, i8 0, i64 48, i1 false) #12
  br label %16

16:                                               ; preds = %13, %6
  %17 = getelementptr inbounds %"class.perfetto::protos::BeginFrameArgs", %"class.perfetto::protos::BeginFrameArgs"* %8, i64 0, i32 13, i64 0
  %18 = load i32, i32* %17, align 8
  %19 = icmp eq i32 %18, 10
  br i1 %19, label %20, label %46

20:                                               ; preds = %16
  %21 = getelementptr inbounds %"class.perfetto::protos::BeginFrameArgs", %"class.perfetto::protos::BeginFrameArgs"* %8, i64 0, i32 0, i32 1
  %22 = bitcast %"class.google::protobuf::internal::InternalMetadata"* %21 to i64*
  %23 = load i64, i64* %22, align 8
  %24 = and i64 %23, 1
  %25 = icmp eq i64 %24, 0
  %26 = and i64 %23, -2
  br i1 %25, label %31, label %27, !prof !2

27:                                               ; preds = %20
  %28 = inttoptr i64 %26 to %"struct.google::protobuf::internal::InternalMetadata::ContainerBase"*
  %29 = getelementptr inbounds %"struct.google::protobuf::internal::InternalMetadata::ContainerBase", %"struct.google::protobuf::internal::InternalMetadata::ContainerBase"* %28, i64 0, i32 0
  %30 = load %"class.google::protobuf::Arena"*, %"class.google::protobuf::Arena"** %29, align 8
  br label %33

31:                                               ; preds = %20
  %32 = inttoptr i64 %26 to %"class.google::protobuf::Arena"*
  br label %33

33:                                               ; preds = %31, %27
  %34 = phi %"class.google::protobuf::Arena"* [ %30, %27 ], [ %32, %31 ]
  %35 = icmp eq %"class.google::protobuf::Arena"* %34, null
  br i1 %35, label %36, label %46

36:                                               ; preds = %33
  %37 = getelementptr inbounds %"class.perfetto::protos::BeginFrameArgs", %"class.perfetto::protos::BeginFrameArgs"* %8, i64 0, i32 12
  %38 = bitcast %"union.perfetto::protos::BeginFrameArgs::CreatedFromUnion"* %37 to %"class.perfetto::protos::SourceLocation"**
  %39 = load %"class.perfetto::protos::SourceLocation"*, %"class.perfetto::protos::SourceLocation"** %38, align 8
  %40 = icmp eq %"class.perfetto::protos::SourceLocation"* %39, null
  br i1 %40, label %46, label %41

41:                                               ; preds = %36
  %42 = bitcast %"class.perfetto::protos::SourceLocation"* %39 to void (%"class.perfetto::protos::SourceLocation"*)***
  %43 = load void (%"class.perfetto::protos::SourceLocation"*)**, void (%"class.perfetto::protos::SourceLocation"*)*** %42, align 8
  %44 = getelementptr inbounds void (%"class.perfetto::protos::SourceLocation"*)*, void (%"class.perfetto::protos::SourceLocation"*)** %43, i64 1
  %45 = load void (%"class.perfetto::protos::SourceLocation"*)*, void (%"class.perfetto::protos::SourceLocation"*)** %44, align 8
  tail call void %45(%"class.perfetto::protos::SourceLocation"* nonnull %39) #12
  br label %46

46:                                               ; preds = %16, %41, %36, %33
  store i32 0, i32* %17, align 8
  store i32 0, i32* %9, align 4
  %47 = getelementptr inbounds %"class.perfetto::protos::BeginFrameArgs", %"class.perfetto::protos::BeginFrameArgs"* %8, i64 0, i32 0, i32 1
  %48 = bitcast %"class.google::protobuf::internal::InternalMetadata"* %47 to i64*
  %49 = load i64, i64* %48, align 8
  %50 = and i64 %49, 1
  %51 = icmp eq i64 %50, 0
  br i1 %51, label %66, label %52

52:                                               ; preds = %46
  %53 = and i64 %49, -2
  %54 = inttoptr i64 %53 to %"struct.google::protobuf::internal::InternalMetadata::Container"*
  %55 = getelementptr inbounds %"struct.google::protobuf::internal::InternalMetadata::Container", %"struct.google::protobuf::internal::InternalMetadata::Container"* %54, i64 0, i32 1
  %56 = bitcast %"class.std::__1::basic_string"* %55 to %"struct.std::__1::basic_string<char, std::__1::char_traits<char>, std::__1::allocator<char> >::__short"*
  %57 = getelementptr inbounds %"struct.std::__1::basic_string<char, std::__1::char_traits<char>, std::__1::allocator<char> >::__short", %"struct.std::__1::basic_string<char, std::__1::char_traits<char>, std::__1::allocator<char> >::__short"* %56, i64 0, i32 1, i32 0
  %58 = load i8, i8* %57, align 1
  %59 = icmp slt i8 %58, 0
  br i1 %59, label %60, label %64

60:                                               ; preds = %52
  %61 = getelementptr inbounds %"class.std::__1::basic_string", %"class.std::__1::basic_string"* %55, i64 0, i32 0, i32 0, i32 0, i32 0, i32 0, i32 0
  %62 = load i8*, i8** %61, align 8
  store i8 0, i8* %62, align 1
  %63 = getelementptr inbounds %"struct.google::protobuf::internal::InternalMetadata::Container", %"struct.google::protobuf::internal::InternalMetadata::Container"* %54, i64 0, i32 1, i32 0, i32 0, i32 0, i32 0, i32 0, i32 1
  store i64 0, i64* %63, align 8
  br label %66

64:                                               ; preds = %52
  %65 = bitcast %"class.std::__1::basic_string"* %55 to i8*
  store i8 0, i8* %65, align 2
  store i8 0, i8* %57, align 1
  br label %66

66:                                               ; preds = %64, %60, %46, %1
  %67 = getelementptr inbounds %"class.perfetto::protos::BeginFrameObserverState", %"class.perfetto::protos::BeginFrameObserverState"* %0, i64 0, i32 4
  store i64 0, i64* %67, align 8
  store i32 0, i32* %2, align 4
  %68 = getelementptr inbounds %"class.perfetto::protos::BeginFrameObserverState", %"class.perfetto::protos::BeginFrameObserverState"* %0, i64 0, i32 0, i32 1
  %69 = bitcast %"class.google::protobuf::internal::InternalMetadata"* %68 to i64*
  %70 = load i64, i64* %69, align 8
  %71 = and i64 %70, 1
  %72 = icmp eq i64 %71, 0
  br i1 %72, label %87, label %73

73:                                               ; preds = %66
  %74 = and i64 %70, -2
  %75 = inttoptr i64 %74 to %"struct.google::protobuf::internal::InternalMetadata::Container"*
  %76 = getelementptr inbounds %"struct.google::protobuf::internal::InternalMetadata::Container", %"struct.google::protobuf::internal::InternalMetadata::Container"* %75, i64 0, i32 1
  %77 = bitcast %"class.std::__1::basic_string"* %76 to %"struct.std::__1::basic_string<char, std::__1::char_traits<char>, std::__1::allocator<char> >::__short"*
  %78 = getelementptr inbounds %"struct.std::__1::basic_string<char, std::__1::char_traits<char>, std::__1::allocator<char> >::__short", %"struct.std::__1::basic_string<char, std::__1::char_traits<char>, std::__1::allocator<char> >::__short"* %77, i64 0, i32 1, i32 0
  %79 = load i8, i8* %78, align 1
  %80 = icmp slt i8 %79, 0
  br i1 %80, label %81, label %85

81:                                               ; preds = %73
  %82 = getelementptr inbounds %"class.std::__1::basic_string", %"class.std::__1::basic_string"* %76, i64 0, i32 0, i32 0, i32 0, i32 0, i32 0, i32 0
  %83 = load i8*, i8** %82, align 8
  store i8 0, i8* %83, align 1
  %84 = getelementptr inbounds %"struct.google::protobuf::internal::InternalMetadata::Container", %"struct.google::protobuf::internal::InternalMetadata::Container"* %75, i64 0, i32 1, i32 0, i32 0, i32 0, i32 0, i32 0, i32 1
  store i64 0, i64* %84, align 8
  br label %87

85:                                               ; preds = %73
  %86 = bitcast %"class.std::__1::basic_string"* %76 to i8*
  store i8 0, i8* %86, align 2
  store i8 0, i8* %78, align 1
  br label %87

87:                                               ; preds = %66, %81, %85
  ret void
}

; Function Attrs: nounwind ssp uwtable
define hidden void @_ZN8perfetto6protos21BeginFrameSourceState5ClearEv(%"class.perfetto::protos::BeginFrameSourceState"* nocapture) unnamed_addr #0 align 2 {
  %2 = getelementptr inbounds %"class.perfetto::protos::BeginFrameSourceState", %"class.perfetto::protos::BeginFrameSourceState"* %0, i64 0, i32 1, i32 0, i64 0
  %3 = load i32, i32* %2, align 4
  %4 = and i32 %3, 1
  %5 = icmp eq i32 %4, 0
  br i1 %5, label %66, label %6

6:                                                ; preds = %1
  %7 = getelementptr inbounds %"class.perfetto::protos::BeginFrameSourceState", %"class.perfetto::protos::BeginFrameSourceState"* %0, i64 0, i32 3
  %8 = load %"class.perfetto::protos::BeginFrameArgs"*, %"class.perfetto::protos::BeginFrameArgs"** %7, align 8
  %9 = getelementptr inbounds %"class.perfetto::protos::BeginFrameArgs", %"class.perfetto::protos::BeginFrameArgs"* %8, i64 0, i32 1, i32 0, i64 0
  %10 = load i32, i32* %9, align 4
  %11 = and i32 %10, 255
  %12 = icmp eq i32 %11, 0
  br i1 %12, label %16, label %13

13:                                               ; preds = %6
  %14 = getelementptr inbounds %"class.perfetto::protos::BeginFrameArgs", %"class.perfetto::protos::BeginFrameArgs"* %8, i64 0, i32 3
  %15 = bitcast i64* %14 to i8*
  tail call void @llvm.memset.p0i8.i64(i8* align 8 %15, i8 0, i64 48, i1 false) #12
  br label %16

16:                                               ; preds = %13, %6
  %17 = getelementptr inbounds %"class.perfetto::protos::BeginFrameArgs", %"class.perfetto::protos::BeginFrameArgs"* %8, i64 0, i32 13, i64 0
  %18 = load i32, i32* %17, align 8
  %19 = icmp eq i32 %18, 10
  br i1 %19, label %20, label %46

20:                                               ; preds = %16
  %21 = getelementptr inbounds %"class.perfetto::protos::BeginFrameArgs", %"class.perfetto::protos::BeginFrameArgs"* %8, i64 0, i32 0, i32 1
  %22 = bitcast %"class.google::protobuf::internal::InternalMetadata"* %21 to i64*
  %23 = load i64, i64* %22, align 8
  %24 = and i64 %23, 1
  %25 = icmp eq i64 %24, 0
  %26 = and i64 %23, -2
  br i1 %25, label %31, label %27, !prof !2

27:                                               ; preds = %20
  %28 = inttoptr i64 %26 to %"struct.google::protobuf::internal::InternalMetadata::ContainerBase"*
  %29 = getelementptr inbounds %"struct.google::protobuf::internal::InternalMetadata::ContainerBase", %"struct.google::protobuf::internal::InternalMetadata::ContainerBase"* %28, i64 0, i32 0
  %30 = load %"class.google::protobuf::Arena"*, %"class.google::protobuf::Arena"** %29, align 8
  br label %33

31:                                               ; preds = %20
  %32 = inttoptr i64 %26 to %"class.google::protobuf::Arena"*
  br label %33

33:                                               ; preds = %31, %27
  %34 = phi %"class.google::protobuf::Arena"* [ %30, %27 ], [ %32, %31 ]
  %35 = icmp eq %"class.google::protobuf::Arena"* %34, null
  br i1 %35, label %36, label %46

36:                                               ; preds = %33
  %37 = getelementptr inbounds %"class.perfetto::protos::BeginFrameArgs", %"class.perfetto::protos::BeginFrameArgs"* %8, i64 0, i32 12
  %38 = bitcast %"union.perfetto::protos::BeginFrameArgs::CreatedFromUnion"* %37 to %"class.perfetto::protos::SourceLocation"**
  %39 = load %"class.perfetto::protos::SourceLocation"*, %"class.perfetto::protos::SourceLocation"** %38, align 8
  %40 = icmp eq %"class.perfetto::protos::SourceLocation"* %39, null
  br i1 %40, label %46, label %41

41:                                               ; preds = %36
  %42 = bitcast %"class.perfetto::protos::SourceLocation"* %39 to void (%"class.perfetto::protos::SourceLocation"*)***
  %43 = load void (%"class.perfetto::protos::SourceLocation"*)**, void (%"class.perfetto::protos::SourceLocation"*)*** %42, align 8
  %44 = getelementptr inbounds void (%"class.perfetto::protos::SourceLocation"*)*, void (%"class.perfetto::protos::SourceLocation"*)** %43, i64 1
  %45 = load void (%"class.perfetto::protos::SourceLocation"*)*, void (%"class.perfetto::protos::SourceLocation"*)** %44, align 8
  tail call void %45(%"class.perfetto::protos::SourceLocation"* nonnull %39) #12
  br label %46

46:                                               ; preds = %16, %41, %36, %33
  store i32 0, i32* %17, align 8
  store i32 0, i32* %9, align 4
  %47 = getelementptr inbounds %"class.perfetto::protos::BeginFrameArgs", %"class.perfetto::protos::BeginFrameArgs"* %8, i64 0, i32 0, i32 1
  %48 = bitcast %"class.google::protobuf::internal::InternalMetadata"* %47 to i64*
  %49 = load i64, i64* %48, align 8
  %50 = and i64 %49, 1
  %51 = icmp eq i64 %50, 0
  br i1 %51, label %66, label %52

52:                                               ; preds = %46
  %53 = and i64 %49, -2
  %54 = inttoptr i64 %53 to %"struct.google::protobuf::internal::InternalMetadata::Container"*
  %55 = getelementptr inbounds %"struct.google::protobuf::internal::InternalMetadata::Container", %"struct.google::protobuf::internal::InternalMetadata::Container"* %54, i64 0, i32 1
  %56 = bitcast %"class.std::__1::basic_string"* %55 to %"struct.std::__1::basic_string<char, std::__1::char_traits<char>, std::__1::allocator<char> >::__short"*
  %57 = getelementptr inbounds %"struct.std::__1::basic_string<char, std::__1::char_traits<char>, std::__1::allocator<char> >::__short", %"struct.std::__1::basic_string<char, std::__1::char_traits<char>, std::__1::allocator<char> >::__short"* %56, i64 0, i32 1, i32 0
  %58 = load i8, i8* %57, align 1
  %59 = icmp slt i8 %58, 0
  br i1 %59, label %60, label %64

60:                                               ; preds = %52
  %61 = getelementptr inbounds %"class.std::__1::basic_string", %"class.std::__1::basic_string"* %55, i64 0, i32 0, i32 0, i32 0, i32 0, i32 0, i32 0
  %62 = load i8*, i8** %61, align 8
  store i8 0, i8* %62, align 1
  %63 = getelementptr inbounds %"struct.google::protobuf::internal::InternalMetadata::Container", %"struct.google::protobuf::internal::InternalMetadata::Container"* %54, i64 0, i32 1, i32 0, i32 0, i32 0, i32 0, i32 0, i32 1
  store i64 0, i64* %63, align 8
  br label %66

64:                                               ; preds = %52
  %65 = bitcast %"class.std::__1::basic_string"* %55 to i8*
  store i8 0, i8* %65, align 2
  store i8 0, i8* %57, align 1
  br label %66

66:                                               ; preds = %64, %60, %46, %1
  %67 = and i32 %3, 14
  %68 = icmp eq i32 %67, 0
  br i1 %68, label %72, label %69

69:                                               ; preds = %66
  %70 = getelementptr inbounds %"class.perfetto::protos::BeginFrameSourceState", %"class.perfetto::protos::BeginFrameSourceState"* %0, i64 0, i32 4
  %71 = bitcast i32* %70 to i8*
  tail call void @llvm.memset.p0i8.i64(i8* align 8 %71, i8 0, i64 12, i1 false)
  br label %72

72:                                               ; preds = %66, %69
  store i32 0, i32* %2, align 4
  %73 = getelementptr inbounds %"class.perfetto::protos::BeginFrameSourceState", %"class.perfetto::protos::BeginFrameSourceState"* %0, i64 0, i32 0, i32 1
  %74 = bitcast %"class.google::protobuf::internal::InternalMetadata"* %73 to i64*
  %75 = load i64, i64* %74, align 8
  %76 = and i64 %75, 1
  %77 = icmp eq i64 %76, 0
  br i1 %77, label %92, label %78

78:                                               ; preds = %72
  %79 = and i64 %75, -2
  %80 = inttoptr i64 %79 to %"struct.google::protobuf::internal::InternalMetadata::Container"*
  %81 = getelementptr inbounds %"struct.google::protobuf::internal::InternalMetadata::Container", %"struct.google::protobuf::internal::InternalMetadata::Container"* %80, i64 0, i32 1
  %82 = bitcast %"class.std::__1::basic_string"* %81 to %"struct.std::__1::basic_string<char, std::__1::char_traits<char>, std::__1::allocator<char> >::__short"*
  %83 = getelementptr inbounds %"struct.std::__1::basic_string<char, std::__1::char_traits<char>, std::__1::allocator<char> >::__short", %"struct.std::__1::basic_string<char, std::__1::char_traits<char>, std::__1::allocator<char> >::__short"* %82, i64 0, i32 1, i32 0
  %84 = load i8, i8* %83, align 1
  %85 = icmp slt i8 %84, 0
  br i1 %85, label %86, label %90

86:                                               ; preds = %78
  %87 = getelementptr inbounds %"class.std::__1::basic_string", %"class.std::__1::basic_string"* %81, i64 0, i32 0, i32 0, i32 0, i32 0, i32 0, i32 0
  %88 = load i8*, i8** %87, align 8
  store i8 0, i8* %88, align 1
  %89 = getelementptr inbounds %"struct.google::protobuf::internal::InternalMetadata::Container", %"struct.google::protobuf::internal::InternalMetadata::Container"* %80, i64 0, i32 1, i32 0, i32 0, i32 0, i32 0, i32 0, i32 1
  store i64 0, i64* %89, align 8
  br label %92

90:                                               ; preds = %78
  %91 = bitcast %"class.std::__1::basic_string"* %81 to i8*
  store i8 0, i8* %91, align 2
  store i8 0, i8* %83, align 1
  br label %92

92:                                               ; preds = %72, %86, %90
  ret void
}

; Function Attrs: nounwind ssp uwtable
define hidden void @_ZN8perfetto6protos23CompositorTimingHistory5ClearEv(%"class.perfetto::protos::CompositorTimingHistory"* nocapture) unnamed_addr #0 align 2 {
  %2 = getelementptr inbounds %"class.perfetto::protos::CompositorTimingHistory", %"class.perfetto::protos::CompositorTimingHistory"* %0, i64 0, i32 1, i32 0, i64 0
  %3 = load i32, i32* %2, align 4
  %4 = and i32 %3, 127
  %5 = icmp eq i32 %4, 0
  br i1 %5, label %9, label %6

6:                                                ; preds = %1
  %7 = getelementptr inbounds %"class.perfetto::protos::CompositorTimingHistory", %"class.perfetto::protos::CompositorTimingHistory"* %0, i64 0, i32 3
  %8 = bitcast i64* %7 to i8*
  tail call void @llvm.memset.p0i8.i64(i8* align 8 %8, i8 0, i64 56, i1 false)
  br label %9

9:                                                ; preds = %1, %6
  store i32 0, i32* %2, align 4
  %10 = getelementptr inbounds %"class.perfetto::protos::CompositorTimingHistory", %"class.perfetto::protos::CompositorTimingHistory"* %0, i64 0, i32 0, i32 1
  %11 = bitcast %"class.google::protobuf::internal::InternalMetadata"* %10 to i64*
  %12 = load i64, i64* %11, align 8
  %13 = and i64 %12, 1
  %14 = icmp eq i64 %13, 0
  br i1 %14, label %29, label %15

15:                                               ; preds = %9
  %16 = and i64 %12, -2
  %17 = inttoptr i64 %16 to %"struct.google::protobuf::internal::InternalMetadata::Container"*
  %18 = getelementptr inbounds %"struct.google::protobuf::internal::InternalMetadata::Container", %"struct.google::protobuf::internal::InternalMetadata::Container"* %17, i64 0, i32 1
  %19 = bitcast %"class.std::__1::basic_string"* %18 to %"struct.std::__1::basic_string<char, std::__1::char_traits<char>, std::__1::allocator<char> >::__short"*
  %20 = getelementptr inbounds %"struct.std::__1::basic_string<char, std::__1::char_traits<char>, std::__1::allocator<char> >::__short", %"struct.std::__1::basic_string<char, std::__1::char_traits<char>, std::__1::allocator<char> >::__short"* %19, i64 0, i32 1, i32 0
  %21 = load i8, i8* %20, align 1
  %22 = icmp slt i8 %21, 0
  br i1 %22, label %23, label %27

23:                                               ; preds = %15
  %24 = getelementptr inbounds %"class.std::__1::basic_string", %"class.std::__1::basic_string"* %18, i64 0, i32 0, i32 0, i32 0, i32 0, i32 0, i32 0
  %25 = load i8*, i8** %24, align 8
  store i8 0, i8* %25, align 1
  %26 = getelementptr inbounds %"struct.google::protobuf::internal::InternalMetadata::Container", %"struct.google::protobuf::internal::InternalMetadata::Container"* %17, i64 0, i32 1, i32 0, i32 0, i32 0, i32 0, i32 0, i32 1
  store i64 0, i64* %26, align 8
  br label %29

27:                                               ; preds = %15
  %28 = bitcast %"class.std::__1::basic_string"* %18 to i8*
  store i8 0, i8* %28, align 2
  store i8 0, i8* %20, align 1
  br label %29

29:                                               ; preds = %9, %23, %27
  ret void
}

; Function Attrs: argmemonly nounwind
declare void @llvm.memset.p0i8.i64(i8* nocapture writeonly, i8, i64, i1 immarg) #2

; Function Attrs: nounwind ssp uwtable
define hidden i8* @_ZN8perfetto6protos30ChromeCompositorSchedulerState14_InternalParseEPKcPN6google8protobuf8internal12ParseContextE(%"class.perfetto::protos::ChromeCompositorSchedulerState"*, i8*, %"class.google::protobuf::internal::ParseContext"*) unnamed_addr #0 align 2 {
  %4 = getelementptr inbounds %"class.google::protobuf::internal::ParseContext", %"class.google::protobuf::internal::ParseContext"* %2, i64 0, i32 0
  %5 = getelementptr inbounds %"class.google::protobuf::internal::ParseContext", %"class.google::protobuf::internal::ParseContext"* %2, i64 0, i32 2
  %6 = getelementptr inbounds %"class.google::protobuf::internal::ParseContext", %"class.google::protobuf::internal::ParseContext"* %2, i64 0, i32 0, i32 0
  %7 = getelementptr inbounds %"class.google::protobuf::internal::ParseContext", %"class.google::protobuf::internal::ParseContext"* %2, i64 0, i32 0, i32 1
  %8 = bitcast i8** %7 to i64*
  %9 = getelementptr inbounds %"class.google::protobuf::internal::ParseContext", %"class.google::protobuf::internal::ParseContext"* %2, i64 0, i32 0, i32 4
  %10 = getelementptr inbounds %"class.perfetto::protos::ChromeCompositorSchedulerState", %"class.perfetto::protos::ChromeCompositorSchedulerState"* %0, i64 0, i32 1, i32 0, i64 0
  %11 = getelementptr inbounds %"class.perfetto::protos::ChromeCompositorSchedulerState", %"class.perfetto::protos::ChromeCompositorSchedulerState"* %0, i64 0, i32 7
  %12 = getelementptr inbounds %"class.perfetto::protos::ChromeCompositorSchedulerState", %"class.perfetto::protos::ChromeCompositorSchedulerState"* %0, i64 0, i32 0, i32 1
  %13 = bitcast %"class.google::protobuf::internal::InternalMetadata"* %12 to i64*
  %14 = getelementptr inbounds %"class.perfetto::protos::ChromeCompositorSchedulerState", %"class.perfetto::protos::ChromeCompositorSchedulerState"* %0, i64 0, i32 6
  %15 = getelementptr inbounds %"class.perfetto::protos::ChromeCompositorSchedulerState", %"class.perfetto::protos::ChromeCompositorSchedulerState"* %0, i64 0, i32 5
  %16 = getelementptr inbounds %"class.perfetto::protos::ChromeCompositorSchedulerState", %"class.perfetto::protos::ChromeCompositorSchedulerState"* %0, i64 0, i32 4
  %17 = getelementptr inbounds %"class.perfetto::protos::ChromeCompositorSchedulerState", %"class.perfetto::protos::ChromeCompositorSchedulerState"* %0, i64 0, i32 19
  %18 = getelementptr inbounds %"class.perfetto::protos::ChromeCompositorSchedulerState", %"class.perfetto::protos::ChromeCompositorSchedulerState"* %0, i64 0, i32 18
  %19 = getelementptr inbounds %"class.perfetto::protos::ChromeCompositorSchedulerState", %"class.perfetto::protos::ChromeCompositorSchedulerState"* %0, i64 0, i32 17
  %20 = getelementptr inbounds %"class.perfetto::protos::ChromeCompositorSchedulerState", %"class.perfetto::protos::ChromeCompositorSchedulerState"* %0, i64 0, i32 16
  %21 = getelementptr inbounds %"class.perfetto::protos::ChromeCompositorSchedulerState", %"class.perfetto::protos::ChromeCompositorSchedulerState"* %0, i64 0, i32 15
  %22 = getelementptr inbounds %"class.perfetto::protos::ChromeCompositorSchedulerState", %"class.perfetto::protos::ChromeCompositorSchedulerState"* %0, i64 0, i32 14
  %23 = getelementptr inbounds %"class.perfetto::protos::ChromeCompositorSchedulerState", %"class.perfetto::protos::ChromeCompositorSchedulerState"* %0, i64 0, i32 13
  %24 = getelementptr inbounds %"class.perfetto::protos::ChromeCompositorSchedulerState", %"class.perfetto::protos::ChromeCompositorSchedulerState"* %0, i64 0, i32 12
  %25 = getelementptr inbounds %"class.perfetto::protos::ChromeCompositorSchedulerState", %"class.perfetto::protos::ChromeCompositorSchedulerState"* %0, i64 0, i32 11
  %26 = getelementptr inbounds %"class.perfetto::protos::ChromeCompositorSchedulerState", %"class.perfetto::protos::ChromeCompositorSchedulerState"* %0, i64 0, i32 10
  %27 = getelementptr inbounds %"class.perfetto::protos::ChromeCompositorSchedulerState", %"class.perfetto::protos::ChromeCompositorSchedulerState"* %0, i64 0, i32 9
  %28 = getelementptr inbounds %"class.perfetto::protos::ChromeCompositorSchedulerState", %"class.perfetto::protos::ChromeCompositorSchedulerState"* %0, i64 0, i32 8
  %29 = getelementptr inbounds %"class.perfetto::protos::ChromeCompositorSchedulerState", %"class.perfetto::protos::ChromeCompositorSchedulerState"* %0, i64 0, i32 3
  br label %30

30:                                               ; preds = %630, %3
  %31 = phi i8* [ %1, %3 ], [ %631, %630 ]
  %32 = phi i32 [ 0, %3 ], [ %632, %630 ]
  %33 = load i32, i32* %5, align 4
  %34 = load i8*, i8** %6, align 8
  %35 = icmp ult i8* %31, %34
  br i1 %35, label %49, label %36, !prof !2

36:                                               ; preds = %30
  %37 = load i64, i64* %8, align 8
  %38 = ptrtoint i8* %31 to i64
  %39 = sub i64 %38, %37
  %40 = load i32, i32* %9, align 4
  %41 = sext i32 %40 to i64
  %42 = icmp eq i64 %39, %41
  br i1 %42, label %633, label %43

43:                                               ; preds = %36
  %44 = tail call { i8*, i8 } @_ZN6google8protobuf8internal18EpsCopyInputStream12DoneFallbackEPKci(%"class.google::protobuf::internal::EpsCopyInputStream"* %4, i8* %31, i32 %33) #12
  %45 = extractvalue { i8*, i8 } %44, 0
  %46 = extractvalue { i8*, i8 } %44, 1
  %47 = and i8 %46, 1
  %48 = icmp eq i8 %47, 0
  br i1 %48, label %49, label %633

49:                                               ; preds = %43, %30
  %50 = phi i8* [ %45, %43 ], [ %31, %30 ]
  %51 = load i8, i8* %50, align 1
  %52 = zext i8 %51 to i32
  %53 = icmp sgt i8 %51, -1
  %54 = getelementptr inbounds i8, i8* %50, i64 1
  br i1 %53, label %68, label %55

55:                                               ; preds = %49
  %56 = load i8, i8* %54, align 1
  %57 = zext i8 %56 to i32
  %58 = shl nuw nsw i32 %57, 7
  %59 = add nsw i32 %52, -128
  %60 = add nsw i32 %59, %58
  %61 = icmp sgt i8 %56, -1
  br i1 %61, label %62, label %64

62:                                               ; preds = %55
  %63 = getelementptr inbounds i8, i8* %50, i64 2
  br label %68

64:                                               ; preds = %55
  %65 = tail call { i8*, i32 } @_ZN6google8protobuf8internal15ReadTagFallbackEPKcj(i8* %50, i32 %60) #12
  %66 = extractvalue { i8*, i32 } %65, 0
  %67 = extractvalue { i8*, i32 } %65, 1
  br label %68

68:                                               ; preds = %49, %62, %64
  %69 = phi i32 [ %60, %62 ], [ %67, %64 ], [ %52, %49 ]
  %70 = phi i8* [ %63, %62 ], [ %66, %64 ], [ %54, %49 ]
  %71 = icmp eq i8* %70, null
  br i1 %71, label %633, label %72, !prof !5

72:                                               ; preds = %68
  %73 = lshr i32 %69, 3
  switch i32 %73, label %608 [
    i32 1, label %74
    i32 2, label %100
    i32 3, label %132
    i32 4, label %164
    i32 5, label %196
    i32 6, label %228
    i32 7, label %260
    i32 8, label %307
    i32 9, label %354
    i32 10, label %384
    i32 11, label %414
    i32 12, label %444
    i32 13, label %474
    i32 14, label %504
    i32 15, label %530
    i32 16, label %556
    i32 17, label %582
  ]

74:                                               ; preds = %72
  %75 = and i32 %69, 255
  %76 = icmp eq i32 %75, 10
  br i1 %76, label %77, label %608, !prof !2

77:                                               ; preds = %74
  %78 = load i32, i32* %10, align 4
  %79 = or i32 %78, 1
  store i32 %79, i32* %10, align 4
  %80 = load %"class.perfetto::protos::ChromeCompositorStateMachine"*, %"class.perfetto::protos::ChromeCompositorStateMachine"** %29, align 8
  %81 = icmp eq %"class.perfetto::protos::ChromeCompositorStateMachine"* %80, null
  br i1 %81, label %82, label %96

82:                                               ; preds = %77
  %83 = load i64, i64* %13, align 8
  %84 = and i64 %83, 1
  %85 = icmp eq i64 %84, 0
  %86 = and i64 %83, -2
  br i1 %85, label %91, label %87, !prof !2

87:                                               ; preds = %82
  %88 = inttoptr i64 %86 to %"struct.google::protobuf::internal::InternalMetadata::ContainerBase"*
  %89 = getelementptr inbounds %"struct.google::protobuf::internal::InternalMetadata::ContainerBase", %"struct.google::protobuf::internal::InternalMetadata::ContainerBase"* %88, i64 0, i32 0
  %90 = load %"class.google::protobuf::Arena"*, %"class.google::protobuf::Arena"** %89, align 8
  br label %93

91:                                               ; preds = %82
  %92 = inttoptr i64 %86 to %"class.google::protobuf::Arena"*
  br label %93

93:                                               ; preds = %91, %87
  %94 = phi %"class.google::protobuf::Arena"* [ %90, %87 ], [ %92, %91 ]
  %95 = tail call %"class.perfetto::protos::ChromeCompositorStateMachine"* @_ZN6google8protobuf5Arena18CreateMaybeMessageIN8perfetto6protos28ChromeCompositorStateMachineEJEEEPT_PS1_DpOT0_(%"class.google::protobuf::Arena"* %94) #12
  store %"class.perfetto::protos::ChromeCompositorStateMachine"* %95, %"class.perfetto::protos::ChromeCompositorStateMachine"** %29, align 8
  br label %96

96:                                               ; preds = %77, %93
  %97 = phi %"class.perfetto::protos::ChromeCompositorStateMachine"* [ %95, %93 ], [ %80, %77 ]
  %98 = tail call i8* @_ZN6google8protobuf8internal12ParseContext12ParseMessageIN8perfetto6protos28ChromeCompositorStateMachineEEEPKcPT_S8_(%"class.google::protobuf::internal::ParseContext"* %2, %"class.perfetto::protos::ChromeCompositorStateMachine"* %97, i8* nonnull %70)
  %99 = icmp eq i8* %98, null
  br i1 %99, label %633, label %630

100:                                              ; preds = %72
  %101 = and i32 %69, 255
  %102 = icmp eq i32 %101, 16
  br i1 %102, label %103, label %608, !prof !2

103:                                              ; preds = %100
  %104 = or i32 %32, 32
  %105 = load i8, i8* %70, align 1
  %106 = icmp slt i8 %105, 0
  br i1 %106, label %110, label %107

107:                                              ; preds = %103
  %108 = zext i8 %105 to i64
  %109 = getelementptr inbounds i8, i8* %70, i64 1
  br label %126

110:                                              ; preds = %103
  %111 = zext i8 %105 to i32
  %112 = getelementptr inbounds i8, i8* %70, i64 1
  %113 = load i8, i8* %112, align 1
  %114 = zext i8 %113 to i32
  %115 = shl nuw nsw i32 %114, 7
  %116 = add nsw i32 %111, -128
  %117 = add nuw nsw i32 %116, %115
  %118 = icmp slt i8 %113, 0
  br i1 %118, label %122, label %119

119:                                              ; preds = %110
  %120 = zext i32 %117 to i64
  %121 = getelementptr inbounds i8, i8* %70, i64 2
  br label %126

122:                                              ; preds = %110
  %123 = tail call { i8*, i64 } @_ZN6google8protobuf8internal17VarintParseSlow64EPKcj(i8* nonnull %70, i32 %117) #12
  %124 = extractvalue { i8*, i64 } %123, 0
  %125 = extractvalue { i8*, i64 } %123, 1
  br label %126

126:                                              ; preds = %107, %119, %122
  %127 = phi i64 [ %125, %122 ], [ %120, %119 ], [ %108, %107 ]
  %128 = phi i8* [ %124, %122 ], [ %121, %119 ], [ %109, %107 ]
  %129 = icmp ne i64 %127, 0
  %130 = zext i1 %129 to i8
  store i8 %130, i8* %28, align 8
  %131 = icmp eq i8* %128, null
  br i1 %131, label %633, label %630

132:                                              ; preds = %72
  %133 = and i32 %69, 255
  %134 = icmp eq i32 %133, 24
  br i1 %134, label %135, label %608, !prof !2

135:                                              ; preds = %132
  %136 = or i32 %32, 64
  %137 = load i8, i8* %70, align 1
  %138 = icmp slt i8 %137, 0
  br i1 %138, label %142, label %139

139:                                              ; preds = %135
  %140 = zext i8 %137 to i64
  %141 = getelementptr inbounds i8, i8* %70, i64 1
  br label %158

142:                                              ; preds = %135
  %143 = zext i8 %137 to i32
  %144 = getelementptr inbounds i8, i8* %70, i64 1
  %145 = load i8, i8* %144, align 1
  %146 = zext i8 %145 to i32
  %147 = shl nuw nsw i32 %146, 7
  %148 = add nsw i32 %143, -128
  %149 = add nuw nsw i32 %148, %147
  %150 = icmp slt i8 %145, 0
  br i1 %150, label %154, label %151

151:                                              ; preds = %142
  %152 = zext i32 %149 to i64
  %153 = getelementptr inbounds i8, i8* %70, i64 2
  br label %158

154:                                              ; preds = %142
  %155 = tail call { i8*, i64 } @_ZN6google8protobuf8internal17VarintParseSlow64EPKcj(i8* nonnull %70, i32 %149) #12
  %156 = extractvalue { i8*, i64 } %155, 0
  %157 = extractvalue { i8*, i64 } %155, 1
  br label %158

158:                                              ; preds = %139, %151, %154
  %159 = phi i64 [ %157, %154 ], [ %152, %151 ], [ %140, %139 ]
  %160 = phi i8* [ %156, %154 ], [ %153, %151 ], [ %141, %139 ]
  %161 = icmp ne i64 %159, 0
  %162 = zext i1 %161 to i8
  store i8 %162, i8* %27, align 1
  %163 = icmp eq i8* %160, null
  br i1 %163, label %633, label %630

164:                                              ; preds = %72
  %165 = and i32 %69, 255
  %166 = icmp eq i32 %165, 32
  br i1 %166, label %167, label %608, !prof !2

167:                                              ; preds = %164
  %168 = or i32 %32, 128
  %169 = load i8, i8* %70, align 1
  %170 = icmp slt i8 %169, 0
  br i1 %170, label %174, label %171

171:                                              ; preds = %167
  %172 = zext i8 %169 to i64
  %173 = getelementptr inbounds i8, i8* %70, i64 1
  br label %190

174:                                              ; preds = %167
  %175 = zext i8 %169 to i32
  %176 = getelementptr inbounds i8, i8* %70, i64 1
  %177 = load i8, i8* %176, align 1
  %178 = zext i8 %177 to i32
  %179 = shl nuw nsw i32 %178, 7
  %180 = add nsw i32 %175, -128
  %181 = add nuw nsw i32 %180, %179
  %182 = icmp slt i8 %177, 0
  br i1 %182, label %186, label %183

183:                                              ; preds = %174
  %184 = zext i32 %181 to i64
  %185 = getelementptr inbounds i8, i8* %70, i64 2
  br label %190

186:                                              ; preds = %174
  %187 = tail call { i8*, i64 } @_ZN6google8protobuf8internal17VarintParseSlow64EPKcj(i8* nonnull %70, i32 %181) #12
  %188 = extractvalue { i8*, i64 } %187, 0
  %189 = extractvalue { i8*, i64 } %187, 1
  br label %190

190:                                              ; preds = %171, %183, %186
  %191 = phi i64 [ %189, %186 ], [ %184, %183 ], [ %172, %171 ]
  %192 = phi i8* [ %188, %186 ], [ %185, %183 ], [ %173, %171 ]
  %193 = icmp ne i64 %191, 0
  %194 = zext i1 %193 to i8
  store i8 %194, i8* %26, align 2
  %195 = icmp eq i8* %192, null
  br i1 %195, label %633, label %630

196:                                              ; preds = %72
  %197 = and i32 %69, 255
  %198 = icmp eq i32 %197, 40
  br i1 %198, label %199, label %608, !prof !2

199:                                              ; preds = %196
  %200 = or i32 %32, 256
  %201 = load i8, i8* %70, align 1
  %202 = icmp slt i8 %201, 0
  br i1 %202, label %206, label %203

203:                                              ; preds = %199
  %204 = zext i8 %201 to i64
  %205 = getelementptr inbounds i8, i8* %70, i64 1
  br label %222

206:                                              ; preds = %199
  %207 = zext i8 %201 to i32
  %208 = getelementptr inbounds i8, i8* %70, i64 1
  %209 = load i8, i8* %208, align 1
  %210 = zext i8 %209 to i32
  %211 = shl nuw nsw i32 %210, 7
  %212 = add nsw i32 %207, -128
  %213 = add nuw nsw i32 %212, %211
  %214 = icmp slt i8 %209, 0
  br i1 %214, label %218, label %215

215:                                              ; preds = %206
  %216 = zext i32 %213 to i64
  %217 = getelementptr inbounds i8, i8* %70, i64 2
  br label %222

218:                                              ; preds = %206
  %219 = tail call { i8*, i64 } @_ZN6google8protobuf8internal17VarintParseSlow64EPKcj(i8* nonnull %70, i32 %213) #12
  %220 = extractvalue { i8*, i64 } %219, 0
  %221 = extractvalue { i8*, i64 } %219, 1
  br label %222

222:                                              ; preds = %203, %215, %218
  %223 = phi i64 [ %221, %218 ], [ %216, %215 ], [ %204, %203 ]
  %224 = phi i8* [ %220, %218 ], [ %217, %215 ], [ %205, %203 ]
  %225 = icmp ne i64 %223, 0
  %226 = zext i1 %225 to i8
  store i8 %226, i8* %25, align 1
  %227 = icmp eq i8* %224, null
  br i1 %227, label %633, label %630

228:                                              ; preds = %72
  %229 = and i32 %69, 255
  %230 = icmp eq i32 %229, 48
  br i1 %230, label %231, label %608, !prof !2

231:                                              ; preds = %228
  %232 = or i32 %32, 512
  %233 = load i8, i8* %70, align 1
  %234 = icmp slt i8 %233, 0
  br i1 %234, label %238, label %235

235:                                              ; preds = %231
  %236 = zext i8 %233 to i64
  %237 = getelementptr inbounds i8, i8* %70, i64 1
  br label %254

238:                                              ; preds = %231
  %239 = zext i8 %233 to i32
  %240 = getelementptr inbounds i8, i8* %70, i64 1
  %241 = load i8, i8* %240, align 1
  %242 = zext i8 %241 to i32
  %243 = shl nuw nsw i32 %242, 7
  %244 = add nsw i32 %239, -128
  %245 = add nuw nsw i32 %244, %243
  %246 = icmp slt i8 %241, 0
  br i1 %246, label %250, label %247

247:                                              ; preds = %238
  %248 = zext i32 %245 to i64
  %249 = getelementptr inbounds i8, i8* %70, i64 2
  br label %254

250:                                              ; preds = %238
  %251 = tail call { i8*, i64 } @_ZN6google8protobuf8internal17VarintParseSlow64EPKcj(i8* nonnull %70, i32 %245) #12
  %252 = extractvalue { i8*, i64 } %251, 0
  %253 = extractvalue { i8*, i64 } %251, 1
  br label %254

254:                                              ; preds = %235, %247, %250
  %255 = phi i64 [ %253, %250 ], [ %248, %247 ], [ %236, %235 ]
  %256 = phi i8* [ %252, %250 ], [ %249, %247 ], [ %237, %235 ]
  %257 = icmp ne i64 %255, 0
  %258 = zext i1 %257 to i8
  store i8 %258, i8* %24, align 4
  %259 = icmp eq i8* %256, null
  br i1 %259, label %633, label %630

260:                                              ; preds = %72
  %261 = and i32 %69, 255
  %262 = icmp eq i32 %261, 56
  br i1 %262, label %263, label %608, !prof !2

263:                                              ; preds = %260
  %264 = load i8, i8* %70, align 1
  %265 = icmp slt i8 %264, 0
  br i1 %265, label %269, label %266

266:                                              ; preds = %263
  %267 = zext i8 %264 to i64
  %268 = getelementptr inbounds i8, i8* %70, i64 1
  br label %285

269:                                              ; preds = %263
  %270 = zext i8 %264 to i32
  %271 = getelementptr inbounds i8, i8* %70, i64 1
  %272 = load i8, i8* %271, align 1
  %273 = zext i8 %272 to i32
  %274 = shl nuw nsw i32 %273, 7
  %275 = add nsw i32 %270, -128
  %276 = add nuw nsw i32 %275, %274
  %277 = icmp slt i8 %272, 0
  br i1 %277, label %281, label %278

278:                                              ; preds = %269
  %279 = zext i32 %276 to i64
  %280 = getelementptr inbounds i8, i8* %70, i64 2
  br label %285

281:                                              ; preds = %269
  %282 = tail call { i8*, i64 } @_ZN6google8protobuf8internal17VarintParseSlow64EPKcj(i8* nonnull %70, i32 %276) #12
  %283 = extractvalue { i8*, i64 } %282, 0
  %284 = extractvalue { i8*, i64 } %282, 1
  br label %285

285:                                              ; preds = %266, %278, %281
  %286 = phi i64 [ %284, %281 ], [ %279, %278 ], [ %267, %266 ]
  %287 = phi i8* [ %283, %281 ], [ %280, %278 ], [ %268, %266 ]
  %288 = icmp eq i8* %287, null
  br i1 %288, label %633, label %289, !prof !5

289:                                              ; preds = %285
  %290 = trunc i64 %286 to i32
  %291 = icmp ult i32 %290, 14
  br i1 %291, label %292, label %295, !prof !2

292:                                              ; preds = %289
  %293 = load i32, i32* %10, align 4
  %294 = or i32 %293, 1024
  store i32 %294, i32* %10, align 4
  store i32 %290, i32* %23, align 8
  br label %630

295:                                              ; preds = %289
  %296 = load i64, i64* %13, align 8
  %297 = and i64 %296, 1
  %298 = icmp eq i64 %297, 0
  br i1 %298, label %303, label %299, !prof !5

299:                                              ; preds = %295
  %300 = and i64 %296, -2
  %301 = inttoptr i64 %300 to %"struct.google::protobuf::internal::InternalMetadata::Container"*
  %302 = getelementptr inbounds %"struct.google::protobuf::internal::InternalMetadata::Container", %"struct.google::protobuf::internal::InternalMetadata::Container"* %301, i64 0, i32 1
  br label %305

303:                                              ; preds = %295
  %304 = tail call %"class.std::__1::basic_string"* @_ZN6google8protobuf8internal16InternalMetadata27mutable_unknown_fields_slowINSt3__112basic_stringIcNS4_11char_traitsIcEENS4_9allocatorIcEEEEEEPT_v(%"class.google::protobuf::internal::InternalMetadata"* %12) #12
  br label %305

305:                                              ; preds = %299, %303
  %306 = phi %"class.std::__1::basic_string"* [ %302, %299 ], [ %304, %303 ]
  tail call void @_ZN6google8protobuf8internal11WriteVarintEjmPNSt3__112basic_stringIcNS2_11char_traitsIcEENS2_9allocatorIcEEEE(i32 7, i64 %286, %"class.std::__1::basic_string"* %306) #12
  br label %630

307:                                              ; preds = %72
  %308 = and i32 %69, 255
  %309 = icmp eq i32 %308, 64
  br i1 %309, label %310, label %608, !prof !2

310:                                              ; preds = %307
  %311 = load i8, i8* %70, align 1
  %312 = icmp slt i8 %311, 0
  br i1 %312, label %316, label %313

313:                                              ; preds = %310
  %314 = zext i8 %311 to i64
  %315 = getelementptr inbounds i8, i8* %70, i64 1
  br label %332

316:                                              ; preds = %310
  %317 = zext i8 %311 to i32
  %318 = getelementptr inbounds i8, i8* %70, i64 1
  %319 = load i8, i8* %318, align 1
  %320 = zext i8 %319 to i32
  %321 = shl nuw nsw i32 %320, 7
  %322 = add nsw i32 %317, -128
  %323 = add nuw nsw i32 %322, %321
  %324 = icmp slt i8 %319, 0
  br i1 %324, label %328, label %325

325:                                              ; preds = %316
  %326 = zext i32 %323 to i64
  %327 = getelementptr inbounds i8, i8* %70, i64 2
  br label %332

328:                                              ; preds = %316
  %329 = tail call { i8*, i64 } @_ZN6google8protobuf8internal17VarintParseSlow64EPKcj(i8* nonnull %70, i32 %323) #12
  %330 = extractvalue { i8*, i64 } %329, 0
  %331 = extractvalue { i8*, i64 } %329, 1
  br label %332

332:                                              ; preds = %313, %325, %328
  %333 = phi i64 [ %331, %328 ], [ %326, %325 ], [ %314, %313 ]
  %334 = phi i8* [ %330, %328 ], [ %327, %325 ], [ %315, %313 ]
  %335 = icmp eq i8* %334, null
  br i1 %335, label %633, label %336, !prof !5

336:                                              ; preds = %332
  %337 = trunc i64 %333 to i32
  %338 = icmp ult i32 %337, 6
  br i1 %338, label %339, label %342, !prof !2

339:                                              ; preds = %336
  %340 = load i32, i32* %10, align 4
  %341 = or i32 %340, 2048
  store i32 %341, i32* %10, align 4
  store i32 %337, i32* %22, align 4
  br label %630

342:                                              ; preds = %336
  %343 = load i64, i64* %13, align 8
  %344 = and i64 %343, 1
  %345 = icmp eq i64 %344, 0
  br i1 %345, label %350, label %346, !prof !5

346:                                              ; preds = %342
  %347 = and i64 %343, -2
  %348 = inttoptr i64 %347 to %"struct.google::protobuf::internal::InternalMetadata::Container"*
  %349 = getelementptr inbounds %"struct.google::protobuf::internal::InternalMetadata::Container", %"struct.google::protobuf::internal::InternalMetadata::Container"* %348, i64 0, i32 1
  br label %352

350:                                              ; preds = %342
  %351 = tail call %"class.std::__1::basic_string"* @_ZN6google8protobuf8internal16InternalMetadata27mutable_unknown_fields_slowINSt3__112basic_stringIcNS4_11char_traitsIcEENS4_9allocatorIcEEEEEEPT_v(%"class.google::protobuf::internal::InternalMetadata"* %12) #12
  br label %352

352:                                              ; preds = %346, %350
  %353 = phi %"class.std::__1::basic_string"* [ %349, %346 ], [ %351, %350 ]
  tail call void @_ZN6google8protobuf8internal11WriteVarintEjmPNSt3__112basic_stringIcNS2_11char_traitsIcEENS2_9allocatorIcEEEE(i32 8, i64 %333, %"class.std::__1::basic_string"* %353) #12
  br label %630

354:                                              ; preds = %72
  %355 = and i32 %69, 255
  %356 = icmp eq i32 %355, 72
  br i1 %356, label %357, label %608, !prof !2

357:                                              ; preds = %354
  %358 = or i32 %32, 4096
  %359 = load i8, i8* %70, align 1
  %360 = icmp slt i8 %359, 0
  br i1 %360, label %364, label %361

361:                                              ; preds = %357
  %362 = zext i8 %359 to i64
  %363 = getelementptr inbounds i8, i8* %70, i64 1
  br label %380

364:                                              ; preds = %357
  %365 = zext i8 %359 to i32
  %366 = getelementptr inbounds i8, i8* %70, i64 1
  %367 = load i8, i8* %366, align 1
  %368 = zext i8 %367 to i32
  %369 = shl nuw nsw i32 %368, 7
  %370 = add nsw i32 %365, -128
  %371 = add nuw nsw i32 %370, %369
  %372 = icmp slt i8 %367, 0
  br i1 %372, label %376, label %373

373:                                              ; preds = %364
  %374 = zext i32 %371 to i64
  %375 = getelementptr inbounds i8, i8* %70, i64 2
  br label %380

376:                                              ; preds = %364
  %377 = tail call { i8*, i64 } @_ZN6google8protobuf8internal17VarintParseSlow64EPKcj(i8* nonnull %70, i32 %371) #12
  %378 = extractvalue { i8*, i64 } %377, 0
  %379 = extractvalue { i8*, i64 } %377, 1
  br label %380

380:                                              ; preds = %361, %373, %376
  %381 = phi i64 [ %379, %376 ], [ %374, %373 ], [ %362, %361 ]
  %382 = phi i8* [ %378, %376 ], [ %375, %373 ], [ %363, %361 ]
  store i64 %381, i64* %21, align 8
  %383 = icmp eq i8* %382, null
  br i1 %383, label %633, label %630

384:                                              ; preds = %72
  %385 = and i32 %69, 255
  %386 = icmp eq i32 %385, 80
  br i1 %386, label %387, label %608, !prof !2

387:                                              ; preds = %384
  %388 = or i32 %32, 8192
  %389 = load i8, i8* %70, align 1
  %390 = icmp slt i8 %389, 0
  br i1 %390, label %394, label %391

391:                                              ; preds = %387
  %392 = zext i8 %389 to i64
  %393 = getelementptr inbounds i8, i8* %70, i64 1
  br label %410

394:                                              ; preds = %387
  %395 = zext i8 %389 to i32
  %396 = getelementptr inbounds i8, i8* %70, i64 1
  %397 = load i8, i8* %396, align 1
  %398 = zext i8 %397 to i32
  %399 = shl nuw nsw i32 %398, 7
  %400 = add nsw i32 %395, -128
  %401 = add nuw nsw i32 %400, %399
  %402 = icmp slt i8 %397, 0
  br i1 %402, label %406, label %403

403:                                              ; preds = %394
  %404 = zext i32 %401 to i64
  %405 = getelementptr inbounds i8, i8* %70, i64 2
  br label %410

406:                                              ; preds = %394
  %407 = tail call { i8*, i64 } @_ZN6google8protobuf8internal17VarintParseSlow64EPKcj(i8* nonnull %70, i32 %401) #12
  %408 = extractvalue { i8*, i64 } %407, 0
  %409 = extractvalue { i8*, i64 } %407, 1
  br label %410

410:                                              ; preds = %391, %403, %406
  %411 = phi i64 [ %409, %406 ], [ %404, %403 ], [ %392, %391 ]
  %412 = phi i8* [ %408, %406 ], [ %405, %403 ], [ %393, %391 ]
  store i64 %411, i64* %20, align 8
  %413 = icmp eq i8* %412, null
  br i1 %413, label %633, label %630

414:                                              ; preds = %72
  %415 = and i32 %69, 255
  %416 = icmp eq i32 %415, 88
  br i1 %416, label %417, label %608, !prof !2

417:                                              ; preds = %414
  %418 = or i32 %32, 16384
  %419 = load i8, i8* %70, align 1
  %420 = icmp slt i8 %419, 0
  br i1 %420, label %424, label %421

421:                                              ; preds = %417
  %422 = zext i8 %419 to i64
  %423 = getelementptr inbounds i8, i8* %70, i64 1
  br label %440

424:                                              ; preds = %417
  %425 = zext i8 %419 to i32
  %426 = getelementptr inbounds i8, i8* %70, i64 1
  %427 = load i8, i8* %426, align 1
  %428 = zext i8 %427 to i32
  %429 = shl nuw nsw i32 %428, 7
  %430 = add nsw i32 %425, -128
  %431 = add nuw nsw i32 %430, %429
  %432 = icmp slt i8 %427, 0
  br i1 %432, label %436, label %433

433:                                              ; preds = %424
  %434 = zext i32 %431 to i64
  %435 = getelementptr inbounds i8, i8* %70, i64 2
  br label %440

436:                                              ; preds = %424
  %437 = tail call { i8*, i64 } @_ZN6google8protobuf8internal17VarintParseSlow64EPKcj(i8* nonnull %70, i32 %431) #12
  %438 = extractvalue { i8*, i64 } %437, 0
  %439 = extractvalue { i8*, i64 } %437, 1
  br label %440

440:                                              ; preds = %421, %433, %436
  %441 = phi i64 [ %439, %436 ], [ %434, %433 ], [ %422, %421 ]
  %442 = phi i8* [ %438, %436 ], [ %435, %433 ], [ %423, %421 ]
  store i64 %441, i64* %19, align 8
  %443 = icmp eq i8* %442, null
  br i1 %443, label %633, label %630

444:                                              ; preds = %72
  %445 = and i32 %69, 255
  %446 = icmp eq i32 %445, 96
  br i1 %446, label %447, label %608, !prof !2

447:                                              ; preds = %444
  %448 = or i32 %32, 32768
  %449 = load i8, i8* %70, align 1
  %450 = icmp slt i8 %449, 0
  br i1 %450, label %454, label %451

451:                                              ; preds = %447
  %452 = zext i8 %449 to i64
  %453 = getelementptr inbounds i8, i8* %70, i64 1
  br label %470

454:                                              ; preds = %447
  %455 = zext i8 %449 to i32
  %456 = getelementptr inbounds i8, i8* %70, i64 1
  %457 = load i8, i8* %456, align 1
  %458 = zext i8 %457 to i32
  %459 = shl nuw nsw i32 %458, 7
  %460 = add nsw i32 %455, -128
  %461 = add nuw nsw i32 %460, %459
  %462 = icmp slt i8 %457, 0
  br i1 %462, label %466, label %463

463:                                              ; preds = %454
  %464 = zext i32 %461 to i64
  %465 = getelementptr inbounds i8, i8* %70, i64 2
  br label %470

466:                                              ; preds = %454
  %467 = tail call { i8*, i64 } @_ZN6google8protobuf8internal17VarintParseSlow64EPKcj(i8* nonnull %70, i32 %461) #12
  %468 = extractvalue { i8*, i64 } %467, 0
  %469 = extractvalue { i8*, i64 } %467, 1
  br label %470

470:                                              ; preds = %451, %463, %466
  %471 = phi i64 [ %469, %466 ], [ %464, %463 ], [ %452, %451 ]
  %472 = phi i8* [ %468, %466 ], [ %465, %463 ], [ %453, %451 ]
  store i64 %471, i64* %18, align 8
  %473 = icmp eq i8* %472, null
  br i1 %473, label %633, label %630

474:                                              ; preds = %72
  %475 = and i32 %69, 255
  %476 = icmp eq i32 %475, 104
  br i1 %476, label %477, label %608, !prof !2

477:                                              ; preds = %474
  %478 = or i32 %32, 65536
  %479 = load i8, i8* %70, align 1
  %480 = icmp slt i8 %479, 0
  br i1 %480, label %484, label %481

481:                                              ; preds = %477
  %482 = zext i8 %479 to i64
  %483 = getelementptr inbounds i8, i8* %70, i64 1
  br label %500

484:                                              ; preds = %477
  %485 = zext i8 %479 to i32
  %486 = getelementptr inbounds i8, i8* %70, i64 1
  %487 = load i8, i8* %486, align 1
  %488 = zext i8 %487 to i32
  %489 = shl nuw nsw i32 %488, 7
  %490 = add nsw i32 %485, -128
  %491 = add nuw nsw i32 %490, %489
  %492 = icmp slt i8 %487, 0
  br i1 %492, label %496, label %493

493:                                              ; preds = %484
  %494 = zext i32 %491 to i64
  %495 = getelementptr inbounds i8, i8* %70, i64 2
  br label %500

496:                                              ; preds = %484
  %497 = tail call { i8*, i64 } @_ZN6google8protobuf8internal17VarintParseSlow64EPKcj(i8* nonnull %70, i32 %491) #12
  %498 = extractvalue { i8*, i64 } %497, 0
  %499 = extractvalue { i8*, i64 } %497, 1
  br label %500

500:                                              ; preds = %481, %493, %496
  %501 = phi i64 [ %499, %496 ], [ %494, %493 ], [ %482, %481 ]
  %502 = phi i8* [ %498, %496 ], [ %495, %493 ], [ %483, %481 ]
  store i64 %501, i64* %17, align 8
  %503 = icmp eq i8* %502, null
  br i1 %503, label %633, label %630

504:                                              ; preds = %72
  %505 = and i32 %69, 255
  %506 = icmp eq i32 %505, 114
  br i1 %506, label %507, label %608, !prof !2

507:                                              ; preds = %504
  %508 = load i32, i32* %10, align 4
  %509 = or i32 %508, 2
  store i32 %509, i32* %10, align 4
  %510 = load %"class.perfetto::protos::BeginImplFrameArgs"*, %"class.perfetto::protos::BeginImplFrameArgs"** %16, align 8
  %511 = icmp eq %"class.perfetto::protos::BeginImplFrameArgs"* %510, null
  br i1 %511, label %512, label %526

512:                                              ; preds = %507
  %513 = load i64, i64* %13, align 8
  %514 = and i64 %513, 1
  %515 = icmp eq i64 %514, 0
  %516 = and i64 %513, -2
  br i1 %515, label %521, label %517, !prof !2

517:                                              ; preds = %512
  %518 = inttoptr i64 %516 to %"struct.google::protobuf::internal::InternalMetadata::ContainerBase"*
  %519 = getelementptr inbounds %"struct.google::protobuf::internal::InternalMetadata::ContainerBase", %"struct.google::protobuf::internal::InternalMetadata::ContainerBase"* %518, i64 0, i32 0
  %520 = load %"class.google::protobuf::Arena"*, %"class.google::protobuf::Arena"** %519, align 8
  br label %523

521:                                              ; preds = %512
  %522 = inttoptr i64 %516 to %"class.google::protobuf::Arena"*
  br label %523

523:                                              ; preds = %521, %517
  %524 = phi %"class.google::protobuf::Arena"* [ %520, %517 ], [ %522, %521 ]
  %525 = tail call %"class.perfetto::protos::BeginImplFrameArgs"* @_ZN6google8protobuf5Arena18CreateMaybeMessageIN8perfetto6protos18BeginImplFrameArgsEJEEEPT_PS1_DpOT0_(%"class.google::protobuf::Arena"* %524) #12
  store %"class.perfetto::protos::BeginImplFrameArgs"* %525, %"class.perfetto::protos::BeginImplFrameArgs"** %16, align 8
  br label %526

526:                                              ; preds = %507, %523
  %527 = phi %"class.perfetto::protos::BeginImplFrameArgs"* [ %525, %523 ], [ %510, %507 ]
  %528 = tail call i8* @_ZN6google8protobuf8internal12ParseContext12ParseMessageIN8perfetto6protos18BeginImplFrameArgsEEEPKcPT_S8_(%"class.google::protobuf::internal::ParseContext"* %2, %"class.perfetto::protos::BeginImplFrameArgs"* %527, i8* nonnull %70)
  %529 = icmp eq i8* %528, null
  br i1 %529, label %633, label %630

530:                                              ; preds = %72
  %531 = and i32 %69, 255
  %532 = icmp eq i32 %531, 122
  br i1 %532, label %533, label %608, !prof !2

533:                                              ; preds = %530
  %534 = load i32, i32* %10, align 4
  %535 = or i32 %534, 4
  store i32 %535, i32* %10, align 4
  %536 = load %"class.perfetto::protos::BeginFrameObserverState"*, %"class.perfetto::protos::BeginFrameObserverState"** %15, align 8
  %537 = icmp eq %"class.perfetto::protos::BeginFrameObserverState"* %536, null
  br i1 %537, label %538, label %552

538:                                              ; preds = %533
  %539 = load i64, i64* %13, align 8
  %540 = and i64 %539, 1
  %541 = icmp eq i64 %540, 0
  %542 = and i64 %539, -2
  br i1 %541, label %547, label %543, !prof !2

543:                                              ; preds = %538
  %544 = inttoptr i64 %542 to %"struct.google::protobuf::internal::InternalMetadata::ContainerBase"*
  %545 = getelementptr inbounds %"struct.google::protobuf::internal::InternalMetadata::ContainerBase", %"struct.google::protobuf::internal::InternalMetadata::ContainerBase"* %544, i64 0, i32 0
  %546 = load %"class.google::protobuf::Arena"*, %"class.google::protobuf::Arena"** %545, align 8
  br label %549

547:                                              ; preds = %538
  %548 = inttoptr i64 %542 to %"class.google::protobuf::Arena"*
  br label %549

549:                                              ; preds = %547, %543
  %550 = phi %"class.google::protobuf::Arena"* [ %546, %543 ], [ %548, %547 ]
  %551 = tail call %"class.perfetto::protos::BeginFrameObserverState"* @_ZN6google8protobuf5Arena18CreateMaybeMessageIN8perfetto6protos23BeginFrameObserverStateEJEEEPT_PS1_DpOT0_(%"class.google::protobuf::Arena"* %550) #12
  store %"class.perfetto::protos::BeginFrameObserverState"* %551, %"class.perfetto::protos::BeginFrameObserverState"** %15, align 8
  br label %552

552:                                              ; preds = %533, %549
  %553 = phi %"class.perfetto::protos::BeginFrameObserverState"* [ %551, %549 ], [ %536, %533 ]
  %554 = tail call i8* @_ZN6google8protobuf8internal12ParseContext12ParseMessageIN8perfetto6protos23BeginFrameObserverStateEEEPKcPT_S8_(%"class.google::protobuf::internal::ParseContext"* %2, %"class.perfetto::protos::BeginFrameObserverState"* %553, i8* nonnull %70)
  %555 = icmp eq i8* %554, null
  br i1 %555, label %633, label %630

556:                                              ; preds = %72
  %557 = and i32 %69, 255
  %558 = icmp eq i32 %557, 130
  br i1 %558, label %559, label %608, !prof !2

559:                                              ; preds = %556
  %560 = load i32, i32* %10, align 4
  %561 = or i32 %560, 8
  store i32 %561, i32* %10, align 4
  %562 = load %"class.perfetto::protos::BeginFrameSourceState"*, %"class.perfetto::protos::BeginFrameSourceState"** %14, align 8
  %563 = icmp eq %"class.perfetto::protos::BeginFrameSourceState"* %562, null
  br i1 %563, label %564, label %578

564:                                              ; preds = %559
  %565 = load i64, i64* %13, align 8
  %566 = and i64 %565, 1
  %567 = icmp eq i64 %566, 0
  %568 = and i64 %565, -2
  br i1 %567, label %573, label %569, !prof !2

569:                                              ; preds = %564
  %570 = inttoptr i64 %568 to %"struct.google::protobuf::internal::InternalMetadata::ContainerBase"*
  %571 = getelementptr inbounds %"struct.google::protobuf::internal::InternalMetadata::ContainerBase", %"struct.google::protobuf::internal::InternalMetadata::ContainerBase"* %570, i64 0, i32 0
  %572 = load %"class.google::protobuf::Arena"*, %"class.google::protobuf::Arena"** %571, align 8
  br label %575

573:                                              ; preds = %564
  %574 = inttoptr i64 %568 to %"class.google::protobuf::Arena"*
  br label %575

575:                                              ; preds = %573, %569
  %576 = phi %"class.google::protobuf::Arena"* [ %572, %569 ], [ %574, %573 ]
  %577 = tail call %"class.perfetto::protos::BeginFrameSourceState"* @_ZN6google8protobuf5Arena18CreateMaybeMessageIN8perfetto6protos21BeginFrameSourceStateEJEEEPT_PS1_DpOT0_(%"class.google::protobuf::Arena"* %576) #12
  store %"class.perfetto::protos::BeginFrameSourceState"* %577, %"class.perfetto::protos::BeginFrameSourceState"** %14, align 8
  br label %578

578:                                              ; preds = %559, %575
  %579 = phi %"class.perfetto::protos::BeginFrameSourceState"* [ %577, %575 ], [ %562, %559 ]
  %580 = tail call i8* @_ZN6google8protobuf8internal12ParseContext12ParseMessageIN8perfetto6protos21BeginFrameSourceStateEEEPKcPT_S8_(%"class.google::protobuf::internal::ParseContext"* %2, %"class.perfetto::protos::BeginFrameSourceState"* %579, i8* nonnull %70)
  %581 = icmp eq i8* %580, null
  br i1 %581, label %633, label %630

582:                                              ; preds = %72
  %583 = and i32 %69, 255
  %584 = icmp eq i32 %583, 138
  br i1 %584, label %585, label %608, !prof !2

585:                                              ; preds = %582
  %586 = load i32, i32* %10, align 4
  %587 = or i32 %586, 16
  store i32 %587, i32* %10, align 4
  %588 = load %"class.perfetto::protos::CompositorTimingHistory"*, %"class.perfetto::protos::CompositorTimingHistory"** %11, align 8
  %589 = icmp eq %"class.perfetto::protos::CompositorTimingHistory"* %588, null
  br i1 %589, label %590, label %604

590:                                              ; preds = %585
  %591 = load i64, i64* %13, align 8
  %592 = and i64 %591, 1
  %593 = icmp eq i64 %592, 0
  %594 = and i64 %591, -2
  br i1 %593, label %599, label %595, !prof !2

595:                                              ; preds = %590
  %596 = inttoptr i64 %594 to %"struct.google::protobuf::internal::InternalMetadata::ContainerBase"*
  %597 = getelementptr inbounds %"struct.google::protobuf::internal::InternalMetadata::ContainerBase", %"struct.google::protobuf::internal::InternalMetadata::ContainerBase"* %596, i64 0, i32 0
  %598 = load %"class.google::protobuf::Arena"*, %"class.google::protobuf::Arena"** %597, align 8
  br label %601

599:                                              ; preds = %590
  %600 = inttoptr i64 %594 to %"class.google::protobuf::Arena"*
  br label %601

601:                                              ; preds = %599, %595
  %602 = phi %"class.google::protobuf::Arena"* [ %598, %595 ], [ %600, %599 ]
  %603 = tail call %"class.perfetto::protos::CompositorTimingHistory"* @_ZN6google8protobuf5Arena18CreateMaybeMessageIN8perfetto6protos23CompositorTimingHistoryEJEEEPT_PS1_DpOT0_(%"class.google::protobuf::Arena"* %602) #12
  store %"class.perfetto::protos::CompositorTimingHistory"* %603, %"class.perfetto::protos::CompositorTimingHistory"** %11, align 8
  br label %604

604:                                              ; preds = %585, %601
  %605 = phi %"class.perfetto::protos::CompositorTimingHistory"* [ %603, %601 ], [ %588, %585 ]
  %606 = tail call i8* @_ZN6google8protobuf8internal12ParseContext12ParseMessageIN8perfetto6protos23CompositorTimingHistoryEEEPKcPT_S8_(%"class.google::protobuf::internal::ParseContext"* %2, %"class.perfetto::protos::CompositorTimingHistory"* %605, i8* nonnull %70)
  %607 = icmp eq i8* %606, null
  br i1 %607, label %633, label %630

608:                                              ; preds = %72, %582, %556, %530, %504, %474, %444, %414, %384, %354, %307, %260, %228, %196, %164, %132, %100, %74
  %609 = and i32 %69, 7
  %610 = icmp eq i32 %609, 4
  %611 = icmp eq i32 %69, 0
  %612 = or i1 %611, %610
  br i1 %612, label %613, label %616

613:                                              ; preds = %608
  %614 = add i32 %69, -1
  %615 = getelementptr inbounds %"class.google::protobuf::internal::ParseContext", %"class.google::protobuf::internal::ParseContext"* %2, i64 0, i32 0, i32 8
  store i32 %614, i32* %615, align 8
  br label %633

616:                                              ; preds = %608
  %617 = load i64, i64* %13, align 8
  %618 = and i64 %617, 1
  %619 = icmp eq i64 %618, 0
  br i1 %619, label %624, label %620, !prof !5

620:                                              ; preds = %616
  %621 = and i64 %617, -2
  %622 = inttoptr i64 %621 to %"struct.google::protobuf::internal::InternalMetadata::Container"*
  %623 = getelementptr inbounds %"struct.google::protobuf::internal::InternalMetadata::Container", %"struct.google::protobuf::internal::InternalMetadata::Container"* %622, i64 0, i32 1
  br label %626

624:                                              ; preds = %616
  %625 = tail call %"class.std::__1::basic_string"* @_ZN6google8protobuf8internal16InternalMetadata27mutable_unknown_fields_slowINSt3__112basic_stringIcNS4_11char_traitsIcEENS4_9allocatorIcEEEEEEPT_v(%"class.google::protobuf::internal::InternalMetadata"* %12) #12
  br label %626

626:                                              ; preds = %620, %624
  %627 = phi %"class.std::__1::basic_string"* [ %623, %620 ], [ %625, %624 ]
  %628 = tail call i8* @_ZN6google8protobuf8internal17UnknownFieldParseEjPNSt3__112basic_stringIcNS2_11char_traitsIcEENS2_9allocatorIcEEEEPKcPNS1_12ParseContextE(i32 %69, %"class.std::__1::basic_string"* %627, i8* nonnull %70, %"class.google::protobuf::internal::ParseContext"* %2) #12
  %629 = icmp eq i8* %628, null
  br i1 %629, label %633, label %630

630:                                              ; preds = %626, %604, %578, %552, %526, %500, %470, %440, %410, %380, %254, %222, %190, %158, %126, %96, %352, %339, %305, %292
  %631 = phi i8* [ %628, %626 ], [ %606, %604 ], [ %580, %578 ], [ %554, %552 ], [ %528, %526 ], [ %502, %500 ], [ %472, %470 ], [ %442, %440 ], [ %412, %410 ], [ %382, %380 ], [ %256, %254 ], [ %224, %222 ], [ %192, %190 ], [ %160, %158 ], [ %128, %126 ], [ %98, %96 ], [ %287, %292 ], [ %287, %305 ], [ %334, %339 ], [ %334, %352 ]
  %632 = phi i32 [ %32, %626 ], [ %32, %604 ], [ %32, %578 ], [ %32, %552 ], [ %32, %526 ], [ %478, %500 ], [ %448, %470 ], [ %418, %440 ], [ %388, %410 ], [ %358, %380 ], [ %232, %254 ], [ %200, %222 ], [ %168, %190 ], [ %136, %158 ], [ %104, %126 ], [ %32, %96 ], [ %32, %292 ], [ %32, %305 ], [ %32, %339 ], [ %32, %352 ]
  br label %30

633:                                              ; preds = %43, %626, %604, %578, %552, %526, %500, %470, %440, %410, %380, %254, %222, %190, %158, %126, %96, %36, %68, %285, %332, %613
  %634 = phi i8* [ %70, %613 ], [ null, %626 ], [ null, %604 ], [ null, %578 ], [ null, %552 ], [ null, %526 ], [ null, %500 ], [ null, %470 ], [ null, %440 ], [ null, %410 ], [ null, %380 ], [ null, %254 ], [ null, %222 ], [ null, %190 ], [ null, %158 ], [ null, %126 ], [ null, %96 ], [ %31, %36 ], [ null, %332 ], [ null, %285 ], [ null, %68 ], [ %45, %43 ]
  %635 = phi i32 [ %32, %613 ], [ %32, %626 ], [ %32, %604 ], [ %32, %578 ], [ %32, %552 ], [ %32, %526 ], [ %478, %500 ], [ %448, %470 ], [ %418, %440 ], [ %388, %410 ], [ %358, %380 ], [ %232, %254 ], [ %200, %222 ], [ %168, %190 ], [ %136, %158 ], [ %104, %126 ], [ %32, %96 ], [ %32, %36 ], [ %32, %332 ], [ %32, %285 ], [ %32, %68 ], [ %32, %43 ]
  %636 = load i32, i32* %10, align 4
  %637 = or i32 %636, %635
  store i32 %637, i32* %10, align 4
  ret i8* %634
}

; Function Attrs: nounwind ssp uwtable
define linkonce_odr hidden i8* @_ZN6google8protobuf8internal12ParseContext12ParseMessageIN8perfetto6protos28ChromeCompositorStateMachineEEEPKcPT_S8_(%"class.google::protobuf::internal::ParseContext"*, %"class.perfetto::protos::ChromeCompositorStateMachine"*, i8*) local_unnamed_addr #0 comdat align 2 {
  %4 = load i8, i8* %2, align 1
  %5 = zext i8 %4 to i32
  %6 = icmp sgt i8 %4, -1
  br i1 %6, label %7, label %9

7:                                                ; preds = %3
  %8 = getelementptr inbounds i8, i8* %2, i64 1
  br label %13

9:                                                ; preds = %3
  %10 = tail call { i8*, i32 } @_ZN6google8protobuf8internal16ReadSizeFallbackEPKcj(i8* %2, i32 %5) #12
  %11 = extractvalue { i8*, i32 } %10, 0
  %12 = extractvalue { i8*, i32 } %10, 1
  br label %13

13:                                               ; preds = %7, %9
  %14 = phi i8* [ %11, %9 ], [ %8, %7 ]
  %15 = phi i32 [ %12, %9 ], [ %5, %7 ]
  %16 = icmp eq i8* %14, null
  br i1 %16, label %55, label %17

17:                                               ; preds = %13
  %18 = getelementptr inbounds %"class.google::protobuf::internal::ParseContext", %"class.google::protobuf::internal::ParseContext"* %0, i64 0, i32 0, i32 1
  %19 = bitcast i8** %18 to i64*
  %20 = load i64, i64* %19, align 8
  %21 = ptrtoint i8* %14 to i64
  %22 = sub i64 %21, %20
  %23 = trunc i64 %22 to i32
  %24 = add nsw i32 %15, %23
  %25 = inttoptr i64 %20 to i8*
  %26 = icmp slt i32 %24, 0
  %27 = select i1 %26, i32 %24, i32 0
  %28 = sext i32 %27 to i64
  %29 = getelementptr inbounds i8, i8* %25, i64 %28
  %30 = getelementptr inbounds %"class.google::protobuf::internal::ParseContext", %"class.google::protobuf::internal::ParseContext"* %0, i64 0, i32 0, i32 0
  store i8* %29, i8** %30, align 8
  %31 = getelementptr inbounds %"class.google::protobuf::internal::ParseContext", %"class.google::protobuf::internal::ParseContext"* %0, i64 0, i32 0, i32 4
  %32 = load i32, i32* %31, align 4
  store i32 %24, i32* %31, align 4
  %33 = sub nsw i32 %32, %24
  %34 = getelementptr inbounds %"class.google::protobuf::internal::ParseContext", %"class.google::protobuf::internal::ParseContext"* %0, i64 0, i32 1
  %35 = load i32, i32* %34, align 8
  %36 = add nsw i32 %35, -1
  store i32 %36, i32* %34, align 8
  %37 = icmp slt i32 %35, 1
  br i1 %37, label %55, label %38

38:                                               ; preds = %17
  %39 = tail call i8* @_ZN8perfetto6protos28ChromeCompositorStateMachine14_InternalParseEPKcPN6google8protobuf8internal12ParseContextE(%"class.perfetto::protos::ChromeCompositorStateMachine"* %1, i8* nonnull %14, %"class.google::protobuf::internal::ParseContext"* %0)
  %40 = icmp eq i8* %39, null
  br i1 %40, label %55, label %41, !prof !5

41:                                               ; preds = %38
  %42 = load i32, i32* %34, align 8
  %43 = add nsw i32 %42, 1
  store i32 %43, i32* %34, align 8
  %44 = getelementptr inbounds %"class.google::protobuf::internal::ParseContext", %"class.google::protobuf::internal::ParseContext"* %0, i64 0, i32 0, i32 8
  %45 = load i32, i32* %44, align 8
  %46 = icmp eq i32 %45, 0
  br i1 %46, label %47, label %55, !prof !2

47:                                               ; preds = %41
  %48 = load i32, i32* %31, align 4
  %49 = add nsw i32 %48, %33
  store i32 %49, i32* %31, align 4
  %50 = load i8*, i8** %18, align 8
  %51 = icmp slt i32 %49, 0
  %52 = select i1 %51, i32 %49, i32 0
  %53 = sext i32 %52 to i64
  %54 = getelementptr inbounds i8, i8* %50, i64 %53
  store i8* %54, i8** %30, align 8
  br label %55

55:                                               ; preds = %13, %38, %17, %41, %47
  %56 = phi i8* [ %39, %47 ], [ null, %41 ], [ null, %17 ], [ null, %38 ], [ null, %13 ]
  ret i8* %56
}

declare void @_ZN6google8protobuf8internal11WriteVarintEjmPNSt3__112basic_stringIcNS2_11char_traitsIcEENS2_9allocatorIcEEEE(i32, i64, %"class.std::__1::basic_string"*) local_unnamed_addr #4

; Function Attrs: nounwind ssp uwtable
define linkonce_odr hidden i8* @_ZN6google8protobuf8internal12ParseContext12ParseMessageIN8perfetto6protos18BeginImplFrameArgsEEEPKcPT_S8_(%"class.google::protobuf::internal::ParseContext"*, %"class.perfetto::protos::BeginImplFrameArgs"*, i8*) local_unnamed_addr #0 comdat align 2 {
  %4 = load i8, i8* %2, align 1
  %5 = zext i8 %4 to i32
  %6 = icmp sgt i8 %4, -1
  br i1 %6, label %7, label %9

7:                                                ; preds = %3
  %8 = getelementptr inbounds i8, i8* %2, i64 1
  br label %13

9:                                                ; preds = %3
  %10 = tail call { i8*, i32 } @_ZN6google8protobuf8internal16ReadSizeFallbackEPKcj(i8* %2, i32 %5) #12
  %11 = extractvalue { i8*, i32 } %10, 0
  %12 = extractvalue { i8*, i32 } %10, 1
  br label %13

13:                                               ; preds = %7, %9
  %14 = phi i8* [ %11, %9 ], [ %8, %7 ]
  %15 = phi i32 [ %12, %9 ], [ %5, %7 ]
  %16 = icmp eq i8* %14, null
  br i1 %16, label %55, label %17

17:                                               ; preds = %13
  %18 = getelementptr inbounds %"class.google::protobuf::internal::ParseContext", %"class.google::protobuf::internal::ParseContext"* %0, i64 0, i32 0, i32 1
  %19 = bitcast i8** %18 to i64*
  %20 = load i64, i64* %19, align 8
  %21 = ptrtoint i8* %14 to i64
  %22 = sub i64 %21, %20
  %23 = trunc i64 %22 to i32
  %24 = add nsw i32 %15, %23
  %25 = inttoptr i64 %20 to i8*
  %26 = icmp slt i32 %24, 0
  %27 = select i1 %26, i32 %24, i32 0
  %28 = sext i32 %27 to i64
  %29 = getelementptr inbounds i8, i8* %25, i64 %28
  %30 = getelementptr inbounds %"class.google::protobuf::internal::ParseContext", %"class.google::protobuf::internal::ParseContext"* %0, i64 0, i32 0, i32 0
  store i8* %29, i8** %30, align 8
  %31 = getelementptr inbounds %"class.google::protobuf::internal::ParseContext", %"class.google::protobuf::internal::ParseContext"* %0, i64 0, i32 0, i32 4
  %32 = load i32, i32* %31, align 4
  store i32 %24, i32* %31, align 4
  %33 = sub nsw i32 %32, %24
  %34 = getelementptr inbounds %"class.google::protobuf::internal::ParseContext", %"class.google::protobuf::internal::ParseContext"* %0, i64 0, i32 1
  %35 = load i32, i32* %34, align 8
  %36 = add nsw i32 %35, -1
  store i32 %36, i32* %34, align 8
  %37 = icmp slt i32 %35, 1
  br i1 %37, label %55, label %38

38:                                               ; preds = %17
  %39 = tail call i8* @_ZN8perfetto6protos18BeginImplFrameArgs14_InternalParseEPKcPN6google8protobuf8internal12ParseContextE(%"class.perfetto::protos::BeginImplFrameArgs"* %1, i8* nonnull %14, %"class.google::protobuf::internal::ParseContext"* %0)
  %40 = icmp eq i8* %39, null
  br i1 %40, label %55, label %41, !prof !5

41:                                               ; preds = %38
  %42 = load i32, i32* %34, align 8
  %43 = add nsw i32 %42, 1
  store i32 %43, i32* %34, align 8
  %44 = getelementptr inbounds %"class.google::protobuf::internal::ParseContext", %"class.google::protobuf::internal::ParseContext"* %0, i64 0, i32 0, i32 8
  %45 = load i32, i32* %44, align 8
  %46 = icmp eq i32 %45, 0
  br i1 %46, label %47, label %55, !prof !2

47:                                               ; preds = %41
  %48 = load i32, i32* %31, align 4
  %49 = add nsw i32 %48, %33
  store i32 %49, i32* %31, align 4
  %50 = load i8*, i8** %18, align 8
  %51 = icmp slt i32 %49, 0
  %52 = select i1 %51, i32 %49, i32 0
  %53 = sext i32 %52 to i64
  %54 = getelementptr inbounds i8, i8* %50, i64 %53
  store i8* %54, i8** %30, align 8
  br label %55

55:                                               ; preds = %13, %38, %17, %41, %47
  %56 = phi i8* [ %39, %47 ], [ null, %41 ], [ null, %17 ], [ null, %38 ], [ null, %13 ]
  ret i8* %56
}

; Function Attrs: nounwind ssp uwtable
define linkonce_odr hidden i8* @_ZN6google8protobuf8internal12ParseContext12ParseMessageIN8perfetto6protos23BeginFrameObserverStateEEEPKcPT_S8_(%"class.google::protobuf::internal::ParseContext"*, %"class.perfetto::protos::BeginFrameObserverState"*, i8*) local_unnamed_addr #0 comdat align 2 {
  %4 = load i8, i8* %2, align 1
  %5 = zext i8 %4 to i32
  %6 = icmp sgt i8 %4, -1
  br i1 %6, label %7, label %9

7:                                                ; preds = %3
  %8 = getelementptr inbounds i8, i8* %2, i64 1
  br label %13

9:                                                ; preds = %3
  %10 = tail call { i8*, i32 } @_ZN6google8protobuf8internal16ReadSizeFallbackEPKcj(i8* %2, i32 %5) #12
  %11 = extractvalue { i8*, i32 } %10, 0
  %12 = extractvalue { i8*, i32 } %10, 1
  br label %13

13:                                               ; preds = %7, %9
  %14 = phi i8* [ %11, %9 ], [ %8, %7 ]
  %15 = phi i32 [ %12, %9 ], [ %5, %7 ]
  %16 = icmp eq i8* %14, null
  br i1 %16, label %55, label %17

17:                                               ; preds = %13
  %18 = getelementptr inbounds %"class.google::protobuf::internal::ParseContext", %"class.google::protobuf::internal::ParseContext"* %0, i64 0, i32 0, i32 1
  %19 = bitcast i8** %18 to i64*
  %20 = load i64, i64* %19, align 8
  %21 = ptrtoint i8* %14 to i64
  %22 = sub i64 %21, %20
  %23 = trunc i64 %22 to i32
  %24 = add nsw i32 %15, %23
  %25 = inttoptr i64 %20 to i8*
  %26 = icmp slt i32 %24, 0
  %27 = select i1 %26, i32 %24, i32 0
  %28 = sext i32 %27 to i64
  %29 = getelementptr inbounds i8, i8* %25, i64 %28
  %30 = getelementptr inbounds %"class.google::protobuf::internal::ParseContext", %"class.google::protobuf::internal::ParseContext"* %0, i64 0, i32 0, i32 0
  store i8* %29, i8** %30, align 8
  %31 = getelementptr inbounds %"class.google::protobuf::internal::ParseContext", %"class.google::protobuf::internal::ParseContext"* %0, i64 0, i32 0, i32 4
  %32 = load i32, i32* %31, align 4
  store i32 %24, i32* %31, align 4
  %33 = sub nsw i32 %32, %24
  %34 = getelementptr inbounds %"class.google::protobuf::internal::ParseContext", %"class.google::protobuf::internal::ParseContext"* %0, i64 0, i32 1
  %35 = load i32, i32* %34, align 8
  %36 = add nsw i32 %35, -1
  store i32 %36, i32* %34, align 8
  %37 = icmp slt i32 %35, 1
  br i1 %37, label %55, label %38

38:                                               ; preds = %17
  %39 = tail call i8* @_ZN8perfetto6protos23BeginFrameObserverState14_InternalParseEPKcPN6google8protobuf8internal12ParseContextE(%"class.perfetto::protos::BeginFrameObserverState"* %1, i8* nonnull %14, %"class.google::protobuf::internal::ParseContext"* %0)
  %40 = icmp eq i8* %39, null
  br i1 %40, label %55, label %41, !prof !5

41:                                               ; preds = %38
  %42 = load i32, i32* %34, align 8
  %43 = add nsw i32 %42, 1
  store i32 %43, i32* %34, align 8
  %44 = getelementptr inbounds %"class.google::protobuf::internal::ParseContext", %"class.google::protobuf::internal::ParseContext"* %0, i64 0, i32 0, i32 8
  %45 = load i32, i32* %44, align 8
  %46 = icmp eq i32 %45, 0
  br i1 %46, label %47, label %55, !prof !2

47:                                               ; preds = %41
  %48 = load i32, i32* %31, align 4
  %49 = add nsw i32 %48, %33
  store i32 %49, i32* %31, align 4
  %50 = load i8*, i8** %18, align 8
  %51 = icmp slt i32 %49, 0
  %52 = select i1 %51, i32 %49, i32 0
  %53 = sext i32 %52 to i64
  %54 = getelementptr inbounds i8, i8* %50, i64 %53
  store i8* %54, i8** %30, align 8
  br label %55

55:                                               ; preds = %13, %38, %17, %41, %47
  %56 = phi i8* [ %39, %47 ], [ null, %41 ], [ null, %17 ], [ null, %38 ], [ null, %13 ]
  ret i8* %56
}

; Function Attrs: nounwind ssp uwtable
define linkonce_odr hidden i8* @_ZN6google8protobuf8internal12ParseContext12ParseMessageIN8perfetto6protos21BeginFrameSourceStateEEEPKcPT_S8_(%"class.google::protobuf::internal::ParseContext"*, %"class.perfetto::protos::BeginFrameSourceState"*, i8*) local_unnamed_addr #0 comdat align 2 {
  %4 = load i8, i8* %2, align 1
  %5 = zext i8 %4 to i32
  %6 = icmp sgt i8 %4, -1
  br i1 %6, label %7, label %9

7:                                                ; preds = %3
  %8 = getelementptr inbounds i8, i8* %2, i64 1
  br label %13

9:                                                ; preds = %3
  %10 = tail call { i8*, i32 } @_ZN6google8protobuf8internal16ReadSizeFallbackEPKcj(i8* %2, i32 %5) #12
  %11 = extractvalue { i8*, i32 } %10, 0
  %12 = extractvalue { i8*, i32 } %10, 1
  br label %13

13:                                               ; preds = %7, %9
  %14 = phi i8* [ %11, %9 ], [ %8, %7 ]
  %15 = phi i32 [ %12, %9 ], [ %5, %7 ]
  %16 = icmp eq i8* %14, null
  br i1 %16, label %55, label %17

17:                                               ; preds = %13
  %18 = getelementptr inbounds %"class.google::protobuf::internal::ParseContext", %"class.google::protobuf::internal::ParseContext"* %0, i64 0, i32 0, i32 1
  %19 = bitcast i8** %18 to i64*
  %20 = load i64, i64* %19, align 8
  %21 = ptrtoint i8* %14 to i64
  %22 = sub i64 %21, %20
  %23 = trunc i64 %22 to i32
  %24 = add nsw i32 %15, %23
  %25 = inttoptr i64 %20 to i8*
  %26 = icmp slt i32 %24, 0
  %27 = select i1 %26, i32 %24, i32 0
  %28 = sext i32 %27 to i64
  %29 = getelementptr inbounds i8, i8* %25, i64 %28
  %30 = getelementptr inbounds %"class.google::protobuf::internal::ParseContext", %"class.google::protobuf::internal::ParseContext"* %0, i64 0, i32 0, i32 0
  store i8* %29, i8** %30, align 8
  %31 = getelementptr inbounds %"class.google::protobuf::internal::ParseContext", %"class.google::protobuf::internal::ParseContext"* %0, i64 0, i32 0, i32 4
  %32 = load i32, i32* %31, align 4
  store i32 %24, i32* %31, align 4
  %33 = sub nsw i32 %32, %24
  %34 = getelementptr inbounds %"class.google::protobuf::internal::ParseContext", %"class.google::protobuf::internal::ParseContext"* %0, i64 0, i32 1
  %35 = load i32, i32* %34, align 8
  %36 = add nsw i32 %35, -1
  store i32 %36, i32* %34, align 8
  %37 = icmp slt i32 %35, 1
  br i1 %37, label %55, label %38

38:                                               ; preds = %17
  %39 = tail call i8* @_ZN8perfetto6protos21BeginFrameSourceState14_InternalParseEPKcPN6google8protobuf8internal12ParseContextE(%"class.perfetto::protos::BeginFrameSourceState"* %1, i8* nonnull %14, %"class.google::protobuf::internal::ParseContext"* %0)
  %40 = icmp eq i8* %39, null
  br i1 %40, label %55, label %41, !prof !5

41:                                               ; preds = %38
  %42 = load i32, i32* %34, align 8
  %43 = add nsw i32 %42, 1
  store i32 %43, i32* %34, align 8
  %44 = getelementptr inbounds %"class.google::protobuf::internal::ParseContext", %"class.google::protobuf::internal::ParseContext"* %0, i64 0, i32 0, i32 8
  %45 = load i32, i32* %44, align 8
  %46 = icmp eq i32 %45, 0
  br i1 %46, label %47, label %55, !prof !2

47:                                               ; preds = %41
  %48 = load i32, i32* %31, align 4
  %49 = add nsw i32 %48, %33
  store i32 %49, i32* %31, align 4
  %50 = load i8*, i8** %18, align 8
  %51 = icmp slt i32 %49, 0
  %52 = select i1 %51, i32 %49, i32 0
  %53 = sext i32 %52 to i64
  %54 = getelementptr inbounds i8, i8* %50, i64 %53
  store i8* %54, i8** %30, align 8
  br label %55

55:                                               ; preds = %13, %38, %17, %41, %47
  %56 = phi i8* [ %39, %47 ], [ null, %41 ], [ null, %17 ], [ null, %38 ], [ null, %13 ]
  ret i8* %56
}

; Function Attrs: nounwind ssp uwtable
define linkonce_odr hidden i8* @_ZN6google8protobuf8internal12ParseContext12ParseMessageIN8perfetto6protos23CompositorTimingHistoryEEEPKcPT_S8_(%"class.google::protobuf::internal::ParseContext"*, %"class.perfetto::protos::CompositorTimingHistory"*, i8*) local_unnamed_addr #0 comdat align 2 {
  %4 = load i8, i8* %2, align 1
  %5 = zext i8 %4 to i32
  %6 = icmp sgt i8 %4, -1
  br i1 %6, label %7, label %9

7:                                                ; preds = %3
  %8 = getelementptr inbounds i8, i8* %2, i64 1
  br label %13

9:                                                ; preds = %3
  %10 = tail call { i8*, i32 } @_ZN6google8protobuf8internal16ReadSizeFallbackEPKcj(i8* %2, i32 %5) #12
  %11 = extractvalue { i8*, i32 } %10, 0
  %12 = extractvalue { i8*, i32 } %10, 1
  br label %13

13:                                               ; preds = %7, %9
  %14 = phi i8* [ %11, %9 ], [ %8, %7 ]
  %15 = phi i32 [ %12, %9 ], [ %5, %7 ]
  %16 = icmp eq i8* %14, null
  br i1 %16, label %55, label %17

17:                                               ; preds = %13
  %18 = getelementptr inbounds %"class.google::protobuf::internal::ParseContext", %"class.google::protobuf::internal::ParseContext"* %0, i64 0, i32 0, i32 1
  %19 = bitcast i8** %18 to i64*
  %20 = load i64, i64* %19, align 8
  %21 = ptrtoint i8* %14 to i64
  %22 = sub i64 %21, %20
  %23 = trunc i64 %22 to i32
  %24 = add nsw i32 %15, %23
  %25 = inttoptr i64 %20 to i8*
  %26 = icmp slt i32 %24, 0
  %27 = select i1 %26, i32 %24, i32 0
  %28 = sext i32 %27 to i64
  %29 = getelementptr inbounds i8, i8* %25, i64 %28
  %30 = getelementptr inbounds %"class.google::protobuf::internal::ParseContext", %"class.google::protobuf::internal::ParseContext"* %0, i64 0, i32 0, i32 0
  store i8* %29, i8** %30, align 8
  %31 = getelementptr inbounds %"class.google::protobuf::internal::ParseContext", %"class.google::protobuf::internal::ParseContext"* %0, i64 0, i32 0, i32 4
  %32 = load i32, i32* %31, align 4
  store i32 %24, i32* %31, align 4
  %33 = sub nsw i32 %32, %24
  %34 = getelementptr inbounds %"class.google::protobuf::internal::ParseContext", %"class.google::protobuf::internal::ParseContext"* %0, i64 0, i32 1
  %35 = load i32, i32* %34, align 8
  %36 = add nsw i32 %35, -1
  store i32 %36, i32* %34, align 8
  %37 = icmp slt i32 %35, 1
  br i1 %37, label %55, label %38

38:                                               ; preds = %17
  %39 = tail call i8* @_ZN8perfetto6protos23CompositorTimingHistory14_InternalParseEPKcPN6google8protobuf8internal12ParseContextE(%"class.perfetto::protos::CompositorTimingHistory"* %1, i8* nonnull %14, %"class.google::protobuf::internal::ParseContext"* %0)
  %40 = icmp eq i8* %39, null
  br i1 %40, label %55, label %41, !prof !5

41:                                               ; preds = %38
  %42 = load i32, i32* %34, align 8
  %43 = add nsw i32 %42, 1
  store i32 %43, i32* %34, align 8
  %44 = getelementptr inbounds %"class.google::protobuf::internal::ParseContext", %"class.google::protobuf::internal::ParseContext"* %0, i64 0, i32 0, i32 8
  %45 = load i32, i32* %44, align 8
  %46 = icmp eq i32 %45, 0
  br i1 %46, label %47, label %55, !prof !2

47:                                               ; preds = %41
  %48 = load i32, i32* %31, align 4
  %49 = add nsw i32 %48, %33
  store i32 %49, i32* %31, align 4
  %50 = load i8*, i8** %18, align 8
  %51 = icmp slt i32 %49, 0
  %52 = select i1 %51, i32 %49, i32 0
  %53 = sext i32 %52 to i64
  %54 = getelementptr inbounds i8, i8* %50, i64 %53
  store i8* %54, i8** %30, align 8
  br label %55

55:                                               ; preds = %13, %38, %17, %41, %47
  %56 = phi i8* [ %39, %47 ], [ null, %41 ], [ null, %17 ], [ null, %38 ], [ null, %13 ]
  ret i8* %56
}

declare i8* @_ZN6google8protobuf8internal17UnknownFieldParseEjPNSt3__112basic_stringIcNS2_11char_traitsIcEENS2_9allocatorIcEEEEPKcPNS1_12ParseContextE(i32, %"class.std::__1::basic_string"*, i8*, %"class.google::protobuf::internal::ParseContext"*) local_unnamed_addr #4

; Function Attrs: nounwind ssp uwtable
define hidden i8* @_ZNK8perfetto6protos30ChromeCompositorSchedulerState18_InternalSerializeEPhPN6google8protobuf2io19EpsCopyOutputStreamE(%"class.perfetto::protos::ChromeCompositorSchedulerState"* nocapture readonly, i8*, %"class.google::protobuf::io::EpsCopyOutputStream"*) unnamed_addr #0 align 2 {
  %4 = getelementptr inbounds %"class.perfetto::protos::ChromeCompositorSchedulerState", %"class.perfetto::protos::ChromeCompositorSchedulerState"* %0, i64 0, i32 1, i32 0, i64 0
  %5 = load i32, i32* %4, align 4
  %6 = and i32 %5, 1
  %7 = icmp eq i32 %6, 0
  br i1 %7, label %49, label %8

8:                                                ; preds = %3
  %9 = getelementptr inbounds %"class.google::protobuf::io::EpsCopyOutputStream", %"class.google::protobuf::io::EpsCopyOutputStream"* %2, i64 0, i32 0
  %10 = load i8*, i8** %9, align 8
  %11 = icmp ugt i8* %10, %1
  br i1 %11, label %14, label %12, !prof !2

12:                                               ; preds = %8
  %13 = tail call i8* @_ZN6google8protobuf2io19EpsCopyOutputStream19EnsureSpaceFallbackEPh(%"class.google::protobuf::io::EpsCopyOutputStream"* %2, i8* %1) #12
  br label %14

14:                                               ; preds = %8, %12
  %15 = phi i8* [ %13, %12 ], [ %1, %8 ]
  %16 = getelementptr inbounds %"class.perfetto::protos::ChromeCompositorSchedulerState", %"class.perfetto::protos::ChromeCompositorSchedulerState"* %0, i64 0, i32 3
  %17 = load %"class.perfetto::protos::ChromeCompositorStateMachine"*, %"class.perfetto::protos::ChromeCompositorStateMachine"** %16, align 8
  store i8 10, i8* %15, align 1
  %18 = getelementptr inbounds i8, i8* %15, i64 1
  %19 = getelementptr inbounds %"class.perfetto::protos::ChromeCompositorStateMachine", %"class.perfetto::protos::ChromeCompositorStateMachine"* %17, i64 0, i32 2, i32 0, i32 0, i32 0, i32 0, i32 0, i32 0
  %20 = load atomic i32, i32* %19 monotonic, align 4
  %21 = icmp ult i32 %20, 128
  %22 = trunc i32 %20 to i8
  br i1 %21, label %23, label %25

23:                                               ; preds = %14
  store i8 %22, i8* %18, align 1
  %24 = getelementptr inbounds i8, i8* %15, i64 2
  br label %46

25:                                               ; preds = %14
  %26 = or i8 %22, -128
  store i8 %26, i8* %18, align 1
  %27 = lshr i32 %20, 7
  %28 = icmp ult i32 %20, 16384
  br i1 %28, label %29, label %33

29:                                               ; preds = %25
  %30 = trunc i32 %27 to i8
  %31 = getelementptr inbounds i8, i8* %15, i64 2
  store i8 %30, i8* %31, align 1
  %32 = getelementptr inbounds i8, i8* %15, i64 3
  br label %46

33:                                               ; preds = %25
  %34 = getelementptr inbounds i8, i8* %15, i64 2
  br label %35

35:                                               ; preds = %35, %33
  %36 = phi i32 [ %27, %33 ], [ %40, %35 ]
  %37 = phi i8* [ %34, %33 ], [ %41, %35 ]
  %38 = trunc i32 %36 to i8
  %39 = or i8 %38, -128
  store i8 %39, i8* %37, align 1
  %40 = lshr i32 %36, 7
  %41 = getelementptr inbounds i8, i8* %37, i64 1
  %42 = icmp ugt i32 %36, 16383
  br i1 %42, label %35, label %43, !prof !5

43:                                               ; preds = %35
  %44 = trunc i32 %40 to i8
  %45 = getelementptr inbounds i8, i8* %37, i64 2
  store i8 %44, i8* %41, align 1
  br label %46

46:                                               ; preds = %23, %29, %43
  %47 = phi i8* [ %24, %23 ], [ %32, %29 ], [ %45, %43 ]
  %48 = tail call i8* @_ZNK8perfetto6protos28ChromeCompositorStateMachine18_InternalSerializeEPhPN6google8protobuf2io19EpsCopyOutputStreamE(%"class.perfetto::protos::ChromeCompositorStateMachine"* %17, i8* %47, %"class.google::protobuf::io::EpsCopyOutputStream"* %2) #12
  br label %49

49:                                               ; preds = %3, %46
  %50 = phi i8* [ %48, %46 ], [ %1, %3 ]
  %51 = and i32 %5, 32
  %52 = icmp eq i32 %51, 0
  br i1 %52, label %65, label %53

53:                                               ; preds = %49
  %54 = getelementptr inbounds %"class.google::protobuf::io::EpsCopyOutputStream", %"class.google::protobuf::io::EpsCopyOutputStream"* %2, i64 0, i32 0
  %55 = load i8*, i8** %54, align 8
  %56 = icmp ugt i8* %55, %50
  br i1 %56, label %59, label %57, !prof !2

57:                                               ; preds = %53
  %58 = tail call i8* @_ZN6google8protobuf2io19EpsCopyOutputStream19EnsureSpaceFallbackEPh(%"class.google::protobuf::io::EpsCopyOutputStream"* %2, i8* %50) #12
  br label %59

59:                                               ; preds = %53, %57
  %60 = phi i8* [ %58, %57 ], [ %50, %53 ]
  %61 = getelementptr inbounds %"class.perfetto::protos::ChromeCompositorSchedulerState", %"class.perfetto::protos::ChromeCompositorSchedulerState"* %0, i64 0, i32 8
  %62 = load i8, i8* %61, align 8, !range !6
  store i8 16, i8* %60, align 1
  %63 = getelementptr inbounds i8, i8* %60, i64 1
  store i8 %62, i8* %63, align 1
  %64 = getelementptr inbounds i8, i8* %60, i64 2
  br label %65

65:                                               ; preds = %49, %59
  %66 = phi i8* [ %64, %59 ], [ %50, %49 ]
  %67 = and i32 %5, 64
  %68 = icmp eq i32 %67, 0
  br i1 %68, label %81, label %69

69:                                               ; preds = %65
  %70 = getelementptr inbounds %"class.google::protobuf::io::EpsCopyOutputStream", %"class.google::protobuf::io::EpsCopyOutputStream"* %2, i64 0, i32 0
  %71 = load i8*, i8** %70, align 8
  %72 = icmp ugt i8* %71, %66
  br i1 %72, label %75, label %73, !prof !2

73:                                               ; preds = %69
  %74 = tail call i8* @_ZN6google8protobuf2io19EpsCopyOutputStream19EnsureSpaceFallbackEPh(%"class.google::protobuf::io::EpsCopyOutputStream"* %2, i8* %66) #12
  br label %75

75:                                               ; preds = %69, %73
  %76 = phi i8* [ %74, %73 ], [ %66, %69 ]
  %77 = getelementptr inbounds %"class.perfetto::protos::ChromeCompositorSchedulerState", %"class.perfetto::protos::ChromeCompositorSchedulerState"* %0, i64 0, i32 9
  %78 = load i8, i8* %77, align 1, !range !6
  store i8 24, i8* %76, align 1
  %79 = getelementptr inbounds i8, i8* %76, i64 1
  store i8 %78, i8* %79, align 1
  %80 = getelementptr inbounds i8, i8* %76, i64 2
  br label %81

81:                                               ; preds = %65, %75
  %82 = phi i8* [ %80, %75 ], [ %66, %65 ]
  %83 = trunc i32 %5 to i8
  %84 = icmp slt i8 %83, 0
  br i1 %84, label %85, label %97

85:                                               ; preds = %81
  %86 = getelementptr inbounds %"class.google::protobuf::io::EpsCopyOutputStream", %"class.google::protobuf::io::EpsCopyOutputStream"* %2, i64 0, i32 0
  %87 = load i8*, i8** %86, align 8
  %88 = icmp ugt i8* %87, %82
  br i1 %88, label %91, label %89, !prof !2

89:                                               ; preds = %85
  %90 = tail call i8* @_ZN6google8protobuf2io19EpsCopyOutputStream19EnsureSpaceFallbackEPh(%"class.google::protobuf::io::EpsCopyOutputStream"* %2, i8* %82) #12
  br label %91

91:                                               ; preds = %85, %89
  %92 = phi i8* [ %90, %89 ], [ %82, %85 ]
  %93 = getelementptr inbounds %"class.perfetto::protos::ChromeCompositorSchedulerState", %"class.perfetto::protos::ChromeCompositorSchedulerState"* %0, i64 0, i32 10
  %94 = load i8, i8* %93, align 2, !range !6
  store i8 32, i8* %92, align 1
  %95 = getelementptr inbounds i8, i8* %92, i64 1
  store i8 %94, i8* %95, align 1
  %96 = getelementptr inbounds i8, i8* %92, i64 2
  br label %97

97:                                               ; preds = %91, %81
  %98 = phi i8* [ %96, %91 ], [ %82, %81 ]
  %99 = and i32 %5, 256
  %100 = icmp eq i32 %99, 0
  br i1 %100, label %113, label %101

101:                                              ; preds = %97
  %102 = getelementptr inbounds %"class.google::protobuf::io::EpsCopyOutputStream", %"class.google::protobuf::io::EpsCopyOutputStream"* %2, i64 0, i32 0
  %103 = load i8*, i8** %102, align 8
  %104 = icmp ugt i8* %103, %98
  br i1 %104, label %107, label %105, !prof !2

105:                                              ; preds = %101
  %106 = tail call i8* @_ZN6google8protobuf2io19EpsCopyOutputStream19EnsureSpaceFallbackEPh(%"class.google::protobuf::io::EpsCopyOutputStream"* %2, i8* %98) #12
  br label %107

107:                                              ; preds = %101, %105
  %108 = phi i8* [ %106, %105 ], [ %98, %101 ]
  %109 = getelementptr inbounds %"class.perfetto::protos::ChromeCompositorSchedulerState", %"class.perfetto::protos::ChromeCompositorSchedulerState"* %0, i64 0, i32 11
  %110 = load i8, i8* %109, align 1, !range !6
  store i8 40, i8* %108, align 1
  %111 = getelementptr inbounds i8, i8* %108, i64 1
  store i8 %110, i8* %111, align 1
  %112 = getelementptr inbounds i8, i8* %108, i64 2
  br label %113

113:                                              ; preds = %97, %107
  %114 = phi i8* [ %112, %107 ], [ %98, %97 ]
  %115 = and i32 %5, 512
  %116 = icmp eq i32 %115, 0
  br i1 %116, label %129, label %117

117:                                              ; preds = %113
  %118 = getelementptr inbounds %"class.google::protobuf::io::EpsCopyOutputStream", %"class.google::protobuf::io::EpsCopyOutputStream"* %2, i64 0, i32 0
  %119 = load i8*, i8** %118, align 8
  %120 = icmp ugt i8* %119, %114
  br i1 %120, label %123, label %121, !prof !2

121:                                              ; preds = %117
  %122 = tail call i8* @_ZN6google8protobuf2io19EpsCopyOutputStream19EnsureSpaceFallbackEPh(%"class.google::protobuf::io::EpsCopyOutputStream"* %2, i8* %114) #12
  br label %123

123:                                              ; preds = %117, %121
  %124 = phi i8* [ %122, %121 ], [ %114, %117 ]
  %125 = getelementptr inbounds %"class.perfetto::protos::ChromeCompositorSchedulerState", %"class.perfetto::protos::ChromeCompositorSchedulerState"* %0, i64 0, i32 12
  %126 = load i8, i8* %125, align 4, !range !6
  store i8 48, i8* %124, align 1
  %127 = getelementptr inbounds i8, i8* %124, i64 1
  store i8 %126, i8* %127, align 1
  %128 = getelementptr inbounds i8, i8* %124, i64 2
  br label %129

129:                                              ; preds = %113, %123
  %130 = phi i8* [ %128, %123 ], [ %114, %113 ]
  %131 = and i32 %5, 1024
  %132 = icmp eq i32 %131, 0
  br i1 %132, label %170, label %133

133:                                              ; preds = %129
  %134 = getelementptr inbounds %"class.google::protobuf::io::EpsCopyOutputStream", %"class.google::protobuf::io::EpsCopyOutputStream"* %2, i64 0, i32 0
  %135 = load i8*, i8** %134, align 8
  %136 = icmp ugt i8* %135, %130
  br i1 %136, label %139, label %137, !prof !2

137:                                              ; preds = %133
  %138 = tail call i8* @_ZN6google8protobuf2io19EpsCopyOutputStream19EnsureSpaceFallbackEPh(%"class.google::protobuf::io::EpsCopyOutputStream"* %2, i8* %130) #12
  br label %139

139:                                              ; preds = %133, %137
  %140 = phi i8* [ %138, %137 ], [ %130, %133 ]
  %141 = getelementptr inbounds %"class.perfetto::protos::ChromeCompositorSchedulerState", %"class.perfetto::protos::ChromeCompositorSchedulerState"* %0, i64 0, i32 13
  %142 = load i32, i32* %141, align 8
  store i8 56, i8* %140, align 1
  %143 = getelementptr inbounds i8, i8* %140, i64 1
  %144 = icmp ult i32 %142, 128
  %145 = trunc i32 %142 to i8
  br i1 %144, label %146, label %148

146:                                              ; preds = %139
  store i8 %145, i8* %143, align 1
  %147 = getelementptr inbounds i8, i8* %140, i64 2
  br label %170

148:                                              ; preds = %139
  %149 = sext i32 %142 to i64
  %150 = or i8 %145, -128
  store i8 %150, i8* %143, align 1
  %151 = lshr i64 %149, 7
  %152 = icmp ult i32 %142, 16384
  br i1 %152, label %153, label %157

153:                                              ; preds = %148
  %154 = trunc i64 %151 to i8
  %155 = getelementptr inbounds i8, i8* %140, i64 2
  store i8 %154, i8* %155, align 1
  %156 = getelementptr inbounds i8, i8* %140, i64 3
  br label %170

157:                                              ; preds = %148
  %158 = getelementptr inbounds i8, i8* %140, i64 2
  br label %159

159:                                              ; preds = %159, %157
  %160 = phi i64 [ %151, %157 ], [ %164, %159 ]
  %161 = phi i8* [ %158, %157 ], [ %165, %159 ]
  %162 = trunc i64 %160 to i8
  %163 = or i8 %162, -128
  store i8 %163, i8* %161, align 1
  %164 = lshr i64 %160, 7
  %165 = getelementptr inbounds i8, i8* %161, i64 1
  %166 = icmp ugt i64 %160, 16383
  br i1 %166, label %159, label %167, !prof !5

167:                                              ; preds = %159
  %168 = trunc i64 %164 to i8
  %169 = getelementptr inbounds i8, i8* %161, i64 2
  store i8 %168, i8* %165, align 1
  br label %170

170:                                              ; preds = %167, %153, %146, %129
  %171 = phi i8* [ %130, %129 ], [ %147, %146 ], [ %156, %153 ], [ %169, %167 ]
  %172 = and i32 %5, 2048
  %173 = icmp eq i32 %172, 0
  br i1 %173, label %211, label %174

174:                                              ; preds = %170
  %175 = getelementptr inbounds %"class.google::protobuf::io::EpsCopyOutputStream", %"class.google::protobuf::io::EpsCopyOutputStream"* %2, i64 0, i32 0
  %176 = load i8*, i8** %175, align 8
  %177 = icmp ugt i8* %176, %171
  br i1 %177, label %180, label %178, !prof !2

178:                                              ; preds = %174
  %179 = tail call i8* @_ZN6google8protobuf2io19EpsCopyOutputStream19EnsureSpaceFallbackEPh(%"class.google::protobuf::io::EpsCopyOutputStream"* %2, i8* %171) #12
  br label %180

180:                                              ; preds = %174, %178
  %181 = phi i8* [ %179, %178 ], [ %171, %174 ]
  %182 = getelementptr inbounds %"class.perfetto::protos::ChromeCompositorSchedulerState", %"class.perfetto::protos::ChromeCompositorSchedulerState"* %0, i64 0, i32 14
  %183 = load i32, i32* %182, align 4
  store i8 64, i8* %181, align 1
  %184 = getelementptr inbounds i8, i8* %181, i64 1
  %185 = icmp ult i32 %183, 128
  %186 = trunc i32 %183 to i8
  br i1 %185, label %187, label %189

187:                                              ; preds = %180
  store i8 %186, i8* %184, align 1
  %188 = getelementptr inbounds i8, i8* %181, i64 2
  br label %211

189:                                              ; preds = %180
  %190 = sext i32 %183 to i64
  %191 = or i8 %186, -128
  store i8 %191, i8* %184, align 1
  %192 = lshr i64 %190, 7
  %193 = icmp ult i32 %183, 16384
  br i1 %193, label %194, label %198

194:                                              ; preds = %189
  %195 = trunc i64 %192 to i8
  %196 = getelementptr inbounds i8, i8* %181, i64 2
  store i8 %195, i8* %196, align 1
  %197 = getelementptr inbounds i8, i8* %181, i64 3
  br label %211

198:                                              ; preds = %189
  %199 = getelementptr inbounds i8, i8* %181, i64 2
  br label %200

200:                                              ; preds = %200, %198
  %201 = phi i64 [ %192, %198 ], [ %205, %200 ]
  %202 = phi i8* [ %199, %198 ], [ %206, %200 ]
  %203 = trunc i64 %201 to i8
  %204 = or i8 %203, -128
  store i8 %204, i8* %202, align 1
  %205 = lshr i64 %201, 7
  %206 = getelementptr inbounds i8, i8* %202, i64 1
  %207 = icmp ugt i64 %201, 16383
  br i1 %207, label %200, label %208, !prof !5

208:                                              ; preds = %200
  %209 = trunc i64 %205 to i8
  %210 = getelementptr inbounds i8, i8* %202, i64 2
  store i8 %209, i8* %206, align 1
  br label %211

211:                                              ; preds = %208, %194, %187, %170
  %212 = phi i8* [ %171, %170 ], [ %188, %187 ], [ %197, %194 ], [ %210, %208 ]
  %213 = and i32 %5, 4096
  %214 = icmp eq i32 %213, 0
  br i1 %214, label %251, label %215

215:                                              ; preds = %211
  %216 = getelementptr inbounds %"class.google::protobuf::io::EpsCopyOutputStream", %"class.google::protobuf::io::EpsCopyOutputStream"* %2, i64 0, i32 0
  %217 = load i8*, i8** %216, align 8
  %218 = icmp ugt i8* %217, %212
  br i1 %218, label %221, label %219, !prof !2

219:                                              ; preds = %215
  %220 = tail call i8* @_ZN6google8protobuf2io19EpsCopyOutputStream19EnsureSpaceFallbackEPh(%"class.google::protobuf::io::EpsCopyOutputStream"* %2, i8* %212) #12
  br label %221

221:                                              ; preds = %215, %219
  %222 = phi i8* [ %220, %219 ], [ %212, %215 ]
  %223 = getelementptr inbounds %"class.perfetto::protos::ChromeCompositorSchedulerState", %"class.perfetto::protos::ChromeCompositorSchedulerState"* %0, i64 0, i32 15
  %224 = load i64, i64* %223, align 8
  store i8 72, i8* %222, align 1
  %225 = getelementptr inbounds i8, i8* %222, i64 1
  %226 = icmp ult i64 %224, 128
  %227 = trunc i64 %224 to i8
  br i1 %226, label %228, label %230

228:                                              ; preds = %221
  store i8 %227, i8* %225, align 1
  %229 = getelementptr inbounds i8, i8* %222, i64 2
  br label %251

230:                                              ; preds = %221
  %231 = or i8 %227, -128
  store i8 %231, i8* %225, align 1
  %232 = lshr i64 %224, 7
  %233 = icmp ult i64 %224, 16384
  br i1 %233, label %234, label %238

234:                                              ; preds = %230
  %235 = trunc i64 %232 to i8
  %236 = getelementptr inbounds i8, i8* %222, i64 2
  store i8 %235, i8* %236, align 1
  %237 = getelementptr inbounds i8, i8* %222, i64 3
  br label %251

238:                                              ; preds = %230
  %239 = getelementptr inbounds i8, i8* %222, i64 2
  br label %240

240:                                              ; preds = %240, %238
  %241 = phi i64 [ %232, %238 ], [ %245, %240 ]
  %242 = phi i8* [ %239, %238 ], [ %246, %240 ]
  %243 = trunc i64 %241 to i8
  %244 = or i8 %243, -128
  store i8 %244, i8* %242, align 1
  %245 = lshr i64 %241, 7
  %246 = getelementptr inbounds i8, i8* %242, i64 1
  %247 = icmp ugt i64 %241, 16383
  br i1 %247, label %240, label %248, !prof !5

248:                                              ; preds = %240
  %249 = trunc i64 %245 to i8
  %250 = getelementptr inbounds i8, i8* %242, i64 2
  store i8 %249, i8* %246, align 1
  br label %251

251:                                              ; preds = %248, %234, %228, %211
  %252 = phi i8* [ %212, %211 ], [ %229, %228 ], [ %237, %234 ], [ %250, %248 ]
  %253 = and i32 %5, 8192
  %254 = icmp eq i32 %253, 0
  br i1 %254, label %291, label %255

255:                                              ; preds = %251
  %256 = getelementptr inbounds %"class.google::protobuf::io::EpsCopyOutputStream", %"class.google::protobuf::io::EpsCopyOutputStream"* %2, i64 0, i32 0
  %257 = load i8*, i8** %256, align 8
  %258 = icmp ugt i8* %257, %252
  br i1 %258, label %261, label %259, !prof !2

259:                                              ; preds = %255
  %260 = tail call i8* @_ZN6google8protobuf2io19EpsCopyOutputStream19EnsureSpaceFallbackEPh(%"class.google::protobuf::io::EpsCopyOutputStream"* %2, i8* %252) #12
  br label %261

261:                                              ; preds = %255, %259
  %262 = phi i8* [ %260, %259 ], [ %252, %255 ]
  %263 = getelementptr inbounds %"class.perfetto::protos::ChromeCompositorSchedulerState", %"class.perfetto::protos::ChromeCompositorSchedulerState"* %0, i64 0, i32 16
  %264 = load i64, i64* %263, align 8
  store i8 80, i8* %262, align 1
  %265 = getelementptr inbounds i8, i8* %262, i64 1
  %266 = icmp ult i64 %264, 128
  %267 = trunc i64 %264 to i8
  br i1 %266, label %268, label %270

268:                                              ; preds = %261
  store i8 %267, i8* %265, align 1
  %269 = getelementptr inbounds i8, i8* %262, i64 2
  br label %291

270:                                              ; preds = %261
  %271 = or i8 %267, -128
  store i8 %271, i8* %265, align 1
  %272 = lshr i64 %264, 7
  %273 = icmp ult i64 %264, 16384
  br i1 %273, label %274, label %278

274:                                              ; preds = %270
  %275 = trunc i64 %272 to i8
  %276 = getelementptr inbounds i8, i8* %262, i64 2
  store i8 %275, i8* %276, align 1
  %277 = getelementptr inbounds i8, i8* %262, i64 3
  br label %291

278:                                              ; preds = %270
  %279 = getelementptr inbounds i8, i8* %262, i64 2
  br label %280

280:                                              ; preds = %280, %278
  %281 = phi i64 [ %272, %278 ], [ %285, %280 ]
  %282 = phi i8* [ %279, %278 ], [ %286, %280 ]
  %283 = trunc i64 %281 to i8
  %284 = or i8 %283, -128
  store i8 %284, i8* %282, align 1
  %285 = lshr i64 %281, 7
  %286 = getelementptr inbounds i8, i8* %282, i64 1
  %287 = icmp ugt i64 %281, 16383
  br i1 %287, label %280, label %288, !prof !5

288:                                              ; preds = %280
  %289 = trunc i64 %285 to i8
  %290 = getelementptr inbounds i8, i8* %282, i64 2
  store i8 %289, i8* %286, align 1
  br label %291

291:                                              ; preds = %288, %274, %268, %251
  %292 = phi i8* [ %252, %251 ], [ %269, %268 ], [ %277, %274 ], [ %290, %288 ]
  %293 = and i32 %5, 16384
  %294 = icmp eq i32 %293, 0
  br i1 %294, label %331, label %295

295:                                              ; preds = %291
  %296 = getelementptr inbounds %"class.google::protobuf::io::EpsCopyOutputStream", %"class.google::protobuf::io::EpsCopyOutputStream"* %2, i64 0, i32 0
  %297 = load i8*, i8** %296, align 8
  %298 = icmp ugt i8* %297, %292
  br i1 %298, label %301, label %299, !prof !2

299:                                              ; preds = %295
  %300 = tail call i8* @_ZN6google8protobuf2io19EpsCopyOutputStream19EnsureSpaceFallbackEPh(%"class.google::protobuf::io::EpsCopyOutputStream"* %2, i8* %292) #12
  br label %301

301:                                              ; preds = %295, %299
  %302 = phi i8* [ %300, %299 ], [ %292, %295 ]
  %303 = getelementptr inbounds %"class.perfetto::protos::ChromeCompositorSchedulerState", %"class.perfetto::protos::ChromeCompositorSchedulerState"* %0, i64 0, i32 17
  %304 = load i64, i64* %303, align 8
  store i8 88, i8* %302, align 1
  %305 = getelementptr inbounds i8, i8* %302, i64 1
  %306 = icmp ult i64 %304, 128
  %307 = trunc i64 %304 to i8
  br i1 %306, label %308, label %310

308:                                              ; preds = %301
  store i8 %307, i8* %305, align 1
  %309 = getelementptr inbounds i8, i8* %302, i64 2
  br label %331

310:                                              ; preds = %301
  %311 = or i8 %307, -128
  store i8 %311, i8* %305, align 1
  %312 = lshr i64 %304, 7
  %313 = icmp ult i64 %304, 16384
  br i1 %313, label %314, label %318

314:                                              ; preds = %310
  %315 = trunc i64 %312 to i8
  %316 = getelementptr inbounds i8, i8* %302, i64 2
  store i8 %315, i8* %316, align 1
  %317 = getelementptr inbounds i8, i8* %302, i64 3
  br label %331

318:                                              ; preds = %310
  %319 = getelementptr inbounds i8, i8* %302, i64 2
  br label %320

320:                                              ; preds = %320, %318
  %321 = phi i64 [ %312, %318 ], [ %325, %320 ]
  %322 = phi i8* [ %319, %318 ], [ %326, %320 ]
  %323 = trunc i64 %321 to i8
  %324 = or i8 %323, -128
  store i8 %324, i8* %322, align 1
  %325 = lshr i64 %321, 7
  %326 = getelementptr inbounds i8, i8* %322, i64 1
  %327 = icmp ugt i64 %321, 16383
  br i1 %327, label %320, label %328, !prof !5

328:                                              ; preds = %320
  %329 = trunc i64 %325 to i8
  %330 = getelementptr inbounds i8, i8* %322, i64 2
  store i8 %329, i8* %326, align 1
  br label %331

331:                                              ; preds = %328, %314, %308, %291
  %332 = phi i8* [ %292, %291 ], [ %309, %308 ], [ %317, %314 ], [ %330, %328 ]
  %333 = trunc i32 %5 to i16
  %334 = icmp slt i16 %333, 0
  br i1 %334, label %335, label %371

335:                                              ; preds = %331
  %336 = getelementptr inbounds %"class.google::protobuf::io::EpsCopyOutputStream", %"class.google::protobuf::io::EpsCopyOutputStream"* %2, i64 0, i32 0
  %337 = load i8*, i8** %336, align 8
  %338 = icmp ugt i8* %337, %332
  br i1 %338, label %341, label %339, !prof !2

339:                                              ; preds = %335
  %340 = tail call i8* @_ZN6google8protobuf2io19EpsCopyOutputStream19EnsureSpaceFallbackEPh(%"class.google::protobuf::io::EpsCopyOutputStream"* %2, i8* %332) #12
  br label %341

341:                                              ; preds = %335, %339
  %342 = phi i8* [ %340, %339 ], [ %332, %335 ]
  %343 = getelementptr inbounds %"class.perfetto::protos::ChromeCompositorSchedulerState", %"class.perfetto::protos::ChromeCompositorSchedulerState"* %0, i64 0, i32 18
  %344 = load i64, i64* %343, align 8
  store i8 96, i8* %342, align 1
  %345 = getelementptr inbounds i8, i8* %342, i64 1
  %346 = icmp ult i64 %344, 128
  %347 = trunc i64 %344 to i8
  br i1 %346, label %348, label %350

348:                                              ; preds = %341
  store i8 %347, i8* %345, align 1
  %349 = getelementptr inbounds i8, i8* %342, i64 2
  br label %371

350:                                              ; preds = %341
  %351 = or i8 %347, -128
  store i8 %351, i8* %345, align 1
  %352 = lshr i64 %344, 7
  %353 = icmp ult i64 %344, 16384
  br i1 %353, label %354, label %358

354:                                              ; preds = %350
  %355 = trunc i64 %352 to i8
  %356 = getelementptr inbounds i8, i8* %342, i64 2
  store i8 %355, i8* %356, align 1
  %357 = getelementptr inbounds i8, i8* %342, i64 3
  br label %371

358:                                              ; preds = %350
  %359 = getelementptr inbounds i8, i8* %342, i64 2
  br label %360

360:                                              ; preds = %360, %358
  %361 = phi i64 [ %352, %358 ], [ %365, %360 ]
  %362 = phi i8* [ %359, %358 ], [ %366, %360 ]
  %363 = trunc i64 %361 to i8
  %364 = or i8 %363, -128
  store i8 %364, i8* %362, align 1
  %365 = lshr i64 %361, 7
  %366 = getelementptr inbounds i8, i8* %362, i64 1
  %367 = icmp ugt i64 %361, 16383
  br i1 %367, label %360, label %368, !prof !5

368:                                              ; preds = %360
  %369 = trunc i64 %365 to i8
  %370 = getelementptr inbounds i8, i8* %362, i64 2
  store i8 %369, i8* %366, align 1
  br label %371

371:                                              ; preds = %368, %354, %348, %331
  %372 = phi i8* [ %332, %331 ], [ %349, %348 ], [ %357, %354 ], [ %370, %368 ]
  %373 = and i32 %5, 65536
  %374 = icmp eq i32 %373, 0
  br i1 %374, label %411, label %375

375:                                              ; preds = %371
  %376 = getelementptr inbounds %"class.google::protobuf::io::EpsCopyOutputStream", %"class.google::protobuf::io::EpsCopyOutputStream"* %2, i64 0, i32 0
  %377 = load i8*, i8** %376, align 8
  %378 = icmp ugt i8* %377, %372
  br i1 %378, label %381, label %379, !prof !2

379:                                              ; preds = %375
  %380 = tail call i8* @_ZN6google8protobuf2io19EpsCopyOutputStream19EnsureSpaceFallbackEPh(%"class.google::protobuf::io::EpsCopyOutputStream"* %2, i8* %372) #12
  br label %381

381:                                              ; preds = %375, %379
  %382 = phi i8* [ %380, %379 ], [ %372, %375 ]
  %383 = getelementptr inbounds %"class.perfetto::protos::ChromeCompositorSchedulerState", %"class.perfetto::protos::ChromeCompositorSchedulerState"* %0, i64 0, i32 19
  %384 = load i64, i64* %383, align 8
  store i8 104, i8* %382, align 1
  %385 = getelementptr inbounds i8, i8* %382, i64 1
  %386 = icmp ult i64 %384, 128
  %387 = trunc i64 %384 to i8
  br i1 %386, label %388, label %390

388:                                              ; preds = %381
  store i8 %387, i8* %385, align 1
  %389 = getelementptr inbounds i8, i8* %382, i64 2
  br label %411

390:                                              ; preds = %381
  %391 = or i8 %387, -128
  store i8 %391, i8* %385, align 1
  %392 = lshr i64 %384, 7
  %393 = icmp ult i64 %384, 16384
  br i1 %393, label %394, label %398

394:                                              ; preds = %390
  %395 = trunc i64 %392 to i8
  %396 = getelementptr inbounds i8, i8* %382, i64 2
  store i8 %395, i8* %396, align 1
  %397 = getelementptr inbounds i8, i8* %382, i64 3
  br label %411

398:                                              ; preds = %390
  %399 = getelementptr inbounds i8, i8* %382, i64 2
  br label %400

400:                                              ; preds = %400, %398
  %401 = phi i64 [ %392, %398 ], [ %405, %400 ]
  %402 = phi i8* [ %399, %398 ], [ %406, %400 ]
  %403 = trunc i64 %401 to i8
  %404 = or i8 %403, -128
  store i8 %404, i8* %402, align 1
  %405 = lshr i64 %401, 7
  %406 = getelementptr inbounds i8, i8* %402, i64 1
  %407 = icmp ugt i64 %401, 16383
  br i1 %407, label %400, label %408, !prof !5

408:                                              ; preds = %400
  %409 = trunc i64 %405 to i8
  %410 = getelementptr inbounds i8, i8* %402, i64 2
  store i8 %409, i8* %406, align 1
  br label %411

411:                                              ; preds = %408, %394, %388, %371
  %412 = phi i8* [ %372, %371 ], [ %389, %388 ], [ %397, %394 ], [ %410, %408 ]
  %413 = and i32 %5, 2
  %414 = icmp eq i32 %413, 0
  br i1 %414, label %456, label %415

415:                                              ; preds = %411
  %416 = getelementptr inbounds %"class.google::protobuf::io::EpsCopyOutputStream", %"class.google::protobuf::io::EpsCopyOutputStream"* %2, i64 0, i32 0
  %417 = load i8*, i8** %416, align 8
  %418 = icmp ugt i8* %417, %412
  br i1 %418, label %421, label %419, !prof !2

419:                                              ; preds = %415
  %420 = tail call i8* @_ZN6google8protobuf2io19EpsCopyOutputStream19EnsureSpaceFallbackEPh(%"class.google::protobuf::io::EpsCopyOutputStream"* %2, i8* %412) #12
  br label %421

421:                                              ; preds = %415, %419
  %422 = phi i8* [ %420, %419 ], [ %412, %415 ]
  %423 = getelementptr inbounds %"class.perfetto::protos::ChromeCompositorSchedulerState", %"class.perfetto::protos::ChromeCompositorSchedulerState"* %0, i64 0, i32 4
  %424 = load %"class.perfetto::protos::BeginImplFrameArgs"*, %"class.perfetto::protos::BeginImplFrameArgs"** %423, align 8
  store i8 114, i8* %422, align 1
  %425 = getelementptr inbounds i8, i8* %422, i64 1
  %426 = getelementptr inbounds %"class.perfetto::protos::BeginImplFrameArgs", %"class.perfetto::protos::BeginImplFrameArgs"* %424, i64 0, i32 2, i32 0, i32 0, i32 0, i32 0, i32 0, i32 0
  %427 = load atomic i32, i32* %426 monotonic, align 4
  %428 = icmp ult i32 %427, 128
  %429 = trunc i32 %427 to i8
  br i1 %428, label %430, label %432

430:                                              ; preds = %421
  store i8 %429, i8* %425, align 1
  %431 = getelementptr inbounds i8, i8* %422, i64 2
  br label %453

432:                                              ; preds = %421
  %433 = or i8 %429, -128
  store i8 %433, i8* %425, align 1
  %434 = lshr i32 %427, 7
  %435 = icmp ult i32 %427, 16384
  br i1 %435, label %436, label %440

436:                                              ; preds = %432
  %437 = trunc i32 %434 to i8
  %438 = getelementptr inbounds i8, i8* %422, i64 2
  store i8 %437, i8* %438, align 1
  %439 = getelementptr inbounds i8, i8* %422, i64 3
  br label %453

440:                                              ; preds = %432
  %441 = getelementptr inbounds i8, i8* %422, i64 2
  br label %442

442:                                              ; preds = %442, %440
  %443 = phi i32 [ %434, %440 ], [ %447, %442 ]
  %444 = phi i8* [ %441, %440 ], [ %448, %442 ]
  %445 = trunc i32 %443 to i8
  %446 = or i8 %445, -128
  store i8 %446, i8* %444, align 1
  %447 = lshr i32 %443, 7
  %448 = getelementptr inbounds i8, i8* %444, i64 1
  %449 = icmp ugt i32 %443, 16383
  br i1 %449, label %442, label %450, !prof !5

450:                                              ; preds = %442
  %451 = trunc i32 %447 to i8
  %452 = getelementptr inbounds i8, i8* %444, i64 2
  store i8 %451, i8* %448, align 1
  br label %453

453:                                              ; preds = %430, %436, %450
  %454 = phi i8* [ %431, %430 ], [ %439, %436 ], [ %452, %450 ]
  %455 = tail call i8* @_ZNK8perfetto6protos18BeginImplFrameArgs18_InternalSerializeEPhPN6google8protobuf2io19EpsCopyOutputStreamE(%"class.perfetto::protos::BeginImplFrameArgs"* %424, i8* %454, %"class.google::protobuf::io::EpsCopyOutputStream"* %2) #12
  br label %456

456:                                              ; preds = %411, %453
  %457 = phi i8* [ %455, %453 ], [ %412, %411 ]
  %458 = and i32 %5, 4
  %459 = icmp eq i32 %458, 0
  br i1 %459, label %501, label %460

460:                                              ; preds = %456
  %461 = getelementptr inbounds %"class.google::protobuf::io::EpsCopyOutputStream", %"class.google::protobuf::io::EpsCopyOutputStream"* %2, i64 0, i32 0
  %462 = load i8*, i8** %461, align 8
  %463 = icmp ugt i8* %462, %457
  br i1 %463, label %466, label %464, !prof !2

464:                                              ; preds = %460
  %465 = tail call i8* @_ZN6google8protobuf2io19EpsCopyOutputStream19EnsureSpaceFallbackEPh(%"class.google::protobuf::io::EpsCopyOutputStream"* %2, i8* %457) #12
  br label %466

466:                                              ; preds = %460, %464
  %467 = phi i8* [ %465, %464 ], [ %457, %460 ]
  %468 = getelementptr inbounds %"class.perfetto::protos::ChromeCompositorSchedulerState", %"class.perfetto::protos::ChromeCompositorSchedulerState"* %0, i64 0, i32 5
  %469 = load %"class.perfetto::protos::BeginFrameObserverState"*, %"class.perfetto::protos::BeginFrameObserverState"** %468, align 8
  store i8 122, i8* %467, align 1
  %470 = getelementptr inbounds i8, i8* %467, i64 1
  %471 = getelementptr inbounds %"class.perfetto::protos::BeginFrameObserverState", %"class.perfetto::protos::BeginFrameObserverState"* %469, i64 0, i32 2, i32 0, i32 0, i32 0, i32 0, i32 0, i32 0
  %472 = load atomic i32, i32* %471 monotonic, align 4
  %473 = icmp ult i32 %472, 128
  %474 = trunc i32 %472 to i8
  br i1 %473, label %475, label %477

475:                                              ; preds = %466
  store i8 %474, i8* %470, align 1
  %476 = getelementptr inbounds i8, i8* %467, i64 2
  br label %498

477:                                              ; preds = %466
  %478 = or i8 %474, -128
  store i8 %478, i8* %470, align 1
  %479 = lshr i32 %472, 7
  %480 = icmp ult i32 %472, 16384
  br i1 %480, label %481, label %485

481:                                              ; preds = %477
  %482 = trunc i32 %479 to i8
  %483 = getelementptr inbounds i8, i8* %467, i64 2
  store i8 %482, i8* %483, align 1
  %484 = getelementptr inbounds i8, i8* %467, i64 3
  br label %498

485:                                              ; preds = %477
  %486 = getelementptr inbounds i8, i8* %467, i64 2
  br label %487

487:                                              ; preds = %487, %485
  %488 = phi i32 [ %479, %485 ], [ %492, %487 ]
  %489 = phi i8* [ %486, %485 ], [ %493, %487 ]
  %490 = trunc i32 %488 to i8
  %491 = or i8 %490, -128
  store i8 %491, i8* %489, align 1
  %492 = lshr i32 %488, 7
  %493 = getelementptr inbounds i8, i8* %489, i64 1
  %494 = icmp ugt i32 %488, 16383
  br i1 %494, label %487, label %495, !prof !5

495:                                              ; preds = %487
  %496 = trunc i32 %492 to i8
  %497 = getelementptr inbounds i8, i8* %489, i64 2
  store i8 %496, i8* %493, align 1
  br label %498

498:                                              ; preds = %475, %481, %495
  %499 = phi i8* [ %476, %475 ], [ %484, %481 ], [ %497, %495 ]
  %500 = tail call i8* @_ZNK8perfetto6protos23BeginFrameObserverState18_InternalSerializeEPhPN6google8protobuf2io19EpsCopyOutputStreamE(%"class.perfetto::protos::BeginFrameObserverState"* %469, i8* %499, %"class.google::protobuf::io::EpsCopyOutputStream"* %2) #12
  br label %501

501:                                              ; preds = %456, %498
  %502 = phi i8* [ %500, %498 ], [ %457, %456 ]
  %503 = and i32 %5, 8
  %504 = icmp eq i32 %503, 0
  br i1 %504, label %547, label %505

505:                                              ; preds = %501
  %506 = getelementptr inbounds %"class.google::protobuf::io::EpsCopyOutputStream", %"class.google::protobuf::io::EpsCopyOutputStream"* %2, i64 0, i32 0
  %507 = load i8*, i8** %506, align 8
  %508 = icmp ugt i8* %507, %502
  br i1 %508, label %511, label %509, !prof !2

509:                                              ; preds = %505
  %510 = tail call i8* @_ZN6google8protobuf2io19EpsCopyOutputStream19EnsureSpaceFallbackEPh(%"class.google::protobuf::io::EpsCopyOutputStream"* %2, i8* %502) #12
  br label %511

511:                                              ; preds = %505, %509
  %512 = phi i8* [ %510, %509 ], [ %502, %505 ]
  %513 = getelementptr inbounds %"class.perfetto::protos::ChromeCompositorSchedulerState", %"class.perfetto::protos::ChromeCompositorSchedulerState"* %0, i64 0, i32 6
  %514 = load %"class.perfetto::protos::BeginFrameSourceState"*, %"class.perfetto::protos::BeginFrameSourceState"** %513, align 8
  store i8 -126, i8* %512, align 1
  %515 = getelementptr inbounds i8, i8* %512, i64 1
  store i8 1, i8* %515, align 1
  %516 = getelementptr inbounds i8, i8* %512, i64 2
  %517 = getelementptr inbounds %"class.perfetto::protos::BeginFrameSourceState", %"class.perfetto::protos::BeginFrameSourceState"* %514, i64 0, i32 2, i32 0, i32 0, i32 0, i32 0, i32 0, i32 0
  %518 = load atomic i32, i32* %517 monotonic, align 4
  %519 = icmp ult i32 %518, 128
  %520 = trunc i32 %518 to i8
  br i1 %519, label %521, label %523

521:                                              ; preds = %511
  store i8 %520, i8* %516, align 1
  %522 = getelementptr inbounds i8, i8* %512, i64 3
  br label %544

523:                                              ; preds = %511
  %524 = or i8 %520, -128
  store i8 %524, i8* %516, align 1
  %525 = lshr i32 %518, 7
  %526 = icmp ult i32 %518, 16384
  br i1 %526, label %527, label %531

527:                                              ; preds = %523
  %528 = trunc i32 %525 to i8
  %529 = getelementptr inbounds i8, i8* %512, i64 3
  store i8 %528, i8* %529, align 1
  %530 = getelementptr inbounds i8, i8* %512, i64 4
  br label %544

531:                                              ; preds = %523
  %532 = getelementptr inbounds i8, i8* %512, i64 3
  br label %533

533:                                              ; preds = %533, %531
  %534 = phi i32 [ %525, %531 ], [ %538, %533 ]
  %535 = phi i8* [ %532, %531 ], [ %539, %533 ]
  %536 = trunc i32 %534 to i8
  %537 = or i8 %536, -128
  store i8 %537, i8* %535, align 1
  %538 = lshr i32 %534, 7
  %539 = getelementptr inbounds i8, i8* %535, i64 1
  %540 = icmp ugt i32 %534, 16383
  br i1 %540, label %533, label %541, !prof !5

541:                                              ; preds = %533
  %542 = trunc i32 %538 to i8
  %543 = getelementptr inbounds i8, i8* %535, i64 2
  store i8 %542, i8* %539, align 1
  br label %544

544:                                              ; preds = %521, %527, %541
  %545 = phi i8* [ %522, %521 ], [ %530, %527 ], [ %543, %541 ]
  %546 = tail call i8* @_ZNK8perfetto6protos21BeginFrameSourceState18_InternalSerializeEPhPN6google8protobuf2io19EpsCopyOutputStreamE(%"class.perfetto::protos::BeginFrameSourceState"* %514, i8* %545, %"class.google::protobuf::io::EpsCopyOutputStream"* %2) #12
  br label %547

547:                                              ; preds = %501, %544
  %548 = phi i8* [ %546, %544 ], [ %502, %501 ]
  %549 = and i32 %5, 16
  %550 = icmp eq i32 %549, 0
  br i1 %550, label %593, label %551

551:                                              ; preds = %547
  %552 = getelementptr inbounds %"class.google::protobuf::io::EpsCopyOutputStream", %"class.google::protobuf::io::EpsCopyOutputStream"* %2, i64 0, i32 0
  %553 = load i8*, i8** %552, align 8
  %554 = icmp ugt i8* %553, %548
  br i1 %554, label %557, label %555, !prof !2

555:                                              ; preds = %551
  %556 = tail call i8* @_ZN6google8protobuf2io19EpsCopyOutputStream19EnsureSpaceFallbackEPh(%"class.google::protobuf::io::EpsCopyOutputStream"* %2, i8* %548) #12
  br label %557

557:                                              ; preds = %551, %555
  %558 = phi i8* [ %556, %555 ], [ %548, %551 ]
  %559 = getelementptr inbounds %"class.perfetto::protos::ChromeCompositorSchedulerState", %"class.perfetto::protos::ChromeCompositorSchedulerState"* %0, i64 0, i32 7
  %560 = load %"class.perfetto::protos::CompositorTimingHistory"*, %"class.perfetto::protos::CompositorTimingHistory"** %559, align 8
  store i8 -118, i8* %558, align 1
  %561 = getelementptr inbounds i8, i8* %558, i64 1
  store i8 1, i8* %561, align 1
  %562 = getelementptr inbounds i8, i8* %558, i64 2
  %563 = getelementptr inbounds %"class.perfetto::protos::CompositorTimingHistory", %"class.perfetto::protos::CompositorTimingHistory"* %560, i64 0, i32 2, i32 0, i32 0, i32 0, i32 0, i32 0, i32 0
  %564 = load atomic i32, i32* %563 monotonic, align 4
  %565 = icmp ult i32 %564, 128
  %566 = trunc i32 %564 to i8
  br i1 %565, label %567, label %569

567:                                              ; preds = %557
  store i8 %566, i8* %562, align 1
  %568 = getelementptr inbounds i8, i8* %558, i64 3
  br label %590

569:                                              ; preds = %557
  %570 = or i8 %566, -128
  store i8 %570, i8* %562, align 1
  %571 = lshr i32 %564, 7
  %572 = icmp ult i32 %564, 16384
  br i1 %572, label %573, label %577

573:                                              ; preds = %569
  %574 = trunc i32 %571 to i8
  %575 = getelementptr inbounds i8, i8* %558, i64 3
  store i8 %574, i8* %575, align 1
  %576 = getelementptr inbounds i8, i8* %558, i64 4
  br label %590

577:                                              ; preds = %569
  %578 = getelementptr inbounds i8, i8* %558, i64 3
  br label %579

579:                                              ; preds = %579, %577
  %580 = phi i32 [ %571, %577 ], [ %584, %579 ]
  %581 = phi i8* [ %578, %577 ], [ %585, %579 ]
  %582 = trunc i32 %580 to i8
  %583 = or i8 %582, -128
  store i8 %583, i8* %581, align 1
  %584 = lshr i32 %580, 7
  %585 = getelementptr inbounds i8, i8* %581, i64 1
  %586 = icmp ugt i32 %580, 16383
  br i1 %586, label %579, label %587, !prof !5

587:                                              ; preds = %579
  %588 = trunc i32 %584 to i8
  %589 = getelementptr inbounds i8, i8* %581, i64 2
  store i8 %588, i8* %585, align 1
  br label %590

590:                                              ; preds = %567, %573, %587
  %591 = phi i8* [ %568, %567 ], [ %576, %573 ], [ %589, %587 ]
  %592 = tail call i8* @_ZNK8perfetto6protos23CompositorTimingHistory18_InternalSerializeEPhPN6google8protobuf2io19EpsCopyOutputStreamE(%"class.perfetto::protos::CompositorTimingHistory"* %560, i8* %591, %"class.google::protobuf::io::EpsCopyOutputStream"* %2) #12
  br label %593

593:                                              ; preds = %547, %590
  %594 = phi i8* [ %592, %590 ], [ %548, %547 ]
  %595 = getelementptr inbounds %"class.perfetto::protos::ChromeCompositorSchedulerState", %"class.perfetto::protos::ChromeCompositorSchedulerState"* %0, i64 0, i32 0, i32 1
  %596 = bitcast %"class.google::protobuf::internal::InternalMetadata"* %595 to i64*
  %597 = load i64, i64* %596, align 8
  %598 = and i64 %597, 1
  %599 = icmp eq i64 %598, 0
  br i1 %599, label %631, label %600, !prof !2

600:                                              ; preds = %593
  %601 = and i64 %597, -2
  %602 = inttoptr i64 %601 to %"struct.google::protobuf::internal::InternalMetadata::Container"*
  %603 = getelementptr inbounds %"struct.google::protobuf::internal::InternalMetadata::Container", %"struct.google::protobuf::internal::InternalMetadata::Container"* %602, i64 0, i32 1
  %604 = bitcast %"class.std::__1::basic_string"* %603 to %"struct.std::__1::basic_string<char, std::__1::char_traits<char>, std::__1::allocator<char> >::__short"*
  %605 = getelementptr inbounds %"struct.std::__1::basic_string<char, std::__1::char_traits<char>, std::__1::allocator<char> >::__short", %"struct.std::__1::basic_string<char, std::__1::char_traits<char>, std::__1::allocator<char> >::__short"* %604, i64 0, i32 1, i32 0
  %606 = load i8, i8* %605, align 1
  %607 = icmp slt i8 %606, 0
  br i1 %607, label %608, label %613

608:                                              ; preds = %600
  %609 = getelementptr inbounds %"class.std::__1::basic_string", %"class.std::__1::basic_string"* %603, i64 0, i32 0, i32 0, i32 0, i32 0, i32 0, i32 0
  %610 = load i8*, i8** %609, align 8
  %611 = getelementptr inbounds %"struct.google::protobuf::internal::InternalMetadata::Container", %"struct.google::protobuf::internal::InternalMetadata::Container"* %602, i64 0, i32 1, i32 0, i32 0, i32 0, i32 0, i32 0, i32 1
  %612 = load i64, i64* %611, align 8
  br label %616

613:                                              ; preds = %600
  %614 = bitcast %"class.std::__1::basic_string"* %603 to i8*
  %615 = zext i8 %606 to i64
  br label %616

616:                                              ; preds = %608, %613
  %617 = phi i8* [ %610, %608 ], [ %614, %613 ]
  %618 = phi i64 [ %612, %608 ], [ %615, %613 ]
  %619 = bitcast %"class.google::protobuf::io::EpsCopyOutputStream"* %2 to i64*
  %620 = load i64, i64* %619, align 8
  %621 = ptrtoint i8* %594 to i64
  %622 = sub i64 %620, %621
  %623 = shl i64 %618, 32
  %624 = ashr exact i64 %623, 32
  %625 = icmp slt i64 %622, %624
  br i1 %625, label %626, label %629, !prof !5

626:                                              ; preds = %616
  %627 = trunc i64 %618 to i32
  %628 = tail call i8* @_ZN6google8protobuf2io19EpsCopyOutputStream16WriteRawFallbackEPKviPh(%"class.google::protobuf::io::EpsCopyOutputStream"* %2, i8* %617, i32 %627, i8* %594) #12
  br label %631

629:                                              ; preds = %616
  tail call void @llvm.memcpy.p0i8.p0i8.i64(i8* align 1 %594, i8* align 1 %617, i64 %624, i1 false) #12
  %630 = getelementptr inbounds i8, i8* %594, i64 %624
  br label %631

631:                                              ; preds = %593, %629, %626
  %632 = phi i8* [ %594, %593 ], [ %628, %626 ], [ %630, %629 ]
  ret i8* %632
}

; Function Attrs: nounwind ssp uwtable
define hidden i64 @_ZNK8perfetto6protos30ChromeCompositorSchedulerState12ByteSizeLongEv(%"class.perfetto::protos::ChromeCompositorSchedulerState"* nocapture) unnamed_addr #0 align 2 {
  %2 = getelementptr inbounds %"class.perfetto::protos::ChromeCompositorSchedulerState", %"class.perfetto::protos::ChromeCompositorSchedulerState"* %0, i64 0, i32 1, i32 0, i64 0
  %3 = load i32, i32* %2, align 4
  %4 = and i32 %3, 255
  %5 = icmp eq i32 %4, 0
  br i1 %5, label %174, label %6

6:                                                ; preds = %1
  %7 = and i32 %3, 1
  %8 = icmp eq i32 %7, 0
  br i1 %8, label %23, label %9

9:                                                ; preds = %6
  %10 = getelementptr inbounds %"class.perfetto::protos::ChromeCompositorSchedulerState", %"class.perfetto::protos::ChromeCompositorSchedulerState"* %0, i64 0, i32 3
  %11 = load %"class.perfetto::protos::ChromeCompositorStateMachine"*, %"class.perfetto::protos::ChromeCompositorStateMachine"** %10, align 8
  %12 = tail call i64 @_ZNK8perfetto6protos28ChromeCompositorStateMachine12ByteSizeLongEv(%"class.perfetto::protos::ChromeCompositorStateMachine"* %11) #12
  %13 = trunc i64 %12 to i32
  %14 = or i32 %13, 1
  %15 = tail call i32 @llvm.ctlz.i32(i32 %14, i1 true) #12, !range !7
  %16 = xor i32 %15, 31
  %17 = mul nuw nsw i32 %16, 9
  %18 = add nuw nsw i32 %17, 73
  %19 = lshr i32 %18, 6
  %20 = zext i32 %19 to i64
  %21 = add i64 %12, 1
  %22 = add i64 %21, %20
  br label %23

23:                                               ; preds = %6, %9
  %24 = phi i64 [ %22, %9 ], [ 0, %6 ]
  %25 = and i32 %3, 2
  %26 = icmp eq i32 %25, 0
  br i1 %26, label %42, label %27

27:                                               ; preds = %23
  %28 = getelementptr inbounds %"class.perfetto::protos::ChromeCompositorSchedulerState", %"class.perfetto::protos::ChromeCompositorSchedulerState"* %0, i64 0, i32 4
  %29 = load %"class.perfetto::protos::BeginImplFrameArgs"*, %"class.perfetto::protos::BeginImplFrameArgs"** %28, align 8
  %30 = tail call i64 @_ZNK8perfetto6protos18BeginImplFrameArgs12ByteSizeLongEv(%"class.perfetto::protos::BeginImplFrameArgs"* %29) #12
  %31 = trunc i64 %30 to i32
  %32 = or i32 %31, 1
  %33 = tail call i32 @llvm.ctlz.i32(i32 %32, i1 true) #12, !range !7
  %34 = xor i32 %33, 31
  %35 = mul nuw nsw i32 %34, 9
  %36 = add nuw nsw i32 %35, 73
  %37 = lshr i32 %36, 6
  %38 = zext i32 %37 to i64
  %39 = add i64 %24, 1
  %40 = add i64 %39, %30
  %41 = add i64 %40, %38
  br label %42

42:                                               ; preds = %23, %27
  %43 = phi i64 [ %41, %27 ], [ %24, %23 ]
  %44 = and i32 %3, 4
  %45 = icmp eq i32 %44, 0
  br i1 %45, label %122, label %46

46:                                               ; preds = %42
  %47 = getelementptr inbounds %"class.perfetto::protos::ChromeCompositorSchedulerState", %"class.perfetto::protos::ChromeCompositorSchedulerState"* %0, i64 0, i32 5
  %48 = load %"class.perfetto::protos::BeginFrameObserverState"*, %"class.perfetto::protos::BeginFrameObserverState"** %47, align 8
  %49 = getelementptr inbounds %"class.perfetto::protos::BeginFrameObserverState", %"class.perfetto::protos::BeginFrameObserverState"* %48, i64 0, i32 1, i32 0, i64 0
  %50 = load i32, i32* %49, align 4
  %51 = and i32 %50, 3
  %52 = icmp eq i32 %51, 0
  br i1 %52, label %85, label %53

53:                                               ; preds = %46
  %54 = and i32 %50, 1
  %55 = icmp eq i32 %54, 0
  br i1 %55, label %70, label %56

56:                                               ; preds = %53
  %57 = getelementptr inbounds %"class.perfetto::protos::BeginFrameObserverState", %"class.perfetto::protos::BeginFrameObserverState"* %48, i64 0, i32 3
  %58 = load %"class.perfetto::protos::BeginFrameArgs"*, %"class.perfetto::protos::BeginFrameArgs"** %57, align 8
  %59 = tail call i64 @_ZNK8perfetto6protos14BeginFrameArgs12ByteSizeLongEv(%"class.perfetto::protos::BeginFrameArgs"* %58) #12
  %60 = trunc i64 %59 to i32
  %61 = or i32 %60, 1
  %62 = tail call i32 @llvm.ctlz.i32(i32 %61, i1 true) #12, !range !7
  %63 = xor i32 %62, 31
  %64 = mul nuw nsw i32 %63, 9
  %65 = add nuw nsw i32 %64, 73
  %66 = lshr i32 %65, 6
  %67 = zext i32 %66 to i64
  %68 = add i64 %59, 1
  %69 = add i64 %68, %67
  br label %70

70:                                               ; preds = %56, %53
  %71 = phi i64 [ %69, %56 ], [ 0, %53 ]
  %72 = and i32 %50, 2
  %73 = icmp eq i32 %72, 0
  br i1 %73, label %85, label %74

74:                                               ; preds = %70
  %75 = getelementptr inbounds %"class.perfetto::protos::BeginFrameObserverState", %"class.perfetto::protos::BeginFrameObserverState"* %48, i64 0, i32 4
  %76 = load i64, i64* %75, align 8
  %77 = or i64 %76, 1
  %78 = tail call i64 @llvm.ctlz.i64(i64 %77, i1 true) #12, !range !8
  %79 = xor i64 %78, 63
  %80 = mul nuw nsw i64 %79, 9
  %81 = add nuw nsw i64 %80, 73
  %82 = lshr i64 %81, 6
  %83 = add i64 %71, 1
  %84 = add i64 %83, %82
  br label %85

85:                                               ; preds = %74, %70, %46
  %86 = phi i64 [ %84, %74 ], [ %71, %70 ], [ 0, %46 ]
  %87 = getelementptr inbounds %"class.perfetto::protos::BeginFrameObserverState", %"class.perfetto::protos::BeginFrameObserverState"* %48, i64 0, i32 0, i32 1
  %88 = bitcast %"class.google::protobuf::internal::InternalMetadata"* %87 to i64*
  %89 = load i64, i64* %88, align 8
  %90 = and i64 %89, 1
  %91 = icmp eq i64 %90, 0
  br i1 %91, label %108, label %92, !prof !2

92:                                               ; preds = %85
  %93 = and i64 %89, -2
  %94 = inttoptr i64 %93 to %"struct.google::protobuf::internal::InternalMetadata::Container"*
  %95 = getelementptr inbounds %"struct.google::protobuf::internal::InternalMetadata::Container", %"struct.google::protobuf::internal::InternalMetadata::Container"* %94, i64 0, i32 1
  %96 = bitcast %"class.std::__1::basic_string"* %95 to %"struct.std::__1::basic_string<char, std::__1::char_traits<char>, std::__1::allocator<char> >::__short"*
  %97 = getelementptr inbounds %"struct.std::__1::basic_string<char, std::__1::char_traits<char>, std::__1::allocator<char> >::__short", %"struct.std::__1::basic_string<char, std::__1::char_traits<char>, std::__1::allocator<char> >::__short"* %96, i64 0, i32 1, i32 0
  %98 = load i8, i8* %97, align 1
  %99 = icmp slt i8 %98, 0
  br i1 %99, label %100, label %103

100:                                              ; preds = %92
  %101 = getelementptr inbounds %"struct.google::protobuf::internal::InternalMetadata::Container", %"struct.google::protobuf::internal::InternalMetadata::Container"* %94, i64 0, i32 1, i32 0, i32 0, i32 0, i32 0, i32 0, i32 1
  %102 = load i64, i64* %101, align 8
  br label %105

103:                                              ; preds = %92
  %104 = zext i8 %98 to i64
  br label %105

105:                                              ; preds = %103, %100
  %106 = phi i64 [ %102, %100 ], [ %104, %103 ]
  %107 = add i64 %106, %86
  br label %108

108:                                              ; preds = %85, %105
  %109 = phi i64 [ %107, %105 ], [ %86, %85 ]
  %110 = trunc i64 %109 to i32
  %111 = getelementptr inbounds %"class.perfetto::protos::BeginFrameObserverState", %"class.perfetto::protos::BeginFrameObserverState"* %48, i64 0, i32 2, i32 0, i32 0, i32 0, i32 0, i32 0, i32 0
  store atomic i32 %110, i32* %111 monotonic, align 4
  %112 = or i32 %110, 1
  %113 = tail call i32 @llvm.ctlz.i32(i32 %112, i1 true) #12, !range !7
  %114 = xor i32 %113, 31
  %115 = mul nuw nsw i32 %114, 9
  %116 = add nuw nsw i32 %115, 73
  %117 = lshr i32 %116, 6
  %118 = zext i32 %117 to i64
  %119 = add i64 %43, 1
  %120 = add i64 %119, %109
  %121 = add i64 %120, %118
  br label %122

122:                                              ; preds = %42, %108
  %123 = phi i64 [ %121, %108 ], [ %43, %42 ]
  %124 = and i32 %3, 8
  %125 = icmp eq i32 %124, 0
  br i1 %125, label %141, label %126

126:                                              ; preds = %122
  %127 = getelementptr inbounds %"class.perfetto::protos::ChromeCompositorSchedulerState", %"class.perfetto::protos::ChromeCompositorSchedulerState"* %0, i64 0, i32 6
  %128 = load %"class.perfetto::protos::BeginFrameSourceState"*, %"class.perfetto::protos::BeginFrameSourceState"** %127, align 8
  %129 = tail call i64 @_ZNK8perfetto6protos21BeginFrameSourceState12ByteSizeLongEv(%"class.perfetto::protos::BeginFrameSourceState"* %128) #12
  %130 = trunc i64 %129 to i32
  %131 = or i32 %130, 1
  %132 = tail call i32 @llvm.ctlz.i32(i32 %131, i1 true) #12, !range !7
  %133 = xor i32 %132, 31
  %134 = mul nuw nsw i32 %133, 9
  %135 = add nuw nsw i32 %134, 73
  %136 = lshr i32 %135, 6
  %137 = zext i32 %136 to i64
  %138 = add i64 %123, 2
  %139 = add i64 %138, %129
  %140 = add i64 %139, %137
  br label %141

141:                                              ; preds = %122, %126
  %142 = phi i64 [ %140, %126 ], [ %123, %122 ]
  %143 = and i32 %3, 16
  %144 = icmp eq i32 %143, 0
  br i1 %144, label %160, label %145

145:                                              ; preds = %141
  %146 = getelementptr inbounds %"class.perfetto::protos::ChromeCompositorSchedulerState", %"class.perfetto::protos::ChromeCompositorSchedulerState"* %0, i64 0, i32 7
  %147 = load %"class.perfetto::protos::CompositorTimingHistory"*, %"class.perfetto::protos::CompositorTimingHistory"** %146, align 8
  %148 = tail call i64 @_ZNK8perfetto6protos23CompositorTimingHistory12ByteSizeLongEv(%"class.perfetto::protos::CompositorTimingHistory"* %147) #12
  %149 = trunc i64 %148 to i32
  %150 = or i32 %149, 1
  %151 = tail call i32 @llvm.ctlz.i32(i32 %150, i1 true) #12, !range !7
  %152 = xor i32 %151, 31
  %153 = mul nuw nsw i32 %152, 9
  %154 = add nuw nsw i32 %153, 73
  %155 = lshr i32 %154, 6
  %156 = zext i32 %155 to i64
  %157 = add i64 %142, 2
  %158 = add i64 %157, %148
  %159 = add i64 %158, %156
  br label %160

160:                                              ; preds = %141, %145
  %161 = phi i64 [ %159, %145 ], [ %142, %141 ]
  %162 = and i32 %3, 32
  %163 = icmp eq i32 %162, 0
  %164 = add i64 %161, 2
  %165 = select i1 %163, i64 %161, i64 %164
  %166 = and i32 %3, 64
  %167 = icmp eq i32 %166, 0
  %168 = add i64 %165, 2
  %169 = select i1 %167, i64 %165, i64 %168
  %170 = trunc i32 %3 to i8
  %171 = icmp slt i8 %170, 0
  %172 = add i64 %169, 2
  %173 = select i1 %171, i64 %172, i64 %169
  br label %174

174:                                              ; preds = %160, %1
  %175 = phi i64 [ 0, %1 ], [ %173, %160 ]
  %176 = and i32 %3, 65280
  %177 = icmp eq i32 %176, 0
  br i1 %177, label %285, label %178

178:                                              ; preds = %174
  %179 = and i32 %3, 256
  %180 = icmp eq i32 %179, 0
  %181 = add i64 %175, 2
  %182 = select i1 %180, i64 %175, i64 %181
  %183 = and i32 %3, 512
  %184 = icmp eq i32 %183, 0
  %185 = add i64 %182, 2
  %186 = select i1 %184, i64 %182, i64 %185
  %187 = and i32 %3, 1024
  %188 = icmp eq i32 %187, 0
  br i1 %188, label %205, label %189

189:                                              ; preds = %178
  %190 = getelementptr inbounds %"class.perfetto::protos::ChromeCompositorSchedulerState", %"class.perfetto::protos::ChromeCompositorSchedulerState"* %0, i64 0, i32 13
  %191 = load i32, i32* %190, align 8
  %192 = icmp slt i32 %191, 0
  br i1 %192, label %202, label %193

193:                                              ; preds = %189
  %194 = or i32 %191, 1
  %195 = tail call i32 @llvm.ctlz.i32(i32 %194, i1 true) #12, !range !7
  %196 = xor i32 %195, 31
  %197 = mul nuw nsw i32 %196, 9
  %198 = add nuw nsw i32 %197, 73
  %199 = lshr i32 %198, 6
  %200 = add nuw nsw i32 %199, 1
  %201 = zext i32 %200 to i64
  br label %202

202:                                              ; preds = %189, %193
  %203 = phi i64 [ %201, %193 ], [ 11, %189 ]
  %204 = add i64 %203, %186
  br label %205

205:                                              ; preds = %178, %202
  %206 = phi i64 [ %204, %202 ], [ %186, %178 ]
  %207 = and i32 %3, 2048
  %208 = icmp eq i32 %207, 0
  br i1 %208, label %225, label %209

209:                                              ; preds = %205
  %210 = getelementptr inbounds %"class.perfetto::protos::ChromeCompositorSchedulerState", %"class.perfetto::protos::ChromeCompositorSchedulerState"* %0, i64 0, i32 14
  %211 = load i32, i32* %210, align 4
  %212 = icmp slt i32 %211, 0
  br i1 %212, label %222, label %213

213:                                              ; preds = %209
  %214 = or i32 %211, 1
  %215 = tail call i32 @llvm.ctlz.i32(i32 %214, i1 true) #12, !range !7
  %216 = xor i32 %215, 31
  %217 = mul nuw nsw i32 %216, 9
  %218 = add nuw nsw i32 %217, 73
  %219 = lshr i32 %218, 6
  %220 = add nuw nsw i32 %219, 1
  %221 = zext i32 %220 to i64
  br label %222

222:                                              ; preds = %209, %213
  %223 = phi i64 [ %221, %213 ], [ 11, %209 ]
  %224 = add i64 %223, %206
  br label %225

225:                                              ; preds = %205, %222
  %226 = phi i64 [ %224, %222 ], [ %206, %205 ]
  %227 = and i32 %3, 4096
  %228 = icmp eq i32 %227, 0
  br i1 %228, label %240, label %229

229:                                              ; preds = %225
  %230 = getelementptr inbounds %"class.perfetto::protos::ChromeCompositorSchedulerState", %"class.perfetto::protos::ChromeCompositorSchedulerState"* %0, i64 0, i32 15
  %231 = load i64, i64* %230, align 8
  %232 = or i64 %231, 1
  %233 = tail call i64 @llvm.ctlz.i64(i64 %232, i1 true) #12, !range !8
  %234 = xor i64 %233, 63
  %235 = mul nuw nsw i64 %234, 9
  %236 = add nuw nsw i64 %235, 73
  %237 = lshr i64 %236, 6
  %238 = add i64 %226, 1
  %239 = add i64 %238, %237
  br label %240

240:                                              ; preds = %225, %229
  %241 = phi i64 [ %239, %229 ], [ %226, %225 ]
  %242 = and i32 %3, 8192
  %243 = icmp eq i32 %242, 0
  br i1 %243, label %255, label %244

244:                                              ; preds = %240
  %245 = getelementptr inbounds %"class.perfetto::protos::ChromeCompositorSchedulerState", %"class.perfetto::protos::ChromeCompositorSchedulerState"* %0, i64 0, i32 16
  %246 = load i64, i64* %245, align 8
  %247 = or i64 %246, 1
  %248 = tail call i64 @llvm.ctlz.i64(i64 %247, i1 true) #12, !range !8
  %249 = xor i64 %248, 63
  %250 = mul nuw nsw i64 %249, 9
  %251 = add nuw nsw i64 %250, 73
  %252 = lshr i64 %251, 6
  %253 = add i64 %241, 1
  %254 = add i64 %253, %252
  br label %255

255:                                              ; preds = %240, %244
  %256 = phi i64 [ %254, %244 ], [ %241, %240 ]
  %257 = and i32 %3, 16384
  %258 = icmp eq i32 %257, 0
  br i1 %258, label %270, label %259

259:                                              ; preds = %255
  %260 = getelementptr inbounds %"class.perfetto::protos::ChromeCompositorSchedulerState", %"class.perfetto::protos::ChromeCompositorSchedulerState"* %0, i64 0, i32 17
  %261 = load i64, i64* %260, align 8
  %262 = or i64 %261, 1
  %263 = tail call i64 @llvm.ctlz.i64(i64 %262, i1 true) #12, !range !8
  %264 = xor i64 %263, 63
  %265 = mul nuw nsw i64 %264, 9
  %266 = add nuw nsw i64 %265, 73
  %267 = lshr i64 %266, 6
  %268 = add i64 %256, 1
  %269 = add i64 %268, %267
  br label %270

270:                                              ; preds = %255, %259
  %271 = phi i64 [ %269, %259 ], [ %256, %255 ]
  %272 = trunc i32 %3 to i16
  %273 = icmp slt i16 %272, 0
  br i1 %273, label %274, label %285

274:                                              ; preds = %270
  %275 = getelementptr inbounds %"class.perfetto::protos::ChromeCompositorSchedulerState", %"class.perfetto::protos::ChromeCompositorSchedulerState"* %0, i64 0, i32 18
  %276 = load i64, i64* %275, align 8
  %277 = or i64 %276, 1
  %278 = tail call i64 @llvm.ctlz.i64(i64 %277, i1 true) #12, !range !8
  %279 = xor i64 %278, 63
  %280 = mul nuw nsw i64 %279, 9
  %281 = add nuw nsw i64 %280, 73
  %282 = lshr i64 %281, 6
  %283 = add i64 %271, 1
  %284 = add i64 %283, %282
  br label %285

285:                                              ; preds = %174, %270, %274
  %286 = phi i64 [ %284, %274 ], [ %271, %270 ], [ %175, %174 ]
  %287 = and i32 %3, 65536
  %288 = icmp eq i32 %287, 0
  br i1 %288, label %300, label %289

289:                                              ; preds = %285
  %290 = getelementptr inbounds %"class.perfetto::protos::ChromeCompositorSchedulerState", %"class.perfetto::protos::ChromeCompositorSchedulerState"* %0, i64 0, i32 19
  %291 = load i64, i64* %290, align 8
  %292 = or i64 %291, 1
  %293 = tail call i64 @llvm.ctlz.i64(i64 %292, i1 true) #12, !range !8
  %294 = xor i64 %293, 63
  %295 = mul nuw nsw i64 %294, 9
  %296 = add nuw nsw i64 %295, 73
  %297 = lshr i64 %296, 6
  %298 = add i64 %286, 1
  %299 = add i64 %298, %297
  br label %300

300:                                              ; preds = %285, %289
  %301 = phi i64 [ %299, %289 ], [ %286, %285 ]
  %302 = getelementptr inbounds %"class.perfetto::protos::ChromeCompositorSchedulerState", %"class.perfetto::protos::ChromeCompositorSchedulerState"* %0, i64 0, i32 0, i32 1
  %303 = bitcast %"class.google::protobuf::internal::InternalMetadata"* %302 to i64*
  %304 = load i64, i64* %303, align 8
  %305 = and i64 %304, 1
  %306 = icmp eq i64 %305, 0
  br i1 %306, label %323, label %307, !prof !2

307:                                              ; preds = %300
  %308 = and i64 %304, -2
  %309 = inttoptr i64 %308 to %"struct.google::protobuf::internal::InternalMetadata::Container"*
  %310 = getelementptr inbounds %"struct.google::protobuf::internal::InternalMetadata::Container", %"struct.google::protobuf::internal::InternalMetadata::Container"* %309, i64 0, i32 1
  %311 = bitcast %"class.std::__1::basic_string"* %310 to %"struct.std::__1::basic_string<char, std::__1::char_traits<char>, std::__1::allocator<char> >::__short"*
  %312 = getelementptr inbounds %"struct.std::__1::basic_string<char, std::__1::char_traits<char>, std::__1::allocator<char> >::__short", %"struct.std::__1::basic_string<char, std::__1::char_traits<char>, std::__1::allocator<char> >::__short"* %311, i64 0, i32 1, i32 0
  %313 = load i8, i8* %312, align 1
  %314 = icmp slt i8 %313, 0
  br i1 %314, label %315, label %318

315:                                              ; preds = %307
  %316 = getelementptr inbounds %"struct.google::protobuf::internal::InternalMetadata::Container", %"struct.google::protobuf::internal::InternalMetadata::Container"* %309, i64 0, i32 1, i32 0, i32 0, i32 0, i32 0, i32 0, i32 1
  %317 = load i64, i64* %316, align 8
  br label %320

318:                                              ; preds = %307
  %319 = zext i8 %313 to i64
  br label %320

320:                                              ; preds = %315, %318
  %321 = phi i64 [ %317, %315 ], [ %319, %318 ]
  %322 = add i64 %321, %301
  br label %323

323:                                              ; preds = %300, %320
  %324 = phi i64 [ %322, %320 ], [ %301, %300 ]
  %325 = trunc i64 %324 to i32
  %326 = getelementptr inbounds %"class.perfetto::protos::ChromeCompositorSchedulerState", %"class.perfetto::protos::ChromeCompositorSchedulerState"* %0, i64 0, i32 2, i32 0, i32 0, i32 0, i32 0, i32 0, i32 0
  store atomic i32 %325, i32* %326 monotonic, align 4
  ret i64 %324
}

; Function Attrs: nounwind ssp uwtable
define hidden void @_ZN8perfetto6protos30ChromeCompositorSchedulerState21CheckTypeAndMergeFromERKN6google8protobuf11MessageLiteE(%"class.perfetto::protos::ChromeCompositorSchedulerState"*, %"class.google::protobuf::MessageLite"* nocapture readonly dereferenceable(16)) unnamed_addr #0 align 2 {
  %3 = bitcast %"class.google::protobuf::MessageLite"* %1 to %"class.perfetto::protos::ChromeCompositorSchedulerState"*
  tail call void @_ZN8perfetto6protos30ChromeCompositorSchedulerState9MergeFromERKS1_(%"class.perfetto::protos::ChromeCompositorSchedulerState"* %0, %"class.perfetto::protos::ChromeCompositorSchedulerState"* dereferenceable(120) %3)
  ret void
}

; Function Attrs: nounwind ssp uwtable
define hidden void @_ZN8perfetto6protos30ChromeCompositorSchedulerState9MergeFromERKS1_(%"class.perfetto::protos::ChromeCompositorSchedulerState"*, %"class.perfetto::protos::ChromeCompositorSchedulerState"* nocapture readonly dereferenceable(120)) local_unnamed_addr #0 align 2 {
  %3 = getelementptr inbounds %"class.perfetto::protos::ChromeCompositorSchedulerState", %"class.perfetto::protos::ChromeCompositorSchedulerState"* %0, i64 0, i32 0, i32 1
  %4 = getelementptr inbounds %"class.perfetto::protos::ChromeCompositorSchedulerState", %"class.perfetto::protos::ChromeCompositorSchedulerState"* %1, i64 0, i32 0, i32 1
  %5 = bitcast %"class.google::protobuf::internal::InternalMetadata"* %4 to i64*
  %6 = load i64, i64* %5, align 8
  %7 = and i64 %6, 1
  %8 = icmp eq i64 %7, 0
  br i1 %8, label %38, label %9

9:                                                ; preds = %2
  %10 = and i64 %6, -2
  %11 = inttoptr i64 %10 to %"struct.google::protobuf::internal::InternalMetadata::Container"*
  %12 = getelementptr inbounds %"struct.google::protobuf::internal::InternalMetadata::Container", %"struct.google::protobuf::internal::InternalMetadata::Container"* %11, i64 0, i32 1
  %13 = bitcast %"class.google::protobuf::internal::InternalMetadata"* %3 to i64*
  %14 = load i64, i64* %13, align 8
  %15 = and i64 %14, 1
  %16 = icmp eq i64 %15, 0
  br i1 %16, label %21, label %17, !prof !5

17:                                               ; preds = %9
  %18 = and i64 %14, -2
  %19 = inttoptr i64 %18 to %"struct.google::protobuf::internal::InternalMetadata::Container"*
  %20 = getelementptr inbounds %"struct.google::protobuf::internal::InternalMetadata::Container", %"struct.google::protobuf::internal::InternalMetadata::Container"* %19, i64 0, i32 1
  br label %23

21:                                               ; preds = %9
  %22 = tail call %"class.std::__1::basic_string"* @_ZN6google8protobuf8internal16InternalMetadata27mutable_unknown_fields_slowINSt3__112basic_stringIcNS4_11char_traitsIcEENS4_9allocatorIcEEEEEEPT_v(%"class.google::protobuf::internal::InternalMetadata"* %3) #12
  br label %23

23:                                               ; preds = %21, %17
  %24 = phi %"class.std::__1::basic_string"* [ %20, %17 ], [ %22, %21 ]
  %25 = bitcast %"class.std::__1::basic_string"* %12 to %"struct.std::__1::basic_string<char, std::__1::char_traits<char>, std::__1::allocator<char> >::__short"*
  %26 = getelementptr inbounds %"struct.std::__1::basic_string<char, std::__1::char_traits<char>, std::__1::allocator<char> >::__short", %"struct.std::__1::basic_string<char, std::__1::char_traits<char>, std::__1::allocator<char> >::__short"* %25, i64 0, i32 1, i32 0
  %27 = load i8, i8* %26, align 1
  %28 = icmp slt i8 %27, 0
  %29 = getelementptr inbounds %"class.std::__1::basic_string", %"class.std::__1::basic_string"* %12, i64 0, i32 0, i32 0, i32 0, i32 0, i32 0, i32 0
  %30 = load i8*, i8** %29, align 8
  %31 = getelementptr inbounds %"struct.google::protobuf::internal::InternalMetadata::Container", %"struct.google::protobuf::internal::InternalMetadata::Container"* %11, i64 0, i32 1, i32 0, i32 0, i32 0, i32 0, i32 0, i32 1
  %32 = load i64, i64* %31, align 8
  %33 = bitcast %"class.std::__1::basic_string"* %12 to i8*
  %34 = zext i8 %27 to i64
  %35 = select i1 %28, i8* %30, i8* %33
  %36 = select i1 %28, i64 %32, i64 %34
  %37 = tail call dereferenceable(24) %"class.std::__1::basic_string"* @_ZNSt3__112basic_stringIcNS_11char_traitsIcEENS_9allocatorIcEEE6appendEPKcm(%"class.std::__1::basic_string"* %24, i8* %35, i64 %36) #12
  br label %38

38:                                               ; preds = %2, %23
  %39 = getelementptr inbounds %"class.perfetto::protos::ChromeCompositorSchedulerState", %"class.perfetto::protos::ChromeCompositorSchedulerState"* %1, i64 0, i32 1, i32 0, i64 0
  %40 = load i32, i32* %39, align 4
  %41 = and i32 %40, 255
  %42 = icmp eq i32 %41, 0
  br i1 %42, label %223, label %43

43:                                               ; preds = %38
  %44 = and i32 %40, 1
  %45 = icmp eq i32 %44, 0
  br i1 %45, label %74, label %46

46:                                               ; preds = %43
  %47 = getelementptr inbounds %"class.perfetto::protos::ChromeCompositorSchedulerState", %"class.perfetto::protos::ChromeCompositorSchedulerState"* %0, i64 0, i32 1, i32 0, i64 0
  %48 = load i32, i32* %47, align 4
  %49 = or i32 %48, 1
  store i32 %49, i32* %47, align 4
  %50 = getelementptr inbounds %"class.perfetto::protos::ChromeCompositorSchedulerState", %"class.perfetto::protos::ChromeCompositorSchedulerState"* %0, i64 0, i32 3
  %51 = load %"class.perfetto::protos::ChromeCompositorStateMachine"*, %"class.perfetto::protos::ChromeCompositorStateMachine"** %50, align 8
  %52 = icmp eq %"class.perfetto::protos::ChromeCompositorStateMachine"* %51, null
  br i1 %52, label %53, label %68

53:                                               ; preds = %46
  %54 = bitcast %"class.google::protobuf::internal::InternalMetadata"* %3 to i64*
  %55 = load i64, i64* %54, align 8
  %56 = and i64 %55, 1
  %57 = icmp eq i64 %56, 0
  %58 = and i64 %55, -2
  br i1 %57, label %63, label %59, !prof !2

59:                                               ; preds = %53
  %60 = inttoptr i64 %58 to %"struct.google::protobuf::internal::InternalMetadata::ContainerBase"*
  %61 = getelementptr inbounds %"struct.google::protobuf::internal::InternalMetadata::ContainerBase", %"struct.google::protobuf::internal::InternalMetadata::ContainerBase"* %60, i64 0, i32 0
  %62 = load %"class.google::protobuf::Arena"*, %"class.google::protobuf::Arena"** %61, align 8
  br label %65

63:                                               ; preds = %53
  %64 = inttoptr i64 %58 to %"class.google::protobuf::Arena"*
  br label %65

65:                                               ; preds = %63, %59
  %66 = phi %"class.google::protobuf::Arena"* [ %62, %59 ], [ %64, %63 ]
  %67 = tail call %"class.perfetto::protos::ChromeCompositorStateMachine"* @_ZN6google8protobuf5Arena18CreateMaybeMessageIN8perfetto6protos28ChromeCompositorStateMachineEJEEEPT_PS1_DpOT0_(%"class.google::protobuf::Arena"* %66) #12
  store %"class.perfetto::protos::ChromeCompositorStateMachine"* %67, %"class.perfetto::protos::ChromeCompositorStateMachine"** %50, align 8
  br label %68

68:                                               ; preds = %46, %65
  %69 = phi %"class.perfetto::protos::ChromeCompositorStateMachine"* [ %67, %65 ], [ %51, %46 ]
  %70 = getelementptr inbounds %"class.perfetto::protos::ChromeCompositorSchedulerState", %"class.perfetto::protos::ChromeCompositorSchedulerState"* %1, i64 0, i32 3
  %71 = load %"class.perfetto::protos::ChromeCompositorStateMachine"*, %"class.perfetto::protos::ChromeCompositorStateMachine"** %70, align 8
  %72 = icmp eq %"class.perfetto::protos::ChromeCompositorStateMachine"* %71, null
  %73 = select i1 %72, %"class.perfetto::protos::ChromeCompositorStateMachine"* bitcast (%"class.perfetto::protos::ChromeCompositorStateMachineDefaultTypeInternal"* @_ZN8perfetto6protos47_ChromeCompositorStateMachine_default_instance_E to %"class.perfetto::protos::ChromeCompositorStateMachine"*), %"class.perfetto::protos::ChromeCompositorStateMachine"* %71
  tail call void @_ZN8perfetto6protos28ChromeCompositorStateMachine9MergeFromERKS1_(%"class.perfetto::protos::ChromeCompositorStateMachine"* %69, %"class.perfetto::protos::ChromeCompositorStateMachine"* dereferenceable(40) %73)
  br label %74

74:                                               ; preds = %43, %68
  %75 = and i32 %40, 2
  %76 = icmp eq i32 %75, 0
  br i1 %76, label %105, label %77

77:                                               ; preds = %74
  %78 = getelementptr inbounds %"class.perfetto::protos::ChromeCompositorSchedulerState", %"class.perfetto::protos::ChromeCompositorSchedulerState"* %0, i64 0, i32 1, i32 0, i64 0
  %79 = load i32, i32* %78, align 4
  %80 = or i32 %79, 2
  store i32 %80, i32* %78, align 4
  %81 = getelementptr inbounds %"class.perfetto::protos::ChromeCompositorSchedulerState", %"class.perfetto::protos::ChromeCompositorSchedulerState"* %0, i64 0, i32 4
  %82 = load %"class.perfetto::protos::BeginImplFrameArgs"*, %"class.perfetto::protos::BeginImplFrameArgs"** %81, align 8
  %83 = icmp eq %"class.perfetto::protos::BeginImplFrameArgs"* %82, null
  br i1 %83, label %84, label %99

84:                                               ; preds = %77
  %85 = bitcast %"class.google::protobuf::internal::InternalMetadata"* %3 to i64*
  %86 = load i64, i64* %85, align 8
  %87 = and i64 %86, 1
  %88 = icmp eq i64 %87, 0
  %89 = and i64 %86, -2
  br i1 %88, label %94, label %90, !prof !2

90:                                               ; preds = %84
  %91 = inttoptr i64 %89 to %"struct.google::protobuf::internal::InternalMetadata::ContainerBase"*
  %92 = getelementptr inbounds %"struct.google::protobuf::internal::InternalMetadata::ContainerBase", %"struct.google::protobuf::internal::InternalMetadata::ContainerBase"* %91, i64 0, i32 0
  %93 = load %"class.google::protobuf::Arena"*, %"class.google::protobuf::Arena"** %92, align 8
  br label %96

94:                                               ; preds = %84
  %95 = inttoptr i64 %89 to %"class.google::protobuf::Arena"*
  br label %96

96:                                               ; preds = %94, %90
  %97 = phi %"class.google::protobuf::Arena"* [ %93, %90 ], [ %95, %94 ]
  %98 = tail call %"class.perfetto::protos::BeginImplFrameArgs"* @_ZN6google8protobuf5Arena18CreateMaybeMessageIN8perfetto6protos18BeginImplFrameArgsEJEEEPT_PS1_DpOT0_(%"class.google::protobuf::Arena"* %97) #12
  store %"class.perfetto::protos::BeginImplFrameArgs"* %98, %"class.perfetto::protos::BeginImplFrameArgs"** %81, align 8
  br label %99

99:                                               ; preds = %77, %96
  %100 = phi %"class.perfetto::protos::BeginImplFrameArgs"* [ %98, %96 ], [ %82, %77 ]
  %101 = getelementptr inbounds %"class.perfetto::protos::ChromeCompositorSchedulerState", %"class.perfetto::protos::ChromeCompositorSchedulerState"* %1, i64 0, i32 4
  %102 = load %"class.perfetto::protos::BeginImplFrameArgs"*, %"class.perfetto::protos::BeginImplFrameArgs"** %101, align 8
  %103 = icmp eq %"class.perfetto::protos::BeginImplFrameArgs"* %102, null
  %104 = select i1 %103, %"class.perfetto::protos::BeginImplFrameArgs"* bitcast (%"class.perfetto::protos::BeginImplFrameArgsDefaultTypeInternal"* @_ZN8perfetto6protos37_BeginImplFrameArgs_default_instance_E to %"class.perfetto::protos::BeginImplFrameArgs"*), %"class.perfetto::protos::BeginImplFrameArgs"* %102
  tail call void @_ZN8perfetto6protos18BeginImplFrameArgs9MergeFromERKS1_(%"class.perfetto::protos::BeginImplFrameArgs"* %100, %"class.perfetto::protos::BeginImplFrameArgs"* dereferenceable(72) %104)
  br label %105

105:                                              ; preds = %74, %99
  %106 = and i32 %40, 4
  %107 = icmp eq i32 %106, 0
  br i1 %107, label %136, label %108

108:                                              ; preds = %105
  %109 = getelementptr inbounds %"class.perfetto::protos::ChromeCompositorSchedulerState", %"class.perfetto::protos::ChromeCompositorSchedulerState"* %0, i64 0, i32 1, i32 0, i64 0
  %110 = load i32, i32* %109, align 4
  %111 = or i32 %110, 4
  store i32 %111, i32* %109, align 4
  %112 = getelementptr inbounds %"class.perfetto::protos::ChromeCompositorSchedulerState", %"class.perfetto::protos::ChromeCompositorSchedulerState"* %0, i64 0, i32 5
  %113 = load %"class.perfetto::protos::BeginFrameObserverState"*, %"class.perfetto::protos::BeginFrameObserverState"** %112, align 8
  %114 = icmp eq %"class.perfetto::protos::BeginFrameObserverState"* %113, null
  br i1 %114, label %115, label %130

115:                                              ; preds = %108
  %116 = bitcast %"class.google::protobuf::internal::InternalMetadata"* %3 to i64*
  %117 = load i64, i64* %116, align 8
  %118 = and i64 %117, 1
  %119 = icmp eq i64 %118, 0
  %120 = and i64 %117, -2
  br i1 %119, label %125, label %121, !prof !2

121:                                              ; preds = %115
  %122 = inttoptr i64 %120 to %"struct.google::protobuf::internal::InternalMetadata::ContainerBase"*
  %123 = getelementptr inbounds %"struct.google::protobuf::internal::InternalMetadata::ContainerBase", %"struct.google::protobuf::internal::InternalMetadata::ContainerBase"* %122, i64 0, i32 0
  %124 = load %"class.google::protobuf::Arena"*, %"class.google::protobuf::Arena"** %123, align 8
  br label %127

125:                                              ; preds = %115
  %126 = inttoptr i64 %120 to %"class.google::protobuf::Arena"*
  br label %127

127:                                              ; preds = %125, %121
  %128 = phi %"class.google::protobuf::Arena"* [ %124, %121 ], [ %126, %125 ]
  %129 = tail call %"class.perfetto::protos::BeginFrameObserverState"* @_ZN6google8protobuf5Arena18CreateMaybeMessageIN8perfetto6protos23BeginFrameObserverStateEJEEEPT_PS1_DpOT0_(%"class.google::protobuf::Arena"* %128) #12
  store %"class.perfetto::protos::BeginFrameObserverState"* %129, %"class.perfetto::protos::BeginFrameObserverState"** %112, align 8
  br label %130

130:                                              ; preds = %108, %127
  %131 = phi %"class.perfetto::protos::BeginFrameObserverState"* [ %129, %127 ], [ %113, %108 ]
  %132 = getelementptr inbounds %"class.perfetto::protos::ChromeCompositorSchedulerState", %"class.perfetto::protos::ChromeCompositorSchedulerState"* %1, i64 0, i32 5
  %133 = load %"class.perfetto::protos::BeginFrameObserverState"*, %"class.perfetto::protos::BeginFrameObserverState"** %132, align 8
  %134 = icmp eq %"class.perfetto::protos::BeginFrameObserverState"* %133, null
  %135 = select i1 %134, %"class.perfetto::protos::BeginFrameObserverState"* bitcast (%"class.perfetto::protos::BeginFrameObserverStateDefaultTypeInternal"* @_ZN8perfetto6protos42_BeginFrameObserverState_default_instance_E to %"class.perfetto::protos::BeginFrameObserverState"*), %"class.perfetto::protos::BeginFrameObserverState"* %133
  tail call void @_ZN8perfetto6protos23BeginFrameObserverState9MergeFromERKS1_(%"class.perfetto::protos::BeginFrameObserverState"* %131, %"class.perfetto::protos::BeginFrameObserverState"* dereferenceable(40) %135)
  br label %136

136:                                              ; preds = %105, %130
  %137 = and i32 %40, 8
  %138 = icmp eq i32 %137, 0
  br i1 %138, label %167, label %139

139:                                              ; preds = %136
  %140 = getelementptr inbounds %"class.perfetto::protos::ChromeCompositorSchedulerState", %"class.perfetto::protos::ChromeCompositorSchedulerState"* %0, i64 0, i32 1, i32 0, i64 0
  %141 = load i32, i32* %140, align 4
  %142 = or i32 %141, 8
  store i32 %142, i32* %140, align 4
  %143 = getelementptr inbounds %"class.perfetto::protos::ChromeCompositorSchedulerState", %"class.perfetto::protos::ChromeCompositorSchedulerState"* %0, i64 0, i32 6
  %144 = load %"class.perfetto::protos::BeginFrameSourceState"*, %"class.perfetto::protos::BeginFrameSourceState"** %143, align 8
  %145 = icmp eq %"class.perfetto::protos::BeginFrameSourceState"* %144, null
  br i1 %145, label %146, label %161

146:                                              ; preds = %139
  %147 = bitcast %"class.google::protobuf::internal::InternalMetadata"* %3 to i64*
  %148 = load i64, i64* %147, align 8
  %149 = and i64 %148, 1
  %150 = icmp eq i64 %149, 0
  %151 = and i64 %148, -2
  br i1 %150, label %156, label %152, !prof !2

152:                                              ; preds = %146
  %153 = inttoptr i64 %151 to %"struct.google::protobuf::internal::InternalMetadata::ContainerBase"*
  %154 = getelementptr inbounds %"struct.google::protobuf::internal::InternalMetadata::ContainerBase", %"struct.google::protobuf::internal::InternalMetadata::ContainerBase"* %153, i64 0, i32 0
  %155 = load %"class.google::protobuf::Arena"*, %"class.google::protobuf::Arena"** %154, align 8
  br label %158

156:                                              ; preds = %146
  %157 = inttoptr i64 %151 to %"class.google::protobuf::Arena"*
  br label %158

158:                                              ; preds = %156, %152
  %159 = phi %"class.google::protobuf::Arena"* [ %155, %152 ], [ %157, %156 ]
  %160 = tail call %"class.perfetto::protos::BeginFrameSourceState"* @_ZN6google8protobuf5Arena18CreateMaybeMessageIN8perfetto6protos21BeginFrameSourceStateEJEEEPT_PS1_DpOT0_(%"class.google::protobuf::Arena"* %159) #12
  store %"class.perfetto::protos::BeginFrameSourceState"* %160, %"class.perfetto::protos::BeginFrameSourceState"** %143, align 8
  br label %161

161:                                              ; preds = %139, %158
  %162 = phi %"class.perfetto::protos::BeginFrameSourceState"* [ %160, %158 ], [ %144, %139 ]
  %163 = getelementptr inbounds %"class.perfetto::protos::ChromeCompositorSchedulerState", %"class.perfetto::protos::ChromeCompositorSchedulerState"* %1, i64 0, i32 6
  %164 = load %"class.perfetto::protos::BeginFrameSourceState"*, %"class.perfetto::protos::BeginFrameSourceState"** %163, align 8
  %165 = icmp eq %"class.perfetto::protos::BeginFrameSourceState"* %164, null
  %166 = select i1 %165, %"class.perfetto::protos::BeginFrameSourceState"* bitcast (%"class.perfetto::protos::BeginFrameSourceStateDefaultTypeInternal"* @_ZN8perfetto6protos40_BeginFrameSourceState_default_instance_E to %"class.perfetto::protos::BeginFrameSourceState"*), %"class.perfetto::protos::BeginFrameSourceState"* %164
  tail call void @_ZN8perfetto6protos21BeginFrameSourceState9MergeFromERKS1_(%"class.perfetto::protos::BeginFrameSourceState"* %162, %"class.perfetto::protos::BeginFrameSourceState"* dereferenceable(48) %166)
  br label %167

167:                                              ; preds = %136, %161
  %168 = and i32 %40, 16
  %169 = icmp eq i32 %168, 0
  br i1 %169, label %198, label %170

170:                                              ; preds = %167
  %171 = getelementptr inbounds %"class.perfetto::protos::ChromeCompositorSchedulerState", %"class.perfetto::protos::ChromeCompositorSchedulerState"* %0, i64 0, i32 1, i32 0, i64 0
  %172 = load i32, i32* %171, align 4
  %173 = or i32 %172, 16
  store i32 %173, i32* %171, align 4
  %174 = getelementptr inbounds %"class.perfetto::protos::ChromeCompositorSchedulerState", %"class.perfetto::protos::ChromeCompositorSchedulerState"* %0, i64 0, i32 7
  %175 = load %"class.perfetto::protos::CompositorTimingHistory"*, %"class.perfetto::protos::CompositorTimingHistory"** %174, align 8
  %176 = icmp eq %"class.perfetto::protos::CompositorTimingHistory"* %175, null
  br i1 %176, label %177, label %192

177:                                              ; preds = %170
  %178 = bitcast %"class.google::protobuf::internal::InternalMetadata"* %3 to i64*
  %179 = load i64, i64* %178, align 8
  %180 = and i64 %179, 1
  %181 = icmp eq i64 %180, 0
  %182 = and i64 %179, -2
  br i1 %181, label %187, label %183, !prof !2

183:                                              ; preds = %177
  %184 = inttoptr i64 %182 to %"struct.google::protobuf::internal::InternalMetadata::ContainerBase"*
  %185 = getelementptr inbounds %"struct.google::protobuf::internal::InternalMetadata::ContainerBase", %"struct.google::protobuf::internal::InternalMetadata::ContainerBase"* %184, i64 0, i32 0
  %186 = load %"class.google::protobuf::Arena"*, %"class.google::protobuf::Arena"** %185, align 8
  br label %189

187:                                              ; preds = %177
  %188 = inttoptr i64 %182 to %"class.google::protobuf::Arena"*
  br label %189

189:                                              ; preds = %187, %183
  %190 = phi %"class.google::protobuf::Arena"* [ %186, %183 ], [ %188, %187 ]
  %191 = tail call %"class.perfetto::protos::CompositorTimingHistory"* @_ZN6google8protobuf5Arena18CreateMaybeMessageIN8perfetto6protos23CompositorTimingHistoryEJEEEPT_PS1_DpOT0_(%"class.google::protobuf::Arena"* %190) #12
  store %"class.perfetto::protos::CompositorTimingHistory"* %191, %"class.perfetto::protos::CompositorTimingHistory"** %174, align 8
  br label %192

192:                                              ; preds = %170, %189
  %193 = phi %"class.perfetto::protos::CompositorTimingHistory"* [ %191, %189 ], [ %175, %170 ]
  %194 = getelementptr inbounds %"class.perfetto::protos::ChromeCompositorSchedulerState", %"class.perfetto::protos::ChromeCompositorSchedulerState"* %1, i64 0, i32 7
  %195 = load %"class.perfetto::protos::CompositorTimingHistory"*, %"class.perfetto::protos::CompositorTimingHistory"** %194, align 8
  %196 = icmp eq %"class.perfetto::protos::CompositorTimingHistory"* %195, null
  %197 = select i1 %196, %"class.perfetto::protos::CompositorTimingHistory"* bitcast (%"class.perfetto::protos::CompositorTimingHistoryDefaultTypeInternal"* @_ZN8perfetto6protos42_CompositorTimingHistory_default_instance_E to %"class.perfetto::protos::CompositorTimingHistory"*), %"class.perfetto::protos::CompositorTimingHistory"* %195
  tail call void @_ZN8perfetto6protos23CompositorTimingHistory9MergeFromERKS1_(%"class.perfetto::protos::CompositorTimingHistory"* %193, %"class.perfetto::protos::CompositorTimingHistory"* dereferenceable(80) %197)
  br label %198

198:                                              ; preds = %167, %192
  %199 = and i32 %40, 32
  %200 = icmp eq i32 %199, 0
  br i1 %200, label %205, label %201

201:                                              ; preds = %198
  %202 = getelementptr inbounds %"class.perfetto::protos::ChromeCompositorSchedulerState", %"class.perfetto::protos::ChromeCompositorSchedulerState"* %1, i64 0, i32 8
  %203 = load i8, i8* %202, align 8, !range !6
  %204 = getelementptr inbounds %"class.perfetto::protos::ChromeCompositorSchedulerState", %"class.perfetto::protos::ChromeCompositorSchedulerState"* %0, i64 0, i32 8
  store i8 %203, i8* %204, align 8
  br label %205

205:                                              ; preds = %198, %201
  %206 = and i32 %40, 64
  %207 = icmp eq i32 %206, 0
  br i1 %207, label %212, label %208

208:                                              ; preds = %205
  %209 = getelementptr inbounds %"class.perfetto::protos::ChromeCompositorSchedulerState", %"class.perfetto::protos::ChromeCompositorSchedulerState"* %1, i64 0, i32 9
  %210 = load i8, i8* %209, align 1, !range !6
  %211 = getelementptr inbounds %"class.perfetto::protos::ChromeCompositorSchedulerState", %"class.perfetto::protos::ChromeCompositorSchedulerState"* %0, i64 0, i32 9
  store i8 %210, i8* %211, align 1
  br label %212

212:                                              ; preds = %205, %208
  %213 = trunc i32 %40 to i8
  %214 = icmp slt i8 %213, 0
  br i1 %214, label %215, label %219

215:                                              ; preds = %212
  %216 = getelementptr inbounds %"class.perfetto::protos::ChromeCompositorSchedulerState", %"class.perfetto::protos::ChromeCompositorSchedulerState"* %1, i64 0, i32 10
  %217 = load i8, i8* %216, align 2, !range !6
  %218 = getelementptr inbounds %"class.perfetto::protos::ChromeCompositorSchedulerState", %"class.perfetto::protos::ChromeCompositorSchedulerState"* %0, i64 0, i32 10
  store i8 %217, i8* %218, align 2
  br label %219

219:                                              ; preds = %215, %212
  %220 = getelementptr inbounds %"class.perfetto::protos::ChromeCompositorSchedulerState", %"class.perfetto::protos::ChromeCompositorSchedulerState"* %0, i64 0, i32 1, i32 0, i64 0
  %221 = load i32, i32* %220, align 4
  %222 = or i32 %221, %40
  store i32 %222, i32* %220, align 4
  br label %223

223:                                              ; preds = %38, %219
  %224 = and i32 %40, 65280
  %225 = icmp eq i32 %224, 0
  br i1 %225, label %286, label %226

226:                                              ; preds = %223
  %227 = and i32 %40, 256
  %228 = icmp eq i32 %227, 0
  br i1 %228, label %233, label %229

229:                                              ; preds = %226
  %230 = getelementptr inbounds %"class.perfetto::protos::ChromeCompositorSchedulerState", %"class.perfetto::protos::ChromeCompositorSchedulerState"* %1, i64 0, i32 11
  %231 = load i8, i8* %230, align 1, !range !6
  %232 = getelementptr inbounds %"class.perfetto::protos::ChromeCompositorSchedulerState", %"class.perfetto::protos::ChromeCompositorSchedulerState"* %0, i64 0, i32 11
  store i8 %231, i8* %232, align 1
  br label %233

233:                                              ; preds = %226, %229
  %234 = and i32 %40, 512
  %235 = icmp eq i32 %234, 0
  br i1 %235, label %240, label %236

236:                                              ; preds = %233
  %237 = getelementptr inbounds %"class.perfetto::protos::ChromeCompositorSchedulerState", %"class.perfetto::protos::ChromeCompositorSchedulerState"* %1, i64 0, i32 12
  %238 = load i8, i8* %237, align 4, !range !6
  %239 = getelementptr inbounds %"class.perfetto::protos::ChromeCompositorSchedulerState", %"class.perfetto::protos::ChromeCompositorSchedulerState"* %0, i64 0, i32 12
  store i8 %238, i8* %239, align 4
  br label %240

240:                                              ; preds = %233, %236
  %241 = and i32 %40, 1024
  %242 = icmp eq i32 %241, 0
  br i1 %242, label %247, label %243

243:                                              ; preds = %240
  %244 = getelementptr inbounds %"class.perfetto::protos::ChromeCompositorSchedulerState", %"class.perfetto::protos::ChromeCompositorSchedulerState"* %1, i64 0, i32 13
  %245 = load i32, i32* %244, align 8
  %246 = getelementptr inbounds %"class.perfetto::protos::ChromeCompositorSchedulerState", %"class.perfetto::protos::ChromeCompositorSchedulerState"* %0, i64 0, i32 13
  store i32 %245, i32* %246, align 8
  br label %247

247:                                              ; preds = %240, %243
  %248 = and i32 %40, 2048
  %249 = icmp eq i32 %248, 0
  br i1 %249, label %254, label %250

250:                                              ; preds = %247
  %251 = getelementptr inbounds %"class.perfetto::protos::ChromeCompositorSchedulerState", %"class.perfetto::protos::ChromeCompositorSchedulerState"* %1, i64 0, i32 14
  %252 = load i32, i32* %251, align 4
  %253 = getelementptr inbounds %"class.perfetto::protos::ChromeCompositorSchedulerState", %"class.perfetto::protos::ChromeCompositorSchedulerState"* %0, i64 0, i32 14
  store i32 %252, i32* %253, align 4
  br label %254

254:                                              ; preds = %247, %250
  %255 = and i32 %40, 4096
  %256 = icmp eq i32 %255, 0
  br i1 %256, label %261, label %257

257:                                              ; preds = %254
  %258 = getelementptr inbounds %"class.perfetto::protos::ChromeCompositorSchedulerState", %"class.perfetto::protos::ChromeCompositorSchedulerState"* %1, i64 0, i32 15
  %259 = load i64, i64* %258, align 8
  %260 = getelementptr inbounds %"class.perfetto::protos::ChromeCompositorSchedulerState", %"class.perfetto::protos::ChromeCompositorSchedulerState"* %0, i64 0, i32 15
  store i64 %259, i64* %260, align 8
  br label %261

261:                                              ; preds = %254, %257
  %262 = and i32 %40, 8192
  %263 = icmp eq i32 %262, 0
  br i1 %263, label %268, label %264

264:                                              ; preds = %261
  %265 = getelementptr inbounds %"class.perfetto::protos::ChromeCompositorSchedulerState", %"class.perfetto::protos::ChromeCompositorSchedulerState"* %1, i64 0, i32 16
  %266 = load i64, i64* %265, align 8
  %267 = getelementptr inbounds %"class.perfetto::protos::ChromeCompositorSchedulerState", %"class.perfetto::protos::ChromeCompositorSchedulerState"* %0, i64 0, i32 16
  store i64 %266, i64* %267, align 8
  br label %268

268:                                              ; preds = %261, %264
  %269 = and i32 %40, 16384
  %270 = icmp eq i32 %269, 0
  br i1 %270, label %275, label %271

271:                                              ; preds = %268
  %272 = getelementptr inbounds %"class.perfetto::protos::ChromeCompositorSchedulerState", %"class.perfetto::protos::ChromeCompositorSchedulerState"* %1, i64 0, i32 17
  %273 = load i64, i64* %272, align 8
  %274 = getelementptr inbounds %"class.perfetto::protos::ChromeCompositorSchedulerState", %"class.perfetto::protos::ChromeCompositorSchedulerState"* %0, i64 0, i32 17
  store i64 %273, i64* %274, align 8
  br label %275

275:                                              ; preds = %268, %271
  %276 = trunc i32 %40 to i16
  %277 = icmp slt i16 %276, 0
  br i1 %277, label %278, label %282

278:                                              ; preds = %275
  %279 = getelementptr inbounds %"class.perfetto::protos::ChromeCompositorSchedulerState", %"class.perfetto::protos::ChromeCompositorSchedulerState"* %1, i64 0, i32 18
  %280 = load i64, i64* %279, align 8
  %281 = getelementptr inbounds %"class.perfetto::protos::ChromeCompositorSchedulerState", %"class.perfetto::protos::ChromeCompositorSchedulerState"* %0, i64 0, i32 18
  store i64 %280, i64* %281, align 8
  br label %282

282:                                              ; preds = %278, %275
  %283 = getelementptr inbounds %"class.perfetto::protos::ChromeCompositorSchedulerState", %"class.perfetto::protos::ChromeCompositorSchedulerState"* %0, i64 0, i32 1, i32 0, i64 0
  %284 = load i32, i32* %283, align 4
  %285 = or i32 %284, %40
  store i32 %285, i32* %283, align 4
  br label %286

286:                                              ; preds = %223, %282
  %287 = and i32 %40, 65536
  %288 = icmp eq i32 %287, 0
  br i1 %288, label %296, label %289

289:                                              ; preds = %286
  %290 = getelementptr inbounds %"class.perfetto::protos::ChromeCompositorSchedulerState", %"class.perfetto::protos::ChromeCompositorSchedulerState"* %1, i64 0, i32 19
  %291 = load i64, i64* %290, align 8
  %292 = getelementptr inbounds %"class.perfetto::protos::ChromeCompositorSchedulerState", %"class.perfetto::protos::ChromeCompositorSchedulerState"* %0, i64 0, i32 1, i32 0, i64 0
  %293 = load i32, i32* %292, align 4
  %294 = or i32 %293, 65536
  store i32 %294, i32* %292, align 4
  %295 = getelementptr inbounds %"class.perfetto::protos::ChromeCompositorSchedulerState", %"class.perfetto::protos::ChromeCompositorSchedulerState"* %0, i64 0, i32 19
  store i64 %291, i64* %295, align 8
  br label %296

296:                                              ; preds = %286, %289
  ret void
}

; Function Attrs: nounwind ssp uwtable
define hidden void @_ZN8perfetto6protos28ChromeCompositorStateMachine9MergeFromERKS1_(%"class.perfetto::protos::ChromeCompositorStateMachine"*, %"class.perfetto::protos::ChromeCompositorStateMachine"* nocapture readonly dereferenceable(40)) local_unnamed_addr #0 align 2 {
  %3 = getelementptr inbounds %"class.perfetto::protos::ChromeCompositorStateMachine", %"class.perfetto::protos::ChromeCompositorStateMachine"* %0, i64 0, i32 0, i32 1
  %4 = getelementptr inbounds %"class.perfetto::protos::ChromeCompositorStateMachine", %"class.perfetto::protos::ChromeCompositorStateMachine"* %1, i64 0, i32 0, i32 1
  %5 = bitcast %"class.google::protobuf::internal::InternalMetadata"* %4 to i64*
  %6 = load i64, i64* %5, align 8
  %7 = and i64 %6, 1
  %8 = icmp eq i64 %7, 0
  br i1 %8, label %38, label %9

9:                                                ; preds = %2
  %10 = and i64 %6, -2
  %11 = inttoptr i64 %10 to %"struct.google::protobuf::internal::InternalMetadata::Container"*
  %12 = getelementptr inbounds %"struct.google::protobuf::internal::InternalMetadata::Container", %"struct.google::protobuf::internal::InternalMetadata::Container"* %11, i64 0, i32 1
  %13 = bitcast %"class.google::protobuf::internal::InternalMetadata"* %3 to i64*
  %14 = load i64, i64* %13, align 8
  %15 = and i64 %14, 1
  %16 = icmp eq i64 %15, 0
  br i1 %16, label %21, label %17, !prof !5

17:                                               ; preds = %9
  %18 = and i64 %14, -2
  %19 = inttoptr i64 %18 to %"struct.google::protobuf::internal::InternalMetadata::Container"*
  %20 = getelementptr inbounds %"struct.google::protobuf::internal::InternalMetadata::Container", %"struct.google::protobuf::internal::InternalMetadata::Container"* %19, i64 0, i32 1
  br label %23

21:                                               ; preds = %9
  %22 = tail call %"class.std::__1::basic_string"* @_ZN6google8protobuf8internal16InternalMetadata27mutable_unknown_fields_slowINSt3__112basic_stringIcNS4_11char_traitsIcEENS4_9allocatorIcEEEEEEPT_v(%"class.google::protobuf::internal::InternalMetadata"* %3) #12
  br label %23

23:                                               ; preds = %21, %17
  %24 = phi %"class.std::__1::basic_string"* [ %20, %17 ], [ %22, %21 ]
  %25 = bitcast %"class.std::__1::basic_string"* %12 to %"struct.std::__1::basic_string<char, std::__1::char_traits<char>, std::__1::allocator<char> >::__short"*
  %26 = getelementptr inbounds %"struct.std::__1::basic_string<char, std::__1::char_traits<char>, std::__1::allocator<char> >::__short", %"struct.std::__1::basic_string<char, std::__1::char_traits<char>, std::__1::allocator<char> >::__short"* %25, i64 0, i32 1, i32 0
  %27 = load i8, i8* %26, align 1
  %28 = icmp slt i8 %27, 0
  %29 = getelementptr inbounds %"class.std::__1::basic_string", %"class.std::__1::basic_string"* %12, i64 0, i32 0, i32 0, i32 0, i32 0, i32 0, i32 0
  %30 = load i8*, i8** %29, align 8
  %31 = getelementptr inbounds %"struct.google::protobuf::internal::InternalMetadata::Container", %"struct.google::protobuf::internal::InternalMetadata::Container"* %11, i64 0, i32 1, i32 0, i32 0, i32 0, i32 0, i32 0, i32 1
  %32 = load i64, i64* %31, align 8
  %33 = bitcast %"class.std::__1::basic_string"* %12 to i8*
  %34 = zext i8 %27 to i64
  %35 = select i1 %28, i8* %30, i8* %33
  %36 = select i1 %28, i64 %32, i64 %34
  %37 = tail call dereferenceable(24) %"class.std::__1::basic_string"* @_ZNSt3__112basic_stringIcNS_11char_traitsIcEENS_9allocatorIcEEE6appendEPKcm(%"class.std::__1::basic_string"* %24, i8* %35, i64 %36) #12
  br label %38

38:                                               ; preds = %2, %23
  %39 = getelementptr inbounds %"class.perfetto::protos::ChromeCompositorStateMachine", %"class.perfetto::protos::ChromeCompositorStateMachine"* %1, i64 0, i32 1, i32 0, i64 0
  %40 = load i32, i32* %39, align 4
  %41 = and i32 %40, 3
  %42 = icmp eq i32 %41, 0
  br i1 %42, label %105, label %43

43:                                               ; preds = %38
  %44 = and i32 %40, 1
  %45 = icmp eq i32 %44, 0
  br i1 %45, label %74, label %46

46:                                               ; preds = %43
  %47 = getelementptr inbounds %"class.perfetto::protos::ChromeCompositorStateMachine", %"class.perfetto::protos::ChromeCompositorStateMachine"* %0, i64 0, i32 1, i32 0, i64 0
  %48 = load i32, i32* %47, align 4
  %49 = or i32 %48, 1
  store i32 %49, i32* %47, align 4
  %50 = getelementptr inbounds %"class.perfetto::protos::ChromeCompositorStateMachine", %"class.perfetto::protos::ChromeCompositorStateMachine"* %0, i64 0, i32 3
  %51 = load %"class.perfetto::protos::ChromeCompositorStateMachine_MajorState"*, %"class.perfetto::protos::ChromeCompositorStateMachine_MajorState"** %50, align 8
  %52 = icmp eq %"class.perfetto::protos::ChromeCompositorStateMachine_MajorState"* %51, null
  br i1 %52, label %53, label %68

53:                                               ; preds = %46
  %54 = bitcast %"class.google::protobuf::internal::InternalMetadata"* %3 to i64*
  %55 = load i64, i64* %54, align 8
  %56 = and i64 %55, 1
  %57 = icmp eq i64 %56, 0
  %58 = and i64 %55, -2
  br i1 %57, label %63, label %59, !prof !2

59:                                               ; preds = %53
  %60 = inttoptr i64 %58 to %"struct.google::protobuf::internal::InternalMetadata::ContainerBase"*
  %61 = getelementptr inbounds %"struct.google::protobuf::internal::InternalMetadata::ContainerBase", %"struct.google::protobuf::internal::InternalMetadata::ContainerBase"* %60, i64 0, i32 0
  %62 = load %"class.google::protobuf::Arena"*, %"class.google::protobuf::Arena"** %61, align 8
  br label %65

63:                                               ; preds = %53
  %64 = inttoptr i64 %58 to %"class.google::protobuf::Arena"*
  br label %65

65:                                               ; preds = %63, %59
  %66 = phi %"class.google::protobuf::Arena"* [ %62, %59 ], [ %64, %63 ]
  %67 = tail call %"class.perfetto::protos::ChromeCompositorStateMachine_MajorState"* @_ZN6google8protobuf5Arena18CreateMaybeMessageIN8perfetto6protos39ChromeCompositorStateMachine_MajorStateEJEEEPT_PS1_DpOT0_(%"class.google::protobuf::Arena"* %66) #12
  store %"class.perfetto::protos::ChromeCompositorStateMachine_MajorState"* %67, %"class.perfetto::protos::ChromeCompositorStateMachine_MajorState"** %50, align 8
  br label %68

68:                                               ; preds = %46, %65
  %69 = phi %"class.perfetto::protos::ChromeCompositorStateMachine_MajorState"* [ %67, %65 ], [ %51, %46 ]
  %70 = getelementptr inbounds %"class.perfetto::protos::ChromeCompositorStateMachine", %"class.perfetto::protos::ChromeCompositorStateMachine"* %1, i64 0, i32 3
  %71 = load %"class.perfetto::protos::ChromeCompositorStateMachine_MajorState"*, %"class.perfetto::protos::ChromeCompositorStateMachine_MajorState"** %70, align 8
  %72 = icmp eq %"class.perfetto::protos::ChromeCompositorStateMachine_MajorState"* %71, null
  %73 = select i1 %72, %"class.perfetto::protos::ChromeCompositorStateMachine_MajorState"* bitcast (%"class.perfetto::protos::ChromeCompositorStateMachine_MajorStateDefaultTypeInternal"* @_ZN8perfetto6protos58_ChromeCompositorStateMachine_MajorState_default_instance_E to %"class.perfetto::protos::ChromeCompositorStateMachine_MajorState"*), %"class.perfetto::protos::ChromeCompositorStateMachine_MajorState"* %71
  tail call void @_ZN8perfetto6protos39ChromeCompositorStateMachine_MajorState9MergeFromERKS1_(%"class.perfetto::protos::ChromeCompositorStateMachine_MajorState"* %69, %"class.perfetto::protos::ChromeCompositorStateMachine_MajorState"* dereferenceable(48) %73)
  br label %74

74:                                               ; preds = %43, %68
  %75 = and i32 %40, 2
  %76 = icmp eq i32 %75, 0
  br i1 %76, label %105, label %77

77:                                               ; preds = %74
  %78 = getelementptr inbounds %"class.perfetto::protos::ChromeCompositorStateMachine", %"class.perfetto::protos::ChromeCompositorStateMachine"* %0, i64 0, i32 1, i32 0, i64 0
  %79 = load i32, i32* %78, align 4
  %80 = or i32 %79, 2
  store i32 %80, i32* %78, align 4
  %81 = getelementptr inbounds %"class.perfetto::protos::ChromeCompositorStateMachine", %"class.perfetto::protos::ChromeCompositorStateMachine"* %0, i64 0, i32 4
  %82 = load %"class.perfetto::protos::ChromeCompositorStateMachine_MinorState"*, %"class.perfetto::protos::ChromeCompositorStateMachine_MinorState"** %81, align 8
  %83 = icmp eq %"class.perfetto::protos::ChromeCompositorStateMachine_MinorState"* %82, null
  br i1 %83, label %84, label %99

84:                                               ; preds = %77
  %85 = bitcast %"class.google::protobuf::internal::InternalMetadata"* %3 to i64*
  %86 = load i64, i64* %85, align 8
  %87 = and i64 %86, 1
  %88 = icmp eq i64 %87, 0
  %89 = and i64 %86, -2
  br i1 %88, label %94, label %90, !prof !2

90:                                               ; preds = %84
  %91 = inttoptr i64 %89 to %"struct.google::protobuf::internal::InternalMetadata::ContainerBase"*
  %92 = getelementptr inbounds %"struct.google::protobuf::internal::InternalMetadata::ContainerBase", %"struct.google::protobuf::internal::InternalMetadata::ContainerBase"* %91, i64 0, i32 0
  %93 = load %"class.google::protobuf::Arena"*, %"class.google::protobuf::Arena"** %92, align 8
  br label %96

94:                                               ; preds = %84
  %95 = inttoptr i64 %89 to %"class.google::protobuf::Arena"*
  br label %96

96:                                               ; preds = %94, %90
  %97 = phi %"class.google::protobuf::Arena"* [ %93, %90 ], [ %95, %94 ]
  %98 = tail call %"class.perfetto::protos::ChromeCompositorStateMachine_MinorState"* @_ZN6google8protobuf5Arena18CreateMaybeMessageIN8perfetto6protos39ChromeCompositorStateMachine_MinorStateEJEEEPT_PS1_DpOT0_(%"class.google::protobuf::Arena"* %97) #12
  store %"class.perfetto::protos::ChromeCompositorStateMachine_MinorState"* %98, %"class.perfetto::protos::ChromeCompositorStateMachine_MinorState"** %81, align 8
  br label %99

99:                                               ; preds = %77, %96
  %100 = phi %"class.perfetto::protos::ChromeCompositorStateMachine_MinorState"* [ %98, %96 ], [ %82, %77 ]
  %101 = getelementptr inbounds %"class.perfetto::protos::ChromeCompositorStateMachine", %"class.perfetto::protos::ChromeCompositorStateMachine"* %1, i64 0, i32 4
  %102 = load %"class.perfetto::protos::ChromeCompositorStateMachine_MinorState"*, %"class.perfetto::protos::ChromeCompositorStateMachine_MinorState"** %101, align 8
  %103 = icmp eq %"class.perfetto::protos::ChromeCompositorStateMachine_MinorState"* %102, null
  %104 = select i1 %103, %"class.perfetto::protos::ChromeCompositorStateMachine_MinorState"* bitcast (%"class.perfetto::protos::ChromeCompositorStateMachine_MinorStateDefaultTypeInternal"* @_ZN8perfetto6protos58_ChromeCompositorStateMachine_MinorState_default_instance_E to %"class.perfetto::protos::ChromeCompositorStateMachine_MinorState"*), %"class.perfetto::protos::ChromeCompositorStateMachine_MinorState"* %102
  tail call void @_ZN8perfetto6protos39ChromeCompositorStateMachine_MinorState9MergeFromERKS1_(%"class.perfetto::protos::ChromeCompositorStateMachine_MinorState"* %100, %"class.perfetto::protos::ChromeCompositorStateMachine_MinorState"* dereferenceable(104) %104)
  br label %105

105:                                              ; preds = %74, %38, %99
  ret void
}

; Function Attrs: nounwind ssp uwtable
define hidden void @_ZN8perfetto6protos18BeginImplFrameArgs9MergeFromERKS1_(%"class.perfetto::protos::BeginImplFrameArgs"*, %"class.perfetto::protos::BeginImplFrameArgs"* nocapture readonly dereferenceable(72)) local_unnamed_addr #0 align 2 {
  %3 = getelementptr inbounds %"class.perfetto::protos::BeginImplFrameArgs", %"class.perfetto::protos::BeginImplFrameArgs"* %0, i64 0, i32 0, i32 1
  %4 = getelementptr inbounds %"class.perfetto::protos::BeginImplFrameArgs", %"class.perfetto::protos::BeginImplFrameArgs"* %1, i64 0, i32 0, i32 1
  %5 = bitcast %"class.google::protobuf::internal::InternalMetadata"* %4 to i64*
  %6 = load i64, i64* %5, align 8
  %7 = and i64 %6, 1
  %8 = icmp eq i64 %7, 0
  br i1 %8, label %38, label %9

9:                                                ; preds = %2
  %10 = and i64 %6, -2
  %11 = inttoptr i64 %10 to %"struct.google::protobuf::internal::InternalMetadata::Container"*
  %12 = getelementptr inbounds %"struct.google::protobuf::internal::InternalMetadata::Container", %"struct.google::protobuf::internal::InternalMetadata::Container"* %11, i64 0, i32 1
  %13 = bitcast %"class.google::protobuf::internal::InternalMetadata"* %3 to i64*
  %14 = load i64, i64* %13, align 8
  %15 = and i64 %14, 1
  %16 = icmp eq i64 %15, 0
  br i1 %16, label %21, label %17, !prof !5

17:                                               ; preds = %9
  %18 = and i64 %14, -2
  %19 = inttoptr i64 %18 to %"struct.google::protobuf::internal::InternalMetadata::Container"*
  %20 = getelementptr inbounds %"struct.google::protobuf::internal::InternalMetadata::Container", %"struct.google::protobuf::internal::InternalMetadata::Container"* %19, i64 0, i32 1
  br label %23

21:                                               ; preds = %9
  %22 = tail call %"class.std::__1::basic_string"* @_ZN6google8protobuf8internal16InternalMetadata27mutable_unknown_fields_slowINSt3__112basic_stringIcNS4_11char_traitsIcEENS4_9allocatorIcEEEEEEPT_v(%"class.google::protobuf::internal::InternalMetadata"* %3) #12
  br label %23

23:                                               ; preds = %21, %17
  %24 = phi %"class.std::__1::basic_string"* [ %20, %17 ], [ %22, %21 ]
  %25 = bitcast %"class.std::__1::basic_string"* %12 to %"struct.std::__1::basic_string<char, std::__1::char_traits<char>, std::__1::allocator<char> >::__short"*
  %26 = getelementptr inbounds %"struct.std::__1::basic_string<char, std::__1::char_traits<char>, std::__1::allocator<char> >::__short", %"struct.std::__1::basic_string<char, std::__1::char_traits<char>, std::__1::allocator<char> >::__short"* %25, i64 0, i32 1, i32 0
  %27 = load i8, i8* %26, align 1
  %28 = icmp slt i8 %27, 0
  %29 = getelementptr inbounds %"class.std::__1::basic_string", %"class.std::__1::basic_string"* %12, i64 0, i32 0, i32 0, i32 0, i32 0, i32 0, i32 0
  %30 = load i8*, i8** %29, align 8
  %31 = getelementptr inbounds %"struct.google::protobuf::internal::InternalMetadata::Container", %"struct.google::protobuf::internal::InternalMetadata::Container"* %11, i64 0, i32 1, i32 0, i32 0, i32 0, i32 0, i32 0, i32 1
  %32 = load i64, i64* %31, align 8
  %33 = bitcast %"class.std::__1::basic_string"* %12 to i8*
  %34 = zext i8 %27 to i64
  %35 = select i1 %28, i8* %30, i8* %33
  %36 = select i1 %28, i64 %32, i64 %34
  %37 = tail call dereferenceable(24) %"class.std::__1::basic_string"* @_ZNSt3__112basic_stringIcNS_11char_traitsIcEENS_9allocatorIcEEE6appendEPKcm(%"class.std::__1::basic_string"* %24, i8* %35, i64 %36) #12
  br label %38

38:                                               ; preds = %2, %23
  %39 = getelementptr inbounds %"class.perfetto::protos::BeginImplFrameArgs", %"class.perfetto::protos::BeginImplFrameArgs"* %1, i64 0, i32 1, i32 0, i64 0
  %40 = load i32, i32* %39, align 4
  %41 = and i32 %40, 15
  %42 = icmp eq i32 %41, 0
  br i1 %42, label %99, label %43

43:                                               ; preds = %38
  %44 = and i32 %40, 1
  %45 = icmp eq i32 %44, 0
  br i1 %45, label %74, label %46

46:                                               ; preds = %43
  %47 = getelementptr inbounds %"class.perfetto::protos::BeginImplFrameArgs", %"class.perfetto::protos::BeginImplFrameArgs"* %0, i64 0, i32 1, i32 0, i64 0
  %48 = load i32, i32* %47, align 4
  %49 = or i32 %48, 1
  store i32 %49, i32* %47, align 4
  %50 = getelementptr inbounds %"class.perfetto::protos::BeginImplFrameArgs", %"class.perfetto::protos::BeginImplFrameArgs"* %0, i64 0, i32 3
  %51 = load %"class.perfetto::protos::BeginImplFrameArgs_TimestampsInUs"*, %"class.perfetto::protos::BeginImplFrameArgs_TimestampsInUs"** %50, align 8
  %52 = icmp eq %"class.perfetto::protos::BeginImplFrameArgs_TimestampsInUs"* %51, null
  br i1 %52, label %53, label %68

53:                                               ; preds = %46
  %54 = bitcast %"class.google::protobuf::internal::InternalMetadata"* %3 to i64*
  %55 = load i64, i64* %54, align 8
  %56 = and i64 %55, 1
  %57 = icmp eq i64 %56, 0
  %58 = and i64 %55, -2
  br i1 %57, label %63, label %59, !prof !2

59:                                               ; preds = %53
  %60 = inttoptr i64 %58 to %"struct.google::protobuf::internal::InternalMetadata::ContainerBase"*
  %61 = getelementptr inbounds %"struct.google::protobuf::internal::InternalMetadata::ContainerBase", %"struct.google::protobuf::internal::InternalMetadata::ContainerBase"* %60, i64 0, i32 0
  %62 = load %"class.google::protobuf::Arena"*, %"class.google::protobuf::Arena"** %61, align 8
  br label %65

63:                                               ; preds = %53
  %64 = inttoptr i64 %58 to %"class.google::protobuf::Arena"*
  br label %65

65:                                               ; preds = %63, %59
  %66 = phi %"class.google::protobuf::Arena"* [ %62, %59 ], [ %64, %63 ]
  %67 = tail call %"class.perfetto::protos::BeginImplFrameArgs_TimestampsInUs"* @_ZN6google8protobuf5Arena18CreateMaybeMessageIN8perfetto6protos33BeginImplFrameArgs_TimestampsInUsEJEEEPT_PS1_DpOT0_(%"class.google::protobuf::Arena"* %66) #12
  store %"class.perfetto::protos::BeginImplFrameArgs_TimestampsInUs"* %67, %"class.perfetto::protos::BeginImplFrameArgs_TimestampsInUs"** %50, align 8
  br label %68

68:                                               ; preds = %46, %65
  %69 = phi %"class.perfetto::protos::BeginImplFrameArgs_TimestampsInUs"* [ %67, %65 ], [ %51, %46 ]
  %70 = getelementptr inbounds %"class.perfetto::protos::BeginImplFrameArgs", %"class.perfetto::protos::BeginImplFrameArgs"* %1, i64 0, i32 3
  %71 = load %"class.perfetto::protos::BeginImplFrameArgs_TimestampsInUs"*, %"class.perfetto::protos::BeginImplFrameArgs_TimestampsInUs"** %70, align 8
  %72 = icmp eq %"class.perfetto::protos::BeginImplFrameArgs_TimestampsInUs"* %71, null
  %73 = select i1 %72, %"class.perfetto::protos::BeginImplFrameArgs_TimestampsInUs"* bitcast (%"class.perfetto::protos::BeginImplFrameArgs_TimestampsInUsDefaultTypeInternal"* @_ZN8perfetto6protos52_BeginImplFrameArgs_TimestampsInUs_default_instance_E to %"class.perfetto::protos::BeginImplFrameArgs_TimestampsInUs"*), %"class.perfetto::protos::BeginImplFrameArgs_TimestampsInUs"* %71
  tail call void @_ZN8perfetto6protos33BeginImplFrameArgs_TimestampsInUs9MergeFromERKS1_(%"class.perfetto::protos::BeginImplFrameArgs_TimestampsInUs"* %69, %"class.perfetto::protos::BeginImplFrameArgs_TimestampsInUs"* dereferenceable(80) %73)
  br label %74

74:                                               ; preds = %43, %68
  %75 = and i32 %40, 2
  %76 = icmp eq i32 %75, 0
  br i1 %76, label %81, label %77

77:                                               ; preds = %74
  %78 = getelementptr inbounds %"class.perfetto::protos::BeginImplFrameArgs", %"class.perfetto::protos::BeginImplFrameArgs"* %1, i64 0, i32 4
  %79 = load i64, i64* %78, align 8
  %80 = getelementptr inbounds %"class.perfetto::protos::BeginImplFrameArgs", %"class.perfetto::protos::BeginImplFrameArgs"* %0, i64 0, i32 4
  store i64 %79, i64* %80, align 8
  br label %81

81:                                               ; preds = %74, %77
  %82 = and i32 %40, 4
  %83 = icmp eq i32 %82, 0
  br i1 %83, label %88, label %84

84:                                               ; preds = %81
  %85 = getelementptr inbounds %"class.perfetto::protos::BeginImplFrameArgs", %"class.perfetto::protos::BeginImplFrameArgs"* %1, i64 0, i32 5
  %86 = load i64, i64* %85, align 8
  %87 = getelementptr inbounds %"class.perfetto::protos::BeginImplFrameArgs", %"class.perfetto::protos::BeginImplFrameArgs"* %0, i64 0, i32 5
  store i64 %86, i64* %87, align 8
  br label %88

88:                                               ; preds = %81, %84
  %89 = and i32 %40, 8
  %90 = icmp eq i32 %89, 0
  br i1 %90, label %95, label %91

91:                                               ; preds = %88
  %92 = getelementptr inbounds %"class.perfetto::protos::BeginImplFrameArgs", %"class.perfetto::protos::BeginImplFrameArgs"* %1, i64 0, i32 6
  %93 = load i32, i32* %92, align 8
  %94 = getelementptr inbounds %"class.perfetto::protos::BeginImplFrameArgs", %"class.perfetto::protos::BeginImplFrameArgs"* %0, i64 0, i32 6
  store i32 %93, i32* %94, align 8
  br label %95

95:                                               ; preds = %88, %91
  %96 = getelementptr inbounds %"class.perfetto::protos::BeginImplFrameArgs", %"class.perfetto::protos::BeginImplFrameArgs"* %0, i64 0, i32 1, i32 0, i64 0
  %97 = load i32, i32* %96, align 4
  %98 = or i32 %97, %40
  store i32 %98, i32* %96, align 4
  br label %99

99:                                               ; preds = %38, %95
  %100 = getelementptr inbounds %"class.perfetto::protos::BeginImplFrameArgs", %"class.perfetto::protos::BeginImplFrameArgs"* %1, i64 0, i32 9, i64 0
  %101 = load i32, i32* %100, align 8
  switch i32 %101, label %216 [
    i32 4, label %102
    i32 5, label %159
  ]

102:                                              ; preds = %99
  %103 = getelementptr inbounds %"class.perfetto::protos::BeginImplFrameArgs", %"class.perfetto::protos::BeginImplFrameArgs"* %0, i64 0, i32 9, i64 0
  %104 = load i32, i32* %103, align 8
  switch i32 %104, label %105 [
    i32 4, label %107
    i32 5, label %110
  ]

105:                                              ; preds = %102
  %106 = bitcast %"class.google::protobuf::internal::InternalMetadata"* %3 to i64*
  br label %134

107:                                              ; preds = %102
  %108 = getelementptr inbounds %"class.perfetto::protos::BeginImplFrameArgs", %"class.perfetto::protos::BeginImplFrameArgs"* %0, i64 0, i32 8, i32 0
  %109 = load %"class.perfetto::protos::BeginFrameArgs"*, %"class.perfetto::protos::BeginFrameArgs"** %108, align 8
  br label %152

110:                                              ; preds = %102
  %111 = bitcast %"class.google::protobuf::internal::InternalMetadata"* %3 to i64*
  %112 = load i64, i64* %111, align 8
  %113 = and i64 %112, 1
  %114 = icmp eq i64 %113, 0
  %115 = and i64 %112, -2
  br i1 %114, label %120, label %116, !prof !2

116:                                              ; preds = %110
  %117 = inttoptr i64 %115 to %"struct.google::protobuf::internal::InternalMetadata::ContainerBase"*
  %118 = getelementptr inbounds %"struct.google::protobuf::internal::InternalMetadata::ContainerBase", %"struct.google::protobuf::internal::InternalMetadata::ContainerBase"* %117, i64 0, i32 0
  %119 = load %"class.google::protobuf::Arena"*, %"class.google::protobuf::Arena"** %118, align 8
  br label %122

120:                                              ; preds = %110
  %121 = inttoptr i64 %115 to %"class.google::protobuf::Arena"*
  br label %122

122:                                              ; preds = %120, %116
  %123 = phi %"class.google::protobuf::Arena"* [ %119, %116 ], [ %121, %120 ]
  %124 = icmp eq %"class.google::protobuf::Arena"* %123, null
  br i1 %124, label %125, label %134

125:                                              ; preds = %122
  %126 = getelementptr inbounds %"class.perfetto::protos::BeginImplFrameArgs", %"class.perfetto::protos::BeginImplFrameArgs"* %0, i64 0, i32 8, i32 0
  %127 = load %"class.perfetto::protos::BeginFrameArgs"*, %"class.perfetto::protos::BeginFrameArgs"** %126, align 8
  %128 = icmp eq %"class.perfetto::protos::BeginFrameArgs"* %127, null
  br i1 %128, label %134, label %129

129:                                              ; preds = %125
  %130 = bitcast %"class.perfetto::protos::BeginFrameArgs"* %127 to void (%"class.perfetto::protos::BeginFrameArgs"*)***
  %131 = load void (%"class.perfetto::protos::BeginFrameArgs"*)**, void (%"class.perfetto::protos::BeginFrameArgs"*)*** %130, align 8
  %132 = getelementptr inbounds void (%"class.perfetto::protos::BeginFrameArgs"*)*, void (%"class.perfetto::protos::BeginFrameArgs"*)** %131, i64 1
  %133 = load void (%"class.perfetto::protos::BeginFrameArgs"*)*, void (%"class.perfetto::protos::BeginFrameArgs"*)** %132, align 8
  tail call void %133(%"class.perfetto::protos::BeginFrameArgs"* nonnull %127) #12
  br label %134

134:                                              ; preds = %105, %129, %125, %122
  %135 = phi i64* [ %106, %105 ], [ %111, %129 ], [ %111, %125 ], [ %111, %122 ]
  store i32 4, i32* %103, align 8
  %136 = load i64, i64* %135, align 8
  %137 = and i64 %136, 1
  %138 = icmp eq i64 %137, 0
  %139 = and i64 %136, -2
  br i1 %138, label %144, label %140, !prof !2

140:                                              ; preds = %134
  %141 = inttoptr i64 %139 to %"struct.google::protobuf::internal::InternalMetadata::ContainerBase"*
  %142 = getelementptr inbounds %"struct.google::protobuf::internal::InternalMetadata::ContainerBase", %"struct.google::protobuf::internal::InternalMetadata::ContainerBase"* %141, i64 0, i32 0
  %143 = load %"class.google::protobuf::Arena"*, %"class.google::protobuf::Arena"** %142, align 8
  br label %146

144:                                              ; preds = %134
  %145 = inttoptr i64 %139 to %"class.google::protobuf::Arena"*
  br label %146

146:                                              ; preds = %140, %144
  %147 = phi %"class.google::protobuf::Arena"* [ %143, %140 ], [ %145, %144 ]
  %148 = tail call %"class.perfetto::protos::BeginFrameArgs"* @_ZN6google8protobuf5Arena18CreateMaybeMessageIN8perfetto6protos14BeginFrameArgsEJEEEPT_PS1_DpOT0_(%"class.google::protobuf::Arena"* %147) #12
  %149 = getelementptr inbounds %"class.perfetto::protos::BeginImplFrameArgs", %"class.perfetto::protos::BeginImplFrameArgs"* %0, i64 0, i32 8, i32 0
  store %"class.perfetto::protos::BeginFrameArgs"* %148, %"class.perfetto::protos::BeginFrameArgs"** %149, align 8
  %150 = load i32, i32* %100, align 8
  %151 = icmp eq i32 %150, 4
  br i1 %151, label %152, label %156

152:                                              ; preds = %107, %146
  %153 = phi %"class.perfetto::protos::BeginFrameArgs"* [ %109, %107 ], [ %148, %146 ]
  %154 = getelementptr inbounds %"class.perfetto::protos::BeginImplFrameArgs", %"class.perfetto::protos::BeginImplFrameArgs"* %1, i64 0, i32 8, i32 0
  %155 = load %"class.perfetto::protos::BeginFrameArgs"*, %"class.perfetto::protos::BeginFrameArgs"** %154, align 8
  br label %156

156:                                              ; preds = %146, %152
  %157 = phi %"class.perfetto::protos::BeginFrameArgs"* [ %153, %152 ], [ %148, %146 ]
  %158 = phi %"class.perfetto::protos::BeginFrameArgs"* [ %155, %152 ], [ bitcast (%"class.perfetto::protos::BeginFrameArgsDefaultTypeInternal"* @_ZN8perfetto6protos33_BeginFrameArgs_default_instance_E to %"class.perfetto::protos::BeginFrameArgs"*), %146 ]
  tail call void @_ZN8perfetto6protos14BeginFrameArgs9MergeFromERKS1_(%"class.perfetto::protos::BeginFrameArgs"* %157, %"class.perfetto::protos::BeginFrameArgs"* dereferenceable(88) %158)
  br label %216

159:                                              ; preds = %99
  %160 = getelementptr inbounds %"class.perfetto::protos::BeginImplFrameArgs", %"class.perfetto::protos::BeginImplFrameArgs"* %0, i64 0, i32 9, i64 0
  %161 = load i32, i32* %160, align 8
  switch i32 %161, label %162 [
    i32 5, label %164
    i32 4, label %167
  ]

162:                                              ; preds = %159
  %163 = bitcast %"class.google::protobuf::internal::InternalMetadata"* %3 to i64*
  br label %191

164:                                              ; preds = %159
  %165 = getelementptr inbounds %"class.perfetto::protos::BeginImplFrameArgs", %"class.perfetto::protos::BeginImplFrameArgs"* %0, i64 0, i32 8, i32 0
  %166 = load %"class.perfetto::protos::BeginFrameArgs"*, %"class.perfetto::protos::BeginFrameArgs"** %165, align 8
  br label %209

167:                                              ; preds = %159
  %168 = bitcast %"class.google::protobuf::internal::InternalMetadata"* %3 to i64*
  %169 = load i64, i64* %168, align 8
  %170 = and i64 %169, 1
  %171 = icmp eq i64 %170, 0
  %172 = and i64 %169, -2
  br i1 %171, label %177, label %173, !prof !2

173:                                              ; preds = %167
  %174 = inttoptr i64 %172 to %"struct.google::protobuf::internal::InternalMetadata::ContainerBase"*
  %175 = getelementptr inbounds %"struct.google::protobuf::internal::InternalMetadata::ContainerBase", %"struct.google::protobuf::internal::InternalMetadata::ContainerBase"* %174, i64 0, i32 0
  %176 = load %"class.google::protobuf::Arena"*, %"class.google::protobuf::Arena"** %175, align 8
  br label %179

177:                                              ; preds = %167
  %178 = inttoptr i64 %172 to %"class.google::protobuf::Arena"*
  br label %179

179:                                              ; preds = %177, %173
  %180 = phi %"class.google::protobuf::Arena"* [ %176, %173 ], [ %178, %177 ]
  %181 = icmp eq %"class.google::protobuf::Arena"* %180, null
  br i1 %181, label %182, label %191

182:                                              ; preds = %179
  %183 = getelementptr inbounds %"class.perfetto::protos::BeginImplFrameArgs", %"class.perfetto::protos::BeginImplFrameArgs"* %0, i64 0, i32 8, i32 0
  %184 = load %"class.perfetto::protos::BeginFrameArgs"*, %"class.perfetto::protos::BeginFrameArgs"** %183, align 8
  %185 = icmp eq %"class.perfetto::protos::BeginFrameArgs"* %184, null
  br i1 %185, label %191, label %186

186:                                              ; preds = %182
  %187 = bitcast %"class.perfetto::protos::BeginFrameArgs"* %184 to void (%"class.perfetto::protos::BeginFrameArgs"*)***
  %188 = load void (%"class.perfetto::protos::BeginFrameArgs"*)**, void (%"class.perfetto::protos::BeginFrameArgs"*)*** %187, align 8
  %189 = getelementptr inbounds void (%"class.perfetto::protos::BeginFrameArgs"*)*, void (%"class.perfetto::protos::BeginFrameArgs"*)** %188, i64 1
  %190 = load void (%"class.perfetto::protos::BeginFrameArgs"*)*, void (%"class.perfetto::protos::BeginFrameArgs"*)** %189, align 8
  tail call void %190(%"class.perfetto::protos::BeginFrameArgs"* nonnull %184) #12
  br label %191

191:                                              ; preds = %162, %186, %182, %179
  %192 = phi i64* [ %163, %162 ], [ %168, %186 ], [ %168, %182 ], [ %168, %179 ]
  store i32 5, i32* %160, align 8
  %193 = load i64, i64* %192, align 8
  %194 = and i64 %193, 1
  %195 = icmp eq i64 %194, 0
  %196 = and i64 %193, -2
  br i1 %195, label %201, label %197, !prof !2

197:                                              ; preds = %191
  %198 = inttoptr i64 %196 to %"struct.google::protobuf::internal::InternalMetadata::ContainerBase"*
  %199 = getelementptr inbounds %"struct.google::protobuf::internal::InternalMetadata::ContainerBase", %"struct.google::protobuf::internal::InternalMetadata::ContainerBase"* %198, i64 0, i32 0
  %200 = load %"class.google::protobuf::Arena"*, %"class.google::protobuf::Arena"** %199, align 8
  br label %203

201:                                              ; preds = %191
  %202 = inttoptr i64 %196 to %"class.google::protobuf::Arena"*
  br label %203

203:                                              ; preds = %197, %201
  %204 = phi %"class.google::protobuf::Arena"* [ %200, %197 ], [ %202, %201 ]
  %205 = tail call %"class.perfetto::protos::BeginFrameArgs"* @_ZN6google8protobuf5Arena18CreateMaybeMessageIN8perfetto6protos14BeginFrameArgsEJEEEPT_PS1_DpOT0_(%"class.google::protobuf::Arena"* %204) #12
  %206 = getelementptr inbounds %"class.perfetto::protos::BeginImplFrameArgs", %"class.perfetto::protos::BeginImplFrameArgs"* %0, i64 0, i32 8, i32 0
  store %"class.perfetto::protos::BeginFrameArgs"* %205, %"class.perfetto::protos::BeginFrameArgs"** %206, align 8
  %207 = load i32, i32* %100, align 8
  %208 = icmp eq i32 %207, 5
  br i1 %208, label %209, label %213

209:                                              ; preds = %164, %203
  %210 = phi %"class.perfetto::protos::BeginFrameArgs"* [ %166, %164 ], [ %205, %203 ]
  %211 = getelementptr inbounds %"class.perfetto::protos::BeginImplFrameArgs", %"class.perfetto::protos::BeginImplFrameArgs"* %1, i64 0, i32 8, i32 0
  %212 = load %"class.perfetto::protos::BeginFrameArgs"*, %"class.perfetto::protos::BeginFrameArgs"** %211, align 8
  br label %213

213:                                              ; preds = %203, %209
  %214 = phi %"class.perfetto::protos::BeginFrameArgs"* [ %210, %209 ], [ %205, %203 ]
  %215 = phi %"class.perfetto::protos::BeginFrameArgs"* [ %212, %209 ], [ bitcast (%"class.perfetto::protos::BeginFrameArgsDefaultTypeInternal"* @_ZN8perfetto6protos33_BeginFrameArgs_default_instance_E to %"class.perfetto::protos::BeginFrameArgs"*), %203 ]
  tail call void @_ZN8perfetto6protos14BeginFrameArgs9MergeFromERKS1_(%"class.perfetto::protos::BeginFrameArgs"* %214, %"class.perfetto::protos::BeginFrameArgs"* dereferenceable(88) %215)
  br label %216

216:                                              ; preds = %99, %213, %156
  ret void
}

; Function Attrs: nounwind ssp uwtable
define hidden void @_ZN8perfetto6protos23BeginFrameObserverState9MergeFromERKS1_(%"class.perfetto::protos::BeginFrameObserverState"*, %"class.perfetto::protos::BeginFrameObserverState"* nocapture readonly dereferenceable(40)) local_unnamed_addr #0 align 2 {
  %3 = getelementptr inbounds %"class.perfetto::protos::BeginFrameObserverState", %"class.perfetto::protos::BeginFrameObserverState"* %0, i64 0, i32 0, i32 1
  %4 = getelementptr inbounds %"class.perfetto::protos::BeginFrameObserverState", %"class.perfetto::protos::BeginFrameObserverState"* %1, i64 0, i32 0, i32 1
  %5 = bitcast %"class.google::protobuf::internal::InternalMetadata"* %4 to i64*
  %6 = load i64, i64* %5, align 8
  %7 = and i64 %6, 1
  %8 = icmp eq i64 %7, 0
  br i1 %8, label %38, label %9

9:                                                ; preds = %2
  %10 = and i64 %6, -2
  %11 = inttoptr i64 %10 to %"struct.google::protobuf::internal::InternalMetadata::Container"*
  %12 = getelementptr inbounds %"struct.google::protobuf::internal::InternalMetadata::Container", %"struct.google::protobuf::internal::InternalMetadata::Container"* %11, i64 0, i32 1
  %13 = bitcast %"class.google::protobuf::internal::InternalMetadata"* %3 to i64*
  %14 = load i64, i64* %13, align 8
  %15 = and i64 %14, 1
  %16 = icmp eq i64 %15, 0
  br i1 %16, label %21, label %17, !prof !5

17:                                               ; preds = %9
  %18 = and i64 %14, -2
  %19 = inttoptr i64 %18 to %"struct.google::protobuf::internal::InternalMetadata::Container"*
  %20 = getelementptr inbounds %"struct.google::protobuf::internal::InternalMetadata::Container", %"struct.google::protobuf::internal::InternalMetadata::Container"* %19, i64 0, i32 1
  br label %23

21:                                               ; preds = %9
  %22 = tail call %"class.std::__1::basic_string"* @_ZN6google8protobuf8internal16InternalMetadata27mutable_unknown_fields_slowINSt3__112basic_stringIcNS4_11char_traitsIcEENS4_9allocatorIcEEEEEEPT_v(%"class.google::protobuf::internal::InternalMetadata"* %3) #12
  br label %23

23:                                               ; preds = %21, %17
  %24 = phi %"class.std::__1::basic_string"* [ %20, %17 ], [ %22, %21 ]
  %25 = bitcast %"class.std::__1::basic_string"* %12 to %"struct.std::__1::basic_string<char, std::__1::char_traits<char>, std::__1::allocator<char> >::__short"*
  %26 = getelementptr inbounds %"struct.std::__1::basic_string<char, std::__1::char_traits<char>, std::__1::allocator<char> >::__short", %"struct.std::__1::basic_string<char, std::__1::char_traits<char>, std::__1::allocator<char> >::__short"* %25, i64 0, i32 1, i32 0
  %27 = load i8, i8* %26, align 1
  %28 = icmp slt i8 %27, 0
  %29 = getelementptr inbounds %"class.std::__1::basic_string", %"class.std::__1::basic_string"* %12, i64 0, i32 0, i32 0, i32 0, i32 0, i32 0, i32 0
  %30 = load i8*, i8** %29, align 8
  %31 = getelementptr inbounds %"struct.google::protobuf::internal::InternalMetadata::Container", %"struct.google::protobuf::internal::InternalMetadata::Container"* %11, i64 0, i32 1, i32 0, i32 0, i32 0, i32 0, i32 0, i32 1
  %32 = load i64, i64* %31, align 8
  %33 = bitcast %"class.std::__1::basic_string"* %12 to i8*
  %34 = zext i8 %27 to i64
  %35 = select i1 %28, i8* %30, i8* %33
  %36 = select i1 %28, i64 %32, i64 %34
  %37 = tail call dereferenceable(24) %"class.std::__1::basic_string"* @_ZNSt3__112basic_stringIcNS_11char_traitsIcEENS_9allocatorIcEEE6appendEPKcm(%"class.std::__1::basic_string"* %24, i8* %35, i64 %36) #12
  br label %38

38:                                               ; preds = %2, %23
  %39 = getelementptr inbounds %"class.perfetto::protos::BeginFrameObserverState", %"class.perfetto::protos::BeginFrameObserverState"* %1, i64 0, i32 1, i32 0, i64 0
  %40 = load i32, i32* %39, align 4
  %41 = and i32 %40, 3
  %42 = icmp eq i32 %41, 0
  br i1 %42, label %85, label %43

43:                                               ; preds = %38
  %44 = and i32 %40, 1
  %45 = icmp eq i32 %44, 0
  br i1 %45, label %74, label %46

46:                                               ; preds = %43
  %47 = getelementptr inbounds %"class.perfetto::protos::BeginFrameObserverState", %"class.perfetto::protos::BeginFrameObserverState"* %0, i64 0, i32 1, i32 0, i64 0
  %48 = load i32, i32* %47, align 4
  %49 = or i32 %48, 1
  store i32 %49, i32* %47, align 4
  %50 = getelementptr inbounds %"class.perfetto::protos::BeginFrameObserverState", %"class.perfetto::protos::BeginFrameObserverState"* %0, i64 0, i32 3
  %51 = load %"class.perfetto::protos::BeginFrameArgs"*, %"class.perfetto::protos::BeginFrameArgs"** %50, align 8
  %52 = icmp eq %"class.perfetto::protos::BeginFrameArgs"* %51, null
  br i1 %52, label %53, label %68

53:                                               ; preds = %46
  %54 = bitcast %"class.google::protobuf::internal::InternalMetadata"* %3 to i64*
  %55 = load i64, i64* %54, align 8
  %56 = and i64 %55, 1
  %57 = icmp eq i64 %56, 0
  %58 = and i64 %55, -2
  br i1 %57, label %63, label %59, !prof !2

59:                                               ; preds = %53
  %60 = inttoptr i64 %58 to %"struct.google::protobuf::internal::InternalMetadata::ContainerBase"*
  %61 = getelementptr inbounds %"struct.google::protobuf::internal::InternalMetadata::ContainerBase", %"struct.google::protobuf::internal::InternalMetadata::ContainerBase"* %60, i64 0, i32 0
  %62 = load %"class.google::protobuf::Arena"*, %"class.google::protobuf::Arena"** %61, align 8
  br label %65

63:                                               ; preds = %53
  %64 = inttoptr i64 %58 to %"class.google::protobuf::Arena"*
  br label %65

65:                                               ; preds = %63, %59
  %66 = phi %"class.google::protobuf::Arena"* [ %62, %59 ], [ %64, %63 ]
  %67 = tail call %"class.perfetto::protos::BeginFrameArgs"* @_ZN6google8protobuf5Arena18CreateMaybeMessageIN8perfetto6protos14BeginFrameArgsEJEEEPT_PS1_DpOT0_(%"class.google::protobuf::Arena"* %66) #12
  store %"class.perfetto::protos::BeginFrameArgs"* %67, %"class.perfetto::protos::BeginFrameArgs"** %50, align 8
  br label %68

68:                                               ; preds = %46, %65
  %69 = phi %"class.perfetto::protos::BeginFrameArgs"* [ %67, %65 ], [ %51, %46 ]
  %70 = getelementptr inbounds %"class.perfetto::protos::BeginFrameObserverState", %"class.perfetto::protos::BeginFrameObserverState"* %1, i64 0, i32 3
  %71 = load %"class.perfetto::protos::BeginFrameArgs"*, %"class.perfetto::protos::BeginFrameArgs"** %70, align 8
  %72 = icmp eq %"class.perfetto::protos::BeginFrameArgs"* %71, null
  %73 = select i1 %72, %"class.perfetto::protos::BeginFrameArgs"* bitcast (%"class.perfetto::protos::BeginFrameArgsDefaultTypeInternal"* @_ZN8perfetto6protos33_BeginFrameArgs_default_instance_E to %"class.perfetto::protos::BeginFrameArgs"*), %"class.perfetto::protos::BeginFrameArgs"* %71
  tail call void @_ZN8perfetto6protos14BeginFrameArgs9MergeFromERKS1_(%"class.perfetto::protos::BeginFrameArgs"* %69, %"class.perfetto::protos::BeginFrameArgs"* dereferenceable(88) %73)
  br label %74

74:                                               ; preds = %43, %68
  %75 = and i32 %40, 2
  %76 = icmp eq i32 %75, 0
  br i1 %76, label %81, label %77

77:                                               ; preds = %74
