; ModuleID = '../../chrome/browser/ui/views/chrome_constrained_window_views_client.cc'
source_filename = "../../chrome/browser/ui/views/chrome_constrained_window_views_client.cc"
target datalayout = "e-m:e-i64:64-f80:128-n8:16:32:64-S128"
target triple = "x86_64-unknown-linux-gnu"

module asm ".symver exp, exp@GLIBC_2.2.5"
module asm ".symver exp2, exp2@GLIBC_2.2.5"
module asm ".symver exp2f, exp2f@GLIBC_2.2.5"
module asm ".symver expf, expf@GLIBC_2.2.5"
module asm ".symver lgamma, lgamma@GLIBC_2.2.5"
module asm ".symver lgammaf, lgammaf@GLIBC_2.2.5"
module asm ".symver lgammal, lgammal@GLIBC_2.2.5"
module asm ".symver log, log@GLIBC_2.2.5"
module asm ".symver log2, log2@GLIBC_2.2.5"
module asm ".symver log2f, log2f@GLIBC_2.2.5"
module asm ".symver logf, logf@GLIBC_2.2.5"
module asm ".symver pow, pow@GLIBC_2.2.5"
module asm ".symver powf, powf@GLIBC_2.2.5"

%"class.constrained_window::ConstrainedWindowViewsClient" = type { i32 (...)** }
%"class.(anonymous namespace)::ChromeConstrainedWindowViewsClient" = type { %"class.constrained_window::ConstrainedWindowViewsClient" }
%"class.web_modal::ModalDialogHost" = type { i32 (...)** }
%"class.aura::Window" = type opaque
%class.Browser = type { %class.TabStripModelObserver, %"class.content::WebContentsDelegate", %class.ChromeWebModalDialogManagerDelegate, %class.BookmarkTabHelperObserver, %"class.zoom::ZoomObserver", %"class.content::PageNavigator", %class.ThemeServiceObserver, %"class.translate::ContentTranslateDriver::TranslationObserver", %"class.ui::SelectFileDialog::Listener", %class.PrefChangeRegistrar, %"struct.Browser::CreateParams", i32, %class.Profile*, %"class.std::__1::unique_ptr.43", %class.BrowserWindow*, %"class.std::__1::unique_ptr.49", %"class.std::__1::unique_ptr.55", %"class.std::__1::basic_string", i8, i8, %class.SessionID, %"class.std::__1::unique_ptr.105", %"class.std::__1::map.111", i32, %"class.gfx::Rect", i32, %"class.std::__1::basic_string", i8, i8, %"class.base::TimeTicks", %class.UnloadController, %"class.std::__1::unique_ptr.132", %class.scoped_refptr.138, %"class.std::__1::unique_ptr.146", %"class.std::__1::unique_ptr.152", %"class.std::__1::unique_ptr.158", %"class.std::__1::unique_ptr.164", %"class.std::__1::unique_ptr.170", %"class.std::__1::unique_ptr.176", i32, %"class.std::__1::unique_ptr.182", %"class.std::__1::unique_ptr.188", %"class.std::__1::unique_ptr.194", i8, %"class.std::__1::basic_string", %class.SigninViewController, %"class.std::__1::unique_ptr.213", %"class.base::OnceCallback", %"class.std::__1::unique_ptr.219", %"class.base::ElapsedTimer", %"class.base::WeakPtrFactory.225", %"class.base::WeakPtrFactory.225" }
%class.TabStripModelObserver = type { i32 (...)**, %"class.std::__1::set" }
%"class.std::__1::set" = type { %"class.std::__1::__tree" }
%"class.std::__1::__tree" = type { %"class.std::__1::__tree_end_node"*, %"class.std::__1::__compressed_pair.7", %"class.std::__1::__compressed_pair.10" }
%"class.std::__1::__tree_end_node" = type { %"class.std::__1::__tree_node_base"* }
%"class.std::__1::__tree_node_base" = type <{ %"class.std::__1::__tree_end_node", %"class.std::__1::__tree_node_base"*, %"class.std::__1::__tree_end_node"*, i8, [7 x i8] }>
%"class.std::__1::__compressed_pair.7" = type { %"struct.std::__1::__compressed_pair_elem.8" }
%"struct.std::__1::__compressed_pair_elem.8" = type { %"class.std::__1::__tree_end_node" }
%"class.std::__1::__compressed_pair.10" = type { %"struct.std::__1::__compressed_pair_elem.11" }
%"struct.std::__1::__compressed_pair_elem.11" = type { i64 }
%"class.content::WebContentsDelegate" = type { i32 (...)**, %"class.std::__1::set.13" }
%"class.std::__1::set.13" = type { %"class.std::__1::__tree.14" }
%"class.std::__1::__tree.14" = type { %"class.std::__1::__tree_end_node"*, %"class.std::__1::__compressed_pair.15", %"class.std::__1::__compressed_pair.19" }
%"class.std::__1::__compressed_pair.15" = type { %"struct.std::__1::__compressed_pair_elem.8" }
%"class.std::__1::__compressed_pair.19" = type { %"struct.std::__1::__compressed_pair_elem.11" }
%class.ChromeWebModalDialogManagerDelegate = type { %"class.web_modal::WebContentsModalDialogManagerDelegate" }
%"class.web_modal::WebContentsModalDialogManagerDelegate" = type { i32 (...)** }
%class.BookmarkTabHelperObserver = type { i32 (...)** }
%"class.zoom::ZoomObserver" = type { i32 (...)** }
%"class.content::PageNavigator" = type { i32 (...)** }
%class.ThemeServiceObserver = type { %"class.base::CheckedObserver" }
%"class.base::CheckedObserver" = type { i32 (...)**, %"class.base::WeakPtrFactory" }
%"class.base::WeakPtrFactory" = type { %"class.base::internal::WeakPtrFactoryBase" }
%"class.base::internal::WeakPtrFactoryBase" = type { %"class.base::internal::WeakReferenceOwner", i64 }
%"class.base::internal::WeakReferenceOwner" = type { %class.scoped_refptr }
%class.scoped_refptr = type { %"class.base::internal::WeakReference::Flag"* }
%"class.base::internal::WeakReference::Flag" = type <{ %"class.base::RefCountedThreadSafe", %"class.base::AtomicFlag", [3 x i8] }>
%"class.base::RefCountedThreadSafe" = type { %"class.base::subtle::RefCountedThreadSafeBase" }
%"class.base::subtle::RefCountedThreadSafeBase" = type { %"class.base::AtomicRefCount" }
%"class.base::AtomicRefCount" = type { %"struct.std::__1::atomic" }
%"struct.std::__1::atomic" = type { %"struct.std::__1::__atomic_base" }
%"struct.std::__1::__atomic_base" = type { %"struct.std::__1::__atomic_base.23" }
%"struct.std::__1::__atomic_base.23" = type { %"struct.std::__1::__cxx_atomic_impl" }
%"struct.std::__1::__cxx_atomic_impl" = type { %"struct.std::__1::__cxx_atomic_base_impl" }
%"struct.std::__1::__cxx_atomic_base_impl" = type { i32 }
%"class.base::AtomicFlag" = type { %"struct.std::__1::atomic.24" }
%"struct.std::__1::atomic.24" = type { %"struct.std::__1::__atomic_base.25" }
%"struct.std::__1::__atomic_base.25" = type { %"struct.std::__1::__atomic_base.26" }
%"struct.std::__1::__atomic_base.26" = type { %"struct.std::__1::__cxx_atomic_impl.27" }
%"struct.std::__1::__cxx_atomic_impl.27" = type { %"struct.std::__1::__cxx_atomic_base_impl.28" }
%"struct.std::__1::__cxx_atomic_base_impl.28" = type { i8 }
%"class.translate::ContentTranslateDriver::TranslationObserver" = type { %"class.base::CheckedObserver" }
%"class.ui::SelectFileDialog::Listener" = type { i32 (...)** }
%class.PrefChangeRegistrar = type { %class.PrefObserver, %"class.std::__1::map", %class.PrefService* }
%class.PrefObserver = type { i32 (...)** }
%"class.std::__1::map" = type { %"class.std::__1::__tree.29" }
%"class.std::__1::__tree.29" = type { %"class.std::__1::__tree_end_node"*, %"class.std::__1::__compressed_pair.30", %"class.std::__1::__compressed_pair.34" }
%"class.std::__1::__compressed_pair.30" = type { %"struct.std::__1::__compressed_pair_elem.8" }
%"class.std::__1::__compressed_pair.34" = type { %"struct.std::__1::__compressed_pair_elem.11" }
%class.PrefService = type opaque
%"struct.Browser::CreateParams" = type <{ i32, [4 x i8], %class.Profile*, i8, [3 x i8], %"class.gfx::Rect", [4 x i8], %"class.std::__1::basic_string", i8, [3 x i8], i32, i8, i8, i8, i8, [4 x i8], %class.BrowserWindow*, %"class.std::__1::basic_string", i8, i8, [6 x i8], %"class.std::__1::basic_string", i8, [7 x i8] }>
%class.Profile = type opaque
%"class.std::__1::unique_ptr.43" = type { %"class.std::__1::__compressed_pair.44" }
%"class.std::__1::__compressed_pair.44" = type { %"struct.std::__1::__compressed_pair_elem.45" }
%"struct.std::__1::__compressed_pair_elem.45" = type { %class.ScopedProfileKeepAlive* }
%class.ScopedProfileKeepAlive = type opaque
%class.BrowserWindow = type opaque
%"class.std::__1::unique_ptr.49" = type { %"class.std::__1::__compressed_pair.50" }
%"class.std::__1::__compressed_pair.50" = type { %"struct.std::__1::__compressed_pair_elem.51" }
%"struct.std::__1::__compressed_pair_elem.51" = type { %class.TabStripModelDelegate* }
%class.TabStripModelDelegate = type opaque
%"class.std::__1::unique_ptr.55" = type { %"class.std::__1::__compressed_pair.56" }
%"class.std::__1::__compressed_pair.56" = type { %"struct.std::__1::__compressed_pair_elem.57" }
%"struct.std::__1::__compressed_pair_elem.57" = type { %class.TabStripModel* }
%class.TabStripModel = type { %class.TabGroupController, %"class.std::__1::vector", %"class.std::__1::unique_ptr.69", %class.TabStripModelDelegate*, i8, [7 x i8], %"class.base::ObserverList", %class.Profile*, i8, %"class.std::__1::unique_ptr.82", %"class.ui::ListSelectionModel", i8, %class.TabSwitchEventLatencyRecorder, %"class.base::RepeatingTimer", %"class.base::TimeTicks", i64, i64, %"class.base::WeakPtrFactory.101" }
%class.TabGroupController = type { i32 (...)** }
%"class.std::__1::vector" = type { %"class.std::__1::__vector_base" }
%"class.std::__1::__vector_base" = type { %"class.std::__1::unique_ptr.58"*, %"class.std::__1::unique_ptr.58"*, %"class.std::__1::__compressed_pair.64" }
%"class.std::__1::unique_ptr.58" = type { %"class.std::__1::__compressed_pair.59" }
%"class.std::__1::__compressed_pair.59" = type { %"struct.std::__1::__compressed_pair_elem.60" }
%"struct.std::__1::__compressed_pair_elem.60" = type { %"class.TabStripModel::WebContentsData"* }
%"class.TabStripModel::WebContentsData" = type opaque
%"class.std::__1::__compressed_pair.64" = type { %"struct.std::__1::__compressed_pair_elem.65" }
%"struct.std::__1::__compressed_pair_elem.65" = type { %"class.std::__1::unique_ptr.58"* }
%"class.std::__1::unique_ptr.69" = type { %"class.std::__1::__compressed_pair.70" }
%"class.std::__1::__compressed_pair.70" = type { %"struct.std::__1::__compressed_pair_elem.71" }
%"struct.std::__1::__compressed_pair_elem.71" = type { %class.TabGroupModel* }
%class.TabGroupModel = type opaque
%"class.base::ObserverList" = type <{ %"class.std::__1::vector.75", %"class.base::LinkedList", i64, i32, [4 x i8] }>
%"class.std::__1::vector.75" = type { %"class.std::__1::__vector_base.76" }
%"class.std::__1::__vector_base.76" = type { %"class.base::internal::UncheckedObserverAdapter"*, %"class.base::internal::UncheckedObserverAdapter"*, %"class.std::__1::__compressed_pair.77" }
%"class.base::internal::UncheckedObserverAdapter" = type { i8* }
%"class.std::__1::__compressed_pair.77" = type { %"struct.std::__1::__compressed_pair_elem.78" }
%"struct.std::__1::__compressed_pair_elem.78" = type { %"class.base::internal::UncheckedObserverAdapter"* }
%"class.base::LinkedList" = type { %"class.base::LinkNode" }
%"class.base::LinkNode" = type { %"class.base::internal::LinkNodeBase" }
%"class.base::internal::LinkNodeBase" = type { %"class.base::internal::LinkNodeBase"*, %"class.base::internal::LinkNodeBase"* }
%"class.std::__1::unique_ptr.82" = type { %"class.std::__1::__compressed_pair.83" }
%"class.std::__1::__compressed_pair.83" = type { %"struct.std::__1::__compressed_pair_elem.84" }
%"struct.std::__1::__compressed_pair_elem.84" = type { %class.TabStripModelOrderController* }
%class.TabStripModelOrderController = type { %class.TabStripModelObserver, %class.TabStripModel* }
%"class.ui::ListSelectionModel" = type { %"class.base::internal::flat_tree", i32, i32 }
%"class.base::internal::flat_tree" = type { %"class.std::__1::vector.88" }
%"class.std::__1::vector.88" = type { %"class.std::__1::__vector_base.89" }
%"class.std::__1::__vector_base.89" = type { i32*, i32*, %"class.std::__1::__compressed_pair.90" }
%"class.std::__1::__compressed_pair.90" = type { %"struct.std::__1::__compressed_pair_elem.91" }
%"struct.std::__1::__compressed_pair_elem.91" = type { i32* }
%class.TabSwitchEventLatencyRecorder = type { %"class.base::TimeTicks", %"class.absl::optional" }
%"class.absl::optional" = type { %"class.absl::optional_internal::optional_data" }
%"class.absl::optional_internal::optional_data" = type { %"class.absl::optional_internal::optional_data_base" }
%"class.absl::optional_internal::optional_data_base" = type { %"class.absl::optional_internal::optional_data_dtor_base" }
%"class.absl::optional_internal::optional_data_dtor_base" = type { i8, %union.anon.95 }
%union.anon.95 = type { i32 }
%"class.base::RepeatingTimer" = type { %"class.base::internal::TimerBase", %"class.base::RepeatingCallback" }
%"class.base::internal::TimerBase" = type { i32 (...)**, %class.scoped_refptr.96, %"class.base::SequenceCheckerDoNothing", %"class.base::internal::TaskDestructionDetector"*, %"class.base::Location", %"class.base::TimeDelta", %"class.base::TimeTicks", %"class.base::TimeTicks", %"class.base::TickClock"*, i8, %"class.base::WeakPtrFactory.98" }
%class.scoped_refptr.96 = type { %"class.base::SequencedTaskRunner"* }
%"class.base::SequencedTaskRunner" = type { %"class.base::TaskRunner.base", [4 x i8] }
%"class.base::TaskRunner.base" = type <{ i32 (...)**, %"class.base::RefCountedThreadSafe.97" }>
%"class.base::RefCountedThreadSafe.97" = type { %"class.base::subtle::RefCountedThreadSafeBase" }
%"class.base::SequenceCheckerDoNothing" = type { i8 }
%"class.base::internal::TaskDestructionDetector" = type opaque
%"class.base::Location" = type { i8*, i8*, i32, i8* }
%"class.base::TimeDelta" = type { i64 }
%"class.base::TickClock" = type { i32 (...)** }
%"class.base::WeakPtrFactory.98" = type { %"class.base::internal::WeakPtrFactoryBase" }
%"class.base::RepeatingCallback" = type { %"class.base::internal::CallbackBaseCopyable" }
%"class.base::internal::CallbackBaseCopyable" = type { %"class.base::internal::CallbackBase" }
%"class.base::internal::CallbackBase" = type { %class.scoped_refptr.99 }
%class.scoped_refptr.99 = type { %"class.base::internal::BindStateBase"* }
%"class.base::internal::BindStateBase" = type { %"class.base::RefCountedThreadSafe.100", void ()*, void (%"class.base::internal::BindStateBase"*)*, i1 (%"class.base::internal::BindStateBase"*, i32)* }
%"class.base::RefCountedThreadSafe.100" = type { %"class.base::subtle::RefCountedThreadSafeBase" }
%"class.base::WeakPtrFactory.101" = type { %"class.base::internal::WeakPtrFactoryBase" }
%class.SessionID = type { i32 }
%"class.std::__1::unique_ptr.105" = type { %"class.std::__1::__compressed_pair.106" }
%"class.std::__1::__compressed_pair.106" = type { %"struct.std::__1::__compressed_pair_elem.107" }
%"struct.std::__1::__compressed_pair_elem.107" = type { %class.LocationBarModel* }
%class.LocationBarModel = type opaque
%"class.std::__1::map.111" = type { %"class.std::__1::__tree.112" }
%"class.std::__1::__tree.112" = type { %"class.std::__1::__tree_end_node"*, %"class.std::__1::__compressed_pair.113", %"class.std::__1::__compressed_pair.117" }
%"class.std::__1::__compressed_pair.113" = type { %"struct.std::__1::__compressed_pair_elem.8" }
%"class.std::__1::__compressed_pair.117" = type { %"struct.std::__1::__compressed_pair_elem.11" }
%"class.gfx::Rect" = type { %"class.gfx::Point", %"class.gfx::Size" }
%"class.gfx::Point" = type { i32, i32 }
%"class.gfx::Size" = type { i32, i32 }
%"class.base::TimeTicks" = type { %"class.base::time_internal::TimeBase" }
%"class.base::time_internal::TimeBase" = type { i64 }
%class.UnloadController = type { %"class.WebContentsCollection::Observer", %class.TabStripModelObserver, %class.Browser*, %class.WebContentsCollection, %"class.std::__1::set.13", %"class.std::__1::set.13", i8, %"class.base::RepeatingCallback.130", %"class.base::WeakPtrFactory.131" }
%"class.WebContentsCollection::Observer" = type { i32 (...)** }
%class.WebContentsCollection = type { %"class.WebContentsCollection::Observer"*, %"class.base::flat_map" }
%"class.base::flat_map" = type { %"class.base::internal::flat_tree.122" }
%"class.base::internal::flat_tree.122" = type { %"class.std::__1::vector.123" }
%"class.std::__1::vector.123" = type { %"class.std::__1::__vector_base.124" }
%"class.std::__1::__vector_base.124" = type { %"struct.std::__1::pair"*, %"struct.std::__1::pair"*, %"class.std::__1::__compressed_pair.125" }
%"struct.std::__1::pair" = type opaque
%"class.std::__1::__compressed_pair.125" = type { %"struct.std::__1::__compressed_pair_elem.126" }
%"struct.std::__1::__compressed_pair_elem.126" = type { %"struct.std::__1::pair"* }
%"class.base::RepeatingCallback.130" = type { %"class.base::internal::CallbackBaseCopyable" }
%"class.base::WeakPtrFactory.131" = type { %"class.base::internal::WeakPtrFactoryBase" }
%"class.std::__1::unique_ptr.132" = type { %"class.std::__1::__compressed_pair.133" }
%"class.std::__1::__compressed_pair.133" = type { %"struct.std::__1::__compressed_pair_elem.134" }
%"struct.std::__1::__compressed_pair_elem.134" = type { %class.FindBarController* }
%class.FindBarController = type opaque
%class.scoped_refptr.138 = type { %"class.ui::SelectFileDialog"* }
%"class.ui::SelectFileDialog" = type { %"class.ui::BaseShellDialog", %"class.base::RefCountedThreadSafe.139", %"class.ui::SelectFileDialog::Listener"*, %"class.std::__1::unique_ptr.140" }
%"class.ui::BaseShellDialog" = type { i32 (...)** }
%"class.base::RefCountedThreadSafe.139" = type { %"class.base::subtle::RefCountedThreadSafeBase" }
%"class.std::__1::unique_ptr.140" = type { %"class.std::__1::__compressed_pair.141" }
%"class.std::__1::__compressed_pair.141" = type { %"struct.std::__1::__compressed_pair_elem.142" }
%"struct.std::__1::__compressed_pair_elem.142" = type { %"class.ui::SelectFilePolicy"* }
%"class.ui::SelectFilePolicy" = type opaque
%"class.std::__1::unique_ptr.146" = type { %"class.std::__1::__compressed_pair.147" }
%"class.std::__1::__compressed_pair.147" = type { %"struct.std::__1::__compressed_pair_elem.148" }
%"struct.std::__1::__compressed_pair_elem.148" = type { %class.BrowserContentSettingBubbleModelDelegate* }
%class.BrowserContentSettingBubbleModelDelegate = type opaque
%"class.std::__1::unique_ptr.152" = type { %"class.std::__1::__compressed_pair.153" }
%"class.std::__1::__compressed_pair.153" = type { %"struct.std::__1::__compressed_pair_elem.154" }
%"struct.std::__1::__compressed_pair_elem.154" = type { %class.BrowserLocationBarModelDelegate* }
%class.BrowserLocationBarModelDelegate = type opaque
%"class.std::__1::unique_ptr.158" = type { %"class.std::__1::__compressed_pair.159" }
%"class.std::__1::__compressed_pair.159" = type { %"struct.std::__1::__compressed_pair_elem.160" }
%"struct.std::__1::__compressed_pair_elem.160" = type { %class.BrowserLiveTabContext* }
%class.BrowserLiveTabContext = type opaque
%"class.std::__1::unique_ptr.164" = type { %"class.std::__1::__compressed_pair.165" }
%"class.std::__1::__compressed_pair.165" = type { %"struct.std::__1::__compressed_pair_elem.166" }
%"struct.std::__1::__compressed_pair_elem.166" = type { %class.BrowserSyncedWindowDelegate* }
%class.BrowserSyncedWindowDelegate = type opaque
%"class.std::__1::unique_ptr.170" = type { %"class.std::__1::__compressed_pair.171" }
%"class.std::__1::__compressed_pair.171" = type { %"struct.std::__1::__compressed_pair_elem.172" }
%"struct.std::__1::__compressed_pair_elem.172" = type { %class.BrowserInstantController* }
%class.BrowserInstantController = type opaque
%"class.std::__1::unique_ptr.176" = type { %"class.std::__1::__compressed_pair.177" }
%"class.std::__1::__compressed_pair.177" = type { %"struct.std::__1::__compressed_pair_elem.178" }
%"struct.std::__1::__compressed_pair_elem.178" = type { %"class.web_app::AppBrowserController"* }
%"class.web_app::AppBrowserController" = type opaque
%"class.std::__1::unique_ptr.182" = type { %"class.std::__1::__compressed_pair.183" }
%"class.std::__1::__compressed_pair.183" = type { %"struct.std::__1::__compressed_pair_elem.184" }
%"struct.std::__1::__compressed_pair_elem.184" = type { %class.ExclusiveAccessManager* }
%class.ExclusiveAccessManager = type opaque
%"class.std::__1::unique_ptr.188" = type { %"class.std::__1::__compressed_pair.189" }
%"class.std::__1::__compressed_pair.189" = type { %"struct.std::__1::__compressed_pair_elem.190" }
%"struct.std::__1::__compressed_pair_elem.190" = type { %"class.extensions::BrowserExtensionWindowController"* }
%"class.extensions::BrowserExtensionWindowController" = type opaque
%"class.std::__1::unique_ptr.194" = type { %"class.std::__1::__compressed_pair.195" }
%"class.std::__1::__compressed_pair.195" = type { %"struct.std::__1::__compressed_pair_elem.196" }
%"struct.std::__1::__compressed_pair_elem.196" = type { %"class.chrome::BrowserCommandController"* }
%"class.chrome::BrowserCommandController" = type opaque
%"class.std::__1::basic_string" = type { %"class.std::__1::__compressed_pair.38" }
%"class.std::__1::__compressed_pair.38" = type { %"struct.std::__1::__compressed_pair_elem.39" }
%"struct.std::__1::__compressed_pair_elem.39" = type { %"struct.std::__1::basic_string<char, std::__1::char_traits<char>, std::__1::allocator<char> >::__rep" }
%"struct.std::__1::basic_string<char, std::__1::char_traits<char>, std::__1::allocator<char> >::__rep" = type { %union.anon }
%union.anon = type { %"struct.std::__1::basic_string<char, std::__1::char_traits<char>, std::__1::allocator<char> >::__long" }
%"struct.std::__1::basic_string<char, std::__1::char_traits<char>, std::__1::allocator<char> >::__long" = type { i8*, i64, i64 }
%class.SigninViewController = type { %"class.SigninViewControllerDelegate::Observer", %class.Browser*, %class.SigninViewControllerDelegate*, %"class.base::ScopedObservation", %"class.base::WeakPtrFactory.212" }
%"class.SigninViewControllerDelegate::Observer" = type { %"class.base::CheckedObserver" }
%class.SigninViewControllerDelegate = type { i32 (...)**, %"class.base::ObserverList.200" }
%"class.base::ObserverList.200" = type <{ %"class.std::__1::vector.201", %"class.base::LinkedList.209", i64, i32, [4 x i8] }>
%"class.std::__1::vector.201" = type { %"class.std::__1::__vector_base.202" }
%"class.std::__1::__vector_base.202" = type { %"class.base::internal::CheckedObserverAdapter"*, %"class.base::internal::CheckedObserverAdapter"*, %"class.std::__1::__compressed_pair.204" }
%"class.base::internal::CheckedObserverAdapter" = type { %"class.base::WeakPtr" }
%"class.base::WeakPtr" = type { %"class.base::internal::WeakPtrBase" }
%"class.base::internal::WeakPtrBase" = type { %"class.base::internal::WeakReference", i64 }
%"class.base::internal::WeakReference" = type { %class.scoped_refptr.203 }
%class.scoped_refptr.203 = type { %"class.base::internal::WeakReference::Flag"* }
%"class.std::__1::__compressed_pair.204" = type { %"struct.std::__1::__compressed_pair_elem.205" }
%"struct.std::__1::__compressed_pair_elem.205" = type { %"class.base::internal::CheckedObserverAdapter"* }
%"class.base::LinkedList.209" = type { %"class.base::LinkNode.210" }
%"class.base::LinkNode.210" = type { %"class.base::internal::LinkNodeBase" }
%"class.base::ScopedObservation" = type { %"class.SigninViewControllerDelegate::Observer"*, %class.SigninViewControllerDelegate* }
%"class.base::WeakPtrFactory.212" = type { %"class.base::internal::WeakPtrFactoryBase" }
%"class.std::__1::unique_ptr.213" = type { %"class.std::__1::__compressed_pair.214" }
%"class.std::__1::__compressed_pair.214" = type { %"struct.std::__1::__compressed_pair_elem.215" }
%"struct.std::__1::__compressed_pair_elem.215" = type { %class.ScopedKeepAlive* }
%class.ScopedKeepAlive = type opaque
%"class.base::OnceCallback" = type { %"class.base::internal::CallbackBase" }
%"class.std::__1::unique_ptr.219" = type { %"class.std::__1::__compressed_pair.220" }
%"class.std::__1::__compressed_pair.220" = type { %"struct.std::__1::__compressed_pair_elem.221" }
%"struct.std::__1::__compressed_pair_elem.221" = type { %"class.extensions::ExtensionBrowserWindowHelper"* }
%"class.extensions::ExtensionBrowserWindowHelper" = type opaque
%"class.base::ElapsedTimer" = type { %"class.base::TimeTicks" }
%"class.base::WeakPtrFactory.225" = type { %"class.base::internal::WeakPtrFactoryBase" }
%"class.web_modal::WebContentsModalDialogHost" = type { %"class.web_modal::ModalDialogHost" }

$_ZN18constrained_window28ConstrainedWindowViewsClientD2Ev = comdat any

@_ZTVN12_GLOBAL__N_134ChromeConstrainedWindowViewsClientE = internal unnamed_addr constant { [6 x i8*] } { [6 x i8*] [i8* null, i8* null, i8* bitcast (void (%"class.constrained_window::ConstrainedWindowViewsClient"*)* @_ZN18constrained_window28ConstrainedWindowViewsClientD2Ev to i8*), i8* bitcast (void (%"class.(anonymous namespace)::ChromeConstrainedWindowViewsClient"*)* @_ZN12_GLOBAL__N_134ChromeConstrainedWindowViewsClientD0Ev to i8*), i8* bitcast (%"class.web_modal::ModalDialogHost"* (%"class.(anonymous namespace)::ChromeConstrainedWindowViewsClient"*, %"class.aura::Window"*)* @_ZN12_GLOBAL__N_134ChromeConstrainedWindowViewsClient18GetModalDialogHostEPN4aura6WindowE to i8*), i8* bitcast (%"class.aura::Window"* (%"class.(anonymous namespace)::ChromeConstrainedWindowViewsClient"*, %"class.aura::Window"*)* @_ZN12_GLOBAL__N_134ChromeConstrainedWindowViewsClient17GetDialogHostViewEPN4aura6WindowE to i8*)] }, align 8

; Function Attrs: nounwind ssp uwtable
define hidden %"class.constrained_window::ConstrainedWindowViewsClient"* @_Z40CreateChromeConstrainedWindowViewsClientv() local_unnamed_addr #0 {
  %1 = tail call i8* @_Znwm(i64 8) #4
  %2 = bitcast i8* %1 to i32 (...)***
  store i32 (...)** bitcast (i8** getelementptr inbounds ({ [6 x i8*] }, { [6 x i8*] }* @_ZTVN12_GLOBAL__N_134ChromeConstrainedWindowViewsClientE, i64 0, inrange i32 0, i64 2) to i32 (...)**), i32 (...)*** %2, align 8
  %3 = bitcast i8* %1 to %"class.constrained_window::ConstrainedWindowViewsClient"*
  ret %"class.constrained_window::ConstrainedWindowViewsClient"* %3
}

; Function Attrs: nobuiltin nofree
declare noalias nonnull i8* @_Znwm(i64) local_unnamed_addr #1

; Function Attrs: nounwind ssp uwtable
define linkonce_odr hidden void @_ZN18constrained_window28ConstrainedWindowViewsClientD2Ev(%"class.constrained_window::ConstrainedWindowViewsClient"*) unnamed_addr #0 comdat align 2 {
  ret void
}

; Function Attrs: nounwind ssp uwtable
define internal void @_ZN12_GLOBAL__N_134ChromeConstrainedWindowViewsClientD0Ev(%"class.(anonymous namespace)::ChromeConstrainedWindowViewsClient"*) unnamed_addr #0 align 2 {
  %2 = bitcast %"class.(anonymous namespace)::ChromeConstrainedWindowViewsClient"* %0 to i8*
  tail call void @_ZdlPv(i8* %2) #4
  ret void
}

; Function Attrs: nounwind ssp uwtable
define internal %"class.web_modal::ModalDialogHost"* @_ZN12_GLOBAL__N_134ChromeConstrainedWindowViewsClient18GetModalDialogHostEPN4aura6WindowE(%"class.(anonymous namespace)::ChromeConstrainedWindowViewsClient"* nocapture readnone, %"class.aura::Window"*) unnamed_addr #0 align 2 {
  %3 = tail call %class.Browser* @_ZN6chrome21FindBrowserWithWindowEPN4aura6WindowE(%"class.aura::Window"* %1) #5
  %4 = icmp eq %class.Browser* %3, null
  br i1 %4, label %13, label %5

5:                                                ; preds = %2
  %6 = getelementptr inbounds %class.Browser, %class.Browser* %3, i64 0, i32 2, i32 0
  %7 = bitcast %"class.web_modal::WebContentsModalDialogManagerDelegate"* %6 to %"class.web_modal::WebContentsModalDialogHost"* (%"class.web_modal::WebContentsModalDialogManagerDelegate"*)***
  %8 = load %"class.web_modal::WebContentsModalDialogHost"* (%"class.web_modal::WebContentsModalDialogManagerDelegate"*)**, %"class.web_modal::WebContentsModalDialogHost"* (%"class.web_modal::WebContentsModalDialogManagerDelegate"*)*** %7, align 8
  %9 = getelementptr inbounds %"class.web_modal::WebContentsModalDialogHost"* (%"class.web_modal::WebContentsModalDialogManagerDelegate"*)*, %"class.web_modal::WebContentsModalDialogHost"* (%"class.web_modal::WebContentsModalDialogManagerDelegate"*)** %8, i64 1
  %10 = load %"class.web_modal::WebContentsModalDialogHost"* (%"class.web_modal::WebContentsModalDialogManagerDelegate"*)*, %"class.web_modal::WebContentsModalDialogHost"* (%"class.web_modal::WebContentsModalDialogManagerDelegate"*)** %9, align 8
  %11 = tail call %"class.web_modal::WebContentsModalDialogHost"* %10(%"class.web_modal::WebContentsModalDialogManagerDelegate"* %6) #5
  %12 = getelementptr inbounds %"class.web_modal::WebContentsModalDialogHost", %"class.web_modal::WebContentsModalDialogHost"* %11, i64 0, i32 0
  br label %13

13:                                               ; preds = %2, %5
  %14 = phi %"class.web_modal::ModalDialogHost"* [ %12, %5 ], [ null, %2 ]
  ret %"class.web_modal::ModalDialogHost"* %14
}

; Function Attrs: nounwind ssp uwtable
define internal %"class.aura::Window"* @_ZN12_GLOBAL__N_134ChromeConstrainedWindowViewsClient17GetDialogHostViewEPN4aura6WindowE(%"class.(anonymous namespace)::ChromeConstrainedWindowViewsClient"* nocapture readnone, %"class.aura::Window"*) unnamed_addr #0 align 2 {
  %3 = tail call %"class.aura::Window"* @_ZN13platform_util16GetViewForWindowEPN4aura6WindowE(%"class.aura::Window"* %1) #5
  ret %"class.aura::Window"* %3
}

; Function Attrs: nobuiltin nounwind
declare void @_ZdlPv(i8*) local_unnamed_addr #2

declare %class.Browser* @_ZN6chrome21FindBrowserWithWindowEPN4aura6WindowE(%"class.aura::Window"*) local_unnamed_addr #3

declare %"class.aura::Window"* @_ZN13platform_util16GetViewForWindowEPN4aura6WindowE(%"class.aura::Window"*) local_unnamed_addr #3

attributes #0 = { nounwind ssp uwtable "correctly-rounded-divide-sqrt-fp-math"="false" "disable-tail-calls"="false" "less-precise-fpmad"="false" "min-legal-vector-width"="0" "no-frame-pointer-elim"="false" "no-frame-pointer-elim-non-leaf" "no-infs-fp-math"="false" "no-jump-tables"="false" "no-nans-fp-math"="false" "no-signed-zeros-fp-math"="false" "no-trapping-math"="false" "null-pointer-is-valid"="true" "stack-protector-buffer-size"="4" "target-cpu"="x86-64" "target-features"="+cx8,+fxsr,+mmx,+sse,+sse2,+sse3,+x87" "unsafe-fp-math"="false" "use-soft-float"="false" }
attributes #1 = { nobuiltin nofree "correctly-rounded-divide-sqrt-fp-math"="false" "disable-tail-calls"="false" "less-precise-fpmad"="false" "no-frame-pointer-elim"="false" "no-frame-pointer-elim-non-leaf" "no-infs-fp-math"="false" "no-nans-fp-math"="false" "no-signed-zeros-fp-math"="false" "no-trapping-math"="false" "null-pointer-is-valid"="true" "stack-protector-buffer-size"="4" "target-cpu"="x86-64" "target-features"="+cx8,+fxsr,+mmx,+sse,+sse2,+sse3,+x87" "unsafe-fp-math"="false" "use-soft-float"="false" }
attributes #2 = { nobuiltin nounwind "correctly-rounded-divide-sqrt-fp-math"="false" "disable-tail-calls"="false" "less-precise-fpmad"="false" "no-frame-pointer-elim"="false" "no-frame-pointer-elim-non-leaf" "no-infs-fp-math"="false" "no-nans-fp-math"="false" "no-signed-zeros-fp-math"="false" "no-trapping-math"="false" "null-pointer-is-valid"="true" "stack-protector-buffer-size"="4" "target-cpu"="x86-64" "target-features"="+cx8,+fxsr,+mmx,+sse,+sse2,+sse3,+x87" "unsafe-fp-math"="false" "use-soft-float"="false" }
attributes #3 = { "correctly-rounded-divide-sqrt-fp-math"="false" "disable-tail-calls"="false" "less-precise-fpmad"="false" "no-frame-pointer-elim"="false" "no-frame-pointer-elim-non-leaf" "no-infs-fp-math"="false" "no-nans-fp-math"="false" "no-signed-zeros-fp-math"="false" "no-trapping-math"="false" "null-pointer-is-valid"="true" "stack-protector-buffer-size"="4" "target-cpu"="x86-64" "target-features"="+cx8,+fxsr,+mmx,+sse,+sse2,+sse3,+x87" "unsafe-fp-math"="false" "use-soft-float"="false" }
attributes #4 = { builtin nounwind }
attributes #5 = { nounwind }

!llvm.module.flags = !{!0, !1}

!0 = !{i32 1, !"wchar_size", i32 4}
!1 = !{i32 7, !"PIC Level", i32 2}
