; ModuleID = '../../third_party/pdfium/fxjs/cjs_document.cpp'
source_filename = "../../third_party/pdfium/fxjs/cjs_document.cpp"
target datalayout = "e-m:e-i64:64-f80:128-n8:16:32:64-S128"
target triple = "x86_64-unknown-linux-gnu"

module asm ".symver exp, exp@GLIBC_2.2.5"
module asm ".symver exp2, exp2@GLIBC_2.2.5"
module asm ".symver exp2f, exp2f@GLIBC_2.2.5"
module asm ".symver expf, expf@GLIBC_2.2.5"
module asm ".symver lgamma, lgamma@GLIBC_2.2.5"
module asm ".symver lgammaf, lgammaf@GLIBC_2.2.5"
module asm ".symver lgammal, lgammal@GLIBC_2.2.5"
module asm ".symver log, log@GLIBC_2.2.5"
module asm ".symver log2, log2@GLIBC_2.2.5"
module asm ".symver log2f, log2f@GLIBC_2.2.5"
module asm ".symver logf, logf@GLIBC_2.2.5"
module asm ".symver pow, pow@GLIBC_2.2.5"
module asm ".symver powf, powf@GLIBC_2.2.5"

%struct.JSPropertySpec = type { i8*, void (%"class.v8::String"*, %"class.v8::PropertyCallbackInfo"*)*, void (%"class.v8::String"*, %"class.v8::Value"*, %"class.v8::PropertyCallbackInfo.1"*)* }
%"class.v8::String" = type { i8 }
%"class.v8::PropertyCallbackInfo" = type { i64* }
%"class.v8::Value" = type { i8 }
%"class.v8::PropertyCallbackInfo.1" = type { i64* }
%struct.JSMethodSpec = type { i8*, void (%"class.v8::FunctionCallbackInfo"*)* }
%"class.v8::FunctionCallbackInfo" = type <{ i64*, i64*, i32, [4 x i8] }>
%"struct.std::__1::__function::__policy" = type { i8* (i8*)*, void (i8*)*, i8, %"class.std::type_info"* }
%"class.std::type_info" = type { i32 (...)**, i8* }
%class.CJS_Document = type <{ %class.CJS_Object, %"class.fxcrt::Observable", %"class.fxcrt::WideString", %"class.fxcrt::ObservedPtr.39", %"class.std::__1::list", %"class.std::__1::list.323", i8, [7 x i8] }>
%class.CJS_Object = type { i32 (...)**, %"class.fxcrt::UnownedPtr", %"class.v8::Global.2", %"class.fxcrt::ObservedPtr" }
%"class.fxcrt::UnownedPtr" = type { %"class.v8::Isolate"* }
%"class.v8::Isolate" = type { i8 }
%"class.v8::Global.2" = type { %"class.v8::PersistentBase.3" }
%"class.v8::PersistentBase.3" = type { %"class.v8::Object"* }
%"class.fxcrt::ObservedPtr" = type { %"class.fxcrt::Observable::ObserverIface", %class.CJS_Runtime* }
%"class.fxcrt::Observable::ObserverIface" = type { i32 (...)** }
%"class.fxcrt::Observable" = type { %"class.std::__1::set" }
%"class.std::__1::set" = type { %"class.std::__1::__tree.23" }
%"class.std::__1::__tree.23" = type { %"class.std::__1::__tree_end_node"*, %"class.std::__1::__compressed_pair.24", %"class.std::__1::__compressed_pair.28" }
%"class.std::__1::__tree_end_node" = type { %"class.std::__1::__tree_node_base"* }
%"class.std::__1::__tree_node_base" = type <{ %"class.std::__1::__tree_end_node", %"class.std::__1::__tree_node_base"*, %"class.std::__1::__tree_end_node"*, i8, [7 x i8] }>
%"class.std::__1::__compressed_pair.24" = type { %"struct.std::__1::__compressed_pair_elem.6" }
%"struct.std::__1::__compressed_pair_elem.6" = type { %"class.std::__1::__tree_end_node" }
%"class.std::__1::__compressed_pair.28" = type { %"struct.std::__1::__compressed_pair_elem.11" }
%"struct.std::__1::__compressed_pair_elem.11" = type { i64 }
%"class.fxcrt::WideString" = type { %"class.fxcrt::RetainPtr.311" }
%"class.fxcrt::RetainPtr.311" = type { %"class.std::__1::unique_ptr.312" }
%"class.std::__1::unique_ptr.312" = type { %"class.std::__1::__compressed_pair.313" }
%"class.std::__1::__compressed_pair.313" = type { %"struct.std::__1::__compressed_pair_elem.314" }
%"struct.std::__1::__compressed_pair_elem.314" = type { %"class.fxcrt::StringDataTemplate.315"* }
%"class.fxcrt::StringDataTemplate.315" = type <{ i64, i64, i64, [1 x i32], [4 x i8] }>
%"class.fxcrt::ObservedPtr.39" = type { %"class.fxcrt::Observable::ObserverIface", %class.CPDFSDK_FormFillEnvironment* }
%class.CPDFSDK_FormFillEnvironment = type { %"class.CFX_Timer::HandlerIface", %class.IPWL_SystemHandler, %"class.fxcrt::UnownedPtr.40", %"class.std::__1::unique_ptr.41", %"class.std::__1::unique_ptr.45", %"class.std::__1::map.51", %"class.std::__1::unique_ptr.62", %"class.fxcrt::ObservedPtr.262", %"class.fxcrt::UnownedPtr.73", %"class.std::__1::unique_ptr.264", %"class.std::__1::unique_ptr.288", i8, i8, %"class.std::__1::vector.294" }
%"class.CFX_Timer::HandlerIface" = type { i32 (...)**, %"class.fxcrt::Observable" }
%class.IPWL_SystemHandler = type { i32 (...)** }
%"class.fxcrt::UnownedPtr.40" = type { %struct._FPDF_FORMFILLINFO* }
%struct._FPDF_FORMFILLINFO = type { i32, void (%struct._FPDF_FORMFILLINFO*)*, void (%struct._FPDF_FORMFILLINFO*, %struct.fpdf_page_t__*, double, double, double, double)*, void (%struct._FPDF_FORMFILLINFO*, %struct.fpdf_page_t__*, double, double, double, double)*, void (%struct._FPDF_FORMFILLINFO*, i32)*, i32 (%struct._FPDF_FORMFILLINFO*, i32, void (i32)*)*, void (%struct._FPDF_FORMFILLINFO*, i32)*, { i64, i64 } (%struct._FPDF_FORMFILLINFO*)*, void (%struct._FPDF_FORMFILLINFO*)*, %struct.fpdf_page_t__* (%struct._FPDF_FORMFILLINFO*, %struct.fpdf_document_t__*, i32)*, %struct.fpdf_page_t__* (%struct._FPDF_FORMFILLINFO*, %struct.fpdf_document_t__*)*, i32 (%struct._FPDF_FORMFILLINFO*, %struct.fpdf_page_t__*)*, void (%struct._FPDF_FORMFILLINFO*, i8*)*, void (%struct._FPDF_FORMFILLINFO*, i16*, i64, i32)*, void (%struct._FPDF_FORMFILLINFO*, i8*)*, void (%struct._FPDF_FORMFILLINFO*, i32, i32, float*, i32)*, %struct._IPDF_JsPlatform*, i32, void (%struct._FPDF_FORMFILLINFO*, %struct.fpdf_page_t__*, i32, double, double, double, double)*, i32 (%struct._FPDF_FORMFILLINFO*, %struct.fpdf_document_t__*)*, void (%struct._FPDF_FORMFILLINFO*, %struct.fpdf_document_t__*, i32)*, void (%struct._FPDF_FORMFILLINFO*, %struct.fpdf_document_t__*, i16*)*, void (%struct._FPDF_FORMFILLINFO*, %struct.fpdf_page_t__*, double*, double*, double*, double*)*, void (%struct._FPDF_FORMFILLINFO*, i32, i64)*, i32 (%struct._FPDF_FORMFILLINFO*, %struct.fpdf_page_t__*, %struct.fpdf_widget_t__*, i32, float, float)*, %struct.FPDF_FILEHANDLER_* (%struct._FPDF_FORMFILLINFO*, i32, i16*, i8*)*, void (%struct._FPDF_FORMFILLINFO*, %struct.FPDF_FILEHANDLER_*, i16*, i16*, i16*, i16*, i16*)*, void (%struct._FPDF_FORMFILLINFO*, %struct.FPDF_FILEHANDLER_*, i32, i16*)*, i32 (%struct._FPDF_FORMFILLINFO*, i8*, i32)*, i32 (%struct._FPDF_FORMFILLINFO*, i8*, i32)*, %struct.FPDF_FILEHANDLER_* (%struct._FPDF_FORMFILLINFO*, i16*)*, i32 (%struct._FPDF_FORMFILLINFO*, i16*, i16*, i16*, i16*, i16*, %struct.FPDF_BSTR_*)*, i32 (%struct._FPDF_FORMFILLINFO*, i16*, i16*, i16*)*, void (%struct._FPDF_FORMFILLINFO*, %struct.fpdf_annotation_t__*, i32)*, void (%struct._FPDF_FORMFILLINFO*, i8*, i32)* }
%struct.fpdf_page_t__ = type opaque
%struct.fpdf_document_t__ = type opaque
%struct._IPDF_JsPlatform = type { i32, i32 (%struct._IPDF_JsPlatform*, i16*, i16*, i32, i32)*, void (%struct._IPDF_JsPlatform*, i32)*, i32 (%struct._IPDF_JsPlatform*, i16*, i16*, i16*, i16*, i32, i8*, i32)*, i32 (%struct._IPDF_JsPlatform*, i8*, i32)*, void (%struct._IPDF_JsPlatform*, i8*, i32, i32, i16*, i16*, i16*, i16*, i16*)*, void (%struct._IPDF_JsPlatform*, i32, i32, i32, i32, i32, i32, i32, i32)*, void (%struct._IPDF_JsPlatform*, i8*, i32, i16*)*, void (%struct._IPDF_JsPlatform*, i32)*, i32 (%struct._IPDF_JsPlatform*, i8*, i32)*, i8*, i8*, i32 }
%struct.fpdf_widget_t__ = type opaque
%struct.FPDF_FILEHANDLER_ = type { i8*, void (i8*)*, i64 (i8*)*, i32 (i8*, i64, i8*, i64)*, i32 (i8*, i64, i8*, i64)*, i32 (i8*)*, i32 (i8*, i64)* }
%struct.FPDF_BSTR_ = type { i8*, i32 }
%struct.fpdf_annotation_t__ = type opaque
%"class.std::__1::unique_ptr.41" = type { %"class.std::__1::__compressed_pair.42" }
%"class.std::__1::__compressed_pair.42" = type { %"struct.std::__1::__compressed_pair_elem.43" }
%"struct.std::__1::__compressed_pair_elem.43" = type { %class.CPDFSDK_ActionHandler* }
%class.CPDFSDK_ActionHandler = type opaque
%"class.std::__1::unique_ptr.45" = type { %"class.std::__1::__compressed_pair.46" }
%"class.std::__1::__compressed_pair.46" = type { %"struct.std::__1::__compressed_pair_elem.47" }
%"struct.std::__1::__compressed_pair_elem.47" = type { %class.IJS_Runtime* }
%class.IJS_Runtime = type { i32 (...)** }
%"class.std::__1::map.51" = type { %"class.std::__1::__tree.52" }
%"class.std::__1::__tree.52" = type { %"class.std::__1::__tree_end_node"*, %"class.std::__1::__compressed_pair.53", %"class.std::__1::__compressed_pair.57" }
%"class.std::__1::__compressed_pair.53" = type { %"struct.std::__1::__compressed_pair_elem.6" }
%"class.std::__1::__compressed_pair.57" = type { %"struct.std::__1::__compressed_pair_elem.11" }
%"class.std::__1::unique_ptr.62" = type { %"class.std::__1::__compressed_pair.63" }
%"class.std::__1::__compressed_pair.63" = type { %"struct.std::__1::__compressed_pair_elem.64" }
%"struct.std::__1::__compressed_pair_elem.64" = type { %class.CPDFSDK_InteractiveForm* }
%class.CPDFSDK_InteractiveForm = type { %"class.CPDF_InteractiveForm::NotifierIface", %"class.fxcrt::UnownedPtr.65", %"class.std::__1::unique_ptr.66", %"class.std::__1::map.248", i8, i8, i8, i8, i8, [16 x i32], [16 x i8] }
%"class.CPDF_InteractiveForm::NotifierIface" = type { i32 (...)** }
%"class.fxcrt::UnownedPtr.65" = type { %class.CPDFSDK_FormFillEnvironment* }
%"class.std::__1::unique_ptr.66" = type { %"class.std::__1::__compressed_pair.67" }
%"class.std::__1::__compressed_pair.67" = type { %"struct.std::__1::__compressed_pair_elem.68" }
%"struct.std::__1::__compressed_pair_elem.68" = type { %class.CPDF_InteractiveForm* }
%class.CPDF_InteractiveForm = type { %"class.fxcrt::ByteString", %"class.fxcrt::UnownedPtr.73", %"class.fxcrt::RetainPtr.110", %"class.std::__1::unique_ptr.216", %"class.std::__1::map.222", %"class.std::__1::map.233", %"class.fxcrt::UnownedPtr.244" }
%"class.fxcrt::ByteString" = type { %"class.fxcrt::RetainPtr" }
%"class.fxcrt::RetainPtr" = type { %"class.std::__1::unique_ptr.69" }
%"class.std::__1::unique_ptr.69" = type { %"class.std::__1::__compressed_pair.70" }
%"class.std::__1::__compressed_pair.70" = type { %"struct.std::__1::__compressed_pair_elem.71" }
%"struct.std::__1::__compressed_pair_elem.71" = type { %"class.fxcrt::StringDataTemplate"* }
%"class.fxcrt::StringDataTemplate" = type <{ i64, i64, i64, [1 x i8], [7 x i8] }>
%"class.fxcrt::RetainPtr.110" = type { %"class.std::__1::unique_ptr.111" }
%"class.std::__1::unique_ptr.111" = type { %"class.std::__1::__compressed_pair.112" }
%"class.std::__1::__compressed_pair.112" = type { %"struct.std::__1::__compressed_pair_elem.113" }
%"struct.std::__1::__compressed_pair_elem.113" = type { %class.CPDF_Dictionary* }
%class.CPDF_Dictionary = type { %class.CPDF_Object, i32, %"class.fxcrt::WeakPtr", %"class.std::__1::map.114" }
%class.CPDF_Object = type { %"class.fxcrt::Retainable", i32, i32 }
%"class.fxcrt::Retainable" = type { i32 (...)**, i64 }
%"class.fxcrt::WeakPtr" = type { %"class.fxcrt::RetainPtr.85" }
%"class.fxcrt::RetainPtr.85" = type { %"class.std::__1::unique_ptr.86" }
%"class.std::__1::unique_ptr.86" = type { %"class.std::__1::__compressed_pair.87" }
%"class.std::__1::__compressed_pair.87" = type { %"struct.std::__1::__compressed_pair_elem.88" }
%"struct.std::__1::__compressed_pair_elem.88" = type { %"class.fxcrt::WeakPtr<fxcrt::StringPoolTemplate<fxcrt::ByteString>, std::__1::default_delete<fxcrt::StringPoolTemplate<fxcrt::ByteString> > >::Handle"* }
%"class.fxcrt::WeakPtr<fxcrt::StringPoolTemplate<fxcrt::ByteString>, std::__1::default_delete<fxcrt::StringPoolTemplate<fxcrt::ByteString> > >::Handle" = type { i64, %"class.std::__1::unique_ptr.658" }
%"class.std::__1::unique_ptr.658" = type { %"class.std::__1::__compressed_pair.659" }
%"class.std::__1::__compressed_pair.659" = type { %"struct.std::__1::__compressed_pair_elem.660" }
%"struct.std::__1::__compressed_pair_elem.660" = type { %"class.fxcrt::StringPoolTemplate"* }
%"class.fxcrt::StringPoolTemplate" = type { %"class.std::__1::unordered_set" }
%"class.std::__1::unordered_set" = type { %"class.std::__1::__hash_table" }
%"class.std::__1::__hash_table" = type <{ %"class.std::__1::unique_ptr.661", %"class.std::__1::__compressed_pair.669", %"class.std::__1::__compressed_pair.674", %"class.std::__1::__compressed_pair.676", [4 x i8] }>
%"class.std::__1::unique_ptr.661" = type { %"class.std::__1::__compressed_pair.662" }
%"class.std::__1::__compressed_pair.662" = type { %"struct.std::__1::__compressed_pair_elem.663", %"struct.std::__1::__compressed_pair_elem.664" }
%"struct.std::__1::__compressed_pair_elem.663" = type { %"struct.std::__1::__hash_node_base"** }
%"struct.std::__1::__hash_node_base" = type { %"struct.std::__1::__hash_node_base"* }
%"struct.std::__1::__compressed_pair_elem.664" = type { %"class.std::__1::__bucket_list_deallocator" }
%"class.std::__1::__bucket_list_deallocator" = type { %"class.std::__1::__compressed_pair.665" }
%"class.std::__1::__compressed_pair.665" = type { %"struct.std::__1::__compressed_pair_elem.11" }
%"class.std::__1::__compressed_pair.669" = type { %"struct.std::__1::__compressed_pair_elem.670" }
%"struct.std::__1::__compressed_pair_elem.670" = type { %"struct.std::__1::__hash_node_base" }
%"class.std::__1::__compressed_pair.674" = type { %"struct.std::__1::__compressed_pair_elem.11" }
%"class.std::__1::__compressed_pair.676" = type { %"struct.std::__1::__compressed_pair_elem.677" }
%"struct.std::__1::__compressed_pair_elem.677" = type { float }
%"class.std::__1::map.114" = type { %"class.std::__1::__tree.115" }
%"class.std::__1::__tree.115" = type { %"class.std::__1::__tree_end_node"*, %"class.std::__1::__compressed_pair.116", %"class.std::__1::__compressed_pair.120" }
%"class.std::__1::__compressed_pair.116" = type { %"struct.std::__1::__compressed_pair_elem.6" }
%"class.std::__1::__compressed_pair.120" = type { %"struct.std::__1::__compressed_pair_elem.11" }
%"class.std::__1::unique_ptr.216" = type { %"class.std::__1::__compressed_pair.217" }
%"class.std::__1::__compressed_pair.217" = type { %"struct.std::__1::__compressed_pair_elem.218" }
%"struct.std::__1::__compressed_pair_elem.218" = type { %class.CFieldTree* }
%class.CFieldTree = type opaque
%"class.std::__1::map.222" = type { %"class.std::__1::__tree.223" }
%"class.std::__1::__tree.223" = type { %"class.std::__1::__tree_end_node"*, %"class.std::__1::__compressed_pair.224", %"class.std::__1::__compressed_pair.228" }
%"class.std::__1::__compressed_pair.224" = type { %"struct.std::__1::__compressed_pair_elem.6" }
%"class.std::__1::__compressed_pair.228" = type { %"struct.std::__1::__compressed_pair_elem.11" }
%"class.std::__1::map.233" = type { %"class.std::__1::__tree.234" }
%"class.std::__1::__tree.234" = type { %"class.std::__1::__tree_end_node"*, %"class.std::__1::__compressed_pair.235", %"class.std::__1::__compressed_pair.239" }
%"class.std::__1::__compressed_pair.235" = type { %"struct.std::__1::__compressed_pair_elem.6" }
%"class.std::__1::__compressed_pair.239" = type { %"struct.std::__1::__compressed_pair_elem.11" }
%"class.fxcrt::UnownedPtr.244" = type { %"class.CPDF_InteractiveForm::NotifierIface"* }
%"class.std::__1::map.248" = type { %"class.std::__1::__tree.249" }
%"class.std::__1::__tree.249" = type { %"class.std::__1::__tree_end_node"*, %"class.std::__1::__compressed_pair.250", %"class.std::__1::__compressed_pair.254" }
%"class.std::__1::__compressed_pair.250" = type { %"struct.std::__1::__compressed_pair_elem.6" }
%"class.std::__1::__compressed_pair.254" = type { %"struct.std::__1::__compressed_pair_elem.11" }
%"class.fxcrt::ObservedPtr.262" = type { %"class.fxcrt::Observable::ObserverIface", %class.CPDFSDK_Annot* }
%class.CPDFSDK_Annot = type { i32 (...)**, %"class.fxcrt::Observable", %"class.fxcrt::UnownedPtr.263" }
%"class.fxcrt::UnownedPtr.263" = type { %class.CPDFSDK_PageView* }
%class.CPDFSDK_PageView = type <{ %"class.CPDF_Page::View", %class.CFX_Matrix, %"class.fxcrt::UnownedPtr.330", %"class.std::__1::unique_ptr.331", %"class.std::__1::vector.337", %"class.fxcrt::UnownedPtr.65", %"class.fxcrt::ObservedPtr.262", %"class.fxcrt::RetainPtr.344", i8, i8, i8, i8, [4 x i8] }>
%"class.CPDF_Page::View" = type { %"class.fxcrt::Observable" }
%class.CFX_Matrix = type { float, float, float, float, float, float }
%"class.fxcrt::UnownedPtr.330" = type { %class.IPDF_Page* }
%class.IPDF_Page = type { %"class.fxcrt::Retainable" }
%"class.std::__1::unique_ptr.331" = type { %"class.std::__1::__compressed_pair.332" }
%"class.std::__1::__compressed_pair.332" = type { %"struct.std::__1::__compressed_pair_elem.333" }
%"struct.std::__1::__compressed_pair_elem.333" = type { %class.CPDF_AnnotList* }
%class.CPDF_AnnotList = type opaque
%"class.std::__1::vector.337" = type { %"class.std::__1::__vector_base.338" }
%"class.std::__1::__vector_base.338" = type { %class.CPDFSDK_Annot**, %class.CPDFSDK_Annot**, %"class.std::__1::__compressed_pair.339" }
%"class.std::__1::__compressed_pair.339" = type { %"struct.std::__1::__compressed_pair_elem.340" }
%"struct.std::__1::__compressed_pair_elem.340" = type { %class.CPDFSDK_Annot** }
%"class.fxcrt::RetainPtr.344" = type { %"class.std::__1::unique_ptr.345" }
%"class.std::__1::unique_ptr.345" = type { %"class.std::__1::__compressed_pair.346" }
%"class.std::__1::__compressed_pair.346" = type { %"struct.std::__1::__compressed_pair_elem.347" }
%"struct.std::__1::__compressed_pair_elem.347" = type { %class.CPDF_Page* }
%class.CPDF_Page = type { %class.IPDF_Page, %class.CPDF_PageObjectHolder, %class.CFX_STemplate, %class.CFX_Matrix, %"class.fxcrt::UnownedPtr.73", %"class.std::__1::unique_ptr.403", %"class.std::__1::unique_ptr.409", %"class.fxcrt::ObservedPtr.415" }
%class.CPDF_PageObjectHolder = type { i32 (...)**, %"class.fxcrt::RetainPtr.110", %"class.fxcrt::RetainPtr.110", %"class.std::__1::map.348", %"class.std::__1::map.359", %class.CFX_FloatRect, %class.CPDF_Transparency, i8, i8, %"class.fxcrt::RetainPtr.110", %"class.fxcrt::UnownedPtr.73", %"class.std::__1::vector.370", %"class.std::__1::unique_ptr.377", %"class.std::__1::deque", %class.CFX_Matrix, %"class.std::__1::set.393" }
%"class.std::__1::map.348" = type { %"class.std::__1::__tree.349" }
%"class.std::__1::__tree.349" = type { %"class.std::__1::__tree_end_node"*, %"class.std::__1::__compressed_pair.350", %"class.std::__1::__compressed_pair.354" }
%"class.std::__1::__compressed_pair.350" = type { %"struct.std::__1::__compressed_pair_elem.6" }
%"class.std::__1::__compressed_pair.354" = type { %"struct.std::__1::__compressed_pair_elem.11" }
%"class.std::__1::map.359" = type { %"class.std::__1::__tree.360" }
%"class.std::__1::__tree.360" = type { %"class.std::__1::__tree_end_node"*, %"class.std::__1::__compressed_pair.361", %"class.std::__1::__compressed_pair.365" }
%"class.std::__1::__compressed_pair.361" = type { %"struct.std::__1::__compressed_pair_elem.6" }
%"class.std::__1::__compressed_pair.365" = type { %"struct.std::__1::__compressed_pair_elem.11" }
%class.CFX_FloatRect = type { float, float, float, float }
%class.CPDF_Transparency = type { i8, i8 }
%"class.std::__1::vector.370" = type { %"class.std::__1::__vector_base.371" }
%"class.std::__1::__vector_base.371" = type { %class.CFX_FloatRect*, %class.CFX_FloatRect*, %"class.std::__1::__compressed_pair.372" }
%"class.std::__1::__compressed_pair.372" = type { %"struct.std::__1::__compressed_pair_elem.373" }
%"struct.std::__1::__compressed_pair_elem.373" = type { %class.CFX_FloatRect* }
%"class.std::__1::unique_ptr.377" = type { %"class.std::__1::__compressed_pair.378" }
%"class.std::__1::__compressed_pair.378" = type { %"struct.std::__1::__compressed_pair_elem.379" }
%"struct.std::__1::__compressed_pair_elem.379" = type { %class.CPDF_ContentParser* }
%class.CPDF_ContentParser = type opaque
%"class.std::__1::deque" = type { %"class.std::__1::__deque_base" }
%"class.std::__1::__deque_base" = type { %"struct.std::__1::__split_buffer", i64, %"class.std::__1::__compressed_pair.389" }
%"struct.std::__1::__split_buffer" = type { %"class.std::__1::unique_ptr.383"**, %"class.std::__1::unique_ptr.383"**, %"class.std::__1::unique_ptr.383"**, %"class.std::__1::__compressed_pair.384" }
%"class.std::__1::unique_ptr.383" = type { %"class.std::__1::__compressed_pair.513" }
%"class.std::__1::__compressed_pair.513" = type { %"struct.std::__1::__compressed_pair_elem.514" }
%"struct.std::__1::__compressed_pair_elem.514" = type { %class.CPDF_PageObject* }
%class.CPDF_PageObject = type { %class.CPDF_GraphicStates, %class.CFX_FloatRect, %class.CPDF_ContentMarks, i8, i32 }
%class.CPDF_GraphicStates = type { i32 (...)**, %class.CPDF_ClipPath, %class.CFX_GraphState, %class.CPDF_ColorState, %class.CPDF_TextState, %class.CPDF_GeneralState }
%class.CPDF_ClipPath = type { %"class.fxcrt::SharedCopyOnWrite" }
%"class.fxcrt::SharedCopyOnWrite" = type { %"class.fxcrt::RetainPtr.515" }
%"class.fxcrt::RetainPtr.515" = type { %"class.std::__1::unique_ptr.516" }
%"class.std::__1::unique_ptr.516" = type { %"class.std::__1::__compressed_pair.517" }
%"class.std::__1::__compressed_pair.517" = type { %"struct.std::__1::__compressed_pair_elem.518" }
%"struct.std::__1::__compressed_pair_elem.518" = type { %"class.CPDF_ClipPath::PathData"* }
%"class.CPDF_ClipPath::PathData" = type { %"class.fxcrt::Retainable", %"class.std::__1::vector.519", %"class.std::__1::vector.527" }
%"class.std::__1::vector.519" = type { %"class.std::__1::__vector_base.520" }
%"class.std::__1::__vector_base.520" = type { %"struct.std::__1::pair.521"*, %"struct.std::__1::pair.521"*, %"class.std::__1::__compressed_pair.522" }
%"struct.std::__1::pair.521" = type opaque
%"class.std::__1::__compressed_pair.522" = type { %"struct.std::__1::__compressed_pair_elem.523" }
%"struct.std::__1::__compressed_pair_elem.523" = type { %"struct.std::__1::pair.521"* }
%"class.std::__1::vector.527" = type { %"class.std::__1::__vector_base.528" }
%"class.std::__1::__vector_base.528" = type { %"class.std::__1::unique_ptr.529"*, %"class.std::__1::unique_ptr.529"*, %"class.std::__1::__compressed_pair.530" }
%"class.std::__1::unique_ptr.529" = type opaque
%"class.std::__1::__compressed_pair.530" = type { %"struct.std::__1::__compressed_pair_elem.531" }
%"struct.std::__1::__compressed_pair_elem.531" = type { %"class.std::__1::unique_ptr.529"* }
%class.CFX_GraphState = type { %"class.fxcrt::SharedCopyOnWrite.537" }
%"class.fxcrt::SharedCopyOnWrite.537" = type { %"class.fxcrt::RetainPtr.538" }
%"class.fxcrt::RetainPtr.538" = type { %"class.std::__1::unique_ptr.539" }
%"class.std::__1::unique_ptr.539" = type { %"class.std::__1::__compressed_pair.540" }
%"class.std::__1::__compressed_pair.540" = type { %"struct.std::__1::__compressed_pair_elem.541" }
%"struct.std::__1::__compressed_pair_elem.541" = type { %class.CFX_RetainableGraphStateData* }
%class.CFX_RetainableGraphStateData = type { %"class.fxcrt::Retainable", %class.CFX_GraphStateData }
%class.CFX_GraphStateData = type { i8, i8, float, float, float, %"class.std::__1::vector.542" }
%"class.std::__1::vector.542" = type { %"class.std::__1::__vector_base.543" }
%"class.std::__1::__vector_base.543" = type { float*, float*, %"class.std::__1::__compressed_pair.544" }
%"class.std::__1::__compressed_pair.544" = type { %"struct.std::__1::__compressed_pair_elem.545" }
%"struct.std::__1::__compressed_pair_elem.545" = type { float* }
%class.CPDF_ColorState = type { %"class.fxcrt::SharedCopyOnWrite.551" }
%"class.fxcrt::SharedCopyOnWrite.551" = type { %"class.fxcrt::RetainPtr.552" }
%"class.fxcrt::RetainPtr.552" = type { %"class.std::__1::unique_ptr.553" }
%"class.std::__1::unique_ptr.553" = type { %"class.std::__1::__compressed_pair.554" }
%"class.std::__1::__compressed_pair.554" = type { %"struct.std::__1::__compressed_pair_elem.555" }
%"struct.std::__1::__compressed_pair_elem.555" = type { %"class.CPDF_ColorState::ColorData"* }
%"class.CPDF_ColorState::ColorData" = type { %"class.fxcrt::Retainable", i32, i32, %class.CPDF_Color, %class.CPDF_Color }
%class.CPDF_Color = type { %"class.std::__1::vector.542", %"class.std::__1::unique_ptr.556", %"class.fxcrt::RetainPtr.562" }
%"class.std::__1::unique_ptr.556" = type { %"class.std::__1::__compressed_pair.557" }
%"class.std::__1::__compressed_pair.557" = type { %"struct.std::__1::__compressed_pair_elem.558" }
%"struct.std::__1::__compressed_pair_elem.558" = type { %class.PatternValue* }
%class.PatternValue = type opaque
%"class.fxcrt::RetainPtr.562" = type { %"class.std::__1::unique_ptr.563" }
%"class.std::__1::unique_ptr.563" = type { %"class.std::__1::__compressed_pair.564" }
%"class.std::__1::__compressed_pair.564" = type { %"struct.std::__1::__compressed_pair_elem.565" }
%"struct.std::__1::__compressed_pair_elem.565" = type { %class.CPDF_ColorSpace* }
%class.CPDF_ColorSpace = type opaque
%class.CPDF_TextState = type { %"class.fxcrt::SharedCopyOnWrite.570" }
%"class.fxcrt::SharedCopyOnWrite.570" = type { %"class.fxcrt::RetainPtr.571" }
%"class.fxcrt::RetainPtr.571" = type { %"class.std::__1::unique_ptr.572" }
%"class.std::__1::unique_ptr.572" = type { %"class.std::__1::__compressed_pair.573" }
%"class.std::__1::__compressed_pair.573" = type { %"struct.std::__1::__compressed_pair_elem.574" }
%"struct.std::__1::__compressed_pair_elem.574" = type { %"class.CPDF_TextState::TextData"* }
%"class.CPDF_TextState::TextData" = type { %"class.fxcrt::Retainable", %"class.fxcrt::RetainPtr.429", %"class.fxcrt::UnownedPtr.575", float, float, float, i32, [4 x float], [4 x float] }
%"class.fxcrt::RetainPtr.429" = type { %"class.std::__1::unique_ptr.430" }
%"class.std::__1::unique_ptr.430" = type { %"class.std::__1::__compressed_pair.431" }
%"class.std::__1::__compressed_pair.431" = type { %"struct.std::__1::__compressed_pair_elem.432" }
%"struct.std::__1::__compressed_pair_elem.432" = type { %class.CPDF_Font* }
%class.CPDF_Font = type opaque
%"class.fxcrt::UnownedPtr.575" = type { %class.CPDF_Document* }
%class.CPDF_Document = type { %"class.CPDF_Parser::ParsedObjectsHolder", %"class.fxcrt::Observable", %"class.std::__1::unique_ptr.91", %"class.fxcrt::RetainPtr.110", %"class.fxcrt::RetainPtr.110", %"class.std::__1::vector.171", i8, i8, i32, i32, %"class.std::__1::unique_ptr.178", %"class.std::__1::unique_ptr.184", %"class.std::__1::unique_ptr.190", %"class.std::__1::unique_ptr.196", %"class.std::__1::vector.202", %"class.CPDF_Document::StockFontClearer", %"class.std::__1::unique_ptr.210" }
%"class.CPDF_Parser::ParsedObjectsHolder" = type { %class.CPDF_IndirectObjectHolder }
%class.CPDF_IndirectObjectHolder = type { i32 (...)**, i32, %"class.std::__1::map.74", %"class.fxcrt::WeakPtr" }
%"class.std::__1::map.74" = type { %"class.std::__1::__tree.75" }
%"class.std::__1::__tree.75" = type { %"class.std::__1::__tree_end_node"*, %"class.std::__1::__compressed_pair.76", %"class.std::__1::__compressed_pair.80" }
%"class.std::__1::__compressed_pair.76" = type { %"struct.std::__1::__compressed_pair_elem.6" }
%"class.std::__1::__compressed_pair.80" = type { %"struct.std::__1::__compressed_pair_elem.11" }
%"class.std::__1::unique_ptr.91" = type { %"class.std::__1::__compressed_pair.92" }
%"class.std::__1::__compressed_pair.92" = type { %"struct.std::__1::__compressed_pair_elem.93" }
%"struct.std::__1::__compressed_pair_elem.93" = type { %class.CPDF_Parser* }
%class.CPDF_Parser = type <{ %"class.std::__1::unique_ptr.94", %"class.std::__1::unique_ptr.100", %"class.fxcrt::UnownedPtr.106", i8, i8, i8, i8, i32, %"class.std::__1::unique_ptr.107", i64, %"class.fxcrt::RetainPtr.139", %"class.fxcrt::ByteString", %"class.std::__1::unique_ptr.145", %"class.std::__1::map.151", %"class.std::__1::set.160", i32, [4 x i8] }>
%"class.std::__1::unique_ptr.94" = type { %"class.std::__1::__compressed_pair.95" }
%"class.std::__1::__compressed_pair.95" = type { %"struct.std::__1::__compressed_pair_elem.96" }
%"struct.std::__1::__compressed_pair_elem.96" = type { %class.CPDF_SyntaxParser* }
%class.CPDF_SyntaxParser = type opaque
%"class.std::__1::unique_ptr.100" = type { %"class.std::__1::__compressed_pair.101" }
%"class.std::__1::__compressed_pair.101" = type { %"struct.std::__1::__compressed_pair_elem.102" }
%"struct.std::__1::__compressed_pair_elem.102" = type { %"class.CPDF_Parser::ParsedObjectsHolder"* }
%"class.fxcrt::UnownedPtr.106" = type { %"class.CPDF_Parser::ParsedObjectsHolder"* }
%"class.std::__1::unique_ptr.107" = type { %"class.std::__1::__compressed_pair.108" }
%"class.std::__1::__compressed_pair.108" = type { %"struct.std::__1::__compressed_pair_elem.109" }
%"struct.std::__1::__compressed_pair_elem.109" = type { %class.CPDF_CrossRefTable* }
%class.CPDF_CrossRefTable = type { %"class.fxcrt::RetainPtr.110", %"class.std::__1::map.127" }
%"class.std::__1::map.127" = type { %"class.std::__1::__tree.128" }
%"class.std::__1::__tree.128" = type { %"class.std::__1::__tree_end_node"*, %"class.std::__1::__compressed_pair.129", %"class.std::__1::__compressed_pair.133" }
%"class.std::__1::__compressed_pair.129" = type { %"struct.std::__1::__compressed_pair_elem.6" }
%"class.std::__1::__compressed_pair.133" = type { %"struct.std::__1::__compressed_pair_elem.11" }
%"class.fxcrt::RetainPtr.139" = type { %"class.std::__1::unique_ptr.140" }
%"class.std::__1::unique_ptr.140" = type { %"class.std::__1::__compressed_pair.141" }
%"class.std::__1::__compressed_pair.141" = type { %"struct.std::__1::__compressed_pair_elem.142" }
%"struct.std::__1::__compressed_pair_elem.142" = type { %class.CPDF_SecurityHandler* }
%class.CPDF_SecurityHandler = type opaque
%"class.std::__1::unique_ptr.145" = type { %"class.std::__1::__compressed_pair.146" }
%"class.std::__1::__compressed_pair.146" = type { %"struct.std::__1::__compressed_pair_elem.147" }
%"struct.std::__1::__compressed_pair_elem.147" = type { %class.CPDF_LinearizedHeader* }
%class.CPDF_LinearizedHeader = type opaque
%"class.std::__1::map.151" = type { %"class.std::__1::__tree.152" }
%"class.std::__1::__tree.152" = type { %"class.std::__1::__tree_end_node"*, %"class.std::__1::__compressed_pair.153", %"class.std::__1::__compressed_pair.157" }
%"class.std::__1::__compressed_pair.153" = type { %"struct.std::__1::__compressed_pair_elem.6" }
%"class.std::__1::__compressed_pair.157" = type { %"struct.std::__1::__compressed_pair_elem.11" }
%"class.std::__1::set.160" = type { %"class.std::__1::__tree.161" }
%"class.std::__1::__tree.161" = type { %"class.std::__1::__tree_end_node"*, %"class.std::__1::__compressed_pair.162", %"class.std::__1::__compressed_pair.166" }
%"class.std::__1::__compressed_pair.162" = type { %"struct.std::__1::__compressed_pair_elem.6" }
%"class.std::__1::__compressed_pair.166" = type { %"struct.std::__1::__compressed_pair_elem.11" }
%"class.std::__1::vector.171" = type { %"class.std::__1::__vector_base.172" }
%"class.std::__1::__vector_base.172" = type { %"struct.std::__1::pair"*, %"struct.std::__1::pair"*, %"class.std::__1::__compressed_pair.173" }
%"struct.std::__1::pair" = type opaque
%"class.std::__1::__compressed_pair.173" = type { %"struct.std::__1::__compressed_pair_elem.174" }
%"struct.std::__1::__compressed_pair_elem.174" = type { %"struct.std::__1::pair"* }
%"class.std::__1::unique_ptr.178" = type { %"class.std::__1::__compressed_pair.179" }
%"class.std::__1::__compressed_pair.179" = type { %"struct.std::__1::__compressed_pair_elem.180" }
%"struct.std::__1::__compressed_pair_elem.180" = type { %"class.CPDF_Document::RenderDataIface"* }
%"class.CPDF_Document::RenderDataIface" = type { i32 (...)**, %"class.fxcrt::UnownedPtr.73" }
%"class.std::__1::unique_ptr.184" = type { %"class.std::__1::__compressed_pair.185" }
%"class.std::__1::__compressed_pair.185" = type { %"struct.std::__1::__compressed_pair_elem.186" }
%"struct.std::__1::__compressed_pair_elem.186" = type { %"class.CPDF_Document::PageDataIface"* }
%"class.CPDF_Document::PageDataIface" = type { i32 (...)**, %"class.fxcrt::UnownedPtr.73" }
%"class.std::__1::unique_ptr.190" = type { %"class.std::__1::__compressed_pair.191" }
%"class.std::__1::__compressed_pair.191" = type { %"struct.std::__1::__compressed_pair_elem.192" }
%"struct.std::__1::__compressed_pair_elem.192" = type { %class.JBig2_DocumentContext* }
%class.JBig2_DocumentContext = type opaque
%"class.std::__1::unique_ptr.196" = type { %"class.std::__1::__compressed_pair.197" }
%"class.std::__1::__compressed_pair.197" = type { %"struct.std::__1::__compressed_pair_elem.198" }
%"struct.std::__1::__compressed_pair_elem.198" = type { %"class.CPDF_Document::LinkListIface"* }
%"class.CPDF_Document::LinkListIface" = type { i32 (...)** }
%"class.std::__1::vector.202" = type { %"class.std::__1::__vector_base.203" }
%"class.std::__1::__vector_base.203" = type { i32*, i32*, %"class.std::__1::__compressed_pair.204" }
%"class.std::__1::__compressed_pair.204" = type { %"struct.std::__1::__compressed_pair_elem.205" }
%"struct.std::__1::__compressed_pair_elem.205" = type { i32* }
%"class.CPDF_Document::StockFontClearer" = type { %"class.fxcrt::UnownedPtr.209" }
%"class.fxcrt::UnownedPtr.209" = type { %"class.CPDF_Document::PageDataIface"* }
%"class.std::__1::unique_ptr.210" = type { %"class.std::__1::__compressed_pair.211" }
%"class.std::__1::__compressed_pair.211" = type { %"struct.std::__1::__compressed_pair_elem.212" }
%"struct.std::__1::__compressed_pair_elem.212" = type { %"class.CPDF_Document::Extension"* }
%"class.CPDF_Document::Extension" = type { i32 (...)** }
%class.CPDF_GeneralState = type { %"class.fxcrt::SharedCopyOnWrite.578" }
%"class.fxcrt::SharedCopyOnWrite.578" = type { %"class.fxcrt::RetainPtr.579" }
%"class.fxcrt::RetainPtr.579" = type { %"class.std::__1::unique_ptr.580" }
%"class.std::__1::unique_ptr.580" = type { %"class.std::__1::__compressed_pair.581" }
%"class.std::__1::__compressed_pair.581" = type { %"struct.std::__1::__compressed_pair_elem.582" }
%"struct.std::__1::__compressed_pair_elem.582" = type { %"class.CPDF_GeneralState::StateData"* }
%"class.CPDF_GeneralState::StateData" = type { %"class.fxcrt::Retainable", %"class.fxcrt::ByteString", i32, %"class.fxcrt::RetainPtr.484", %class.CFX_Matrix, float, float, %"class.fxcrt::RetainPtr.583", %"class.fxcrt::RetainPtr.589", %class.CFX_Matrix, i32, i8, i8, i8, i8, i8, i32, %"class.fxcrt::RetainPtr.583", %"class.fxcrt::RetainPtr.583", %"class.fxcrt::RetainPtr.583", float, float }
%"class.fxcrt::RetainPtr.484" = type { %"class.std::__1::unique_ptr.485" }
%"class.std::__1::unique_ptr.485" = type { %"class.std::__1::__compressed_pair.486" }
%"class.std::__1::__compressed_pair.486" = type { %"struct.std::__1::__compressed_pair_elem.487" }
%"struct.std::__1::__compressed_pair_elem.487" = type { %class.CPDF_Object* }
%"class.fxcrt::RetainPtr.589" = type { %"class.std::__1::unique_ptr.590" }
%"class.std::__1::unique_ptr.590" = type { %"class.std::__1::__compressed_pair.591" }
%"class.std::__1::__compressed_pair.591" = type { %"struct.std::__1::__compressed_pair_elem.592" }
%"struct.std::__1::__compressed_pair_elem.592" = type { %class.CPDF_TransferFunc* }
%class.CPDF_TransferFunc = type opaque
%"class.fxcrt::RetainPtr.583" = type { %"class.std::__1::unique_ptr.584" }
%"class.std::__1::unique_ptr.584" = type { %"class.std::__1::__compressed_pair.585" }
%"class.std::__1::__compressed_pair.585" = type { %"struct.std::__1::__compressed_pair_elem.586" }
%"struct.std::__1::__compressed_pair_elem.586" = type { %class.CPDF_Object* }
%class.CPDF_ContentMarks = type { %"class.fxcrt::RetainPtr.597" }
%"class.fxcrt::RetainPtr.597" = type { %"class.std::__1::unique_ptr.598" }
%"class.std::__1::unique_ptr.598" = type { %"class.std::__1::__compressed_pair.599" }
%"class.std::__1::__compressed_pair.599" = type { %"struct.std::__1::__compressed_pair_elem.600" }
%"struct.std::__1::__compressed_pair_elem.600" = type { %"class.CPDF_ContentMarks::MarkData"* }
%"class.CPDF_ContentMarks::MarkData" = type { %"class.fxcrt::Retainable", %"class.std::__1::vector.601" }
%"class.std::__1::vector.601" = type { %"class.std::__1::__vector_base.602" }
%"class.std::__1::__vector_base.602" = type { %"class.fxcrt::RetainPtr.603"*, %"class.fxcrt::RetainPtr.603"*, %"class.std::__1::__compressed_pair.604" }
%"class.fxcrt::RetainPtr.603" = type opaque
%"class.std::__1::__compressed_pair.604" = type { %"struct.std::__1::__compressed_pair_elem.605" }
%"struct.std::__1::__compressed_pair_elem.605" = type { %"class.fxcrt::RetainPtr.603"* }
%"class.std::__1::__compressed_pair.384" = type { %"struct.std::__1::__compressed_pair_elem.385" }
%"struct.std::__1::__compressed_pair_elem.385" = type { %"class.std::__1::unique_ptr.383"** }
%"class.std::__1::__compressed_pair.389" = type { %"struct.std::__1::__compressed_pair_elem.11" }
%"class.std::__1::set.393" = type { %"class.std::__1::__tree.394" }
%"class.std::__1::__tree.394" = type { %"class.std::__1::__tree_end_node"*, %"class.std::__1::__compressed_pair.395", %"class.std::__1::__compressed_pair.399" }
%"class.std::__1::__compressed_pair.395" = type { %"struct.std::__1::__compressed_pair_elem.6" }
%"class.std::__1::__compressed_pair.399" = type { %"struct.std::__1::__compressed_pair_elem.11" }
%class.CFX_STemplate = type { float, float }
%"class.std::__1::unique_ptr.403" = type { %"class.std::__1::__compressed_pair.404" }
%"class.std::__1::__compressed_pair.404" = type { %"struct.std::__1::__compressed_pair_elem.405" }
%"struct.std::__1::__compressed_pair_elem.405" = type { %"class.CPDF_Page::RenderCacheIface"* }
%"class.CPDF_Page::RenderCacheIface" = type { i32 (...)** }
%"class.std::__1::unique_ptr.409" = type { %"class.std::__1::__compressed_pair.410" }
%"class.std::__1::__compressed_pair.410" = type { %"struct.std::__1::__compressed_pair_elem.411" }
%"struct.std::__1::__compressed_pair_elem.411" = type { %"class.CPDF_Page::RenderContextIface"* }
%"class.CPDF_Page::RenderContextIface" = type { i32 (...)** }
%"class.fxcrt::ObservedPtr.415" = type { %"class.fxcrt::Observable::ObserverIface", %"class.CPDF_Page::View"* }
%"class.fxcrt::UnownedPtr.73" = type { %class.CPDF_Document* }
%"class.std::__1::unique_ptr.264" = type { %"class.std::__1::__compressed_pair.265" }
%"class.std::__1::__compressed_pair.265" = type { %"struct.std::__1::__compressed_pair_elem.266" }
%"struct.std::__1::__compressed_pair_elem.266" = type { %class.CPDFSDK_AnnotHandlerMgr* }
%class.CPDFSDK_AnnotHandlerMgr = type { %"class.std::__1::unique_ptr.267", %"class.std::__1::unique_ptr.273", %"class.std::__1::unique_ptr.279" }
%"class.std::__1::unique_ptr.267" = type { %"class.std::__1::__compressed_pair.268" }
%"class.std::__1::__compressed_pair.268" = type { %"struct.std::__1::__compressed_pair_elem.269" }
%"struct.std::__1::__compressed_pair_elem.269" = type { %class.CPDFSDK_BAAnnotHandler* }
%class.CPDFSDK_BAAnnotHandler = type opaque
%"class.std::__1::unique_ptr.273" = type { %"class.std::__1::__compressed_pair.274" }
%"class.std::__1::__compressed_pair.274" = type { %"struct.std::__1::__compressed_pair_elem.275" }
%"struct.std::__1::__compressed_pair_elem.275" = type { %class.CPDFSDK_WidgetHandler* }
%class.CPDFSDK_WidgetHandler = type opaque
%"class.std::__1::unique_ptr.279" = type { %"class.std::__1::__compressed_pair.280" }
%"class.std::__1::__compressed_pair.280" = type { %"struct.std::__1::__compressed_pair_elem.281" }
%"struct.std::__1::__compressed_pair_elem.281" = type { %class.IPDFSDK_AnnotHandler* }
%class.IPDFSDK_AnnotHandler = type opaque
%"class.std::__1::unique_ptr.288" = type { %"class.std::__1::__compressed_pair.289" }
%"class.std::__1::__compressed_pair.289" = type { %"struct.std::__1::__compressed_pair_elem.290" }
%"struct.std::__1::__compressed_pair_elem.290" = type { %class.CFFL_InteractiveFormFiller* }
%class.CFFL_InteractiveFormFiller = type opaque
%"class.std::__1::vector.294" = type { %"class.std::__1::__vector_base.295" }
%"class.std::__1::__vector_base.295" = type { i32*, i32*, %"class.std::__1::__compressed_pair.296" }
%"class.std::__1::__compressed_pair.296" = type { %"struct.std::__1::__compressed_pair_elem.297" }
%"struct.std::__1::__compressed_pair_elem.297" = type { i32* }
%"class.std::__1::list" = type { %"class.std::__1::__list_imp" }
%"class.std::__1::__list_imp" = type { %"struct.std::__1::__list_node_base", %"class.std::__1::__compressed_pair.319" }
%"struct.std::__1::__list_node_base" = type { %"struct.std::__1::__list_node_base"*, %"struct.std::__1::__list_node_base"* }
%"class.std::__1::__compressed_pair.319" = type { %"struct.std::__1::__compressed_pair_elem.11" }
%"class.std::__1::list.323" = type { %"class.std::__1::__list_imp.324" }
%"class.std::__1::__list_imp.324" = type { %"struct.std::__1::__list_node_base.325", %"class.std::__1::__compressed_pair.326" }
%"struct.std::__1::__list_node_base.325" = type { %"struct.std::__1::__list_node_base.325"*, %"struct.std::__1::__list_node_base.325"* }
%"class.std::__1::__compressed_pair.326" = type { %"struct.std::__1::__compressed_pair_elem.11" }
%"class.v8::Object" = type { i8 }
%class.CJS_Runtime = type { %class.IJS_Runtime, %class.CFXJS_Engine, %"class.fxcrt::Observable", %"class.std::__1::vector.32", %"class.fxcrt::ObservedPtr.39", i8, i8, %"class.std::__1::set.301" }
%class.CFXJS_Engine = type { %class.CFX_V8, %"class.v8::Global", %"class.std::__1::vector", %"class.std::__1::map" }
%class.CFX_V8 = type { i32 (...)**, %"class.fxcrt::UnownedPtr" }
%"class.v8::Global" = type { %"class.v8::PersistentBase" }
%"class.v8::PersistentBase" = type { %"class.v8::Context"* }
%"class.v8::Context" = type { i8 }
%"class.std::__1::vector" = type { %"class.std::__1::__vector_base" }
%"class.std::__1::__vector_base" = type { %"class.v8::Global.2"*, %"class.v8::Global.2"*, %"class.std::__1::__compressed_pair" }
%"class.std::__1::__compressed_pair" = type { %"struct.std::__1::__compressed_pair_elem" }
%"struct.std::__1::__compressed_pair_elem" = type { %"class.v8::Global.2"* }
%"class.std::__1::map" = type { %"class.std::__1::__tree" }
%"class.std::__1::__tree" = type { %"class.std::__1::__tree_end_node"*, %"class.std::__1::__compressed_pair.5", %"class.std::__1::__compressed_pair.10" }
%"class.std::__1::__compressed_pair.5" = type { %"struct.std::__1::__compressed_pair_elem.6" }
%"class.std::__1::__compressed_pair.10" = type { %"struct.std::__1::__compressed_pair_elem.11" }
%"class.std::__1::vector.32" = type { %"class.std::__1::__vector_base.33" }
%"class.std::__1::__vector_base.33" = type { %"class.std::__1::unique_ptr"*, %"class.std::__1::unique_ptr"*, %"class.std::__1::__compressed_pair.34" }
%"class.std::__1::unique_ptr" = type opaque
%"class.std::__1::__compressed_pair.34" = type { %"struct.std::__1::__compressed_pair_elem.35" }
%"struct.std::__1::__compressed_pair_elem.35" = type { %"class.std::__1::unique_ptr"* }
%"class.std::__1::set.301" = type { %"class.std::__1::__tree.302" }
%"class.std::__1::__tree.302" = type { %"class.std::__1::__tree_end_node"*, %"class.std::__1::__compressed_pair.303", %"class.std::__1::__compressed_pair.307" }
%"class.std::__1::__compressed_pair.303" = type { %"struct.std::__1::__compressed_pair_elem.6" }
%"class.std::__1::__compressed_pair.307" = type { %"struct.std::__1::__compressed_pair_elem.11" }
%"class.std::__1::function" = type { %"class.std::__1::__function::__policy_func" }
%"class.std::__1::__function::__policy_func" = type { %"union.std::__1::__function::__policy_storage", %"struct.std::__1::__function::__policy_invoker", %"struct.std::__1::__function::__policy"* }
%"union.std::__1::__function::__policy_storage" = type { i8*, [8 x i8] }
%"struct.std::__1::__function::__policy_invoker" = type { void (%"union.std::__1::__function::__policy_storage"*, %class.CFXJS_Engine*, %"class.v8::Local.14"*)* }
%"class.v8::Local.14" = type { %"class.v8::Object"* }
%"class.std::__1::function.15" = type { %"class.std::__1::__function::__policy_func.18" }
%"class.std::__1::__function::__policy_func.18" = type { %"union.std::__1::__function::__policy_storage", %"struct.std::__1::__function::__policy_invoker.19", %"struct.std::__1::__function::__policy"* }
%"struct.std::__1::__function::__policy_invoker.19" = type { void (%"union.std::__1::__function::__policy_storage"*, %"class.v8::Local.14"*)* }
%"class.pdfium::span" = type { %"class.fxcrt::UnownedPtr.20", i64 }
%"class.fxcrt::UnownedPtr.20" = type { %struct.JSPropertySpec* }
%"class.pdfium::span.21" = type { %"class.fxcrt::UnownedPtr.22", i64 }
%"class.fxcrt::UnownedPtr.22" = type { %struct.JSMethodSpec* }
%struct.CJS_DelayData = type { i32, i32, %"class.fxcrt::WideString", i32, i8, %"class.fxcrt::ByteString", %"class.fxcrt::WideString", %class.CFX_FloatRect, %struct.CFX_Color, %"class.std::__1::vector.202", %"class.std::__1::vector.500" }
%struct.CFX_Color = type { i32, float, float, float, float }
%"class.std::__1::vector.500" = type { %"class.std::__1::__vector_base.501" }
%"class.std::__1::__vector_base.501" = type { %"class.fxcrt::WideString"*, %"class.fxcrt::WideString"*, %"class.std::__1::__compressed_pair.502" }
%"class.std::__1::__compressed_pair.502" = type { %"struct.std::__1::__compressed_pair_elem.503" }
%"struct.std::__1::__compressed_pair_elem.503" = type { %"class.fxcrt::WideString"* }
%class.CJS_Result = type { %"class.pdfium::Optional", %"class.v8::Local.0" }
%"class.pdfium::Optional" = type { %"class.pdfium::internal::OptionalBase" }
%"class.pdfium::internal::OptionalBase" = type { %"struct.pdfium::internal::OptionalStorage" }
%"struct.pdfium::internal::OptionalStorage" = type { %"struct.pdfium::internal::OptionalStorageBase" }
%"struct.pdfium::internal::OptionalStorageBase" = type { i8, %union.anon }
%union.anon = type { %"class.fxcrt::WideString" }
%"class.v8::Local.0" = type { %"class.v8::Value"* }
%"class.v8::Number" = type { i8 }
%"class.v8::Boolean" = type { i8 }
%"class.std::__1::vector.420" = type { %"class.std::__1::__vector_base.421" }
%"class.std::__1::__vector_base.421" = type { %"class.v8::Local.0"*, %"class.v8::Local.0"*, %"class.std::__1::__compressed_pair.422" }
%"class.std::__1::__compressed_pair.422" = type { %"struct.std::__1::__compressed_pair_elem.423" }
%"struct.std::__1::__compressed_pair_elem.423" = type { %"class.v8::Local.0"* }
%class.CJS_Field = type <{ %class.CJS_Object, %"class.fxcrt::ObservedPtr.427", %"class.fxcrt::ObservedPtr.39", %"class.fxcrt::WideString", i32, i8, i8, [2 x i8] }>
%"class.fxcrt::ObservedPtr.427" = type { %"class.fxcrt::Observable::ObserverIface", %class.CJS_Document* }
%"class.v8::internal::Isolate" = type opaque
%"class.fxcrt::StringViewTemplate" = type { %"class.pdfium::span.435" }
%"class.pdfium::span.435" = type { %"class.fxcrt::UnownedPtr.436", i64 }
%"class.fxcrt::UnownedPtr.436" = type { i32* }
%class.CPDF_FormField = type { i32, i8, i8, i8, i8, i8, float, %"class.fxcrt::UnownedPtr.428", %"class.fxcrt::RetainPtr.110", %"class.fxcrt::RetainPtr.429" }
%"class.fxcrt::UnownedPtr.428" = type { %class.CPDF_InteractiveForm* }
%"class.std::__1::vector.437" = type { %"class.std::__1::__vector_base.438" }
%"class.std::__1::__vector_base.438" = type { i8*, i8*, %"class.std::__1::__compressed_pair.439" }
%"class.std::__1::__compressed_pair.439" = type { %"struct.std::__1::__compressed_pair_elem.440" }
%"struct.std::__1::__compressed_pair_elem.440" = type { i8* }
%"class.std::__1::__vector_base_common" = type { i8 }
%class.CJS_EventContext = type <{ %class.IJS_EventContext, %"class.fxcrt::UnownedPtr.446", %"class.std::__1::unique_ptr.447", i8, [7 x i8] }>
%class.IJS_EventContext = type { i32 (...)** }
%"class.fxcrt::UnownedPtr.446" = type { %class.CJS_Runtime* }
%"class.std::__1::unique_ptr.447" = type { %"class.std::__1::__compressed_pair.448" }
%"class.std::__1::__compressed_pair.448" = type { %"struct.std::__1::__compressed_pair_elem.449" }
%"struct.std::__1::__compressed_pair_elem.449" = type { %class.CJS_EventRecorder* }
%class.CJS_EventRecorder = type { i32, i8, %"class.fxcrt::UnownedPtr.442", %"class.fxcrt::WideString", %"class.fxcrt::WideString", %"class.fxcrt::WideString", %"class.fxcrt::WideString", %"class.fxcrt::UnownedPtr.442", i32, i8, i8, i8, i32, i32, %"class.fxcrt::UnownedPtr.443", %"class.fxcrt::UnownedPtr.443", i8, i8, i8, %"class.fxcrt::UnownedPtr.444", %"class.fxcrt::UnownedPtr.445", %"class.fxcrt::ObservedPtr.39", %"class.fxcrt::ObservedPtr.262" }
%"class.fxcrt::UnownedPtr.442" = type { %"class.fxcrt::WideString"* }
%"class.fxcrt::UnownedPtr.443" = type { i32* }
%"class.fxcrt::UnownedPtr.444" = type { i8* }
%"class.fxcrt::UnownedPtr.445" = type { %class.CPDF_Bookmark* }
%class.CPDF_Bookmark = type opaque
%"class.std::__1::vector.453" = type { %"class.std::__1::__vector_base.454" }
%"class.std::__1::__vector_base.454" = type { %"class.fxcrt::ObservedPtr.262"*, %"class.fxcrt::ObservedPtr.262"*, %"class.std::__1::__compressed_pair.455" }
%"class.std::__1::__compressed_pair.455" = type { %"struct.std::__1::__compressed_pair_elem.456" }
%"struct.std::__1::__compressed_pair_elem.456" = type { %"class.fxcrt::ObservedPtr.262"* }
%class.CPDFSDK_BAAnnot = type { %class.CPDFSDK_Annot, %"class.fxcrt::UnownedPtr.460" }
%"class.fxcrt::UnownedPtr.460" = type { %class.CPDF_Annot* }
%class.CPDF_Annot = type <{ %"class.fxcrt::RetainPtr.110", %"class.fxcrt::UnownedPtr.73", i32, [4 x i8], %"class.std::__1::map.462", %"class.fxcrt::UnownedPtr.460", i8, i8, i8, [5 x i8] }>
%"class.std::__1::map.462" = type { %"class.std::__1::__tree.463" }
%"class.std::__1::__tree.463" = type { %"class.std::__1::__tree_end_node"*, %"class.std::__1::__compressed_pair.464", %"class.std::__1::__compressed_pair.468" }
%"class.std::__1::__compressed_pair.464" = type { %"struct.std::__1::__compressed_pair_elem.6" }
%"class.std::__1::__compressed_pair.468" = type { %"struct.std::__1::__compressed_pair_elem.11" }
%"class.std::__1::vector.474" = type { %"class.std::__1::__vector_base.475" }
%"class.std::__1::__vector_base.475" = type { %class.CPDF_FormField**, %class.CPDF_FormField**, %"class.std::__1::__compressed_pair.476" }
%"class.std::__1::__compressed_pair.476" = type { %"struct.std::__1::__compressed_pair_elem.477" }
%"struct.std::__1::__compressed_pair_elem.477" = type { %class.CPDF_FormField** }
%"class.v8::Array" = type { i8 }
%"class.fxcrt::StringViewTemplate.481" = type { %"class.pdfium::span.482" }
%"class.pdfium::span.482" = type { %"class.fxcrt::UnownedPtr.483", i64 }
%"class.fxcrt::UnownedPtr.483" = type { i8* }
%class.CPDF_String = type <{ %class.CPDF_Object, %"class.fxcrt::ByteString", i8, [7 x i8] }>
%class.CPDF_DictionaryLocker = type { %"class.fxcrt::RetainPtr.490" }
%"class.fxcrt::RetainPtr.490" = type { %"class.std::__1::unique_ptr.491" }
%"class.std::__1::unique_ptr.491" = type { %"class.std::__1::__compressed_pair.492" }
%"class.std::__1::__compressed_pair.492" = type { %"struct.std::__1::__compressed_pair_elem.493" }
%"struct.std::__1::__compressed_pair_elem.493" = type { %class.CPDF_Dictionary* }
%"struct.std::__1::__list_node.687" = type { %"struct.std::__1::__list_node_base", %"class.std::__1::unique_ptr.497" }
%"class.std::__1::unique_ptr.497" = type { %"class.std::__1::__compressed_pair.498" }
%"class.std::__1::__compressed_pair.498" = type { %"struct.std::__1::__compressed_pair_elem.499" }
%"struct.std::__1::__compressed_pair_elem.499" = type { %struct.CJS_DelayData* }
%class.CPDFSDK_AnnotIteration = type { %"class.std::__1::vector.453" }
%class.CJS_Annot = type { %class.CJS_Object, %"class.fxcrt::ObservedPtr.262" }
%"struct.std::__1::__list_node" = type { %"struct.std::__1::__list_node_base.325", %"class.fxcrt::WideString" }
%class.CPDF_PageRenderCache = type <{ %"class.CPDF_Page::RenderCacheIface", %"class.fxcrt::UnownedPtr.617", %"class.std::__1::map.618", %"class.fxcrt::MaybeOwned", i32, i32, i8, [7 x i8] }>
%"class.fxcrt::UnownedPtr.617" = type { %class.CPDF_Page* }
%"class.std::__1::map.618" = type { %"class.std::__1::__tree.619" }
%"class.std::__1::__tree.619" = type { %"class.std::__1::__tree_end_node"*, %"class.std::__1::__compressed_pair.620", %"class.std::__1::__compressed_pair.624" }
%"class.std::__1::__compressed_pair.620" = type { %"struct.std::__1::__compressed_pair_elem.6" }
%"class.std::__1::__compressed_pair.624" = type { %"struct.std::__1::__compressed_pair_elem.11" }
%"class.fxcrt::MaybeOwned" = type { %"class.std::__1::unique_ptr.627", %"class.fxcrt::UnownedPtr.633" }
%"class.std::__1::unique_ptr.627" = type { %"class.std::__1::__compressed_pair.628" }
%"class.std::__1::__compressed_pair.628" = type { %"struct.std::__1::__compressed_pair_elem.629" }
%"struct.std::__1::__compressed_pair_elem.629" = type { %class.CPDF_ImageCacheEntry* }
%class.CPDF_ImageCacheEntry = type opaque
%"class.fxcrt::UnownedPtr.633" = type { %class.CPDF_ImageCacheEntry* }
%class.CPDF_TextObject = type { %class.CPDF_PageObject, %class.CFX_PTemplate, %"class.std::__1::vector.202", %"class.std::__1::vector.542" }
%class.CFX_PTemplate = type { float, float }
%class.CPDF_Dest = type { %"class.fxcrt::RetainPtr.644" }
%"class.fxcrt::RetainPtr.644" = type { %"class.std::__1::unique_ptr.645" }
%"class.std::__1::unique_ptr.645" = type { %"class.std::__1::__compressed_pair.646" }
%"class.std::__1::__compressed_pair.646" = type { %"struct.std::__1::__compressed_pair_elem.647" }
%"struct.std::__1::__compressed_pair_elem.647" = type { %class.CPDF_Array* }
%class.CPDF_Array = type <{ %class.CPDF_Object, %"class.std::__1::vector.637", %"class.fxcrt::WeakPtr", i32, [4 x i8] }>
%"class.std::__1::vector.637" = type { %"class.std::__1::__vector_base.638" }
%"class.std::__1::__vector_base.638" = type { %"class.fxcrt::RetainPtr.484"*, %"class.fxcrt::RetainPtr.484"*, %"class.std::__1::__compressed_pair.639" }
%"class.std::__1::__compressed_pair.639" = type { %"struct.std::__1::__compressed_pair_elem.640" }
%"struct.std::__1::__compressed_pair_elem.640" = type { %"class.fxcrt::RetainPtr.484"* }
%"class.std::__1::vector.650" = type { %"class.std::__1::__vector_base.651" }
%"class.std::__1::__vector_base.651" = type { %"class.std::__1::unique_ptr.497"*, %"class.std::__1::unique_ptr.497"*, %"class.std::__1::__compressed_pair.652" }
%"class.std::__1::__compressed_pair.652" = type { %"struct.std::__1::__compressed_pair_elem.653" }
%"struct.std::__1::__compressed_pair_elem.653" = type { %"class.std::__1::unique_ptr.497"* }

$_ZN12CJS_Document15get_ADBE_staticEN2v85LocalINS0_6StringEEERKNS0_20PropertyCallbackInfoINS0_5ValueEEE = comdat any

$_ZN12CJS_Document15set_ADBE_staticEN2v85LocalINS0_6StringEEENS1_INS0_5ValueEEERKNS0_20PropertyCallbackInfoIvEE = comdat any

$_ZN12CJS_Document17get_author_staticEN2v85LocalINS0_6StringEEERKNS0_20PropertyCallbackInfoINS0_5ValueEEE = comdat any

$_ZN12CJS_Document17set_author_staticEN2v85LocalINS0_6StringEEENS1_INS0_5ValueEEERKNS0_20PropertyCallbackInfoIvEE = comdat any

$_ZN12CJS_Document19get_base_URL_staticEN2v85LocalINS0_6StringEEERKNS0_20PropertyCallbackInfoINS0_5ValueEEE = comdat any

$_ZN12CJS_Document19set_base_URL_staticEN2v85LocalINS0_6StringEEENS1_INS0_5ValueEEERKNS0_20PropertyCallbackInfoIvEE = comdat any

$_ZN12CJS_Document24get_bookmark_root_staticEN2v85LocalINS0_6StringEEERKNS0_20PropertyCallbackInfoINS0_5ValueEEE = comdat any

$_ZN12CJS_Document24set_bookmark_root_staticEN2v85LocalINS0_6StringEEENS1_INS0_5ValueEEERKNS0_20PropertyCallbackInfoIvEE = comdat any

$_ZN12CJS_Document20get_calculate_staticEN2v85LocalINS0_6StringEEERKNS0_20PropertyCallbackInfoINS0_5ValueEEE = comdat any

$_ZN12CJS_Document20set_calculate_staticEN2v85LocalINS0_6StringEEENS1_INS0_5ValueEEERKNS0_20PropertyCallbackInfoIvEE = comdat any

$_ZN12CJS_Document17get_collab_staticEN2v85LocalINS0_6StringEEERKNS0_20PropertyCallbackInfoINS0_5ValueEEE = comdat any

$_ZN12CJS_Document17set_collab_staticEN2v85LocalINS0_6StringEEENS1_INS0_5ValueEEERKNS0_20PropertyCallbackInfoIvEE = comdat any

$_ZN12CJS_Document24get_creation_date_staticEN2v85LocalINS0_6StringEEERKNS0_20PropertyCallbackInfoINS0_5ValueEEE = comdat any

$_ZN12CJS_Document24set_creation_date_staticEN2v85LocalINS0_6StringEEENS1_INS0_5ValueEEERKNS0_20PropertyCallbackInfoIvEE = comdat any

$_ZN12CJS_Document18get_creator_staticEN2v85LocalINS0_6StringEEERKNS0_20PropertyCallbackInfoINS0_5ValueEEE = comdat any

$_ZN12CJS_Document18set_creator_staticEN2v85LocalINS0_6StringEEENS1_INS0_5ValueEEERKNS0_20PropertyCallbackInfoIvEE = comdat any

$_ZN12CJS_Document16get_delay_staticEN2v85LocalINS0_6StringEEERKNS0_20PropertyCallbackInfoINS0_5ValueEEE = comdat any

$_ZN12CJS_Document16set_delay_staticEN2v85LocalINS0_6StringEEENS1_INS0_5ValueEEERKNS0_20PropertyCallbackInfoIvEE = comdat any

$_ZN12CJS_Document16get_dirty_staticEN2v85LocalINS0_6StringEEERKNS0_20PropertyCallbackInfoINS0_5ValueEEE = comdat any

$_ZN12CJS_Document16set_dirty_staticEN2v85LocalINS0_6StringEEENS1_INS0_5ValueEEERKNS0_20PropertyCallbackInfoIvEE = comdat any

$_ZN12CJS_Document29get_document_file_name_staticEN2v85LocalINS0_6StringEEERKNS0_20PropertyCallbackInfoINS0_5ValueEEE = comdat any

$_ZN12CJS_Document29set_document_file_name_staticEN2v85LocalINS0_6StringEEENS1_INS0_5ValueEEERKNS0_20PropertyCallbackInfoIvEE = comdat any

$_ZN12CJS_Document19get_external_staticEN2v85LocalINS0_6StringEEERKNS0_20PropertyCallbackInfoINS0_5ValueEEE = comdat any

$_ZN12CJS_Document19set_external_staticEN2v85LocalINS0_6StringEEENS1_INS0_5ValueEEERKNS0_20PropertyCallbackInfoIvEE = comdat any

$_ZN12CJS_Document19get_filesize_staticEN2v85LocalINS0_6StringEEERKNS0_20PropertyCallbackInfoINS0_5ValueEEE = comdat any

$_ZN12CJS_Document19set_filesize_staticEN2v85LocalINS0_6StringEEENS1_INS0_5ValueEEERKNS0_20PropertyCallbackInfoIvEE = comdat any

$_ZN12CJS_Document16get_icons_staticEN2v85LocalINS0_6StringEEERKNS0_20PropertyCallbackInfoINS0_5ValueEEE = comdat any

$_ZN12CJS_Document16set_icons_staticEN2v85LocalINS0_6StringEEENS1_INS0_5ValueEEERKNS0_20PropertyCallbackInfoIvEE = comdat any

$_ZN12CJS_Document15get_info_staticEN2v85LocalINS0_6StringEEERKNS0_20PropertyCallbackInfoINS0_5ValueEEE = comdat any

$_ZN12CJS_Document15set_info_staticEN2v85LocalINS0_6StringEEENS1_INS0_5ValueEEERKNS0_20PropertyCallbackInfoIvEE = comdat any

$_ZN12CJS_Document19get_keywords_staticEN2v85LocalINS0_6StringEEERKNS0_20PropertyCallbackInfoINS0_5ValueEEE = comdat any

$_ZN12CJS_Document19set_keywords_staticEN2v85LocalINS0_6StringEEENS1_INS0_5ValueEEERKNS0_20PropertyCallbackInfoIvEE = comdat any

$_ZN12CJS_Document17get_layout_staticEN2v85LocalINS0_6StringEEERKNS0_20PropertyCallbackInfoINS0_5ValueEEE = comdat any

$_ZN12CJS_Document17set_layout_staticEN2v85LocalINS0_6StringEEENS1_INS0_5ValueEEERKNS0_20PropertyCallbackInfoIvEE = comdat any

$_ZN12CJS_Document16get_media_staticEN2v85LocalINS0_6StringEEERKNS0_20PropertyCallbackInfoINS0_5ValueEEE = comdat any

$_ZN12CJS_Document16set_media_staticEN2v85LocalINS0_6StringEEENS1_INS0_5ValueEEERKNS0_20PropertyCallbackInfoIvEE = comdat any

$_ZN12CJS_Document19get_mod_date_staticEN2v85LocalINS0_6StringEEERKNS0_20PropertyCallbackInfoINS0_5ValueEEE = comdat any

$_ZN12CJS_Document19set_mod_date_staticEN2v85LocalINS0_6StringEEENS1_INS0_5ValueEEERKNS0_20PropertyCallbackInfoIvEE = comdat any

$_ZN12CJS_Document18get_mouse_x_staticEN2v85LocalINS0_6StringEEERKNS0_20PropertyCallbackInfoINS0_5ValueEEE = comdat any

$_ZN12CJS_Document18set_mouse_x_staticEN2v85LocalINS0_6StringEEENS1_INS0_5ValueEEERKNS0_20PropertyCallbackInfoIvEE = comdat any

$_ZN12CJS_Document18get_mouse_y_staticEN2v85LocalINS0_6StringEEERKNS0_20PropertyCallbackInfoINS0_5ValueEEE = comdat any

$_ZN12CJS_Document18set_mouse_y_staticEN2v85LocalINS0_6StringEEENS1_INS0_5ValueEEERKNS0_20PropertyCallbackInfoIvEE = comdat any

$_ZN12CJS_Document21get_num_fields_staticEN2v85LocalINS0_6StringEEERKNS0_20PropertyCallbackInfoINS0_5ValueEEE = comdat any

$_ZN12CJS_Document21set_num_fields_staticEN2v85LocalINS0_6StringEEENS1_INS0_5ValueEEERKNS0_20PropertyCallbackInfoIvEE = comdat any

$_ZN12CJS_Document20get_num_pages_staticEN2v85LocalINS0_6StringEEERKNS0_20PropertyCallbackInfoINS0_5ValueEEE = comdat any

$_ZN12CJS_Document20set_num_pages_staticEN2v85LocalINS0_6StringEEENS1_INS0_5ValueEEERKNS0_20PropertyCallbackInfoIvEE = comdat any

$_ZN12CJS_Document19get_page_num_staticEN2v85LocalINS0_6StringEEERKNS0_20PropertyCallbackInfoINS0_5ValueEEE = comdat any

$_ZN12CJS_Document19set_page_num_staticEN2v85LocalINS0_6StringEEENS1_INS0_5ValueEEERKNS0_20PropertyCallbackInfoIvEE = comdat any

$_ZN12CJS_Document27get_page_window_rect_staticEN2v85LocalINS0_6StringEEERKNS0_20PropertyCallbackInfoINS0_5ValueEEE = comdat any

$_ZN12CJS_Document27set_page_window_rect_staticEN2v85LocalINS0_6StringEEENS1_INS0_5ValueEEERKNS0_20PropertyCallbackInfoIvEE = comdat any

$_ZN12CJS_Document15get_path_staticEN2v85LocalINS0_6StringEEERKNS0_20PropertyCallbackInfoINS0_5ValueEEE = comdat any

$_ZN12CJS_Document15set_path_staticEN2v85LocalINS0_6StringEEENS1_INS0_5ValueEEERKNS0_20PropertyCallbackInfoIvEE = comdat any

$_ZN12CJS_Document19get_producer_staticEN2v85LocalINS0_6StringEEERKNS0_20PropertyCallbackInfoINS0_5ValueEEE = comdat any

$_ZN12CJS_Document19set_producer_staticEN2v85LocalINS0_6StringEEENS1_INS0_5ValueEEERKNS0_20PropertyCallbackInfoIvEE = comdat any

$_ZN12CJS_Document18get_subject_staticEN2v85LocalINS0_6StringEEERKNS0_20PropertyCallbackInfoINS0_5ValueEEE = comdat any

$_ZN12CJS_Document18set_subject_staticEN2v85LocalINS0_6StringEEENS1_INS0_5ValueEEERKNS0_20PropertyCallbackInfoIvEE = comdat any

$_ZN12CJS_Document16get_title_staticEN2v85LocalINS0_6StringEEERKNS0_20PropertyCallbackInfoINS0_5ValueEEE = comdat any

$_ZN12CJS_Document16set_title_staticEN2v85LocalINS0_6StringEEENS1_INS0_5ValueEEERKNS0_20PropertyCallbackInfoIvEE = comdat any

$_ZN12CJS_Document14get_URL_staticEN2v85LocalINS0_6StringEEERKNS0_20PropertyCallbackInfoINS0_5ValueEEE = comdat any

$_ZN12CJS_Document14set_URL_staticEN2v85LocalINS0_6StringEEENS1_INS0_5ValueEEERKNS0_20PropertyCallbackInfoIvEE = comdat any

$_ZN12CJS_Document15get_zoom_staticEN2v85LocalINS0_6StringEEERKNS0_20PropertyCallbackInfoINS0_5ValueEEE = comdat any

$_ZN12CJS_Document15set_zoom_staticEN2v85LocalINS0_6StringEEENS1_INS0_5ValueEEERKNS0_20PropertyCallbackInfoIvEE = comdat any

$_ZN12CJS_Document20get_zoom_type_staticEN2v85LocalINS0_6StringEEERKNS0_20PropertyCallbackInfoINS0_5ValueEEE = comdat any

$_ZN12CJS_Document20set_zoom_type_staticEN2v85LocalINS0_6StringEEENS1_INS0_5ValueEEERKNS0_20PropertyCallbackInfoIvEE = comdat any

$_ZN12CJS_Document15addAnnot_staticERKN2v820FunctionCallbackInfoINS0_5ValueEEE = comdat any

$_ZN12CJS_Document15addField_staticERKN2v820FunctionCallbackInfoINS0_5ValueEEE = comdat any

$_ZN12CJS_Document14addLink_staticERKN2v820FunctionCallbackInfoINS0_5ValueEEE = comdat any

$_ZN12CJS_Document14addIcon_staticERKN2v820FunctionCallbackInfoINS0_5ValueEEE = comdat any

$_ZN12CJS_Document19calculateNow_staticERKN2v820FunctionCallbackInfoINS0_5ValueEEE = comdat any

$_ZN12CJS_Document15closeDoc_staticERKN2v820FunctionCallbackInfoINS0_5ValueEEE = comdat any

$_ZN12CJS_Document23createDataObject_staticERKN2v820FunctionCallbackInfoINS0_5ValueEEE = comdat any

$_ZN12CJS_Document18deletePages_staticERKN2v820FunctionCallbackInfoINS0_5ValueEEE = comdat any

$_ZN12CJS_Document19exportAsText_staticERKN2v820FunctionCallbackInfoINS0_5ValueEEE = comdat any

$_ZN12CJS_Document18exportAsFDF_staticERKN2v820FunctionCallbackInfoINS0_5ValueEEE = comdat any

$_ZN12CJS_Document19exportAsXFDF_staticERKN2v820FunctionCallbackInfoINS0_5ValueEEE = comdat any

$_ZN12CJS_Document19extractPages_staticERKN2v820FunctionCallbackInfoINS0_5ValueEEE = comdat any

$_ZN12CJS_Document15getAnnot_staticERKN2v820FunctionCallbackInfoINS0_5ValueEEE = comdat any

$_ZN12CJS_Document16getAnnots_staticERKN2v820FunctionCallbackInfoINS0_5ValueEEE = comdat any

$_ZN12CJS_Document17getAnnot3D_staticERKN2v820FunctionCallbackInfoINS0_5ValueEEE = comdat any

$_ZN12CJS_Document18getAnnots3D_staticERKN2v820FunctionCallbackInfoINS0_5ValueEEE = comdat any

$_ZN12CJS_Document15getField_staticERKN2v820FunctionCallbackInfoINS0_5ValueEEE = comdat any

$_ZN12CJS_Document14getIcon_staticERKN2v820FunctionCallbackInfoINS0_5ValueEEE = comdat any

$_ZN12CJS_Document15getLinks_staticERKN2v820FunctionCallbackInfoINS0_5ValueEEE = comdat any

$_ZN12CJS_Document22getNthFieldName_staticERKN2v820FunctionCallbackInfoINS0_5ValueEEE = comdat any

$_ZN12CJS_Document14getOCGs_staticERKN2v820FunctionCallbackInfoINS0_5ValueEEE = comdat any

$_ZN12CJS_Document17getPageBox_staticERKN2v820FunctionCallbackInfoINS0_5ValueEEE = comdat any

$_ZN12CJS_Document21getPageNthWord_staticERKN2v820FunctionCallbackInfoINS0_5ValueEEE = comdat any

$_ZN12CJS_Document26getPageNthWordQuads_staticERKN2v820FunctionCallbackInfoINS0_5ValueEEE = comdat any

$_ZN12CJS_Document22getPageNumWords_staticERKN2v820FunctionCallbackInfoINS0_5ValueEEE = comdat any

$_ZN12CJS_Document21getPrintParams_staticERKN2v820FunctionCallbackInfoINS0_5ValueEEE = comdat any

$_ZN12CJS_Document13getURL_staticERKN2v820FunctionCallbackInfoINS0_5ValueEEE = comdat any

$_ZN12CJS_Document20gotoNamedDest_staticERKN2v820FunctionCallbackInfoINS0_5ValueEEE = comdat any

$_ZN12CJS_Document18importAnFDF_staticERKN2v820FunctionCallbackInfoINS0_5ValueEEE = comdat any

$_ZN12CJS_Document19importAnXFDF_staticERKN2v820FunctionCallbackInfoINS0_5ValueEEE = comdat any

$_ZN12CJS_Document21importTextData_staticERKN2v820FunctionCallbackInfoINS0_5ValueEEE = comdat any

$_ZN12CJS_Document18insertPages_staticERKN2v820FunctionCallbackInfoINS0_5ValueEEE = comdat any

$_ZN12CJS_Document14mailDoc_staticERKN2v820FunctionCallbackInfoINS0_5ValueEEE = comdat any

$_ZN12CJS_Document15mailForm_staticERKN2v820FunctionCallbackInfoINS0_5ValueEEE = comdat any

$_ZN12CJS_Document12print_staticERKN2v820FunctionCallbackInfoINS0_5ValueEEE = comdat any

$_ZN12CJS_Document18removeField_staticERKN2v820FunctionCallbackInfoINS0_5ValueEEE = comdat any

$_ZN12CJS_Document19replacePages_staticERKN2v820FunctionCallbackInfoINS0_5ValueEEE = comdat any

$_ZN12CJS_Document16resetForm_staticERKN2v820FunctionCallbackInfoINS0_5ValueEEE = comdat any

$_ZN12CJS_Document17removeIcon_staticERKN2v820FunctionCallbackInfoINS0_5ValueEEE = comdat any

$_ZN12CJS_Document13saveAs_staticERKN2v820FunctionCallbackInfoINS0_5ValueEEE = comdat any

$_ZN12CJS_Document17submitForm_staticERKN2v820FunctionCallbackInfoINS0_5ValueEEE = comdat any

$_ZN12CJS_Document20syncAnnotScan_staticERKN2v820FunctionCallbackInfoINS0_5ValueEEE = comdat any

$_ZN5fxcrt11ObservedPtrI27CPDFSDK_FormFillEnvironmentED2Ev = comdat any

$_ZN15CPDF_Dictionary9SetNewForI11CPDF_StringJN5fxcrt10WideStringEEEENSt3__19enable_ifIXsr16CanInternStringsIT_EE5valueEPS6_E4typeERKNS2_10ByteStringEDpOT0_ = comdat any

$_Z12JSPropGetterI12CJS_DocumentXadL_ZNS0_8get_ADBEEP11CJS_RuntimeEEEvPKcS4_N2v85LocalINS5_6StringEEERKNS5_20PropertyCallbackInfoINS5_5ValueEEE = comdat any

$_Z12JSPropSetterI12CJS_DocumentXadL_ZNS0_8set_ADBEEP11CJS_RuntimeN2v85LocalINS3_5ValueEEEEEEvPKcS8_NS4_INS3_6StringEEES6_RKNS3_20PropertyCallbackInfoIvEE = comdat any

$_Z12JSPropGetterI12CJS_DocumentXadL_ZNS0_10get_authorEP11CJS_RuntimeEEEvPKcS4_N2v85LocalINS5_6StringEEERKNS5_20PropertyCallbackInfoINS5_5ValueEEE = comdat any

$_Z12JSPropSetterI12CJS_DocumentXadL_ZNS0_10set_authorEP11CJS_RuntimeN2v85LocalINS3_5ValueEEEEEEvPKcS8_NS4_INS3_6StringEEES6_RKNS3_20PropertyCallbackInfoIvEE = comdat any

$_Z12JSPropGetterI12CJS_DocumentXadL_ZNS0_12get_base_URLEP11CJS_RuntimeEEEvPKcS4_N2v85LocalINS5_6StringEEERKNS5_20PropertyCallbackInfoINS5_5ValueEEE = comdat any

$_Z12JSPropSetterI12CJS_DocumentXadL_ZNS0_12set_base_URLEP11CJS_RuntimeN2v85LocalINS3_5ValueEEEEEEvPKcS8_NS4_INS3_6StringEEES6_RKNS3_20PropertyCallbackInfoIvEE = comdat any

$_Z12JSPropGetterI12CJS_DocumentXadL_ZNS0_17get_bookmark_rootEP11CJS_RuntimeEEEvPKcS4_N2v85LocalINS5_6StringEEERKNS5_20PropertyCallbackInfoINS5_5ValueEEE = comdat any

$_Z12JSPropSetterI12CJS_DocumentXadL_ZNS0_17set_bookmark_rootEP11CJS_RuntimeN2v85LocalINS3_5ValueEEEEEEvPKcS8_NS4_INS3_6StringEEES6_RKNS3_20PropertyCallbackInfoIvEE = comdat any

$_Z12JSPropGetterI12CJS_DocumentXadL_ZNS0_13get_calculateEP11CJS_RuntimeEEEvPKcS4_N2v85LocalINS5_6StringEEERKNS5_20PropertyCallbackInfoINS5_5ValueEEE = comdat any

$_Z12JSPropSetterI12CJS_DocumentXadL_ZNS0_13set_calculateEP11CJS_RuntimeN2v85LocalINS3_5ValueEEEEEEvPKcS8_NS4_INS3_6StringEEES6_RKNS3_20PropertyCallbackInfoIvEE = comdat any

$_Z12JSPropGetterI12CJS_DocumentXadL_ZNS0_10get_collabEP11CJS_RuntimeEEEvPKcS4_N2v85LocalINS5_6StringEEERKNS5_20PropertyCallbackInfoINS5_5ValueEEE = comdat any

$_Z12JSPropSetterI12CJS_DocumentXadL_ZNS0_10set_collabEP11CJS_RuntimeN2v85LocalINS3_5ValueEEEEEEvPKcS8_NS4_INS3_6StringEEES6_RKNS3_20PropertyCallbackInfoIvEE = comdat any

$_Z12JSPropGetterI12CJS_DocumentXadL_ZNS0_17get_creation_dateEP11CJS_RuntimeEEEvPKcS4_N2v85LocalINS5_6StringEEERKNS5_20PropertyCallbackInfoINS5_5ValueEEE = comdat any

$_Z12JSPropSetterI12CJS_DocumentXadL_ZNS0_17set_creation_dateEP11CJS_RuntimeN2v85LocalINS3_5ValueEEEEEEvPKcS8_NS4_INS3_6StringEEES6_RKNS3_20PropertyCallbackInfoIvEE = comdat any

$_Z12JSPropGetterI12CJS_DocumentXadL_ZNS0_11get_creatorEP11CJS_RuntimeEEEvPKcS4_N2v85LocalINS5_6StringEEERKNS5_20PropertyCallbackInfoINS5_5ValueEEE = comdat any

$_Z12JSPropSetterI12CJS_DocumentXadL_ZNS0_11set_creatorEP11CJS_RuntimeN2v85LocalINS3_5ValueEEEEEEvPKcS8_NS4_INS3_6StringEEES6_RKNS3_20PropertyCallbackInfoIvEE = comdat any

$_Z12JSPropGetterI12CJS_DocumentXadL_ZNS0_9get_delayEP11CJS_RuntimeEEEvPKcS4_N2v85LocalINS5_6StringEEERKNS5_20PropertyCallbackInfoINS5_5ValueEEE = comdat any

$_Z12JSPropSetterI12CJS_DocumentXadL_ZNS0_9set_delayEP11CJS_RuntimeN2v85LocalINS3_5ValueEEEEEEvPKcS8_NS4_INS3_6StringEEES6_RKNS3_20PropertyCallbackInfoIvEE = comdat any

$_Z12JSPropGetterI12CJS_DocumentXadL_ZNS0_9get_dirtyEP11CJS_RuntimeEEEvPKcS4_N2v85LocalINS5_6StringEEERKNS5_20PropertyCallbackInfoINS5_5ValueEEE = comdat any

$_Z12JSPropSetterI12CJS_DocumentXadL_ZNS0_9set_dirtyEP11CJS_RuntimeN2v85LocalINS3_5ValueEEEEEEvPKcS8_NS4_INS3_6StringEEES6_RKNS3_20PropertyCallbackInfoIvEE = comdat any

$_Z12JSPropGetterI12CJS_DocumentXadL_ZNS0_22get_document_file_nameEP11CJS_RuntimeEEEvPKcS4_N2v85LocalINS5_6StringEEERKNS5_20PropertyCallbackInfoINS5_5ValueEEE = comdat any

$_Z12JSPropSetterI12CJS_DocumentXadL_ZNS0_22set_document_file_nameEP11CJS_RuntimeN2v85LocalINS3_5ValueEEEEEEvPKcS8_NS4_INS3_6StringEEES6_RKNS3_20PropertyCallbackInfoIvEE = comdat any

$_Z12JSPropGetterI12CJS_DocumentXadL_ZNS0_12get_externalEP11CJS_RuntimeEEEvPKcS4_N2v85LocalINS5_6StringEEERKNS5_20PropertyCallbackInfoINS5_5ValueEEE = comdat any

$_Z12JSPropSetterI12CJS_DocumentXadL_ZNS0_12set_externalEP11CJS_RuntimeN2v85LocalINS3_5ValueEEEEEEvPKcS8_NS4_INS3_6StringEEES6_RKNS3_20PropertyCallbackInfoIvEE = comdat any

$_Z12JSPropGetterI12CJS_DocumentXadL_ZNS0_12get_filesizeEP11CJS_RuntimeEEEvPKcS4_N2v85LocalINS5_6StringEEERKNS5_20PropertyCallbackInfoINS5_5ValueEEE = comdat any

$_Z12JSPropSetterI12CJS_DocumentXadL_ZNS0_12set_filesizeEP11CJS_RuntimeN2v85LocalINS3_5ValueEEEEEEvPKcS8_NS4_INS3_6StringEEES6_RKNS3_20PropertyCallbackInfoIvEE = comdat any

$_Z12JSPropGetterI12CJS_DocumentXadL_ZNS0_9get_iconsEP11CJS_RuntimeEEEvPKcS4_N2v85LocalINS5_6StringEEERKNS5_20PropertyCallbackInfoINS5_5ValueEEE = comdat any

$_Z12JSPropSetterI12CJS_DocumentXadL_ZNS0_9set_iconsEP11CJS_RuntimeN2v85LocalINS3_5ValueEEEEEEvPKcS8_NS4_INS3_6StringEEES6_RKNS3_20PropertyCallbackInfoIvEE = comdat any

$_Z12JSPropGetterI12CJS_DocumentXadL_ZNS0_8get_infoEP11CJS_RuntimeEEEvPKcS4_N2v85LocalINS5_6StringEEERKNS5_20PropertyCallbackInfoINS5_5ValueEEE = comdat any

$_Z12JSPropSetterI12CJS_DocumentXadL_ZNS0_8set_infoEP11CJS_RuntimeN2v85LocalINS3_5ValueEEEEEEvPKcS8_NS4_INS3_6StringEEES6_RKNS3_20PropertyCallbackInfoIvEE = comdat any

$_Z12JSPropGetterI12CJS_DocumentXadL_ZNS0_12get_keywordsEP11CJS_RuntimeEEEvPKcS4_N2v85LocalINS5_6StringEEERKNS5_20PropertyCallbackInfoINS5_5ValueEEE = comdat any

$_Z12JSPropSetterI12CJS_DocumentXadL_ZNS0_12set_keywordsEP11CJS_RuntimeN2v85LocalINS3_5ValueEEEEEEvPKcS8_NS4_INS3_6StringEEES6_RKNS3_20PropertyCallbackInfoIvEE = comdat any

$_Z12JSPropGetterI12CJS_DocumentXadL_ZNS0_10get_layoutEP11CJS_RuntimeEEEvPKcS4_N2v85LocalINS5_6StringEEERKNS5_20PropertyCallbackInfoINS5_5ValueEEE = comdat any

$_Z12JSPropSetterI12CJS_DocumentXadL_ZNS0_10set_layoutEP11CJS_RuntimeN2v85LocalINS3_5ValueEEEEEEvPKcS8_NS4_INS3_6StringEEES6_RKNS3_20PropertyCallbackInfoIvEE = comdat any

$_Z12JSPropGetterI12CJS_DocumentXadL_ZNS0_9get_mediaEP11CJS_RuntimeEEEvPKcS4_N2v85LocalINS5_6StringEEERKNS5_20PropertyCallbackInfoINS5_5ValueEEE = comdat any

$_Z12JSPropSetterI12CJS_DocumentXadL_ZNS0_9set_mediaEP11CJS_RuntimeN2v85LocalINS3_5ValueEEEEEEvPKcS8_NS4_INS3_6StringEEES6_RKNS3_20PropertyCallbackInfoIvEE = comdat any

$_Z12JSPropGetterI12CJS_DocumentXadL_ZNS0_12get_mod_dateEP11CJS_RuntimeEEEvPKcS4_N2v85LocalINS5_6StringEEERKNS5_20PropertyCallbackInfoINS5_5ValueEEE = comdat any

$_Z12JSPropSetterI12CJS_DocumentXadL_ZNS0_12set_mod_dateEP11CJS_RuntimeN2v85LocalINS3_5ValueEEEEEEvPKcS8_NS4_INS3_6StringEEES6_RKNS3_20PropertyCallbackInfoIvEE = comdat any

$_Z12JSPropGetterI12CJS_DocumentXadL_ZNS0_11get_mouse_xEP11CJS_RuntimeEEEvPKcS4_N2v85LocalINS5_6StringEEERKNS5_20PropertyCallbackInfoINS5_5ValueEEE = comdat any

$_Z12JSPropSetterI12CJS_DocumentXadL_ZNS0_11set_mouse_xEP11CJS_RuntimeN2v85LocalINS3_5ValueEEEEEEvPKcS8_NS4_INS3_6StringEEES6_RKNS3_20PropertyCallbackInfoIvEE = comdat any

$_Z12JSPropGetterI12CJS_DocumentXadL_ZNS0_11get_mouse_yEP11CJS_RuntimeEEEvPKcS4_N2v85LocalINS5_6StringEEERKNS5_20PropertyCallbackInfoINS5_5ValueEEE = comdat any

$_Z12JSPropSetterI12CJS_DocumentXadL_ZNS0_11set_mouse_yEP11CJS_RuntimeN2v85LocalINS3_5ValueEEEEEEvPKcS8_NS4_INS3_6StringEEES6_RKNS3_20PropertyCallbackInfoIvEE = comdat any

$_Z12JSPropGetterI12CJS_DocumentXadL_ZNS0_14get_num_fieldsEP11CJS_RuntimeEEEvPKcS4_N2v85LocalINS5_6StringEEERKNS5_20PropertyCallbackInfoINS5_5ValueEEE = comdat any

$_Z12JSPropSetterI12CJS_DocumentXadL_ZNS0_14set_num_fieldsEP11CJS_RuntimeN2v85LocalINS3_5ValueEEEEEEvPKcS8_NS4_INS3_6StringEEES6_RKNS3_20PropertyCallbackInfoIvEE = comdat any

$_Z12JSPropGetterI12CJS_DocumentXadL_ZNS0_13get_num_pagesEP11CJS_RuntimeEEEvPKcS4_N2v85LocalINS5_6StringEEERKNS5_20PropertyCallbackInfoINS5_5ValueEEE = comdat any

$_Z12JSPropSetterI12CJS_DocumentXadL_ZNS0_13set_num_pagesEP11CJS_RuntimeN2v85LocalINS3_5ValueEEEEEEvPKcS8_NS4_INS3_6StringEEES6_RKNS3_20PropertyCallbackInfoIvEE = comdat any

$_Z12JSPropGetterI12CJS_DocumentXadL_ZNS0_12get_page_numEP11CJS_RuntimeEEEvPKcS4_N2v85LocalINS5_6StringEEERKNS5_20PropertyCallbackInfoINS5_5ValueEEE = comdat any

$_Z12JSPropSetterI12CJS_DocumentXadL_ZNS0_12set_page_numEP11CJS_RuntimeN2v85LocalINS3_5ValueEEEEEEvPKcS8_NS4_INS3_6StringEEES6_RKNS3_20PropertyCallbackInfoIvEE = comdat any

$_Z12JSPropGetterI12CJS_DocumentXadL_ZNS0_20get_page_window_rectEP11CJS_RuntimeEEEvPKcS4_N2v85LocalINS5_6StringEEERKNS5_20PropertyCallbackInfoINS5_5ValueEEE = comdat any

$_Z12JSPropSetterI12CJS_DocumentXadL_ZNS0_20set_page_window_rectEP11CJS_RuntimeN2v85LocalINS3_5ValueEEEEEEvPKcS8_NS4_INS3_6StringEEES6_RKNS3_20PropertyCallbackInfoIvEE = comdat any

$_Z12JSPropGetterI12CJS_DocumentXadL_ZNS0_8get_pathEP11CJS_RuntimeEEEvPKcS4_N2v85LocalINS5_6StringEEERKNS5_20PropertyCallbackInfoINS5_5ValueEEE = comdat any

$_Z12JSPropSetterI12CJS_DocumentXadL_ZNS0_8set_pathEP11CJS_RuntimeN2v85LocalINS3_5ValueEEEEEEvPKcS8_NS4_INS3_6StringEEES6_RKNS3_20PropertyCallbackInfoIvEE = comdat any

$_Z12JSPropGetterI12CJS_DocumentXadL_ZNS0_12get_producerEP11CJS_RuntimeEEEvPKcS4_N2v85LocalINS5_6StringEEERKNS5_20PropertyCallbackInfoINS5_5ValueEEE = comdat any

$_Z12JSPropSetterI12CJS_DocumentXadL_ZNS0_12set_producerEP11CJS_RuntimeN2v85LocalINS3_5ValueEEEEEEvPKcS8_NS4_INS3_6StringEEES6_RKNS3_20PropertyCallbackInfoIvEE = comdat any

$_Z12JSPropGetterI12CJS_DocumentXadL_ZNS0_11get_subjectEP11CJS_RuntimeEEEvPKcS4_N2v85LocalINS5_6StringEEERKNS5_20PropertyCallbackInfoINS5_5ValueEEE = comdat any

$_Z12JSPropSetterI12CJS_DocumentXadL_ZNS0_11set_subjectEP11CJS_RuntimeN2v85LocalINS3_5ValueEEEEEEvPKcS8_NS4_INS3_6StringEEES6_RKNS3_20PropertyCallbackInfoIvEE = comdat any

$_Z12JSPropGetterI12CJS_DocumentXadL_ZNS0_9get_titleEP11CJS_RuntimeEEEvPKcS4_N2v85LocalINS5_6StringEEERKNS5_20PropertyCallbackInfoINS5_5ValueEEE = comdat any

$_Z12JSPropSetterI12CJS_DocumentXadL_ZNS0_9set_titleEP11CJS_RuntimeN2v85LocalINS3_5ValueEEEEEEvPKcS8_NS4_INS3_6StringEEES6_RKNS3_20PropertyCallbackInfoIvEE = comdat any

$_Z12JSPropGetterI12CJS_DocumentXadL_ZNS0_7get_URLEP11CJS_RuntimeEEEvPKcS4_N2v85LocalINS5_6StringEEERKNS5_20PropertyCallbackInfoINS5_5ValueEEE = comdat any

$_Z12JSPropSetterI12CJS_DocumentXadL_ZNS0_7set_URLEP11CJS_RuntimeN2v85LocalINS3_5ValueEEEEEEvPKcS8_NS4_INS3_6StringEEES6_RKNS3_20PropertyCallbackInfoIvEE = comdat any

$_Z12JSPropGetterI12CJS_DocumentXadL_ZNS0_8get_zoomEP11CJS_RuntimeEEEvPKcS4_N2v85LocalINS5_6StringEEERKNS5_20PropertyCallbackInfoINS5_5ValueEEE = comdat any

$_Z12JSPropSetterI12CJS_DocumentXadL_ZNS0_8set_zoomEP11CJS_RuntimeN2v85LocalINS3_5ValueEEEEEEvPKcS8_NS4_INS3_6StringEEES6_RKNS3_20PropertyCallbackInfoIvEE = comdat any

$_Z12JSPropGetterI12CJS_DocumentXadL_ZNS0_13get_zoom_typeEP11CJS_RuntimeEEEvPKcS4_N2v85LocalINS5_6StringEEERKNS5_20PropertyCallbackInfoINS5_5ValueEEE = comdat any

$_Z12JSPropSetterI12CJS_DocumentXadL_ZNS0_13set_zoom_typeEP11CJS_RuntimeN2v85LocalINS3_5ValueEEEEEEvPKcS8_NS4_INS3_6StringEEES6_RKNS3_20PropertyCallbackInfoIvEE = comdat any

$_Z8JSMethodI12CJS_DocumentXadL_ZNS0_8addAnnotEP11CJS_RuntimeRKNSt3__16vectorIN2v85LocalINS5_5ValueEEENS3_9allocatorIS8_EEEEEEEvPKcSF_RKNS5_20FunctionCallbackInfoIS7_EE = comdat any

$_Z8JSMethodI12CJS_DocumentXadL_ZNS0_8addFieldEP11CJS_RuntimeRKNSt3__16vectorIN2v85LocalINS5_5ValueEEENS3_9allocatorIS8_EEEEEEEvPKcSF_RKNS5_20FunctionCallbackInfoIS7_EE = comdat any

$_Z8JSMethodI12CJS_DocumentXadL_ZNS0_7addLinkEP11CJS_RuntimeRKNSt3__16vectorIN2v85LocalINS5_5ValueEEENS3_9allocatorIS8_EEEEEEEvPKcSF_RKNS5_20FunctionCallbackInfoIS7_EE = comdat any

$_Z8JSMethodI12CJS_DocumentXadL_ZNS0_7addIconEP11CJS_RuntimeRKNSt3__16vectorIN2v85LocalINS5_5ValueEEENS3_9allocatorIS8_EEEEEEEvPKcSF_RKNS5_20FunctionCallbackInfoIS7_EE = comdat any

$_Z8JSMethodI12CJS_DocumentXadL_ZNS0_12calculateNowEP11CJS_RuntimeRKNSt3__16vectorIN2v85LocalINS5_5ValueEEENS3_9allocatorIS8_EEEEEEEvPKcSF_RKNS5_20FunctionCallbackInfoIS7_EE = comdat any

$_Z8JSMethodI12CJS_DocumentXadL_ZNS0_8closeDocEP11CJS_RuntimeRKNSt3__16vectorIN2v85LocalINS5_5ValueEEENS3_9allocatorIS8_EEEEEEEvPKcSF_RKNS5_20FunctionCallbackInfoIS7_EE = comdat any

$_Z8JSMethodI12CJS_DocumentXadL_ZNS0_16createDataObjectEP11CJS_RuntimeRKNSt3__16vectorIN2v85LocalINS5_5ValueEEENS3_9allocatorIS8_EEEEEEEvPKcSF_RKNS5_20FunctionCallbackInfoIS7_EE = comdat any

$_Z8JSMethodI12CJS_DocumentXadL_ZNS0_11deletePagesEP11CJS_RuntimeRKNSt3__16vectorIN2v85LocalINS5_5ValueEEENS3_9allocatorIS8_EEEEEEEvPKcSF_RKNS5_20FunctionCallbackInfoIS7_EE = comdat any

$_Z8JSMethodI12CJS_DocumentXadL_ZNS0_12exportAsTextEP11CJS_RuntimeRKNSt3__16vectorIN2v85LocalINS5_5ValueEEENS3_9allocatorIS8_EEEEEEEvPKcSF_RKNS5_20FunctionCallbackInfoIS7_EE = comdat any

$_Z8JSMethodI12CJS_DocumentXadL_ZNS0_11exportAsFDFEP11CJS_RuntimeRKNSt3__16vectorIN2v85LocalINS5_5ValueEEENS3_9allocatorIS8_EEEEEEEvPKcSF_RKNS5_20FunctionCallbackInfoIS7_EE = comdat any

$_Z8JSMethodI12CJS_DocumentXadL_ZNS0_12exportAsXFDFEP11CJS_RuntimeRKNSt3__16vectorIN2v85LocalINS5_5ValueEEENS3_9allocatorIS8_EEEEEEEvPKcSF_RKNS5_20FunctionCallbackInfoIS7_EE = comdat any

$_Z8JSMethodI12CJS_DocumentXadL_ZNS0_12extractPagesEP11CJS_RuntimeRKNSt3__16vectorIN2v85LocalINS5_5ValueEEENS3_9allocatorIS8_EEEEEEEvPKcSF_RKNS5_20FunctionCallbackInfoIS7_EE = comdat any

$_Z8JSMethodI12CJS_DocumentXadL_ZNS0_8getAnnotEP11CJS_RuntimeRKNSt3__16vectorIN2v85LocalINS5_5ValueEEENS3_9allocatorIS8_EEEEEEEvPKcSF_RKNS5_20FunctionCallbackInfoIS7_EE = comdat any

$_Z8JSMethodI12CJS_DocumentXadL_ZNS0_9getAnnotsEP11CJS_RuntimeRKNSt3__16vectorIN2v85LocalINS5_5ValueEEENS3_9allocatorIS8_EEEEEEEvPKcSF_RKNS5_20FunctionCallbackInfoIS7_EE = comdat any

$_Z8JSMethodI12CJS_DocumentXadL_ZNS0_10getAnnot3DEP11CJS_RuntimeRKNSt3__16vectorIN2v85LocalINS5_5ValueEEENS3_9allocatorIS8_EEEEEEEvPKcSF_RKNS5_20FunctionCallbackInfoIS7_EE = comdat any

$_Z8JSMethodI12CJS_DocumentXadL_ZNS0_11getAnnots3DEP11CJS_RuntimeRKNSt3__16vectorIN2v85LocalINS5_5ValueEEENS3_9allocatorIS8_EEEEEEEvPKcSF_RKNS5_20FunctionCallbackInfoIS7_EE = comdat any

$_Z8JSMethodI12CJS_DocumentXadL_ZNS0_8getFieldEP11CJS_RuntimeRKNSt3__16vectorIN2v85LocalINS5_5ValueEEENS3_9allocatorIS8_EEEEEEEvPKcSF_RKNS5_20FunctionCallbackInfoIS7_EE = comdat any

$_Z8JSMethodI12CJS_DocumentXadL_ZNS0_7getIconEP11CJS_RuntimeRKNSt3__16vectorIN2v85LocalINS5_5ValueEEENS3_9allocatorIS8_EEEEEEEvPKcSF_RKNS5_20FunctionCallbackInfoIS7_EE = comdat any

$_Z8JSMethodI12CJS_DocumentXadL_ZNS0_8getLinksEP11CJS_RuntimeRKNSt3__16vectorIN2v85LocalINS5_5ValueEEENS3_9allocatorIS8_EEEEEEEvPKcSF_RKNS5_20FunctionCallbackInfoIS7_EE = comdat any

$_Z8JSMethodI12CJS_DocumentXadL_ZNS0_15getNthFieldNameEP11CJS_RuntimeRKNSt3__16vectorIN2v85LocalINS5_5ValueEEENS3_9allocatorIS8_EEEEEEEvPKcSF_RKNS5_20FunctionCallbackInfoIS7_EE = comdat any

$_Z8JSMethodI12CJS_DocumentXadL_ZNS0_7getOCGsEP11CJS_RuntimeRKNSt3__16vectorIN2v85LocalINS5_5ValueEEENS3_9allocatorIS8_EEEEEEEvPKcSF_RKNS5_20FunctionCallbackInfoIS7_EE = comdat any

$_Z8JSMethodI12CJS_DocumentXadL_ZNS0_10getPageBoxEP11CJS_RuntimeRKNSt3__16vectorIN2v85LocalINS5_5ValueEEENS3_9allocatorIS8_EEEEEEEvPKcSF_RKNS5_20FunctionCallbackInfoIS7_EE = comdat any

$_Z8JSMethodI12CJS_DocumentXadL_ZNS0_14getPageNthWordEP11CJS_RuntimeRKNSt3__16vectorIN2v85LocalINS5_5ValueEEENS3_9allocatorIS8_EEEEEEEvPKcSF_RKNS5_20FunctionCallbackInfoIS7_EE = comdat any

$_Z8JSMethodI12CJS_DocumentXadL_ZNS0_19getPageNthWordQuadsEP11CJS_RuntimeRKNSt3__16vectorIN2v85LocalINS5_5ValueEEENS3_9allocatorIS8_EEEEEEEvPKcSF_RKNS5_20FunctionCallbackInfoIS7_EE = comdat any

$_Z8JSMethodI12CJS_DocumentXadL_ZNS0_15getPageNumWordsEP11CJS_RuntimeRKNSt3__16vectorIN2v85LocalINS5_5ValueEEENS3_9allocatorIS8_EEEEEEEvPKcSF_RKNS5_20FunctionCallbackInfoIS7_EE = comdat any

$_Z8JSMethodI12CJS_DocumentXadL_ZNS0_14getPrintParamsEP11CJS_RuntimeRKNSt3__16vectorIN2v85LocalINS5_5ValueEEENS3_9allocatorIS8_EEEEEEEvPKcSF_RKNS5_20FunctionCallbackInfoIS7_EE = comdat any

$_Z8JSMethodI12CJS_DocumentXadL_ZNS0_6getURLEP11CJS_RuntimeRKNSt3__16vectorIN2v85LocalINS5_5ValueEEENS3_9allocatorIS8_EEEEEEEvPKcSF_RKNS5_20FunctionCallbackInfoIS7_EE = comdat any

$_Z8JSMethodI12CJS_DocumentXadL_ZNS0_13gotoNamedDestEP11CJS_RuntimeRKNSt3__16vectorIN2v85LocalINS5_5ValueEEENS3_9allocatorIS8_EEEEEEEvPKcSF_RKNS5_20FunctionCallbackInfoIS7_EE = comdat any

$_Z8JSMethodI12CJS_DocumentXadL_ZNS0_11importAnFDFEP11CJS_RuntimeRKNSt3__16vectorIN2v85LocalINS5_5ValueEEENS3_9allocatorIS8_EEEEEEEvPKcSF_RKNS5_20FunctionCallbackInfoIS7_EE = comdat any

$_Z8JSMethodI12CJS_DocumentXadL_ZNS0_12importAnXFDFEP11CJS_RuntimeRKNSt3__16vectorIN2v85LocalINS5_5ValueEEENS3_9allocatorIS8_EEEEEEEvPKcSF_RKNS5_20FunctionCallbackInfoIS7_EE = comdat any

$_Z8JSMethodI12CJS_DocumentXadL_ZNS0_14importTextDataEP11CJS_RuntimeRKNSt3__16vectorIN2v85LocalINS5_5ValueEEENS3_9allocatorIS8_EEEEEEEvPKcSF_RKNS5_20FunctionCallbackInfoIS7_EE = comdat any

$_Z8JSMethodI12CJS_DocumentXadL_ZNS0_11insertPagesEP11CJS_RuntimeRKNSt3__16vectorIN2v85LocalINS5_5ValueEEENS3_9allocatorIS8_EEEEEEEvPKcSF_RKNS5_20FunctionCallbackInfoIS7_EE = comdat any

$_Z8JSMethodI12CJS_DocumentXadL_ZNS0_7mailDocEP11CJS_RuntimeRKNSt3__16vectorIN2v85LocalINS5_5ValueEEENS3_9allocatorIS8_EEEEEEEvPKcSF_RKNS5_20FunctionCallbackInfoIS7_EE = comdat any

$_Z8JSMethodI12CJS_DocumentXadL_ZNS0_8mailFormEP11CJS_RuntimeRKNSt3__16vectorIN2v85LocalINS5_5ValueEEENS3_9allocatorIS8_EEEEEEEvPKcSF_RKNS5_20FunctionCallbackInfoIS7_EE = comdat any

$_Z8JSMethodI12CJS_DocumentXadL_ZNS0_5printEP11CJS_RuntimeRKNSt3__16vectorIN2v85LocalINS5_5ValueEEENS3_9allocatorIS8_EEEEEEEvPKcSF_RKNS5_20FunctionCallbackInfoIS7_EE = comdat any

$_Z8JSMethodI12CJS_DocumentXadL_ZNS0_11removeFieldEP11CJS_RuntimeRKNSt3__16vectorIN2v85LocalINS5_5ValueEEENS3_9allocatorIS8_EEEEEEEvPKcSF_RKNS5_20FunctionCallbackInfoIS7_EE = comdat any

$_Z8JSMethodI12CJS_DocumentXadL_ZNS0_12replacePagesEP11CJS_RuntimeRKNSt3__16vectorIN2v85LocalINS5_5ValueEEENS3_9allocatorIS8_EEEEEEEvPKcSF_RKNS5_20FunctionCallbackInfoIS7_EE = comdat any

$_Z8JSMethodI12CJS_DocumentXadL_ZNS0_9resetFormEP11CJS_RuntimeRKNSt3__16vectorIN2v85LocalINS5_5ValueEEENS3_9allocatorIS8_EEEEEEEvPKcSF_RKNS5_20FunctionCallbackInfoIS7_EE = comdat any

$_Z8JSMethodI12CJS_DocumentXadL_ZNS0_10removeIconEP11CJS_RuntimeRKNSt3__16vectorIN2v85LocalINS5_5ValueEEENS3_9allocatorIS8_EEEEEEEvPKcSF_RKNS5_20FunctionCallbackInfoIS7_EE = comdat any

$_Z8JSMethodI12CJS_DocumentXadL_ZNS0_6saveAsEP11CJS_RuntimeRKNSt3__16vectorIN2v85LocalINS5_5ValueEEENS3_9allocatorIS8_EEEEEEEvPKcSF_RKNS5_20FunctionCallbackInfoIS7_EE = comdat any

$_Z8JSMethodI12CJS_DocumentXadL_ZNS0_10submitFormEP11CJS_RuntimeRKNSt3__16vectorIN2v85LocalINS5_5ValueEEENS3_9allocatorIS8_EEEEEEEvPKcSF_RKNS5_20FunctionCallbackInfoIS7_EE = comdat any

$_Z8JSMethodI12CJS_DocumentXadL_ZNS0_13syncAnnotScanEP11CJS_RuntimeRKNSt3__16vectorIN2v85LocalINS5_5ValueEEENS3_9allocatorIS8_EEEEEEEvPKcSF_RKNS5_20FunctionCallbackInfoIS7_EE = comdat any

$_ZN5fxcrt11ObservedPtrI27CPDFSDK_FormFillEnvironmentED0Ev = comdat any

$_ZN5fxcrt11ObservedPtrI27CPDFSDK_FormFillEnvironmentE21OnObservableDestroyedEv = comdat any

$_ZNSt3__110__function16__policy_invokerIFvP12CFXJS_EngineN2v85LocalINS4_6ObjectEEEEE11__call_implINS0_20__default_alloc_funcIPS8_S8_EEEEvPKNS0_16__policy_storageES3_OS7_ = comdat any

$_ZNSt3__110__function16__policy_invokerIFvN2v85LocalINS2_6ObjectEEEEE11__call_implINS0_20__default_alloc_funcIPS6_S6_EEEEvPKNS0_16__policy_storageEOS5_ = comdat any

$_ZN5fxcrt11ObservedPtrI13CPDFSDK_AnnotED2Ev = comdat any

$_ZN5fxcrt11ObservedPtrI13CPDFSDK_AnnotED0Ev = comdat any

$_ZN5fxcrt11ObservedPtrI13CPDFSDK_AnnotE21OnObservableDestroyedEv = comdat any

$_ZNSt3__16vectorINS_10unique_ptrI13CJS_DelayDataNS_14default_deleteIS2_EEEENS_9allocatorIS5_EEE21__push_back_slow_pathIS5_EEvOT_ = comdat any

$_ZTVN5fxcrt11ObservedPtrI27CPDFSDK_FormFillEnvironmentEE = comdat any

$_ZZNSt3__110__function8__policy15__choose_policyINS0_20__default_alloc_funcIPFvP12CFXJS_EngineN2v85LocalINS6_6ObjectEEEESA_EEEEPKS1_NS_17integral_constantIbLb1EEEE9__policy_ = comdat any

$_ZZNSt3__110__function8__policy15__choose_policyINS0_20__default_alloc_funcIPFvN2v85LocalINS4_6ObjectEEEES8_EEEEPKS1_NS_17integral_constantIbLb1EEEE9__policy_ = comdat any

$_ZTVN5fxcrt11ObservedPtrI13CPDFSDK_AnnotEE = comdat any

@.str = private unnamed_addr constant [5 x i8] c"ADBE\00", align 1
@.str.1 = private unnamed_addr constant [7 x i8] c"author\00", align 1
@.str.2 = private unnamed_addr constant [8 x i8] c"baseURL\00", align 1
@.str.3 = private unnamed_addr constant [13 x i8] c"bookmarkRoot\00", align 1
@.str.4 = private unnamed_addr constant [10 x i8] c"calculate\00", align 1
@.str.5 = private unnamed_addr constant [7 x i8] c"Collab\00", align 1
@.str.6 = private unnamed_addr constant [13 x i8] c"creationDate\00", align 1
@.str.7 = private unnamed_addr constant [8 x i8] c"creator\00", align 1
@.str.8 = private unnamed_addr constant [6 x i8] c"delay\00", align 1
@.str.9 = private unnamed_addr constant [6 x i8] c"dirty\00", align 1
@.str.10 = private unnamed_addr constant [17 x i8] c"documentFileName\00", align 1
@.str.11 = private unnamed_addr constant [9 x i8] c"external\00", align 1
@.str.12 = private unnamed_addr constant [9 x i8] c"filesize\00", align 1
@.str.13 = private unnamed_addr constant [6 x i8] c"icons\00", align 1
@.str.14 = private unnamed_addr constant [5 x i8] c"info\00", align 1
@.str.15 = private unnamed_addr constant [9 x i8] c"keywords\00", align 1
@.str.16 = private unnamed_addr constant [7 x i8] c"layout\00", align 1
@.str.17 = private unnamed_addr constant [6 x i8] c"media\00", align 1
@.str.18 = private unnamed_addr constant [8 x i8] c"modDate\00", align 1
@.str.19 = private unnamed_addr constant [7 x i8] c"mouseX\00", align 1
@.str.20 = private unnamed_addr constant [7 x i8] c"mouseY\00", align 1
@.str.21 = private unnamed_addr constant [10 x i8] c"numFields\00", align 1
@.str.22 = private unnamed_addr constant [9 x i8] c"numPages\00", align 1
@.str.23 = private unnamed_addr constant [8 x i8] c"pageNum\00", align 1
@.str.24 = private unnamed_addr constant [15 x i8] c"pageWindowRect\00", align 1
@.str.25 = private unnamed_addr constant [5 x i8] c"path\00", align 1
@.str.26 = private unnamed_addr constant [9 x i8] c"producer\00", align 1
@.str.27 = private unnamed_addr constant [8 x i8] c"subject\00", align 1
@.str.28 = private unnamed_addr constant [6 x i8] c"title\00", align 1
@.str.29 = private unnamed_addr constant [4 x i8] c"URL\00", align 1
@.str.30 = private unnamed_addr constant [5 x i8] c"zoom\00", align 1
@.str.31 = private unnamed_addr constant [9 x i8] c"zoomType\00", align 1
@_ZN12CJS_Document13PropertySpecsE = hidden constant [32 x %struct.JSPropertySpec] [%struct.JSPropertySpec { i8* getelementptr inbounds ([5 x i8], [5 x i8]* @.str, i32 0, i32 0), void (%"class.v8::String"*, %"class.v8::PropertyCallbackInfo"*)* @_ZN12CJS_Document15get_ADBE_staticEN2v85LocalINS0_6StringEEERKNS0_20PropertyCallbackInfoINS0_5ValueEEE, void (%"class.v8::String"*, %"class.v8::Value"*, %"class.v8::PropertyCallbackInfo.1"*)* @_ZN12CJS_Document15set_ADBE_staticEN2v85LocalINS0_6StringEEENS1_INS0_5ValueEEERKNS0_20PropertyCallbackInfoIvEE }, %struct.JSPropertySpec { i8* getelementptr inbounds ([7 x i8], [7 x i8]* @.str.1, i32 0, i32 0), void (%"class.v8::String"*, %"class.v8::PropertyCallbackInfo"*)* @_ZN12CJS_Document17get_author_staticEN2v85LocalINS0_6StringEEERKNS0_20PropertyCallbackInfoINS0_5ValueEEE, void (%"class.v8::String"*, %"class.v8::Value"*, %"class.v8::PropertyCallbackInfo.1"*)* @_ZN12CJS_Document17set_author_staticEN2v85LocalINS0_6StringEEENS1_INS0_5ValueEEERKNS0_20PropertyCallbackInfoIvEE }, %struct.JSPropertySpec { i8* getelementptr inbounds ([8 x i8], [8 x i8]* @.str.2, i32 0, i32 0), void (%"class.v8::String"*, %"class.v8::PropertyCallbackInfo"*)* @_ZN12CJS_Document19get_base_URL_staticEN2v85LocalINS0_6StringEEERKNS0_20PropertyCallbackInfoINS0_5ValueEEE, void (%"class.v8::String"*, %"class.v8::Value"*, %"class.v8::PropertyCallbackInfo.1"*)* @_ZN12CJS_Document19set_base_URL_staticEN2v85LocalINS0_6StringEEENS1_INS0_5ValueEEERKNS0_20PropertyCallbackInfoIvEE }, %struct.JSPropertySpec { i8* getelementptr inbounds ([13 x i8], [13 x i8]* @.str.3, i32 0, i32 0), void (%"class.v8::String"*, %"class.v8::PropertyCallbackInfo"*)* @_ZN12CJS_Document24get_bookmark_root_staticEN2v85LocalINS0_6StringEEERKNS0_20PropertyCallbackInfoINS0_5ValueEEE, void (%"class.v8::String"*, %"class.v8::Value"*, %"class.v8::PropertyCallbackInfo.1"*)* @_ZN12CJS_Document24set_bookmark_root_staticEN2v85LocalINS0_6StringEEENS1_INS0_5ValueEEERKNS0_20PropertyCallbackInfoIvEE }, %struct.JSPropertySpec { i8* getelementptr inbounds ([10 x i8], [10 x i8]* @.str.4, i32 0, i32 0), void (%"class.v8::String"*, %"class.v8::PropertyCallbackInfo"*)* @_ZN12CJS_Document20get_calculate_staticEN2v85LocalINS0_6StringEEERKNS0_20PropertyCallbackInfoINS0_5ValueEEE, void (%"class.v8::String"*, %"class.v8::Value"*, %"class.v8::PropertyCallbackInfo.1"*)* @_ZN12CJS_Document20set_calculate_staticEN2v85LocalINS0_6StringEEENS1_INS0_5ValueEEERKNS0_20PropertyCallbackInfoIvEE }, %struct.JSPropertySpec { i8* getelementptr inbounds ([7 x i8], [7 x i8]* @.str.5, i32 0, i32 0), void (%"class.v8::String"*, %"class.v8::PropertyCallbackInfo"*)* @_ZN12CJS_Document17get_collab_staticEN2v85LocalINS0_6StringEEERKNS0_20PropertyCallbackInfoINS0_5ValueEEE, void (%"class.v8::String"*, %"class.v8::Value"*, %"class.v8::PropertyCallbackInfo.1"*)* @_ZN12CJS_Document17set_collab_staticEN2v85LocalINS0_6StringEEENS1_INS0_5ValueEEERKNS0_20PropertyCallbackInfoIvEE }, %struct.JSPropertySpec { i8* getelementptr inbounds ([13 x i8], [13 x i8]* @.str.6, i32 0, i32 0), void (%"class.v8::String"*, %"class.v8::PropertyCallbackInfo"*)* @_ZN12CJS_Document24get_creation_date_staticEN2v85LocalINS0_6StringEEERKNS0_20PropertyCallbackInfoINS0_5ValueEEE, void (%"class.v8::String"*, %"class.v8::Value"*, %"class.v8::PropertyCallbackInfo.1"*)* @_ZN12CJS_Document24set_creation_date_staticEN2v85LocalINS0_6StringEEENS1_INS0_5ValueEEERKNS0_20PropertyCallbackInfoIvEE }, %struct.JSPropertySpec { i8* getelementptr inbounds ([8 x i8], [8 x i8]* @.str.7, i32 0, i32 0), void (%"class.v8::String"*, %"class.v8::PropertyCallbackInfo"*)* @_ZN12CJS_Document18get_creator_staticEN2v85LocalINS0_6StringEEERKNS0_20PropertyCallbackInfoINS0_5ValueEEE, void (%"class.v8::String"*, %"class.v8::Value"*, %"class.v8::PropertyCallbackInfo.1"*)* @_ZN12CJS_Document18set_creator_staticEN2v85LocalINS0_6StringEEENS1_INS0_5ValueEEERKNS0_20PropertyCallbackInfoIvEE }, %struct.JSPropertySpec { i8* getelementptr inbounds ([6 x i8], [6 x i8]* @.str.8, i32 0, i32 0), void (%"class.v8::String"*, %"class.v8::PropertyCallbackInfo"*)* @_ZN12CJS_Document16get_delay_staticEN2v85LocalINS0_6StringEEERKNS0_20PropertyCallbackInfoINS0_5ValueEEE, void (%"class.v8::String"*, %"class.v8::Value"*, %"class.v8::PropertyCallbackInfo.1"*)* @_ZN12CJS_Document16set_delay_staticEN2v85LocalINS0_6StringEEENS1_INS0_5ValueEEERKNS0_20PropertyCallbackInfoIvEE }, %struct.JSPropertySpec { i8* getelementptr inbounds ([6 x i8], [6 x i8]* @.str.9, i32 0, i32 0), void (%"class.v8::String"*, %"class.v8::PropertyCallbackInfo"*)* @_ZN12CJS_Document16get_dirty_staticEN2v85LocalINS0_6StringEEERKNS0_20PropertyCallbackInfoINS0_5ValueEEE, void (%"class.v8::String"*, %"class.v8::Value"*, %"class.v8::PropertyCallbackInfo.1"*)* @_ZN12CJS_Document16set_dirty_staticEN2v85LocalINS0_6StringEEENS1_INS0_5ValueEEERKNS0_20PropertyCallbackInfoIvEE }, %struct.JSPropertySpec { i8* getelementptr inbounds ([17 x i8], [17 x i8]* @.str.10, i32 0, i32 0), void (%"class.v8::String"*, %"class.v8::PropertyCallbackInfo"*)* @_ZN12CJS_Document29get_document_file_name_staticEN2v85LocalINS0_6StringEEERKNS0_20PropertyCallbackInfoINS0_5ValueEEE, void (%"class.v8::String"*, %"class.v8::Value"*, %"class.v8::PropertyCallbackInfo.1"*)* @_ZN12CJS_Document29set_document_file_name_staticEN2v85LocalINS0_6StringEEENS1_INS0_5ValueEEERKNS0_20PropertyCallbackInfoIvEE }, %struct.JSPropertySpec { i8* getelementptr inbounds ([9 x i8], [9 x i8]* @.str.11, i32 0, i32 0), void (%"class.v8::String"*, %"class.v8::PropertyCallbackInfo"*)* @_ZN12CJS_Document19get_external_staticEN2v85LocalINS0_6StringEEERKNS0_20PropertyCallbackInfoINS0_5ValueEEE, void (%"class.v8::String"*, %"class.v8::Value"*, %"class.v8::PropertyCallbackInfo.1"*)* @_ZN12CJS_Document19set_external_staticEN2v85LocalINS0_6StringEEENS1_INS0_5ValueEEERKNS0_20PropertyCallbackInfoIvEE }, %struct.JSPropertySpec { i8* getelementptr inbounds ([9 x i8], [9 x i8]* @.str.12, i32 0, i32 0), void (%"class.v8::String"*, %"class.v8::PropertyCallbackInfo"*)* @_ZN12CJS_Document19get_filesize_staticEN2v85LocalINS0_6StringEEERKNS0_20PropertyCallbackInfoINS0_5ValueEEE, void (%"class.v8::String"*, %"class.v8::Value"*, %"class.v8::PropertyCallbackInfo.1"*)* @_ZN12CJS_Document19set_filesize_staticEN2v85LocalINS0_6StringEEENS1_INS0_5ValueEEERKNS0_20PropertyCallbackInfoIvEE }, %struct.JSPropertySpec { i8* getelementptr inbounds ([6 x i8], [6 x i8]* @.str.13, i32 0, i32 0), void (%"class.v8::String"*, %"class.v8::PropertyCallbackInfo"*)* @_ZN12CJS_Document16get_icons_staticEN2v85LocalINS0_6StringEEERKNS0_20PropertyCallbackInfoINS0_5ValueEEE, void (%"class.v8::String"*, %"class.v8::Value"*, %"class.v8::PropertyCallbackInfo.1"*)* @_ZN12CJS_Document16set_icons_staticEN2v85LocalINS0_6StringEEENS1_INS0_5ValueEEERKNS0_20PropertyCallbackInfoIvEE }, %struct.JSPropertySpec { i8* getelementptr inbounds ([5 x i8], [5 x i8]* @.str.14, i32 0, i32 0), void (%"class.v8::String"*, %"class.v8::PropertyCallbackInfo"*)* @_ZN12CJS_Document15get_info_staticEN2v85LocalINS0_6StringEEERKNS0_20PropertyCallbackInfoINS0_5ValueEEE, void (%"class.v8::String"*, %"class.v8::Value"*, %"class.v8::PropertyCallbackInfo.1"*)* @_ZN12CJS_Document15set_info_staticEN2v85LocalINS0_6StringEEENS1_INS0_5ValueEEERKNS0_20PropertyCallbackInfoIvEE }, %struct.JSPropertySpec { i8* getelementptr inbounds ([9 x i8], [9 x i8]* @.str.15, i32 0, i32 0), void (%"class.v8::String"*, %"class.v8::PropertyCallbackInfo"*)* @_ZN12CJS_Document19get_keywords_staticEN2v85LocalINS0_6StringEEERKNS0_20PropertyCallbackInfoINS0_5ValueEEE, void (%"class.v8::String"*, %"class.v8::Value"*, %"class.v8::PropertyCallbackInfo.1"*)* @_ZN12CJS_Document19set_keywords_staticEN2v85LocalINS0_6StringEEENS1_INS0_5ValueEEERKNS0_20PropertyCallbackInfoIvEE }, %struct.JSPropertySpec { i8* getelementptr inbounds ([7 x i8], [7 x i8]* @.str.16, i32 0, i32 0), void (%"class.v8::String"*, %"class.v8::PropertyCallbackInfo"*)* @_ZN12CJS_Document17get_layout_staticEN2v85LocalINS0_6StringEEERKNS0_20PropertyCallbackInfoINS0_5ValueEEE, void (%"class.v8::String"*, %"class.v8::Value"*, %"class.v8::PropertyCallbackInfo.1"*)* @_ZN12CJS_Document17set_layout_staticEN2v85LocalINS0_6StringEEENS1_INS0_5ValueEEERKNS0_20PropertyCallbackInfoIvEE }, %struct.JSPropertySpec { i8* getelementptr inbounds ([6 x i8], [6 x i8]* @.str.17, i32 0, i32 0), void (%"class.v8::String"*, %"class.v8::PropertyCallbackInfo"*)* @_ZN12CJS_Document16get_media_staticEN2v85LocalINS0_6StringEEERKNS0_20PropertyCallbackInfoINS0_5ValueEEE, void (%"class.v8::String"*, %"class.v8::Value"*, %"class.v8::PropertyCallbackInfo.1"*)* @_ZN12CJS_Document16set_media_staticEN2v85LocalINS0_6StringEEENS1_INS0_5ValueEEERKNS0_20PropertyCallbackInfoIvEE }, %struct.JSPropertySpec { i8* getelementptr inbounds ([8 x i8], [8 x i8]* @.str.18, i32 0, i32 0), void (%"class.v8::String"*, %"class.v8::PropertyCallbackInfo"*)* @_ZN12CJS_Document19get_mod_date_staticEN2v85LocalINS0_6StringEEERKNS0_20PropertyCallbackInfoINS0_5ValueEEE, void (%"class.v8::String"*, %"class.v8::Value"*, %"class.v8::PropertyCallbackInfo.1"*)* @_ZN12CJS_Document19set_mod_date_staticEN2v85LocalINS0_6StringEEENS1_INS0_5ValueEEERKNS0_20PropertyCallbackInfoIvEE }, %struct.JSPropertySpec { i8* getelementptr inbounds ([7 x i8], [7 x i8]* @.str.19, i32 0, i32 0), void (%"class.v8::String"*, %"class.v8::PropertyCallbackInfo"*)* @_ZN12CJS_Document18get_mouse_x_staticEN2v85LocalINS0_6StringEEERKNS0_20PropertyCallbackInfoINS0_5ValueEEE, void (%"class.v8::String"*, %"class.v8::Value"*, %"class.v8::PropertyCallbackInfo.1"*)* @_ZN12CJS_Document18set_mouse_x_staticEN2v85LocalINS0_6StringEEENS1_INS0_5ValueEEERKNS0_20PropertyCallbackInfoIvEE }, %struct.JSPropertySpec { i8* getelementptr inbounds ([7 x i8], [7 x i8]* @.str.20, i32 0, i32 0), void (%"class.v8::String"*, %"class.v8::PropertyCallbackInfo"*)* @_ZN12CJS_Document18get_mouse_y_staticEN2v85LocalINS0_6StringEEERKNS0_20PropertyCallbackInfoINS0_5ValueEEE, void (%"class.v8::String"*, %"class.v8::Value"*, %"class.v8::PropertyCallbackInfo.1"*)* @_ZN12CJS_Document18set_mouse_y_staticEN2v85LocalINS0_6StringEEENS1_INS0_5ValueEEERKNS0_20PropertyCallbackInfoIvEE }, %struct.JSPropertySpec { i8* getelementptr inbounds ([10 x i8], [10 x i8]* @.str.21, i32 0, i32 0), void (%"class.v8::String"*, %"class.v8::PropertyCallbackInfo"*)* @_ZN12CJS_Document21get_num_fields_staticEN2v85LocalINS0_6StringEEERKNS0_20PropertyCallbackInfoINS0_5ValueEEE, void (%"class.v8::String"*, %"class.v8::Value"*, %"class.v8::PropertyCallbackInfo.1"*)* @_ZN12CJS_Document21set_num_fields_staticEN2v85LocalINS0_6StringEEENS1_INS0_5ValueEEERKNS0_20PropertyCallbackInfoIvEE }, %struct.JSPropertySpec { i8* getelementptr inbounds ([9 x i8], [9 x i8]* @.str.22, i32 0, i32 0), void (%"class.v8::String"*, %"class.v8::PropertyCallbackInfo"*)* @_ZN12CJS_Document20get_num_pages_staticEN2v85LocalINS0_6StringEEERKNS0_20PropertyCallbackInfoINS0_5ValueEEE, void (%"class.v8::String"*, %"class.v8::Value"*, %"class.v8::PropertyCallbackInfo.1"*)* @_ZN12CJS_Document20set_num_pages_staticEN2v85LocalINS0_6StringEEENS1_INS0_5ValueEEERKNS0_20PropertyCallbackInfoIvEE }, %struct.JSPropertySpec { i8* getelementptr inbounds ([8 x i8], [8 x i8]* @.str.23, i32 0, i32 0), void (%"class.v8::String"*, %"class.v8::PropertyCallbackInfo"*)* @_ZN12CJS_Document19get_page_num_staticEN2v85LocalINS0_6StringEEERKNS0_20PropertyCallbackInfoINS0_5ValueEEE, void (%"class.v8::String"*, %"class.v8::Value"*, %"class.v8::PropertyCallbackInfo.1"*)* @_ZN12CJS_Document19set_page_num_staticEN2v85LocalINS0_6StringEEENS1_INS0_5ValueEEERKNS0_20PropertyCallbackInfoIvEE }, %struct.JSPropertySpec { i8* getelementptr inbounds ([15 x i8], [15 x i8]* @.str.24, i32 0, i32 0), void (%"class.v8::String"*, %"class.v8::PropertyCallbackInfo"*)* @_ZN12CJS_Document27get_page_window_rect_staticEN2v85LocalINS0_6StringEEERKNS0_20PropertyCallbackInfoINS0_5ValueEEE, void (%"class.v8::String"*, %"class.v8::Value"*, %"class.v8::PropertyCallbackInfo.1"*)* @_ZN12CJS_Document27set_page_window_rect_staticEN2v85LocalINS0_6StringEEENS1_INS0_5ValueEEERKNS0_20PropertyCallbackInfoIvEE }, %struct.JSPropertySpec { i8* getelementptr inbounds ([5 x i8], [5 x i8]* @.str.25, i32 0, i32 0), void (%"class.v8::String"*, %"class.v8::PropertyCallbackInfo"*)* @_ZN12CJS_Document15get_path_staticEN2v85LocalINS0_6StringEEERKNS0_20PropertyCallbackInfoINS0_5ValueEEE, void (%"class.v8::String"*, %"class.v8::Value"*, %"class.v8::PropertyCallbackInfo.1"*)* @_ZN12CJS_Document15set_path_staticEN2v85LocalINS0_6StringEEENS1_INS0_5ValueEEERKNS0_20PropertyCallbackInfoIvEE }, %struct.JSPropertySpec { i8* getelementptr inbounds ([9 x i8], [9 x i8]* @.str.26, i32 0, i32 0), void (%"class.v8::String"*, %"class.v8::PropertyCallbackInfo"*)* @_ZN12CJS_Document19get_producer_staticEN2v85LocalINS0_6StringEEERKNS0_20PropertyCallbackInfoINS0_5ValueEEE, void (%"class.v8::String"*, %"class.v8::Value"*, %"class.v8::PropertyCallbackInfo.1"*)* @_ZN12CJS_Document19set_producer_staticEN2v85LocalINS0_6StringEEENS1_INS0_5ValueEEERKNS0_20PropertyCallbackInfoIvEE }, %struct.JSPropertySpec { i8* getelementptr inbounds ([8 x i8], [8 x i8]* @.str.27, i32 0, i32 0), void (%"class.v8::String"*, %"class.v8::PropertyCallbackInfo"*)* @_ZN12CJS_Document18get_subject_staticEN2v85LocalINS0_6StringEEERKNS0_20PropertyCallbackInfoINS0_5ValueEEE, void (%"class.v8::String"*, %"class.v8::Value"*, %"class.v8::PropertyCallbackInfo.1"*)* @_ZN12CJS_Document18set_subject_staticEN2v85LocalINS0_6StringEEENS1_INS0_5ValueEEERKNS0_20PropertyCallbackInfoIvEE }, %struct.JSPropertySpec { i8* getelementptr inbounds ([6 x i8], [6 x i8]* @.str.28, i32 0, i32 0), void (%"class.v8::String"*, %"class.v8::PropertyCallbackInfo"*)* @_ZN12CJS_Document16get_title_staticEN2v85LocalINS0_6StringEEERKNS0_20PropertyCallbackInfoINS0_5ValueEEE, void (%"class.v8::String"*, %"class.v8::Value"*, %"class.v8::PropertyCallbackInfo.1"*)* @_ZN12CJS_Document16set_title_staticEN2v85LocalINS0_6StringEEENS1_INS0_5ValueEEERKNS0_20PropertyCallbackInfoIvEE }, %struct.JSPropertySpec { i8* getelementptr inbounds ([4 x i8], [4 x i8]* @.str.29, i32 0, i32 0), void (%"class.v8::String"*, %"class.v8::PropertyCallbackInfo"*)* @_ZN12CJS_Document14get_URL_staticEN2v85LocalINS0_6StringEEERKNS0_20PropertyCallbackInfoINS0_5ValueEEE, void (%"class.v8::String"*, %"class.v8::Value"*, %"class.v8::PropertyCallbackInfo.1"*)* @_ZN12CJS_Document14set_URL_staticEN2v85LocalINS0_6StringEEENS1_INS0_5ValueEEERKNS0_20PropertyCallbackInfoIvEE }, %struct.JSPropertySpec { i8* getelementptr inbounds ([5 x i8], [5 x i8]* @.str.30, i32 0, i32 0), void (%"class.v8::String"*, %"class.v8::PropertyCallbackInfo"*)* @_ZN12CJS_Document15get_zoom_staticEN2v85LocalINS0_6StringEEERKNS0_20PropertyCallbackInfoINS0_5ValueEEE, void (%"class.v8::String"*, %"class.v8::Value"*, %"class.v8::PropertyCallbackInfo.1"*)* @_ZN12CJS_Document15set_zoom_staticEN2v85LocalINS0_6StringEEENS1_INS0_5ValueEEERKNS0_20PropertyCallbackInfoIvEE }, %struct.JSPropertySpec { i8* getelementptr inbounds ([9 x i8], [9 x i8]* @.str.31, i32 0, i32 0), void (%"class.v8::String"*, %"class.v8::PropertyCallbackInfo"*)* @_ZN12CJS_Document20get_zoom_type_staticEN2v85LocalINS0_6StringEEERKNS0_20PropertyCallbackInfoINS0_5ValueEEE, void (%"class.v8::String"*, %"class.v8::Value"*, %"class.v8::PropertyCallbackInfo.1"*)* @_ZN12CJS_Document20set_zoom_type_staticEN2v85LocalINS0_6StringEEENS1_INS0_5ValueEEERKNS0_20PropertyCallbackInfoIvEE }], align 16
@.str.32 = private unnamed_addr constant [9 x i8] c"addAnnot\00", align 1
@.str.33 = private unnamed_addr constant [9 x i8] c"addField\00", align 1
@.str.34 = private unnamed_addr constant [8 x i8] c"addLink\00", align 1
@.str.35 = private unnamed_addr constant [8 x i8] c"addIcon\00", align 1
@.str.36 = private unnamed_addr constant [13 x i8] c"calculateNow\00", align 1
@.str.37 = private unnamed_addr constant [9 x i8] c"closeDoc\00", align 1
@.str.38 = private unnamed_addr constant [17 x i8] c"createDataObject\00", align 1
@.str.39 = private unnamed_addr constant [12 x i8] c"deletePages\00", align 1
@.str.40 = private unnamed_addr constant [13 x i8] c"exportAsText\00", align 1
@.str.41 = private unnamed_addr constant [12 x i8] c"exportAsFDF\00", align 1
@.str.42 = private unnamed_addr constant [13 x i8] c"exportAsXFDF\00", align 1
@.str.43 = private unnamed_addr constant [13 x i8] c"extractPages\00", align 1
@.str.44 = private unnamed_addr constant [9 x i8] c"getAnnot\00", align 1
@.str.45 = private unnamed_addr constant [10 x i8] c"getAnnots\00", align 1
@.str.46 = private unnamed_addr constant [11 x i8] c"getAnnot3D\00", align 1
@.str.47 = private unnamed_addr constant [12 x i8] c"getAnnots3D\00", align 1
@.str.48 = private unnamed_addr constant [9 x i8] c"getField\00", align 1
@.str.49 = private unnamed_addr constant [8 x i8] c"getIcon\00", align 1
@.str.50 = private unnamed_addr constant [9 x i8] c"getLinks\00", align 1
@.str.51 = private unnamed_addr constant [16 x i8] c"getNthFieldName\00", align 1
@.str.52 = private unnamed_addr constant [8 x i8] c"getOCGs\00", align 1
@.str.53 = private unnamed_addr constant [11 x i8] c"getPageBox\00", align 1
@.str.54 = private unnamed_addr constant [15 x i8] c"getPageNthWord\00", align 1
@.str.55 = private unnamed_addr constant [20 x i8] c"getPageNthWordQuads\00", align 1
@.str.56 = private unnamed_addr constant [16 x i8] c"getPageNumWords\00", align 1
@.str.57 = private unnamed_addr constant [15 x i8] c"getPrintParams\00", align 1
@.str.58 = private unnamed_addr constant [7 x i8] c"getURL\00", align 1
@.str.59 = private unnamed_addr constant [14 x i8] c"gotoNamedDest\00", align 1
@.str.60 = private unnamed_addr constant [12 x i8] c"importAnFDF\00", align 1
@.str.61 = private unnamed_addr constant [13 x i8] c"importAnXFDF\00", align 1
@.str.62 = private unnamed_addr constant [15 x i8] c"importTextData\00", align 1
@.str.63 = private unnamed_addr constant [12 x i8] c"insertPages\00", align 1
@.str.64 = private unnamed_addr constant [8 x i8] c"mailDoc\00", align 1
@.str.65 = private unnamed_addr constant [9 x i8] c"mailForm\00", align 1
@.str.66 = private unnamed_addr constant [6 x i8] c"print\00", align 1
@.str.67 = private unnamed_addr constant [12 x i8] c"removeField\00", align 1
@.str.68 = private unnamed_addr constant [13 x i8] c"replacePages\00", align 1
@.str.69 = private unnamed_addr constant [10 x i8] c"resetForm\00", align 1
@.str.70 = private unnamed_addr constant [11 x i8] c"removeIcon\00", align 1
@.str.71 = private unnamed_addr constant [7 x i8] c"saveAs\00", align 1
@.str.72 = private unnamed_addr constant [11 x i8] c"submitForm\00", align 1
@.str.73 = private unnamed_addr constant [14 x i8] c"syncAnnotScan\00", align 1
@_ZN12CJS_Document11MethodSpecsE = hidden constant [42 x %struct.JSMethodSpec] [%struct.JSMethodSpec { i8* getelementptr inbounds ([9 x i8], [9 x i8]* @.str.32, i32 0, i32 0), void (%"class.v8::FunctionCallbackInfo"*)* @_ZN12CJS_Document15addAnnot_staticERKN2v820FunctionCallbackInfoINS0_5ValueEEE }, %struct.JSMethodSpec { i8* getelementptr inbounds ([9 x i8], [9 x i8]* @.str.33, i32 0, i32 0), void (%"class.v8::FunctionCallbackInfo"*)* @_ZN12CJS_Document15addField_staticERKN2v820FunctionCallbackInfoINS0_5ValueEEE }, %struct.JSMethodSpec { i8* getelementptr inbounds ([8 x i8], [8 x i8]* @.str.34, i32 0, i32 0), void (%"class.v8::FunctionCallbackInfo"*)* @_ZN12CJS_Document14addLink_staticERKN2v820FunctionCallbackInfoINS0_5ValueEEE }, %struct.JSMethodSpec { i8* getelementptr inbounds ([8 x i8], [8 x i8]* @.str.35, i32 0, i32 0), void (%"class.v8::FunctionCallbackInfo"*)* @_ZN12CJS_Document14addIcon_staticERKN2v820FunctionCallbackInfoINS0_5ValueEEE }, %struct.JSMethodSpec { i8* getelementptr inbounds ([13 x i8], [13 x i8]* @.str.36, i32 0, i32 0), void (%"class.v8::FunctionCallbackInfo"*)* @_ZN12CJS_Document19calculateNow_staticERKN2v820FunctionCallbackInfoINS0_5ValueEEE }, %struct.JSMethodSpec { i8* getelementptr inbounds ([9 x i8], [9 x i8]* @.str.37, i32 0, i32 0), void (%"class.v8::FunctionCallbackInfo"*)* @_ZN12CJS_Document15closeDoc_staticERKN2v820FunctionCallbackInfoINS0_5ValueEEE }, %struct.JSMethodSpec { i8* getelementptr inbounds ([17 x i8], [17 x i8]* @.str.38, i32 0, i32 0), void (%"class.v8::FunctionCallbackInfo"*)* @_ZN12CJS_Document23createDataObject_staticERKN2v820FunctionCallbackInfoINS0_5ValueEEE }, %struct.JSMethodSpec { i8* getelementptr inbounds ([12 x i8], [12 x i8]* @.str.39, i32 0, i32 0), void (%"class.v8::FunctionCallbackInfo"*)* @_ZN12CJS_Document18deletePages_staticERKN2v820FunctionCallbackInfoINS0_5ValueEEE }, %struct.JSMethodSpec { i8* getelementptr inbounds ([13 x i8], [13 x i8]* @.str.40, i32 0, i32 0), void (%"class.v8::FunctionCallbackInfo"*)* @_ZN12CJS_Document19exportAsText_staticERKN2v820FunctionCallbackInfoINS0_5ValueEEE }, %struct.JSMethodSpec { i8* getelementptr inbounds ([12 x i8], [12 x i8]* @.str.41, i32 0, i32 0), void (%"class.v8::FunctionCallbackInfo"*)* @_ZN12CJS_Document18exportAsFDF_staticERKN2v820FunctionCallbackInfoINS0_5ValueEEE }, %struct.JSMethodSpec { i8* getelementptr inbounds ([13 x i8], [13 x i8]* @.str.42, i32 0, i32 0), void (%"class.v8::FunctionCallbackInfo"*)* @_ZN12CJS_Document19exportAsXFDF_staticERKN2v820FunctionCallbackInfoINS0_5ValueEEE }, %struct.JSMethodSpec { i8* getelementptr inbounds ([13 x i8], [13 x i8]* @.str.43, i32 0, i32 0), void (%"class.v8::FunctionCallbackInfo"*)* @_ZN12CJS_Document19extractPages_staticERKN2v820FunctionCallbackInfoINS0_5ValueEEE }, %struct.JSMethodSpec { i8* getelementptr inbounds ([9 x i8], [9 x i8]* @.str.44, i32 0, i32 0), void (%"class.v8::FunctionCallbackInfo"*)* @_ZN12CJS_Document15getAnnot_staticERKN2v820FunctionCallbackInfoINS0_5ValueEEE }, %struct.JSMethodSpec { i8* getelementptr inbounds ([10 x i8], [10 x i8]* @.str.45, i32 0, i32 0), void (%"class.v8::FunctionCallbackInfo"*)* @_ZN12CJS_Document16getAnnots_staticERKN2v820FunctionCallbackInfoINS0_5ValueEEE }, %struct.JSMethodSpec { i8* getelementptr inbounds ([11 x i8], [11 x i8]* @.str.46, i32 0, i32 0), void (%"class.v8::FunctionCallbackInfo"*)* @_ZN12CJS_Document17getAnnot3D_staticERKN2v820FunctionCallbackInfoINS0_5ValueEEE }, %struct.JSMethodSpec { i8* getelementptr inbounds ([12 x i8], [12 x i8]* @.str.47, i32 0, i32 0), void (%"class.v8::FunctionCallbackInfo"*)* @_ZN12CJS_Document18getAnnots3D_staticERKN2v820FunctionCallbackInfoINS0_5ValueEEE }, %struct.JSMethodSpec { i8* getelementptr inbounds ([9 x i8], [9 x i8]* @.str.48, i32 0, i32 0), void (%"class.v8::FunctionCallbackInfo"*)* @_ZN12CJS_Document15getField_staticERKN2v820FunctionCallbackInfoINS0_5ValueEEE }, %struct.JSMethodSpec { i8* getelementptr inbounds ([8 x i8], [8 x i8]* @.str.49, i32 0, i32 0), void (%"class.v8::FunctionCallbackInfo"*)* @_ZN12CJS_Document14getIcon_staticERKN2v820FunctionCallbackInfoINS0_5ValueEEE }, %struct.JSMethodSpec { i8* getelementptr inbounds ([9 x i8], [9 x i8]* @.str.50, i32 0, i32 0), void (%"class.v8::FunctionCallbackInfo"*)* @_ZN12CJS_Document15getLinks_staticERKN2v820FunctionCallbackInfoINS0_5ValueEEE }, %struct.JSMethodSpec { i8* getelementptr inbounds ([16 x i8], [16 x i8]* @.str.51, i32 0, i32 0), void (%"class.v8::FunctionCallbackInfo"*)* @_ZN12CJS_Document22getNthFieldName_staticERKN2v820FunctionCallbackInfoINS0_5ValueEEE }, %struct.JSMethodSpec { i8* getelementptr inbounds ([8 x i8], [8 x i8]* @.str.52, i32 0, i32 0), void (%"class.v8::FunctionCallbackInfo"*)* @_ZN12CJS_Document14getOCGs_staticERKN2v820FunctionCallbackInfoINS0_5ValueEEE }, %struct.JSMethodSpec { i8* getelementptr inbounds ([11 x i8], [11 x i8]* @.str.53, i32 0, i32 0), void (%"class.v8::FunctionCallbackInfo"*)* @_ZN12CJS_Document17getPageBox_staticERKN2v820FunctionCallbackInfoINS0_5ValueEEE }, %struct.JSMethodSpec { i8* getelementptr inbounds ([15 x i8], [15 x i8]* @.str.54, i32 0, i32 0), void (%"class.v8::FunctionCallbackInfo"*)* @_ZN12CJS_Document21getPageNthWord_staticERKN2v820FunctionCallbackInfoINS0_5ValueEEE }, %struct.JSMethodSpec { i8* getelementptr inbounds ([20 x i8], [20 x i8]* @.str.55, i32 0, i32 0), void (%"class.v8::FunctionCallbackInfo"*)* @_ZN12CJS_Document26getPageNthWordQuads_staticERKN2v820FunctionCallbackInfoINS0_5ValueEEE }, %struct.JSMethodSpec { i8* getelementptr inbounds ([16 x i8], [16 x i8]* @.str.56, i32 0, i32 0), void (%"class.v8::FunctionCallbackInfo"*)* @_ZN12CJS_Document22getPageNumWords_staticERKN2v820FunctionCallbackInfoINS0_5ValueEEE }, %struct.JSMethodSpec { i8* getelementptr inbounds ([15 x i8], [15 x i8]* @.str.57, i32 0, i32 0), void (%"class.v8::FunctionCallbackInfo"*)* @_ZN12CJS_Document21getPrintParams_staticERKN2v820FunctionCallbackInfoINS0_5ValueEEE }, %struct.JSMethodSpec { i8* getelementptr inbounds ([7 x i8], [7 x i8]* @.str.58, i32 0, i32 0), void (%"class.v8::FunctionCallbackInfo"*)* @_ZN12CJS_Document13getURL_staticERKN2v820FunctionCallbackInfoINS0_5ValueEEE }, %struct.JSMethodSpec { i8* getelementptr inbounds ([14 x i8], [14 x i8]* @.str.59, i32 0, i32 0), void (%"class.v8::FunctionCallbackInfo"*)* @_ZN12CJS_Document20gotoNamedDest_staticERKN2v820FunctionCallbackInfoINS0_5ValueEEE }, %struct.JSMethodSpec { i8* getelementptr inbounds ([12 x i8], [12 x i8]* @.str.60, i32 0, i32 0), void (%"class.v8::FunctionCallbackInfo"*)* @_ZN12CJS_Document18importAnFDF_staticERKN2v820FunctionCallbackInfoINS0_5ValueEEE }, %struct.JSMethodSpec { i8* getelementptr inbounds ([13 x i8], [13 x i8]* @.str.61, i32 0, i32 0), void (%"class.v8::FunctionCallbackInfo"*)* @_ZN12CJS_Document19importAnXFDF_staticERKN2v820FunctionCallbackInfoINS0_5ValueEEE }, %struct.JSMethodSpec { i8* getelementptr inbounds ([15 x i8], [15 x i8]* @.str.62, i32 0, i32 0), void (%"class.v8::FunctionCallbackInfo"*)* @_ZN12CJS_Document21importTextData_staticERKN2v820FunctionCallbackInfoINS0_5ValueEEE }, %struct.JSMethodSpec { i8* getelementptr inbounds ([12 x i8], [12 x i8]* @.str.63, i32 0, i32 0), void (%"class.v8::FunctionCallbackInfo"*)* @_ZN12CJS_Document18insertPages_staticERKN2v820FunctionCallbackInfoINS0_5ValueEEE }, %struct.JSMethodSpec { i8* getelementptr inbounds ([8 x i8], [8 x i8]* @.str.64, i32 0, i32 0), void (%"class.v8::FunctionCallbackInfo"*)* @_ZN12CJS_Document14mailDoc_staticERKN2v820FunctionCallbackInfoINS0_5ValueEEE }, %struct.JSMethodSpec { i8* getelementptr inbounds ([9 x i8], [9 x i8]* @.str.65, i32 0, i32 0), void (%"class.v8::FunctionCallbackInfo"*)* @_ZN12CJS_Document15mailForm_staticERKN2v820FunctionCallbackInfoINS0_5ValueEEE }, %struct.JSMethodSpec { i8* getelementptr inbounds ([6 x i8], [6 x i8]* @.str.66, i32 0, i32 0), void (%"class.v8::FunctionCallbackInfo"*)* @_ZN12CJS_Document12print_staticERKN2v820FunctionCallbackInfoINS0_5ValueEEE }, %struct.JSMethodSpec { i8* getelementptr inbounds ([12 x i8], [12 x i8]* @.str.67, i32 0, i32 0), void (%"class.v8::FunctionCallbackInfo"*)* @_ZN12CJS_Document18removeField_staticERKN2v820FunctionCallbackInfoINS0_5ValueEEE }, %struct.JSMethodSpec { i8* getelementptr inbounds ([13 x i8], [13 x i8]* @.str.68, i32 0, i32 0), void (%"class.v8::FunctionCallbackInfo"*)* @_ZN12CJS_Document19replacePages_staticERKN2v820FunctionCallbackInfoINS0_5ValueEEE }, %struct.JSMethodSpec { i8* getelementptr inbounds ([10 x i8], [10 x i8]* @.str.69, i32 0, i32 0), void (%"class.v8::FunctionCallbackInfo"*)* @_ZN12CJS_Document16resetForm_staticERKN2v820FunctionCallbackInfoINS0_5ValueEEE }, %struct.JSMethodSpec { i8* getelementptr inbounds ([11 x i8], [11 x i8]* @.str.70, i32 0, i32 0), void (%"class.v8::FunctionCallbackInfo"*)* @_ZN12CJS_Document17removeIcon_staticERKN2v820FunctionCallbackInfoINS0_5ValueEEE }, %struct.JSMethodSpec { i8* getelementptr inbounds ([7 x i8], [7 x i8]* @.str.71, i32 0, i32 0), void (%"class.v8::FunctionCallbackInfo"*)* @_ZN12CJS_Document13saveAs_staticERKN2v820FunctionCallbackInfoINS0_5ValueEEE }, %struct.JSMethodSpec { i8* getelementptr inbounds ([11 x i8], [11 x i8]* @.str.72, i32 0, i32 0), void (%"class.v8::FunctionCallbackInfo"*)* @_ZN12CJS_Document17submitForm_staticERKN2v820FunctionCallbackInfoINS0_5ValueEEE }, %struct.JSMethodSpec { i8* getelementptr inbounds ([14 x i8], [14 x i8]* @.str.73, i32 0, i32 0), void (%"class.v8::FunctionCallbackInfo"*)* @_ZN12CJS_Document20syncAnnotScan_staticERKN2v820FunctionCallbackInfoINS0_5ValueEEE }], align 16
@_ZN12CJS_Document9ObjDefnIDE = hidden local_unnamed_addr global i32 0, align 4
@_ZN12CJS_Document5kNameE = hidden constant [9 x i8] c"Document\00", align 1
@_ZTV12CJS_Document = hidden unnamed_addr constant { [4 x i8*] } { [4 x i8*] [i8* null, i8* null, i8* bitcast (void (%class.CJS_Document*)* @_ZN12CJS_DocumentD2Ev to i8*), i8* bitcast (void (%class.CJS_Document*)* @_ZN12CJS_DocumentD0Ev to i8*)] }, align 8
@.str.74 = private unnamed_addr constant [4 x i8] c"bUI\00", align 1
@.str.75 = private unnamed_addr constant [4 x i8] c"cTo\00", align 1
@.str.76 = private unnamed_addr constant [4 x i8] c"cCc\00", align 1
@.str.77 = private unnamed_addr constant [5 x i8] c"cBcc\00", align 1
@.str.78 = private unnamed_addr constant [9 x i8] c"cSubject\00", align 1
@.str.79 = private unnamed_addr constant [5 x i8] c"cMsg\00", align 1
@.str.80 = private unnamed_addr constant [16 x i32] [i32 66, i32 97, i32 100, i32 32, i32 70, i32 68, i32 70, i32 32, i32 102, i32 111, i32 114, i32 109, i32 97, i32 116, i32 46, i32 0], align 4
@.str.81 = private unnamed_addr constant [7 x i8] c"nStart\00", align 1
@.str.82 = private unnamed_addr constant [5 x i8] c"nEnd\00", align 1
@.str.83 = private unnamed_addr constant [8 x i8] c"bSilent\00", align 1
@.str.84 = private unnamed_addr constant [13 x i8] c"bShrinkToFit\00", align 1
@.str.85 = private unnamed_addr constant [14 x i8] c"bPrintAsImage\00", align 1
@.str.86 = private unnamed_addr constant [9 x i8] c"bReverse\00", align 1
@.str.87 = private unnamed_addr constant [13 x i8] c"bAnnotations\00", align 1
@.str.88 = private unnamed_addr constant [5 x i8] c"cURL\00", align 1
@.str.89 = private unnamed_addr constant [5 x i8] c"bFDF\00", align 1
@.str.90 = private unnamed_addr constant [7 x i8] c"bEmpty\00", align 1
@.str.91 = private unnamed_addr constant [8 x i8] c"aFields\00", align 1
@.str.92 = private unnamed_addr constant [7 x i8] c"Author\00", align 1
@.str.93 = private unnamed_addr constant [6 x i8] c"Title\00", align 1
@.str.94 = private unnamed_addr constant [8 x i8] c"Subject\00", align 1
@.str.95 = private unnamed_addr constant [9 x i8] c"Keywords\00", align 1
@.str.96 = private unnamed_addr constant [8 x i8] c"Creator\00", align 1
@.str.97 = private unnamed_addr constant [9 x i8] c"Producer\00", align 1
@.str.98 = private unnamed_addr constant [13 x i8] c"CreationDate\00", align 1
@.str.99 = private unnamed_addr constant [8 x i8] c"ModDate\00", align 1
@.str.100 = private unnamed_addr constant [8 x i8] c"Trapped\00", align 1
@.str.101 = private unnamed_addr constant [1 x i8] zeroinitializer, align 1
@_ZTVN5fxcrt11ObservedPtrI27CPDFSDK_FormFillEnvironmentEE = linkonce_odr hidden unnamed_addr constant { [5 x i8*] } { [5 x i8*] [i8* null, i8* null, i8* bitcast (void (%"class.fxcrt::ObservedPtr.39"*)* @_ZN5fxcrt11ObservedPtrI27CPDFSDK_FormFillEnvironmentED2Ev to i8*), i8* bitcast (void (%"class.fxcrt::ObservedPtr.39"*)* @_ZN5fxcrt11ObservedPtrI27CPDFSDK_FormFillEnvironmentED0Ev to i8*), i8* bitcast (void (%"class.fxcrt::ObservedPtr.39"*)* @_ZN5fxcrt11ObservedPtrI27CPDFSDK_FormFillEnvironmentE21OnObservableDestroyedEv to i8*)] }, comdat, align 8
@.str.103 = private unnamed_addr constant [1 x i32] zeroinitializer, align 4
@_ZZNSt3__110__function8__policy15__choose_policyINS0_20__default_alloc_funcIPFvP12CFXJS_EngineN2v85LocalINS6_6ObjectEEEESA_EEEEPKS1_NS_17integral_constantIbLb1EEEE9__policy_ = linkonce_odr hidden constant %"struct.std::__1::__function::__policy" zeroinitializer, comdat, align 8
@_ZZNSt3__110__function8__policy15__choose_policyINS0_20__default_alloc_funcIPFvN2v85LocalINS4_6ObjectEEEES8_EEEEPKS1_NS_17integral_constantIbLb1EEEE9__policy_ = linkonce_odr hidden constant %"struct.std::__1::__function::__policy" zeroinitializer, comdat, align 8
@_ZTVN5fxcrt11ObservedPtrI13CPDFSDK_AnnotEE = linkonce_odr hidden unnamed_addr constant { [5 x i8*] } { [5 x i8*] [i8* null, i8* null, i8* bitcast (void (%"class.fxcrt::ObservedPtr.262"*)* @_ZN5fxcrt11ObservedPtrI13CPDFSDK_AnnotED2Ev to i8*), i8* bitcast (void (%"class.fxcrt::ObservedPtr.262"*)* @_ZN5fxcrt11ObservedPtrI13CPDFSDK_AnnotED0Ev to i8*), i8* bitcast (void (%"class.fxcrt::ObservedPtr.262"*)* @_ZN5fxcrt11ObservedPtrI13CPDFSDK_AnnotE21OnObservableDestroyedEv to i8*)] }, comdat, align 8

@_ZN12CJS_DocumentC1EN2v85LocalINS0_6ObjectEEEP11CJS_Runtime = hidden unnamed_addr alias void (%class.CJS_Document*, %"class.v8::Object"*, %class.CJS_Runtime*), void (%class.CJS_Document*, %"class.v8::Object"*, %class.CJS_Runtime*)* @_ZN12CJS_DocumentC2EN2v85LocalINS0_6ObjectEEEP11CJS_Runtime
@_ZN12CJS_DocumentD1Ev = hidden unnamed_addr alias void (%class.CJS_Document*), void (%class.CJS_Document*)* @_ZN12CJS_DocumentD2Ev

; Function Attrs: nounwind ssp uwtable
define linkonce_odr hidden void @_ZN12CJS_Document15get_ADBE_staticEN2v85LocalINS0_6StringEEERKNS0_20PropertyCallbackInfoINS0_5ValueEEE(%"class.v8::String"*, %"class.v8::PropertyCallbackInfo"* dereferenceable(8)) #0 comdat align 2 {
  tail call void @_Z12JSPropGetterI12CJS_DocumentXadL_ZNS0_8get_ADBEEP11CJS_RuntimeEEEvPKcS4_N2v85LocalINS5_6StringEEERKNS5_20PropertyCallbackInfoINS5_5ValueEEE(i8* getelementptr inbounds ([5 x i8], [5 x i8]* @.str, i64 0, i64 0), i8* getelementptr inbounds ([9 x i8], [9 x i8]* @_ZN12CJS_Document5kNameE, i64 0, i64 0), %"class.v8::String"* %0, %"class.v8::PropertyCallbackInfo"* dereferenceable(8) %1)
  ret void
}

; Function Attrs: nounwind ssp uwtable
define linkonce_odr hidden void @_ZN12CJS_Document15set_ADBE_staticEN2v85LocalINS0_6StringEEENS1_INS0_5ValueEEERKNS0_20PropertyCallbackInfoIvEE(%"class.v8::String"*, %"class.v8::Value"*, %"class.v8::PropertyCallbackInfo.1"* dereferenceable(8)) #0 comdat align 2 {
  tail call void @_Z12JSPropSetterI12CJS_DocumentXadL_ZNS0_8set_ADBEEP11CJS_RuntimeN2v85LocalINS3_5ValueEEEEEEvPKcS8_NS4_INS3_6StringEEES6_RKNS3_20PropertyCallbackInfoIvEE(i8* getelementptr inbounds ([5 x i8], [5 x i8]* @.str, i64 0, i64 0), i8* getelementptr inbounds ([9 x i8], [9 x i8]* @_ZN12CJS_Document5kNameE, i64 0, i64 0), %"class.v8::String"* %0, %"class.v8::Value"* %1, %"class.v8::PropertyCallbackInfo.1"* dereferenceable(8) %2)
  ret void
}

; Function Attrs: nounwind ssp uwtable
define linkonce_odr hidden void @_ZN12CJS_Document17get_author_staticEN2v85LocalINS0_6StringEEERKNS0_20PropertyCallbackInfoINS0_5ValueEEE(%"class.v8::String"*, %"class.v8::PropertyCallbackInfo"* dereferenceable(8)) #0 comdat align 2 {
  tail call void @_Z12JSPropGetterI12CJS_DocumentXadL_ZNS0_10get_authorEP11CJS_RuntimeEEEvPKcS4_N2v85LocalINS5_6StringEEERKNS5_20PropertyCallbackInfoINS5_5ValueEEE(i8* getelementptr inbounds ([7 x i8], [7 x i8]* @.str.1, i64 0, i64 0), i8* getelementptr inbounds ([9 x i8], [9 x i8]* @_ZN12CJS_Document5kNameE, i64 0, i64 0), %"class.v8::String"* %0, %"class.v8::PropertyCallbackInfo"* dereferenceable(8) %1)
  ret void
}

; Function Attrs: nounwind ssp uwtable
define linkonce_odr hidden void @_ZN12CJS_Document17set_author_staticEN2v85LocalINS0_6StringEEENS1_INS0_5ValueEEERKNS0_20PropertyCallbackInfoIvEE(%"class.v8::String"*, %"class.v8::Value"*, %"class.v8::PropertyCallbackInfo.1"* dereferenceable(8)) #0 comdat align 2 {
  tail call void @_Z12JSPropSetterI12CJS_DocumentXadL_ZNS0_10set_authorEP11CJS_RuntimeN2v85LocalINS3_5ValueEEEEEEvPKcS8_NS4_INS3_6StringEEES6_RKNS3_20PropertyCallbackInfoIvEE(i8* getelementptr inbounds ([7 x i8], [7 x i8]* @.str.1, i64 0, i64 0), i8* getelementptr inbounds ([9 x i8], [9 x i8]* @_ZN12CJS_Document5kNameE, i64 0, i64 0), %"class.v8::String"* %0, %"class.v8::Value"* %1, %"class.v8::PropertyCallbackInfo.1"* dereferenceable(8) %2)
  ret void
}

; Function Attrs: nounwind ssp uwtable
define linkonce_odr hidden void @_ZN12CJS_Document19get_base_URL_staticEN2v85LocalINS0_6StringEEERKNS0_20PropertyCallbackInfoINS0_5ValueEEE(%"class.v8::String"*, %"class.v8::PropertyCallbackInfo"* dereferenceable(8)) #0 comdat align 2 {
  tail call void @_Z12JSPropGetterI12CJS_DocumentXadL_ZNS0_12get_base_URLEP11CJS_RuntimeEEEvPKcS4_N2v85LocalINS5_6StringEEERKNS5_20PropertyCallbackInfoINS5_5ValueEEE(i8* getelementptr inbounds ([8 x i8], [8 x i8]* @.str.2, i64 0, i64 0), i8* getelementptr inbounds ([9 x i8], [9 x i8]* @_ZN12CJS_Document5kNameE, i64 0, i64 0), %"class.v8::String"* %0, %"class.v8::PropertyCallbackInfo"* dereferenceable(8) %1)
  ret void
}

; Function Attrs: nounwind ssp uwtable
define linkonce_odr hidden void @_ZN12CJS_Document19set_base_URL_staticEN2v85LocalINS0_6StringEEENS1_INS0_5ValueEEERKNS0_20PropertyCallbackInfoIvEE(%"class.v8::String"*, %"class.v8::Value"*, %"class.v8::PropertyCallbackInfo.1"* dereferenceable(8)) #0 comdat align 2 {
  tail call void @_Z12JSPropSetterI12CJS_DocumentXadL_ZNS0_12set_base_URLEP11CJS_RuntimeN2v85LocalINS3_5ValueEEEEEEvPKcS8_NS4_INS3_6StringEEES6_RKNS3_20PropertyCallbackInfoIvEE(i8* getelementptr inbounds ([8 x i8], [8 x i8]* @.str.2, i64 0, i64 0), i8* getelementptr inbounds ([9 x i8], [9 x i8]* @_ZN12CJS_Document5kNameE, i64 0, i64 0), %"class.v8::String"* %0, %"class.v8::Value"* %1, %"class.v8::PropertyCallbackInfo.1"* dereferenceable(8) %2)
  ret void
}

; Function Attrs: nounwind ssp uwtable
define linkonce_odr hidden void @_ZN12CJS_Document24get_bookmark_root_staticEN2v85LocalINS0_6StringEEERKNS0_20PropertyCallbackInfoINS0_5ValueEEE(%"class.v8::String"*, %"class.v8::PropertyCallbackInfo"* dereferenceable(8)) #0 comdat align 2 {
  tail call void @_Z12JSPropGetterI12CJS_DocumentXadL_ZNS0_17get_bookmark_rootEP11CJS_RuntimeEEEvPKcS4_N2v85LocalINS5_6StringEEERKNS5_20PropertyCallbackInfoINS5_5ValueEEE(i8* getelementptr inbounds ([13 x i8], [13 x i8]* @.str.3, i64 0, i64 0), i8* getelementptr inbounds ([9 x i8], [9 x i8]* @_ZN12CJS_Document5kNameE, i64 0, i64 0), %"class.v8::String"* %0, %"class.v8::PropertyCallbackInfo"* dereferenceable(8) %1)
  ret void
}

; Function Attrs: nounwind ssp uwtable
define linkonce_odr hidden void @_ZN12CJS_Document24set_bookmark_root_staticEN2v85LocalINS0_6StringEEENS1_INS0_5ValueEEERKNS0_20PropertyCallbackInfoIvEE(%"class.v8::String"*, %"class.v8::Value"*, %"class.v8::PropertyCallbackInfo.1"* dereferenceable(8)) #0 comdat align 2 {
  tail call void @_Z12JSPropSetterI12CJS_DocumentXadL_ZNS0_17set_bookmark_rootEP11CJS_RuntimeN2v85LocalINS3_5ValueEEEEEEvPKcS8_NS4_INS3_6StringEEES6_RKNS3_20PropertyCallbackInfoIvEE(i8* getelementptr inbounds ([13 x i8], [13 x i8]* @.str.3, i64 0, i64 0), i8* getelementptr inbounds ([9 x i8], [9 x i8]* @_ZN12CJS_Document5kNameE, i64 0, i64 0), %"class.v8::String"* %0, %"class.v8::Value"* %1, %"class.v8::PropertyCallbackInfo.1"* dereferenceable(8) %2)
  ret void
}

; Function Attrs: nounwind ssp uwtable
define linkonce_odr hidden void @_ZN12CJS_Document20get_calculate_staticEN2v85LocalINS0_6StringEEERKNS0_20PropertyCallbackInfoINS0_5ValueEEE(%"class.v8::String"*, %"class.v8::PropertyCallbackInfo"* dereferenceable(8)) #0 comdat align 2 {
  tail call void @_Z12JSPropGetterI12CJS_DocumentXadL_ZNS0_13get_calculateEP11CJS_RuntimeEEEvPKcS4_N2v85LocalINS5_6StringEEERKNS5_20PropertyCallbackInfoINS5_5ValueEEE(i8* getelementptr inbounds ([10 x i8], [10 x i8]* @.str.4, i64 0, i64 0), i8* getelementptr inbounds ([9 x i8], [9 x i8]* @_ZN12CJS_Document5kNameE, i64 0, i64 0), %"class.v8::String"* %0, %"class.v8::PropertyCallbackInfo"* dereferenceable(8) %1)
  ret void
}

; Function Attrs: nounwind ssp uwtable
define linkonce_odr hidden void @_ZN12CJS_Document20set_calculate_staticEN2v85LocalINS0_6StringEEENS1_INS0_5ValueEEERKNS0_20PropertyCallbackInfoIvEE(%"class.v8::String"*, %"class.v8::Value"*, %"class.v8::PropertyCallbackInfo.1"* dereferenceable(8)) #0 comdat align 2 {
  tail call void @_Z12JSPropSetterI12CJS_DocumentXadL_ZNS0_13set_calculateEP11CJS_RuntimeN2v85LocalINS3_5ValueEEEEEEvPKcS8_NS4_INS3_6StringEEES6_RKNS3_20PropertyCallbackInfoIvEE(i8* getelementptr inbounds ([10 x i8], [10 x i8]* @.str.4, i64 0, i64 0), i8* getelementptr inbounds ([9 x i8], [9 x i8]* @_ZN12CJS_Document5kNameE, i64 0, i64 0), %"class.v8::String"* %0, %"class.v8::Value"* %1, %"class.v8::PropertyCallbackInfo.1"* dereferenceable(8) %2)
  ret void
}

; Function Attrs: nounwind ssp uwtable
define linkonce_odr hidden void @_ZN12CJS_Document17get_collab_staticEN2v85LocalINS0_6StringEEERKNS0_20PropertyCallbackInfoINS0_5ValueEEE(%"class.v8::String"*, %"class.v8::PropertyCallbackInfo"* dereferenceable(8)) #0 comdat align 2 {
  tail call void @_Z12JSPropGetterI12CJS_DocumentXadL_ZNS0_10get_collabEP11CJS_RuntimeEEEvPKcS4_N2v85LocalINS5_6StringEEERKNS5_20PropertyCallbackInfoINS5_5ValueEEE(i8* getelementptr inbounds ([7 x i8], [7 x i8]* @.str.5, i64 0, i64 0), i8* getelementptr inbounds ([9 x i8], [9 x i8]* @_ZN12CJS_Document5kNameE, i64 0, i64 0), %"class.v8::String"* %0, %"class.v8::PropertyCallbackInfo"* dereferenceable(8) %1)
  ret void
}

; Function Attrs: nounwind ssp uwtable
define linkonce_odr hidden void @_ZN12CJS_Document17set_collab_staticEN2v85LocalINS0_6StringEEENS1_INS0_5ValueEEERKNS0_20PropertyCallbackInfoIvEE(%"class.v8::String"*, %"class.v8::Value"*, %"class.v8::PropertyCallbackInfo.1"* dereferenceable(8)) #0 comdat align 2 {
  tail call void @_Z12JSPropSetterI12CJS_DocumentXadL_ZNS0_10set_collabEP11CJS_RuntimeN2v85LocalINS3_5ValueEEEEEEvPKcS8_NS4_INS3_6StringEEES6_RKNS3_20PropertyCallbackInfoIvEE(i8* getelementptr inbounds ([7 x i8], [7 x i8]* @.str.5, i64 0, i64 0), i8* getelementptr inbounds ([9 x i8], [9 x i8]* @_ZN12CJS_Document5kNameE, i64 0, i64 0), %"class.v8::String"* %0, %"class.v8::Value"* %1, %"class.v8::PropertyCallbackInfo.1"* dereferenceable(8) %2)
  ret void
}

; Function Attrs: nounwind ssp uwtable
define linkonce_odr hidden void @_ZN12CJS_Document24get_creation_date_staticEN2v85LocalINS0_6StringEEERKNS0_20PropertyCallbackInfoINS0_5ValueEEE(%"class.v8::String"*, %"class.v8::PropertyCallbackInfo"* dereferenceable(8)) #0 comdat align 2 {
  tail call void @_Z12JSPropGetterI12CJS_DocumentXadL_ZNS0_17get_creation_dateEP11CJS_RuntimeEEEvPKcS4_N2v85LocalINS5_6StringEEERKNS5_20PropertyCallbackInfoINS5_5ValueEEE(i8* getelementptr inbounds ([13 x i8], [13 x i8]* @.str.6, i64 0, i64 0), i8* getelementptr inbounds ([9 x i8], [9 x i8]* @_ZN12CJS_Document5kNameE, i64 0, i64 0), %"class.v8::String"* %0, %"class.v8::PropertyCallbackInfo"* dereferenceable(8) %1)
  ret void
}

; Function Attrs: nounwind ssp uwtable
define linkonce_odr hidden void @_ZN12CJS_Document24set_creation_date_staticEN2v85LocalINS0_6StringEEENS1_INS0_5ValueEEERKNS0_20PropertyCallbackInfoIvEE(%"class.v8::String"*, %"class.v8::Value"*, %"class.v8::PropertyCallbackInfo.1"* dereferenceable(8)) #0 comdat align 2 {
  tail call void @_Z12JSPropSetterI12CJS_DocumentXadL_ZNS0_17set_creation_dateEP11CJS_RuntimeN2v85LocalINS3_5ValueEEEEEEvPKcS8_NS4_INS3_6StringEEES6_RKNS3_20PropertyCallbackInfoIvEE(i8* getelementptr inbounds ([13 x i8], [13 x i8]* @.str.6, i64 0, i64 0), i8* getelementptr inbounds ([9 x i8], [9 x i8]* @_ZN12CJS_Document5kNameE, i64 0, i64 0), %"class.v8::String"* %0, %"class.v8::Value"* %1, %"class.v8::PropertyCallbackInfo.1"* dereferenceable(8) %2)
  ret void
}

; Function Attrs: nounwind ssp uwtable
define linkonce_odr hidden void @_ZN12CJS_Document18get_creator_staticEN2v85LocalINS0_6StringEEERKNS0_20PropertyCallbackInfoINS0_5ValueEEE(%"class.v8::String"*, %"class.v8::PropertyCallbackInfo"* dereferenceable(8)) #0 comdat align 2 {
  tail call void @_Z12JSPropGetterI12CJS_DocumentXadL_ZNS0_11get_creatorEP11CJS_RuntimeEEEvPKcS4_N2v85LocalINS5_6StringEEERKNS5_20PropertyCallbackInfoINS5_5ValueEEE(i8* getelementptr inbounds ([8 x i8], [8 x i8]* @.str.7, i64 0, i64 0), i8* getelementptr inbounds ([9 x i8], [9 x i8]* @_ZN12CJS_Document5kNameE, i64 0, i64 0), %"class.v8::String"* %0, %"class.v8::PropertyCallbackInfo"* dereferenceable(8) %1)
  ret void
}

; Function Attrs: nounwind ssp uwtable
define linkonce_odr hidden void @_ZN12CJS_Document18set_creator_staticEN2v85LocalINS0_6StringEEENS1_INS0_5ValueEEERKNS0_20PropertyCallbackInfoIvEE(%"class.v8::String"*, %"class.v8::Value"*, %"class.v8::PropertyCallbackInfo.1"* dereferenceable(8)) #0 comdat align 2 {
  tail call void @_Z12JSPropSetterI12CJS_DocumentXadL_ZNS0_11set_creatorEP11CJS_RuntimeN2v85LocalINS3_5ValueEEEEEEvPKcS8_NS4_INS3_6StringEEES6_RKNS3_20PropertyCallbackInfoIvEE(i8* getelementptr inbounds ([8 x i8], [8 x i8]* @.str.7, i64 0, i64 0), i8* getelementptr inbounds ([9 x i8], [9 x i8]* @_ZN12CJS_Document5kNameE, i64 0, i64 0), %"class.v8::String"* %0, %"class.v8::Value"* %1, %"class.v8::PropertyCallbackInfo.1"* dereferenceable(8) %2)
  ret void
}

; Function Attrs: nounwind ssp uwtable
define linkonce_odr hidden void @_ZN12CJS_Document16get_delay_staticEN2v85LocalINS0_6StringEEERKNS0_20PropertyCallbackInfoINS0_5ValueEEE(%"class.v8::String"*, %"class.v8::PropertyCallbackInfo"* dereferenceable(8)) #0 comdat align 2 {
  tail call void @_Z12JSPropGetterI12CJS_DocumentXadL_ZNS0_9get_delayEP11CJS_RuntimeEEEvPKcS4_N2v85LocalINS5_6StringEEERKNS5_20PropertyCallbackInfoINS5_5ValueEEE(i8* getelementptr inbounds ([6 x i8], [6 x i8]* @.str.8, i64 0, i64 0), i8* getelementptr inbounds ([9 x i8], [9 x i8]* @_ZN12CJS_Document5kNameE, i64 0, i64 0), %"class.v8::String"* %0, %"class.v8::PropertyCallbackInfo"* dereferenceable(8) %1)
  ret void
}

; Function Attrs: nounwind ssp uwtable
define linkonce_odr hidden void @_ZN12CJS_Document16set_delay_staticEN2v85LocalINS0_6StringEEENS1_INS0_5ValueEEERKNS0_20PropertyCallbackInfoIvEE(%"class.v8::String"*, %"class.v8::Value"*, %"class.v8::PropertyCallbackInfo.1"* dereferenceable(8)) #0 comdat align 2 {
  tail call void @_Z12JSPropSetterI12CJS_DocumentXadL_ZNS0_9set_delayEP11CJS_RuntimeN2v85LocalINS3_5ValueEEEEEEvPKcS8_NS4_INS3_6StringEEES6_RKNS3_20PropertyCallbackInfoIvEE(i8* getelementptr inbounds ([6 x i8], [6 x i8]* @.str.8, i64 0, i64 0), i8* getelementptr inbounds ([9 x i8], [9 x i8]* @_ZN12CJS_Document5kNameE, i64 0, i64 0), %"class.v8::String"* %0, %"class.v8::Value"* %1, %"class.v8::PropertyCallbackInfo.1"* dereferenceable(8) %2)
  ret void
}

; Function Attrs: nounwind ssp uwtable
define linkonce_odr hidden void @_ZN12CJS_Document16get_dirty_staticEN2v85LocalINS0_6StringEEERKNS0_20PropertyCallbackInfoINS0_5ValueEEE(%"class.v8::String"*, %"class.v8::PropertyCallbackInfo"* dereferenceable(8)) #0 comdat align 2 {
  tail call void @_Z12JSPropGetterI12CJS_DocumentXadL_ZNS0_9get_dirtyEP11CJS_RuntimeEEEvPKcS4_N2v85LocalINS5_6StringEEERKNS5_20PropertyCallbackInfoINS5_5ValueEEE(i8* getelementptr inbounds ([6 x i8], [6 x i8]* @.str.9, i64 0, i64 0), i8* getelementptr inbounds ([9 x i8], [9 x i8]* @_ZN12CJS_Document5kNameE, i64 0, i64 0), %"class.v8::String"* %0, %"class.v8::PropertyCallbackInfo"* dereferenceable(8) %1)
  ret void
}

; Function Attrs: nounwind ssp uwtable
define linkonce_odr hidden void @_ZN12CJS_Document16set_dirty_staticEN2v85LocalINS0_6StringEEENS1_INS0_5ValueEEERKNS0_20PropertyCallbackInfoIvEE(%"class.v8::String"*, %"class.v8::Value"*, %"class.v8::PropertyCallbackInfo.1"* dereferenceable(8)) #0 comdat align 2 {
  tail call void @_Z12JSPropSetterI12CJS_DocumentXadL_ZNS0_9set_dirtyEP11CJS_RuntimeN2v85LocalINS3_5ValueEEEEEEvPKcS8_NS4_INS3_6StringEEES6_RKNS3_20PropertyCallbackInfoIvEE(i8* getelementptr inbounds ([6 x i8], [6 x i8]* @.str.9, i64 0, i64 0), i8* getelementptr inbounds ([9 x i8], [9 x i8]* @_ZN12CJS_Document5kNameE, i64 0, i64 0), %"class.v8::String"* %0, %"class.v8::Value"* %1, %"class.v8::PropertyCallbackInfo.1"* dereferenceable(8) %2)
  ret void
}

; Function Attrs: nounwind ssp uwtable
define linkonce_odr hidden void @_ZN12CJS_Document29get_document_file_name_staticEN2v85LocalINS0_6StringEEERKNS0_20PropertyCallbackInfoINS0_5ValueEEE(%"class.v8::String"*, %"class.v8::PropertyCallbackInfo"* dereferenceable(8)) #0 comdat align 2 {
  tail call void @_Z12JSPropGetterI12CJS_DocumentXadL_ZNS0_22get_document_file_nameEP11CJS_RuntimeEEEvPKcS4_N2v85LocalINS5_6StringEEERKNS5_20PropertyCallbackInfoINS5_5ValueEEE(i8* getelementptr inbounds ([17 x i8], [17 x i8]* @.str.10, i64 0, i64 0), i8* getelementptr inbounds ([9 x i8], [9 x i8]* @_ZN12CJS_Document5kNameE, i64 0, i64 0), %"class.v8::String"* %0, %"class.v8::PropertyCallbackInfo"* dereferenceable(8) %1)
  ret void
}

; Function Attrs: nounwind ssp uwtable
define linkonce_odr hidden void @_ZN12CJS_Document29set_document_file_name_staticEN2v85LocalINS0_6StringEEENS1_INS0_5ValueEEERKNS0_20PropertyCallbackInfoIvEE(%"class.v8::String"*, %"class.v8::Value"*, %"class.v8::PropertyCallbackInfo.1"* dereferenceable(8)) #0 comdat align 2 {
  tail call void @_Z12JSPropSetterI12CJS_DocumentXadL_ZNS0_22set_document_file_nameEP11CJS_RuntimeN2v85LocalINS3_5ValueEEEEEEvPKcS8_NS4_INS3_6StringEEES6_RKNS3_20PropertyCallbackInfoIvEE(i8* getelementptr inbounds ([17 x i8], [17 x i8]* @.str.10, i64 0, i64 0), i8* getelementptr inbounds ([9 x i8], [9 x i8]* @_ZN12CJS_Document5kNameE, i64 0, i64 0), %"class.v8::String"* %0, %"class.v8::Value"* %1, %"class.v8::PropertyCallbackInfo.1"* dereferenceable(8) %2)
  ret void
}

; Function Attrs: nounwind ssp uwtable
define linkonce_odr hidden void @_ZN12CJS_Document19get_external_staticEN2v85LocalINS0_6StringEEERKNS0_20PropertyCallbackInfoINS0_5ValueEEE(%"class.v8::String"*, %"class.v8::PropertyCallbackInfo"* dereferenceable(8)) #0 comdat align 2 {
  tail call void @_Z12JSPropGetterI12CJS_DocumentXadL_ZNS0_12get_externalEP11CJS_RuntimeEEEvPKcS4_N2v85LocalINS5_6StringEEERKNS5_20PropertyCallbackInfoINS5_5ValueEEE(i8* getelementptr inbounds ([9 x i8], [9 x i8]* @.str.11, i64 0, i64 0), i8* getelementptr inbounds ([9 x i8], [9 x i8]* @_ZN12CJS_Document5kNameE, i64 0, i64 0), %"class.v8::String"* %0, %"class.v8::PropertyCallbackInfo"* dereferenceable(8) %1)
  ret void
}

; Function Attrs: nounwind ssp uwtable
define linkonce_odr hidden void @_ZN12CJS_Document19set_external_staticEN2v85LocalINS0_6StringEEENS1_INS0_5ValueEEERKNS0_20PropertyCallbackInfoIvEE(%"class.v8::String"*, %"class.v8::Value"*, %"class.v8::PropertyCallbackInfo.1"* dereferenceable(8)) #0 comdat align 2 {
  tail call void @_Z12JSPropSetterI12CJS_DocumentXadL_ZNS0_12set_externalEP11CJS_RuntimeN2v85LocalINS3_5ValueEEEEEEvPKcS8_NS4_INS3_6StringEEES6_RKNS3_20PropertyCallbackInfoIvEE(i8* getelementptr inbounds ([9 x i8], [9 x i8]* @.str.11, i64 0, i64 0), i8* getelementptr inbounds ([9 x i8], [9 x i8]* @_ZN12CJS_Document5kNameE, i64 0, i64 0), %"class.v8::String"* %0, %"class.v8::Value"* %1, %"class.v8::PropertyCallbackInfo.1"* dereferenceable(8) %2)
  ret void
}

; Function Attrs: nounwind ssp uwtable
define linkonce_odr hidden void @_ZN12CJS_Document19get_filesize_staticEN2v85LocalINS0_6StringEEERKNS0_20PropertyCallbackInfoINS0_5ValueEEE(%"class.v8::String"*, %"class.v8::PropertyCallbackInfo"* dereferenceable(8)) #0 comdat align 2 {
  tail call void @_Z12JSPropGetterI12CJS_DocumentXadL_ZNS0_12get_filesizeEP11CJS_RuntimeEEEvPKcS4_N2v85LocalINS5_6StringEEERKNS5_20PropertyCallbackInfoINS5_5ValueEEE(i8* getelementptr inbounds ([9 x i8], [9 x i8]* @.str.12, i64 0, i64 0), i8* getelementptr inbounds ([9 x i8], [9 x i8]* @_ZN12CJS_Document5kNameE, i64 0, i64 0), %"class.v8::String"* %0, %"class.v8::PropertyCallbackInfo"* dereferenceable(8) %1)
  ret void
}

; Function Attrs: nounwind ssp uwtable
define linkonce_odr hidden void @_ZN12CJS_Document19set_filesize_staticEN2v85LocalINS0_6StringEEENS1_INS0_5ValueEEERKNS0_20PropertyCallbackInfoIvEE(%"class.v8::String"*, %"class.v8::Value"*, %"class.v8::PropertyCallbackInfo.1"* dereferenceable(8)) #0 comdat align 2 {
  tail call void @_Z12JSPropSetterI12CJS_DocumentXadL_ZNS0_12set_filesizeEP11CJS_RuntimeN2v85LocalINS3_5ValueEEEEEEvPKcS8_NS4_INS3_6StringEEES6_RKNS3_20PropertyCallbackInfoIvEE(i8* getelementptr inbounds ([9 x i8], [9 x i8]* @.str.12, i64 0, i64 0), i8* getelementptr inbounds ([9 x i8], [9 x i8]* @_ZN12CJS_Document5kNameE, i64 0, i64 0), %"class.v8::String"* %0, %"class.v8::Value"* %1, %"class.v8::PropertyCallbackInfo.1"* dereferenceable(8) %2)
  ret void
}

; Function Attrs: nounwind ssp uwtable
define linkonce_odr hidden void @_ZN12CJS_Document16get_icons_staticEN2v85LocalINS0_6StringEEERKNS0_20PropertyCallbackInfoINS0_5ValueEEE(%"class.v8::String"*, %"class.v8::PropertyCallbackInfo"* dereferenceable(8)) #0 comdat align 2 {
  tail call void @_Z12JSPropGetterI12CJS_DocumentXadL_ZNS0_9get_iconsEP11CJS_RuntimeEEEvPKcS4_N2v85LocalINS5_6StringEEERKNS5_20PropertyCallbackInfoINS5_5ValueEEE(i8* getelementptr inbounds ([6 x i8], [6 x i8]* @.str.13, i64 0, i64 0), i8* getelementptr inbounds ([9 x i8], [9 x i8]* @_ZN12CJS_Document5kNameE, i64 0, i64 0), %"class.v8::String"* %0, %"class.v8::PropertyCallbackInfo"* dereferenceable(8) %1)
  ret void
}

; Function Attrs: nounwind ssp uwtable
define linkonce_odr hidden void @_ZN12CJS_Document16set_icons_staticEN2v85LocalINS0_6StringEEENS1_INS0_5ValueEEERKNS0_20PropertyCallbackInfoIvEE(%"class.v8::String"*, %"class.v8::Value"*, %"class.v8::PropertyCallbackInfo.1"* dereferenceable(8)) #0 comdat align 2 {
  tail call void @_Z12JSPropSetterI12CJS_DocumentXadL_ZNS0_9set_iconsEP11CJS_RuntimeN2v85LocalINS3_5ValueEEEEEEvPKcS8_NS4_INS3_6StringEEES6_RKNS3_20PropertyCallbackInfoIvEE(i8* getelementptr inbounds ([6 x i8], [6 x i8]* @.str.13, i64 0, i64 0), i8* getelementptr inbounds ([9 x i8], [9 x i8]* @_ZN12CJS_Document5kNameE, i64 0, i64 0), %"class.v8::String"* %0, %"class.v8::Value"* %1, %"class.v8::PropertyCallbackInfo.1"* dereferenceable(8) %2)
  ret void
}

; Function Attrs: nounwind ssp uwtable
define linkonce_odr hidden void @_ZN12CJS_Document15get_info_staticEN2v85LocalINS0_6StringEEERKNS0_20PropertyCallbackInfoINS0_5ValueEEE(%"class.v8::String"*, %"class.v8::PropertyCallbackInfo"* dereferenceable(8)) #0 comdat align 2 {
  tail call void @_Z12JSPropGetterI12CJS_DocumentXadL_ZNS0_8get_infoEP11CJS_RuntimeEEEvPKcS4_N2v85LocalINS5_6StringEEERKNS5_20PropertyCallbackInfoINS5_5ValueEEE(i8* getelementptr inbounds ([5 x i8], [5 x i8]* @.str.14, i64 0, i64 0), i8* getelementptr inbounds ([9 x i8], [9 x i8]* @_ZN12CJS_Document5kNameE, i64 0, i64 0), %"class.v8::String"* %0, %"class.v8::PropertyCallbackInfo"* dereferenceable(8) %1)
  ret void
}

; Function Attrs: nounwind ssp uwtable
define linkonce_odr hidden void @_ZN12CJS_Document15set_info_staticEN2v85LocalINS0_6StringEEENS1_INS0_5ValueEEERKNS0_20PropertyCallbackInfoIvEE(%"class.v8::String"*, %"class.v8::Value"*, %"class.v8::PropertyCallbackInfo.1"* dereferenceable(8)) #0 comdat align 2 {
  tail call void @_Z12JSPropSetterI12CJS_DocumentXadL_ZNS0_8set_infoEP11CJS_RuntimeN2v85LocalINS3_5ValueEEEEEEvPKcS8_NS4_INS3_6StringEEES6_RKNS3_20PropertyCallbackInfoIvEE(i8* getelementptr inbounds ([5 x i8], [5 x i8]* @.str.14, i64 0, i64 0), i8* getelementptr inbounds ([9 x i8], [9 x i8]* @_ZN12CJS_Document5kNameE, i64 0, i64 0), %"class.v8::String"* %0, %"class.v8::Value"* %1, %"class.v8::PropertyCallbackInfo.1"* dereferenceable(8) %2)
  ret void
}

; Function Attrs: nounwind ssp uwtable
define linkonce_odr hidden void @_ZN12CJS_Document19get_keywords_staticEN2v85LocalINS0_6StringEEERKNS0_20PropertyCallbackInfoINS0_5ValueEEE(%"class.v8::String"*, %"class.v8::PropertyCallbackInfo"* dereferenceable(8)) #0 comdat align 2 {
  tail call void @_Z12JSPropGetterI12CJS_DocumentXadL_ZNS0_12get_keywordsEP11CJS_RuntimeEEEvPKcS4_N2v85LocalINS5_6StringEEERKNS5_20PropertyCallbackInfoINS5_5ValueEEE(i8* getelementptr inbounds ([9 x i8], [9 x i8]* @.str.15, i64 0, i64 0), i8* getelementptr inbounds ([9 x i8], [9 x i8]* @_ZN12CJS_Document5kNameE, i64 0, i64 0), %"class.v8::String"* %0, %"class.v8::PropertyCallbackInfo"* dereferenceable(8) %1)
  ret void
}

; Function Attrs: nounwind ssp uwtable
define linkonce_odr hidden void @_ZN12CJS_Document19set_keywords_staticEN2v85LocalINS0_6StringEEENS1_INS0_5ValueEEERKNS0_20PropertyCallbackInfoIvEE(%"class.v8::String"*, %"class.v8::Value"*, %"class.v8::PropertyCallbackInfo.1"* dereferenceable(8)) #0 comdat align 2 {
  tail call void @_Z12JSPropSetterI12CJS_DocumentXadL_ZNS0_12set_keywordsEP11CJS_RuntimeN2v85LocalINS3_5ValueEEEEEEvPKcS8_NS4_INS3_6StringEEES6_RKNS3_20PropertyCallbackInfoIvEE(i8* getelementptr inbounds ([9 x i8], [9 x i8]* @.str.15, i64 0, i64 0), i8* getelementptr inbounds ([9 x i8], [9 x i8]* @_ZN12CJS_Document5kNameE, i64 0, i64 0), %"class.v8::String"* %0, %"class.v8::Value"* %1, %"class.v8::PropertyCallbackInfo.1"* dereferenceable(8) %2)
  ret void
}

; Function Attrs: nounwind ssp uwtable
define linkonce_odr hidden void @_ZN12CJS_Document17get_layout_staticEN2v85LocalINS0_6StringEEERKNS0_20PropertyCallbackInfoINS0_5ValueEEE(%"class.v8::String"*, %"class.v8::PropertyCallbackInfo"* dereferenceable(8)) #0 comdat align 2 {
  tail call void @_Z12JSPropGetterI12CJS_DocumentXadL_ZNS0_10get_layoutEP11CJS_RuntimeEEEvPKcS4_N2v85LocalINS5_6StringEEERKNS5_20PropertyCallbackInfoINS5_5ValueEEE(i8* getelementptr inbounds ([7 x i8], [7 x i8]* @.str.16, i64 0, i64 0), i8* getelementptr inbounds ([9 x i8], [9 x i8]* @_ZN12CJS_Document5kNameE, i64 0, i64 0), %"class.v8::String"* %0, %"class.v8::PropertyCallbackInfo"* dereferenceable(8) %1)
  ret void
}

; Function Attrs: nounwind ssp uwtable
define linkonce_odr hidden void @_ZN12CJS_Document17set_layout_staticEN2v85LocalINS0_6StringEEENS1_INS0_5ValueEEERKNS0_20PropertyCallbackInfoIvEE(%"class.v8::String"*, %"class.v8::Value"*, %"class.v8::PropertyCallbackInfo.1"* dereferenceable(8)) #0 comdat align 2 {
  tail call void @_Z12JSPropSetterI12CJS_DocumentXadL_ZNS0_10set_layoutEP11CJS_RuntimeN2v85LocalINS3_5ValueEEEEEEvPKcS8_NS4_INS3_6StringEEES6_RKNS3_20PropertyCallbackInfoIvEE(i8* getelementptr inbounds ([7 x i8], [7 x i8]* @.str.16, i64 0, i64 0), i8* getelementptr inbounds ([9 x i8], [9 x i8]* @_ZN12CJS_Document5kNameE, i64 0, i64 0), %"class.v8::String"* %0, %"class.v8::Value"* %1, %"class.v8::PropertyCallbackInfo.1"* dereferenceable(8) %2)
  ret void
}

; Function Attrs: nounwind ssp uwtable
define linkonce_odr hidden void @_ZN12CJS_Document16get_media_staticEN2v85LocalINS0_6StringEEERKNS0_20PropertyCallbackInfoINS0_5ValueEEE(%"class.v8::String"*, %"class.v8::PropertyCallbackInfo"* dereferenceable(8)) #0 comdat align 2 {
  tail call void @_Z12JSPropGetterI12CJS_DocumentXadL_ZNS0_9get_mediaEP11CJS_RuntimeEEEvPKcS4_N2v85LocalINS5_6StringEEERKNS5_20PropertyCallbackInfoINS5_5ValueEEE(i8* getelementptr inbounds ([6 x i8], [6 x i8]* @.str.17, i64 0, i64 0), i8* getelementptr inbounds ([9 x i8], [9 x i8]* @_ZN12CJS_Document5kNameE, i64 0, i64 0), %"class.v8::String"* %0, %"class.v8::PropertyCallbackInfo"* dereferenceable(8) %1)
  ret void
}

; Function Attrs: nounwind ssp uwtable
define linkonce_odr hidden void @_ZN12CJS_Document16set_media_staticEN2v85LocalINS0_6StringEEENS1_INS0_5ValueEEERKNS0_20PropertyCallbackInfoIvEE(%"class.v8::String"*, %"class.v8::Value"*, %"class.v8::PropertyCallbackInfo.1"* dereferenceable(8)) #0 comdat align 2 {
  tail call void @_Z12JSPropSetterI12CJS_DocumentXadL_ZNS0_9set_mediaEP11CJS_RuntimeN2v85LocalINS3_5ValueEEEEEEvPKcS8_NS4_INS3_6StringEEES6_RKNS3_20PropertyCallbackInfoIvEE(i8* getelementptr inbounds ([6 x i8], [6 x i8]* @.str.17, i64 0, i64 0), i8* getelementptr inbounds ([9 x i8], [9 x i8]* @_ZN12CJS_Document5kNameE, i64 0, i64 0), %"class.v8::String"* %0, %"class.v8::Value"* %1, %"class.v8::PropertyCallbackInfo.1"* dereferenceable(8) %2)
  ret void
}

; Function Attrs: nounwind ssp uwtable
define linkonce_odr hidden void @_ZN12CJS_Document19get_mod_date_staticEN2v85LocalINS0_6StringEEERKNS0_20PropertyCallbackInfoINS0_5ValueEEE(%"class.v8::String"*, %"class.v8::PropertyCallbackInfo"* dereferenceable(8)) #0 comdat align 2 {
  tail call void @_Z12JSPropGetterI12CJS_DocumentXadL_ZNS0_12get_mod_dateEP11CJS_RuntimeEEEvPKcS4_N2v85LocalINS5_6StringEEERKNS5_20PropertyCallbackInfoINS5_5ValueEEE(i8* getelementptr inbounds ([8 x i8], [8 x i8]* @.str.18, i64 0, i64 0), i8* getelementptr inbounds ([9 x i8], [9 x i8]* @_ZN12CJS_Document5kNameE, i64 0, i64 0), %"class.v8::String"* %0, %"class.v8::PropertyCallbackInfo"* dereferenceable(8) %1)
  ret void
}

; Function Attrs: nounwind ssp uwtable
define linkonce_odr hidden void @_ZN12CJS_Document19set_mod_date_staticEN2v85LocalINS0_6StringEEENS1_INS0_5ValueEEERKNS0_20PropertyCallbackInfoIvEE(%"class.v8::String"*, %"class.v8::Value"*, %"class.v8::PropertyCallbackInfo.1"* dereferenceable(8)) #0 comdat align 2 {
  tail call void @_Z12JSPropSetterI12CJS_DocumentXadL_ZNS0_12set_mod_dateEP11CJS_RuntimeN2v85LocalINS3_5ValueEEEEEEvPKcS8_NS4_INS3_6StringEEES6_RKNS3_20PropertyCallbackInfoIvEE(i8* getelementptr inbounds ([8 x i8], [8 x i8]* @.str.18, i64 0, i64 0), i8* getelementptr inbounds ([9 x i8], [9 x i8]* @_ZN12CJS_Document5kNameE, i64 0, i64 0), %"class.v8::String"* %0, %"class.v8::Value"* %1, %"class.v8::PropertyCallbackInfo.1"* dereferenceable(8) %2)
  ret void
}

; Function Attrs: nounwind ssp uwtable
define linkonce_odr hidden void @_ZN12CJS_Document18get_mouse_x_staticEN2v85LocalINS0_6StringEEERKNS0_20PropertyCallbackInfoINS0_5ValueEEE(%"class.v8::String"*, %"class.v8::PropertyCallbackInfo"* dereferenceable(8)) #0 comdat align 2 {
  tail call void @_Z12JSPropGetterI12CJS_DocumentXadL_ZNS0_11get_mouse_xEP11CJS_RuntimeEEEvPKcS4_N2v85LocalINS5_6StringEEERKNS5_20PropertyCallbackInfoINS5_5ValueEEE(i8* getelementptr inbounds ([7 x i8], [7 x i8]* @.str.19, i64 0, i64 0), i8* getelementptr inbounds ([9 x i8], [9 x i8]* @_ZN12CJS_Document5kNameE, i64 0, i64 0), %"class.v8::String"* %0, %"class.v8::PropertyCallbackInfo"* dereferenceable(8) %1)
  ret void
}

; Function Attrs: nounwind ssp uwtable
define linkonce_odr hidden void @_ZN12CJS_Document18set_mouse_x_staticEN2v85LocalINS0_6StringEEENS1_INS0_5ValueEEERKNS0_20PropertyCallbackInfoIvEE(%"class.v8::String"*, %"class.v8::Value"*, %"class.v8::PropertyCallbackInfo.1"* dereferenceable(8)) #0 comdat align 2 {
  tail call void @_Z12JSPropSetterI12CJS_DocumentXadL_ZNS0_11set_mouse_xEP11CJS_RuntimeN2v85LocalINS3_5ValueEEEEEEvPKcS8_NS4_INS3_6StringEEES6_RKNS3_20PropertyCallbackInfoIvEE(i8* getelementptr inbounds ([7 x i8], [7 x i8]* @.str.19, i64 0, i64 0), i8* getelementptr inbounds ([9 x i8], [9 x i8]* @_ZN12CJS_Document5kNameE, i64 0, i64 0), %"class.v8::String"* %0, %"class.v8::Value"* %1, %"class.v8::PropertyCallbackInfo.1"* dereferenceable(8) %2)
  ret void
}

; Function Attrs: nounwind ssp uwtable
define linkonce_odr hidden void @_ZN12CJS_Document18get_mouse_y_staticEN2v85LocalINS0_6StringEEERKNS0_20PropertyCallbackInfoINS0_5ValueEEE(%"class.v8::String"*, %"class.v8::PropertyCallbackInfo"* dereferenceable(8)) #0 comdat align 2 {
  tail call void @_Z12JSPropGetterI12CJS_DocumentXadL_ZNS0_11get_mouse_yEP11CJS_RuntimeEEEvPKcS4_N2v85LocalINS5_6StringEEERKNS5_20PropertyCallbackInfoINS5_5ValueEEE(i8* getelementptr inbounds ([7 x i8], [7 x i8]* @.str.20, i64 0, i64 0), i8* getelementptr inbounds ([9 x i8], [9 x i8]* @_ZN12CJS_Document5kNameE, i64 0, i64 0), %"class.v8::String"* %0, %"class.v8::PropertyCallbackInfo"* dereferenceable(8) %1)
  ret void
}

; Function Attrs: nounwind ssp uwtable
define linkonce_odr hidden void @_ZN12CJS_Document18set_mouse_y_staticEN2v85LocalINS0_6StringEEENS1_INS0_5ValueEEERKNS0_20PropertyCallbackInfoIvEE(%"class.v8::String"*, %"class.v8::Value"*, %"class.v8::PropertyCallbackInfo.1"* dereferenceable(8)) #0 comdat align 2 {
  tail call void @_Z12JSPropSetterI12CJS_DocumentXadL_ZNS0_11set_mouse_yEP11CJS_RuntimeN2v85LocalINS3_5ValueEEEEEEvPKcS8_NS4_INS3_6StringEEES6_RKNS3_20PropertyCallbackInfoIvEE(i8* getelementptr inbounds ([7 x i8], [7 x i8]* @.str.20, i64 0, i64 0), i8* getelementptr inbounds ([9 x i8], [9 x i8]* @_ZN12CJS_Document5kNameE, i64 0, i64 0), %"class.v8::String"* %0, %"class.v8::Value"* %1, %"class.v8::PropertyCallbackInfo.1"* dereferenceable(8) %2)
  ret void
}

; Function Attrs: nounwind ssp uwtable
define linkonce_odr hidden void @_ZN12CJS_Document21get_num_fields_staticEN2v85LocalINS0_6StringEEERKNS0_20PropertyCallbackInfoINS0_5ValueEEE(%"class.v8::String"*, %"class.v8::PropertyCallbackInfo"* dereferenceable(8)) #0 comdat align 2 {
  tail call void @_Z12JSPropGetterI12CJS_DocumentXadL_ZNS0_14get_num_fieldsEP11CJS_RuntimeEEEvPKcS4_N2v85LocalINS5_6StringEEERKNS5_20PropertyCallbackInfoINS5_5ValueEEE(i8* getelementptr inbounds ([10 x i8], [10 x i8]* @.str.21, i64 0, i64 0), i8* getelementptr inbounds ([9 x i8], [9 x i8]* @_ZN12CJS_Document5kNameE, i64 0, i64 0), %"class.v8::String"* %0, %"class.v8::PropertyCallbackInfo"* dereferenceable(8) %1)
  ret void
}

; Function Attrs: nounwind ssp uwtable
define linkonce_odr hidden void @_ZN12CJS_Document21set_num_fields_staticEN2v85LocalINS0_6StringEEENS1_INS0_5ValueEEERKNS0_20PropertyCallbackInfoIvEE(%"class.v8::String"*, %"class.v8::Value"*, %"class.v8::PropertyCallbackInfo.1"* dereferenceable(8)) #0 comdat align 2 {
  tail call void @_Z12JSPropSetterI12CJS_DocumentXadL_ZNS0_14set_num_fieldsEP11CJS_RuntimeN2v85LocalINS3_5ValueEEEEEEvPKcS8_NS4_INS3_6StringEEES6_RKNS3_20PropertyCallbackInfoIvEE(i8* getelementptr inbounds ([10 x i8], [10 x i8]* @.str.21, i64 0, i64 0), i8* getelementptr inbounds ([9 x i8], [9 x i8]* @_ZN12CJS_Document5kNameE, i64 0, i64 0), %"class.v8::String"* %0, %"class.v8::Value"* %1, %"class.v8::PropertyCallbackInfo.1"* dereferenceable(8) %2)
  ret void
}

; Function Attrs: nounwind ssp uwtable
define linkonce_odr hidden void @_ZN12CJS_Document20get_num_pages_staticEN2v85LocalINS0_6StringEEERKNS0_20PropertyCallbackInfoINS0_5ValueEEE(%"class.v8::String"*, %"class.v8::PropertyCallbackInfo"* dereferenceable(8)) #0 comdat align 2 {
  tail call void @_Z12JSPropGetterI12CJS_DocumentXadL_ZNS0_13get_num_pagesEP11CJS_RuntimeEEEvPKcS4_N2v85LocalINS5_6StringEEERKNS5_20PropertyCallbackInfoINS5_5ValueEEE(i8* getelementptr inbounds ([9 x i8], [9 x i8]* @.str.22, i64 0, i64 0), i8* getelementptr inbounds ([9 x i8], [9 x i8]* @_ZN12CJS_Document5kNameE, i64 0, i64 0), %"class.v8::String"* %0, %"class.v8::PropertyCallbackInfo"* dereferenceable(8) %1)
  ret void
}

; Function Attrs: nounwind ssp uwtable
define linkonce_odr hidden void @_ZN12CJS_Document20set_num_pages_staticEN2v85LocalINS0_6StringEEENS1_INS0_5ValueEEERKNS0_20PropertyCallbackInfoIvEE(%"class.v8::String"*, %"class.v8::Value"*, %"class.v8::PropertyCallbackInfo.1"* dereferenceable(8)) #0 comdat align 2 {
  tail call void @_Z12JSPropSetterI12CJS_DocumentXadL_ZNS0_13set_num_pagesEP11CJS_RuntimeN2v85LocalINS3_5ValueEEEEEEvPKcS8_NS4_INS3_6StringEEES6_RKNS3_20PropertyCallbackInfoIvEE(i8* getelementptr inbounds ([9 x i8], [9 x i8]* @.str.22, i64 0, i64 0), i8* getelementptr inbounds ([9 x i8], [9 x i8]* @_ZN12CJS_Document5kNameE, i64 0, i64 0), %"class.v8::String"* %0, %"class.v8::Value"* %1, %"class.v8::PropertyCallbackInfo.1"* dereferenceable(8) %2)
  ret void
}

; Function Attrs: nounwind ssp uwtable
define linkonce_odr hidden void @_ZN12CJS_Document19get_page_num_staticEN2v85LocalINS0_6StringEEERKNS0_20PropertyCallbackInfoINS0_5ValueEEE(%"class.v8::String"*, %"class.v8::PropertyCallbackInfo"* dereferenceable(8)) #0 comdat align 2 {
  tail call void @_Z12JSPropGetterI12CJS_DocumentXadL_ZNS0_12get_page_numEP11CJS_RuntimeEEEvPKcS4_N2v85LocalINS5_6StringEEERKNS5_20PropertyCallbackInfoINS5_5ValueEEE(i8* getelementptr inbounds ([8 x i8], [8 x i8]* @.str.23, i64 0, i64 0), i8* getelementptr inbounds ([9 x i8], [9 x i8]* @_ZN12CJS_Document5kNameE, i64 0, i64 0), %"class.v8::String"* %0, %"class.v8::PropertyCallbackInfo"* dereferenceable(8) %1)
  ret void
}

; Function Attrs: nounwind ssp uwtable
define linkonce_odr hidden void @_ZN12CJS_Document19set_page_num_staticEN2v85LocalINS0_6StringEEENS1_INS0_5ValueEEERKNS0_20PropertyCallbackInfoIvEE(%"class.v8::String"*, %"class.v8::Value"*, %"class.v8::PropertyCallbackInfo.1"* dereferenceable(8)) #0 comdat align 2 {
  tail call void @_Z12JSPropSetterI12CJS_DocumentXadL_ZNS0_12set_page_numEP11CJS_RuntimeN2v85LocalINS3_5ValueEEEEEEvPKcS8_NS4_INS3_6StringEEES6_RKNS3_20PropertyCallbackInfoIvEE(i8* getelementptr inbounds ([8 x i8], [8 x i8]* @.str.23, i64 0, i64 0), i8* getelementptr inbounds ([9 x i8], [9 x i8]* @_ZN12CJS_Document5kNameE, i64 0, i64 0), %"class.v8::String"* %0, %"class.v8::Value"* %1, %"class.v8::PropertyCallbackInfo.1"* dereferenceable(8) %2)
  ret void
}

; Function Attrs: nounwind ssp uwtable
define linkonce_odr hidden void @_ZN12CJS_Document27get_page_window_rect_staticEN2v85LocalINS0_6StringEEERKNS0_20PropertyCallbackInfoINS0_5ValueEEE(%"class.v8::String"*, %"class.v8::PropertyCallbackInfo"* dereferenceable(8)) #0 comdat align 2 {
  tail call void @_Z12JSPropGetterI12CJS_DocumentXadL_ZNS0_20get_page_window_rectEP11CJS_RuntimeEEEvPKcS4_N2v85LocalINS5_6StringEEERKNS5_20PropertyCallbackInfoINS5_5ValueEEE(i8* getelementptr inbounds ([15 x i8], [15 x i8]* @.str.24, i64 0, i64 0), i8* getelementptr inbounds ([9 x i8], [9 x i8]* @_ZN12CJS_Document5kNameE, i64 0, i64 0), %"class.v8::String"* %0, %"class.v8::PropertyCallbackInfo"* dereferenceable(8) %1)
  ret void
}

; Function Attrs: nounwind ssp uwtable
define linkonce_odr hidden void @_ZN12CJS_Document27set_page_window_rect_staticEN2v85LocalINS0_6StringEEENS1_INS0_5ValueEEERKNS0_20PropertyCallbackInfoIvEE(%"class.v8::String"*, %"class.v8::Value"*, %"class.v8::PropertyCallbackInfo.1"* dereferenceable(8)) #0 comdat align 2 {
  tail call void @_Z12JSPropSetterI12CJS_DocumentXadL_ZNS0_20set_page_window_rectEP11CJS_RuntimeN2v85LocalINS3_5ValueEEEEEEvPKcS8_NS4_INS3_6StringEEES6_RKNS3_20PropertyCallbackInfoIvEE(i8* getelementptr inbounds ([15 x i8], [15 x i8]* @.str.24, i64 0, i64 0), i8* getelementptr inbounds ([9 x i8], [9 x i8]* @_ZN12CJS_Document5kNameE, i64 0, i64 0), %"class.v8::String"* %0, %"class.v8::Value"* %1, %"class.v8::PropertyCallbackInfo.1"* dereferenceable(8) %2)
  ret void
}

; Function Attrs: nounwind ssp uwtable
define linkonce_odr hidden void @_ZN12CJS_Document15get_path_staticEN2v85LocalINS0_6StringEEERKNS0_20PropertyCallbackInfoINS0_5ValueEEE(%"class.v8::String"*, %"class.v8::PropertyCallbackInfo"* dereferenceable(8)) #0 comdat align 2 {
  tail call void @_Z12JSPropGetterI12CJS_DocumentXadL_ZNS0_8get_pathEP11CJS_RuntimeEEEvPKcS4_N2v85LocalINS5_6StringEEERKNS5_20PropertyCallbackInfoINS5_5ValueEEE(i8* getelementptr inbounds ([5 x i8], [5 x i8]* @.str.25, i64 0, i64 0), i8* getelementptr inbounds ([9 x i8], [9 x i8]* @_ZN12CJS_Document5kNameE, i64 0, i64 0), %"class.v8::String"* %0, %"class.v8::PropertyCallbackInfo"* dereferenceable(8) %1)
  ret void
}

; Function Attrs: nounwind ssp uwtable
define linkonce_odr hidden void @_ZN12CJS_Document15set_path_staticEN2v85LocalINS0_6StringEEENS1_INS0_5ValueEEERKNS0_20PropertyCallbackInfoIvEE(%"class.v8::String"*, %"class.v8::Value"*, %"class.v8::PropertyCallbackInfo.1"* dereferenceable(8)) #0 comdat align 2 {
  tail call void @_Z12JSPropSetterI12CJS_DocumentXadL_ZNS0_8set_pathEP11CJS_RuntimeN2v85LocalINS3_5ValueEEEEEEvPKcS8_NS4_INS3_6StringEEES6_RKNS3_20PropertyCallbackInfoIvEE(i8* getelementptr inbounds ([5 x i8], [5 x i8]* @.str.25, i64 0, i64 0), i8* getelementptr inbounds ([9 x i8], [9 x i8]* @_ZN12CJS_Document5kNameE, i64 0, i64 0), %"class.v8::String"* %0, %"class.v8::Value"* %1, %"class.v8::PropertyCallbackInfo.1"* dereferenceable(8) %2)
  ret void
}

; Function Attrs: nounwind ssp uwtable
define linkonce_odr hidden void @_ZN12CJS_Document19get_producer_staticEN2v85LocalINS0_6StringEEERKNS0_20PropertyCallbackInfoINS0_5ValueEEE(%"class.v8::String"*, %"class.v8::PropertyCallbackInfo"* dereferenceable(8)) #0 comdat align 2 {
  tail call void @_Z12JSPropGetterI12CJS_DocumentXadL_ZNS0_12get_producerEP11CJS_RuntimeEEEvPKcS4_N2v85LocalINS5_6StringEEERKNS5_20PropertyCallbackInfoINS5_5ValueEEE(i8* getelementptr inbounds ([9 x i8], [9 x i8]* @.str.26, i64 0, i64 0), i8* getelementptr inbounds ([9 x i8], [9 x i8]* @_ZN12CJS_Document5kNameE, i64 0, i64 0), %"class.v8::String"* %0, %"class.v8::PropertyCallbackInfo"* dereferenceable(8) %1)
  ret void
}

; Function Attrs: nounwind ssp uwtable
define linkonce_odr hidden void @_ZN12CJS_Document19set_producer_staticEN2v85LocalINS0_6StringEEENS1_INS0_5ValueEEERKNS0_20PropertyCallbackInfoIvEE(%"class.v8::String"*, %"class.v8::Value"*, %"class.v8::PropertyCallbackInfo.1"* dereferenceable(8)) #0 comdat align 2 {
  tail call void @_Z12JSPropSetterI12CJS_DocumentXadL_ZNS0_12set_producerEP11CJS_RuntimeN2v85LocalINS3_5ValueEEEEEEvPKcS8_NS4_INS3_6StringEEES6_RKNS3_20PropertyCallbackInfoIvEE(i8* getelementptr inbounds ([9 x i8], [9 x i8]* @.str.26, i64 0, i64 0), i8* getelementptr inbounds ([9 x i8], [9 x i8]* @_ZN12CJS_Document5kNameE, i64 0, i64 0), %"class.v8::String"* %0, %"class.v8::Value"* %1, %"class.v8::PropertyCallbackInfo.1"* dereferenceable(8) %2)
  ret void
}

; Function Attrs: nounwind ssp uwtable
define linkonce_odr hidden void @_ZN12CJS_Document18get_subject_staticEN2v85LocalINS0_6StringEEERKNS0_20PropertyCallbackInfoINS0_5ValueEEE(%"class.v8::String"*, %"class.v8::PropertyCallbackInfo"* dereferenceable(8)) #0 comdat align 2 {
  tail call void @_Z12JSPropGetterI12CJS_DocumentXadL_ZNS0_11get_subjectEP11CJS_RuntimeEEEvPKcS4_N2v85LocalINS5_6StringEEERKNS5_20PropertyCallbackInfoINS5_5ValueEEE(i8* getelementptr inbounds ([8 x i8], [8 x i8]* @.str.27, i64 0, i64 0), i8* getelementptr inbounds ([9 x i8], [9 x i8]* @_ZN12CJS_Document5kNameE, i64 0, i64 0), %"class.v8::String"* %0, %"class.v8::PropertyCallbackInfo"* dereferenceable(8) %1)
  ret void
}

; Function Attrs: nounwind ssp uwtable
define linkonce_odr hidden void @_ZN12CJS_Document18set_subject_staticEN2v85LocalINS0_6StringEEENS1_INS0_5ValueEEERKNS0_20PropertyCallbackInfoIvEE(%"class.v8::String"*, %"class.v8::Value"*, %"class.v8::PropertyCallbackInfo.1"* dereferenceable(8)) #0 comdat align 2 {
  tail call void @_Z12JSPropSetterI12CJS_DocumentXadL_ZNS0_11set_subjectEP11CJS_RuntimeN2v85LocalINS3_5ValueEEEEEEvPKcS8_NS4_INS3_6StringEEES6_RKNS3_20PropertyCallbackInfoIvEE(i8* getelementptr inbounds ([8 x i8], [8 x i8]* @.str.27, i64 0, i64 0), i8* getelementptr inbounds ([9 x i8], [9 x i8]* @_ZN12CJS_Document5kNameE, i64 0, i64 0), %"class.v8::String"* %0, %"class.v8::Value"* %1, %"class.v8::PropertyCallbackInfo.1"* dereferenceable(8) %2)
  ret void
}

; Function Attrs: nounwind ssp uwtable
define linkonce_odr hidden void @_ZN12CJS_Document16get_title_staticEN2v85LocalINS0_6StringEEERKNS0_20PropertyCallbackInfoINS0_5ValueEEE(%"class.v8::String"*, %"class.v8::PropertyCallbackInfo"* dereferenceable(8)) #0 comdat align 2 {
  tail call void @_Z12JSPropGetterI12CJS_DocumentXadL_ZNS0_9get_titleEP11CJS_RuntimeEEEvPKcS4_N2v85LocalINS5_6StringEEERKNS5_20PropertyCallbackInfoINS5_5ValueEEE(i8* getelementptr inbounds ([6 x i8], [6 x i8]* @.str.28, i64 0, i64 0), i8* getelementptr inbounds ([9 x i8], [9 x i8]* @_ZN12CJS_Document5kNameE, i64 0, i64 0), %"class.v8::String"* %0, %"class.v8::PropertyCallbackInfo"* dereferenceable(8) %1)
  ret void
}

; Function Attrs: nounwind ssp uwtable
define linkonce_odr hidden void @_ZN12CJS_Document16set_title_staticEN2v85LocalINS0_6StringEEENS1_INS0_5ValueEEERKNS0_20PropertyCallbackInfoIvEE(%"class.v8::String"*, %"class.v8::Value"*, %"class.v8::PropertyCallbackInfo.1"* dereferenceable(8)) #0 comdat align 2 {
  tail call void @_Z12JSPropSetterI12CJS_DocumentXadL_ZNS0_9set_titleEP11CJS_RuntimeN2v85LocalINS3_5ValueEEEEEEvPKcS8_NS4_INS3_6StringEEES6_RKNS3_20PropertyCallbackInfoIvEE(i8* getelementptr inbounds ([6 x i8], [6 x i8]* @.str.28, i64 0, i64 0), i8* getelementptr inbounds ([9 x i8], [9 x i8]* @_ZN12CJS_Document5kNameE, i64 0, i64 0), %"class.v8::String"* %0, %"class.v8::Value"* %1, %"class.v8::PropertyCallbackInfo.1"* dereferenceable(8) %2)
  ret void
}

; Function Attrs: nounwind ssp uwtable
define linkonce_odr hidden void @_ZN12CJS_Document14get_URL_staticEN2v85LocalINS0_6StringEEERKNS0_20PropertyCallbackInfoINS0_5ValueEEE(%"class.v8::String"*, %"class.v8::PropertyCallbackInfo"* dereferenceable(8)) #0 comdat align 2 {
  tail call void @_Z12JSPropGetterI12CJS_DocumentXadL_ZNS0_7get_URLEP11CJS_RuntimeEEEvPKcS4_N2v85LocalINS5_6StringEEERKNS5_20PropertyCallbackInfoINS5_5ValueEEE(i8* getelementptr inbounds ([4 x i8], [4 x i8]* @.str.29, i64 0, i64 0), i8* getelementptr inbounds ([9 x i8], [9 x i8]* @_ZN12CJS_Document5kNameE, i64 0, i64 0), %"class.v8::String"* %0, %"class.v8::PropertyCallbackInfo"* dereferenceable(8) %1)
  ret void
}

; Function Attrs: nounwind ssp uwtable
define linkonce_odr hidden void @_ZN12CJS_Document14set_URL_staticEN2v85LocalINS0_6StringEEENS1_INS0_5ValueEEERKNS0_20PropertyCallbackInfoIvEE(%"class.v8::String"*, %"class.v8::Value"*, %"class.v8::PropertyCallbackInfo.1"* dereferenceable(8)) #0 comdat align 2 {
  tail call void @_Z12JSPropSetterI12CJS_DocumentXadL_ZNS0_7set_URLEP11CJS_RuntimeN2v85LocalINS3_5ValueEEEEEEvPKcS8_NS4_INS3_6StringEEES6_RKNS3_20PropertyCallbackInfoIvEE(i8* getelementptr inbounds ([4 x i8], [4 x i8]* @.str.29, i64 0, i64 0), i8* getelementptr inbounds ([9 x i8], [9 x i8]* @_ZN12CJS_Document5kNameE, i64 0, i64 0), %"class.v8::String"* %0, %"class.v8::Value"* %1, %"class.v8::PropertyCallbackInfo.1"* dereferenceable(8) %2)
  ret void
}

; Function Attrs: nounwind ssp uwtable
define linkonce_odr hidden void @_ZN12CJS_Document15get_zoom_staticEN2v85LocalINS0_6StringEEERKNS0_20PropertyCallbackInfoINS0_5ValueEEE(%"class.v8::String"*, %"class.v8::PropertyCallbackInfo"* dereferenceable(8)) #0 comdat align 2 {
  tail call void @_Z12JSPropGetterI12CJS_DocumentXadL_ZNS0_8get_zoomEP11CJS_RuntimeEEEvPKcS4_N2v85LocalINS5_6StringEEERKNS5_20PropertyCallbackInfoINS5_5ValueEEE(i8* getelementptr inbounds ([5 x i8], [5 x i8]* @.str.30, i64 0, i64 0), i8* getelementptr inbounds ([9 x i8], [9 x i8]* @_ZN12CJS_Document5kNameE, i64 0, i64 0), %"class.v8::String"* %0, %"class.v8::PropertyCallbackInfo"* dereferenceable(8) %1)
  ret void
}

; Function Attrs: nounwind ssp uwtable
define linkonce_odr hidden void @_ZN12CJS_Document15set_zoom_staticEN2v85LocalINS0_6StringEEENS1_INS0_5ValueEEERKNS0_20PropertyCallbackInfoIvEE(%"class.v8::String"*, %"class.v8::Value"*, %"class.v8::PropertyCallbackInfo.1"* dereferenceable(8)) #0 comdat align 2 {
  tail call void @_Z12JSPropSetterI12CJS_DocumentXadL_ZNS0_8set_zoomEP11CJS_RuntimeN2v85LocalINS3_5ValueEEEEEEvPKcS8_NS4_INS3_6StringEEES6_RKNS3_20PropertyCallbackInfoIvEE(i8* getelementptr inbounds ([5 x i8], [5 x i8]* @.str.30, i64 0, i64 0), i8* getelementptr inbounds ([9 x i8], [9 x i8]* @_ZN12CJS_Document5kNameE, i64 0, i64 0), %"class.v8::String"* %0, %"class.v8::Value"* %1, %"class.v8::PropertyCallbackInfo.1"* dereferenceable(8) %2)
  ret void
}

; Function Attrs: nounwind ssp uwtable
define linkonce_odr hidden void @_ZN12CJS_Document20get_zoom_type_staticEN2v85LocalINS0_6StringEEERKNS0_20PropertyCallbackInfoINS0_5ValueEEE(%"class.v8::String"*, %"class.v8::PropertyCallbackInfo"* dereferenceable(8)) #0 comdat align 2 {
  tail call void @_Z12JSPropGetterI12CJS_DocumentXadL_ZNS0_13get_zoom_typeEP11CJS_RuntimeEEEvPKcS4_N2v85LocalINS5_6StringEEERKNS5_20PropertyCallbackInfoINS5_5ValueEEE(i8* getelementptr inbounds ([9 x i8], [9 x i8]* @.str.31, i64 0, i64 0), i8* getelementptr inbounds ([9 x i8], [9 x i8]* @_ZN12CJS_Document5kNameE, i64 0, i64 0), %"class.v8::String"* %0, %"class.v8::PropertyCallbackInfo"* dereferenceable(8) %1)
  ret void
}

; Function Attrs: nounwind ssp uwtable
define linkonce_odr hidden void @_ZN12CJS_Document20set_zoom_type_staticEN2v85LocalINS0_6StringEEENS1_INS0_5ValueEEERKNS0_20PropertyCallbackInfoIvEE(%"class.v8::String"*, %"class.v8::Value"*, %"class.v8::PropertyCallbackInfo.1"* dereferenceable(8)) #0 comdat align 2 {
  tail call void @_Z12JSPropSetterI12CJS_DocumentXadL_ZNS0_13set_zoom_typeEP11CJS_RuntimeN2v85LocalINS3_5ValueEEEEEEvPKcS8_NS4_INS3_6StringEEES6_RKNS3_20PropertyCallbackInfoIvEE(i8* getelementptr inbounds ([9 x i8], [9 x i8]* @.str.31, i64 0, i64 0), i8* getelementptr inbounds ([9 x i8], [9 x i8]* @_ZN12CJS_Document5kNameE, i64 0, i64 0), %"class.v8::String"* %0, %"class.v8::Value"* %1, %"class.v8::PropertyCallbackInfo.1"* dereferenceable(8) %2)
  ret void
}

; Function Attrs: nounwind ssp uwtable
define linkonce_odr hidden void @_ZN12CJS_Document15addAnnot_staticERKN2v820FunctionCallbackInfoINS0_5ValueEEE(%"class.v8::FunctionCallbackInfo"* dereferenceable(24)) #0 comdat align 2 {
  tail call void @_Z8JSMethodI12CJS_DocumentXadL_ZNS0_8addAnnotEP11CJS_RuntimeRKNSt3__16vectorIN2v85LocalINS5_5ValueEEENS3_9allocatorIS8_EEEEEEEvPKcSF_RKNS5_20FunctionCallbackInfoIS7_EE(i8* getelementptr inbounds ([9 x i8], [9 x i8]* @.str.32, i64 0, i64 0), i8* getelementptr inbounds ([9 x i8], [9 x i8]* @_ZN12CJS_Document5kNameE, i64 0, i64 0), %"class.v8::FunctionCallbackInfo"* dereferenceable(24) %0)
  ret void
}

; Function Attrs: nounwind ssp uwtable
define linkonce_odr hidden void @_ZN12CJS_Document15addField_staticERKN2v820FunctionCallbackInfoINS0_5ValueEEE(%"class.v8::FunctionCallbackInfo"* dereferenceable(24)) #0 comdat align 2 {
  tail call void @_Z8JSMethodI12CJS_DocumentXadL_ZNS0_8addFieldEP11CJS_RuntimeRKNSt3__16vectorIN2v85LocalINS5_5ValueEEENS3_9allocatorIS8_EEEEEEEvPKcSF_RKNS5_20FunctionCallbackInfoIS7_EE(i8* getelementptr inbounds ([9 x i8], [9 x i8]* @.str.33, i64 0, i64 0), i8* getelementptr inbounds ([9 x i8], [9 x i8]* @_ZN12CJS_Document5kNameE, i64 0, i64 0), %"class.v8::FunctionCallbackInfo"* dereferenceable(24) %0)
  ret void
}

; Function Attrs: nounwind ssp uwtable
define linkonce_odr hidden void @_ZN12CJS_Document14addLink_staticERKN2v820FunctionCallbackInfoINS0_5ValueEEE(%"class.v8::FunctionCallbackInfo"* dereferenceable(24)) #0 comdat align 2 {
  tail call void @_Z8JSMethodI12CJS_DocumentXadL_ZNS0_7addLinkEP11CJS_RuntimeRKNSt3__16vectorIN2v85LocalINS5_5ValueEEENS3_9allocatorIS8_EEEEEEEvPKcSF_RKNS5_20FunctionCallbackInfoIS7_EE(i8* getelementptr inbounds ([8 x i8], [8 x i8]* @.str.34, i64 0, i64 0), i8* getelementptr inbounds ([9 x i8], [9 x i8]* @_ZN12CJS_Document5kNameE, i64 0, i64 0), %"class.v8::FunctionCallbackInfo"* dereferenceable(24) %0)
  ret void
}

; Function Attrs: nounwind ssp uwtable
define linkonce_odr hidden void @_ZN12CJS_Document14addIcon_staticERKN2v820FunctionCallbackInfoINS0_5ValueEEE(%"class.v8::FunctionCallbackInfo"* dereferenceable(24)) #0 comdat align 2 {
  tail call void @_Z8JSMethodI12CJS_DocumentXadL_ZNS0_7addIconEP11CJS_RuntimeRKNSt3__16vectorIN2v85LocalINS5_5ValueEEENS3_9allocatorIS8_EEEEEEEvPKcSF_RKNS5_20FunctionCallbackInfoIS7_EE(i8* getelementptr inbounds ([8 x i8], [8 x i8]* @.str.35, i64 0, i64 0), i8* getelementptr inbounds ([9 x i8], [9 x i8]* @_ZN12CJS_Document5kNameE, i64 0, i64 0), %"class.v8::FunctionCallbackInfo"* dereferenceable(24) %0)
  ret void
}

; Function Attrs: nounwind ssp uwtable
define linkonce_odr hidden void @_ZN12CJS_Document19calculateNow_staticERKN2v820FunctionCallbackInfoINS0_5ValueEEE(%"class.v8::FunctionCallbackInfo"* dereferenceable(24)) #0 comdat align 2 {
  tail call void @_Z8JSMethodI12CJS_DocumentXadL_ZNS0_12calculateNowEP11CJS_RuntimeRKNSt3__16vectorIN2v85LocalINS5_5ValueEEENS3_9allocatorIS8_EEEEEEEvPKcSF_RKNS5_20FunctionCallbackInfoIS7_EE(i8* getelementptr inbounds ([13 x i8], [13 x i8]* @.str.36, i64 0, i64 0), i8* getelementptr inbounds ([9 x i8], [9 x i8]* @_ZN12CJS_Document5kNameE, i64 0, i64 0), %"class.v8::FunctionCallbackInfo"* dereferenceable(24) %0)
  ret void
}

; Function Attrs: nounwind ssp uwtable
define linkonce_odr hidden void @_ZN12CJS_Document15closeDoc_staticERKN2v820FunctionCallbackInfoINS0_5ValueEEE(%"class.v8::FunctionCallbackInfo"* dereferenceable(24)) #0 comdat align 2 {
  tail call void @_Z8JSMethodI12CJS_DocumentXadL_ZNS0_8closeDocEP11CJS_RuntimeRKNSt3__16vectorIN2v85LocalINS5_5ValueEEENS3_9allocatorIS8_EEEEEEEvPKcSF_RKNS5_20FunctionCallbackInfoIS7_EE(i8* getelementptr inbounds ([9 x i8], [9 x i8]* @.str.37, i64 0, i64 0), i8* getelementptr inbounds ([9 x i8], [9 x i8]* @_ZN12CJS_Document5kNameE, i64 0, i64 0), %"class.v8::FunctionCallbackInfo"* dereferenceable(24) %0)
  ret void
}

; Function Attrs: nounwind ssp uwtable
define linkonce_odr hidden void @_ZN12CJS_Document23createDataObject_staticERKN2v820FunctionCallbackInfoINS0_5ValueEEE(%"class.v8::FunctionCallbackInfo"* dereferenceable(24)) #0 comdat align 2 {
  tail call void @_Z8JSMethodI12CJS_DocumentXadL_ZNS0_16createDataObjectEP11CJS_RuntimeRKNSt3__16vectorIN2v85LocalINS5_5ValueEEENS3_9allocatorIS8_EEEEEEEvPKcSF_RKNS5_20FunctionCallbackInfoIS7_EE(i8* getelementptr inbounds ([17 x i8], [17 x i8]* @.str.38, i64 0, i64 0), i8* getelementptr inbounds ([9 x i8], [9 x i8]* @_ZN12CJS_Document5kNameE, i64 0, i64 0), %"class.v8::FunctionCallbackInfo"* dereferenceable(24) %0)
  ret void
}

; Function Attrs: nounwind ssp uwtable
define linkonce_odr hidden void @_ZN12CJS_Document18deletePages_staticERKN2v820FunctionCallbackInfoINS0_5ValueEEE(%"class.v8::FunctionCallbackInfo"* dereferenceable(24)) #0 comdat align 2 {
  tail call void @_Z8JSMethodI12CJS_DocumentXadL_ZNS0_11deletePagesEP11CJS_RuntimeRKNSt3__16vectorIN2v85LocalINS5_5ValueEEENS3_9allocatorIS8_EEEEEEEvPKcSF_RKNS5_20FunctionCallbackInfoIS7_EE(i8* getelementptr inbounds ([12 x i8], [12 x i8]* @.str.39, i64 0, i64 0), i8* getelementptr inbounds ([9 x i8], [9 x i8]* @_ZN12CJS_Document5kNameE, i64 0, i64 0), %"class.v8::FunctionCallbackInfo"* dereferenceable(24) %0)
  ret void
}

; Function Attrs: nounwind ssp uwtable
define linkonce_odr hidden void @_ZN12CJS_Document19exportAsText_staticERKN2v820FunctionCallbackInfoINS0_5ValueEEE(%"class.v8::FunctionCallbackInfo"* dereferenceable(24)) #0 comdat align 2 {
  tail call void @_Z8JSMethodI12CJS_DocumentXadL_ZNS0_12exportAsTextEP11CJS_RuntimeRKNSt3__16vectorIN2v85LocalINS5_5ValueEEENS3_9allocatorIS8_EEEEEEEvPKcSF_RKNS5_20FunctionCallbackInfoIS7_EE(i8* getelementptr inbounds ([13 x i8], [13 x i8]* @.str.40, i64 0, i64 0), i8* getelementptr inbounds ([9 x i8], [9 x i8]* @_ZN12CJS_Document5kNameE, i64 0, i64 0), %"class.v8::FunctionCallbackInfo"* dereferenceable(24) %0)
  ret void
}

; Function Attrs: nounwind ssp uwtable
define linkonce_odr hidden void @_ZN12CJS_Document18exportAsFDF_staticERKN2v820FunctionCallbackInfoINS0_5ValueEEE(%"class.v8::FunctionCallbackInfo"* dereferenceable(24)) #0 comdat align 2 {
  tail call void @_Z8JSMethodI12CJS_DocumentXadL_ZNS0_11exportAsFDFEP11CJS_RuntimeRKNSt3__16vectorIN2v85LocalINS5_5ValueEEENS3_9allocatorIS8_EEEEEEEvPKcSF_RKNS5_20FunctionCallbackInfoIS7_EE(i8* getelementptr inbounds ([12 x i8], [12 x i8]* @.str.41, i64 0, i64 0), i8* getelementptr inbounds ([9 x i8], [9 x i8]* @_ZN12CJS_Document5kNameE, i64 0, i64 0), %"class.v8::FunctionCallbackInfo"* dereferenceable(24) %0)
  ret void
}

; Function Attrs: nounwind ssp uwtable
define linkonce_odr hidden void @_ZN12CJS_Document19exportAsXFDF_staticERKN2v820FunctionCallbackInfoINS0_5ValueEEE(%"class.v8::FunctionCallbackInfo"* dereferenceable(24)) #0 comdat align 2 {
  tail call void @_Z8JSMethodI12CJS_DocumentXadL_ZNS0_12exportAsXFDFEP11CJS_RuntimeRKNSt3__16vectorIN2v85LocalINS5_5ValueEEENS3_9allocatorIS8_EEEEEEEvPKcSF_RKNS5_20FunctionCallbackInfoIS7_EE(i8* getelementptr inbounds ([13 x i8], [13 x i8]* @.str.42, i64 0, i64 0), i8* getelementptr inbounds ([9 x i8], [9 x i8]* @_ZN12CJS_Document5kNameE, i64 0, i64 0), %"class.v8::FunctionCallbackInfo"* dereferenceable(24) %0)
  ret void
}

; Function Attrs: nounwind ssp uwtable
define linkonce_odr hidden void @_ZN12CJS_Document19extractPages_staticERKN2v820FunctionCallbackInfoINS0_5ValueEEE(%"class.v8::FunctionCallbackInfo"* dereferenceable(24)) #0 comdat align 2 {
  tail call void @_Z8JSMethodI12CJS_DocumentXadL_ZNS0_12extractPagesEP11CJS_RuntimeRKNSt3__16vectorIN2v85LocalINS5_5ValueEEENS3_9allocatorIS8_EEEEEEEvPKcSF_RKNS5_20FunctionCallbackInfoIS7_EE(i8* getelementptr inbounds ([13 x i8], [13 x i8]* @.str.43, i64 0, i64 0), i8* getelementptr inbounds ([9 x i8], [9 x i8]* @_ZN12CJS_Document5kNameE, i64 0, i64 0), %"class.v8::FunctionCallbackInfo"* dereferenceable(24) %0)
  ret void
}

; Function Attrs: nounwind ssp uwtable
define linkonce_odr hidden void @_ZN12CJS_Document15getAnnot_staticERKN2v820FunctionCallbackInfoINS0_5ValueEEE(%"class.v8::FunctionCallbackInfo"* dereferenceable(24)) #0 comdat align 2 {
  tail call void @_Z8JSMethodI12CJS_DocumentXadL_ZNS0_8getAnnotEP11CJS_RuntimeRKNSt3__16vectorIN2v85LocalINS5_5ValueEEENS3_9allocatorIS8_EEEEEEEvPKcSF_RKNS5_20FunctionCallbackInfoIS7_EE(i8* getelementptr inbounds ([9 x i8], [9 x i8]* @.str.44, i64 0, i64 0), i8* getelementptr inbounds ([9 x i8], [9 x i8]* @_ZN12CJS_Document5kNameE, i64 0, i64 0), %"class.v8::FunctionCallbackInfo"* dereferenceable(24) %0)
  ret void
}

; Function Attrs: nounwind ssp uwtable
define linkonce_odr hidden void @_ZN12CJS_Document16getAnnots_staticERKN2v820FunctionCallbackInfoINS0_5ValueEEE(%"class.v8::FunctionCallbackInfo"* dereferenceable(24)) #0 comdat align 2 {
  tail call void @_Z8JSMethodI12CJS_DocumentXadL_ZNS0_9getAnnotsEP11CJS_RuntimeRKNSt3__16vectorIN2v85LocalINS5_5ValueEEENS3_9allocatorIS8_EEEEEEEvPKcSF_RKNS5_20FunctionCallbackInfoIS7_EE(i8* getelementptr inbounds ([10 x i8], [10 x i8]* @.str.45, i64 0, i64 0), i8* getelementptr inbounds ([9 x i8], [9 x i8]* @_ZN12CJS_Document5kNameE, i64 0, i64 0), %"class.v8::FunctionCallbackInfo"* dereferenceable(24) %0)
  ret void
}

; Function Attrs: nounwind ssp uwtable
define linkonce_odr hidden void @_ZN12CJS_Document17getAnnot3D_staticERKN2v820FunctionCallbackInfoINS0_5ValueEEE(%"class.v8::FunctionCallbackInfo"* dereferenceable(24)) #0 comdat align 2 {
  tail call void @_Z8JSMethodI12CJS_DocumentXadL_ZNS0_10getAnnot3DEP11CJS_RuntimeRKNSt3__16vectorIN2v85LocalINS5_5ValueEEENS3_9allocatorIS8_EEEEEEEvPKcSF_RKNS5_20FunctionCallbackInfoIS7_EE(i8* getelementptr inbounds ([11 x i8], [11 x i8]* @.str.46, i64 0, i64 0), i8* getelementptr inbounds ([9 x i8], [9 x i8]* @_ZN12CJS_Document5kNameE, i64 0, i64 0), %"class.v8::FunctionCallbackInfo"* dereferenceable(24) %0)
  ret void
}

; Function Attrs: nounwind ssp uwtable
define linkonce_odr hidden void @_ZN12CJS_Document18getAnnots3D_staticERKN2v820FunctionCallbackInfoINS0_5ValueEEE(%"class.v8::FunctionCallbackInfo"* dereferenceable(24)) #0 comdat align 2 {
  tail call void @_Z8JSMethodI12CJS_DocumentXadL_ZNS0_11getAnnots3DEP11CJS_RuntimeRKNSt3__16vectorIN2v85LocalINS5_5ValueEEENS3_9allocatorIS8_EEEEEEEvPKcSF_RKNS5_20FunctionCallbackInfoIS7_EE(i8* getelementptr inbounds ([12 x i8], [12 x i8]* @.str.47, i64 0, i64 0), i8* getelementptr inbounds ([9 x i8], [9 x i8]* @_ZN12CJS_Document5kNameE, i64 0, i64 0), %"class.v8::FunctionCallbackInfo"* dereferenceable(24) %0)
  ret void
}

; Function Attrs: nounwind ssp uwtable
define linkonce_odr hidden void @_ZN12CJS_Document15getField_staticERKN2v820FunctionCallbackInfoINS0_5ValueEEE(%"class.v8::FunctionCallbackInfo"* dereferenceable(24)) #0 comdat align 2 {
  tail call void @_Z8JSMethodI12CJS_DocumentXadL_ZNS0_8getFieldEP11CJS_RuntimeRKNSt3__16vectorIN2v85LocalINS5_5ValueEEENS3_9allocatorIS8_EEEEEEEvPKcSF_RKNS5_20FunctionCallbackInfoIS7_EE(i8* getelementptr inbounds ([9 x i8], [9 x i8]* @.str.48, i64 0, i64 0), i8* getelementptr inbounds ([9 x i8], [9 x i8]* @_ZN12CJS_Document5kNameE, i64 0, i64 0), %"class.v8::FunctionCallbackInfo"* dereferenceable(24) %0)
  ret void
}

; Function Attrs: nounwind ssp uwtable
define linkonce_odr hidden void @_ZN12CJS_Document14getIcon_staticERKN2v820FunctionCallbackInfoINS0_5ValueEEE(%"class.v8::FunctionCallbackInfo"* dereferenceable(24)) #0 comdat align 2 {
  tail call void @_Z8JSMethodI12CJS_DocumentXadL_ZNS0_7getIconEP11CJS_RuntimeRKNSt3__16vectorIN2v85LocalINS5_5ValueEEENS3_9allocatorIS8_EEEEEEEvPKcSF_RKNS5_20FunctionCallbackInfoIS7_EE(i8* getelementptr inbounds ([8 x i8], [8 x i8]* @.str.49, i64 0, i64 0), i8* getelementptr inbounds ([9 x i8], [9 x i8]* @_ZN12CJS_Document5kNameE, i64 0, i64 0), %"class.v8::FunctionCallbackInfo"* dereferenceable(24) %0)
  ret void
}

; Function Attrs: nounwind ssp uwtable
define linkonce_odr hidden void @_ZN12CJS_Document15getLinks_staticERKN2v820FunctionCallbackInfoINS0_5ValueEEE(%"class.v8::FunctionCallbackInfo"* dereferenceable(24)) #0 comdat align 2 {
  tail call void @_Z8JSMethodI12CJS_DocumentXadL_ZNS0_8getLinksEP11CJS_RuntimeRKNSt3__16vectorIN2v85LocalINS5_5ValueEEENS3_9allocatorIS8_EEEEEEEvPKcSF_RKNS5_20FunctionCallbackInfoIS7_EE(i8* getelementptr inbounds ([9 x i8], [9 x i8]* @.str.50, i64 0, i64 0), i8* getelementptr inbounds ([9 x i8], [9 x i8]* @_ZN12CJS_Document5kNameE, i64 0, i64 0), %"class.v8::FunctionCallbackInfo"* dereferenceable(24) %0)
  ret void
}

; Function Attrs: nounwind ssp uwtable
define linkonce_odr hidden void @_ZN12CJS_Document22getNthFieldName_staticERKN2v820FunctionCallbackInfoINS0_5ValueEEE(%"class.v8::FunctionCallbackInfo"* dereferenceable(24)) #0 comdat align 2 {
  tail call void @_Z8JSMethodI12CJS_DocumentXadL_ZNS0_15getNthFieldNameEP11CJS_RuntimeRKNSt3__16vectorIN2v85LocalINS5_5ValueEEENS3_9allocatorIS8_EEEEEEEvPKcSF_RKNS5_20FunctionCallbackInfoIS7_EE(i8* getelementptr inbounds ([16 x i8], [16 x i8]* @.str.51, i64 0, i64 0), i8* getelementptr inbounds ([9 x i8], [9 x i8]* @_ZN12CJS_Document5kNameE, i64 0, i64 0), %"class.v8::FunctionCallbackInfo"* dereferenceable(24) %0)
  ret void
}

; Function Attrs: nounwind ssp uwtable
define linkonce_odr hidden void @_ZN12CJS_Document14getOCGs_staticERKN2v820FunctionCallbackInfoINS0_5ValueEEE(%"class.v8::FunctionCallbackInfo"* dereferenceable(24)) #0 comdat align 2 {
  tail call void @_Z8JSMethodI12CJS_DocumentXadL_ZNS0_7getOCGsEP11CJS_RuntimeRKNSt3__16vectorIN2v85LocalINS5_5ValueEEENS3_9allocatorIS8_EEEEEEEvPKcSF_RKNS5_20FunctionCallbackInfoIS7_EE(i8* getelementptr inbounds ([8 x i8], [8 x i8]* @.str.52, i64 0, i64 0), i8* getelementptr inbounds ([9 x i8], [9 x i8]* @_ZN12CJS_Document5kNameE, i64 0, i64 0), %"class.v8::FunctionCallbackInfo"* dereferenceable(24) %0)
  ret void
}

; Function Attrs: nounwind ssp uwtable
define linkonce_odr hidden void @_ZN12CJS_Document17getPageBox_staticERKN2v820FunctionCallbackInfoINS0_5ValueEEE(%"class.v8::FunctionCallbackInfo"* dereferenceable(24)) #0 comdat align 2 {
  tail call void @_Z8JSMethodI12CJS_DocumentXadL_ZNS0_10getPageBoxEP11CJS_RuntimeRKNSt3__16vectorIN2v85LocalINS5_5ValueEEENS3_9allocatorIS8_EEEEEEEvPKcSF_RKNS5_20FunctionCallbackInfoIS7_EE(i8* getelementptr inbounds ([11 x i8], [11 x i8]* @.str.53, i64 0, i64 0), i8* getelementptr inbounds ([9 x i8], [9 x i8]* @_ZN12CJS_Document5kNameE, i64 0, i64 0), %"class.v8::FunctionCallbackInfo"* dereferenceable(24) %0)
  ret void
}

; Function Attrs: nounwind ssp uwtable
define linkonce_odr hidden void @_ZN12CJS_Document21getPageNthWord_staticERKN2v820FunctionCallbackInfoINS0_5ValueEEE(%"class.v8::FunctionCallbackInfo"* dereferenceable(24)) #0 comdat align 2 {
  tail call void @_Z8JSMethodI12CJS_DocumentXadL_ZNS0_14getPageNthWordEP11CJS_RuntimeRKNSt3__16vectorIN2v85LocalINS5_5ValueEEENS3_9allocatorIS8_EEEEEEEvPKcSF_RKNS5_20FunctionCallbackInfoIS7_EE(i8* getelementptr inbounds ([15 x i8], [15 x i8]* @.str.54, i64 0, i64 0), i8* getelementptr inbounds ([9 x i8], [9 x i8]* @_ZN12CJS_Document5kNameE, i64 0, i64 0), %"class.v8::FunctionCallbackInfo"* dereferenceable(24) %0)
  ret void
}

; Function Attrs: nounwind ssp uwtable
define linkonce_odr hidden void @_ZN12CJS_Document26getPageNthWordQuads_staticERKN2v820FunctionCallbackInfoINS0_5ValueEEE(%"class.v8::FunctionCallbackInfo"* dereferenceable(24)) #0 comdat align 2 {
  tail call void @_Z8JSMethodI12CJS_DocumentXadL_ZNS0_19getPageNthWordQuadsEP11CJS_RuntimeRKNSt3__16vectorIN2v85LocalINS5_5ValueEEENS3_9allocatorIS8_EEEEEEEvPKcSF_RKNS5_20FunctionCallbackInfoIS7_EE(i8* getelementptr inbounds ([20 x i8], [20 x i8]* @.str.55, i64 0, i64 0), i8* getelementptr inbounds ([9 x i8], [9 x i8]* @_ZN12CJS_Document5kNameE, i64 0, i64 0), %"class.v8::FunctionCallbackInfo"* dereferenceable(24) %0)
  ret void
}

; Function Attrs: nounwind ssp uwtable
define linkonce_odr hidden void @_ZN12CJS_Document22getPageNumWords_staticERKN2v820FunctionCallbackInfoINS0_5ValueEEE(%"class.v8::FunctionCallbackInfo"* dereferenceable(24)) #0 comdat align 2 {
  tail call void @_Z8JSMethodI12CJS_DocumentXadL_ZNS0_15getPageNumWordsEP11CJS_RuntimeRKNSt3__16vectorIN2v85LocalINS5_5ValueEEENS3_9allocatorIS8_EEEEEEEvPKcSF_RKNS5_20FunctionCallbackInfoIS7_EE(i8* getelementptr inbounds ([16 x i8], [16 x i8]* @.str.56, i64 0, i64 0), i8* getelementptr inbounds ([9 x i8], [9 x i8]* @_ZN12CJS_Document5kNameE, i64 0, i64 0), %"class.v8::FunctionCallbackInfo"* dereferenceable(24) %0)
  ret void
}

; Function Attrs: nounwind ssp uwtable
define linkonce_odr hidden void @_ZN12CJS_Document21getPrintParams_staticERKN2v820FunctionCallbackInfoINS0_5ValueEEE(%"class.v8::FunctionCallbackInfo"* dereferenceable(24)) #0 comdat align 2 {
  tail call void @_Z8JSMethodI12CJS_DocumentXadL_ZNS0_14getPrintParamsEP11CJS_RuntimeRKNSt3__16vectorIN2v85LocalINS5_5ValueEEENS3_9allocatorIS8_EEEEEEEvPKcSF_RKNS5_20FunctionCallbackInfoIS7_EE(i8* getelementptr inbounds ([15 x i8], [15 x i8]* @.str.57, i64 0, i64 0), i8* getelementptr inbounds ([9 x i8], [9 x i8]* @_ZN12CJS_Document5kNameE, i64 0, i64 0), %"class.v8::FunctionCallbackInfo"* dereferenceable(24) %0)
  ret void
}

; Function Attrs: nounwind ssp uwtable
define linkonce_odr hidden void @_ZN12CJS_Document13getURL_staticERKN2v820FunctionCallbackInfoINS0_5ValueEEE(%"class.v8::FunctionCallbackInfo"* dereferenceable(24)) #0 comdat align 2 {
  tail call void @_Z8JSMethodI12CJS_DocumentXadL_ZNS0_6getURLEP11CJS_RuntimeRKNSt3__16vectorIN2v85LocalINS5_5ValueEEENS3_9allocatorIS8_EEEEEEEvPKcSF_RKNS5_20FunctionCallbackInfoIS7_EE(i8* getelementptr inbounds ([7 x i8], [7 x i8]* @.str.58, i64 0, i64 0), i8* getelementptr inbounds ([9 x i8], [9 x i8]* @_ZN12CJS_Document5kNameE, i64 0, i64 0), %"class.v8::FunctionCallbackInfo"* dereferenceable(24) %0)
  ret void
}

; Function Attrs: nounwind ssp uwtable
define linkonce_odr hidden void @_ZN12CJS_Document20gotoNamedDest_staticERKN2v820FunctionCallbackInfoINS0_5ValueEEE(%"class.v8::FunctionCallbackInfo"* dereferenceable(24)) #0 comdat align 2 {
  tail call void @_Z8JSMethodI12CJS_DocumentXadL_ZNS0_13gotoNamedDestEP11CJS_RuntimeRKNSt3__16vectorIN2v85LocalINS5_5ValueEEENS3_9allocatorIS8_EEEEEEEvPKcSF_RKNS5_20FunctionCallbackInfoIS7_EE(i8* getelementptr inbounds ([14 x i8], [14 x i8]* @.str.59, i64 0, i64 0), i8* getelementptr inbounds ([9 x i8], [9 x i8]* @_ZN12CJS_Document5kNameE, i64 0, i64 0), %"class.v8::FunctionCallbackInfo"* dereferenceable(24) %0)
  ret void
}

; Function Attrs: nounwind ssp uwtable
define linkonce_odr hidden void @_ZN12CJS_Document18importAnFDF_staticERKN2v820FunctionCallbackInfoINS0_5ValueEEE(%"class.v8::FunctionCallbackInfo"* dereferenceable(24)) #0 comdat align 2 {
  tail call void @_Z8JSMethodI12CJS_DocumentXadL_ZNS0_11importAnFDFEP11CJS_RuntimeRKNSt3__16vectorIN2v85LocalINS5_5ValueEEENS3_9allocatorIS8_EEEEEEEvPKcSF_RKNS5_20FunctionCallbackInfoIS7_EE(i8* getelementptr inbounds ([12 x i8], [12 x i8]* @.str.60, i64 0, i64 0), i8* getelementptr inbounds ([9 x i8], [9 x i8]* @_ZN12CJS_Document5kNameE, i64 0, i64 0), %"class.v8::FunctionCallbackInfo"* dereferenceable(24) %0)
  ret void
}

; Function Attrs: nounwind ssp uwtable
define linkonce_odr hidden void @_ZN12CJS_Document19importAnXFDF_staticERKN2v820FunctionCallbackInfoINS0_5ValueEEE(%"class.v8::FunctionCallbackInfo"* dereferenceable(24)) #0 comdat align 2 {
  tail call void @_Z8JSMethodI12CJS_DocumentXadL_ZNS0_12importAnXFDFEP11CJS_RuntimeRKNSt3__16vectorIN2v85LocalINS5_5ValueEEENS3_9allocatorIS8_EEEEEEEvPKcSF_RKNS5_20FunctionCallbackInfoIS7_EE(i8* getelementptr inbounds ([13 x i8], [13 x i8]* @.str.61, i64 0, i64 0), i8* getelementptr inbounds ([9 x i8], [9 x i8]* @_ZN12CJS_Document5kNameE, i64 0, i64 0), %"class.v8::FunctionCallbackInfo"* dereferenceable(24) %0)
  ret void
}

; Function Attrs: nounwind ssp uwtable
define linkonce_odr hidden void @_ZN12CJS_Document21importTextData_staticERKN2v820FunctionCallbackInfoINS0_5ValueEEE(%"class.v8::FunctionCallbackInfo"* dereferenceable(24)) #0 comdat align 2 {
  tail call void @_Z8JSMethodI12CJS_DocumentXadL_ZNS0_14importTextDataEP11CJS_RuntimeRKNSt3__16vectorIN2v85LocalINS5_5ValueEEENS3_9allocatorIS8_EEEEEEEvPKcSF_RKNS5_20FunctionCallbackInfoIS7_EE(i8* getelementptr inbounds ([15 x i8], [15 x i8]* @.str.62, i64 0, i64 0), i8* getelementptr inbounds ([9 x i8], [9 x i8]* @_ZN12CJS_Document5kNameE, i64 0, i64 0), %"class.v8::FunctionCallbackInfo"* dereferenceable(24) %0)
  ret void
}

; Function Attrs: nounwind ssp uwtable
define linkonce_odr hidden void @_ZN12CJS_Document18insertPages_staticERKN2v820FunctionCallbackInfoINS0_5ValueEEE(%"class.v8::FunctionCallbackInfo"* dereferenceable(24)) #0 comdat align 2 {
  tail call void @_Z8JSMethodI12CJS_DocumentXadL_ZNS0_11insertPagesEP11CJS_RuntimeRKNSt3__16vectorIN2v85LocalINS5_5ValueEEENS3_9allocatorIS8_EEEEEEEvPKcSF_RKNS5_20FunctionCallbackInfoIS7_EE(i8* getelementptr inbounds ([12 x i8], [12 x i8]* @.str.63, i64 0, i64 0), i8* getelementptr inbounds ([9 x i8], [9 x i8]* @_ZN12CJS_Document5kNameE, i64 0, i64 0), %"class.v8::FunctionCallbackInfo"* dereferenceable(24) %0)
  ret void
}

; Function Attrs: nounwind ssp uwtable
define linkonce_odr hidden void @_ZN12CJS_Document14mailDoc_staticERKN2v820FunctionCallbackInfoINS0_5ValueEEE(%"class.v8::FunctionCallbackInfo"* dereferenceable(24)) #0 comdat align 2 {
  tail call void @_Z8JSMethodI12CJS_DocumentXadL_ZNS0_7mailDocEP11CJS_RuntimeRKNSt3__16vectorIN2v85LocalINS5_5ValueEEENS3_9allocatorIS8_EEEEEEEvPKcSF_RKNS5_20FunctionCallbackInfoIS7_EE(i8* getelementptr inbounds ([8 x i8], [8 x i8]* @.str.64, i64 0, i64 0), i8* getelementptr inbounds ([9 x i8], [9 x i8]* @_ZN12CJS_Document5kNameE, i64 0, i64 0), %"class.v8::FunctionCallbackInfo"* dereferenceable(24) %0)
  ret void
}

; Function Attrs: nounwind ssp uwtable
define linkonce_odr hidden void @_ZN12CJS_Document15mailForm_staticERKN2v820FunctionCallbackInfoINS0_5ValueEEE(%"class.v8::FunctionCallbackInfo"* dereferenceable(24)) #0 comdat align 2 {
  tail call void @_Z8JSMethodI12CJS_DocumentXadL_ZNS0_8mailFormEP11CJS_RuntimeRKNSt3__16vectorIN2v85LocalINS5_5ValueEEENS3_9allocatorIS8_EEEEEEEvPKcSF_RKNS5_20FunctionCallbackInfoIS7_EE(i8* getelementptr inbounds ([9 x i8], [9 x i8]* @.str.65, i64 0, i64 0), i8* getelementptr inbounds ([9 x i8], [9 x i8]* @_ZN12CJS_Document5kNameE, i64 0, i64 0), %"class.v8::FunctionCallbackInfo"* dereferenceable(24) %0)
  ret void
}

; Function Attrs: nounwind ssp uwtable
define linkonce_odr hidden void @_ZN12CJS_Document12print_staticERKN2v820FunctionCallbackInfoINS0_5ValueEEE(%"class.v8::FunctionCallbackInfo"* dereferenceable(24)) #0 comdat align 2 {
  tail call void @_Z8JSMethodI12CJS_DocumentXadL_ZNS0_5printEP11CJS_RuntimeRKNSt3__16vectorIN2v85LocalINS5_5ValueEEENS3_9allocatorIS8_EEEEEEEvPKcSF_RKNS5_20FunctionCallbackInfoIS7_EE(i8* getelementptr inbounds ([6 x i8], [6 x i8]* @.str.66, i64 0, i64 0), i8* getelementptr inbounds ([9 x i8], [9 x i8]* @_ZN12CJS_Document5kNameE, i64 0, i64 0), %"class.v8::FunctionCallbackInfo"* dereferenceable(24) %0)
  ret void
}

; Function Attrs: nounwind ssp uwtable
define linkonce_odr hidden void @_ZN12CJS_Document18removeField_staticERKN2v820FunctionCallbackInfoINS0_5ValueEEE(%"class.v8::FunctionCallbackInfo"* dereferenceable(24)) #0 comdat align 2 {
  tail call void @_Z8JSMethodI12CJS_DocumentXadL_ZNS0_11removeFieldEP11CJS_RuntimeRKNSt3__16vectorIN2v85LocalINS5_5ValueEEENS3_9allocatorIS8_EEEEEEEvPKcSF_RKNS5_20FunctionCallbackInfoIS7_EE(i8* getelementptr inbounds ([12 x i8], [12 x i8]* @.str.67, i64 0, i64 0), i8* getelementptr inbounds ([9 x i8], [9 x i8]* @_ZN12CJS_Document5kNameE, i64 0, i64 0), %"class.v8::FunctionCallbackInfo"* dereferenceable(24) %0)
  ret void
}

; Function Attrs: nounwind ssp uwtable
define linkonce_odr hidden void @_ZN12CJS_Document19replacePages_staticERKN2v820FunctionCallbackInfoINS0_5ValueEEE(%"class.v8::FunctionCallbackInfo"* dereferenceable(24)) #0 comdat align 2 {
  tail call void @_Z8JSMethodI12CJS_DocumentXadL_ZNS0_12replacePagesEP11CJS_RuntimeRKNSt3__16vectorIN2v85LocalINS5_5ValueEEENS3_9allocatorIS8_EEEEEEEvPKcSF_RKNS5_20FunctionCallbackInfoIS7_EE(i8* getelementptr inbounds ([13 x i8], [13 x i8]* @.str.68, i64 0, i64 0), i8* getelementptr inbounds ([9 x i8], [9 x i8]* @_ZN12CJS_Document5kNameE, i64 0, i64 0), %"class.v8::FunctionCallbackInfo"* dereferenceable(24) %0)
  ret void
}

; Function Attrs: nounwind ssp uwtable
define linkonce_odr hidden void @_ZN12CJS_Document16resetForm_staticERKN2v820FunctionCallbackInfoINS0_5ValueEEE(%"class.v8::FunctionCallbackInfo"* dereferenceable(24)) #0 comdat align 2 {
  tail call void @_Z8JSMethodI12CJS_DocumentXadL_ZNS0_9resetFormEP11CJS_RuntimeRKNSt3__16vectorIN2v85LocalINS5_5ValueEEENS3_9allocatorIS8_EEEEEEEvPKcSF_RKNS5_20FunctionCallbackInfoIS7_EE(i8* getelementptr inbounds ([10 x i8], [10 x i8]* @.str.69, i64 0, i64 0), i8* getelementptr inbounds ([9 x i8], [9 x i8]* @_ZN12CJS_Document5kNameE, i64 0, i64 0), %"class.v8::FunctionCallbackInfo"* dereferenceable(24) %0)
  ret void
}

; Function Attrs: nounwind ssp uwtable
define linkonce_odr hidden void @_ZN12CJS_Document17removeIcon_staticERKN2v820FunctionCallbackInfoINS0_5ValueEEE(%"class.v8::FunctionCallbackInfo"* dereferenceable(24)) #0 comdat align 2 {
  tail call void @_Z8JSMethodI12CJS_DocumentXadL_ZNS0_10removeIconEP11CJS_RuntimeRKNSt3__16vectorIN2v85LocalINS5_5ValueEEENS3_9allocatorIS8_EEEEEEEvPKcSF_RKNS5_20FunctionCallbackInfoIS7_EE(i8* getelementptr inbounds ([11 x i8], [11 x i8]* @.str.70, i64 0, i64 0), i8* getelementptr inbounds ([9 x i8], [9 x i8]* @_ZN12CJS_Document5kNameE, i64 0, i64 0), %"class.v8::FunctionCallbackInfo"* dereferenceable(24) %0)
  ret void
}

; Function Attrs: nounwind ssp uwtable
define linkonce_odr hidden void @_ZN12CJS_Document13saveAs_staticERKN2v820FunctionCallbackInfoINS0_5ValueEEE(%"class.v8::FunctionCallbackInfo"* dereferenceable(24)) #0 comdat align 2 {
  tail call void @_Z8JSMethodI12CJS_DocumentXadL_ZNS0_6saveAsEP11CJS_RuntimeRKNSt3__16vectorIN2v85LocalINS5_5ValueEEENS3_9allocatorIS8_EEEEEEEvPKcSF_RKNS5_20FunctionCallbackInfoIS7_EE(i8* getelementptr inbounds ([7 x i8], [7 x i8]* @.str.71, i64 0, i64 0), i8* getelementptr inbounds ([9 x i8], [9 x i8]* @_ZN12CJS_Document5kNameE, i64 0, i64 0), %"class.v8::FunctionCallbackInfo"* dereferenceable(24) %0)
  ret void
}

; Function Attrs: nounwind ssp uwtable
define linkonce_odr hidden void @_ZN12CJS_Document17submitForm_staticERKN2v820FunctionCallbackInfoINS0_5ValueEEE(%"class.v8::FunctionCallbackInfo"* dereferenceable(24)) #0 comdat align 2 {
  tail call void @_Z8JSMethodI12CJS_DocumentXadL_ZNS0_10submitFormEP11CJS_RuntimeRKNSt3__16vectorIN2v85LocalINS5_5ValueEEENS3_9allocatorIS8_EEEEEEEvPKcSF_RKNS5_20FunctionCallbackInfoIS7_EE(i8* getelementptr inbounds ([11 x i8], [11 x i8]* @.str.72, i64 0, i64 0), i8* getelementptr inbounds ([9 x i8], [9 x i8]* @_ZN12CJS_Document5kNameE, i64 0, i64 0), %"class.v8::FunctionCallbackInfo"* dereferenceable(24) %0)
  ret void
}

; Function Attrs: nounwind ssp uwtable
define linkonce_odr hidden void @_ZN12CJS_Document20syncAnnotScan_staticERKN2v820FunctionCallbackInfoINS0_5ValueEEE(%"class.v8::FunctionCallbackInfo"* dereferenceable(24)) #0 comdat align 2 {
  tail call void @_Z8JSMethodI12CJS_DocumentXadL_ZNS0_13syncAnnotScanEP11CJS_RuntimeRKNSt3__16vectorIN2v85LocalINS5_5ValueEEENS3_9allocatorIS8_EEEEEEEvPKcSF_RKNS5_20FunctionCallbackInfoIS7_EE(i8* getelementptr inbounds ([14 x i8], [14 x i8]* @.str.73, i64 0, i64 0), i8* getelementptr inbounds ([9 x i8], [9 x i8]* @_ZN12CJS_Document5kNameE, i64 0, i64 0), %"class.v8::FunctionCallbackInfo"* dereferenceable(24) %0)
  ret void
}

; Function Attrs: norecurse nounwind readonly ssp uwtable
define hidden i32 @_ZN12CJS_Document12GetObjDefnIDEv() local_unnamed_addr #1 align 2 {
  %1 = load i32, i32* @_ZN12CJS_Document9ObjDefnIDE, align 4
  ret i32 %1
}

; Function Attrs: nounwind ssp uwtable
define hidden void @_ZN12CJS_Document15DefineJSObjectsEP12CFXJS_Engine(%class.CFXJS_Engine*) local_unnamed_addr #0 align 2 {
  %2 = alloca %"class.std::__1::function", align 8
  %3 = alloca %"class.std::__1::function.15", align 8
  %4 = alloca %"class.pdfium::span", align 8
  %5 = alloca %"class.pdfium::span.21", align 8
  %6 = getelementptr inbounds %"class.std::__1::function", %"class.std::__1::function"* %2, i64 0, i32 0, i32 1, i32 0
  %7 = getelementptr inbounds %"class.std::__1::function", %"class.std::__1::function"* %2, i64 0, i32 0, i32 2
  store void (%"union.std::__1::__function::__policy_storage"*, %class.CFXJS_Engine*, %"class.v8::Local.14"*)* @_ZNSt3__110__function16__policy_invokerIFvP12CFXJS_EngineN2v85LocalINS4_6ObjectEEEEE11__call_implINS0_20__default_alloc_funcIPS8_S8_EEEEvPKNS0_16__policy_storageES3_OS7_, void (%"union.std::__1::__function::__policy_storage"*, %class.CFXJS_Engine*, %"class.v8::Local.14"*)** %6, align 8
  store %"struct.std::__1::__function::__policy"* @_ZZNSt3__110__function8__policy15__choose_policyINS0_20__default_alloc_funcIPFvP12CFXJS_EngineN2v85LocalINS6_6ObjectEEEESA_EEEEPKS1_NS_17integral_constantIbLb1EEEE9__policy_, %"struct.std::__1::__function::__policy"** %7, align 8
  %8 = bitcast %"class.std::__1::function"* %2 to i64*
  store i64 ptrtoint (void (%class.CFXJS_Engine*, %"class.v8::Object"*)* @_ZL13JSConstructorI12CJS_DocumentEvP12CFXJS_EngineN2v85LocalINS3_6ObjectEEE to i64), i64* %8, align 8
  %9 = getelementptr inbounds %"class.std::__1::function.15", %"class.std::__1::function.15"* %3, i64 0, i32 0, i32 1, i32 0
  %10 = getelementptr inbounds %"class.std::__1::function.15", %"class.std::__1::function.15"* %3, i64 0, i32 0, i32 2
  store void (%"union.std::__1::__function::__policy_storage"*, %"class.v8::Local.14"*)* @_ZNSt3__110__function16__policy_invokerIFvN2v85LocalINS2_6ObjectEEEEE11__call_implINS0_20__default_alloc_funcIPS6_S6_EEEEvPKNS0_16__policy_storageEOS5_, void (%"union.std::__1::__function::__policy_storage"*, %"class.v8::Local.14"*)** %9, align 8
  store %"struct.std::__1::__function::__policy"* @_ZZNSt3__110__function8__policy15__choose_policyINS0_20__default_alloc_funcIPFvN2v85LocalINS4_6ObjectEEEES8_EEEEPKS1_NS_17integral_constantIbLb1EEEE9__policy_, %"struct.std::__1::__function::__policy"** %10, align 8
  %11 = bitcast %"class.std::__1::function.15"* %3 to i64*
  store i64 ptrtoint (void (%"class.v8::Object"*)* @_Z12JSDestructorN2v85LocalINS_6ObjectEEE to i64), i64* %11, align 8
  %12 = call i32 @_ZN12CFXJS_Engine9DefineObjEPKc11FXJSOBJTYPENSt3__18functionIFvPS_N2v85LocalINS6_6ObjectEEEEEENS4_IFvS9_EEE(%class.CFXJS_Engine* %0, i8* getelementptr inbounds ([9 x i8], [9 x i8]* @_ZN12CJS_Document5kNameE, i64 0, i64 0), i32 2, %"class.std::__1::function"* nonnull %2, %"class.std::__1::function.15"* nonnull %3) #11
  store i32 %12, i32* @_ZN12CJS_Document9ObjDefnIDE, align 4
  %13 = load %"struct.std::__1::__function::__policy"*, %"struct.std::__1::__function::__policy"** %10, align 8
  %14 = getelementptr inbounds %"struct.std::__1::__function::__policy", %"struct.std::__1::__function::__policy"* %13, i64 0, i32 1
  %15 = load void (i8*)*, void (i8*)** %14, align 8
  %16 = icmp eq void (i8*)* %15, null
  br i1 %16, label %20, label %17

17:                                               ; preds = %1
  %18 = getelementptr inbounds %"class.std::__1::function.15", %"class.std::__1::function.15"* %3, i64 0, i32 0, i32 0, i32 0
  %19 = load i8*, i8** %18, align 8
  call void %15(i8* %19) #11
  br label %20

20:                                               ; preds = %1, %17
  %21 = load %"struct.std::__1::__function::__policy"*, %"struct.std::__1::__function::__policy"** %7, align 8
  %22 = getelementptr inbounds %"struct.std::__1::__function::__policy", %"struct.std::__1::__function::__policy"* %21, i64 0, i32 1
  %23 = load void (i8*)*, void (i8*)** %22, align 8
  %24 = icmp eq void (i8*)* %23, null
  br i1 %24, label %28, label %25

25:                                               ; preds = %20
  %26 = getelementptr inbounds %"class.std::__1::function", %"class.std::__1::function"* %2, i64 0, i32 0, i32 0, i32 0
  %27 = load i8*, i8** %26, align 8
  call void %23(i8* %27) #11
  br label %28

28:                                               ; preds = %20, %25
  %29 = load i32, i32* @_ZN12CJS_Document9ObjDefnIDE, align 4
  %30 = getelementptr inbounds %"class.pdfium::span", %"class.pdfium::span"* %4, i64 0, i32 0, i32 0
  store %struct.JSPropertySpec* getelementptr inbounds ([32 x %struct.JSPropertySpec], [32 x %struct.JSPropertySpec]* @_ZN12CJS_Document13PropertySpecsE, i64 0, i64 0), %struct.JSPropertySpec** %30, align 8
  %31 = getelementptr inbounds %"class.pdfium::span", %"class.pdfium::span"* %4, i64 0, i32 1
  store i64 32, i64* %31, align 8
  call void @_ZN10CJS_Object11DefinePropsEP12CFXJS_EnginejN6pdfium4spanIK14JSPropertySpecEE(%class.CFXJS_Engine* %0, i32 %29, %"class.pdfium::span"* nonnull %4) #11
  %32 = load i32, i32* @_ZN12CJS_Document9ObjDefnIDE, align 4
  %33 = getelementptr inbounds %"class.pdfium::span.21", %"class.pdfium::span.21"* %5, i64 0, i32 0, i32 0
  store %struct.JSMethodSpec* getelementptr inbounds ([42 x %struct.JSMethodSpec], [42 x %struct.JSMethodSpec]* @_ZN12CJS_Document11MethodSpecsE, i64 0, i64 0), %struct.JSMethodSpec** %33, align 8
  %34 = getelementptr inbounds %"class.pdfium::span.21", %"class.pdfium::span.21"* %5, i64 0, i32 1
  store i64 42, i64* %34, align 8
  call void @_ZN10CJS_Object13DefineMethodsEP12CFXJS_EnginejN6pdfium4spanIK12JSMethodSpecEE(%class.CFXJS_Engine* %0, i32 %32, %"class.pdfium::span.21"* nonnull %5) #11
  ret void
}

declare i32 @_ZN12CFXJS_Engine9DefineObjEPKc11FXJSOBJTYPENSt3__18functionIFvPS_N2v85LocalINS6_6ObjectEEEEEENS4_IFvS9_EEE(%class.CFXJS_Engine*, i8*, i32, %"class.std::__1::function"*, %"class.std::__1::function.15"*) local_unnamed_addr #2

; Function Attrs: nounwind ssp uwtable
define internal void @_ZL13JSConstructorI12CJS_DocumentEvP12CFXJS_EngineN2v85LocalINS3_6ObjectEEE(%class.CFXJS_Engine*, %"class.v8::Object"*) #0 {
  %3 = icmp eq %class.CFXJS_Engine* %0, null
  %4 = getelementptr inbounds %class.CFXJS_Engine, %class.CFXJS_Engine* %0, i64 -1, i32 3, i32 0, i32 2
  %5 = bitcast %"class.std::__1::__compressed_pair.10"* %4 to %class.CJS_Runtime*
  %6 = select i1 %3, %class.CJS_Runtime* null, %class.CJS_Runtime* %5
  %7 = tail call i8* @_Znwm(i64 144) #12
  %8 = bitcast i8* %7 to %class.CJS_Document*
  tail call void @_ZN12CJS_DocumentC2EN2v85LocalINS0_6ObjectEEEP11CJS_Runtime(%class.CJS_Document* nonnull %8, %"class.v8::Object"* %1, %class.CJS_Runtime* %6) #11
  %9 = bitcast i8* %7 to %class.CJS_Object*
  tail call void @_ZN12CFXJS_Engine16SetObjectPrivateEN2v85LocalINS0_6ObjectEEENSt3__110unique_ptrI10CJS_ObjectNS4_14default_deleteIS6_EEEE(%"class.v8::Object"* %1, %class.CJS_Object* nonnull %9) #11
  ret void
}

declare void @_Z12JSDestructorN2v85LocalINS_6ObjectEEE(%"class.v8::Object"*) #2

declare void @_ZN10CJS_Object11DefinePropsEP12CFXJS_EnginejN6pdfium4spanIK14JSPropertySpecEE(%class.CFXJS_Engine*, i32, %"class.pdfium::span"*) local_unnamed_addr #2

declare void @_ZN10CJS_Object13DefineMethodsEP12CFXJS_EnginejN6pdfium4spanIK12JSMethodSpecEE(%class.CFXJS_Engine*, i32, %"class.pdfium::span.21"*) local_unnamed_addr #2

; Function Attrs: nounwind ssp uwtable
define hidden void @_ZN12CJS_DocumentC2EN2v85LocalINS0_6ObjectEEEP11CJS_Runtime(%class.CJS_Document*, %"class.v8::Object"*, %class.CJS_Runtime*) unnamed_addr #0 align 2 {
  %4 = getelementptr inbounds %class.CJS_Document, %class.CJS_Document* %0, i64 0, i32 0
  tail call void @_ZN10CJS_ObjectC2EN2v85LocalINS0_6ObjectEEEP11CJS_Runtime(%class.CJS_Object* %4, %"class.v8::Object"* %1, %class.CJS_Runtime* %2) #11
  %5 = getelementptr inbounds %class.CJS_Document, %class.CJS_Document* %0, i64 0, i32 1
  tail call void @_ZN5fxcrt10ObservableC2Ev(%"class.fxcrt::Observable"* %5) #11
  %6 = getelementptr inbounds %class.CJS_Document, %class.CJS_Document* %0, i64 0, i32 0, i32 0
  store i32 (...)** bitcast (i8** getelementptr inbounds ({ [4 x i8*] }, { [4 x i8*] }* @_ZTV12CJS_Document, i64 0, inrange i32 0, i64 2) to i32 (...)**), i32 (...)*** %6, align 8
  %7 = getelementptr inbounds %class.CJS_Document, %class.CJS_Document* %0, i64 0, i32 2
  tail call void @_ZN5fxcrt10WideStringC1Ev(%"class.fxcrt::WideString"* %7) #11
  %8 = getelementptr inbounds %class.CJS_Document, %class.CJS_Document* %0, i64 0, i32 3
  %9 = getelementptr inbounds %"class.fxcrt::ObservedPtr.39", %"class.fxcrt::ObservedPtr.39"* %8, i64 0, i32 0, i32 0
  store i32 (...)** bitcast (i8** getelementptr inbounds ({ [5 x i8*] }, { [5 x i8*] }* @_ZTVN5fxcrt11ObservedPtrI27CPDFSDK_FormFillEnvironmentEE, i64 0, inrange i32 0, i64 2) to i32 (...)**), i32 (...)*** %9, align 8
  %10 = getelementptr inbounds %class.CJS_Document, %class.CJS_Document* %0, i64 0, i32 3, i32 1
  store %class.CPDFSDK_FormFillEnvironment* null, %class.CPDFSDK_FormFillEnvironment** %10, align 8
  %11 = getelementptr inbounds %class.CJS_Document, %class.CJS_Document* %0, i64 0, i32 4
  %12 = getelementptr inbounds %"class.std::__1::list", %"class.std::__1::list"* %11, i64 0, i32 0, i32 0
  %13 = getelementptr inbounds %"class.std::__1::list", %"class.std::__1::list"* %11, i64 0, i32 0, i32 0, i32 0
  store %"struct.std::__1::__list_node_base"* %12, %"struct.std::__1::__list_node_base"** %13, align 8
  %14 = getelementptr inbounds %class.CJS_Document, %class.CJS_Document* %0, i64 0, i32 4, i32 0, i32 0, i32 1
  store %"struct.std::__1::__list_node_base"* %12, %"struct.std::__1::__list_node_base"** %14, align 8
  %15 = getelementptr inbounds %class.CJS_Document, %class.CJS_Document* %0, i64 0, i32 4, i32 0, i32 1, i32 0, i32 0
  store i64 0, i64* %15, align 8
  %16 = getelementptr inbounds %class.CJS_Document, %class.CJS_Document* %0, i64 0, i32 5
  %17 = getelementptr inbounds %"class.std::__1::list.323", %"class.std::__1::list.323"* %16, i64 0, i32 0, i32 0
  %18 = getelementptr inbounds %"class.std::__1::list.323", %"class.std::__1::list.323"* %16, i64 0, i32 0, i32 0, i32 0
  store %"struct.std::__1::__list_node_base.325"* %17, %"struct.std::__1::__list_node_base.325"** %18, align 8
  %19 = getelementptr inbounds %class.CJS_Document, %class.CJS_Document* %0, i64 0, i32 5, i32 0, i32 0, i32 1
  store %"struct.std::__1::__list_node_base.325"* %17, %"struct.std::__1::__list_node_base.325"** %19, align 8
  %20 = getelementptr inbounds %class.CJS_Document, %class.CJS_Document* %0, i64 0, i32 5, i32 0, i32 1, i32 0, i32 0
  store i64 0, i64* %20, align 8
  %21 = getelementptr inbounds %class.CJS_Document, %class.CJS_Document* %0, i64 0, i32 6
  store i8 0, i8* %21, align 8
  %22 = getelementptr inbounds %class.CJS_Document, %class.CJS_Document* %0, i64 0, i32 0, i32 3, i32 1
  %23 = load %class.CJS_Runtime*, %class.CJS_Runtime** %22, align 8
  %24 = tail call %class.CPDFSDK_FormFillEnvironment* @_ZNK11CJS_Runtime14GetFormFillEnvEv(%class.CJS_Runtime* %23) #11
  %25 = load %class.CPDFSDK_FormFillEnvironment*, %class.CPDFSDK_FormFillEnvironment** %10, align 8
  %26 = icmp eq %class.CPDFSDK_FormFillEnvironment* %25, null
  br i1 %26, label %30, label %27

27:                                               ; preds = %3
  %28 = getelementptr inbounds %class.CPDFSDK_FormFillEnvironment, %class.CPDFSDK_FormFillEnvironment* %25, i64 0, i32 0, i32 1
  %29 = getelementptr inbounds %"class.fxcrt::ObservedPtr.39", %"class.fxcrt::ObservedPtr.39"* %8, i64 0, i32 0
  tail call void @_ZN5fxcrt10Observable14RemoveObserverEPNS0_13ObserverIfaceE(%"class.fxcrt::Observable"* %28, %"class.fxcrt::Observable::ObserverIface"* %29) #11
  br label %30

30:                                               ; preds = %27, %3
  store %class.CPDFSDK_FormFillEnvironment* %24, %class.CPDFSDK_FormFillEnvironment** %10, align 8
  %31 = icmp eq %class.CPDFSDK_FormFillEnvironment* %24, null
  br i1 %31, label %35, label %32

32:                                               ; preds = %30
  %33 = getelementptr inbounds %class.CPDFSDK_FormFillEnvironment, %class.CPDFSDK_FormFillEnvironment* %24, i64 0, i32 0, i32 1
  %34 = getelementptr inbounds %"class.fxcrt::ObservedPtr.39", %"class.fxcrt::ObservedPtr.39"* %8, i64 0, i32 0
  tail call void @_ZN5fxcrt10Observable11AddObserverEPNS0_13ObserverIfaceE(%"class.fxcrt::Observable"* %33, %"class.fxcrt::Observable::ObserverIface"* %34) #11
  br label %35

35:                                               ; preds = %30, %32
  ret void
}

; Function Attrs: argmemonly nounwind
declare void @llvm.memcpy.p0i8.p0i8.i64(i8* nocapture writeonly, i8* nocapture readonly, i64, i1 immarg) #3

declare void @_ZN10CJS_ObjectC2EN2v85LocalINS0_6ObjectEEEP11CJS_Runtime(%class.CJS_Object*, %"class.v8::Object"*, %class.CJS_Runtime*) unnamed_addr #2

declare void @_ZN5fxcrt10ObservableC2Ev(%"class.fxcrt::Observable"*) unnamed_addr #2

declare void @_ZN5fxcrt10WideStringC1Ev(%"class.fxcrt::WideString"*) unnamed_addr #2

; Function Attrs: nounwind ssp uwtable
define hidden void @_ZN12CJS_Document14SetFormFillEnvEP27CPDFSDK_FormFillEnvironment(%class.CJS_Document*, %class.CPDFSDK_FormFillEnvironment*) local_unnamed_addr #0 align 2 {
  %3 = getelementptr inbounds %class.CJS_Document, %class.CJS_Document* %0, i64 0, i32 3
  %4 = getelementptr inbounds %class.CJS_Document, %class.CJS_Document* %0, i64 0, i32 3, i32 1
  %5 = load %class.CPDFSDK_FormFillEnvironment*, %class.CPDFSDK_FormFillEnvironment** %4, align 8
  %6 = icmp eq %class.CPDFSDK_FormFillEnvironment* %5, null
  br i1 %6, label %10, label %7

7:                                                ; preds = %2
  %8 = getelementptr inbounds %class.CPDFSDK_FormFillEnvironment, %class.CPDFSDK_FormFillEnvironment* %5, i64 0, i32 0, i32 1
  %9 = getelementptr inbounds %"class.fxcrt::ObservedPtr.39", %"class.fxcrt::ObservedPtr.39"* %3, i64 0, i32 0
  tail call void @_ZN5fxcrt10Observable14RemoveObserverEPNS0_13ObserverIfaceE(%"class.fxcrt::Observable"* %8, %"class.fxcrt::Observable::ObserverIface"* %9) #11
  br label %10

10:                                               ; preds = %7, %2
  store %class.CPDFSDK_FormFillEnvironment* %1, %class.CPDFSDK_FormFillEnvironment** %4, align 8
  %11 = icmp eq %class.CPDFSDK_FormFillEnvironment* %1, null
  br i1 %11, label %15, label %12

12:                                               ; preds = %10
  %13 = getelementptr inbounds %class.CPDFSDK_FormFillEnvironment, %class.CPDFSDK_FormFillEnvironment* %1, i64 0, i32 0, i32 1
  %14 = getelementptr inbounds %"class.fxcrt::ObservedPtr.39", %"class.fxcrt::ObservedPtr.39"* %3, i64 0, i32 0
  tail call void @_ZN5fxcrt10Observable11AddObserverEPNS0_13ObserverIfaceE(%"class.fxcrt::Observable"* %13, %"class.fxcrt::Observable::ObserverIface"* %14) #11
  br label %15

15:                                               ; preds = %10, %12
  ret void
}

declare %class.CPDFSDK_FormFillEnvironment* @_ZNK11CJS_Runtime14GetFormFillEnvEv(%class.CJS_Runtime*) unnamed_addr #2

; Function Attrs: nounwind ssp uwtable
define hidden void @_ZN12CJS_DocumentD2Ev(%class.CJS_Document*) unnamed_addr #0 align 2 {
  %2 = getelementptr inbounds %class.CJS_Document, %class.CJS_Document* %0, i64 0, i32 0, i32 0
  store i32 (...)** bitcast (i8** getelementptr inbounds ({ [4 x i8*] }, { [4 x i8*] }* @_ZTV12CJS_Document, i64 0, inrange i32 0, i64 2) to i32 (...)**), i32 (...)*** %2, align 8
  %3 = getelementptr inbounds %class.CJS_Document, %class.CJS_Document* %0, i64 0, i32 5, i32 0
  %4 = getelementptr inbounds %class.CJS_Document, %class.CJS_Document* %0, i64 0, i32 5, i32 0, i32 1, i32 0, i32 0
  %5 = load i64, i64* %4, align 8
  %6 = icmp eq i64 %5, 0
  br i1 %6, label %33, label %7

7:                                                ; preds = %1
  %8 = getelementptr inbounds %class.CJS_Document, %class.CJS_Document* %0, i64 0, i32 5, i32 0, i32 0, i32 1
  %9 = load %"struct.std::__1::__list_node_base.325"*, %"struct.std::__1::__list_node_base.325"** %8, align 8
  %10 = getelementptr inbounds %"class.std::__1::__list_imp.324", %"class.std::__1::__list_imp.324"* %3, i64 0, i32 0
  %11 = getelementptr inbounds %"class.std::__1::__list_imp.324", %"class.std::__1::__list_imp.324"* %3, i64 0, i32 0, i32 0
  %12 = load %"struct.std::__1::__list_node_base.325"*, %"struct.std::__1::__list_node_base.325"** %11, align 8
  %13 = getelementptr inbounds %"struct.std::__1::__list_node_base.325", %"struct.std::__1::__list_node_base.325"* %12, i64 0, i32 1
  %14 = bitcast %"struct.std::__1::__list_node_base.325"** %13 to i64*
  %15 = load i64, i64* %14, align 8
  %16 = getelementptr inbounds %"struct.std::__1::__list_node_base.325", %"struct.std::__1::__list_node_base.325"* %9, i64 0, i32 0
  %17 = load %"struct.std::__1::__list_node_base.325"*, %"struct.std::__1::__list_node_base.325"** %16, align 8
  %18 = getelementptr inbounds %"struct.std::__1::__list_node_base.325", %"struct.std::__1::__list_node_base.325"* %17, i64 0, i32 1
  %19 = bitcast %"struct.std::__1::__list_node_base.325"** %18 to i64*
  store i64 %15, i64* %19, align 8
  %20 = bitcast %"struct.std::__1::__list_node_base.325"* %9 to i64*
  %21 = load i64, i64* %20, align 8
  %22 = bitcast %"struct.std::__1::__list_node_base.325"** %13 to i64**
  %23 = load i64*, i64** %22, align 8
  store i64 %21, i64* %23, align 8
  store i64 0, i64* %4, align 8
  %24 = icmp eq %"struct.std::__1::__list_node_base.325"* %9, %10
  br i1 %24, label %33, label %25

25:                                               ; preds = %7, %25
  %26 = phi %"struct.std::__1::__list_node_base.325"* [ %28, %25 ], [ %9, %7 ]
  %27 = getelementptr inbounds %"struct.std::__1::__list_node_base.325", %"struct.std::__1::__list_node_base.325"* %26, i64 0, i32 1
  %28 = load %"struct.std::__1::__list_node_base.325"*, %"struct.std::__1::__list_node_base.325"** %27, align 8
  %29 = getelementptr inbounds %"struct.std::__1::__list_node_base.325", %"struct.std::__1::__list_node_base.325"* %26, i64 1
  %30 = bitcast %"struct.std::__1::__list_node_base.325"* %29 to %"class.fxcrt::WideString"*
  tail call void @_ZN5fxcrt10WideStringD1Ev(%"class.fxcrt::WideString"* %30) #11
  %31 = bitcast %"struct.std::__1::__list_node_base.325"* %26 to i8*
  tail call void @_ZdlPv(i8* %31) #12
  %32 = icmp eq %"struct.std::__1::__list_node_base.325"* %28, %10
  br i1 %32, label %33, label %25

33:                                               ; preds = %25, %1, %7
  %34 = getelementptr inbounds %class.CJS_Document, %class.CJS_Document* %0, i64 0, i32 4, i32 0
  %35 = getelementptr inbounds %class.CJS_Document, %class.CJS_Document* %0, i64 0, i32 4, i32 0, i32 1, i32 0, i32 0
  %36 = load i64, i64* %35, align 8
  %37 = icmp eq i64 %36, 0
  br i1 %37, label %69, label %38

38:                                               ; preds = %33
  %39 = getelementptr inbounds %class.CJS_Document, %class.CJS_Document* %0, i64 0, i32 4, i32 0, i32 0, i32 1
  %40 = load %"struct.std::__1::__list_node_base"*, %"struct.std::__1::__list_node_base"** %39, align 8
  %41 = getelementptr inbounds %"class.std::__1::__list_imp", %"class.std::__1::__list_imp"* %34, i64 0, i32 0
  %42 = getelementptr inbounds %"class.std::__1::__list_imp", %"class.std::__1::__list_imp"* %34, i64 0, i32 0, i32 0
  %43 = load %"struct.std::__1::__list_node_base"*, %"struct.std::__1::__list_node_base"** %42, align 8
  %44 = getelementptr inbounds %"struct.std::__1::__list_node_base", %"struct.std::__1::__list_node_base"* %43, i64 0, i32 1
  %45 = bitcast %"struct.std::__1::__list_node_base"** %44 to i64*
  %46 = load i64, i64* %45, align 8
  %47 = getelementptr inbounds %"struct.std::__1::__list_node_base", %"struct.std::__1::__list_node_base"* %40, i64 0, i32 0
  %48 = load %"struct.std::__1::__list_node_base"*, %"struct.std::__1::__list_node_base"** %47, align 8
  %49 = getelementptr inbounds %"struct.std::__1::__list_node_base", %"struct.std::__1::__list_node_base"* %48, i64 0, i32 1
  %50 = bitcast %"struct.std::__1::__list_node_base"** %49 to i64*
  store i64 %46, i64* %50, align 8
  %51 = bitcast %"struct.std::__1::__list_node_base"* %40 to i64*
  %52 = load i64, i64* %51, align 8
  %53 = bitcast %"struct.std::__1::__list_node_base"** %44 to i64**
  %54 = load i64*, i64** %53, align 8
  store i64 %52, i64* %54, align 8
  store i64 0, i64* %35, align 8
  %55 = icmp eq %"struct.std::__1::__list_node_base"* %40, %41
  br i1 %55, label %69, label %56

56:                                               ; preds = %38, %66
  %57 = phi %"struct.std::__1::__list_node_base"* [ %59, %66 ], [ %40, %38 ]
  %58 = getelementptr inbounds %"struct.std::__1::__list_node_base", %"struct.std::__1::__list_node_base"* %57, i64 0, i32 1
  %59 = load %"struct.std::__1::__list_node_base"*, %"struct.std::__1::__list_node_base"** %58, align 8
  %60 = getelementptr inbounds %"struct.std::__1::__list_node_base", %"struct.std::__1::__list_node_base"* %57, i64 1
  %61 = bitcast %"struct.std::__1::__list_node_base"* %60 to %struct.CJS_DelayData**
  %62 = load %struct.CJS_DelayData*, %struct.CJS_DelayData** %61, align 8
  store %struct.CJS_DelayData* null, %struct.CJS_DelayData** %61, align 8
  %63 = icmp eq %struct.CJS_DelayData* %62, null
  br i1 %63, label %66, label %64

64:                                               ; preds = %56
  tail call void @_ZN13CJS_DelayDataD1Ev(%struct.CJS_DelayData* nonnull %62) #11
  %65 = bitcast %struct.CJS_DelayData* %62 to i8*
  tail call void @_ZdlPv(i8* %65) #12
  br label %66

66:                                               ; preds = %64, %56
  %67 = bitcast %"struct.std::__1::__list_node_base"* %57 to i8*
  tail call void @_ZdlPv(i8* %67) #12
  %68 = icmp eq %"struct.std::__1::__list_node_base"* %59, %41
  br i1 %68, label %69, label %56

69:                                               ; preds = %66, %33, %38
  %70 = getelementptr inbounds %class.CJS_Document, %class.CJS_Document* %0, i64 0, i32 3
  %71 = getelementptr inbounds %"class.fxcrt::ObservedPtr.39", %"class.fxcrt::ObservedPtr.39"* %70, i64 0, i32 0, i32 0
  store i32 (...)** bitcast (i8** getelementptr inbounds ({ [5 x i8*] }, { [5 x i8*] }* @_ZTVN5fxcrt11ObservedPtrI27CPDFSDK_FormFillEnvironmentEE, i64 0, inrange i32 0, i64 2) to i32 (...)**), i32 (...)*** %71, align 8
  %72 = getelementptr inbounds %class.CJS_Document, %class.CJS_Document* %0, i64 0, i32 3, i32 1
  %73 = load %class.CPDFSDK_FormFillEnvironment*, %class.CPDFSDK_FormFillEnvironment** %72, align 8
  %74 = icmp eq %class.CPDFSDK_FormFillEnvironment* %73, null
  br i1 %74, label %78, label %75

75:                                               ; preds = %69
  %76 = getelementptr inbounds %class.CPDFSDK_FormFillEnvironment, %class.CPDFSDK_FormFillEnvironment* %73, i64 0, i32 0, i32 1
  %77 = getelementptr inbounds %"class.fxcrt::ObservedPtr.39", %"class.fxcrt::ObservedPtr.39"* %70, i64 0, i32 0
  tail call void @_ZN5fxcrt10Observable14RemoveObserverEPNS0_13ObserverIfaceE(%"class.fxcrt::Observable"* %76, %"class.fxcrt::Observable::ObserverIface"* %77) #11
  br label %78

78:                                               ; preds = %69, %75
  %79 = getelementptr inbounds %class.CJS_Document, %class.CJS_Document* %0, i64 0, i32 2
  tail call void @_ZN5fxcrt10WideStringD1Ev(%"class.fxcrt::WideString"* %79) #11
  %80 = getelementptr inbounds %class.CJS_Document, %class.CJS_Document* %0, i64 0, i32 1
  tail call void @_ZN5fxcrt10ObservableD2Ev(%"class.fxcrt::Observable"* %80) #11
  %81 = getelementptr inbounds %class.CJS_Document, %class.CJS_Document* %0, i64 0, i32 0
  tail call void @_ZN10CJS_ObjectD2Ev(%class.CJS_Object* %81) #11
  ret void
}

; Function Attrs: nounwind ssp uwtable
define linkonce_odr hidden void @_ZN5fxcrt11ObservedPtrI27CPDFSDK_FormFillEnvironmentED2Ev(%"class.fxcrt::ObservedPtr.39"*) unnamed_addr #0 comdat align 2 {
  %2 = getelementptr inbounds %"class.fxcrt::ObservedPtr.39", %"class.fxcrt::ObservedPtr.39"* %0, i64 0, i32 0, i32 0
  store i32 (...)** bitcast (i8** getelementptr inbounds ({ [5 x i8*] }, { [5 x i8*] }* @_ZTVN5fxcrt11ObservedPtrI27CPDFSDK_FormFillEnvironmentEE, i64 0, inrange i32 0, i64 2) to i32 (...)**), i32 (...)*** %2, align 8
  %3 = getelementptr inbounds %"class.fxcrt::ObservedPtr.39", %"class.fxcrt::ObservedPtr.39"* %0, i64 0, i32 1
  %4 = load %class.CPDFSDK_FormFillEnvironment*, %class.CPDFSDK_FormFillEnvironment** %3, align 8
  %5 = icmp eq %class.CPDFSDK_FormFillEnvironment* %4, null
  br i1 %5, label %9, label %6

6:                                                ; preds = %1
  %7 = getelementptr inbounds %class.CPDFSDK_FormFillEnvironment, %class.CPDFSDK_FormFillEnvironment* %4, i64 0, i32 0, i32 1
  %8 = getelementptr inbounds %"class.fxcrt::ObservedPtr.39", %"class.fxcrt::ObservedPtr.39"* %0, i64 0, i32 0
  tail call void @_ZN5fxcrt10Observable14RemoveObserverEPNS0_13ObserverIfaceE(%"class.fxcrt::Observable"* %7, %"class.fxcrt::Observable::ObserverIface"* %8) #11
  br label %9

9:                                                ; preds = %1, %6
  ret void
}

; Function Attrs: nounwind
declare void @_ZN5fxcrt10WideStringD1Ev(%"class.fxcrt::WideString"*) unnamed_addr #4

; Function Attrs: nounwind
declare void @_ZN5fxcrt10ObservableD2Ev(%"class.fxcrt::Observable"*) unnamed_addr #4

; Function Attrs: nounwind
declare void @_ZN10CJS_ObjectD2Ev(%class.CJS_Object*) unnamed_addr #4

; Function Attrs: nounwind ssp uwtable
define hidden void @_ZN12CJS_DocumentD0Ev(%class.CJS_Document*) unnamed_addr #0 align 2 {
  tail call void @_ZN12CJS_DocumentD2Ev(%class.CJS_Document* %0) #11
  %2 = bitcast %class.CJS_Document* %0 to i8*
  tail call void @_ZdlPv(i8* %2) #12
  ret void
}

; Function Attrs: nobuiltin nounwind
declare void @_ZdlPv(i8*) local_unnamed_addr #5

; Function Attrs: nounwind ssp uwtable
define hidden void @_ZN12CJS_Document14get_num_fieldsEP11CJS_Runtime(%class.CJS_Result* noalias sret, %class.CJS_Document* nocapture readonly, %class.CJS_Runtime*) local_unnamed_addr #0 align 2 {
  %4 = alloca %"class.fxcrt::WideString", align 8
  %5 = getelementptr inbounds %class.CJS_Document, %class.CJS_Document* %1, i64 0, i32 3, i32 1
  %6 = load %class.CPDFSDK_FormFillEnvironment*, %class.CPDFSDK_FormFillEnvironment** %5, align 8
  %7 = icmp eq %class.CPDFSDK_FormFillEnvironment* %6, null
  br i1 %7, label %8, label %9

8:                                                ; preds = %3
  tail call void @_ZN10CJS_ResultC1E9JSMessage(%class.CJS_Result* %0, i32 19) #11
  br label %19

9:                                                ; preds = %3
  %10 = tail call %class.CPDFSDK_InteractiveForm* @_ZN27CPDFSDK_FormFillEnvironment18GetInteractiveFormEv(%class.CPDFSDK_FormFillEnvironment* nonnull %6) #11
  %11 = getelementptr inbounds %class.CPDFSDK_InteractiveForm, %class.CPDFSDK_InteractiveForm* %10, i64 0, i32 2, i32 0, i32 0, i32 0
  %12 = load %class.CPDF_InteractiveForm*, %class.CPDF_InteractiveForm** %11, align 8
  %13 = getelementptr inbounds %class.CJS_Runtime, %class.CJS_Runtime* %2, i64 0, i32 1, i32 0
  %14 = bitcast %"class.fxcrt::WideString"* %4 to i8*
  call void @llvm.lifetime.start.p0i8(i64 8, i8* nonnull %14) #11
  call void @_ZN5fxcrt10WideStringC1Ev(%"class.fxcrt::WideString"* nonnull %4) #11
  %15 = call i64 @_ZNK20CPDF_InteractiveForm11CountFieldsERKN5fxcrt10WideStringE(%class.CPDF_InteractiveForm* %12, %"class.fxcrt::WideString"* nonnull dereferenceable(8) %4) #11
  %16 = trunc i64 %15 to i32
  %17 = call %"class.v8::Number"* @_ZN6CFX_V89NewNumberEi(%class.CFX_V8* %13, i32 %16) #11
  %18 = bitcast %"class.v8::Number"* %17 to %"class.v8::Value"*
  call void @_ZN10CJS_ResultC1EN2v85LocalINS0_5ValueEEE(%class.CJS_Result* %0, %"class.v8::Value"* %18) #11
  call void @_ZN5fxcrt10WideStringD1Ev(%"class.fxcrt::WideString"* nonnull %4) #11
  call void @llvm.lifetime.end.p0i8(i64 8, i8* nonnull %14) #11
  br label %19

19:                                               ; preds = %9, %8
  ret void
}

; Function Attrs: argmemonly nounwind
declare void @llvm.lifetime.start.p0i8(i64 immarg, i8* nocapture) #3

; Function Attrs: nounwind ssp uwtable
define hidden %class.CPDF_InteractiveForm* @_ZN12CJS_Document22GetCoreInteractiveFormEv(%class.CJS_Document* nocapture readonly) local_unnamed_addr #0 align 2 {
  %2 = getelementptr inbounds %class.CJS_Document, %class.CJS_Document* %0, i64 0, i32 3, i32 1
  %3 = load %class.CPDFSDK_FormFillEnvironment*, %class.CPDFSDK_FormFillEnvironment** %2, align 8
  %4 = tail call %class.CPDFSDK_InteractiveForm* @_ZN27CPDFSDK_FormFillEnvironment18GetInteractiveFormEv(%class.CPDFSDK_FormFillEnvironment* %3) #11
  %5 = getelementptr inbounds %class.CPDFSDK_InteractiveForm, %class.CPDFSDK_InteractiveForm* %4, i64 0, i32 2, i32 0, i32 0, i32 0
  %6 = load %class.CPDF_InteractiveForm*, %class.CPDF_InteractiveForm** %5, align 8
  ret %class.CPDF_InteractiveForm* %6
}

declare %"class.v8::Number"* @_ZN6CFX_V89NewNumberEi(%class.CFX_V8*, i32) local_unnamed_addr #2

declare i64 @_ZNK20CPDF_InteractiveForm11CountFieldsERKN5fxcrt10WideStringE(%class.CPDF_InteractiveForm*, %"class.fxcrt::WideString"* dereferenceable(8)) local_unnamed_addr #2

; Function Attrs: argmemonly nounwind
declare void @llvm.lifetime.end.p0i8(i64 immarg, i8* nocapture) #3

; Function Attrs: nounwind ssp uwtable
define hidden void @_ZN12CJS_Document14set_num_fieldsEP11CJS_RuntimeN2v85LocalINS2_5ValueEEE(%class.CJS_Result* noalias sret, %class.CJS_Document* nocapture readnone, %class.CJS_Runtime* nocapture readnone, %"class.v8::Value"* nocapture readnone) local_unnamed_addr #0 align 2 {
  tail call void @_ZN10CJS_ResultC1E9JSMessage(%class.CJS_Result* %0, i32 15) #11
  ret void
}

; Function Attrs: nounwind ssp uwtable
define hidden void @_ZN12CJS_Document9get_dirtyEP11CJS_Runtime(%class.CJS_Result* noalias sret, %class.CJS_Document* nocapture readonly, %class.CJS_Runtime*) local_unnamed_addr #0 align 2 {
  %4 = getelementptr inbounds %class.CJS_Document, %class.CJS_Document* %1, i64 0, i32 3, i32 1
  %5 = load %class.CPDFSDK_FormFillEnvironment*, %class.CPDFSDK_FormFillEnvironment** %4, align 8
  %6 = icmp eq %class.CPDFSDK_FormFillEnvironment* %5, null
  br i1 %6, label %7, label %8

7:                                                ; preds = %3
  tail call void @_ZN10CJS_ResultC1E9JSMessage(%class.CJS_Result* %0, i32 19) #11
  br label %15

8:                                                ; preds = %3
  %9 = getelementptr inbounds %class.CJS_Runtime, %class.CJS_Runtime* %2, i64 0, i32 1, i32 0
  %10 = getelementptr inbounds %class.CPDFSDK_FormFillEnvironment, %class.CPDFSDK_FormFillEnvironment* %5, i64 0, i32 11
  %11 = load i8, i8* %10, align 8, !range !2
  %12 = icmp ne i8 %11, 0
  %13 = tail call %"class.v8::Boolean"* @_ZN6CFX_V810NewBooleanEb(%class.CFX_V8* %9, i1 zeroext %12) #11
  %14 = bitcast %"class.v8::Boolean"* %13 to %"class.v8::Value"*
  tail call void @_ZN10CJS_ResultC1EN2v85LocalINS0_5ValueEEE(%class.CJS_Result* %0, %"class.v8::Value"* %14) #11
  br label %15

15:                                               ; preds = %8, %7
  ret void
}

declare %"class.v8::Boolean"* @_ZN6CFX_V810NewBooleanEb(%class.CFX_V8*, i1 zeroext) local_unnamed_addr #2

; Function Attrs: nounwind ssp uwtable
define hidden void @_ZN12CJS_Document9set_dirtyEP11CJS_RuntimeN2v85LocalINS2_5ValueEEE(%class.CJS_Result* noalias sret, %class.CJS_Document* nocapture readonly, %class.CJS_Runtime*, %"class.v8::Value"*) local_unnamed_addr #0 align 2 {
  %5 = getelementptr inbounds %class.CJS_Document, %class.CJS_Document* %1, i64 0, i32 3, i32 1
  %6 = load %class.CPDFSDK_FormFillEnvironment*, %class.CPDFSDK_FormFillEnvironment** %5, align 8
  %7 = icmp eq %class.CPDFSDK_FormFillEnvironment* %6, null
  br i1 %7, label %8, label %9

8:                                                ; preds = %4
  tail call void @_ZN10CJS_ResultC1E9JSMessage(%class.CJS_Result* %0, i32 19) #11
  br label %15

9:                                                ; preds = %4
  %10 = getelementptr inbounds %class.CJS_Runtime, %class.CJS_Runtime* %2, i64 0, i32 1, i32 0
  %11 = tail call zeroext i1 @_ZN6CFX_V89ToBooleanEN2v85LocalINS0_5ValueEEE(%class.CFX_V8* %10, %"class.v8::Value"* %3) #11
  %12 = load %class.CPDFSDK_FormFillEnvironment*, %class.CPDFSDK_FormFillEnvironment** %5, align 8
  %13 = getelementptr inbounds %class.CPDFSDK_FormFillEnvironment, %class.CPDFSDK_FormFillEnvironment* %12, i64 0, i32 11
  %14 = zext i1 %11 to i8
  store i8 %14, i8* %13, align 8
  tail call void @_ZN10CJS_ResultC1Ev(%class.CJS_Result* %0) #11
  br label %15

15:                                               ; preds = %9, %8
  ret void
}

declare zeroext i1 @_ZN6CFX_V89ToBooleanEN2v85LocalINS0_5ValueEEE(%class.CFX_V8*, %"class.v8::Value"*) local_unnamed_addr #2

; Function Attrs: nounwind ssp uwtable
define hidden void @_ZN12CJS_Document8get_ADBEEP11CJS_Runtime(%class.CJS_Result* noalias sret, %class.CJS_Document* nocapture readnone, %class.CJS_Runtime*) local_unnamed_addr #0 align 2 {
  %4 = getelementptr inbounds %class.CJS_Runtime, %class.CJS_Runtime* %2, i64 0, i32 1, i32 0
  %5 = tail call %"class.v8::Value"* @_ZN6CFX_V812NewUndefinedEv(%class.CFX_V8* %4) #11
  tail call void @_ZN10CJS_ResultC1EN2v85LocalINS0_5ValueEEE(%class.CJS_Result* %0, %"class.v8::Value"* %5) #11
  ret void
}

declare %"class.v8::Value"* @_ZN6CFX_V812NewUndefinedEv(%class.CFX_V8*) local_unnamed_addr #2

; Function Attrs: nounwind ssp uwtable
define hidden void @_ZN12CJS_Document8set_ADBEEP11CJS_RuntimeN2v85LocalINS2_5ValueEEE(%class.CJS_Result* noalias sret, %class.CJS_Document* nocapture readnone, %class.CJS_Runtime* nocapture readnone, %"class.v8::Value"* nocapture readnone) local_unnamed_addr #0 align 2 {
  tail call void @_ZN10CJS_ResultC1Ev(%class.CJS_Result* %0) #11
  ret void
}

; Function Attrs: nounwind ssp uwtable
define hidden void @_ZN12CJS_Document12get_page_numEP11CJS_Runtime(%class.CJS_Result* noalias sret, %class.CJS_Document* nocapture readonly, %class.CJS_Runtime*) local_unnamed_addr #0 align 2 {
  %4 = getelementptr inbounds %class.CJS_Document, %class.CJS_Document* %1, i64 0, i32 3, i32 1
  %5 = load %class.CPDFSDK_FormFillEnvironment*, %class.CPDFSDK_FormFillEnvironment** %4, align 8
  %6 = icmp eq %class.CPDFSDK_FormFillEnvironment* %5, null
  br i1 %6, label %7, label %8

7:                                                ; preds = %3
  tail call void @_ZN10CJS_ResultC1E9JSMessage(%class.CJS_Result* %0, i32 19) #11
  br label %18

8:                                                ; preds = %3
  %9 = tail call %class.CPDFSDK_PageView* @_ZN27CPDFSDK_FormFillEnvironment14GetCurrentViewEv(%class.CPDFSDK_FormFillEnvironment* nonnull %5) #11
  %10 = icmp eq %class.CPDFSDK_PageView* %9, null
  %11 = getelementptr inbounds %class.CJS_Runtime, %class.CJS_Runtime* %2, i64 0, i32 1, i32 0
  br i1 %10, label %12, label %14

12:                                               ; preds = %8
  %13 = tail call %"class.v8::Value"* @_ZN6CFX_V812NewUndefinedEv(%class.CFX_V8* %11) #11
  tail call void @_ZN10CJS_ResultC1EN2v85LocalINS0_5ValueEEE(%class.CJS_Result* %0, %"class.v8::Value"* %13) #11
  br label %18

14:                                               ; preds = %8
  %15 = tail call i32 @_ZNK16CPDFSDK_PageView12GetPageIndexEv(%class.CPDFSDK_PageView* nonnull %9) #11
  %16 = tail call %"class.v8::Number"* @_ZN6CFX_V89NewNumberEi(%class.CFX_V8* %11, i32 %15) #11
  %17 = bitcast %"class.v8::Number"* %16 to %"class.v8::Value"*
  tail call void @_ZN10CJS_ResultC1EN2v85LocalINS0_5ValueEEE(%class.CJS_Result* %0, %"class.v8::Value"* %17) #11
  br label %18

18:                                               ; preds = %12, %14, %7
  ret void
}

declare %class.CPDFSDK_PageView* @_ZN27CPDFSDK_FormFillEnvironment14GetCurrentViewEv(%class.CPDFSDK_FormFillEnvironment*) local_unnamed_addr #2

declare i32 @_ZNK16CPDFSDK_PageView12GetPageIndexEv(%class.CPDFSDK_PageView*) local_unnamed_addr #2

; Function Attrs: nounwind ssp uwtable
define hidden void @_ZN12CJS_Document12set_page_numEP11CJS_RuntimeN2v85LocalINS2_5ValueEEE(%class.CJS_Result* noalias sret, %class.CJS_Document* nocapture readonly, %class.CJS_Runtime*, %"class.v8::Value"*) local_unnamed_addr #0 align 2 {
  %5 = getelementptr inbounds %class.CJS_Document, %class.CJS_Document* %1, i64 0, i32 3, i32 1
  %6 = load %class.CPDFSDK_FormFillEnvironment*, %class.CPDFSDK_FormFillEnvironment** %5, align 8
  %7 = icmp eq %class.CPDFSDK_FormFillEnvironment* %6, null
  br i1 %7, label %8, label %9

8:                                                ; preds = %4
  tail call void @_ZN10CJS_ResultC1E9JSMessage(%class.CJS_Result* %0, i32 19) #11
  br label %27

9:                                                ; preds = %4
  %10 = tail call i32 @_ZNK27CPDFSDK_FormFillEnvironment12GetPageCountEv(%class.CPDFSDK_FormFillEnvironment* nonnull %6) #11
  %11 = getelementptr inbounds %class.CJS_Runtime, %class.CJS_Runtime* %2, i64 0, i32 1, i32 0
  %12 = tail call i32 @_ZN6CFX_V87ToInt32EN2v85LocalINS0_5ValueEEE(%class.CFX_V8* %11, %"class.v8::Value"* %3) #11
  %13 = icmp sgt i32 %12, -1
  %14 = icmp slt i32 %12, %10
  %15 = and i1 %13, %14
  br i1 %15, label %16, label %18

16:                                               ; preds = %9
  %17 = load %class.CPDFSDK_FormFillEnvironment*, %class.CPDFSDK_FormFillEnvironment** %5, align 8
  tail call void @_ZN27CPDFSDK_FormFillEnvironment14JS_docgotoPageEi(%class.CPDFSDK_FormFillEnvironment* %17, i32 %12) #11
  br label %26

18:                                               ; preds = %9
  br i1 %14, label %22, label %19

19:                                               ; preds = %18
  %20 = load %class.CPDFSDK_FormFillEnvironment*, %class.CPDFSDK_FormFillEnvironment** %5, align 8
  %21 = add nsw i32 %10, -1
  tail call void @_ZN27CPDFSDK_FormFillEnvironment14JS_docgotoPageEi(%class.CPDFSDK_FormFillEnvironment* %20, i32 %21) #11
  br label %26

22:                                               ; preds = %18
  %23 = icmp slt i32 %12, 0
  br i1 %23, label %24, label %26

24:                                               ; preds = %22
  %25 = load %class.CPDFSDK_FormFillEnvironment*, %class.CPDFSDK_FormFillEnvironment** %5, align 8
  tail call void @_ZN27CPDFSDK_FormFillEnvironment14JS_docgotoPageEi(%class.CPDFSDK_FormFillEnvironment* %25, i32 0) #11
  br label %26

26:                                               ; preds = %19, %24, %22, %16
  tail call void @_ZN10CJS_ResultC1Ev(%class.CJS_Result* %0) #11
  br label %27

27:                                               ; preds = %26, %8
  ret void
}

declare i32 @_ZNK27CPDFSDK_FormFillEnvironment12GetPageCountEv(%class.CPDFSDK_FormFillEnvironment*) local_unnamed_addr #2

declare i32 @_ZN6CFX_V87ToInt32EN2v85LocalINS0_5ValueEEE(%class.CFX_V8*, %"class.v8::Value"*) local_unnamed_addr #2

declare void @_ZN27CPDFSDK_FormFillEnvironment14JS_docgotoPageEi(%class.CPDFSDK_FormFillEnvironment*, i32) local_unnamed_addr #2

; Function Attrs: nounwind ssp uwtable
define hidden void @_ZN12CJS_Document8addAnnotEP11CJS_RuntimeRKNSt3__16vectorIN2v85LocalINS4_5ValueEEENS2_9allocatorIS7_EEEE(%class.CJS_Result* noalias sret, %class.CJS_Document* nocapture readnone, %class.CJS_Runtime* nocapture readnone, %"class.std::__1::vector.420"* nocapture readnone dereferenceable(24)) local_unnamed_addr #0 align 2 {
  tail call void @_ZN10CJS_ResultC1Ev(%class.CJS_Result* %0) #11
  ret void
}

; Function Attrs: nounwind ssp uwtable
define hidden void @_ZN12CJS_Document8addFieldEP11CJS_RuntimeRKNSt3__16vectorIN2v85LocalINS4_5ValueEEENS2_9allocatorIS7_EEEE(%class.CJS_Result* noalias sret, %class.CJS_Document* nocapture readnone, %class.CJS_Runtime* nocapture readnone, %"class.std::__1::vector.420"* nocapture readnone dereferenceable(24)) local_unnamed_addr #0 align 2 {
  tail call void @_ZN10CJS_ResultC1Ev(%class.CJS_Result* %0) #11
  ret void
}

; Function Attrs: nounwind ssp uwtable
define hidden void @_ZN12CJS_Document12exportAsTextEP11CJS_RuntimeRKNSt3__16vectorIN2v85LocalINS4_5ValueEEENS2_9allocatorIS7_EEEE(%class.CJS_Result* noalias sret, %class.CJS_Document* nocapture readnone, %class.CJS_Runtime* nocapture readnone, %"class.std::__1::vector.420"* nocapture readnone dereferenceable(24)) local_unnamed_addr #0 align 2 {
  tail call void @_ZN10CJS_ResultC1Ev(%class.CJS_Result* %0) #11
  ret void
}

; Function Attrs: nounwind ssp uwtable
define hidden void @_ZN12CJS_Document11exportAsFDFEP11CJS_RuntimeRKNSt3__16vectorIN2v85LocalINS4_5ValueEEENS2_9allocatorIS7_EEEE(%class.CJS_Result* noalias sret, %class.CJS_Document* nocapture readnone, %class.CJS_Runtime* nocapture readnone, %"class.std::__1::vector.420"* nocapture readnone dereferenceable(24)) local_unnamed_addr #0 align 2 {
  tail call void @_ZN10CJS_ResultC1Ev(%class.CJS_Result* %0) #11
  ret void
}

; Function Attrs: nounwind ssp uwtable
define hidden void @_ZN12CJS_Document12exportAsXFDFEP11CJS_RuntimeRKNSt3__16vectorIN2v85LocalINS4_5ValueEEENS2_9allocatorIS7_EEEE(%class.CJS_Result* noalias sret, %class.CJS_Document* nocapture readnone, %class.CJS_Runtime* nocapture readnone, %"class.std::__1::vector.420"* nocapture readnone dereferenceable(24)) local_unnamed_addr #0 align 2 {
  tail call void @_ZN10CJS_ResultC1Ev(%class.CJS_Result* %0) #11
  ret void
}

; Function Attrs: nounwind ssp uwtable
define hidden void @_ZN12CJS_Document8getFieldEP11CJS_RuntimeRKNSt3__16vectorIN2v85LocalINS4_5ValueEEENS2_9allocatorIS7_EEEE(%class.CJS_Result* noalias sret, %class.CJS_Document*, %class.CJS_Runtime*, %"class.std::__1::vector.420"* nocapture readonly dereferenceable(24)) local_unnamed_addr #0 align 2 {
  %5 = alloca %"class.fxcrt::WideString", align 8
  %6 = getelementptr inbounds %"class.std::__1::vector.420", %"class.std::__1::vector.420"* %3, i64 0, i32 0, i32 0
  %7 = load %"class.v8::Local.0"*, %"class.v8::Local.0"** %6, align 8
  %8 = getelementptr inbounds %"class.std::__1::vector.420", %"class.std::__1::vector.420"* %3, i64 0, i32 0, i32 1
  %9 = load %"class.v8::Local.0"*, %"class.v8::Local.0"** %8, align 8
  %10 = icmp eq %"class.v8::Local.0"* %7, %9
  br i1 %10, label %11, label %12

11:                                               ; preds = %4
  tail call void @_ZN10CJS_ResultC1E9JSMessage(%class.CJS_Result* %0, i32 2) #11
  br label %58

12:                                               ; preds = %4
  %13 = getelementptr inbounds %class.CJS_Document, %class.CJS_Document* %1, i64 0, i32 3, i32 1
  %14 = load %class.CPDFSDK_FormFillEnvironment*, %class.CPDFSDK_FormFillEnvironment** %13, align 8
  %15 = icmp eq %class.CPDFSDK_FormFillEnvironment* %14, null
  br i1 %15, label %16, label %17

16:                                               ; preds = %12
  tail call void @_ZN10CJS_ResultC1E9JSMessage(%class.CJS_Result* %0, i32 19) #11
  br label %58

17:                                               ; preds = %12
  %18 = bitcast %"class.fxcrt::WideString"* %5 to i8*
  call void @llvm.lifetime.start.p0i8(i64 8, i8* nonnull %18) #11
  %19 = getelementptr inbounds %"class.fxcrt::WideString", %"class.fxcrt::WideString"* %5, i64 0, i32 0, i32 0, i32 0, i32 0, i32 0
  store %"class.fxcrt::StringDataTemplate.315"* inttoptr (i64 -6148914691236517206 to %"class.fxcrt::StringDataTemplate.315"*), %"class.fxcrt::StringDataTemplate.315"** %19, align 8
  %20 = getelementptr inbounds %class.CJS_Runtime, %class.CJS_Runtime* %2, i64 0, i32 1
  %21 = getelementptr inbounds %class.CFXJS_Engine, %class.CFXJS_Engine* %20, i64 0, i32 0
  %22 = getelementptr inbounds %"class.v8::Local.0", %"class.v8::Local.0"* %7, i64 0, i32 0
  %23 = load %"class.v8::Value"*, %"class.v8::Value"** %22, align 8
  call void @_ZN6CFX_V812ToWideStringEN2v85LocalINS0_5ValueEEE(%"class.fxcrt::WideString"* nonnull sret %5, %class.CFX_V8* %21, %"class.v8::Value"* %23) #11
  %24 = load %class.CPDFSDK_FormFillEnvironment*, %class.CPDFSDK_FormFillEnvironment** %13, align 8
  %25 = call %class.CPDFSDK_InteractiveForm* @_ZN27CPDFSDK_FormFillEnvironment18GetInteractiveFormEv(%class.CPDFSDK_FormFillEnvironment* %24) #11
  %26 = getelementptr inbounds %class.CPDFSDK_InteractiveForm, %class.CPDFSDK_InteractiveForm* %25, i64 0, i32 2, i32 0, i32 0, i32 0
  %27 = load %class.CPDF_InteractiveForm*, %class.CPDF_InteractiveForm** %26, align 8
  %28 = call i64 @_ZNK20CPDF_InteractiveForm11CountFieldsERKN5fxcrt10WideStringE(%class.CPDF_InteractiveForm* %27, %"class.fxcrt::WideString"* nonnull dereferenceable(8) %5) #11
  %29 = icmp eq i64 %28, 0
  br i1 %29, label %30, label %32

30:                                               ; preds = %17
  %31 = call %"class.v8::Value"* @_ZN6CFX_V812NewUndefinedEv(%class.CFX_V8* %21) #11
  call void @_ZN10CJS_ResultC1EN2v85LocalINS0_5ValueEEE(%class.CJS_Result* %0, %"class.v8::Value"* %31) #11
  br label %57

32:                                               ; preds = %17
  %33 = call i32 @_ZN9CJS_Field12GetObjDefnIDEv() #11
  %34 = call %"class.v8::Object"* @_ZN12CFXJS_Engine18NewFXJSBoundObjectEj11FXJSOBJTYPE(%class.CFXJS_Engine* %20, i32 %33, i32 0) #11
  %35 = icmp eq %"class.v8::Object"* %34, null
  br i1 %35, label %36, label %37

36:                                               ; preds = %32
  call void @_ZN10CJS_ResultC1E9JSMessage(%class.CJS_Result* %0, i32 19) #11
  br label %57

37:                                               ; preds = %32
  %38 = call %class.CJS_Object* @_ZN12CFXJS_Engine16GetObjectPrivateEN2v85LocalINS0_6ObjectEEE(%"class.v8::Object"* nonnull %34) #11
  %39 = icmp eq %class.CJS_Object* %38, null
  br i1 %39, label %40, label %41

40:                                               ; preds = %37
  call void @_ZN10CJS_ResultC1E9JSMessage(%class.CJS_Result* %0, i32 19) #11
  br label %57

41:                                               ; preds = %37
  %42 = bitcast %class.CJS_Object* %38 to %class.CJS_Field*
  %43 = call zeroext i1 @_ZN9CJS_Field11AttachFieldEP12CJS_DocumentRKN5fxcrt10WideStringE(%class.CJS_Field* nonnull %42, %class.CJS_Document* %1, %"class.fxcrt::WideString"* nonnull dereferenceable(8) %5) #11
  %44 = getelementptr inbounds %class.CJS_Object, %class.CJS_Object* %38, i64 0, i32 2, i32 0, i32 0
  %45 = load %"class.v8::Object"*, %"class.v8::Object"** %44, align 8
  %46 = icmp eq %"class.v8::Object"* %45, null
  br i1 %46, label %55, label %47

47:                                               ; preds = %41
  %48 = getelementptr inbounds %class.CJS_Object, %class.CJS_Object* %38, i64 0, i32 1, i32 0
  %49 = bitcast %"class.v8::Isolate"** %48 to %"class.v8::internal::Isolate"**
  %50 = load %"class.v8::internal::Isolate"*, %"class.v8::internal::Isolate"** %49, align 8
  %51 = bitcast %"class.v8::Object"* %45 to i64*
  %52 = load i64, i64* %51, align 8
  %53 = call i64* @_ZN2v811HandleScope12CreateHandleEPNS_8internal7IsolateEm(%"class.v8::internal::Isolate"* %50, i64 %52) #11
  %54 = bitcast i64* %53 to %"class.v8::Value"*
  br label %55

55:                                               ; preds = %41, %47
  %56 = phi %"class.v8::Value"* [ %54, %47 ], [ null, %41 ]
  call void @_ZN10CJS_ResultC1EN2v85LocalINS0_5ValueEEE(%class.CJS_Result* %0, %"class.v8::Value"* %56) #11
  br label %57

57:                                               ; preds = %36, %55, %40, %30
  call void @_ZN5fxcrt10WideStringD1Ev(%"class.fxcrt::WideString"* nonnull %5) #11
  call void @llvm.lifetime.end.p0i8(i64 8, i8* nonnull %18) #11
  br label %58

58:                                               ; preds = %57, %16, %11
  ret void
}

declare void @_ZN6CFX_V812ToWideStringEN2v85LocalINS0_5ValueEEE(%"class.fxcrt::WideString"* sret, %class.CFX_V8*, %"class.v8::Value"*) local_unnamed_addr #2

declare %"class.v8::Object"* @_ZN12CFXJS_Engine18NewFXJSBoundObjectEj11FXJSOBJTYPE(%class.CFXJS_Engine*, i32, i32) local_unnamed_addr #2

declare i32 @_ZN9CJS_Field12GetObjDefnIDEv() local_unnamed_addr #2

declare %class.CJS_Object* @_ZN12CFXJS_Engine16GetObjectPrivateEN2v85LocalINS0_6ObjectEEE(%"class.v8::Object"*) local_unnamed_addr #2

declare zeroext i1 @_ZN9CJS_Field11AttachFieldEP12CJS_DocumentRKN5fxcrt10WideStringE(%class.CJS_Field*, %class.CJS_Document*, %"class.fxcrt::WideString"* dereferenceable(8)) local_unnamed_addr #2

; Function Attrs: nounwind ssp uwtable
define hidden void @_ZN12CJS_Document15getNthFieldNameEP11CJS_RuntimeRKNSt3__16vectorIN2v85LocalINS4_5ValueEEENS2_9allocatorIS7_EEEE(%class.CJS_Result* noalias sret, %class.CJS_Document* nocapture readonly, %class.CJS_Runtime*, %"class.std::__1::vector.420"* nocapture readonly dereferenceable(24)) local_unnamed_addr #0 align 2 {
  %5 = alloca %"class.fxcrt::WideString", align 8
  %6 = alloca %"class.fxcrt::StringViewTemplate", align 8
  %7 = alloca %"class.fxcrt::WideString", align 8
  %8 = getelementptr inbounds %"class.std::__1::vector.420", %"class.std::__1::vector.420"* %3, i64 0, i32 0, i32 1
  %9 = bitcast %"class.v8::Local.0"** %8 to i64*
  %10 = load i64, i64* %9, align 8
  %11 = bitcast %"class.std::__1::vector.420"* %3 to i64*
  %12 = load i64, i64* %11, align 8
  %13 = sub i64 %10, %12
  %14 = icmp eq i64 %13, 8
  %15 = inttoptr i64 %12 to %"class.v8::Local.0"*
  br i1 %14, label %17, label %16

16:                                               ; preds = %4
  tail call void @_ZN10CJS_ResultC1E9JSMessage(%class.CJS_Result* %0, i32 2) #11
  br label %55

17:                                               ; preds = %4
  %18 = getelementptr inbounds %class.CJS_Document, %class.CJS_Document* %1, i64 0, i32 3, i32 1
  %19 = load %class.CPDFSDK_FormFillEnvironment*, %class.CPDFSDK_FormFillEnvironment** %18, align 8
  %20 = icmp eq %class.CPDFSDK_FormFillEnvironment* %19, null
  br i1 %20, label %21, label %22

21:                                               ; preds = %17
  tail call void @_ZN10CJS_ResultC1E9JSMessage(%class.CJS_Result* %0, i32 19) #11
  br label %55

22:                                               ; preds = %17
  %23 = getelementptr inbounds %class.CJS_Runtime, %class.CJS_Runtime* %2, i64 0, i32 1, i32 0
  %24 = getelementptr inbounds %"class.v8::Local.0", %"class.v8::Local.0"* %15, i64 0, i32 0
  %25 = load %"class.v8::Value"*, %"class.v8::Value"** %24, align 8
  %26 = tail call i32 @_ZN6CFX_V87ToInt32EN2v85LocalINS0_5ValueEEE(%class.CFX_V8* %23, %"class.v8::Value"* %25) #11
  %27 = icmp slt i32 %26, 0
  br i1 %27, label %28, label %29

28:                                               ; preds = %22
  tail call void @_ZN10CJS_ResultC1E9JSMessage(%class.CJS_Result* %0, i32 17) #11
  br label %55

29:                                               ; preds = %22
  %30 = load %class.CPDFSDK_FormFillEnvironment*, %class.CPDFSDK_FormFillEnvironment** %18, align 8
  %31 = tail call %class.CPDFSDK_InteractiveForm* @_ZN27CPDFSDK_FormFillEnvironment18GetInteractiveFormEv(%class.CPDFSDK_FormFillEnvironment* %30) #11
  %32 = getelementptr inbounds %class.CPDFSDK_InteractiveForm, %class.CPDFSDK_InteractiveForm* %31, i64 0, i32 2, i32 0, i32 0, i32 0
  %33 = load %class.CPDF_InteractiveForm*, %class.CPDF_InteractiveForm** %32, align 8
  %34 = bitcast %"class.fxcrt::WideString"* %5 to i8*
  call void @llvm.lifetime.start.p0i8(i64 8, i8* nonnull %34) #11
  call void @_ZN5fxcrt10WideStringC1Ev(%"class.fxcrt::WideString"* nonnull %5) #11
  %35 = call %class.CPDF_FormField* @_ZNK20CPDF_InteractiveForm8GetFieldEjRKN5fxcrt10WideStringE(%class.CPDF_InteractiveForm* %33, i32 %26, %"class.fxcrt::WideString"* nonnull dereferenceable(8) %5) #11
  call void @_ZN5fxcrt10WideStringD1Ev(%"class.fxcrt::WideString"* nonnull %5) #11
  call void @llvm.lifetime.end.p0i8(i64 8, i8* nonnull %34) #11
  %36 = icmp eq %class.CPDF_FormField* %35, null
  br i1 %36, label %37, label %38

37:                                               ; preds = %29
  call void @_ZN10CJS_ResultC1E9JSMessage(%class.CJS_Result* %0, i32 19) #11
  br label %55

38:                                               ; preds = %29
  %39 = bitcast %"class.fxcrt::WideString"* %7 to i8*
  call void @llvm.lifetime.start.p0i8(i64 8, i8* nonnull %39) #11
  call void @_ZNK14CPDF_FormField11GetFullNameEv(%"class.fxcrt::WideString"* nonnull sret %7, %class.CPDF_FormField* nonnull %35) #11
  %40 = getelementptr inbounds %"class.fxcrt::WideString", %"class.fxcrt::WideString"* %7, i64 0, i32 0, i32 0, i32 0, i32 0, i32 0
  %41 = load %"class.fxcrt::StringDataTemplate.315"*, %"class.fxcrt::StringDataTemplate.315"** %40, align 8, !noalias !3
  %42 = icmp eq %"class.fxcrt::StringDataTemplate.315"* %41, null
  %43 = getelementptr inbounds %"class.fxcrt::StringDataTemplate.315", %"class.fxcrt::StringDataTemplate.315"* %41, i64 0, i32 3
  %44 = select i1 %42, [1 x i32]* @.str.103, [1 x i32]* %43
  %45 = getelementptr inbounds [1 x i32], [1 x i32]* %44, i64 0, i64 0
  br i1 %42, label %49, label %46

46:                                               ; preds = %38
  %47 = getelementptr inbounds %"class.fxcrt::StringDataTemplate.315", %"class.fxcrt::StringDataTemplate.315"* %41, i64 0, i32 1
  %48 = load i64, i64* %47, align 8, !noalias !3
  br label %49

49:                                               ; preds = %38, %46
  %50 = phi i64 [ %48, %46 ], [ 0, %38 ]
  %51 = getelementptr inbounds %"class.fxcrt::StringViewTemplate", %"class.fxcrt::StringViewTemplate"* %6, i64 0, i32 0, i32 0, i32 0
  store i32* %45, i32** %51, align 8, !alias.scope !3
  %52 = getelementptr inbounds %"class.fxcrt::StringViewTemplate", %"class.fxcrt::StringViewTemplate"* %6, i64 0, i32 0, i32 1
  store i64 %50, i64* %52, align 8, !alias.scope !3
  %53 = call %"class.v8::String"* @_ZN6CFX_V89NewStringEN5fxcrt18StringViewTemplateIwEE(%class.CFX_V8* %23, %"class.fxcrt::StringViewTemplate"* nonnull %6) #11
  %54 = bitcast %"class.v8::String"* %53 to %"class.v8::Value"*
  call void @_ZN10CJS_ResultC1EN2v85LocalINS0_5ValueEEE(%class.CJS_Result* %0, %"class.v8::Value"* %54) #11
  call void @_ZN5fxcrt10WideStringD1Ev(%"class.fxcrt::WideString"* nonnull %7) #11
  call void @llvm.lifetime.end.p0i8(i64 8, i8* nonnull %39) #11
  br label %55

55:                                               ; preds = %28, %49, %37, %21, %16
  ret void
}

declare %class.CPDF_FormField* @_ZNK20CPDF_InteractiveForm8GetFieldEjRKN5fxcrt10WideStringE(%class.CPDF_InteractiveForm*, i32, %"class.fxcrt::WideString"* dereferenceable(8)) local_unnamed_addr #2

declare %"class.v8::String"* @_ZN6CFX_V89NewStringEN5fxcrt18StringViewTemplateIwEE(%class.CFX_V8*, %"class.fxcrt::StringViewTemplate"*) local_unnamed_addr #2

declare void @_ZNK14CPDF_FormField11GetFullNameEv(%"class.fxcrt::WideString"* sret, %class.CPDF_FormField*) local_unnamed_addr #2

; Function Attrs: nounwind ssp uwtable
define hidden void @_ZN12CJS_Document11importAnFDFEP11CJS_RuntimeRKNSt3__16vectorIN2v85LocalINS4_5ValueEEENS2_9allocatorIS7_EEEE(%class.CJS_Result* noalias sret, %class.CJS_Document* nocapture readnone, %class.CJS_Runtime* nocapture readnone, %"class.std::__1::vector.420"* nocapture readnone dereferenceable(24)) local_unnamed_addr #0 align 2 {
  tail call void @_ZN10CJS_ResultC1Ev(%class.CJS_Result* %0) #11
  ret void
}

; Function Attrs: nounwind ssp uwtable
define hidden void @_ZN12CJS_Document12importAnXFDFEP11CJS_RuntimeRKNSt3__16vectorIN2v85LocalINS4_5ValueEEENS2_9allocatorIS7_EEEE(%class.CJS_Result* noalias sret, %class.CJS_Document* nocapture readnone, %class.CJS_Runtime* nocapture readnone, %"class.std::__1::vector.420"* nocapture readnone dereferenceable(24)) local_unnamed_addr #0 align 2 {
  tail call void @_ZN10CJS_ResultC1Ev(%class.CJS_Result* %0) #11
  ret void
}

; Function Attrs: nounwind ssp uwtable
define hidden void @_ZN12CJS_Document14importTextDataEP11CJS_RuntimeRKNSt3__16vectorIN2v85LocalINS4_5ValueEEENS2_9allocatorIS7_EEEE(%class.CJS_Result* noalias sret, %class.CJS_Document* nocapture readnone, %class.CJS_Runtime* nocapture readnone, %"class.std::__1::vector.420"* nocapture readnone dereferenceable(24)) local_unnamed_addr #0 align 2 {
  tail call void @_ZN10CJS_ResultC1Ev(%class.CJS_Result* %0) #11
  ret void
}

; Function Attrs: nounwind ssp uwtable
define hidden void @_ZN12CJS_Document7mailDocEP11CJS_RuntimeRKNSt3__16vectorIN2v85LocalINS4_5ValueEEENS2_9allocatorIS7_EEEE(%class.CJS_Result* noalias sret, %class.CJS_Document* nocapture readonly, %class.CJS_Runtime*, %"class.std::__1::vector.420"* dereferenceable(24)) local_unnamed_addr #0 align 2 {
  %5 = alloca %"class.std::__1::vector.420", align 8
  %6 = alloca %"class.fxcrt::WideString", align 8
  %7 = alloca %"class.fxcrt::WideString", align 8
  %8 = alloca %"class.fxcrt::WideString", align 8
  %9 = alloca %"class.fxcrt::WideString", align 8
  %10 = alloca %"class.fxcrt::WideString", align 8
  %11 = alloca %"class.fxcrt::WideString", align 8
  %12 = alloca %"class.fxcrt::WideString", align 8
  %13 = alloca %"class.fxcrt::WideString", align 8
  %14 = alloca %"class.fxcrt::WideString", align 8
  %15 = alloca %"class.fxcrt::WideString", align 8
  %16 = getelementptr inbounds %class.CJS_Document, %class.CJS_Document* %1, i64 0, i32 3, i32 1
  %17 = load %class.CPDFSDK_FormFillEnvironment*, %class.CPDFSDK_FormFillEnvironment** %16, align 8
  %18 = icmp eq %class.CPDFSDK_FormFillEnvironment* %17, null
  br i1 %18, label %19, label %20

19:                                               ; preds = %4
  tail call void @_ZN10CJS_ResultC1E9JSMessage(%class.CJS_Result* %0, i32 19) #11
  br label %117

20:                                               ; preds = %4
  %21 = bitcast %"class.std::__1::vector.420"* %5 to i8*
  call void @llvm.lifetime.start.p0i8(i64 24, i8* nonnull %21) #11
  %22 = getelementptr inbounds %"class.std::__1::vector.420", %"class.std::__1::vector.420"* %5, i64 0, i32 0, i32 0
  %23 = getelementptr inbounds %"class.std::__1::vector.420", %"class.std::__1::vector.420"* %5, i64 0, i32 0, i32 1
  %24 = bitcast %"class.std::__1::vector.420"* %5 to i8*
  call void @llvm.memset.p0i8.i64(i8* nonnull align 8 %24, i8 -86, i64 24, i1 false)
  call void (%"class.std::__1::vector.420"*, %class.CJS_Runtime*, %"class.std::__1::vector.420"*, i64, ...) @_Z19ExpandKeywordParamsP11CJS_RuntimeRKNSt3__16vectorIN2v85LocalINS3_5ValueEEENS1_9allocatorIS6_EEEEmz(%"class.std::__1::vector.420"* nonnull sret %5, %class.CJS_Runtime* %2, %"class.std::__1::vector.420"* dereferenceable(24) %3, i64 6, i8* getelementptr inbounds ([4 x i8], [4 x i8]* @.str.74, i64 0, i64 0), i8* getelementptr inbounds ([4 x i8], [4 x i8]* @.str.75, i64 0, i64 0), i8* getelementptr inbounds ([4 x i8], [4 x i8]* @.str.76, i64 0, i64 0), i8* getelementptr inbounds ([5 x i8], [5 x i8]* @.str.77, i64 0, i64 0), i8* getelementptr inbounds ([9 x i8], [9 x i8]* @.str.78, i64 0, i64 0), i8* getelementptr inbounds ([5 x i8], [5 x i8]* @.str.79, i64 0, i64 0)) #11
  %25 = load %"class.v8::Local.0"*, %"class.v8::Local.0"** %22, align 8
  %26 = getelementptr inbounds %"class.v8::Local.0", %"class.v8::Local.0"* %25, i64 0, i32 0
  %27 = load %"class.v8::Value"*, %"class.v8::Value"** %26, align 8
  %28 = call zeroext i1 @_Z20IsExpandedParamKnownN2v85LocalINS_5ValueEEE(%"class.v8::Value"* %27) #11
  br i1 %28, label %29, label %36

29:                                               ; preds = %20
  %30 = getelementptr inbounds %class.CJS_Runtime, %class.CJS_Runtime* %2, i64 0, i32 1, i32 0
  %31 = load %"class.v8::Local.0"*, %"class.v8::Local.0"** %22, align 8
  %32 = getelementptr inbounds %"class.v8::Local.0", %"class.v8::Local.0"* %31, i64 0, i32 0
  %33 = load %"class.v8::Value"*, %"class.v8::Value"** %32, align 8
  %34 = call zeroext i1 @_ZN6CFX_V89ToBooleanEN2v85LocalINS0_5ValueEEE(%class.CFX_V8* %30, %"class.v8::Value"* %33) #11
  %35 = zext i1 %34 to i32
  br label %36

36:                                               ; preds = %29, %20
  %37 = phi i32 [ %35, %29 ], [ 1, %20 ]
  %38 = bitcast %"class.fxcrt::WideString"* %6 to i8*
  call void @llvm.lifetime.start.p0i8(i64 8, i8* nonnull %38) #11
  %39 = getelementptr inbounds %"class.fxcrt::WideString", %"class.fxcrt::WideString"* %6, i64 0, i32 0, i32 0, i32 0, i32 0, i32 0
  store %"class.fxcrt::StringDataTemplate.315"* inttoptr (i64 -6148914691236517206 to %"class.fxcrt::StringDataTemplate.315"*), %"class.fxcrt::StringDataTemplate.315"** %39, align 8
  call void @_ZN5fxcrt10WideStringC1Ev(%"class.fxcrt::WideString"* nonnull %6) #11
  %40 = load %"class.v8::Local.0"*, %"class.v8::Local.0"** %22, align 8
  %41 = getelementptr inbounds %"class.v8::Local.0", %"class.v8::Local.0"* %40, i64 1, i32 0
  %42 = load %"class.v8::Value"*, %"class.v8::Value"** %41, align 8
  %43 = call zeroext i1 @_Z20IsExpandedParamKnownN2v85LocalINS_5ValueEEE(%"class.v8::Value"* %42) #11
  br i1 %43, label %44, label %51

44:                                               ; preds = %36
  %45 = bitcast %"class.fxcrt::WideString"* %7 to i8*
  call void @llvm.lifetime.start.p0i8(i64 8, i8* nonnull %45) #11
  %46 = getelementptr inbounds %class.CJS_Runtime, %class.CJS_Runtime* %2, i64 0, i32 1, i32 0
  %47 = load %"class.v8::Local.0"*, %"class.v8::Local.0"** %22, align 8
  %48 = getelementptr inbounds %"class.v8::Local.0", %"class.v8::Local.0"* %47, i64 1, i32 0
  %49 = load %"class.v8::Value"*, %"class.v8::Value"** %48, align 8
  call void @_ZN6CFX_V812ToWideStringEN2v85LocalINS0_5ValueEEE(%"class.fxcrt::WideString"* nonnull sret %7, %class.CFX_V8* %46, %"class.v8::Value"* %49) #11
  %50 = call dereferenceable(8) %"class.fxcrt::WideString"* @_ZN5fxcrt10WideStringaSEOS0_(%"class.fxcrt::WideString"* nonnull %6, %"class.fxcrt::WideString"* nonnull dereferenceable(8) %7) #11
  call void @_ZN5fxcrt10WideStringD1Ev(%"class.fxcrt::WideString"* nonnull %7) #11
  call void @llvm.lifetime.end.p0i8(i64 8, i8* nonnull %45) #11
  br label %51

51:                                               ; preds = %44, %36
  %52 = bitcast %"class.fxcrt::WideString"* %8 to i8*
  call void @llvm.lifetime.start.p0i8(i64 8, i8* nonnull %52) #11
  %53 = getelementptr inbounds %"class.fxcrt::WideString", %"class.fxcrt::WideString"* %8, i64 0, i32 0, i32 0, i32 0, i32 0, i32 0
  store %"class.fxcrt::StringDataTemplate.315"* inttoptr (i64 -6148914691236517206 to %"class.fxcrt::StringDataTemplate.315"*), %"class.fxcrt::StringDataTemplate.315"** %53, align 8
  call void @_ZN5fxcrt10WideStringC1Ev(%"class.fxcrt::WideString"* nonnull %8) #11
  %54 = load %"class.v8::Local.0"*, %"class.v8::Local.0"** %22, align 8
  %55 = getelementptr inbounds %"class.v8::Local.0", %"class.v8::Local.0"* %54, i64 2, i32 0
  %56 = load %"class.v8::Value"*, %"class.v8::Value"** %55, align 8
  %57 = call zeroext i1 @_Z20IsExpandedParamKnownN2v85LocalINS_5ValueEEE(%"class.v8::Value"* %56) #11
  br i1 %57, label %58, label %65

58:                                               ; preds = %51
  %59 = bitcast %"class.fxcrt::WideString"* %9 to i8*
  call void @llvm.lifetime.start.p0i8(i64 8, i8* nonnull %59) #11
  %60 = getelementptr inbounds %class.CJS_Runtime, %class.CJS_Runtime* %2, i64 0, i32 1, i32 0
  %61 = load %"class.v8::Local.0"*, %"class.v8::Local.0"** %22, align 8
  %62 = getelementptr inbounds %"class.v8::Local.0", %"class.v8::Local.0"* %61, i64 2, i32 0
  %63 = load %"class.v8::Value"*, %"class.v8::Value"** %62, align 8
  call void @_ZN6CFX_V812ToWideStringEN2v85LocalINS0_5ValueEEE(%"class.fxcrt::WideString"* nonnull sret %9, %class.CFX_V8* %60, %"class.v8::Value"* %63) #11
  %64 = call dereferenceable(8) %"class.fxcrt::WideString"* @_ZN5fxcrt10WideStringaSEOS0_(%"class.fxcrt::WideString"* nonnull %8, %"class.fxcrt::WideString"* nonnull dereferenceable(8) %9) #11
  call void @_ZN5fxcrt10WideStringD1Ev(%"class.fxcrt::WideString"* nonnull %9) #11
  call void @llvm.lifetime.end.p0i8(i64 8, i8* nonnull %59) #11
  br label %65

65:                                               ; preds = %58, %51
  %66 = bitcast %"class.fxcrt::WideString"* %10 to i8*
  call void @llvm.lifetime.start.p0i8(i64 8, i8* nonnull %66) #11
  %67 = getelementptr inbounds %"class.fxcrt::WideString", %"class.fxcrt::WideString"* %10, i64 0, i32 0, i32 0, i32 0, i32 0, i32 0
  store %"class.fxcrt::StringDataTemplate.315"* inttoptr (i64 -6148914691236517206 to %"class.fxcrt::StringDataTemplate.315"*), %"class.fxcrt::StringDataTemplate.315"** %67, align 8
  call void @_ZN5fxcrt10WideStringC1Ev(%"class.fxcrt::WideString"* nonnull %10) #11
  %68 = load %"class.v8::Local.0"*, %"class.v8::Local.0"** %22, align 8
  %69 = getelementptr inbounds %"class.v8::Local.0", %"class.v8::Local.0"* %68, i64 3, i32 0
  %70 = load %"class.v8::Value"*, %"class.v8::Value"** %69, align 8
  %71 = call zeroext i1 @_Z20IsExpandedParamKnownN2v85LocalINS_5ValueEEE(%"class.v8::Value"* %70) #11
  br i1 %71, label %72, label %79

72:                                               ; preds = %65
  %73 = bitcast %"class.fxcrt::WideString"* %11 to i8*
  call void @llvm.lifetime.start.p0i8(i64 8, i8* nonnull %73) #11
  %74 = getelementptr inbounds %class.CJS_Runtime, %class.CJS_Runtime* %2, i64 0, i32 1, i32 0
  %75 = load %"class.v8::Local.0"*, %"class.v8::Local.0"** %22, align 8
  %76 = getelementptr inbounds %"class.v8::Local.0", %"class.v8::Local.0"* %75, i64 3, i32 0
  %77 = load %"class.v8::Value"*, %"class.v8::Value"** %76, align 8
  call void @_ZN6CFX_V812ToWideStringEN2v85LocalINS0_5ValueEEE(%"class.fxcrt::WideString"* nonnull sret %11, %class.CFX_V8* %74, %"class.v8::Value"* %77) #11
  %78 = call dereferenceable(8) %"class.fxcrt::WideString"* @_ZN5fxcrt10WideStringaSEOS0_(%"class.fxcrt::WideString"* nonnull %10, %"class.fxcrt::WideString"* nonnull dereferenceable(8) %11) #11
  call void @_ZN5fxcrt10WideStringD1Ev(%"class.fxcrt::WideString"* nonnull %11) #11
  call void @llvm.lifetime.end.p0i8(i64 8, i8* nonnull %73) #11
  br label %79

79:                                               ; preds = %72, %65
  %80 = bitcast %"class.fxcrt::WideString"* %12 to i8*
  call void @llvm.lifetime.start.p0i8(i64 8, i8* nonnull %80) #11
  %81 = getelementptr inbounds %"class.fxcrt::WideString", %"class.fxcrt::WideString"* %12, i64 0, i32 0, i32 0, i32 0, i32 0, i32 0
  store %"class.fxcrt::StringDataTemplate.315"* inttoptr (i64 -6148914691236517206 to %"class.fxcrt::StringDataTemplate.315"*), %"class.fxcrt::StringDataTemplate.315"** %81, align 8
  call void @_ZN5fxcrt10WideStringC1Ev(%"class.fxcrt::WideString"* nonnull %12) #11
  %82 = load %"class.v8::Local.0"*, %"class.v8::Local.0"** %22, align 8
  %83 = getelementptr inbounds %"class.v8::Local.0", %"class.v8::Local.0"* %82, i64 4, i32 0
  %84 = load %"class.v8::Value"*, %"class.v8::Value"** %83, align 8
  %85 = call zeroext i1 @_Z20IsExpandedParamKnownN2v85LocalINS_5ValueEEE(%"class.v8::Value"* %84) #11
  br i1 %85, label %86, label %93

86:                                               ; preds = %79
  %87 = bitcast %"class.fxcrt::WideString"* %13 to i8*
  call void @llvm.lifetime.start.p0i8(i64 8, i8* nonnull %87) #11
  %88 = getelementptr inbounds %class.CJS_Runtime, %class.CJS_Runtime* %2, i64 0, i32 1, i32 0
  %89 = load %"class.v8::Local.0"*, %"class.v8::Local.0"** %22, align 8
  %90 = getelementptr inbounds %"class.v8::Local.0", %"class.v8::Local.0"* %89, i64 4, i32 0
  %91 = load %"class.v8::Value"*, %"class.v8::Value"** %90, align 8
  call void @_ZN6CFX_V812ToWideStringEN2v85LocalINS0_5ValueEEE(%"class.fxcrt::WideString"* nonnull sret %13, %class.CFX_V8* %88, %"class.v8::Value"* %91) #11
  %92 = call dereferenceable(8) %"class.fxcrt::WideString"* @_ZN5fxcrt10WideStringaSEOS0_(%"class.fxcrt::WideString"* nonnull %12, %"class.fxcrt::WideString"* nonnull dereferenceable(8) %13) #11
  call void @_ZN5fxcrt10WideStringD1Ev(%"class.fxcrt::WideString"* nonnull %13) #11
  call void @llvm.lifetime.end.p0i8(i64 8, i8* nonnull %87) #11
  br label %93

93:                                               ; preds = %86, %79
  %94 = bitcast %"class.fxcrt::WideString"* %14 to i8*
  call void @llvm.lifetime.start.p0i8(i64 8, i8* nonnull %94) #11
  %95 = getelementptr inbounds %"class.fxcrt::WideString", %"class.fxcrt::WideString"* %14, i64 0, i32 0, i32 0, i32 0, i32 0, i32 0
  store %"class.fxcrt::StringDataTemplate.315"* inttoptr (i64 -6148914691236517206 to %"class.fxcrt::StringDataTemplate.315"*), %"class.fxcrt::StringDataTemplate.315"** %95, align 8
  call void @_ZN5fxcrt10WideStringC1Ev(%"class.fxcrt::WideString"* nonnull %14) #11
  %96 = load %"class.v8::Local.0"*, %"class.v8::Local.0"** %22, align 8
  %97 = getelementptr inbounds %"class.v8::Local.0", %"class.v8::Local.0"* %96, i64 5, i32 0
  %98 = load %"class.v8::Value"*, %"class.v8::Value"** %97, align 8
  %99 = call zeroext i1 @_Z20IsExpandedParamKnownN2v85LocalINS_5ValueEEE(%"class.v8::Value"* %98) #11
  br i1 %99, label %100, label %107

100:                                              ; preds = %93
  %101 = bitcast %"class.fxcrt::WideString"* %15 to i8*
  call void @llvm.lifetime.start.p0i8(i64 8, i8* nonnull %101) #11
  %102 = getelementptr inbounds %class.CJS_Runtime, %class.CJS_Runtime* %2, i64 0, i32 1, i32 0
  %103 = load %"class.v8::Local.0"*, %"class.v8::Local.0"** %22, align 8
  %104 = getelementptr inbounds %"class.v8::Local.0", %"class.v8::Local.0"* %103, i64 5, i32 0
  %105 = load %"class.v8::Value"*, %"class.v8::Value"** %104, align 8
  call void @_ZN6CFX_V812ToWideStringEN2v85LocalINS0_5ValueEEE(%"class.fxcrt::WideString"* nonnull sret %15, %class.CFX_V8* %102, %"class.v8::Value"* %105) #11
  %106 = call dereferenceable(8) %"class.fxcrt::WideString"* @_ZN5fxcrt10WideStringaSEOS0_(%"class.fxcrt::WideString"* nonnull %14, %"class.fxcrt::WideString"* nonnull dereferenceable(8) %15) #11
  call void @_ZN5fxcrt10WideStringD1Ev(%"class.fxcrt::WideString"* nonnull %15) #11
  call void @llvm.lifetime.end.p0i8(i64 8, i8* nonnull %101) #11
  br label %107

107:                                              ; preds = %100, %93
  %108 = getelementptr inbounds %class.CJS_Runtime, %class.CJS_Runtime* %2, i64 0, i32 5
  store i8 1, i8* %108, align 8
  %109 = load %class.CPDFSDK_FormFillEnvironment*, %class.CPDFSDK_FormFillEnvironment** %16, align 8
  call void @_ZN27CPDFSDK_FormFillEnvironment14JS_docmailFormEPviiRKN5fxcrt10WideStringES4_S4_S4_S4_(%class.CPDFSDK_FormFillEnvironment* %109, i8* null, i32 0, i32 %37, %"class.fxcrt::WideString"* nonnull dereferenceable(8) %6, %"class.fxcrt::WideString"* nonnull dereferenceable(8) %12, %"class.fxcrt::WideString"* nonnull dereferenceable(8) %8, %"class.fxcrt::WideString"* nonnull dereferenceable(8) %10, %"class.fxcrt::WideString"* nonnull dereferenceable(8) %14) #11
  store i8 0, i8* %108, align 8
  call void @_ZN10CJS_ResultC1Ev(%class.CJS_Result* %0) #11
  call void @_ZN5fxcrt10WideStringD1Ev(%"class.fxcrt::WideString"* nonnull %14) #11
  call void @llvm.lifetime.end.p0i8(i64 8, i8* nonnull %94) #11
  call void @_ZN5fxcrt10WideStringD1Ev(%"class.fxcrt::WideString"* nonnull %12) #11
  call void @llvm.lifetime.end.p0i8(i64 8, i8* nonnull %80) #11
  call void @_ZN5fxcrt10WideStringD1Ev(%"class.fxcrt::WideString"* nonnull %10) #11
  call void @llvm.lifetime.end.p0i8(i64 8, i8* nonnull %66) #11
  call void @_ZN5fxcrt10WideStringD1Ev(%"class.fxcrt::WideString"* nonnull %8) #11
  call void @llvm.lifetime.end.p0i8(i64 8, i8* nonnull %52) #11
  call void @_ZN5fxcrt10WideStringD1Ev(%"class.fxcrt::WideString"* nonnull %6) #11
  call void @llvm.lifetime.end.p0i8(i64 8, i8* nonnull %38) #11
  %110 = load %"class.v8::Local.0"*, %"class.v8::Local.0"** %22, align 8
  %111 = icmp eq %"class.v8::Local.0"* %110, null
  br i1 %111, label %116, label %112

112:                                              ; preds = %107
  %113 = ptrtoint %"class.v8::Local.0"* %110 to i64
  %114 = bitcast %"class.v8::Local.0"** %23 to i64*
  store i64 %113, i64* %114, align 8
  %115 = bitcast %"class.v8::Local.0"* %110 to i8*
  call void @_ZdlPv(i8* %115) #12
  br label %116

116:                                              ; preds = %107, %112
  call void @llvm.lifetime.end.p0i8(i64 24, i8* nonnull %21) #11
  br label %117

117:                                              ; preds = %116, %19
  ret void
}

declare void @_Z19ExpandKeywordParamsP11CJS_RuntimeRKNSt3__16vectorIN2v85LocalINS3_5ValueEEENS1_9allocatorIS6_EEEEmz(%"class.std::__1::vector.420"* sret, %class.CJS_Runtime*, %"class.std::__1::vector.420"* dereferenceable(24), i64, ...) local_unnamed_addr #2

declare zeroext i1 @_Z20IsExpandedParamKnownN2v85LocalINS_5ValueEEE(%"class.v8::Value"*) local_unnamed_addr #2

; Function Attrs: nounwind
declare dereferenceable(8) %"class.fxcrt::WideString"* @_ZN5fxcrt10WideStringaSEOS0_(%"class.fxcrt::WideString"*, %"class.fxcrt::WideString"* dereferenceable(8)) local_unnamed_addr #4

declare void @_ZN27CPDFSDK_FormFillEnvironment14JS_docmailFormEPviiRKN5fxcrt10WideStringES4_S4_S4_S4_(%class.CPDFSDK_FormFillEnvironment*, i8*, i32, i32, %"class.fxcrt::WideString"* dereferenceable(8), %"class.fxcrt::WideString"* dereferenceable(8), %"class.fxcrt::WideString"* dereferenceable(8), %"class.fxcrt::WideString"* dereferenceable(8), %"class.fxcrt::WideString"* dereferenceable(8)) local_unnamed_addr #2

; Function Attrs: nounwind ssp uwtable
define hidden void @_ZN12CJS_Document8mailFormEP11CJS_RuntimeRKNSt3__16vectorIN2v85LocalINS4_5ValueEEENS2_9allocatorIS7_EEEE(%class.CJS_Result* noalias sret, %class.CJS_Document* nocapture readonly, %class.CJS_Runtime*, %"class.std::__1::vector.420"* dereferenceable(24)) local_unnamed_addr #0 align 2 {
  %5 = alloca %"class.fxcrt::ByteString", align 8
  %6 = alloca %"class.fxcrt::WideString", align 8
  %7 = alloca %"class.std::__1::vector.420", align 8
  %8 = alloca %"class.fxcrt::WideString", align 8
  %9 = alloca %"class.fxcrt::WideString", align 8
  %10 = alloca %"class.fxcrt::WideString", align 8
  %11 = alloca %"class.fxcrt::WideString", align 8
  %12 = alloca %"class.fxcrt::WideString", align 8
  %13 = alloca %"class.fxcrt::WideString", align 8
  %14 = alloca %"class.fxcrt::WideString", align 8
  %15 = alloca %"class.fxcrt::WideString", align 8
  %16 = alloca %"class.fxcrt::WideString", align 8
  %17 = alloca %"class.fxcrt::WideString", align 8
  %18 = alloca %"class.std::__1::vector.437", align 8
  %19 = getelementptr inbounds %class.CJS_Document, %class.CJS_Document* %1, i64 0, i32 3, i32 1
  %20 = load %class.CPDFSDK_FormFillEnvironment*, %class.CPDFSDK_FormFillEnvironment** %19, align 8
  %21 = icmp eq %class.CPDFSDK_FormFillEnvironment* %20, null
  br i1 %21, label %22, label %23

22:                                               ; preds = %4
  tail call void @_ZN10CJS_ResultC1E9JSMessage(%class.CJS_Result* %0, i32 19) #11
  br label %290

23:                                               ; preds = %4
  %24 = tail call zeroext i1 @_ZNK27CPDFSDK_FormFillEnvironment14HasPermissionsEj(%class.CPDFSDK_FormFillEnvironment* nonnull %20, i32 512) #11
  br i1 %24, label %26, label %25

25:                                               ; preds = %23
  tail call void @_ZN10CJS_ResultC1E9JSMessage(%class.CJS_Result* %0, i32 18) #11
  br label %290

26:                                               ; preds = %23
  %27 = load %class.CPDFSDK_FormFillEnvironment*, %class.CPDFSDK_FormFillEnvironment** %19, align 8
  %28 = tail call %class.CPDFSDK_InteractiveForm* @_ZN27CPDFSDK_FormFillEnvironment18GetInteractiveFormEv(%class.CPDFSDK_FormFillEnvironment* %27) #11
  %29 = bitcast %"class.fxcrt::ByteString"* %5 to i8*
  call void @llvm.lifetime.start.p0i8(i64 8, i8* nonnull %29) #11
  %30 = getelementptr inbounds %"class.fxcrt::ByteString", %"class.fxcrt::ByteString"* %5, i64 0, i32 0, i32 0, i32 0, i32 0, i32 0
  store %"class.fxcrt::StringDataTemplate"* inttoptr (i64 -6148914691236517206 to %"class.fxcrt::StringDataTemplate"*), %"class.fxcrt::StringDataTemplate"** %30, align 8
  call void @_ZN23CPDFSDK_InteractiveForm22ExportFormToFDFTextBufEv(%"class.fxcrt::ByteString"* nonnull sret %5, %class.CPDFSDK_InteractiveForm* %28) #11
  %31 = load %"class.fxcrt::StringDataTemplate"*, %"class.fxcrt::StringDataTemplate"** %30, align 8
  %32 = icmp eq %"class.fxcrt::StringDataTemplate"* %31, null
  br i1 %32, label %37, label %33

33:                                               ; preds = %26
  %34 = getelementptr inbounds %"class.fxcrt::StringDataTemplate", %"class.fxcrt::StringDataTemplate"* %31, i64 0, i32 1
  %35 = load i64, i64* %34, align 8
  %36 = icmp eq i64 %35, 0
  br i1 %36, label %37, label %39

37:                                               ; preds = %26, %33
  %38 = bitcast %"class.fxcrt::WideString"* %6 to i8*
  call void @llvm.lifetime.start.p0i8(i64 8, i8* nonnull %38) #11
  call void @_ZN5fxcrt10WideStringC1EPKw(%"class.fxcrt::WideString"* nonnull %6, i32* getelementptr inbounds ([16 x i32], [16 x i32]* @.str.80, i64 0, i64 0)) #11
  call void @_ZN10CJS_ResultC1ERKN5fxcrt10WideStringE(%class.CJS_Result* %0, %"class.fxcrt::WideString"* nonnull dereferenceable(8) %6) #11
  call void @_ZN5fxcrt10WideStringD1Ev(%"class.fxcrt::WideString"* nonnull %6) #11
  call void @llvm.lifetime.end.p0i8(i64 8, i8* nonnull %38) #11
  br label %289

39:                                               ; preds = %33
  %40 = bitcast %"class.std::__1::vector.420"* %7 to i8*
  call void @llvm.lifetime.start.p0i8(i64 24, i8* nonnull %40) #11
  %41 = getelementptr inbounds %"class.std::__1::vector.420", %"class.std::__1::vector.420"* %7, i64 0, i32 0, i32 0
  %42 = getelementptr inbounds %"class.std::__1::vector.420", %"class.std::__1::vector.420"* %7, i64 0, i32 0, i32 1
  %43 = bitcast %"class.std::__1::vector.420"* %7 to i8*
  call void @llvm.memset.p0i8.i64(i8* nonnull align 8 %43, i8 -86, i64 24, i1 false)
  call void (%"class.std::__1::vector.420"*, %class.CJS_Runtime*, %"class.std::__1::vector.420"*, i64, ...) @_Z19ExpandKeywordParamsP11CJS_RuntimeRKNSt3__16vectorIN2v85LocalINS3_5ValueEEENS1_9allocatorIS6_EEEEmz(%"class.std::__1::vector.420"* nonnull sret %7, %class.CJS_Runtime* %2, %"class.std::__1::vector.420"* dereferenceable(24) %3, i64 6, i8* getelementptr inbounds ([4 x i8], [4 x i8]* @.str.74, i64 0, i64 0), i8* getelementptr inbounds ([4 x i8], [4 x i8]* @.str.75, i64 0, i64 0), i8* getelementptr inbounds ([4 x i8], [4 x i8]* @.str.76, i64 0, i64 0), i8* getelementptr inbounds ([5 x i8], [5 x i8]* @.str.77, i64 0, i64 0), i8* getelementptr inbounds ([9 x i8], [9 x i8]* @.str.78, i64 0, i64 0), i8* getelementptr inbounds ([5 x i8], [5 x i8]* @.str.79, i64 0, i64 0)) #11
  %44 = load %"class.v8::Local.0"*, %"class.v8::Local.0"** %41, align 8
  %45 = getelementptr inbounds %"class.v8::Local.0", %"class.v8::Local.0"* %44, i64 0, i32 0
  %46 = load %"class.v8::Value"*, %"class.v8::Value"** %45, align 8
  %47 = call zeroext i1 @_Z20IsExpandedParamKnownN2v85LocalINS_5ValueEEE(%"class.v8::Value"* %46) #11
  br i1 %47, label %48, label %55

48:                                               ; preds = %39
  %49 = getelementptr inbounds %class.CJS_Runtime, %class.CJS_Runtime* %2, i64 0, i32 1, i32 0
  %50 = load %"class.v8::Local.0"*, %"class.v8::Local.0"** %41, align 8
  %51 = getelementptr inbounds %"class.v8::Local.0", %"class.v8::Local.0"* %50, i64 0, i32 0
  %52 = load %"class.v8::Value"*, %"class.v8::Value"** %51, align 8
  %53 = call zeroext i1 @_ZN6CFX_V89ToBooleanEN2v85LocalINS0_5ValueEEE(%class.CFX_V8* %49, %"class.v8::Value"* %52) #11
  %54 = zext i1 %53 to i32
  br label %55

55:                                               ; preds = %48, %39
  %56 = phi i32 [ %54, %48 ], [ 1, %39 ]
  %57 = bitcast %"class.fxcrt::WideString"* %8 to i8*
  call void @llvm.lifetime.start.p0i8(i64 8, i8* nonnull %57) #11
  %58 = getelementptr inbounds %"class.fxcrt::WideString", %"class.fxcrt::WideString"* %8, i64 0, i32 0, i32 0, i32 0, i32 0, i32 0
  store %"class.fxcrt::StringDataTemplate.315"* inttoptr (i64 -6148914691236517206 to %"class.fxcrt::StringDataTemplate.315"*), %"class.fxcrt::StringDataTemplate.315"** %58, align 8
  call void @_ZN5fxcrt10WideStringC1Ev(%"class.fxcrt::WideString"* nonnull %8) #11
  %59 = load %"class.v8::Local.0"*, %"class.v8::Local.0"** %41, align 8
  %60 = getelementptr inbounds %"class.v8::Local.0", %"class.v8::Local.0"* %59, i64 1, i32 0
  %61 = load %"class.v8::Value"*, %"class.v8::Value"** %60, align 8
  %62 = call zeroext i1 @_Z20IsExpandedParamKnownN2v85LocalINS_5ValueEEE(%"class.v8::Value"* %61) #11
  br i1 %62, label %63, label %70

63:                                               ; preds = %55
  %64 = bitcast %"class.fxcrt::WideString"* %9 to i8*
  call void @llvm.lifetime.start.p0i8(i64 8, i8* nonnull %64) #11
  %65 = getelementptr inbounds %class.CJS_Runtime, %class.CJS_Runtime* %2, i64 0, i32 1, i32 0
  %66 = load %"class.v8::Local.0"*, %"class.v8::Local.0"** %41, align 8
  %67 = getelementptr inbounds %"class.v8::Local.0", %"class.v8::Local.0"* %66, i64 1, i32 0
  %68 = load %"class.v8::Value"*, %"class.v8::Value"** %67, align 8
  call void @_ZN6CFX_V812ToWideStringEN2v85LocalINS0_5ValueEEE(%"class.fxcrt::WideString"* nonnull sret %9, %class.CFX_V8* %65, %"class.v8::Value"* %68) #11
  %69 = call dereferenceable(8) %"class.fxcrt::WideString"* @_ZN5fxcrt10WideStringaSEOS0_(%"class.fxcrt::WideString"* nonnull %8, %"class.fxcrt::WideString"* nonnull dereferenceable(8) %9) #11
  call void @_ZN5fxcrt10WideStringD1Ev(%"class.fxcrt::WideString"* nonnull %9) #11
  call void @llvm.lifetime.end.p0i8(i64 8, i8* nonnull %64) #11
  br label %70

70:                                               ; preds = %63, %55
  %71 = bitcast %"class.fxcrt::WideString"* %10 to i8*
  call void @llvm.lifetime.start.p0i8(i64 8, i8* nonnull %71) #11
  %72 = getelementptr inbounds %"class.fxcrt::WideString", %"class.fxcrt::WideString"* %10, i64 0, i32 0, i32 0, i32 0, i32 0, i32 0
  store %"class.fxcrt::StringDataTemplate.315"* inttoptr (i64 -6148914691236517206 to %"class.fxcrt::StringDataTemplate.315"*), %"class.fxcrt::StringDataTemplate.315"** %72, align 8
  call void @_ZN5fxcrt10WideStringC1Ev(%"class.fxcrt::WideString"* nonnull %10) #11
  %73 = load %"class.v8::Local.0"*, %"class.v8::Local.0"** %41, align 8
  %74 = getelementptr inbounds %"class.v8::Local.0", %"class.v8::Local.0"* %73, i64 2, i32 0
  %75 = load %"class.v8::Value"*, %"class.v8::Value"** %74, align 8
  %76 = call zeroext i1 @_Z20IsExpandedParamKnownN2v85LocalINS_5ValueEEE(%"class.v8::Value"* %75) #11
  br i1 %76, label %77, label %84

77:                                               ; preds = %70
  %78 = bitcast %"class.fxcrt::WideString"* %11 to i8*
  call void @llvm.lifetime.start.p0i8(i64 8, i8* nonnull %78) #11
  %79 = getelementptr inbounds %class.CJS_Runtime, %class.CJS_Runtime* %2, i64 0, i32 1, i32 0
  %80 = load %"class.v8::Local.0"*, %"class.v8::Local.0"** %41, align 8
  %81 = getelementptr inbounds %"class.v8::Local.0", %"class.v8::Local.0"* %80, i64 2, i32 0
  %82 = load %"class.v8::Value"*, %"class.v8::Value"** %81, align 8
  call void @_ZN6CFX_V812ToWideStringEN2v85LocalINS0_5ValueEEE(%"class.fxcrt::WideString"* nonnull sret %11, %class.CFX_V8* %79, %"class.v8::Value"* %82) #11
  %83 = call dereferenceable(8) %"class.fxcrt::WideString"* @_ZN5fxcrt10WideStringaSEOS0_(%"class.fxcrt::WideString"* nonnull %10, %"class.fxcrt::WideString"* nonnull dereferenceable(8) %11) #11
  call void @_ZN5fxcrt10WideStringD1Ev(%"class.fxcrt::WideString"* nonnull %11) #11
  call void @llvm.lifetime.end.p0i8(i64 8, i8* nonnull %78) #11
  br label %84

84:                                               ; preds = %77, %70
  %85 = bitcast %"class.fxcrt::WideString"* %12 to i8*
  call void @llvm.lifetime.start.p0i8(i64 8, i8* nonnull %85) #11
  %86 = getelementptr inbounds %"class.fxcrt::WideString", %"class.fxcrt::WideString"* %12, i64 0, i32 0, i32 0, i32 0, i32 0, i32 0
  store %"class.fxcrt::StringDataTemplate.315"* inttoptr (i64 -6148914691236517206 to %"class.fxcrt::StringDataTemplate.315"*), %"class.fxcrt::StringDataTemplate.315"** %86, align 8
  call void @_ZN5fxcrt10WideStringC1Ev(%"class.fxcrt::WideString"* nonnull %12) #11
  %87 = load %"class.v8::Local.0"*, %"class.v8::Local.0"** %41, align 8
  %88 = getelementptr inbounds %"class.v8::Local.0", %"class.v8::Local.0"* %87, i64 3, i32 0
  %89 = load %"class.v8::Value"*, %"class.v8::Value"** %88, align 8
  %90 = call zeroext i1 @_Z20IsExpandedParamKnownN2v85LocalINS_5ValueEEE(%"class.v8::Value"* %89) #11
  br i1 %90, label %91, label %98

91:                                               ; preds = %84
  %92 = bitcast %"class.fxcrt::WideString"* %13 to i8*
  call void @llvm.lifetime.start.p0i8(i64 8, i8* nonnull %92) #11
  %93 = getelementptr inbounds %class.CJS_Runtime, %class.CJS_Runtime* %2, i64 0, i32 1, i32 0
  %94 = load %"class.v8::Local.0"*, %"class.v8::Local.0"** %41, align 8
  %95 = getelementptr inbounds %"class.v8::Local.0", %"class.v8::Local.0"* %94, i64 3, i32 0
  %96 = load %"class.v8::Value"*, %"class.v8::Value"** %95, align 8
  call void @_ZN6CFX_V812ToWideStringEN2v85LocalINS0_5ValueEEE(%"class.fxcrt::WideString"* nonnull sret %13, %class.CFX_V8* %93, %"class.v8::Value"* %96) #11
  %97 = call dereferenceable(8) %"class.fxcrt::WideString"* @_ZN5fxcrt10WideStringaSEOS0_(%"class.fxcrt::WideString"* nonnull %12, %"class.fxcrt::WideString"* nonnull dereferenceable(8) %13) #11
  call void @_ZN5fxcrt10WideStringD1Ev(%"class.fxcrt::WideString"* nonnull %13) #11
  call void @llvm.lifetime.end.p0i8(i64 8, i8* nonnull %92) #11
  br label %98

98:                                               ; preds = %91, %84
  %99 = bitcast %"class.fxcrt::WideString"* %14 to i8*
  call void @llvm.lifetime.start.p0i8(i64 8, i8* nonnull %99) #11
  %100 = getelementptr inbounds %"class.fxcrt::WideString", %"class.fxcrt::WideString"* %14, i64 0, i32 0, i32 0, i32 0, i32 0, i32 0
  store %"class.fxcrt::StringDataTemplate.315"* inttoptr (i64 -6148914691236517206 to %"class.fxcrt::StringDataTemplate.315"*), %"class.fxcrt::StringDataTemplate.315"** %100, align 8
  call void @_ZN5fxcrt10WideStringC1Ev(%"class.fxcrt::WideString"* nonnull %14) #11
  %101 = load %"class.v8::Local.0"*, %"class.v8::Local.0"** %41, align 8
  %102 = getelementptr inbounds %"class.v8::Local.0", %"class.v8::Local.0"* %101, i64 4, i32 0
  %103 = load %"class.v8::Value"*, %"class.v8::Value"** %102, align 8
  %104 = call zeroext i1 @_Z20IsExpandedParamKnownN2v85LocalINS_5ValueEEE(%"class.v8::Value"* %103) #11
  br i1 %104, label %105, label %112

105:                                              ; preds = %98
  %106 = bitcast %"class.fxcrt::WideString"* %15 to i8*
  call void @llvm.lifetime.start.p0i8(i64 8, i8* nonnull %106) #11
  %107 = getelementptr inbounds %class.CJS_Runtime, %class.CJS_Runtime* %2, i64 0, i32 1, i32 0
  %108 = load %"class.v8::Local.0"*, %"class.v8::Local.0"** %41, align 8
  %109 = getelementptr inbounds %"class.v8::Local.0", %"class.v8::Local.0"* %108, i64 4, i32 0
  %110 = load %"class.v8::Value"*, %"class.v8::Value"** %109, align 8
  call void @_ZN6CFX_V812ToWideStringEN2v85LocalINS0_5ValueEEE(%"class.fxcrt::WideString"* nonnull sret %15, %class.CFX_V8* %107, %"class.v8::Value"* %110) #11
  %111 = call dereferenceable(8) %"class.fxcrt::WideString"* @_ZN5fxcrt10WideStringaSEOS0_(%"class.fxcrt::WideString"* nonnull %14, %"class.fxcrt::WideString"* nonnull dereferenceable(8) %15) #11
  call void @_ZN5fxcrt10WideStringD1Ev(%"class.fxcrt::WideString"* nonnull %15) #11
  call void @llvm.lifetime.end.p0i8(i64 8, i8* nonnull %106) #11
  br label %112

112:                                              ; preds = %105, %98
  %113 = bitcast %"class.fxcrt::WideString"* %16 to i8*
  call void @llvm.lifetime.start.p0i8(i64 8, i8* nonnull %113) #11
  %114 = getelementptr inbounds %"class.fxcrt::WideString", %"class.fxcrt::WideString"* %16, i64 0, i32 0, i32 0, i32 0, i32 0, i32 0
  store %"class.fxcrt::StringDataTemplate.315"* inttoptr (i64 -6148914691236517206 to %"class.fxcrt::StringDataTemplate.315"*), %"class.fxcrt::StringDataTemplate.315"** %114, align 8
  call void @_ZN5fxcrt10WideStringC1Ev(%"class.fxcrt::WideString"* nonnull %16) #11
  %115 = load %"class.v8::Local.0"*, %"class.v8::Local.0"** %41, align 8
  %116 = getelementptr inbounds %"class.v8::Local.0", %"class.v8::Local.0"* %115, i64 5, i32 0
  %117 = load %"class.v8::Value"*, %"class.v8::Value"** %116, align 8
  %118 = call zeroext i1 @_Z20IsExpandedParamKnownN2v85LocalINS_5ValueEEE(%"class.v8::Value"* %117) #11
  br i1 %118, label %119, label %126

119:                                              ; preds = %112
  %120 = bitcast %"class.fxcrt::WideString"* %17 to i8*
  call void @llvm.lifetime.start.p0i8(i64 8, i8* nonnull %120) #11
  %121 = getelementptr inbounds %class.CJS_Runtime, %class.CJS_Runtime* %2, i64 0, i32 1, i32 0
  %122 = load %"class.v8::Local.0"*, %"class.v8::Local.0"** %41, align 8
  %123 = getelementptr inbounds %"class.v8::Local.0", %"class.v8::Local.0"* %122, i64 5, i32 0
  %124 = load %"class.v8::Value"*, %"class.v8::Value"** %123, align 8
  call void @_ZN6CFX_V812ToWideStringEN2v85LocalINS0_5ValueEEE(%"class.fxcrt::WideString"* nonnull sret %17, %class.CFX_V8* %121, %"class.v8::Value"* %124) #11
  %125 = call dereferenceable(8) %"class.fxcrt::WideString"* @_ZN5fxcrt10WideStringaSEOS0_(%"class.fxcrt::WideString"* nonnull %16, %"class.fxcrt::WideString"* nonnull dereferenceable(8) %17) #11
  call void @_ZN5fxcrt10WideStringD1Ev(%"class.fxcrt::WideString"* nonnull %17) #11
  call void @llvm.lifetime.end.p0i8(i64 8, i8* nonnull %120) #11
  br label %126

126:                                              ; preds = %119, %112
  %127 = bitcast %"class.std::__1::vector.437"* %18 to i8*
  call void @llvm.lifetime.start.p0i8(i64 24, i8* nonnull %127) #11
  %128 = getelementptr inbounds %"class.std::__1::vector.437", %"class.std::__1::vector.437"* %18, i64 0, i32 0, i32 0
  %129 = getelementptr inbounds %"class.std::__1::vector.437", %"class.std::__1::vector.437"* %18, i64 0, i32 0, i32 1
  %130 = getelementptr inbounds %"class.std::__1::vector.437", %"class.std::__1::vector.437"* %18, i64 0, i32 0, i32 2, i32 0, i32 0
  %131 = bitcast %"class.std::__1::vector.437"* %18 to i8*
  call void @llvm.memset.p0i8.i64(i8* nonnull align 8 %131, i8 -86, i64 24, i1 false)
  %132 = load %"class.fxcrt::StringDataTemplate"*, %"class.fxcrt::StringDataTemplate"** %30, align 8
  %133 = icmp eq %"class.fxcrt::StringDataTemplate"* %132, null
  %134 = getelementptr inbounds %"class.fxcrt::StringDataTemplate", %"class.fxcrt::StringDataTemplate"* %132, i64 0, i32 3, i64 0
  %135 = select i1 %133, i8* null, i8* %134
  %136 = ptrtoint i8* %135 to i64
  br i1 %133, label %141, label %137

137:                                              ; preds = %126
  %138 = getelementptr inbounds %"class.fxcrt::StringDataTemplate", %"class.fxcrt::StringDataTemplate"* %132, i64 0, i32 1
  %139 = load i64, i64* %138, align 8
  %140 = getelementptr inbounds %"class.fxcrt::StringDataTemplate", %"class.fxcrt::StringDataTemplate"* %132, i64 0, i32 3, i64 %139
  br label %141

141:                                              ; preds = %126, %137
  %142 = phi i8* [ %140, %137 ], [ null, %126 ]
  call void @llvm.memset.p0i8.i64(i8* nonnull align 8 %127, i8 0, i64 24, i1 false) #11
  %143 = ptrtoint i8* %142 to i64
  %144 = sub i64 %143, %136
  %145 = icmp eq i64 %144, 0
  br i1 %145, label %146, label %148

146:                                              ; preds = %141
  %147 = bitcast i8** %129 to i64*
  br label %268

148:                                              ; preds = %141
  %149 = icmp slt i64 %144, 0
  br i1 %149, label %150, label %152

150:                                              ; preds = %148
  %151 = bitcast %"class.std::__1::vector.437"* %18 to %"class.std::__1::__vector_base_common"*
  call void @_ZNKSt3__120__vector_base_commonILb1EE20__throw_length_errorEv(%"class.std::__1::__vector_base_common"* nonnull %151) #13
  unreachable

152:                                              ; preds = %148
  %153 = call i8* @_ZN6pdfium8internal10AllocOrDieEmm(i64 %144, i64 1) #11
  store i8* %153, i8** %129, align 8
  store i8* %153, i8** %128, align 8
  %154 = getelementptr inbounds i8, i8* %153, i64 %144
  store i8* %154, i8** %130, align 8
  %155 = bitcast i8** %129 to i64*
  %156 = icmp eq i8* %135, %142
  br i1 %156, label %264, label %157

157:                                              ; preds = %152
  %158 = sub i64 0, %136
  %159 = getelementptr i8, i8* %142, i64 %158
  %160 = ptrtoint i8* %159 to i64
  %161 = icmp ult i8* %159, inttoptr (i64 32 to i8*)
  br i1 %161, label %251, label %162

162:                                              ; preds = %157
  %163 = sub i64 0, %136
  %164 = getelementptr i8, i8* %142, i64 %163
  %165 = ptrtoint i8* %164 to i64
  %166 = getelementptr i8, i8* %153, i64 %165
  %167 = icmp ult i8* %153, %142
  %168 = icmp ult i8* %135, %166
  %169 = and i1 %167, %168
  br i1 %169, label %251, label %170

170:                                              ; preds = %162
  %171 = and i64 %160, -32
  %172 = getelementptr i8, i8* %153, i64 %171
  %173 = getelementptr i8, i8* %135, i64 %171
  %174 = add i64 %171, -32
  %175 = lshr exact i64 %174, 5
  %176 = add nuw nsw i64 %175, 1
  %177 = and i64 %176, 3
  %178 = icmp ult i64 %174, 96
  br i1 %178, label %230, label %179

179:                                              ; preds = %170
  %180 = sub nsw i64 %176, %177
  br label %181

181:                                              ; preds = %181, %179
  %182 = phi i64 [ 0, %179 ], [ %227, %181 ]
  %183 = phi i64 [ %180, %179 ], [ %228, %181 ]
  %184 = getelementptr i8, i8* %153, i64 %182
  %185 = getelementptr i8, i8* %135, i64 %182
  %186 = bitcast i8* %185 to <16 x i8>*
  %187 = load <16 x i8>, <16 x i8>* %186, align 1, !alias.scope !6
  %188 = getelementptr i8, i8* %185, i64 16
  %189 = bitcast i8* %188 to <16 x i8>*
  %190 = load <16 x i8>, <16 x i8>* %189, align 1, !alias.scope !6
  %191 = bitcast i8* %184 to <16 x i8>*
  store <16 x i8> %187, <16 x i8>* %191, align 1, !alias.scope !9, !noalias !6
  %192 = getelementptr i8, i8* %184, i64 16
  %193 = bitcast i8* %192 to <16 x i8>*
  store <16 x i8> %190, <16 x i8>* %193, align 1, !alias.scope !9, !noalias !6
  %194 = or i64 %182, 32
  %195 = getelementptr i8, i8* %153, i64 %194
  %196 = getelementptr i8, i8* %135, i64 %194
  %197 = bitcast i8* %196 to <16 x i8>*
  %198 = load <16 x i8>, <16 x i8>* %197, align 1, !alias.scope !6
  %199 = getelementptr i8, i8* %196, i64 16
  %200 = bitcast i8* %199 to <16 x i8>*
  %201 = load <16 x i8>, <16 x i8>* %200, align 1, !alias.scope !6
  %202 = bitcast i8* %195 to <16 x i8>*
  store <16 x i8> %198, <16 x i8>* %202, align 1, !alias.scope !9, !noalias !6
  %203 = getelementptr i8, i8* %195, i64 16
  %204 = bitcast i8* %203 to <16 x i8>*
  store <16 x i8> %201, <16 x i8>* %204, align 1, !alias.scope !9, !noalias !6
  %205 = or i64 %182, 64
  %206 = getelementptr i8, i8* %153, i64 %205
  %207 = getelementptr i8, i8* %135, i64 %205
  %208 = bitcast i8* %207 to <16 x i8>*
  %209 = load <16 x i8>, <16 x i8>* %208, align 1, !alias.scope !6
  %210 = getelementptr i8, i8* %207, i64 16
  %211 = bitcast i8* %210 to <16 x i8>*
  %212 = load <16 x i8>, <16 x i8>* %211, align 1, !alias.scope !6
  %213 = bitcast i8* %206 to <16 x i8>*
  store <16 x i8> %209, <16 x i8>* %213, align 1, !alias.scope !9, !noalias !6
  %214 = getelementptr i8, i8* %206, i64 16
  %215 = bitcast i8* %214 to <16 x i8>*
  store <16 x i8> %212, <16 x i8>* %215, align 1, !alias.scope !9, !noalias !6
  %216 = or i64 %182, 96
  %217 = getelementptr i8, i8* %153, i64 %216
  %218 = getelementptr i8, i8* %135, i64 %216
  %219 = bitcast i8* %218 to <16 x i8>*
  %220 = load <16 x i8>, <16 x i8>* %219, align 1, !alias.scope !6
  %221 = getelementptr i8, i8* %218, i64 16
  %222 = bitcast i8* %221 to <16 x i8>*
  %223 = load <16 x i8>, <16 x i8>* %222, align 1, !alias.scope !6
  %224 = bitcast i8* %217 to <16 x i8>*
  store <16 x i8> %220, <16 x i8>* %224, align 1, !alias.scope !9, !noalias !6
  %225 = getelementptr i8, i8* %217, i64 16
  %226 = bitcast i8* %225 to <16 x i8>*
  store <16 x i8> %223, <16 x i8>* %226, align 1, !alias.scope !9, !noalias !6
  %227 = add i64 %182, 128
  %228 = add i64 %183, -4
  %229 = icmp eq i64 %228, 0
  br i1 %229, label %230, label %181, !llvm.loop !11

230:                                              ; preds = %181, %170
  %231 = phi i64 [ 0, %170 ], [ %227, %181 ]
  %232 = icmp eq i64 %177, 0
  br i1 %232, label %249, label %233

233:                                              ; preds = %230, %233
  %234 = phi i64 [ %246, %233 ], [ %231, %230 ]
  %235 = phi i64 [ %247, %233 ], [ %177, %230 ]
  %236 = getelementptr i8, i8* %153, i64 %234
  %237 = getelementptr i8, i8* %135, i64 %234
  %238 = bitcast i8* %237 to <16 x i8>*
  %239 = load <16 x i8>, <16 x i8>* %238, align 1, !alias.scope !6
  %240 = getelementptr i8, i8* %237, i64 16
  %241 = bitcast i8* %240 to <16 x i8>*
  %242 = load <16 x i8>, <16 x i8>* %241, align 1, !alias.scope !6
  %243 = bitcast i8* %236 to <16 x i8>*
  store <16 x i8> %239, <16 x i8>* %243, align 1, !alias.scope !9, !noalias !6
  %244 = getelementptr i8, i8* %236, i64 16
  %245 = bitcast i8* %244 to <16 x i8>*
  store <16 x i8> %242, <16 x i8>* %245, align 1, !alias.scope !9, !noalias !6
  %246 = add i64 %234, 32
  %247 = add i64 %235, -1
  %248 = icmp eq i64 %247, 0
  br i1 %248, label %249, label %233, !llvm.loop !13

249:                                              ; preds = %233, %230
  %250 = icmp eq i64 %171, %160
  br i1 %250, label %261, label %251

251:                                              ; preds = %249, %162, %157
  %252 = phi i8* [ %153, %162 ], [ %153, %157 ], [ %172, %249 ]
  %253 = phi i8* [ %135, %162 ], [ %135, %157 ], [ %173, %249 ]
  br label %254

254:                                              ; preds = %251, %254
  %255 = phi i8* [ %259, %254 ], [ %252, %251 ]
  %256 = phi i8* [ %258, %254 ], [ %253, %251 ]
  %257 = load i8, i8* %256, align 1
  store i8 %257, i8* %255, align 1
  %258 = getelementptr inbounds i8, i8* %256, i64 1
  %259 = getelementptr inbounds i8, i8* %255, i64 1
  %260 = icmp eq i8* %258, %142
  br i1 %260, label %261, label %254, !llvm.loop !15

261:                                              ; preds = %254, %249
  %262 = phi i8* [ %172, %249 ], [ %259, %254 ]
  %263 = load i8*, i8** %128, align 8
  br label %264

264:                                              ; preds = %261, %152
  %265 = phi i8* [ %153, %152 ], [ %263, %261 ]
  %266 = phi i8* [ %153, %152 ], [ %262, %261 ]
  %267 = ptrtoint i8* %266 to i64
  store i64 %267, i64* %155, align 8
  br label %268

268:                                              ; preds = %146, %264
  %269 = phi i64* [ %147, %146 ], [ %155, %264 ]
  %270 = phi i64 [ 0, %146 ], [ %267, %264 ]
  %271 = phi i8* [ null, %146 ], [ %265, %264 ]
  %272 = getelementptr inbounds %class.CJS_Runtime, %class.CJS_Runtime* %2, i64 0, i32 5
  store i8 1, i8* %272, align 8
  %273 = load %class.CPDFSDK_FormFillEnvironment*, %class.CPDFSDK_FormFillEnvironment** %19, align 8
  %274 = ptrtoint i8* %271 to i64
  %275 = sub i64 %270, %274
  %276 = trunc i64 %275 to i32
  call void @_ZN27CPDFSDK_FormFillEnvironment14JS_docmailFormEPviiRKN5fxcrt10WideStringES4_S4_S4_S4_(%class.CPDFSDK_FormFillEnvironment* %273, i8* %271, i32 %276, i32 %56, %"class.fxcrt::WideString"* nonnull dereferenceable(8) %8, %"class.fxcrt::WideString"* nonnull dereferenceable(8) %14, %"class.fxcrt::WideString"* nonnull dereferenceable(8) %10, %"class.fxcrt::WideString"* nonnull dereferenceable(8) %12, %"class.fxcrt::WideString"* nonnull dereferenceable(8) %16) #11
  store i8 0, i8* %272, align 8
  call void @_ZN10CJS_ResultC1Ev(%class.CJS_Result* %0) #11
  %277 = load i8*, i8** %128, align 8
  %278 = icmp eq i8* %277, null
  br i1 %278, label %281, label %279

279:                                              ; preds = %268
  %280 = ptrtoint i8* %277 to i64
  store i64 %280, i64* %269, align 8
  call void @_Z7FX_FreePv(i8* nonnull %277) #11
  br label %281

281:                                              ; preds = %268, %279
  call void @llvm.lifetime.end.p0i8(i64 24, i8* nonnull %127) #11
  call void @_ZN5fxcrt10WideStringD1Ev(%"class.fxcrt::WideString"* nonnull %16) #11
  call void @llvm.lifetime.end.p0i8(i64 8, i8* nonnull %113) #11
  call void @_ZN5fxcrt10WideStringD1Ev(%"class.fxcrt::WideString"* nonnull %14) #11
  call void @llvm.lifetime.end.p0i8(i64 8, i8* nonnull %99) #11
  call void @_ZN5fxcrt10WideStringD1Ev(%"class.fxcrt::WideString"* nonnull %12) #11
  call void @llvm.lifetime.end.p0i8(i64 8, i8* nonnull %85) #11
  call void @_ZN5fxcrt10WideStringD1Ev(%"class.fxcrt::WideString"* nonnull %10) #11
  call void @llvm.lifetime.end.p0i8(i64 8, i8* nonnull %71) #11
  call void @_ZN5fxcrt10WideStringD1Ev(%"class.fxcrt::WideString"* nonnull %8) #11
  call void @llvm.lifetime.end.p0i8(i64 8, i8* nonnull %57) #11
  %282 = load %"class.v8::Local.0"*, %"class.v8::Local.0"** %41, align 8
  %283 = icmp eq %"class.v8::Local.0"* %282, null
  br i1 %283, label %288, label %284

284:                                              ; preds = %281
  %285 = ptrtoint %"class.v8::Local.0"* %282 to i64
  %286 = bitcast %"class.v8::Local.0"** %42 to i64*
  store i64 %285, i64* %286, align 8
  %287 = bitcast %"class.v8::Local.0"* %282 to i8*
  call void @_ZdlPv(i8* %287) #12
  br label %288

288:                                              ; preds = %281, %284
  call void @llvm.lifetime.end.p0i8(i64 24, i8* nonnull %40) #11
  br label %289

289:                                              ; preds = %288, %37
  call void @_ZN5fxcrt10ByteStringD1Ev(%"class.fxcrt::ByteString"* nonnull %5) #11
  call void @llvm.lifetime.end.p0i8(i64 8, i8* nonnull %29) #11
  br label %290

290:                                              ; preds = %289, %25, %22
  ret void
}

declare zeroext i1 @_ZNK27CPDFSDK_FormFillEnvironment14HasPermissionsEj(%class.CPDFSDK_FormFillEnvironment*, i32) local_unnamed_addr #2

; Function Attrs: nounwind ssp uwtable
define hidden %class.CPDFSDK_InteractiveForm* @_ZN12CJS_Document21GetSDKInteractiveFormEv(%class.CJS_Document* nocapture readonly) local_unnamed_addr #0 align 2 {
  %2 = getelementptr inbounds %class.CJS_Document, %class.CJS_Document* %0, i64 0, i32 3, i32 1
  %3 = load %class.CPDFSDK_FormFillEnvironment*, %class.CPDFSDK_FormFillEnvironment** %2, align 8
  %4 = tail call %class.CPDFSDK_InteractiveForm* @_ZN27CPDFSDK_FormFillEnvironment18GetInteractiveFormEv(%class.CPDFSDK_FormFillEnvironment* %3) #11
  ret %class.CPDFSDK_InteractiveForm* %4
}

declare void @_ZN23CPDFSDK_InteractiveForm22ExportFormToFDFTextBufEv(%"class.fxcrt::ByteString"* sret, %class.CPDFSDK_InteractiveForm*) local_unnamed_addr #2

declare void @_ZN5fxcrt10WideStringC1EPKw(%"class.fxcrt::WideString"*, i32*) unnamed_addr #2

; Function Attrs: nounwind
declare void @_ZN5fxcrt10ByteStringD1Ev(%"class.fxcrt::ByteString"*) unnamed_addr #4

; Function Attrs: nounwind ssp uwtable
define hidden void @_ZN12CJS_Document5printEP11CJS_RuntimeRKNSt3__16vectorIN2v85LocalINS4_5ValueEEENS2_9allocatorIS7_EEEE(%class.CJS_Result* noalias sret, %class.CJS_Document* nocapture readonly, %class.CJS_Runtime*, %"class.std::__1::vector.420"* dereferenceable(24)) local_unnamed_addr #0 align 2 {
  %5 = alloca %"class.std::__1::vector.420", align 8
  %6 = bitcast %"class.std::__1::vector.420"* %5 to i8*
  call void @llvm.lifetime.start.p0i8(i64 24, i8* nonnull %6) #11
  %7 = getelementptr inbounds %"class.std::__1::vector.420", %"class.std::__1::vector.420"* %5, i64 0, i32 0, i32 0
  %8 = getelementptr inbounds %"class.std::__1::vector.420", %"class.std::__1::vector.420"* %5, i64 0, i32 0, i32 1
  %9 = bitcast %"class.std::__1::vector.420"* %5 to i8*
  call void @llvm.memset.p0i8.i64(i8* nonnull align 8 %9, i8 -86, i64 24, i1 false)
  call void (%"class.std::__1::vector.420"*, %class.CJS_Runtime*, %"class.std::__1::vector.420"*, i64, ...) @_Z19ExpandKeywordParamsP11CJS_RuntimeRKNSt3__16vectorIN2v85LocalINS3_5ValueEEENS1_9allocatorIS6_EEEEmz(%"class.std::__1::vector.420"* nonnull sret %5, %class.CJS_Runtime* %2, %"class.std::__1::vector.420"* dereferenceable(24) %3, i64 8, i8* getelementptr inbounds ([4 x i8], [4 x i8]* @.str.74, i64 0, i64 0), i8* getelementptr inbounds ([7 x i8], [7 x i8]* @.str.81, i64 0, i64 0), i8* getelementptr inbounds ([5 x i8], [5 x i8]* @.str.82, i64 0, i64 0), i8* getelementptr inbounds ([8 x i8], [8 x i8]* @.str.83, i64 0, i64 0), i8* getelementptr inbounds ([13 x i8], [13 x i8]* @.str.84, i64 0, i64 0), i8* getelementptr inbounds ([14 x i8], [14 x i8]* @.str.85, i64 0, i64 0), i8* getelementptr inbounds ([9 x i8], [9 x i8]* @.str.86, i64 0, i64 0), i8* getelementptr inbounds ([13 x i8], [13 x i8]* @.str.87, i64 0, i64 0)) #11
  %10 = load %"class.v8::Local.0"*, %"class.v8::Local.0"** %7, align 8
  %11 = getelementptr inbounds %"class.v8::Local.0", %"class.v8::Local.0"* %10, i64 0, i32 0
  %12 = load %"class.v8::Value"*, %"class.v8::Value"** %11, align 8
  %13 = call zeroext i1 @_Z20IsExpandedParamKnownN2v85LocalINS_5ValueEEE(%"class.v8::Value"* %12) #11
  br i1 %13, label %14, label %21

14:                                               ; preds = %4
  %15 = getelementptr inbounds %class.CJS_Runtime, %class.CJS_Runtime* %2, i64 0, i32 1, i32 0
  %16 = load %"class.v8::Local.0"*, %"class.v8::Local.0"** %7, align 8
  %17 = getelementptr inbounds %"class.v8::Local.0", %"class.v8::Local.0"* %16, i64 0, i32 0
  %18 = load %"class.v8::Value"*, %"class.v8::Value"** %17, align 8
  %19 = call zeroext i1 @_ZN6CFX_V89ToBooleanEN2v85LocalINS0_5ValueEEE(%class.CFX_V8* %15, %"class.v8::Value"* %18) #11
  %20 = zext i1 %19 to i32
  br label %21

21:                                               ; preds = %14, %4
  %22 = phi i32 [ %20, %14 ], [ 1, %4 ]
  %23 = load %"class.v8::Local.0"*, %"class.v8::Local.0"** %7, align 8
  %24 = getelementptr inbounds %"class.v8::Local.0", %"class.v8::Local.0"* %23, i64 1, i32 0
  %25 = load %"class.v8::Value"*, %"class.v8::Value"** %24, align 8
  %26 = call zeroext i1 @_Z20IsExpandedParamKnownN2v85LocalINS_5ValueEEE(%"class.v8::Value"* %25) #11
  br i1 %26, label %27, label %33

27:                                               ; preds = %21
  %28 = getelementptr inbounds %class.CJS_Runtime, %class.CJS_Runtime* %2, i64 0, i32 1, i32 0
  %29 = load %"class.v8::Local.0"*, %"class.v8::Local.0"** %7, align 8
  %30 = getelementptr inbounds %"class.v8::Local.0", %"class.v8::Local.0"* %29, i64 1, i32 0
  %31 = load %"class.v8::Value"*, %"class.v8::Value"** %30, align 8
  %32 = call i32 @_ZN6CFX_V87ToInt32EN2v85LocalINS0_5ValueEEE(%class.CFX_V8* %28, %"class.v8::Value"* %31) #11
  br label %33

33:                                               ; preds = %27, %21
  %34 = phi i32 [ %32, %27 ], [ 0, %21 ]
  %35 = load %"class.v8::Local.0"*, %"class.v8::Local.0"** %7, align 8
  %36 = getelementptr inbounds %"class.v8::Local.0", %"class.v8::Local.0"* %35, i64 2, i32 0
  %37 = load %"class.v8::Value"*, %"class.v8::Value"** %36, align 8
  %38 = call zeroext i1 @_Z20IsExpandedParamKnownN2v85LocalINS_5ValueEEE(%"class.v8::Value"* %37) #11
  br i1 %38, label %39, label %45

39:                                               ; preds = %33
  %40 = getelementptr inbounds %class.CJS_Runtime, %class.CJS_Runtime* %2, i64 0, i32 1, i32 0
  %41 = load %"class.v8::Local.0"*, %"class.v8::Local.0"** %7, align 8
  %42 = getelementptr inbounds %"class.v8::Local.0", %"class.v8::Local.0"* %41, i64 2, i32 0
  %43 = load %"class.v8::Value"*, %"class.v8::Value"** %42, align 8
  %44 = call i32 @_ZN6CFX_V87ToInt32EN2v85LocalINS0_5ValueEEE(%class.CFX_V8* %40, %"class.v8::Value"* %43) #11
  br label %45

45:                                               ; preds = %39, %33
  %46 = phi i32 [ %44, %39 ], [ 0, %33 ]
  %47 = load %"class.v8::Local.0"*, %"class.v8::Local.0"** %7, align 8
  %48 = getelementptr inbounds %"class.v8::Local.0", %"class.v8::Local.0"* %47, i64 3, i32 0
  %49 = load %"class.v8::Value"*, %"class.v8::Value"** %48, align 8
  %50 = call zeroext i1 @_Z20IsExpandedParamKnownN2v85LocalINS_5ValueEEE(%"class.v8::Value"* %49) #11
  br i1 %50, label %51, label %58

51:                                               ; preds = %45
  %52 = getelementptr inbounds %class.CJS_Runtime, %class.CJS_Runtime* %2, i64 0, i32 1, i32 0
  %53 = load %"class.v8::Local.0"*, %"class.v8::Local.0"** %7, align 8
  %54 = getelementptr inbounds %"class.v8::Local.0", %"class.v8::Local.0"* %53, i64 3, i32 0
  %55 = load %"class.v8::Value"*, %"class.v8::Value"** %54, align 8
  %56 = call zeroext i1 @_ZN6CFX_V89ToBooleanEN2v85LocalINS0_5ValueEEE(%class.CFX_V8* %52, %"class.v8::Value"* %55) #11
  %57 = zext i1 %56 to i32
  br label %58

58:                                               ; preds = %51, %45
  %59 = phi i32 [ %57, %51 ], [ 0, %45 ]
  %60 = load %"class.v8::Local.0"*, %"class.v8::Local.0"** %7, align 8
  %61 = getelementptr inbounds %"class.v8::Local.0", %"class.v8::Local.0"* %60, i64 4, i32 0
  %62 = load %"class.v8::Value"*, %"class.v8::Value"** %61, align 8
  %63 = call zeroext i1 @_Z20IsExpandedParamKnownN2v85LocalINS_5ValueEEE(%"class.v8::Value"* %62) #11
  br i1 %63, label %64, label %71

64:                                               ; preds = %58
  %65 = getelementptr inbounds %class.CJS_Runtime, %class.CJS_Runtime* %2, i64 0, i32 1, i32 0
  %66 = load %"class.v8::Local.0"*, %"class.v8::Local.0"** %7, align 8
  %67 = getelementptr inbounds %"class.v8::Local.0", %"class.v8::Local.0"* %66, i64 4, i32 0
  %68 = load %"class.v8::Value"*, %"class.v8::Value"** %67, align 8
  %69 = call zeroext i1 @_ZN6CFX_V89ToBooleanEN2v85LocalINS0_5ValueEEE(%class.CFX_V8* %65, %"class.v8::Value"* %68) #11
  %70 = zext i1 %69 to i32
  br label %71

71:                                               ; preds = %64, %58
  %72 = phi i32 [ %70, %64 ], [ 0, %58 ]
  %73 = load %"class.v8::Local.0"*, %"class.v8::Local.0"** %7, align 8
  %74 = getelementptr inbounds %"class.v8::Local.0", %"class.v8::Local.0"* %73, i64 5, i32 0
  %75 = load %"class.v8::Value"*, %"class.v8::Value"** %74, align 8
  %76 = call zeroext i1 @_Z20IsExpandedParamKnownN2v85LocalINS_5ValueEEE(%"class.v8::Value"* %75) #11
  br i1 %76, label %77, label %84

77:                                               ; preds = %71
  %78 = getelementptr inbounds %class.CJS_Runtime, %class.CJS_Runtime* %2, i64 0, i32 1, i32 0
  %79 = load %"class.v8::Local.0"*, %"class.v8::Local.0"** %7, align 8
  %80 = getelementptr inbounds %"class.v8::Local.0", %"class.v8::Local.0"* %79, i64 5, i32 0
  %81 = load %"class.v8::Value"*, %"class.v8::Value"** %80, align 8
  %82 = call zeroext i1 @_ZN6CFX_V89ToBooleanEN2v85LocalINS0_5ValueEEE(%class.CFX_V8* %78, %"class.v8::Value"* %81) #11
  %83 = zext i1 %82 to i32
  br label %84

84:                                               ; preds = %77, %71
  %85 = phi i32 [ %83, %77 ], [ 0, %71 ]
  %86 = load %"class.v8::Local.0"*, %"class.v8::Local.0"** %7, align 8
  %87 = getelementptr inbounds %"class.v8::Local.0", %"class.v8::Local.0"* %86, i64 6, i32 0
  %88 = load %"class.v8::Value"*, %"class.v8::Value"** %87, align 8
  %89 = call zeroext i1 @_Z20IsExpandedParamKnownN2v85LocalINS_5ValueEEE(%"class.v8::Value"* %88) #11
  br i1 %89, label %90, label %97

90:                                               ; preds = %84
  %91 = getelementptr inbounds %class.CJS_Runtime, %class.CJS_Runtime* %2, i64 0, i32 1, i32 0
  %92 = load %"class.v8::Local.0"*, %"class.v8::Local.0"** %7, align 8
  %93 = getelementptr inbounds %"class.v8::Local.0", %"class.v8::Local.0"* %92, i64 6, i32 0
  %94 = load %"class.v8::Value"*, %"class.v8::Value"** %93, align 8
  %95 = call zeroext i1 @_ZN6CFX_V89ToBooleanEN2v85LocalINS0_5ValueEEE(%class.CFX_V8* %91, %"class.v8::Value"* %94) #11
  %96 = zext i1 %95 to i32
  br label %97

97:                                               ; preds = %90, %84
  %98 = phi i32 [ %96, %90 ], [ 0, %84 ]
  %99 = load %"class.v8::Local.0"*, %"class.v8::Local.0"** %7, align 8
  %100 = getelementptr inbounds %"class.v8::Local.0", %"class.v8::Local.0"* %99, i64 7, i32 0
  %101 = load %"class.v8::Value"*, %"class.v8::Value"** %100, align 8
  %102 = call zeroext i1 @_Z20IsExpandedParamKnownN2v85LocalINS_5ValueEEE(%"class.v8::Value"* %101) #11
  br i1 %102, label %103, label %110

103:                                              ; preds = %97
  %104 = getelementptr inbounds %class.CJS_Runtime, %class.CJS_Runtime* %2, i64 0, i32 1, i32 0
  %105 = load %"class.v8::Local.0"*, %"class.v8::Local.0"** %7, align 8
  %106 = getelementptr inbounds %"class.v8::Local.0", %"class.v8::Local.0"* %105, i64 7, i32 0
  %107 = load %"class.v8::Value"*, %"class.v8::Value"** %106, align 8
  %108 = call zeroext i1 @_ZN6CFX_V89ToBooleanEN2v85LocalINS0_5ValueEEE(%class.CFX_V8* %104, %"class.v8::Value"* %107) #11
  %109 = zext i1 %108 to i32
  br label %110

110:                                              ; preds = %103, %97
  %111 = phi i32 [ %109, %103 ], [ 0, %97 ]
  %112 = getelementptr inbounds %class.CJS_Document, %class.CJS_Document* %1, i64 0, i32 3, i32 1
  %113 = load %class.CPDFSDK_FormFillEnvironment*, %class.CPDFSDK_FormFillEnvironment** %112, align 8
  %114 = icmp eq %class.CPDFSDK_FormFillEnvironment* %113, null
  br i1 %114, label %115, label %116

115:                                              ; preds = %110
  call void @_ZN10CJS_ResultC1E9JSMessage(%class.CJS_Result* %0, i32 19) #11
  br label %124

116:                                              ; preds = %110
  %117 = call %class.CJS_EventContext* @_ZNK11CJS_Runtime22GetCurrentEventContextEv(%class.CJS_Runtime* %2) #11
  %118 = getelementptr inbounds %class.CJS_EventContext, %class.CJS_EventContext* %117, i64 0, i32 2, i32 0, i32 0, i32 0
  %119 = load %class.CJS_EventRecorder*, %class.CJS_EventRecorder** %118, align 8
  %120 = call zeroext i1 @_ZNK17CJS_EventRecorder13IsUserGestureEv(%class.CJS_EventRecorder* %119) #11
  br i1 %120, label %122, label %121

121:                                              ; preds = %116
  call void @_ZN10CJS_ResultC1E9JSMessage(%class.CJS_Result* %0, i32 23) #11
  br label %124

122:                                              ; preds = %116
  %123 = load %class.CPDFSDK_FormFillEnvironment*, %class.CPDFSDK_FormFillEnvironment** %112, align 8
  call void @_ZN27CPDFSDK_FormFillEnvironment11JS_docprintEiiiiiiii(%class.CPDFSDK_FormFillEnvironment* %123, i32 %22, i32 %34, i32 %46, i32 %59, i32 %72, i32 %85, i32 %98, i32 %111) #11
  call void @_ZN10CJS_ResultC1Ev(%class.CJS_Result* %0) #11
  br label %124

124:                                              ; preds = %121, %122, %115
  %125 = load %"class.v8::Local.0"*, %"class.v8::Local.0"** %7, align 8
  %126 = icmp eq %"class.v8::Local.0"* %125, null
  br i1 %126, label %131, label %127

127:                                              ; preds = %124
  %128 = ptrtoint %"class.v8::Local.0"* %125 to i64
  %129 = bitcast %"class.v8::Local.0"** %8 to i64*
  store i64 %128, i64* %129, align 8
  %130 = bitcast %"class.v8::Local.0"* %125 to i8*
  call void @_ZdlPv(i8* %130) #12
  br label %131

131:                                              ; preds = %124, %127
  call void @llvm.lifetime.end.p0i8(i64 24, i8* nonnull %6) #11
  ret void
}

declare %class.CJS_EventContext* @_ZNK11CJS_Runtime22GetCurrentEventContextEv(%class.CJS_Runtime*) local_unnamed_addr #2

declare zeroext i1 @_ZNK17CJS_EventRecorder13IsUserGestureEv(%class.CJS_EventRecorder*) local_unnamed_addr #2

declare void @_ZN27CPDFSDK_FormFillEnvironment11JS_docprintEiiiiiiii(%class.CPDFSDK_FormFillEnvironment*, i32, i32, i32, i32, i32, i32, i32, i32) local_unnamed_addr #2

; Function Attrs: nounwind ssp uwtable
define hidden void @_ZN12CJS_Document11removeFieldEP11CJS_RuntimeRKNSt3__16vectorIN2v85LocalINS4_5ValueEEENS2_9allocatorIS7_EEEE(%class.CJS_Result* noalias sret, %class.CJS_Document* nocapture readonly, %class.CJS_Runtime*, %"class.std::__1::vector.420"* nocapture readonly dereferenceable(24)) local_unnamed_addr #0 align 2 {
  %5 = alloca %"class.fxcrt::WideString", align 8
  %6 = alloca %"class.std::__1::vector.453", align 8
  %7 = alloca { <2 x float>, <2 x float> }, align 8
  %8 = bitcast { <2 x float>, <2 x float> }* %7 to %class.CFX_FloatRect*
  %9 = alloca %"class.std::__1::vector.370", align 8
  %10 = getelementptr inbounds %"class.std::__1::vector.420", %"class.std::__1::vector.420"* %3, i64 0, i32 0, i32 1
  %11 = bitcast %"class.v8::Local.0"** %10 to i64*
  %12 = load i64, i64* %11, align 8
  %13 = bitcast %"class.std::__1::vector.420"* %3 to i64*
  %14 = load i64, i64* %13, align 8
  %15 = sub i64 %12, %14
  %16 = icmp eq i64 %15, 8
  br i1 %16, label %18, label %17

17:                                               ; preds = %4
  tail call void @_ZN10CJS_ResultC1E9JSMessage(%class.CJS_Result* %0, i32 2) #11
  br label %116

18:                                               ; preds = %4
  %19 = getelementptr inbounds %class.CJS_Document, %class.CJS_Document* %1, i64 0, i32 3, i32 1
  %20 = load %class.CPDFSDK_FormFillEnvironment*, %class.CPDFSDK_FormFillEnvironment** %19, align 8
  %21 = icmp eq %class.CPDFSDK_FormFillEnvironment* %20, null
  br i1 %21, label %22, label %23

22:                                               ; preds = %18
  tail call void @_ZN10CJS_ResultC1E9JSMessage(%class.CJS_Result* %0, i32 19) #11
  br label %116

23:                                               ; preds = %18
  %24 = tail call zeroext i1 @_ZNK27CPDFSDK_FormFillEnvironment14HasPermissionsEj(%class.CPDFSDK_FormFillEnvironment* nonnull %20, i32 40) #11
  br i1 %24, label %26, label %25

25:                                               ; preds = %23
  tail call void @_ZN10CJS_ResultC1E9JSMessage(%class.CJS_Result* %0, i32 18) #11
  br label %116

26:                                               ; preds = %23
  %27 = bitcast %"class.fxcrt::WideString"* %5 to i8*
  call void @llvm.lifetime.start.p0i8(i64 8, i8* nonnull %27) #11
  %28 = getelementptr inbounds %"class.fxcrt::WideString", %"class.fxcrt::WideString"* %5, i64 0, i32 0, i32 0, i32 0, i32 0, i32 0
  store %"class.fxcrt::StringDataTemplate.315"* inttoptr (i64 -6148914691236517206 to %"class.fxcrt::StringDataTemplate.315"*), %"class.fxcrt::StringDataTemplate.315"** %28, align 8
  %29 = getelementptr inbounds %class.CJS_Runtime, %class.CJS_Runtime* %2, i64 0, i32 1, i32 0
  %30 = getelementptr inbounds %"class.std::__1::vector.420", %"class.std::__1::vector.420"* %3, i64 0, i32 0, i32 0
  %31 = load %"class.v8::Local.0"*, %"class.v8::Local.0"** %30, align 8
  %32 = getelementptr inbounds %"class.v8::Local.0", %"class.v8::Local.0"* %31, i64 0, i32 0
  %33 = load %"class.v8::Value"*, %"class.v8::Value"** %32, align 8
  call void @_ZN6CFX_V812ToWideStringEN2v85LocalINS0_5ValueEEE(%"class.fxcrt::WideString"* nonnull sret %5, %class.CFX_V8* %29, %"class.v8::Value"* %33) #11
  %34 = load %class.CPDFSDK_FormFillEnvironment*, %class.CPDFSDK_FormFillEnvironment** %19, align 8
  %35 = call %class.CPDFSDK_InteractiveForm* @_ZN27CPDFSDK_FormFillEnvironment18GetInteractiveFormEv(%class.CPDFSDK_FormFillEnvironment* %34) #11
  %36 = bitcast %"class.std::__1::vector.453"* %6 to i8*
  call void @llvm.lifetime.start.p0i8(i64 24, i8* nonnull %36) #11
  %37 = getelementptr inbounds %"class.std::__1::vector.453", %"class.std::__1::vector.453"* %6, i64 0, i32 0, i32 0
  %38 = getelementptr inbounds %"class.std::__1::vector.453", %"class.std::__1::vector.453"* %6, i64 0, i32 0, i32 1
  call void @llvm.memset.p0i8.i64(i8* nonnull align 8 %36, i8 0, i64 24, i1 false) #11
  call void @_ZNK23CPDFSDK_InteractiveForm10GetWidgetsERKN5fxcrt10WideStringEPNSt3__16vectorINS0_11ObservedPtrI13CPDFSDK_AnnotEENS4_9allocatorIS8_EEEE(%class.CPDFSDK_InteractiveForm* %35, %"class.fxcrt::WideString"* nonnull dereferenceable(8) %5, %"class.std::__1::vector.453"* nonnull %6) #11
  %39 = load %"class.fxcrt::ObservedPtr.262"*, %"class.fxcrt::ObservedPtr.262"** %37, align 8
  %40 = load %"class.fxcrt::ObservedPtr.262"*, %"class.fxcrt::ObservedPtr.262"** %38, align 8
  %41 = icmp eq %"class.fxcrt::ObservedPtr.262"* %39, %40
  br i1 %41, label %91, label %42

42:                                               ; preds = %26
  %43 = bitcast { <2 x float>, <2 x float> }* %7 to i8*
  %44 = getelementptr inbounds { <2 x float>, <2 x float> }, { <2 x float>, <2 x float> }* %7, i64 0, i32 0
  %45 = getelementptr inbounds { <2 x float>, <2 x float> }, { <2 x float>, <2 x float> }* %7, i64 0, i32 1
  %46 = bitcast %"class.std::__1::vector.370"* %9 to i8*
  %47 = getelementptr inbounds %"class.std::__1::vector.370", %"class.std::__1::vector.370"* %9, i64 0, i32 0, i32 0
  %48 = getelementptr inbounds %"class.std::__1::vector.370", %"class.std::__1::vector.370"* %9, i64 0, i32 0, i32 1
  %49 = getelementptr inbounds %"class.std::__1::vector.370", %"class.std::__1::vector.370"* %9, i64 0, i32 0, i32 2, i32 0, i32 0
  %50 = bitcast %"class.std::__1::vector.370"* %9 to i8**
  %51 = bitcast %class.CFX_FloatRect** %49 to i8**
  %52 = bitcast %class.CFX_FloatRect** %48 to i64*
  %53 = bitcast { <2 x float>, <2 x float> }* %7 to i8*
  br label %57

54:                                               ; preds = %88
  %55 = load %class.CPDFSDK_FormFillEnvironment*, %class.CPDFSDK_FormFillEnvironment** %19, align 8
  %56 = getelementptr inbounds %class.CPDFSDK_FormFillEnvironment, %class.CPDFSDK_FormFillEnvironment* %55, i64 0, i32 11
  store i8 1, i8* %56, align 8
  br label %91

57:                                               ; preds = %42, %88
  %58 = phi %"class.fxcrt::ObservedPtr.262"* [ %39, %42 ], [ %89, %88 ]
  %59 = getelementptr inbounds %"class.fxcrt::ObservedPtr.262", %"class.fxcrt::ObservedPtr.262"* %58, i64 0, i32 1
  %60 = load %class.CPDFSDK_Annot*, %class.CPDFSDK_Annot** %59, align 8
  %61 = icmp eq %class.CPDFSDK_Annot* %60, null
  br i1 %61, label %88, label %62

62:                                               ; preds = %57
  %63 = bitcast %class.CPDFSDK_Annot* %60 to i32 (%class.CPDFSDK_Annot*)***
  %64 = load i32 (%class.CPDFSDK_Annot*)**, i32 (%class.CPDFSDK_Annot*)*** %63, align 8
  %65 = getelementptr inbounds i32 (%class.CPDFSDK_Annot*)*, i32 (%class.CPDFSDK_Annot*)** %64, i64 6
  %66 = load i32 (%class.CPDFSDK_Annot*)*, i32 (%class.CPDFSDK_Annot*)** %65, align 8
  %67 = call i32 %66(%class.CPDFSDK_Annot* nonnull %60) #11
  %68 = icmp eq i32 %67, 20
  br i1 %68, label %69, label %88

69:                                               ; preds = %62
  %70 = call %class.IPDF_Page* @_ZN13CPDFSDK_Annot7GetPageEv(%class.CPDFSDK_Annot* nonnull %60) #11
  %71 = load %class.CPDFSDK_FormFillEnvironment*, %class.CPDFSDK_FormFillEnvironment** %19, align 8
  %72 = call %class.CPDFSDK_PageView* @_ZN27CPDFSDK_FormFillEnvironment11GetPageViewEP9IPDF_Pageb(%class.CPDFSDK_FormFillEnvironment* %71, %class.IPDF_Page* %70, i1 zeroext false) #11
  %73 = icmp eq %class.CPDFSDK_PageView* %72, null
  br i1 %73, label %88, label %74

74:                                               ; preds = %69
  call void @llvm.lifetime.start.p0i8(i64 16, i8* nonnull %43) #11
  %75 = bitcast %class.CPDFSDK_Annot* %60 to %class.CPDFSDK_BAAnnot*
  call void @llvm.memset.p0i8.i64(i8* nonnull align 8 %53, i8 -1, i64 16, i1 false)
  %76 = call { <2 x float>, <2 x float> } @_ZNK15CPDFSDK_BAAnnot7GetRectEv(%class.CPDFSDK_BAAnnot* nonnull %75) #11
  %77 = extractvalue { <2 x float>, <2 x float> } %76, 0
  store <2 x float> %77, <2 x float>* %44, align 8
  %78 = extractvalue { <2 x float>, <2 x float> } %76, 1
  store <2 x float> %78, <2 x float>* %45, align 8
  call void @_ZN13CFX_FloatRect7InflateEffff(%class.CFX_FloatRect* nonnull %8, float 1.000000e+00, float 1.000000e+00, float 1.000000e+00, float 1.000000e+00) #11
  call void @llvm.lifetime.start.p0i8(i64 24, i8* nonnull %46) #11
  %79 = call i8* @_Znwm(i64 16) #12
  store i8* %79, i8** %50, align 8
  %80 = getelementptr inbounds i8, i8* %79, i64 16
  store i8* %80, i8** %51, align 8
  call void @llvm.memcpy.p0i8.p0i8.i64(i8* nonnull align 4 %79, i8* nonnull align 8 %43, i64 16, i1 false) #11
  %81 = ptrtoint i8* %80 to i64
  store i64 %81, i64* %52, align 8
  call void @_ZN16CPDFSDK_PageView11UpdateRectsERKNSt3__16vectorI13CFX_FloatRectNS0_9allocatorIS2_EEEE(%class.CPDFSDK_PageView* nonnull %72, %"class.std::__1::vector.370"* nonnull dereferenceable(24) %9) #11
  %82 = load %class.CFX_FloatRect*, %class.CFX_FloatRect** %47, align 8
  %83 = icmp eq %class.CFX_FloatRect* %82, null
  br i1 %83, label %87, label %84

84:                                               ; preds = %74
  %85 = ptrtoint %class.CFX_FloatRect* %82 to i64
  store i64 %85, i64* %52, align 8
  %86 = bitcast %class.CFX_FloatRect* %82 to i8*
  call void @_ZdlPv(i8* %86) #12
  br label %87

87:                                               ; preds = %74, %84
  call void @llvm.lifetime.end.p0i8(i64 24, i8* nonnull %46) #11
  call void @llvm.lifetime.end.p0i8(i64 16, i8* nonnull %43) #11
  br label %88

88:                                               ; preds = %62, %57, %87, %69
  %89 = getelementptr inbounds %"class.fxcrt::ObservedPtr.262", %"class.fxcrt::ObservedPtr.262"* %58, i64 1
  %90 = icmp eq %"class.fxcrt::ObservedPtr.262"* %89, %40
  br i1 %90, label %54, label %57

91:                                               ; preds = %26, %54
  call void @_ZN10CJS_ResultC1Ev(%class.CJS_Result* %0) #11
  %92 = load %"class.fxcrt::ObservedPtr.262"*, %"class.fxcrt::ObservedPtr.262"** %37, align 8
  %93 = icmp eq %"class.fxcrt::ObservedPtr.262"* %92, null
  br i1 %93, label %115, label %94

94:                                               ; preds = %91
  %95 = bitcast %"class.fxcrt::ObservedPtr.262"* %92 to i8*
  %96 = load %"class.fxcrt::ObservedPtr.262"*, %"class.fxcrt::ObservedPtr.262"** %38, align 8
  %97 = icmp eq %"class.fxcrt::ObservedPtr.262"* %96, %92
  br i1 %97, label %113, label %98

98:                                               ; preds = %94, %108
  %99 = phi %"class.fxcrt::ObservedPtr.262"* [ %100, %108 ], [ %96, %94 ]
  %100 = getelementptr inbounds %"class.fxcrt::ObservedPtr.262", %"class.fxcrt::ObservedPtr.262"* %99, i64 -1
  %101 = getelementptr inbounds %"class.fxcrt::ObservedPtr.262", %"class.fxcrt::ObservedPtr.262"* %100, i64 0, i32 0, i32 0
  store i32 (...)** bitcast (i8** getelementptr inbounds ({ [5 x i8*] }, { [5 x i8*] }* @_ZTVN5fxcrt11ObservedPtrI13CPDFSDK_AnnotEE, i64 0, inrange i32 0, i64 2) to i32 (...)**), i32 (...)*** %101, align 8
  %102 = getelementptr inbounds %"class.fxcrt::ObservedPtr.262", %"class.fxcrt::ObservedPtr.262"* %99, i64 -1, i32 1
  %103 = load %class.CPDFSDK_Annot*, %class.CPDFSDK_Annot** %102, align 8
  %104 = icmp eq %class.CPDFSDK_Annot* %103, null
  br i1 %104, label %108, label %105

105:                                              ; preds = %98
  %106 = getelementptr inbounds %class.CPDFSDK_Annot, %class.CPDFSDK_Annot* %103, i64 0, i32 1
  %107 = getelementptr inbounds %"class.fxcrt::ObservedPtr.262", %"class.fxcrt::ObservedPtr.262"* %100, i64 0, i32 0
  call void @_ZN5fxcrt10Observable14RemoveObserverEPNS0_13ObserverIfaceE(%"class.fxcrt::Observable"* %106, %"class.fxcrt::Observable::ObserverIface"* %107) #11
  br label %108

108:                                              ; preds = %105, %98
  %109 = icmp eq %"class.fxcrt::ObservedPtr.262"* %100, %92
  br i1 %109, label %110, label %98

110:                                              ; preds = %108
  %111 = bitcast %"class.std::__1::vector.453"* %6 to i8**
  %112 = load i8*, i8** %111, align 8
  br label %113

113:                                              ; preds = %110, %94
  %114 = phi i8* [ %112, %110 ], [ %95, %94 ]
  store %"class.fxcrt::ObservedPtr.262"* %92, %"class.fxcrt::ObservedPtr.262"** %38, align 8
  call void @_ZdlPv(i8* %114) #12
  br label %115

115:                                              ; preds = %91, %113
  call void @llvm.lifetime.end.p0i8(i64 24, i8* nonnull %36) #11
  call void @_ZN5fxcrt10WideStringD1Ev(%"class.fxcrt::WideString"* nonnull %5) #11
  call void @llvm.lifetime.end.p0i8(i64 8, i8* nonnull %27) #11
  br label %116

116:                                              ; preds = %115, %25, %22, %17
  ret void
}

declare void @_ZNK23CPDFSDK_InteractiveForm10GetWidgetsERKN5fxcrt10WideStringEPNSt3__16vectorINS0_11ObservedPtrI13CPDFSDK_AnnotEENS4_9allocatorIS8_EEEE(%class.CPDFSDK_InteractiveForm*, %"class.fxcrt::WideString"* dereferenceable(8), %"class.std::__1::vector.453"*) local_unnamed_addr #2

declare %class.IPDF_Page* @_ZN13CPDFSDK_Annot7GetPageEv(%class.CPDFSDK_Annot*) local_unnamed_addr #2

declare %class.CPDFSDK_PageView* @_ZN27CPDFSDK_FormFillEnvironment11GetPageViewEP9IPDF_Pageb(%class.CPDFSDK_FormFillEnvironment*, %class.IPDF_Page*, i1 zeroext) local_unnamed_addr #2

declare { <2 x float>, <2 x float> } @_ZNK15CPDFSDK_BAAnnot7GetRectEv(%class.CPDFSDK_BAAnnot*) unnamed_addr #2

declare void @_ZN13CFX_FloatRect7InflateEffff(%class.CFX_FloatRect*, float, float, float, float) local_unnamed_addr #2

declare void @_ZN16CPDFSDK_PageView11UpdateRectsERKNSt3__16vectorI13CFX_FloatRectNS0_9allocatorIS2_EEEE(%class.CPDFSDK_PageView*, %"class.std::__1::vector.370"* dereferenceable(24)) local_unnamed_addr #2

; Function Attrs: nounwind ssp uwtable
define hidden void @_ZN12CJS_Document9resetFormEP11CJS_RuntimeRKNSt3__16vectorIN2v85LocalINS4_5ValueEEENS2_9allocatorIS7_EEEE(%class.CJS_Result* noalias sret, %class.CJS_Document* nocapture readonly, %class.CJS_Runtime*, %"class.std::__1::vector.420"* nocapture readonly dereferenceable(24)) local_unnamed_addr #0 align 2 {
  %5 = alloca %"class.std::__1::vector.474", align 8
  %6 = alloca %"class.fxcrt::WideString", align 8
  %7 = getelementptr inbounds %class.CJS_Document, %class.CJS_Document* %1, i64 0, i32 3, i32 1
  %8 = load %class.CPDFSDK_FormFillEnvironment*, %class.CPDFSDK_FormFillEnvironment** %7, align 8
  %9 = icmp eq %class.CPDFSDK_FormFillEnvironment* %8, null
  br i1 %9, label %10, label %11

10:                                               ; preds = %4
  tail call void @_ZN10CJS_ResultC1E9JSMessage(%class.CJS_Result* %0, i32 19) #11
  br label %157

11:                                               ; preds = %4
  %12 = tail call zeroext i1 @_ZNK27CPDFSDK_FormFillEnvironment14HasPermissionsEj(%class.CPDFSDK_FormFillEnvironment* nonnull %8, i32 296) #11
  br i1 %12, label %14, label %13

13:                                               ; preds = %11
  tail call void @_ZN10CJS_ResultC1E9JSMessage(%class.CJS_Result* %0, i32 18) #11
  br label %157

14:                                               ; preds = %11
  %15 = load %class.CPDFSDK_FormFillEnvironment*, %class.CPDFSDK_FormFillEnvironment** %7, align 8
  %16 = tail call %class.CPDFSDK_InteractiveForm* @_ZN27CPDFSDK_FormFillEnvironment18GetInteractiveFormEv(%class.CPDFSDK_FormFillEnvironment* %15) #11
  %17 = getelementptr inbounds %class.CPDFSDK_InteractiveForm, %class.CPDFSDK_InteractiveForm* %16, i64 0, i32 2, i32 0, i32 0, i32 0
  %18 = load %class.CPDF_InteractiveForm*, %class.CPDF_InteractiveForm** %17, align 8
  %19 = getelementptr inbounds %"class.std::__1::vector.420", %"class.std::__1::vector.420"* %3, i64 0, i32 0, i32 0
  %20 = load %"class.v8::Local.0"*, %"class.v8::Local.0"** %19, align 8
  %21 = getelementptr inbounds %"class.std::__1::vector.420", %"class.std::__1::vector.420"* %3, i64 0, i32 0, i32 1
  %22 = load %"class.v8::Local.0"*, %"class.v8::Local.0"** %21, align 8
  %23 = icmp eq %"class.v8::Local.0"* %20, %22
  br i1 %23, label %24, label %27

24:                                               ; preds = %14
  tail call void @_ZN20CPDF_InteractiveForm9ResetFormEv(%class.CPDF_InteractiveForm* %18) #11
  %25 = load %class.CPDFSDK_FormFillEnvironment*, %class.CPDFSDK_FormFillEnvironment** %7, align 8
  %26 = getelementptr inbounds %class.CPDFSDK_FormFillEnvironment, %class.CPDFSDK_FormFillEnvironment* %25, i64 0, i32 11
  store i8 1, i8* %26, align 8
  tail call void @_ZN10CJS_ResultC1Ev(%class.CJS_Result* %0) #11
  br label %157

27:                                               ; preds = %14
  %28 = getelementptr inbounds %"class.v8::Local.0", %"class.v8::Local.0"* %20, i64 0, i32 0
  %29 = load %"class.v8::Value"*, %"class.v8::Value"** %28, align 8
  %30 = bitcast %"class.v8::Value"* %29 to i64*
  %31 = load i64, i64* %30, align 8
  %32 = and i64 %31, 3
  %33 = icmp eq i64 %32, 1
  br i1 %33, label %36, label %34

34:                                               ; preds = %27
  %35 = getelementptr inbounds %class.CJS_Runtime, %class.CJS_Runtime* %2, i64 0, i32 1, i32 0
  br label %53

36:                                               ; preds = %27
  %37 = add i64 %31, -1
  %38 = inttoptr i64 %37 to i32*
  %39 = load i32, i32* %38, align 4
  %40 = and i64 %31, -4294967296
  %41 = zext i32 %39 to i64
  %42 = or i64 %40, %41
  %43 = add i64 %42, 7
  %44 = inttoptr i64 %43 to i16*
  %45 = load i16, i16* %44, align 2
  %46 = icmp ult i16 %45, 64
  %47 = getelementptr inbounds %class.CJS_Runtime, %class.CJS_Runtime* %2, i64 0, i32 1, i32 0
  br i1 %46, label %48, label %53

48:                                               ; preds = %36
  %49 = tail call %"class.v8::Array"* @_ZN6CFX_V88NewArrayEv(%class.CFX_V8* %47) #11
  %50 = load %"class.v8::Local.0"*, %"class.v8::Local.0"** %19, align 8
  %51 = getelementptr inbounds %"class.v8::Local.0", %"class.v8::Local.0"* %50, i64 0, i32 0
  %52 = load %"class.v8::Value"*, %"class.v8::Value"** %51, align 8
  tail call void @_ZN6CFX_V815PutArrayElementEN2v85LocalINS0_5ArrayEEEjNS1_INS0_5ValueEEE(%class.CFX_V8* %47, %"class.v8::Array"* %49, i32 0, %"class.v8::Value"* %52) #11
  br label %56

53:                                               ; preds = %34, %36
  %54 = phi %class.CFX_V8* [ %35, %34 ], [ %47, %36 ]
  %55 = tail call %"class.v8::Array"* @_ZN6CFX_V87ToArrayEN2v85LocalINS0_5ValueEEE(%class.CFX_V8* %54, %"class.v8::Value"* %29) #11
  br label %56

56:                                               ; preds = %53, %48
  %57 = phi %class.CFX_V8* [ %47, %48 ], [ %54, %53 ]
  %58 = phi %"class.v8::Array"* [ %49, %48 ], [ %55, %53 ]
  %59 = bitcast %"class.std::__1::vector.474"* %5 to i8*
  call void @llvm.lifetime.start.p0i8(i64 24, i8* nonnull %59) #11
  %60 = getelementptr inbounds %"class.std::__1::vector.474", %"class.std::__1::vector.474"* %5, i64 0, i32 0, i32 0
  %61 = getelementptr inbounds %"class.std::__1::vector.474", %"class.std::__1::vector.474"* %5, i64 0, i32 0, i32 1
  %62 = getelementptr inbounds %"class.std::__1::vector.474", %"class.std::__1::vector.474"* %5, i64 0, i32 0, i32 2, i32 0, i32 0
  call void @llvm.memset.p0i8.i64(i8* nonnull align 8 %59, i8 0, i64 24, i1 false) #11
  %63 = call i32 @_ZN6CFX_V814GetArrayLengthEN2v85LocalINS0_5ArrayEEE(%class.CFX_V8* %57, %"class.v8::Array"* %58) #11
  %64 = icmp eq i32 %63, 0
  br i1 %64, label %149, label %65

65:                                               ; preds = %56
  %66 = bitcast %"class.fxcrt::WideString"* %6 to i8*
  %67 = getelementptr inbounds %"class.fxcrt::WideString", %"class.fxcrt::WideString"* %6, i64 0, i32 0, i32 0, i32 0, i32 0, i32 0
  %68 = bitcast %class.CPDF_FormField*** %61 to i64*
  %69 = bitcast %"class.std::__1::vector.474"* %5 to i64*
  %70 = bitcast %class.CPDF_FormField*** %62 to i64*
  br label %75

71:                                               ; preds = %82
  %72 = load %class.CPDF_FormField**, %class.CPDF_FormField*** %60, align 8
  %73 = load %class.CPDF_FormField**, %class.CPDF_FormField*** %61, align 8
  %74 = icmp eq %class.CPDF_FormField** %72, %73
  br i1 %74, label %149, label %146

75:                                               ; preds = %65, %82
  %76 = phi i64 [ 0, %65 ], [ %83, %82 ]
  call void @llvm.lifetime.start.p0i8(i64 8, i8* nonnull %66) #11
  store %"class.fxcrt::StringDataTemplate.315"* inttoptr (i64 -6148914691236517206 to %"class.fxcrt::StringDataTemplate.315"*), %"class.fxcrt::StringDataTemplate.315"** %67, align 8
  %77 = trunc i64 %76 to i32
  %78 = call %"class.v8::Value"* @_ZN6CFX_V815GetArrayElementEN2v85LocalINS0_5ArrayEEEj(%class.CFX_V8* %57, %"class.v8::Array"* %58, i32 %77) #11
  call void @_ZN6CFX_V812ToWideStringEN2v85LocalINS0_5ValueEEE(%"class.fxcrt::WideString"* nonnull sret %6, %class.CFX_V8* %57, %"class.v8::Value"* %78) #11
  %79 = call i64 @_ZNK20CPDF_InteractiveForm11CountFieldsERKN5fxcrt10WideStringE(%class.CPDF_InteractiveForm* %18, %"class.fxcrt::WideString"* nonnull dereferenceable(8) %6) #11
  %80 = trunc i64 %79 to i32
  %81 = icmp sgt i32 %80, 0
  br i1 %81, label %87, label %82

82:                                               ; preds = %143, %75
  call void @_ZN5fxcrt10WideStringD1Ev(%"class.fxcrt::WideString"* nonnull %6) #11
  call void @llvm.lifetime.end.p0i8(i64 8, i8* nonnull %66) #11
  %83 = add nuw nsw i64 %76, 1
  %84 = call i32 @_ZN6CFX_V814GetArrayLengthEN2v85LocalINS0_5ArrayEEE(%class.CFX_V8* %57, %"class.v8::Array"* %58) #11
  %85 = zext i32 %84 to i64
  %86 = icmp ult i64 %83, %85
  br i1 %86, label %75, label %71

87:                                               ; preds = %75, %143
  %88 = phi i32 [ %144, %143 ], [ 0, %75 ]
  %89 = call %class.CPDF_FormField* @_ZNK20CPDF_InteractiveForm8GetFieldEjRKN5fxcrt10WideStringE(%class.CPDF_InteractiveForm* %18, i32 %88, %"class.fxcrt::WideString"* nonnull dereferenceable(8) %6) #11
  %90 = ptrtoint %class.CPDF_FormField* %89 to i64
  %91 = load %class.CPDF_FormField**, %class.CPDF_FormField*** %61, align 8
  %92 = load %class.CPDF_FormField**, %class.CPDF_FormField*** %62, align 8
  %93 = icmp ult %class.CPDF_FormField** %91, %92
  %94 = ptrtoint %class.CPDF_FormField** %92 to i64
  br i1 %93, label %95, label %99

95:                                               ; preds = %87
  %96 = bitcast %class.CPDF_FormField** %91 to i64*
  store i64 %90, i64* %96, align 8
  %97 = getelementptr inbounds %class.CPDF_FormField*, %class.CPDF_FormField** %91, i64 1
  %98 = ptrtoint %class.CPDF_FormField** %97 to i64
  store i64 %98, i64* %68, align 8
  br label %143

99:                                               ; preds = %87
  %100 = ptrtoint %class.CPDF_FormField** %91 to i64
  %101 = load i64, i64* %69, align 8
  %102 = sub i64 %100, %101
  %103 = ashr exact i64 %102, 3
  %104 = add nsw i64 %103, 1
  %105 = icmp ugt i64 %104, 2305843009213693951
  br i1 %105, label %106, label %108

106:                                              ; preds = %99
  %107 = bitcast %"class.std::__1::vector.474"* %5 to %"class.std::__1::__vector_base_common"*
  call void @_ZNKSt3__120__vector_base_commonILb1EE20__throw_length_errorEv(%"class.std::__1::__vector_base_common"* nonnull %107) #13
  unreachable

108:                                              ; preds = %99
  %109 = sub i64 %94, %101
  %110 = ashr exact i64 %109, 3
  %111 = icmp ult i64 %110, 1152921504606846975
  br i1 %111, label %112, label %120

112:                                              ; preds = %108
  %113 = ashr exact i64 %109, 2
  %114 = icmp ult i64 %113, %104
  %115 = select i1 %114, i64 %104, i64 %113
  %116 = icmp eq i64 %115, 0
  br i1 %116, label %125, label %117

117:                                              ; preds = %112
  %118 = icmp ugt i64 %115, 2305843009213693951
  br i1 %118, label %119, label %120

119:                                              ; preds = %117
  call void @abort() #13
  unreachable

120:                                              ; preds = %117, %108
  %121 = phi i64 [ %115, %117 ], [ 2305843009213693951, %108 ]
  %122 = shl i64 %121, 3
  %123 = call i8* @_Znwm(i64 %122) #12
  %124 = bitcast i8* %123 to %class.CPDF_FormField**
  br label %125

125:                                              ; preds = %120, %112
  %126 = phi i64 [ %121, %120 ], [ 0, %112 ]
  %127 = phi i8* [ %123, %120 ], [ null, %112 ]
  %128 = phi %class.CPDF_FormField** [ %124, %120 ], [ null, %112 ]
  %129 = getelementptr inbounds %class.CPDF_FormField*, %class.CPDF_FormField** %128, i64 %103
  %130 = getelementptr inbounds %class.CPDF_FormField*, %class.CPDF_FormField** %128, i64 %126
  %131 = ptrtoint %class.CPDF_FormField** %130 to i64
  %132 = bitcast %class.CPDF_FormField** %129 to i64*
  store i64 %90, i64* %132, align 8
  %133 = getelementptr inbounds %class.CPDF_FormField*, %class.CPDF_FormField** %129, i64 1
  %134 = ptrtoint %class.CPDF_FormField** %133 to i64
  %135 = ptrtoint %class.CPDF_FormField** %128 to i64
  %136 = icmp sgt i64 %102, 0
  br i1 %136, label %137, label %139

137:                                              ; preds = %125
  %138 = inttoptr i64 %101 to i8*
  call void @llvm.memcpy.p0i8.p0i8.i64(i8* align 8 %127, i8* align 8 %138, i64 %102, i1 false) #11
  br label %139

139:                                              ; preds = %137, %125
  store i64 %135, i64* %69, align 8
  store i64 %134, i64* %68, align 8
  store i64 %131, i64* %70, align 8
  %140 = icmp eq i64 %101, 0
  br i1 %140, label %143, label %141

141:                                              ; preds = %139
  %142 = inttoptr i64 %101 to i8*
  call void @_ZdlPv(i8* %142) #12
  br label %143

143:                                              ; preds = %95, %139, %141
  %144 = add nuw nsw i32 %88, 1
  %145 = icmp eq i32 %144, %80
  br i1 %145, label %82, label %87

146:                                              ; preds = %71
  call void @_ZN20CPDF_InteractiveForm9ResetFormERKNSt3__16vectorIP14CPDF_FormFieldNS0_9allocatorIS3_EEEEb(%class.CPDF_InteractiveForm* %18, %"class.std::__1::vector.474"* nonnull dereferenceable(24) %5, i1 zeroext true) #11
  %147 = load %class.CPDFSDK_FormFillEnvironment*, %class.CPDFSDK_FormFillEnvironment** %7, align 8
  %148 = getelementptr inbounds %class.CPDFSDK_FormFillEnvironment, %class.CPDFSDK_FormFillEnvironment* %147, i64 0, i32 11
  store i8 1, i8* %148, align 8
  br label %149

149:                                              ; preds = %56, %146, %71
  call void @_ZN10CJS_ResultC1Ev(%class.CJS_Result* %0) #11
  %150 = load %class.CPDF_FormField**, %class.CPDF_FormField*** %60, align 8
  %151 = icmp eq %class.CPDF_FormField** %150, null
  br i1 %151, label %156, label %152

152:                                              ; preds = %149
  %153 = ptrtoint %class.CPDF_FormField** %150 to i64
  %154 = bitcast %class.CPDF_FormField*** %61 to i64*
  store i64 %153, i64* %154, align 8
  %155 = bitcast %class.CPDF_FormField** %150 to i8*
  call void @_ZdlPv(i8* %155) #12
  br label %156

156:                                              ; preds = %149, %152
  call void @llvm.lifetime.end.p0i8(i64 24, i8* nonnull %59) #11
  br label %157

157:                                              ; preds = %24, %156, %13, %10
  ret void
}

declare void @_ZN20CPDF_InteractiveForm9ResetFormEv(%class.CPDF_InteractiveForm*) local_unnamed_addr #2

declare %"class.v8::Array"* @_ZN6CFX_V88NewArrayEv(%class.CFX_V8*) local_unnamed_addr #2

declare void @_ZN6CFX_V815PutArrayElementEN2v85LocalINS0_5ArrayEEEjNS1_INS0_5ValueEEE(%class.CFX_V8*, %"class.v8::Array"*, i32, %"class.v8::Value"*) local_unnamed_addr #2

declare %"class.v8::Array"* @_ZN6CFX_V87ToArrayEN2v85LocalINS0_5ValueEEE(%class.CFX_V8*, %"class.v8::Value"*) local_unnamed_addr #2

declare i32 @_ZN6CFX_V814GetArrayLengthEN2v85LocalINS0_5ArrayEEE(%class.CFX_V8*, %"class.v8::Array"*) local_unnamed_addr #2

declare %"class.v8::Value"* @_ZN6CFX_V815GetArrayElementEN2v85LocalINS0_5ArrayEEEj(%class.CFX_V8*, %"class.v8::Array"*, i32) local_unnamed_addr #2

declare void @_ZN20CPDF_InteractiveForm9ResetFormERKNSt3__16vectorIP14CPDF_FormFieldNS0_9allocatorIS3_EEEEb(%class.CPDF_InteractiveForm*, %"class.std::__1::vector.474"* dereferenceable(24), i1 zeroext) local_unnamed_addr #2

; Function Attrs: nounwind ssp uwtable
define hidden void @_ZN12CJS_Document6saveAsEP11CJS_RuntimeRKNSt3__16vectorIN2v85LocalINS4_5ValueEEENS2_9allocatorIS7_EEEE(%class.CJS_Result* noalias sret, %class.CJS_Document* nocapture readnone, %class.CJS_Runtime* nocapture readnone, %"class.std::__1::vector.420"* nocapture readnone dereferenceable(24)) local_unnamed_addr #0 align 2 {
  tail call void @_ZN10CJS_ResultC1Ev(%class.CJS_Result* %0) #11
  ret void
}

; Function Attrs: nounwind ssp uwtable
define hidden void @_ZN12CJS_Document13syncAnnotScanEP11CJS_RuntimeRKNSt3__16vectorIN2v85LocalINS4_5ValueEEENS2_9allocatorIS7_EEEE(%class.CJS_Result* noalias sret, %class.CJS_Document* nocapture readnone, %class.CJS_Runtime* nocapture readnone, %"class.std::__1::vector.420"* nocapture readnone dereferenceable(24)) local_unnamed_addr #0 align 2 {
  tail call void @_ZN10CJS_ResultC1Ev(%class.CJS_Result* %0) #11
  ret void
}

; Function Attrs: nounwind ssp uwtable
define hidden void @_ZN12CJS_Document10submitFormEP11CJS_RuntimeRKNSt3__16vectorIN2v85LocalINS4_5ValueEEENS2_9allocatorIS7_EEEE(%class.CJS_Result* noalias sret, %class.CJS_Document* nocapture readonly, %class.CJS_Runtime*, %"class.std::__1::vector.420"* nocapture readonly dereferenceable(24)) local_unnamed_addr #0 align 2 {
  %5 = alloca %"class.fxcrt::WideString", align 8
  %6 = alloca %"class.fxcrt::WideString", align 8
  %7 = alloca %"class.fxcrt::StringViewTemplate.481", align 8
  %8 = alloca %"class.fxcrt::WideString", align 8
  %9 = alloca %"class.fxcrt::StringViewTemplate.481", align 8
  %10 = alloca %"class.fxcrt::StringViewTemplate.481", align 8
  %11 = alloca %"class.fxcrt::StringViewTemplate.481", align 8
  %12 = alloca %"class.std::__1::vector.474", align 8
  %13 = alloca %"class.fxcrt::WideString", align 8
  %14 = alloca %"class.fxcrt::WideString", align 8
  %15 = getelementptr inbounds %"class.std::__1::vector.420", %"class.std::__1::vector.420"* %3, i64 0, i32 0, i32 1
  %16 = bitcast %"class.v8::Local.0"** %15 to i64*
  %17 = load i64, i64* %16, align 8
  %18 = bitcast %"class.std::__1::vector.420"* %3 to i64*
  %19 = load i64, i64* %18, align 8
  %20 = sub i64 %17, %19
  %21 = ashr exact i64 %20, 3
  %22 = icmp eq i64 %20, 0
  br i1 %22, label %23, label %24

23:                                               ; preds = %4
  tail call void @_ZN10CJS_ResultC1E9JSMessage(%class.CJS_Result* %0, i32 2) #11
  br label %244

24:                                               ; preds = %4
  %25 = getelementptr inbounds %class.CJS_Document, %class.CJS_Document* %1, i64 0, i32 3, i32 1
  %26 = load %class.CPDFSDK_FormFillEnvironment*, %class.CPDFSDK_FormFillEnvironment** %25, align 8
  %27 = icmp eq %class.CPDFSDK_FormFillEnvironment* %26, null
  br i1 %27, label %28, label %29

28:                                               ; preds = %24
  tail call void @_ZN10CJS_ResultC1E9JSMessage(%class.CJS_Result* %0, i32 19) #11
  br label %244

29:                                               ; preds = %24
  %30 = tail call %class.CJS_EventContext* @_ZNK11CJS_Runtime22GetCurrentEventContextEv(%class.CJS_Runtime* %2) #11
  %31 = getelementptr inbounds %class.CJS_EventContext, %class.CJS_EventContext* %30, i64 0, i32 2, i32 0, i32 0, i32 0
  %32 = load %class.CJS_EventRecorder*, %class.CJS_EventRecorder** %31, align 8
  %33 = tail call zeroext i1 @_ZNK17CJS_EventRecorder13IsUserGestureEv(%class.CJS_EventRecorder* %32) #11
  br i1 %33, label %35, label %34

34:                                               ; preds = %29
  tail call void @_ZN10CJS_ResultC1E9JSMessage(%class.CJS_Result* %0, i32 23) #11
  br label %244

35:                                               ; preds = %29
  %36 = bitcast %"class.fxcrt::WideString"* %5 to i8*
  call void @llvm.lifetime.start.p0i8(i64 8, i8* nonnull %36) #11
  %37 = getelementptr inbounds %"class.fxcrt::WideString", %"class.fxcrt::WideString"* %5, i64 0, i32 0, i32 0, i32 0, i32 0, i32 0
  store %"class.fxcrt::StringDataTemplate.315"* inttoptr (i64 -6148914691236517206 to %"class.fxcrt::StringDataTemplate.315"*), %"class.fxcrt::StringDataTemplate.315"** %37, align 8
  call void @_ZN5fxcrt10WideStringC1Ev(%"class.fxcrt::WideString"* nonnull %5) #11
  %38 = getelementptr inbounds %"class.std::__1::vector.420", %"class.std::__1::vector.420"* %3, i64 0, i32 0, i32 0
  %39 = load %"class.v8::Local.0"*, %"class.v8::Local.0"** %38, align 8
  %40 = getelementptr inbounds %"class.v8::Local.0", %"class.v8::Local.0"* %39, i64 0, i32 0
  %41 = load %"class.v8::Value"*, %"class.v8::Value"** %40, align 8
  %42 = bitcast %"class.v8::Value"* %41 to i64*
  %43 = load i64, i64* %42, align 8
  %44 = and i64 %43, 3
  %45 = icmp eq i64 %44, 1
  br i1 %45, label %46, label %81

46:                                               ; preds = %35
  %47 = add i64 %43, -1
  %48 = inttoptr i64 %47 to i32*
  %49 = load i32, i32* %48, align 4
  %50 = and i64 %43, -4294967296
  %51 = zext i32 %49 to i64
  %52 = or i64 %50, %51
  %53 = add i64 %52, 7
  %54 = inttoptr i64 %53 to i16*
  %55 = load i16, i16* %54, align 2
  %56 = icmp ult i16 %55, 64
  br i1 %56, label %57, label %81

57:                                               ; preds = %46
  %58 = bitcast %"class.fxcrt::WideString"* %6 to i8*
  call void @llvm.lifetime.start.p0i8(i64 8, i8* nonnull %58) #11
  %59 = getelementptr inbounds %class.CJS_Runtime, %class.CJS_Runtime* %2, i64 0, i32 1, i32 0
  call void @_ZN6CFX_V812ToWideStringEN2v85LocalINS0_5ValueEEE(%"class.fxcrt::WideString"* nonnull sret %6, %class.CFX_V8* %59, %"class.v8::Value"* %41) #11
  %60 = call dereferenceable(8) %"class.fxcrt::WideString"* @_ZN5fxcrt10WideStringaSEOS0_(%"class.fxcrt::WideString"* nonnull %5, %"class.fxcrt::WideString"* nonnull dereferenceable(8) %6) #11
  call void @_ZN5fxcrt10WideStringD1Ev(%"class.fxcrt::WideString"* nonnull %6) #11
  call void @llvm.lifetime.end.p0i8(i64 8, i8* nonnull %58) #11
  %61 = icmp ugt i64 %21, 1
  br i1 %61, label %62, label %111

62:                                               ; preds = %57
  %63 = load %"class.v8::Local.0"*, %"class.v8::Local.0"** %38, align 8
  %64 = getelementptr inbounds %"class.v8::Local.0", %"class.v8::Local.0"* %63, i64 1, i32 0
  %65 = load %"class.v8::Value"*, %"class.v8::Value"** %64, align 8
  %66 = call zeroext i1 @_ZN6CFX_V89ToBooleanEN2v85LocalINS0_5ValueEEE(%class.CFX_V8* %59, %"class.v8::Value"* %65) #11
  %67 = zext i1 %66 to i8
  %68 = icmp eq i64 %20, 16
  br i1 %68, label %111, label %69

69:                                               ; preds = %62
  %70 = load %"class.v8::Local.0"*, %"class.v8::Local.0"** %38, align 8
  %71 = getelementptr inbounds %"class.v8::Local.0", %"class.v8::Local.0"* %70, i64 2, i32 0
  %72 = load %"class.v8::Value"*, %"class.v8::Value"** %71, align 8
  %73 = call zeroext i1 @_ZN6CFX_V89ToBooleanEN2v85LocalINS0_5ValueEEE(%class.CFX_V8* %59, %"class.v8::Value"* %72) #11
  %74 = zext i1 %73 to i8
  %75 = icmp ugt i64 %21, 3
  br i1 %75, label %76, label %111

76:                                               ; preds = %69
  %77 = load %"class.v8::Local.0"*, %"class.v8::Local.0"** %38, align 8
  %78 = getelementptr inbounds %"class.v8::Local.0", %"class.v8::Local.0"* %77, i64 3, i32 0
  %79 = load %"class.v8::Value"*, %"class.v8::Value"** %78, align 8
  %80 = call %"class.v8::Array"* @_ZN6CFX_V87ToArrayEN2v85LocalINS0_5ValueEEE(%class.CFX_V8* %59, %"class.v8::Value"* %79) #11
  br label %111

81:                                               ; preds = %35, %46
  %82 = call zeroext i1 @_ZNK2v85Value8IsObjectEv(%"class.v8::Value"* %41) #11
  br i1 %82, label %83, label %111

83:                                               ; preds = %81
  %84 = getelementptr inbounds %class.CJS_Runtime, %class.CJS_Runtime* %2, i64 0, i32 1, i32 0
  %85 = load %"class.v8::Local.0"*, %"class.v8::Local.0"** %38, align 8
  %86 = getelementptr inbounds %"class.v8::Local.0", %"class.v8::Local.0"* %85, i64 0, i32 0
  %87 = load %"class.v8::Value"*, %"class.v8::Value"** %86, align 8
  %88 = call %"class.v8::Object"* @_ZN6CFX_V88ToObjectEN2v85LocalINS0_5ValueEEE(%class.CFX_V8* %84, %"class.v8::Value"* %87) #11
  %89 = getelementptr inbounds %"class.fxcrt::StringViewTemplate.481", %"class.fxcrt::StringViewTemplate.481"* %7, i64 0, i32 0, i32 0, i32 0
  store i8* getelementptr inbounds ([5 x i8], [5 x i8]* @.str.88, i64 0, i64 0), i8** %89, align 8
  %90 = getelementptr inbounds %"class.fxcrt::StringViewTemplate.481", %"class.fxcrt::StringViewTemplate.481"* %7, i64 0, i32 0, i32 1
  store i64 4, i64* %90, align 8
  %91 = call %"class.v8::Value"* @_ZN6CFX_V817GetObjectPropertyEN2v85LocalINS0_6ObjectEEEN5fxcrt18StringViewTemplateIcEE(%class.CFX_V8* %84, %"class.v8::Object"* %88, %"class.fxcrt::StringViewTemplate.481"* nonnull %7) #11
  %92 = icmp eq %"class.v8::Value"* %91, null
  br i1 %92, label %96, label %93

93:                                               ; preds = %83
  %94 = bitcast %"class.fxcrt::WideString"* %8 to i8*
  call void @llvm.lifetime.start.p0i8(i64 8, i8* nonnull %94) #11
  call void @_ZN6CFX_V812ToWideStringEN2v85LocalINS0_5ValueEEE(%"class.fxcrt::WideString"* nonnull sret %8, %class.CFX_V8* %84, %"class.v8::Value"* nonnull %91) #11
  %95 = call dereferenceable(8) %"class.fxcrt::WideString"* @_ZN5fxcrt10WideStringaSEOS0_(%"class.fxcrt::WideString"* nonnull %5, %"class.fxcrt::WideString"* nonnull dereferenceable(8) %8) #11
  call void @_ZN5fxcrt10WideStringD1Ev(%"class.fxcrt::WideString"* nonnull %8) #11
  call void @llvm.lifetime.end.p0i8(i64 8, i8* nonnull %94) #11
  br label %96

96:                                               ; preds = %93, %83
  %97 = getelementptr inbounds %"class.fxcrt::StringViewTemplate.481", %"class.fxcrt::StringViewTemplate.481"* %9, i64 0, i32 0, i32 0, i32 0
  store i8* getelementptr inbounds ([5 x i8], [5 x i8]* @.str.89, i64 0, i64 0), i8** %97, align 8
  %98 = getelementptr inbounds %"class.fxcrt::StringViewTemplate.481", %"class.fxcrt::StringViewTemplate.481"* %9, i64 0, i32 0, i32 1
  store i64 4, i64* %98, align 8
  %99 = call %"class.v8::Value"* @_ZN6CFX_V817GetObjectPropertyEN2v85LocalINS0_6ObjectEEEN5fxcrt18StringViewTemplateIcEE(%class.CFX_V8* %84, %"class.v8::Object"* %88, %"class.fxcrt::StringViewTemplate.481"* nonnull %9) #11
  %100 = call zeroext i1 @_ZN6CFX_V89ToBooleanEN2v85LocalINS0_5ValueEEE(%class.CFX_V8* %84, %"class.v8::Value"* %99) #11
  %101 = zext i1 %100 to i8
  %102 = getelementptr inbounds %"class.fxcrt::StringViewTemplate.481", %"class.fxcrt::StringViewTemplate.481"* %10, i64 0, i32 0, i32 0, i32 0
  store i8* getelementptr inbounds ([7 x i8], [7 x i8]* @.str.90, i64 0, i64 0), i8** %102, align 8
  %103 = getelementptr inbounds %"class.fxcrt::StringViewTemplate.481", %"class.fxcrt::StringViewTemplate.481"* %10, i64 0, i32 0, i32 1
  store i64 6, i64* %103, align 8
  %104 = call %"class.v8::Value"* @_ZN6CFX_V817GetObjectPropertyEN2v85LocalINS0_6ObjectEEEN5fxcrt18StringViewTemplateIcEE(%class.CFX_V8* %84, %"class.v8::Object"* %88, %"class.fxcrt::StringViewTemplate.481"* nonnull %10) #11
  %105 = call zeroext i1 @_ZN6CFX_V89ToBooleanEN2v85LocalINS0_5ValueEEE(%class.CFX_V8* %84, %"class.v8::Value"* %104) #11
  %106 = zext i1 %105 to i8
  %107 = getelementptr inbounds %"class.fxcrt::StringViewTemplate.481", %"class.fxcrt::StringViewTemplate.481"* %11, i64 0, i32 0, i32 0, i32 0
  store i8* getelementptr inbounds ([8 x i8], [8 x i8]* @.str.91, i64 0, i64 0), i8** %107, align 8
  %108 = getelementptr inbounds %"class.fxcrt::StringViewTemplate.481", %"class.fxcrt::StringViewTemplate.481"* %11, i64 0, i32 0, i32 1
  store i64 7, i64* %108, align 8
  %109 = call %"class.v8::Value"* @_ZN6CFX_V817GetObjectPropertyEN2v85LocalINS0_6ObjectEEEN5fxcrt18StringViewTemplateIcEE(%class.CFX_V8* %84, %"class.v8::Object"* %88, %"class.fxcrt::StringViewTemplate.481"* nonnull %11) #11
  %110 = call %"class.v8::Array"* @_ZN6CFX_V87ToArrayEN2v85LocalINS0_5ValueEEE(%class.CFX_V8* %84, %"class.v8::Value"* %109) #11
  br label %111

111:                                              ; preds = %62, %57, %81, %96, %69, %76
  %112 = phi %"class.v8::Array"* [ %80, %76 ], [ null, %69 ], [ %110, %96 ], [ null, %81 ], [ null, %62 ], [ null, %57 ]
  %113 = phi i8 [ %74, %76 ], [ %74, %69 ], [ %106, %96 ], [ 0, %81 ], [ 0, %62 ], [ 0, %57 ]
  %114 = phi i8 [ %67, %76 ], [ %67, %69 ], [ %101, %96 ], [ 1, %81 ], [ %67, %62 ], [ 1, %57 ]
  %115 = load %class.CPDFSDK_FormFillEnvironment*, %class.CPDFSDK_FormFillEnvironment** %25, align 8
  %116 = call %class.CPDFSDK_InteractiveForm* @_ZN27CPDFSDK_FormFillEnvironment18GetInteractiveFormEv(%class.CPDFSDK_FormFillEnvironment* %115) #11
  %117 = getelementptr inbounds %class.CPDFSDK_InteractiveForm, %class.CPDFSDK_InteractiveForm* %116, i64 0, i32 2, i32 0, i32 0, i32 0
  %118 = load %class.CPDF_InteractiveForm*, %class.CPDF_InteractiveForm** %117, align 8
  %119 = getelementptr inbounds %class.CJS_Runtime, %class.CJS_Runtime* %2, i64 0, i32 1, i32 0
  %120 = call i32 @_ZN6CFX_V814GetArrayLengthEN2v85LocalINS0_5ArrayEEE(%class.CFX_V8* %119, %"class.v8::Array"* %112) #11
  %121 = icmp ne i32 %120, 0
  %122 = icmp eq i8 %113, 0
  %123 = or i1 %122, %121
  br i1 %123, label %132, label %124

124:                                              ; preds = %111
  %125 = call zeroext i1 @_ZNK20CPDF_InteractiveForm19CheckRequiredFieldsEPKNSt3__16vectorIP14CPDF_FormFieldNS0_9allocatorIS3_EEEEb(%class.CPDF_InteractiveForm* %118, %"class.std::__1::vector.474"* null, i1 zeroext true) #11
  br i1 %125, label %126, label %131

126:                                              ; preds = %124
  %127 = getelementptr inbounds %class.CJS_Runtime, %class.CJS_Runtime* %2, i64 0, i32 5
  store i8 1, i8* %127, align 8
  %128 = load %class.CPDFSDK_FormFillEnvironment*, %class.CPDFSDK_FormFillEnvironment** %25, align 8
  %129 = call %class.CPDFSDK_InteractiveForm* @_ZN27CPDFSDK_FormFillEnvironment18GetInteractiveFormEv(%class.CPDFSDK_FormFillEnvironment* %128) #11
  %130 = call zeroext i1 @_ZN23CPDFSDK_InteractiveForm10SubmitFormERKN5fxcrt10WideStringE(%class.CPDFSDK_InteractiveForm* %129, %"class.fxcrt::WideString"* nonnull dereferenceable(8) %5) #11
  store i8 0, i8* %127, align 8
  br label %131

131:                                              ; preds = %126, %124
  call void @_ZN10CJS_ResultC1Ev(%class.CJS_Result* %0) #11
  br label %243

132:                                              ; preds = %111
  %133 = bitcast %"class.std::__1::vector.474"* %12 to i8*
  call void @llvm.lifetime.start.p0i8(i64 24, i8* nonnull %133) #11
  %134 = getelementptr inbounds %"class.std::__1::vector.474", %"class.std::__1::vector.474"* %12, i64 0, i32 0, i32 0
  %135 = getelementptr inbounds %"class.std::__1::vector.474", %"class.std::__1::vector.474"* %12, i64 0, i32 0, i32 1
  %136 = getelementptr inbounds %"class.std::__1::vector.474", %"class.std::__1::vector.474"* %12, i64 0, i32 0, i32 2, i32 0, i32 0
  call void @llvm.memset.p0i8.i64(i8* nonnull align 8 %133, i8 0, i64 24, i1 false) #11
  %137 = call i32 @_ZN6CFX_V814GetArrayLengthEN2v85LocalINS0_5ArrayEEE(%class.CFX_V8* %119, %"class.v8::Array"* %112) #11
  %138 = icmp eq i32 %137, 0
  br i1 %138, label %147, label %139

139:                                              ; preds = %132
  %140 = bitcast %"class.fxcrt::WideString"* %13 to i8*
  %141 = getelementptr inbounds %"class.fxcrt::WideString", %"class.fxcrt::WideString"* %13, i64 0, i32 0, i32 0, i32 0, i32 0, i32 0
  %142 = bitcast %"class.fxcrt::WideString"* %14 to i8*
  %143 = getelementptr inbounds %"class.fxcrt::WideString", %"class.fxcrt::WideString"* %14, i64 0, i32 0, i32 0, i32 0, i32 0, i32 0
  %144 = bitcast %class.CPDF_FormField*** %135 to i64*
  %145 = bitcast %"class.std::__1::vector.474"* %12 to i64*
  %146 = bitcast %class.CPDF_FormField*** %136 to i64*
  br label %149

147:                                              ; preds = %156, %132
  %148 = call zeroext i1 @_ZNK20CPDF_InteractiveForm19CheckRequiredFieldsEPKNSt3__16vectorIP14CPDF_FormFieldNS0_9allocatorIS3_EEEEb(%class.CPDF_InteractiveForm* %118, %"class.std::__1::vector.474"* nonnull %12, i1 zeroext true) #11
  br i1 %148, label %229, label %235

149:                                              ; preds = %139, %156
  %150 = phi i64 [ 0, %139 ], [ %157, %156 ]
  call void @llvm.lifetime.start.p0i8(i64 8, i8* nonnull %140) #11
  store %"class.fxcrt::StringDataTemplate.315"* inttoptr (i64 -6148914691236517206 to %"class.fxcrt::StringDataTemplate.315"*), %"class.fxcrt::StringDataTemplate.315"** %141, align 8
  %151 = trunc i64 %150 to i32
  %152 = call %"class.v8::Value"* @_ZN6CFX_V815GetArrayElementEN2v85LocalINS0_5ArrayEEEj(%class.CFX_V8* %119, %"class.v8::Array"* %112, i32 %151) #11
  call void @_ZN6CFX_V812ToWideStringEN2v85LocalINS0_5ValueEEE(%"class.fxcrt::WideString"* nonnull sret %13, %class.CFX_V8* %119, %"class.v8::Value"* %152) #11
  %153 = call i64 @_ZNK20CPDF_InteractiveForm11CountFieldsERKN5fxcrt10WideStringE(%class.CPDF_InteractiveForm* %118, %"class.fxcrt::WideString"* nonnull dereferenceable(8) %13) #11
  %154 = trunc i64 %153 to i32
  %155 = icmp sgt i32 %154, 0
  br i1 %155, label %161, label %156

156:                                              ; preds = %226, %149
  call void @_ZN5fxcrt10WideStringD1Ev(%"class.fxcrt::WideString"* nonnull %13) #11
  call void @llvm.lifetime.end.p0i8(i64 8, i8* nonnull %140) #11
  %157 = add nuw nsw i64 %150, 1
  %158 = call i32 @_ZN6CFX_V814GetArrayLengthEN2v85LocalINS0_5ArrayEEE(%class.CFX_V8* %119, %"class.v8::Array"* %112) #11
  %159 = zext i32 %158 to i64
  %160 = icmp ult i64 %157, %159
  br i1 %160, label %149, label %147

161:                                              ; preds = %149, %226
  %162 = phi i32 [ %227, %226 ], [ 0, %149 ]
  %163 = call %class.CPDF_FormField* @_ZNK20CPDF_InteractiveForm8GetFieldEjRKN5fxcrt10WideStringE(%class.CPDF_InteractiveForm* %118, i32 %162, %"class.fxcrt::WideString"* nonnull dereferenceable(8) %13) #11
  %164 = ptrtoint %class.CPDF_FormField* %163 to i64
  br i1 %122, label %165, label %173

165:                                              ; preds = %161
  call void @llvm.lifetime.start.p0i8(i64 8, i8* nonnull %142) #11
  call void @_ZNK14CPDF_FormField8GetValueEv(%"class.fxcrt::WideString"* nonnull sret %14, %class.CPDF_FormField* %163) #11
  %166 = load %"class.fxcrt::StringDataTemplate.315"*, %"class.fxcrt::StringDataTemplate.315"** %143, align 8
  %167 = icmp eq %"class.fxcrt::StringDataTemplate.315"* %166, null
  br i1 %167, label %168, label %169

168:                                              ; preds = %165
  call void @_ZN5fxcrt10WideStringD1Ev(%"class.fxcrt::WideString"* nonnull %14) #11
  call void @llvm.lifetime.end.p0i8(i64 8, i8* nonnull %142) #11
  br label %226

169:                                              ; preds = %165
  %170 = getelementptr inbounds %"class.fxcrt::StringDataTemplate.315", %"class.fxcrt::StringDataTemplate.315"* %166, i64 0, i32 1
  %171 = load i64, i64* %170, align 8
  %172 = icmp eq i64 %171, 0
  call void @_ZN5fxcrt10WideStringD1Ev(%"class.fxcrt::WideString"* nonnull %14) #11
  call void @llvm.lifetime.end.p0i8(i64 8, i8* nonnull %142) #11
  br i1 %172, label %226, label %173

173:                                              ; preds = %161, %169
  %174 = load %class.CPDF_FormField**, %class.CPDF_FormField*** %135, align 8
  %175 = load %class.CPDF_FormField**, %class.CPDF_FormField*** %136, align 8
  %176 = icmp eq %class.CPDF_FormField** %174, %175
  %177 = ptrtoint %class.CPDF_FormField** %175 to i64
  br i1 %176, label %182, label %178

178:                                              ; preds = %173
  %179 = bitcast %class.CPDF_FormField** %174 to i64*
  store i64 %164, i64* %179, align 8
  %180 = getelementptr inbounds %class.CPDF_FormField*, %class.CPDF_FormField** %174, i64 1
  %181 = ptrtoint %class.CPDF_FormField** %180 to i64
  store i64 %181, i64* %144, align 8
  br label %226

182:                                              ; preds = %173
  %183 = ptrtoint %class.CPDF_FormField** %174 to i64
  %184 = load i64, i64* %145, align 8
  %185 = sub i64 %183, %184
  %186 = ashr exact i64 %185, 3
  %187 = add nsw i64 %186, 1
  %188 = icmp ugt i64 %187, 2305843009213693951
  br i1 %188, label %189, label %191

189:                                              ; preds = %182
  %190 = bitcast %"class.std::__1::vector.474"* %12 to %"class.std::__1::__vector_base_common"*
  call void @_ZNKSt3__120__vector_base_commonILb1EE20__throw_length_errorEv(%"class.std::__1::__vector_base_common"* nonnull %190) #13
  unreachable

191:                                              ; preds = %182
  %192 = sub i64 %177, %184
  %193 = ashr exact i64 %192, 3
  %194 = icmp ult i64 %193, 1152921504606846975
  br i1 %194, label %195, label %203

195:                                              ; preds = %191
  %196 = ashr exact i64 %192, 2
  %197 = icmp ult i64 %196, %187
  %198 = select i1 %197, i64 %187, i64 %196
  %199 = icmp eq i64 %198, 0
  br i1 %199, label %208, label %200

200:                                              ; preds = %195
  %201 = icmp ugt i64 %198, 2305843009213693951
  br i1 %201, label %202, label %203

202:                                              ; preds = %200
  call void @abort() #13
  unreachable

203:                                              ; preds = %200, %191
  %204 = phi i64 [ %198, %200 ], [ 2305843009213693951, %191 ]
  %205 = shl i64 %204, 3
  %206 = call i8* @_Znwm(i64 %205) #12
  %207 = bitcast i8* %206 to %class.CPDF_FormField**
  br label %208

208:                                              ; preds = %203, %195
  %209 = phi i64 [ %204, %203 ], [ 0, %195 ]
  %210 = phi i8* [ %206, %203 ], [ null, %195 ]
  %211 = phi %class.CPDF_FormField** [ %207, %203 ], [ null, %195 ]
  %212 = getelementptr inbounds %class.CPDF_FormField*, %class.CPDF_FormField** %211, i64 %186
  %213 = getelementptr inbounds %class.CPDF_FormField*, %class.CPDF_FormField** %211, i64 %209
  %214 = ptrtoint %class.CPDF_FormField** %213 to i64
  %215 = bitcast %class.CPDF_FormField** %212 to i64*
  store i64 %164, i64* %215, align 8
  %216 = getelementptr inbounds %class.CPDF_FormField*, %class.CPDF_FormField** %212, i64 1
  %217 = ptrtoint %class.CPDF_FormField** %216 to i64
  %218 = ptrtoint %class.CPDF_FormField** %211 to i64
  %219 = icmp sgt i64 %185, 0
  br i1 %219, label %220, label %222

220:                                              ; preds = %208
  %221 = inttoptr i64 %184 to i8*
  call void @llvm.memcpy.p0i8.p0i8.i64(i8* align 8 %210, i8* align 8 %221, i64 %185, i1 false) #11
  br label %222

222:                                              ; preds = %220, %208
  store i64 %218, i64* %145, align 8
  store i64 %217, i64* %144, align 8
  store i64 %214, i64* %146, align 8
  %223 = icmp eq i64 %184, 0
  br i1 %223, label %226, label %224

224:                                              ; preds = %222
  %225 = inttoptr i64 %184 to i8*
  call void @_ZdlPv(i8* %225) #12
  br label %226

226:                                              ; preds = %224, %222, %178, %168, %169
  %227 = add nuw nsw i32 %162, 1
  %228 = icmp eq i32 %227, %154
  br i1 %228, label %156, label %161

229:                                              ; preds = %147
  %230 = getelementptr inbounds %class.CJS_Runtime, %class.CJS_Runtime* %2, i64 0, i32 5
  store i8 1, i8* %230, align 8
  %231 = load %class.CPDFSDK_FormFillEnvironment*, %class.CPDFSDK_FormFillEnvironment** %25, align 8
  %232 = call %class.CPDFSDK_InteractiveForm* @_ZN27CPDFSDK_FormFillEnvironment18GetInteractiveFormEv(%class.CPDFSDK_FormFillEnvironment* %231) #11
  %233 = icmp eq i8 %114, 0
  %234 = call zeroext i1 @_ZN23CPDFSDK_InteractiveForm12SubmitFieldsERKN5fxcrt10WideStringERKNSt3__16vectorIP14CPDF_FormFieldNS4_9allocatorIS7_EEEEbb(%class.CPDFSDK_InteractiveForm* %232, %"class.fxcrt::WideString"* nonnull dereferenceable(8) %5, %"class.std::__1::vector.474"* nonnull dereferenceable(24) %12, i1 zeroext true, i1 zeroext %233) #11
  store i8 0, i8* %230, align 8
  br label %235

235:                                              ; preds = %229, %147
  call void @_ZN10CJS_ResultC1Ev(%class.CJS_Result* %0) #11
  %236 = load %class.CPDF_FormField**, %class.CPDF_FormField*** %134, align 8
  %237 = icmp eq %class.CPDF_FormField** %236, null
  br i1 %237, label %242, label %238

238:                                              ; preds = %235
  %239 = ptrtoint %class.CPDF_FormField** %236 to i64
  %240 = bitcast %class.CPDF_FormField*** %135 to i64*
  store i64 %239, i64* %240, align 8
  %241 = bitcast %class.CPDF_FormField** %236 to i8*
  call void @_ZdlPv(i8* %241) #12
  br label %242

242:                                              ; preds = %235, %238
  call void @llvm.lifetime.end.p0i8(i64 24, i8* nonnull %133) #11
  br label %243

243:                                              ; preds = %242, %131
  call void @_ZN5fxcrt10WideStringD1Ev(%"class.fxcrt::WideString"* nonnull %5) #11
  call void @llvm.lifetime.end.p0i8(i64 8, i8* nonnull %36) #11
  br label %244

244:                                              ; preds = %34, %243, %28, %23
  ret void
}

declare zeroext i1 @_ZNK2v85Value8IsObjectEv(%"class.v8::Value"*) local_unnamed_addr #2

declare %"class.v8::Object"* @_ZN6CFX_V88ToObjectEN2v85LocalINS0_5ValueEEE(%class.CFX_V8*, %"class.v8::Value"*) local_unnamed_addr #2

declare %"class.v8::Value"* @_ZN6CFX_V817GetObjectPropertyEN2v85LocalINS0_6ObjectEEEN5fxcrt18StringViewTemplateIcEE(%class.CFX_V8*, %"class.v8::Object"*, %"class.fxcrt::StringViewTemplate.481"*) local_unnamed_addr #2

declare zeroext i1 @_ZNK20CPDF_InteractiveForm19CheckRequiredFieldsEPKNSt3__16vectorIP14CPDF_FormFieldNS0_9allocatorIS3_EEEEb(%class.CPDF_InteractiveForm*, %"class.std::__1::vector.474"*, i1 zeroext) local_unnamed_addr #2

declare zeroext i1 @_ZN23CPDFSDK_InteractiveForm10SubmitFormERKN5fxcrt10WideStringE(%class.CPDFSDK_InteractiveForm*, %"class.fxcrt::WideString"* dereferenceable(8)) local_unnamed_addr #2

declare void @_ZNK14CPDF_FormField8GetValueEv(%"class.fxcrt::WideString"* sret, %class.CPDF_FormField*) local_unnamed_addr #2

declare zeroext i1 @_ZN23CPDFSDK_InteractiveForm12SubmitFieldsERKN5fxcrt10WideStringERKNSt3__16vectorIP14CPDF_FormFieldNS4_9allocatorIS7_EEEEbb(%class.CPDFSDK_InteractiveForm*, %"class.fxcrt::WideString"* dereferenceable(8), %"class.std::__1::vector.474"* dereferenceable(24), i1 zeroext, i1 zeroext) local_unnamed_addr #2

; Function Attrs: nounwind ssp uwtable
define hidden void @_ZN12CJS_Document17get_bookmark_rootEP11CJS_Runtime(%class.CJS_Result* noalias sret, %class.CJS_Document* nocapture readnone, %class.CJS_Runtime* nocapture readnone) local_unnamed_addr #0 align 2 {
  tail call void @_ZN10CJS_ResultC1Ev(%class.CJS_Result* %0) #11
  ret void
}

; Function Attrs: nounwind ssp uwtable
define hidden void @_ZN12CJS_Document17set_bookmark_rootEP11CJS_RuntimeN2v85LocalINS2_5ValueEEE(%class.CJS_Result* noalias sret, %class.CJS_Document* nocapture readnone, %class.CJS_Runtime* nocapture readnone, %"class.v8::Value"* nocapture readnone) local_unnamed_addr #0 align 2 {
  tail call void @_ZN10CJS_ResultC1Ev(%class.CJS_Result* %0) #11
  ret void
}

; Function Attrs: nounwind ssp uwtable
define hidden void @_ZN12CJS_Document10get_authorEP11CJS_Runtime(%class.CJS_Result* noalias sret, %class.CJS_Document* nocapture readonly, %class.CJS_Runtime*) local_unnamed_addr #0 align 2 {
  %4 = alloca %"class.fxcrt::ByteString", align 8
  %5 = bitcast %"class.fxcrt::ByteString"* %4 to i8*
  call void @llvm.lifetime.start.p0i8(i64 8, i8* nonnull %5) #11
  call void @_ZN5fxcrt10ByteStringC1EPKc(%"class.fxcrt::ByteString"* nonnull %4, i8* getelementptr inbounds ([7 x i8], [7 x i8]* @.str.92, i64 0, i64 0)) #11
  call void @_ZN12CJS_Document19getPropertyInternalEP11CJS_RuntimeRKN5fxcrt10ByteStringE(%class.CJS_Result* sret %0, %class.CJS_Document* %1, %class.CJS_Runtime* %2, %"class.fxcrt::ByteString"* nonnull dereferenceable(8) %4)
  call void @_ZN5fxcrt10ByteStringD1Ev(%"class.fxcrt::ByteString"* nonnull %4) #11
  call void @llvm.lifetime.end.p0i8(i64 8, i8* nonnull %5) #11
  ret void
}

; Function Attrs: nounwind ssp uwtable
define hidden void @_ZN12CJS_Document19getPropertyInternalEP11CJS_RuntimeRKN5fxcrt10ByteStringE(%class.CJS_Result* noalias sret, %class.CJS_Document* nocapture readonly, %class.CJS_Runtime*, %"class.fxcrt::ByteString"* dereferenceable(8)) local_unnamed_addr #0 align 2 {
  %5 = alloca %"class.fxcrt::StringViewTemplate", align 8
  %6 = alloca %"class.fxcrt::WideString", align 8
  %7 = getelementptr inbounds %class.CJS_Document, %class.CJS_Document* %1, i64 0, i32 3, i32 1
  %8 = load %class.CPDFSDK_FormFillEnvironment*, %class.CPDFSDK_FormFillEnvironment** %7, align 8
  %9 = icmp eq %class.CPDFSDK_FormFillEnvironment* %8, null
  br i1 %9, label %10, label %11

10:                                               ; preds = %4
  tail call void @_ZN10CJS_ResultC1E9JSMessage(%class.CJS_Result* %0, i32 19) #11
  br label %35

11:                                               ; preds = %4
  %12 = getelementptr inbounds %class.CPDFSDK_FormFillEnvironment, %class.CPDFSDK_FormFillEnvironment* %8, i64 0, i32 8, i32 0
  %13 = load %class.CPDF_Document*, %class.CPDF_Document** %12, align 8
  %14 = tail call %class.CPDF_Dictionary* @_ZN13CPDF_Document7GetInfoEv(%class.CPDF_Document* %13) #11
  %15 = icmp eq %class.CPDF_Dictionary* %14, null
  br i1 %15, label %16, label %17

16:                                               ; preds = %11
  tail call void @_ZN10CJS_ResultC1E9JSMessage(%class.CJS_Result* %0, i32 19) #11
  br label %35

17:                                               ; preds = %11
  %18 = getelementptr inbounds %class.CJS_Runtime, %class.CJS_Runtime* %2, i64 0, i32 1, i32 0
  %19 = bitcast %"class.fxcrt::WideString"* %6 to i8*
  call void @llvm.lifetime.start.p0i8(i64 8, i8* nonnull %19) #11
  call void @_ZNK15CPDF_Dictionary17GetUnicodeTextForERKN5fxcrt10ByteStringE(%"class.fxcrt::WideString"* nonnull sret %6, %class.CPDF_Dictionary* nonnull %14, %"class.fxcrt::ByteString"* dereferenceable(8) %3) #11
  %20 = getelementptr inbounds %"class.fxcrt::WideString", %"class.fxcrt::WideString"* %6, i64 0, i32 0, i32 0, i32 0, i32 0, i32 0
  %21 = load %"class.fxcrt::StringDataTemplate.315"*, %"class.fxcrt::StringDataTemplate.315"** %20, align 8, !noalias !16
  %22 = icmp eq %"class.fxcrt::StringDataTemplate.315"* %21, null
  %23 = getelementptr inbounds %"class.fxcrt::StringDataTemplate.315", %"class.fxcrt::StringDataTemplate.315"* %21, i64 0, i32 3
  %24 = select i1 %22, [1 x i32]* @.str.103, [1 x i32]* %23
  %25 = getelementptr inbounds [1 x i32], [1 x i32]* %24, i64 0, i64 0
  br i1 %22, label %29, label %26

26:                                               ; preds = %17
  %27 = getelementptr inbounds %"class.fxcrt::StringDataTemplate.315", %"class.fxcrt::StringDataTemplate.315"* %21, i64 0, i32 1
  %28 = load i64, i64* %27, align 8, !noalias !16
  br label %29

29:                                               ; preds = %17, %26
  %30 = phi i64 [ %28, %26 ], [ 0, %17 ]
  %31 = getelementptr inbounds %"class.fxcrt::StringViewTemplate", %"class.fxcrt::StringViewTemplate"* %5, i64 0, i32 0, i32 0, i32 0
  store i32* %25, i32** %31, align 8, !alias.scope !16
  %32 = getelementptr inbounds %"class.fxcrt::StringViewTemplate", %"class.fxcrt::StringViewTemplate"* %5, i64 0, i32 0, i32 1
  store i64 %30, i64* %32, align 8, !alias.scope !16
  %33 = call %"class.v8::String"* @_ZN6CFX_V89NewStringEN5fxcrt18StringViewTemplateIwEE(%class.CFX_V8* %18, %"class.fxcrt::StringViewTemplate"* nonnull %5) #11
  %34 = bitcast %"class.v8::String"* %33 to %"class.v8::Value"*
  call void @_ZN10CJS_ResultC1EN2v85LocalINS0_5ValueEEE(%class.CJS_Result* %0, %"class.v8::Value"* %34) #11
  call void @_ZN5fxcrt10WideStringD1Ev(%"class.fxcrt::WideString"* nonnull %6) #11
  call void @llvm.lifetime.end.p0i8(i64 8, i8* nonnull %19) #11
  br label %35

35:                                               ; preds = %16, %29, %10
  ret void
}

declare void @_ZN5fxcrt10ByteStringC1EPKc(%"class.fxcrt::ByteString"*, i8*) unnamed_addr #2

; Function Attrs: nounwind ssp uwtable
define hidden void @_ZN12CJS_Document10set_authorEP11CJS_RuntimeN2v85LocalINS2_5ValueEEE(%class.CJS_Result* noalias sret, %class.CJS_Document* nocapture readonly, %class.CJS_Runtime*, %"class.v8::Value"*) local_unnamed_addr #0 align 2 {
  %5 = alloca %"class.fxcrt::ByteString", align 8
  %6 = bitcast %"class.fxcrt::ByteString"* %5 to i8*
  call void @llvm.lifetime.start.p0i8(i64 8, i8* nonnull %6) #11
  call void @_ZN5fxcrt10ByteStringC1EPKc(%"class.fxcrt::ByteString"* nonnull %5, i8* getelementptr inbounds ([7 x i8], [7 x i8]* @.str.92, i64 0, i64 0)) #11
  call void @_ZN12CJS_Document19setPropertyInternalEP11CJS_RuntimeN2v85LocalINS2_5ValueEEERKN5fxcrt10ByteStringE(%class.CJS_Result* sret %0, %class.CJS_Document* %1, %class.CJS_Runtime* %2, %"class.v8::Value"* %3, %"class.fxcrt::ByteString"* nonnull dereferenceable(8) %5)
  call void @_ZN5fxcrt10ByteStringD1Ev(%"class.fxcrt::ByteString"* nonnull %5) #11
  call void @llvm.lifetime.end.p0i8(i64 8, i8* nonnull %6) #11
  ret void
}

; Function Attrs: nounwind ssp uwtable
define hidden void @_ZN12CJS_Document19setPropertyInternalEP11CJS_RuntimeN2v85LocalINS2_5ValueEEERKN5fxcrt10ByteStringE(%class.CJS_Result* noalias sret, %class.CJS_Document* nocapture readonly, %class.CJS_Runtime*, %"class.v8::Value"*, %"class.fxcrt::ByteString"* dereferenceable(8)) local_unnamed_addr #0 align 2 {
  %6 = alloca %"class.fxcrt::WideString", align 8
  %7 = getelementptr inbounds %class.CJS_Document, %class.CJS_Document* %1, i64 0, i32 3, i32 1
  %8 = load %class.CPDFSDK_FormFillEnvironment*, %class.CPDFSDK_FormFillEnvironment** %7, align 8
  %9 = icmp eq %class.CPDFSDK_FormFillEnvironment* %8, null
  br i1 %9, label %10, label %11

10:                                               ; preds = %5
  tail call void @_ZN10CJS_ResultC1E9JSMessage(%class.CJS_Result* %0, i32 19) #11
  br label %27

11:                                               ; preds = %5
  %12 = getelementptr inbounds %class.CPDFSDK_FormFillEnvironment, %class.CPDFSDK_FormFillEnvironment* %8, i64 0, i32 8, i32 0
  %13 = load %class.CPDF_Document*, %class.CPDF_Document** %12, align 8
  %14 = tail call %class.CPDF_Dictionary* @_ZN13CPDF_Document7GetInfoEv(%class.CPDF_Document* %13) #11
  %15 = icmp eq %class.CPDF_Dictionary* %14, null
  br i1 %15, label %16, label %17

16:                                               ; preds = %11
  tail call void @_ZN10CJS_ResultC1E9JSMessage(%class.CJS_Result* %0, i32 19) #11
  br label %27

17:                                               ; preds = %11
  %18 = load %class.CPDFSDK_FormFillEnvironment*, %class.CPDFSDK_FormFillEnvironment** %7, align 8
  %19 = tail call zeroext i1 @_ZNK27CPDFSDK_FormFillEnvironment14HasPermissionsEj(%class.CPDFSDK_FormFillEnvironment* %18, i32 8) #11
  br i1 %19, label %21, label %20

20:                                               ; preds = %17
  tail call void @_ZN10CJS_ResultC1E9JSMessage(%class.CJS_Result* %0, i32 18) #11
  br label %27

21:                                               ; preds = %17
  %22 = bitcast %"class.fxcrt::WideString"* %6 to i8*
  call void @llvm.lifetime.start.p0i8(i64 8, i8* nonnull %22) #11
  %23 = getelementptr inbounds %class.CJS_Runtime, %class.CJS_Runtime* %2, i64 0, i32 1, i32 0
  call void @_ZN6CFX_V812ToWideStringEN2v85LocalINS0_5ValueEEE(%"class.fxcrt::WideString"* nonnull sret %6, %class.CFX_V8* %23, %"class.v8::Value"* %3) #11
  %24 = call %class.CPDF_String* @_ZN15CPDF_Dictionary9SetNewForI11CPDF_StringJN5fxcrt10WideStringEEEENSt3__19enable_ifIXsr16CanInternStringsIT_EE5valueEPS6_E4typeERKNS2_10ByteStringEDpOT0_(%class.CPDF_Dictionary* nonnull %14, %"class.fxcrt::ByteString"* dereferenceable(8) %4, %"class.fxcrt::WideString"* nonnull dereferenceable(8) %6)
  call void @_ZN5fxcrt10WideStringD1Ev(%"class.fxcrt::WideString"* nonnull %6) #11
  call void @llvm.lifetime.end.p0i8(i64 8, i8* nonnull %22) #11
  %25 = load %class.CPDFSDK_FormFillEnvironment*, %class.CPDFSDK_FormFillEnvironment** %7, align 8
  %26 = getelementptr inbounds %class.CPDFSDK_FormFillEnvironment, %class.CPDFSDK_FormFillEnvironment* %25, i64 0, i32 11
  store i8 1, i8* %26, align 8
  call void @_ZN10CJS_ResultC1Ev(%class.CJS_Result* %0) #11
  br label %27

27:                                               ; preds = %16, %20, %21, %10
  ret void
}

; Function Attrs: nounwind ssp uwtable
define hidden void @_ZN12CJS_Document8get_infoEP11CJS_Runtime(%class.CJS_Result* noalias sret, %class.CJS_Document* nocapture readonly, %class.CJS_Runtime*) local_unnamed_addr #0 align 2 {
  %4 = alloca %"class.fxcrt::WideString", align 8
  %5 = alloca %"class.fxcrt::ByteString", align 8
  %6 = alloca %"class.fxcrt::WideString", align 8
  %7 = alloca %"class.fxcrt::ByteString", align 8
  %8 = alloca %"class.fxcrt::WideString", align 8
  %9 = alloca %"class.fxcrt::ByteString", align 8
  %10 = alloca %"class.fxcrt::WideString", align 8
  %11 = alloca %"class.fxcrt::ByteString", align 8
  %12 = alloca %"class.fxcrt::WideString", align 8
  %13 = alloca %"class.fxcrt::ByteString", align 8
  %14 = alloca %"class.fxcrt::WideString", align 8
  %15 = alloca %"class.fxcrt::ByteString", align 8
  %16 = alloca %"class.fxcrt::WideString", align 8
  %17 = alloca %"class.fxcrt::ByteString", align 8
  %18 = alloca %"class.fxcrt::WideString", align 8
  %19 = alloca %"class.fxcrt::ByteString", align 8
  %20 = alloca %"class.fxcrt::WideString", align 8
  %21 = alloca %"class.fxcrt::ByteString", align 8
  %22 = alloca %"class.fxcrt::StringViewTemplate.481", align 8
  %23 = alloca %"class.fxcrt::StringViewTemplate", align 8
  %24 = alloca %"class.fxcrt::StringViewTemplate.481", align 8
  %25 = alloca %"class.fxcrt::StringViewTemplate", align 8
  %26 = alloca %"class.fxcrt::StringViewTemplate.481", align 8
  %27 = alloca %"class.fxcrt::StringViewTemplate", align 8
  %28 = alloca %"class.fxcrt::StringViewTemplate.481", align 8
  %29 = alloca %"class.fxcrt::StringViewTemplate", align 8
  %30 = alloca %"class.fxcrt::StringViewTemplate.481", align 8
  %31 = alloca %"class.fxcrt::StringViewTemplate", align 8
  %32 = alloca %"class.fxcrt::StringViewTemplate.481", align 8
  %33 = alloca %"class.fxcrt::StringViewTemplate", align 8
  %34 = alloca %"class.fxcrt::StringViewTemplate.481", align 8
  %35 = alloca %"class.fxcrt::StringViewTemplate", align 8
  %36 = alloca %"class.fxcrt::StringViewTemplate.481", align 8
  %37 = alloca %"class.fxcrt::StringViewTemplate", align 8
  %38 = alloca %"class.fxcrt::StringViewTemplate.481", align 8
  %39 = alloca %"class.fxcrt::StringViewTemplate", align 8
  %40 = alloca %"class.fxcrt::RetainPtr.484", align 8
  %41 = alloca %class.CPDF_DictionaryLocker, align 8
  %42 = alloca %"class.fxcrt::StringViewTemplate.481", align 8
  %43 = alloca %"class.fxcrt::StringViewTemplate", align 8
  %44 = alloca %"class.fxcrt::WideString", align 8
  %45 = alloca %"class.fxcrt::StringViewTemplate.481", align 8
  %46 = alloca %"class.fxcrt::StringViewTemplate.481", align 8
  %47 = getelementptr inbounds %class.CJS_Document, %class.CJS_Document* %1, i64 0, i32 3, i32 1
  %48 = load %class.CPDFSDK_FormFillEnvironment*, %class.CPDFSDK_FormFillEnvironment** %47, align 8
  %49 = icmp eq %class.CPDFSDK_FormFillEnvironment* %48, null
  br i1 %49, label %50, label %51

50:                                               ; preds = %3
  tail call void @_ZN10CJS_ResultC1E9JSMessage(%class.CJS_Result* %0, i32 19) #11
  br label %403

51:                                               ; preds = %3
  %52 = getelementptr inbounds %class.CPDFSDK_FormFillEnvironment, %class.CPDFSDK_FormFillEnvironment* %48, i64 0, i32 8, i32 0
  %53 = load %class.CPDF_Document*, %class.CPDF_Document** %52, align 8
  %54 = tail call %class.CPDF_Dictionary* @_ZN13CPDF_Document7GetInfoEv(%class.CPDF_Document* %53) #11
  %55 = icmp eq %class.CPDF_Dictionary* %54, null
  br i1 %55, label %56, label %57

56:                                               ; preds = %51
  tail call void @_ZN10CJS_ResultC1E9JSMessage(%class.CJS_Result* %0, i32 19) #11
  br label %403

57:                                               ; preds = %51
  %58 = bitcast %"class.fxcrt::WideString"* %4 to i8*
  call void @llvm.lifetime.start.p0i8(i64 8, i8* nonnull %58) #11
  %59 = getelementptr inbounds %"class.fxcrt::WideString", %"class.fxcrt::WideString"* %4, i64 0, i32 0, i32 0, i32 0, i32 0, i32 0
  store %"class.fxcrt::StringDataTemplate.315"* inttoptr (i64 -6148914691236517206 to %"class.fxcrt::StringDataTemplate.315"*), %"class.fxcrt::StringDataTemplate.315"** %59, align 8
  %60 = bitcast %"class.fxcrt::ByteString"* %5 to i8*
  call void @llvm.lifetime.start.p0i8(i64 8, i8* nonnull %60) #11
  call void @_ZN5fxcrt10ByteStringC1EPKc(%"class.fxcrt::ByteString"* nonnull %5, i8* getelementptr inbounds ([7 x i8], [7 x i8]* @.str.92, i64 0, i64 0)) #11
  call void @_ZNK15CPDF_Dictionary17GetUnicodeTextForERKN5fxcrt10ByteStringE(%"class.fxcrt::WideString"* nonnull sret %4, %class.CPDF_Dictionary* nonnull %54, %"class.fxcrt::ByteString"* nonnull dereferenceable(8) %5) #11
  call void @_ZN5fxcrt10ByteStringD1Ev(%"class.fxcrt::ByteString"* nonnull %5) #11
  call void @llvm.lifetime.end.p0i8(i64 8, i8* nonnull %60) #11
  %61 = bitcast %"class.fxcrt::WideString"* %6 to i8*
  call void @llvm.lifetime.start.p0i8(i64 8, i8* nonnull %61) #11
  %62 = getelementptr inbounds %"class.fxcrt::WideString", %"class.fxcrt::WideString"* %6, i64 0, i32 0, i32 0, i32 0, i32 0, i32 0
  store %"class.fxcrt::StringDataTemplate.315"* inttoptr (i64 -6148914691236517206 to %"class.fxcrt::StringDataTemplate.315"*), %"class.fxcrt::StringDataTemplate.315"** %62, align 8
  %63 = bitcast %"class.fxcrt::ByteString"* %7 to i8*
  call void @llvm.lifetime.start.p0i8(i64 8, i8* nonnull %63) #11
  call void @_ZN5fxcrt10ByteStringC1EPKc(%"class.fxcrt::ByteString"* nonnull %7, i8* getelementptr inbounds ([6 x i8], [6 x i8]* @.str.93, i64 0, i64 0)) #11
  call void @_ZNK15CPDF_Dictionary17GetUnicodeTextForERKN5fxcrt10ByteStringE(%"class.fxcrt::WideString"* nonnull sret %6, %class.CPDF_Dictionary* nonnull %54, %"class.fxcrt::ByteString"* nonnull dereferenceable(8) %7) #11
  call void @_ZN5fxcrt10ByteStringD1Ev(%"class.fxcrt::ByteString"* nonnull %7) #11
  call void @llvm.lifetime.end.p0i8(i64 8, i8* nonnull %63) #11
  %64 = bitcast %"class.fxcrt::WideString"* %8 to i8*
  call void @llvm.lifetime.start.p0i8(i64 8, i8* nonnull %64) #11
  %65 = getelementptr inbounds %"class.fxcrt::WideString", %"class.fxcrt::WideString"* %8, i64 0, i32 0, i32 0, i32 0, i32 0, i32 0
  store %"class.fxcrt::StringDataTemplate.315"* inttoptr (i64 -6148914691236517206 to %"class.fxcrt::StringDataTemplate.315"*), %"class.fxcrt::StringDataTemplate.315"** %65, align 8
  %66 = bitcast %"class.fxcrt::ByteString"* %9 to i8*
  call void @llvm.lifetime.start.p0i8(i64 8, i8* nonnull %66) #11
  call void @_ZN5fxcrt10ByteStringC1EPKc(%"class.fxcrt::ByteString"* nonnull %9, i8* getelementptr inbounds ([8 x i8], [8 x i8]* @.str.94, i64 0, i64 0)) #11
  call void @_ZNK15CPDF_Dictionary17GetUnicodeTextForERKN5fxcrt10ByteStringE(%"class.fxcrt::WideString"* nonnull sret %8, %class.CPDF_Dictionary* nonnull %54, %"class.fxcrt::ByteString"* nonnull dereferenceable(8) %9) #11
  call void @_ZN5fxcrt10ByteStringD1Ev(%"class.fxcrt::ByteString"* nonnull %9) #11
  call void @llvm.lifetime.end.p0i8(i64 8, i8* nonnull %66) #11
  %67 = bitcast %"class.fxcrt::WideString"* %10 to i8*
  call void @llvm.lifetime.start.p0i8(i64 8, i8* nonnull %67) #11
  %68 = getelementptr inbounds %"class.fxcrt::WideString", %"class.fxcrt::WideString"* %10, i64 0, i32 0, i32 0, i32 0, i32 0, i32 0
  store %"class.fxcrt::StringDataTemplate.315"* inttoptr (i64 -6148914691236517206 to %"class.fxcrt::StringDataTemplate.315"*), %"class.fxcrt::StringDataTemplate.315"** %68, align 8
  %69 = bitcast %"class.fxcrt::ByteString"* %11 to i8*
  call void @llvm.lifetime.start.p0i8(i64 8, i8* nonnull %69) #11
  call void @_ZN5fxcrt10ByteStringC1EPKc(%"class.fxcrt::ByteString"* nonnull %11, i8* getelementptr inbounds ([9 x i8], [9 x i8]* @.str.95, i64 0, i64 0)) #11
  call void @_ZNK15CPDF_Dictionary17GetUnicodeTextForERKN5fxcrt10ByteStringE(%"class.fxcrt::WideString"* nonnull sret %10, %class.CPDF_Dictionary* nonnull %54, %"class.fxcrt::ByteString"* nonnull dereferenceable(8) %11) #11
  call void @_ZN5fxcrt10ByteStringD1Ev(%"class.fxcrt::ByteString"* nonnull %11) #11
  call void @llvm.lifetime.end.p0i8(i64 8, i8* nonnull %69) #11
  %70 = bitcast %"class.fxcrt::WideString"* %12 to i8*
  call void @llvm.lifetime.start.p0i8(i64 8, i8* nonnull %70) #11
  %71 = getelementptr inbounds %"class.fxcrt::WideString", %"class.fxcrt::WideString"* %12, i64 0, i32 0, i32 0, i32 0, i32 0, i32 0
  store %"class.fxcrt::StringDataTemplate.315"* inttoptr (i64 -6148914691236517206 to %"class.fxcrt::StringDataTemplate.315"*), %"class.fxcrt::StringDataTemplate.315"** %71, align 8
  %72 = bitcast %"class.fxcrt::ByteString"* %13 to i8*
  call void @llvm.lifetime.start.p0i8(i64 8, i8* nonnull %72) #11
  call void @_ZN5fxcrt10ByteStringC1EPKc(%"class.fxcrt::ByteString"* nonnull %13, i8* getelementptr inbounds ([8 x i8], [8 x i8]* @.str.96, i64 0, i64 0)) #11
  call void @_ZNK15CPDF_Dictionary17GetUnicodeTextForERKN5fxcrt10ByteStringE(%"class.fxcrt::WideString"* nonnull sret %12, %class.CPDF_Dictionary* nonnull %54, %"class.fxcrt::ByteString"* nonnull dereferenceable(8) %13) #11
  call void @_ZN5fxcrt10ByteStringD1Ev(%"class.fxcrt::ByteString"* nonnull %13) #11
  call void @llvm.lifetime.end.p0i8(i64 8, i8* nonnull %72) #11
  %73 = bitcast %"class.fxcrt::WideString"* %14 to i8*
  call void @llvm.lifetime.start.p0i8(i64 8, i8* nonnull %73) #11
  %74 = getelementptr inbounds %"class.fxcrt::WideString", %"class.fxcrt::WideString"* %14, i64 0, i32 0, i32 0, i32 0, i32 0, i32 0
  store %"class.fxcrt::StringDataTemplate.315"* inttoptr (i64 -6148914691236517206 to %"class.fxcrt::StringDataTemplate.315"*), %"class.fxcrt::StringDataTemplate.315"** %74, align 8
  %75 = bitcast %"class.fxcrt::ByteString"* %15 to i8*
  call void @llvm.lifetime.start.p0i8(i64 8, i8* nonnull %75) #11
  call void @_ZN5fxcrt10ByteStringC1EPKc(%"class.fxcrt::ByteString"* nonnull %15, i8* getelementptr inbounds ([9 x i8], [9 x i8]* @.str.97, i64 0, i64 0)) #11
  call void @_ZNK15CPDF_Dictionary17GetUnicodeTextForERKN5fxcrt10ByteStringE(%"class.fxcrt::WideString"* nonnull sret %14, %class.CPDF_Dictionary* nonnull %54, %"class.fxcrt::ByteString"* nonnull dereferenceable(8) %15) #11
  call void @_ZN5fxcrt10ByteStringD1Ev(%"class.fxcrt::ByteString"* nonnull %15) #11
  call void @llvm.lifetime.end.p0i8(i64 8, i8* nonnull %75) #11
  %76 = bitcast %"class.fxcrt::WideString"* %16 to i8*
  call void @llvm.lifetime.start.p0i8(i64 8, i8* nonnull %76) #11
  %77 = getelementptr inbounds %"class.fxcrt::WideString", %"class.fxcrt::WideString"* %16, i64 0, i32 0, i32 0, i32 0, i32 0, i32 0
  store %"class.fxcrt::StringDataTemplate.315"* inttoptr (i64 -6148914691236517206 to %"class.fxcrt::StringDataTemplate.315"*), %"class.fxcrt::StringDataTemplate.315"** %77, align 8
  %78 = bitcast %"class.fxcrt::ByteString"* %17 to i8*
  call void @llvm.lifetime.start.p0i8(i64 8, i8* nonnull %78) #11
  call void @_ZN5fxcrt10ByteStringC1EPKc(%"class.fxcrt::ByteString"* nonnull %17, i8* getelementptr inbounds ([13 x i8], [13 x i8]* @.str.98, i64 0, i64 0)) #11
  call void @_ZNK15CPDF_Dictionary17GetUnicodeTextForERKN5fxcrt10ByteStringE(%"class.fxcrt::WideString"* nonnull sret %16, %class.CPDF_Dictionary* nonnull %54, %"class.fxcrt::ByteString"* nonnull dereferenceable(8) %17) #11
  call void @_ZN5fxcrt10ByteStringD1Ev(%"class.fxcrt::ByteString"* nonnull %17) #11
  call void @llvm.lifetime.end.p0i8(i64 8, i8* nonnull %78) #11
  %79 = bitcast %"class.fxcrt::WideString"* %18 to i8*
  call void @llvm.lifetime.start.p0i8(i64 8, i8* nonnull %79) #11
  %80 = getelementptr inbounds %"class.fxcrt::WideString", %"class.fxcrt::WideString"* %18, i64 0, i32 0, i32 0, i32 0, i32 0, i32 0
  store %"class.fxcrt::StringDataTemplate.315"* inttoptr (i64 -6148914691236517206 to %"class.fxcrt::StringDataTemplate.315"*), %"class.fxcrt::StringDataTemplate.315"** %80, align 8
  %81 = bitcast %"class.fxcrt::ByteString"* %19 to i8*
  call void @llvm.lifetime.start.p0i8(i64 8, i8* nonnull %81) #11
  call void @_ZN5fxcrt10ByteStringC1EPKc(%"class.fxcrt::ByteString"* nonnull %19, i8* getelementptr inbounds ([8 x i8], [8 x i8]* @.str.99, i64 0, i64 0)) #11
  call void @_ZNK15CPDF_Dictionary17GetUnicodeTextForERKN5fxcrt10ByteStringE(%"class.fxcrt::WideString"* nonnull sret %18, %class.CPDF_Dictionary* nonnull %54, %"class.fxcrt::ByteString"* nonnull dereferenceable(8) %19) #11
  call void @_ZN5fxcrt10ByteStringD1Ev(%"class.fxcrt::ByteString"* nonnull %19) #11
  call void @llvm.lifetime.end.p0i8(i64 8, i8* nonnull %81) #11
  %82 = bitcast %"class.fxcrt::WideString"* %20 to i8*
  call void @llvm.lifetime.start.p0i8(i64 8, i8* nonnull %82) #11
  %83 = getelementptr inbounds %"class.fxcrt::WideString", %"class.fxcrt::WideString"* %20, i64 0, i32 0, i32 0, i32 0, i32 0, i32 0
  store %"class.fxcrt::StringDataTemplate.315"* inttoptr (i64 -6148914691236517206 to %"class.fxcrt::StringDataTemplate.315"*), %"class.fxcrt::StringDataTemplate.315"** %83, align 8
  %84 = bitcast %"class.fxcrt::ByteString"* %21 to i8*
  call void @llvm.lifetime.start.p0i8(i64 8, i8* nonnull %84) #11
  call void @_ZN5fxcrt10ByteStringC1EPKc(%"class.fxcrt::ByteString"* nonnull %21, i8* getelementptr inbounds ([8 x i8], [8 x i8]* @.str.100, i64 0, i64 0)) #11
  call void @_ZNK15CPDF_Dictionary17GetUnicodeTextForERKN5fxcrt10ByteStringE(%"class.fxcrt::WideString"* nonnull sret %20, %class.CPDF_Dictionary* nonnull %54, %"class.fxcrt::ByteString"* nonnull dereferenceable(8) %21) #11
  call void @_ZN5fxcrt10ByteStringD1Ev(%"class.fxcrt::ByteString"* nonnull %21) #11
  call void @llvm.lifetime.end.p0i8(i64 8, i8* nonnull %84) #11
  %85 = getelementptr inbounds %class.CJS_Runtime, %class.CJS_Runtime* %2, i64 0, i32 1, i32 0
  %86 = call %"class.v8::Object"* @_ZN6CFX_V89NewObjectEv(%class.CFX_V8* %85) #11
  %87 = getelementptr inbounds %"class.fxcrt::StringViewTemplate.481", %"class.fxcrt::StringViewTemplate.481"* %22, i64 0, i32 0, i32 0, i32 0
  store i8* getelementptr inbounds ([7 x i8], [7 x i8]* @.str.92, i64 0, i64 0), i8** %87, align 8
  %88 = getelementptr inbounds %"class.fxcrt::StringViewTemplate.481", %"class.fxcrt::StringViewTemplate.481"* %22, i64 0, i32 0, i32 1
  store i64 6, i64* %88, align 8
  %89 = load %"class.fxcrt::StringDataTemplate.315"*, %"class.fxcrt::StringDataTemplate.315"** %59, align 8, !noalias !19
  %90 = icmp eq %"class.fxcrt::StringDataTemplate.315"* %89, null
  %91 = getelementptr inbounds %"class.fxcrt::StringDataTemplate.315", %"class.fxcrt::StringDataTemplate.315"* %89, i64 0, i32 3
  %92 = select i1 %90, [1 x i32]* @.str.103, [1 x i32]* %91
  %93 = getelementptr inbounds [1 x i32], [1 x i32]* %92, i64 0, i64 0
  br i1 %90, label %97, label %94

94:                                               ; preds = %57
  %95 = getelementptr inbounds %"class.fxcrt::StringDataTemplate.315", %"class.fxcrt::StringDataTemplate.315"* %89, i64 0, i32 1
  %96 = load i64, i64* %95, align 8, !noalias !19
  br label %97

97:                                               ; preds = %57, %94
  %98 = phi i64 [ %96, %94 ], [ 0, %57 ]
  %99 = getelementptr inbounds %"class.fxcrt::StringViewTemplate", %"class.fxcrt::StringViewTemplate"* %23, i64 0, i32 0, i32 0, i32 0
  store i32* %93, i32** %99, align 8, !alias.scope !19
  %100 = getelementptr inbounds %"class.fxcrt::StringViewTemplate", %"class.fxcrt::StringViewTemplate"* %23, i64 0, i32 0, i32 1
  store i64 %98, i64* %100, align 8, !alias.scope !19
  %101 = call %"class.v8::String"* @_ZN6CFX_V89NewStringEN5fxcrt18StringViewTemplateIwEE(%class.CFX_V8* %85, %"class.fxcrt::StringViewTemplate"* nonnull %23) #11
  %102 = bitcast %"class.v8::String"* %101 to %"class.v8::Value"*
  call void @_ZN6CFX_V817PutObjectPropertyEN2v85LocalINS0_6ObjectEEEN5fxcrt18StringViewTemplateIcEENS1_INS0_5ValueEEE(%class.CFX_V8* %85, %"class.v8::Object"* %86, %"class.fxcrt::StringViewTemplate.481"* nonnull %22, %"class.v8::Value"* %102) #11
  %103 = getelementptr inbounds %"class.fxcrt::StringViewTemplate.481", %"class.fxcrt::StringViewTemplate.481"* %24, i64 0, i32 0, i32 0, i32 0
  store i8* getelementptr inbounds ([6 x i8], [6 x i8]* @.str.93, i64 0, i64 0), i8** %103, align 8
  %104 = getelementptr inbounds %"class.fxcrt::StringViewTemplate.481", %"class.fxcrt::StringViewTemplate.481"* %24, i64 0, i32 0, i32 1
  store i64 5, i64* %104, align 8
  %105 = load %"class.fxcrt::StringDataTemplate.315"*, %"class.fxcrt::StringDataTemplate.315"** %62, align 8, !noalias !22
  %106 = icmp eq %"class.fxcrt::StringDataTemplate.315"* %105, null
  %107 = getelementptr inbounds %"class.fxcrt::StringDataTemplate.315", %"class.fxcrt::StringDataTemplate.315"* %105, i64 0, i32 3
  %108 = select i1 %106, [1 x i32]* @.str.103, [1 x i32]* %107
  %109 = getelementptr inbounds [1 x i32], [1 x i32]* %108, i64 0, i64 0
  br i1 %106, label %113, label %110

110:                                              ; preds = %97
  %111 = getelementptr inbounds %"class.fxcrt::StringDataTemplate.315", %"class.fxcrt::StringDataTemplate.315"* %105, i64 0, i32 1
  %112 = load i64, i64* %111, align 8, !noalias !22
  br label %113

113:                                              ; preds = %97, %110
  %114 = phi i64 [ %112, %110 ], [ 0, %97 ]
  %115 = getelementptr inbounds %"class.fxcrt::StringViewTemplate", %"class.fxcrt::StringViewTemplate"* %25, i64 0, i32 0, i32 0, i32 0
  store i32* %109, i32** %115, align 8, !alias.scope !22
  %116 = getelementptr inbounds %"class.fxcrt::StringViewTemplate", %"class.fxcrt::StringViewTemplate"* %25, i64 0, i32 0, i32 1
  store i64 %114, i64* %116, align 8, !alias.scope !22
  %117 = call %"class.v8::String"* @_ZN6CFX_V89NewStringEN5fxcrt18StringViewTemplateIwEE(%class.CFX_V8* %85, %"class.fxcrt::StringViewTemplate"* nonnull %25) #11
  %118 = bitcast %"class.v8::String"* %117 to %"class.v8::Value"*
  call void @_ZN6CFX_V817PutObjectPropertyEN2v85LocalINS0_6ObjectEEEN5fxcrt18StringViewTemplateIcEENS1_INS0_5ValueEEE(%class.CFX_V8* %85, %"class.v8::Object"* %86, %"class.fxcrt::StringViewTemplate.481"* nonnull %24, %"class.v8::Value"* %118) #11
  %119 = getelementptr inbounds %"class.fxcrt::StringViewTemplate.481", %"class.fxcrt::StringViewTemplate.481"* %26, i64 0, i32 0, i32 0, i32 0
  store i8* getelementptr inbounds ([8 x i8], [8 x i8]* @.str.94, i64 0, i64 0), i8** %119, align 8
  %120 = getelementptr inbounds %"class.fxcrt::StringViewTemplate.481", %"class.fxcrt::StringViewTemplate.481"* %26, i64 0, i32 0, i32 1
  store i64 7, i64* %120, align 8
  %121 = load %"class.fxcrt::StringDataTemplate.315"*, %"class.fxcrt::StringDataTemplate.315"** %65, align 8, !noalias !25
  %122 = icmp eq %"class.fxcrt::StringDataTemplate.315"* %121, null
  %123 = getelementptr inbounds %"class.fxcrt::StringDataTemplate.315", %"class.fxcrt::StringDataTemplate.315"* %121, i64 0, i32 3
  %124 = select i1 %122, [1 x i32]* @.str.103, [1 x i32]* %123
  %125 = getelementptr inbounds [1 x i32], [1 x i32]* %124, i64 0, i64 0
  br i1 %122, label %129, label %126

126:                                              ; preds = %113
  %127 = getelementptr inbounds %"class.fxcrt::StringDataTemplate.315", %"class.fxcrt::StringDataTemplate.315"* %121, i64 0, i32 1
  %128 = load i64, i64* %127, align 8, !noalias !25
  br label %129

129:                                              ; preds = %113, %126
  %130 = phi i64 [ %128, %126 ], [ 0, %113 ]
  %131 = getelementptr inbounds %"class.fxcrt::StringViewTemplate", %"class.fxcrt::StringViewTemplate"* %27, i64 0, i32 0, i32 0, i32 0
  store i32* %125, i32** %131, align 8, !alias.scope !25
  %132 = getelementptr inbounds %"class.fxcrt::StringViewTemplate", %"class.fxcrt::StringViewTemplate"* %27, i64 0, i32 0, i32 1
  store i64 %130, i64* %132, align 8, !alias.scope !25
  %133 = call %"class.v8::String"* @_ZN6CFX_V89NewStringEN5fxcrt18StringViewTemplateIwEE(%class.CFX_V8* %85, %"class.fxcrt::StringViewTemplate"* nonnull %27) #11
  %134 = bitcast %"class.v8::String"* %133 to %"class.v8::Value"*
  call void @_ZN6CFX_V817PutObjectPropertyEN2v85LocalINS0_6ObjectEEEN5fxcrt18StringViewTemplateIcEENS1_INS0_5ValueEEE(%class.CFX_V8* %85, %"class.v8::Object"* %86, %"class.fxcrt::StringViewTemplate.481"* nonnull %26, %"class.v8::Value"* %134) #11
  %135 = getelementptr inbounds %"class.fxcrt::StringViewTemplate.481", %"class.fxcrt::StringViewTemplate.481"* %28, i64 0, i32 0, i32 0, i32 0
  store i8* getelementptr inbounds ([9 x i8], [9 x i8]* @.str.95, i64 0, i64 0), i8** %135, align 8
  %136 = getelementptr inbounds %"class.fxcrt::StringViewTemplate.481", %"class.fxcrt::StringViewTemplate.481"* %28, i64 0, i32 0, i32 1
  store i64 8, i64* %136, align 8
  %137 = load %"class.fxcrt::StringDataTemplate.315"*, %"class.fxcrt::StringDataTemplate.315"** %68, align 8, !noalias !28
  %138 = icmp eq %"class.fxcrt::StringDataTemplate.315"* %137, null
  %139 = getelementptr inbounds %"class.fxcrt::StringDataTemplate.315", %"class.fxcrt::StringDataTemplate.315"* %137, i64 0, i32 3
  %140 = select i1 %138, [1 x i32]* @.str.103, [1 x i32]* %139
  %141 = getelementptr inbounds [1 x i32], [1 x i32]* %140, i64 0, i64 0
  br i1 %138, label %145, label %142

142:                                              ; preds = %129
  %143 = getelementptr inbounds %"class.fxcrt::StringDataTemplate.315", %"class.fxcrt::StringDataTemplate.315"* %137, i64 0, i32 1
  %144 = load i64, i64* %143, align 8, !noalias !28
  br label %145

145:                                              ; preds = %129, %142
  %146 = phi i64 [ %144, %142 ], [ 0, %129 ]
  %147 = getelementptr inbounds %"class.fxcrt::StringViewTemplate", %"class.fxcrt::StringViewTemplate"* %29, i64 0, i32 0, i32 0, i32 0
  store i32* %141, i32** %147, align 8, !alias.scope !28
  %148 = getelementptr inbounds %"class.fxcrt::StringViewTemplate", %"class.fxcrt::StringViewTemplate"* %29, i64 0, i32 0, i32 1
  store i64 %146, i64* %148, align 8, !alias.scope !28
  %149 = call %"class.v8::String"* @_ZN6CFX_V89NewStringEN5fxcrt18StringViewTemplateIwEE(%class.CFX_V8* %85, %"class.fxcrt::StringViewTemplate"* nonnull %29) #11
  %150 = bitcast %"class.v8::String"* %149 to %"class.v8::Value"*
  call void @_ZN6CFX_V817PutObjectPropertyEN2v85LocalINS0_6ObjectEEEN5fxcrt18StringViewTemplateIcEENS1_INS0_5ValueEEE(%class.CFX_V8* %85, %"class.v8::Object"* %86, %"class.fxcrt::StringViewTemplate.481"* nonnull %28, %"class.v8::Value"* %150) #11
  %151 = getelementptr inbounds %"class.fxcrt::StringViewTemplate.481", %"class.fxcrt::StringViewTemplate.481"* %30, i64 0, i32 0, i32 0, i32 0
  store i8* getelementptr inbounds ([8 x i8], [8 x i8]* @.str.96, i64 0, i64 0), i8** %151, align 8
  %152 = getelementptr inbounds %"class.fxcrt::StringViewTemplate.481", %"class.fxcrt::StringViewTemplate.481"* %30, i64 0, i32 0, i32 1
  store i64 7, i64* %152, align 8
  %153 = load %"class.fxcrt::StringDataTemplate.315"*, %"class.fxcrt::StringDataTemplate.315"** %71, align 8, !noalias !31
  %154 = icmp eq %"class.fxcrt::StringDataTemplate.315"* %153, null
  %155 = getelementptr inbounds %"class.fxcrt::StringDataTemplate.315", %"class.fxcrt::StringDataTemplate.315"* %153, i64 0, i32 3
  %156 = select i1 %154, [1 x i32]* @.str.103, [1 x i32]* %155
  %157 = getelementptr inbounds [1 x i32], [1 x i32]* %156, i64 0, i64 0
  br i1 %154, label %161, label %158

158:                                              ; preds = %145
  %159 = getelementptr inbounds %"class.fxcrt::StringDataTemplate.315", %"class.fxcrt::StringDataTemplate.315"* %153, i64 0, i32 1
  %160 = load i64, i64* %159, align 8, !noalias !31
  br label %161

161:                                              ; preds = %145, %158
  %162 = phi i64 [ %160, %158 ], [ 0, %145 ]
  %163 = getelementptr inbounds %"class.fxcrt::StringViewTemplate", %"class.fxcrt::StringViewTemplate"* %31, i64 0, i32 0, i32 0, i32 0
  store i32* %157, i32** %163, align 8, !alias.scope !31
  %164 = getelementptr inbounds %"class.fxcrt::StringViewTemplate", %"class.fxcrt::StringViewTemplate"* %31, i64 0, i32 0, i32 1
  store i64 %162, i64* %164, align 8, !alias.scope !31
  %165 = call %"class.v8::String"* @_ZN6CFX_V89NewStringEN5fxcrt18StringViewTemplateIwEE(%class.CFX_V8* %85, %"class.fxcrt::StringViewTemplate"* nonnull %31) #11
  %166 = bitcast %"class.v8::String"* %165 to %"class.v8::Value"*
  call void @_ZN6CFX_V817PutObjectPropertyEN2v85LocalINS0_6ObjectEEEN5fxcrt18StringViewTemplateIcEENS1_INS0_5ValueEEE(%class.CFX_V8* %85, %"class.v8::Object"* %86, %"class.fxcrt::StringViewTemplate.481"* nonnull %30, %"class.v8::Value"* %166) #11
  %167 = getelementptr inbounds %"class.fxcrt::StringViewTemplate.481", %"class.fxcrt::StringViewTemplate.481"* %32, i64 0, i32 0, i32 0, i32 0
  store i8* getelementptr inbounds ([9 x i8], [9 x i8]* @.str.97, i64 0, i64 0), i8** %167, align 8
  %168 = getelementptr inbounds %"class.fxcrt::StringViewTemplate.481", %"class.fxcrt::StringViewTemplate.481"* %32, i64 0, i32 0, i32 1
  store i64 8, i64* %168, align 8
  %169 = load %"class.fxcrt::StringDataTemplate.315"*, %"class.fxcrt::StringDataTemplate.315"** %74, align 8, !noalias !34
  %170 = icmp eq %"class.fxcrt::StringDataTemplate.315"* %169, null
  %171 = getelementptr inbounds %"class.fxcrt::StringDataTemplate.315", %"class.fxcrt::StringDataTemplate.315"* %169, i64 0, i32 3
  %172 = select i1 %170, [1 x i32]* @.str.103, [1 x i32]* %171
  %173 = getelementptr inbounds [1 x i32], [1 x i32]* %172, i64 0, i64 0
  br i1 %170, label %177, label %174

174:                                              ; preds = %161
  %175 = getelementptr inbounds %"class.fxcrt::StringDataTemplate.315", %"class.fxcrt::StringDataTemplate.315"* %169, i64 0, i32 1
  %176 = load i64, i64* %175, align 8, !noalias !34
  br label %177

177:                                              ; preds = %161, %174
  %178 = phi i64 [ %176, %174 ], [ 0, %161 ]
  %179 = getelementptr inbounds %"class.fxcrt::StringViewTemplate", %"class.fxcrt::StringViewTemplate"* %33, i64 0, i32 0, i32 0, i32 0
  store i32* %173, i32** %179, align 8, !alias.scope !34
  %180 = getelementptr inbounds %"class.fxcrt::StringViewTemplate", %"class.fxcrt::StringViewTemplate"* %33, i64 0, i32 0, i32 1
  store i64 %178, i64* %180, align 8, !alias.scope !34
  %181 = call %"class.v8::String"* @_ZN6CFX_V89NewStringEN5fxcrt18StringViewTemplateIwEE(%class.CFX_V8* %85, %"class.fxcrt::StringViewTemplate"* nonnull %33) #11
  %182 = bitcast %"class.v8::String"* %181 to %"class.v8::Value"*
  call void @_ZN6CFX_V817PutObjectPropertyEN2v85LocalINS0_6ObjectEEEN5fxcrt18StringViewTemplateIcEENS1_INS0_5ValueEEE(%class.CFX_V8* %85, %"class.v8::Object"* %86, %"class.fxcrt::StringViewTemplate.481"* nonnull %32, %"class.v8::Value"* %182) #11
  %183 = getelementptr inbounds %"class.fxcrt::StringViewTemplate.481", %"class.fxcrt::StringViewTemplate.481"* %34, i64 0, i32 0, i32 0, i32 0
  store i8* getelementptr inbounds ([13 x i8], [13 x i8]* @.str.98, i64 0, i64 0), i8** %183, align 8
  %184 = getelementptr inbounds %"class.fxcrt::StringViewTemplate.481", %"class.fxcrt::StringViewTemplate.481"* %34, i64 0, i32 0, i32 1
  store i64 12, i64* %184, align 8
  %185 = load %"class.fxcrt::StringDataTemplate.315"*, %"class.fxcrt::StringDataTemplate.315"** %77, align 8, !noalias !37
  %186 = icmp eq %"class.fxcrt::StringDataTemplate.315"* %185, null
  %187 = getelementptr inbounds %"class.fxcrt::StringDataTemplate.315", %"class.fxcrt::StringDataTemplate.315"* %185, i64 0, i32 3
  %188 = select i1 %186, [1 x i32]* @.str.103, [1 x i32]* %187
  %189 = getelementptr inbounds [1 x i32], [1 x i32]* %188, i64 0, i64 0
  br i1 %186, label %193, label %190

190:                                              ; preds = %177
  %191 = getelementptr inbounds %"class.fxcrt::StringDataTemplate.315", %"class.fxcrt::StringDataTemplate.315"* %185, i64 0, i32 1
  %192 = load i64, i64* %191, align 8, !noalias !37
  br label %193

193:                                              ; preds = %177, %190
  %194 = phi i64 [ %192, %190 ], [ 0, %177 ]
  %195 = getelementptr inbounds %"class.fxcrt::StringViewTemplate", %"class.fxcrt::StringViewTemplate"* %35, i64 0, i32 0, i32 0, i32 0
  store i32* %189, i32** %195, align 8, !alias.scope !37
  %196 = getelementptr inbounds %"class.fxcrt::StringViewTemplate", %"class.fxcrt::StringViewTemplate"* %35, i64 0, i32 0, i32 1
  store i64 %194, i64* %196, align 8, !alias.scope !37
  %197 = call %"class.v8::String"* @_ZN6CFX_V89NewStringEN5fxcrt18StringViewTemplateIwEE(%class.CFX_V8* %85, %"class.fxcrt::StringViewTemplate"* nonnull %35) #11
  %198 = bitcast %"class.v8::String"* %197 to %"class.v8::Value"*
  call void @_ZN6CFX_V817PutObjectPropertyEN2v85LocalINS0_6ObjectEEEN5fxcrt18StringViewTemplateIcEENS1_INS0_5ValueEEE(%class.CFX_V8* %85, %"class.v8::Object"* %86, %"class.fxcrt::StringViewTemplate.481"* nonnull %34, %"class.v8::Value"* %198) #11
  %199 = getelementptr inbounds %"class.fxcrt::StringViewTemplate.481", %"class.fxcrt::StringViewTemplate.481"* %36, i64 0, i32 0, i32 0, i32 0
  store i8* getelementptr inbounds ([8 x i8], [8 x i8]* @.str.99, i64 0, i64 0), i8** %199, align 8
  %200 = getelementptr inbounds %"class.fxcrt::StringViewTemplate.481", %"class.fxcrt::StringViewTemplate.481"* %36, i64 0, i32 0, i32 1
  store i64 7, i64* %200, align 8
  %201 = load %"class.fxcrt::StringDataTemplate.315"*, %"class.fxcrt::StringDataTemplate.315"** %80, align 8, !noalias !40
  %202 = icmp eq %"class.fxcrt::StringDataTemplate.315"* %201, null
  %203 = getelementptr inbounds %"class.fxcrt::StringDataTemplate.315", %"class.fxcrt::StringDataTemplate.315"* %201, i64 0, i32 3
  %204 = select i1 %202, [1 x i32]* @.str.103, [1 x i32]* %203
  %205 = getelementptr inbounds [1 x i32], [1 x i32]* %204, i64 0, i64 0
  br i1 %202, label %209, label %206

206:                                              ; preds = %193
  %207 = getelementptr inbounds %"class.fxcrt::StringDataTemplate.315", %"class.fxcrt::StringDataTemplate.315"* %201, i64 0, i32 1
  %208 = load i64, i64* %207, align 8, !noalias !40
  br label %209

209:                                              ; preds = %193, %206
  %210 = phi i64 [ %208, %206 ], [ 0, %193 ]
  %211 = getelementptr inbounds %"class.fxcrt::StringViewTemplate", %"class.fxcrt::StringViewTemplate"* %37, i64 0, i32 0, i32 0, i32 0
  store i32* %205, i32** %211, align 8, !alias.scope !40
  %212 = getelementptr inbounds %"class.fxcrt::StringViewTemplate", %"class.fxcrt::StringViewTemplate"* %37, i64 0, i32 0, i32 1
  store i64 %210, i64* %212, align 8, !alias.scope !40
  %213 = call %"class.v8::String"* @_ZN6CFX_V89NewStringEN5fxcrt18StringViewTemplateIwEE(%class.CFX_V8* %85, %"class.fxcrt::StringViewTemplate"* nonnull %37) #11
  %214 = bitcast %"class.v8::String"* %213 to %"class.v8::Value"*
  call void @_ZN6CFX_V817PutObjectPropertyEN2v85LocalINS0_6ObjectEEEN5fxcrt18StringViewTemplateIcEENS1_INS0_5ValueEEE(%class.CFX_V8* %85, %"class.v8::Object"* %86, %"class.fxcrt::StringViewTemplate.481"* nonnull %36, %"class.v8::Value"* %214) #11
  %215 = getelementptr inbounds %"class.fxcrt::StringViewTemplate.481", %"class.fxcrt::StringViewTemplate.481"* %38, i64 0, i32 0, i32 0, i32 0
  store i8* getelementptr inbounds ([8 x i8], [8 x i8]* @.str.100, i64 0, i64 0), i8** %215, align 8
  %216 = getelementptr inbounds %"class.fxcrt::StringViewTemplate.481", %"class.fxcrt::StringViewTemplate.481"* %38, i64 0, i32 0, i32 1
  store i64 7, i64* %216, align 8
  %217 = load %"class.fxcrt::StringDataTemplate.315"*, %"class.fxcrt::StringDataTemplate.315"** %83, align 8, !noalias !43
  %218 = icmp eq %"class.fxcrt::StringDataTemplate.315"* %217, null
  %219 = getelementptr inbounds %"class.fxcrt::StringDataTemplate.315", %"class.fxcrt::StringDataTemplate.315"* %217, i64 0, i32 3
  %220 = select i1 %218, [1 x i32]* @.str.103, [1 x i32]* %219
  %221 = getelementptr inbounds [1 x i32], [1 x i32]* %220, i64 0, i64 0
  br i1 %218, label %225, label %222

222:                                              ; preds = %209
  %223 = getelementptr inbounds %"class.fxcrt::StringDataTemplate.315", %"class.fxcrt::StringDataTemplate.315"* %217, i64 0, i32 1
  %224 = load i64, i64* %223, align 8, !noalias !43
  br label %225

225:                                              ; preds = %209, %222
  %226 = phi i64 [ %224, %222 ], [ 0, %209 ]
  %227 = getelementptr inbounds %"class.fxcrt::StringViewTemplate", %"class.fxcrt::StringViewTemplate"* %39, i64 0, i32 0, i32 0, i32 0
  store i32* %221, i32** %227, align 8, !alias.scope !43
  %228 = getelementptr inbounds %"class.fxcrt::StringViewTemplate", %"class.fxcrt::StringViewTemplate"* %39, i64 0, i32 0, i32 1
  store i64 %226, i64* %228, align 8, !alias.scope !43
  %229 = call %"class.v8::String"* @_ZN6CFX_V89NewStringEN5fxcrt18StringViewTemplateIwEE(%class.CFX_V8* %85, %"class.fxcrt::StringViewTemplate"* nonnull %39) #11
  %230 = bitcast %"class.v8::String"* %229 to %"class.v8::Value"*
  call void @_ZN6CFX_V817PutObjectPropertyEN2v85LocalINS0_6ObjectEEEN5fxcrt18StringViewTemplateIcEENS1_INS0_5ValueEEE(%class.CFX_V8* %85, %"class.v8::Object"* %86, %"class.fxcrt::StringViewTemplate.481"* nonnull %38, %"class.v8::Value"* %230) #11
  %231 = bitcast %"class.fxcrt::RetainPtr.484"* %40 to i8*
  call void @llvm.lifetime.start.p0i8(i64 8, i8* nonnull %231) #11
  %232 = getelementptr inbounds %"class.fxcrt::RetainPtr.484", %"class.fxcrt::RetainPtr.484"* %40, i64 0, i32 0, i32 0, i32 0, i32 0
  store %class.CPDF_Object* inttoptr (i64 -6148914691236517206 to %class.CPDF_Object*), %class.CPDF_Object** %232, align 8
  call void @_ZNK15CPDF_Dictionary5CloneEv(%"class.fxcrt::RetainPtr.484"* nonnull sret %40, %class.CPDF_Dictionary* nonnull %54) #11
  %233 = bitcast %class.CPDF_DictionaryLocker* %41 to i8*
  call void @llvm.lifetime.start.p0i8(i64 8, i8* nonnull %233) #11
  %234 = getelementptr inbounds %class.CPDF_DictionaryLocker, %class.CPDF_DictionaryLocker* %41, i64 0, i32 0, i32 0, i32 0, i32 0, i32 0
  store %class.CPDF_Dictionary* inttoptr (i64 -6148914691236517206 to %class.CPDF_Dictionary*), %class.CPDF_Dictionary** %234, align 8
  %235 = load %class.CPDF_Object*, %class.CPDF_Object** %232, align 8
  %236 = icmp eq %class.CPDF_Object* %235, null
  br i1 %236, label %243, label %237

237:                                              ; preds = %225
  %238 = bitcast %class.CPDF_Object* %235 to %class.CPDF_Dictionary* (%class.CPDF_Object*)***
  %239 = load %class.CPDF_Dictionary* (%class.CPDF_Object*)**, %class.CPDF_Dictionary* (%class.CPDF_Object*)*** %238, align 8
  %240 = getelementptr inbounds %class.CPDF_Dictionary* (%class.CPDF_Object*)*, %class.CPDF_Dictionary* (%class.CPDF_Object*)** %239, i64 27
  %241 = load %class.CPDF_Dictionary* (%class.CPDF_Object*)*, %class.CPDF_Dictionary* (%class.CPDF_Object*)** %240, align 8
  %242 = call %class.CPDF_Dictionary* %241(%class.CPDF_Object* nonnull %235) #11
  br label %243

243:                                              ; preds = %225, %237
  %244 = phi %class.CPDF_Dictionary* [ %242, %237 ], [ null, %225 ]
  call void @_ZN21CPDF_DictionaryLockerC1EPK15CPDF_Dictionary(%class.CPDF_DictionaryLocker* nonnull %41, %class.CPDF_Dictionary* %244) #11
  %245 = load %class.CPDF_Dictionary*, %class.CPDF_Dictionary** %234, align 8
  %246 = getelementptr inbounds %class.CPDF_Dictionary, %class.CPDF_Dictionary* %245, i64 0, i32 1
  %247 = load i32, i32* %246, align 8
  %248 = icmp eq i32 %247, 0
  br i1 %248, label %249, label %250, !prof !46

249:                                              ; preds = %243
  call void asm sideeffect "int3", "~{dirflag},~{fpsr},~{flags}"() #11, !srcloc !47
  call void asm sideeffect "ud2", "~{dirflag},~{fpsr},~{flags}"() #11, !srcloc !48
  unreachable

250:                                              ; preds = %243
  %251 = getelementptr inbounds %class.CPDF_Dictionary, %class.CPDF_Dictionary* %245, i64 0, i32 3, i32 0, i32 0
  %252 = load %"class.std::__1::__tree_end_node"*, %"class.std::__1::__tree_end_node"** %251, align 8
  %253 = getelementptr inbounds %class.CPDF_Dictionary, %class.CPDF_Dictionary* %245, i64 0, i32 3, i32 0, i32 1, i32 0, i32 0
  %254 = icmp eq %"class.std::__1::__tree_end_node"* %252, %253
  br i1 %254, label %266, label %255

255:                                              ; preds = %250
  %256 = getelementptr inbounds %"class.fxcrt::StringViewTemplate.481", %"class.fxcrt::StringViewTemplate.481"* %46, i64 0, i32 0, i32 0, i32 0
  %257 = getelementptr inbounds %"class.fxcrt::StringViewTemplate.481", %"class.fxcrt::StringViewTemplate.481"* %46, i64 0, i32 0, i32 1
  %258 = getelementptr inbounds %"class.fxcrt::StringViewTemplate.481", %"class.fxcrt::StringViewTemplate.481"* %45, i64 0, i32 0, i32 0, i32 0
  %259 = getelementptr inbounds %"class.fxcrt::StringViewTemplate.481", %"class.fxcrt::StringViewTemplate.481"* %45, i64 0, i32 0, i32 1
  %260 = getelementptr inbounds %"class.fxcrt::StringViewTemplate.481", %"class.fxcrt::StringViewTemplate.481"* %42, i64 0, i32 0, i32 0, i32 0
  %261 = getelementptr inbounds %"class.fxcrt::StringViewTemplate.481", %"class.fxcrt::StringViewTemplate.481"* %42, i64 0, i32 0, i32 1
  %262 = bitcast %"class.fxcrt::WideString"* %44 to i8*
  %263 = getelementptr inbounds %"class.fxcrt::WideString", %"class.fxcrt::WideString"* %44, i64 0, i32 0, i32 0, i32 0, i32 0, i32 0
  %264 = getelementptr inbounds %"class.fxcrt::StringViewTemplate", %"class.fxcrt::StringViewTemplate"* %43, i64 0, i32 0, i32 0, i32 0
  %265 = getelementptr inbounds %"class.fxcrt::StringViewTemplate", %"class.fxcrt::StringViewTemplate"* %43, i64 0, i32 0, i32 1
  br label %282

266:                                              ; preds = %400, %250
  %267 = bitcast %"class.v8::Object"* %86 to %"class.v8::Value"*
  call void @_ZN10CJS_ResultC1EN2v85LocalINS0_5ValueEEE(%class.CJS_Result* %0, %"class.v8::Value"* %267) #11
  call void @_ZN21CPDF_DictionaryLockerD1Ev(%class.CPDF_DictionaryLocker* nonnull %41) #11
  call void @llvm.lifetime.end.p0i8(i64 8, i8* nonnull %233) #11
  %268 = load %class.CPDF_Object*, %class.CPDF_Object** %232, align 8
  store %class.CPDF_Object* null, %class.CPDF_Object** %232, align 8
  %269 = icmp eq %class.CPDF_Object* %268, null
  br i1 %269, label %281, label %270

270:                                              ; preds = %266
  %271 = getelementptr inbounds %class.CPDF_Object, %class.CPDF_Object* %268, i64 0, i32 0, i32 1
  %272 = load i64, i64* %271, align 8
  %273 = add nsw i64 %272, -1
  store i64 %273, i64* %271, align 8
  %274 = icmp eq i64 %273, 0
  br i1 %274, label %275, label %281

275:                                              ; preds = %270
  %276 = getelementptr inbounds %class.CPDF_Object, %class.CPDF_Object* %268, i64 0, i32 0
  %277 = bitcast %class.CPDF_Object* %268 to void (%"class.fxcrt::Retainable"*)***
  %278 = load void (%"class.fxcrt::Retainable"*)**, void (%"class.fxcrt::Retainable"*)*** %277, align 8
  %279 = getelementptr inbounds void (%"class.fxcrt::Retainable"*)*, void (%"class.fxcrt::Retainable"*)** %278, i64 1
  %280 = load void (%"class.fxcrt::Retainable"*)*, void (%"class.fxcrt::Retainable"*)** %279, align 8
  call void %280(%"class.fxcrt::Retainable"* nonnull %276) #11
  br label %281

281:                                              ; preds = %266, %270, %275
  call void @llvm.lifetime.end.p0i8(i64 8, i8* nonnull %231) #11
  call void @_ZN5fxcrt10WideStringD1Ev(%"class.fxcrt::WideString"* nonnull %20) #11
  call void @llvm.lifetime.end.p0i8(i64 8, i8* nonnull %82) #11
  call void @_ZN5fxcrt10WideStringD1Ev(%"class.fxcrt::WideString"* nonnull %18) #11
  call void @llvm.lifetime.end.p0i8(i64 8, i8* nonnull %79) #11
  call void @_ZN5fxcrt10WideStringD1Ev(%"class.fxcrt::WideString"* nonnull %16) #11
  call void @llvm.lifetime.end.p0i8(i64 8, i8* nonnull %76) #11
  call void @_ZN5fxcrt10WideStringD1Ev(%"class.fxcrt::WideString"* nonnull %14) #11
  call void @llvm.lifetime.end.p0i8(i64 8, i8* nonnull %73) #11
  call void @_ZN5fxcrt10WideStringD1Ev(%"class.fxcrt::WideString"* nonnull %12) #11
  call void @llvm.lifetime.end.p0i8(i64 8, i8* nonnull %70) #11
  call void @_ZN5fxcrt10WideStringD1Ev(%"class.fxcrt::WideString"* nonnull %10) #11
  call void @llvm.lifetime.end.p0i8(i64 8, i8* nonnull %67) #11
  call void @_ZN5fxcrt10WideStringD1Ev(%"class.fxcrt::WideString"* nonnull %8) #11
  call void @llvm.lifetime.end.p0i8(i64 8, i8* nonnull %64) #11
  call void @_ZN5fxcrt10WideStringD1Ev(%"class.fxcrt::WideString"* nonnull %6) #11
  call void @llvm.lifetime.end.p0i8(i64 8, i8* nonnull %61) #11
  call void @_ZN5fxcrt10WideStringD1Ev(%"class.fxcrt::WideString"* nonnull %4) #11
  call void @llvm.lifetime.end.p0i8(i64 8, i8* nonnull %58) #11
  br label %403

282:                                              ; preds = %255, %400
  %283 = phi %"class.std::__1::__tree_end_node"* [ %252, %255 ], [ %401, %400 ]
  %284 = getelementptr inbounds %"class.std::__1::__tree_end_node", %"class.std::__1::__tree_end_node"* %283, i64 4
  %285 = getelementptr inbounds %"class.std::__1::__tree_end_node", %"class.std::__1::__tree_end_node"* %283, i64 5
  %286 = bitcast %"class.std::__1::__tree_end_node"* %285 to %class.CPDF_Object**
  %287 = load %class.CPDF_Object*, %class.CPDF_Object** %286, align 8
  %288 = bitcast %class.CPDF_Object* %287 to i1 (%class.CPDF_Object*)***
  %289 = load i1 (%class.CPDF_Object*)**, i1 (%class.CPDF_Object*)*** %288, align 8
  %290 = getelementptr inbounds i1 (%class.CPDF_Object*)*, i1 (%class.CPDF_Object*)** %289, i64 21
  %291 = load i1 (%class.CPDF_Object*)*, i1 (%class.CPDF_Object*)** %290, align 8
  %292 = call zeroext i1 %291(%class.CPDF_Object* %287) #11
  br i1 %292, label %298, label %293

293:                                              ; preds = %282
  %294 = load i1 (%class.CPDF_Object*)**, i1 (%class.CPDF_Object*)*** %288, align 8
  %295 = getelementptr inbounds i1 (%class.CPDF_Object*)*, i1 (%class.CPDF_Object*)** %294, i64 17
  %296 = load i1 (%class.CPDF_Object*)*, i1 (%class.CPDF_Object*)** %295, align 8
  %297 = call zeroext i1 %296(%class.CPDF_Object* %287) #11
  br i1 %297, label %298, label %325

298:                                              ; preds = %293, %282
  %299 = bitcast %"class.std::__1::__tree_end_node"* %284 to %"class.fxcrt::StringDataTemplate"**
  %300 = load %"class.fxcrt::StringDataTemplate"*, %"class.fxcrt::StringDataTemplate"** %299, align 8, !noalias !49
  %301 = icmp eq %"class.fxcrt::StringDataTemplate"* %300, null
  %302 = getelementptr inbounds %"class.fxcrt::StringDataTemplate", %"class.fxcrt::StringDataTemplate"* %300, i64 0, i32 3, i64 0
  %303 = select i1 %301, i8* null, i8* %302
  br i1 %301, label %307, label %304

304:                                              ; preds = %298
  %305 = getelementptr inbounds %"class.fxcrt::StringDataTemplate", %"class.fxcrt::StringDataTemplate"* %300, i64 0, i32 1
  %306 = load i64, i64* %305, align 8, !noalias !49
  br label %307

307:                                              ; preds = %298, %304
  %308 = phi i64 [ %306, %304 ], [ 0, %298 ]
  store i8* %303, i8** %260, align 8, !alias.scope !49
  store i64 %308, i64* %261, align 8, !alias.scope !49
  call void @llvm.lifetime.start.p0i8(i64 8, i8* nonnull %262) #11
  %309 = bitcast %class.CPDF_Object* %287 to void (%"class.fxcrt::WideString"*, %class.CPDF_Object*)***
  %310 = load void (%"class.fxcrt::WideString"*, %class.CPDF_Object*)**, void (%"class.fxcrt::WideString"*, %class.CPDF_Object*)*** %309, align 8
  %311 = getelementptr inbounds void (%"class.fxcrt::WideString"*, %class.CPDF_Object*)*, void (%"class.fxcrt::WideString"*, %class.CPDF_Object*)** %310, i64 8
  %312 = load void (%"class.fxcrt::WideString"*, %class.CPDF_Object*)*, void (%"class.fxcrt::WideString"*, %class.CPDF_Object*)** %311, align 8
  call void %312(%"class.fxcrt::WideString"* nonnull sret %44, %class.CPDF_Object* %287) #11
  %313 = load %"class.fxcrt::StringDataTemplate.315"*, %"class.fxcrt::StringDataTemplate.315"** %263, align 8, !noalias !52
  %314 = icmp eq %"class.fxcrt::StringDataTemplate.315"* %313, null
  %315 = getelementptr inbounds %"class.fxcrt::StringDataTemplate.315", %"class.fxcrt::StringDataTemplate.315"* %313, i64 0, i32 3
  %316 = select i1 %314, [1 x i32]* @.str.103, [1 x i32]* %315
  %317 = getelementptr inbounds [1 x i32], [1 x i32]* %316, i64 0, i64 0
  br i1 %314, label %321, label %318

318:                                              ; preds = %307
  %319 = getelementptr inbounds %"class.fxcrt::StringDataTemplate.315", %"class.fxcrt::StringDataTemplate.315"* %313, i64 0, i32 1
  %320 = load i64, i64* %319, align 8, !noalias !52
  br label %321

321:                                              ; preds = %307, %318
  %322 = phi i64 [ %320, %318 ], [ 0, %307 ]
  store i32* %317, i32** %264, align 8, !alias.scope !52
  store i64 %322, i64* %265, align 8, !alias.scope !52
  %323 = call %"class.v8::String"* @_ZN6CFX_V89NewStringEN5fxcrt18StringViewTemplateIwEE(%class.CFX_V8* %85, %"class.fxcrt::StringViewTemplate"* nonnull %43) #11
  %324 = bitcast %"class.v8::String"* %323 to %"class.v8::Value"*
  call void @_ZN6CFX_V817PutObjectPropertyEN2v85LocalINS0_6ObjectEEEN5fxcrt18StringViewTemplateIcEENS1_INS0_5ValueEEE(%class.CFX_V8* %85, %"class.v8::Object"* %86, %"class.fxcrt::StringViewTemplate.481"* nonnull %42, %"class.v8::Value"* %324) #11
  call void @_ZN5fxcrt10WideStringD1Ev(%"class.fxcrt::WideString"* nonnull %44) #11
  call void @llvm.lifetime.end.p0i8(i64 8, i8* nonnull %262) #11
  br label %372

325:                                              ; preds = %293
  %326 = load i1 (%class.CPDF_Object*)**, i1 (%class.CPDF_Object*)*** %288, align 8
  %327 = getelementptr inbounds i1 (%class.CPDF_Object*)*, i1 (%class.CPDF_Object*)** %326, i64 18
  %328 = load i1 (%class.CPDF_Object*)*, i1 (%class.CPDF_Object*)** %327, align 8
  %329 = call zeroext i1 %328(%class.CPDF_Object* %287) #11
  br i1 %329, label %330, label %348

330:                                              ; preds = %325
  %331 = bitcast %"class.std::__1::__tree_end_node"* %284 to %"class.fxcrt::StringDataTemplate"**
  %332 = load %"class.fxcrt::StringDataTemplate"*, %"class.fxcrt::StringDataTemplate"** %331, align 8, !noalias !55
  %333 = icmp eq %"class.fxcrt::StringDataTemplate"* %332, null
  %334 = getelementptr inbounds %"class.fxcrt::StringDataTemplate", %"class.fxcrt::StringDataTemplate"* %332, i64 0, i32 3, i64 0
  %335 = select i1 %333, i8* null, i8* %334
  br i1 %333, label %339, label %336

336:                                              ; preds = %330
  %337 = getelementptr inbounds %"class.fxcrt::StringDataTemplate", %"class.fxcrt::StringDataTemplate"* %332, i64 0, i32 1
  %338 = load i64, i64* %337, align 8, !noalias !55
  br label %339

339:                                              ; preds = %330, %336
  %340 = phi i64 [ %338, %336 ], [ 0, %330 ]
  store i8* %335, i8** %258, align 8, !alias.scope !55
  store i64 %340, i64* %259, align 8, !alias.scope !55
  %341 = bitcast %class.CPDF_Object* %287 to float (%class.CPDF_Object*)***
  %342 = load float (%class.CPDF_Object*)**, float (%class.CPDF_Object*)*** %341, align 8
  %343 = getelementptr inbounds float (%class.CPDF_Object*)*, float (%class.CPDF_Object*)** %342, i64 9
  %344 = load float (%class.CPDF_Object*)*, float (%class.CPDF_Object*)** %343, align 8
  %345 = call float %344(%class.CPDF_Object* %287) #11
  %346 = call %"class.v8::Number"* @_ZN6CFX_V89NewNumberEf(%class.CFX_V8* %85, float %345) #11
  %347 = bitcast %"class.v8::Number"* %346 to %"class.v8::Value"*
  call void @_ZN6CFX_V817PutObjectPropertyEN2v85LocalINS0_6ObjectEEEN5fxcrt18StringViewTemplateIcEENS1_INS0_5ValueEEE(%class.CFX_V8* %85, %"class.v8::Object"* %86, %"class.fxcrt::StringViewTemplate.481"* nonnull %45, %"class.v8::Value"* %347) #11
  br label %372

348:                                              ; preds = %325
  %349 = load i1 (%class.CPDF_Object*)**, i1 (%class.CPDF_Object*)*** %288, align 8
  %350 = getelementptr inbounds i1 (%class.CPDF_Object*)*, i1 (%class.CPDF_Object*)** %349, i64 15
  %351 = load i1 (%class.CPDF_Object*)*, i1 (%class.CPDF_Object*)** %350, align 8
  %352 = call zeroext i1 %351(%class.CPDF_Object* %287) #11
  br i1 %352, label %353, label %372

353:                                              ; preds = %348
  %354 = bitcast %"class.std::__1::__tree_end_node"* %284 to %"class.fxcrt::StringDataTemplate"**
  %355 = load %"class.fxcrt::StringDataTemplate"*, %"class.fxcrt::StringDataTemplate"** %354, align 8, !noalias !58
  %356 = icmp eq %"class.fxcrt::StringDataTemplate"* %355, null
  %357 = getelementptr inbounds %"class.fxcrt::StringDataTemplate", %"class.fxcrt::StringDataTemplate"* %355, i64 0, i32 3, i64 0
  %358 = select i1 %356, i8* null, i8* %357
  br i1 %356, label %362, label %359

359:                                              ; preds = %353
  %360 = getelementptr inbounds %"class.fxcrt::StringDataTemplate", %"class.fxcrt::StringDataTemplate"* %355, i64 0, i32 1
  %361 = load i64, i64* %360, align 8, !noalias !58
  br label %362

362:                                              ; preds = %353, %359
  %363 = phi i64 [ %361, %359 ], [ 0, %353 ]
  store i8* %358, i8** %256, align 8, !alias.scope !58
  store i64 %363, i64* %257, align 8, !alias.scope !58
  %364 = bitcast %class.CPDF_Object* %287 to i32 (%class.CPDF_Object*)***
  %365 = load i32 (%class.CPDF_Object*)**, i32 (%class.CPDF_Object*)*** %364, align 8
  %366 = getelementptr inbounds i32 (%class.CPDF_Object*)*, i32 (%class.CPDF_Object*)** %365, i64 10
  %367 = load i32 (%class.CPDF_Object*)*, i32 (%class.CPDF_Object*)** %366, align 8
  %368 = call i32 %367(%class.CPDF_Object* %287) #11
  %369 = icmp ne i32 %368, 0
  %370 = call %"class.v8::Boolean"* @_ZN6CFX_V810NewBooleanEb(%class.CFX_V8* %85, i1 zeroext %369) #11
  %371 = bitcast %"class.v8::Boolean"* %370 to %"class.v8::Value"*
  call void @_ZN6CFX_V817PutObjectPropertyEN2v85LocalINS0_6ObjectEEEN5fxcrt18StringViewTemplateIcEENS1_INS0_5ValueEEE(%class.CFX_V8* %85, %"class.v8::Object"* %86, %"class.fxcrt::StringViewTemplate.481"* nonnull %46, %"class.v8::Value"* %371) #11
  br label %372

372:                                              ; preds = %339, %362, %348, %321
  %373 = getelementptr inbounds %"class.std::__1::__tree_end_node", %"class.std::__1::__tree_end_node"* %283, i64 1, i32 0
  %374 = load %"class.std::__1::__tree_node_base"*, %"class.std::__1::__tree_node_base"** %373, align 8
  %375 = icmp eq %"class.std::__1::__tree_node_base"* %374, null
  br i1 %375, label %376, label %384

376:                                              ; preds = %372
  %377 = bitcast %"class.std::__1::__tree_end_node"* %283 to %"class.std::__1::__tree_node_base"*
  %378 = getelementptr inbounds %"class.std::__1::__tree_end_node", %"class.std::__1::__tree_end_node"* %283, i64 2
  %379 = bitcast %"class.std::__1::__tree_end_node"* %378 to %"class.std::__1::__tree_end_node"**
  %380 = load %"class.std::__1::__tree_end_node"*, %"class.std::__1::__tree_end_node"** %379, align 8
  %381 = getelementptr inbounds %"class.std::__1::__tree_end_node", %"class.std::__1::__tree_end_node"* %380, i64 0, i32 0
  %382 = load %"class.std::__1::__tree_node_base"*, %"class.std::__1::__tree_node_base"** %381, align 8
  %383 = icmp eq %"class.std::__1::__tree_node_base"* %382, %377
  br i1 %383, label %400, label %391

384:                                              ; preds = %372, %384
  %385 = phi %"class.std::__1::__tree_node_base"* [ %387, %384 ], [ %374, %372 ]
  %386 = getelementptr inbounds %"class.std::__1::__tree_node_base", %"class.std::__1::__tree_node_base"* %385, i64 0, i32 0, i32 0
  %387 = load %"class.std::__1::__tree_node_base"*, %"class.std::__1::__tree_node_base"** %386, align 8
  %388 = icmp eq %"class.std::__1::__tree_node_base"* %387, null
  br i1 %388, label %389, label %384

389:                                              ; preds = %384
  %390 = getelementptr inbounds %"class.std::__1::__tree_node_base", %"class.std::__1::__tree_node_base"* %385, i64 0, i32 0
  br label %400

391:                                              ; preds = %376, %391
  %392 = phi %"class.std::__1::__tree_end_node"** [ %395, %391 ], [ %379, %376 ]
  %393 = bitcast %"class.std::__1::__tree_end_node"** %392 to %"class.std::__1::__tree_node_base"**
  %394 = load %"class.std::__1::__tree_node_base"*, %"class.std::__1::__tree_node_base"** %393, align 8
  %395 = getelementptr inbounds %"class.std::__1::__tree_node_base", %"class.std::__1::__tree_node_base"* %394, i64 0, i32 2
  %396 = load %"class.std::__1::__tree_end_node"*, %"class.std::__1::__tree_end_node"** %395, align 8
  %397 = getelementptr inbounds %"class.std::__1::__tree_end_node", %"class.std::__1::__tree_end_node"* %396, i64 0, i32 0
  %398 = load %"class.std::__1::__tree_node_base"*, %"class.std::__1::__tree_node_base"** %397, align 8
  %399 = icmp eq %"class.std::__1::__tree_node_base"* %398, %394
  br i1 %399, label %400, label %391

400:                                              ; preds = %391, %376, %389
  %401 = phi %"class.std::__1::__tree_end_node"* [ %390, %389 ], [ %380, %376 ], [ %396, %391 ]
  %402 = icmp eq %"class.std::__1::__tree_end_node"* %401, %253
  br i1 %402, label %266, label %282

403:                                              ; preds = %56, %281, %50
  ret void
}

declare %class.CPDF_Dictionary* @_ZN13CPDF_Document7GetInfoEv(%class.CPDF_Document*) local_unnamed_addr #2

declare void @_ZNK15CPDF_Dictionary17GetUnicodeTextForERKN5fxcrt10ByteStringE(%"class.fxcrt::WideString"* sret, %class.CPDF_Dictionary*, %"class.fxcrt::ByteString"* dereferenceable(8)) local_unnamed_addr #2

declare %"class.v8::Object"* @_ZN6CFX_V89NewObjectEv(%class.CFX_V8*) local_unnamed_addr #2

declare void @_ZN6CFX_V817PutObjectPropertyEN2v85LocalINS0_6ObjectEEEN5fxcrt18StringViewTemplateIcEENS1_INS0_5ValueEEE(%class.CFX_V8*, %"class.v8::Object"*, %"class.fxcrt::StringViewTemplate.481"*, %"class.v8::Value"*) local_unnamed_addr #2

declare void @_ZNK15CPDF_Dictionary5CloneEv(%"class.fxcrt::RetainPtr.484"* sret, %class.CPDF_Dictionary*) unnamed_addr #2

declare void @_ZN21CPDF_DictionaryLockerC1EPK15CPDF_Dictionary(%class.CPDF_DictionaryLocker*, %class.CPDF_Dictionary*) unnamed_addr #2

declare %"class.v8::Number"* @_ZN6CFX_V89NewNumberEf(%class.CFX_V8*, float) local_unnamed_addr #2

; Function Attrs: nounwind
declare void @_ZN21CPDF_DictionaryLockerD1Ev(%class.CPDF_DictionaryLocker*) unnamed_addr #4

; Function Attrs: nounwind ssp uwtable
define hidden void @_ZN12CJS_Document8set_infoEP11CJS_RuntimeN2v85LocalINS2_5ValueEEE(%class.CJS_Result* noalias sret, %class.CJS_Document* nocapture readnone, %class.CJS_Runtime* nocapture readnone, %"class.v8::Value"* nocapture readnone) local_unnamed_addr #0 align 2 {
  tail call void @_ZN10CJS_ResultC1E9JSMessage(%class.CJS_Result* %0, i32 15) #11
  ret void
}

; Function Attrs: nounwind ssp uwtable
define linkonce_odr hidden %class.CPDF_String* @_ZN15CPDF_Dictionary9SetNewForI11CPDF_StringJN5fxcrt10WideStringEEEENSt3__19enable_ifIXsr16CanInternStringsIT_EE5valueEPS6_E4typeERKNS2_10ByteStringEDpOT0_(%class.CPDF_Dictionary*, %"class.fxcrt::ByteString"* dereferenceable(8), %"class.fxcrt::WideString"* dereferenceable(8)) local_unnamed_addr #0 comdat align 2 {
  %4 = alloca %"class.fxcrt::WeakPtr", align 8
  %5 = alloca %"class.fxcrt::RetainPtr.484", align 8
  %6 = getelementptr inbounds %class.CPDF_Dictionary, %class.CPDF_Dictionary* %0, i64 0, i32 1
  %7 = load i32, i32* %6, align 8
  %8 = icmp eq i32 %7, 0
  br i1 %8, label %10, label %9, !prof !61

9:                                                ; preds = %3
  tail call void asm sideeffect "int3", "~{dirflag},~{fpsr},~{flags}"() #11, !srcloc !62
  tail call void asm sideeffect "ud2", "~{dirflag},~{fpsr},~{flags}"() #11, !srcloc !63
  unreachable

10:                                               ; preds = %3
  %11 = bitcast %"class.fxcrt::WeakPtr"* %4 to i8*
  call void @llvm.lifetime.start.p0i8(i64 8, i8* nonnull %11)
  %12 = tail call i8* @_Znwm(i64 40) #12, !noalias !64
  %13 = bitcast i8* %12 to %class.CPDF_String*
  %14 = getelementptr inbounds %class.CPDF_Dictionary, %class.CPDF_Dictionary* %0, i64 0, i32 2, i32 0, i32 0, i32 0, i32 0, i32 0
  %15 = load %"class.fxcrt::WeakPtr<fxcrt::StringPoolTemplate<fxcrt::ByteString>, std::__1::default_delete<fxcrt::StringPoolTemplate<fxcrt::ByteString> > >::Handle"*, %"class.fxcrt::WeakPtr<fxcrt::StringPoolTemplate<fxcrt::ByteString>, std::__1::default_delete<fxcrt::StringPoolTemplate<fxcrt::ByteString> > >::Handle"** %14, align 8, !noalias !64
  %16 = ptrtoint %"class.fxcrt::WeakPtr<fxcrt::StringPoolTemplate<fxcrt::ByteString>, std::__1::default_delete<fxcrt::StringPoolTemplate<fxcrt::ByteString> > >::Handle"* %15 to i64
  %17 = bitcast %"class.fxcrt::WeakPtr"* %4 to i64*
  store i64 %16, i64* %17, align 8, !noalias !64
  %18 = icmp eq %"class.fxcrt::WeakPtr<fxcrt::StringPoolTemplate<fxcrt::ByteString>, std::__1::default_delete<fxcrt::StringPoolTemplate<fxcrt::ByteString> > >::Handle"* %15, null
  br i1 %18, label %23, label %19

19:                                               ; preds = %10
  %20 = getelementptr inbounds %"class.fxcrt::WeakPtr<fxcrt::StringPoolTemplate<fxcrt::ByteString>, std::__1::default_delete<fxcrt::StringPoolTemplate<fxcrt::ByteString> > >::Handle", %"class.fxcrt::WeakPtr<fxcrt::StringPoolTemplate<fxcrt::ByteString>, std::__1::default_delete<fxcrt::StringPoolTemplate<fxcrt::ByteString> > >::Handle"* %15, i64 0, i32 0
  %21 = load i64, i64* %20, align 8, !noalias !64
  %22 = add nsw i64 %21, 1
  store i64 %22, i64* %20, align 8, !noalias !64
  br label %23

23:                                               ; preds = %10, %19
  call void @_ZN11CPDF_StringC1EN5fxcrt7WeakPtrINS0_18StringPoolTemplateINS0_10ByteStringEEENSt3__114default_deleteIS4_EEEERKNS0_10WideStringE(%class.CPDF_String* nonnull %13, %"class.fxcrt::WeakPtr"* nonnull %4, %"class.fxcrt::WideString"* dereferenceable(8) %2) #11, !noalias !64
  %24 = ptrtoint i8* %12 to i64
  %25 = getelementptr inbounds i8, i8* %12, i64 8
  %26 = bitcast i8* %25 to i64*
  %27 = load i64, i64* %26, align 8, !noalias !64
  %28 = add nsw i64 %27, 1
  store i64 %28, i64* %26, align 8, !noalias !64
  %29 = getelementptr inbounds %"class.fxcrt::WeakPtr", %"class.fxcrt::WeakPtr"* %4, i64 0, i32 0, i32 0, i32 0, i32 0, i32 0
  %30 = load %"class.fxcrt::WeakPtr<fxcrt::StringPoolTemplate<fxcrt::ByteString>, std::__1::default_delete<fxcrt::StringPoolTemplate<fxcrt::ByteString> > >::Handle"*, %"class.fxcrt::WeakPtr<fxcrt::StringPoolTemplate<fxcrt::ByteString>, std::__1::default_delete<fxcrt::StringPoolTemplate<fxcrt::ByteString> > >::Handle"** %29, align 8
  store %"class.fxcrt::WeakPtr<fxcrt::StringPoolTemplate<fxcrt::ByteString>, std::__1::default_delete<fxcrt::StringPoolTemplate<fxcrt::ByteString> > >::Handle"* null, %"class.fxcrt::WeakPtr<fxcrt::StringPoolTemplate<fxcrt::ByteString>, std::__1::default_delete<fxcrt::StringPoolTemplate<fxcrt::ByteString> > >::Handle"** %29, align 8
  %31 = icmp eq %"class.fxcrt::WeakPtr<fxcrt::StringPoolTemplate<fxcrt::ByteString>, std::__1::default_delete<fxcrt::StringPoolTemplate<fxcrt::ByteString> > >::Handle"* %30, null
  br i1 %31, label %63, label %32

32:                                               ; preds = %23
  %33 = getelementptr inbounds %"class.fxcrt::WeakPtr<fxcrt::StringPoolTemplate<fxcrt::ByteString>, std::__1::default_delete<fxcrt::StringPoolTemplate<fxcrt::ByteString> > >::Handle", %"class.fxcrt::WeakPtr<fxcrt::StringPoolTemplate<fxcrt::ByteString>, std::__1::default_delete<fxcrt::StringPoolTemplate<fxcrt::ByteString> > >::Handle"* %30, i64 0, i32 0
  %34 = load i64, i64* %33, align 8
  %35 = add nsw i64 %34, -1
  store i64 %35, i64* %33, align 8
  %36 = icmp eq i64 %35, 0
  br i1 %36, label %37, label %63

37:                                               ; preds = %32
  %38 = getelementptr inbounds %"class.fxcrt::WeakPtr<fxcrt::StringPoolTemplate<fxcrt::ByteString>, std::__1::default_delete<fxcrt::StringPoolTemplate<fxcrt::ByteString> > >::Handle", %"class.fxcrt::WeakPtr<fxcrt::StringPoolTemplate<fxcrt::ByteString>, std::__1::default_delete<fxcrt::StringPoolTemplate<fxcrt::ByteString> > >::Handle"* %30, i64 0, i32 1, i32 0, i32 0, i32 0
  %39 = load %"class.fxcrt::StringPoolTemplate"*, %"class.fxcrt::StringPoolTemplate"** %38, align 8
  store %"class.fxcrt::StringPoolTemplate"* null, %"class.fxcrt::StringPoolTemplate"** %38, align 8
  %40 = icmp eq %"class.fxcrt::StringPoolTemplate"* %39, null
  br i1 %40, label %61, label %41

41:                                               ; preds = %37
  %42 = getelementptr inbounds %"class.fxcrt::StringPoolTemplate", %"class.fxcrt::StringPoolTemplate"* %39, i64 0, i32 0, i32 0, i32 1, i32 0, i32 0, i32 0
  %43 = load %"struct.std::__1::__hash_node_base"*, %"struct.std::__1::__hash_node_base"** %42, align 8
  %44 = icmp eq %"struct.std::__1::__hash_node_base"* %43, null
  br i1 %44, label %53, label %45

45:                                               ; preds = %41, %45
  %46 = phi %"struct.std::__1::__hash_node_base"* [ %48, %45 ], [ %43, %41 ]
  %47 = getelementptr inbounds %"struct.std::__1::__hash_node_base", %"struct.std::__1::__hash_node_base"* %46, i64 0, i32 0
  %48 = load %"struct.std::__1::__hash_node_base"*, %"struct.std::__1::__hash_node_base"** %47, align 8
  %49 = getelementptr inbounds %"struct.std::__1::__hash_node_base", %"struct.std::__1::__hash_node_base"* %46, i64 2
  %50 = bitcast %"struct.std::__1::__hash_node_base"* %49 to %"class.fxcrt::ByteString"*
  call void @_ZN5fxcrt10ByteStringD1Ev(%"class.fxcrt::ByteString"* %50) #11
  %51 = bitcast %"struct.std::__1::__hash_node_base"* %46 to i8*
  call void @_ZdlPv(i8* %51) #12
  %52 = icmp eq %"struct.std::__1::__hash_node_base"* %48, null
  br i1 %52, label %53, label %45

53:                                               ; preds = %45, %41
  %54 = getelementptr inbounds %"class.fxcrt::StringPoolTemplate", %"class.fxcrt::StringPoolTemplate"* %39, i64 0, i32 0, i32 0, i32 0, i32 0, i32 0, i32 0
  %55 = load %"struct.std::__1::__hash_node_base"**, %"struct.std::__1::__hash_node_base"*** %54, align 8
  store %"struct.std::__1::__hash_node_base"** null, %"struct.std::__1::__hash_node_base"*** %54, align 8
  %56 = icmp eq %"struct.std::__1::__hash_node_base"** %55, null
  br i1 %56, label %59, label %57

57:                                               ; preds = %53
  %58 = bitcast %"struct.std::__1::__hash_node_base"** %55 to i8*
  call void @_ZdlPv(i8* %58) #12
  br label %59

59:                                               ; preds = %57, %53
  %60 = bitcast %"class.fxcrt::StringPoolTemplate"* %39 to i8*
  call void @_ZdlPv(i8* %60) #12
  br label %61

61:                                               ; preds = %59, %37
  %62 = bitcast %"class.fxcrt::WeakPtr<fxcrt::StringPoolTemplate<fxcrt::ByteString>, std::__1::default_delete<fxcrt::StringPoolTemplate<fxcrt::ByteString> > >::Handle"* %30 to i8*
  call void @_ZdlPv(i8* %62) #12
  br label %63

63:                                               ; preds = %23, %32, %61
  call void @llvm.lifetime.end.p0i8(i64 8, i8* nonnull %11)
  %64 = bitcast %"class.fxcrt::RetainPtr.484"* %5 to i64*
  store i64 %24, i64* %64, align 8
  %65 = load i64, i64* %26, align 8
  %66 = add nsw i64 %65, 1
  store i64 %66, i64* %26, align 8
  %67 = call %class.CPDF_Object* @_ZN15CPDF_Dictionary6SetForERKN5fxcrt10ByteStringENS0_9RetainPtrI11CPDF_ObjectEE(%class.CPDF_Dictionary* %0, %"class.fxcrt::ByteString"* dereferenceable(8) %1, %"class.fxcrt::RetainPtr.484"* nonnull %5) #11
  %68 = bitcast %class.CPDF_Object* %67 to %class.CPDF_String*
  %69 = getelementptr inbounds %"class.fxcrt::RetainPtr.484", %"class.fxcrt::RetainPtr.484"* %5, i64 0, i32 0, i32 0, i32 0, i32 0
  %70 = load %class.CPDF_Object*, %class.CPDF_Object** %69, align 8
  store %class.CPDF_Object* null, %class.CPDF_Object** %69, align 8
  %71 = icmp eq %class.CPDF_Object* %70, null
  br i1 %71, label %83, label %72

72:                                               ; preds = %63
  %73 = getelementptr inbounds %class.CPDF_Object, %class.CPDF_Object* %70, i64 0, i32 0, i32 1
  %74 = load i64, i64* %73, align 8
  %75 = add nsw i64 %74, -1
  store i64 %75, i64* %73, align 8
  %76 = icmp eq i64 %75, 0
  br i1 %76, label %77, label %83

77:                                               ; preds = %72
  %78 = getelementptr inbounds %class.CPDF_Object, %class.CPDF_Object* %70, i64 0, i32 0
  %79 = bitcast %class.CPDF_Object* %70 to void (%"class.fxcrt::Retainable"*)***
  %80 = load void (%"class.fxcrt::Retainable"*)**, void (%"class.fxcrt::Retainable"*)*** %79, align 8
  %81 = getelementptr inbounds void (%"class.fxcrt::Retainable"*)*, void (%"class.fxcrt::Retainable"*)** %80, i64 1
  %82 = load void (%"class.fxcrt::Retainable"*)*, void (%"class.fxcrt::Retainable"*)** %81, align 8
  call void %82(%"class.fxcrt::Retainable"* nonnull %78) #11
  br label %83

83:                                               ; preds = %77, %72, %63
  %84 = load i64, i64* %26, align 8
  %85 = add nsw i64 %84, -1
  store i64 %85, i64* %26, align 8
  %86 = icmp eq i64 %85, 0
  br i1 %86, label %87, label %93

87:                                               ; preds = %83
  %88 = bitcast i8* %12 to %"class.fxcrt::Retainable"*
  %89 = bitcast i8* %12 to void (%"class.fxcrt::Retainable"*)***
  %90 = load void (%"class.fxcrt::Retainable"*)**, void (%"class.fxcrt::Retainable"*)*** %89, align 8
  %91 = getelementptr inbounds void (%"class.fxcrt::Retainable"*)*, void (%"class.fxcrt::Retainable"*)** %90, i64 1
  %92 = load void (%"class.fxcrt::Retainable"*)*, void (%"class.fxcrt::Retainable"*)** %91, align 8
  call void %92(%"class.fxcrt::Retainable"* nonnull %88) #11
  br label %93

93:                                               ; preds = %83, %87
  ret %class.CPDF_String* %68
}

; Function Attrs: nounwind ssp uwtable
define hidden void @_ZN12CJS_Document17get_creation_dateEP11CJS_Runtime(%class.CJS_Result* noalias sret, %class.CJS_Document* nocapture readonly, %class.CJS_Runtime*) local_unnamed_addr #0 align 2 {
  %4 = alloca %"class.fxcrt::ByteString", align 8
  %5 = bitcast %"class.fxcrt::ByteString"* %4 to i8*
  call void @llvm.lifetime.start.p0i8(i64 8, i8* nonnull %5) #11
  call void @_ZN5fxcrt10ByteStringC1EPKc(%"class.fxcrt::ByteString"* nonnull %4, i8* getelementptr inbounds ([13 x i8], [13 x i8]* @.str.98, i64 0, i64 0)) #11
  call void @_ZN12CJS_Document19getPropertyInternalEP11CJS_RuntimeRKN5fxcrt10ByteStringE(%class.CJS_Result* sret %0, %class.CJS_Document* %1, %class.CJS_Runtime* %2, %"class.fxcrt::ByteString"* nonnull dereferenceable(8) %4)
  call void @_ZN5fxcrt10ByteStringD1Ev(%"class.fxcrt::ByteString"* nonnull %4) #11
  call void @llvm.lifetime.end.p0i8(i64 8, i8* nonnull %5) #11
  ret void
}

; Function Attrs: nounwind ssp uwtable
define hidden void @_ZN12CJS_Document17set_creation_dateEP11CJS_RuntimeN2v85LocalINS2_5ValueEEE(%class.CJS_Result* noalias sret, %class.CJS_Document* nocapture readonly, %class.CJS_Runtime*, %"class.v8::Value"*) local_unnamed_addr #0 align 2 {
  %5 = alloca %"class.fxcrt::ByteString", align 8
  %6 = bitcast %"class.fxcrt::ByteString"* %5 to i8*
  call void @llvm.lifetime.start.p0i8(i64 8, i8* nonnull %6) #11
  call void @_ZN5fxcrt10ByteStringC1EPKc(%"class.fxcrt::ByteString"* nonnull %5, i8* getelementptr inbounds ([13 x i8], [13 x i8]* @.str.98, i64 0, i64 0)) #11
  call void @_ZN12CJS_Document19setPropertyInternalEP11CJS_RuntimeN2v85LocalINS2_5ValueEEERKN5fxcrt10ByteStringE(%class.CJS_Result* sret %0, %class.CJS_Document* %1, %class.CJS_Runtime* %2, %"class.v8::Value"* %3, %"class.fxcrt::ByteString"* nonnull dereferenceable(8) %5)
  call void @_ZN5fxcrt10ByteStringD1Ev(%"class.fxcrt::ByteString"* nonnull %5) #11
  call void @llvm.lifetime.end.p0i8(i64 8, i8* nonnull %6) #11
  ret void
}

; Function Attrs: nounwind ssp uwtable
define hidden void @_ZN12CJS_Document11get_creatorEP11CJS_Runtime(%class.CJS_Result* noalias sret, %class.CJS_Document* nocapture readonly, %class.CJS_Runtime*) local_unnamed_addr #0 align 2 {
  %4 = alloca %"class.fxcrt::ByteString", align 8
  %5 = bitcast %"class.fxcrt::ByteString"* %4 to i8*
  call void @llvm.lifetime.start.p0i8(i64 8, i8* nonnull %5) #11
  call void @_ZN5fxcrt10ByteStringC1EPKc(%"class.fxcrt::ByteString"* nonnull %4, i8* getelementptr inbounds ([8 x i8], [8 x i8]* @.str.96, i64 0, i64 0)) #11
  call void @_ZN12CJS_Document19getPropertyInternalEP11CJS_RuntimeRKN5fxcrt10ByteStringE(%class.CJS_Result* sret %0, %class.CJS_Document* %1, %class.CJS_Runtime* %2, %"class.fxcrt::ByteString"* nonnull dereferenceable(8) %4)
  call void @_ZN5fxcrt10ByteStringD1Ev(%"class.fxcrt::ByteString"* nonnull %4) #11
  call void @llvm.lifetime.end.p0i8(i64 8, i8* nonnull %5) #11
  ret void
}

; Function Attrs: nounwind ssp uwtable
define hidden void @_ZN12CJS_Document11set_creatorEP11CJS_RuntimeN2v85LocalINS2_5ValueEEE(%class.CJS_Result* noalias sret, %class.CJS_Document* nocapture readonly, %class.CJS_Runtime*, %"class.v8::Value"*) local_unnamed_addr #0 align 2 {
  %5 = alloca %"class.fxcrt::ByteString", align 8
  %6 = bitcast %"class.fxcrt::ByteString"* %5 to i8*
  call void @llvm.lifetime.start.p0i8(i64 8, i8* nonnull %6) #11
  call void @_ZN5fxcrt10ByteStringC1EPKc(%"class.fxcrt::ByteString"* nonnull %5, i8* getelementptr inbounds ([8 x i8], [8 x i8]* @.str.96, i64 0, i64 0)) #11
  call void @_ZN12CJS_Document19setPropertyInternalEP11CJS_RuntimeN2v85LocalINS2_5ValueEEERKN5fxcrt10ByteStringE(%class.CJS_Result* sret %0, %class.CJS_Document* %1, %class.CJS_Runtime* %2, %"class.v8::Value"* %3, %"class.fxcrt::ByteString"* nonnull dereferenceable(8) %5)
  call void @_ZN5fxcrt10ByteStringD1Ev(%"class.fxcrt::ByteString"* nonnull %5) #11
  call void @llvm.lifetime.end.p0i8(i64 8, i8* nonnull %6) #11
  ret void
}

; Function Attrs: nounwind ssp uwtable
define hidden void @_ZN12CJS_Document9get_delayEP11CJS_Runtime(%class.CJS_Result* noalias sret, %class.CJS_Document* nocapture readonly, %class.CJS_Runtime*) local_unnamed_addr #0 align 2 {
  %4 = getelementptr inbounds %class.CJS_Document, %class.CJS_Document* %1, i64 0, i32 3, i32 1
  %5 = load %class.CPDFSDK_FormFillEnvironment*, %class.CPDFSDK_FormFillEnvironment** %4, align 8
  %6 = icmp eq %class.CPDFSDK_FormFillEnvironment* %5, null
  br i1 %6, label %7, label %8

7:                                                ; preds = %3
  tail call void @_ZN10CJS_ResultC1E9JSMessage(%class.CJS_Result* %0, i32 19) #11
  br label %15

8:                                                ; preds = %3
  %9 = getelementptr inbounds %class.CJS_Runtime, %class.CJS_Runtime* %2, i64 0, i32 1, i32 0
  %10 = getelementptr inbounds %class.CJS_Document, %class.CJS_Document* %1, i64 0, i32 6
  %11 = load i8, i8* %10, align 8, !range !2
  %12 = icmp ne i8 %11, 0
  %13 = tail call %"class.v8::Boolean"* @_ZN6CFX_V810NewBooleanEb(%class.CFX_V8* %9, i1 zeroext %12) #11
  %14 = bitcast %"class.v8::Boolean"* %13 to %"class.v8::Value"*
  tail call void @_ZN10CJS_ResultC1EN2v85LocalINS0_5ValueEEE(%class.CJS_Result* %0, %"class.v8::Value"* %14) #11
  br label %15

15:                                               ; preds = %8, %7
  ret void
}

; Function Attrs: nounwind ssp uwtable
define hidden void @_ZN12CJS_Document9set_delayEP11CJS_RuntimeN2v85LocalINS2_5ValueEEE(%class.CJS_Result* noalias sret, %class.CJS_Document*, %class.CJS_Runtime*, %"class.v8::Value"*) local_unnamed_addr #0 align 2 {
  %5 = alloca %"class.std::__1::list", align 8
  %6 = getelementptr inbounds %class.CJS_Document, %class.CJS_Document* %1, i64 0, i32 3, i32 1
  %7 = load %class.CPDFSDK_FormFillEnvironment*, %class.CPDFSDK_FormFillEnvironment** %6, align 8
  %8 = icmp eq %class.CPDFSDK_FormFillEnvironment* %7, null
  br i1 %8, label %9, label %10

9:                                                ; preds = %4
  tail call void @_ZN10CJS_ResultC1E9JSMessage(%class.CJS_Result* %0, i32 19) #11
  br label %137

10:                                               ; preds = %4
  %11 = tail call zeroext i1 @_ZNK27CPDFSDK_FormFillEnvironment14HasPermissionsEj(%class.CPDFSDK_FormFillEnvironment* nonnull %7, i32 8) #11
  br i1 %11, label %13, label %12

12:                                               ; preds = %10
  tail call void @_ZN10CJS_ResultC1E9JSMessage(%class.CJS_Result* %0, i32 18) #11
  br label %137

13:                                               ; preds = %10
  %14 = getelementptr inbounds %class.CJS_Runtime, %class.CJS_Runtime* %2, i64 0, i32 1, i32 0
  %15 = tail call zeroext i1 @_ZN6CFX_V89ToBooleanEN2v85LocalINS0_5ValueEEE(%class.CFX_V8* %14, %"class.v8::Value"* %3) #11
  %16 = getelementptr inbounds %class.CJS_Document, %class.CJS_Document* %1, i64 0, i32 6
  %17 = zext i1 %15 to i8
  store i8 %17, i8* %16, align 8
  br i1 %15, label %18, label %55

18:                                               ; preds = %13
  %19 = getelementptr inbounds %class.CJS_Document, %class.CJS_Document* %1, i64 0, i32 4
  %20 = getelementptr inbounds %class.CJS_Document, %class.CJS_Document* %1, i64 0, i32 4, i32 0, i32 1, i32 0, i32 0
  %21 = load i64, i64* %20, align 8
  %22 = icmp eq i64 %21, 0
  br i1 %22, label %54, label %23

23:                                               ; preds = %18
  %24 = getelementptr inbounds %class.CJS_Document, %class.CJS_Document* %1, i64 0, i32 4, i32 0, i32 0, i32 1
  %25 = load %"struct.std::__1::__list_node_base"*, %"struct.std::__1::__list_node_base"** %24, align 8
  %26 = getelementptr inbounds %"class.std::__1::list", %"class.std::__1::list"* %19, i64 0, i32 0, i32 0
  %27 = getelementptr inbounds %"class.std::__1::list", %"class.std::__1::list"* %19, i64 0, i32 0, i32 0, i32 0
  %28 = load %"struct.std::__1::__list_node_base"*, %"struct.std::__1::__list_node_base"** %27, align 8
  %29 = getelementptr inbounds %"struct.std::__1::__list_node_base", %"struct.std::__1::__list_node_base"* %28, i64 0, i32 1
  %30 = bitcast %"struct.std::__1::__list_node_base"** %29 to i64*
  %31 = load i64, i64* %30, align 8
  %32 = getelementptr inbounds %"struct.std::__1::__list_node_base", %"struct.std::__1::__list_node_base"* %25, i64 0, i32 0
  %33 = load %"struct.std::__1::__list_node_base"*, %"struct.std::__1::__list_node_base"** %32, align 8
  %34 = getelementptr inbounds %"struct.std::__1::__list_node_base", %"struct.std::__1::__list_node_base"* %33, i64 0, i32 1
  %35 = bitcast %"struct.std::__1::__list_node_base"** %34 to i64*
  store i64 %31, i64* %35, align 8
  %36 = bitcast %"struct.std::__1::__list_node_base"* %25 to i64*
  %37 = load i64, i64* %36, align 8
  %38 = bitcast %"struct.std::__1::__list_node_base"** %29 to i64**
  %39 = load i64*, i64** %38, align 8
  store i64 %37, i64* %39, align 8
  store i64 0, i64* %20, align 8
  %40 = icmp eq %"struct.std::__1::__list_node_base"* %25, %26
  br i1 %40, label %54, label %41

41:                                               ; preds = %23, %51
  %42 = phi %"struct.std::__1::__list_node_base"* [ %44, %51 ], [ %25, %23 ]
  %43 = getelementptr inbounds %"struct.std::__1::__list_node_base", %"struct.std::__1::__list_node_base"* %42, i64 0, i32 1
  %44 = load %"struct.std::__1::__list_node_base"*, %"struct.std::__1::__list_node_base"** %43, align 8
  %45 = getelementptr inbounds %"struct.std::__1::__list_node_base", %"struct.std::__1::__list_node_base"* %42, i64 1
  %46 = bitcast %"struct.std::__1::__list_node_base"* %45 to %struct.CJS_DelayData**
  %47 = load %struct.CJS_DelayData*, %struct.CJS_DelayData** %46, align 8
  store %struct.CJS_DelayData* null, %struct.CJS_DelayData** %46, align 8
  %48 = icmp eq %struct.CJS_DelayData* %47, null
  br i1 %48, label %51, label %49

49:                                               ; preds = %41
  tail call void @_ZN13CJS_DelayDataD1Ev(%struct.CJS_DelayData* nonnull %47) #11
  %50 = bitcast %struct.CJS_DelayData* %47 to i8*
  tail call void @_ZdlPv(i8* %50) #12
  br label %51

51:                                               ; preds = %49, %41
  %52 = bitcast %"struct.std::__1::__list_node_base"* %42 to i8*
  tail call void @_ZdlPv(i8* %52) #12
  %53 = icmp eq %"struct.std::__1::__list_node_base"* %44, %26
  br i1 %53, label %54, label %41

54:                                               ; preds = %51, %18, %23
  tail call void @_ZN10CJS_ResultC1Ev(%class.CJS_Result* %0) #11
  br label %137

55:                                               ; preds = %13
  %56 = bitcast %"class.std::__1::list"* %5 to i8*
  call void @llvm.lifetime.start.p0i8(i64 24, i8* nonnull %56) #11
  %57 = getelementptr inbounds %"class.std::__1::list", %"class.std::__1::list"* %5, i64 0, i32 0, i32 0, i32 0
  %58 = getelementptr inbounds %"class.std::__1::list", %"class.std::__1::list"* %5, i64 0, i32 0, i32 0, i32 1
  %59 = getelementptr inbounds %"class.std::__1::list", %"class.std::__1::list"* %5, i64 0, i32 0, i32 1, i32 0, i32 0
  %60 = getelementptr inbounds %"class.std::__1::list", %"class.std::__1::list"* %5, i64 0, i32 0, i32 0
  %61 = getelementptr inbounds %class.CJS_Document, %class.CJS_Document* %1, i64 0, i32 4
  %62 = getelementptr inbounds %class.CJS_Document, %class.CJS_Document* %1, i64 0, i32 4, i32 0, i32 1, i32 0, i32 0
  %63 = load i64, i64* %62, align 8
  store i64 %63, i64* %59, align 8
  store i64 0, i64* %62, align 8
  %64 = getelementptr inbounds %"class.std::__1::list", %"class.std::__1::list"* %61, i64 0, i32 0, i32 0
  %65 = ptrtoint %"class.std::__1::list"* %5 to i64
  %66 = bitcast %"struct.std::__1::__list_node_base"** %58 to i64*
  %67 = bitcast %"class.std::__1::list"* %61 to i8*
  call void @llvm.memcpy.p0i8.p0i8.i64(i8* nonnull align 8 %56, i8* align 8 %67, i64 16, i1 false) #11
  %68 = bitcast %"class.std::__1::list"* %61 to i64*
  store i64 %65, i64* %68, align 8
  %69 = getelementptr inbounds %class.CJS_Document, %class.CJS_Document* %1, i64 0, i32 4, i32 0, i32 0, i32 1
  %70 = bitcast %"struct.std::__1::__list_node_base"** %69 to i64*
  store i64 %65, i64* %70, align 8
  %71 = icmp eq i64 %63, 0
  br i1 %71, label %72, label %73

72:                                               ; preds = %55
  store %"struct.std::__1::__list_node_base"* %60, %"struct.std::__1::__list_node_base"** %57, align 8
  store %"struct.std::__1::__list_node_base"* %60, %"struct.std::__1::__list_node_base"** %58, align 8
  br label %80

73:                                               ; preds = %55
  %74 = load %"struct.std::__1::__list_node_base"*, %"struct.std::__1::__list_node_base"** %58, align 8
  %75 = getelementptr inbounds %"struct.std::__1::__list_node_base", %"struct.std::__1::__list_node_base"* %74, i64 0, i32 0
  store %"struct.std::__1::__list_node_base"* %60, %"struct.std::__1::__list_node_base"** %75, align 8
  %76 = load %"struct.std::__1::__list_node_base"*, %"struct.std::__1::__list_node_base"** %57, align 8
  %77 = getelementptr inbounds %"struct.std::__1::__list_node_base", %"struct.std::__1::__list_node_base"* %76, i64 0, i32 1
  store %"struct.std::__1::__list_node_base"* %60, %"struct.std::__1::__list_node_base"** %77, align 8
  %78 = load i64, i64* %62, align 8
  %79 = icmp eq i64 %78, 0
  br i1 %79, label %80, label %82

80:                                               ; preds = %72, %73
  %81 = getelementptr inbounds %"class.std::__1::list", %"class.std::__1::list"* %61, i64 0, i32 0, i32 0, i32 0
  store %"struct.std::__1::__list_node_base"* %64, %"struct.std::__1::__list_node_base"** %81, align 8
  br label %88

82:                                               ; preds = %73
  %83 = load %"struct.std::__1::__list_node_base"*, %"struct.std::__1::__list_node_base"** %69, align 8
  %84 = getelementptr inbounds %"struct.std::__1::__list_node_base", %"struct.std::__1::__list_node_base"* %83, i64 0, i32 0
  store %"struct.std::__1::__list_node_base"* %64, %"struct.std::__1::__list_node_base"** %84, align 8
  %85 = getelementptr inbounds %"class.std::__1::list", %"class.std::__1::list"* %61, i64 0, i32 0, i32 0, i32 0
  %86 = load %"struct.std::__1::__list_node_base"*, %"struct.std::__1::__list_node_base"** %85, align 8
  %87 = getelementptr inbounds %"struct.std::__1::__list_node_base", %"struct.std::__1::__list_node_base"* %86, i64 0, i32 1
  br label %88

88:                                               ; preds = %80, %82
  %89 = phi %"struct.std::__1::__list_node_base"** [ %69, %80 ], [ %87, %82 ]
  store %"struct.std::__1::__list_node_base"* %64, %"struct.std::__1::__list_node_base"** %89, align 8
  %90 = load i64, i64* %66, align 8
  %91 = inttoptr i64 %90 to %"struct.std::__1::__list_node_base"*
  %92 = icmp eq %"struct.std::__1::__list_node_base"* %60, %91
  br i1 %92, label %93, label %125

93:                                               ; preds = %125, %88
  call void @_ZN10CJS_ResultC1Ev(%class.CJS_Result* %0) #11
  %94 = load i64, i64* %59, align 8
  %95 = icmp eq i64 %94, 0
  br i1 %95, label %124, label %96

96:                                               ; preds = %93
  %97 = load %"struct.std::__1::__list_node_base"*, %"struct.std::__1::__list_node_base"** %58, align 8
  %98 = load %"struct.std::__1::__list_node_base"*, %"struct.std::__1::__list_node_base"** %57, align 8
  %99 = getelementptr inbounds %"struct.std::__1::__list_node_base", %"struct.std::__1::__list_node_base"* %98, i64 0, i32 1
  %100 = bitcast %"struct.std::__1::__list_node_base"** %99 to i64*
  %101 = load i64, i64* %100, align 8
  %102 = getelementptr inbounds %"struct.std::__1::__list_node_base", %"struct.std::__1::__list_node_base"* %97, i64 0, i32 0
  %103 = load %"struct.std::__1::__list_node_base"*, %"struct.std::__1::__list_node_base"** %102, align 8
  %104 = getelementptr inbounds %"struct.std::__1::__list_node_base", %"struct.std::__1::__list_node_base"* %103, i64 0, i32 1
  %105 = bitcast %"struct.std::__1::__list_node_base"** %104 to i64*
  store i64 %101, i64* %105, align 8
  %106 = bitcast %"struct.std::__1::__list_node_base"* %97 to i64*
  %107 = load i64, i64* %106, align 8
  %108 = bitcast %"struct.std::__1::__list_node_base"** %99 to i64**
  %109 = load i64*, i64** %108, align 8
  store i64 %107, i64* %109, align 8
  store i64 0, i64* %59, align 8
  %110 = icmp eq %"struct.std::__1::__list_node_base"* %97, %60
  br i1 %110, label %124, label %111

111:                                              ; preds = %96, %121
  %112 = phi %"struct.std::__1::__list_node_base"* [ %114, %121 ], [ %97, %96 ]
  %113 = getelementptr inbounds %"struct.std::__1::__list_node_base", %"struct.std::__1::__list_node_base"* %112, i64 0, i32 1
  %114 = load %"struct.std::__1::__list_node_base"*, %"struct.std::__1::__list_node_base"** %113, align 8
  %115 = getelementptr inbounds %"struct.std::__1::__list_node_base", %"struct.std::__1::__list_node_base"* %112, i64 1
  %116 = bitcast %"struct.std::__1::__list_node_base"* %115 to %struct.CJS_DelayData**
  %117 = load %struct.CJS_DelayData*, %struct.CJS_DelayData** %116, align 8
  store %struct.CJS_DelayData* null, %struct.CJS_DelayData** %116, align 8
  %118 = icmp eq %struct.CJS_DelayData* %117, null
  br i1 %118, label %121, label %119

119:                                              ; preds = %111
  call void @_ZN13CJS_DelayDataD1Ev(%struct.CJS_DelayData* nonnull %117) #11
  %120 = bitcast %struct.CJS_DelayData* %117 to i8*
  call void @_ZdlPv(i8* %120) #12
  br label %121

121:                                              ; preds = %119, %111
  %122 = bitcast %"struct.std::__1::__list_node_base"* %112 to i8*
  call void @_ZdlPv(i8* %122) #12
  %123 = icmp eq %"struct.std::__1::__list_node_base"* %114, %60
  br i1 %123, label %124, label %111

124:                                              ; preds = %121, %93, %96
  call void @llvm.lifetime.end.p0i8(i64 24, i8* nonnull %56) #11
  br label %137

125:                                              ; preds = %88, %125
  %126 = phi %"struct.std::__1::__list_node_base"* [ %135, %125 ], [ %91, %88 ]
  %127 = phi i64 [ %134, %125 ], [ %90, %88 ]
  %128 = inttoptr i64 %127 to %"struct.std::__1::__list_node.687"*
  %129 = load %class.CPDFSDK_FormFillEnvironment*, %class.CPDFSDK_FormFillEnvironment** %6, align 8
  %130 = getelementptr inbounds %"struct.std::__1::__list_node.687", %"struct.std::__1::__list_node.687"* %128, i64 0, i32 1, i32 0, i32 0, i32 0
  %131 = load %struct.CJS_DelayData*, %struct.CJS_DelayData** %130, align 8
  call void @_ZN9CJS_Field7DoDelayEP27CPDFSDK_FormFillEnvironmentP13CJS_DelayData(%class.CPDFSDK_FormFillEnvironment* %129, %struct.CJS_DelayData* %131) #11
  %132 = getelementptr inbounds %"struct.std::__1::__list_node_base", %"struct.std::__1::__list_node_base"* %126, i64 0, i32 1
  %133 = bitcast %"struct.std::__1::__list_node_base"** %132 to i64*
  %134 = load i64, i64* %133, align 8
  %135 = inttoptr i64 %134 to %"struct.std::__1::__list_node_base"*
  %136 = icmp eq %"struct.std::__1::__list_node_base"* %60, %135
  br i1 %136, label %93, label %125

137:                                              ; preds = %124, %54, %12, %9
  ret void
}

declare void @_ZN9CJS_Field7DoDelayEP27CPDFSDK_FormFillEnvironmentP13CJS_DelayData(%class.CPDFSDK_FormFillEnvironment*, %struct.CJS_DelayData*) local_unnamed_addr #2

; Function Attrs: nounwind ssp uwtable
define hidden void @_ZN12CJS_Document12get_keywordsEP11CJS_Runtime(%class.CJS_Result* noalias sret, %class.CJS_Document* nocapture readonly, %class.CJS_Runtime*) local_unnamed_addr #0 align 2 {
  %4 = alloca %"class.fxcrt::ByteString", align 8
  %5 = bitcast %"class.fxcrt::ByteString"* %4 to i8*
  call void @llvm.lifetime.start.p0i8(i64 8, i8* nonnull %5) #11
  call void @_ZN5fxcrt10ByteStringC1EPKc(%"class.fxcrt::ByteString"* nonnull %4, i8* getelementptr inbounds ([9 x i8], [9 x i8]* @.str.95, i64 0, i64 0)) #11
  call void @_ZN12CJS_Document19getPropertyInternalEP11CJS_RuntimeRKN5fxcrt10ByteStringE(%class.CJS_Result* sret %0, %class.CJS_Document* %1, %class.CJS_Runtime* %2, %"class.fxcrt::ByteString"* nonnull dereferenceable(8) %4)
  call void @_ZN5fxcrt10ByteStringD1Ev(%"class.fxcrt::ByteString"* nonnull %4) #11
  call void @llvm.lifetime.end.p0i8(i64 8, i8* nonnull %5) #11
  ret void
}

; Function Attrs: nounwind ssp uwtable
define hidden void @_ZN12CJS_Document12set_keywordsEP11CJS_RuntimeN2v85LocalINS2_5ValueEEE(%class.CJS_Result* noalias sret, %class.CJS_Document* nocapture readonly, %class.CJS_Runtime*, %"class.v8::Value"*) local_unnamed_addr #0 align 2 {
  %5 = alloca %"class.fxcrt::ByteString", align 8
  %6 = bitcast %"class.fxcrt::ByteString"* %5 to i8*
  call void @llvm.lifetime.start.p0i8(i64 8, i8* nonnull %6) #11
  call void @_ZN5fxcrt10ByteStringC1EPKc(%"class.fxcrt::ByteString"* nonnull %5, i8* getelementptr inbounds ([9 x i8], [9 x i8]* @.str.95, i64 0, i64 0)) #11
  call void @_ZN12CJS_Document19setPropertyInternalEP11CJS_RuntimeN2v85LocalINS2_5ValueEEERKN5fxcrt10ByteStringE(%class.CJS_Result* sret %0, %class.CJS_Document* %1, %class.CJS_Runtime* %2, %"class.v8::Value"* %3, %"class.fxcrt::ByteString"* nonnull dereferenceable(8) %5)
  call void @_ZN5fxcrt10ByteStringD1Ev(%"class.fxcrt::ByteString"* nonnull %5) #11
  call void @llvm.lifetime.end.p0i8(i64 8, i8* nonnull %6) #11
  ret void
}

; Function Attrs: nounwind ssp uwtable
define hidden void @_ZN12CJS_Document12get_mod_dateEP11CJS_Runtime(%class.CJS_Result* noalias sret, %class.CJS_Document* nocapture readonly, %class.CJS_Runtime*) local_unnamed_addr #0 align 2 {
  %4 = alloca %"class.fxcrt::ByteString", align 8
  %5 = bitcast %"class.fxcrt::ByteString"* %4 to i8*
  call void @llvm.lifetime.start.p0i8(i64 8, i8* nonnull %5) #11
  call void @_ZN5fxcrt10ByteStringC1EPKc(%"class.fxcrt::ByteString"* nonnull %4, i8* getelementptr inbounds ([8 x i8], [8 x i8]* @.str.99, i64 0, i64 0)) #11
  call void @_ZN12CJS_Document19getPropertyInternalEP11CJS_RuntimeRKN5fxcrt10ByteStringE(%class.CJS_Result* sret %0, %class.CJS_Document* %1, %class.CJS_Runtime* %2, %"class.fxcrt::ByteString"* nonnull dereferenceable(8) %4)
  call void @_ZN5fxcrt10ByteStringD1Ev(%"class.fxcrt::ByteString"* nonnull %4) #11
  call void @llvm.lifetime.end.p0i8(i64 8, i8* nonnull %5) #11
  ret void
}

; Function Attrs: nounwind ssp uwtable
define hidden void @_ZN12CJS_Document12set_mod_dateEP11CJS_RuntimeN2v85LocalINS2_5ValueEEE(%class.CJS_Result* noalias sret, %class.CJS_Document* nocapture readonly, %class.CJS_Runtime*, %"class.v8::Value"*) local_unnamed_addr #0 align 2 {
  %5 = alloca %"class.fxcrt::ByteString", align 8
  %6 = bitcast %"class.fxcrt::ByteString"* %5 to i8*
  call void @llvm.lifetime.start.p0i8(i64 8, i8* nonnull %6) #11
  call void @_ZN5fxcrt10ByteStringC1EPKc(%"class.fxcrt::ByteString"* nonnull %5, i8* getelementptr inbounds ([8 x i8], [8 x i8]* @.str.99, i64 0, i64 0)) #11
  call void @_ZN12CJS_Document19setPropertyInternalEP11CJS_RuntimeN2v85LocalINS2_5ValueEEERKN5fxcrt10ByteStringE(%class.CJS_Result* sret %0, %class.CJS_Document* %1, %class.CJS_Runtime* %2, %"class.v8::Value"* %3, %"class.fxcrt::ByteString"* nonnull dereferenceable(8) %5)
  call void @_ZN5fxcrt10ByteStringD1Ev(%"class.fxcrt::ByteString"* nonnull %5) #11
  call void @llvm.lifetime.end.p0i8(i64 8, i8* nonnull %6) #11
  ret void
}

; Function Attrs: nounwind ssp uwtable
define hidden void @_ZN12CJS_Document12get_producerEP11CJS_Runtime(%class.CJS_Result* noalias sret, %class.CJS_Document* nocapture readonly, %class.CJS_Runtime*) local_unnamed_addr #0 align 2 {
  %4 = alloca %"class.fxcrt::ByteString", align 8
  %5 = bitcast %"class.fxcrt::ByteString"* %4 to i8*
  call void @llvm.lifetime.start.p0i8(i64 8, i8* nonnull %5) #11
  call void @_ZN5fxcrt10ByteStringC1EPKc(%"class.fxcrt::ByteString"* nonnull %4, i8* getelementptr inbounds ([9 x i8], [9 x i8]* @.str.97, i64 0, i64 0)) #11
  call void @_ZN12CJS_Document19getPropertyInternalEP11CJS_RuntimeRKN5fxcrt10ByteStringE(%class.CJS_Result* sret %0, %class.CJS_Document* %1, %class.CJS_Runtime* %2, %"class.fxcrt::ByteString"* nonnull dereferenceable(8) %4)
  call void @_ZN5fxcrt10ByteStringD1Ev(%"class.fxcrt::ByteString"* nonnull %4) #11
  call void @llvm.lifetime.end.p0i8(i64 8, i8* nonnull %5) #11
  ret void
}

; Function Attrs: nounwind ssp uwtable
define hidden void @_ZN12CJS_Document12set_producerEP11CJS_RuntimeN2v85LocalINS2_5ValueEEE(%class.CJS_Result* noalias sret, %class.CJS_Document* nocapture readonly, %class.CJS_Runtime*, %"class.v8::Value"*) local_unnamed_addr #0 align 2 {
  %5 = alloca %"class.fxcrt::ByteString", align 8
  %6 = bitcast %"class.fxcrt::ByteString"* %5 to i8*
  call void @llvm.lifetime.start.p0i8(i64 8, i8* nonnull %6) #11
  call void @_ZN5fxcrt10ByteStringC1EPKc(%"class.fxcrt::ByteString"* nonnull %5, i8* getelementptr inbounds ([9 x i8], [9 x i8]* @.str.97, i64 0, i64 0)) #11
  call void @_ZN12CJS_Document19setPropertyInternalEP11CJS_RuntimeN2v85LocalINS2_5ValueEEERKN5fxcrt10ByteStringE(%class.CJS_Result* sret %0, %class.CJS_Document* %1, %class.CJS_Runtime* %2, %"class.v8::Value"* %3, %"class.fxcrt::ByteString"* nonnull dereferenceable(8) %5)
  call void @_ZN5fxcrt10ByteStringD1Ev(%"class.fxcrt::ByteString"* nonnull %5) #11
  call void @llvm.lifetime.end.p0i8(i64 8, i8* nonnull %6) #11
  ret void
}

; Function Attrs: nounwind ssp uwtable
define hidden void @_ZN12CJS_Document11get_subjectEP11CJS_Runtime(%class.CJS_Result* noalias sret, %class.CJS_Document* nocapture readonly, %class.CJS_Runtime*) local_unnamed_addr #0 align 2 {
  %4 = alloca %"class.fxcrt::ByteString", align 8
  %5 = bitcast %"class.fxcrt::ByteString"* %4 to i8*
  call void @llvm.lifetime.start.p0i8(i64 8, i8* nonnull %5) #11
  call void @_ZN5fxcrt10ByteStringC1EPKc(%"class.fxcrt::ByteString"* nonnull %4, i8* getelementptr inbounds ([8 x i8], [8 x i8]* @.str.94, i64 0, i64 0)) #11
  call void @_ZN12CJS_Document19getPropertyInternalEP11CJS_RuntimeRKN5fxcrt10ByteStringE(%class.CJS_Result* sret %0, %class.CJS_Document* %1, %class.CJS_Runtime* %2, %"class.fxcrt::ByteString"* nonnull dereferenceable(8) %4)
  call void @_ZN5fxcrt10ByteStringD1Ev(%"class.fxcrt::ByteString"* nonnull %4) #11
  call void @llvm.lifetime.end.p0i8(i64 8, i8* nonnull %5) #11
  ret void
}

; Function Attrs: nounwind ssp uwtable
define hidden void @_ZN12CJS_Document11set_subjectEP11CJS_RuntimeN2v85LocalINS2_5ValueEEE(%class.CJS_Result* noalias sret, %class.CJS_Document* nocapture readonly, %class.CJS_Runtime*, %"class.v8::Value"*) local_unnamed_addr #0 align 2 {
  %5 = alloca %"class.fxcrt::ByteString", align 8
  %6 = bitcast %"class.fxcrt::ByteString"* %5 to i8*
  call void @llvm.lifetime.start.p0i8(i64 8, i8* nonnull %6) #11
  call void @_ZN5fxcrt10ByteStringC1EPKc(%"class.fxcrt::ByteString"* nonnull %5, i8* getelementptr inbounds ([8 x i8], [8 x i8]* @.str.94, i64 0, i64 0)) #11
  call void @_ZN12CJS_Document19setPropertyInternalEP11CJS_RuntimeN2v85LocalINS2_5ValueEEERKN5fxcrt10ByteStringE(%class.CJS_Result* sret %0, %class.CJS_Document* %1, %class.CJS_Runtime* %2, %"class.v8::Value"* %3, %"class.fxcrt::ByteString"* nonnull dereferenceable(8) %5)
  call void @_ZN5fxcrt10ByteStringD1Ev(%"class.fxcrt::ByteString"* nonnull %5) #11
  call void @llvm.lifetime.end.p0i8(i64 8, i8* nonnull %6) #11
  ret void
}

; Function Attrs: nounwind ssp uwtable
define hidden void @_ZN12CJS_Document9get_titleEP11CJS_Runtime(%class.CJS_Result* noalias sret, %class.CJS_Document* nocapture readonly, %class.CJS_Runtime*) local_unnamed_addr #0 align 2 {
  %4 = alloca %"class.fxcrt::ByteString", align 8
  %5 = getelementptr inbounds %class.CJS_Document, %class.CJS_Document* %1, i64 0, i32 3, i32 1
  %6 = load %class.CPDFSDK_FormFillEnvironment*, %class.CPDFSDK_FormFillEnvironment** %5, align 8
  %7 = icmp eq %class.CPDFSDK_FormFillEnvironment* %6, null
  br i1 %7, label %8, label %9

8:                                                ; preds = %3
  tail call void @_ZN10CJS_ResultC1E9JSMessage(%class.CJS_Result* %0, i32 19) #11
  br label %11

9:                                                ; preds = %3
  %10 = bitcast %"class.fxcrt::ByteString"* %4 to i8*
  call void @llvm.lifetime.start.p0i8(i64 8, i8* nonnull %10) #11
  call void @_ZN5fxcrt10ByteStringC1EPKc(%"class.fxcrt::ByteString"* nonnull %4, i8* getelementptr inbounds ([6 x i8], [6 x i8]* @.str.93, i64 0, i64 0)) #11
  call void @_ZN12CJS_Document19getPropertyInternalEP11CJS_RuntimeRKN5fxcrt10ByteStringE(%class.CJS_Result* sret %0, %class.CJS_Document* %1, %class.CJS_Runtime* %2, %"class.fxcrt::ByteString"* nonnull dereferenceable(8) %4)
  call void @_ZN5fxcrt10ByteStringD1Ev(%"class.fxcrt::ByteString"* nonnull %4) #11
  call void @llvm.lifetime.end.p0i8(i64 8, i8* nonnull %10) #11
  br label %11

11:                                               ; preds = %9, %8
  ret void
}

; Function Attrs: nounwind ssp uwtable
define hidden void @_ZN12CJS_Document9set_titleEP11CJS_RuntimeN2v85LocalINS2_5ValueEEE(%class.CJS_Result* noalias sret, %class.CJS_Document* nocapture readonly, %class.CJS_Runtime*, %"class.v8::Value"*) local_unnamed_addr #0 align 2 {
  %5 = alloca %"class.fxcrt::ByteString", align 8
  %6 = getelementptr inbounds %class.CJS_Document, %class.CJS_Document* %1, i64 0, i32 3, i32 1
  %7 = load %class.CPDFSDK_FormFillEnvironment*, %class.CPDFSDK_FormFillEnvironment** %6, align 8
  %8 = icmp eq %class.CPDFSDK_FormFillEnvironment* %7, null
  br i1 %8, label %9, label %10

9:                                                ; preds = %4
  tail call void @_ZN10CJS_ResultC1E9JSMessage(%class.CJS_Result* %0, i32 19) #11
  br label %12

10:                                               ; preds = %4
  %11 = bitcast %"class.fxcrt::ByteString"* %5 to i8*
  call void @llvm.lifetime.start.p0i8(i64 8, i8* nonnull %11) #11
  call void @_ZN5fxcrt10ByteStringC1EPKc(%"class.fxcrt::ByteString"* nonnull %5, i8* getelementptr inbounds ([6 x i8], [6 x i8]* @.str.93, i64 0, i64 0)) #11
  call void @_ZN12CJS_Document19setPropertyInternalEP11CJS_RuntimeN2v85LocalINS2_5ValueEEERKN5fxcrt10ByteStringE(%class.CJS_Result* sret %0, %class.CJS_Document* %1, %class.CJS_Runtime* %2, %"class.v8::Value"* %3, %"class.fxcrt::ByteString"* nonnull dereferenceable(8) %5)
  call void @_ZN5fxcrt10ByteStringD1Ev(%"class.fxcrt::ByteString"* nonnull %5) #11
  call void @llvm.lifetime.end.p0i8(i64 8, i8* nonnull %11) #11
  br label %12

12:                                               ; preds = %10, %9
  ret void
}

; Function Attrs: nounwind ssp uwtable
define hidden void @_ZN12CJS_Document13get_num_pagesEP11CJS_Runtime(%class.CJS_Result* noalias sret, %class.CJS_Document* nocapture readonly, %class.CJS_Runtime*) local_unnamed_addr #0 align 2 {
  %4 = getelementptr inbounds %class.CJS_Document, %class.CJS_Document* %1, i64 0, i32 3, i32 1
  %5 = load %class.CPDFSDK_FormFillEnvironment*, %class.CPDFSDK_FormFillEnvironment** %4, align 8
  %6 = icmp eq %class.CPDFSDK_FormFillEnvironment* %5, null
  br i1 %6, label %7, label %8

7:                                                ; preds = %3
  tail call void @_ZN10CJS_ResultC1E9JSMessage(%class.CJS_Result* %0, i32 19) #11
  br label %13

8:                                                ; preds = %3
  %9 = getelementptr inbounds %class.CJS_Runtime, %class.CJS_Runtime* %2, i64 0, i32 1, i32 0
  %10 = tail call i32 @_ZNK27CPDFSDK_FormFillEnvironment12GetPageCountEv(%class.CPDFSDK_FormFillEnvironment* nonnull %5) #11
  %11 = tail call %"class.v8::Number"* @_ZN6CFX_V89NewNumberEi(%class.CFX_V8* %9, i32 %10) #11
  %12 = bitcast %"class.v8::Number"* %11 to %"class.v8::Value"*
  tail call void @_ZN10CJS_ResultC1EN2v85LocalINS0_5ValueEEE(%class.CJS_Result* %0, %"class.v8::Value"* %12) #11
  br label %13

13:                                               ; preds = %8, %7
  ret void
}

; Function Attrs: nounwind ssp uwtable
define hidden void @_ZN12CJS_Document13set_num_pagesEP11CJS_RuntimeN2v85LocalINS2_5ValueEEE(%class.CJS_Result* noalias sret, %class.CJS_Document* nocapture readnone, %class.CJS_Runtime* nocapture readnone, %"class.v8::Value"* nocapture readnone) local_unnamed_addr #0 align 2 {
  tail call void @_ZN10CJS_ResultC1E9JSMessage(%class.CJS_Result* %0, i32 15) #11
  ret void
}

; Function Attrs: nounwind ssp uwtable
define hidden void @_ZN12CJS_Document12get_externalEP11CJS_Runtime(%class.CJS_Result* noalias sret, %class.CJS_Document* nocapture readnone, %class.CJS_Runtime*) local_unnamed_addr #0 align 2 {
  %4 = getelementptr inbounds %class.CJS_Runtime, %class.CJS_Runtime* %2, i64 0, i32 1, i32 0
  %5 = tail call %"class.v8::Boolean"* @_ZN6CFX_V810NewBooleanEb(%class.CFX_V8* %4, i1 zeroext true) #11
  %6 = bitcast %"class.v8::Boolean"* %5 to %"class.v8::Value"*
  tail call void @_ZN10CJS_ResultC1EN2v85LocalINS0_5ValueEEE(%class.CJS_Result* %0, %"class.v8::Value"* %6) #11
  ret void
}

; Function Attrs: nounwind ssp uwtable
define hidden void @_ZN12CJS_Document12set_externalEP11CJS_RuntimeN2v85LocalINS2_5ValueEEE(%class.CJS_Result* noalias sret, %class.CJS_Document* nocapture readnone, %class.CJS_Runtime* nocapture readnone, %"class.v8::Value"* nocapture readnone) local_unnamed_addr #0 align 2 {
  tail call void @_ZN10CJS_ResultC1Ev(%class.CJS_Result* %0) #11
  ret void
}

; Function Attrs: nounwind ssp uwtable
define hidden void @_ZN12CJS_Document12get_filesizeEP11CJS_Runtime(%class.CJS_Result* noalias sret, %class.CJS_Document* nocapture readnone, %class.CJS_Runtime*) local_unnamed_addr #0 align 2 {
  %4 = getelementptr inbounds %class.CJS_Runtime, %class.CJS_Runtime* %2, i64 0, i32 1, i32 0
  %5 = tail call %"class.v8::Number"* @_ZN6CFX_V89NewNumberEi(%class.CFX_V8* %4, i32 0) #11
  %6 = bitcast %"class.v8::Number"* %5 to %"class.v8::Value"*
  tail call void @_ZN10CJS_ResultC1EN2v85LocalINS0_5ValueEEE(%class.CJS_Result* %0, %"class.v8::Value"* %6) #11
  ret void
}

; Function Attrs: nounwind ssp uwtable
define hidden void @_ZN12CJS_Document12set_filesizeEP11CJS_RuntimeN2v85LocalINS2_5ValueEEE(%class.CJS_Result* noalias sret, %class.CJS_Document* nocapture readnone, %class.CJS_Runtime* nocapture readnone, %"class.v8::Value"* nocapture readnone) local_unnamed_addr #0 align 2 {
  tail call void @_ZN10CJS_ResultC1E9JSMessage(%class.CJS_Result* %0, i32 15) #11
  ret void
}

; Function Attrs: nounwind ssp uwtable
define hidden void @_ZN12CJS_Document11get_mouse_xEP11CJS_Runtime(%class.CJS_Result* noalias sret, %class.CJS_Document* nocapture readnone, %class.CJS_Runtime* nocapture readnone) local_unnamed_addr #0 align 2 {
  tail call void @_ZN10CJS_ResultC1Ev(%class.CJS_Result* %0) #11
  ret void
}

; Function Attrs: nounwind ssp uwtable
define hidden void @_ZN12CJS_Document11set_mouse_xEP11CJS_RuntimeN2v85LocalINS2_5ValueEEE(%class.CJS_Result* noalias sret, %class.CJS_Document* nocapture readnone, %class.CJS_Runtime* nocapture readnone, %"class.v8::Value"* nocapture readnone) local_unnamed_addr #0 align 2 {
  tail call void @_ZN10CJS_ResultC1Ev(%class.CJS_Result* %0) #11
  ret void
}

; Function Attrs: nounwind ssp uwtable
define hidden void @_ZN12CJS_Document11get_mouse_yEP11CJS_Runtime(%class.CJS_Result* noalias sret, %class.CJS_Document* nocapture readnone, %class.CJS_Runtime* nocapture readnone) local_unnamed_addr #0 align 2 {
  tail call void @_ZN10CJS_ResultC1Ev(%class.CJS_Result* %0) #11
  ret void
}

; Function Attrs: nounwind ssp uwtable
define hidden void @_ZN12CJS_Document11set_mouse_yEP11CJS_RuntimeN2v85LocalINS2_5ValueEEE(%class.CJS_Result* noalias sret, %class.CJS_Document* nocapture readnone, %class.CJS_Runtime* nocapture readnone, %"class.v8::Value"* nocapture readnone) local_unnamed_addr #0 align 2 {
  tail call void @_ZN10CJS_ResultC1Ev(%class.CJS_Result* %0) #11
  ret void
}

; Function Attrs: nounwind ssp uwtable
define hidden void @_ZN12CJS_Document7get_URLEP11CJS_Runtime(%class.CJS_Result* noalias sret, %class.CJS_Document* nocapture readonly, %class.CJS_Runtime*) local_unnamed_addr #0 align 2 {
  %4 = alloca %"class.fxcrt::StringViewTemplate", align 8
  %5 = alloca %"class.fxcrt::WideString", align 8
  %6 = getelementptr inbounds %class.CJS_Document, %class.CJS_Document* %1, i64 0, i32 3, i32 1
  %7 = load %class.CPDFSDK_FormFillEnvironment*, %class.CPDFSDK_FormFillEnvironment** %6, align 8
  %8 = icmp eq %class.CPDFSDK_FormFillEnvironment* %7, null
  br i1 %8, label %9, label %10

9:                                                ; preds = %3
  tail call void @_ZN10CJS_ResultC1E9JSMessage(%class.CJS_Result* %0, i32 19) #11
  br label %28

10:                                               ; preds = %3
  %11 = getelementptr inbounds %class.CJS_Runtime, %class.CJS_Runtime* %2, i64 0, i32 1, i32 0
  %12 = bitcast %"class.fxcrt::WideString"* %5 to i8*
  call void @llvm.lifetime.start.p0i8(i64 8, i8* nonnull %12) #11
  call void @_ZN27CPDFSDK_FormFillEnvironment17JS_docGetFilePathEv(%"class.fxcrt::WideString"* nonnull sret %5, %class.CPDFSDK_FormFillEnvironment* nonnull %7) #11
  %13 = getelementptr inbounds %"class.fxcrt::WideString", %"class.fxcrt::WideString"* %5, i64 0, i32 0, i32 0, i32 0, i32 0, i32 0
  %14 = load %"class.fxcrt::StringDataTemplate.315"*, %"class.fxcrt::StringDataTemplate.315"** %13, align 8, !noalias !67
  %15 = icmp eq %"class.fxcrt::StringDataTemplate.315"* %14, null
  %16 = getelementptr inbounds %"class.fxcrt::StringDataTemplate.315", %"class.fxcrt::StringDataTemplate.315"* %14, i64 0, i32 3
  %17 = select i1 %15, [1 x i32]* @.str.103, [1 x i32]* %16
  %18 = getelementptr inbounds [1 x i32], [1 x i32]* %17, i64 0, i64 0
  br i1 %15, label %22, label %19

19:                                               ; preds = %10
  %20 = getelementptr inbounds %"class.fxcrt::StringDataTemplate.315", %"class.fxcrt::StringDataTemplate.315"* %14, i64 0, i32 1
  %21 = load i64, i64* %20, align 8, !noalias !67
  br label %22

22:                                               ; preds = %10, %19
  %23 = phi i64 [ %21, %19 ], [ 0, %10 ]
  %24 = getelementptr inbounds %"class.fxcrt::StringViewTemplate", %"class.fxcrt::StringViewTemplate"* %4, i64 0, i32 0, i32 0, i32 0
  store i32* %18, i32** %24, align 8, !alias.scope !67
  %25 = getelementptr inbounds %"class.fxcrt::StringViewTemplate", %"class.fxcrt::StringViewTemplate"* %4, i64 0, i32 0, i32 1
  store i64 %23, i64* %25, align 8, !alias.scope !67
  %26 = call %"class.v8::String"* @_ZN6CFX_V89NewStringEN5fxcrt18StringViewTemplateIwEE(%class.CFX_V8* %11, %"class.fxcrt::StringViewTemplate"* nonnull %4) #11
  %27 = bitcast %"class.v8::String"* %26 to %"class.v8::Value"*
  call void @_ZN10CJS_ResultC1EN2v85LocalINS0_5ValueEEE(%class.CJS_Result* %0, %"class.v8::Value"* %27) #11
  call void @_ZN5fxcrt10WideStringD1Ev(%"class.fxcrt::WideString"* nonnull %5) #11
  call void @llvm.lifetime.end.p0i8(i64 8, i8* nonnull %12) #11
  br label %28

28:                                               ; preds = %22, %9
  ret void
}

declare void @_ZN27CPDFSDK_FormFillEnvironment17JS_docGetFilePathEv(%"class.fxcrt::WideString"* sret, %class.CPDFSDK_FormFillEnvironment*) local_unnamed_addr #2

; Function Attrs: nounwind ssp uwtable
define hidden void @_ZN12CJS_Document7set_URLEP11CJS_RuntimeN2v85LocalINS2_5ValueEEE(%class.CJS_Result* noalias sret, %class.CJS_Document* nocapture readnone, %class.CJS_Runtime* nocapture readnone, %"class.v8::Value"* nocapture readnone) local_unnamed_addr #0 align 2 {
  tail call void @_ZN10CJS_ResultC1E9JSMessage(%class.CJS_Result* %0, i32 15) #11
  ret void
}

; Function Attrs: nounwind ssp uwtable
define hidden void @_ZN12CJS_Document12get_base_URLEP11CJS_Runtime(%class.CJS_Result* noalias sret, %class.CJS_Document* nocapture readonly, %class.CJS_Runtime*) local_unnamed_addr #0 align 2 {
  %4 = alloca %"class.fxcrt::StringViewTemplate", align 8
  %5 = getelementptr inbounds %class.CJS_Runtime, %class.CJS_Runtime* %2, i64 0, i32 1, i32 0
  %6 = getelementptr inbounds %class.CJS_Document, %class.CJS_Document* %1, i64 0, i32 2, i32 0, i32 0, i32 0, i32 0, i32 0
  %7 = load %"class.fxcrt::StringDataTemplate.315"*, %"class.fxcrt::StringDataTemplate.315"** %6, align 8, !noalias !70
  %8 = icmp eq %"class.fxcrt::StringDataTemplate.315"* %7, null
  %9 = getelementptr inbounds %"class.fxcrt::StringDataTemplate.315", %"class.fxcrt::StringDataTemplate.315"* %7, i64 0, i32 3
  %10 = select i1 %8, [1 x i32]* @.str.103, [1 x i32]* %9
  %11 = getelementptr inbounds [1 x i32], [1 x i32]* %10, i64 0, i64 0
  br i1 %8, label %15, label %12

12:                                               ; preds = %3
  %13 = getelementptr inbounds %"class.fxcrt::StringDataTemplate.315", %"class.fxcrt::StringDataTemplate.315"* %7, i64 0, i32 1
  %14 = load i64, i64* %13, align 8, !noalias !70
  br label %15

15:                                               ; preds = %3, %12
  %16 = phi i64 [ %14, %12 ], [ 0, %3 ]
  %17 = getelementptr inbounds %"class.fxcrt::StringViewTemplate", %"class.fxcrt::StringViewTemplate"* %4, i64 0, i32 0, i32 0, i32 0
  store i32* %11, i32** %17, align 8, !alias.scope !70
  %18 = getelementptr inbounds %"class.fxcrt::StringViewTemplate", %"class.fxcrt::StringViewTemplate"* %4, i64 0, i32 0, i32 1
  store i64 %16, i64* %18, align 8, !alias.scope !70
  %19 = call %"class.v8::String"* @_ZN6CFX_V89NewStringEN5fxcrt18StringViewTemplateIwEE(%class.CFX_V8* %5, %"class.fxcrt::StringViewTemplate"* nonnull %4) #11
  %20 = bitcast %"class.v8::String"* %19 to %"class.v8::Value"*
  call void @_ZN10CJS_ResultC1EN2v85LocalINS0_5ValueEEE(%class.CJS_Result* %0, %"class.v8::Value"* %20) #11
  ret void
}

; Function Attrs: nounwind ssp uwtable
define hidden void @_ZN12CJS_Document12set_base_URLEP11CJS_RuntimeN2v85LocalINS2_5ValueEEE(%class.CJS_Result* noalias sret, %class.CJS_Document*, %class.CJS_Runtime*, %"class.v8::Value"*) local_unnamed_addr #0 align 2 {
  %5 = alloca %"class.fxcrt::WideString", align 8
  %6 = bitcast %"class.fxcrt::WideString"* %5 to i8*
  call void @llvm.lifetime.start.p0i8(i64 8, i8* nonnull %6) #11
  %7 = getelementptr inbounds %class.CJS_Runtime, %class.CJS_Runtime* %2, i64 0, i32 1, i32 0
  call void @_ZN6CFX_V812ToWideStringEN2v85LocalINS0_5ValueEEE(%"class.fxcrt::WideString"* nonnull sret %5, %class.CFX_V8* %7, %"class.v8::Value"* %3) #11
  %8 = getelementptr inbounds %class.CJS_Document, %class.CJS_Document* %1, i64 0, i32 2
  %9 = call dereferenceable(8) %"class.fxcrt::WideString"* @_ZN5fxcrt10WideStringaSEOS0_(%"class.fxcrt::WideString"* %8, %"class.fxcrt::WideString"* nonnull dereferenceable(8) %5) #11
  call void @_ZN5fxcrt10WideStringD1Ev(%"class.fxcrt::WideString"* nonnull %5) #11
  call void @llvm.lifetime.end.p0i8(i64 8, i8* nonnull %6) #11
  call void @_ZN10CJS_ResultC1Ev(%class.CJS_Result* %0) #11
  ret void
}

; Function Attrs: nounwind ssp uwtable
define hidden void @_ZN12CJS_Document13get_calculateEP11CJS_Runtime(%class.CJS_Result* noalias sret, %class.CJS_Document* nocapture readonly, %class.CJS_Runtime*) local_unnamed_addr #0 align 2 {
  %4 = getelementptr inbounds %class.CJS_Document, %class.CJS_Document* %1, i64 0, i32 3, i32 1
  %5 = load %class.CPDFSDK_FormFillEnvironment*, %class.CPDFSDK_FormFillEnvironment** %4, align 8
  %6 = icmp eq %class.CPDFSDK_FormFillEnvironment* %5, null
  br i1 %6, label %7, label %8

7:                                                ; preds = %3
  tail call void @_ZN10CJS_ResultC1E9JSMessage(%class.CJS_Result* %0, i32 19) #11
  br label %14

8:                                                ; preds = %3
  %9 = tail call %class.CPDFSDK_InteractiveForm* @_ZN27CPDFSDK_FormFillEnvironment18GetInteractiveFormEv(%class.CPDFSDK_FormFillEnvironment* nonnull %5) #11
  %10 = getelementptr inbounds %class.CJS_Runtime, %class.CJS_Runtime* %2, i64 0, i32 1, i32 0
  %11 = tail call zeroext i1 @_ZNK23CPDFSDK_InteractiveForm18IsCalculateEnabledEv(%class.CPDFSDK_InteractiveForm* %9) #11
  %12 = tail call %"class.v8::Boolean"* @_ZN6CFX_V810NewBooleanEb(%class.CFX_V8* %10, i1 zeroext %11) #11
  %13 = bitcast %"class.v8::Boolean"* %12 to %"class.v8::Value"*
  tail call void @_ZN10CJS_ResultC1EN2v85LocalINS0_5ValueEEE(%class.CJS_Result* %0, %"class.v8::Value"* %13) #11
  br label %14

14:                                               ; preds = %8, %7
  ret void
}

declare zeroext i1 @_ZNK23CPDFSDK_InteractiveForm18IsCalculateEnabledEv(%class.CPDFSDK_InteractiveForm*) local_unnamed_addr #2

; Function Attrs: nounwind ssp uwtable
define hidden void @_ZN12CJS_Document13set_calculateEP11CJS_RuntimeN2v85LocalINS2_5ValueEEE(%class.CJS_Result* noalias sret, %class.CJS_Document* nocapture readonly, %class.CJS_Runtime*, %"class.v8::Value"*) local_unnamed_addr #0 align 2 {
  %5 = getelementptr inbounds %class.CJS_Document, %class.CJS_Document* %1, i64 0, i32 3, i32 1
  %6 = load %class.CPDFSDK_FormFillEnvironment*, %class.CPDFSDK_FormFillEnvironment** %5, align 8
  %7 = icmp eq %class.CPDFSDK_FormFillEnvironment* %6, null
  br i1 %7, label %8, label %9

8:                                                ; preds = %4
  tail call void @_ZN10CJS_ResultC1E9JSMessage(%class.CJS_Result* %0, i32 19) #11
  br label %13

9:                                                ; preds = %4
  %10 = tail call %class.CPDFSDK_InteractiveForm* @_ZN27CPDFSDK_FormFillEnvironment18GetInteractiveFormEv(%class.CPDFSDK_FormFillEnvironment* nonnull %6) #11
  %11 = getelementptr inbounds %class.CJS_Runtime, %class.CJS_Runtime* %2, i64 0, i32 1, i32 0
  %12 = tail call zeroext i1 @_ZN6CFX_V89ToBooleanEN2v85LocalINS0_5ValueEEE(%class.CFX_V8* %11, %"class.v8::Value"* %3) #11
  tail call void @_ZN23CPDFSDK_InteractiveForm15EnableCalculateEb(%class.CPDFSDK_InteractiveForm* %10, i1 zeroext %12) #11
  tail call void @_ZN10CJS_ResultC1Ev(%class.CJS_Result* %0) #11
  br label %13

13:                                               ; preds = %9, %8
  ret void
}

declare void @_ZN23CPDFSDK_InteractiveForm15EnableCalculateEb(%class.CPDFSDK_InteractiveForm*, i1 zeroext) local_unnamed_addr #2

; Function Attrs: nounwind ssp uwtable
define hidden void @_ZN12CJS_Document22get_document_file_nameEP11CJS_Runtime(%class.CJS_Result* noalias sret, %class.CJS_Document* nocapture readonly, %class.CJS_Runtime*) local_unnamed_addr #0 align 2 {
  %4 = alloca %"class.fxcrt::WideString", align 8
  %5 = alloca %"class.fxcrt::StringViewTemplate", align 8
  %6 = alloca %"class.fxcrt::StringViewTemplate.481", align 8
  %7 = getelementptr inbounds %class.CJS_Document, %class.CJS_Document* %1, i64 0, i32 3, i32 1
  %8 = load %class.CPDFSDK_FormFillEnvironment*, %class.CPDFSDK_FormFillEnvironment** %7, align 8
  %9 = icmp eq %class.CPDFSDK_FormFillEnvironment* %8, null
  br i1 %9, label %10, label %11

10:                                               ; preds = %3
  tail call void @_ZN10CJS_ResultC1E9JSMessage(%class.CJS_Result* %0, i32 19) #11
  br label %55

11:                                               ; preds = %3
  %12 = bitcast %"class.fxcrt::WideString"* %4 to i8*
  call void @llvm.lifetime.start.p0i8(i64 8, i8* nonnull %12) #11
  %13 = getelementptr inbounds %"class.fxcrt::WideString", %"class.fxcrt::WideString"* %4, i64 0, i32 0, i32 0, i32 0, i32 0, i32 0
  store %"class.fxcrt::StringDataTemplate.315"* inttoptr (i64 -6148914691236517206 to %"class.fxcrt::StringDataTemplate.315"*), %"class.fxcrt::StringDataTemplate.315"** %13, align 8
  call void @_ZN27CPDFSDK_FormFillEnvironment17JS_docGetFilePathEv(%"class.fxcrt::WideString"* nonnull sret %4, %class.CPDFSDK_FormFillEnvironment* nonnull %8) #11
  %14 = load %"class.fxcrt::StringDataTemplate.315"*, %"class.fxcrt::StringDataTemplate.315"** %13, align 8
  %15 = icmp eq %"class.fxcrt::StringDataTemplate.315"* %14, null
  br i1 %15, label %19, label %16

16:                                               ; preds = %11
  %17 = getelementptr inbounds %"class.fxcrt::StringDataTemplate.315", %"class.fxcrt::StringDataTemplate.315"* %14, i64 0, i32 1
  %18 = load i64, i64* %17, align 8
  br label %19

19:                                               ; preds = %11, %16
  %20 = phi i64 [ %18, %16 ], [ 0, %11 ]
  %21 = getelementptr inbounds %"class.fxcrt::StringDataTemplate.315", %"class.fxcrt::StringDataTemplate.315"* %14, i64 0, i32 1
  br label %22

22:                                               ; preds = %31, %19
  %23 = phi i64 [ %20, %19 ], [ %26, %31 ]
  %24 = icmp eq i64 %23, 0
  br i1 %24, label %47, label %25

25:                                               ; preds = %22
  %26 = add i64 %23, -1
  br i1 %15, label %30, label %27

27:                                               ; preds = %25
  %28 = load i64, i64* %21, align 8
  %29 = icmp ugt i64 %28, %26
  br i1 %29, label %31, label %30, !prof !61

30:                                               ; preds = %27, %25
  call void asm sideeffect "int3", "~{dirflag},~{fpsr},~{flags}"() #11, !srcloc !73
  call void asm sideeffect "ud2", "~{dirflag},~{fpsr},~{flags}"() #11, !srcloc !74
  unreachable

31:                                               ; preds = %27
  %32 = getelementptr inbounds %"class.fxcrt::StringDataTemplate.315", %"class.fxcrt::StringDataTemplate.315"* %14, i64 0, i32 3, i64 %26
  %33 = load i32, i32* %32, align 4
  switch i32 %33, label %22 [
    i32 92, label %34
    i32 47, label %34
  ]

34:                                               ; preds = %31, %31
  %35 = icmp ult i64 %23, %28
  br i1 %35, label %36, label %47

36:                                               ; preds = %34
  %37 = getelementptr inbounds %class.CJS_Runtime, %class.CJS_Runtime* %2, i64 0, i32 1, i32 0
  %38 = getelementptr inbounds %"class.fxcrt::StringDataTemplate.315", %"class.fxcrt::StringDataTemplate.315"* %14, i64 0, i32 3, i64 %23
  %39 = icmp eq i32* %38, null
  br i1 %39, label %42, label %40

40:                                               ; preds = %36
  %41 = call i64 @wcslen(i32* nonnull %38) #14
  br label %42

42:                                               ; preds = %36, %40
  %43 = phi i64 [ %41, %40 ], [ 0, %36 ]
  %44 = getelementptr inbounds %"class.fxcrt::StringViewTemplate", %"class.fxcrt::StringViewTemplate"* %5, i64 0, i32 0, i32 0, i32 0
  store i32* %38, i32** %44, align 8
  %45 = getelementptr inbounds %"class.fxcrt::StringViewTemplate", %"class.fxcrt::StringViewTemplate"* %5, i64 0, i32 0, i32 1
  store i64 %43, i64* %45, align 8
  %46 = call %"class.v8::String"* @_ZN6CFX_V89NewStringEN5fxcrt18StringViewTemplateIwEE(%class.CFX_V8* %37, %"class.fxcrt::StringViewTemplate"* nonnull %5) #11
  br label %52

47:                                               ; preds = %22, %34
  %48 = getelementptr inbounds %class.CJS_Runtime, %class.CJS_Runtime* %2, i64 0, i32 1, i32 0
  %49 = getelementptr inbounds %"class.fxcrt::StringViewTemplate.481", %"class.fxcrt::StringViewTemplate.481"* %6, i64 0, i32 0, i32 0, i32 0
  store i8* getelementptr inbounds ([1 x i8], [1 x i8]* @.str.101, i64 0, i64 0), i8** %49, align 8
  %50 = getelementptr inbounds %"class.fxcrt::StringViewTemplate.481", %"class.fxcrt::StringViewTemplate.481"* %6, i64 0, i32 0, i32 1
  store i64 0, i64* %50, align 8
  %51 = call %"class.v8::String"* @_ZN6CFX_V89NewStringEN5fxcrt18StringViewTemplateIcEE(%class.CFX_V8* %48, %"class.fxcrt::StringViewTemplate.481"* nonnull %6) #11
  br label %52

52:                                               ; preds = %47, %42
  %53 = phi %"class.v8::String"* [ %51, %47 ], [ %46, %42 ]
  %54 = bitcast %"class.v8::String"* %53 to %"class.v8::Value"*
  call void @_ZN10CJS_ResultC1EN2v85LocalINS0_5ValueEEE(%class.CJS_Result* %0, %"class.v8::Value"* %54) #11
  call void @_ZN5fxcrt10WideStringD1Ev(%"class.fxcrt::WideString"* nonnull %4) #11
  call void @llvm.lifetime.end.p0i8(i64 8, i8* nonnull %12) #11
  br label %55

55:                                               ; preds = %52, %10
  ret void
}

declare %"class.v8::String"* @_ZN6CFX_V89NewStringEN5fxcrt18StringViewTemplateIcEE(%class.CFX_V8*, %"class.fxcrt::StringViewTemplate.481"*) local_unnamed_addr #2

; Function Attrs: nounwind ssp uwtable
define hidden void @_ZN12CJS_Document22set_document_file_nameEP11CJS_RuntimeN2v85LocalINS2_5ValueEEE(%class.CJS_Result* noalias sret, %class.CJS_Document* nocapture readnone, %class.CJS_Runtime* nocapture readnone, %"class.v8::Value"* nocapture readnone) local_unnamed_addr #0 align 2 {
  tail call void @_ZN10CJS_ResultC1E9JSMessage(%class.CJS_Result* %0, i32 15) #11
  ret void
}

; Function Attrs: nounwind ssp uwtable
define hidden void @_ZN12CJS_Document8get_pathEP11CJS_Runtime(%class.CJS_Result* noalias sret, %class.CJS_Document* nocapture readonly, %class.CJS_Runtime*) local_unnamed_addr #0 align 2 {
  %4 = alloca %"class.fxcrt::StringViewTemplate", align 8
  %5 = alloca %"class.fxcrt::WideString", align 8
  %6 = alloca %"class.fxcrt::WideString", align 8
  %7 = getelementptr inbounds %class.CJS_Document, %class.CJS_Document* %1, i64 0, i32 3, i32 1
  %8 = load %class.CPDFSDK_FormFillEnvironment*, %class.CPDFSDK_FormFillEnvironment** %7, align 8
  %9 = icmp eq %class.CPDFSDK_FormFillEnvironment* %8, null
  br i1 %9, label %10, label %11

10:                                               ; preds = %3
  tail call void @_ZN10CJS_ResultC1E9JSMessage(%class.CJS_Result* %0, i32 19) #11
  br label %30

11:                                               ; preds = %3
  %12 = getelementptr inbounds %class.CJS_Runtime, %class.CJS_Runtime* %2, i64 0, i32 1, i32 0
  %13 = bitcast %"class.fxcrt::WideString"* %5 to i8*
  call void @llvm.lifetime.start.p0i8(i64 8, i8* nonnull %13) #11
  %14 = bitcast %"class.fxcrt::WideString"* %6 to i8*
  call void @llvm.lifetime.start.p0i8(i64 8, i8* nonnull %14) #11
  call void @_ZN27CPDFSDK_FormFillEnvironment17JS_docGetFilePathEv(%"class.fxcrt::WideString"* nonnull sret %6, %class.CPDFSDK_FormFillEnvironment* nonnull %8) #11
  call void @_ZN7CJS_App16SysPathToPDFPathERKN5fxcrt10WideStringE(%"class.fxcrt::WideString"* nonnull sret %5, %"class.fxcrt::WideString"* nonnull dereferenceable(8) %6) #11
  %15 = getelementptr inbounds %"class.fxcrt::WideString", %"class.fxcrt::WideString"* %5, i64 0, i32 0, i32 0, i32 0, i32 0, i32 0
  %16 = load %"class.fxcrt::StringDataTemplate.315"*, %"class.fxcrt::StringDataTemplate.315"** %15, align 8, !noalias !75
  %17 = icmp eq %"class.fxcrt::StringDataTemplate.315"* %16, null
  %18 = getelementptr inbounds %"class.fxcrt::StringDataTemplate.315", %"class.fxcrt::StringDataTemplate.315"* %16, i64 0, i32 3
  %19 = select i1 %17, [1 x i32]* @.str.103, [1 x i32]* %18
  %20 = getelementptr inbounds [1 x i32], [1 x i32]* %19, i64 0, i64 0
  br i1 %17, label %24, label %21

21:                                               ; preds = %11
  %22 = getelementptr inbounds %"class.fxcrt::StringDataTemplate.315", %"class.fxcrt::StringDataTemplate.315"* %16, i64 0, i32 1
  %23 = load i64, i64* %22, align 8, !noalias !75
  br label %24

24:                                               ; preds = %11, %21
  %25 = phi i64 [ %23, %21 ], [ 0, %11 ]
  %26 = getelementptr inbounds %"class.fxcrt::StringViewTemplate", %"class.fxcrt::StringViewTemplate"* %4, i64 0, i32 0, i32 0, i32 0
  store i32* %20, i32** %26, align 8, !alias.scope !75
  %27 = getelementptr inbounds %"class.fxcrt::StringViewTemplate", %"class.fxcrt::StringViewTemplate"* %4, i64 0, i32 0, i32 1
  store i64 %25, i64* %27, align 8, !alias.scope !75
  %28 = call %"class.v8::String"* @_ZN6CFX_V89NewStringEN5fxcrt18StringViewTemplateIwEE(%class.CFX_V8* %12, %"class.fxcrt::StringViewTemplate"* nonnull %4) #11
  %29 = bitcast %"class.v8::String"* %28 to %"class.v8::Value"*
  call void @_ZN10CJS_ResultC1EN2v85LocalINS0_5ValueEEE(%class.CJS_Result* %0, %"class.v8::Value"* %29) #11
  call void @_ZN5fxcrt10WideStringD1Ev(%"class.fxcrt::WideString"* nonnull %5) #11
  call void @_ZN5fxcrt10WideStringD1Ev(%"class.fxcrt::WideString"* nonnull %6) #11
  call void @llvm.lifetime.end.p0i8(i64 8, i8* nonnull %14) #11
  call void @llvm.lifetime.end.p0i8(i64 8, i8* nonnull %13) #11
  br label %30

30:                                               ; preds = %24, %10
  ret void
}

declare void @_ZN7CJS_App16SysPathToPDFPathERKN5fxcrt10WideStringE(%"class.fxcrt::WideString"* sret, %"class.fxcrt::WideString"* dereferenceable(8)) local_unnamed_addr #2

; Function Attrs: nounwind ssp uwtable
define hidden void @_ZN12CJS_Document8set_pathEP11CJS_RuntimeN2v85LocalINS2_5ValueEEE(%class.CJS_Result* noalias sret, %class.CJS_Document* nocapture readnone, %class.CJS_Runtime* nocapture readnone, %"class.v8::Value"* nocapture readnone) local_unnamed_addr #0 align 2 {
  tail call void @_ZN10CJS_ResultC1E9JSMessage(%class.CJS_Result* %0, i32 15) #11
  ret void
}

; Function Attrs: nounwind ssp uwtable
define hidden void @_ZN12CJS_Document20get_page_window_rectEP11CJS_Runtime(%class.CJS_Result* noalias sret, %class.CJS_Document* nocapture readnone, %class.CJS_Runtime* nocapture readnone) local_unnamed_addr #0 align 2 {
  tail call void @_ZN10CJS_ResultC1Ev(%class.CJS_Result* %0) #11
  ret void
}

; Function Attrs: nounwind ssp uwtable
define hidden void @_ZN12CJS_Document20set_page_window_rectEP11CJS_RuntimeN2v85LocalINS2_5ValueEEE(%class.CJS_Result* noalias sret, %class.CJS_Document* nocapture readnone, %class.CJS_Runtime* nocapture readnone, %"class.v8::Value"* nocapture readnone) local_unnamed_addr #0 align 2 {
  tail call void @_ZN10CJS_ResultC1Ev(%class.CJS_Result* %0) #11
  ret void
}

; Function Attrs: nounwind ssp uwtable
define hidden void @_ZN12CJS_Document10get_layoutEP11CJS_Runtime(%class.CJS_Result* noalias sret, %class.CJS_Document* nocapture readnone, %class.CJS_Runtime* nocapture readnone) local_unnamed_addr #0 align 2 {
  tail call void @_ZN10CJS_ResultC1Ev(%class.CJS_Result* %0) #11
  ret void
}

; Function Attrs: nounwind ssp uwtable
define hidden void @_ZN12CJS_Document10set_layoutEP11CJS_RuntimeN2v85LocalINS2_5ValueEEE(%class.CJS_Result* noalias sret, %class.CJS_Document* nocapture readnone, %class.CJS_Runtime* nocapture readnone, %"class.v8::Value"* nocapture readnone) local_unnamed_addr #0 align 2 {
  tail call void @_ZN10CJS_ResultC1Ev(%class.CJS_Result* %0) #11
  ret void
}

; Function Attrs: nounwind ssp uwtable
define hidden void @_ZN12CJS_Document7addLinkEP11CJS_RuntimeRKNSt3__16vectorIN2v85LocalINS4_5ValueEEENS2_9allocatorIS7_EEEE(%class.CJS_Result* noalias sret, %class.CJS_Document* nocapture readnone, %class.CJS_Runtime* nocapture readnone, %"class.std::__1::vector.420"* nocapture readnone dereferenceable(24)) local_unnamed_addr #0 align 2 {
  tail call void @_ZN10CJS_ResultC1Ev(%class.CJS_Result* %0) #11
  ret void
}

; Function Attrs: nounwind ssp uwtable
define hidden void @_ZN12CJS_Document8closeDocEP11CJS_RuntimeRKNSt3__16vectorIN2v85LocalINS4_5ValueEEENS2_9allocatorIS7_EEEE(%class.CJS_Result* noalias sret, %class.CJS_Document* nocapture readnone, %class.CJS_Runtime* nocapture readnone, %"class.std::__1::vector.420"* nocapture readnone dereferenceable(24)) local_unnamed_addr #0 align 2 {
  tail call void @_ZN10CJS_ResultC1Ev(%class.CJS_Result* %0) #11
  ret void
}

; Function Attrs: nounwind ssp uwtable
