; ModuleID = '../../third_party/pdfium/fxjs/cjs_field.cpp'
source_filename = "../../third_party/pdfium/fxjs/cjs_field.cpp"
target datalayout = "e-m:e-i64:64-f80:128-n8:16:32:64-S128"
target triple = "x86_64-unknown-linux-gnu"

module asm ".symver exp, exp@GLIBC_2.2.5"
module asm ".symver exp2, exp2@GLIBC_2.2.5"
module asm ".symver exp2f, exp2f@GLIBC_2.2.5"
module asm ".symver expf, expf@GLIBC_2.2.5"
module asm ".symver lgamma, lgamma@GLIBC_2.2.5"
module asm ".symver lgammaf, lgammaf@GLIBC_2.2.5"
module asm ".symver lgammal, lgammal@GLIBC_2.2.5"
module asm ".symver log, log@GLIBC_2.2.5"
module asm ".symver log2, log2@GLIBC_2.2.5"
module asm ".symver log2f, log2f@GLIBC_2.2.5"
module asm ".symver logf, logf@GLIBC_2.2.5"
module asm ".symver pow, pow@GLIBC_2.2.5"
module asm ".symver powf, powf@GLIBC_2.2.5"

%struct.JSPropertySpec = type { i8*, void (%"class.v8::String"*, %"class.v8::PropertyCallbackInfo"*)*, void (%"class.v8::String"*, %"class.v8::Value"*, %"class.v8::PropertyCallbackInfo.1"*)* }
%"class.v8::String" = type { i8 }
%"class.v8::PropertyCallbackInfo" = type { i64* }
%"class.v8::Value" = type { i8 }
%"class.v8::PropertyCallbackInfo.1" = type { i64* }
%struct.JSMethodSpec = type { i8*, void (%"class.v8::FunctionCallbackInfo"*)* }
%"class.v8::FunctionCallbackInfo" = type <{ i64*, i64*, i32, [4 x i8] }>
%"struct.std::__1::__function::__policy" = type { i8* (i8*)*, void (i8*)*, i8, %"class.std::type_info"* }
%"class.std::type_info" = type { i32 (...)**, i8* }
%class.CJS_Field = type <{ %class.CJS_Object, %"class.fxcrt::ObservedPtr.311", %"class.fxcrt::ObservedPtr.39", %"class.fxcrt::WideString", i32, i8, i8, [2 x i8] }>
%class.CJS_Object = type { i32 (...)**, %"class.fxcrt::UnownedPtr", %"class.v8::Global.2", %"class.fxcrt::ObservedPtr" }
%"class.fxcrt::UnownedPtr" = type { %"class.v8::Isolate"* }
%"class.v8::Isolate" = type { i8 }
%"class.v8::Global.2" = type { %"class.v8::PersistentBase.3" }
%"class.v8::PersistentBase.3" = type { %"class.v8::Object"* }
%"class.fxcrt::ObservedPtr" = type { %"class.fxcrt::Observable::ObserverIface", %class.CJS_Runtime* }
%"class.fxcrt::Observable::ObserverIface" = type { i32 (...)** }
%"class.fxcrt::ObservedPtr.311" = type { %"class.fxcrt::Observable::ObserverIface", %class.CJS_Document* }
%class.CJS_Document = type <{ %class.CJS_Object, %"class.fxcrt::Observable", %"class.fxcrt::WideString", %"class.fxcrt::ObservedPtr.39", %"class.std::__1::list", %"class.std::__1::list.324", i8, [7 x i8] }>
%"class.fxcrt::Observable" = type { %"class.std::__1::set" }
%"class.std::__1::set" = type { %"class.std::__1::__tree.23" }
%"class.std::__1::__tree.23" = type { %"class.std::__1::__tree_end_node"*, %"class.std::__1::__compressed_pair.24", %"class.std::__1::__compressed_pair.28" }
%"class.std::__1::__tree_end_node" = type { %"class.std::__1::__tree_node_base"* }
%"class.std::__1::__tree_node_base" = type opaque
%"class.std::__1::__compressed_pair.24" = type { %"struct.std::__1::__compressed_pair_elem.6" }
%"struct.std::__1::__compressed_pair_elem.6" = type { %"class.std::__1::__tree_end_node" }
%"class.std::__1::__compressed_pair.28" = type { %"struct.std::__1::__compressed_pair_elem.11" }
%"struct.std::__1::__compressed_pair_elem.11" = type { i64 }
%"class.std::__1::list" = type { %"class.std::__1::__list_imp" }
%"class.std::__1::__list_imp" = type { %"struct.std::__1::__list_node_base", %"class.std::__1::__compressed_pair.320" }
%"struct.std::__1::__list_node_base" = type { %"struct.std::__1::__list_node_base"*, %"struct.std::__1::__list_node_base"* }
%"class.std::__1::__compressed_pair.320" = type { %"struct.std::__1::__compressed_pair_elem.11" }
%"class.std::__1::list.324" = type { %"class.std::__1::__list_imp.325" }
%"class.std::__1::__list_imp.325" = type { %"struct.std::__1::__list_node_base.326", %"class.std::__1::__compressed_pair.327" }
%"struct.std::__1::__list_node_base.326" = type { %"struct.std::__1::__list_node_base.326"*, %"struct.std::__1::__list_node_base.326"* }
%"class.std::__1::__compressed_pair.327" = type { %"struct.std::__1::__compressed_pair_elem.11" }
%"class.fxcrt::ObservedPtr.39" = type { %"class.fxcrt::Observable::ObserverIface", %class.CPDFSDK_FormFillEnvironment* }
%class.CPDFSDK_FormFillEnvironment = type { %"class.CFX_Timer::HandlerIface", %class.IPWL_SystemHandler, %"class.fxcrt::UnownedPtr.40", %"class.std::__1::unique_ptr.41", %"class.std::__1::unique_ptr.45", %"class.std::__1::map.51", %"class.std::__1::unique_ptr.62", %"class.fxcrt::ObservedPtr.262", %"class.fxcrt::UnownedPtr.73", %"class.std::__1::unique_ptr.264", %"class.std::__1::unique_ptr.288", i8, i8, %"class.std::__1::vector.294" }
%"class.CFX_Timer::HandlerIface" = type { i32 (...)**, %"class.fxcrt::Observable" }
%class.IPWL_SystemHandler = type { i32 (...)** }
%"class.fxcrt::UnownedPtr.40" = type { %struct._FPDF_FORMFILLINFO* }
%struct._FPDF_FORMFILLINFO = type { i32, void (%struct._FPDF_FORMFILLINFO*)*, void (%struct._FPDF_FORMFILLINFO*, %struct.fpdf_page_t__*, double, double, double, double)*, void (%struct._FPDF_FORMFILLINFO*, %struct.fpdf_page_t__*, double, double, double, double)*, void (%struct._FPDF_FORMFILLINFO*, i32)*, i32 (%struct._FPDF_FORMFILLINFO*, i32, void (i32)*)*, void (%struct._FPDF_FORMFILLINFO*, i32)*, { i64, i64 } (%struct._FPDF_FORMFILLINFO*)*, void (%struct._FPDF_FORMFILLINFO*)*, %struct.fpdf_page_t__* (%struct._FPDF_FORMFILLINFO*, %struct.fpdf_document_t__*, i32)*, %struct.fpdf_page_t__* (%struct._FPDF_FORMFILLINFO*, %struct.fpdf_document_t__*)*, i32 (%struct._FPDF_FORMFILLINFO*, %struct.fpdf_page_t__*)*, void (%struct._FPDF_FORMFILLINFO*, i8*)*, void (%struct._FPDF_FORMFILLINFO*, i16*, i64, i32)*, void (%struct._FPDF_FORMFILLINFO*, i8*)*, void (%struct._FPDF_FORMFILLINFO*, i32, i32, float*, i32)*, %struct._IPDF_JsPlatform*, i32, void (%struct._FPDF_FORMFILLINFO*, %struct.fpdf_page_t__*, i32, double, double, double, double)*, i32 (%struct._FPDF_FORMFILLINFO*, %struct.fpdf_document_t__*)*, void (%struct._FPDF_FORMFILLINFO*, %struct.fpdf_document_t__*, i32)*, void (%struct._FPDF_FORMFILLINFO*, %struct.fpdf_document_t__*, i16*)*, void (%struct._FPDF_FORMFILLINFO*, %struct.fpdf_page_t__*, double*, double*, double*, double*)*, void (%struct._FPDF_FORMFILLINFO*, i32, i64)*, i32 (%struct._FPDF_FORMFILLINFO*, %struct.fpdf_page_t__*, %struct.fpdf_widget_t__*, i32, float, float)*, %struct.FPDF_FILEHANDLER_* (%struct._FPDF_FORMFILLINFO*, i32, i16*, i8*)*, void (%struct._FPDF_FORMFILLINFO*, %struct.FPDF_FILEHANDLER_*, i16*, i16*, i16*, i16*, i16*)*, void (%struct._FPDF_FORMFILLINFO*, %struct.FPDF_FILEHANDLER_*, i32, i16*)*, i32 (%struct._FPDF_FORMFILLINFO*, i8*, i32)*, i32 (%struct._FPDF_FORMFILLINFO*, i8*, i32)*, %struct.FPDF_FILEHANDLER_* (%struct._FPDF_FORMFILLINFO*, i16*)*, i32 (%struct._FPDF_FORMFILLINFO*, i16*, i16*, i16*, i16*, i16*, %struct.FPDF_BSTR_*)*, i32 (%struct._FPDF_FORMFILLINFO*, i16*, i16*, i16*)*, void (%struct._FPDF_FORMFILLINFO*, %struct.fpdf_annotation_t__*, i32)*, void (%struct._FPDF_FORMFILLINFO*, i8*, i32)* }
%struct.fpdf_page_t__ = type opaque
%struct.fpdf_document_t__ = type opaque
%struct._IPDF_JsPlatform = type { i32, i32 (%struct._IPDF_JsPlatform*, i16*, i16*, i32, i32)*, void (%struct._IPDF_JsPlatform*, i32)*, i32 (%struct._IPDF_JsPlatform*, i16*, i16*, i16*, i16*, i32, i8*, i32)*, i32 (%struct._IPDF_JsPlatform*, i8*, i32)*, void (%struct._IPDF_JsPlatform*, i8*, i32, i32, i16*, i16*, i16*, i16*, i16*)*, void (%struct._IPDF_JsPlatform*, i32, i32, i32, i32, i32, i32, i32, i32)*, void (%struct._IPDF_JsPlatform*, i8*, i32, i16*)*, void (%struct._IPDF_JsPlatform*, i32)*, i32 (%struct._IPDF_JsPlatform*, i8*, i32)*, i8*, i8*, i32 }
%struct.fpdf_widget_t__ = type opaque
%struct.FPDF_FILEHANDLER_ = type { i8*, void (i8*)*, i64 (i8*)*, i32 (i8*, i64, i8*, i64)*, i32 (i8*, i64, i8*, i64)*, i32 (i8*)*, i32 (i8*, i64)* }
%struct.FPDF_BSTR_ = type { i8*, i32 }
%struct.fpdf_annotation_t__ = type opaque
%"class.std::__1::unique_ptr.41" = type { %"class.std::__1::__compressed_pair.42" }
%"class.std::__1::__compressed_pair.42" = type { %"struct.std::__1::__compressed_pair_elem.43" }
%"struct.std::__1::__compressed_pair_elem.43" = type { %class.CPDFSDK_ActionHandler* }
%class.CPDFSDK_ActionHandler = type opaque
%"class.std::__1::unique_ptr.45" = type { %"class.std::__1::__compressed_pair.46" }
%"class.std::__1::__compressed_pair.46" = type { %"struct.std::__1::__compressed_pair_elem.47" }
%"struct.std::__1::__compressed_pair_elem.47" = type { %class.IJS_Runtime* }
%class.IJS_Runtime = type { i32 (...)** }
%"class.std::__1::map.51" = type { %"class.std::__1::__tree.52" }
%"class.std::__1::__tree.52" = type { %"class.std::__1::__tree_end_node"*, %"class.std::__1::__compressed_pair.53", %"class.std::__1::__compressed_pair.57" }
%"class.std::__1::__compressed_pair.53" = type { %"struct.std::__1::__compressed_pair_elem.6" }
%"class.std::__1::__compressed_pair.57" = type { %"struct.std::__1::__compressed_pair_elem.11" }
%"class.std::__1::unique_ptr.62" = type { %"class.std::__1::__compressed_pair.63" }
%"class.std::__1::__compressed_pair.63" = type { %"struct.std::__1::__compressed_pair_elem.64" }
%"struct.std::__1::__compressed_pair_elem.64" = type { %class.CPDFSDK_InteractiveForm* }
%class.CPDFSDK_InteractiveForm = type { %"class.CPDF_InteractiveForm::NotifierIface", %"class.fxcrt::UnownedPtr.65", %"class.std::__1::unique_ptr.66", %"class.std::__1::map.248", i8, i8, i8, i8, i8, [16 x i32], [16 x i8] }
%"class.CPDF_InteractiveForm::NotifierIface" = type { i32 (...)** }
%"class.fxcrt::UnownedPtr.65" = type { %class.CPDFSDK_FormFillEnvironment* }
%"class.std::__1::unique_ptr.66" = type { %"class.std::__1::__compressed_pair.67" }
%"class.std::__1::__compressed_pair.67" = type { %"struct.std::__1::__compressed_pair_elem.68" }
%"struct.std::__1::__compressed_pair_elem.68" = type { %class.CPDF_InteractiveForm* }
%class.CPDF_InteractiveForm = type { %"class.fxcrt::ByteString", %"class.fxcrt::UnownedPtr.73", %"class.fxcrt::RetainPtr.110", %"class.std::__1::unique_ptr.216", %"class.std::__1::map.222", %"class.std::__1::map.233", %"class.fxcrt::UnownedPtr.244" }
%"class.fxcrt::ByteString" = type { %"class.fxcrt::RetainPtr" }
%"class.fxcrt::RetainPtr" = type { %"class.std::__1::unique_ptr.69" }
%"class.std::__1::unique_ptr.69" = type { %"class.std::__1::__compressed_pair.70" }
%"class.std::__1::__compressed_pair.70" = type { %"struct.std::__1::__compressed_pair_elem.71" }
%"struct.std::__1::__compressed_pair_elem.71" = type { %"class.fxcrt::StringDataTemplate"* }
%"class.fxcrt::StringDataTemplate" = type <{ i64, i64, i64, [1 x i8], [7 x i8] }>
%"class.fxcrt::RetainPtr.110" = type { %"class.std::__1::unique_ptr.111" }
%"class.std::__1::unique_ptr.111" = type { %"class.std::__1::__compressed_pair.112" }
%"class.std::__1::__compressed_pair.112" = type { %"struct.std::__1::__compressed_pair_elem.113" }
%"struct.std::__1::__compressed_pair_elem.113" = type { %class.CPDF_Dictionary* }
%class.CPDF_Dictionary = type { %class.CPDF_Object, i32, %"class.fxcrt::WeakPtr", %"class.std::__1::map.114" }
%class.CPDF_Object = type { %"class.fxcrt::Retainable", i32, i32 }
%"class.fxcrt::Retainable" = type { i32 (...)**, i64 }
%"class.fxcrt::WeakPtr" = type { %"class.fxcrt::RetainPtr.85" }
%"class.fxcrt::RetainPtr.85" = type { %"class.std::__1::unique_ptr.86" }
%"class.std::__1::unique_ptr.86" = type { %"class.std::__1::__compressed_pair.87" }
%"class.std::__1::__compressed_pair.87" = type { %"struct.std::__1::__compressed_pair_elem.88" }
%"struct.std::__1::__compressed_pair_elem.88" = type { %"class.fxcrt::WeakPtr<fxcrt::StringPoolTemplate<fxcrt::ByteString>, std::__1::default_delete<fxcrt::StringPoolTemplate<fxcrt::ByteString> > >::Handle"* }
%"class.fxcrt::WeakPtr<fxcrt::StringPoolTemplate<fxcrt::ByteString>, std::__1::default_delete<fxcrt::StringPoolTemplate<fxcrt::ByteString> > >::Handle" = type { i64, %"class.std::__1::unique_ptr.536" }
%"class.std::__1::unique_ptr.536" = type { %"class.std::__1::__compressed_pair.537" }
%"class.std::__1::__compressed_pair.537" = type { %"struct.std::__1::__compressed_pair_elem.538" }
%"struct.std::__1::__compressed_pair_elem.538" = type { %"class.fxcrt::StringPoolTemplate"* }
%"class.fxcrt::StringPoolTemplate" = type { %"class.std::__1::unordered_set" }
%"class.std::__1::unordered_set" = type { %"class.std::__1::__hash_table" }
%"class.std::__1::__hash_table" = type <{ %"class.std::__1::unique_ptr.539", %"class.std::__1::__compressed_pair.547", %"class.std::__1::__compressed_pair.552", %"class.std::__1::__compressed_pair.554", [4 x i8] }>
%"class.std::__1::unique_ptr.539" = type { %"class.std::__1::__compressed_pair.540" }
%"class.std::__1::__compressed_pair.540" = type { %"struct.std::__1::__compressed_pair_elem.541", %"struct.std::__1::__compressed_pair_elem.542" }
%"struct.std::__1::__compressed_pair_elem.541" = type { %"struct.std::__1::__hash_node_base"** }
%"struct.std::__1::__hash_node_base" = type { %"struct.std::__1::__hash_node_base"* }
%"struct.std::__1::__compressed_pair_elem.542" = type { %"class.std::__1::__bucket_list_deallocator" }
%"class.std::__1::__bucket_list_deallocator" = type { %"class.std::__1::__compressed_pair.543" }
%"class.std::__1::__compressed_pair.543" = type { %"struct.std::__1::__compressed_pair_elem.11" }
%"class.std::__1::__compressed_pair.547" = type { %"struct.std::__1::__compressed_pair_elem.548" }
%"struct.std::__1::__compressed_pair_elem.548" = type { %"struct.std::__1::__hash_node_base" }
%"class.std::__1::__compressed_pair.552" = type { %"struct.std::__1::__compressed_pair_elem.11" }
%"class.std::__1::__compressed_pair.554" = type { %"struct.std::__1::__compressed_pair_elem.555" }
%"struct.std::__1::__compressed_pair_elem.555" = type { float }
%"class.std::__1::map.114" = type { %"class.std::__1::__tree.115" }
%"class.std::__1::__tree.115" = type { %"class.std::__1::__tree_end_node"*, %"class.std::__1::__compressed_pair.116", %"class.std::__1::__compressed_pair.120" }
%"class.std::__1::__compressed_pair.116" = type { %"struct.std::__1::__compressed_pair_elem.6" }
%"class.std::__1::__compressed_pair.120" = type { %"struct.std::__1::__compressed_pair_elem.11" }
%"class.std::__1::unique_ptr.216" = type { %"class.std::__1::__compressed_pair.217" }
%"class.std::__1::__compressed_pair.217" = type { %"struct.std::__1::__compressed_pair_elem.218" }
%"struct.std::__1::__compressed_pair_elem.218" = type { %class.CFieldTree* }
%class.CFieldTree = type opaque
%"class.std::__1::map.222" = type { %"class.std::__1::__tree.223" }
%"class.std::__1::__tree.223" = type { %"class.std::__1::__tree_end_node"*, %"class.std::__1::__compressed_pair.224", %"class.std::__1::__compressed_pair.228" }
%"class.std::__1::__compressed_pair.224" = type { %"struct.std::__1::__compressed_pair_elem.6" }
%"class.std::__1::__compressed_pair.228" = type { %"struct.std::__1::__compressed_pair_elem.11" }
%"class.std::__1::map.233" = type { %"class.std::__1::__tree.234" }
%"class.std::__1::__tree.234" = type { %"class.std::__1::__tree_end_node"*, %"class.std::__1::__compressed_pair.235", %"class.std::__1::__compressed_pair.239" }
%"class.std::__1::__compressed_pair.235" = type { %"struct.std::__1::__compressed_pair_elem.6" }
%"class.std::__1::__compressed_pair.239" = type { %"struct.std::__1::__compressed_pair_elem.11" }
%"class.fxcrt::UnownedPtr.244" = type { %"class.CPDF_InteractiveForm::NotifierIface"* }
%"class.std::__1::map.248" = type { %"class.std::__1::__tree.249" }
%"class.std::__1::__tree.249" = type { %"class.std::__1::__tree_end_node"*, %"class.std::__1::__compressed_pair.250", %"class.std::__1::__compressed_pair.254" }
%"class.std::__1::__compressed_pair.250" = type { %"struct.std::__1::__compressed_pair_elem.6" }
%"class.std::__1::__compressed_pair.254" = type { %"struct.std::__1::__compressed_pair_elem.11" }
%"class.fxcrt::ObservedPtr.262" = type { %"class.fxcrt::Observable::ObserverIface", %class.CPDFSDK_Annot* }
%class.CPDFSDK_Annot = type { i32 (...)**, %"class.fxcrt::Observable", %"class.fxcrt::UnownedPtr.263" }
%"class.fxcrt::UnownedPtr.263" = type { %class.CPDFSDK_PageView* }
%class.CPDFSDK_PageView = type <{ %"class.CPDF_Page::View", %class.CFX_Matrix, %"class.fxcrt::UnownedPtr.331", %"class.std::__1::unique_ptr.332", %"class.std::__1::vector.363", %"class.fxcrt::UnownedPtr.65", %"class.fxcrt::ObservedPtr.262", %"class.fxcrt::RetainPtr.370", i8, i8, i8, i8, [4 x i8] }>
%"class.CPDF_Page::View" = type { %"class.fxcrt::Observable" }
%class.CFX_Matrix = type { float, float, float, float, float, float }
%"class.fxcrt::UnownedPtr.331" = type { %class.IPDF_Page* }
%class.IPDF_Page = type { %"class.fxcrt::Retainable" }
%"class.std::__1::unique_ptr.332" = type { %"class.std::__1::__compressed_pair.333" }
%"class.std::__1::__compressed_pair.333" = type { %"struct.std::__1::__compressed_pair_elem.334" }
%"struct.std::__1::__compressed_pair_elem.334" = type { %class.CPDF_AnnotList* }
%class.CPDF_AnnotList = type { %"class.CPDF_PageRenderContext::AnnotListIface", %"class.fxcrt::UnownedPtr.73", %"class.std::__1::vector.335", i64 }
%"class.CPDF_PageRenderContext::AnnotListIface" = type { i32 (...)** }
%"class.std::__1::vector.335" = type { %"class.std::__1::__vector_base.336" }
%"class.std::__1::__vector_base.336" = type { %"class.std::__1::unique_ptr.337"*, %"class.std::__1::unique_ptr.337"*, %"class.std::__1::__compressed_pair.355" }
%"class.std::__1::unique_ptr.337" = type { %"class.std::__1::__compressed_pair.338" }
%"class.std::__1::__compressed_pair.338" = type { %"struct.std::__1::__compressed_pair_elem.339" }
%"struct.std::__1::__compressed_pair_elem.339" = type { %class.CPDF_Annot* }
%class.CPDF_Annot = type <{ %"class.fxcrt::RetainPtr.110", %"class.fxcrt::UnownedPtr.73", i32, [4 x i8], %"class.std::__1::map.340", %"class.fxcrt::UnownedPtr.351", i8, i8, i8, [5 x i8] }>
%"class.std::__1::map.340" = type { %"class.std::__1::__tree.341" }
%"class.std::__1::__tree.341" = type { %"class.std::__1::__tree_end_node"*, %"class.std::__1::__compressed_pair.342", %"class.std::__1::__compressed_pair.346" }
%"class.std::__1::__compressed_pair.342" = type { %"struct.std::__1::__compressed_pair_elem.6" }
%"class.std::__1::__compressed_pair.346" = type { %"struct.std::__1::__compressed_pair_elem.11" }
%"class.fxcrt::UnownedPtr.351" = type { %class.CPDF_Annot* }
%"class.std::__1::__compressed_pair.355" = type { %"struct.std::__1::__compressed_pair_elem.356" }
%"struct.std::__1::__compressed_pair_elem.356" = type { %"class.std::__1::unique_ptr.337"* }
%"class.std::__1::vector.363" = type { %"class.std::__1::__vector_base.364" }
%"class.std::__1::__vector_base.364" = type { %class.CPDFSDK_Annot**, %class.CPDFSDK_Annot**, %"class.std::__1::__compressed_pair.365" }
%"class.std::__1::__compressed_pair.365" = type { %"struct.std::__1::__compressed_pair_elem.366" }
%"struct.std::__1::__compressed_pair_elem.366" = type { %class.CPDFSDK_Annot** }
%"class.fxcrt::RetainPtr.370" = type { %"class.std::__1::unique_ptr.371" }
%"class.std::__1::unique_ptr.371" = type { %"class.std::__1::__compressed_pair.372" }
%"class.std::__1::__compressed_pair.372" = type { %"struct.std::__1::__compressed_pair_elem.373" }
%"struct.std::__1::__compressed_pair_elem.373" = type { %class.CPDF_Page* }
%class.CPDF_Page = type { %class.IPDF_Page, %class.CPDF_PageObjectHolder, %class.CFX_STemplate, %class.CFX_Matrix, %"class.fxcrt::UnownedPtr.73", %"class.std::__1::unique_ptr.429", %"class.std::__1::unique_ptr.435", %"class.fxcrt::ObservedPtr.441" }
%class.CPDF_PageObjectHolder = type { i32 (...)**, %"class.fxcrt::RetainPtr.110", %"class.fxcrt::RetainPtr.110", %"class.std::__1::map.374", %"class.std::__1::map.385", %class.CFX_FloatRect, %class.CPDF_Transparency, i8, i8, %"class.fxcrt::RetainPtr.110", %"class.fxcrt::UnownedPtr.73", %"class.std::__1::vector.396", %"class.std::__1::unique_ptr.403", %"class.std::__1::deque", %class.CFX_Matrix, %"class.std::__1::set.419" }
%"class.std::__1::map.374" = type { %"class.std::__1::__tree.375" }
%"class.std::__1::__tree.375" = type { %"class.std::__1::__tree_end_node"*, %"class.std::__1::__compressed_pair.376", %"class.std::__1::__compressed_pair.380" }
%"class.std::__1::__compressed_pair.376" = type { %"struct.std::__1::__compressed_pair_elem.6" }
%"class.std::__1::__compressed_pair.380" = type { %"struct.std::__1::__compressed_pair_elem.11" }
%"class.std::__1::map.385" = type { %"class.std::__1::__tree.386" }
%"class.std::__1::__tree.386" = type { %"class.std::__1::__tree_end_node"*, %"class.std::__1::__compressed_pair.387", %"class.std::__1::__compressed_pair.391" }
%"class.std::__1::__compressed_pair.387" = type { %"struct.std::__1::__compressed_pair_elem.6" }
%"class.std::__1::__compressed_pair.391" = type { %"struct.std::__1::__compressed_pair_elem.11" }
%class.CFX_FloatRect = type { float, float, float, float }
%class.CPDF_Transparency = type { i8, i8 }
%"class.std::__1::vector.396" = type { %"class.std::__1::__vector_base.397" }
%"class.std::__1::__vector_base.397" = type { %class.CFX_FloatRect*, %class.CFX_FloatRect*, %"class.std::__1::__compressed_pair.398" }
%"class.std::__1::__compressed_pair.398" = type { %"struct.std::__1::__compressed_pair_elem.399" }
%"struct.std::__1::__compressed_pair_elem.399" = type { %class.CFX_FloatRect* }
%"class.std::__1::unique_ptr.403" = type { %"class.std::__1::__compressed_pair.404" }
%"class.std::__1::__compressed_pair.404" = type { %"struct.std::__1::__compressed_pair_elem.405" }
%"struct.std::__1::__compressed_pair_elem.405" = type { %class.CPDF_ContentParser* }
%class.CPDF_ContentParser = type opaque
%"class.std::__1::deque" = type { %"class.std::__1::__deque_base" }
%"class.std::__1::__deque_base" = type { %"struct.std::__1::__split_buffer", i64, %"class.std::__1::__compressed_pair.415" }
%"struct.std::__1::__split_buffer" = type { %"class.std::__1::unique_ptr.409"**, %"class.std::__1::unique_ptr.409"**, %"class.std::__1::unique_ptr.409"**, %"class.std::__1::__compressed_pair.410" }
%"class.std::__1::unique_ptr.409" = type { %"class.std::__1::__compressed_pair.560" }
%"class.std::__1::__compressed_pair.560" = type { %"struct.std::__1::__compressed_pair_elem.561" }
%"struct.std::__1::__compressed_pair_elem.561" = type { %class.CPDF_PageObject* }
%class.CPDF_PageObject = type opaque
%"class.std::__1::__compressed_pair.410" = type { %"struct.std::__1::__compressed_pair_elem.411" }
%"struct.std::__1::__compressed_pair_elem.411" = type { %"class.std::__1::unique_ptr.409"** }
%"class.std::__1::__compressed_pair.415" = type { %"struct.std::__1::__compressed_pair_elem.11" }
%"class.std::__1::set.419" = type { %"class.std::__1::__tree.420" }
%"class.std::__1::__tree.420" = type { %"class.std::__1::__tree_end_node"*, %"class.std::__1::__compressed_pair.421", %"class.std::__1::__compressed_pair.425" }
%"class.std::__1::__compressed_pair.421" = type { %"struct.std::__1::__compressed_pair_elem.6" }
%"class.std::__1::__compressed_pair.425" = type { %"struct.std::__1::__compressed_pair_elem.11" }
%class.CFX_STemplate = type { float, float }
%"class.std::__1::unique_ptr.429" = type { %"class.std::__1::__compressed_pair.430" }
%"class.std::__1::__compressed_pair.430" = type { %"struct.std::__1::__compressed_pair_elem.431" }
%"struct.std::__1::__compressed_pair_elem.431" = type { %"class.CPDF_Page::RenderCacheIface"* }
%"class.CPDF_Page::RenderCacheIface" = type { i32 (...)** }
%"class.std::__1::unique_ptr.435" = type { %"class.std::__1::__compressed_pair.436" }
%"class.std::__1::__compressed_pair.436" = type { %"struct.std::__1::__compressed_pair_elem.437" }
%"struct.std::__1::__compressed_pair_elem.437" = type { %"class.CPDF_Page::RenderContextIface"* }
%"class.CPDF_Page::RenderContextIface" = type { i32 (...)** }
%"class.fxcrt::ObservedPtr.441" = type { %"class.fxcrt::Observable::ObserverIface", %"class.CPDF_Page::View"* }
%"class.fxcrt::UnownedPtr.73" = type { %class.CPDF_Document* }
%class.CPDF_Document = type { %"class.CPDF_Parser::ParsedObjectsHolder", %"class.fxcrt::Observable", %"class.std::__1::unique_ptr.91", %"class.fxcrt::RetainPtr.110", %"class.fxcrt::RetainPtr.110", %"class.std::__1::vector.171", i8, i8, i32, i32, %"class.std::__1::unique_ptr.178", %"class.std::__1::unique_ptr.184", %"class.std::__1::unique_ptr.190", %"class.std::__1::unique_ptr.196", %"class.std::__1::vector.202", %"class.CPDF_Document::StockFontClearer", %"class.std::__1::unique_ptr.210" }
%"class.CPDF_Parser::ParsedObjectsHolder" = type { %class.CPDF_IndirectObjectHolder }
%class.CPDF_IndirectObjectHolder = type { i32 (...)**, i32, %"class.std::__1::map.74", %"class.fxcrt::WeakPtr" }
%"class.std::__1::map.74" = type { %"class.std::__1::__tree.75" }
%"class.std::__1::__tree.75" = type { %"class.std::__1::__tree_end_node"*, %"class.std::__1::__compressed_pair.76", %"class.std::__1::__compressed_pair.80" }
%"class.std::__1::__compressed_pair.76" = type { %"struct.std::__1::__compressed_pair_elem.6" }
%"class.std::__1::__compressed_pair.80" = type { %"struct.std::__1::__compressed_pair_elem.11" }
%"class.std::__1::unique_ptr.91" = type { %"class.std::__1::__compressed_pair.92" }
%"class.std::__1::__compressed_pair.92" = type { %"struct.std::__1::__compressed_pair_elem.93" }
%"struct.std::__1::__compressed_pair_elem.93" = type { %class.CPDF_Parser* }
%class.CPDF_Parser = type <{ %"class.std::__1::unique_ptr.94", %"class.std::__1::unique_ptr.100", %"class.fxcrt::UnownedPtr.106", i8, i8, i8, i8, i32, %"class.std::__1::unique_ptr.107", i64, %"class.fxcrt::RetainPtr.139", %"class.fxcrt::ByteString", %"class.std::__1::unique_ptr.145", %"class.std::__1::map.151", %"class.std::__1::set.160", i32, [4 x i8] }>
%"class.std::__1::unique_ptr.94" = type { %"class.std::__1::__compressed_pair.95" }
%"class.std::__1::__compressed_pair.95" = type { %"struct.std::__1::__compressed_pair_elem.96" }
%"struct.std::__1::__compressed_pair_elem.96" = type { %class.CPDF_SyntaxParser* }
%class.CPDF_SyntaxParser = type opaque
%"class.std::__1::unique_ptr.100" = type { %"class.std::__1::__compressed_pair.101" }
%"class.std::__1::__compressed_pair.101" = type { %"struct.std::__1::__compressed_pair_elem.102" }
%"struct.std::__1::__compressed_pair_elem.102" = type { %"class.CPDF_Parser::ParsedObjectsHolder"* }
%"class.fxcrt::UnownedPtr.106" = type { %"class.CPDF_Parser::ParsedObjectsHolder"* }
%"class.std::__1::unique_ptr.107" = type { %"class.std::__1::__compressed_pair.108" }
%"class.std::__1::__compressed_pair.108" = type { %"struct.std::__1::__compressed_pair_elem.109" }
%"struct.std::__1::__compressed_pair_elem.109" = type { %class.CPDF_CrossRefTable* }
%class.CPDF_CrossRefTable = type { %"class.fxcrt::RetainPtr.110", %"class.std::__1::map.127" }
%"class.std::__1::map.127" = type { %"class.std::__1::__tree.128" }
%"class.std::__1::__tree.128" = type { %"class.std::__1::__tree_end_node"*, %"class.std::__1::__compressed_pair.129", %"class.std::__1::__compressed_pair.133" }
%"class.std::__1::__compressed_pair.129" = type { %"struct.std::__1::__compressed_pair_elem.6" }
%"class.std::__1::__compressed_pair.133" = type { %"struct.std::__1::__compressed_pair_elem.11" }
%"class.fxcrt::RetainPtr.139" = type { %"class.std::__1::unique_ptr.140" }
%"class.std::__1::unique_ptr.140" = type { %"class.std::__1::__compressed_pair.141" }
%"class.std::__1::__compressed_pair.141" = type { %"struct.std::__1::__compressed_pair_elem.142" }
%"struct.std::__1::__compressed_pair_elem.142" = type { %class.CPDF_SecurityHandler* }
%class.CPDF_SecurityHandler = type opaque
%"class.std::__1::unique_ptr.145" = type { %"class.std::__1::__compressed_pair.146" }
%"class.std::__1::__compressed_pair.146" = type { %"struct.std::__1::__compressed_pair_elem.147" }
%"struct.std::__1::__compressed_pair_elem.147" = type { %class.CPDF_LinearizedHeader* }
%class.CPDF_LinearizedHeader = type opaque
%"class.std::__1::map.151" = type { %"class.std::__1::__tree.152" }
%"class.std::__1::__tree.152" = type { %"class.std::__1::__tree_end_node"*, %"class.std::__1::__compressed_pair.153", %"class.std::__1::__compressed_pair.157" }
%"class.std::__1::__compressed_pair.153" = type { %"struct.std::__1::__compressed_pair_elem.6" }
%"class.std::__1::__compressed_pair.157" = type { %"struct.std::__1::__compressed_pair_elem.11" }
%"class.std::__1::set.160" = type { %"class.std::__1::__tree.161" }
%"class.std::__1::__tree.161" = type { %"class.std::__1::__tree_end_node"*, %"class.std::__1::__compressed_pair.162", %"class.std::__1::__compressed_pair.166" }
%"class.std::__1::__compressed_pair.162" = type { %"struct.std::__1::__compressed_pair_elem.6" }
%"class.std::__1::__compressed_pair.166" = type { %"struct.std::__1::__compressed_pair_elem.11" }
%"class.std::__1::vector.171" = type { %"class.std::__1::__vector_base.172" }
%"class.std::__1::__vector_base.172" = type { %"struct.std::__1::pair"*, %"struct.std::__1::pair"*, %"class.std::__1::__compressed_pair.173" }
%"struct.std::__1::pair" = type opaque
%"class.std::__1::__compressed_pair.173" = type { %"struct.std::__1::__compressed_pair_elem.174" }
%"struct.std::__1::__compressed_pair_elem.174" = type { %"struct.std::__1::pair"* }
%"class.std::__1::unique_ptr.178" = type { %"class.std::__1::__compressed_pair.179" }
%"class.std::__1::__compressed_pair.179" = type { %"struct.std::__1::__compressed_pair_elem.180" }
%"struct.std::__1::__compressed_pair_elem.180" = type { %"class.CPDF_Document::RenderDataIface"* }
%"class.CPDF_Document::RenderDataIface" = type { i32 (...)**, %"class.fxcrt::UnownedPtr.73" }
%"class.std::__1::unique_ptr.184" = type { %"class.std::__1::__compressed_pair.185" }
%"class.std::__1::__compressed_pair.185" = type { %"struct.std::__1::__compressed_pair_elem.186" }
%"struct.std::__1::__compressed_pair_elem.186" = type { %"class.CPDF_Document::PageDataIface"* }
%"class.CPDF_Document::PageDataIface" = type { i32 (...)**, %"class.fxcrt::UnownedPtr.73" }
%"class.std::__1::unique_ptr.190" = type { %"class.std::__1::__compressed_pair.191" }
%"class.std::__1::__compressed_pair.191" = type { %"struct.std::__1::__compressed_pair_elem.192" }
%"struct.std::__1::__compressed_pair_elem.192" = type { %class.JBig2_DocumentContext* }
%class.JBig2_DocumentContext = type opaque
%"class.std::__1::unique_ptr.196" = type { %"class.std::__1::__compressed_pair.197" }
%"class.std::__1::__compressed_pair.197" = type { %"struct.std::__1::__compressed_pair_elem.198" }
%"struct.std::__1::__compressed_pair_elem.198" = type { %"class.CPDF_Document::LinkListIface"* }
%"class.CPDF_Document::LinkListIface" = type { i32 (...)** }
%"class.std::__1::vector.202" = type { %"class.std::__1::__vector_base.203" }
%"class.std::__1::__vector_base.203" = type { i32*, i32*, %"class.std::__1::__compressed_pair.204" }
%"class.std::__1::__compressed_pair.204" = type { %"struct.std::__1::__compressed_pair_elem.205" }
%"struct.std::__1::__compressed_pair_elem.205" = type { i32* }
%"class.CPDF_Document::StockFontClearer" = type { %"class.fxcrt::UnownedPtr.209" }
%"class.fxcrt::UnownedPtr.209" = type { %"class.CPDF_Document::PageDataIface"* }
%"class.std::__1::unique_ptr.210" = type { %"class.std::__1::__compressed_pair.211" }
%"class.std::__1::__compressed_pair.211" = type { %"struct.std::__1::__compressed_pair_elem.212" }
%"struct.std::__1::__compressed_pair_elem.212" = type { %"class.CPDF_Document::Extension"* }
%"class.CPDF_Document::Extension" = type { i32 (...)** }
%"class.std::__1::unique_ptr.264" = type { %"class.std::__1::__compressed_pair.265" }
%"class.std::__1::__compressed_pair.265" = type { %"struct.std::__1::__compressed_pair_elem.266" }
%"struct.std::__1::__compressed_pair_elem.266" = type { %class.CPDFSDK_AnnotHandlerMgr* }
%class.CPDFSDK_AnnotHandlerMgr = type { %"class.std::__1::unique_ptr.267", %"class.std::__1::unique_ptr.273", %"class.std::__1::unique_ptr.279" }
%"class.std::__1::unique_ptr.267" = type { %"class.std::__1::__compressed_pair.268" }
%"class.std::__1::__compressed_pair.268" = type { %"struct.std::__1::__compressed_pair_elem.269" }
%"struct.std::__1::__compressed_pair_elem.269" = type { %class.CPDFSDK_BAAnnotHandler* }
%class.CPDFSDK_BAAnnotHandler = type opaque
%"class.std::__1::unique_ptr.273" = type { %"class.std::__1::__compressed_pair.274" }
%"class.std::__1::__compressed_pair.274" = type { %"struct.std::__1::__compressed_pair_elem.275" }
%"struct.std::__1::__compressed_pair_elem.275" = type { %class.CPDFSDK_WidgetHandler* }
%class.CPDFSDK_WidgetHandler = type opaque
%"class.std::__1::unique_ptr.279" = type { %"class.std::__1::__compressed_pair.280" }
%"class.std::__1::__compressed_pair.280" = type { %"struct.std::__1::__compressed_pair_elem.281" }
%"struct.std::__1::__compressed_pair_elem.281" = type { %class.IPDFSDK_AnnotHandler* }
%class.IPDFSDK_AnnotHandler = type opaque
%"class.std::__1::unique_ptr.288" = type { %"class.std::__1::__compressed_pair.289" }
%"class.std::__1::__compressed_pair.289" = type { %"struct.std::__1::__compressed_pair_elem.290" }
%"struct.std::__1::__compressed_pair_elem.290" = type { %class.CFFL_InteractiveFormFiller* }
%class.CFFL_InteractiveFormFiller = type opaque
%"class.std::__1::vector.294" = type { %"class.std::__1::__vector_base.295" }
%"class.std::__1::__vector_base.295" = type { i32*, i32*, %"class.std::__1::__compressed_pair.296" }
%"class.std::__1::__compressed_pair.296" = type { %"struct.std::__1::__compressed_pair_elem.297" }
%"struct.std::__1::__compressed_pair_elem.297" = type { i32* }
%"class.fxcrt::WideString" = type { %"class.fxcrt::RetainPtr.312" }
%"class.fxcrt::RetainPtr.312" = type { %"class.std::__1::unique_ptr.313" }
%"class.std::__1::unique_ptr.313" = type { %"class.std::__1::__compressed_pair.314" }
%"class.std::__1::__compressed_pair.314" = type { %"struct.std::__1::__compressed_pair_elem.315" }
%"struct.std::__1::__compressed_pair_elem.315" = type { %"class.fxcrt::StringDataTemplate.316"* }
%"class.fxcrt::StringDataTemplate.316" = type <{ i64, i64, i64, [1 x i32], [4 x i8] }>
%"class.v8::Object" = type { i8 }
%class.CJS_Runtime = type { %class.IJS_Runtime, %class.CFXJS_Engine, %"class.fxcrt::Observable", %"class.std::__1::vector.32", %"class.fxcrt::ObservedPtr.39", i8, i8, %"class.std::__1::set.301" }
%class.CFXJS_Engine = type { %class.CFX_V8, %"class.v8::Global", %"class.std::__1::vector", %"class.std::__1::map" }
%class.CFX_V8 = type { i32 (...)**, %"class.fxcrt::UnownedPtr" }
%"class.v8::Global" = type { %"class.v8::PersistentBase" }
%"class.v8::PersistentBase" = type { %"class.v8::Context"* }
%"class.v8::Context" = type { i8 }
%"class.std::__1::vector" = type { %"class.std::__1::__vector_base" }
%"class.std::__1::__vector_base" = type { %"class.v8::Global.2"*, %"class.v8::Global.2"*, %"class.std::__1::__compressed_pair" }
%"class.std::__1::__compressed_pair" = type { %"struct.std::__1::__compressed_pair_elem" }
%"struct.std::__1::__compressed_pair_elem" = type { %"class.v8::Global.2"* }
%"class.std::__1::map" = type { %"class.std::__1::__tree" }
%"class.std::__1::__tree" = type { %"class.std::__1::__tree_end_node"*, %"class.std::__1::__compressed_pair.5", %"class.std::__1::__compressed_pair.10" }
%"class.std::__1::__compressed_pair.5" = type { %"struct.std::__1::__compressed_pair_elem.6" }
%"class.std::__1::__compressed_pair.10" = type { %"struct.std::__1::__compressed_pair_elem.11" }
%"class.std::__1::vector.32" = type { %"class.std::__1::__vector_base.33" }
%"class.std::__1::__vector_base.33" = type { %"class.std::__1::unique_ptr"*, %"class.std::__1::unique_ptr"*, %"class.std::__1::__compressed_pair.34" }
%"class.std::__1::unique_ptr" = type opaque
%"class.std::__1::__compressed_pair.34" = type { %"struct.std::__1::__compressed_pair_elem.35" }
%"struct.std::__1::__compressed_pair_elem.35" = type { %"class.std::__1::unique_ptr"* }
%"class.std::__1::set.301" = type { %"class.std::__1::__tree.302" }
%"class.std::__1::__tree.302" = type { %"class.std::__1::__tree_end_node"*, %"class.std::__1::__compressed_pair.303", %"class.std::__1::__compressed_pair.307" }
%"class.std::__1::__compressed_pair.303" = type { %"struct.std::__1::__compressed_pair_elem.6" }
%"class.std::__1::__compressed_pair.307" = type { %"struct.std::__1::__compressed_pair_elem.11" }
%"class.std::__1::function" = type { %"class.std::__1::__function::__policy_func" }
%"class.std::__1::__function::__policy_func" = type { %"union.std::__1::__function::__policy_storage", %"struct.std::__1::__function::__policy_invoker", %"struct.std::__1::__function::__policy"* }
%"union.std::__1::__function::__policy_storage" = type { i8*, [8 x i8] }
%"struct.std::__1::__function::__policy_invoker" = type { void (%"union.std::__1::__function::__policy_storage"*, %class.CFXJS_Engine*, %"class.v8::Local.14"*)* }
%"class.v8::Local.14" = type { %"class.v8::Object"* }
%"class.std::__1::function.15" = type { %"class.std::__1::__function::__policy_func.18" }
%"class.std::__1::__function::__policy_func.18" = type { %"union.std::__1::__function::__policy_storage", %"struct.std::__1::__function::__policy_invoker.19", %"struct.std::__1::__function::__policy"* }
%"struct.std::__1::__function::__policy_invoker.19" = type { void (%"union.std::__1::__function::__policy_storage"*, %"class.v8::Local.14"*)* }
%"class.pdfium::span" = type { %"class.fxcrt::UnownedPtr.20", i64 }
%"class.fxcrt::UnownedPtr.20" = type { %struct.JSPropertySpec* }
%"class.pdfium::span.21" = type { %"class.fxcrt::UnownedPtr.22", i64 }
%"class.fxcrt::UnownedPtr.22" = type { %struct.JSMethodSpec* }
%"class.fxcrt::StringViewTemplate" = type { %"class.pdfium::span.444" }
%"class.pdfium::span.444" = type { %"class.fxcrt::UnownedPtr.445", i64 }
%"class.fxcrt::UnownedPtr.445" = type { i32* }
%"class.std::__1::vector.446" = type { %"class.std::__1::__vector_base.447" }
%"class.std::__1::__vector_base.447" = type { %class.CPDF_FormField**, %class.CPDF_FormField**, %"class.std::__1::__compressed_pair.455" }
%class.CPDF_FormField = type { i32, i8, i8, i8, i8, i8, float, %"class.fxcrt::UnownedPtr.448", %"class.fxcrt::RetainPtr.110", %"class.fxcrt::RetainPtr.449" }
%"class.fxcrt::UnownedPtr.448" = type { %class.CPDF_InteractiveForm* }
%"class.fxcrt::RetainPtr.449" = type { %"class.std::__1::unique_ptr.450" }
%"class.std::__1::unique_ptr.450" = type { %"class.std::__1::__compressed_pair.451" }
%"class.std::__1::__compressed_pair.451" = type { %"struct.std::__1::__compressed_pair_elem.452" }
%"struct.std::__1::__compressed_pair_elem.452" = type { %class.CPDF_Font* }
%class.CPDF_Font = type opaque
%"class.std::__1::__compressed_pair.455" = type { %"struct.std::__1::__compressed_pair_elem.456" }
%"struct.std::__1::__compressed_pair_elem.456" = type { %class.CPDF_FormField** }
%"class.std::__1::__vector_base_common" = type { i8 }
%class.CPDF_FormControl = type { %"class.fxcrt::UnownedPtr.460", %"class.fxcrt::RetainPtr.110", %"class.fxcrt::UnownedPtr.461" }
%"class.fxcrt::UnownedPtr.460" = type { %class.CPDF_FormField* }
%"class.fxcrt::UnownedPtr.461" = type { %class.CPDF_InteractiveForm* }
%class.CJS_Result = type { %"class.pdfium::Optional", %"class.v8::Local.0" }
%"class.pdfium::Optional" = type { %"class.pdfium::internal::OptionalBase" }
%"class.pdfium::internal::OptionalBase" = type { %"struct.pdfium::internal::OptionalStorage" }
%"struct.pdfium::internal::OptionalStorage" = type { %"struct.pdfium::internal::OptionalStorageBase" }
%"struct.pdfium::internal::OptionalStorageBase" = type { i8, %union.anon }
%union.anon = type { %"class.fxcrt::WideString" }
%"class.v8::Local.0" = type { %"class.v8::Value"* }
%"class.fxcrt::StringViewTemplate.462" = type { %"class.pdfium::span.463" }
%"class.pdfium::span.463" = type { %"class.fxcrt::UnownedPtr.464", i64 }
%"class.fxcrt::UnownedPtr.464" = type { i8* }
%class.CPDFSDK_Widget = type <{ %class.CPDFSDK_BAAnnot, %"class.fxcrt::UnownedPtr.465", i8, [3 x i8], i32, i32, [4 x i8] }>
%class.CPDFSDK_BAAnnot = type { %class.CPDFSDK_Annot, %"class.fxcrt::UnownedPtr.351" }
%"class.fxcrt::UnownedPtr.465" = type { %class.CPDFSDK_InteractiveForm* }
%struct.CJS_DelayData = type { i32, i32, %"class.fxcrt::WideString", i32, i8, %"class.fxcrt::ByteString", %"class.fxcrt::WideString", %class.CFX_FloatRect, %struct.CFX_Color, %"class.std::__1::vector.202", %"class.std::__1::vector.503" }
%struct.CFX_Color = type { i32, float, float, float, float }
%"class.std::__1::vector.503" = type { %"class.std::__1::__vector_base.504" }
%"class.std::__1::__vector_base.504" = type { %"class.fxcrt::WideString"*, %"class.fxcrt::WideString"*, %"class.std::__1::__compressed_pair.505" }
%"class.std::__1::__compressed_pair.505" = type { %"struct.std::__1::__compressed_pair_elem.506" }
%"struct.std::__1::__compressed_pair_elem.506" = type { %"class.fxcrt::WideString"* }
%class.CPDF_IconFit = type { %"class.fxcrt::RetainPtr.466" }
%"class.fxcrt::RetainPtr.466" = type { %"class.std::__1::unique_ptr.467" }
%"class.std::__1::unique_ptr.467" = type { %"class.std::__1::__compressed_pair.468" }
%"class.std::__1::__compressed_pair.468" = type { %"struct.std::__1::__compressed_pair_elem.469" }
%"struct.std::__1::__compressed_pair_elem.469" = type { %class.CPDF_Dictionary* }
%class.CFX_PTemplate = type { float, float }
%"class.v8::Number" = type { i8 }
%"class.v8::Boolean" = type { i8 }
%"class.v8::Array" = type { i8 }
%"class.v8::internal::Isolate" = type opaque
%"class.std::__1::vector.476" = type { %"class.std::__1::__vector_base.477" }
%"class.std::__1::__vector_base.477" = type { %"class.fxcrt::ObservedPtr.262"*, %"class.fxcrt::ObservedPtr.262"*, %"class.std::__1::__compressed_pair.478" }
%"class.std::__1::__compressed_pair.478" = type { %"struct.std::__1::__compressed_pair_elem.479" }
%"struct.std::__1::__compressed_pair_elem.479" = type { %"class.fxcrt::ObservedPtr.262"* }
%"class.fxcrt::ObservedPtr.575" = type { %"class.fxcrt::Observable::ObserverIface", %class.CPDFSDK_Widget* }
%class.CPDF_DefaultAppearance = type { %"class.fxcrt::ByteString" }
%"class.pdfium::Optional.498" = type { %"class.pdfium::internal::OptionalBase.499" }
%"class.pdfium::internal::OptionalBase.499" = type { %"struct.pdfium::internal::OptionalStorage.500" }
%"struct.pdfium::internal::OptionalStorage.500" = type { %"struct.pdfium::internal::OptionalStorageBase.501" }
%"struct.pdfium::internal::OptionalStorageBase.501" = type { i8, %union.anon.502 }
%union.anon.502 = type { %"class.fxcrt::ByteString" }
%"class.std::__1::vector.510" = type { %"class.std::__1::__vector_base.511" }
%"class.std::__1::__vector_base.511" = type { %"class.v8::Local.0"*, %"class.v8::Local.0"*, %"class.std::__1::__compressed_pair.512" }
%"class.std::__1::__compressed_pair.512" = type { %"struct.std::__1::__compressed_pair_elem.513" }
%"struct.std::__1::__compressed_pair_elem.513" = type { %"class.v8::Local.0"* }
%"class.std::__1::vector.517" = type { %"class.std::__1::__vector_base.518" }
%"class.std::__1::__vector_base.518" = type { %"class.std::__1::unique_ptr.519"*, %"class.std::__1::unique_ptr.519"*, %"class.std::__1::__compressed_pair.524" }
%"class.std::__1::unique_ptr.519" = type { %"class.std::__1::__compressed_pair.520" }
%"class.std::__1::__compressed_pair.520" = type { %"struct.std::__1::__compressed_pair_elem.506" }
%"class.std::__1::__compressed_pair.524" = type { %"struct.std::__1::__compressed_pair_elem.525" }
%"struct.std::__1::__compressed_pair_elem.525" = type { %"class.std::__1::unique_ptr.519"* }

$_ZN9CJS_Field20get_alignment_staticEN2v85LocalINS0_6StringEEERKNS0_20PropertyCallbackInfoINS0_5ValueEEE = comdat any

$_ZN9CJS_Field20set_alignment_staticEN2v85LocalINS0_6StringEEENS1_INS0_5ValueEEERKNS0_20PropertyCallbackInfoIvEE = comdat any

$_ZN9CJS_Field23get_border_style_staticEN2v85LocalINS0_6StringEEERKNS0_20PropertyCallbackInfoINS0_5ValueEEE = comdat any

$_ZN9CJS_Field23set_border_style_staticEN2v85LocalINS0_6StringEEENS1_INS0_5ValueEEERKNS0_20PropertyCallbackInfoIvEE = comdat any

$_ZN9CJS_Field25get_button_align_x_staticEN2v85LocalINS0_6StringEEERKNS0_20PropertyCallbackInfoINS0_5ValueEEE = comdat any

$_ZN9CJS_Field25set_button_align_x_staticEN2v85LocalINS0_6StringEEENS1_INS0_5ValueEEERKNS0_20PropertyCallbackInfoIvEE = comdat any

$_ZN9CJS_Field25get_button_align_y_staticEN2v85LocalINS0_6StringEEERKNS0_20PropertyCallbackInfoINS0_5ValueEEE = comdat any

$_ZN9CJS_Field25set_button_align_y_staticEN2v85LocalINS0_6StringEEENS1_INS0_5ValueEEERKNS0_20PropertyCallbackInfoIvEE = comdat any

$_ZN9CJS_Field28get_button_fit_bounds_staticEN2v85LocalINS0_6StringEEERKNS0_20PropertyCallbackInfoINS0_5ValueEEE = comdat any

$_ZN9CJS_Field28set_button_fit_bounds_staticEN2v85LocalINS0_6StringEEENS1_INS0_5ValueEEERKNS0_20PropertyCallbackInfoIvEE = comdat any

$_ZN9CJS_Field26get_button_position_staticEN2v85LocalINS0_6StringEEERKNS0_20PropertyCallbackInfoINS0_5ValueEEE = comdat any

$_ZN9CJS_Field26set_button_position_staticEN2v85LocalINS0_6StringEEENS1_INS0_5ValueEEERKNS0_20PropertyCallbackInfoIvEE = comdat any

$_ZN9CJS_Field27get_button_scale_how_staticEN2v85LocalINS0_6StringEEERKNS0_20PropertyCallbackInfoINS0_5ValueEEE = comdat any

$_ZN9CJS_Field27set_button_scale_how_staticEN2v85LocalINS0_6StringEEENS1_INS0_5ValueEEERKNS0_20PropertyCallbackInfoIvEE = comdat any

$_ZN9CJS_Field28get_button_scale_when_staticEN2v85LocalINS0_6StringEEERKNS0_20PropertyCallbackInfoINS0_5ValueEEE = comdat any

$_ZN9CJS_Field28set_button_scale_when_staticEN2v85LocalINS0_6StringEEENS1_INS0_5ValueEEERKNS0_20PropertyCallbackInfoIvEE = comdat any

$_ZN9CJS_Field27get_calc_order_index_staticEN2v85LocalINS0_6StringEEERKNS0_20PropertyCallbackInfoINS0_5ValueEEE = comdat any

$_ZN9CJS_Field27set_calc_order_index_staticEN2v85LocalINS0_6StringEEENS1_INS0_5ValueEEERKNS0_20PropertyCallbackInfoIvEE = comdat any

$_ZN9CJS_Field21get_char_limit_staticEN2v85LocalINS0_6StringEEERKNS0_20PropertyCallbackInfoINS0_5ValueEEE = comdat any

$_ZN9CJS_Field21set_char_limit_staticEN2v85LocalINS0_6StringEEENS1_INS0_5ValueEEERKNS0_20PropertyCallbackInfoIvEE = comdat any

$_ZN9CJS_Field15get_comb_staticEN2v85LocalINS0_6StringEEERKNS0_20PropertyCallbackInfoINS0_5ValueEEE = comdat any

$_ZN9CJS_Field15set_comb_staticEN2v85LocalINS0_6StringEEENS1_INS0_5ValueEEERKNS0_20PropertyCallbackInfoIvEE = comdat any

$_ZN9CJS_Field31get_commit_on_sel_change_staticEN2v85LocalINS0_6StringEEERKNS0_20PropertyCallbackInfoINS0_5ValueEEE = comdat any

$_ZN9CJS_Field31set_commit_on_sel_change_staticEN2v85LocalINS0_6StringEEENS1_INS0_5ValueEEERKNS0_20PropertyCallbackInfoIvEE = comdat any

$_ZN9CJS_Field32get_current_value_indices_staticEN2v85LocalINS0_6StringEEERKNS0_20PropertyCallbackInfoINS0_5ValueEEE = comdat any

$_ZN9CJS_Field32set_current_value_indices_staticEN2v85LocalINS0_6StringEEENS1_INS0_5ValueEEERKNS0_20PropertyCallbackInfoIvEE = comdat any

$_ZN9CJS_Field24get_default_style_staticEN2v85LocalINS0_6StringEEERKNS0_20PropertyCallbackInfoINS0_5ValueEEE = comdat any

$_ZN9CJS_Field24set_default_style_staticEN2v85LocalINS0_6StringEEENS1_INS0_5ValueEEERKNS0_20PropertyCallbackInfoIvEE = comdat any

$_ZN9CJS_Field24get_default_value_staticEN2v85LocalINS0_6StringEEERKNS0_20PropertyCallbackInfoINS0_5ValueEEE = comdat any

$_ZN9CJS_Field24set_default_value_staticEN2v85LocalINS0_6StringEEENS1_INS0_5ValueEEERKNS0_20PropertyCallbackInfoIvEE = comdat any

$_ZN9CJS_Field24get_do_not_scroll_staticEN2v85LocalINS0_6StringEEERKNS0_20PropertyCallbackInfoINS0_5ValueEEE = comdat any

$_ZN9CJS_Field24set_do_not_scroll_staticEN2v85LocalINS0_6StringEEENS1_INS0_5ValueEEERKNS0_20PropertyCallbackInfoIvEE = comdat any

$_ZN9CJS_Field29get_do_not_spell_check_staticEN2v85LocalINS0_6StringEEERKNS0_20PropertyCallbackInfoINS0_5ValueEEE = comdat any

$_ZN9CJS_Field29set_do_not_spell_check_staticEN2v85LocalINS0_6StringEEENS1_INS0_5ValueEEERKNS0_20PropertyCallbackInfoIvEE = comdat any

$_ZN9CJS_Field16get_delay_staticEN2v85LocalINS0_6StringEEERKNS0_20PropertyCallbackInfoINS0_5ValueEEE = comdat any

$_ZN9CJS_Field16set_delay_staticEN2v85LocalINS0_6StringEEENS1_INS0_5ValueEEERKNS0_20PropertyCallbackInfoIvEE = comdat any

$_ZN9CJS_Field18get_display_staticEN2v85LocalINS0_6StringEEERKNS0_20PropertyCallbackInfoINS0_5ValueEEE = comdat any

$_ZN9CJS_Field18set_display_staticEN2v85LocalINS0_6StringEEENS1_INS0_5ValueEEERKNS0_20PropertyCallbackInfoIvEE = comdat any

$_ZN9CJS_Field14get_doc_staticEN2v85LocalINS0_6StringEEERKNS0_20PropertyCallbackInfoINS0_5ValueEEE = comdat any

$_ZN9CJS_Field14set_doc_staticEN2v85LocalINS0_6StringEEENS1_INS0_5ValueEEERKNS0_20PropertyCallbackInfoIvEE = comdat any

$_ZN9CJS_Field19get_editable_staticEN2v85LocalINS0_6StringEEERKNS0_20PropertyCallbackInfoINS0_5ValueEEE = comdat any

$_ZN9CJS_Field19set_editable_staticEN2v85LocalINS0_6StringEEENS1_INS0_5ValueEEERKNS0_20PropertyCallbackInfoIvEE = comdat any

$_ZN9CJS_Field24get_export_values_staticEN2v85LocalINS0_6StringEEERKNS0_20PropertyCallbackInfoINS0_5ValueEEE = comdat any

$_ZN9CJS_Field24set_export_values_staticEN2v85LocalINS0_6StringEEENS1_INS0_5ValueEEERKNS0_20PropertyCallbackInfoIvEE = comdat any

$_ZN9CJS_Field17get_hidden_staticEN2v85LocalINS0_6StringEEERKNS0_20PropertyCallbackInfoINS0_5ValueEEE = comdat any

$_ZN9CJS_Field17set_hidden_staticEN2v85LocalINS0_6StringEEENS1_INS0_5ValueEEERKNS0_20PropertyCallbackInfoIvEE = comdat any

$_ZN9CJS_Field22get_file_select_staticEN2v85LocalINS0_6StringEEERKNS0_20PropertyCallbackInfoINS0_5ValueEEE = comdat any

$_ZN9CJS_Field22set_file_select_staticEN2v85LocalINS0_6StringEEENS1_INS0_5ValueEEERKNS0_20PropertyCallbackInfoIvEE = comdat any

$_ZN9CJS_Field21get_fill_color_staticEN2v85LocalINS0_6StringEEERKNS0_20PropertyCallbackInfoINS0_5ValueEEE = comdat any

$_ZN9CJS_Field21set_fill_color_staticEN2v85LocalINS0_6StringEEENS1_INS0_5ValueEEERKNS0_20PropertyCallbackInfoIvEE = comdat any

$_ZN9CJS_Field21get_line_width_staticEN2v85LocalINS0_6StringEEERKNS0_20PropertyCallbackInfoINS0_5ValueEEE = comdat any

$_ZN9CJS_Field21set_line_width_staticEN2v85LocalINS0_6StringEEENS1_INS0_5ValueEEERKNS0_20PropertyCallbackInfoIvEE = comdat any

$_ZN9CJS_Field20get_highlight_staticEN2v85LocalINS0_6StringEEERKNS0_20PropertyCallbackInfoINS0_5ValueEEE = comdat any

$_ZN9CJS_Field20set_highlight_staticEN2v85LocalINS0_6StringEEENS1_INS0_5ValueEEERKNS0_20PropertyCallbackInfoIvEE = comdat any

$_ZN9CJS_Field20get_multiline_staticEN2v85LocalINS0_6StringEEERKNS0_20PropertyCallbackInfoINS0_5ValueEEE = comdat any

$_ZN9CJS_Field20set_multiline_staticEN2v85LocalINS0_6StringEEENS1_INS0_5ValueEEERKNS0_20PropertyCallbackInfoIvEE = comdat any

$_ZN9CJS_Field29get_multiple_selection_staticEN2v85LocalINS0_6StringEEERKNS0_20PropertyCallbackInfoINS0_5ValueEEE = comdat any

$_ZN9CJS_Field29set_multiple_selection_staticEN2v85LocalINS0_6StringEEENS1_INS0_5ValueEEERKNS0_20PropertyCallbackInfoIvEE = comdat any

$_ZN9CJS_Field15get_name_staticEN2v85LocalINS0_6StringEEERKNS0_20PropertyCallbackInfoINS0_5ValueEEE = comdat any

$_ZN9CJS_Field15set_name_staticEN2v85LocalINS0_6StringEEENS1_INS0_5ValueEEERKNS0_20PropertyCallbackInfoIvEE = comdat any

$_ZN9CJS_Field20get_num_items_staticEN2v85LocalINS0_6StringEEERKNS0_20PropertyCallbackInfoINS0_5ValueEEE = comdat any

$_ZN9CJS_Field20set_num_items_staticEN2v85LocalINS0_6StringEEENS1_INS0_5ValueEEERKNS0_20PropertyCallbackInfoIvEE = comdat any

$_ZN9CJS_Field15get_page_staticEN2v85LocalINS0_6StringEEERKNS0_20PropertyCallbackInfoINS0_5ValueEEE = comdat any

$_ZN9CJS_Field15set_page_staticEN2v85LocalINS0_6StringEEENS1_INS0_5ValueEEERKNS0_20PropertyCallbackInfoIvEE = comdat any

$_ZN9CJS_Field19get_password_staticEN2v85LocalINS0_6StringEEERKNS0_20PropertyCallbackInfoINS0_5ValueEEE = comdat any

$_ZN9CJS_Field19set_password_staticEN2v85LocalINS0_6StringEEENS1_INS0_5ValueEEERKNS0_20PropertyCallbackInfoIvEE = comdat any

$_ZN9CJS_Field16get_print_staticEN2v85LocalINS0_6StringEEERKNS0_20PropertyCallbackInfoINS0_5ValueEEE = comdat any

$_ZN9CJS_Field16set_print_staticEN2v85LocalINS0_6StringEEENS1_INS0_5ValueEEERKNS0_20PropertyCallbackInfoIvEE = comdat any

$_ZN9CJS_Field27get_radios_in_unison_staticEN2v85LocalINS0_6StringEEERKNS0_20PropertyCallbackInfoINS0_5ValueEEE = comdat any

$_ZN9CJS_Field27set_radios_in_unison_staticEN2v85LocalINS0_6StringEEENS1_INS0_5ValueEEERKNS0_20PropertyCallbackInfoIvEE = comdat any

$_ZN9CJS_Field19get_readonly_staticEN2v85LocalINS0_6StringEEERKNS0_20PropertyCallbackInfoINS0_5ValueEEE = comdat any

$_ZN9CJS_Field19set_readonly_staticEN2v85LocalINS0_6StringEEENS1_INS0_5ValueEEERKNS0_20PropertyCallbackInfoIvEE = comdat any

$_ZN9CJS_Field15get_rect_staticEN2v85LocalINS0_6StringEEERKNS0_20PropertyCallbackInfoINS0_5ValueEEE = comdat any

$_ZN9CJS_Field15set_rect_staticEN2v85LocalINS0_6StringEEENS1_INS0_5ValueEEERKNS0_20PropertyCallbackInfoIvEE = comdat any

$_ZN9CJS_Field19get_required_staticEN2v85LocalINS0_6StringEEERKNS0_20PropertyCallbackInfoINS0_5ValueEEE = comdat any

$_ZN9CJS_Field19set_required_staticEN2v85LocalINS0_6StringEEENS1_INS0_5ValueEEERKNS0_20PropertyCallbackInfoIvEE = comdat any

$_ZN9CJS_Field20get_rich_text_staticEN2v85LocalINS0_6StringEEERKNS0_20PropertyCallbackInfoINS0_5ValueEEE = comdat any

$_ZN9CJS_Field20set_rich_text_staticEN2v85LocalINS0_6StringEEENS1_INS0_5ValueEEERKNS0_20PropertyCallbackInfoIvEE = comdat any

$_ZN9CJS_Field21get_rich_value_staticEN2v85LocalINS0_6StringEEERKNS0_20PropertyCallbackInfoINS0_5ValueEEE = comdat any

$_ZN9CJS_Field21set_rich_value_staticEN2v85LocalINS0_6StringEEENS1_INS0_5ValueEEERKNS0_20PropertyCallbackInfoIvEE = comdat any

$_ZN9CJS_Field19get_rotation_staticEN2v85LocalINS0_6StringEEERKNS0_20PropertyCallbackInfoINS0_5ValueEEE = comdat any

$_ZN9CJS_Field19set_rotation_staticEN2v85LocalINS0_6StringEEENS1_INS0_5ValueEEERKNS0_20PropertyCallbackInfoIvEE = comdat any

$_ZN9CJS_Field17get_source_staticEN2v85LocalINS0_6StringEEERKNS0_20PropertyCallbackInfoINS0_5ValueEEE = comdat any

$_ZN9CJS_Field17set_source_staticEN2v85LocalINS0_6StringEEENS1_INS0_5ValueEEERKNS0_20PropertyCallbackInfoIvEE = comdat any

$_ZN9CJS_Field23get_stroke_color_staticEN2v85LocalINS0_6StringEEERKNS0_20PropertyCallbackInfoINS0_5ValueEEE = comdat any

$_ZN9CJS_Field23set_stroke_color_staticEN2v85LocalINS0_6StringEEENS1_INS0_5ValueEEERKNS0_20PropertyCallbackInfoIvEE = comdat any

$_ZN9CJS_Field16get_style_staticEN2v85LocalINS0_6StringEEERKNS0_20PropertyCallbackInfoINS0_5ValueEEE = comdat any

$_ZN9CJS_Field16set_style_staticEN2v85LocalINS0_6StringEEENS1_INS0_5ValueEEERKNS0_20PropertyCallbackInfoIvEE = comdat any

$_ZN9CJS_Field22get_submit_name_staticEN2v85LocalINS0_6StringEEERKNS0_20PropertyCallbackInfoINS0_5ValueEEE = comdat any

$_ZN9CJS_Field22set_submit_name_staticEN2v85LocalINS0_6StringEEENS1_INS0_5ValueEEERKNS0_20PropertyCallbackInfoIvEE = comdat any

$_ZN9CJS_Field21get_text_color_staticEN2v85LocalINS0_6StringEEERKNS0_20PropertyCallbackInfoINS0_5ValueEEE = comdat any

$_ZN9CJS_Field21set_text_color_staticEN2v85LocalINS0_6StringEEENS1_INS0_5ValueEEERKNS0_20PropertyCallbackInfoIvEE = comdat any

$_ZN9CJS_Field20get_text_font_staticEN2v85LocalINS0_6StringEEERKNS0_20PropertyCallbackInfoINS0_5ValueEEE = comdat any

$_ZN9CJS_Field20set_text_font_staticEN2v85LocalINS0_6StringEEENS1_INS0_5ValueEEERKNS0_20PropertyCallbackInfoIvEE = comdat any

$_ZN9CJS_Field20get_text_size_staticEN2v85LocalINS0_6StringEEERKNS0_20PropertyCallbackInfoINS0_5ValueEEE = comdat any

$_ZN9CJS_Field20set_text_size_staticEN2v85LocalINS0_6StringEEENS1_INS0_5ValueEEERKNS0_20PropertyCallbackInfoIvEE = comdat any

$_ZN9CJS_Field15get_type_staticEN2v85LocalINS0_6StringEEERKNS0_20PropertyCallbackInfoINS0_5ValueEEE = comdat any

$_ZN9CJS_Field15set_type_staticEN2v85LocalINS0_6StringEEENS1_INS0_5ValueEEERKNS0_20PropertyCallbackInfoIvEE = comdat any

$_ZN9CJS_Field20get_user_name_staticEN2v85LocalINS0_6StringEEERKNS0_20PropertyCallbackInfoINS0_5ValueEEE = comdat any

$_ZN9CJS_Field20set_user_name_staticEN2v85LocalINS0_6StringEEENS1_INS0_5ValueEEERKNS0_20PropertyCallbackInfoIvEE = comdat any

$_ZN9CJS_Field16get_value_staticEN2v85LocalINS0_6StringEEERKNS0_20PropertyCallbackInfoINS0_5ValueEEE = comdat any

$_ZN9CJS_Field16set_value_staticEN2v85LocalINS0_6StringEEENS1_INS0_5ValueEEERKNS0_20PropertyCallbackInfoIvEE = comdat any

$_ZN9CJS_Field26get_value_as_string_staticEN2v85LocalINS0_6StringEEERKNS0_20PropertyCallbackInfoINS0_5ValueEEE = comdat any

$_ZN9CJS_Field26set_value_as_string_staticEN2v85LocalINS0_6StringEEENS1_INS0_5ValueEEERKNS0_20PropertyCallbackInfoIvEE = comdat any

$_ZN9CJS_Field28browseForFileToSubmit_staticERKN2v820FunctionCallbackInfoINS0_5ValueEEE = comdat any

$_ZN9CJS_Field23buttonGetCaption_staticERKN2v820FunctionCallbackInfoINS0_5ValueEEE = comdat any

$_ZN9CJS_Field20buttonGetIcon_staticERKN2v820FunctionCallbackInfoINS0_5ValueEEE = comdat any

$_ZN9CJS_Field23buttonImportIcon_staticERKN2v820FunctionCallbackInfoINS0_5ValueEEE = comdat any

$_ZN9CJS_Field23buttonSetCaption_staticERKN2v820FunctionCallbackInfoINS0_5ValueEEE = comdat any

$_ZN9CJS_Field20buttonSetIcon_staticERKN2v820FunctionCallbackInfoINS0_5ValueEEE = comdat any

$_ZN9CJS_Field19checkThisBox_staticERKN2v820FunctionCallbackInfoINS0_5ValueEEE = comdat any

$_ZN9CJS_Field17clearItems_staticERKN2v820FunctionCallbackInfoINS0_5ValueEEE = comdat any

$_ZN9CJS_Field23defaultIsChecked_staticERKN2v820FunctionCallbackInfoINS0_5ValueEEE = comdat any

$_ZN9CJS_Field19deleteItemAt_staticERKN2v820FunctionCallbackInfoINS0_5ValueEEE = comdat any

$_ZN9CJS_Field15getArray_staticERKN2v820FunctionCallbackInfoINS0_5ValueEEE = comdat any

$_ZN9CJS_Field16getItemAt_staticERKN2v820FunctionCallbackInfoINS0_5ValueEEE = comdat any

$_ZN9CJS_Field14getLock_staticERKN2v820FunctionCallbackInfoINS0_5ValueEEE = comdat any

$_ZN9CJS_Field19insertItemAt_staticERKN2v820FunctionCallbackInfoINS0_5ValueEEE = comdat any

$_ZN9CJS_Field19isBoxChecked_staticERKN2v820FunctionCallbackInfoINS0_5ValueEEE = comdat any

$_ZN9CJS_Field23isDefaultChecked_staticERKN2v820FunctionCallbackInfoINS0_5ValueEEE = comdat any

$_ZN9CJS_Field16setAction_staticERKN2v820FunctionCallbackInfoINS0_5ValueEEE = comdat any

$_ZN9CJS_Field15setFocus_staticERKN2v820FunctionCallbackInfoINS0_5ValueEEE = comdat any

$_ZN9CJS_Field15setItems_staticERKN2v820FunctionCallbackInfoINS0_5ValueEEE = comdat any

$_ZN9CJS_Field14setLock_staticERKN2v820FunctionCallbackInfoINS0_5ValueEEE = comdat any

$_ZN9CJS_Field32signatureGetModifications_staticERKN2v820FunctionCallbackInfoINS0_5ValueEEE = comdat any

$_ZN9CJS_Field28signatureGetSeedValue_staticERKN2v820FunctionCallbackInfoINS0_5ValueEEE = comdat any

$_ZN9CJS_Field20signatureInfo_staticERKN2v820FunctionCallbackInfoINS0_5ValueEEE = comdat any

$_ZN9CJS_Field28signatureSetSeedValue_staticERKN2v820FunctionCallbackInfoINS0_5ValueEEE = comdat any

$_ZN9CJS_Field20signatureSign_staticERKN2v820FunctionCallbackInfoINS0_5ValueEEE = comdat any

$_ZN9CJS_Field24signatureValidate_staticERKN2v820FunctionCallbackInfoINS0_5ValueEEE = comdat any

$_ZN5fxcrt11ObservedPtrI27CPDFSDK_FormFillEnvironmentED2Ev = comdat any

$_ZN5fxcrt11ObservedPtrI12CJS_DocumentED2Ev = comdat any

$_ZN5fxcrt11ObservedPtrI13CPDFSDK_AnnotED2Ev = comdat any

$_Z12JSPropGetterI9CJS_FieldXadL_ZNS0_13get_alignmentEP11CJS_RuntimeEEEvPKcS4_N2v85LocalINS5_6StringEEERKNS5_20PropertyCallbackInfoINS5_5ValueEEE = comdat any

$_Z12JSPropSetterI9CJS_FieldXadL_ZNS0_13set_alignmentEP11CJS_RuntimeN2v85LocalINS3_5ValueEEEEEEvPKcS8_NS4_INS3_6StringEEES6_RKNS3_20PropertyCallbackInfoIvEE = comdat any

$_Z12JSPropGetterI9CJS_FieldXadL_ZNS0_16get_border_styleEP11CJS_RuntimeEEEvPKcS4_N2v85LocalINS5_6StringEEERKNS5_20PropertyCallbackInfoINS5_5ValueEEE = comdat any

$_Z12JSPropSetterI9CJS_FieldXadL_ZNS0_16set_border_styleEP11CJS_RuntimeN2v85LocalINS3_5ValueEEEEEEvPKcS8_NS4_INS3_6StringEEES6_RKNS3_20PropertyCallbackInfoIvEE = comdat any

$_Z12JSPropGetterI9CJS_FieldXadL_ZNS0_18get_button_align_xEP11CJS_RuntimeEEEvPKcS4_N2v85LocalINS5_6StringEEERKNS5_20PropertyCallbackInfoINS5_5ValueEEE = comdat any

$_Z12JSPropSetterI9CJS_FieldXadL_ZNS0_18set_button_align_xEP11CJS_RuntimeN2v85LocalINS3_5ValueEEEEEEvPKcS8_NS4_INS3_6StringEEES6_RKNS3_20PropertyCallbackInfoIvEE = comdat any

$_Z12JSPropGetterI9CJS_FieldXadL_ZNS0_18get_button_align_yEP11CJS_RuntimeEEEvPKcS4_N2v85LocalINS5_6StringEEERKNS5_20PropertyCallbackInfoINS5_5ValueEEE = comdat any

$_Z12JSPropSetterI9CJS_FieldXadL_ZNS0_18set_button_align_yEP11CJS_RuntimeN2v85LocalINS3_5ValueEEEEEEvPKcS8_NS4_INS3_6StringEEES6_RKNS3_20PropertyCallbackInfoIvEE = comdat any

$_Z12JSPropGetterI9CJS_FieldXadL_ZNS0_21get_button_fit_boundsEP11CJS_RuntimeEEEvPKcS4_N2v85LocalINS5_6StringEEERKNS5_20PropertyCallbackInfoINS5_5ValueEEE = comdat any

$_Z12JSPropSetterI9CJS_FieldXadL_ZNS0_21set_button_fit_boundsEP11CJS_RuntimeN2v85LocalINS3_5ValueEEEEEEvPKcS8_NS4_INS3_6StringEEES6_RKNS3_20PropertyCallbackInfoIvEE = comdat any

$_Z12JSPropGetterI9CJS_FieldXadL_ZNS0_19get_button_positionEP11CJS_RuntimeEEEvPKcS4_N2v85LocalINS5_6StringEEERKNS5_20PropertyCallbackInfoINS5_5ValueEEE = comdat any

$_Z12JSPropSetterI9CJS_FieldXadL_ZNS0_19set_button_positionEP11CJS_RuntimeN2v85LocalINS3_5ValueEEEEEEvPKcS8_NS4_INS3_6StringEEES6_RKNS3_20PropertyCallbackInfoIvEE = comdat any

$_Z12JSPropGetterI9CJS_FieldXadL_ZNS0_20get_button_scale_howEP11CJS_RuntimeEEEvPKcS4_N2v85LocalINS5_6StringEEERKNS5_20PropertyCallbackInfoINS5_5ValueEEE = comdat any

$_Z12JSPropSetterI9CJS_FieldXadL_ZNS0_20set_button_scale_howEP11CJS_RuntimeN2v85LocalINS3_5ValueEEEEEEvPKcS8_NS4_INS3_6StringEEES6_RKNS3_20PropertyCallbackInfoIvEE = comdat any

$_Z12JSPropGetterI9CJS_FieldXadL_ZNS0_21get_button_scale_whenEP11CJS_RuntimeEEEvPKcS4_N2v85LocalINS5_6StringEEERKNS5_20PropertyCallbackInfoINS5_5ValueEEE = comdat any

$_Z12JSPropSetterI9CJS_FieldXadL_ZNS0_21set_button_scale_whenEP11CJS_RuntimeN2v85LocalINS3_5ValueEEEEEEvPKcS8_NS4_INS3_6StringEEES6_RKNS3_20PropertyCallbackInfoIvEE = comdat any

$_Z12JSPropGetterI9CJS_FieldXadL_ZNS0_20get_calc_order_indexEP11CJS_RuntimeEEEvPKcS4_N2v85LocalINS5_6StringEEERKNS5_20PropertyCallbackInfoINS5_5ValueEEE = comdat any

$_Z12JSPropSetterI9CJS_FieldXadL_ZNS0_20set_calc_order_indexEP11CJS_RuntimeN2v85LocalINS3_5ValueEEEEEEvPKcS8_NS4_INS3_6StringEEES6_RKNS3_20PropertyCallbackInfoIvEE = comdat any

$_Z12JSPropGetterI9CJS_FieldXadL_ZNS0_14get_char_limitEP11CJS_RuntimeEEEvPKcS4_N2v85LocalINS5_6StringEEERKNS5_20PropertyCallbackInfoINS5_5ValueEEE = comdat any

$_Z12JSPropSetterI9CJS_FieldXadL_ZNS0_14set_char_limitEP11CJS_RuntimeN2v85LocalINS3_5ValueEEEEEEvPKcS8_NS4_INS3_6StringEEES6_RKNS3_20PropertyCallbackInfoIvEE = comdat any

$_Z12JSPropGetterI9CJS_FieldXadL_ZNS0_8get_combEP11CJS_RuntimeEEEvPKcS4_N2v85LocalINS5_6StringEEERKNS5_20PropertyCallbackInfoINS5_5ValueEEE = comdat any

$_Z12JSPropSetterI9CJS_FieldXadL_ZNS0_8set_combEP11CJS_RuntimeN2v85LocalINS3_5ValueEEEEEEvPKcS8_NS4_INS3_6StringEEES6_RKNS3_20PropertyCallbackInfoIvEE = comdat any

$_Z12JSPropGetterI9CJS_FieldXadL_ZNS0_24get_commit_on_sel_changeEP11CJS_RuntimeEEEvPKcS4_N2v85LocalINS5_6StringEEERKNS5_20PropertyCallbackInfoINS5_5ValueEEE = comdat any

$_Z12JSPropSetterI9CJS_FieldXadL_ZNS0_24set_commit_on_sel_changeEP11CJS_RuntimeN2v85LocalINS3_5ValueEEEEEEvPKcS8_NS4_INS3_6StringEEES6_RKNS3_20PropertyCallbackInfoIvEE = comdat any

$_Z12JSPropGetterI9CJS_FieldXadL_ZNS0_25get_current_value_indicesEP11CJS_RuntimeEEEvPKcS4_N2v85LocalINS5_6StringEEERKNS5_20PropertyCallbackInfoINS5_5ValueEEE = comdat any

$_Z12JSPropSetterI9CJS_FieldXadL_ZNS0_25set_current_value_indicesEP11CJS_RuntimeN2v85LocalINS3_5ValueEEEEEEvPKcS8_NS4_INS3_6StringEEES6_RKNS3_20PropertyCallbackInfoIvEE = comdat any

$_Z12JSPropGetterI9CJS_FieldXadL_ZNS0_17get_default_styleEP11CJS_RuntimeEEEvPKcS4_N2v85LocalINS5_6StringEEERKNS5_20PropertyCallbackInfoINS5_5ValueEEE = comdat any

$_Z12JSPropSetterI9CJS_FieldXadL_ZNS0_17set_default_styleEP11CJS_RuntimeN2v85LocalINS3_5ValueEEEEEEvPKcS8_NS4_INS3_6StringEEES6_RKNS3_20PropertyCallbackInfoIvEE = comdat any

$_Z12JSPropGetterI9CJS_FieldXadL_ZNS0_17get_default_valueEP11CJS_RuntimeEEEvPKcS4_N2v85LocalINS5_6StringEEERKNS5_20PropertyCallbackInfoINS5_5ValueEEE = comdat any

$_Z12JSPropSetterI9CJS_FieldXadL_ZNS0_17set_default_valueEP11CJS_RuntimeN2v85LocalINS3_5ValueEEEEEEvPKcS8_NS4_INS3_6StringEEES6_RKNS3_20PropertyCallbackInfoIvEE = comdat any

$_Z12JSPropGetterI9CJS_FieldXadL_ZNS0_17get_do_not_scrollEP11CJS_RuntimeEEEvPKcS4_N2v85LocalINS5_6StringEEERKNS5_20PropertyCallbackInfoINS5_5ValueEEE = comdat any

$_Z12JSPropSetterI9CJS_FieldXadL_ZNS0_17set_do_not_scrollEP11CJS_RuntimeN2v85LocalINS3_5ValueEEEEEEvPKcS8_NS4_INS3_6StringEEES6_RKNS3_20PropertyCallbackInfoIvEE = comdat any

$_Z12JSPropGetterI9CJS_FieldXadL_ZNS0_22get_do_not_spell_checkEP11CJS_RuntimeEEEvPKcS4_N2v85LocalINS5_6StringEEERKNS5_20PropertyCallbackInfoINS5_5ValueEEE = comdat any

$_Z12JSPropSetterI9CJS_FieldXadL_ZNS0_22set_do_not_spell_checkEP11CJS_RuntimeN2v85LocalINS3_5ValueEEEEEEvPKcS8_NS4_INS3_6StringEEES6_RKNS3_20PropertyCallbackInfoIvEE = comdat any

$_Z12JSPropGetterI9CJS_FieldXadL_ZNS0_9get_delayEP11CJS_RuntimeEEEvPKcS4_N2v85LocalINS5_6StringEEERKNS5_20PropertyCallbackInfoINS5_5ValueEEE = comdat any

$_Z12JSPropSetterI9CJS_FieldXadL_ZNS0_9set_delayEP11CJS_RuntimeN2v85LocalINS3_5ValueEEEEEEvPKcS8_NS4_INS3_6StringEEES6_RKNS3_20PropertyCallbackInfoIvEE = comdat any

$_Z12JSPropGetterI9CJS_FieldXadL_ZNS0_11get_displayEP11CJS_RuntimeEEEvPKcS4_N2v85LocalINS5_6StringEEERKNS5_20PropertyCallbackInfoINS5_5ValueEEE = comdat any

$_Z12JSPropSetterI9CJS_FieldXadL_ZNS0_11set_displayEP11CJS_RuntimeN2v85LocalINS3_5ValueEEEEEEvPKcS8_NS4_INS3_6StringEEES6_RKNS3_20PropertyCallbackInfoIvEE = comdat any

$_Z12JSPropGetterI9CJS_FieldXadL_ZNS0_7get_docEP11CJS_RuntimeEEEvPKcS4_N2v85LocalINS5_6StringEEERKNS5_20PropertyCallbackInfoINS5_5ValueEEE = comdat any

$_Z12JSPropSetterI9CJS_FieldXadL_ZNS0_7set_docEP11CJS_RuntimeN2v85LocalINS3_5ValueEEEEEEvPKcS8_NS4_INS3_6StringEEES6_RKNS3_20PropertyCallbackInfoIvEE = comdat any

$_Z12JSPropGetterI9CJS_FieldXadL_ZNS0_12get_editableEP11CJS_RuntimeEEEvPKcS4_N2v85LocalINS5_6StringEEERKNS5_20PropertyCallbackInfoINS5_5ValueEEE = comdat any

$_Z12JSPropSetterI9CJS_FieldXadL_ZNS0_12set_editableEP11CJS_RuntimeN2v85LocalINS3_5ValueEEEEEEvPKcS8_NS4_INS3_6StringEEES6_RKNS3_20PropertyCallbackInfoIvEE = comdat any

$_Z12JSPropGetterI9CJS_FieldXadL_ZNS0_17get_export_valuesEP11CJS_RuntimeEEEvPKcS4_N2v85LocalINS5_6StringEEERKNS5_20PropertyCallbackInfoINS5_5ValueEEE = comdat any

$_Z12JSPropSetterI9CJS_FieldXadL_ZNS0_17set_export_valuesEP11CJS_RuntimeN2v85LocalINS3_5ValueEEEEEEvPKcS8_NS4_INS3_6StringEEES6_RKNS3_20PropertyCallbackInfoIvEE = comdat any

$_Z12JSPropGetterI9CJS_FieldXadL_ZNS0_10get_hiddenEP11CJS_RuntimeEEEvPKcS4_N2v85LocalINS5_6StringEEERKNS5_20PropertyCallbackInfoINS5_5ValueEEE = comdat any

$_Z12JSPropSetterI9CJS_FieldXadL_ZNS0_10set_hiddenEP11CJS_RuntimeN2v85LocalINS3_5ValueEEEEEEvPKcS8_NS4_INS3_6StringEEES6_RKNS3_20PropertyCallbackInfoIvEE = comdat any

$_Z12JSPropGetterI9CJS_FieldXadL_ZNS0_15get_file_selectEP11CJS_RuntimeEEEvPKcS4_N2v85LocalINS5_6StringEEERKNS5_20PropertyCallbackInfoINS5_5ValueEEE = comdat any

$_Z12JSPropSetterI9CJS_FieldXadL_ZNS0_15set_file_selectEP11CJS_RuntimeN2v85LocalINS3_5ValueEEEEEEvPKcS8_NS4_INS3_6StringEEES6_RKNS3_20PropertyCallbackInfoIvEE = comdat any

$_Z12JSPropGetterI9CJS_FieldXadL_ZNS0_14get_fill_colorEP11CJS_RuntimeEEEvPKcS4_N2v85LocalINS5_6StringEEERKNS5_20PropertyCallbackInfoINS5_5ValueEEE = comdat any

$_Z12JSPropSetterI9CJS_FieldXadL_ZNS0_14set_fill_colorEP11CJS_RuntimeN2v85LocalINS3_5ValueEEEEEEvPKcS8_NS4_INS3_6StringEEES6_RKNS3_20PropertyCallbackInfoIvEE = comdat any

$_Z12JSPropGetterI9CJS_FieldXadL_ZNS0_14get_line_widthEP11CJS_RuntimeEEEvPKcS4_N2v85LocalINS5_6StringEEERKNS5_20PropertyCallbackInfoINS5_5ValueEEE = comdat any

$_Z12JSPropSetterI9CJS_FieldXadL_ZNS0_14set_line_widthEP11CJS_RuntimeN2v85LocalINS3_5ValueEEEEEEvPKcS8_NS4_INS3_6StringEEES6_RKNS3_20PropertyCallbackInfoIvEE = comdat any

$_Z12JSPropGetterI9CJS_FieldXadL_ZNS0_13get_highlightEP11CJS_RuntimeEEEvPKcS4_N2v85LocalINS5_6StringEEERKNS5_20PropertyCallbackInfoINS5_5ValueEEE = comdat any

$_Z12JSPropSetterI9CJS_FieldXadL_ZNS0_13set_highlightEP11CJS_RuntimeN2v85LocalINS3_5ValueEEEEEEvPKcS8_NS4_INS3_6StringEEES6_RKNS3_20PropertyCallbackInfoIvEE = comdat any

$_Z12JSPropGetterI9CJS_FieldXadL_ZNS0_13get_multilineEP11CJS_RuntimeEEEvPKcS4_N2v85LocalINS5_6StringEEERKNS5_20PropertyCallbackInfoINS5_5ValueEEE = comdat any

$_Z12JSPropSetterI9CJS_FieldXadL_ZNS0_13set_multilineEP11CJS_RuntimeN2v85LocalINS3_5ValueEEEEEEvPKcS8_NS4_INS3_6StringEEES6_RKNS3_20PropertyCallbackInfoIvEE = comdat any

$_Z12JSPropGetterI9CJS_FieldXadL_ZNS0_22get_multiple_selectionEP11CJS_RuntimeEEEvPKcS4_N2v85LocalINS5_6StringEEERKNS5_20PropertyCallbackInfoINS5_5ValueEEE = comdat any

$_Z12JSPropSetterI9CJS_FieldXadL_ZNS0_22set_multiple_selectionEP11CJS_RuntimeN2v85LocalINS3_5ValueEEEEEEvPKcS8_NS4_INS3_6StringEEES6_RKNS3_20PropertyCallbackInfoIvEE = comdat any

$_Z12JSPropGetterI9CJS_FieldXadL_ZNS0_8get_nameEP11CJS_RuntimeEEEvPKcS4_N2v85LocalINS5_6StringEEERKNS5_20PropertyCallbackInfoINS5_5ValueEEE = comdat any

$_Z12JSPropSetterI9CJS_FieldXadL_ZNS0_8set_nameEP11CJS_RuntimeN2v85LocalINS3_5ValueEEEEEEvPKcS8_NS4_INS3_6StringEEES6_RKNS3_20PropertyCallbackInfoIvEE = comdat any

$_Z12JSPropGetterI9CJS_FieldXadL_ZNS0_13get_num_itemsEP11CJS_RuntimeEEEvPKcS4_N2v85LocalINS5_6StringEEERKNS5_20PropertyCallbackInfoINS5_5ValueEEE = comdat any

$_Z12JSPropSetterI9CJS_FieldXadL_ZNS0_13set_num_itemsEP11CJS_RuntimeN2v85LocalINS3_5ValueEEEEEEvPKcS8_NS4_INS3_6StringEEES6_RKNS3_20PropertyCallbackInfoIvEE = comdat any

$_Z12JSPropGetterI9CJS_FieldXadL_ZNS0_8get_pageEP11CJS_RuntimeEEEvPKcS4_N2v85LocalINS5_6StringEEERKNS5_20PropertyCallbackInfoINS5_5ValueEEE = comdat any

$_Z12JSPropSetterI9CJS_FieldXadL_ZNS0_8set_pageEP11CJS_RuntimeN2v85LocalINS3_5ValueEEEEEEvPKcS8_NS4_INS3_6StringEEES6_RKNS3_20PropertyCallbackInfoIvEE = comdat any

$_Z12JSPropGetterI9CJS_FieldXadL_ZNS0_12get_passwordEP11CJS_RuntimeEEEvPKcS4_N2v85LocalINS5_6StringEEERKNS5_20PropertyCallbackInfoINS5_5ValueEEE = comdat any

$_Z12JSPropSetterI9CJS_FieldXadL_ZNS0_12set_passwordEP11CJS_RuntimeN2v85LocalINS3_5ValueEEEEEEvPKcS8_NS4_INS3_6StringEEES6_RKNS3_20PropertyCallbackInfoIvEE = comdat any

$_Z12JSPropGetterI9CJS_FieldXadL_ZNS0_9get_printEP11CJS_RuntimeEEEvPKcS4_N2v85LocalINS5_6StringEEERKNS5_20PropertyCallbackInfoINS5_5ValueEEE = comdat any

$_Z12JSPropSetterI9CJS_FieldXadL_ZNS0_9set_printEP11CJS_RuntimeN2v85LocalINS3_5ValueEEEEEEvPKcS8_NS4_INS3_6StringEEES6_RKNS3_20PropertyCallbackInfoIvEE = comdat any

$_Z12JSPropGetterI9CJS_FieldXadL_ZNS0_20get_radios_in_unisonEP11CJS_RuntimeEEEvPKcS4_N2v85LocalINS5_6StringEEERKNS5_20PropertyCallbackInfoINS5_5ValueEEE = comdat any

$_Z12JSPropSetterI9CJS_FieldXadL_ZNS0_20set_radios_in_unisonEP11CJS_RuntimeN2v85LocalINS3_5ValueEEEEEEvPKcS8_NS4_INS3_6StringEEES6_RKNS3_20PropertyCallbackInfoIvEE = comdat any

$_Z12JSPropGetterI9CJS_FieldXadL_ZNS0_12get_readonlyEP11CJS_RuntimeEEEvPKcS4_N2v85LocalINS5_6StringEEERKNS5_20PropertyCallbackInfoINS5_5ValueEEE = comdat any

$_Z12JSPropSetterI9CJS_FieldXadL_ZNS0_12set_readonlyEP11CJS_RuntimeN2v85LocalINS3_5ValueEEEEEEvPKcS8_NS4_INS3_6StringEEES6_RKNS3_20PropertyCallbackInfoIvEE = comdat any

$_Z12JSPropGetterI9CJS_FieldXadL_ZNS0_8get_rectEP11CJS_RuntimeEEEvPKcS4_N2v85LocalINS5_6StringEEERKNS5_20PropertyCallbackInfoINS5_5ValueEEE = comdat any

$_Z12JSPropSetterI9CJS_FieldXadL_ZNS0_8set_rectEP11CJS_RuntimeN2v85LocalINS3_5ValueEEEEEEvPKcS8_NS4_INS3_6StringEEES6_RKNS3_20PropertyCallbackInfoIvEE = comdat any

$_Z12JSPropGetterI9CJS_FieldXadL_ZNS0_12get_requiredEP11CJS_RuntimeEEEvPKcS4_N2v85LocalINS5_6StringEEERKNS5_20PropertyCallbackInfoINS5_5ValueEEE = comdat any

$_Z12JSPropSetterI9CJS_FieldXadL_ZNS0_12set_requiredEP11CJS_RuntimeN2v85LocalINS3_5ValueEEEEEEvPKcS8_NS4_INS3_6StringEEES6_RKNS3_20PropertyCallbackInfoIvEE = comdat any

$_Z12JSPropGetterI9CJS_FieldXadL_ZNS0_13get_rich_textEP11CJS_RuntimeEEEvPKcS4_N2v85LocalINS5_6StringEEERKNS5_20PropertyCallbackInfoINS5_5ValueEEE = comdat any

$_Z12JSPropSetterI9CJS_FieldXadL_ZNS0_13set_rich_textEP11CJS_RuntimeN2v85LocalINS3_5ValueEEEEEEvPKcS8_NS4_INS3_6StringEEES6_RKNS3_20PropertyCallbackInfoIvEE = comdat any

$_Z12JSPropGetterI9CJS_FieldXadL_ZNS0_14get_rich_valueEP11CJS_RuntimeEEEvPKcS4_N2v85LocalINS5_6StringEEERKNS5_20PropertyCallbackInfoINS5_5ValueEEE = comdat any

$_Z12JSPropSetterI9CJS_FieldXadL_ZNS0_14set_rich_valueEP11CJS_RuntimeN2v85LocalINS3_5ValueEEEEEEvPKcS8_NS4_INS3_6StringEEES6_RKNS3_20PropertyCallbackInfoIvEE = comdat any

$_Z12JSPropGetterI9CJS_FieldXadL_ZNS0_12get_rotationEP11CJS_RuntimeEEEvPKcS4_N2v85LocalINS5_6StringEEERKNS5_20PropertyCallbackInfoINS5_5ValueEEE = comdat any

$_Z12JSPropSetterI9CJS_FieldXadL_ZNS0_12set_rotationEP11CJS_RuntimeN2v85LocalINS3_5ValueEEEEEEvPKcS8_NS4_INS3_6StringEEES6_RKNS3_20PropertyCallbackInfoIvEE = comdat any

$_Z12JSPropGetterI9CJS_FieldXadL_ZNS0_10get_sourceEP11CJS_RuntimeEEEvPKcS4_N2v85LocalINS5_6StringEEERKNS5_20PropertyCallbackInfoINS5_5ValueEEE = comdat any

$_Z12JSPropSetterI9CJS_FieldXadL_ZNS0_10set_sourceEP11CJS_RuntimeN2v85LocalINS3_5ValueEEEEEEvPKcS8_NS4_INS3_6StringEEES6_RKNS3_20PropertyCallbackInfoIvEE = comdat any

$_Z12JSPropGetterI9CJS_FieldXadL_ZNS0_16get_stroke_colorEP11CJS_RuntimeEEEvPKcS4_N2v85LocalINS5_6StringEEERKNS5_20PropertyCallbackInfoINS5_5ValueEEE = comdat any

$_Z12JSPropSetterI9CJS_FieldXadL_ZNS0_16set_stroke_colorEP11CJS_RuntimeN2v85LocalINS3_5ValueEEEEEEvPKcS8_NS4_INS3_6StringEEES6_RKNS3_20PropertyCallbackInfoIvEE = comdat any

$_Z12JSPropGetterI9CJS_FieldXadL_ZNS0_9get_styleEP11CJS_RuntimeEEEvPKcS4_N2v85LocalINS5_6StringEEERKNS5_20PropertyCallbackInfoINS5_5ValueEEE = comdat any

$_Z12JSPropSetterI9CJS_FieldXadL_ZNS0_9set_styleEP11CJS_RuntimeN2v85LocalINS3_5ValueEEEEEEvPKcS8_NS4_INS3_6StringEEES6_RKNS3_20PropertyCallbackInfoIvEE = comdat any

$_Z12JSPropGetterI9CJS_FieldXadL_ZNS0_15get_submit_nameEP11CJS_RuntimeEEEvPKcS4_N2v85LocalINS5_6StringEEERKNS5_20PropertyCallbackInfoINS5_5ValueEEE = comdat any

$_Z12JSPropSetterI9CJS_FieldXadL_ZNS0_15set_submit_nameEP11CJS_RuntimeN2v85LocalINS3_5ValueEEEEEEvPKcS8_NS4_INS3_6StringEEES6_RKNS3_20PropertyCallbackInfoIvEE = comdat any

$_Z12JSPropGetterI9CJS_FieldXadL_ZNS0_14get_text_colorEP11CJS_RuntimeEEEvPKcS4_N2v85LocalINS5_6StringEEERKNS5_20PropertyCallbackInfoINS5_5ValueEEE = comdat any

$_Z12JSPropSetterI9CJS_FieldXadL_ZNS0_14set_text_colorEP11CJS_RuntimeN2v85LocalINS3_5ValueEEEEEEvPKcS8_NS4_INS3_6StringEEES6_RKNS3_20PropertyCallbackInfoIvEE = comdat any

$_Z12JSPropGetterI9CJS_FieldXadL_ZNS0_13get_text_fontEP11CJS_RuntimeEEEvPKcS4_N2v85LocalINS5_6StringEEERKNS5_20PropertyCallbackInfoINS5_5ValueEEE = comdat any

$_Z12JSPropSetterI9CJS_FieldXadL_ZNS0_13set_text_fontEP11CJS_RuntimeN2v85LocalINS3_5ValueEEEEEEvPKcS8_NS4_INS3_6StringEEES6_RKNS3_20PropertyCallbackInfoIvEE = comdat any

$_Z12JSPropGetterI9CJS_FieldXadL_ZNS0_13get_text_sizeEP11CJS_RuntimeEEEvPKcS4_N2v85LocalINS5_6StringEEERKNS5_20PropertyCallbackInfoINS5_5ValueEEE = comdat any

$_Z12JSPropSetterI9CJS_FieldXadL_ZNS0_13set_text_sizeEP11CJS_RuntimeN2v85LocalINS3_5ValueEEEEEEvPKcS8_NS4_INS3_6StringEEES6_RKNS3_20PropertyCallbackInfoIvEE = comdat any

$_Z12JSPropGetterI9CJS_FieldXadL_ZNS0_8get_typeEP11CJS_RuntimeEEEvPKcS4_N2v85LocalINS5_6StringEEERKNS5_20PropertyCallbackInfoINS5_5ValueEEE = comdat any

$_Z12JSPropSetterI9CJS_FieldXadL_ZNS0_8set_typeEP11CJS_RuntimeN2v85LocalINS3_5ValueEEEEEEvPKcS8_NS4_INS3_6StringEEES6_RKNS3_20PropertyCallbackInfoIvEE = comdat any

$_Z12JSPropGetterI9CJS_FieldXadL_ZNS0_13get_user_nameEP11CJS_RuntimeEEEvPKcS4_N2v85LocalINS5_6StringEEERKNS5_20PropertyCallbackInfoINS5_5ValueEEE = comdat any

$_Z12JSPropSetterI9CJS_FieldXadL_ZNS0_13set_user_nameEP11CJS_RuntimeN2v85LocalINS3_5ValueEEEEEEvPKcS8_NS4_INS3_6StringEEES6_RKNS3_20PropertyCallbackInfoIvEE = comdat any

$_Z12JSPropGetterI9CJS_FieldXadL_ZNS0_9get_valueEP11CJS_RuntimeEEEvPKcS4_N2v85LocalINS5_6StringEEERKNS5_20PropertyCallbackInfoINS5_5ValueEEE = comdat any

$_Z12JSPropSetterI9CJS_FieldXadL_ZNS0_9set_valueEP11CJS_RuntimeN2v85LocalINS3_5ValueEEEEEEvPKcS8_NS4_INS3_6StringEEES6_RKNS3_20PropertyCallbackInfoIvEE = comdat any

$_Z12JSPropGetterI9CJS_FieldXadL_ZNS0_19get_value_as_stringEP11CJS_RuntimeEEEvPKcS4_N2v85LocalINS5_6StringEEERKNS5_20PropertyCallbackInfoINS5_5ValueEEE = comdat any

$_Z12JSPropSetterI9CJS_FieldXadL_ZNS0_19set_value_as_stringEP11CJS_RuntimeN2v85LocalINS3_5ValueEEEEEEvPKcS8_NS4_INS3_6StringEEES6_RKNS3_20PropertyCallbackInfoIvEE = comdat any

$_Z8JSMethodI9CJS_FieldXadL_ZNS0_21browseForFileToSubmitEP11CJS_RuntimeRKNSt3__16vectorIN2v85LocalINS5_5ValueEEENS3_9allocatorIS8_EEEEEEEvPKcSF_RKNS5_20FunctionCallbackInfoIS7_EE = comdat any

$_Z8JSMethodI9CJS_FieldXadL_ZNS0_16buttonGetCaptionEP11CJS_RuntimeRKNSt3__16vectorIN2v85LocalINS5_5ValueEEENS3_9allocatorIS8_EEEEEEEvPKcSF_RKNS5_20FunctionCallbackInfoIS7_EE = comdat any

$_Z8JSMethodI9CJS_FieldXadL_ZNS0_13buttonGetIconEP11CJS_RuntimeRKNSt3__16vectorIN2v85LocalINS5_5ValueEEENS3_9allocatorIS8_EEEEEEEvPKcSF_RKNS5_20FunctionCallbackInfoIS7_EE = comdat any

$_Z8JSMethodI9CJS_FieldXadL_ZNS0_16buttonImportIconEP11CJS_RuntimeRKNSt3__16vectorIN2v85LocalINS5_5ValueEEENS3_9allocatorIS8_EEEEEEEvPKcSF_RKNS5_20FunctionCallbackInfoIS7_EE = comdat any

$_Z8JSMethodI9CJS_FieldXadL_ZNS0_16buttonSetCaptionEP11CJS_RuntimeRKNSt3__16vectorIN2v85LocalINS5_5ValueEEENS3_9allocatorIS8_EEEEEEEvPKcSF_RKNS5_20FunctionCallbackInfoIS7_EE = comdat any

$_Z8JSMethodI9CJS_FieldXadL_ZNS0_13buttonSetIconEP11CJS_RuntimeRKNSt3__16vectorIN2v85LocalINS5_5ValueEEENS3_9allocatorIS8_EEEEEEEvPKcSF_RKNS5_20FunctionCallbackInfoIS7_EE = comdat any

$_Z8JSMethodI9CJS_FieldXadL_ZNS0_12checkThisBoxEP11CJS_RuntimeRKNSt3__16vectorIN2v85LocalINS5_5ValueEEENS3_9allocatorIS8_EEEEEEEvPKcSF_RKNS5_20FunctionCallbackInfoIS7_EE = comdat any

$_Z8JSMethodI9CJS_FieldXadL_ZNS0_10clearItemsEP11CJS_RuntimeRKNSt3__16vectorIN2v85LocalINS5_5ValueEEENS3_9allocatorIS8_EEEEEEEvPKcSF_RKNS5_20FunctionCallbackInfoIS7_EE = comdat any

$_Z8JSMethodI9CJS_FieldXadL_ZNS0_16defaultIsCheckedEP11CJS_RuntimeRKNSt3__16vectorIN2v85LocalINS5_5ValueEEENS3_9allocatorIS8_EEEEEEEvPKcSF_RKNS5_20FunctionCallbackInfoIS7_EE = comdat any

$_Z8JSMethodI9CJS_FieldXadL_ZNS0_12deleteItemAtEP11CJS_RuntimeRKNSt3__16vectorIN2v85LocalINS5_5ValueEEENS3_9allocatorIS8_EEEEEEEvPKcSF_RKNS5_20FunctionCallbackInfoIS7_EE = comdat any

$_Z8JSMethodI9CJS_FieldXadL_ZNS0_8getArrayEP11CJS_RuntimeRKNSt3__16vectorIN2v85LocalINS5_5ValueEEENS3_9allocatorIS8_EEEEEEEvPKcSF_RKNS5_20FunctionCallbackInfoIS7_EE = comdat any

$_Z8JSMethodI9CJS_FieldXadL_ZNS0_9getItemAtEP11CJS_RuntimeRKNSt3__16vectorIN2v85LocalINS5_5ValueEEENS3_9allocatorIS8_EEEEEEEvPKcSF_RKNS5_20FunctionCallbackInfoIS7_EE = comdat any

$_Z8JSMethodI9CJS_FieldXadL_ZNS0_7getLockEP11CJS_RuntimeRKNSt3__16vectorIN2v85LocalINS5_5ValueEEENS3_9allocatorIS8_EEEEEEEvPKcSF_RKNS5_20FunctionCallbackInfoIS7_EE = comdat any

$_Z8JSMethodI9CJS_FieldXadL_ZNS0_12insertItemAtEP11CJS_RuntimeRKNSt3__16vectorIN2v85LocalINS5_5ValueEEENS3_9allocatorIS8_EEEEEEEvPKcSF_RKNS5_20FunctionCallbackInfoIS7_EE = comdat any

$_Z8JSMethodI9CJS_FieldXadL_ZNS0_12isBoxCheckedEP11CJS_RuntimeRKNSt3__16vectorIN2v85LocalINS5_5ValueEEENS3_9allocatorIS8_EEEEEEEvPKcSF_RKNS5_20FunctionCallbackInfoIS7_EE = comdat any

$_Z8JSMethodI9CJS_FieldXadL_ZNS0_16isDefaultCheckedEP11CJS_RuntimeRKNSt3__16vectorIN2v85LocalINS5_5ValueEEENS3_9allocatorIS8_EEEEEEEvPKcSF_RKNS5_20FunctionCallbackInfoIS7_EE = comdat any

$_Z8JSMethodI9CJS_FieldXadL_ZNS0_9setActionEP11CJS_RuntimeRKNSt3__16vectorIN2v85LocalINS5_5ValueEEENS3_9allocatorIS8_EEEEEEEvPKcSF_RKNS5_20FunctionCallbackInfoIS7_EE = comdat any

$_Z8JSMethodI9CJS_FieldXadL_ZNS0_8setFocusEP11CJS_RuntimeRKNSt3__16vectorIN2v85LocalINS5_5ValueEEENS3_9allocatorIS8_EEEEEEEvPKcSF_RKNS5_20FunctionCallbackInfoIS7_EE = comdat any

$_Z8JSMethodI9CJS_FieldXadL_ZNS0_8setItemsEP11CJS_RuntimeRKNSt3__16vectorIN2v85LocalINS5_5ValueEEENS3_9allocatorIS8_EEEEEEEvPKcSF_RKNS5_20FunctionCallbackInfoIS7_EE = comdat any

$_Z8JSMethodI9CJS_FieldXadL_ZNS0_7setLockEP11CJS_RuntimeRKNSt3__16vectorIN2v85LocalINS5_5ValueEEENS3_9allocatorIS8_EEEEEEEvPKcSF_RKNS5_20FunctionCallbackInfoIS7_EE = comdat any

$_Z8JSMethodI9CJS_FieldXadL_ZNS0_25signatureGetModificationsEP11CJS_RuntimeRKNSt3__16vectorIN2v85LocalINS5_5ValueEEENS3_9allocatorIS8_EEEEEEEvPKcSF_RKNS5_20FunctionCallbackInfoIS7_EE = comdat any

$_Z8JSMethodI9CJS_FieldXadL_ZNS0_21signatureGetSeedValueEP11CJS_RuntimeRKNSt3__16vectorIN2v85LocalINS5_5ValueEEENS3_9allocatorIS8_EEEEEEEvPKcSF_RKNS5_20FunctionCallbackInfoIS7_EE = comdat any

$_Z8JSMethodI9CJS_FieldXadL_ZNS0_13signatureInfoEP11CJS_RuntimeRKNSt3__16vectorIN2v85LocalINS5_5ValueEEENS3_9allocatorIS8_EEEEEEEvPKcSF_RKNS5_20FunctionCallbackInfoIS7_EE = comdat any

$_Z8JSMethodI9CJS_FieldXadL_ZNS0_21signatureSetSeedValueEP11CJS_RuntimeRKNSt3__16vectorIN2v85LocalINS5_5ValueEEENS3_9allocatorIS8_EEEEEEEvPKcSF_RKNS5_20FunctionCallbackInfoIS7_EE = comdat any

$_Z8JSMethodI9CJS_FieldXadL_ZNS0_13signatureSignEP11CJS_RuntimeRKNSt3__16vectorIN2v85LocalINS5_5ValueEEENS3_9allocatorIS8_EEEEEEEvPKcSF_RKNS5_20FunctionCallbackInfoIS7_EE = comdat any

$_Z8JSMethodI9CJS_FieldXadL_ZNS0_17signatureValidateEP11CJS_RuntimeRKNSt3__16vectorIN2v85LocalINS5_5ValueEEENS3_9allocatorIS8_EEEEEEEvPKcSF_RKNS5_20FunctionCallbackInfoIS7_EE = comdat any

$_ZN5fxcrt11ObservedPtrI12CJS_DocumentED0Ev = comdat any

$_ZN5fxcrt11ObservedPtrI12CJS_DocumentE21OnObservableDestroyedEv = comdat any

$_ZN5fxcrt11ObservedPtrI27CPDFSDK_FormFillEnvironmentED0Ev = comdat any

$_ZN5fxcrt11ObservedPtrI27CPDFSDK_FormFillEnvironmentE21OnObservableDestroyedEv = comdat any

$_ZN5fxcrt11ObservedPtrI14CPDFSDK_WidgetED2Ev = comdat any

$_ZN5fxcrt11ObservedPtrI14CPDFSDK_WidgetED0Ev = comdat any

$_ZN5fxcrt11ObservedPtrI14CPDFSDK_WidgetE21OnObservableDestroyedEv = comdat any

$_ZNSt3__110__function16__policy_invokerIFvP12CFXJS_EngineN2v85LocalINS4_6ObjectEEEEE11__call_implINS0_20__default_alloc_funcIPS8_S8_EEEEvPKNS0_16__policy_storageES3_OS7_ = comdat any

$_ZNSt3__110__function16__policy_invokerIFvN2v85LocalINS2_6ObjectEEEEE11__call_implINS0_20__default_alloc_funcIPS6_S6_EEEEvPKNS0_16__policy_storageEOS5_ = comdat any

$_ZNSt3__16vectorIN5fxcrt10WideStringENS_9allocatorIS2_EEE21__push_back_slow_pathIS2_EEvOT_ = comdat any

$_ZNSt3__16vectorINS_10unique_ptrIN5fxcrt10WideStringENS_14default_deleteIS3_EEEENS_9allocatorIS6_EEE21__push_back_slow_pathIS6_EEvOT_ = comdat any

$_ZN5fxcrt11ObservedPtrI13CPDFSDK_AnnotED0Ev = comdat any

$_ZN5fxcrt11ObservedPtrI13CPDFSDK_AnnotE21OnObservableDestroyedEv = comdat any

$_ZNSt3__16vectorIjNS_9allocatorIjEEE6assignIPjEENS_9enable_ifIXaasr27__is_cpp17_forward_iteratorIT_EE5valuesr16is_constructibleIjNS_15iterator_traitsIS7_E9referenceEEE5valueEvE4typeES7_S7_ = comdat any

$_ZNSt3__16vectorIN5fxcrt10WideStringENS_9allocatorIS2_EEE6assignIPS2_EENS_9enable_ifIXaasr27__is_cpp17_forward_iteratorIT_EE5valuesr16is_constructibleIS2_NS_15iterator_traitsIS9_E9referenceEEE5valueEvE4typeES9_S9_ = comdat any

$_ZTVN5fxcrt11ObservedPtrI12CJS_DocumentEE = comdat any

$_ZTVN5fxcrt11ObservedPtrI27CPDFSDK_FormFillEnvironmentEE = comdat any

$_ZTVN5fxcrt11ObservedPtrI14CPDFSDK_WidgetEE = comdat any

$_ZZNSt3__110__function8__policy15__choose_policyINS0_20__default_alloc_funcIPFvP12CFXJS_EngineN2v85LocalINS6_6ObjectEEEESA_EEEEPKS1_NS_17integral_constantIbLb1EEEE9__policy_ = comdat any

$_ZZNSt3__110__function8__policy15__choose_policyINS0_20__default_alloc_funcIPFvN2v85LocalINS4_6ObjectEEEES8_EEEEPKS1_NS_17integral_constantIbLb1EEEE9__policy_ = comdat any

$_ZTVN5fxcrt11ObservedPtrI13CPDFSDK_AnnotEE = comdat any

@.str = private unnamed_addr constant [10 x i8] c"alignment\00", align 1
@.str.1 = private unnamed_addr constant [12 x i8] c"borderStyle\00", align 1
@.str.2 = private unnamed_addr constant [13 x i8] c"buttonAlignX\00", align 1
@.str.3 = private unnamed_addr constant [13 x i8] c"buttonAlignY\00", align 1
@.str.4 = private unnamed_addr constant [16 x i8] c"buttonFitBounds\00", align 1
@.str.5 = private unnamed_addr constant [15 x i8] c"buttonPosition\00", align 1
@.str.6 = private unnamed_addr constant [15 x i8] c"buttonScaleHow\00", align 1
@.str.7 = private unnamed_addr constant [16 x i8] c"buttonScaleWhen\00", align 1
@.str.8 = private unnamed_addr constant [15 x i8] c"calcOrderIndex\00", align 1
@.str.9 = private unnamed_addr constant [10 x i8] c"charLimit\00", align 1
@.str.10 = private unnamed_addr constant [5 x i8] c"comb\00", align 1
@.str.11 = private unnamed_addr constant [18 x i8] c"commitOnSelChange\00", align 1
@.str.12 = private unnamed_addr constant [20 x i8] c"currentValueIndices\00", align 1
@.str.13 = private unnamed_addr constant [13 x i8] c"defaultStyle\00", align 1
@.str.14 = private unnamed_addr constant [13 x i8] c"defaultValue\00", align 1
@.str.15 = private unnamed_addr constant [12 x i8] c"doNotScroll\00", align 1
@.str.16 = private unnamed_addr constant [16 x i8] c"doNotSpellCheck\00", align 1
@.str.17 = private unnamed_addr constant [6 x i8] c"delay\00", align 1
@.str.18 = private unnamed_addr constant [8 x i8] c"display\00", align 1
@.str.19 = private unnamed_addr constant [4 x i8] c"doc\00", align 1
@.str.20 = private unnamed_addr constant [9 x i8] c"editable\00", align 1
@.str.21 = private unnamed_addr constant [13 x i8] c"exportValues\00", align 1
@.str.22 = private unnamed_addr constant [7 x i8] c"hidden\00", align 1
@.str.23 = private unnamed_addr constant [11 x i8] c"fileSelect\00", align 1
@.str.24 = private unnamed_addr constant [10 x i8] c"fillColor\00", align 1
@.str.25 = private unnamed_addr constant [10 x i8] c"lineWidth\00", align 1
@.str.26 = private unnamed_addr constant [10 x i8] c"highlight\00", align 1
@.str.27 = private unnamed_addr constant [10 x i8] c"multiline\00", align 1
@.str.28 = private unnamed_addr constant [18 x i8] c"multipleSelection\00", align 1
@.str.29 = private unnamed_addr constant [5 x i8] c"name\00", align 1
@.str.30 = private unnamed_addr constant [9 x i8] c"numItems\00", align 1
@.str.31 = private unnamed_addr constant [5 x i8] c"page\00", align 1
@.str.32 = private unnamed_addr constant [9 x i8] c"password\00", align 1
@.str.33 = private unnamed_addr constant [6 x i8] c"print\00", align 1
@.str.34 = private unnamed_addr constant [15 x i8] c"radiosInUnison\00", align 1
@.str.35 = private unnamed_addr constant [9 x i8] c"readonly\00", align 1
@.str.36 = private unnamed_addr constant [5 x i8] c"rect\00", align 1
@.str.37 = private unnamed_addr constant [9 x i8] c"required\00", align 1
@.str.38 = private unnamed_addr constant [9 x i8] c"richText\00", align 1
@.str.39 = private unnamed_addr constant [10 x i8] c"richValue\00", align 1
@.str.40 = private unnamed_addr constant [9 x i8] c"rotation\00", align 1
@.str.41 = private unnamed_addr constant [7 x i8] c"source\00", align 1
@.str.42 = private unnamed_addr constant [12 x i8] c"strokeColor\00", align 1
@.str.43 = private unnamed_addr constant [6 x i8] c"style\00", align 1
@.str.44 = private unnamed_addr constant [11 x i8] c"submitName\00", align 1
@.str.45 = private unnamed_addr constant [10 x i8] c"textColor\00", align 1
@.str.46 = private unnamed_addr constant [9 x i8] c"textFont\00", align 1
@.str.47 = private unnamed_addr constant [9 x i8] c"textSize\00", align 1
@.str.48 = private unnamed_addr constant [5 x i8] c"type\00", align 1
@.str.49 = private unnamed_addr constant [9 x i8] c"userName\00", align 1
@.str.50 = private unnamed_addr constant [6 x i8] c"value\00", align 1
@.str.51 = private unnamed_addr constant [14 x i8] c"valueAsString\00", align 1
@_ZN9CJS_Field13PropertySpecsE = hidden constant [52 x %struct.JSPropertySpec] [%struct.JSPropertySpec { i8* getelementptr inbounds ([10 x i8], [10 x i8]* @.str, i32 0, i32 0), void (%"class.v8::String"*, %"class.v8::PropertyCallbackInfo"*)* @_ZN9CJS_Field20get_alignment_staticEN2v85LocalINS0_6StringEEERKNS0_20PropertyCallbackInfoINS0_5ValueEEE, void (%"class.v8::String"*, %"class.v8::Value"*, %"class.v8::PropertyCallbackInfo.1"*)* @_ZN9CJS_Field20set_alignment_staticEN2v85LocalINS0_6StringEEENS1_INS0_5ValueEEERKNS0_20PropertyCallbackInfoIvEE }, %struct.JSPropertySpec { i8* getelementptr inbounds ([12 x i8], [12 x i8]* @.str.1, i32 0, i32 0), void (%"class.v8::String"*, %"class.v8::PropertyCallbackInfo"*)* @_ZN9CJS_Field23get_border_style_staticEN2v85LocalINS0_6StringEEERKNS0_20PropertyCallbackInfoINS0_5ValueEEE, void (%"class.v8::String"*, %"class.v8::Value"*, %"class.v8::PropertyCallbackInfo.1"*)* @_ZN9CJS_Field23set_border_style_staticEN2v85LocalINS0_6StringEEENS1_INS0_5ValueEEERKNS0_20PropertyCallbackInfoIvEE }, %struct.JSPropertySpec { i8* getelementptr inbounds ([13 x i8], [13 x i8]* @.str.2, i32 0, i32 0), void (%"class.v8::String"*, %"class.v8::PropertyCallbackInfo"*)* @_ZN9CJS_Field25get_button_align_x_staticEN2v85LocalINS0_6StringEEERKNS0_20PropertyCallbackInfoINS0_5ValueEEE, void (%"class.v8::String"*, %"class.v8::Value"*, %"class.v8::PropertyCallbackInfo.1"*)* @_ZN9CJS_Field25set_button_align_x_staticEN2v85LocalINS0_6StringEEENS1_INS0_5ValueEEERKNS0_20PropertyCallbackInfoIvEE }, %struct.JSPropertySpec { i8* getelementptr inbounds ([13 x i8], [13 x i8]* @.str.3, i32 0, i32 0), void (%"class.v8::String"*, %"class.v8::PropertyCallbackInfo"*)* @_ZN9CJS_Field25get_button_align_y_staticEN2v85LocalINS0_6StringEEERKNS0_20PropertyCallbackInfoINS0_5ValueEEE, void (%"class.v8::String"*, %"class.v8::Value"*, %"class.v8::PropertyCallbackInfo.1"*)* @_ZN9CJS_Field25set_button_align_y_staticEN2v85LocalINS0_6StringEEENS1_INS0_5ValueEEERKNS0_20PropertyCallbackInfoIvEE }, %struct.JSPropertySpec { i8* getelementptr inbounds ([16 x i8], [16 x i8]* @.str.4, i32 0, i32 0), void (%"class.v8::String"*, %"class.v8::PropertyCallbackInfo"*)* @_ZN9CJS_Field28get_button_fit_bounds_staticEN2v85LocalINS0_6StringEEERKNS0_20PropertyCallbackInfoINS0_5ValueEEE, void (%"class.v8::String"*, %"class.v8::Value"*, %"class.v8::PropertyCallbackInfo.1"*)* @_ZN9CJS_Field28set_button_fit_bounds_staticEN2v85LocalINS0_6StringEEENS1_INS0_5ValueEEERKNS0_20PropertyCallbackInfoIvEE }, %struct.JSPropertySpec { i8* getelementptr inbounds ([15 x i8], [15 x i8]* @.str.5, i32 0, i32 0), void (%"class.v8::String"*, %"class.v8::PropertyCallbackInfo"*)* @_ZN9CJS_Field26get_button_position_staticEN2v85LocalINS0_6StringEEERKNS0_20PropertyCallbackInfoINS0_5ValueEEE, void (%"class.v8::String"*, %"class.v8::Value"*, %"class.v8::PropertyCallbackInfo.1"*)* @_ZN9CJS_Field26set_button_position_staticEN2v85LocalINS0_6StringEEENS1_INS0_5ValueEEERKNS0_20PropertyCallbackInfoIvEE }, %struct.JSPropertySpec { i8* getelementptr inbounds ([15 x i8], [15 x i8]* @.str.6, i32 0, i32 0), void (%"class.v8::String"*, %"class.v8::PropertyCallbackInfo"*)* @_ZN9CJS_Field27get_button_scale_how_staticEN2v85LocalINS0_6StringEEERKNS0_20PropertyCallbackInfoINS0_5ValueEEE, void (%"class.v8::String"*, %"class.v8::Value"*, %"class.v8::PropertyCallbackInfo.1"*)* @_ZN9CJS_Field27set_button_scale_how_staticEN2v85LocalINS0_6StringEEENS1_INS0_5ValueEEERKNS0_20PropertyCallbackInfoIvEE }, %struct.JSPropertySpec { i8* getelementptr inbounds ([16 x i8], [16 x i8]* @.str.7, i32 0, i32 0), void (%"class.v8::String"*, %"class.v8::PropertyCallbackInfo"*)* @_ZN9CJS_Field28get_button_scale_when_staticEN2v85LocalINS0_6StringEEERKNS0_20PropertyCallbackInfoINS0_5ValueEEE, void (%"class.v8::String"*, %"class.v8::Value"*, %"class.v8::PropertyCallbackInfo.1"*)* @_ZN9CJS_Field28set_button_scale_when_staticEN2v85LocalINS0_6StringEEENS1_INS0_5ValueEEERKNS0_20PropertyCallbackInfoIvEE }, %struct.JSPropertySpec { i8* getelementptr inbounds ([15 x i8], [15 x i8]* @.str.8, i32 0, i32 0), void (%"class.v8::String"*, %"class.v8::PropertyCallbackInfo"*)* @_ZN9CJS_Field27get_calc_order_index_staticEN2v85LocalINS0_6StringEEERKNS0_20PropertyCallbackInfoINS0_5ValueEEE, void (%"class.v8::String"*, %"class.v8::Value"*, %"class.v8::PropertyCallbackInfo.1"*)* @_ZN9CJS_Field27set_calc_order_index_staticEN2v85LocalINS0_6StringEEENS1_INS0_5ValueEEERKNS0_20PropertyCallbackInfoIvEE }, %struct.JSPropertySpec { i8* getelementptr inbounds ([10 x i8], [10 x i8]* @.str.9, i32 0, i32 0), void (%"class.v8::String"*, %"class.v8::PropertyCallbackInfo"*)* @_ZN9CJS_Field21get_char_limit_staticEN2v85LocalINS0_6StringEEERKNS0_20PropertyCallbackInfoINS0_5ValueEEE, void (%"class.v8::String"*, %"class.v8::Value"*, %"class.v8::PropertyCallbackInfo.1"*)* @_ZN9CJS_Field21set_char_limit_staticEN2v85LocalINS0_6StringEEENS1_INS0_5ValueEEERKNS0_20PropertyCallbackInfoIvEE }, %struct.JSPropertySpec { i8* getelementptr inbounds ([5 x i8], [5 x i8]* @.str.10, i32 0, i32 0), void (%"class.v8::String"*, %"class.v8::PropertyCallbackInfo"*)* @_ZN9CJS_Field15get_comb_staticEN2v85LocalINS0_6StringEEERKNS0_20PropertyCallbackInfoINS0_5ValueEEE, void (%"class.v8::String"*, %"class.v8::Value"*, %"class.v8::PropertyCallbackInfo.1"*)* @_ZN9CJS_Field15set_comb_staticEN2v85LocalINS0_6StringEEENS1_INS0_5ValueEEERKNS0_20PropertyCallbackInfoIvEE }, %struct.JSPropertySpec { i8* getelementptr inbounds ([18 x i8], [18 x i8]* @.str.11, i32 0, i32 0), void (%"class.v8::String"*, %"class.v8::PropertyCallbackInfo"*)* @_ZN9CJS_Field31get_commit_on_sel_change_staticEN2v85LocalINS0_6StringEEERKNS0_20PropertyCallbackInfoINS0_5ValueEEE, void (%"class.v8::String"*, %"class.v8::Value"*, %"class.v8::PropertyCallbackInfo.1"*)* @_ZN9CJS_Field31set_commit_on_sel_change_staticEN2v85LocalINS0_6StringEEENS1_INS0_5ValueEEERKNS0_20PropertyCallbackInfoIvEE }, %struct.JSPropertySpec { i8* getelementptr inbounds ([20 x i8], [20 x i8]* @.str.12, i32 0, i32 0), void (%"class.v8::String"*, %"class.v8::PropertyCallbackInfo"*)* @_ZN9CJS_Field32get_current_value_indices_staticEN2v85LocalINS0_6StringEEERKNS0_20PropertyCallbackInfoINS0_5ValueEEE, void (%"class.v8::String"*, %"class.v8::Value"*, %"class.v8::PropertyCallbackInfo.1"*)* @_ZN9CJS_Field32set_current_value_indices_staticEN2v85LocalINS0_6StringEEENS1_INS0_5ValueEEERKNS0_20PropertyCallbackInfoIvEE }, %struct.JSPropertySpec { i8* getelementptr inbounds ([13 x i8], [13 x i8]* @.str.13, i32 0, i32 0), void (%"class.v8::String"*, %"class.v8::PropertyCallbackInfo"*)* @_ZN9CJS_Field24get_default_style_staticEN2v85LocalINS0_6StringEEERKNS0_20PropertyCallbackInfoINS0_5ValueEEE, void (%"class.v8::String"*, %"class.v8::Value"*, %"class.v8::PropertyCallbackInfo.1"*)* @_ZN9CJS_Field24set_default_style_staticEN2v85LocalINS0_6StringEEENS1_INS0_5ValueEEERKNS0_20PropertyCallbackInfoIvEE }, %struct.JSPropertySpec { i8* getelementptr inbounds ([13 x i8], [13 x i8]* @.str.14, i32 0, i32 0), void (%"class.v8::String"*, %"class.v8::PropertyCallbackInfo"*)* @_ZN9CJS_Field24get_default_value_staticEN2v85LocalINS0_6StringEEERKNS0_20PropertyCallbackInfoINS0_5ValueEEE, void (%"class.v8::String"*, %"class.v8::Value"*, %"class.v8::PropertyCallbackInfo.1"*)* @_ZN9CJS_Field24set_default_value_staticEN2v85LocalINS0_6StringEEENS1_INS0_5ValueEEERKNS0_20PropertyCallbackInfoIvEE }, %struct.JSPropertySpec { i8* getelementptr inbounds ([12 x i8], [12 x i8]* @.str.15, i32 0, i32 0), void (%"class.v8::String"*, %"class.v8::PropertyCallbackInfo"*)* @_ZN9CJS_Field24get_do_not_scroll_staticEN2v85LocalINS0_6StringEEERKNS0_20PropertyCallbackInfoINS0_5ValueEEE, void (%"class.v8::String"*, %"class.v8::Value"*, %"class.v8::PropertyCallbackInfo.1"*)* @_ZN9CJS_Field24set_do_not_scroll_staticEN2v85LocalINS0_6StringEEENS1_INS0_5ValueEEERKNS0_20PropertyCallbackInfoIvEE }, %struct.JSPropertySpec { i8* getelementptr inbounds ([16 x i8], [16 x i8]* @.str.16, i32 0, i32 0), void (%"class.v8::String"*, %"class.v8::PropertyCallbackInfo"*)* @_ZN9CJS_Field29get_do_not_spell_check_staticEN2v85LocalINS0_6StringEEERKNS0_20PropertyCallbackInfoINS0_5ValueEEE, void (%"class.v8::String"*, %"class.v8::Value"*, %"class.v8::PropertyCallbackInfo.1"*)* @_ZN9CJS_Field29set_do_not_spell_check_staticEN2v85LocalINS0_6StringEEENS1_INS0_5ValueEEERKNS0_20PropertyCallbackInfoIvEE }, %struct.JSPropertySpec { i8* getelementptr inbounds ([6 x i8], [6 x i8]* @.str.17, i32 0, i32 0), void (%"class.v8::String"*, %"class.v8::PropertyCallbackInfo"*)* @_ZN9CJS_Field16get_delay_staticEN2v85LocalINS0_6StringEEERKNS0_20PropertyCallbackInfoINS0_5ValueEEE, void (%"class.v8::String"*, %"class.v8::Value"*, %"class.v8::PropertyCallbackInfo.1"*)* @_ZN9CJS_Field16set_delay_staticEN2v85LocalINS0_6StringEEENS1_INS0_5ValueEEERKNS0_20PropertyCallbackInfoIvEE }, %struct.JSPropertySpec { i8* getelementptr inbounds ([8 x i8], [8 x i8]* @.str.18, i32 0, i32 0), void (%"class.v8::String"*, %"class.v8::PropertyCallbackInfo"*)* @_ZN9CJS_Field18get_display_staticEN2v85LocalINS0_6StringEEERKNS0_20PropertyCallbackInfoINS0_5ValueEEE, void (%"class.v8::String"*, %"class.v8::Value"*, %"class.v8::PropertyCallbackInfo.1"*)* @_ZN9CJS_Field18set_display_staticEN2v85LocalINS0_6StringEEENS1_INS0_5ValueEEERKNS0_20PropertyCallbackInfoIvEE }, %struct.JSPropertySpec { i8* getelementptr inbounds ([4 x i8], [4 x i8]* @.str.19, i32 0, i32 0), void (%"class.v8::String"*, %"class.v8::PropertyCallbackInfo"*)* @_ZN9CJS_Field14get_doc_staticEN2v85LocalINS0_6StringEEERKNS0_20PropertyCallbackInfoINS0_5ValueEEE, void (%"class.v8::String"*, %"class.v8::Value"*, %"class.v8::PropertyCallbackInfo.1"*)* @_ZN9CJS_Field14set_doc_staticEN2v85LocalINS0_6StringEEENS1_INS0_5ValueEEERKNS0_20PropertyCallbackInfoIvEE }, %struct.JSPropertySpec { i8* getelementptr inbounds ([9 x i8], [9 x i8]* @.str.20, i32 0, i32 0), void (%"class.v8::String"*, %"class.v8::PropertyCallbackInfo"*)* @_ZN9CJS_Field19get_editable_staticEN2v85LocalINS0_6StringEEERKNS0_20PropertyCallbackInfoINS0_5ValueEEE, void (%"class.v8::String"*, %"class.v8::Value"*, %"class.v8::PropertyCallbackInfo.1"*)* @_ZN9CJS_Field19set_editable_staticEN2v85LocalINS0_6StringEEENS1_INS0_5ValueEEERKNS0_20PropertyCallbackInfoIvEE }, %struct.JSPropertySpec { i8* getelementptr inbounds ([13 x i8], [13 x i8]* @.str.21, i32 0, i32 0), void (%"class.v8::String"*, %"class.v8::PropertyCallbackInfo"*)* @_ZN9CJS_Field24get_export_values_staticEN2v85LocalINS0_6StringEEERKNS0_20PropertyCallbackInfoINS0_5ValueEEE, void (%"class.v8::String"*, %"class.v8::Value"*, %"class.v8::PropertyCallbackInfo.1"*)* @_ZN9CJS_Field24set_export_values_staticEN2v85LocalINS0_6StringEEENS1_INS0_5ValueEEERKNS0_20PropertyCallbackInfoIvEE }, %struct.JSPropertySpec { i8* getelementptr inbounds ([7 x i8], [7 x i8]* @.str.22, i32 0, i32 0), void (%"class.v8::String"*, %"class.v8::PropertyCallbackInfo"*)* @_ZN9CJS_Field17get_hidden_staticEN2v85LocalINS0_6StringEEERKNS0_20PropertyCallbackInfoINS0_5ValueEEE, void (%"class.v8::String"*, %"class.v8::Value"*, %"class.v8::PropertyCallbackInfo.1"*)* @_ZN9CJS_Field17set_hidden_staticEN2v85LocalINS0_6StringEEENS1_INS0_5ValueEEERKNS0_20PropertyCallbackInfoIvEE }, %struct.JSPropertySpec { i8* getelementptr inbounds ([11 x i8], [11 x i8]* @.str.23, i32 0, i32 0), void (%"class.v8::String"*, %"class.v8::PropertyCallbackInfo"*)* @_ZN9CJS_Field22get_file_select_staticEN2v85LocalINS0_6StringEEERKNS0_20PropertyCallbackInfoINS0_5ValueEEE, void (%"class.v8::String"*, %"class.v8::Value"*, %"class.v8::PropertyCallbackInfo.1"*)* @_ZN9CJS_Field22set_file_select_staticEN2v85LocalINS0_6StringEEENS1_INS0_5ValueEEERKNS0_20PropertyCallbackInfoIvEE }, %struct.JSPropertySpec { i8* getelementptr inbounds ([10 x i8], [10 x i8]* @.str.24, i32 0, i32 0), void (%"class.v8::String"*, %"class.v8::PropertyCallbackInfo"*)* @_ZN9CJS_Field21get_fill_color_staticEN2v85LocalINS0_6StringEEERKNS0_20PropertyCallbackInfoINS0_5ValueEEE, void (%"class.v8::String"*, %"class.v8::Value"*, %"class.v8::PropertyCallbackInfo.1"*)* @_ZN9CJS_Field21set_fill_color_staticEN2v85LocalINS0_6StringEEENS1_INS0_5ValueEEERKNS0_20PropertyCallbackInfoIvEE }, %struct.JSPropertySpec { i8* getelementptr inbounds ([10 x i8], [10 x i8]* @.str.25, i32 0, i32 0), void (%"class.v8::String"*, %"class.v8::PropertyCallbackInfo"*)* @_ZN9CJS_Field21get_line_width_staticEN2v85LocalINS0_6StringEEERKNS0_20PropertyCallbackInfoINS0_5ValueEEE, void (%"class.v8::String"*, %"class.v8::Value"*, %"class.v8::PropertyCallbackInfo.1"*)* @_ZN9CJS_Field21set_line_width_staticEN2v85LocalINS0_6StringEEENS1_INS0_5ValueEEERKNS0_20PropertyCallbackInfoIvEE }, %struct.JSPropertySpec { i8* getelementptr inbounds ([10 x i8], [10 x i8]* @.str.26, i32 0, i32 0), void (%"class.v8::String"*, %"class.v8::PropertyCallbackInfo"*)* @_ZN9CJS_Field20get_highlight_staticEN2v85LocalINS0_6StringEEERKNS0_20PropertyCallbackInfoINS0_5ValueEEE, void (%"class.v8::String"*, %"class.v8::Value"*, %"class.v8::PropertyCallbackInfo.1"*)* @_ZN9CJS_Field20set_highlight_staticEN2v85LocalINS0_6StringEEENS1_INS0_5ValueEEERKNS0_20PropertyCallbackInfoIvEE }, %struct.JSPropertySpec { i8* getelementptr inbounds ([10 x i8], [10 x i8]* @.str.27, i32 0, i32 0), void (%"class.v8::String"*, %"class.v8::PropertyCallbackInfo"*)* @_ZN9CJS_Field20get_multiline_staticEN2v85LocalINS0_6StringEEERKNS0_20PropertyCallbackInfoINS0_5ValueEEE, void (%"class.v8::String"*, %"class.v8::Value"*, %"class.v8::PropertyCallbackInfo.1"*)* @_ZN9CJS_Field20set_multiline_staticEN2v85LocalINS0_6StringEEENS1_INS0_5ValueEEERKNS0_20PropertyCallbackInfoIvEE }, %struct.JSPropertySpec { i8* getelementptr inbounds ([18 x i8], [18 x i8]* @.str.28, i32 0, i32 0), void (%"class.v8::String"*, %"class.v8::PropertyCallbackInfo"*)* @_ZN9CJS_Field29get_multiple_selection_staticEN2v85LocalINS0_6StringEEERKNS0_20PropertyCallbackInfoINS0_5ValueEEE, void (%"class.v8::String"*, %"class.v8::Value"*, %"class.v8::PropertyCallbackInfo.1"*)* @_ZN9CJS_Field29set_multiple_selection_staticEN2v85LocalINS0_6StringEEENS1_INS0_5ValueEEERKNS0_20PropertyCallbackInfoIvEE }, %struct.JSPropertySpec { i8* getelementptr inbounds ([5 x i8], [5 x i8]* @.str.29, i32 0, i32 0), void (%"class.v8::String"*, %"class.v8::PropertyCallbackInfo"*)* @_ZN9CJS_Field15get_name_staticEN2v85LocalINS0_6StringEEERKNS0_20PropertyCallbackInfoINS0_5ValueEEE, void (%"class.v8::String"*, %"class.v8::Value"*, %"class.v8::PropertyCallbackInfo.1"*)* @_ZN9CJS_Field15set_name_staticEN2v85LocalINS0_6StringEEENS1_INS0_5ValueEEERKNS0_20PropertyCallbackInfoIvEE }, %struct.JSPropertySpec { i8* getelementptr inbounds ([9 x i8], [9 x i8]* @.str.30, i32 0, i32 0), void (%"class.v8::String"*, %"class.v8::PropertyCallbackInfo"*)* @_ZN9CJS_Field20get_num_items_staticEN2v85LocalINS0_6StringEEERKNS0_20PropertyCallbackInfoINS0_5ValueEEE, void (%"class.v8::String"*, %"class.v8::Value"*, %"class.v8::PropertyCallbackInfo.1"*)* @_ZN9CJS_Field20set_num_items_staticEN2v85LocalINS0_6StringEEENS1_INS0_5ValueEEERKNS0_20PropertyCallbackInfoIvEE }, %struct.JSPropertySpec { i8* getelementptr inbounds ([5 x i8], [5 x i8]* @.str.31, i32 0, i32 0), void (%"class.v8::String"*, %"class.v8::PropertyCallbackInfo"*)* @_ZN9CJS_Field15get_page_staticEN2v85LocalINS0_6StringEEERKNS0_20PropertyCallbackInfoINS0_5ValueEEE, void (%"class.v8::String"*, %"class.v8::Value"*, %"class.v8::PropertyCallbackInfo.1"*)* @_ZN9CJS_Field15set_page_staticEN2v85LocalINS0_6StringEEENS1_INS0_5ValueEEERKNS0_20PropertyCallbackInfoIvEE }, %struct.JSPropertySpec { i8* getelementptr inbounds ([9 x i8], [9 x i8]* @.str.32, i32 0, i32 0), void (%"class.v8::String"*, %"class.v8::PropertyCallbackInfo"*)* @_ZN9CJS_Field19get_password_staticEN2v85LocalINS0_6StringEEERKNS0_20PropertyCallbackInfoINS0_5ValueEEE, void (%"class.v8::String"*, %"class.v8::Value"*, %"class.v8::PropertyCallbackInfo.1"*)* @_ZN9CJS_Field19set_password_staticEN2v85LocalINS0_6StringEEENS1_INS0_5ValueEEERKNS0_20PropertyCallbackInfoIvEE }, %struct.JSPropertySpec { i8* getelementptr inbounds ([6 x i8], [6 x i8]* @.str.33, i32 0, i32 0), void (%"class.v8::String"*, %"class.v8::PropertyCallbackInfo"*)* @_ZN9CJS_Field16get_print_staticEN2v85LocalINS0_6StringEEERKNS0_20PropertyCallbackInfoINS0_5ValueEEE, void (%"class.v8::String"*, %"class.v8::Value"*, %"class.v8::PropertyCallbackInfo.1"*)* @_ZN9CJS_Field16set_print_staticEN2v85LocalINS0_6StringEEENS1_INS0_5ValueEEERKNS0_20PropertyCallbackInfoIvEE }, %struct.JSPropertySpec { i8* getelementptr inbounds ([15 x i8], [15 x i8]* @.str.34, i32 0, i32 0), void (%"class.v8::String"*, %"class.v8::PropertyCallbackInfo"*)* @_ZN9CJS_Field27get_radios_in_unison_staticEN2v85LocalINS0_6StringEEERKNS0_20PropertyCallbackInfoINS0_5ValueEEE, void (%"class.v8::String"*, %"class.v8::Value"*, %"class.v8::PropertyCallbackInfo.1"*)* @_ZN9CJS_Field27set_radios_in_unison_staticEN2v85LocalINS0_6StringEEENS1_INS0_5ValueEEERKNS0_20PropertyCallbackInfoIvEE }, %struct.JSPropertySpec { i8* getelementptr inbounds ([9 x i8], [9 x i8]* @.str.35, i32 0, i32 0), void (%"class.v8::String"*, %"class.v8::PropertyCallbackInfo"*)* @_ZN9CJS_Field19get_readonly_staticEN2v85LocalINS0_6StringEEERKNS0_20PropertyCallbackInfoINS0_5ValueEEE, void (%"class.v8::String"*, %"class.v8::Value"*, %"class.v8::PropertyCallbackInfo.1"*)* @_ZN9CJS_Field19set_readonly_staticEN2v85LocalINS0_6StringEEENS1_INS0_5ValueEEERKNS0_20PropertyCallbackInfoIvEE }, %struct.JSPropertySpec { i8* getelementptr inbounds ([5 x i8], [5 x i8]* @.str.36, i32 0, i32 0), void (%"class.v8::String"*, %"class.v8::PropertyCallbackInfo"*)* @_ZN9CJS_Field15get_rect_staticEN2v85LocalINS0_6StringEEERKNS0_20PropertyCallbackInfoINS0_5ValueEEE, void (%"class.v8::String"*, %"class.v8::Value"*, %"class.v8::PropertyCallbackInfo.1"*)* @_ZN9CJS_Field15set_rect_staticEN2v85LocalINS0_6StringEEENS1_INS0_5ValueEEERKNS0_20PropertyCallbackInfoIvEE }, %struct.JSPropertySpec { i8* getelementptr inbounds ([9 x i8], [9 x i8]* @.str.37, i32 0, i32 0), void (%"class.v8::String"*, %"class.v8::PropertyCallbackInfo"*)* @_ZN9CJS_Field19get_required_staticEN2v85LocalINS0_6StringEEERKNS0_20PropertyCallbackInfoINS0_5ValueEEE, void (%"class.v8::String"*, %"class.v8::Value"*, %"class.v8::PropertyCallbackInfo.1"*)* @_ZN9CJS_Field19set_required_staticEN2v85LocalINS0_6StringEEENS1_INS0_5ValueEEERKNS0_20PropertyCallbackInfoIvEE }, %struct.JSPropertySpec { i8* getelementptr inbounds ([9 x i8], [9 x i8]* @.str.38, i32 0, i32 0), void (%"class.v8::String"*, %"class.v8::PropertyCallbackInfo"*)* @_ZN9CJS_Field20get_rich_text_staticEN2v85LocalINS0_6StringEEERKNS0_20PropertyCallbackInfoINS0_5ValueEEE, void (%"class.v8::String"*, %"class.v8::Value"*, %"class.v8::PropertyCallbackInfo.1"*)* @_ZN9CJS_Field20set_rich_text_staticEN2v85LocalINS0_6StringEEENS1_INS0_5ValueEEERKNS0_20PropertyCallbackInfoIvEE }, %struct.JSPropertySpec { i8* getelementptr inbounds ([10 x i8], [10 x i8]* @.str.39, i32 0, i32 0), void (%"class.v8::String"*, %"class.v8::PropertyCallbackInfo"*)* @_ZN9CJS_Field21get_rich_value_staticEN2v85LocalINS0_6StringEEERKNS0_20PropertyCallbackInfoINS0_5ValueEEE, void (%"class.v8::String"*, %"class.v8::Value"*, %"class.v8::PropertyCallbackInfo.1"*)* @_ZN9CJS_Field21set_rich_value_staticEN2v85LocalINS0_6StringEEENS1_INS0_5ValueEEERKNS0_20PropertyCallbackInfoIvEE }, %struct.JSPropertySpec { i8* getelementptr inbounds ([9 x i8], [9 x i8]* @.str.40, i32 0, i32 0), void (%"class.v8::String"*, %"class.v8::PropertyCallbackInfo"*)* @_ZN9CJS_Field19get_rotation_staticEN2v85LocalINS0_6StringEEERKNS0_20PropertyCallbackInfoINS0_5ValueEEE, void (%"class.v8::String"*, %"class.v8::Value"*, %"class.v8::PropertyCallbackInfo.1"*)* @_ZN9CJS_Field19set_rotation_staticEN2v85LocalINS0_6StringEEENS1_INS0_5ValueEEERKNS0_20PropertyCallbackInfoIvEE }, %struct.JSPropertySpec { i8* getelementptr inbounds ([7 x i8], [7 x i8]* @.str.41, i32 0, i32 0), void (%"class.v8::String"*, %"class.v8::PropertyCallbackInfo"*)* @_ZN9CJS_Field17get_source_staticEN2v85LocalINS0_6StringEEERKNS0_20PropertyCallbackInfoINS0_5ValueEEE, void (%"class.v8::String"*, %"class.v8::Value"*, %"class.v8::PropertyCallbackInfo.1"*)* @_ZN9CJS_Field17set_source_staticEN2v85LocalINS0_6StringEEENS1_INS0_5ValueEEERKNS0_20PropertyCallbackInfoIvEE }, %struct.JSPropertySpec { i8* getelementptr inbounds ([12 x i8], [12 x i8]* @.str.42, i32 0, i32 0), void (%"class.v8::String"*, %"class.v8::PropertyCallbackInfo"*)* @_ZN9CJS_Field23get_stroke_color_staticEN2v85LocalINS0_6StringEEERKNS0_20PropertyCallbackInfoINS0_5ValueEEE, void (%"class.v8::String"*, %"class.v8::Value"*, %"class.v8::PropertyCallbackInfo.1"*)* @_ZN9CJS_Field23set_stroke_color_staticEN2v85LocalINS0_6StringEEENS1_INS0_5ValueEEERKNS0_20PropertyCallbackInfoIvEE }, %struct.JSPropertySpec { i8* getelementptr inbounds ([6 x i8], [6 x i8]* @.str.43, i32 0, i32 0), void (%"class.v8::String"*, %"class.v8::PropertyCallbackInfo"*)* @_ZN9CJS_Field16get_style_staticEN2v85LocalINS0_6StringEEERKNS0_20PropertyCallbackInfoINS0_5ValueEEE, void (%"class.v8::String"*, %"class.v8::Value"*, %"class.v8::PropertyCallbackInfo.1"*)* @_ZN9CJS_Field16set_style_staticEN2v85LocalINS0_6StringEEENS1_INS0_5ValueEEERKNS0_20PropertyCallbackInfoIvEE }, %struct.JSPropertySpec { i8* getelementptr inbounds ([11 x i8], [11 x i8]* @.str.44, i32 0, i32 0), void (%"class.v8::String"*, %"class.v8::PropertyCallbackInfo"*)* @_ZN9CJS_Field22get_submit_name_staticEN2v85LocalINS0_6StringEEERKNS0_20PropertyCallbackInfoINS0_5ValueEEE, void (%"class.v8::String"*, %"class.v8::Value"*, %"class.v8::PropertyCallbackInfo.1"*)* @_ZN9CJS_Field22set_submit_name_staticEN2v85LocalINS0_6StringEEENS1_INS0_5ValueEEERKNS0_20PropertyCallbackInfoIvEE }, %struct.JSPropertySpec { i8* getelementptr inbounds ([10 x i8], [10 x i8]* @.str.45, i32 0, i32 0), void (%"class.v8::String"*, %"class.v8::PropertyCallbackInfo"*)* @_ZN9CJS_Field21get_text_color_staticEN2v85LocalINS0_6StringEEERKNS0_20PropertyCallbackInfoINS0_5ValueEEE, void (%"class.v8::String"*, %"class.v8::Value"*, %"class.v8::PropertyCallbackInfo.1"*)* @_ZN9CJS_Field21set_text_color_staticEN2v85LocalINS0_6StringEEENS1_INS0_5ValueEEERKNS0_20PropertyCallbackInfoIvEE }, %struct.JSPropertySpec { i8* getelementptr inbounds ([9 x i8], [9 x i8]* @.str.46, i32 0, i32 0), void (%"class.v8::String"*, %"class.v8::PropertyCallbackInfo"*)* @_ZN9CJS_Field20get_text_font_staticEN2v85LocalINS0_6StringEEERKNS0_20PropertyCallbackInfoINS0_5ValueEEE, void (%"class.v8::String"*, %"class.v8::Value"*, %"class.v8::PropertyCallbackInfo.1"*)* @_ZN9CJS_Field20set_text_font_staticEN2v85LocalINS0_6StringEEENS1_INS0_5ValueEEERKNS0_20PropertyCallbackInfoIvEE }, %struct.JSPropertySpec { i8* getelementptr inbounds ([9 x i8], [9 x i8]* @.str.47, i32 0, i32 0), void (%"class.v8::String"*, %"class.v8::PropertyCallbackInfo"*)* @_ZN9CJS_Field20get_text_size_staticEN2v85LocalINS0_6StringEEERKNS0_20PropertyCallbackInfoINS0_5ValueEEE, void (%"class.v8::String"*, %"class.v8::Value"*, %"class.v8::PropertyCallbackInfo.1"*)* @_ZN9CJS_Field20set_text_size_staticEN2v85LocalINS0_6StringEEENS1_INS0_5ValueEEERKNS0_20PropertyCallbackInfoIvEE }, %struct.JSPropertySpec { i8* getelementptr inbounds ([5 x i8], [5 x i8]* @.str.48, i32 0, i32 0), void (%"class.v8::String"*, %"class.v8::PropertyCallbackInfo"*)* @_ZN9CJS_Field15get_type_staticEN2v85LocalINS0_6StringEEERKNS0_20PropertyCallbackInfoINS0_5ValueEEE, void (%"class.v8::String"*, %"class.v8::Value"*, %"class.v8::PropertyCallbackInfo.1"*)* @_ZN9CJS_Field15set_type_staticEN2v85LocalINS0_6StringEEENS1_INS0_5ValueEEERKNS0_20PropertyCallbackInfoIvEE }, %struct.JSPropertySpec { i8* getelementptr inbounds ([9 x i8], [9 x i8]* @.str.49, i32 0, i32 0), void (%"class.v8::String"*, %"class.v8::PropertyCallbackInfo"*)* @_ZN9CJS_Field20get_user_name_staticEN2v85LocalINS0_6StringEEERKNS0_20PropertyCallbackInfoINS0_5ValueEEE, void (%"class.v8::String"*, %"class.v8::Value"*, %"class.v8::PropertyCallbackInfo.1"*)* @_ZN9CJS_Field20set_user_name_staticEN2v85LocalINS0_6StringEEENS1_INS0_5ValueEEERKNS0_20PropertyCallbackInfoIvEE }, %struct.JSPropertySpec { i8* getelementptr inbounds ([6 x i8], [6 x i8]* @.str.50, i32 0, i32 0), void (%"class.v8::String"*, %"class.v8::PropertyCallbackInfo"*)* @_ZN9CJS_Field16get_value_staticEN2v85LocalINS0_6StringEEERKNS0_20PropertyCallbackInfoINS0_5ValueEEE, void (%"class.v8::String"*, %"class.v8::Value"*, %"class.v8::PropertyCallbackInfo.1"*)* @_ZN9CJS_Field16set_value_staticEN2v85LocalINS0_6StringEEENS1_INS0_5ValueEEERKNS0_20PropertyCallbackInfoIvEE }, %struct.JSPropertySpec { i8* getelementptr inbounds ([14 x i8], [14 x i8]* @.str.51, i32 0, i32 0), void (%"class.v8::String"*, %"class.v8::PropertyCallbackInfo"*)* @_ZN9CJS_Field26get_value_as_string_staticEN2v85LocalINS0_6StringEEERKNS0_20PropertyCallbackInfoINS0_5ValueEEE, void (%"class.v8::String"*, %"class.v8::Value"*, %"class.v8::PropertyCallbackInfo.1"*)* @_ZN9CJS_Field26set_value_as_string_staticEN2v85LocalINS0_6StringEEENS1_INS0_5ValueEEERKNS0_20PropertyCallbackInfoIvEE }], align 16
@.str.52 = private unnamed_addr constant [22 x i8] c"browseForFileToSubmit\00", align 1
@.str.53 = private unnamed_addr constant [17 x i8] c"buttonGetCaption\00", align 1
@.str.54 = private unnamed_addr constant [14 x i8] c"buttonGetIcon\00", align 1
@.str.55 = private unnamed_addr constant [17 x i8] c"buttonImportIcon\00", align 1
@.str.56 = private unnamed_addr constant [17 x i8] c"buttonSetCaption\00", align 1
@.str.57 = private unnamed_addr constant [14 x i8] c"buttonSetIcon\00", align 1
@.str.58 = private unnamed_addr constant [13 x i8] c"checkThisBox\00", align 1
@.str.59 = private unnamed_addr constant [11 x i8] c"clearItems\00", align 1
@.str.60 = private unnamed_addr constant [17 x i8] c"defaultIsChecked\00", align 1
@.str.61 = private unnamed_addr constant [13 x i8] c"deleteItemAt\00", align 1
@.str.62 = private unnamed_addr constant [9 x i8] c"getArray\00", align 1
@.str.63 = private unnamed_addr constant [10 x i8] c"getItemAt\00", align 1
@.str.64 = private unnamed_addr constant [8 x i8] c"getLock\00", align 1
@.str.65 = private unnamed_addr constant [13 x i8] c"insertItemAt\00", align 1
@.str.66 = private unnamed_addr constant [13 x i8] c"isBoxChecked\00", align 1
@.str.67 = private unnamed_addr constant [17 x i8] c"isDefaultChecked\00", align 1
@.str.68 = private unnamed_addr constant [10 x i8] c"setAction\00", align 1
@.str.69 = private unnamed_addr constant [9 x i8] c"setFocus\00", align 1
@.str.70 = private unnamed_addr constant [9 x i8] c"setItems\00", align 1
@.str.71 = private unnamed_addr constant [8 x i8] c"setLock\00", align 1
@.str.72 = private unnamed_addr constant [26 x i8] c"signatureGetModifications\00", align 1
@.str.73 = private unnamed_addr constant [22 x i8] c"signatureGetSeedValue\00", align 1
@.str.74 = private unnamed_addr constant [14 x i8] c"signatureInfo\00", align 1
@.str.75 = private unnamed_addr constant [22 x i8] c"signatureSetSeedValue\00", align 1
@.str.76 = private unnamed_addr constant [14 x i8] c"signatureSign\00", align 1
@.str.77 = private unnamed_addr constant [18 x i8] c"signatureValidate\00", align 1
@_ZN9CJS_Field11MethodSpecsE = hidden constant [26 x %struct.JSMethodSpec] [%struct.JSMethodSpec { i8* getelementptr inbounds ([22 x i8], [22 x i8]* @.str.52, i32 0, i32 0), void (%"class.v8::FunctionCallbackInfo"*)* @_ZN9CJS_Field28browseForFileToSubmit_staticERKN2v820FunctionCallbackInfoINS0_5ValueEEE }, %struct.JSMethodSpec { i8* getelementptr inbounds ([17 x i8], [17 x i8]* @.str.53, i32 0, i32 0), void (%"class.v8::FunctionCallbackInfo"*)* @_ZN9CJS_Field23buttonGetCaption_staticERKN2v820FunctionCallbackInfoINS0_5ValueEEE }, %struct.JSMethodSpec { i8* getelementptr inbounds ([14 x i8], [14 x i8]* @.str.54, i32 0, i32 0), void (%"class.v8::FunctionCallbackInfo"*)* @_ZN9CJS_Field20buttonGetIcon_staticERKN2v820FunctionCallbackInfoINS0_5ValueEEE }, %struct.JSMethodSpec { i8* getelementptr inbounds ([17 x i8], [17 x i8]* @.str.55, i32 0, i32 0), void (%"class.v8::FunctionCallbackInfo"*)* @_ZN9CJS_Field23buttonImportIcon_staticERKN2v820FunctionCallbackInfoINS0_5ValueEEE }, %struct.JSMethodSpec { i8* getelementptr inbounds ([17 x i8], [17 x i8]* @.str.56, i32 0, i32 0), void (%"class.v8::FunctionCallbackInfo"*)* @_ZN9CJS_Field23buttonSetCaption_staticERKN2v820FunctionCallbackInfoINS0_5ValueEEE }, %struct.JSMethodSpec { i8* getelementptr inbounds ([14 x i8], [14 x i8]* @.str.57, i32 0, i32 0), void (%"class.v8::FunctionCallbackInfo"*)* @_ZN9CJS_Field20buttonSetIcon_staticERKN2v820FunctionCallbackInfoINS0_5ValueEEE }, %struct.JSMethodSpec { i8* getelementptr inbounds ([13 x i8], [13 x i8]* @.str.58, i32 0, i32 0), void (%"class.v8::FunctionCallbackInfo"*)* @_ZN9CJS_Field19checkThisBox_staticERKN2v820FunctionCallbackInfoINS0_5ValueEEE }, %struct.JSMethodSpec { i8* getelementptr inbounds ([11 x i8], [11 x i8]* @.str.59, i32 0, i32 0), void (%"class.v8::FunctionCallbackInfo"*)* @_ZN9CJS_Field17clearItems_staticERKN2v820FunctionCallbackInfoINS0_5ValueEEE }, %struct.JSMethodSpec { i8* getelementptr inbounds ([17 x i8], [17 x i8]* @.str.60, i32 0, i32 0), void (%"class.v8::FunctionCallbackInfo"*)* @_ZN9CJS_Field23defaultIsChecked_staticERKN2v820FunctionCallbackInfoINS0_5ValueEEE }, %struct.JSMethodSpec { i8* getelementptr inbounds ([13 x i8], [13 x i8]* @.str.61, i32 0, i32 0), void (%"class.v8::FunctionCallbackInfo"*)* @_ZN9CJS_Field19deleteItemAt_staticERKN2v820FunctionCallbackInfoINS0_5ValueEEE }, %struct.JSMethodSpec { i8* getelementptr inbounds ([9 x i8], [9 x i8]* @.str.62, i32 0, i32 0), void (%"class.v8::FunctionCallbackInfo"*)* @_ZN9CJS_Field15getArray_staticERKN2v820FunctionCallbackInfoINS0_5ValueEEE }, %struct.JSMethodSpec { i8* getelementptr inbounds ([10 x i8], [10 x i8]* @.str.63, i32 0, i32 0), void (%"class.v8::FunctionCallbackInfo"*)* @_ZN9CJS_Field16getItemAt_staticERKN2v820FunctionCallbackInfoINS0_5ValueEEE }, %struct.JSMethodSpec { i8* getelementptr inbounds ([8 x i8], [8 x i8]* @.str.64, i32 0, i32 0), void (%"class.v8::FunctionCallbackInfo"*)* @_ZN9CJS_Field14getLock_staticERKN2v820FunctionCallbackInfoINS0_5ValueEEE }, %struct.JSMethodSpec { i8* getelementptr inbounds ([13 x i8], [13 x i8]* @.str.65, i32 0, i32 0), void (%"class.v8::FunctionCallbackInfo"*)* @_ZN9CJS_Field19insertItemAt_staticERKN2v820FunctionCallbackInfoINS0_5ValueEEE }, %struct.JSMethodSpec { i8* getelementptr inbounds ([13 x i8], [13 x i8]* @.str.66, i32 0, i32 0), void (%"class.v8::FunctionCallbackInfo"*)* @_ZN9CJS_Field19isBoxChecked_staticERKN2v820FunctionCallbackInfoINS0_5ValueEEE }, %struct.JSMethodSpec { i8* getelementptr inbounds ([17 x i8], [17 x i8]* @.str.67, i32 0, i32 0), void (%"class.v8::FunctionCallbackInfo"*)* @_ZN9CJS_Field23isDefaultChecked_staticERKN2v820FunctionCallbackInfoINS0_5ValueEEE }, %struct.JSMethodSpec { i8* getelementptr inbounds ([10 x i8], [10 x i8]* @.str.68, i32 0, i32 0), void (%"class.v8::FunctionCallbackInfo"*)* @_ZN9CJS_Field16setAction_staticERKN2v820FunctionCallbackInfoINS0_5ValueEEE }, %struct.JSMethodSpec { i8* getelementptr inbounds ([9 x i8], [9 x i8]* @.str.69, i32 0, i32 0), void (%"class.v8::FunctionCallbackInfo"*)* @_ZN9CJS_Field15setFocus_staticERKN2v820FunctionCallbackInfoINS0_5ValueEEE }, %struct.JSMethodSpec { i8* getelementptr inbounds ([9 x i8], [9 x i8]* @.str.70, i32 0, i32 0), void (%"class.v8::FunctionCallbackInfo"*)* @_ZN9CJS_Field15setItems_staticERKN2v820FunctionCallbackInfoINS0_5ValueEEE }, %struct.JSMethodSpec { i8* getelementptr inbounds ([8 x i8], [8 x i8]* @.str.71, i32 0, i32 0), void (%"class.v8::FunctionCallbackInfo"*)* @_ZN9CJS_Field14setLock_staticERKN2v820FunctionCallbackInfoINS0_5ValueEEE }, %struct.JSMethodSpec { i8* getelementptr inbounds ([26 x i8], [26 x i8]* @.str.72, i32 0, i32 0), void (%"class.v8::FunctionCallbackInfo"*)* @_ZN9CJS_Field32signatureGetModifications_staticERKN2v820FunctionCallbackInfoINS0_5ValueEEE }, %struct.JSMethodSpec { i8* getelementptr inbounds ([22 x i8], [22 x i8]* @.str.73, i32 0, i32 0), void (%"class.v8::FunctionCallbackInfo"*)* @_ZN9CJS_Field28signatureGetSeedValue_staticERKN2v820FunctionCallbackInfoINS0_5ValueEEE }, %struct.JSMethodSpec { i8* getelementptr inbounds ([14 x i8], [14 x i8]* @.str.74, i32 0, i32 0), void (%"class.v8::FunctionCallbackInfo"*)* @_ZN9CJS_Field20signatureInfo_staticERKN2v820FunctionCallbackInfoINS0_5ValueEEE }, %struct.JSMethodSpec { i8* getelementptr inbounds ([22 x i8], [22 x i8]* @.str.75, i32 0, i32 0), void (%"class.v8::FunctionCallbackInfo"*)* @_ZN9CJS_Field28signatureSetSeedValue_staticERKN2v820FunctionCallbackInfoINS0_5ValueEEE }, %struct.JSMethodSpec { i8* getelementptr inbounds ([14 x i8], [14 x i8]* @.str.76, i32 0, i32 0), void (%"class.v8::FunctionCallbackInfo"*)* @_ZN9CJS_Field20signatureSign_staticERKN2v820FunctionCallbackInfoINS0_5ValueEEE }, %struct.JSMethodSpec { i8* getelementptr inbounds ([18 x i8], [18 x i8]* @.str.77, i32 0, i32 0), void (%"class.v8::FunctionCallbackInfo"*)* @_ZN9CJS_Field24signatureValidate_staticERKN2v820FunctionCallbackInfoINS0_5ValueEEE }], align 16
@_ZN9CJS_Field9ObjDefnIDE = hidden local_unnamed_addr global i32 0, align 4
@_ZN9CJS_Field5kNameE = hidden constant [6 x i8] c"Field\00", align 1
@_ZTV9CJS_Field = hidden unnamed_addr constant { [4 x i8*] } { [4 x i8*] [i8* null, i8* null, i8* bitcast (void (%class.CJS_Field*)* @_ZN9CJS_FieldD2Ev to i8*), i8* bitcast (void (%class.CJS_Field*)* @_ZN9CJS_FieldD0Ev to i8*)] }, align 8
@.str.78 = private unnamed_addr constant [3 x i32] [i32 46, i32 46, i32 0], align 4
@.str.79 = private unnamed_addr constant [2 x i32] [i32 46, i32 0], align 4
@.str.80 = private unnamed_addr constant [5 x i8] c"left\00", align 1
@.str.81 = private unnamed_addr constant [7 x i8] c"center\00", align 1
@.str.82 = private unnamed_addr constant [6 x i8] c"right\00", align 1
@.str.83 = private unnamed_addr constant [1 x i8] zeroinitializer, align 1
@.str.84 = private unnamed_addr constant [6 x i8] c"solid\00", align 1
@.str.85 = private unnamed_addr constant [7 x i8] c"dashed\00", align 1
@.str.86 = private unnamed_addr constant [8 x i8] c"beveled\00", align 1
@.str.87 = private unnamed_addr constant [6 x i8] c"inset\00", align 1
@.str.88 = private unnamed_addr constant [10 x i8] c"underline\00", align 1
@.str.89 = private unnamed_addr constant [5 x i8] c"none\00", align 1
@.str.90 = private unnamed_addr constant [5 x i8] c"push\00", align 1
@.str.91 = private unnamed_addr constant [7 x i8] c"invert\00", align 1
@.str.92 = private unnamed_addr constant [8 x i8] c"outline\00", align 1
@.str.93 = private unnamed_addr constant [7 x i8] c"toggle\00", align 1
@.str.94 = private unnamed_addr constant [7 x i8] c"circle\00", align 1
@.str.95 = private unnamed_addr constant [6 x i8] c"cross\00", align 1
@.str.96 = private unnamed_addr constant [8 x i8] c"diamond\00", align 1
@.str.97 = private unnamed_addr constant [7 x i8] c"square\00", align 1
@.str.98 = private unnamed_addr constant [5 x i8] c"star\00", align 1
@.str.99 = private unnamed_addr constant [6 x i8] c"check\00", align 1
@.str.100 = private unnamed_addr constant [8 x i8] c"unknown\00", align 1
@.str.101 = private unnamed_addr constant [7 x i8] c"button\00", align 1
@.str.102 = private unnamed_addr constant [9 x i8] c"checkbox\00", align 1
@.str.103 = private unnamed_addr constant [12 x i8] c"radiobutton\00", align 1
@.str.104 = private unnamed_addr constant [9 x i8] c"combobox\00", align 1
@.str.105 = private unnamed_addr constant [8 x i8] c"listbox\00", align 1
@.str.106 = private unnamed_addr constant [5 x i8] c"text\00", align 1
@.str.107 = private unnamed_addr constant [10 x i8] c"signature\00", align 1
@.str.108 = private unnamed_addr constant [4 x i8] c"Off\00", align 1
@.str.109 = private unnamed_addr constant [4 x i32] [i32 89, i32 101, i32 115, i32 0], align 4
@.str.110 = private unnamed_addr constant [4 x i32] [i32 79, i32 102, i32 102, i32 0], align 4
@.str.111 = private unnamed_addr constant [16 x i8] c"ButtonScaleWhen\00", align 1
@_ZTVN5fxcrt11ObservedPtrI12CJS_DocumentEE = linkonce_odr hidden unnamed_addr constant { [5 x i8*] } { [5 x i8*] [i8* null, i8* null, i8* bitcast (void (%"class.fxcrt::ObservedPtr.311"*)* @_ZN5fxcrt11ObservedPtrI12CJS_DocumentED2Ev to i8*), i8* bitcast (void (%"class.fxcrt::ObservedPtr.311"*)* @_ZN5fxcrt11ObservedPtrI12CJS_DocumentED0Ev to i8*), i8* bitcast (void (%"class.fxcrt::ObservedPtr.311"*)* @_ZN5fxcrt11ObservedPtrI12CJS_DocumentE21OnObservableDestroyedEv to i8*)] }, comdat, align 8
@_ZTVN5fxcrt11ObservedPtrI27CPDFSDK_FormFillEnvironmentEE = linkonce_odr hidden unnamed_addr constant { [5 x i8*] } { [5 x i8*] [i8* null, i8* null, i8* bitcast (void (%"class.fxcrt::ObservedPtr.39"*)* @_ZN5fxcrt11ObservedPtrI27CPDFSDK_FormFillEnvironmentED2Ev to i8*), i8* bitcast (void (%"class.fxcrt::ObservedPtr.39"*)* @_ZN5fxcrt11ObservedPtrI27CPDFSDK_FormFillEnvironmentED0Ev to i8*), i8* bitcast (void (%"class.fxcrt::ObservedPtr.39"*)* @_ZN5fxcrt11ObservedPtrI27CPDFSDK_FormFillEnvironmentE21OnObservableDestroyedEv to i8*)] }, comdat, align 8
@.str.113 = private unnamed_addr constant [2 x i32] [i32 48, i32 0], align 4
@.str.114 = private unnamed_addr constant [3 x i8] c"BG\00", align 1
@_ZTVN5fxcrt11ObservedPtrI14CPDFSDK_WidgetEE = linkonce_odr hidden unnamed_addr constant { [5 x i8*] } { [5 x i8*] [i8* null, i8* null, i8* bitcast (void (%"class.fxcrt::ObservedPtr.575"*)* @_ZN5fxcrt11ObservedPtrI14CPDFSDK_WidgetED2Ev to i8*), i8* bitcast (void (%"class.fxcrt::ObservedPtr.575"*)* @_ZN5fxcrt11ObservedPtrI14CPDFSDK_WidgetED0Ev to i8*), i8* bitcast (void (%"class.fxcrt::ObservedPtr.575"*)* @_ZN5fxcrt11ObservedPtrI14CPDFSDK_WidgetE21OnObservableDestroyedEv to i8*)] }, comdat, align 8
@.str.115 = private unnamed_addr constant [3 x i8] c"BC\00", align 1
@.str.116 = private unnamed_addr constant [3 x i8] c"CA\00", align 1
@.str.117 = private unnamed_addr constant [1 x i32] zeroinitializer, align 4
@.str.118 = private unnamed_addr constant [3 x i8] c"AC\00", align 1
@.str.119 = private unnamed_addr constant [3 x i8] c"RC\00", align 1
@_ZZNSt3__110__function8__policy15__choose_policyINS0_20__default_alloc_funcIPFvP12CFXJS_EngineN2v85LocalINS6_6ObjectEEEESA_EEEEPKS1_NS_17integral_constantIbLb1EEEE9__policy_ = linkonce_odr hidden constant %"struct.std::__1::__function::__policy" zeroinitializer, comdat, align 8
@_ZZNSt3__110__function8__policy15__choose_policyINS0_20__default_alloc_funcIPFvN2v85LocalINS4_6ObjectEEEES8_EEEEPKS1_NS_17integral_constantIbLb1EEEE9__policy_ = linkonce_odr hidden constant %"struct.std::__1::__function::__policy" zeroinitializer, comdat, align 8
@_ZTVN5fxcrt11ObservedPtrI13CPDFSDK_AnnotEE = linkonce_odr hidden unnamed_addr constant { [5 x i8*] } { [5 x i8*] [i8* null, i8* null, i8* bitcast (void (%"class.fxcrt::ObservedPtr.262"*)* @_ZN5fxcrt11ObservedPtrI13CPDFSDK_AnnotED2Ev to i8*), i8* bitcast (void (%"class.fxcrt::ObservedPtr.262"*)* @_ZN5fxcrt11ObservedPtrI13CPDFSDK_AnnotED0Ev to i8*), i8* bitcast (void (%"class.fxcrt::ObservedPtr.262"*)* @_ZN5fxcrt11ObservedPtrI13CPDFSDK_AnnotE21OnObservableDestroyedEv to i8*)] }, comdat, align 8

@_ZN9CJS_FieldC1EN2v85LocalINS0_6ObjectEEEP11CJS_Runtime = hidden unnamed_addr alias void (%class.CJS_Field*, %"class.v8::Object"*, %class.CJS_Runtime*), void (%class.CJS_Field*, %"class.v8::Object"*, %class.CJS_Runtime*)* @_ZN9CJS_FieldC2EN2v85LocalINS0_6ObjectEEEP11CJS_Runtime
@_ZN9CJS_FieldD1Ev = hidden unnamed_addr alias void (%class.CJS_Field*), void (%class.CJS_Field*)* @_ZN9CJS_FieldD2Ev

; Function Attrs: nounwind ssp uwtable
define linkonce_odr hidden void @_ZN9CJS_Field20get_alignment_staticEN2v85LocalINS0_6StringEEERKNS0_20PropertyCallbackInfoINS0_5ValueEEE(%"class.v8::String"*, %"class.v8::PropertyCallbackInfo"* dereferenceable(8)) #0 comdat align 2 {
  tail call void @_Z12JSPropGetterI9CJS_FieldXadL_ZNS0_13get_alignmentEP11CJS_RuntimeEEEvPKcS4_N2v85LocalINS5_6StringEEERKNS5_20PropertyCallbackInfoINS5_5ValueEEE(i8* getelementptr inbounds ([10 x i8], [10 x i8]* @.str, i64 0, i64 0), i8* getelementptr inbounds ([6 x i8], [6 x i8]* @_ZN9CJS_Field5kNameE, i64 0, i64 0), %"class.v8::String"* %0, %"class.v8::PropertyCallbackInfo"* dereferenceable(8) %1)
  ret void
}

; Function Attrs: nounwind ssp uwtable
define linkonce_odr hidden void @_ZN9CJS_Field20set_alignment_staticEN2v85LocalINS0_6StringEEENS1_INS0_5ValueEEERKNS0_20PropertyCallbackInfoIvEE(%"class.v8::String"*, %"class.v8::Value"*, %"class.v8::PropertyCallbackInfo.1"* dereferenceable(8)) #0 comdat align 2 {
  tail call void @_Z12JSPropSetterI9CJS_FieldXadL_ZNS0_13set_alignmentEP11CJS_RuntimeN2v85LocalINS3_5ValueEEEEEEvPKcS8_NS4_INS3_6StringEEES6_RKNS3_20PropertyCallbackInfoIvEE(i8* getelementptr inbounds ([10 x i8], [10 x i8]* @.str, i64 0, i64 0), i8* getelementptr inbounds ([6 x i8], [6 x i8]* @_ZN9CJS_Field5kNameE, i64 0, i64 0), %"class.v8::String"* %0, %"class.v8::Value"* %1, %"class.v8::PropertyCallbackInfo.1"* dereferenceable(8) %2)
  ret void
}

; Function Attrs: nounwind ssp uwtable
define linkonce_odr hidden void @_ZN9CJS_Field23get_border_style_staticEN2v85LocalINS0_6StringEEERKNS0_20PropertyCallbackInfoINS0_5ValueEEE(%"class.v8::String"*, %"class.v8::PropertyCallbackInfo"* dereferenceable(8)) #0 comdat align 2 {
  tail call void @_Z12JSPropGetterI9CJS_FieldXadL_ZNS0_16get_border_styleEP11CJS_RuntimeEEEvPKcS4_N2v85LocalINS5_6StringEEERKNS5_20PropertyCallbackInfoINS5_5ValueEEE(i8* getelementptr inbounds ([12 x i8], [12 x i8]* @.str.1, i64 0, i64 0), i8* getelementptr inbounds ([6 x i8], [6 x i8]* @_ZN9CJS_Field5kNameE, i64 0, i64 0), %"class.v8::String"* %0, %"class.v8::PropertyCallbackInfo"* dereferenceable(8) %1)
  ret void
}

; Function Attrs: nounwind ssp uwtable
define linkonce_odr hidden void @_ZN9CJS_Field23set_border_style_staticEN2v85LocalINS0_6StringEEENS1_INS0_5ValueEEERKNS0_20PropertyCallbackInfoIvEE(%"class.v8::String"*, %"class.v8::Value"*, %"class.v8::PropertyCallbackInfo.1"* dereferenceable(8)) #0 comdat align 2 {
  tail call void @_Z12JSPropSetterI9CJS_FieldXadL_ZNS0_16set_border_styleEP11CJS_RuntimeN2v85LocalINS3_5ValueEEEEEEvPKcS8_NS4_INS3_6StringEEES6_RKNS3_20PropertyCallbackInfoIvEE(i8* getelementptr inbounds ([12 x i8], [12 x i8]* @.str.1, i64 0, i64 0), i8* getelementptr inbounds ([6 x i8], [6 x i8]* @_ZN9CJS_Field5kNameE, i64 0, i64 0), %"class.v8::String"* %0, %"class.v8::Value"* %1, %"class.v8::PropertyCallbackInfo.1"* dereferenceable(8) %2)
  ret void
}

; Function Attrs: nounwind ssp uwtable
define linkonce_odr hidden void @_ZN9CJS_Field25get_button_align_x_staticEN2v85LocalINS0_6StringEEERKNS0_20PropertyCallbackInfoINS0_5ValueEEE(%"class.v8::String"*, %"class.v8::PropertyCallbackInfo"* dereferenceable(8)) #0 comdat align 2 {
  tail call void @_Z12JSPropGetterI9CJS_FieldXadL_ZNS0_18get_button_align_xEP11CJS_RuntimeEEEvPKcS4_N2v85LocalINS5_6StringEEERKNS5_20PropertyCallbackInfoINS5_5ValueEEE(i8* getelementptr inbounds ([13 x i8], [13 x i8]* @.str.2, i64 0, i64 0), i8* getelementptr inbounds ([6 x i8], [6 x i8]* @_ZN9CJS_Field5kNameE, i64 0, i64 0), %"class.v8::String"* %0, %"class.v8::PropertyCallbackInfo"* dereferenceable(8) %1)
  ret void
}

; Function Attrs: nounwind ssp uwtable
define linkonce_odr hidden void @_ZN9CJS_Field25set_button_align_x_staticEN2v85LocalINS0_6StringEEENS1_INS0_5ValueEEERKNS0_20PropertyCallbackInfoIvEE(%"class.v8::String"*, %"class.v8::Value"*, %"class.v8::PropertyCallbackInfo.1"* dereferenceable(8)) #0 comdat align 2 {
  tail call void @_Z12JSPropSetterI9CJS_FieldXadL_ZNS0_18set_button_align_xEP11CJS_RuntimeN2v85LocalINS3_5ValueEEEEEEvPKcS8_NS4_INS3_6StringEEES6_RKNS3_20PropertyCallbackInfoIvEE(i8* getelementptr inbounds ([13 x i8], [13 x i8]* @.str.2, i64 0, i64 0), i8* getelementptr inbounds ([6 x i8], [6 x i8]* @_ZN9CJS_Field5kNameE, i64 0, i64 0), %"class.v8::String"* %0, %"class.v8::Value"* %1, %"class.v8::PropertyCallbackInfo.1"* dereferenceable(8) %2)
  ret void
}

; Function Attrs: nounwind ssp uwtable
define linkonce_odr hidden void @_ZN9CJS_Field25get_button_align_y_staticEN2v85LocalINS0_6StringEEERKNS0_20PropertyCallbackInfoINS0_5ValueEEE(%"class.v8::String"*, %"class.v8::PropertyCallbackInfo"* dereferenceable(8)) #0 comdat align 2 {
  tail call void @_Z12JSPropGetterI9CJS_FieldXadL_ZNS0_18get_button_align_yEP11CJS_RuntimeEEEvPKcS4_N2v85LocalINS5_6StringEEERKNS5_20PropertyCallbackInfoINS5_5ValueEEE(i8* getelementptr inbounds ([13 x i8], [13 x i8]* @.str.3, i64 0, i64 0), i8* getelementptr inbounds ([6 x i8], [6 x i8]* @_ZN9CJS_Field5kNameE, i64 0, i64 0), %"class.v8::String"* %0, %"class.v8::PropertyCallbackInfo"* dereferenceable(8) %1)
  ret void
}

; Function Attrs: nounwind ssp uwtable
define linkonce_odr hidden void @_ZN9CJS_Field25set_button_align_y_staticEN2v85LocalINS0_6StringEEENS1_INS0_5ValueEEERKNS0_20PropertyCallbackInfoIvEE(%"class.v8::String"*, %"class.v8::Value"*, %"class.v8::PropertyCallbackInfo.1"* dereferenceable(8)) #0 comdat align 2 {
  tail call void @_Z12JSPropSetterI9CJS_FieldXadL_ZNS0_18set_button_align_yEP11CJS_RuntimeN2v85LocalINS3_5ValueEEEEEEvPKcS8_NS4_INS3_6StringEEES6_RKNS3_20PropertyCallbackInfoIvEE(i8* getelementptr inbounds ([13 x i8], [13 x i8]* @.str.3, i64 0, i64 0), i8* getelementptr inbounds ([6 x i8], [6 x i8]* @_ZN9CJS_Field5kNameE, i64 0, i64 0), %"class.v8::String"* %0, %"class.v8::Value"* %1, %"class.v8::PropertyCallbackInfo.1"* dereferenceable(8) %2)
  ret void
}

; Function Attrs: nounwind ssp uwtable
define linkonce_odr hidden void @_ZN9CJS_Field28get_button_fit_bounds_staticEN2v85LocalINS0_6StringEEERKNS0_20PropertyCallbackInfoINS0_5ValueEEE(%"class.v8::String"*, %"class.v8::PropertyCallbackInfo"* dereferenceable(8)) #0 comdat align 2 {
  tail call void @_Z12JSPropGetterI9CJS_FieldXadL_ZNS0_21get_button_fit_boundsEP11CJS_RuntimeEEEvPKcS4_N2v85LocalINS5_6StringEEERKNS5_20PropertyCallbackInfoINS5_5ValueEEE(i8* getelementptr inbounds ([16 x i8], [16 x i8]* @.str.4, i64 0, i64 0), i8* getelementptr inbounds ([6 x i8], [6 x i8]* @_ZN9CJS_Field5kNameE, i64 0, i64 0), %"class.v8::String"* %0, %"class.v8::PropertyCallbackInfo"* dereferenceable(8) %1)
  ret void
}

; Function Attrs: nounwind ssp uwtable
define linkonce_odr hidden void @_ZN9CJS_Field28set_button_fit_bounds_staticEN2v85LocalINS0_6StringEEENS1_INS0_5ValueEEERKNS0_20PropertyCallbackInfoIvEE(%"class.v8::String"*, %"class.v8::Value"*, %"class.v8::PropertyCallbackInfo.1"* dereferenceable(8)) #0 comdat align 2 {
  tail call void @_Z12JSPropSetterI9CJS_FieldXadL_ZNS0_21set_button_fit_boundsEP11CJS_RuntimeN2v85LocalINS3_5ValueEEEEEEvPKcS8_NS4_INS3_6StringEEES6_RKNS3_20PropertyCallbackInfoIvEE(i8* getelementptr inbounds ([16 x i8], [16 x i8]* @.str.4, i64 0, i64 0), i8* getelementptr inbounds ([6 x i8], [6 x i8]* @_ZN9CJS_Field5kNameE, i64 0, i64 0), %"class.v8::String"* %0, %"class.v8::Value"* %1, %"class.v8::PropertyCallbackInfo.1"* dereferenceable(8) %2)
  ret void
}

; Function Attrs: nounwind ssp uwtable
define linkonce_odr hidden void @_ZN9CJS_Field26get_button_position_staticEN2v85LocalINS0_6StringEEERKNS0_20PropertyCallbackInfoINS0_5ValueEEE(%"class.v8::String"*, %"class.v8::PropertyCallbackInfo"* dereferenceable(8)) #0 comdat align 2 {
  tail call void @_Z12JSPropGetterI9CJS_FieldXadL_ZNS0_19get_button_positionEP11CJS_RuntimeEEEvPKcS4_N2v85LocalINS5_6StringEEERKNS5_20PropertyCallbackInfoINS5_5ValueEEE(i8* getelementptr inbounds ([15 x i8], [15 x i8]* @.str.5, i64 0, i64 0), i8* getelementptr inbounds ([6 x i8], [6 x i8]* @_ZN9CJS_Field5kNameE, i64 0, i64 0), %"class.v8::String"* %0, %"class.v8::PropertyCallbackInfo"* dereferenceable(8) %1)
  ret void
}

; Function Attrs: nounwind ssp uwtable
define linkonce_odr hidden void @_ZN9CJS_Field26set_button_position_staticEN2v85LocalINS0_6StringEEENS1_INS0_5ValueEEERKNS0_20PropertyCallbackInfoIvEE(%"class.v8::String"*, %"class.v8::Value"*, %"class.v8::PropertyCallbackInfo.1"* dereferenceable(8)) #0 comdat align 2 {
  tail call void @_Z12JSPropSetterI9CJS_FieldXadL_ZNS0_19set_button_positionEP11CJS_RuntimeN2v85LocalINS3_5ValueEEEEEEvPKcS8_NS4_INS3_6StringEEES6_RKNS3_20PropertyCallbackInfoIvEE(i8* getelementptr inbounds ([15 x i8], [15 x i8]* @.str.5, i64 0, i64 0), i8* getelementptr inbounds ([6 x i8], [6 x i8]* @_ZN9CJS_Field5kNameE, i64 0, i64 0), %"class.v8::String"* %0, %"class.v8::Value"* %1, %"class.v8::PropertyCallbackInfo.1"* dereferenceable(8) %2)
  ret void
}

; Function Attrs: nounwind ssp uwtable
define linkonce_odr hidden void @_ZN9CJS_Field27get_button_scale_how_staticEN2v85LocalINS0_6StringEEERKNS0_20PropertyCallbackInfoINS0_5ValueEEE(%"class.v8::String"*, %"class.v8::PropertyCallbackInfo"* dereferenceable(8)) #0 comdat align 2 {
  tail call void @_Z12JSPropGetterI9CJS_FieldXadL_ZNS0_20get_button_scale_howEP11CJS_RuntimeEEEvPKcS4_N2v85LocalINS5_6StringEEERKNS5_20PropertyCallbackInfoINS5_5ValueEEE(i8* getelementptr inbounds ([15 x i8], [15 x i8]* @.str.6, i64 0, i64 0), i8* getelementptr inbounds ([6 x i8], [6 x i8]* @_ZN9CJS_Field5kNameE, i64 0, i64 0), %"class.v8::String"* %0, %"class.v8::PropertyCallbackInfo"* dereferenceable(8) %1)
  ret void
}

; Function Attrs: nounwind ssp uwtable
define linkonce_odr hidden void @_ZN9CJS_Field27set_button_scale_how_staticEN2v85LocalINS0_6StringEEENS1_INS0_5ValueEEERKNS0_20PropertyCallbackInfoIvEE(%"class.v8::String"*, %"class.v8::Value"*, %"class.v8::PropertyCallbackInfo.1"* dereferenceable(8)) #0 comdat align 2 {
  tail call void @_Z12JSPropSetterI9CJS_FieldXadL_ZNS0_20set_button_scale_howEP11CJS_RuntimeN2v85LocalINS3_5ValueEEEEEEvPKcS8_NS4_INS3_6StringEEES6_RKNS3_20PropertyCallbackInfoIvEE(i8* getelementptr inbounds ([15 x i8], [15 x i8]* @.str.6, i64 0, i64 0), i8* getelementptr inbounds ([6 x i8], [6 x i8]* @_ZN9CJS_Field5kNameE, i64 0, i64 0), %"class.v8::String"* %0, %"class.v8::Value"* %1, %"class.v8::PropertyCallbackInfo.1"* dereferenceable(8) %2)
  ret void
}

; Function Attrs: nounwind ssp uwtable
define linkonce_odr hidden void @_ZN9CJS_Field28get_button_scale_when_staticEN2v85LocalINS0_6StringEEERKNS0_20PropertyCallbackInfoINS0_5ValueEEE(%"class.v8::String"*, %"class.v8::PropertyCallbackInfo"* dereferenceable(8)) #0 comdat align 2 {
  tail call void @_Z12JSPropGetterI9CJS_FieldXadL_ZNS0_21get_button_scale_whenEP11CJS_RuntimeEEEvPKcS4_N2v85LocalINS5_6StringEEERKNS5_20PropertyCallbackInfoINS5_5ValueEEE(i8* getelementptr inbounds ([16 x i8], [16 x i8]* @.str.111, i64 0, i64 0), i8* getelementptr inbounds ([6 x i8], [6 x i8]* @_ZN9CJS_Field5kNameE, i64 0, i64 0), %"class.v8::String"* %0, %"class.v8::PropertyCallbackInfo"* dereferenceable(8) %1)
  ret void
}

; Function Attrs: nounwind ssp uwtable
define linkonce_odr hidden void @_ZN9CJS_Field28set_button_scale_when_staticEN2v85LocalINS0_6StringEEENS1_INS0_5ValueEEERKNS0_20PropertyCallbackInfoIvEE(%"class.v8::String"*, %"class.v8::Value"*, %"class.v8::PropertyCallbackInfo.1"* dereferenceable(8)) #0 comdat align 2 {
  tail call void @_Z12JSPropSetterI9CJS_FieldXadL_ZNS0_21set_button_scale_whenEP11CJS_RuntimeN2v85LocalINS3_5ValueEEEEEEvPKcS8_NS4_INS3_6StringEEES6_RKNS3_20PropertyCallbackInfoIvEE(i8* getelementptr inbounds ([16 x i8], [16 x i8]* @.str.111, i64 0, i64 0), i8* getelementptr inbounds ([6 x i8], [6 x i8]* @_ZN9CJS_Field5kNameE, i64 0, i64 0), %"class.v8::String"* %0, %"class.v8::Value"* %1, %"class.v8::PropertyCallbackInfo.1"* dereferenceable(8) %2)
  ret void
}

; Function Attrs: nounwind ssp uwtable
define linkonce_odr hidden void @_ZN9CJS_Field27get_calc_order_index_staticEN2v85LocalINS0_6StringEEERKNS0_20PropertyCallbackInfoINS0_5ValueEEE(%"class.v8::String"*, %"class.v8::PropertyCallbackInfo"* dereferenceable(8)) #0 comdat align 2 {
  tail call void @_Z12JSPropGetterI9CJS_FieldXadL_ZNS0_20get_calc_order_indexEP11CJS_RuntimeEEEvPKcS4_N2v85LocalINS5_6StringEEERKNS5_20PropertyCallbackInfoINS5_5ValueEEE(i8* getelementptr inbounds ([15 x i8], [15 x i8]* @.str.8, i64 0, i64 0), i8* getelementptr inbounds ([6 x i8], [6 x i8]* @_ZN9CJS_Field5kNameE, i64 0, i64 0), %"class.v8::String"* %0, %"class.v8::PropertyCallbackInfo"* dereferenceable(8) %1)
  ret void
}

; Function Attrs: nounwind ssp uwtable
define linkonce_odr hidden void @_ZN9CJS_Field27set_calc_order_index_staticEN2v85LocalINS0_6StringEEENS1_INS0_5ValueEEERKNS0_20PropertyCallbackInfoIvEE(%"class.v8::String"*, %"class.v8::Value"*, %"class.v8::PropertyCallbackInfo.1"* dereferenceable(8)) #0 comdat align 2 {
  tail call void @_Z12JSPropSetterI9CJS_FieldXadL_ZNS0_20set_calc_order_indexEP11CJS_RuntimeN2v85LocalINS3_5ValueEEEEEEvPKcS8_NS4_INS3_6StringEEES6_RKNS3_20PropertyCallbackInfoIvEE(i8* getelementptr inbounds ([15 x i8], [15 x i8]* @.str.8, i64 0, i64 0), i8* getelementptr inbounds ([6 x i8], [6 x i8]* @_ZN9CJS_Field5kNameE, i64 0, i64 0), %"class.v8::String"* %0, %"class.v8::Value"* %1, %"class.v8::PropertyCallbackInfo.1"* dereferenceable(8) %2)
  ret void
}

; Function Attrs: nounwind ssp uwtable
define linkonce_odr hidden void @_ZN9CJS_Field21get_char_limit_staticEN2v85LocalINS0_6StringEEERKNS0_20PropertyCallbackInfoINS0_5ValueEEE(%"class.v8::String"*, %"class.v8::PropertyCallbackInfo"* dereferenceable(8)) #0 comdat align 2 {
  tail call void @_Z12JSPropGetterI9CJS_FieldXadL_ZNS0_14get_char_limitEP11CJS_RuntimeEEEvPKcS4_N2v85LocalINS5_6StringEEERKNS5_20PropertyCallbackInfoINS5_5ValueEEE(i8* getelementptr inbounds ([10 x i8], [10 x i8]* @.str.9, i64 0, i64 0), i8* getelementptr inbounds ([6 x i8], [6 x i8]* @_ZN9CJS_Field5kNameE, i64 0, i64 0), %"class.v8::String"* %0, %"class.v8::PropertyCallbackInfo"* dereferenceable(8) %1)
  ret void
}

; Function Attrs: nounwind ssp uwtable
define linkonce_odr hidden void @_ZN9CJS_Field21set_char_limit_staticEN2v85LocalINS0_6StringEEENS1_INS0_5ValueEEERKNS0_20PropertyCallbackInfoIvEE(%"class.v8::String"*, %"class.v8::Value"*, %"class.v8::PropertyCallbackInfo.1"* dereferenceable(8)) #0 comdat align 2 {
  tail call void @_Z12JSPropSetterI9CJS_FieldXadL_ZNS0_14set_char_limitEP11CJS_RuntimeN2v85LocalINS3_5ValueEEEEEEvPKcS8_NS4_INS3_6StringEEES6_RKNS3_20PropertyCallbackInfoIvEE(i8* getelementptr inbounds ([10 x i8], [10 x i8]* @.str.9, i64 0, i64 0), i8* getelementptr inbounds ([6 x i8], [6 x i8]* @_ZN9CJS_Field5kNameE, i64 0, i64 0), %"class.v8::String"* %0, %"class.v8::Value"* %1, %"class.v8::PropertyCallbackInfo.1"* dereferenceable(8) %2)
  ret void
}

; Function Attrs: nounwind ssp uwtable
define linkonce_odr hidden void @_ZN9CJS_Field15get_comb_staticEN2v85LocalINS0_6StringEEERKNS0_20PropertyCallbackInfoINS0_5ValueEEE(%"class.v8::String"*, %"class.v8::PropertyCallbackInfo"* dereferenceable(8)) #0 comdat align 2 {
  tail call void @_Z12JSPropGetterI9CJS_FieldXadL_ZNS0_8get_combEP11CJS_RuntimeEEEvPKcS4_N2v85LocalINS5_6StringEEERKNS5_20PropertyCallbackInfoINS5_5ValueEEE(i8* getelementptr inbounds ([5 x i8], [5 x i8]* @.str.10, i64 0, i64 0), i8* getelementptr inbounds ([6 x i8], [6 x i8]* @_ZN9CJS_Field5kNameE, i64 0, i64 0), %"class.v8::String"* %0, %"class.v8::PropertyCallbackInfo"* dereferenceable(8) %1)
  ret void
}

; Function Attrs: nounwind ssp uwtable
define linkonce_odr hidden void @_ZN9CJS_Field15set_comb_staticEN2v85LocalINS0_6StringEEENS1_INS0_5ValueEEERKNS0_20PropertyCallbackInfoIvEE(%"class.v8::String"*, %"class.v8::Value"*, %"class.v8::PropertyCallbackInfo.1"* dereferenceable(8)) #0 comdat align 2 {
  tail call void @_Z12JSPropSetterI9CJS_FieldXadL_ZNS0_8set_combEP11CJS_RuntimeN2v85LocalINS3_5ValueEEEEEEvPKcS8_NS4_INS3_6StringEEES6_RKNS3_20PropertyCallbackInfoIvEE(i8* getelementptr inbounds ([5 x i8], [5 x i8]* @.str.10, i64 0, i64 0), i8* getelementptr inbounds ([6 x i8], [6 x i8]* @_ZN9CJS_Field5kNameE, i64 0, i64 0), %"class.v8::String"* %0, %"class.v8::Value"* %1, %"class.v8::PropertyCallbackInfo.1"* dereferenceable(8) %2)
  ret void
}

; Function Attrs: nounwind ssp uwtable
define linkonce_odr hidden void @_ZN9CJS_Field31get_commit_on_sel_change_staticEN2v85LocalINS0_6StringEEERKNS0_20PropertyCallbackInfoINS0_5ValueEEE(%"class.v8::String"*, %"class.v8::PropertyCallbackInfo"* dereferenceable(8)) #0 comdat align 2 {
  tail call void @_Z12JSPropGetterI9CJS_FieldXadL_ZNS0_24get_commit_on_sel_changeEP11CJS_RuntimeEEEvPKcS4_N2v85LocalINS5_6StringEEERKNS5_20PropertyCallbackInfoINS5_5ValueEEE(i8* getelementptr inbounds ([18 x i8], [18 x i8]* @.str.11, i64 0, i64 0), i8* getelementptr inbounds ([6 x i8], [6 x i8]* @_ZN9CJS_Field5kNameE, i64 0, i64 0), %"class.v8::String"* %0, %"class.v8::PropertyCallbackInfo"* dereferenceable(8) %1)
  ret void
}

; Function Attrs: nounwind ssp uwtable
define linkonce_odr hidden void @_ZN9CJS_Field31set_commit_on_sel_change_staticEN2v85LocalINS0_6StringEEENS1_INS0_5ValueEEERKNS0_20PropertyCallbackInfoIvEE(%"class.v8::String"*, %"class.v8::Value"*, %"class.v8::PropertyCallbackInfo.1"* dereferenceable(8)) #0 comdat align 2 {
  tail call void @_Z12JSPropSetterI9CJS_FieldXadL_ZNS0_24set_commit_on_sel_changeEP11CJS_RuntimeN2v85LocalINS3_5ValueEEEEEEvPKcS8_NS4_INS3_6StringEEES6_RKNS3_20PropertyCallbackInfoIvEE(i8* getelementptr inbounds ([18 x i8], [18 x i8]* @.str.11, i64 0, i64 0), i8* getelementptr inbounds ([6 x i8], [6 x i8]* @_ZN9CJS_Field5kNameE, i64 0, i64 0), %"class.v8::String"* %0, %"class.v8::Value"* %1, %"class.v8::PropertyCallbackInfo.1"* dereferenceable(8) %2)
  ret void
}

; Function Attrs: nounwind ssp uwtable
define linkonce_odr hidden void @_ZN9CJS_Field32get_current_value_indices_staticEN2v85LocalINS0_6StringEEERKNS0_20PropertyCallbackInfoINS0_5ValueEEE(%"class.v8::String"*, %"class.v8::PropertyCallbackInfo"* dereferenceable(8)) #0 comdat align 2 {
  tail call void @_Z12JSPropGetterI9CJS_FieldXadL_ZNS0_25get_current_value_indicesEP11CJS_RuntimeEEEvPKcS4_N2v85LocalINS5_6StringEEERKNS5_20PropertyCallbackInfoINS5_5ValueEEE(i8* getelementptr inbounds ([20 x i8], [20 x i8]* @.str.12, i64 0, i64 0), i8* getelementptr inbounds ([6 x i8], [6 x i8]* @_ZN9CJS_Field5kNameE, i64 0, i64 0), %"class.v8::String"* %0, %"class.v8::PropertyCallbackInfo"* dereferenceable(8) %1)
  ret void
}

; Function Attrs: nounwind ssp uwtable
define linkonce_odr hidden void @_ZN9CJS_Field32set_current_value_indices_staticEN2v85LocalINS0_6StringEEENS1_INS0_5ValueEEERKNS0_20PropertyCallbackInfoIvEE(%"class.v8::String"*, %"class.v8::Value"*, %"class.v8::PropertyCallbackInfo.1"* dereferenceable(8)) #0 comdat align 2 {
  tail call void @_Z12JSPropSetterI9CJS_FieldXadL_ZNS0_25set_current_value_indicesEP11CJS_RuntimeN2v85LocalINS3_5ValueEEEEEEvPKcS8_NS4_INS3_6StringEEES6_RKNS3_20PropertyCallbackInfoIvEE(i8* getelementptr inbounds ([20 x i8], [20 x i8]* @.str.12, i64 0, i64 0), i8* getelementptr inbounds ([6 x i8], [6 x i8]* @_ZN9CJS_Field5kNameE, i64 0, i64 0), %"class.v8::String"* %0, %"class.v8::Value"* %1, %"class.v8::PropertyCallbackInfo.1"* dereferenceable(8) %2)
  ret void
}

; Function Attrs: nounwind ssp uwtable
define linkonce_odr hidden void @_ZN9CJS_Field24get_default_style_staticEN2v85LocalINS0_6StringEEERKNS0_20PropertyCallbackInfoINS0_5ValueEEE(%"class.v8::String"*, %"class.v8::PropertyCallbackInfo"* dereferenceable(8)) #0 comdat align 2 {
  tail call void @_Z12JSPropGetterI9CJS_FieldXadL_ZNS0_17get_default_styleEP11CJS_RuntimeEEEvPKcS4_N2v85LocalINS5_6StringEEERKNS5_20PropertyCallbackInfoINS5_5ValueEEE(i8* getelementptr inbounds ([13 x i8], [13 x i8]* @.str.13, i64 0, i64 0), i8* getelementptr inbounds ([6 x i8], [6 x i8]* @_ZN9CJS_Field5kNameE, i64 0, i64 0), %"class.v8::String"* %0, %"class.v8::PropertyCallbackInfo"* dereferenceable(8) %1)
  ret void
}

; Function Attrs: nounwind ssp uwtable
define linkonce_odr hidden void @_ZN9CJS_Field24set_default_style_staticEN2v85LocalINS0_6StringEEENS1_INS0_5ValueEEERKNS0_20PropertyCallbackInfoIvEE(%"class.v8::String"*, %"class.v8::Value"*, %"class.v8::PropertyCallbackInfo.1"* dereferenceable(8)) #0 comdat align 2 {
  tail call void @_Z12JSPropSetterI9CJS_FieldXadL_ZNS0_17set_default_styleEP11CJS_RuntimeN2v85LocalINS3_5ValueEEEEEEvPKcS8_NS4_INS3_6StringEEES6_RKNS3_20PropertyCallbackInfoIvEE(i8* getelementptr inbounds ([13 x i8], [13 x i8]* @.str.13, i64 0, i64 0), i8* getelementptr inbounds ([6 x i8], [6 x i8]* @_ZN9CJS_Field5kNameE, i64 0, i64 0), %"class.v8::String"* %0, %"class.v8::Value"* %1, %"class.v8::PropertyCallbackInfo.1"* dereferenceable(8) %2)
  ret void
}

; Function Attrs: nounwind ssp uwtable
define linkonce_odr hidden void @_ZN9CJS_Field24get_default_value_staticEN2v85LocalINS0_6StringEEERKNS0_20PropertyCallbackInfoINS0_5ValueEEE(%"class.v8::String"*, %"class.v8::PropertyCallbackInfo"* dereferenceable(8)) #0 comdat align 2 {
  tail call void @_Z12JSPropGetterI9CJS_FieldXadL_ZNS0_17get_default_valueEP11CJS_RuntimeEEEvPKcS4_N2v85LocalINS5_6StringEEERKNS5_20PropertyCallbackInfoINS5_5ValueEEE(i8* getelementptr inbounds ([13 x i8], [13 x i8]* @.str.14, i64 0, i64 0), i8* getelementptr inbounds ([6 x i8], [6 x i8]* @_ZN9CJS_Field5kNameE, i64 0, i64 0), %"class.v8::String"* %0, %"class.v8::PropertyCallbackInfo"* dereferenceable(8) %1)
  ret void
}

; Function Attrs: nounwind ssp uwtable
define linkonce_odr hidden void @_ZN9CJS_Field24set_default_value_staticEN2v85LocalINS0_6StringEEENS1_INS0_5ValueEEERKNS0_20PropertyCallbackInfoIvEE(%"class.v8::String"*, %"class.v8::Value"*, %"class.v8::PropertyCallbackInfo.1"* dereferenceable(8)) #0 comdat align 2 {
  tail call void @_Z12JSPropSetterI9CJS_FieldXadL_ZNS0_17set_default_valueEP11CJS_RuntimeN2v85LocalINS3_5ValueEEEEEEvPKcS8_NS4_INS3_6StringEEES6_RKNS3_20PropertyCallbackInfoIvEE(i8* getelementptr inbounds ([13 x i8], [13 x i8]* @.str.14, i64 0, i64 0), i8* getelementptr inbounds ([6 x i8], [6 x i8]* @_ZN9CJS_Field5kNameE, i64 0, i64 0), %"class.v8::String"* %0, %"class.v8::Value"* %1, %"class.v8::PropertyCallbackInfo.1"* dereferenceable(8) %2)
  ret void
}

; Function Attrs: nounwind ssp uwtable
define linkonce_odr hidden void @_ZN9CJS_Field24get_do_not_scroll_staticEN2v85LocalINS0_6StringEEERKNS0_20PropertyCallbackInfoINS0_5ValueEEE(%"class.v8::String"*, %"class.v8::PropertyCallbackInfo"* dereferenceable(8)) #0 comdat align 2 {
  tail call void @_Z12JSPropGetterI9CJS_FieldXadL_ZNS0_17get_do_not_scrollEP11CJS_RuntimeEEEvPKcS4_N2v85LocalINS5_6StringEEERKNS5_20PropertyCallbackInfoINS5_5ValueEEE(i8* getelementptr inbounds ([12 x i8], [12 x i8]* @.str.15, i64 0, i64 0), i8* getelementptr inbounds ([6 x i8], [6 x i8]* @_ZN9CJS_Field5kNameE, i64 0, i64 0), %"class.v8::String"* %0, %"class.v8::PropertyCallbackInfo"* dereferenceable(8) %1)
  ret void
}

; Function Attrs: nounwind ssp uwtable
define linkonce_odr hidden void @_ZN9CJS_Field24set_do_not_scroll_staticEN2v85LocalINS0_6StringEEENS1_INS0_5ValueEEERKNS0_20PropertyCallbackInfoIvEE(%"class.v8::String"*, %"class.v8::Value"*, %"class.v8::PropertyCallbackInfo.1"* dereferenceable(8)) #0 comdat align 2 {
  tail call void @_Z12JSPropSetterI9CJS_FieldXadL_ZNS0_17set_do_not_scrollEP11CJS_RuntimeN2v85LocalINS3_5ValueEEEEEEvPKcS8_NS4_INS3_6StringEEES6_RKNS3_20PropertyCallbackInfoIvEE(i8* getelementptr inbounds ([12 x i8], [12 x i8]* @.str.15, i64 0, i64 0), i8* getelementptr inbounds ([6 x i8], [6 x i8]* @_ZN9CJS_Field5kNameE, i64 0, i64 0), %"class.v8::String"* %0, %"class.v8::Value"* %1, %"class.v8::PropertyCallbackInfo.1"* dereferenceable(8) %2)
  ret void
}

; Function Attrs: nounwind ssp uwtable
define linkonce_odr hidden void @_ZN9CJS_Field29get_do_not_spell_check_staticEN2v85LocalINS0_6StringEEERKNS0_20PropertyCallbackInfoINS0_5ValueEEE(%"class.v8::String"*, %"class.v8::PropertyCallbackInfo"* dereferenceable(8)) #0 comdat align 2 {
  tail call void @_Z12JSPropGetterI9CJS_FieldXadL_ZNS0_22get_do_not_spell_checkEP11CJS_RuntimeEEEvPKcS4_N2v85LocalINS5_6StringEEERKNS5_20PropertyCallbackInfoINS5_5ValueEEE(i8* getelementptr inbounds ([16 x i8], [16 x i8]* @.str.16, i64 0, i64 0), i8* getelementptr inbounds ([6 x i8], [6 x i8]* @_ZN9CJS_Field5kNameE, i64 0, i64 0), %"class.v8::String"* %0, %"class.v8::PropertyCallbackInfo"* dereferenceable(8) %1)
  ret void
}

; Function Attrs: nounwind ssp uwtable
define linkonce_odr hidden void @_ZN9CJS_Field29set_do_not_spell_check_staticEN2v85LocalINS0_6StringEEENS1_INS0_5ValueEEERKNS0_20PropertyCallbackInfoIvEE(%"class.v8::String"*, %"class.v8::Value"*, %"class.v8::PropertyCallbackInfo.1"* dereferenceable(8)) #0 comdat align 2 {
  tail call void @_Z12JSPropSetterI9CJS_FieldXadL_ZNS0_22set_do_not_spell_checkEP11CJS_RuntimeN2v85LocalINS3_5ValueEEEEEEvPKcS8_NS4_INS3_6StringEEES6_RKNS3_20PropertyCallbackInfoIvEE(i8* getelementptr inbounds ([16 x i8], [16 x i8]* @.str.16, i64 0, i64 0), i8* getelementptr inbounds ([6 x i8], [6 x i8]* @_ZN9CJS_Field5kNameE, i64 0, i64 0), %"class.v8::String"* %0, %"class.v8::Value"* %1, %"class.v8::PropertyCallbackInfo.1"* dereferenceable(8) %2)
  ret void
}

; Function Attrs: nounwind ssp uwtable
define linkonce_odr hidden void @_ZN9CJS_Field16get_delay_staticEN2v85LocalINS0_6StringEEERKNS0_20PropertyCallbackInfoINS0_5ValueEEE(%"class.v8::String"*, %"class.v8::PropertyCallbackInfo"* dereferenceable(8)) #0 comdat align 2 {
  tail call void @_Z12JSPropGetterI9CJS_FieldXadL_ZNS0_9get_delayEP11CJS_RuntimeEEEvPKcS4_N2v85LocalINS5_6StringEEERKNS5_20PropertyCallbackInfoINS5_5ValueEEE(i8* getelementptr inbounds ([6 x i8], [6 x i8]* @.str.17, i64 0, i64 0), i8* getelementptr inbounds ([6 x i8], [6 x i8]* @_ZN9CJS_Field5kNameE, i64 0, i64 0), %"class.v8::String"* %0, %"class.v8::PropertyCallbackInfo"* dereferenceable(8) %1)
  ret void
}

; Function Attrs: nounwind ssp uwtable
define linkonce_odr hidden void @_ZN9CJS_Field16set_delay_staticEN2v85LocalINS0_6StringEEENS1_INS0_5ValueEEERKNS0_20PropertyCallbackInfoIvEE(%"class.v8::String"*, %"class.v8::Value"*, %"class.v8::PropertyCallbackInfo.1"* dereferenceable(8)) #0 comdat align 2 {
  tail call void @_Z12JSPropSetterI9CJS_FieldXadL_ZNS0_9set_delayEP11CJS_RuntimeN2v85LocalINS3_5ValueEEEEEEvPKcS8_NS4_INS3_6StringEEES6_RKNS3_20PropertyCallbackInfoIvEE(i8* getelementptr inbounds ([6 x i8], [6 x i8]* @.str.17, i64 0, i64 0), i8* getelementptr inbounds ([6 x i8], [6 x i8]* @_ZN9CJS_Field5kNameE, i64 0, i64 0), %"class.v8::String"* %0, %"class.v8::Value"* %1, %"class.v8::PropertyCallbackInfo.1"* dereferenceable(8) %2)
  ret void
}

; Function Attrs: nounwind ssp uwtable
define linkonce_odr hidden void @_ZN9CJS_Field18get_display_staticEN2v85LocalINS0_6StringEEERKNS0_20PropertyCallbackInfoINS0_5ValueEEE(%"class.v8::String"*, %"class.v8::PropertyCallbackInfo"* dereferenceable(8)) #0 comdat align 2 {
  tail call void @_Z12JSPropGetterI9CJS_FieldXadL_ZNS0_11get_displayEP11CJS_RuntimeEEEvPKcS4_N2v85LocalINS5_6StringEEERKNS5_20PropertyCallbackInfoINS5_5ValueEEE(i8* getelementptr inbounds ([8 x i8], [8 x i8]* @.str.18, i64 0, i64 0), i8* getelementptr inbounds ([6 x i8], [6 x i8]* @_ZN9CJS_Field5kNameE, i64 0, i64 0), %"class.v8::String"* %0, %"class.v8::PropertyCallbackInfo"* dereferenceable(8) %1)
  ret void
}

; Function Attrs: nounwind ssp uwtable
define linkonce_odr hidden void @_ZN9CJS_Field18set_display_staticEN2v85LocalINS0_6StringEEENS1_INS0_5ValueEEERKNS0_20PropertyCallbackInfoIvEE(%"class.v8::String"*, %"class.v8::Value"*, %"class.v8::PropertyCallbackInfo.1"* dereferenceable(8)) #0 comdat align 2 {
  tail call void @_Z12JSPropSetterI9CJS_FieldXadL_ZNS0_11set_displayEP11CJS_RuntimeN2v85LocalINS3_5ValueEEEEEEvPKcS8_NS4_INS3_6StringEEES6_RKNS3_20PropertyCallbackInfoIvEE(i8* getelementptr inbounds ([8 x i8], [8 x i8]* @.str.18, i64 0, i64 0), i8* getelementptr inbounds ([6 x i8], [6 x i8]* @_ZN9CJS_Field5kNameE, i64 0, i64 0), %"class.v8::String"* %0, %"class.v8::Value"* %1, %"class.v8::PropertyCallbackInfo.1"* dereferenceable(8) %2)
  ret void
}

; Function Attrs: nounwind ssp uwtable
define linkonce_odr hidden void @_ZN9CJS_Field14get_doc_staticEN2v85LocalINS0_6StringEEERKNS0_20PropertyCallbackInfoINS0_5ValueEEE(%"class.v8::String"*, %"class.v8::PropertyCallbackInfo"* dereferenceable(8)) #0 comdat align 2 {
  tail call void @_Z12JSPropGetterI9CJS_FieldXadL_ZNS0_7get_docEP11CJS_RuntimeEEEvPKcS4_N2v85LocalINS5_6StringEEERKNS5_20PropertyCallbackInfoINS5_5ValueEEE(i8* getelementptr inbounds ([4 x i8], [4 x i8]* @.str.19, i64 0, i64 0), i8* getelementptr inbounds ([6 x i8], [6 x i8]* @_ZN9CJS_Field5kNameE, i64 0, i64 0), %"class.v8::String"* %0, %"class.v8::PropertyCallbackInfo"* dereferenceable(8) %1)
  ret void
}

; Function Attrs: nounwind ssp uwtable
define linkonce_odr hidden void @_ZN9CJS_Field14set_doc_staticEN2v85LocalINS0_6StringEEENS1_INS0_5ValueEEERKNS0_20PropertyCallbackInfoIvEE(%"class.v8::String"*, %"class.v8::Value"*, %"class.v8::PropertyCallbackInfo.1"* dereferenceable(8)) #0 comdat align 2 {
  tail call void @_Z12JSPropSetterI9CJS_FieldXadL_ZNS0_7set_docEP11CJS_RuntimeN2v85LocalINS3_5ValueEEEEEEvPKcS8_NS4_INS3_6StringEEES6_RKNS3_20PropertyCallbackInfoIvEE(i8* getelementptr inbounds ([4 x i8], [4 x i8]* @.str.19, i64 0, i64 0), i8* getelementptr inbounds ([6 x i8], [6 x i8]* @_ZN9CJS_Field5kNameE, i64 0, i64 0), %"class.v8::String"* %0, %"class.v8::Value"* %1, %"class.v8::PropertyCallbackInfo.1"* dereferenceable(8) %2)
  ret void
}

; Function Attrs: nounwind ssp uwtable
define linkonce_odr hidden void @_ZN9CJS_Field19get_editable_staticEN2v85LocalINS0_6StringEEERKNS0_20PropertyCallbackInfoINS0_5ValueEEE(%"class.v8::String"*, %"class.v8::PropertyCallbackInfo"* dereferenceable(8)) #0 comdat align 2 {
  tail call void @_Z12JSPropGetterI9CJS_FieldXadL_ZNS0_12get_editableEP11CJS_RuntimeEEEvPKcS4_N2v85LocalINS5_6StringEEERKNS5_20PropertyCallbackInfoINS5_5ValueEEE(i8* getelementptr inbounds ([9 x i8], [9 x i8]* @.str.20, i64 0, i64 0), i8* getelementptr inbounds ([6 x i8], [6 x i8]* @_ZN9CJS_Field5kNameE, i64 0, i64 0), %"class.v8::String"* %0, %"class.v8::PropertyCallbackInfo"* dereferenceable(8) %1)
  ret void
}

; Function Attrs: nounwind ssp uwtable
define linkonce_odr hidden void @_ZN9CJS_Field19set_editable_staticEN2v85LocalINS0_6StringEEENS1_INS0_5ValueEEERKNS0_20PropertyCallbackInfoIvEE(%"class.v8::String"*, %"class.v8::Value"*, %"class.v8::PropertyCallbackInfo.1"* dereferenceable(8)) #0 comdat align 2 {
  tail call void @_Z12JSPropSetterI9CJS_FieldXadL_ZNS0_12set_editableEP11CJS_RuntimeN2v85LocalINS3_5ValueEEEEEEvPKcS8_NS4_INS3_6StringEEES6_RKNS3_20PropertyCallbackInfoIvEE(i8* getelementptr inbounds ([9 x i8], [9 x i8]* @.str.20, i64 0, i64 0), i8* getelementptr inbounds ([6 x i8], [6 x i8]* @_ZN9CJS_Field5kNameE, i64 0, i64 0), %"class.v8::String"* %0, %"class.v8::Value"* %1, %"class.v8::PropertyCallbackInfo.1"* dereferenceable(8) %2)
  ret void
}

; Function Attrs: nounwind ssp uwtable
define linkonce_odr hidden void @_ZN9CJS_Field24get_export_values_staticEN2v85LocalINS0_6StringEEERKNS0_20PropertyCallbackInfoINS0_5ValueEEE(%"class.v8::String"*, %"class.v8::PropertyCallbackInfo"* dereferenceable(8)) #0 comdat align 2 {
  tail call void @_Z12JSPropGetterI9CJS_FieldXadL_ZNS0_17get_export_valuesEP11CJS_RuntimeEEEvPKcS4_N2v85LocalINS5_6StringEEERKNS5_20PropertyCallbackInfoINS5_5ValueEEE(i8* getelementptr inbounds ([13 x i8], [13 x i8]* @.str.21, i64 0, i64 0), i8* getelementptr inbounds ([6 x i8], [6 x i8]* @_ZN9CJS_Field5kNameE, i64 0, i64 0), %"class.v8::String"* %0, %"class.v8::PropertyCallbackInfo"* dereferenceable(8) %1)
  ret void
}

; Function Attrs: nounwind ssp uwtable
define linkonce_odr hidden void @_ZN9CJS_Field24set_export_values_staticEN2v85LocalINS0_6StringEEENS1_INS0_5ValueEEERKNS0_20PropertyCallbackInfoIvEE(%"class.v8::String"*, %"class.v8::Value"*, %"class.v8::PropertyCallbackInfo.1"* dereferenceable(8)) #0 comdat align 2 {
  tail call void @_Z12JSPropSetterI9CJS_FieldXadL_ZNS0_17set_export_valuesEP11CJS_RuntimeN2v85LocalINS3_5ValueEEEEEEvPKcS8_NS4_INS3_6StringEEES6_RKNS3_20PropertyCallbackInfoIvEE(i8* getelementptr inbounds ([13 x i8], [13 x i8]* @.str.21, i64 0, i64 0), i8* getelementptr inbounds ([6 x i8], [6 x i8]* @_ZN9CJS_Field5kNameE, i64 0, i64 0), %"class.v8::String"* %0, %"class.v8::Value"* %1, %"class.v8::PropertyCallbackInfo.1"* dereferenceable(8) %2)
  ret void
}

; Function Attrs: nounwind ssp uwtable
define linkonce_odr hidden void @_ZN9CJS_Field17get_hidden_staticEN2v85LocalINS0_6StringEEERKNS0_20PropertyCallbackInfoINS0_5ValueEEE(%"class.v8::String"*, %"class.v8::PropertyCallbackInfo"* dereferenceable(8)) #0 comdat align 2 {
  tail call void @_Z12JSPropGetterI9CJS_FieldXadL_ZNS0_10get_hiddenEP11CJS_RuntimeEEEvPKcS4_N2v85LocalINS5_6StringEEERKNS5_20PropertyCallbackInfoINS5_5ValueEEE(i8* getelementptr inbounds ([7 x i8], [7 x i8]* @.str.22, i64 0, i64 0), i8* getelementptr inbounds ([6 x i8], [6 x i8]* @_ZN9CJS_Field5kNameE, i64 0, i64 0), %"class.v8::String"* %0, %"class.v8::PropertyCallbackInfo"* dereferenceable(8) %1)
  ret void
}

; Function Attrs: nounwind ssp uwtable
define linkonce_odr hidden void @_ZN9CJS_Field17set_hidden_staticEN2v85LocalINS0_6StringEEENS1_INS0_5ValueEEERKNS0_20PropertyCallbackInfoIvEE(%"class.v8::String"*, %"class.v8::Value"*, %"class.v8::PropertyCallbackInfo.1"* dereferenceable(8)) #0 comdat align 2 {
  tail call void @_Z12JSPropSetterI9CJS_FieldXadL_ZNS0_10set_hiddenEP11CJS_RuntimeN2v85LocalINS3_5ValueEEEEEEvPKcS8_NS4_INS3_6StringEEES6_RKNS3_20PropertyCallbackInfoIvEE(i8* getelementptr inbounds ([7 x i8], [7 x i8]* @.str.22, i64 0, i64 0), i8* getelementptr inbounds ([6 x i8], [6 x i8]* @_ZN9CJS_Field5kNameE, i64 0, i64 0), %"class.v8::String"* %0, %"class.v8::Value"* %1, %"class.v8::PropertyCallbackInfo.1"* dereferenceable(8) %2)
  ret void
}

; Function Attrs: nounwind ssp uwtable
define linkonce_odr hidden void @_ZN9CJS_Field22get_file_select_staticEN2v85LocalINS0_6StringEEERKNS0_20PropertyCallbackInfoINS0_5ValueEEE(%"class.v8::String"*, %"class.v8::PropertyCallbackInfo"* dereferenceable(8)) #0 comdat align 2 {
  tail call void @_Z12JSPropGetterI9CJS_FieldXadL_ZNS0_15get_file_selectEP11CJS_RuntimeEEEvPKcS4_N2v85LocalINS5_6StringEEERKNS5_20PropertyCallbackInfoINS5_5ValueEEE(i8* getelementptr inbounds ([11 x i8], [11 x i8]* @.str.23, i64 0, i64 0), i8* getelementptr inbounds ([6 x i8], [6 x i8]* @_ZN9CJS_Field5kNameE, i64 0, i64 0), %"class.v8::String"* %0, %"class.v8::PropertyCallbackInfo"* dereferenceable(8) %1)
  ret void
}

; Function Attrs: nounwind ssp uwtable
define linkonce_odr hidden void @_ZN9CJS_Field22set_file_select_staticEN2v85LocalINS0_6StringEEENS1_INS0_5ValueEEERKNS0_20PropertyCallbackInfoIvEE(%"class.v8::String"*, %"class.v8::Value"*, %"class.v8::PropertyCallbackInfo.1"* dereferenceable(8)) #0 comdat align 2 {
  tail call void @_Z12JSPropSetterI9CJS_FieldXadL_ZNS0_15set_file_selectEP11CJS_RuntimeN2v85LocalINS3_5ValueEEEEEEvPKcS8_NS4_INS3_6StringEEES6_RKNS3_20PropertyCallbackInfoIvEE(i8* getelementptr inbounds ([11 x i8], [11 x i8]* @.str.23, i64 0, i64 0), i8* getelementptr inbounds ([6 x i8], [6 x i8]* @_ZN9CJS_Field5kNameE, i64 0, i64 0), %"class.v8::String"* %0, %"class.v8::Value"* %1, %"class.v8::PropertyCallbackInfo.1"* dereferenceable(8) %2)
  ret void
}

; Function Attrs: nounwind ssp uwtable
define linkonce_odr hidden void @_ZN9CJS_Field21get_fill_color_staticEN2v85LocalINS0_6StringEEERKNS0_20PropertyCallbackInfoINS0_5ValueEEE(%"class.v8::String"*, %"class.v8::PropertyCallbackInfo"* dereferenceable(8)) #0 comdat align 2 {
  tail call void @_Z12JSPropGetterI9CJS_FieldXadL_ZNS0_14get_fill_colorEP11CJS_RuntimeEEEvPKcS4_N2v85LocalINS5_6StringEEERKNS5_20PropertyCallbackInfoINS5_5ValueEEE(i8* getelementptr inbounds ([10 x i8], [10 x i8]* @.str.24, i64 0, i64 0), i8* getelementptr inbounds ([6 x i8], [6 x i8]* @_ZN9CJS_Field5kNameE, i64 0, i64 0), %"class.v8::String"* %0, %"class.v8::PropertyCallbackInfo"* dereferenceable(8) %1)
  ret void
}

; Function Attrs: nounwind ssp uwtable
define linkonce_odr hidden void @_ZN9CJS_Field21set_fill_color_staticEN2v85LocalINS0_6StringEEENS1_INS0_5ValueEEERKNS0_20PropertyCallbackInfoIvEE(%"class.v8::String"*, %"class.v8::Value"*, %"class.v8::PropertyCallbackInfo.1"* dereferenceable(8)) #0 comdat align 2 {
  tail call void @_Z12JSPropSetterI9CJS_FieldXadL_ZNS0_14set_fill_colorEP11CJS_RuntimeN2v85LocalINS3_5ValueEEEEEEvPKcS8_NS4_INS3_6StringEEES6_RKNS3_20PropertyCallbackInfoIvEE(i8* getelementptr inbounds ([10 x i8], [10 x i8]* @.str.24, i64 0, i64 0), i8* getelementptr inbounds ([6 x i8], [6 x i8]* @_ZN9CJS_Field5kNameE, i64 0, i64 0), %"class.v8::String"* %0, %"class.v8::Value"* %1, %"class.v8::PropertyCallbackInfo.1"* dereferenceable(8) %2)
  ret void
}

; Function Attrs: nounwind ssp uwtable
define linkonce_odr hidden void @_ZN9CJS_Field21get_line_width_staticEN2v85LocalINS0_6StringEEERKNS0_20PropertyCallbackInfoINS0_5ValueEEE(%"class.v8::String"*, %"class.v8::PropertyCallbackInfo"* dereferenceable(8)) #0 comdat align 2 {
  tail call void @_Z12JSPropGetterI9CJS_FieldXadL_ZNS0_14get_line_widthEP11CJS_RuntimeEEEvPKcS4_N2v85LocalINS5_6StringEEERKNS5_20PropertyCallbackInfoINS5_5ValueEEE(i8* getelementptr inbounds ([10 x i8], [10 x i8]* @.str.25, i64 0, i64 0), i8* getelementptr inbounds ([6 x i8], [6 x i8]* @_ZN9CJS_Field5kNameE, i64 0, i64 0), %"class.v8::String"* %0, %"class.v8::PropertyCallbackInfo"* dereferenceable(8) %1)
  ret void
}

; Function Attrs: nounwind ssp uwtable
define linkonce_odr hidden void @_ZN9CJS_Field21set_line_width_staticEN2v85LocalINS0_6StringEEENS1_INS0_5ValueEEERKNS0_20PropertyCallbackInfoIvEE(%"class.v8::String"*, %"class.v8::Value"*, %"class.v8::PropertyCallbackInfo.1"* dereferenceable(8)) #0 comdat align 2 {
  tail call void @_Z12JSPropSetterI9CJS_FieldXadL_ZNS0_14set_line_widthEP11CJS_RuntimeN2v85LocalINS3_5ValueEEEEEEvPKcS8_NS4_INS3_6StringEEES6_RKNS3_20PropertyCallbackInfoIvEE(i8* getelementptr inbounds ([10 x i8], [10 x i8]* @.str.25, i64 0, i64 0), i8* getelementptr inbounds ([6 x i8], [6 x i8]* @_ZN9CJS_Field5kNameE, i64 0, i64 0), %"class.v8::String"* %0, %"class.v8::Value"* %1, %"class.v8::PropertyCallbackInfo.1"* dereferenceable(8) %2)
  ret void
}

; Function Attrs: nounwind ssp uwtable
define linkonce_odr hidden void @_ZN9CJS_Field20get_highlight_staticEN2v85LocalINS0_6StringEEERKNS0_20PropertyCallbackInfoINS0_5ValueEEE(%"class.v8::String"*, %"class.v8::PropertyCallbackInfo"* dereferenceable(8)) #0 comdat align 2 {
  tail call void @_Z12JSPropGetterI9CJS_FieldXadL_ZNS0_13get_highlightEP11CJS_RuntimeEEEvPKcS4_N2v85LocalINS5_6StringEEERKNS5_20PropertyCallbackInfoINS5_5ValueEEE(i8* getelementptr inbounds ([10 x i8], [10 x i8]* @.str.26, i64 0, i64 0), i8* getelementptr inbounds ([6 x i8], [6 x i8]* @_ZN9CJS_Field5kNameE, i64 0, i64 0), %"class.v8::String"* %0, %"class.v8::PropertyCallbackInfo"* dereferenceable(8) %1)
  ret void
}

; Function Attrs: nounwind ssp uwtable
define linkonce_odr hidden void @_ZN9CJS_Field20set_highlight_staticEN2v85LocalINS0_6StringEEENS1_INS0_5ValueEEERKNS0_20PropertyCallbackInfoIvEE(%"class.v8::String"*, %"class.v8::Value"*, %"class.v8::PropertyCallbackInfo.1"* dereferenceable(8)) #0 comdat align 2 {
  tail call void @_Z12JSPropSetterI9CJS_FieldXadL_ZNS0_13set_highlightEP11CJS_RuntimeN2v85LocalINS3_5ValueEEEEEEvPKcS8_NS4_INS3_6StringEEES6_RKNS3_20PropertyCallbackInfoIvEE(i8* getelementptr inbounds ([10 x i8], [10 x i8]* @.str.26, i64 0, i64 0), i8* getelementptr inbounds ([6 x i8], [6 x i8]* @_ZN9CJS_Field5kNameE, i64 0, i64 0), %"class.v8::String"* %0, %"class.v8::Value"* %1, %"class.v8::PropertyCallbackInfo.1"* dereferenceable(8) %2)
  ret void
}

; Function Attrs: nounwind ssp uwtable
define linkonce_odr hidden void @_ZN9CJS_Field20get_multiline_staticEN2v85LocalINS0_6StringEEERKNS0_20PropertyCallbackInfoINS0_5ValueEEE(%"class.v8::String"*, %"class.v8::PropertyCallbackInfo"* dereferenceable(8)) #0 comdat align 2 {
  tail call void @_Z12JSPropGetterI9CJS_FieldXadL_ZNS0_13get_multilineEP11CJS_RuntimeEEEvPKcS4_N2v85LocalINS5_6StringEEERKNS5_20PropertyCallbackInfoINS5_5ValueEEE(i8* getelementptr inbounds ([10 x i8], [10 x i8]* @.str.27, i64 0, i64 0), i8* getelementptr inbounds ([6 x i8], [6 x i8]* @_ZN9CJS_Field5kNameE, i64 0, i64 0), %"class.v8::String"* %0, %"class.v8::PropertyCallbackInfo"* dereferenceable(8) %1)
  ret void
}

; Function Attrs: nounwind ssp uwtable
define linkonce_odr hidden void @_ZN9CJS_Field20set_multiline_staticEN2v85LocalINS0_6StringEEENS1_INS0_5ValueEEERKNS0_20PropertyCallbackInfoIvEE(%"class.v8::String"*, %"class.v8::Value"*, %"class.v8::PropertyCallbackInfo.1"* dereferenceable(8)) #0 comdat align 2 {
  tail call void @_Z12JSPropSetterI9CJS_FieldXadL_ZNS0_13set_multilineEP11CJS_RuntimeN2v85LocalINS3_5ValueEEEEEEvPKcS8_NS4_INS3_6StringEEES6_RKNS3_20PropertyCallbackInfoIvEE(i8* getelementptr inbounds ([10 x i8], [10 x i8]* @.str.27, i64 0, i64 0), i8* getelementptr inbounds ([6 x i8], [6 x i8]* @_ZN9CJS_Field5kNameE, i64 0, i64 0), %"class.v8::String"* %0, %"class.v8::Value"* %1, %"class.v8::PropertyCallbackInfo.1"* dereferenceable(8) %2)
  ret void
}

; Function Attrs: nounwind ssp uwtable
define linkonce_odr hidden void @_ZN9CJS_Field29get_multiple_selection_staticEN2v85LocalINS0_6StringEEERKNS0_20PropertyCallbackInfoINS0_5ValueEEE(%"class.v8::String"*, %"class.v8::PropertyCallbackInfo"* dereferenceable(8)) #0 comdat align 2 {
  tail call void @_Z12JSPropGetterI9CJS_FieldXadL_ZNS0_22get_multiple_selectionEP11CJS_RuntimeEEEvPKcS4_N2v85LocalINS5_6StringEEERKNS5_20PropertyCallbackInfoINS5_5ValueEEE(i8* getelementptr inbounds ([18 x i8], [18 x i8]* @.str.28, i64 0, i64 0), i8* getelementptr inbounds ([6 x i8], [6 x i8]* @_ZN9CJS_Field5kNameE, i64 0, i64 0), %"class.v8::String"* %0, %"class.v8::PropertyCallbackInfo"* dereferenceable(8) %1)
  ret void
}

; Function Attrs: nounwind ssp uwtable
define linkonce_odr hidden void @_ZN9CJS_Field29set_multiple_selection_staticEN2v85LocalINS0_6StringEEENS1_INS0_5ValueEEERKNS0_20PropertyCallbackInfoIvEE(%"class.v8::String"*, %"class.v8::Value"*, %"class.v8::PropertyCallbackInfo.1"* dereferenceable(8)) #0 comdat align 2 {
  tail call void @_Z12JSPropSetterI9CJS_FieldXadL_ZNS0_22set_multiple_selectionEP11CJS_RuntimeN2v85LocalINS3_5ValueEEEEEEvPKcS8_NS4_INS3_6StringEEES6_RKNS3_20PropertyCallbackInfoIvEE(i8* getelementptr inbounds ([18 x i8], [18 x i8]* @.str.28, i64 0, i64 0), i8* getelementptr inbounds ([6 x i8], [6 x i8]* @_ZN9CJS_Field5kNameE, i64 0, i64 0), %"class.v8::String"* %0, %"class.v8::Value"* %1, %"class.v8::PropertyCallbackInfo.1"* dereferenceable(8) %2)
  ret void
}

; Function Attrs: nounwind ssp uwtable
define linkonce_odr hidden void @_ZN9CJS_Field15get_name_staticEN2v85LocalINS0_6StringEEERKNS0_20PropertyCallbackInfoINS0_5ValueEEE(%"class.v8::String"*, %"class.v8::PropertyCallbackInfo"* dereferenceable(8)) #0 comdat align 2 {
  tail call void @_Z12JSPropGetterI9CJS_FieldXadL_ZNS0_8get_nameEP11CJS_RuntimeEEEvPKcS4_N2v85LocalINS5_6StringEEERKNS5_20PropertyCallbackInfoINS5_5ValueEEE(i8* getelementptr inbounds ([5 x i8], [5 x i8]* @.str.29, i64 0, i64 0), i8* getelementptr inbounds ([6 x i8], [6 x i8]* @_ZN9CJS_Field5kNameE, i64 0, i64 0), %"class.v8::String"* %0, %"class.v8::PropertyCallbackInfo"* dereferenceable(8) %1)
  ret void
}

; Function Attrs: nounwind ssp uwtable
define linkonce_odr hidden void @_ZN9CJS_Field15set_name_staticEN2v85LocalINS0_6StringEEENS1_INS0_5ValueEEERKNS0_20PropertyCallbackInfoIvEE(%"class.v8::String"*, %"class.v8::Value"*, %"class.v8::PropertyCallbackInfo.1"* dereferenceable(8)) #0 comdat align 2 {
  tail call void @_Z12JSPropSetterI9CJS_FieldXadL_ZNS0_8set_nameEP11CJS_RuntimeN2v85LocalINS3_5ValueEEEEEEvPKcS8_NS4_INS3_6StringEEES6_RKNS3_20PropertyCallbackInfoIvEE(i8* getelementptr inbounds ([5 x i8], [5 x i8]* @.str.29, i64 0, i64 0), i8* getelementptr inbounds ([6 x i8], [6 x i8]* @_ZN9CJS_Field5kNameE, i64 0, i64 0), %"class.v8::String"* %0, %"class.v8::Value"* %1, %"class.v8::PropertyCallbackInfo.1"* dereferenceable(8) %2)
  ret void
}

; Function Attrs: nounwind ssp uwtable
define linkonce_odr hidden void @_ZN9CJS_Field20get_num_items_staticEN2v85LocalINS0_6StringEEERKNS0_20PropertyCallbackInfoINS0_5ValueEEE(%"class.v8::String"*, %"class.v8::PropertyCallbackInfo"* dereferenceable(8)) #0 comdat align 2 {
  tail call void @_Z12JSPropGetterI9CJS_FieldXadL_ZNS0_13get_num_itemsEP11CJS_RuntimeEEEvPKcS4_N2v85LocalINS5_6StringEEERKNS5_20PropertyCallbackInfoINS5_5ValueEEE(i8* getelementptr inbounds ([9 x i8], [9 x i8]* @.str.30, i64 0, i64 0), i8* getelementptr inbounds ([6 x i8], [6 x i8]* @_ZN9CJS_Field5kNameE, i64 0, i64 0), %"class.v8::String"* %0, %"class.v8::PropertyCallbackInfo"* dereferenceable(8) %1)
  ret void
}

; Function Attrs: nounwind ssp uwtable
define linkonce_odr hidden void @_ZN9CJS_Field20set_num_items_staticEN2v85LocalINS0_6StringEEENS1_INS0_5ValueEEERKNS0_20PropertyCallbackInfoIvEE(%"class.v8::String"*, %"class.v8::Value"*, %"class.v8::PropertyCallbackInfo.1"* dereferenceable(8)) #0 comdat align 2 {
  tail call void @_Z12JSPropSetterI9CJS_FieldXadL_ZNS0_13set_num_itemsEP11CJS_RuntimeN2v85LocalINS3_5ValueEEEEEEvPKcS8_NS4_INS3_6StringEEES6_RKNS3_20PropertyCallbackInfoIvEE(i8* getelementptr inbounds ([9 x i8], [9 x i8]* @.str.30, i64 0, i64 0), i8* getelementptr inbounds ([6 x i8], [6 x i8]* @_ZN9CJS_Field5kNameE, i64 0, i64 0), %"class.v8::String"* %0, %"class.v8::Value"* %1, %"class.v8::PropertyCallbackInfo.1"* dereferenceable(8) %2)
  ret void
}

; Function Attrs: nounwind ssp uwtable
define linkonce_odr hidden void @_ZN9CJS_Field15get_page_staticEN2v85LocalINS0_6StringEEERKNS0_20PropertyCallbackInfoINS0_5ValueEEE(%"class.v8::String"*, %"class.v8::PropertyCallbackInfo"* dereferenceable(8)) #0 comdat align 2 {
  tail call void @_Z12JSPropGetterI9CJS_FieldXadL_ZNS0_8get_pageEP11CJS_RuntimeEEEvPKcS4_N2v85LocalINS5_6StringEEERKNS5_20PropertyCallbackInfoINS5_5ValueEEE(i8* getelementptr inbounds ([5 x i8], [5 x i8]* @.str.31, i64 0, i64 0), i8* getelementptr inbounds ([6 x i8], [6 x i8]* @_ZN9CJS_Field5kNameE, i64 0, i64 0), %"class.v8::String"* %0, %"class.v8::PropertyCallbackInfo"* dereferenceable(8) %1)
  ret void
}

; Function Attrs: nounwind ssp uwtable
define linkonce_odr hidden void @_ZN9CJS_Field15set_page_staticEN2v85LocalINS0_6StringEEENS1_INS0_5ValueEEERKNS0_20PropertyCallbackInfoIvEE(%"class.v8::String"*, %"class.v8::Value"*, %"class.v8::PropertyCallbackInfo.1"* dereferenceable(8)) #0 comdat align 2 {
  tail call void @_Z12JSPropSetterI9CJS_FieldXadL_ZNS0_8set_pageEP11CJS_RuntimeN2v85LocalINS3_5ValueEEEEEEvPKcS8_NS4_INS3_6StringEEES6_RKNS3_20PropertyCallbackInfoIvEE(i8* getelementptr inbounds ([5 x i8], [5 x i8]* @.str.31, i64 0, i64 0), i8* getelementptr inbounds ([6 x i8], [6 x i8]* @_ZN9CJS_Field5kNameE, i64 0, i64 0), %"class.v8::String"* %0, %"class.v8::Value"* %1, %"class.v8::PropertyCallbackInfo.1"* dereferenceable(8) %2)
  ret void
}

; Function Attrs: nounwind ssp uwtable
define linkonce_odr hidden void @_ZN9CJS_Field19get_password_staticEN2v85LocalINS0_6StringEEERKNS0_20PropertyCallbackInfoINS0_5ValueEEE(%"class.v8::String"*, %"class.v8::PropertyCallbackInfo"* dereferenceable(8)) #0 comdat align 2 {
  tail call void @_Z12JSPropGetterI9CJS_FieldXadL_ZNS0_12get_passwordEP11CJS_RuntimeEEEvPKcS4_N2v85LocalINS5_6StringEEERKNS5_20PropertyCallbackInfoINS5_5ValueEEE(i8* getelementptr inbounds ([9 x i8], [9 x i8]* @.str.32, i64 0, i64 0), i8* getelementptr inbounds ([6 x i8], [6 x i8]* @_ZN9CJS_Field5kNameE, i64 0, i64 0), %"class.v8::String"* %0, %"class.v8::PropertyCallbackInfo"* dereferenceable(8) %1)
  ret void
}

; Function Attrs: nounwind ssp uwtable
define linkonce_odr hidden void @_ZN9CJS_Field19set_password_staticEN2v85LocalINS0_6StringEEENS1_INS0_5ValueEEERKNS0_20PropertyCallbackInfoIvEE(%"class.v8::String"*, %"class.v8::Value"*, %"class.v8::PropertyCallbackInfo.1"* dereferenceable(8)) #0 comdat align 2 {
  tail call void @_Z12JSPropSetterI9CJS_FieldXadL_ZNS0_12set_passwordEP11CJS_RuntimeN2v85LocalINS3_5ValueEEEEEEvPKcS8_NS4_INS3_6StringEEES6_RKNS3_20PropertyCallbackInfoIvEE(i8* getelementptr inbounds ([9 x i8], [9 x i8]* @.str.32, i64 0, i64 0), i8* getelementptr inbounds ([6 x i8], [6 x i8]* @_ZN9CJS_Field5kNameE, i64 0, i64 0), %"class.v8::String"* %0, %"class.v8::Value"* %1, %"class.v8::PropertyCallbackInfo.1"* dereferenceable(8) %2)
  ret void
}

; Function Attrs: nounwind ssp uwtable
define linkonce_odr hidden void @_ZN9CJS_Field16get_print_staticEN2v85LocalINS0_6StringEEERKNS0_20PropertyCallbackInfoINS0_5ValueEEE(%"class.v8::String"*, %"class.v8::PropertyCallbackInfo"* dereferenceable(8)) #0 comdat align 2 {
  tail call void @_Z12JSPropGetterI9CJS_FieldXadL_ZNS0_9get_printEP11CJS_RuntimeEEEvPKcS4_N2v85LocalINS5_6StringEEERKNS5_20PropertyCallbackInfoINS5_5ValueEEE(i8* getelementptr inbounds ([6 x i8], [6 x i8]* @.str.33, i64 0, i64 0), i8* getelementptr inbounds ([6 x i8], [6 x i8]* @_ZN9CJS_Field5kNameE, i64 0, i64 0), %"class.v8::String"* %0, %"class.v8::PropertyCallbackInfo"* dereferenceable(8) %1)
  ret void
}

; Function Attrs: nounwind ssp uwtable
define linkonce_odr hidden void @_ZN9CJS_Field16set_print_staticEN2v85LocalINS0_6StringEEENS1_INS0_5ValueEEERKNS0_20PropertyCallbackInfoIvEE(%"class.v8::String"*, %"class.v8::Value"*, %"class.v8::PropertyCallbackInfo.1"* dereferenceable(8)) #0 comdat align 2 {
  tail call void @_Z12JSPropSetterI9CJS_FieldXadL_ZNS0_9set_printEP11CJS_RuntimeN2v85LocalINS3_5ValueEEEEEEvPKcS8_NS4_INS3_6StringEEES6_RKNS3_20PropertyCallbackInfoIvEE(i8* getelementptr inbounds ([6 x i8], [6 x i8]* @.str.33, i64 0, i64 0), i8* getelementptr inbounds ([6 x i8], [6 x i8]* @_ZN9CJS_Field5kNameE, i64 0, i64 0), %"class.v8::String"* %0, %"class.v8::Value"* %1, %"class.v8::PropertyCallbackInfo.1"* dereferenceable(8) %2)
  ret void
}

; Function Attrs: nounwind ssp uwtable
define linkonce_odr hidden void @_ZN9CJS_Field27get_radios_in_unison_staticEN2v85LocalINS0_6StringEEERKNS0_20PropertyCallbackInfoINS0_5ValueEEE(%"class.v8::String"*, %"class.v8::PropertyCallbackInfo"* dereferenceable(8)) #0 comdat align 2 {
  tail call void @_Z12JSPropGetterI9CJS_FieldXadL_ZNS0_20get_radios_in_unisonEP11CJS_RuntimeEEEvPKcS4_N2v85LocalINS5_6StringEEERKNS5_20PropertyCallbackInfoINS5_5ValueEEE(i8* getelementptr inbounds ([15 x i8], [15 x i8]* @.str.34, i64 0, i64 0), i8* getelementptr inbounds ([6 x i8], [6 x i8]* @_ZN9CJS_Field5kNameE, i64 0, i64 0), %"class.v8::String"* %0, %"class.v8::PropertyCallbackInfo"* dereferenceable(8) %1)
  ret void
}

; Function Attrs: nounwind ssp uwtable
define linkonce_odr hidden void @_ZN9CJS_Field27set_radios_in_unison_staticEN2v85LocalINS0_6StringEEENS1_INS0_5ValueEEERKNS0_20PropertyCallbackInfoIvEE(%"class.v8::String"*, %"class.v8::Value"*, %"class.v8::PropertyCallbackInfo.1"* dereferenceable(8)) #0 comdat align 2 {
  tail call void @_Z12JSPropSetterI9CJS_FieldXadL_ZNS0_20set_radios_in_unisonEP11CJS_RuntimeN2v85LocalINS3_5ValueEEEEEEvPKcS8_NS4_INS3_6StringEEES6_RKNS3_20PropertyCallbackInfoIvEE(i8* getelementptr inbounds ([15 x i8], [15 x i8]* @.str.34, i64 0, i64 0), i8* getelementptr inbounds ([6 x i8], [6 x i8]* @_ZN9CJS_Field5kNameE, i64 0, i64 0), %"class.v8::String"* %0, %"class.v8::Value"* %1, %"class.v8::PropertyCallbackInfo.1"* dereferenceable(8) %2)
  ret void
}

; Function Attrs: nounwind ssp uwtable
define linkonce_odr hidden void @_ZN9CJS_Field19get_readonly_staticEN2v85LocalINS0_6StringEEERKNS0_20PropertyCallbackInfoINS0_5ValueEEE(%"class.v8::String"*, %"class.v8::PropertyCallbackInfo"* dereferenceable(8)) #0 comdat align 2 {
  tail call void @_Z12JSPropGetterI9CJS_FieldXadL_ZNS0_12get_readonlyEP11CJS_RuntimeEEEvPKcS4_N2v85LocalINS5_6StringEEERKNS5_20PropertyCallbackInfoINS5_5ValueEEE(i8* getelementptr inbounds ([9 x i8], [9 x i8]* @.str.35, i64 0, i64 0), i8* getelementptr inbounds ([6 x i8], [6 x i8]* @_ZN9CJS_Field5kNameE, i64 0, i64 0), %"class.v8::String"* %0, %"class.v8::PropertyCallbackInfo"* dereferenceable(8) %1)
  ret void
}

; Function Attrs: nounwind ssp uwtable
define linkonce_odr hidden void @_ZN9CJS_Field19set_readonly_staticEN2v85LocalINS0_6StringEEENS1_INS0_5ValueEEERKNS0_20PropertyCallbackInfoIvEE(%"class.v8::String"*, %"class.v8::Value"*, %"class.v8::PropertyCallbackInfo.1"* dereferenceable(8)) #0 comdat align 2 {
  tail call void @_Z12JSPropSetterI9CJS_FieldXadL_ZNS0_12set_readonlyEP11CJS_RuntimeN2v85LocalINS3_5ValueEEEEEEvPKcS8_NS4_INS3_6StringEEES6_RKNS3_20PropertyCallbackInfoIvEE(i8* getelementptr inbounds ([9 x i8], [9 x i8]* @.str.35, i64 0, i64 0), i8* getelementptr inbounds ([6 x i8], [6 x i8]* @_ZN9CJS_Field5kNameE, i64 0, i64 0), %"class.v8::String"* %0, %"class.v8::Value"* %1, %"class.v8::PropertyCallbackInfo.1"* dereferenceable(8) %2)
  ret void
}

; Function Attrs: nounwind ssp uwtable
define linkonce_odr hidden void @_ZN9CJS_Field15get_rect_staticEN2v85LocalINS0_6StringEEERKNS0_20PropertyCallbackInfoINS0_5ValueEEE(%"class.v8::String"*, %"class.v8::PropertyCallbackInfo"* dereferenceable(8)) #0 comdat align 2 {
  tail call void @_Z12JSPropGetterI9CJS_FieldXadL_ZNS0_8get_rectEP11CJS_RuntimeEEEvPKcS4_N2v85LocalINS5_6StringEEERKNS5_20PropertyCallbackInfoINS5_5ValueEEE(i8* getelementptr inbounds ([5 x i8], [5 x i8]* @.str.36, i64 0, i64 0), i8* getelementptr inbounds ([6 x i8], [6 x i8]* @_ZN9CJS_Field5kNameE, i64 0, i64 0), %"class.v8::String"* %0, %"class.v8::PropertyCallbackInfo"* dereferenceable(8) %1)
  ret void
}

; Function Attrs: nounwind ssp uwtable
define linkonce_odr hidden void @_ZN9CJS_Field15set_rect_staticEN2v85LocalINS0_6StringEEENS1_INS0_5ValueEEERKNS0_20PropertyCallbackInfoIvEE(%"class.v8::String"*, %"class.v8::Value"*, %"class.v8::PropertyCallbackInfo.1"* dereferenceable(8)) #0 comdat align 2 {
  tail call void @_Z12JSPropSetterI9CJS_FieldXadL_ZNS0_8set_rectEP11CJS_RuntimeN2v85LocalINS3_5ValueEEEEEEvPKcS8_NS4_INS3_6StringEEES6_RKNS3_20PropertyCallbackInfoIvEE(i8* getelementptr inbounds ([5 x i8], [5 x i8]* @.str.36, i64 0, i64 0), i8* getelementptr inbounds ([6 x i8], [6 x i8]* @_ZN9CJS_Field5kNameE, i64 0, i64 0), %"class.v8::String"* %0, %"class.v8::Value"* %1, %"class.v8::PropertyCallbackInfo.1"* dereferenceable(8) %2)
  ret void
}

; Function Attrs: nounwind ssp uwtable
define linkonce_odr hidden void @_ZN9CJS_Field19get_required_staticEN2v85LocalINS0_6StringEEERKNS0_20PropertyCallbackInfoINS0_5ValueEEE(%"class.v8::String"*, %"class.v8::PropertyCallbackInfo"* dereferenceable(8)) #0 comdat align 2 {
  tail call void @_Z12JSPropGetterI9CJS_FieldXadL_ZNS0_12get_requiredEP11CJS_RuntimeEEEvPKcS4_N2v85LocalINS5_6StringEEERKNS5_20PropertyCallbackInfoINS5_5ValueEEE(i8* getelementptr inbounds ([9 x i8], [9 x i8]* @.str.37, i64 0, i64 0), i8* getelementptr inbounds ([6 x i8], [6 x i8]* @_ZN9CJS_Field5kNameE, i64 0, i64 0), %"class.v8::String"* %0, %"class.v8::PropertyCallbackInfo"* dereferenceable(8) %1)
  ret void
}

; Function Attrs: nounwind ssp uwtable
define linkonce_odr hidden void @_ZN9CJS_Field19set_required_staticEN2v85LocalINS0_6StringEEENS1_INS0_5ValueEEERKNS0_20PropertyCallbackInfoIvEE(%"class.v8::String"*, %"class.v8::Value"*, %"class.v8::PropertyCallbackInfo.1"* dereferenceable(8)) #0 comdat align 2 {
  tail call void @_Z12JSPropSetterI9CJS_FieldXadL_ZNS0_12set_requiredEP11CJS_RuntimeN2v85LocalINS3_5ValueEEEEEEvPKcS8_NS4_INS3_6StringEEES6_RKNS3_20PropertyCallbackInfoIvEE(i8* getelementptr inbounds ([9 x i8], [9 x i8]* @.str.37, i64 0, i64 0), i8* getelementptr inbounds ([6 x i8], [6 x i8]* @_ZN9CJS_Field5kNameE, i64 0, i64 0), %"class.v8::String"* %0, %"class.v8::Value"* %1, %"class.v8::PropertyCallbackInfo.1"* dereferenceable(8) %2)
  ret void
}

; Function Attrs: nounwind ssp uwtable
define linkonce_odr hidden void @_ZN9CJS_Field20get_rich_text_staticEN2v85LocalINS0_6StringEEERKNS0_20PropertyCallbackInfoINS0_5ValueEEE(%"class.v8::String"*, %"class.v8::PropertyCallbackInfo"* dereferenceable(8)) #0 comdat align 2 {
  tail call void @_Z12JSPropGetterI9CJS_FieldXadL_ZNS0_13get_rich_textEP11CJS_RuntimeEEEvPKcS4_N2v85LocalINS5_6StringEEERKNS5_20PropertyCallbackInfoINS5_5ValueEEE(i8* getelementptr inbounds ([9 x i8], [9 x i8]* @.str.38, i64 0, i64 0), i8* getelementptr inbounds ([6 x i8], [6 x i8]* @_ZN9CJS_Field5kNameE, i64 0, i64 0), %"class.v8::String"* %0, %"class.v8::PropertyCallbackInfo"* dereferenceable(8) %1)
  ret void
}

; Function Attrs: nounwind ssp uwtable
define linkonce_odr hidden void @_ZN9CJS_Field20set_rich_text_staticEN2v85LocalINS0_6StringEEENS1_INS0_5ValueEEERKNS0_20PropertyCallbackInfoIvEE(%"class.v8::String"*, %"class.v8::Value"*, %"class.v8::PropertyCallbackInfo.1"* dereferenceable(8)) #0 comdat align 2 {
  tail call void @_Z12JSPropSetterI9CJS_FieldXadL_ZNS0_13set_rich_textEP11CJS_RuntimeN2v85LocalINS3_5ValueEEEEEEvPKcS8_NS4_INS3_6StringEEES6_RKNS3_20PropertyCallbackInfoIvEE(i8* getelementptr inbounds ([9 x i8], [9 x i8]* @.str.38, i64 0, i64 0), i8* getelementptr inbounds ([6 x i8], [6 x i8]* @_ZN9CJS_Field5kNameE, i64 0, i64 0), %"class.v8::String"* %0, %"class.v8::Value"* %1, %"class.v8::PropertyCallbackInfo.1"* dereferenceable(8) %2)
  ret void
}

; Function Attrs: nounwind ssp uwtable
define linkonce_odr hidden void @_ZN9CJS_Field21get_rich_value_staticEN2v85LocalINS0_6StringEEERKNS0_20PropertyCallbackInfoINS0_5ValueEEE(%"class.v8::String"*, %"class.v8::PropertyCallbackInfo"* dereferenceable(8)) #0 comdat align 2 {
  tail call void @_Z12JSPropGetterI9CJS_FieldXadL_ZNS0_14get_rich_valueEP11CJS_RuntimeEEEvPKcS4_N2v85LocalINS5_6StringEEERKNS5_20PropertyCallbackInfoINS5_5ValueEEE(i8* getelementptr inbounds ([10 x i8], [10 x i8]* @.str.39, i64 0, i64 0), i8* getelementptr inbounds ([6 x i8], [6 x i8]* @_ZN9CJS_Field5kNameE, i64 0, i64 0), %"class.v8::String"* %0, %"class.v8::PropertyCallbackInfo"* dereferenceable(8) %1)
  ret void
}

; Function Attrs: nounwind ssp uwtable
define linkonce_odr hidden void @_ZN9CJS_Field21set_rich_value_staticEN2v85LocalINS0_6StringEEENS1_INS0_5ValueEEERKNS0_20PropertyCallbackInfoIvEE(%"class.v8::String"*, %"class.v8::Value"*, %"class.v8::PropertyCallbackInfo.1"* dereferenceable(8)) #0 comdat align 2 {
  tail call void @_Z12JSPropSetterI9CJS_FieldXadL_ZNS0_14set_rich_valueEP11CJS_RuntimeN2v85LocalINS3_5ValueEEEEEEvPKcS8_NS4_INS3_6StringEEES6_RKNS3_20PropertyCallbackInfoIvEE(i8* getelementptr inbounds ([10 x i8], [10 x i8]* @.str.39, i64 0, i64 0), i8* getelementptr inbounds ([6 x i8], [6 x i8]* @_ZN9CJS_Field5kNameE, i64 0, i64 0), %"class.v8::String"* %0, %"class.v8::Value"* %1, %"class.v8::PropertyCallbackInfo.1"* dereferenceable(8) %2)
  ret void
}

; Function Attrs: nounwind ssp uwtable
define linkonce_odr hidden void @_ZN9CJS_Field19get_rotation_staticEN2v85LocalINS0_6StringEEERKNS0_20PropertyCallbackInfoINS0_5ValueEEE(%"class.v8::String"*, %"class.v8::PropertyCallbackInfo"* dereferenceable(8)) #0 comdat align 2 {
  tail call void @_Z12JSPropGetterI9CJS_FieldXadL_ZNS0_12get_rotationEP11CJS_RuntimeEEEvPKcS4_N2v85LocalINS5_6StringEEERKNS5_20PropertyCallbackInfoINS5_5ValueEEE(i8* getelementptr inbounds ([9 x i8], [9 x i8]* @.str.40, i64 0, i64 0), i8* getelementptr inbounds ([6 x i8], [6 x i8]* @_ZN9CJS_Field5kNameE, i64 0, i64 0), %"class.v8::String"* %0, %"class.v8::PropertyCallbackInfo"* dereferenceable(8) %1)
  ret void
}

; Function Attrs: nounwind ssp uwtable
define linkonce_odr hidden void @_ZN9CJS_Field19set_rotation_staticEN2v85LocalINS0_6StringEEENS1_INS0_5ValueEEERKNS0_20PropertyCallbackInfoIvEE(%"class.v8::String"*, %"class.v8::Value"*, %"class.v8::PropertyCallbackInfo.1"* dereferenceable(8)) #0 comdat align 2 {
  tail call void @_Z12JSPropSetterI9CJS_FieldXadL_ZNS0_12set_rotationEP11CJS_RuntimeN2v85LocalINS3_5ValueEEEEEEvPKcS8_NS4_INS3_6StringEEES6_RKNS3_20PropertyCallbackInfoIvEE(i8* getelementptr inbounds ([9 x i8], [9 x i8]* @.str.40, i64 0, i64 0), i8* getelementptr inbounds ([6 x i8], [6 x i8]* @_ZN9CJS_Field5kNameE, i64 0, i64 0), %"class.v8::String"* %0, %"class.v8::Value"* %1, %"class.v8::PropertyCallbackInfo.1"* dereferenceable(8) %2)
  ret void
}

; Function Attrs: nounwind ssp uwtable
define linkonce_odr hidden void @_ZN9CJS_Field17get_source_staticEN2v85LocalINS0_6StringEEERKNS0_20PropertyCallbackInfoINS0_5ValueEEE(%"class.v8::String"*, %"class.v8::PropertyCallbackInfo"* dereferenceable(8)) #0 comdat align 2 {
  tail call void @_Z12JSPropGetterI9CJS_FieldXadL_ZNS0_10get_sourceEP11CJS_RuntimeEEEvPKcS4_N2v85LocalINS5_6StringEEERKNS5_20PropertyCallbackInfoINS5_5ValueEEE(i8* getelementptr inbounds ([7 x i8], [7 x i8]* @.str.41, i64 0, i64 0), i8* getelementptr inbounds ([6 x i8], [6 x i8]* @_ZN9CJS_Field5kNameE, i64 0, i64 0), %"class.v8::String"* %0, %"class.v8::PropertyCallbackInfo"* dereferenceable(8) %1)
  ret void
}

; Function Attrs: nounwind ssp uwtable
define linkonce_odr hidden void @_ZN9CJS_Field17set_source_staticEN2v85LocalINS0_6StringEEENS1_INS0_5ValueEEERKNS0_20PropertyCallbackInfoIvEE(%"class.v8::String"*, %"class.v8::Value"*, %"class.v8::PropertyCallbackInfo.1"* dereferenceable(8)) #0 comdat align 2 {
  tail call void @_Z12JSPropSetterI9CJS_FieldXadL_ZNS0_10set_sourceEP11CJS_RuntimeN2v85LocalINS3_5ValueEEEEEEvPKcS8_NS4_INS3_6StringEEES6_RKNS3_20PropertyCallbackInfoIvEE(i8* getelementptr inbounds ([7 x i8], [7 x i8]* @.str.41, i64 0, i64 0), i8* getelementptr inbounds ([6 x i8], [6 x i8]* @_ZN9CJS_Field5kNameE, i64 0, i64 0), %"class.v8::String"* %0, %"class.v8::Value"* %1, %"class.v8::PropertyCallbackInfo.1"* dereferenceable(8) %2)
  ret void
}

; Function Attrs: nounwind ssp uwtable
define linkonce_odr hidden void @_ZN9CJS_Field23get_stroke_color_staticEN2v85LocalINS0_6StringEEERKNS0_20PropertyCallbackInfoINS0_5ValueEEE(%"class.v8::String"*, %"class.v8::PropertyCallbackInfo"* dereferenceable(8)) #0 comdat align 2 {
  tail call void @_Z12JSPropGetterI9CJS_FieldXadL_ZNS0_16get_stroke_colorEP11CJS_RuntimeEEEvPKcS4_N2v85LocalINS5_6StringEEERKNS5_20PropertyCallbackInfoINS5_5ValueEEE(i8* getelementptr inbounds ([12 x i8], [12 x i8]* @.str.42, i64 0, i64 0), i8* getelementptr inbounds ([6 x i8], [6 x i8]* @_ZN9CJS_Field5kNameE, i64 0, i64 0), %"class.v8::String"* %0, %"class.v8::PropertyCallbackInfo"* dereferenceable(8) %1)
  ret void
}

; Function Attrs: nounwind ssp uwtable
define linkonce_odr hidden void @_ZN9CJS_Field23set_stroke_color_staticEN2v85LocalINS0_6StringEEENS1_INS0_5ValueEEERKNS0_20PropertyCallbackInfoIvEE(%"class.v8::String"*, %"class.v8::Value"*, %"class.v8::PropertyCallbackInfo.1"* dereferenceable(8)) #0 comdat align 2 {
  tail call void @_Z12JSPropSetterI9CJS_FieldXadL_ZNS0_16set_stroke_colorEP11CJS_RuntimeN2v85LocalINS3_5ValueEEEEEEvPKcS8_NS4_INS3_6StringEEES6_RKNS3_20PropertyCallbackInfoIvEE(i8* getelementptr inbounds ([12 x i8], [12 x i8]* @.str.42, i64 0, i64 0), i8* getelementptr inbounds ([6 x i8], [6 x i8]* @_ZN9CJS_Field5kNameE, i64 0, i64 0), %"class.v8::String"* %0, %"class.v8::Value"* %1, %"class.v8::PropertyCallbackInfo.1"* dereferenceable(8) %2)
  ret void
}

; Function Attrs: nounwind ssp uwtable
define linkonce_odr hidden void @_ZN9CJS_Field16get_style_staticEN2v85LocalINS0_6StringEEERKNS0_20PropertyCallbackInfoINS0_5ValueEEE(%"class.v8::String"*, %"class.v8::PropertyCallbackInfo"* dereferenceable(8)) #0 comdat align 2 {
  tail call void @_Z12JSPropGetterI9CJS_FieldXadL_ZNS0_9get_styleEP11CJS_RuntimeEEEvPKcS4_N2v85LocalINS5_6StringEEERKNS5_20PropertyCallbackInfoINS5_5ValueEEE(i8* getelementptr inbounds ([6 x i8], [6 x i8]* @.str.43, i64 0, i64 0), i8* getelementptr inbounds ([6 x i8], [6 x i8]* @_ZN9CJS_Field5kNameE, i64 0, i64 0), %"class.v8::String"* %0, %"class.v8::PropertyCallbackInfo"* dereferenceable(8) %1)
  ret void
}

; Function Attrs: nounwind ssp uwtable
define linkonce_odr hidden void @_ZN9CJS_Field16set_style_staticEN2v85LocalINS0_6StringEEENS1_INS0_5ValueEEERKNS0_20PropertyCallbackInfoIvEE(%"class.v8::String"*, %"class.v8::Value"*, %"class.v8::PropertyCallbackInfo.1"* dereferenceable(8)) #0 comdat align 2 {
  tail call void @_Z12JSPropSetterI9CJS_FieldXadL_ZNS0_9set_styleEP11CJS_RuntimeN2v85LocalINS3_5ValueEEEEEEvPKcS8_NS4_INS3_6StringEEES6_RKNS3_20PropertyCallbackInfoIvEE(i8* getelementptr inbounds ([6 x i8], [6 x i8]* @.str.43, i64 0, i64 0), i8* getelementptr inbounds ([6 x i8], [6 x i8]* @_ZN9CJS_Field5kNameE, i64 0, i64 0), %"class.v8::String"* %0, %"class.v8::Value"* %1, %"class.v8::PropertyCallbackInfo.1"* dereferenceable(8) %2)
  ret void
}

; Function Attrs: nounwind ssp uwtable
define linkonce_odr hidden void @_ZN9CJS_Field22get_submit_name_staticEN2v85LocalINS0_6StringEEERKNS0_20PropertyCallbackInfoINS0_5ValueEEE(%"class.v8::String"*, %"class.v8::PropertyCallbackInfo"* dereferenceable(8)) #0 comdat align 2 {
  tail call void @_Z12JSPropGetterI9CJS_FieldXadL_ZNS0_15get_submit_nameEP11CJS_RuntimeEEEvPKcS4_N2v85LocalINS5_6StringEEERKNS5_20PropertyCallbackInfoINS5_5ValueEEE(i8* getelementptr inbounds ([11 x i8], [11 x i8]* @.str.44, i64 0, i64 0), i8* getelementptr inbounds ([6 x i8], [6 x i8]* @_ZN9CJS_Field5kNameE, i64 0, i64 0), %"class.v8::String"* %0, %"class.v8::PropertyCallbackInfo"* dereferenceable(8) %1)
  ret void
}

; Function Attrs: nounwind ssp uwtable
define linkonce_odr hidden void @_ZN9CJS_Field22set_submit_name_staticEN2v85LocalINS0_6StringEEENS1_INS0_5ValueEEERKNS0_20PropertyCallbackInfoIvEE(%"class.v8::String"*, %"class.v8::Value"*, %"class.v8::PropertyCallbackInfo.1"* dereferenceable(8)) #0 comdat align 2 {
  tail call void @_Z12JSPropSetterI9CJS_FieldXadL_ZNS0_15set_submit_nameEP11CJS_RuntimeN2v85LocalINS3_5ValueEEEEEEvPKcS8_NS4_INS3_6StringEEES6_RKNS3_20PropertyCallbackInfoIvEE(i8* getelementptr inbounds ([11 x i8], [11 x i8]* @.str.44, i64 0, i64 0), i8* getelementptr inbounds ([6 x i8], [6 x i8]* @_ZN9CJS_Field5kNameE, i64 0, i64 0), %"class.v8::String"* %0, %"class.v8::Value"* %1, %"class.v8::PropertyCallbackInfo.1"* dereferenceable(8) %2)
  ret void
}

; Function Attrs: nounwind ssp uwtable
define linkonce_odr hidden void @_ZN9CJS_Field21get_text_color_staticEN2v85LocalINS0_6StringEEERKNS0_20PropertyCallbackInfoINS0_5ValueEEE(%"class.v8::String"*, %"class.v8::PropertyCallbackInfo"* dereferenceable(8)) #0 comdat align 2 {
  tail call void @_Z12JSPropGetterI9CJS_FieldXadL_ZNS0_14get_text_colorEP11CJS_RuntimeEEEvPKcS4_N2v85LocalINS5_6StringEEERKNS5_20PropertyCallbackInfoINS5_5ValueEEE(i8* getelementptr inbounds ([10 x i8], [10 x i8]* @.str.45, i64 0, i64 0), i8* getelementptr inbounds ([6 x i8], [6 x i8]* @_ZN9CJS_Field5kNameE, i64 0, i64 0), %"class.v8::String"* %0, %"class.v8::PropertyCallbackInfo"* dereferenceable(8) %1)
  ret void
}

; Function Attrs: nounwind ssp uwtable
define linkonce_odr hidden void @_ZN9CJS_Field21set_text_color_staticEN2v85LocalINS0_6StringEEENS1_INS0_5ValueEEERKNS0_20PropertyCallbackInfoIvEE(%"class.v8::String"*, %"class.v8::Value"*, %"class.v8::PropertyCallbackInfo.1"* dereferenceable(8)) #0 comdat align 2 {
  tail call void @_Z12JSPropSetterI9CJS_FieldXadL_ZNS0_14set_text_colorEP11CJS_RuntimeN2v85LocalINS3_5ValueEEEEEEvPKcS8_NS4_INS3_6StringEEES6_RKNS3_20PropertyCallbackInfoIvEE(i8* getelementptr inbounds ([10 x i8], [10 x i8]* @.str.45, i64 0, i64 0), i8* getelementptr inbounds ([6 x i8], [6 x i8]* @_ZN9CJS_Field5kNameE, i64 0, i64 0), %"class.v8::String"* %0, %"class.v8::Value"* %1, %"class.v8::PropertyCallbackInfo.1"* dereferenceable(8) %2)
  ret void
}

; Function Attrs: nounwind ssp uwtable
define linkonce_odr hidden void @_ZN9CJS_Field20get_text_font_staticEN2v85LocalINS0_6StringEEERKNS0_20PropertyCallbackInfoINS0_5ValueEEE(%"class.v8::String"*, %"class.v8::PropertyCallbackInfo"* dereferenceable(8)) #0 comdat align 2 {
  tail call void @_Z12JSPropGetterI9CJS_FieldXadL_ZNS0_13get_text_fontEP11CJS_RuntimeEEEvPKcS4_N2v85LocalINS5_6StringEEERKNS5_20PropertyCallbackInfoINS5_5ValueEEE(i8* getelementptr inbounds ([9 x i8], [9 x i8]* @.str.46, i64 0, i64 0), i8* getelementptr inbounds ([6 x i8], [6 x i8]* @_ZN9CJS_Field5kNameE, i64 0, i64 0), %"class.v8::String"* %0, %"class.v8::PropertyCallbackInfo"* dereferenceable(8) %1)
  ret void
}

; Function Attrs: nounwind ssp uwtable
define linkonce_odr hidden void @_ZN9CJS_Field20set_text_font_staticEN2v85LocalINS0_6StringEEENS1_INS0_5ValueEEERKNS0_20PropertyCallbackInfoIvEE(%"class.v8::String"*, %"class.v8::Value"*, %"class.v8::PropertyCallbackInfo.1"* dereferenceable(8)) #0 comdat align 2 {
  tail call void @_Z12JSPropSetterI9CJS_FieldXadL_ZNS0_13set_text_fontEP11CJS_RuntimeN2v85LocalINS3_5ValueEEEEEEvPKcS8_NS4_INS3_6StringEEES6_RKNS3_20PropertyCallbackInfoIvEE(i8* getelementptr inbounds ([9 x i8], [9 x i8]* @.str.46, i64 0, i64 0), i8* getelementptr inbounds ([6 x i8], [6 x i8]* @_ZN9CJS_Field5kNameE, i64 0, i64 0), %"class.v8::String"* %0, %"class.v8::Value"* %1, %"class.v8::PropertyCallbackInfo.1"* dereferenceable(8) %2)
  ret void
}

; Function Attrs: nounwind ssp uwtable
define linkonce_odr hidden void @_ZN9CJS_Field20get_text_size_staticEN2v85LocalINS0_6StringEEERKNS0_20PropertyCallbackInfoINS0_5ValueEEE(%"class.v8::String"*, %"class.v8::PropertyCallbackInfo"* dereferenceable(8)) #0 comdat align 2 {
  tail call void @_Z12JSPropGetterI9CJS_FieldXadL_ZNS0_13get_text_sizeEP11CJS_RuntimeEEEvPKcS4_N2v85LocalINS5_6StringEEERKNS5_20PropertyCallbackInfoINS5_5ValueEEE(i8* getelementptr inbounds ([9 x i8], [9 x i8]* @.str.47, i64 0, i64 0), i8* getelementptr inbounds ([6 x i8], [6 x i8]* @_ZN9CJS_Field5kNameE, i64 0, i64 0), %"class.v8::String"* %0, %"class.v8::PropertyCallbackInfo"* dereferenceable(8) %1)
  ret void
}

; Function Attrs: nounwind ssp uwtable
define linkonce_odr hidden void @_ZN9CJS_Field20set_text_size_staticEN2v85LocalINS0_6StringEEENS1_INS0_5ValueEEERKNS0_20PropertyCallbackInfoIvEE(%"class.v8::String"*, %"class.v8::Value"*, %"class.v8::PropertyCallbackInfo.1"* dereferenceable(8)) #0 comdat align 2 {
  tail call void @_Z12JSPropSetterI9CJS_FieldXadL_ZNS0_13set_text_sizeEP11CJS_RuntimeN2v85LocalINS3_5ValueEEEEEEvPKcS8_NS4_INS3_6StringEEES6_RKNS3_20PropertyCallbackInfoIvEE(i8* getelementptr inbounds ([9 x i8], [9 x i8]* @.str.47, i64 0, i64 0), i8* getelementptr inbounds ([6 x i8], [6 x i8]* @_ZN9CJS_Field5kNameE, i64 0, i64 0), %"class.v8::String"* %0, %"class.v8::Value"* %1, %"class.v8::PropertyCallbackInfo.1"* dereferenceable(8) %2)
  ret void
}

; Function Attrs: nounwind ssp uwtable
define linkonce_odr hidden void @_ZN9CJS_Field15get_type_staticEN2v85LocalINS0_6StringEEERKNS0_20PropertyCallbackInfoINS0_5ValueEEE(%"class.v8::String"*, %"class.v8::PropertyCallbackInfo"* dereferenceable(8)) #0 comdat align 2 {
  tail call void @_Z12JSPropGetterI9CJS_FieldXadL_ZNS0_8get_typeEP11CJS_RuntimeEEEvPKcS4_N2v85LocalINS5_6StringEEERKNS5_20PropertyCallbackInfoINS5_5ValueEEE(i8* getelementptr inbounds ([5 x i8], [5 x i8]* @.str.48, i64 0, i64 0), i8* getelementptr inbounds ([6 x i8], [6 x i8]* @_ZN9CJS_Field5kNameE, i64 0, i64 0), %"class.v8::String"* %0, %"class.v8::PropertyCallbackInfo"* dereferenceable(8) %1)
  ret void
}

; Function Attrs: nounwind ssp uwtable
define linkonce_odr hidden void @_ZN9CJS_Field15set_type_staticEN2v85LocalINS0_6StringEEENS1_INS0_5ValueEEERKNS0_20PropertyCallbackInfoIvEE(%"class.v8::String"*, %"class.v8::Value"*, %"class.v8::PropertyCallbackInfo.1"* dereferenceable(8)) #0 comdat align 2 {
  tail call void @_Z12JSPropSetterI9CJS_FieldXadL_ZNS0_8set_typeEP11CJS_RuntimeN2v85LocalINS3_5ValueEEEEEEvPKcS8_NS4_INS3_6StringEEES6_RKNS3_20PropertyCallbackInfoIvEE(i8* getelementptr inbounds ([5 x i8], [5 x i8]* @.str.48, i64 0, i64 0), i8* getelementptr inbounds ([6 x i8], [6 x i8]* @_ZN9CJS_Field5kNameE, i64 0, i64 0), %"class.v8::String"* %0, %"class.v8::Value"* %1, %"class.v8::PropertyCallbackInfo.1"* dereferenceable(8) %2)
  ret void
}

; Function Attrs: nounwind ssp uwtable
define linkonce_odr hidden void @_ZN9CJS_Field20get_user_name_staticEN2v85LocalINS0_6StringEEERKNS0_20PropertyCallbackInfoINS0_5ValueEEE(%"class.v8::String"*, %"class.v8::PropertyCallbackInfo"* dereferenceable(8)) #0 comdat align 2 {
  tail call void @_Z12JSPropGetterI9CJS_FieldXadL_ZNS0_13get_user_nameEP11CJS_RuntimeEEEvPKcS4_N2v85LocalINS5_6StringEEERKNS5_20PropertyCallbackInfoINS5_5ValueEEE(i8* getelementptr inbounds ([9 x i8], [9 x i8]* @.str.49, i64 0, i64 0), i8* getelementptr inbounds ([6 x i8], [6 x i8]* @_ZN9CJS_Field5kNameE, i64 0, i64 0), %"class.v8::String"* %0, %"class.v8::PropertyCallbackInfo"* dereferenceable(8) %1)
  ret void
}

; Function Attrs: nounwind ssp uwtable
define linkonce_odr hidden void @_ZN9CJS_Field20set_user_name_staticEN2v85LocalINS0_6StringEEENS1_INS0_5ValueEEERKNS0_20PropertyCallbackInfoIvEE(%"class.v8::String"*, %"class.v8::Value"*, %"class.v8::PropertyCallbackInfo.1"* dereferenceable(8)) #0 comdat align 2 {
  tail call void @_Z12JSPropSetterI9CJS_FieldXadL_ZNS0_13set_user_nameEP11CJS_RuntimeN2v85LocalINS3_5ValueEEEEEEvPKcS8_NS4_INS3_6StringEEES6_RKNS3_20PropertyCallbackInfoIvEE(i8* getelementptr inbounds ([9 x i8], [9 x i8]* @.str.49, i64 0, i64 0), i8* getelementptr inbounds ([6 x i8], [6 x i8]* @_ZN9CJS_Field5kNameE, i64 0, i64 0), %"class.v8::String"* %0, %"class.v8::Value"* %1, %"class.v8::PropertyCallbackInfo.1"* dereferenceable(8) %2)
  ret void
}

; Function Attrs: nounwind ssp uwtable
define linkonce_odr hidden void @_ZN9CJS_Field16get_value_staticEN2v85LocalINS0_6StringEEERKNS0_20PropertyCallbackInfoINS0_5ValueEEE(%"class.v8::String"*, %"class.v8::PropertyCallbackInfo"* dereferenceable(8)) #0 comdat align 2 {
  tail call void @_Z12JSPropGetterI9CJS_FieldXadL_ZNS0_9get_valueEP11CJS_RuntimeEEEvPKcS4_N2v85LocalINS5_6StringEEERKNS5_20PropertyCallbackInfoINS5_5ValueEEE(i8* getelementptr inbounds ([6 x i8], [6 x i8]* @.str.50, i64 0, i64 0), i8* getelementptr inbounds ([6 x i8], [6 x i8]* @_ZN9CJS_Field5kNameE, i64 0, i64 0), %"class.v8::String"* %0, %"class.v8::PropertyCallbackInfo"* dereferenceable(8) %1)
  ret void
}

; Function Attrs: nounwind ssp uwtable
define linkonce_odr hidden void @_ZN9CJS_Field16set_value_staticEN2v85LocalINS0_6StringEEENS1_INS0_5ValueEEERKNS0_20PropertyCallbackInfoIvEE(%"class.v8::String"*, %"class.v8::Value"*, %"class.v8::PropertyCallbackInfo.1"* dereferenceable(8)) #0 comdat align 2 {
  tail call void @_Z12JSPropSetterI9CJS_FieldXadL_ZNS0_9set_valueEP11CJS_RuntimeN2v85LocalINS3_5ValueEEEEEEvPKcS8_NS4_INS3_6StringEEES6_RKNS3_20PropertyCallbackInfoIvEE(i8* getelementptr inbounds ([6 x i8], [6 x i8]* @.str.50, i64 0, i64 0), i8* getelementptr inbounds ([6 x i8], [6 x i8]* @_ZN9CJS_Field5kNameE, i64 0, i64 0), %"class.v8::String"* %0, %"class.v8::Value"* %1, %"class.v8::PropertyCallbackInfo.1"* dereferenceable(8) %2)
  ret void
}

; Function Attrs: nounwind ssp uwtable
define linkonce_odr hidden void @_ZN9CJS_Field26get_value_as_string_staticEN2v85LocalINS0_6StringEEERKNS0_20PropertyCallbackInfoINS0_5ValueEEE(%"class.v8::String"*, %"class.v8::PropertyCallbackInfo"* dereferenceable(8)) #0 comdat align 2 {
  tail call void @_Z12JSPropGetterI9CJS_FieldXadL_ZNS0_19get_value_as_stringEP11CJS_RuntimeEEEvPKcS4_N2v85LocalINS5_6StringEEERKNS5_20PropertyCallbackInfoINS5_5ValueEEE(i8* getelementptr inbounds ([14 x i8], [14 x i8]* @.str.51, i64 0, i64 0), i8* getelementptr inbounds ([6 x i8], [6 x i8]* @_ZN9CJS_Field5kNameE, i64 0, i64 0), %"class.v8::String"* %0, %"class.v8::PropertyCallbackInfo"* dereferenceable(8) %1)
  ret void
}

; Function Attrs: nounwind ssp uwtable
define linkonce_odr hidden void @_ZN9CJS_Field26set_value_as_string_staticEN2v85LocalINS0_6StringEEENS1_INS0_5ValueEEERKNS0_20PropertyCallbackInfoIvEE(%"class.v8::String"*, %"class.v8::Value"*, %"class.v8::PropertyCallbackInfo.1"* dereferenceable(8)) #0 comdat align 2 {
  tail call void @_Z12JSPropSetterI9CJS_FieldXadL_ZNS0_19set_value_as_stringEP11CJS_RuntimeN2v85LocalINS3_5ValueEEEEEEvPKcS8_NS4_INS3_6StringEEES6_RKNS3_20PropertyCallbackInfoIvEE(i8* getelementptr inbounds ([14 x i8], [14 x i8]* @.str.51, i64 0, i64 0), i8* getelementptr inbounds ([6 x i8], [6 x i8]* @_ZN9CJS_Field5kNameE, i64 0, i64 0), %"class.v8::String"* %0, %"class.v8::Value"* %1, %"class.v8::PropertyCallbackInfo.1"* dereferenceable(8) %2)
  ret void
}

; Function Attrs: nounwind ssp uwtable
define linkonce_odr hidden void @_ZN9CJS_Field28browseForFileToSubmit_staticERKN2v820FunctionCallbackInfoINS0_5ValueEEE(%"class.v8::FunctionCallbackInfo"* dereferenceable(24)) #0 comdat align 2 {
  tail call void @_Z8JSMethodI9CJS_FieldXadL_ZNS0_21browseForFileToSubmitEP11CJS_RuntimeRKNSt3__16vectorIN2v85LocalINS5_5ValueEEENS3_9allocatorIS8_EEEEEEEvPKcSF_RKNS5_20FunctionCallbackInfoIS7_EE(i8* getelementptr inbounds ([22 x i8], [22 x i8]* @.str.52, i64 0, i64 0), i8* getelementptr inbounds ([6 x i8], [6 x i8]* @_ZN9CJS_Field5kNameE, i64 0, i64 0), %"class.v8::FunctionCallbackInfo"* dereferenceable(24) %0)
  ret void
}

; Function Attrs: nounwind ssp uwtable
define linkonce_odr hidden void @_ZN9CJS_Field23buttonGetCaption_staticERKN2v820FunctionCallbackInfoINS0_5ValueEEE(%"class.v8::FunctionCallbackInfo"* dereferenceable(24)) #0 comdat align 2 {
  tail call void @_Z8JSMethodI9CJS_FieldXadL_ZNS0_16buttonGetCaptionEP11CJS_RuntimeRKNSt3__16vectorIN2v85LocalINS5_5ValueEEENS3_9allocatorIS8_EEEEEEEvPKcSF_RKNS5_20FunctionCallbackInfoIS7_EE(i8* getelementptr inbounds ([17 x i8], [17 x i8]* @.str.53, i64 0, i64 0), i8* getelementptr inbounds ([6 x i8], [6 x i8]* @_ZN9CJS_Field5kNameE, i64 0, i64 0), %"class.v8::FunctionCallbackInfo"* dereferenceable(24) %0)
  ret void
}

; Function Attrs: nounwind ssp uwtable
define linkonce_odr hidden void @_ZN9CJS_Field20buttonGetIcon_staticERKN2v820FunctionCallbackInfoINS0_5ValueEEE(%"class.v8::FunctionCallbackInfo"* dereferenceable(24)) #0 comdat align 2 {
  tail call void @_Z8JSMethodI9CJS_FieldXadL_ZNS0_13buttonGetIconEP11CJS_RuntimeRKNSt3__16vectorIN2v85LocalINS5_5ValueEEENS3_9allocatorIS8_EEEEEEEvPKcSF_RKNS5_20FunctionCallbackInfoIS7_EE(i8* getelementptr inbounds ([14 x i8], [14 x i8]* @.str.54, i64 0, i64 0), i8* getelementptr inbounds ([6 x i8], [6 x i8]* @_ZN9CJS_Field5kNameE, i64 0, i64 0), %"class.v8::FunctionCallbackInfo"* dereferenceable(24) %0)
  ret void
}

; Function Attrs: nounwind ssp uwtable
define linkonce_odr hidden void @_ZN9CJS_Field23buttonImportIcon_staticERKN2v820FunctionCallbackInfoINS0_5ValueEEE(%"class.v8::FunctionCallbackInfo"* dereferenceable(24)) #0 comdat align 2 {
  tail call void @_Z8JSMethodI9CJS_FieldXadL_ZNS0_16buttonImportIconEP11CJS_RuntimeRKNSt3__16vectorIN2v85LocalINS5_5ValueEEENS3_9allocatorIS8_EEEEEEEvPKcSF_RKNS5_20FunctionCallbackInfoIS7_EE(i8* getelementptr inbounds ([17 x i8], [17 x i8]* @.str.55, i64 0, i64 0), i8* getelementptr inbounds ([6 x i8], [6 x i8]* @_ZN9CJS_Field5kNameE, i64 0, i64 0), %"class.v8::FunctionCallbackInfo"* dereferenceable(24) %0)
  ret void
}

; Function Attrs: nounwind ssp uwtable
define linkonce_odr hidden void @_ZN9CJS_Field23buttonSetCaption_staticERKN2v820FunctionCallbackInfoINS0_5ValueEEE(%"class.v8::FunctionCallbackInfo"* dereferenceable(24)) #0 comdat align 2 {
  tail call void @_Z8JSMethodI9CJS_FieldXadL_ZNS0_16buttonSetCaptionEP11CJS_RuntimeRKNSt3__16vectorIN2v85LocalINS5_5ValueEEENS3_9allocatorIS8_EEEEEEEvPKcSF_RKNS5_20FunctionCallbackInfoIS7_EE(i8* getelementptr inbounds ([17 x i8], [17 x i8]* @.str.56, i64 0, i64 0), i8* getelementptr inbounds ([6 x i8], [6 x i8]* @_ZN9CJS_Field5kNameE, i64 0, i64 0), %"class.v8::FunctionCallbackInfo"* dereferenceable(24) %0)
  ret void
}

; Function Attrs: nounwind ssp uwtable
define linkonce_odr hidden void @_ZN9CJS_Field20buttonSetIcon_staticERKN2v820FunctionCallbackInfoINS0_5ValueEEE(%"class.v8::FunctionCallbackInfo"* dereferenceable(24)) #0 comdat align 2 {
  tail call void @_Z8JSMethodI9CJS_FieldXadL_ZNS0_13buttonSetIconEP11CJS_RuntimeRKNSt3__16vectorIN2v85LocalINS5_5ValueEEENS3_9allocatorIS8_EEEEEEEvPKcSF_RKNS5_20FunctionCallbackInfoIS7_EE(i8* getelementptr inbounds ([14 x i8], [14 x i8]* @.str.57, i64 0, i64 0), i8* getelementptr inbounds ([6 x i8], [6 x i8]* @_ZN9CJS_Field5kNameE, i64 0, i64 0), %"class.v8::FunctionCallbackInfo"* dereferenceable(24) %0)
  ret void
}

; Function Attrs: nounwind ssp uwtable
define linkonce_odr hidden void @_ZN9CJS_Field19checkThisBox_staticERKN2v820FunctionCallbackInfoINS0_5ValueEEE(%"class.v8::FunctionCallbackInfo"* dereferenceable(24)) #0 comdat align 2 {
  tail call void @_Z8JSMethodI9CJS_FieldXadL_ZNS0_12checkThisBoxEP11CJS_RuntimeRKNSt3__16vectorIN2v85LocalINS5_5ValueEEENS3_9allocatorIS8_EEEEEEEvPKcSF_RKNS5_20FunctionCallbackInfoIS7_EE(i8* getelementptr inbounds ([13 x i8], [13 x i8]* @.str.58, i64 0, i64 0), i8* getelementptr inbounds ([6 x i8], [6 x i8]* @_ZN9CJS_Field5kNameE, i64 0, i64 0), %"class.v8::FunctionCallbackInfo"* dereferenceable(24) %0)
  ret void
}

; Function Attrs: nounwind ssp uwtable
define linkonce_odr hidden void @_ZN9CJS_Field17clearItems_staticERKN2v820FunctionCallbackInfoINS0_5ValueEEE(%"class.v8::FunctionCallbackInfo"* dereferenceable(24)) #0 comdat align 2 {
  tail call void @_Z8JSMethodI9CJS_FieldXadL_ZNS0_10clearItemsEP11CJS_RuntimeRKNSt3__16vectorIN2v85LocalINS5_5ValueEEENS3_9allocatorIS8_EEEEEEEvPKcSF_RKNS5_20FunctionCallbackInfoIS7_EE(i8* getelementptr inbounds ([11 x i8], [11 x i8]* @.str.59, i64 0, i64 0), i8* getelementptr inbounds ([6 x i8], [6 x i8]* @_ZN9CJS_Field5kNameE, i64 0, i64 0), %"class.v8::FunctionCallbackInfo"* dereferenceable(24) %0)
  ret void
}

; Function Attrs: nounwind ssp uwtable
define linkonce_odr hidden void @_ZN9CJS_Field23defaultIsChecked_staticERKN2v820FunctionCallbackInfoINS0_5ValueEEE(%"class.v8::FunctionCallbackInfo"* dereferenceable(24)) #0 comdat align 2 {
  tail call void @_Z8JSMethodI9CJS_FieldXadL_ZNS0_16defaultIsCheckedEP11CJS_RuntimeRKNSt3__16vectorIN2v85LocalINS5_5ValueEEENS3_9allocatorIS8_EEEEEEEvPKcSF_RKNS5_20FunctionCallbackInfoIS7_EE(i8* getelementptr inbounds ([17 x i8], [17 x i8]* @.str.60, i64 0, i64 0), i8* getelementptr inbounds ([6 x i8], [6 x i8]* @_ZN9CJS_Field5kNameE, i64 0, i64 0), %"class.v8::FunctionCallbackInfo"* dereferenceable(24) %0)
  ret void
}

; Function Attrs: nounwind ssp uwtable
define linkonce_odr hidden void @_ZN9CJS_Field19deleteItemAt_staticERKN2v820FunctionCallbackInfoINS0_5ValueEEE(%"class.v8::FunctionCallbackInfo"* dereferenceable(24)) #0 comdat align 2 {
  tail call void @_Z8JSMethodI9CJS_FieldXadL_ZNS0_12deleteItemAtEP11CJS_RuntimeRKNSt3__16vectorIN2v85LocalINS5_5ValueEEENS3_9allocatorIS8_EEEEEEEvPKcSF_RKNS5_20FunctionCallbackInfoIS7_EE(i8* getelementptr inbounds ([13 x i8], [13 x i8]* @.str.61, i64 0, i64 0), i8* getelementptr inbounds ([6 x i8], [6 x i8]* @_ZN9CJS_Field5kNameE, i64 0, i64 0), %"class.v8::FunctionCallbackInfo"* dereferenceable(24) %0)
  ret void
}

; Function Attrs: nounwind ssp uwtable
define linkonce_odr hidden void @_ZN9CJS_Field15getArray_staticERKN2v820FunctionCallbackInfoINS0_5ValueEEE(%"class.v8::FunctionCallbackInfo"* dereferenceable(24)) #0 comdat align 2 {
  tail call void @_Z8JSMethodI9CJS_FieldXadL_ZNS0_8getArrayEP11CJS_RuntimeRKNSt3__16vectorIN2v85LocalINS5_5ValueEEENS3_9allocatorIS8_EEEEEEEvPKcSF_RKNS5_20FunctionCallbackInfoIS7_EE(i8* getelementptr inbounds ([9 x i8], [9 x i8]* @.str.62, i64 0, i64 0), i8* getelementptr inbounds ([6 x i8], [6 x i8]* @_ZN9CJS_Field5kNameE, i64 0, i64 0), %"class.v8::FunctionCallbackInfo"* dereferenceable(24) %0)
  ret void
}

; Function Attrs: nounwind ssp uwtable
define linkonce_odr hidden void @_ZN9CJS_Field16getItemAt_staticERKN2v820FunctionCallbackInfoINS0_5ValueEEE(%"class.v8::FunctionCallbackInfo"* dereferenceable(24)) #0 comdat align 2 {
  tail call void @_Z8JSMethodI9CJS_FieldXadL_ZNS0_9getItemAtEP11CJS_RuntimeRKNSt3__16vectorIN2v85LocalINS5_5ValueEEENS3_9allocatorIS8_EEEEEEEvPKcSF_RKNS5_20FunctionCallbackInfoIS7_EE(i8* getelementptr inbounds ([10 x i8], [10 x i8]* @.str.63, i64 0, i64 0), i8* getelementptr inbounds ([6 x i8], [6 x i8]* @_ZN9CJS_Field5kNameE, i64 0, i64 0), %"class.v8::FunctionCallbackInfo"* dereferenceable(24) %0)
  ret void
}

; Function Attrs: nounwind ssp uwtable
define linkonce_odr hidden void @_ZN9CJS_Field14getLock_staticERKN2v820FunctionCallbackInfoINS0_5ValueEEE(%"class.v8::FunctionCallbackInfo"* dereferenceable(24)) #0 comdat align 2 {
  tail call void @_Z8JSMethodI9CJS_FieldXadL_ZNS0_7getLockEP11CJS_RuntimeRKNSt3__16vectorIN2v85LocalINS5_5ValueEEENS3_9allocatorIS8_EEEEEEEvPKcSF_RKNS5_20FunctionCallbackInfoIS7_EE(i8* getelementptr inbounds ([8 x i8], [8 x i8]* @.str.64, i64 0, i64 0), i8* getelementptr inbounds ([6 x i8], [6 x i8]* @_ZN9CJS_Field5kNameE, i64 0, i64 0), %"class.v8::FunctionCallbackInfo"* dereferenceable(24) %0)
  ret void
}

; Function Attrs: nounwind ssp uwtable
define linkonce_odr hidden void @_ZN9CJS_Field19insertItemAt_staticERKN2v820FunctionCallbackInfoINS0_5ValueEEE(%"class.v8::FunctionCallbackInfo"* dereferenceable(24)) #0 comdat align 2 {
  tail call void @_Z8JSMethodI9CJS_FieldXadL_ZNS0_12insertItemAtEP11CJS_RuntimeRKNSt3__16vectorIN2v85LocalINS5_5ValueEEENS3_9allocatorIS8_EEEEEEEvPKcSF_RKNS5_20FunctionCallbackInfoIS7_EE(i8* getelementptr inbounds ([13 x i8], [13 x i8]* @.str.65, i64 0, i64 0), i8* getelementptr inbounds ([6 x i8], [6 x i8]* @_ZN9CJS_Field5kNameE, i64 0, i64 0), %"class.v8::FunctionCallbackInfo"* dereferenceable(24) %0)
  ret void
}

; Function Attrs: nounwind ssp uwtable
define linkonce_odr hidden void @_ZN9CJS_Field19isBoxChecked_staticERKN2v820FunctionCallbackInfoINS0_5ValueEEE(%"class.v8::FunctionCallbackInfo"* dereferenceable(24)) #0 comdat align 2 {
  tail call void @_Z8JSMethodI9CJS_FieldXadL_ZNS0_12isBoxCheckedEP11CJS_RuntimeRKNSt3__16vectorIN2v85LocalINS5_5ValueEEENS3_9allocatorIS8_EEEEEEEvPKcSF_RKNS5_20FunctionCallbackInfoIS7_EE(i8* getelementptr inbounds ([13 x i8], [13 x i8]* @.str.66, i64 0, i64 0), i8* getelementptr inbounds ([6 x i8], [6 x i8]* @_ZN9CJS_Field5kNameE, i64 0, i64 0), %"class.v8::FunctionCallbackInfo"* dereferenceable(24) %0)
  ret void
}

; Function Attrs: nounwind ssp uwtable
define linkonce_odr hidden void @_ZN9CJS_Field23isDefaultChecked_staticERKN2v820FunctionCallbackInfoINS0_5ValueEEE(%"class.v8::FunctionCallbackInfo"* dereferenceable(24)) #0 comdat align 2 {
  tail call void @_Z8JSMethodI9CJS_FieldXadL_ZNS0_16isDefaultCheckedEP11CJS_RuntimeRKNSt3__16vectorIN2v85LocalINS5_5ValueEEENS3_9allocatorIS8_EEEEEEEvPKcSF_RKNS5_20FunctionCallbackInfoIS7_EE(i8* getelementptr inbounds ([17 x i8], [17 x i8]* @.str.67, i64 0, i64 0), i8* getelementptr inbounds ([6 x i8], [6 x i8]* @_ZN9CJS_Field5kNameE, i64 0, i64 0), %"class.v8::FunctionCallbackInfo"* dereferenceable(24) %0)
  ret void
}

; Function Attrs: nounwind ssp uwtable
define linkonce_odr hidden void @_ZN9CJS_Field16setAction_staticERKN2v820FunctionCallbackInfoINS0_5ValueEEE(%"class.v8::FunctionCallbackInfo"* dereferenceable(24)) #0 comdat align 2 {
  tail call void @_Z8JSMethodI9CJS_FieldXadL_ZNS0_9setActionEP11CJS_RuntimeRKNSt3__16vectorIN2v85LocalINS5_5ValueEEENS3_9allocatorIS8_EEEEEEEvPKcSF_RKNS5_20FunctionCallbackInfoIS7_EE(i8* getelementptr inbounds ([10 x i8], [10 x i8]* @.str.68, i64 0, i64 0), i8* getelementptr inbounds ([6 x i8], [6 x i8]* @_ZN9CJS_Field5kNameE, i64 0, i64 0), %"class.v8::FunctionCallbackInfo"* dereferenceable(24) %0)
  ret void
}

; Function Attrs: nounwind ssp uwtable
define linkonce_odr hidden void @_ZN9CJS_Field15setFocus_staticERKN2v820FunctionCallbackInfoINS0_5ValueEEE(%"class.v8::FunctionCallbackInfo"* dereferenceable(24)) #0 comdat align 2 {
  tail call void @_Z8JSMethodI9CJS_FieldXadL_ZNS0_8setFocusEP11CJS_RuntimeRKNSt3__16vectorIN2v85LocalINS5_5ValueEEENS3_9allocatorIS8_EEEEEEEvPKcSF_RKNS5_20FunctionCallbackInfoIS7_EE(i8* getelementptr inbounds ([9 x i8], [9 x i8]* @.str.69, i64 0, i64 0), i8* getelementptr inbounds ([6 x i8], [6 x i8]* @_ZN9CJS_Field5kNameE, i64 0, i64 0), %"class.v8::FunctionCallbackInfo"* dereferenceable(24) %0)
  ret void
}

; Function Attrs: nounwind ssp uwtable
define linkonce_odr hidden void @_ZN9CJS_Field15setItems_staticERKN2v820FunctionCallbackInfoINS0_5ValueEEE(%"class.v8::FunctionCallbackInfo"* dereferenceable(24)) #0 comdat align 2 {
  tail call void @_Z8JSMethodI9CJS_FieldXadL_ZNS0_8setItemsEP11CJS_RuntimeRKNSt3__16vectorIN2v85LocalINS5_5ValueEEENS3_9allocatorIS8_EEEEEEEvPKcSF_RKNS5_20FunctionCallbackInfoIS7_EE(i8* getelementptr inbounds ([9 x i8], [9 x i8]* @.str.70, i64 0, i64 0), i8* getelementptr inbounds ([6 x i8], [6 x i8]* @_ZN9CJS_Field5kNameE, i64 0, i64 0), %"class.v8::FunctionCallbackInfo"* dereferenceable(24) %0)
  ret void
}

; Function Attrs: nounwind ssp uwtable
define linkonce_odr hidden void @_ZN9CJS_Field14setLock_staticERKN2v820FunctionCallbackInfoINS0_5ValueEEE(%"class.v8::FunctionCallbackInfo"* dereferenceable(24)) #0 comdat align 2 {
  tail call void @_Z8JSMethodI9CJS_FieldXadL_ZNS0_7setLockEP11CJS_RuntimeRKNSt3__16vectorIN2v85LocalINS5_5ValueEEENS3_9allocatorIS8_EEEEEEEvPKcSF_RKNS5_20FunctionCallbackInfoIS7_EE(i8* getelementptr inbounds ([8 x i8], [8 x i8]* @.str.71, i64 0, i64 0), i8* getelementptr inbounds ([6 x i8], [6 x i8]* @_ZN9CJS_Field5kNameE, i64 0, i64 0), %"class.v8::FunctionCallbackInfo"* dereferenceable(24) %0)
  ret void
}

; Function Attrs: nounwind ssp uwtable
define linkonce_odr hidden void @_ZN9CJS_Field32signatureGetModifications_staticERKN2v820FunctionCallbackInfoINS0_5ValueEEE(%"class.v8::FunctionCallbackInfo"* dereferenceable(24)) #0 comdat align 2 {
  tail call void @_Z8JSMethodI9CJS_FieldXadL_ZNS0_25signatureGetModificationsEP11CJS_RuntimeRKNSt3__16vectorIN2v85LocalINS5_5ValueEEENS3_9allocatorIS8_EEEEEEEvPKcSF_RKNS5_20FunctionCallbackInfoIS7_EE(i8* getelementptr inbounds ([26 x i8], [26 x i8]* @.str.72, i64 0, i64 0), i8* getelementptr inbounds ([6 x i8], [6 x i8]* @_ZN9CJS_Field5kNameE, i64 0, i64 0), %"class.v8::FunctionCallbackInfo"* dereferenceable(24) %0)
  ret void
}

; Function Attrs: nounwind ssp uwtable
define linkonce_odr hidden void @_ZN9CJS_Field28signatureGetSeedValue_staticERKN2v820FunctionCallbackInfoINS0_5ValueEEE(%"class.v8::FunctionCallbackInfo"* dereferenceable(24)) #0 comdat align 2 {
  tail call void @_Z8JSMethodI9CJS_FieldXadL_ZNS0_21signatureGetSeedValueEP11CJS_RuntimeRKNSt3__16vectorIN2v85LocalINS5_5ValueEEENS3_9allocatorIS8_EEEEEEEvPKcSF_RKNS5_20FunctionCallbackInfoIS7_EE(i8* getelementptr inbounds ([22 x i8], [22 x i8]* @.str.73, i64 0, i64 0), i8* getelementptr inbounds ([6 x i8], [6 x i8]* @_ZN9CJS_Field5kNameE, i64 0, i64 0), %"class.v8::FunctionCallbackInfo"* dereferenceable(24) %0)
  ret void
}

; Function Attrs: nounwind ssp uwtable
define linkonce_odr hidden void @_ZN9CJS_Field20signatureInfo_staticERKN2v820FunctionCallbackInfoINS0_5ValueEEE(%"class.v8::FunctionCallbackInfo"* dereferenceable(24)) #0 comdat align 2 {
  tail call void @_Z8JSMethodI9CJS_FieldXadL_ZNS0_13signatureInfoEP11CJS_RuntimeRKNSt3__16vectorIN2v85LocalINS5_5ValueEEENS3_9allocatorIS8_EEEEEEEvPKcSF_RKNS5_20FunctionCallbackInfoIS7_EE(i8* getelementptr inbounds ([14 x i8], [14 x i8]* @.str.74, i64 0, i64 0), i8* getelementptr inbounds ([6 x i8], [6 x i8]* @_ZN9CJS_Field5kNameE, i64 0, i64 0), %"class.v8::FunctionCallbackInfo"* dereferenceable(24) %0)
  ret void
}

; Function Attrs: nounwind ssp uwtable
define linkonce_odr hidden void @_ZN9CJS_Field28signatureSetSeedValue_staticERKN2v820FunctionCallbackInfoINS0_5ValueEEE(%"class.v8::FunctionCallbackInfo"* dereferenceable(24)) #0 comdat align 2 {
  tail call void @_Z8JSMethodI9CJS_FieldXadL_ZNS0_21signatureSetSeedValueEP11CJS_RuntimeRKNSt3__16vectorIN2v85LocalINS5_5ValueEEENS3_9allocatorIS8_EEEEEEEvPKcSF_RKNS5_20FunctionCallbackInfoIS7_EE(i8* getelementptr inbounds ([22 x i8], [22 x i8]* @.str.75, i64 0, i64 0), i8* getelementptr inbounds ([6 x i8], [6 x i8]* @_ZN9CJS_Field5kNameE, i64 0, i64 0), %"class.v8::FunctionCallbackInfo"* dereferenceable(24) %0)
  ret void
}

; Function Attrs: nounwind ssp uwtable
define linkonce_odr hidden void @_ZN9CJS_Field20signatureSign_staticERKN2v820FunctionCallbackInfoINS0_5ValueEEE(%"class.v8::FunctionCallbackInfo"* dereferenceable(24)) #0 comdat align 2 {
  tail call void @_Z8JSMethodI9CJS_FieldXadL_ZNS0_13signatureSignEP11CJS_RuntimeRKNSt3__16vectorIN2v85LocalINS5_5ValueEEENS3_9allocatorIS8_EEEEEEEvPKcSF_RKNS5_20FunctionCallbackInfoIS7_EE(i8* getelementptr inbounds ([14 x i8], [14 x i8]* @.str.76, i64 0, i64 0), i8* getelementptr inbounds ([6 x i8], [6 x i8]* @_ZN9CJS_Field5kNameE, i64 0, i64 0), %"class.v8::FunctionCallbackInfo"* dereferenceable(24) %0)
  ret void
}

; Function Attrs: nounwind ssp uwtable
define linkonce_odr hidden void @_ZN9CJS_Field24signatureValidate_staticERKN2v820FunctionCallbackInfoINS0_5ValueEEE(%"class.v8::FunctionCallbackInfo"* dereferenceable(24)) #0 comdat align 2 {
  tail call void @_Z8JSMethodI9CJS_FieldXadL_ZNS0_17signatureValidateEP11CJS_RuntimeRKNSt3__16vectorIN2v85LocalINS5_5ValueEEENS3_9allocatorIS8_EEEEEEEvPKcSF_RKNS5_20FunctionCallbackInfoIS7_EE(i8* getelementptr inbounds ([18 x i8], [18 x i8]* @.str.77, i64 0, i64 0), i8* getelementptr inbounds ([6 x i8], [6 x i8]* @_ZN9CJS_Field5kNameE, i64 0, i64 0), %"class.v8::FunctionCallbackInfo"* dereferenceable(24) %0)
  ret void
}

; Function Attrs: norecurse nounwind readonly ssp uwtable
define hidden i32 @_ZN9CJS_Field12GetObjDefnIDEv() local_unnamed_addr #1 align 2 {
  %1 = load i32, i32* @_ZN9CJS_Field9ObjDefnIDE, align 4
  ret i32 %1
}

; Function Attrs: nounwind ssp uwtable
define hidden void @_ZN9CJS_Field15DefineJSObjectsEP12CFXJS_Engine(%class.CFXJS_Engine*) local_unnamed_addr #0 align 2 {
  %2 = alloca %"class.std::__1::function", align 8
  %3 = alloca %"class.std::__1::function.15", align 8
  %4 = alloca %"class.pdfium::span", align 8
  %5 = alloca %"class.pdfium::span.21", align 8
  %6 = getelementptr inbounds %"class.std::__1::function", %"class.std::__1::function"* %2, i64 0, i32 0, i32 1, i32 0
  %7 = getelementptr inbounds %"class.std::__1::function", %"class.std::__1::function"* %2, i64 0, i32 0, i32 2
  store void (%"union.std::__1::__function::__policy_storage"*, %class.CFXJS_Engine*, %"class.v8::Local.14"*)* @_ZNSt3__110__function16__policy_invokerIFvP12CFXJS_EngineN2v85LocalINS4_6ObjectEEEEE11__call_implINS0_20__default_alloc_funcIPS8_S8_EEEEvPKNS0_16__policy_storageES3_OS7_, void (%"union.std::__1::__function::__policy_storage"*, %class.CFXJS_Engine*, %"class.v8::Local.14"*)** %6, align 8
  store %"struct.std::__1::__function::__policy"* @_ZZNSt3__110__function8__policy15__choose_policyINS0_20__default_alloc_funcIPFvP12CFXJS_EngineN2v85LocalINS6_6ObjectEEEESA_EEEEPKS1_NS_17integral_constantIbLb1EEEE9__policy_, %"struct.std::__1::__function::__policy"** %7, align 8
  %8 = bitcast %"class.std::__1::function"* %2 to i64*
  store i64 ptrtoint (void (%class.CFXJS_Engine*, %"class.v8::Object"*)* @_ZL13JSConstructorI9CJS_FieldEvP12CFXJS_EngineN2v85LocalINS3_6ObjectEEE to i64), i64* %8, align 8
  %9 = getelementptr inbounds %"class.std::__1::function.15", %"class.std::__1::function.15"* %3, i64 0, i32 0, i32 1, i32 0
  %10 = getelementptr inbounds %"class.std::__1::function.15", %"class.std::__1::function.15"* %3, i64 0, i32 0, i32 2
  store void (%"union.std::__1::__function::__policy_storage"*, %"class.v8::Local.14"*)* @_ZNSt3__110__function16__policy_invokerIFvN2v85LocalINS2_6ObjectEEEEE11__call_implINS0_20__default_alloc_funcIPS6_S6_EEEEvPKNS0_16__policy_storageEOS5_, void (%"union.std::__1::__function::__policy_storage"*, %"class.v8::Local.14"*)** %9, align 8
  store %"struct.std::__1::__function::__policy"* @_ZZNSt3__110__function8__policy15__choose_policyINS0_20__default_alloc_funcIPFvN2v85LocalINS4_6ObjectEEEES8_EEEEPKS1_NS_17integral_constantIbLb1EEEE9__policy_, %"struct.std::__1::__function::__policy"** %10, align 8
  %11 = bitcast %"class.std::__1::function.15"* %3 to i64*
  store i64 ptrtoint (void (%"class.v8::Object"*)* @_Z12JSDestructorN2v85LocalINS_6ObjectEEE to i64), i64* %11, align 8
  %12 = call i32 @_ZN12CFXJS_Engine9DefineObjEPKc11FXJSOBJTYPENSt3__18functionIFvPS_N2v85LocalINS6_6ObjectEEEEEENS4_IFvS9_EEE(%class.CFXJS_Engine* %0, i8* getelementptr inbounds ([6 x i8], [6 x i8]* @_ZN9CJS_Field5kNameE, i64 0, i64 0), i32 0, %"class.std::__1::function"* nonnull %2, %"class.std::__1::function.15"* nonnull %3) #10
  store i32 %12, i32* @_ZN9CJS_Field9ObjDefnIDE, align 4
  %13 = load %"struct.std::__1::__function::__policy"*, %"struct.std::__1::__function::__policy"** %10, align 8
  %14 = getelementptr inbounds %"struct.std::__1::__function::__policy", %"struct.std::__1::__function::__policy"* %13, i64 0, i32 1
  %15 = load void (i8*)*, void (i8*)** %14, align 8
  %16 = icmp eq void (i8*)* %15, null
  br i1 %16, label %20, label %17

17:                                               ; preds = %1
  %18 = getelementptr inbounds %"class.std::__1::function.15", %"class.std::__1::function.15"* %3, i64 0, i32 0, i32 0, i32 0
  %19 = load i8*, i8** %18, align 8
  call void %15(i8* %19) #10
  br label %20

20:                                               ; preds = %1, %17
  %21 = load %"struct.std::__1::__function::__policy"*, %"struct.std::__1::__function::__policy"** %7, align 8
  %22 = getelementptr inbounds %"struct.std::__1::__function::__policy", %"struct.std::__1::__function::__policy"* %21, i64 0, i32 1
  %23 = load void (i8*)*, void (i8*)** %22, align 8
  %24 = icmp eq void (i8*)* %23, null
  br i1 %24, label %28, label %25

25:                                               ; preds = %20
  %26 = getelementptr inbounds %"class.std::__1::function", %"class.std::__1::function"* %2, i64 0, i32 0, i32 0, i32 0
  %27 = load i8*, i8** %26, align 8
  call void %23(i8* %27) #10
  br label %28

28:                                               ; preds = %20, %25
  %29 = load i32, i32* @_ZN9CJS_Field9ObjDefnIDE, align 4
  %30 = getelementptr inbounds %"class.pdfium::span", %"class.pdfium::span"* %4, i64 0, i32 0, i32 0
  store %struct.JSPropertySpec* getelementptr inbounds ([52 x %struct.JSPropertySpec], [52 x %struct.JSPropertySpec]* @_ZN9CJS_Field13PropertySpecsE, i64 0, i64 0), %struct.JSPropertySpec** %30, align 8
  %31 = getelementptr inbounds %"class.pdfium::span", %"class.pdfium::span"* %4, i64 0, i32 1
  store i64 52, i64* %31, align 8
  call void @_ZN10CJS_Object11DefinePropsEP12CFXJS_EnginejN6pdfium4spanIK14JSPropertySpecEE(%class.CFXJS_Engine* %0, i32 %29, %"class.pdfium::span"* nonnull %4) #10
  %32 = load i32, i32* @_ZN9CJS_Field9ObjDefnIDE, align 4
  %33 = getelementptr inbounds %"class.pdfium::span.21", %"class.pdfium::span.21"* %5, i64 0, i32 0, i32 0
  store %struct.JSMethodSpec* getelementptr inbounds ([26 x %struct.JSMethodSpec], [26 x %struct.JSMethodSpec]* @_ZN9CJS_Field11MethodSpecsE, i64 0, i64 0), %struct.JSMethodSpec** %33, align 8
  %34 = getelementptr inbounds %"class.pdfium::span.21", %"class.pdfium::span.21"* %5, i64 0, i32 1
  store i64 26, i64* %34, align 8
  call void @_ZN10CJS_Object13DefineMethodsEP12CFXJS_EnginejN6pdfium4spanIK12JSMethodSpecEE(%class.CFXJS_Engine* %0, i32 %32, %"class.pdfium::span.21"* nonnull %5) #10
  ret void
}

declare i32 @_ZN12CFXJS_Engine9DefineObjEPKc11FXJSOBJTYPENSt3__18functionIFvPS_N2v85LocalINS6_6ObjectEEEEEENS4_IFvS9_EEE(%class.CFXJS_Engine*, i8*, i32, %"class.std::__1::function"*, %"class.std::__1::function.15"*) local_unnamed_addr #2

; Function Attrs: nounwind ssp uwtable
define internal void @_ZL13JSConstructorI9CJS_FieldEvP12CFXJS_EngineN2v85LocalINS3_6ObjectEEE(%class.CFXJS_Engine*, %"class.v8::Object"*) #0 {
  %3 = icmp eq %class.CFXJS_Engine* %0, null
  %4 = getelementptr inbounds %class.CFXJS_Engine, %class.CFXJS_Engine* %0, i64 -1, i32 3, i32 0, i32 2
  %5 = bitcast %"class.std::__1::__compressed_pair.10"* %4 to %class.CJS_Runtime*
  %6 = select i1 %3, %class.CJS_Runtime* null, %class.CJS_Runtime* %5
  %7 = tail call i8* @_Znwm(i64 88) #11
  %8 = bitcast i8* %7 to %class.CJS_Object*
  tail call void @_ZN10CJS_ObjectC2EN2v85LocalINS0_6ObjectEEEP11CJS_Runtime(%class.CJS_Object* nonnull %8, %"class.v8::Object"* %1, %class.CJS_Runtime* %6) #10
  %9 = bitcast i8* %7 to i32 (...)***
  store i32 (...)** bitcast (i8** getelementptr inbounds ({ [4 x i8*] }, { [4 x i8*] }* @_ZTV9CJS_Field, i64 0, inrange i32 0, i64 2) to i32 (...)**), i32 (...)*** %9, align 8
  %10 = getelementptr inbounds i8, i8* %7, i64 40
  %11 = bitcast i8* %10 to i32 (...)***
  store i32 (...)** bitcast (i8** getelementptr inbounds ({ [5 x i8*] }, { [5 x i8*] }* @_ZTVN5fxcrt11ObservedPtrI12CJS_DocumentEE, i64 0, inrange i32 0, i64 2) to i32 (...)**), i32 (...)*** %11, align 8
  %12 = getelementptr inbounds i8, i8* %7, i64 48
  %13 = bitcast i8* %12 to %class.CJS_Document**
  store %class.CJS_Document* null, %class.CJS_Document** %13, align 8
  %14 = getelementptr inbounds i8, i8* %7, i64 56
  %15 = bitcast i8* %14 to i32 (...)***
  store i32 (...)** bitcast (i8** getelementptr inbounds ({ [5 x i8*] }, { [5 x i8*] }* @_ZTVN5fxcrt11ObservedPtrI27CPDFSDK_FormFillEnvironmentEE, i64 0, inrange i32 0, i64 2) to i32 (...)**), i32 (...)*** %15, align 8
  %16 = getelementptr inbounds i8, i8* %7, i64 64
  %17 = bitcast i8* %16 to %class.CPDFSDK_FormFillEnvironment**
  store %class.CPDFSDK_FormFillEnvironment* null, %class.CPDFSDK_FormFillEnvironment** %17, align 8
  %18 = getelementptr inbounds i8, i8* %7, i64 72
  %19 = bitcast i8* %18 to %"class.fxcrt::WideString"*
  tail call void @_ZN5fxcrt10WideStringC1Ev(%"class.fxcrt::WideString"* %19) #10
  %20 = getelementptr inbounds i8, i8* %7, i64 80
  %21 = bitcast i8* %20 to i32*
  store i32 -1, i32* %21, align 8
  %22 = getelementptr inbounds i8, i8* %7, i64 84
  store i8 0, i8* %22, align 4
  %23 = getelementptr inbounds i8, i8* %7, i64 85
  store i8 0, i8* %23, align 1
  tail call void @_ZN12CFXJS_Engine16SetObjectPrivateEN2v85LocalINS0_6ObjectEEENSt3__110unique_ptrI10CJS_ObjectNS4_14default_deleteIS6_EEEE(%"class.v8::Object"* %1, %class.CJS_Object* nonnull %8) #10
  ret void
}

declare void @_Z12JSDestructorN2v85LocalINS_6ObjectEEE(%"class.v8::Object"*) #2

declare void @_ZN10CJS_Object11DefinePropsEP12CFXJS_EnginejN6pdfium4spanIK14JSPropertySpecEE(%class.CFXJS_Engine*, i32, %"class.pdfium::span"*) local_unnamed_addr #2

declare void @_ZN10CJS_Object13DefineMethodsEP12CFXJS_EnginejN6pdfium4spanIK12JSMethodSpecEE(%class.CFXJS_Engine*, i32, %"class.pdfium::span.21"*) local_unnamed_addr #2

; Function Attrs: nounwind ssp uwtable
define hidden void @_ZN9CJS_FieldC2EN2v85LocalINS0_6ObjectEEEP11CJS_Runtime(%class.CJS_Field*, %"class.v8::Object"*, %class.CJS_Runtime*) unnamed_addr #0 align 2 {
  %4 = getelementptr inbounds %class.CJS_Field, %class.CJS_Field* %0, i64 0, i32 0
  tail call void @_ZN10CJS_ObjectC2EN2v85LocalINS0_6ObjectEEEP11CJS_Runtime(%class.CJS_Object* %4, %"class.v8::Object"* %1, %class.CJS_Runtime* %2) #10
  %5 = getelementptr inbounds %class.CJS_Field, %class.CJS_Field* %0, i64 0, i32 0, i32 0
  store i32 (...)** bitcast (i8** getelementptr inbounds ({ [4 x i8*] }, { [4 x i8*] }* @_ZTV9CJS_Field, i64 0, inrange i32 0, i64 2) to i32 (...)**), i32 (...)*** %5, align 8
  %6 = getelementptr inbounds %class.CJS_Field, %class.CJS_Field* %0, i64 0, i32 1, i32 0, i32 0
  store i32 (...)** bitcast (i8** getelementptr inbounds ({ [5 x i8*] }, { [5 x i8*] }* @_ZTVN5fxcrt11ObservedPtrI12CJS_DocumentEE, i64 0, inrange i32 0, i64 2) to i32 (...)**), i32 (...)*** %6, align 8
  %7 = getelementptr inbounds %class.CJS_Field, %class.CJS_Field* %0, i64 0, i32 1, i32 1
  store %class.CJS_Document* null, %class.CJS_Document** %7, align 8
  %8 = getelementptr inbounds %class.CJS_Field, %class.CJS_Field* %0, i64 0, i32 2, i32 0, i32 0
  store i32 (...)** bitcast (i8** getelementptr inbounds ({ [5 x i8*] }, { [5 x i8*] }* @_ZTVN5fxcrt11ObservedPtrI27CPDFSDK_FormFillEnvironmentEE, i64 0, inrange i32 0, i64 2) to i32 (...)**), i32 (...)*** %8, align 8
  %9 = getelementptr inbounds %class.CJS_Field, %class.CJS_Field* %0, i64 0, i32 2, i32 1
  store %class.CPDFSDK_FormFillEnvironment* null, %class.CPDFSDK_FormFillEnvironment** %9, align 8
  %10 = getelementptr inbounds %class.CJS_Field, %class.CJS_Field* %0, i64 0, i32 3
  tail call void @_ZN5fxcrt10WideStringC1Ev(%"class.fxcrt::WideString"* %10) #10
  %11 = getelementptr inbounds %class.CJS_Field, %class.CJS_Field* %0, i64 0, i32 4
  store i32 -1, i32* %11, align 8
  %12 = getelementptr inbounds %class.CJS_Field, %class.CJS_Field* %0, i64 0, i32 5
  store i8 0, i8* %12, align 4
  %13 = getelementptr inbounds %class.CJS_Field, %class.CJS_Field* %0, i64 0, i32 6
  store i8 0, i8* %13, align 1
  ret void
}

; Function Attrs: argmemonly nounwind
declare void @llvm.memcpy.p0i8.p0i8.i64(i8* nocapture writeonly, i8* nocapture readonly, i64, i1 immarg) #3

declare void @_ZN10CJS_ObjectC2EN2v85LocalINS0_6ObjectEEEP11CJS_Runtime(%class.CJS_Object*, %"class.v8::Object"*, %class.CJS_Runtime*) unnamed_addr #2

declare void @_ZN5fxcrt10WideStringC1Ev(%"class.fxcrt::WideString"*) unnamed_addr #2

; Function Attrs: nounwind ssp uwtable
define hidden void @_ZN9CJS_FieldD2Ev(%class.CJS_Field*) unnamed_addr #0 align 2 {
  %2 = getelementptr inbounds %class.CJS_Field, %class.CJS_Field* %0, i64 0, i32 0, i32 0
  store i32 (...)** bitcast (i8** getelementptr inbounds ({ [4 x i8*] }, { [4 x i8*] }* @_ZTV9CJS_Field, i64 0, inrange i32 0, i64 2) to i32 (...)**), i32 (...)*** %2, align 8
  %3 = getelementptr inbounds %class.CJS_Field, %class.CJS_Field* %0, i64 0, i32 3
  tail call void @_ZN5fxcrt10WideStringD1Ev(%"class.fxcrt::WideString"* %3) #10
  %4 = getelementptr inbounds %class.CJS_Field, %class.CJS_Field* %0, i64 0, i32 2
  %5 = getelementptr inbounds %"class.fxcrt::ObservedPtr.39", %"class.fxcrt::ObservedPtr.39"* %4, i64 0, i32 0, i32 0
  store i32 (...)** bitcast (i8** getelementptr inbounds ({ [5 x i8*] }, { [5 x i8*] }* @_ZTVN5fxcrt11ObservedPtrI27CPDFSDK_FormFillEnvironmentEE, i64 0, inrange i32 0, i64 2) to i32 (...)**), i32 (...)*** %5, align 8
  %6 = getelementptr inbounds %class.CJS_Field, %class.CJS_Field* %0, i64 0, i32 2, i32 1
  %7 = load %class.CPDFSDK_FormFillEnvironment*, %class.CPDFSDK_FormFillEnvironment** %6, align 8
  %8 = icmp eq %class.CPDFSDK_FormFillEnvironment* %7, null
  br i1 %8, label %12, label %9

9:                                                ; preds = %1
  %10 = getelementptr inbounds %class.CPDFSDK_FormFillEnvironment, %class.CPDFSDK_FormFillEnvironment* %7, i64 0, i32 0, i32 1
  %11 = getelementptr inbounds %"class.fxcrt::ObservedPtr.39", %"class.fxcrt::ObservedPtr.39"* %4, i64 0, i32 0
  tail call void @_ZN5fxcrt10Observable14RemoveObserverEPNS0_13ObserverIfaceE(%"class.fxcrt::Observable"* %10, %"class.fxcrt::Observable::ObserverIface"* %11) #10
  br label %12

12:                                               ; preds = %1, %9
  %13 = getelementptr inbounds %class.CJS_Field, %class.CJS_Field* %0, i64 0, i32 1
  %14 = getelementptr inbounds %"class.fxcrt::ObservedPtr.311", %"class.fxcrt::ObservedPtr.311"* %13, i64 0, i32 0, i32 0
  store i32 (...)** bitcast (i8** getelementptr inbounds ({ [5 x i8*] }, { [5 x i8*] }* @_ZTVN5fxcrt11ObservedPtrI12CJS_DocumentEE, i64 0, inrange i32 0, i64 2) to i32 (...)**), i32 (...)*** %14, align 8
  %15 = getelementptr inbounds %class.CJS_Field, %class.CJS_Field* %0, i64 0, i32 1, i32 1
  %16 = load %class.CJS_Document*, %class.CJS_Document** %15, align 8
  %17 = icmp eq %class.CJS_Document* %16, null
  br i1 %17, label %21, label %18

18:                                               ; preds = %12
  %19 = getelementptr inbounds %class.CJS_Document, %class.CJS_Document* %16, i64 0, i32 1
  %20 = getelementptr inbounds %"class.fxcrt::ObservedPtr.311", %"class.fxcrt::ObservedPtr.311"* %13, i64 0, i32 0
  tail call void @_ZN5fxcrt10Observable14RemoveObserverEPNS0_13ObserverIfaceE(%"class.fxcrt::Observable"* %19, %"class.fxcrt::Observable::ObserverIface"* %20) #10
  br label %21

21:                                               ; preds = %12, %18
  %22 = getelementptr inbounds %class.CJS_Field, %class.CJS_Field* %0, i64 0, i32 0
  tail call void @_ZN10CJS_ObjectD2Ev(%class.CJS_Object* %22) #10
  ret void
}

; Function Attrs: nounwind
declare void @_ZN5fxcrt10WideStringD1Ev(%"class.fxcrt::WideString"*) unnamed_addr #4

; Function Attrs: nounwind ssp uwtable
define linkonce_odr hidden void @_ZN5fxcrt11ObservedPtrI27CPDFSDK_FormFillEnvironmentED2Ev(%"class.fxcrt::ObservedPtr.39"*) unnamed_addr #0 comdat align 2 {
  %2 = getelementptr inbounds %"class.fxcrt::ObservedPtr.39", %"class.fxcrt::ObservedPtr.39"* %0, i64 0, i32 0, i32 0
  store i32 (...)** bitcast (i8** getelementptr inbounds ({ [5 x i8*] }, { [5 x i8*] }* @_ZTVN5fxcrt11ObservedPtrI27CPDFSDK_FormFillEnvironmentEE, i64 0, inrange i32 0, i64 2) to i32 (...)**), i32 (...)*** %2, align 8
  %3 = getelementptr inbounds %"class.fxcrt::ObservedPtr.39", %"class.fxcrt::ObservedPtr.39"* %0, i64 0, i32 1
  %4 = load %class.CPDFSDK_FormFillEnvironment*, %class.CPDFSDK_FormFillEnvironment** %3, align 8
  %5 = icmp eq %class.CPDFSDK_FormFillEnvironment* %4, null
  br i1 %5, label %9, label %6

6:                                                ; preds = %1
  %7 = getelementptr inbounds %class.CPDFSDK_FormFillEnvironment, %class.CPDFSDK_FormFillEnvironment* %4, i64 0, i32 0, i32 1
  %8 = getelementptr inbounds %"class.fxcrt::ObservedPtr.39", %"class.fxcrt::ObservedPtr.39"* %0, i64 0, i32 0
  tail call void @_ZN5fxcrt10Observable14RemoveObserverEPNS0_13ObserverIfaceE(%"class.fxcrt::Observable"* %7, %"class.fxcrt::Observable::ObserverIface"* %8) #10
  br label %9

9:                                                ; preds = %1, %6
  ret void
}

; Function Attrs: nounwind ssp uwtable
define linkonce_odr hidden void @_ZN5fxcrt11ObservedPtrI12CJS_DocumentED2Ev(%"class.fxcrt::ObservedPtr.311"*) unnamed_addr #0 comdat align 2 {
  %2 = getelementptr inbounds %"class.fxcrt::ObservedPtr.311", %"class.fxcrt::ObservedPtr.311"* %0, i64 0, i32 0, i32 0
  store i32 (...)** bitcast (i8** getelementptr inbounds ({ [5 x i8*] }, { [5 x i8*] }* @_ZTVN5fxcrt11ObservedPtrI12CJS_DocumentEE, i64 0, inrange i32 0, i64 2) to i32 (...)**), i32 (...)*** %2, align 8
  %3 = getelementptr inbounds %"class.fxcrt::ObservedPtr.311", %"class.fxcrt::ObservedPtr.311"* %0, i64 0, i32 1
  %4 = load %class.CJS_Document*, %class.CJS_Document** %3, align 8
  %5 = icmp eq %class.CJS_Document* %4, null
  br i1 %5, label %9, label %6

6:                                                ; preds = %1
  %7 = getelementptr inbounds %class.CJS_Document, %class.CJS_Document* %4, i64 0, i32 1
  %8 = getelementptr inbounds %"class.fxcrt::ObservedPtr.311", %"class.fxcrt::ObservedPtr.311"* %0, i64 0, i32 0
  tail call void @_ZN5fxcrt10Observable14RemoveObserverEPNS0_13ObserverIfaceE(%"class.fxcrt::Observable"* %7, %"class.fxcrt::Observable::ObserverIface"* %8) #10
  br label %9

9:                                                ; preds = %1, %6
  ret void
}

; Function Attrs: nounwind
declare void @_ZN10CJS_ObjectD2Ev(%class.CJS_Object*) unnamed_addr #4

; Function Attrs: nounwind ssp uwtable
define hidden void @_ZN9CJS_FieldD0Ev(%class.CJS_Field*) unnamed_addr #0 align 2 {
  %2 = getelementptr inbounds %class.CJS_Field, %class.CJS_Field* %0, i64 0, i32 0, i32 0
  store i32 (...)** bitcast (i8** getelementptr inbounds ({ [4 x i8*] }, { [4 x i8*] }* @_ZTV9CJS_Field, i64 0, inrange i32 0, i64 2) to i32 (...)**), i32 (...)*** %2, align 8
  %3 = getelementptr inbounds %class.CJS_Field, %class.CJS_Field* %0, i64 0, i32 3
  tail call void @_ZN5fxcrt10WideStringD1Ev(%"class.fxcrt::WideString"* %3) #10
  %4 = getelementptr inbounds %class.CJS_Field, %class.CJS_Field* %0, i64 0, i32 2
  %5 = getelementptr inbounds %"class.fxcrt::ObservedPtr.39", %"class.fxcrt::ObservedPtr.39"* %4, i64 0, i32 0, i32 0
  store i32 (...)** bitcast (i8** getelementptr inbounds ({ [5 x i8*] }, { [5 x i8*] }* @_ZTVN5fxcrt11ObservedPtrI27CPDFSDK_FormFillEnvironmentEE, i64 0, inrange i32 0, i64 2) to i32 (...)**), i32 (...)*** %5, align 8
  %6 = getelementptr inbounds %class.CJS_Field, %class.CJS_Field* %0, i64 0, i32 2, i32 1
  %7 = load %class.CPDFSDK_FormFillEnvironment*, %class.CPDFSDK_FormFillEnvironment** %6, align 8
  %8 = icmp eq %class.CPDFSDK_FormFillEnvironment* %7, null
  br i1 %8, label %12, label %9

9:                                                ; preds = %1
  %10 = getelementptr inbounds %class.CPDFSDK_FormFillEnvironment, %class.CPDFSDK_FormFillEnvironment* %7, i64 0, i32 0, i32 1
  %11 = getelementptr inbounds %"class.fxcrt::ObservedPtr.39", %"class.fxcrt::ObservedPtr.39"* %4, i64 0, i32 0
  tail call void @_ZN5fxcrt10Observable14RemoveObserverEPNS0_13ObserverIfaceE(%"class.fxcrt::Observable"* %10, %"class.fxcrt::Observable::ObserverIface"* %11) #10
  br label %12

12:                                               ; preds = %9, %1
  %13 = getelementptr inbounds %class.CJS_Field, %class.CJS_Field* %0, i64 0, i32 1
  %14 = getelementptr inbounds %"class.fxcrt::ObservedPtr.311", %"class.fxcrt::ObservedPtr.311"* %13, i64 0, i32 0, i32 0
  store i32 (...)** bitcast (i8** getelementptr inbounds ({ [5 x i8*] }, { [5 x i8*] }* @_ZTVN5fxcrt11ObservedPtrI12CJS_DocumentEE, i64 0, inrange i32 0, i64 2) to i32 (...)**), i32 (...)*** %14, align 8
  %15 = getelementptr inbounds %class.CJS_Field, %class.CJS_Field* %0, i64 0, i32 1, i32 1
  %16 = load %class.CJS_Document*, %class.CJS_Document** %15, align 8
  %17 = icmp eq %class.CJS_Document* %16, null
  br i1 %17, label %21, label %18

18:                                               ; preds = %12
  %19 = getelementptr inbounds %class.CJS_Document, %class.CJS_Document* %16, i64 0, i32 1
  %20 = getelementptr inbounds %"class.fxcrt::ObservedPtr.311", %"class.fxcrt::ObservedPtr.311"* %13, i64 0, i32 0
  tail call void @_ZN5fxcrt10Observable14RemoveObserverEPNS0_13ObserverIfaceE(%"class.fxcrt::Observable"* %19, %"class.fxcrt::Observable::ObserverIface"* %20) #10
  br label %21

21:                                               ; preds = %12, %18
  %22 = getelementptr inbounds %class.CJS_Field, %class.CJS_Field* %0, i64 0, i32 0
  tail call void @_ZN10CJS_ObjectD2Ev(%class.CJS_Object* %22) #10
  %23 = bitcast %class.CJS_Field* %0 to i8*
  tail call void @_ZdlPv(i8* %23) #11
  ret void
}

; Function Attrs: nobuiltin nounwind
declare void @_ZdlPv(i8*) local_unnamed_addr #5

; Function Attrs: nounwind ssp uwtable
define hidden zeroext i1 @_ZN9CJS_Field11AttachFieldEP12CJS_DocumentRKN5fxcrt10WideStringE(%class.CJS_Field*, %class.CJS_Document*, %"class.fxcrt::WideString"* dereferenceable(8)) local_unnamed_addr #0 align 2 {
  %4 = alloca %"class.fxcrt::WideString", align 8
  %5 = alloca %"class.fxcrt::WideString", align 8
  %6 = alloca %"class.fxcrt::WideString", align 8
  %7 = alloca %"class.fxcrt::StringViewTemplate", align 8
  %8 = alloca %"class.fxcrt::StringViewTemplate", align 8
  %9 = alloca %"class.fxcrt::WideString", align 8
  %10 = getelementptr inbounds %class.CJS_Field, %class.CJS_Field* %0, i64 0, i32 1
  %11 = getelementptr inbounds %class.CJS_Field, %class.CJS_Field* %0, i64 0, i32 1, i32 1
  %12 = load %class.CJS_Document*, %class.CJS_Document** %11, align 8
  %13 = icmp eq %class.CJS_Document* %12, null
  br i1 %13, label %17, label %14

14:                                               ; preds = %3
  %15 = getelementptr inbounds %class.CJS_Document, %class.CJS_Document* %12, i64 0, i32 1
  %16 = getelementptr inbounds %"class.fxcrt::ObservedPtr.311", %"class.fxcrt::ObservedPtr.311"* %10, i64 0, i32 0
  tail call void @_ZN5fxcrt10Observable14RemoveObserverEPNS0_13ObserverIfaceE(%"class.fxcrt::Observable"* %15, %"class.fxcrt::Observable::ObserverIface"* %16) #10
  br label %17

17:                                               ; preds = %14, %3
  store %class.CJS_Document* %1, %class.CJS_Document** %11, align 8
  %18 = icmp eq %class.CJS_Document* %1, null
  br i1 %18, label %22, label %19

19:                                               ; preds = %17
  %20 = getelementptr inbounds %class.CJS_Document, %class.CJS_Document* %1, i64 0, i32 1
  %21 = getelementptr inbounds %"class.fxcrt::ObservedPtr.311", %"class.fxcrt::ObservedPtr.311"* %10, i64 0, i32 0
  tail call void @_ZN5fxcrt10Observable11AddObserverEPNS0_13ObserverIfaceE(%"class.fxcrt::Observable"* %20, %"class.fxcrt::Observable::ObserverIface"* %21) #10
  br label %22

22:                                               ; preds = %17, %19
  %23 = getelementptr inbounds %class.CJS_Field, %class.CJS_Field* %0, i64 0, i32 2
  %24 = getelementptr inbounds %class.CJS_Document, %class.CJS_Document* %1, i64 0, i32 3, i32 1
  %25 = load %class.CPDFSDK_FormFillEnvironment*, %class.CPDFSDK_FormFillEnvironment** %24, align 8
  %26 = getelementptr inbounds %class.CJS_Field, %class.CJS_Field* %0, i64 0, i32 2, i32 1
  %27 = load %class.CPDFSDK_FormFillEnvironment*, %class.CPDFSDK_FormFillEnvironment** %26, align 8
  %28 = icmp eq %class.CPDFSDK_FormFillEnvironment* %27, null
  br i1 %28, label %32, label %29

29:                                               ; preds = %22
  %30 = getelementptr inbounds %class.CPDFSDK_FormFillEnvironment, %class.CPDFSDK_FormFillEnvironment* %27, i64 0, i32 0, i32 1
  %31 = getelementptr inbounds %"class.fxcrt::ObservedPtr.39", %"class.fxcrt::ObservedPtr.39"* %23, i64 0, i32 0
  tail call void @_ZN5fxcrt10Observable14RemoveObserverEPNS0_13ObserverIfaceE(%"class.fxcrt::Observable"* %30, %"class.fxcrt::Observable::ObserverIface"* %31) #10
  br label %32

32:                                               ; preds = %29, %22
  store %class.CPDFSDK_FormFillEnvironment* %25, %class.CPDFSDK_FormFillEnvironment** %26, align 8
  %33 = icmp eq %class.CPDFSDK_FormFillEnvironment* %25, null
  br i1 %33, label %38, label %34

34:                                               ; preds = %32
  %35 = getelementptr inbounds %class.CPDFSDK_FormFillEnvironment, %class.CPDFSDK_FormFillEnvironment* %25, i64 0, i32 0, i32 1
  %36 = getelementptr inbounds %"class.fxcrt::ObservedPtr.39", %"class.fxcrt::ObservedPtr.39"* %23, i64 0, i32 0
  tail call void @_ZN5fxcrt10Observable11AddObserverEPNS0_13ObserverIfaceE(%"class.fxcrt::Observable"* %35, %"class.fxcrt::Observable::ObserverIface"* %36) #10
  %37 = load %class.CPDFSDK_FormFillEnvironment*, %class.CPDFSDK_FormFillEnvironment** %26, align 8
  br label %38

38:                                               ; preds = %32, %34
  %39 = phi %class.CPDFSDK_FormFillEnvironment* [ null, %32 ], [ %37, %34 ]
  %40 = tail call zeroext i1 @_ZNK27CPDFSDK_FormFillEnvironment14HasPermissionsEj(%class.CPDFSDK_FormFillEnvironment* %39, i32 296) #10
  %41 = getelementptr inbounds %class.CJS_Field, %class.CJS_Field* %0, i64 0, i32 5
  %42 = zext i1 %40 to i8
  store i8 %42, i8* %41, align 4
  %43 = load %class.CPDFSDK_FormFillEnvironment*, %class.CPDFSDK_FormFillEnvironment** %26, align 8
  %44 = tail call %class.CPDFSDK_InteractiveForm* @_ZN27CPDFSDK_FormFillEnvironment18GetInteractiveFormEv(%class.CPDFSDK_FormFillEnvironment* %43) #10
  %45 = getelementptr inbounds %class.CPDFSDK_InteractiveForm, %class.CPDFSDK_InteractiveForm* %44, i64 0, i32 2, i32 0, i32 0, i32 0
  %46 = load %class.CPDF_InteractiveForm*, %class.CPDF_InteractiveForm** %45, align 8
  %47 = bitcast %"class.fxcrt::WideString"* %6 to i8*
  call void @llvm.lifetime.start.p0i8(i64 8, i8* nonnull %47) #10
  %48 = getelementptr inbounds %"class.fxcrt::WideString", %"class.fxcrt::WideString"* %6, i64 0, i32 0, i32 0, i32 0, i32 0, i32 0
  store %"class.fxcrt::StringDataTemplate.316"* inttoptr (i64 -6148914691236517206 to %"class.fxcrt::StringDataTemplate.316"*), %"class.fxcrt::StringDataTemplate.316"** %48, align 8
  call void @_ZN5fxcrt10WideStringC1ERKS0_(%"class.fxcrt::WideString"* nonnull %6, %"class.fxcrt::WideString"* dereferenceable(8) %2) #10
  %49 = getelementptr inbounds %"class.fxcrt::StringViewTemplate", %"class.fxcrt::StringViewTemplate"* %7, i64 0, i32 0, i32 0, i32 0
  store i32* getelementptr inbounds ([3 x i32], [3 x i32]* @.str.78, i64 0, i64 0), i32** %49, align 8
  %50 = getelementptr inbounds %"class.fxcrt::StringViewTemplate", %"class.fxcrt::StringViewTemplate"* %7, i64 0, i32 0, i32 1
  store i64 2, i64* %50, align 8
  %51 = getelementptr inbounds %"class.fxcrt::StringViewTemplate", %"class.fxcrt::StringViewTemplate"* %8, i64 0, i32 0, i32 0, i32 0
  store i32* getelementptr inbounds ([2 x i32], [2 x i32]* @.str.79, i64 0, i64 0), i32** %51, align 8
  %52 = getelementptr inbounds %"class.fxcrt::StringViewTemplate", %"class.fxcrt::StringViewTemplate"* %8, i64 0, i32 0, i32 1
  store i64 1, i64* %52, align 8
  %53 = call i64 @_ZN5fxcrt10WideString7ReplaceENS_18StringViewTemplateIwEES2_(%"class.fxcrt::WideString"* nonnull %6, %"class.fxcrt::StringViewTemplate"* nonnull %7, %"class.fxcrt::StringViewTemplate"* nonnull %8) #10
  %54 = call i64 @_ZNK20CPDF_InteractiveForm11CountFieldsERKN5fxcrt10WideStringE(%class.CPDF_InteractiveForm* %46, %"class.fxcrt::WideString"* nonnull dereferenceable(8) %6) #10
  %55 = icmp eq i64 %54, 0
  br i1 %55, label %56, label %134

56:                                               ; preds = %38
  %57 = bitcast %"class.fxcrt::WideString"* %9 to i8*
  call void @llvm.lifetime.start.p0i8(i64 8, i8* nonnull %57) #10
  %58 = getelementptr inbounds %"class.fxcrt::WideString", %"class.fxcrt::WideString"* %9, i64 0, i32 0, i32 0, i32 0, i32 0, i32 0
  store %"class.fxcrt::StringDataTemplate.316"* inttoptr (i64 -6148914691236517206 to %"class.fxcrt::StringDataTemplate.316"*), %"class.fxcrt::StringDataTemplate.316"** %58, align 8
  call void @_ZN5fxcrt10WideStringC1Ev(%"class.fxcrt::WideString"* nonnull %9) #10
  %59 = load %"class.fxcrt::StringDataTemplate.316"*, %"class.fxcrt::StringDataTemplate.316"** %48, align 8
  %60 = icmp eq %"class.fxcrt::StringDataTemplate.316"* %59, null
  br i1 %60, label %66, label %61

61:                                               ; preds = %56
  %62 = getelementptr inbounds %"class.fxcrt::StringDataTemplate.316", %"class.fxcrt::StringDataTemplate.316"* %59, i64 0, i32 1
  %63 = load i64, i64* %62, align 8
  %64 = getelementptr inbounds %"class.fxcrt::StringDataTemplate.316", %"class.fxcrt::StringDataTemplate.316"* %59, i64 0, i32 3, i64 %63
  %65 = ptrtoint i32* %64 to i64
  br label %66

66:                                               ; preds = %61, %56
  %67 = phi i64 [ %65, %61 ], [ 0, %56 ]
  %68 = getelementptr inbounds %"class.fxcrt::StringDataTemplate.316", %"class.fxcrt::StringDataTemplate.316"* %59, i64 0, i32 3, i64 0
  %69 = select i1 %60, i32* null, i32* %68
  %70 = inttoptr i64 %67 to i32*
  %71 = icmp eq i32* %69, %70
  br i1 %71, label %89, label %72

72:                                               ; preds = %66
  %73 = getelementptr inbounds i32, i32* %70, i64 -1
  %74 = load i32, i32* %73, align 4
  %75 = icmp eq i32 %74, 46
  br i1 %75, label %85, label %80

76:                                               ; preds = %80
  %77 = getelementptr inbounds i32, i32* %81, i64 -1
  %78 = load i32, i32* %77, align 4
  %79 = icmp eq i32 %78, 46
  br i1 %79, label %83, label %80

80:                                               ; preds = %72, %76
  %81 = phi i32* [ %77, %76 ], [ %73, %72 ]
  %82 = icmp eq i32* %69, %81
  br i1 %82, label %89, label %76

83:                                               ; preds = %76
  %84 = ptrtoint i32* %81 to i64
  br label %85

85:                                               ; preds = %83, %72
  %86 = phi i32* [ %70, %72 ], [ %81, %83 ]
  %87 = phi i64 [ %67, %72 ], [ %84, %83 ]
  %88 = icmp eq i32* %69, %86
  br i1 %88, label %89, label %91

89:                                               ; preds = %80, %66, %85
  %90 = call dereferenceable(8) %"class.fxcrt::WideString"* @_ZN5fxcrt10WideStringaSERKS0_(%"class.fxcrt::WideString"* nonnull %9, %"class.fxcrt::WideString"* nonnull dereferenceable(8) %6) #10
  br label %132

91:                                               ; preds = %85
  %92 = bitcast %"class.fxcrt::WideString"* %4 to i8*
  call void @llvm.lifetime.start.p0i8(i64 8, i8* nonnull %92) #10
  %93 = getelementptr inbounds %"class.fxcrt::WideString", %"class.fxcrt::WideString"* %4, i64 0, i32 0, i32 0, i32 0, i32 0, i32 0
  store %"class.fxcrt::StringDataTemplate.316"* inttoptr (i64 -6148914691236517206 to %"class.fxcrt::StringDataTemplate.316"*), %"class.fxcrt::StringDataTemplate.316"** %93, align 8
  br i1 %60, label %99, label %94

94:                                               ; preds = %91
  %95 = getelementptr inbounds %"class.fxcrt::StringDataTemplate.316", %"class.fxcrt::StringDataTemplate.316"* %59, i64 0, i32 1
  %96 = load i64, i64* %95, align 8
  %97 = getelementptr inbounds %"class.fxcrt::StringDataTemplate.316", %"class.fxcrt::StringDataTemplate.316"* %59, i64 0, i32 3, i64 %96
  %98 = ptrtoint i32* %97 to i64
  br label %99

99:                                               ; preds = %94, %91
  %100 = phi i64 [ %98, %94 ], [ 0, %91 ]
  %101 = sub i64 %100, %87
  %102 = ashr exact i64 %101, 2
  call void @_ZNK5fxcrt10WideString4LastEm(%"class.fxcrt::WideString"* nonnull sret %4, %"class.fxcrt::WideString"* nonnull %6, i64 %102) #10
  %103 = load %"class.fxcrt::StringDataTemplate.316"*, %"class.fxcrt::StringDataTemplate.316"** %93, align 8
  %104 = icmp eq %"class.fxcrt::StringDataTemplate.316"* %103, null
  %105 = getelementptr inbounds %"class.fxcrt::StringDataTemplate.316", %"class.fxcrt::StringDataTemplate.316"* %103, i64 0, i32 3
  %106 = select i1 %104, [1 x i32]* @.str.117, [1 x i32]* %105
  %107 = getelementptr inbounds [1 x i32], [1 x i32]* %106, i64 0, i64 0
  %108 = call i32 @FXSYS_wtoi(i32* %107) #10
  %109 = icmp eq i32 %108, 0
  br i1 %109, label %110, label %114

110:                                              ; preds = %99
  call void @_ZN5fxcrt10WideString9TrimRightEw(%"class.fxcrt::WideString"* nonnull %4, i32 signext 32) #10
  %111 = call zeroext i1 @_ZNK5fxcrt10WideStringeqEPKw(%"class.fxcrt::WideString"* nonnull %4, i32* getelementptr inbounds ([2 x i32], [2 x i32]* @.str.113, i64 0, i64 0)) #10
  br i1 %111, label %114, label %112

112:                                              ; preds = %110
  %113 = call dereferenceable(8) %"class.fxcrt::WideString"* @_ZN5fxcrt10WideStringaSERKS0_(%"class.fxcrt::WideString"* nonnull %9, %"class.fxcrt::WideString"* nonnull dereferenceable(8) %6) #10
  br label %125

114:                                              ; preds = %110, %99
  %115 = bitcast %"class.fxcrt::WideString"* %5 to i8*
  call void @llvm.lifetime.start.p0i8(i64 8, i8* nonnull %115) #10
  %116 = load %"class.fxcrt::StringDataTemplate.316"*, %"class.fxcrt::StringDataTemplate.316"** %48, align 8
  %117 = icmp eq %"class.fxcrt::StringDataTemplate.316"* %116, null
  %118 = getelementptr inbounds %"class.fxcrt::StringDataTemplate.316", %"class.fxcrt::StringDataTemplate.316"* %116, i64 0, i32 3, i64 0
  %119 = ptrtoint i32* %118 to i64
  %120 = select i1 %117, i64 0, i64 %119
  %121 = sub i64 %87, %120
  %122 = ashr exact i64 %121, 2
  %123 = add nsw i64 %122, -1
  call void @_ZNK5fxcrt10WideString5FirstEm(%"class.fxcrt::WideString"* nonnull sret %5, %"class.fxcrt::WideString"* nonnull %6, i64 %123) #10
  %124 = call dereferenceable(8) %"class.fxcrt::WideString"* @_ZN5fxcrt10WideStringaSEOS0_(%"class.fxcrt::WideString"* nonnull %9, %"class.fxcrt::WideString"* nonnull dereferenceable(8) %5) #10
  call void @_ZN5fxcrt10WideStringD1Ev(%"class.fxcrt::WideString"* nonnull %5) #10
  call void @llvm.lifetime.end.p0i8(i64 8, i8* nonnull %115) #10
  br label %125

125:                                              ; preds = %112, %114
  %126 = phi i32 [ %108, %114 ], [ -1, %112 ]
  call void @_ZN5fxcrt10WideStringD1Ev(%"class.fxcrt::WideString"* nonnull %4) #10
  call void @llvm.lifetime.end.p0i8(i64 8, i8* nonnull %92) #10
  %127 = icmp eq i32 %126, -1
  br i1 %127, label %132, label %128

128:                                              ; preds = %125
  %129 = getelementptr inbounds %class.CJS_Field, %class.CJS_Field* %0, i64 0, i32 3
  %130 = call dereferenceable(8) %"class.fxcrt::WideString"* @_ZN5fxcrt10WideStringaSERKS0_(%"class.fxcrt::WideString"* %129, %"class.fxcrt::WideString"* nonnull dereferenceable(8) %9) #10
  %131 = getelementptr inbounds %class.CJS_Field, %class.CJS_Field* %0, i64 0, i32 4
  store i32 %126, i32* %131, align 8
  br label %132

132:                                              ; preds = %89, %125, %128
  %133 = phi i1 [ true, %128 ], [ false, %125 ], [ false, %89 ]
  call void @_ZN5fxcrt10WideStringD1Ev(%"class.fxcrt::WideString"* nonnull %9) #10
  call void @llvm.lifetime.end.p0i8(i64 8, i8* nonnull %57) #10
  br label %138

134:                                              ; preds = %38
  %135 = getelementptr inbounds %class.CJS_Field, %class.CJS_Field* %0, i64 0, i32 3
  %136 = call dereferenceable(8) %"class.fxcrt::WideString"* @_ZN5fxcrt10WideStringaSERKS0_(%"class.fxcrt::WideString"* %135, %"class.fxcrt::WideString"* nonnull dereferenceable(8) %6) #10
  %137 = getelementptr inbounds %class.CJS_Field, %class.CJS_Field* %0, i64 0, i32 4
  store i32 -1, i32* %137, align 8
  br label %138

138:                                              ; preds = %134, %132
  %139 = phi i1 [ %133, %132 ], [ true, %134 ]
  call void @_ZN5fxcrt10WideStringD1Ev(%"class.fxcrt::WideString"* nonnull %6) #10
  call void @llvm.lifetime.end.p0i8(i64 8, i8* nonnull %47) #10
  ret i1 %139
}

declare zeroext i1 @_ZNK27CPDFSDK_FormFillEnvironment14HasPermissionsEj(%class.CPDFSDK_FormFillEnvironment*, i32) local_unnamed_addr #2

; Function Attrs: argmemonly nounwind
declare void @llvm.lifetime.start.p0i8(i64 immarg, i8* nocapture) #3

declare %class.CPDFSDK_InteractiveForm* @_ZN27CPDFSDK_FormFillEnvironment18GetInteractiveFormEv(%class.CPDFSDK_FormFillEnvironment*) local_unnamed_addr #2

declare void @_ZN5fxcrt10WideStringC1ERKS0_(%"class.fxcrt::WideString"*, %"class.fxcrt::WideString"* dereferenceable(8)) unnamed_addr #2

declare i64 @_ZN5fxcrt10WideString7ReplaceENS_18StringViewTemplateIwEES2_(%"class.fxcrt::WideString"*, %"class.fxcrt::StringViewTemplate"*, %"class.fxcrt::StringViewTemplate"*) local_unnamed_addr #2

declare i64 @_ZNK20CPDF_InteractiveForm11CountFieldsERKN5fxcrt10WideStringE(%class.CPDF_InteractiveForm*, %"class.fxcrt::WideString"* dereferenceable(8)) local_unnamed_addr #2

declare dereferenceable(8) %"class.fxcrt::WideString"* @_ZN5fxcrt10WideStringaSERKS0_(%"class.fxcrt::WideString"*, %"class.fxcrt::WideString"* dereferenceable(8)) local_unnamed_addr #2

; Function Attrs: argmemonly nounwind
declare void @llvm.lifetime.end.p0i8(i64 immarg, i8* nocapture) #3

; Function Attrs: nounwind ssp uwtable
define hidden void @_ZNK9CJS_Field13GetFormFieldsEv(%"class.std::__1::vector.446"* noalias sret, %class.CJS_Field*) local_unnamed_addr #0 align 2 {
  %3 = getelementptr inbounds %class.CJS_Field, %class.CJS_Field* %1, i64 0, i32 2, i32 1
  %4 = load %class.CPDFSDK_FormFillEnvironment*, %class.CPDFSDK_FormFillEnvironment** %3, align 8
  %5 = getelementptr inbounds %class.CJS_Field, %class.CJS_Field* %1, i64 0, i32 3
  %6 = bitcast %"class.std::__1::vector.446"* %0 to i8*
  tail call void @llvm.memset.p0i8.i64(i8* align 8 %6, i8 0, i64 24, i1 false) #10, !alias.scope !2
  %7 = tail call %class.CPDFSDK_InteractiveForm* @_ZN27CPDFSDK_FormFillEnvironment18GetInteractiveFormEv(%class.CPDFSDK_FormFillEnvironment* %4) #10, !noalias !2
  %8 = getelementptr inbounds %class.CPDFSDK_InteractiveForm, %class.CPDFSDK_InteractiveForm* %7, i64 0, i32 2, i32 0, i32 0, i32 0
  %9 = load %class.CPDF_InteractiveForm*, %class.CPDF_InteractiveForm** %8, align 8, !noalias !2
  %10 = tail call i64 @_ZNK20CPDF_InteractiveForm11CountFieldsERKN5fxcrt10WideStringE(%class.CPDF_InteractiveForm* %9, %"class.fxcrt::WideString"* dereferenceable(8) %5) #10, !noalias !2
  %11 = trunc i64 %10 to i32
  %12 = icmp sgt i32 %11, 0
  br i1 %12, label %13, label %80

13:                                               ; preds = %2
  %14 = getelementptr inbounds %"class.std::__1::vector.446", %"class.std::__1::vector.446"* %0, i64 0, i32 0, i32 1
  %15 = getelementptr inbounds %"class.std::__1::vector.446", %"class.std::__1::vector.446"* %0, i64 0, i32 0, i32 2, i32 0, i32 0
  %16 = bitcast %class.CPDF_FormField*** %14 to i64*
  %17 = bitcast %"class.std::__1::vector.446"* %0 to i64*
  %18 = bitcast %class.CPDF_FormField*** %15 to i64*
  br label %19

19:                                               ; preds = %13, %77
  %20 = phi i32 [ %78, %77 ], [ 0, %13 ]
  %21 = tail call %class.CPDF_FormField* @_ZNK20CPDF_InteractiveForm8GetFieldEjRKN5fxcrt10WideStringE(%class.CPDF_InteractiveForm* %9, i32 %20, %"class.fxcrt::WideString"* dereferenceable(8) %5) #10
  %22 = ptrtoint %class.CPDF_FormField* %21 to i64
  %23 = icmp eq %class.CPDF_FormField* %21, null
  br i1 %23, label %77, label %24

24:                                               ; preds = %19
  %25 = load %class.CPDF_FormField**, %class.CPDF_FormField*** %14, align 8
  %26 = load %class.CPDF_FormField**, %class.CPDF_FormField*** %15, align 8
  %27 = icmp eq %class.CPDF_FormField** %25, %26
  %28 = ptrtoint %class.CPDF_FormField** %26 to i64
  br i1 %27, label %33, label %29

29:                                               ; preds = %24
  %30 = bitcast %class.CPDF_FormField** %25 to i64*
  store i64 %22, i64* %30, align 8
  %31 = getelementptr inbounds %class.CPDF_FormField*, %class.CPDF_FormField** %25, i64 1
  %32 = ptrtoint %class.CPDF_FormField** %31 to i64
  store i64 %32, i64* %16, align 8
  br label %77

33:                                               ; preds = %24
  %34 = ptrtoint %class.CPDF_FormField** %25 to i64
  %35 = load i64, i64* %17, align 8
  %36 = sub i64 %34, %35
  %37 = ashr exact i64 %36, 3
  %38 = add nsw i64 %37, 1
  %39 = icmp ugt i64 %38, 2305843009213693951
  br i1 %39, label %40, label %42

40:                                               ; preds = %33
  %41 = bitcast %"class.std::__1::vector.446"* %0 to %"class.std::__1::__vector_base_common"*
  tail call void @_ZNKSt3__120__vector_base_commonILb1EE20__throw_length_errorEv(%"class.std::__1::__vector_base_common"* %41) #12
  unreachable

42:                                               ; preds = %33
  %43 = sub i64 %28, %35
  %44 = ashr exact i64 %43, 3
  %45 = icmp ult i64 %44, 1152921504606846975
  br i1 %45, label %46, label %54

46:                                               ; preds = %42
  %47 = ashr exact i64 %43, 2
  %48 = icmp ult i64 %47, %38
  %49 = select i1 %48, i64 %38, i64 %47
  %50 = icmp eq i64 %49, 0
  br i1 %50, label %59, label %51

51:                                               ; preds = %46
  %52 = icmp ugt i64 %49, 2305843009213693951
  br i1 %52, label %53, label %54

53:                                               ; preds = %51
  tail call void @abort() #12
  unreachable

54:                                               ; preds = %51, %42
  %55 = phi i64 [ %49, %51 ], [ 2305843009213693951, %42 ]
  %56 = shl i64 %55, 3
  %57 = tail call i8* @_Znwm(i64 %56) #11
  %58 = bitcast i8* %57 to %class.CPDF_FormField**
  br label %59

59:                                               ; preds = %54, %46
  %60 = phi i64 [ %55, %54 ], [ 0, %46 ]
  %61 = phi i8* [ %57, %54 ], [ null, %46 ]
  %62 = phi %class.CPDF_FormField** [ %58, %54 ], [ null, %46 ]
  %63 = getelementptr inbounds %class.CPDF_FormField*, %class.CPDF_FormField** %62, i64 %37
  %64 = getelementptr inbounds %class.CPDF_FormField*, %class.CPDF_FormField** %62, i64 %60
  %65 = ptrtoint %class.CPDF_FormField** %64 to i64
  %66 = bitcast %class.CPDF_FormField** %63 to i64*
  store i64 %22, i64* %66, align 8
  %67 = getelementptr inbounds %class.CPDF_FormField*, %class.CPDF_FormField** %63, i64 1
  %68 = ptrtoint %class.CPDF_FormField** %67 to i64
  %69 = ptrtoint %class.CPDF_FormField** %62 to i64
  %70 = icmp sgt i64 %36, 0
  br i1 %70, label %71, label %73

71:                                               ; preds = %59
  %72 = inttoptr i64 %35 to i8*
  tail call void @llvm.memcpy.p0i8.p0i8.i64(i8* align 8 %61, i8* align 8 %72, i64 %36, i1 false) #10
  br label %73

73:                                               ; preds = %71, %59
  store i64 %69, i64* %17, align 8
  store i64 %68, i64* %16, align 8
  store i64 %65, i64* %18, align 8
  %74 = icmp eq i64 %35, 0
  br i1 %74, label %77, label %75

75:                                               ; preds = %73
  %76 = inttoptr i64 %35 to i8*
  tail call void @_ZdlPv(i8* %76) #11
  br label %77

77:                                               ; preds = %75, %73, %29, %19
  %78 = add nuw nsw i32 %20, 1
  %79 = icmp eq i32 %78, %11
  br i1 %79, label %80, label %19

80:                                               ; preds = %77, %2
  ret void
}

; Function Attrs: nounwind ssp uwtable
define hidden %class.CPDF_FormField* @_ZNK9CJS_Field17GetFirstFormFieldEv(%class.CJS_Field*) local_unnamed_addr #0 align 2 {
  %2 = alloca %"class.std::__1::vector.446", align 8
  %3 = bitcast %"class.std::__1::vector.446"* %2 to i8*
  call void @llvm.lifetime.start.p0i8(i64 24, i8* nonnull %3) #10
  %4 = getelementptr inbounds %"class.std::__1::vector.446", %"class.std::__1::vector.446"* %2, i64 0, i32 0, i32 0
  %5 = getelementptr inbounds %"class.std::__1::vector.446", %"class.std::__1::vector.446"* %2, i64 0, i32 0, i32 1
  %6 = bitcast %"class.std::__1::vector.446"* %2 to i8*
  call void @llvm.memset.p0i8.i64(i8* nonnull align 8 %6, i8 -86, i64 24, i1 false)
  call void @_ZNK9CJS_Field13GetFormFieldsEv(%"class.std::__1::vector.446"* nonnull sret %2, %class.CJS_Field* %0)
  %7 = load %class.CPDF_FormField**, %class.CPDF_FormField*** %4, align 8
  %8 = load %class.CPDF_FormField**, %class.CPDF_FormField*** %5, align 8
  %9 = icmp eq %class.CPDF_FormField** %7, %8
  br i1 %9, label %12, label %10

10:                                               ; preds = %1
  %11 = load %class.CPDF_FormField*, %class.CPDF_FormField** %7, align 8
  br label %12

12:                                               ; preds = %1, %10
  %13 = phi %class.CPDF_FormField* [ %11, %10 ], [ null, %1 ]
  %14 = icmp eq %class.CPDF_FormField** %7, null
  br i1 %14, label %19, label %15

15:                                               ; preds = %12
  %16 = ptrtoint %class.CPDF_FormField** %7 to i64
  %17 = bitcast %class.CPDF_FormField*** %5 to i64*
  store i64 %16, i64* %17, align 8
  %18 = bitcast %class.CPDF_FormField** %7 to i8*
  call void @_ZdlPv(i8* %18) #11
  br label %19

19:                                               ; preds = %12, %15
  call void @llvm.lifetime.end.p0i8(i64 24, i8* nonnull %3) #10
  ret %class.CPDF_FormField* %13
}

; Function Attrs: nounwind ssp uwtable
define hidden %class.CPDF_FormControl* @_ZN9CJS_Field20GetSmartFieldControlEP14CPDF_FormField(%class.CJS_Field* nocapture readonly, %class.CPDF_FormField*) local_unnamed_addr #0 align 2 {
  %3 = tail call i32 @_ZNK14CPDF_FormField13CountControlsEv(%class.CPDF_FormField* %1) #10
  %4 = icmp eq i32 %3, 0
  br i1 %4, label %17, label %5

5:                                                ; preds = %2
  %6 = getelementptr inbounds %class.CJS_Field, %class.CJS_Field* %0, i64 0, i32 4
  %7 = load i32, i32* %6, align 8
  %8 = tail call i32 @_ZNK14CPDF_FormField13CountControlsEv(%class.CPDF_FormField* %1) #10
  %9 = icmp slt i32 %7, %8
  br i1 %9, label %10, label %17

10:                                               ; preds = %5
  %11 = load i32, i32* %6, align 8
  %12 = icmp slt i32 %11, 0
  br i1 %12, label %13, label %15

13:                                               ; preds = %10
  %14 = tail call %class.CPDF_FormControl* @_ZNK14CPDF_FormField10GetControlEi(%class.CPDF_FormField* %1, i32 0) #10
  br label %17

15:                                               ; preds = %10
  %16 = tail call %class.CPDF_FormControl* @_ZNK14CPDF_FormField10GetControlEi(%class.CPDF_FormField* %1, i32 %11) #10
  br label %17

17:                                               ; preds = %2, %5, %15, %13
  %18 = phi %class.CPDF_FormControl* [ %14, %13 ], [ %16, %15 ], [ null, %5 ], [ null, %2 ]
  ret %class.CPDF_FormControl* %18
}

declare i32 @_ZNK14CPDF_FormField13CountControlsEv(%class.CPDF_FormField*) local_unnamed_addr #2

declare %class.CPDF_FormControl* @_ZNK14CPDF_FormField10GetControlEi(%class.CPDF_FormField*, i32) local_unnamed_addr #2

; Function Attrs: nounwind ssp uwtable
define hidden void @_ZN9CJS_Field13get_alignmentEP11CJS_Runtime(%class.CJS_Result* noalias sret, %class.CJS_Field*, %class.CJS_Runtime*) local_unnamed_addr #0 align 2 {
  %4 = alloca %"class.std::__1::vector.446", align 8
  %5 = alloca %"class.fxcrt::StringViewTemplate.462", align 8
  %6 = alloca %"class.fxcrt::StringViewTemplate.462", align 8
  %7 = alloca %"class.fxcrt::StringViewTemplate.462", align 8
  %8 = alloca %"class.fxcrt::StringViewTemplate.462", align 8
  %9 = bitcast %"class.std::__1::vector.446"* %4 to i8*
  call void @llvm.lifetime.start.p0i8(i64 24, i8* nonnull %9) #10
  %10 = getelementptr inbounds %"class.std::__1::vector.446", %"class.std::__1::vector.446"* %4, i64 0, i32 0, i32 0
  %11 = getelementptr inbounds %"class.std::__1::vector.446", %"class.std::__1::vector.446"* %4, i64 0, i32 0, i32 1
  call void @llvm.memset.p0i8.i64(i8* nonnull align 8 %9, i8 -86, i64 24, i1 false) #10
  call void @_ZNK9CJS_Field13GetFormFieldsEv(%"class.std::__1::vector.446"* nonnull sret %4, %class.CJS_Field* %1) #10
  %12 = load %class.CPDF_FormField**, %class.CPDF_FormField*** %10, align 8
  %13 = load %class.CPDF_FormField**, %class.CPDF_FormField*** %11, align 8
  %14 = icmp eq %class.CPDF_FormField** %12, %13
  br i1 %14, label %17, label %15

15:                                               ; preds = %3
  %16 = load %class.CPDF_FormField*, %class.CPDF_FormField** %12, align 8
  br label %17

17:                                               ; preds = %15, %3
  %18 = phi %class.CPDF_FormField* [ %16, %15 ], [ null, %3 ]
  %19 = icmp eq %class.CPDF_FormField** %12, null
  br i1 %19, label %24, label %20

20:                                               ; preds = %17
  %21 = ptrtoint %class.CPDF_FormField** %12 to i64
  %22 = bitcast %class.CPDF_FormField*** %11 to i64*
  store i64 %21, i64* %22, align 8
  %23 = bitcast %class.CPDF_FormField** %12 to i8*
  call void @_ZdlPv(i8* %23) #11
  br label %24

24:                                               ; preds = %17, %20
  call void @llvm.lifetime.end.p0i8(i64 24, i8* nonnull %9) #10
  %25 = icmp eq %class.CPDF_FormField* %18, null
  br i1 %25, label %26, label %27

26:                                               ; preds = %24
  call void @_ZN10CJS_ResultC1E9JSMessage(%class.CJS_Result* %0, i32 19) #10
  br label %72

27:                                               ; preds = %24
  %28 = call zeroext i8 @_ZNK14CPDF_FormField12GetFieldTypeEv(%class.CPDF_FormField* nonnull %18) #10
  %29 = icmp eq i8 %28, 6
  br i1 %29, label %31, label %30

30:                                               ; preds = %27
  call void @_ZN10CJS_ResultC1E9JSMessage(%class.CJS_Result* %0, i32 20) #10
  br label %72

31:                                               ; preds = %27
  %32 = call i32 @_ZNK14CPDF_FormField13CountControlsEv(%class.CPDF_FormField* nonnull %18) #10
  %33 = icmp eq i32 %32, 0
  br i1 %33, label %45, label %34

34:                                               ; preds = %31
  %35 = getelementptr inbounds %class.CJS_Field, %class.CJS_Field* %1, i64 0, i32 4
  %36 = load i32, i32* %35, align 8
  %37 = call i32 @_ZNK14CPDF_FormField13CountControlsEv(%class.CPDF_FormField* nonnull %18) #10
  %38 = icmp slt i32 %36, %37
  br i1 %38, label %39, label %45

39:                                               ; preds = %34
  %40 = load i32, i32* %35, align 8
  %41 = icmp sgt i32 %40, 0
  %42 = select i1 %41, i32 %40, i32 0
  %43 = call %class.CPDF_FormControl* @_ZNK14CPDF_FormField10GetControlEi(%class.CPDF_FormField* nonnull %18, i32 %42) #10
  %44 = icmp eq %class.CPDF_FormControl* %43, null
  br i1 %44, label %45, label %46

45:                                               ; preds = %31, %34, %39
  call void @_ZN10CJS_ResultC1E9JSMessage(%class.CJS_Result* %0, i32 19) #10
  br label %72

46:                                               ; preds = %39
  %47 = call i32 @_ZNK16CPDF_FormControl19GetControlAlignmentEv(%class.CPDF_FormControl* nonnull %43) #10
  switch i32 %47, label %66 [
    i32 0, label %48
    i32 1, label %54
    i32 2, label %60
  ]

48:                                               ; preds = %46
  %49 = getelementptr inbounds %class.CJS_Runtime, %class.CJS_Runtime* %2, i64 0, i32 1, i32 0
  %50 = getelementptr inbounds %"class.fxcrt::StringViewTemplate.462", %"class.fxcrt::StringViewTemplate.462"* %5, i64 0, i32 0, i32 0, i32 0
  store i8* getelementptr inbounds ([5 x i8], [5 x i8]* @.str.80, i64 0, i64 0), i8** %50, align 8
  %51 = getelementptr inbounds %"class.fxcrt::StringViewTemplate.462", %"class.fxcrt::StringViewTemplate.462"* %5, i64 0, i32 0, i32 1
  store i64 4, i64* %51, align 8
  %52 = call %"class.v8::String"* @_ZN6CFX_V89NewStringEN5fxcrt18StringViewTemplateIcEE(%class.CFX_V8* %49, %"class.fxcrt::StringViewTemplate.462"* nonnull %5) #10
  %53 = bitcast %"class.v8::String"* %52 to %"class.v8::Value"*
  call void @_ZN10CJS_ResultC1EN2v85LocalINS0_5ValueEEE(%class.CJS_Result* %0, %"class.v8::Value"* %53) #10
  br label %72

54:                                               ; preds = %46
  %55 = getelementptr inbounds %class.CJS_Runtime, %class.CJS_Runtime* %2, i64 0, i32 1, i32 0
  %56 = getelementptr inbounds %"class.fxcrt::StringViewTemplate.462", %"class.fxcrt::StringViewTemplate.462"* %6, i64 0, i32 0, i32 0, i32 0
  store i8* getelementptr inbounds ([7 x i8], [7 x i8]* @.str.81, i64 0, i64 0), i8** %56, align 8
  %57 = getelementptr inbounds %"class.fxcrt::StringViewTemplate.462", %"class.fxcrt::StringViewTemplate.462"* %6, i64 0, i32 0, i32 1
  store i64 6, i64* %57, align 8
  %58 = call %"class.v8::String"* @_ZN6CFX_V89NewStringEN5fxcrt18StringViewTemplateIcEE(%class.CFX_V8* %55, %"class.fxcrt::StringViewTemplate.462"* nonnull %6) #10
  %59 = bitcast %"class.v8::String"* %58 to %"class.v8::Value"*
  call void @_ZN10CJS_ResultC1EN2v85LocalINS0_5ValueEEE(%class.CJS_Result* %0, %"class.v8::Value"* %59) #10
  br label %72

60:                                               ; preds = %46
  %61 = getelementptr inbounds %class.CJS_Runtime, %class.CJS_Runtime* %2, i64 0, i32 1, i32 0
  %62 = getelementptr inbounds %"class.fxcrt::StringViewTemplate.462", %"class.fxcrt::StringViewTemplate.462"* %7, i64 0, i32 0, i32 0, i32 0
  store i8* getelementptr inbounds ([6 x i8], [6 x i8]* @.str.82, i64 0, i64 0), i8** %62, align 8
  %63 = getelementptr inbounds %"class.fxcrt::StringViewTemplate.462", %"class.fxcrt::StringViewTemplate.462"* %7, i64 0, i32 0, i32 1
  store i64 5, i64* %63, align 8
  %64 = call %"class.v8::String"* @_ZN6CFX_V89NewStringEN5fxcrt18StringViewTemplateIcEE(%class.CFX_V8* %61, %"class.fxcrt::StringViewTemplate.462"* nonnull %7) #10
  %65 = bitcast %"class.v8::String"* %64 to %"class.v8::Value"*
  call void @_ZN10CJS_ResultC1EN2v85LocalINS0_5ValueEEE(%class.CJS_Result* %0, %"class.v8::Value"* %65) #10
  br label %72

66:                                               ; preds = %46
  %67 = getelementptr inbounds %class.CJS_Runtime, %class.CJS_Runtime* %2, i64 0, i32 1, i32 0
  %68 = getelementptr inbounds %"class.fxcrt::StringViewTemplate.462", %"class.fxcrt::StringViewTemplate.462"* %8, i64 0, i32 0, i32 0, i32 0
  store i8* getelementptr inbounds ([1 x i8], [1 x i8]* @.str.83, i64 0, i64 0), i8** %68, align 8
  %69 = getelementptr inbounds %"class.fxcrt::StringViewTemplate.462", %"class.fxcrt::StringViewTemplate.462"* %8, i64 0, i32 0, i32 1
  store i64 0, i64* %69, align 8
  %70 = call %"class.v8::String"* @_ZN6CFX_V89NewStringEN5fxcrt18StringViewTemplateIcEE(%class.CFX_V8* %67, %"class.fxcrt::StringViewTemplate.462"* nonnull %8) #10
  %71 = bitcast %"class.v8::String"* %70 to %"class.v8::Value"*
  call void @_ZN10CJS_ResultC1EN2v85LocalINS0_5ValueEEE(%class.CJS_Result* %0, %"class.v8::Value"* %71) #10
  br label %72

72:                                               ; preds = %45, %48, %54, %60, %66, %30, %26
  ret void
}

declare zeroext i8 @_ZNK14CPDF_FormField12GetFieldTypeEv(%class.CPDF_FormField*) local_unnamed_addr #2

declare i32 @_ZNK16CPDF_FormControl19GetControlAlignmentEv(%class.CPDF_FormControl*) local_unnamed_addr #2

declare %"class.v8::String"* @_ZN6CFX_V89NewStringEN5fxcrt18StringViewTemplateIcEE(%class.CFX_V8*, %"class.fxcrt::StringViewTemplate.462"*) local_unnamed_addr #2

; Function Attrs: nounwind ssp uwtable
define hidden void @_ZN9CJS_Field13set_alignmentEP11CJS_RuntimeN2v85LocalINS2_5ValueEEE(%class.CJS_Result* noalias sret, %class.CJS_Field* nocapture readonly, %class.CJS_Runtime* nocapture readnone, %"class.v8::Value"* nocapture readnone) local_unnamed_addr #0 align 2 {
  %5 = getelementptr inbounds %class.CJS_Field, %class.CJS_Field* %1, i64 0, i32 5
  %6 = load i8, i8* %5, align 4, !range !5
  %7 = icmp eq i8 %6, 0
  br i1 %7, label %8, label %9

8:                                                ; preds = %4
  tail call void @_ZN10CJS_ResultC1E9JSMessage(%class.CJS_Result* %0, i32 15) #10
  br label %10

9:                                                ; preds = %4
  tail call void @_ZN10CJS_ResultC1Ev(%class.CJS_Result* %0) #10
  br label %10

10:                                               ; preds = %9, %8
  ret void
}

; Function Attrs: nounwind ssp uwtable
define hidden void @_ZN9CJS_Field16get_border_styleEP11CJS_Runtime(%class.CJS_Result* noalias sret, %class.CJS_Field*, %class.CJS_Runtime*) local_unnamed_addr #0 align 2 {
  %4 = alloca %"class.std::__1::vector.446", align 8
  %5 = alloca %"class.fxcrt::StringViewTemplate.462", align 8
  %6 = alloca %"class.fxcrt::StringViewTemplate.462", align 8
  %7 = alloca %"class.fxcrt::StringViewTemplate.462", align 8
  %8 = alloca %"class.fxcrt::StringViewTemplate.462", align 8
  %9 = alloca %"class.fxcrt::StringViewTemplate.462", align 8
  %10 = alloca %"class.fxcrt::StringViewTemplate.462", align 8
  %11 = bitcast %"class.std::__1::vector.446"* %4 to i8*
  call void @llvm.lifetime.start.p0i8(i64 24, i8* nonnull %11) #10
  %12 = getelementptr inbounds %"class.std::__1::vector.446", %"class.std::__1::vector.446"* %4, i64 0, i32 0, i32 0
  %13 = getelementptr inbounds %"class.std::__1::vector.446", %"class.std::__1::vector.446"* %4, i64 0, i32 0, i32 1
  call void @llvm.memset.p0i8.i64(i8* nonnull align 8 %11, i8 -86, i64 24, i1 false) #10
  call void @_ZNK9CJS_Field13GetFormFieldsEv(%"class.std::__1::vector.446"* nonnull sret %4, %class.CJS_Field* %1) #10
  %14 = load %class.CPDF_FormField**, %class.CPDF_FormField*** %12, align 8
  %15 = load %class.CPDF_FormField**, %class.CPDF_FormField*** %13, align 8
  %16 = icmp eq %class.CPDF_FormField** %14, %15
  br i1 %16, label %19, label %17

17:                                               ; preds = %3
  %18 = load %class.CPDF_FormField*, %class.CPDF_FormField** %14, align 8
  br label %19

19:                                               ; preds = %17, %3
  %20 = phi %class.CPDF_FormField* [ %18, %17 ], [ null, %3 ]
  %21 = icmp eq %class.CPDF_FormField** %14, null
  br i1 %21, label %26, label %22

22:                                               ; preds = %19
  %23 = ptrtoint %class.CPDF_FormField** %14 to i64
  %24 = bitcast %class.CPDF_FormField*** %13 to i64*
  store i64 %23, i64* %24, align 8
  %25 = bitcast %class.CPDF_FormField** %14 to i8*
  call void @_ZdlPv(i8* %25) #11
  br label %26

26:                                               ; preds = %19, %22
  call void @llvm.lifetime.end.p0i8(i64 24, i8* nonnull %11) #10
  %27 = icmp eq %class.CPDF_FormField* %20, null
  br i1 %27, label %28, label %29

28:                                               ; preds = %26
  call void @_ZN10CJS_ResultC1E9JSMessage(%class.CJS_Result* %0, i32 19) #10
  br label %91

29:                                               ; preds = %26
  %30 = getelementptr inbounds %class.CJS_Field, %class.CJS_Field* %1, i64 0, i32 2, i32 1
  %31 = load %class.CPDFSDK_FormFillEnvironment*, %class.CPDFSDK_FormFillEnvironment** %30, align 8
  %32 = call %class.CPDFSDK_InteractiveForm* @_ZN27CPDFSDK_FormFillEnvironment18GetInteractiveFormEv(%class.CPDFSDK_FormFillEnvironment* %31) #10
  %33 = call i32 @_ZNK14CPDF_FormField13CountControlsEv(%class.CPDF_FormField* nonnull %20) #10
  %34 = icmp eq i32 %33, 0
  br i1 %34, label %47, label %35

35:                                               ; preds = %29
  %36 = getelementptr inbounds %class.CJS_Field, %class.CJS_Field* %1, i64 0, i32 4
  %37 = load i32, i32* %36, align 8
  %38 = call i32 @_ZNK14CPDF_FormField13CountControlsEv(%class.CPDF_FormField* nonnull %20) #10
  %39 = icmp slt i32 %37, %38
  br i1 %39, label %40, label %47

40:                                               ; preds = %35
  %41 = load i32, i32* %36, align 8
  %42 = icmp slt i32 %41, 0
  br i1 %42, label %43, label %45

43:                                               ; preds = %40
  %44 = call %class.CPDF_FormControl* @_ZNK14CPDF_FormField10GetControlEi(%class.CPDF_FormField* nonnull %20, i32 0) #10
  br label %47

45:                                               ; preds = %40
  %46 = call %class.CPDF_FormControl* @_ZNK14CPDF_FormField10GetControlEi(%class.CPDF_FormField* nonnull %20, i32 %41) #10
  br label %47

47:                                               ; preds = %29, %35, %43, %45
  %48 = phi %class.CPDF_FormControl* [ %44, %43 ], [ %46, %45 ], [ null, %35 ], [ null, %29 ]
  %49 = call %class.CPDFSDK_Widget* @_ZNK23CPDFSDK_InteractiveForm9GetWidgetEP16CPDF_FormControl(%class.CPDFSDK_InteractiveForm* %32, %class.CPDF_FormControl* %48) #10
  %50 = icmp eq %class.CPDFSDK_Widget* %49, null
  br i1 %50, label %51, label %52

51:                                               ; preds = %47
  call void @_ZN10CJS_ResultC1E9JSMessage(%class.CJS_Result* %0, i32 19) #10
  br label %91

52:                                               ; preds = %47
  %53 = getelementptr inbounds %class.CPDFSDK_Widget, %class.CPDFSDK_Widget* %49, i64 0, i32 0
  %54 = call i32 @_ZNK15CPDFSDK_BAAnnot14GetBorderStyleEv(%class.CPDFSDK_BAAnnot* %53) #10
  switch i32 %54, label %85 [
    i32 0, label %55
    i32 1, label %61
    i32 2, label %67
    i32 3, label %73
    i32 4, label %79
  ]

55:                                               ; preds = %52
  %56 = getelementptr inbounds %class.CJS_Runtime, %class.CJS_Runtime* %2, i64 0, i32 1, i32 0
  %57 = getelementptr inbounds %"class.fxcrt::StringViewTemplate.462", %"class.fxcrt::StringViewTemplate.462"* %5, i64 0, i32 0, i32 0, i32 0
  store i8* getelementptr inbounds ([6 x i8], [6 x i8]* @.str.84, i64 0, i64 0), i8** %57, align 8
  %58 = getelementptr inbounds %"class.fxcrt::StringViewTemplate.462", %"class.fxcrt::StringViewTemplate.462"* %5, i64 0, i32 0, i32 1
  store i64 5, i64* %58, align 8
  %59 = call %"class.v8::String"* @_ZN6CFX_V89NewStringEN5fxcrt18StringViewTemplateIcEE(%class.CFX_V8* %56, %"class.fxcrt::StringViewTemplate.462"* nonnull %5) #10
  %60 = bitcast %"class.v8::String"* %59 to %"class.v8::Value"*
  call void @_ZN10CJS_ResultC1EN2v85LocalINS0_5ValueEEE(%class.CJS_Result* %0, %"class.v8::Value"* %60) #10
  br label %91

61:                                               ; preds = %52
  %62 = getelementptr inbounds %class.CJS_Runtime, %class.CJS_Runtime* %2, i64 0, i32 1, i32 0
  %63 = getelementptr inbounds %"class.fxcrt::StringViewTemplate.462", %"class.fxcrt::StringViewTemplate.462"* %6, i64 0, i32 0, i32 0, i32 0
  store i8* getelementptr inbounds ([7 x i8], [7 x i8]* @.str.85, i64 0, i64 0), i8** %63, align 8
  %64 = getelementptr inbounds %"class.fxcrt::StringViewTemplate.462", %"class.fxcrt::StringViewTemplate.462"* %6, i64 0, i32 0, i32 1
  store i64 6, i64* %64, align 8
  %65 = call %"class.v8::String"* @_ZN6CFX_V89NewStringEN5fxcrt18StringViewTemplateIcEE(%class.CFX_V8* %62, %"class.fxcrt::StringViewTemplate.462"* nonnull %6) #10
  %66 = bitcast %"class.v8::String"* %65 to %"class.v8::Value"*
  call void @_ZN10CJS_ResultC1EN2v85LocalINS0_5ValueEEE(%class.CJS_Result* %0, %"class.v8::Value"* %66) #10
  br label %91

67:                                               ; preds = %52
  %68 = getelementptr inbounds %class.CJS_Runtime, %class.CJS_Runtime* %2, i64 0, i32 1, i32 0
  %69 = getelementptr inbounds %"class.fxcrt::StringViewTemplate.462", %"class.fxcrt::StringViewTemplate.462"* %7, i64 0, i32 0, i32 0, i32 0
  store i8* getelementptr inbounds ([8 x i8], [8 x i8]* @.str.86, i64 0, i64 0), i8** %69, align 8
  %70 = getelementptr inbounds %"class.fxcrt::StringViewTemplate.462", %"class.fxcrt::StringViewTemplate.462"* %7, i64 0, i32 0, i32 1
  store i64 7, i64* %70, align 8
  %71 = call %"class.v8::String"* @_ZN6CFX_V89NewStringEN5fxcrt18StringViewTemplateIcEE(%class.CFX_V8* %68, %"class.fxcrt::StringViewTemplate.462"* nonnull %7) #10
  %72 = bitcast %"class.v8::String"* %71 to %"class.v8::Value"*
  call void @_ZN10CJS_ResultC1EN2v85LocalINS0_5ValueEEE(%class.CJS_Result* %0, %"class.v8::Value"* %72) #10
  br label %91

73:                                               ; preds = %52
  %74 = getelementptr inbounds %class.CJS_Runtime, %class.CJS_Runtime* %2, i64 0, i32 1, i32 0
  %75 = getelementptr inbounds %"class.fxcrt::StringViewTemplate.462", %"class.fxcrt::StringViewTemplate.462"* %8, i64 0, i32 0, i32 0, i32 0
  store i8* getelementptr inbounds ([6 x i8], [6 x i8]* @.str.87, i64 0, i64 0), i8** %75, align 8
  %76 = getelementptr inbounds %"class.fxcrt::StringViewTemplate.462", %"class.fxcrt::StringViewTemplate.462"* %8, i64 0, i32 0, i32 1
  store i64 5, i64* %76, align 8
  %77 = call %"class.v8::String"* @_ZN6CFX_V89NewStringEN5fxcrt18StringViewTemplateIcEE(%class.CFX_V8* %74, %"class.fxcrt::StringViewTemplate.462"* nonnull %8) #10
  %78 = bitcast %"class.v8::String"* %77 to %"class.v8::Value"*
  call void @_ZN10CJS_ResultC1EN2v85LocalINS0_5ValueEEE(%class.CJS_Result* %0, %"class.v8::Value"* %78) #10
  br label %91

79:                                               ; preds = %52
  %80 = getelementptr inbounds %class.CJS_Runtime, %class.CJS_Runtime* %2, i64 0, i32 1, i32 0
  %81 = getelementptr inbounds %"class.fxcrt::StringViewTemplate.462", %"class.fxcrt::StringViewTemplate.462"* %9, i64 0, i32 0, i32 0, i32 0
  store i8* getelementptr inbounds ([10 x i8], [10 x i8]* @.str.88, i64 0, i64 0), i8** %81, align 8
  %82 = getelementptr inbounds %"class.fxcrt::StringViewTemplate.462", %"class.fxcrt::StringViewTemplate.462"* %9, i64 0, i32 0, i32 1
  store i64 9, i64* %82, align 8
  %83 = call %"class.v8::String"* @_ZN6CFX_V89NewStringEN5fxcrt18StringViewTemplateIcEE(%class.CFX_V8* %80, %"class.fxcrt::StringViewTemplate.462"* nonnull %9) #10
  %84 = bitcast %"class.v8::String"* %83 to %"class.v8::Value"*
  call void @_ZN10CJS_ResultC1EN2v85LocalINS0_5ValueEEE(%class.CJS_Result* %0, %"class.v8::Value"* %84) #10
  br label %91

85:                                               ; preds = %52
  %86 = getelementptr inbounds %class.CJS_Runtime, %class.CJS_Runtime* %2, i64 0, i32 1, i32 0
  %87 = getelementptr inbounds %"class.fxcrt::StringViewTemplate.462", %"class.fxcrt::StringViewTemplate.462"* %10, i64 0, i32 0, i32 0, i32 0
  store i8* getelementptr inbounds ([1 x i8], [1 x i8]* @.str.83, i64 0, i64 0), i8** %87, align 8
  %88 = getelementptr inbounds %"class.fxcrt::StringViewTemplate.462", %"class.fxcrt::StringViewTemplate.462"* %10, i64 0, i32 0, i32 1
  store i64 0, i64* %88, align 8
  %89 = call %"class.v8::String"* @_ZN6CFX_V89NewStringEN5fxcrt18StringViewTemplateIcEE(%class.CFX_V8* %86, %"class.fxcrt::StringViewTemplate.462"* nonnull %10) #10
  %90 = bitcast %"class.v8::String"* %89 to %"class.v8::Value"*
  call void @_ZN10CJS_ResultC1EN2v85LocalINS0_5ValueEEE(%class.CJS_Result* %0, %"class.v8::Value"* %90) #10
  br label %91

91:                                               ; preds = %51, %55, %61, %67, %73, %79, %85, %28
  ret void
}

declare %class.CPDFSDK_Widget* @_ZNK23CPDFSDK_InteractiveForm9GetWidgetEP16CPDF_FormControl(%class.CPDFSDK_InteractiveForm*, %class.CPDF_FormControl*) local_unnamed_addr #2

declare i32 @_ZNK15CPDFSDK_BAAnnot14GetBorderStyleEv(%class.CPDFSDK_BAAnnot*) local_unnamed_addr #2

; Function Attrs: nounwind ssp uwtable
define hidden void @_ZN9CJS_Field16set_border_styleEP11CJS_RuntimeN2v85LocalINS2_5ValueEEE(%class.CJS_Result* noalias sret, %class.CJS_Field*, %class.CJS_Runtime*, %"class.v8::Value"*) local_unnamed_addr #0 align 2 {
  %5 = alloca %"class.fxcrt::ByteString", align 8
  %6 = alloca %"class.fxcrt::WideString", align 8
  %7 = getelementptr inbounds %class.CJS_Field, %class.CJS_Field* %1, i64 0, i32 5
  %8 = load i8, i8* %7, align 4, !range !5
  %9 = icmp eq i8 %8, 0
  br i1 %9, label %10, label %11

10:                                               ; preds = %4
  tail call void @_ZN10CJS_ResultC1E9JSMessage(%class.CJS_Result* %0, i32 15) #10
  br label %37

11:                                               ; preds = %4
  %12 = bitcast %"class.fxcrt::ByteString"* %5 to i8*
  call void @llvm.lifetime.start.p0i8(i64 8, i8* nonnull %12) #10
  %13 = getelementptr inbounds %"class.fxcrt::ByteString", %"class.fxcrt::ByteString"* %5, i64 0, i32 0, i32 0, i32 0, i32 0, i32 0
  store %"class.fxcrt::StringDataTemplate"* inttoptr (i64 -6148914691236517206 to %"class.fxcrt::StringDataTemplate"*), %"class.fxcrt::StringDataTemplate"** %13, align 8
  %14 = bitcast %"class.fxcrt::WideString"* %6 to i8*
  call void @llvm.lifetime.start.p0i8(i64 8, i8* nonnull %14) #10
  %15 = getelementptr inbounds %class.CJS_Runtime, %class.CJS_Runtime* %2, i64 0, i32 1, i32 0
  call void @_ZN6CFX_V812ToWideStringEN2v85LocalINS0_5ValueEEE(%"class.fxcrt::WideString"* nonnull sret %6, %class.CFX_V8* %15, %"class.v8::Value"* %3) #10
  call void @_ZNK5fxcrt10WideString9ToDefANSIEv(%"class.fxcrt::ByteString"* nonnull sret %5, %"class.fxcrt::WideString"* nonnull %6) #10
  call void @_ZN5fxcrt10WideStringD1Ev(%"class.fxcrt::WideString"* nonnull %6) #10
  call void @llvm.lifetime.end.p0i8(i64 8, i8* nonnull %14) #10
  %16 = getelementptr inbounds %class.CJS_Field, %class.CJS_Field* %1, i64 0, i32 6
  %17 = load i8, i8* %16, align 1, !range !5
  %18 = icmp eq i8 %17, 0
  br i1 %18, label %30, label %19

19:                                               ; preds = %11
  %20 = getelementptr inbounds %class.CJS_Field, %class.CJS_Field* %1, i64 0, i32 4
  %21 = getelementptr inbounds %class.CJS_Field, %class.CJS_Field* %1, i64 0, i32 3
  %22 = call i8* @_Znwm(i64 128) #11
  %23 = bitcast i8* %22 to %struct.CJS_DelayData*
  %24 = load i32, i32* %20, align 4
  call void @_ZN13CJS_DelayDataC1E10FIELD_PROPiRKN5fxcrt10WideStringE(%struct.CJS_DelayData* nonnull %23, i32 0, i32 %24, %"class.fxcrt::WideString"* dereferenceable(8) %21) #10
  %25 = getelementptr inbounds i8, i8* %22, i64 24
  %26 = bitcast i8* %25 to %"class.fxcrt::ByteString"*
  %27 = call dereferenceable(8) %"class.fxcrt::ByteString"* @_ZN5fxcrt10ByteStringaSERKS0_(%"class.fxcrt::ByteString"* %26, %"class.fxcrt::ByteString"* nonnull dereferenceable(8) %5) #10
  %28 = getelementptr inbounds %class.CJS_Field, %class.CJS_Field* %1, i64 0, i32 1, i32 1
  %29 = load %class.CJS_Document*, %class.CJS_Document** %28, align 8
  call void @_ZN12CJS_Document12AddDelayDataENSt3__110unique_ptrI13CJS_DelayDataNS0_14default_deleteIS2_EEEE(%class.CJS_Document* %29, %struct.CJS_DelayData* nonnull %23) #10
  br label %36

30:                                               ; preds = %11
  %31 = getelementptr inbounds %class.CJS_Field, %class.CJS_Field* %1, i64 0, i32 2, i32 1
  %32 = load %class.CPDFSDK_FormFillEnvironment*, %class.CPDFSDK_FormFillEnvironment** %31, align 8
  %33 = getelementptr inbounds %class.CJS_Field, %class.CJS_Field* %1, i64 0, i32 3
  %34 = getelementptr inbounds %class.CJS_Field, %class.CJS_Field* %1, i64 0, i32 4
  %35 = load i32, i32* %34, align 8
  call fastcc void @_ZN12_GLOBAL__N_114SetBorderStyleEP27CPDFSDK_FormFillEnvironmentRKN5fxcrt10WideStringEiRKNS2_10ByteStringE(%class.CPDFSDK_FormFillEnvironment* %32, %"class.fxcrt::WideString"* dereferenceable(8) %33, i32 %35, %"class.fxcrt::ByteString"* nonnull dereferenceable(8) %5)
  br label %36

36:                                               ; preds = %30, %19
  call void @_ZN10CJS_ResultC1Ev(%class.CJS_Result* %0) #10
  call void @_ZN5fxcrt10ByteStringD1Ev(%"class.fxcrt::ByteString"* nonnull %5) #10
  call void @llvm.lifetime.end.p0i8(i64 8, i8* nonnull %12) #10
  br label %37

37:                                               ; preds = %36, %10
  ret void
}

declare void @_ZN6CFX_V812ToWideStringEN2v85LocalINS0_5ValueEEE(%"class.fxcrt::WideString"* sret, %class.CFX_V8*, %"class.v8::Value"*) local_unnamed_addr #2

declare void @_ZNK5fxcrt10WideString9ToDefANSIEv(%"class.fxcrt::ByteString"* sret, %"class.fxcrt::WideString"*) local_unnamed_addr #2

; Function Attrs: nounwind ssp uwtable
define hidden void @_ZN9CJS_Field15AddDelay_StringE10FIELD_PROPRKN5fxcrt10ByteStringE(%class.CJS_Field*, i32, %"class.fxcrt::ByteString"* dereferenceable(8)) local_unnamed_addr #0 align 2 {
  %4 = getelementptr inbounds %class.CJS_Field, %class.CJS_Field* %0, i64 0, i32 4
  %5 = getelementptr inbounds %class.CJS_Field, %class.CJS_Field* %0, i64 0, i32 3
  %6 = tail call i8* @_Znwm(i64 128) #11
  %7 = bitcast i8* %6 to %struct.CJS_DelayData*
  %8 = load i32, i32* %4, align 4
  tail call void @_ZN13CJS_DelayDataC1E10FIELD_PROPiRKN5fxcrt10WideStringE(%struct.CJS_DelayData* nonnull %7, i32 %1, i32 %8, %"class.fxcrt::WideString"* dereferenceable(8) %5) #10
  %9 = getelementptr inbounds i8, i8* %6, i64 24
  %10 = bitcast i8* %9 to %"class.fxcrt::ByteString"*
  %11 = tail call dereferenceable(8) %"class.fxcrt::ByteString"* @_ZN5fxcrt10ByteStringaSERKS0_(%"class.fxcrt::ByteString"* %10, %"class.fxcrt::ByteString"* dereferenceable(8) %2) #10
  %12 = getelementptr inbounds %class.CJS_Field, %class.CJS_Field* %0, i64 0, i32 1, i32 1
  %13 = load %class.CJS_Document*, %class.CJS_Document** %12, align 8
  tail call void @_ZN12CJS_Document12AddDelayDataENSt3__110unique_ptrI13CJS_DelayDataNS0_14default_deleteIS2_EEEE(%class.CJS_Document* %13, %struct.CJS_DelayData* nonnull %7) #10
  ret void
}

; Function Attrs: nounwind ssp uwtable
define internal fastcc void @_ZN12_GLOBAL__N_114SetBorderStyleEP27CPDFSDK_FormFillEnvironmentRKN5fxcrt10WideStringEiRKNS2_10ByteStringE(%class.CPDFSDK_FormFillEnvironment*, %"class.fxcrt::WideString"* dereferenceable(8), i32, %"class.fxcrt::ByteString"* dereferenceable(8)) unnamed_addr #0 {
  %5 = alloca %"class.std::__1::vector.446", align 8
  %6 = tail call zeroext i1 @_ZNK5fxcrt10ByteStringeqEPKc(%"class.fxcrt::ByteString"* %3, i8* getelementptr inbounds ([6 x i8], [6 x i8]* @.str.84, i64 0, i64 0)) #10
  br i1 %6, label %15, label %7

7:                                                ; preds = %4
  %8 = tail call zeroext i1 @_ZNK5fxcrt10ByteStringeqEPKc(%"class.fxcrt::ByteString"* %3, i8* getelementptr inbounds ([8 x i8], [8 x i8]* @.str.86, i64 0, i64 0)) #10
  br i1 %8, label %15, label %9

9:                                                ; preds = %7
  %10 = tail call zeroext i1 @_ZNK5fxcrt10ByteStringeqEPKc(%"class.fxcrt::ByteString"* %3, i8* getelementptr inbounds ([7 x i8], [7 x i8]* @.str.85, i64 0, i64 0)) #10
  br i1 %10, label %15, label %11

11:                                               ; preds = %9
  %12 = tail call zeroext i1 @_ZNK5fxcrt10ByteStringeqEPKc(%"class.fxcrt::ByteString"* %3, i8* getelementptr inbounds ([6 x i8], [6 x i8]* @.str.87, i64 0, i64 0)) #10
  br i1 %12, label %15, label %13

13:                                               ; preds = %11
  %14 = tail call zeroext i1 @_ZNK5fxcrt10ByteStringeqEPKc(%"class.fxcrt::ByteString"* %3, i8* getelementptr inbounds ([10 x i8], [10 x i8]* @.str.88, i64 0, i64 0)) #10
  br i1 %14, label %15, label %156

15:                                               ; preds = %13, %11, %9, %7, %4
  %16 = phi i32 [ 0, %4 ], [ 2, %7 ], [ 1, %9 ], [ 3, %11 ], [ 4, %13 ]
  %17 = bitcast %"class.std::__1::vector.446"* %5 to i8*
  call void @llvm.lifetime.start.p0i8(i64 24, i8* nonnull %17) #10
  %18 = getelementptr inbounds %"class.std::__1::vector.446", %"class.std::__1::vector.446"* %5, i64 0, i32 0, i32 1
  %19 = getelementptr inbounds %"class.std::__1::vector.446", %"class.std::__1::vector.446"* %5, i64 0, i32 0, i32 2, i32 0, i32 0
  call void @llvm.memset.p0i8.i64(i8* nonnull align 8 %17, i8 0, i64 24, i1 false) #10, !alias.scope !6
  %20 = tail call %class.CPDFSDK_InteractiveForm* @_ZN27CPDFSDK_FormFillEnvironment18GetInteractiveFormEv(%class.CPDFSDK_FormFillEnvironment* %0) #10, !noalias !6
  %21 = getelementptr inbounds %class.CPDFSDK_InteractiveForm, %class.CPDFSDK_InteractiveForm* %20, i64 0, i32 2, i32 0, i32 0, i32 0
  %22 = load %class.CPDF_InteractiveForm*, %class.CPDF_InteractiveForm** %21, align 8, !noalias !6
  %23 = tail call i64 @_ZNK20CPDF_InteractiveForm11CountFieldsERKN5fxcrt10WideStringE(%class.CPDF_InteractiveForm* %22, %"class.fxcrt::WideString"* dereferenceable(8) %1) #10, !noalias !6
  %24 = trunc i64 %23 to i32
  %25 = icmp sgt i32 %24, 0
  br i1 %25, label %28, label %26

26:                                               ; preds = %15
  %27 = tail call %class.CPDFSDK_InteractiveForm* @_ZN27CPDFSDK_FormFillEnvironment18GetInteractiveFormEv(%class.CPDFSDK_FormFillEnvironment* %0) #10
  br label %155

28:                                               ; preds = %15
  %29 = bitcast %class.CPDF_FormField*** %18 to i64*
  %30 = bitcast %"class.std::__1::vector.446"* %5 to i64*
  %31 = bitcast %class.CPDF_FormField*** %19 to i64*
  br label %32

32:                                               ; preds = %28, %95
  %33 = phi %class.CPDF_FormField** [ %96, %95 ], [ null, %28 ]
  %34 = phi %class.CPDF_FormField** [ %97, %95 ], [ null, %28 ]
  %35 = phi %class.CPDF_FormField** [ %98, %95 ], [ null, %28 ]
  %36 = phi i64 [ %99, %95 ], [ 0, %28 ]
  %37 = phi %class.CPDF_FormField** [ %100, %95 ], [ null, %28 ]
  %38 = phi i32 [ %101, %95 ], [ 0, %28 ]
  %39 = tail call %class.CPDF_FormField* @_ZNK20CPDF_InteractiveForm8GetFieldEjRKN5fxcrt10WideStringE(%class.CPDF_InteractiveForm* %22, i32 %38, %"class.fxcrt::WideString"* dereferenceable(8) %1) #10
  %40 = ptrtoint %class.CPDF_FormField* %39 to i64
  %41 = icmp eq %class.CPDF_FormField* %39, null
  br i1 %41, label %95, label %42

42:                                               ; preds = %32
  %43 = load %class.CPDF_FormField**, %class.CPDF_FormField*** %19, align 8
  %44 = icmp eq %class.CPDF_FormField** %37, %43
  br i1 %44, label %49, label %45

45:                                               ; preds = %42
  %46 = bitcast %class.CPDF_FormField** %37 to i64*
  store i64 %40, i64* %46, align 8
  %47 = getelementptr inbounds %class.CPDF_FormField*, %class.CPDF_FormField** %37, i64 1
  %48 = ptrtoint %class.CPDF_FormField** %47 to i64
  store i64 %48, i64* %29, align 8
  br label %95

49:                                               ; preds = %42
  %50 = ptrtoint %class.CPDF_FormField** %43 to i64
  %51 = load i64, i64* %30, align 8
  %52 = sub i64 %50, %51
  %53 = ashr exact i64 %52, 3
  %54 = add nsw i64 %53, 1
  %55 = icmp ugt i64 %54, 2305843009213693951
  br i1 %55, label %56, label %58

56:                                               ; preds = %49
  %57 = bitcast %"class.std::__1::vector.446"* %5 to %"class.std::__1::__vector_base_common"*
  call void @_ZNKSt3__120__vector_base_commonILb1EE20__throw_length_errorEv(%"class.std::__1::__vector_base_common"* nonnull %57) #12
  unreachable

58:                                               ; preds = %49
  %59 = icmp ult i64 %53, 1152921504606846975
  br i1 %59, label %60, label %68

60:                                               ; preds = %58
  %61 = ashr exact i64 %52, 2
  %62 = icmp ult i64 %61, %54
  %63 = select i1 %62, i64 %54, i64 %61
  %64 = icmp eq i64 %63, 0
  br i1 %64, label %73, label %65

65:                                               ; preds = %60
  %66 = icmp ugt i64 %63, 2305843009213693951
  br i1 %66, label %67, label %68

67:                                               ; preds = %65
  tail call void @abort() #12
  unreachable

68:                                               ; preds = %65, %58
  %69 = phi i64 [ %63, %65 ], [ 2305843009213693951, %58 ]
  %70 = shl i64 %69, 3
  %71 = tail call i8* @_Znwm(i64 %70) #11
  %72 = bitcast i8* %71 to %class.CPDF_FormField**
  br label %73

73:                                               ; preds = %68, %60
  %74 = phi i64 [ %69, %68 ], [ 0, %60 ]
  %75 = phi %class.CPDF_FormField** [ %72, %68 ], [ null, %60 ]
  %76 = getelementptr inbounds %class.CPDF_FormField*, %class.CPDF_FormField** %75, i64 %53
  %77 = getelementptr inbounds %class.CPDF_FormField*, %class.CPDF_FormField** %75, i64 %74
  %78 = ptrtoint %class.CPDF_FormField** %77 to i64
  %79 = bitcast %class.CPDF_FormField** %76 to i64*
  store i64 %40, i64* %79, align 8
  %80 = getelementptr inbounds %class.CPDF_FormField*, %class.CPDF_FormField** %76, i64 1
  %81 = ptrtoint %class.CPDF_FormField** %80 to i64
  %82 = sub i64 %36, %51
  %83 = ashr exact i64 %82, 3
  %84 = sub nsw i64 0, %83
  %85 = getelementptr inbounds %class.CPDF_FormField*, %class.CPDF_FormField** %76, i64 %84
  %86 = ptrtoint %class.CPDF_FormField** %85 to i64
  %87 = icmp sgt i64 %82, 0
  br i1 %87, label %88, label %91

88:                                               ; preds = %73
  %89 = bitcast %class.CPDF_FormField** %85 to i8*
  %90 = inttoptr i64 %51 to i8*
  tail call void @llvm.memcpy.p0i8.p0i8.i64(i8* align 8 %89, i8* align 8 %90, i64 %82, i1 false) #10
  br label %91

91:                                               ; preds = %88, %73
  store i64 %86, i64* %30, align 8
  store i64 %81, i64* %29, align 8
  store i64 %78, i64* %31, align 8
  %92 = icmp eq i64 %51, 0
  br i1 %92, label %95, label %93

93:                                               ; preds = %91
  %94 = inttoptr i64 %51 to i8*
  tail call void @_ZdlPv(i8* %94) #11
  br label %95

95:                                               ; preds = %93, %91, %45, %32
  %96 = phi %class.CPDF_FormField** [ %85, %93 ], [ %85, %91 ], [ %33, %45 ], [ %33, %32 ]
  %97 = phi %class.CPDF_FormField** [ %80, %93 ], [ %80, %91 ], [ %47, %45 ], [ %34, %32 ]
  %98 = phi %class.CPDF_FormField** [ %85, %93 ], [ %85, %91 ], [ %35, %45 ], [ %35, %32 ]
  %99 = phi i64 [ %81, %93 ], [ %81, %91 ], [ %48, %45 ], [ %36, %32 ]
  %100 = phi %class.CPDF_FormField** [ %80, %93 ], [ %80, %91 ], [ %47, %45 ], [ %37, %32 ]
  %101 = add nuw nsw i32 %38, 1
  %102 = icmp eq i32 %101, %24
  br i1 %102, label %103, label %32

103:                                              ; preds = %95
  %104 = tail call %class.CPDFSDK_InteractiveForm* @_ZN27CPDFSDK_FormFillEnvironment18GetInteractiveFormEv(%class.CPDFSDK_FormFillEnvironment* %0) #10
  %105 = icmp eq %class.CPDF_FormField** %98, %97
  br i1 %105, label %149, label %106

106:                                              ; preds = %103
  %107 = icmp slt i32 %2, 0
  br label %108

108:                                              ; preds = %106, %146
  %109 = phi %class.CPDF_FormField** [ %98, %106 ], [ %147, %146 ]
  %110 = load %class.CPDF_FormField*, %class.CPDF_FormField** %109, align 8
  %111 = tail call i32 @_ZNK14CPDF_FormField13CountControlsEv(%class.CPDF_FormField* %110) #10
  br i1 %107, label %112, label %133

112:                                              ; preds = %108
  %113 = icmp sgt i32 %111, 0
  br i1 %113, label %117, label %146

114:                                              ; preds = %128
  %115 = and i8 %129, 1
  %116 = icmp eq i8 %115, 0
  br i1 %116, label %146, label %132

117:                                              ; preds = %112, %128
  %118 = phi i32 [ %130, %128 ], [ 0, %112 ]
  %119 = phi i8 [ %129, %128 ], [ 0, %112 ]
  %120 = tail call %class.CPDF_FormControl* @_ZNK14CPDF_FormField10GetControlEi(%class.CPDF_FormField* %110, i32 %118) #10
  %121 = tail call %class.CPDFSDK_Widget* @_ZNK23CPDFSDK_InteractiveForm9GetWidgetEP16CPDF_FormControl(%class.CPDFSDK_InteractiveForm* %104, %class.CPDF_FormControl* %120) #10
  %122 = icmp eq %class.CPDFSDK_Widget* %121, null
  br i1 %122, label %128, label %123

123:                                              ; preds = %117
  %124 = getelementptr inbounds %class.CPDFSDK_Widget, %class.CPDFSDK_Widget* %121, i64 0, i32 0
  %125 = tail call i32 @_ZNK15CPDFSDK_BAAnnot14GetBorderStyleEv(%class.CPDFSDK_BAAnnot* %124) #10
  %126 = icmp eq i32 %125, %16
  br i1 %126, label %128, label %127

127:                                              ; preds = %123
  tail call void @_ZN15CPDFSDK_BAAnnot14SetBorderStyleE11BorderStyle(%class.CPDFSDK_BAAnnot* %124, i32 %16) #10
  br label %128

128:                                              ; preds = %123, %117, %127
  %129 = phi i8 [ 1, %127 ], [ %119, %123 ], [ %119, %117 ]
  %130 = add nuw nsw i32 %118, 1
  %131 = icmp eq i32 %130, %111
  br i1 %131, label %114, label %117

132:                                              ; preds = %114
  tail call fastcc void @_ZN12_GLOBAL__N_115UpdateFormFieldEP27CPDFSDK_FormFillEnvironmentP14CPDF_FormFieldbbb(%class.CPDFSDK_FormFillEnvironment* %0, %class.CPDF_FormField* %110, i1 zeroext true)
  br label %146

133:                                              ; preds = %108
  %134 = icmp sgt i32 %111, %2
  br i1 %134, label %135, label %149

135:                                              ; preds = %133
  %136 = tail call %class.CPDF_FormControl* @_ZNK14CPDF_FormField10GetControlEi(%class.CPDF_FormField* %110, i32 %2) #10
  %137 = icmp eq %class.CPDF_FormControl* %136, null
  br i1 %137, label %146, label %138

138:                                              ; preds = %135
  %139 = tail call %class.CPDFSDK_Widget* @_ZNK23CPDFSDK_InteractiveForm9GetWidgetEP16CPDF_FormControl(%class.CPDFSDK_InteractiveForm* %104, %class.CPDF_FormControl* nonnull %136) #10
  %140 = icmp eq %class.CPDFSDK_Widget* %139, null
  br i1 %140, label %146, label %141

141:                                              ; preds = %138
  %142 = getelementptr inbounds %class.CPDFSDK_Widget, %class.CPDFSDK_Widget* %139, i64 0, i32 0
  %143 = tail call i32 @_ZNK15CPDFSDK_BAAnnot14GetBorderStyleEv(%class.CPDFSDK_BAAnnot* %142) #10
  %144 = icmp eq i32 %143, %16
  br i1 %144, label %146, label %145

145:                                              ; preds = %141
  tail call void @_ZN15CPDFSDK_BAAnnot14SetBorderStyleE11BorderStyle(%class.CPDFSDK_BAAnnot* %142, i32 %16) #10
  tail call fastcc void @_ZN12_GLOBAL__N_117UpdateFormControlEP27CPDFSDK_FormFillEnvironmentP16CPDF_FormControlbbb(%class.CPDFSDK_FormFillEnvironment* %0, %class.CPDF_FormControl* nonnull %136, i1 zeroext true)
  br label %146

146:                                              ; preds = %112, %135, %141, %138, %145, %132, %114
  %147 = getelementptr inbounds %class.CPDF_FormField*, %class.CPDF_FormField** %109, i64 1
  %148 = icmp eq %class.CPDF_FormField** %147, %97
  br i1 %148, label %149, label %108

149:                                              ; preds = %133, %146, %103
  %150 = icmp eq %class.CPDF_FormField** %96, null
  br i1 %150, label %155, label %151

151:                                              ; preds = %149
  %152 = ptrtoint %class.CPDF_FormField** %96 to i64
  %153 = bitcast %class.CPDF_FormField*** %18 to i64*
  store i64 %152, i64* %153, align 8
  %154 = bitcast %class.CPDF_FormField** %96 to i8*
  tail call void @_ZdlPv(i8* %154) #11
  br label %155

155:                                              ; preds = %26, %149, %151
  call void @llvm.lifetime.end.p0i8(i64 24, i8* nonnull %17) #10
  br label %156

156:                                              ; preds = %13, %155
  ret void
}

; Function Attrs: nounwind
declare void @_ZN5fxcrt10ByteStringD1Ev(%"class.fxcrt::ByteString"*) unnamed_addr #4

; Function Attrs: nounwind ssp uwtable
define hidden void @_ZN9CJS_Field18get_button_align_xEP11CJS_Runtime(%class.CJS_Result* noalias sret, %class.CJS_Field*, %class.CJS_Runtime*) local_unnamed_addr #0 align 2 {
  %4 = alloca %"class.std::__1::vector.446", align 8
  %5 = alloca %class.CPDF_IconFit, align 8
  %6 = alloca %class.CFX_PTemplate, align 4
  %7 = bitcast %"class.std::__1::vector.446"* %4 to i8*
  call void @llvm.lifetime.start.p0i8(i64 24, i8* nonnull %7) #10
  %8 = getelementptr inbounds %"class.std::__1::vector.446", %"class.std::__1::vector.446"* %4, i64 0, i32 0, i32 0
  %9 = getelementptr inbounds %"class.std::__1::vector.446", %"class.std::__1::vector.446"* %4, i64 0, i32 0, i32 1
  call void @llvm.memset.p0i8.i64(i8* nonnull align 8 %7, i8 -86, i64 24, i1 false) #10
  call void @_ZNK9CJS_Field13GetFormFieldsEv(%"class.std::__1::vector.446"* nonnull sret %4, %class.CJS_Field* %1) #10
  %10 = load %class.CPDF_FormField**, %class.CPDF_FormField*** %8, align 8
  %11 = load %class.CPDF_FormField**, %class.CPDF_FormField*** %9, align 8
  %12 = icmp eq %class.CPDF_FormField** %10, %11
  br i1 %12, label %15, label %13

13:                                               ; preds = %3
  %14 = load %class.CPDF_FormField*, %class.CPDF_FormField** %10, align 8
  br label %15

15:                                               ; preds = %13, %3
  %16 = phi %class.CPDF_FormField* [ %14, %13 ], [ null, %3 ]
  %17 = icmp eq %class.CPDF_FormField** %10, null
  br i1 %17, label %22, label %18

18:                                               ; preds = %15
  %19 = ptrtoint %class.CPDF_FormField** %10 to i64
  %20 = bitcast %class.CPDF_FormField*** %9 to i64*
  store i64 %19, i64* %20, align 8
  %21 = bitcast %class.CPDF_FormField** %10 to i8*
  call void @_ZdlPv(i8* %21) #11
  br label %22

22:                                               ; preds = %15, %18
  call void @llvm.lifetime.end.p0i8(i64 24, i8* nonnull %7) #10
  %23 = icmp eq %class.CPDF_FormField* %16, null
  br i1 %23, label %24, label %25

24:                                               ; preds = %22
  call void @_ZN10CJS_ResultC1E9JSMessage(%class.CJS_Result* %0, i32 19) #10
  br label %55

25:                                               ; preds = %22
  %26 = call zeroext i8 @_ZNK14CPDF_FormField12GetFieldTypeEv(%class.CPDF_FormField* nonnull %16) #10
  %27 = icmp eq i8 %26, 1
  br i1 %27, label %29, label %28

28:                                               ; preds = %25
  call void @_ZN10CJS_ResultC1E9JSMessage(%class.CJS_Result* %0, i32 20) #10
  br label %55

29:                                               ; preds = %25
  %30 = call i32 @_ZNK14CPDF_FormField13CountControlsEv(%class.CPDF_FormField* nonnull %16) #10
  %31 = icmp eq i32 %30, 0
  br i1 %31, label %43, label %32

32:                                               ; preds = %29
  %33 = getelementptr inbounds %class.CJS_Field, %class.CJS_Field* %1, i64 0, i32 4
  %34 = load i32, i32* %33, align 8
  %35 = call i32 @_ZNK14CPDF_FormField13CountControlsEv(%class.CPDF_FormField* nonnull %16) #10
  %36 = icmp slt i32 %34, %35
  br i1 %36, label %37, label %43

37:                                               ; preds = %32
  %38 = load i32, i32* %33, align 8
  %39 = icmp sgt i32 %38, 0
  %40 = select i1 %39, i32 %38, i32 0
  %41 = call %class.CPDF_FormControl* @_ZNK14CPDF_FormField10GetControlEi(%class.CPDF_FormField* nonnull %16, i32 %40) #10
  %42 = icmp eq %class.CPDF_FormControl* %41, null
  br i1 %42, label %43, label %44

43:                                               ; preds = %29, %32, %37
  call void @_ZN10CJS_ResultC1E9JSMessage(%class.CJS_Result* %0, i32 19) #10
  br label %55

44:                                               ; preds = %37
  %45 = bitcast %class.CPDF_IconFit* %5 to i8*
  call void @llvm.lifetime.start.p0i8(i64 8, i8* nonnull %45) #10
  %46 = getelementptr inbounds %class.CPDF_IconFit, %class.CPDF_IconFit* %5, i64 0, i32 0, i32 0, i32 0, i32 0, i32 0
  store %class.CPDF_Dictionary* inttoptr (i64 -6148914691236517206 to %class.CPDF_Dictionary*), %class.CPDF_Dictionary** %46, align 8
  call void @_ZNK16CPDF_FormControl10GetIconFitEv(%class.CPDF_IconFit* nonnull sret %5, %class.CPDF_FormControl* nonnull %41) #10
  %47 = bitcast %class.CFX_PTemplate* %6 to i8*
  call void @llvm.lifetime.start.p0i8(i64 8, i8* nonnull %47) #10
  %48 = getelementptr inbounds %class.CFX_PTemplate, %class.CFX_PTemplate* %6, i64 0, i32 0
  store float 0xFFFFFFFFE0000000, float* %48, align 4
  %49 = getelementptr inbounds %class.CFX_PTemplate, %class.CFX_PTemplate* %6, i64 0, i32 1
  store float 0xFFFFFFFFE0000000, float* %49, align 4
  call void @_ZNK12CPDF_IconFit25GetIconBottomLeftPositionEv(%class.CFX_PTemplate* nonnull sret %6, %class.CPDF_IconFit* nonnull %5) #10
  %50 = getelementptr inbounds %class.CJS_Runtime, %class.CJS_Runtime* %2, i64 0, i32 1, i32 0
  %51 = load float, float* %48, align 4
  %52 = fptosi float %51 to i32
  %53 = call %"class.v8::Number"* @_ZN6CFX_V89NewNumberEi(%class.CFX_V8* %50, i32 %52) #10
  %54 = bitcast %"class.v8::Number"* %53 to %"class.v8::Value"*
  call void @_ZN10CJS_ResultC1EN2v85LocalINS0_5ValueEEE(%class.CJS_Result* %0, %"class.v8::Value"* %54) #10
  call void @llvm.lifetime.end.p0i8(i64 8, i8* nonnull %47) #10
  call void @_ZN12CPDF_IconFitD1Ev(%class.CPDF_IconFit* nonnull %5) #10
  call void @llvm.lifetime.end.p0i8(i64 8, i8* nonnull %45) #10
  br label %55

55:                                               ; preds = %43, %44, %28, %24
  ret void
}

declare void @_ZNK16CPDF_FormControl10GetIconFitEv(%class.CPDF_IconFit* sret, %class.CPDF_FormControl*) local_unnamed_addr #2

declare void @_ZNK12CPDF_IconFit25GetIconBottomLeftPositionEv(%class.CFX_PTemplate* sret, %class.CPDF_IconFit*) local_unnamed_addr #2

declare %"class.v8::Number"* @_ZN6CFX_V89NewNumberEi(%class.CFX_V8*, i32) local_unnamed_addr #2

; Function Attrs: nounwind
declare void @_ZN12CPDF_IconFitD1Ev(%class.CPDF_IconFit*) unnamed_addr #4

; Function Attrs: nounwind ssp uwtable
define hidden void @_ZN9CJS_Field18set_button_align_xEP11CJS_RuntimeN2v85LocalINS2_5ValueEEE(%class.CJS_Result* noalias sret, %class.CJS_Field* nocapture readonly, %class.CJS_Runtime* nocapture readnone, %"class.v8::Value"* nocapture readnone) local_unnamed_addr #0 align 2 {
  %5 = getelementptr inbounds %class.CJS_Field, %class.CJS_Field* %1, i64 0, i32 5
  %6 = load i8, i8* %5, align 4, !range !5
  %7 = icmp eq i8 %6, 0
  br i1 %7, label %8, label %9

8:                                                ; preds = %4
  tail call void @_ZN10CJS_ResultC1E9JSMessage(%class.CJS_Result* %0, i32 15) #10
  br label %10

9:                                                ; preds = %4
  tail call void @_ZN10CJS_ResultC1Ev(%class.CJS_Result* %0) #10
  br label %10

10:                                               ; preds = %9, %8
  ret void
}

; Function Attrs: nounwind ssp uwtable
define hidden void @_ZN9CJS_Field18get_button_align_yEP11CJS_Runtime(%class.CJS_Result* noalias sret, %class.CJS_Field*, %class.CJS_Runtime*) local_unnamed_addr #0 align 2 {
  %4 = alloca %"class.std::__1::vector.446", align 8
  %5 = alloca %class.CPDF_IconFit, align 8
  %6 = alloca %class.CFX_PTemplate, align 4
  %7 = bitcast %"class.std::__1::vector.446"* %4 to i8*
  call void @llvm.lifetime.start.p0i8(i64 24, i8* nonnull %7) #10
  %8 = getelementptr inbounds %"class.std::__1::vector.446", %"class.std::__1::vector.446"* %4, i64 0, i32 0, i32 0
  %9 = getelementptr inbounds %"class.std::__1::vector.446", %"class.std::__1::vector.446"* %4, i64 0, i32 0, i32 1
  call void @llvm.memset.p0i8.i64(i8* nonnull align 8 %7, i8 -86, i64 24, i1 false) #10
  call void @_ZNK9CJS_Field13GetFormFieldsEv(%"class.std::__1::vector.446"* nonnull sret %4, %class.CJS_Field* %1) #10
  %10 = load %class.CPDF_FormField**, %class.CPDF_FormField*** %8, align 8
  %11 = load %class.CPDF_FormField**, %class.CPDF_FormField*** %9, align 8
  %12 = icmp eq %class.CPDF_FormField** %10, %11
  br i1 %12, label %15, label %13

13:                                               ; preds = %3
  %14 = load %class.CPDF_FormField*, %class.CPDF_FormField** %10, align 8
  br label %15

15:                                               ; preds = %13, %3
  %16 = phi %class.CPDF_FormField* [ %14, %13 ], [ null, %3 ]
  %17 = icmp eq %class.CPDF_FormField** %10, null
  br i1 %17, label %22, label %18

18:                                               ; preds = %15
  %19 = ptrtoint %class.CPDF_FormField** %10 to i64
  %20 = bitcast %class.CPDF_FormField*** %9 to i64*
  store i64 %19, i64* %20, align 8
  %21 = bitcast %class.CPDF_FormField** %10 to i8*
  call void @_ZdlPv(i8* %21) #11
  br label %22

22:                                               ; preds = %15, %18
  call void @llvm.lifetime.end.p0i8(i64 24, i8* nonnull %7) #10
  %23 = icmp eq %class.CPDF_FormField* %16, null
  br i1 %23, label %24, label %25

24:                                               ; preds = %22
  call void @_ZN10CJS_ResultC1E9JSMessage(%class.CJS_Result* %0, i32 19) #10
  br label %55

25:                                               ; preds = %22
  %26 = call zeroext i8 @_ZNK14CPDF_FormField12GetFieldTypeEv(%class.CPDF_FormField* nonnull %16) #10
  %27 = icmp eq i8 %26, 1
  br i1 %27, label %29, label %28

28:                                               ; preds = %25
  call void @_ZN10CJS_ResultC1E9JSMessage(%class.CJS_Result* %0, i32 20) #10
  br label %55

29:                                               ; preds = %25
  %30 = call i32 @_ZNK14CPDF_FormField13CountControlsEv(%class.CPDF_FormField* nonnull %16) #10
  %31 = icmp eq i32 %30, 0
  br i1 %31, label %43, label %32

32:                                               ; preds = %29
  %33 = getelementptr inbounds %class.CJS_Field, %class.CJS_Field* %1, i64 0, i32 4
  %34 = load i32, i32* %33, align 8
  %35 = call i32 @_ZNK14CPDF_FormField13CountControlsEv(%class.CPDF_FormField* nonnull %16) #10
  %36 = icmp slt i32 %34, %35
  br i1 %36, label %37, label %43

37:                                               ; preds = %32
  %38 = load i32, i32* %33, align 8
  %39 = icmp sgt i32 %38, 0
  %40 = select i1 %39, i32 %38, i32 0
  %41 = call %class.CPDF_FormControl* @_ZNK14CPDF_FormField10GetControlEi(%class.CPDF_FormField* nonnull %16, i32 %40) #10
  %42 = icmp eq %class.CPDF_FormControl* %41, null
  br i1 %42, label %43, label %44

43:                                               ; preds = %29, %32, %37
  call void @_ZN10CJS_ResultC1E9JSMessage(%class.CJS_Result* %0, i32 19) #10
  br label %55

44:                                               ; preds = %37
  %45 = bitcast %class.CPDF_IconFit* %5 to i8*
  call void @llvm.lifetime.start.p0i8(i64 8, i8* nonnull %45) #10
  %46 = getelementptr inbounds %class.CPDF_IconFit, %class.CPDF_IconFit* %5, i64 0, i32 0, i32 0, i32 0, i32 0, i32 0
  store %class.CPDF_Dictionary* inttoptr (i64 -6148914691236517206 to %class.CPDF_Dictionary*), %class.CPDF_Dictionary** %46, align 8
  call void @_ZNK16CPDF_FormControl10GetIconFitEv(%class.CPDF_IconFit* nonnull sret %5, %class.CPDF_FormControl* nonnull %41) #10
  %47 = bitcast %class.CFX_PTemplate* %6 to i8*
  call void @llvm.lifetime.start.p0i8(i64 8, i8* nonnull %47) #10
  %48 = getelementptr inbounds %class.CFX_PTemplate, %class.CFX_PTemplate* %6, i64 0, i32 0
  store float 0xFFFFFFFFE0000000, float* %48, align 4
  %49 = getelementptr inbounds %class.CFX_PTemplate, %class.CFX_PTemplate* %6, i64 0, i32 1
  store float 0xFFFFFFFFE0000000, float* %49, align 4
  call void @_ZNK12CPDF_IconFit25GetIconBottomLeftPositionEv(%class.CFX_PTemplate* nonnull sret %6, %class.CPDF_IconFit* nonnull %5) #10
  %50 = getelementptr inbounds %class.CJS_Runtime, %class.CJS_Runtime* %2, i64 0, i32 1, i32 0
  %51 = load float, float* %49, align 4
  %52 = fptosi float %51 to i32
  %53 = call %"class.v8::Number"* @_ZN6CFX_V89NewNumberEi(%class.CFX_V8* %50, i32 %52) #10
  %54 = bitcast %"class.v8::Number"* %53 to %"class.v8::Value"*
  call void @_ZN10CJS_ResultC1EN2v85LocalINS0_5ValueEEE(%class.CJS_Result* %0, %"class.v8::Value"* %54) #10
  call void @llvm.lifetime.end.p0i8(i64 8, i8* nonnull %47) #10
  call void @_ZN12CPDF_IconFitD1Ev(%class.CPDF_IconFit* nonnull %5) #10
  call void @llvm.lifetime.end.p0i8(i64 8, i8* nonnull %45) #10
  br label %55

55:                                               ; preds = %43, %44, %28, %24
  ret void
}

; Function Attrs: nounwind ssp uwtable
define hidden void @_ZN9CJS_Field18set_button_align_yEP11CJS_RuntimeN2v85LocalINS2_5ValueEEE(%class.CJS_Result* noalias sret, %class.CJS_Field* nocapture readonly, %class.CJS_Runtime* nocapture readnone, %"class.v8::Value"* nocapture readnone) local_unnamed_addr #0 align 2 {
  %5 = getelementptr inbounds %class.CJS_Field, %class.CJS_Field* %1, i64 0, i32 5
  %6 = load i8, i8* %5, align 4, !range !5
  %7 = icmp eq i8 %6, 0
  br i1 %7, label %8, label %9

8:                                                ; preds = %4
  tail call void @_ZN10CJS_ResultC1E9JSMessage(%class.CJS_Result* %0, i32 15) #10
  br label %10

9:                                                ; preds = %4
  tail call void @_ZN10CJS_ResultC1Ev(%class.CJS_Result* %0) #10
  br label %10

10:                                               ; preds = %9, %8
  ret void
}

; Function Attrs: nounwind ssp uwtable
define hidden void @_ZN9CJS_Field21get_button_fit_boundsEP11CJS_Runtime(%class.CJS_Result* noalias sret, %class.CJS_Field*, %class.CJS_Runtime*) local_unnamed_addr #0 align 2 {
  %4 = alloca %"class.std::__1::vector.446", align 8
  %5 = alloca %class.CPDF_IconFit, align 8
  %6 = bitcast %"class.std::__1::vector.446"* %4 to i8*
  call void @llvm.lifetime.start.p0i8(i64 24, i8* nonnull %6) #10
  %7 = getelementptr inbounds %"class.std::__1::vector.446", %"class.std::__1::vector.446"* %4, i64 0, i32 0, i32 0
  %8 = getelementptr inbounds %"class.std::__1::vector.446", %"class.std::__1::vector.446"* %4, i64 0, i32 0, i32 1
  call void @llvm.memset.p0i8.i64(i8* nonnull align 8 %6, i8 -86, i64 24, i1 false) #10
  call void @_ZNK9CJS_Field13GetFormFieldsEv(%"class.std::__1::vector.446"* nonnull sret %4, %class.CJS_Field* %1) #10
  %9 = load %class.CPDF_FormField**, %class.CPDF_FormField*** %7, align 8
  %10 = load %class.CPDF_FormField**, %class.CPDF_FormField*** %8, align 8
  %11 = icmp eq %class.CPDF_FormField** %9, %10
  br i1 %11, label %14, label %12

12:                                               ; preds = %3
  %13 = load %class.CPDF_FormField*, %class.CPDF_FormField** %9, align 8
  br label %14

14:                                               ; preds = %12, %3
  %15 = phi %class.CPDF_FormField* [ %13, %12 ], [ null, %3 ]
  %16 = icmp eq %class.CPDF_FormField** %9, null
  br i1 %16, label %21, label %17

17:                                               ; preds = %14
  %18 = ptrtoint %class.CPDF_FormField** %9 to i64
  %19 = bitcast %class.CPDF_FormField*** %8 to i64*
  store i64 %18, i64* %19, align 8
  %20 = bitcast %class.CPDF_FormField** %9 to i8*
  call void @_ZdlPv(i8* %20) #11
  br label %21

21:                                               ; preds = %14, %17
  call void @llvm.lifetime.end.p0i8(i64 24, i8* nonnull %6) #10
  %22 = icmp eq %class.CPDF_FormField* %15, null
  br i1 %22, label %23, label %24

23:                                               ; preds = %21
  call void @_ZN10CJS_ResultC1E9JSMessage(%class.CJS_Result* %0, i32 19) #10
  br label %49

24:                                               ; preds = %21
  %25 = call zeroext i8 @_ZNK14CPDF_FormField12GetFieldTypeEv(%class.CPDF_FormField* nonnull %15) #10
  %26 = icmp eq i8 %25, 1
  br i1 %26, label %28, label %27

27:                                               ; preds = %24
  call void @_ZN10CJS_ResultC1E9JSMessage(%class.CJS_Result* %0, i32 20) #10
  br label %49

28:                                               ; preds = %24
  %29 = call i32 @_ZNK14CPDF_FormField13CountControlsEv(%class.CPDF_FormField* nonnull %15) #10
  %30 = icmp eq i32 %29, 0
  br i1 %30, label %42, label %31

31:                                               ; preds = %28
  %32 = getelementptr inbounds %class.CJS_Field, %class.CJS_Field* %1, i64 0, i32 4
  %33 = load i32, i32* %32, align 8
  %34 = call i32 @_ZNK14CPDF_FormField13CountControlsEv(%class.CPDF_FormField* nonnull %15) #10
  %35 = icmp slt i32 %33, %34
  br i1 %35, label %36, label %42

36:                                               ; preds = %31
  %37 = load i32, i32* %32, align 8
  %38 = icmp sgt i32 %37, 0
  %39 = select i1 %38, i32 %37, i32 0
  %40 = call %class.CPDF_FormControl* @_ZNK14CPDF_FormField10GetControlEi(%class.CPDF_FormField* nonnull %15, i32 %39) #10
  %41 = icmp eq %class.CPDF_FormControl* %40, null
  br i1 %41, label %42, label %43

42:                                               ; preds = %28, %31, %36
  call void @_ZN10CJS_ResultC1E9JSMessage(%class.CJS_Result* %0, i32 19) #10
  br label %49

43:                                               ; preds = %36
  %44 = getelementptr inbounds %class.CJS_Runtime, %class.CJS_Runtime* %2, i64 0, i32 1, i32 0
  %45 = bitcast %class.CPDF_IconFit* %5 to i8*
  call void @llvm.lifetime.start.p0i8(i64 8, i8* nonnull %45) #10
  call void @_ZNK16CPDF_FormControl10GetIconFitEv(%class.CPDF_IconFit* nonnull sret %5, %class.CPDF_FormControl* nonnull %40) #10
  %46 = call zeroext i1 @_ZNK12CPDF_IconFit16GetFittingBoundsEv(%class.CPDF_IconFit* nonnull %5) #10
  %47 = call %"class.v8::Boolean"* @_ZN6CFX_V810NewBooleanEb(%class.CFX_V8* %44, i1 zeroext %46) #10
  %48 = bitcast %"class.v8::Boolean"* %47 to %"class.v8::Value"*
  call void @_ZN10CJS_ResultC1EN2v85LocalINS0_5ValueEEE(%class.CJS_Result* %0, %"class.v8::Value"* %48) #10
  call void @_ZN12CPDF_IconFitD1Ev(%class.CPDF_IconFit* nonnull %5) #10
  call void @llvm.lifetime.end.p0i8(i64 8, i8* nonnull %45) #10
  br label %49

49:                                               ; preds = %42, %43, %27, %23
  ret void
}

declare %"class.v8::Boolean"* @_ZN6CFX_V810NewBooleanEb(%class.CFX_V8*, i1 zeroext) local_unnamed_addr #2

declare zeroext i1 @_ZNK12CPDF_IconFit16GetFittingBoundsEv(%class.CPDF_IconFit*) local_unnamed_addr #2

; Function Attrs: nounwind ssp uwtable
define hidden void @_ZN9CJS_Field21set_button_fit_boundsEP11CJS_RuntimeN2v85LocalINS2_5ValueEEE(%class.CJS_Result* noalias sret, %class.CJS_Field* nocapture readonly, %class.CJS_Runtime* nocapture readnone, %"class.v8::Value"* nocapture readnone) local_unnamed_addr #0 align 2 {
  %5 = getelementptr inbounds %class.CJS_Field, %class.CJS_Field* %1, i64 0, i32 5
  %6 = load i8, i8* %5, align 4, !range !5
  %7 = icmp eq i8 %6, 0
  br i1 %7, label %8, label %9

8:                                                ; preds = %4
  tail call void @_ZN10CJS_ResultC1E9JSMessage(%class.CJS_Result* %0, i32 15) #10
  br label %10

9:                                                ; preds = %4
  tail call void @_ZN10CJS_ResultC1Ev(%class.CJS_Result* %0) #10
  br label %10

10:                                               ; preds = %9, %8
  ret void
}

; Function Attrs: nounwind ssp uwtable
define hidden void @_ZN9CJS_Field19get_button_positionEP11CJS_Runtime(%class.CJS_Result* noalias sret, %class.CJS_Field*, %class.CJS_Runtime*) local_unnamed_addr #0 align 2 {
  %4 = alloca %"class.std::__1::vector.446", align 8
  %5 = bitcast %"class.std::__1::vector.446"* %4 to i8*
  call void @llvm.lifetime.start.p0i8(i64 24, i8* nonnull %5) #10
  %6 = getelementptr inbounds %"class.std::__1::vector.446", %"class.std::__1::vector.446"* %4, i64 0, i32 0, i32 0
  %7 = getelementptr inbounds %"class.std::__1::vector.446", %"class.std::__1::vector.446"* %4, i64 0, i32 0, i32 1
  call void @llvm.memset.p0i8.i64(i8* nonnull align 8 %5, i8 -86, i64 24, i1 false) #10
  call void @_ZNK9CJS_Field13GetFormFieldsEv(%"class.std::__1::vector.446"* nonnull sret %4, %class.CJS_Field* %1) #10
  %8 = load %class.CPDF_FormField**, %class.CPDF_FormField*** %6, align 8
  %9 = load %class.CPDF_FormField**, %class.CPDF_FormField*** %7, align 8
  %10 = icmp eq %class.CPDF_FormField** %8, %9
  br i1 %10, label %13, label %11

11:                                               ; preds = %3
  %12 = load %class.CPDF_FormField*, %class.CPDF_FormField** %8, align 8
  br label %13

13:                                               ; preds = %11, %3
  %14 = phi %class.CPDF_FormField* [ %12, %11 ], [ null, %3 ]
  %15 = icmp eq %class.CPDF_FormField** %8, null
  br i1 %15, label %20, label %16

16:                                               ; preds = %13
  %17 = ptrtoint %class.CPDF_FormField** %8 to i64
  %18 = bitcast %class.CPDF_FormField*** %7 to i64*
  store i64 %17, i64* %18, align 8
  %19 = bitcast %class.CPDF_FormField** %8 to i8*
  call void @_ZdlPv(i8* %19) #11
  br label %20

20:                                               ; preds = %13, %16
  call void @llvm.lifetime.end.p0i8(i64 24, i8* nonnull %5) #10
  %21 = icmp eq %class.CPDF_FormField* %14, null
  br i1 %21, label %22, label %23

22:                                               ; preds = %20
  call void @_ZN10CJS_ResultC1E9JSMessage(%class.CJS_Result* %0, i32 19) #10
  br label %47

23:                                               ; preds = %20
  %24 = call zeroext i8 @_ZNK14CPDF_FormField12GetFieldTypeEv(%class.CPDF_FormField* nonnull %14) #10
  %25 = icmp eq i8 %24, 1
  br i1 %25, label %27, label %26

26:                                               ; preds = %23
  call void @_ZN10CJS_ResultC1E9JSMessage(%class.CJS_Result* %0, i32 20) #10
  br label %47

27:                                               ; preds = %23
  %28 = call i32 @_ZNK14CPDF_FormField13CountControlsEv(%class.CPDF_FormField* nonnull %14) #10
  %29 = icmp eq i32 %28, 0
  br i1 %29, label %41, label %30

30:                                               ; preds = %27
  %31 = getelementptr inbounds %class.CJS_Field, %class.CJS_Field* %1, i64 0, i32 4
  %32 = load i32, i32* %31, align 8
  %33 = call i32 @_ZNK14CPDF_FormField13CountControlsEv(%class.CPDF_FormField* nonnull %14) #10
  %34 = icmp slt i32 %32, %33
  br i1 %34, label %35, label %41

35:                                               ; preds = %30
  %36 = load i32, i32* %31, align 8
  %37 = icmp sgt i32 %36, 0
  %38 = select i1 %37, i32 %36, i32 0
  %39 = call %class.CPDF_FormControl* @_ZNK14CPDF_FormField10GetControlEi(%class.CPDF_FormField* nonnull %14, i32 %38) #10
  %40 = icmp eq %class.CPDF_FormControl* %39, null
  br i1 %40, label %41, label %42

41:                                               ; preds = %27, %30, %35
  call void @_ZN10CJS_ResultC1E9JSMessage(%class.CJS_Result* %0, i32 19) #10
  br label %47

42:                                               ; preds = %35
  %43 = getelementptr inbounds %class.CJS_Runtime, %class.CJS_Runtime* %2, i64 0, i32 1, i32 0
  %44 = call i32 @_ZNK16CPDF_FormControl15GetTextPositionEv(%class.CPDF_FormControl* nonnull %39) #10
  %45 = call %"class.v8::Number"* @_ZN6CFX_V89NewNumberEi(%class.CFX_V8* %43, i32 %44) #10
  %46 = bitcast %"class.v8::Number"* %45 to %"class.v8::Value"*
  call void @_ZN10CJS_ResultC1EN2v85LocalINS0_5ValueEEE(%class.CJS_Result* %0, %"class.v8::Value"* %46) #10
  br label %47

47:                                               ; preds = %41, %42, %26, %22
  ret void
}

declare i32 @_ZNK16CPDF_FormControl15GetTextPositionEv(%class.CPDF_FormControl*) local_unnamed_addr #2

; Function Attrs: nounwind ssp uwtable
define hidden void @_ZN9CJS_Field19set_button_positionEP11CJS_RuntimeN2v85LocalINS2_5ValueEEE(%class.CJS_Result* noalias sret, %class.CJS_Field* nocapture readonly, %class.CJS_Runtime* nocapture readnone, %"class.v8::Value"* nocapture readnone) local_unnamed_addr #0 align 2 {
  %5 = getelementptr inbounds %class.CJS_Field, %class.CJS_Field* %1, i64 0, i32 5
  %6 = load i8, i8* %5, align 4, !range !5
  %7 = icmp eq i8 %6, 0
  br i1 %7, label %8, label %9

8:                                                ; preds = %4
  tail call void @_ZN10CJS_ResultC1E9JSMessage(%class.CJS_Result* %0, i32 19) #10
  br label %10

9:                                                ; preds = %4
  tail call void @_ZN10CJS_ResultC1Ev(%class.CJS_Result* %0) #10
  br label %10

10:                                               ; preds = %9, %8
  ret void
}

; Function Attrs: nounwind ssp uwtable
define hidden void @_ZN9CJS_Field20get_button_scale_howEP11CJS_Runtime(%class.CJS_Result* noalias sret, %class.CJS_Field*, %class.CJS_Runtime*) local_unnamed_addr #0 align 2 {
  %4 = alloca %"class.std::__1::vector.446", align 8
  %5 = alloca %class.CPDF_IconFit, align 8
  %6 = bitcast %"class.std::__1::vector.446"* %4 to i8*
  call void @llvm.lifetime.start.p0i8(i64 24, i8* nonnull %6) #10
  %7 = getelementptr inbounds %"class.std::__1::vector.446", %"class.std::__1::vector.446"* %4, i64 0, i32 0, i32 0
  %8 = getelementptr inbounds %"class.std::__1::vector.446", %"class.std::__1::vector.446"* %4, i64 0, i32 0, i32 1
  call void @llvm.memset.p0i8.i64(i8* nonnull align 8 %6, i8 -86, i64 24, i1 false) #10
  call void @_ZNK9CJS_Field13GetFormFieldsEv(%"class.std::__1::vector.446"* nonnull sret %4, %class.CJS_Field* %1) #10
  %9 = load %class.CPDF_FormField**, %class.CPDF_FormField*** %7, align 8
  %10 = load %class.CPDF_FormField**, %class.CPDF_FormField*** %8, align 8
  %11 = icmp eq %class.CPDF_FormField** %9, %10
  br i1 %11, label %14, label %12

12:                                               ; preds = %3
  %13 = load %class.CPDF_FormField*, %class.CPDF_FormField** %9, align 8
  br label %14

14:                                               ; preds = %12, %3
  %15 = phi %class.CPDF_FormField* [ %13, %12 ], [ null, %3 ]
  %16 = icmp eq %class.CPDF_FormField** %9, null
  br i1 %16, label %21, label %17

17:                                               ; preds = %14
  %18 = ptrtoint %class.CPDF_FormField** %9 to i64
  %19 = bitcast %class.CPDF_FormField*** %8 to i64*
  store i64 %18, i64* %19, align 8
  %20 = bitcast %class.CPDF_FormField** %9 to i8*
  call void @_ZdlPv(i8* %20) #11
  br label %21

21:                                               ; preds = %14, %17
  call void @llvm.lifetime.end.p0i8(i64 24, i8* nonnull %6) #10
  %22 = icmp eq %class.CPDF_FormField* %15, null
  br i1 %22, label %23, label %24

23:                                               ; preds = %21
  call void @_ZN10CJS_ResultC1E9JSMessage(%class.CJS_Result* %0, i32 19) #10
  br label %50

24:                                               ; preds = %21
  %25 = call zeroext i8 @_ZNK14CPDF_FormField12GetFieldTypeEv(%class.CPDF_FormField* nonnull %15) #10
  %26 = icmp eq i8 %25, 1
  br i1 %26, label %28, label %27

27:                                               ; preds = %24
  call void @_ZN10CJS_ResultC1E9JSMessage(%class.CJS_Result* %0, i32 20) #10
  br label %50

28:                                               ; preds = %24
  %29 = call i32 @_ZNK14CPDF_FormField13CountControlsEv(%class.CPDF_FormField* nonnull %15) #10
  %30 = icmp eq i32 %29, 0
  br i1 %30, label %42, label %31

31:                                               ; preds = %28
  %32 = getelementptr inbounds %class.CJS_Field, %class.CJS_Field* %1, i64 0, i32 4
  %33 = load i32, i32* %32, align 8
  %34 = call i32 @_ZNK14CPDF_FormField13CountControlsEv(%class.CPDF_FormField* nonnull %15) #10
  %35 = icmp slt i32 %33, %34
  br i1 %35, label %36, label %42

36:                                               ; preds = %31
  %37 = load i32, i32* %32, align 8
  %38 = icmp sgt i32 %37, 0
  %39 = select i1 %38, i32 %37, i32 0
  %40 = call %class.CPDF_FormControl* @_ZNK14CPDF_FormField10GetControlEi(%class.CPDF_FormField* nonnull %15, i32 %39) #10
  %41 = icmp eq %class.CPDF_FormControl* %40, null
  br i1 %41, label %42, label %43

42:                                               ; preds = %28, %31, %36
  call void @_ZN10CJS_ResultC1E9JSMessage(%class.CJS_Result* %0, i32 19) #10
  br label %50

43:                                               ; preds = %36
  %44 = getelementptr inbounds %class.CJS_Runtime, %class.CJS_Runtime* %2, i64 0, i32 1, i32 0
  %45 = bitcast %class.CPDF_IconFit* %5 to i8*
  call void @llvm.lifetime.start.p0i8(i64 8, i8* nonnull %45) #10
  call void @_ZNK16CPDF_FormControl10GetIconFitEv(%class.CPDF_IconFit* nonnull sret %5, %class.CPDF_FormControl* nonnull %40) #10
  %46 = call zeroext i1 @_ZNK12CPDF_IconFit19IsProportionalScaleEv(%class.CPDF_IconFit* nonnull %5) #10
  %47 = xor i1 %46, true
  %48 = call %"class.v8::Boolean"* @_ZN6CFX_V810NewBooleanEb(%class.CFX_V8* %44, i1 zeroext %47) #10
  %49 = bitcast %"class.v8::Boolean"* %48 to %"class.v8::Value"*
  call void @_ZN10CJS_ResultC1EN2v85LocalINS0_5ValueEEE(%class.CJS_Result* %0, %"class.v8::Value"* %49) #10
  call void @_ZN12CPDF_IconFitD1Ev(%class.CPDF_IconFit* nonnull %5) #10
  call void @llvm.lifetime.end.p0i8(i64 8, i8* nonnull %45) #10
  br label %50

50:                                               ; preds = %42, %43, %27, %23
  ret void
}

declare zeroext i1 @_ZNK12CPDF_IconFit19IsProportionalScaleEv(%class.CPDF_IconFit*) local_unnamed_addr #2

; Function Attrs: nounwind ssp uwtable
define hidden void @_ZN9CJS_Field20set_button_scale_howEP11CJS_RuntimeN2v85LocalINS2_5ValueEEE(%class.CJS_Result* noalias sret, %class.CJS_Field* nocapture readonly, %class.CJS_Runtime* nocapture readnone, %"class.v8::Value"* nocapture readnone) local_unnamed_addr #0 align 2 {
  %5 = getelementptr inbounds %class.CJS_Field, %class.CJS_Field* %1, i64 0, i32 5
  %6 = load i8, i8* %5, align 4, !range !5
  %7 = icmp eq i8 %6, 0
  br i1 %7, label %8, label %9

8:                                                ; preds = %4
  tail call void @_ZN10CJS_ResultC1E9JSMessage(%class.CJS_Result* %0, i32 15) #10
  br label %10

9:                                                ; preds = %4
  tail call void @_ZN10CJS_ResultC1Ev(%class.CJS_Result* %0) #10
  br label %10

10:                                               ; preds = %9, %8
  ret void
}

; Function Attrs: nounwind ssp uwtable
define hidden void @_ZN9CJS_Field21get_button_scale_whenEP11CJS_Runtime(%class.CJS_Result* noalias sret, %class.CJS_Field*, %class.CJS_Runtime*) local_unnamed_addr #0 align 2 {
  %4 = alloca %"class.std::__1::vector.446", align 8
  %5 = alloca %class.CPDF_IconFit, align 8
  %6 = bitcast %"class.std::__1::vector.446"* %4 to i8*
  call void @llvm.lifetime.start.p0i8(i64 24, i8* nonnull %6) #10
  %7 = getelementptr inbounds %"class.std::__1::vector.446", %"class.std::__1::vector.446"* %4, i64 0, i32 0, i32 0
  %8 = getelementptr inbounds %"class.std::__1::vector.446", %"class.std::__1::vector.446"* %4, i64 0, i32 0, i32 1
  call void @llvm.memset.p0i8.i64(i8* nonnull align 8 %6, i8 -86, i64 24, i1 false) #10
  call void @_ZNK9CJS_Field13GetFormFieldsEv(%"class.std::__1::vector.446"* nonnull sret %4, %class.CJS_Field* %1) #10
  %9 = load %class.CPDF_FormField**, %class.CPDF_FormField*** %7, align 8
  %10 = load %class.CPDF_FormField**, %class.CPDF_FormField*** %8, align 8
  %11 = icmp eq %class.CPDF_FormField** %9, %10
  br i1 %11, label %14, label %12

12:                                               ; preds = %3
  %13 = load %class.CPDF_FormField*, %class.CPDF_FormField** %9, align 8
  br label %14

14:                                               ; preds = %12, %3
  %15 = phi %class.CPDF_FormField* [ %13, %12 ], [ null, %3 ]
  %16 = icmp eq %class.CPDF_FormField** %9, null
  br i1 %16, label %21, label %17

17:                                               ; preds = %14
  %18 = ptrtoint %class.CPDF_FormField** %9 to i64
  %19 = bitcast %class.CPDF_FormField*** %8 to i64*
  store i64 %18, i64* %19, align 8
  %20 = bitcast %class.CPDF_FormField** %9 to i8*
  call void @_ZdlPv(i8* %20) #11
  br label %21

21:                                               ; preds = %14, %17
  call void @llvm.lifetime.end.p0i8(i64 24, i8* nonnull %6) #10
  %22 = icmp eq %class.CPDF_FormField* %15, null
  br i1 %22, label %23, label %24

23:                                               ; preds = %21
  call void @_ZN10CJS_ResultC1E9JSMessage(%class.CJS_Result* %0, i32 19) #10
  br label %54

24:                                               ; preds = %21
  %25 = call zeroext i8 @_ZNK14CPDF_FormField12GetFieldTypeEv(%class.CPDF_FormField* nonnull %15) #10
  %26 = icmp eq i8 %25, 1
  br i1 %26, label %28, label %27

27:                                               ; preds = %24
  call void @_ZN10CJS_ResultC1E9JSMessage(%class.CJS_Result* %0, i32 20) #10
  br label %54

28:                                               ; preds = %24
  %29 = call i32 @_ZNK14CPDF_FormField13CountControlsEv(%class.CPDF_FormField* nonnull %15) #10
  %30 = icmp eq i32 %29, 0
  br i1 %30, label %42, label %31

31:                                               ; preds = %28
  %32 = getelementptr inbounds %class.CJS_Field, %class.CJS_Field* %1, i64 0, i32 4
  %33 = load i32, i32* %32, align 8
  %34 = call i32 @_ZNK14CPDF_FormField13CountControlsEv(%class.CPDF_FormField* nonnull %15) #10
  %35 = icmp slt i32 %33, %34
  br i1 %35, label %36, label %42

36:                                               ; preds = %31
  %37 = load i32, i32* %32, align 8
  %38 = icmp sgt i32 %37, 0
  %39 = select i1 %38, i32 %37, i32 0
  %40 = call %class.CPDF_FormControl* @_ZNK14CPDF_FormField10GetControlEi(%class.CPDF_FormField* nonnull %15, i32 %39) #10
  %41 = icmp eq %class.CPDF_FormControl* %40, null
  br i1 %41, label %42, label %43

42:                                               ; preds = %28, %31, %36
  call void @_ZN10CJS_ResultC1E9JSMessage(%class.CJS_Result* %0, i32 19) #10
  br label %54

43:                                               ; preds = %36
  %44 = bitcast %class.CPDF_IconFit* %5 to i8*
  call void @llvm.lifetime.start.p0i8(i64 8, i8* nonnull %44) #10
  %45 = getelementptr inbounds %class.CPDF_IconFit, %class.CPDF_IconFit* %5, i64 0, i32 0, i32 0, i32 0, i32 0, i32 0
  store %class.CPDF_Dictionary* inttoptr (i64 -6148914691236517206 to %class.CPDF_Dictionary*), %class.CPDF_Dictionary** %45, align 8
  call void @_ZNK16CPDF_FormControl10GetIconFitEv(%class.CPDF_IconFit* nonnull sret %5, %class.CPDF_FormControl* nonnull %40) #10
  %46 = call i32 @_ZNK12CPDF_IconFit14GetScaleMethodEv(%class.CPDF_IconFit* nonnull %5) #10
  %47 = icmp ult i32 %46, 4
  br i1 %47, label %48, label %52

48:                                               ; preds = %43
  %49 = getelementptr inbounds %class.CJS_Runtime, %class.CJS_Runtime* %2, i64 0, i32 1, i32 0
  %50 = call %"class.v8::Number"* @_ZN6CFX_V89NewNumberEi(%class.CFX_V8* %49, i32 %46) #10
  %51 = bitcast %"class.v8::Number"* %50 to %"class.v8::Value"*
  call void @_ZN10CJS_ResultC1EN2v85LocalINS0_5ValueEEE(%class.CJS_Result* %0, %"class.v8::Value"* %51) #10
  br label %53

52:                                               ; preds = %43
  call void @_ZN10CJS_ResultC1Ev(%class.CJS_Result* %0) #10
  br label %53

53:                                               ; preds = %52, %48
  call void @_ZN12CPDF_IconFitD1Ev(%class.CPDF_IconFit* nonnull %5) #10
  call void @llvm.lifetime.end.p0i8(i64 8, i8* nonnull %44) #10
  br label %54

54:                                               ; preds = %42, %53, %27, %23
  ret void
}

declare i32 @_ZNK12CPDF_IconFit14GetScaleMethodEv(%class.CPDF_IconFit*) local_unnamed_addr #2

; Function Attrs: nounwind ssp uwtable
define hidden void @_ZN9CJS_Field21set_button_scale_whenEP11CJS_RuntimeN2v85LocalINS2_5ValueEEE(%class.CJS_Result* noalias sret, %class.CJS_Field* nocapture readonly, %class.CJS_Runtime* nocapture readnone, %"class.v8::Value"* nocapture readnone) local_unnamed_addr #0 align 2 {
  %5 = getelementptr inbounds %class.CJS_Field, %class.CJS_Field* %1, i64 0, i32 5
  %6 = load i8, i8* %5, align 4, !range !5
  %7 = icmp eq i8 %6, 0
  br i1 %7, label %8, label %9

8:                                                ; preds = %4
  tail call void @_ZN10CJS_ResultC1E9JSMessage(%class.CJS_Result* %0, i32 15) #10
  br label %10

9:                                                ; preds = %4
  tail call void @_ZN10CJS_ResultC1Ev(%class.CJS_Result* %0) #10
  br label %10

10:                                               ; preds = %9, %8
  ret void
}

; Function Attrs: nounwind ssp uwtable
define hidden void @_ZN9CJS_Field20get_calc_order_indexEP11CJS_Runtime(%class.CJS_Result* noalias sret, %class.CJS_Field*, %class.CJS_Runtime*) local_unnamed_addr #0 align 2 {
  %4 = alloca %"class.std::__1::vector.446", align 8
  %5 = bitcast %"class.std::__1::vector.446"* %4 to i8*
  call void @llvm.lifetime.start.p0i8(i64 24, i8* nonnull %5) #10
  %6 = getelementptr inbounds %"class.std::__1::vector.446", %"class.std::__1::vector.446"* %4, i64 0, i32 0, i32 0
  %7 = getelementptr inbounds %"class.std::__1::vector.446", %"class.std::__1::vector.446"* %4, i64 0, i32 0, i32 1
  call void @llvm.memset.p0i8.i64(i8* nonnull align 8 %5, i8 -86, i64 24, i1 false) #10
  call void @_ZNK9CJS_Field13GetFormFieldsEv(%"class.std::__1::vector.446"* nonnull sret %4, %class.CJS_Field* %1) #10
  %8 = load %class.CPDF_FormField**, %class.CPDF_FormField*** %6, align 8
  %9 = load %class.CPDF_FormField**, %class.CPDF_FormField*** %7, align 8
  %10 = icmp eq %class.CPDF_FormField** %8, %9
  br i1 %10, label %13, label %11

11:                                               ; preds = %3
  %12 = load %class.CPDF_FormField*, %class.CPDF_FormField** %8, align 8
  br label %13

13:                                               ; preds = %11, %3
  %14 = phi %class.CPDF_FormField* [ %12, %11 ], [ null, %3 ]
  %15 = icmp eq %class.CPDF_FormField** %8, null
  br i1 %15, label %20, label %16

16:                                               ; preds = %13
  %17 = ptrtoint %class.CPDF_FormField** %8 to i64
  %18 = bitcast %class.CPDF_FormField*** %7 to i64*
  store i64 %17, i64* %18, align 8
  %19 = bitcast %class.CPDF_FormField** %8 to i8*
  call void @_ZdlPv(i8* %19) #11
  br label %20

20:                                               ; preds = %13, %16
  call void @llvm.lifetime.end.p0i8(i64 24, i8* nonnull %5) #10
  %21 = icmp eq %class.CPDF_FormField* %14, null
  br i1 %21, label %22, label %23

22:                                               ; preds = %20
  call void @_ZN10CJS_ResultC1E9JSMessage(%class.CJS_Result* %0, i32 19) #10
  br label %40

23:                                               ; preds = %20
  %24 = call zeroext i8 @_ZNK14CPDF_FormField12GetFieldTypeEv(%class.CPDF_FormField* nonnull %14) #10
  %25 = icmp eq i8 %24, 4
  br i1 %25, label %30, label %26

26:                                               ; preds = %23
  %27 = call zeroext i8 @_ZNK14CPDF_FormField12GetFieldTypeEv(%class.CPDF_FormField* nonnull %14) #10
  %28 = icmp eq i8 %27, 6
  br i1 %28, label %30, label %29

29:                                               ; preds = %26
  call void @_ZN10CJS_ResultC1E9JSMessage(%class.CJS_Result* %0, i32 20) #10
  br label %40

30:                                               ; preds = %23, %26
  %31 = getelementptr inbounds %class.CJS_Field, %class.CJS_Field* %1, i64 0, i32 2, i32 1
  %32 = load %class.CPDFSDK_FormFillEnvironment*, %class.CPDFSDK_FormFillEnvironment** %31, align 8
  %33 = call %class.CPDFSDK_InteractiveForm* @_ZN27CPDFSDK_FormFillEnvironment18GetInteractiveFormEv(%class.CPDFSDK_FormFillEnvironment* %32) #10
  %34 = getelementptr inbounds %class.CPDFSDK_InteractiveForm, %class.CPDFSDK_InteractiveForm* %33, i64 0, i32 2, i32 0, i32 0, i32 0
  %35 = load %class.CPDF_InteractiveForm*, %class.CPDF_InteractiveForm** %34, align 8
  %36 = getelementptr inbounds %class.CJS_Runtime, %class.CJS_Runtime* %2, i64 0, i32 1, i32 0
  %37 = call i32 @_ZN20CPDF_InteractiveForm27FindFieldInCalculationOrderEPK14CPDF_FormField(%class.CPDF_InteractiveForm* %35, %class.CPDF_FormField* nonnull %14) #10
  %38 = call %"class.v8::Number"* @_ZN6CFX_V89NewNumberEi(%class.CFX_V8* %36, i32 %37) #10
  %39 = bitcast %"class.v8::Number"* %38 to %"class.v8::Value"*
  call void @_ZN10CJS_ResultC1EN2v85LocalINS0_5ValueEEE(%class.CJS_Result* %0, %"class.v8::Value"* %39) #10
  br label %40

40:                                               ; preds = %30, %29, %22
  ret void
}

declare i32 @_ZN20CPDF_InteractiveForm27FindFieldInCalculationOrderEPK14CPDF_FormField(%class.CPDF_InteractiveForm*, %class.CPDF_FormField*) local_unnamed_addr #2

; Function Attrs: nounwind ssp uwtable
define hidden void @_ZN9CJS_Field20set_calc_order_indexEP11CJS_RuntimeN2v85LocalINS2_5ValueEEE(%class.CJS_Result* noalias sret, %class.CJS_Field* nocapture readonly, %class.CJS_Runtime* nocapture readnone, %"class.v8::Value"* nocapture readnone) local_unnamed_addr #0 align 2 {
  %5 = getelementptr inbounds %class.CJS_Field, %class.CJS_Field* %1, i64 0, i32 5
  %6 = load i8, i8* %5, align 4, !range !5
  %7 = icmp eq i8 %6, 0
  br i1 %7, label %8, label %9

8:                                                ; preds = %4
  tail call void @_ZN10CJS_ResultC1E9JSMessage(%class.CJS_Result* %0, i32 15) #10
  br label %10

9:                                                ; preds = %4
  tail call void @_ZN10CJS_ResultC1Ev(%class.CJS_Result* %0) #10
  br label %10

10:                                               ; preds = %9, %8
  ret void
}

; Function Attrs: nounwind ssp uwtable
define hidden void @_ZN9CJS_Field14get_char_limitEP11CJS_Runtime(%class.CJS_Result* noalias sret, %class.CJS_Field*, %class.CJS_Runtime*) local_unnamed_addr #0 align 2 {
  %4 = alloca %"class.std::__1::vector.446", align 8
  %5 = bitcast %"class.std::__1::vector.446"* %4 to i8*
  call void @llvm.lifetime.start.p0i8(i64 24, i8* nonnull %5) #10
  %6 = getelementptr inbounds %"class.std::__1::vector.446", %"class.std::__1::vector.446"* %4, i64 0, i32 0, i32 0
  %7 = getelementptr inbounds %"class.std::__1::vector.446", %"class.std::__1::vector.446"* %4, i64 0, i32 0, i32 1
  call void @llvm.memset.p0i8.i64(i8* nonnull align 8 %5, i8 -86, i64 24, i1 false) #10
  call void @_ZNK9CJS_Field13GetFormFieldsEv(%"class.std::__1::vector.446"* nonnull sret %4, %class.CJS_Field* %1) #10
  %8 = load %class.CPDF_FormField**, %class.CPDF_FormField*** %6, align 8
  %9 = load %class.CPDF_FormField**, %class.CPDF_FormField*** %7, align 8
  %10 = icmp eq %class.CPDF_FormField** %8, %9
  br i1 %10, label %13, label %11

11:                                               ; preds = %3
  %12 = load %class.CPDF_FormField*, %class.CPDF_FormField** %8, align 8
  br label %13

13:                                               ; preds = %11, %3
  %14 = phi %class.CPDF_FormField* [ %12, %11 ], [ null, %3 ]
  %15 = icmp eq %class.CPDF_FormField** %8, null
  br i1 %15, label %20, label %16

16:                                               ; preds = %13
  %17 = ptrtoint %class.CPDF_FormField** %8 to i64
  %18 = bitcast %class.CPDF_FormField*** %7 to i64*
  store i64 %17, i64* %18, align 8
  %19 = bitcast %class.CPDF_FormField** %8 to i8*
  call void @_ZdlPv(i8* %19) #11
  br label %20

20:                                               ; preds = %13, %16
  call void @llvm.lifetime.end.p0i8(i64 24, i8* nonnull %5) #10
  %21 = icmp eq %class.CPDF_FormField* %14, null
  br i1 %21, label %22, label %23

22:                                               ; preds = %20
  call void @_ZN10CJS_ResultC1E9JSMessage(%class.CJS_Result* %0, i32 19) #10
  br label %32

23:                                               ; preds = %20
  %24 = call zeroext i8 @_ZNK14CPDF_FormField12GetFieldTypeEv(%class.CPDF_FormField* nonnull %14) #10
  %25 = icmp eq i8 %24, 6
  br i1 %25, label %27, label %26

26:                                               ; preds = %23
  call void @_ZN10CJS_ResultC1E9JSMessage(%class.CJS_Result* %0, i32 20) #10
  br label %32

27:                                               ; preds = %23
  %28 = getelementptr inbounds %class.CJS_Runtime, %class.CJS_Runtime* %2, i64 0, i32 1, i32 0
  %29 = call i32 @_ZNK14CPDF_FormField9GetMaxLenEv(%class.CPDF_FormField* nonnull %14) #10
  %30 = call %"class.v8::Number"* @_ZN6CFX_V89NewNumberEi(%class.CFX_V8* %28, i32 %29) #10
  %31 = bitcast %"class.v8::Number"* %30 to %"class.v8::Value"*
  call void @_ZN10CJS_ResultC1EN2v85LocalINS0_5ValueEEE(%class.CJS_Result* %0, %"class.v8::Value"* %31) #10
  br label %32

32:                                               ; preds = %27, %26, %22
  ret void
}

declare i32 @_ZNK14CPDF_FormField9GetMaxLenEv(%class.CPDF_FormField*) local_unnamed_addr #2

; Function Attrs: nounwind ssp uwtable
define hidden void @_ZN9CJS_Field14set_char_limitEP11CJS_RuntimeN2v85LocalINS2_5ValueEEE(%class.CJS_Result* noalias sret, %class.CJS_Field* nocapture readonly, %class.CJS_Runtime* nocapture readnone, %"class.v8::Value"* nocapture readnone) local_unnamed_addr #0 align 2 {
  %5 = getelementptr inbounds %class.CJS_Field, %class.CJS_Field* %1, i64 0, i32 5
  %6 = load i8, i8* %5, align 4, !range !5
  %7 = icmp eq i8 %6, 0
  br i1 %7, label %8, label %9

8:                                                ; preds = %4
  tail call void @_ZN10CJS_ResultC1E9JSMessage(%class.CJS_Result* %0, i32 15) #10
  br label %10

9:                                                ; preds = %4
  tail call void @_ZN10CJS_ResultC1Ev(%class.CJS_Result* %0) #10
  br label %10

10:                                               ; preds = %9, %8
  ret void
}

; Function Attrs: nounwind ssp uwtable
define hidden void @_ZN9CJS_Field8get_combEP11CJS_Runtime(%class.CJS_Result* noalias sret, %class.CJS_Field*, %class.CJS_Runtime*) local_unnamed_addr #0 align 2 {
  %4 = alloca %"class.std::__1::vector.446", align 8
  %5 = bitcast %"class.std::__1::vector.446"* %4 to i8*
  call void @llvm.lifetime.start.p0i8(i64 24, i8* nonnull %5) #10
  %6 = getelementptr inbounds %"class.std::__1::vector.446", %"class.std::__1::vector.446"* %4, i64 0, i32 0, i32 0
  %7 = getelementptr inbounds %"class.std::__1::vector.446", %"class.std::__1::vector.446"* %4, i64 0, i32 0, i32 1
  call void @llvm.memset.p0i8.i64(i8* nonnull align 8 %5, i8 -86, i64 24, i1 false) #10
  call void @_ZNK9CJS_Field13GetFormFieldsEv(%"class.std::__1::vector.446"* nonnull sret %4, %class.CJS_Field* %1) #10
  %8 = load %class.CPDF_FormField**, %class.CPDF_FormField*** %6, align 8
  %9 = load %class.CPDF_FormField**, %class.CPDF_FormField*** %7, align 8
  %10 = icmp eq %class.CPDF_FormField** %8, %9
  br i1 %10, label %13, label %11

11:                                               ; preds = %3
  %12 = load %class.CPDF_FormField*, %class.CPDF_FormField** %8, align 8
  br label %13

13:                                               ; preds = %11, %3
  %14 = phi %class.CPDF_FormField* [ %12, %11 ], [ null, %3 ]
  %15 = icmp eq %class.CPDF_FormField** %8, null
  br i1 %15, label %20, label %16

16:                                               ; preds = %13
  %17 = ptrtoint %class.CPDF_FormField** %8 to i64
  %18 = bitcast %class.CPDF_FormField*** %7 to i64*
  store i64 %17, i64* %18, align 8
  %19 = bitcast %class.CPDF_FormField** %8 to i8*
  call void @_ZdlPv(i8* %19) #11
  br label %20

20:                                               ; preds = %13, %16
  call void @llvm.lifetime.end.p0i8(i64 24, i8* nonnull %5) #10
  %21 = icmp eq %class.CPDF_FormField* %14, null
  br i1 %21, label %22, label %23

22:                                               ; preds = %20
  call void @_ZN10CJS_ResultC1E9JSMessage(%class.CJS_Result* %0, i32 19) #10
  br label %34

23:                                               ; preds = %20
  %24 = call zeroext i8 @_ZNK14CPDF_FormField12GetFieldTypeEv(%class.CPDF_FormField* nonnull %14) #10
  %25 = icmp eq i8 %24, 6
  br i1 %25, label %27, label %26

26:                                               ; preds = %23
  call void @_ZN10CJS_ResultC1E9JSMessage(%class.CJS_Result* %0, i32 20) #10
  br label %34

27:                                               ; preds = %23
  %28 = getelementptr inbounds %class.CJS_Runtime, %class.CJS_Runtime* %2, i64 0, i32 1, i32 0
  %29 = call i32 @_ZNK14CPDF_FormField13GetFieldFlagsEv(%class.CPDF_FormField* nonnull %14) #10
  %30 = and i32 %29, 16777216
  %31 = icmp ne i32 %30, 0
  %32 = call %"class.v8::Boolean"* @_ZN6CFX_V810NewBooleanEb(%class.CFX_V8* %28, i1 zeroext %31) #10
  %33 = bitcast %"class.v8::Boolean"* %32 to %"class.v8::Value"*
  call void @_ZN10CJS_ResultC1EN2v85LocalINS0_5ValueEEE(%class.CJS_Result* %0, %"class.v8::Value"* %33) #10
  br label %34

34:                                               ; preds = %27, %26, %22
  ret void
}

declare i32 @_ZNK14CPDF_FormField13GetFieldFlagsEv(%class.CPDF_FormField*) local_unnamed_addr #2

; Function Attrs: nounwind ssp uwtable
define hidden void @_ZN9CJS_Field8set_combEP11CJS_RuntimeN2v85LocalINS2_5ValueEEE(%class.CJS_Result* noalias sret, %class.CJS_Field* nocapture readonly, %class.CJS_Runtime* nocapture readnone, %"class.v8::Value"* nocapture readnone) local_unnamed_addr #0 align 2 {
  %5 = getelementptr inbounds %class.CJS_Field, %class.CJS_Field* %1, i64 0, i32 5
  %6 = load i8, i8* %5, align 4, !range !5
  %7 = icmp eq i8 %6, 0
  br i1 %7, label %8, label %9

8:                                                ; preds = %4
  tail call void @_ZN10CJS_ResultC1E9JSMessage(%class.CJS_Result* %0, i32 15) #10
  br label %10

9:                                                ; preds = %4
  tail call void @_ZN10CJS_ResultC1Ev(%class.CJS_Result* %0) #10
  br label %10

10:                                               ; preds = %9, %8
  ret void
}

; Function Attrs: nounwind ssp uwtable
define hidden void @_ZN9CJS_Field24get_commit_on_sel_changeEP11CJS_Runtime(%class.CJS_Result* noalias sret, %class.CJS_Field*, %class.CJS_Runtime*) local_unnamed_addr #0 align 2 {
  %4 = alloca %"class.std::__1::vector.446", align 8
  %5 = bitcast %"class.std::__1::vector.446"* %4 to i8*
  call void @llvm.lifetime.start.p0i8(i64 24, i8* nonnull %5) #10
  %6 = getelementptr inbounds %"class.std::__1::vector.446", %"class.std::__1::vector.446"* %4, i64 0, i32 0, i32 0
  %7 = getelementptr inbounds %"class.std::__1::vector.446", %"class.std::__1::vector.446"* %4, i64 0, i32 0, i32 1
  call void @llvm.memset.p0i8.i64(i8* nonnull align 8 %5, i8 -86, i64 24, i1 false) #10
  call void @_ZNK9CJS_Field13GetFormFieldsEv(%"class.std::__1::vector.446"* nonnull sret %4, %class.CJS_Field* %1) #10
  %8 = load %class.CPDF_FormField**, %class.CPDF_FormField*** %6, align 8
  %9 = load %class.CPDF_FormField**, %class.CPDF_FormField*** %7, align 8
  %10 = icmp eq %class.CPDF_FormField** %8, %9
  br i1 %10, label %13, label %11

11:                                               ; preds = %3
  %12 = load %class.CPDF_FormField*, %class.CPDF_FormField** %8, align 8
  br label %13

13:                                               ; preds = %11, %3
  %14 = phi %class.CPDF_FormField* [ %12, %11 ], [ null, %3 ]
  %15 = icmp eq %class.CPDF_FormField** %8, null
  br i1 %15, label %20, label %16

16:                                               ; preds = %13
  %17 = ptrtoint %class.CPDF_FormField** %8 to i64
  %18 = bitcast %class.CPDF_FormField*** %7 to i64*
  store i64 %17, i64* %18, align 8
  %19 = bitcast %class.CPDF_FormField** %8 to i8*
  call void @_ZdlPv(i8* %19) #11
  br label %20

20:                                               ; preds = %13, %16
  call void @llvm.lifetime.end.p0i8(i64 24, i8* nonnull %5) #10
  %21 = icmp eq %class.CPDF_FormField* %14, null
  br i1 %21, label %22, label %23

22:                                               ; preds = %20
  call void @_ZN10CJS_ResultC1E9JSMessage(%class.CJS_Result* %0, i32 19) #10
  br label %37

23:                                               ; preds = %20
  %24 = call zeroext i8 @_ZNK14CPDF_FormField12GetFieldTypeEv(%class.CPDF_FormField* nonnull %14) #10
  %25 = icmp eq i8 %24, 4
  br i1 %25, label %30, label %26

26:                                               ; preds = %23
  %27 = call zeroext i8 @_ZNK14CPDF_FormField12GetFieldTypeEv(%class.CPDF_FormField* nonnull %14) #10
  %28 = icmp eq i8 %27, 5
  br i1 %28, label %30, label %29

29:                                               ; preds = %26
  call void @_ZN10CJS_ResultC1E9JSMessage(%class.CJS_Result* %0, i32 20) #10
  br label %37

30:                                               ; preds = %23, %26
  %31 = call i32 @_ZNK14CPDF_FormField13GetFieldFlagsEv(%class.CPDF_FormField* nonnull %14) #10
  %32 = getelementptr inbounds %class.CJS_Runtime, %class.CJS_Runtime* %2, i64 0, i32 1, i32 0
  %33 = and i32 %31, 67108864
  %34 = icmp ne i32 %33, 0
  %35 = call %"class.v8::Boolean"* @_ZN6CFX_V810NewBooleanEb(%class.CFX_V8* %32, i1 zeroext %34) #10
  %36 = bitcast %"class.v8::Boolean"* %35 to %"class.v8::Value"*
  call void @_ZN10CJS_ResultC1EN2v85LocalINS0_5ValueEEE(%class.CJS_Result* %0, %"class.v8::Value"* %36) #10
  br label %37

37:                                               ; preds = %30, %29, %22
  ret void
}

; Function Attrs: nounwind ssp uwtable
define hidden void @_ZN9CJS_Field24set_commit_on_sel_changeEP11CJS_RuntimeN2v85LocalINS2_5ValueEEE(%class.CJS_Result* noalias sret, %class.CJS_Field* nocapture readonly, %class.CJS_Runtime* nocapture readnone, %"class.v8::Value"* nocapture readnone) local_unnamed_addr #0 align 2 {
  %5 = getelementptr inbounds %class.CJS_Field, %class.CJS_Field* %1, i64 0, i32 5
  %6 = load i8, i8* %5, align 4, !range !5
  %7 = icmp eq i8 %6, 0
  br i1 %7, label %8, label %9

8:                                                ; preds = %4
  tail call void @_ZN10CJS_ResultC1E9JSMessage(%class.CJS_Result* %0, i32 15) #10
  br label %10

9:                                                ; preds = %4
  tail call void @_ZN10CJS_ResultC1Ev(%class.CJS_Result* %0) #10
  br label %10

10:                                               ; preds = %9, %8
  ret void
}

; Function Attrs: nounwind ssp uwtable
define hidden void @_ZN9CJS_Field25get_current_value_indicesEP11CJS_Runtime(%class.CJS_Result* noalias sret, %class.CJS_Field*, %class.CJS_Runtime*) local_unnamed_addr #0 align 2 {
  %4 = alloca %"class.std::__1::vector.446", align 8
  %5 = bitcast %"class.std::__1::vector.446"* %4 to i8*
  call void @llvm.lifetime.start.p0i8(i64 24, i8* nonnull %5) #10
  %6 = getelementptr inbounds %"class.std::__1::vector.446", %"class.std::__1::vector.446"* %4, i64 0, i32 0, i32 0
  %7 = getelementptr inbounds %"class.std::__1::vector.446", %"class.std::__1::vector.446"* %4, i64 0, i32 0, i32 1
  call void @llvm.memset.p0i8.i64(i8* nonnull align 8 %5, i8 -86, i64 24, i1 false) #10
  call void @_ZNK9CJS_Field13GetFormFieldsEv(%"class.std::__1::vector.446"* nonnull sret %4, %class.CJS_Field* %1) #10
  %8 = load %class.CPDF_FormField**, %class.CPDF_FormField*** %6, align 8
  %9 = load %class.CPDF_FormField**, %class.CPDF_FormField*** %7, align 8
  %10 = icmp eq %class.CPDF_FormField** %8, %9
  br i1 %10, label %13, label %11

11:                                               ; preds = %3
  %12 = load %class.CPDF_FormField*, %class.CPDF_FormField** %8, align 8
  br label %13

13:                                               ; preds = %11, %3
  %14 = phi %class.CPDF_FormField* [ %12, %11 ], [ null, %3 ]
  %15 = icmp eq %class.CPDF_FormField** %8, null
  br i1 %15, label %20, label %16

16:                                               ; preds = %13
  %17 = ptrtoint %class.CPDF_FormField** %8 to i64
  %18 = bitcast %class.CPDF_FormField*** %7 to i64*
  store i64 %17, i64* %18, align 8
  %19 = bitcast %class.CPDF_FormField** %8 to i8*
  call void @_ZdlPv(i8* %19) #11
  br label %20

20:                                               ; preds = %13, %16
  call void @llvm.lifetime.end.p0i8(i64 24, i8* nonnull %5) #10
  %21 = icmp eq %class.CPDF_FormField* %14, null
  br i1 %21, label %22, label %23

22:                                               ; preds = %20
  call void @_ZN10CJS_ResultC1E9JSMessage(%class.CJS_Result* %0, i32 19) #10
  br label %60

23:                                               ; preds = %20
  %24 = call zeroext i8 @_ZNK14CPDF_FormField12GetFieldTypeEv(%class.CPDF_FormField* nonnull %14) #10
  %25 = icmp eq i8 %24, 4
  br i1 %25, label %30, label %26

26:                                               ; preds = %23
  %27 = call zeroext i8 @_ZNK14CPDF_FormField12GetFieldTypeEv(%class.CPDF_FormField* nonnull %14) #10
  %28 = icmp eq i8 %27, 5
  br i1 %28, label %30, label %29

29:                                               ; preds = %26
  call void @_ZN10CJS_ResultC1E9JSMessage(%class.CJS_Result* %0, i32 20) #10
  br label %60

30:                                               ; preds = %23, %26
  %31 = call i32 @_ZNK14CPDF_FormField18CountSelectedItemsEv(%class.CPDF_FormField* nonnull %14) #10
  %32 = icmp slt i32 %31, 1
  br i1 %32, label %33, label %37

33:                                               ; preds = %30
  %34 = getelementptr inbounds %class.CJS_Runtime, %class.CJS_Runtime* %2, i64 0, i32 1, i32 0
  %35 = call %"class.v8::Number"* @_ZN6CFX_V89NewNumberEi(%class.CFX_V8* %34, i32 -1) #10
  %36 = bitcast %"class.v8::Number"* %35 to %"class.v8::Value"*
  call void @_ZN10CJS_ResultC1EN2v85LocalINS0_5ValueEEE(%class.CJS_Result* %0, %"class.v8::Value"* %36) #10
  br label %60

37:                                               ; preds = %30
  %38 = icmp eq i32 %31, 1
  %39 = getelementptr inbounds %class.CJS_Runtime, %class.CJS_Runtime* %2, i64 0, i32 1, i32 0
  br i1 %38, label %40, label %44

40:                                               ; preds = %37
  %41 = call i32 @_ZNK14CPDF_FormField16GetSelectedIndexEi(%class.CPDF_FormField* nonnull %14, i32 0) #10
  %42 = call %"class.v8::Number"* @_ZN6CFX_V89NewNumberEi(%class.CFX_V8* %39, i32 %41) #10
  %43 = bitcast %"class.v8::Number"* %42 to %"class.v8::Value"*
  call void @_ZN10CJS_ResultC1EN2v85LocalINS0_5ValueEEE(%class.CJS_Result* %0, %"class.v8::Value"* %43) #10
  br label %60

44:                                               ; preds = %37
  %45 = call %"class.v8::Array"* @_ZN6CFX_V88NewArrayEv(%class.CFX_V8* %39) #10
  br label %48

46:                                               ; preds = %48
  %47 = icmp eq %"class.v8::Array"* %45, null
  br i1 %47, label %55, label %58

48:                                               ; preds = %48, %44
  %49 = phi i32 [ %53, %48 ], [ 0, %44 ]
  %50 = call i32 @_ZNK14CPDF_FormField16GetSelectedIndexEi(%class.CPDF_FormField* nonnull %14, i32 %49) #10
  %51 = call %"class.v8::Number"* @_ZN6CFX_V89NewNumberEi(%class.CFX_V8* %39, i32 %50) #10
  %52 = bitcast %"class.v8::Number"* %51 to %"class.v8::Value"*
  call void @_ZN6CFX_V815PutArrayElementEN2v85LocalINS0_5ArrayEEEjNS1_INS0_5ValueEEE(%class.CFX_V8* %39, %"class.v8::Array"* %45, i32 %49, %"class.v8::Value"* %52) #10
  %53 = add nuw nsw i32 %49, 1
  %54 = icmp eq i32 %53, %31
  br i1 %54, label %46, label %48

55:                                               ; preds = %46
  %56 = call %"class.v8::Array"* @_ZN6CFX_V88NewArrayEv(%class.CFX_V8* %39) #10
  %57 = bitcast %"class.v8::Array"* %56 to %"class.v8::Value"*
  call void @_ZN10CJS_ResultC1EN2v85LocalINS0_5ValueEEE(%class.CJS_Result* %0, %"class.v8::Value"* %57) #10
  br label %60

58:                                               ; preds = %46
  %59 = bitcast %"class.v8::Array"* %45 to %"class.v8::Value"*
  call void @_ZN10CJS_ResultC1EN2v85LocalINS0_5ValueEEE(%class.CJS_Result* %0, %"class.v8::Value"* nonnull %59) #10
  br label %60

60:                                               ; preds = %55, %58, %33, %40, %29, %22
  ret void
}

declare i32 @_ZNK14CPDF_FormField18CountSelectedItemsEv(%class.CPDF_FormField*) local_unnamed_addr #2

declare i32 @_ZNK14CPDF_FormField16GetSelectedIndexEi(%class.CPDF_FormField*, i32) local_unnamed_addr #2

declare %"class.v8::Array"* @_ZN6CFX_V88NewArrayEv(%class.CFX_V8*) local_unnamed_addr #2

declare void @_ZN6CFX_V815PutArrayElementEN2v85LocalINS0_5ArrayEEEjNS1_INS0_5ValueEEE(%class.CFX_V8*, %"class.v8::Array"*, i32, %"class.v8::Value"*) local_unnamed_addr #2

; Function Attrs: nounwind ssp uwtable
define hidden void @_ZN9CJS_Field25set_current_value_indicesEP11CJS_RuntimeN2v85LocalINS2_5ValueEEE(%class.CJS_Result* noalias sret, %class.CJS_Field*, %class.CJS_Runtime*, %"class.v8::Value"*) local_unnamed_addr #0 align 2 {
  %5 = alloca %"class.std::__1::vector.202", align 8
  %6 = getelementptr inbounds %class.CJS_Field, %class.CJS_Field* %1, i64 0, i32 5
  %7 = load i8, i8* %6, align 4, !range !5
  %8 = icmp eq i8 %7, 0
  br i1 %8, label %9, label %10

9:                                                ; preds = %4
  tail call void @_ZN10CJS_ResultC1E9JSMessage(%class.CJS_Result* %0, i32 15) #10
  br label %137

10:                                               ; preds = %4
  %11 = bitcast %"class.std::__1::vector.202"* %5 to i8*
  call void @llvm.lifetime.start.p0i8(i64 24, i8* nonnull %11) #10
  %12 = getelementptr inbounds %"class.std::__1::vector.202", %"class.std::__1::vector.202"* %5, i64 0, i32 0, i32 0
  %13 = getelementptr inbounds %"class.std::__1::vector.202", %"class.std::__1::vector.202"* %5, i64 0, i32 0, i32 1
  %14 = getelementptr inbounds %"class.std::__1::vector.202", %"class.std::__1::vector.202"* %5, i64 0, i32 0, i32 2, i32 0, i32 0
  call void @llvm.memset.p0i8.i64(i8* nonnull align 8 %11, i8 0, i64 24, i1 false) #10
  %15 = tail call zeroext i1 @_ZNK2v85Value8IsNumberEv(%"class.v8::Value"* %3) #10
  br i1 %15, label %16, label %28

16:                                               ; preds = %10
  %17 = getelementptr inbounds %class.CJS_Runtime, %class.CJS_Runtime* %2, i64 0, i32 1, i32 0
  %18 = tail call i32 @_ZN6CFX_V87ToInt32EN2v85LocalINS0_5ValueEEE(%class.CFX_V8* %17, %"class.v8::Value"* %3) #10
  %19 = bitcast i32** %13 to i64*
  %20 = bitcast %"class.std::__1::vector.202"* %5 to i64*
  %21 = bitcast i32** %14 to i64*
  %22 = tail call i8* @_Znwm(i64 4) #11
  %23 = bitcast i8* %22 to i32*
  %24 = getelementptr inbounds i8, i8* %22, i64 4
  %25 = bitcast i8* %24 to i32*
  %26 = ptrtoint i8* %24 to i64
  store i32 %18, i32* %23, align 4
  %27 = ptrtoint i8* %22 to i64
  store i64 %27, i64* %20, align 8
  store i64 %26, i64* %19, align 8
  store i64 %26, i64* %21, align 8
  br label %108

28:                                               ; preds = %10
  %29 = tail call zeroext i1 @_ZN4fxv87IsArrayEN2v85LocalINS0_5ValueEEE(%"class.v8::Value"* %3) #10
  br i1 %29, label %30, label %108

30:                                               ; preds = %28
  %31 = getelementptr inbounds %class.CJS_Runtime, %class.CJS_Runtime* %2, i64 0, i32 1, i32 0
  %32 = tail call %"class.v8::Array"* @_ZN6CFX_V87ToArrayEN2v85LocalINS0_5ValueEEE(%class.CFX_V8* %31, %"class.v8::Value"* %3) #10
  %33 = tail call i32 @_ZN6CFX_V814GetArrayLengthEN2v85LocalINS0_5ArrayEEE(%class.CFX_V8* %31, %"class.v8::Array"* %32) #10
  %34 = icmp eq i32 %33, 0
  br i1 %34, label %108, label %35

35:                                               ; preds = %30
  %36 = bitcast i32** %13 to i64*
  %37 = bitcast %"class.std::__1::vector.202"* %5 to i64*
  %38 = bitcast i32** %14 to i64*
  br label %39

39:                                               ; preds = %106, %35
  %40 = phi i64 [ 0, %35 ], [ %101, %106 ]
  %41 = phi i32* [ null, %35 ], [ %107, %106 ]
  %42 = phi i32* [ null, %35 ], [ %100, %106 ]
  %43 = phi i64 [ 0, %35 ], [ %102, %106 ]
  %44 = trunc i64 %43 to i32
  %45 = tail call %"class.v8::Value"* @_ZN6CFX_V815GetArrayElementEN2v85LocalINS0_5ArrayEEEj(%class.CFX_V8* %31, %"class.v8::Array"* %32, i32 %44) #10
  %46 = tail call i32 @_ZN6CFX_V87ToInt32EN2v85LocalINS0_5ValueEEE(%class.CFX_V8* %31, %"class.v8::Value"* %45) #10
  %47 = icmp ult i32* %42, %41
  %48 = ptrtoint i32* %41 to i64
  br i1 %47, label %49, label %52

49:                                               ; preds = %39
  store i32 %46, i32* %42, align 4
  %50 = getelementptr inbounds i32, i32* %42, i64 1
  %51 = ptrtoint i32* %50 to i64
  store i64 %51, i64* %36, align 8
  br label %99

52:                                               ; preds = %39
  %53 = ptrtoint i32* %42 to i64
  %54 = load i64, i64* %37, align 8
  %55 = sub i64 %53, %54
  %56 = ashr exact i64 %55, 2
  %57 = add nsw i64 %56, 1
  %58 = icmp ugt i64 %57, 4611686018427387903
  br i1 %58, label %59, label %61

59:                                               ; preds = %52
  %60 = bitcast %"class.std::__1::vector.202"* %5 to %"class.std::__1::__vector_base_common"*
  call void @_ZNKSt3__120__vector_base_commonILb1EE20__throw_length_errorEv(%"class.std::__1::__vector_base_common"* nonnull %60) #12
  unreachable

61:                                               ; preds = %52
  %62 = sub i64 %48, %54
  %63 = ashr exact i64 %62, 2
  %64 = icmp ult i64 %63, 2305843009213693951
  br i1 %64, label %65, label %73

65:                                               ; preds = %61
  %66 = ashr exact i64 %62, 1
  %67 = icmp ult i64 %66, %57
  %68 = select i1 %67, i64 %57, i64 %66
  %69 = icmp eq i64 %68, 0
  br i1 %69, label %78, label %70

70:                                               ; preds = %65
  %71 = icmp ugt i64 %68, 4611686018427387903
  br i1 %71, label %72, label %73

72:                                               ; preds = %70
  tail call void @abort() #12
  unreachable

73:                                               ; preds = %70, %61
  %74 = phi i64 [ %68, %70 ], [ 4611686018427387903, %61 ]
  %75 = shl i64 %74, 2
  %76 = tail call i8* @_Znwm(i64 %75) #11
  %77 = bitcast i8* %76 to i32*
  br label %78

78:                                               ; preds = %73, %65
  %79 = phi i64 [ %74, %73 ], [ 0, %65 ]
  %80 = phi i32* [ %77, %73 ], [ null, %65 ]
  %81 = getelementptr inbounds i32, i32* %80, i64 %56
  %82 = getelementptr inbounds i32, i32* %80, i64 %79
  %83 = ptrtoint i32* %82 to i64
  store i32 %46, i32* %81, align 4
  %84 = getelementptr inbounds i32, i32* %81, i64 1
  %85 = ptrtoint i32* %84 to i64
  %86 = sub i64 %40, %54
  %87 = ashr exact i64 %86, 2
  %88 = sub nsw i64 0, %87
  %89 = getelementptr inbounds i32, i32* %81, i64 %88
  %90 = ptrtoint i32* %89 to i64
  %91 = icmp sgt i64 %86, 0
  br i1 %91, label %92, label %95

92:                                               ; preds = %78
  %93 = bitcast i32* %89 to i8*
  %94 = inttoptr i64 %54 to i8*
  tail call void @llvm.memcpy.p0i8.p0i8.i64(i8* align 4 %93, i8* align 4 %94, i64 %86, i1 false) #10
  br label %95

95:                                               ; preds = %92, %78
  store i64 %90, i64* %37, align 8
  store i64 %85, i64* %36, align 8
  store i64 %83, i64* %38, align 8
  %96 = icmp eq i64 %54, 0
  br i1 %96, label %99, label %97

97:                                               ; preds = %95
  %98 = inttoptr i64 %54 to i8*
  tail call void @_ZdlPv(i8* %98) #11
  br label %99

99:                                               ; preds = %49, %95, %97
  %100 = phi i32* [ %50, %49 ], [ %84, %95 ], [ %84, %97 ]
  %101 = phi i64 [ %51, %49 ], [ %85, %95 ], [ %85, %97 ]
  %102 = add nuw nsw i64 %43, 1
  %103 = tail call i32 @_ZN6CFX_V814GetArrayLengthEN2v85LocalINS0_5ArrayEEE(%class.CFX_V8* %31, %"class.v8::Array"* %32) #10
  %104 = zext i32 %103 to i64
  %105 = icmp ult i64 %102, %104
  br i1 %105, label %106, label %108

106:                                              ; preds = %99
  %107 = load i32*, i32** %14, align 8
  br label %39

108:                                              ; preds = %99, %16, %30, %28
  %109 = phi i32* [ null, %30 ], [ %25, %16 ], [ null, %28 ], [ %100, %99 ]
  %110 = getelementptr inbounds %class.CJS_Field, %class.CJS_Field* %1, i64 0, i32 6
  %111 = load i8, i8* %110, align 1, !range !5
  %112 = icmp eq i8 %111, 0
  br i1 %112, label %124, label %113

113:                                              ; preds = %108
  %114 = getelementptr inbounds %class.CJS_Field, %class.CJS_Field* %1, i64 0, i32 4
  %115 = getelementptr inbounds %class.CJS_Field, %class.CJS_Field* %1, i64 0, i32 3
  %116 = tail call i8* @_Znwm(i64 128) #11
  %117 = bitcast i8* %116 to %struct.CJS_DelayData*
  %118 = load i32, i32* %114, align 4
  tail call void @_ZN13CJS_DelayDataC1E10FIELD_PROPiRKN5fxcrt10WideStringE(%struct.CJS_DelayData* nonnull %117, i32 1, i32 %118, %"class.fxcrt::WideString"* dereferenceable(8) %115) #10
  %119 = getelementptr inbounds i8, i8* %116, i64 80
  %120 = bitcast i8* %119 to %"class.std::__1::vector.202"*
  %121 = load i32*, i32** %12, align 8
  tail call void @_ZNSt3__16vectorIjNS_9allocatorIjEEE6assignIPjEENS_9enable_ifIXaasr27__is_cpp17_forward_iteratorIT_EE5valuesr16is_constructibleIjNS_15iterator_traitsIS7_E9referenceEEE5valueEvE4typeES7_S7_(%"class.std::__1::vector.202"* %120, i32* %121, i32* %109) #10
  %122 = getelementptr inbounds %class.CJS_Field, %class.CJS_Field* %1, i64 0, i32 1, i32 1
  %123 = load %class.CJS_Document*, %class.CJS_Document** %122, align 8
  tail call void @_ZN12CJS_Document12AddDelayDataENSt3__110unique_ptrI13CJS_DelayDataNS0_14default_deleteIS2_EEEE(%class.CJS_Document* %123, %struct.CJS_DelayData* nonnull %117) #10
  br label %129

124:                                              ; preds = %108
  %125 = getelementptr inbounds %class.CJS_Field, %class.CJS_Field* %1, i64 0, i32 2, i32 1
  %126 = load %class.CPDFSDK_FormFillEnvironment*, %class.CPDFSDK_FormFillEnvironment** %125, align 8
  %127 = getelementptr inbounds %class.CJS_Field, %class.CJS_Field* %1, i64 0, i32 3
  call fastcc void @_ZN12_GLOBAL__N_122SetCurrentValueIndicesEP27CPDFSDK_FormFillEnvironmentRKN5fxcrt10WideStringEiRKNSt3__16vectorIjNS6_9allocatorIjEEEE(%class.CPDFSDK_FormFillEnvironment* %126, %"class.fxcrt::WideString"* dereferenceable(8) %127, %"class.std::__1::vector.202"* nonnull dereferenceable(24) %5)
  %128 = load i32*, i32** %12, align 8
  br label %129

129:                                              ; preds = %124, %113
  %130 = phi i32* [ %128, %124 ], [ %121, %113 ]
  tail call void @_ZN10CJS_ResultC1Ev(%class.CJS_Result* %0) #10
  %131 = icmp eq i32* %130, null
  br i1 %131, label %136, label %132

132:                                              ; preds = %129
  %133 = ptrtoint i32* %130 to i64
  %134 = bitcast i32** %13 to i64*
  store i64 %133, i64* %134, align 8
  %135 = bitcast i32* %130 to i8*
  tail call void @_ZdlPv(i8* %135) #11
  br label %136

136:                                              ; preds = %129, %132
  call void @llvm.lifetime.end.p0i8(i64 24, i8* nonnull %11) #10
  br label %137

137:                                              ; preds = %136, %9
  ret void
}

declare zeroext i1 @_ZNK2v85Value8IsNumberEv(%"class.v8::Value"*) local_unnamed_addr #2

declare i32 @_ZN6CFX_V87ToInt32EN2v85LocalINS0_5ValueEEE(%class.CFX_V8*, %"class.v8::Value"*) local_unnamed_addr #2

declare zeroext i1 @_ZN4fxv87IsArrayEN2v85LocalINS0_5ValueEEE(%"class.v8::Value"*) local_unnamed_addr #2

declare %"class.v8::Array"* @_ZN6CFX_V87ToArrayEN2v85LocalINS0_5ValueEEE(%class.CFX_V8*, %"class.v8::Value"*) local_unnamed_addr #2

declare i32 @_ZN6CFX_V814GetArrayLengthEN2v85LocalINS0_5ArrayEEE(%class.CFX_V8*, %"class.v8::Array"*) local_unnamed_addr #2

declare %"class.v8::Value"* @_ZN6CFX_V815GetArrayElementEN2v85LocalINS0_5ArrayEEEj(%class.CFX_V8*, %"class.v8::Array"*, i32) local_unnamed_addr #2

; Function Attrs: nounwind ssp uwtable
define hidden void @_ZN9CJS_Field18AddDelay_WordArrayE10FIELD_PROPRKNSt3__16vectorIjNS1_9allocatorIjEEEE(%class.CJS_Field*, i32, %"class.std::__1::vector.202"* readonly dereferenceable(24)) local_unnamed_addr #0 align 2 {
  %4 = getelementptr inbounds %class.CJS_Field, %class.CJS_Field* %0, i64 0, i32 4
  %5 = getelementptr inbounds %class.CJS_Field, %class.CJS_Field* %0, i64 0, i32 3
  %6 = tail call i8* @_Znwm(i64 128) #11
  %7 = bitcast i8* %6 to %struct.CJS_DelayData*
  %8 = load i32, i32* %4, align 4
  tail call void @_ZN13CJS_DelayDataC1E10FIELD_PROPiRKN5fxcrt10WideStringE(%struct.CJS_DelayData* nonnull %7, i32 %1, i32 %8, %"class.fxcrt::WideString"* dereferenceable(8) %5) #10
  %9 = getelementptr inbounds i8, i8* %6, i64 80
  %10 = bitcast i8* %9 to %"class.std::__1::vector.202"*
  %11 = icmp eq %"class.std::__1::vector.202"* %10, %2
  br i1 %11, label %17, label %12

12:                                               ; preds = %3
  %13 = getelementptr inbounds %"class.std::__1::vector.202", %"class.std::__1::vector.202"* %2, i64 0, i32 0, i32 0
  %14 = load i32*, i32** %13, align 8
  %15 = getelementptr inbounds %"class.std::__1::vector.202", %"class.std::__1::vector.202"* %2, i64 0, i32 0, i32 1
  %16 = load i32*, i32** %15, align 8
  tail call void @_ZNSt3__16vectorIjNS_9allocatorIjEEE6assignIPjEENS_9enable_ifIXaasr27__is_cpp17_forward_iteratorIT_EE5valuesr16is_constructibleIjNS_15iterator_traitsIS7_E9referenceEEE5valueEvE4typeES7_S7_(%"class.std::__1::vector.202"* %10, i32* %14, i32* %16) #10
  br label %17

17:                                               ; preds = %12, %3
  %18 = getelementptr inbounds %class.CJS_Field, %class.CJS_Field* %0, i64 0, i32 1, i32 1
  %19 = load %class.CJS_Document*, %class.CJS_Document** %18, align 8
  tail call void @_ZN12CJS_Document12AddDelayDataENSt3__110unique_ptrI13CJS_DelayDataNS0_14default_deleteIS2_EEEE(%class.CJS_Document* %19, %struct.CJS_DelayData* nonnull %7) #10
  ret void
}

; Function Attrs: nounwind ssp uwtable
define internal fastcc void @_ZN12_GLOBAL__N_122SetCurrentValueIndicesEP27CPDFSDK_FormFillEnvironmentRKN5fxcrt10WideStringEiRKNSt3__16vectorIjNS6_9allocatorIjEEEE(%class.CPDFSDK_FormFillEnvironment*, %"class.fxcrt::WideString"* dereferenceable(8), %"class.std::__1::vector.202"* nocapture readonly dereferenceable(24)) unnamed_addr #0 {
  %4 = alloca %"class.std::__1::vector.446", align 8
  %5 = bitcast %"class.std::__1::vector.446"* %4 to i8*
  call void @llvm.lifetime.start.p0i8(i64 24, i8* nonnull %5) #10
  %6 = getelementptr inbounds %"class.std::__1::vector.446", %"class.std::__1::vector.446"* %4, i64 0, i32 0, i32 1
  %7 = getelementptr inbounds %"class.std::__1::vector.446", %"class.std::__1::vector.446"* %4, i64 0, i32 0, i32 2, i32 0, i32 0
  call void @llvm.memset.p0i8.i64(i8* nonnull align 8 %5, i8 0, i64 24, i1 false) #10, !alias.scope !9
  %8 = tail call %class.CPDFSDK_InteractiveForm* @_ZN27CPDFSDK_FormFillEnvironment18GetInteractiveFormEv(%class.CPDFSDK_FormFillEnvironment* %0) #10, !noalias !9
  %9 = getelementptr inbounds %class.CPDFSDK_InteractiveForm, %class.CPDFSDK_InteractiveForm* %8, i64 0, i32 2, i32 0, i32 0, i32 0
  %10 = load %class.CPDF_InteractiveForm*, %class.CPDF_InteractiveForm** %9, align 8, !noalias !9
  %11 = tail call i64 @_ZNK20CPDF_InteractiveForm11CountFieldsERKN5fxcrt10WideStringE(%class.CPDF_InteractiveForm* %10, %"class.fxcrt::WideString"* dereferenceable(8) %1) #10, !noalias !9
  %12 = trunc i64 %11 to i32
  %13 = icmp sgt i32 %12, 0
  br i1 %13, label %14, label %102

14:                                               ; preds = %3
  %15 = bitcast %class.CPDF_FormField*** %6 to i64*
  %16 = bitcast %"class.std::__1::vector.446"* %4 to i64*
  %17 = bitcast %class.CPDF_FormField*** %7 to i64*
  br label %18

18:                                               ; preds = %14, %81
  %19 = phi %class.CPDF_FormField** [ %82, %81 ], [ null, %14 ]
  %20 = phi %class.CPDF_FormField** [ %83, %81 ], [ null, %14 ]
  %21 = phi %class.CPDF_FormField** [ %84, %81 ], [ null, %14 ]
  %22 = phi i64 [ %85, %81 ], [ 0, %14 ]
  %23 = phi %class.CPDF_FormField** [ %86, %81 ], [ null, %14 ]
  %24 = phi i32 [ %87, %81 ], [ 0, %14 ]
  %25 = tail call %class.CPDF_FormField* @_ZNK20CPDF_InteractiveForm8GetFieldEjRKN5fxcrt10WideStringE(%class.CPDF_InteractiveForm* %10, i32 %24, %"class.fxcrt::WideString"* dereferenceable(8) %1) #10
  %26 = ptrtoint %class.CPDF_FormField* %25 to i64
  %27 = icmp eq %class.CPDF_FormField* %25, null
  br i1 %27, label %81, label %28

28:                                               ; preds = %18
  %29 = load %class.CPDF_FormField**, %class.CPDF_FormField*** %7, align 8
  %30 = icmp eq %class.CPDF_FormField** %23, %29
  br i1 %30, label %35, label %31

31:                                               ; preds = %28
  %32 = bitcast %class.CPDF_FormField** %23 to i64*
  store i64 %26, i64* %32, align 8
  %33 = getelementptr inbounds %class.CPDF_FormField*, %class.CPDF_FormField** %23, i64 1
  %34 = ptrtoint %class.CPDF_FormField** %33 to i64
  store i64 %34, i64* %15, align 8
  br label %81

35:                                               ; preds = %28
  %36 = ptrtoint %class.CPDF_FormField** %29 to i64
  %37 = load i64, i64* %16, align 8
  %38 = sub i64 %36, %37
  %39 = ashr exact i64 %38, 3
  %40 = add nsw i64 %39, 1
  %41 = icmp ugt i64 %40, 2305843009213693951
  br i1 %41, label %42, label %44

42:                                               ; preds = %35
  %43 = bitcast %"class.std::__1::vector.446"* %4 to %"class.std::__1::__vector_base_common"*
  call void @_ZNKSt3__120__vector_base_commonILb1EE20__throw_length_errorEv(%"class.std::__1::__vector_base_common"* nonnull %43) #12
  unreachable

44:                                               ; preds = %35
  %45 = icmp ult i64 %39, 1152921504606846975
  br i1 %45, label %46, label %54

46:                                               ; preds = %44
  %47 = ashr exact i64 %38, 2
  %48 = icmp ult i64 %47, %40
  %49 = select i1 %48, i64 %40, i64 %47
  %50 = icmp eq i64 %49, 0
  br i1 %50, label %59, label %51

51:                                               ; preds = %46
  %52 = icmp ugt i64 %49, 2305843009213693951
  br i1 %52, label %53, label %54

53:                                               ; preds = %51
  tail call void @abort() #12
  unreachable

54:                                               ; preds = %51, %44
  %55 = phi i64 [ %49, %51 ], [ 2305843009213693951, %44 ]
  %56 = shl i64 %55, 3
  %57 = tail call i8* @_Znwm(i64 %56) #11
  %58 = bitcast i8* %57 to %class.CPDF_FormField**
  br label %59

59:                                               ; preds = %54, %46
  %60 = phi i64 [ %55, %54 ], [ 0, %46 ]
  %61 = phi %class.CPDF_FormField** [ %58, %54 ], [ null, %46 ]
  %62 = getelementptr inbounds %class.CPDF_FormField*, %class.CPDF_FormField** %61, i64 %39
  %63 = getelementptr inbounds %class.CPDF_FormField*, %class.CPDF_FormField** %61, i64 %60
  %64 = ptrtoint %class.CPDF_FormField** %63 to i64
  %65 = bitcast %class.CPDF_FormField** %62 to i64*
  store i64 %26, i64* %65, align 8
  %66 = getelementptr inbounds %class.CPDF_FormField*, %class.CPDF_FormField** %62, i64 1
  %67 = ptrtoint %class.CPDF_FormField** %66 to i64
  %68 = sub i64 %22, %37
  %69 = ashr exact i64 %68, 3
  %70 = sub nsw i64 0, %69
  %71 = getelementptr inbounds %class.CPDF_FormField*, %class.CPDF_FormField** %62, i64 %70
  %72 = ptrtoint %class.CPDF_FormField** %71 to i64
  %73 = icmp sgt i64 %68, 0
  br i1 %73, label %74, label %77

74:                                               ; preds = %59
  %75 = bitcast %class.CPDF_FormField** %71 to i8*
  %76 = inttoptr i64 %37 to i8*
  tail call void @llvm.memcpy.p0i8.p0i8.i64(i8* align 8 %75, i8* align 8 %76, i64 %68, i1 false) #10
  br label %77

77:                                               ; preds = %74, %59
  store i64 %72, i64* %16, align 8
  store i64 %67, i64* %15, align 8
  store i64 %64, i64* %17, align 8
  %78 = icmp eq i64 %37, 0
  br i1 %78, label %81, label %79

79:                                               ; preds = %77
  %80 = inttoptr i64 %37 to i8*
  tail call void @_ZdlPv(i8* %80) #11
  br label %81

81:                                               ; preds = %79, %77, %31, %18
  %82 = phi %class.CPDF_FormField** [ %71, %79 ], [ %71, %77 ], [ %19, %31 ], [ %19, %18 ]
  %83 = phi %class.CPDF_FormField** [ %66, %79 ], [ %66, %77 ], [ %33, %31 ], [ %20, %18 ]
  %84 = phi %class.CPDF_FormField** [ %71, %79 ], [ %71, %77 ], [ %21, %31 ], [ %21, %18 ]
  %85 = phi i64 [ %67, %79 ], [ %67, %77 ], [ %34, %31 ], [ %22, %18 ]
  %86 = phi %class.CPDF_FormField** [ %66, %79 ], [ %66, %77 ], [ %33, %31 ], [ %23, %18 ]
  %87 = add nuw nsw i32 %24, 1
  %88 = icmp eq i32 %87, %12
  br i1 %88, label %89, label %18

89:                                               ; preds = %81
  %90 = icmp eq %class.CPDF_FormField** %84, %83
  br i1 %90, label %96, label %91

91:                                               ; preds = %89
  %92 = getelementptr inbounds %"class.std::__1::vector.202", %"class.std::__1::vector.202"* %2, i64 0, i32 0, i32 1
  %93 = bitcast i32** %92 to i64*
  %94 = bitcast %"class.std::__1::vector.202"* %2 to i64*
  %95 = getelementptr inbounds %"class.std::__1::vector.202", %"class.std::__1::vector.202"* %2, i64 0, i32 0, i32 0
  br label %103

96:                                               ; preds = %149, %89
  %97 = icmp eq %class.CPDF_FormField** %82, null
  br i1 %97, label %102, label %98

98:                                               ; preds = %96
  %99 = ptrtoint %class.CPDF_FormField** %82 to i64
  %100 = bitcast %class.CPDF_FormField*** %6 to i64*
  store i64 %99, i64* %100, align 8
  %101 = bitcast %class.CPDF_FormField** %82 to i8*
  tail call void @_ZdlPv(i8* %101) #11
  br label %102

102:                                              ; preds = %3, %96, %98
  call void @llvm.lifetime.end.p0i8(i64 24, i8* nonnull %5) #10
  ret void

103:                                              ; preds = %91, %149
  %104 = phi %class.CPDF_FormField** [ %84, %91 ], [ %150, %149 ]
  %105 = load %class.CPDF_FormField*, %class.CPDF_FormField** %104, align 8
  %106 = tail call zeroext i8 @_ZNK14CPDF_FormField12GetFieldTypeEv(%class.CPDF_FormField* %105) #10
  %107 = icmp eq i8 %106, 4
  br i1 %107, label %111, label %108

108:                                              ; preds = %103
  %109 = tail call zeroext i8 @_ZNK14CPDF_FormField12GetFieldTypeEv(%class.CPDF_FormField* %105) #10
  %110 = icmp eq i8 %109, 5
  br i1 %110, label %111, label %149

111:                                              ; preds = %103, %108
  %112 = tail call i32 @_ZNK14CPDF_FormField13GetFieldFlagsEv(%class.CPDF_FormField* %105) #10
  %113 = tail call zeroext i1 @_ZN14CPDF_FormField14ClearSelectionE18NotificationOption(%class.CPDF_FormField* %105, i32 1) #10
  %114 = load i64, i64* %93, align 8
  %115 = load i64, i64* %94, align 8
  %116 = icmp eq i64 %114, %115
  br i1 %116, label %148, label %117

117:                                              ; preds = %111
  %118 = and i32 %112, 2097152
  %119 = icmp eq i32 %118, 0
  br label %120

120:                                              ; preds = %117, %141
  %121 = phi i64 [ %115, %117 ], [ %144, %141 ]
  %122 = phi i64 [ 0, %117 ], [ %142, %141 ]
  %123 = icmp ne i64 %122, 0
  %124 = and i1 %119, %123
  br i1 %124, label %148, label %125

125:                                              ; preds = %120
  %126 = inttoptr i64 %121 to i32*
  %127 = getelementptr inbounds i32, i32* %126, i64 %122
  %128 = load i32, i32* %127, align 4
  %129 = tail call i32 @_ZNK14CPDF_FormField12CountOptionsEv(%class.CPDF_FormField* %105) #10
  %130 = icmp ult i32 %128, %129
  br i1 %130, label %131, label %141

131:                                              ; preds = %125
  %132 = load i32*, i32** %95, align 8
  %133 = getelementptr inbounds i32, i32* %132, i64 %122
  %134 = load i32, i32* %133, align 4
  %135 = tail call zeroext i1 @_ZNK14CPDF_FormField14IsItemSelectedEi(%class.CPDF_FormField* %105, i32 %134) #10
  br i1 %135, label %141, label %136

136:                                              ; preds = %131
  %137 = load i32*, i32** %95, align 8
  %138 = getelementptr inbounds i32, i32* %137, i64 %122
  %139 = load i32, i32* %138, align 4
  %140 = tail call zeroext i1 @_ZN14CPDF_FormField16SetItemSelectionEi18NotificationOption(%class.CPDF_FormField* %105, i32 %139, i32 0) #10
  br label %141

141:                                              ; preds = %125, %131, %136
  %142 = add nuw i64 %122, 1
  %143 = load i64, i64* %93, align 8
  %144 = load i64, i64* %94, align 8
  %145 = sub i64 %143, %144
  %146 = ashr exact i64 %145, 2
  %147 = icmp ult i64 %142, %146
  br i1 %147, label %120, label %148

148:                                              ; preds = %141, %120, %111
  tail call fastcc void @_ZN12_GLOBAL__N_115UpdateFormFieldEP27CPDFSDK_FormFillEnvironmentP14CPDF_FormFieldbbb(%class.CPDFSDK_FormFillEnvironment* %0, %class.CPDF_FormField* %105, i1 zeroext true)
  br label %149

149:                                              ; preds = %108, %148
  %150 = getelementptr inbounds %class.CPDF_FormField*, %class.CPDF_FormField** %104, i64 1
  %151 = icmp eq %class.CPDF_FormField** %150, %83
  br i1 %151, label %96, label %103
}

; Function Attrs: nounwind ssp uwtable
define hidden void @_ZN9CJS_Field17get_default_styleEP11CJS_Runtime(%class.CJS_Result* noalias sret, %class.CJS_Field* nocapture readnone, %class.CJS_Runtime* nocapture readnone) local_unnamed_addr #0 align 2 {
  tail call void @_ZN10CJS_ResultC1E9JSMessage(%class.CJS_Result* %0, i32 9) #10
  ret void
}

; Function Attrs: nounwind ssp uwtable
define hidden void @_ZN9CJS_Field17set_default_styleEP11CJS_RuntimeN2v85LocalINS2_5ValueEEE(%class.CJS_Result* noalias sret, %class.CJS_Field* nocapture readnone, %class.CJS_Runtime* nocapture readnone, %"class.v8::Value"* nocapture readnone) local_unnamed_addr #0 align 2 {
  tail call void @_ZN10CJS_ResultC1E9JSMessage(%class.CJS_Result* %0, i32 9) #10
  ret void
}

; Function Attrs: nounwind ssp uwtable
define hidden void @_ZN9CJS_Field17get_default_valueEP11CJS_Runtime(%class.CJS_Result* noalias sret, %class.CJS_Field*, %class.CJS_Runtime*) local_unnamed_addr #0 align 2 {
  %4 = alloca %"class.std::__1::vector.446", align 8
  %5 = alloca %"class.fxcrt::StringViewTemplate", align 8
  %6 = alloca %"class.fxcrt::WideString", align 8
  %7 = bitcast %"class.std::__1::vector.446"* %4 to i8*
  call void @llvm.lifetime.start.p0i8(i64 24, i8* nonnull %7) #10
  %8 = getelementptr inbounds %"class.std::__1::vector.446", %"class.std::__1::vector.446"* %4, i64 0, i32 0, i32 0
  %9 = getelementptr inbounds %"class.std::__1::vector.446", %"class.std::__1::vector.446"* %4, i64 0, i32 0, i32 1
  call void @llvm.memset.p0i8.i64(i8* nonnull align 8 %7, i8 -86, i64 24, i1 false) #10
  call void @_ZNK9CJS_Field13GetFormFieldsEv(%"class.std::__1::vector.446"* nonnull sret %4, %class.CJS_Field* %1) #10
  %10 = load %class.CPDF_FormField**, %class.CPDF_FormField*** %8, align 8
  %11 = load %class.CPDF_FormField**, %class.CPDF_FormField*** %9, align 8
  %12 = icmp eq %class.CPDF_FormField** %10, %11
  br i1 %12, label %15, label %13

13:                                               ; preds = %3
  %14 = load %class.CPDF_FormField*, %class.CPDF_FormField** %10, align 8
  br label %15

15:                                               ; preds = %13, %3
  %16 = phi %class.CPDF_FormField* [ %14, %13 ], [ null, %3 ]
  %17 = icmp eq %class.CPDF_FormField** %10, null
  br i1 %17, label %22, label %18

18:                                               ; preds = %15
  %19 = ptrtoint %class.CPDF_FormField** %10 to i64
  %20 = bitcast %class.CPDF_FormField*** %9 to i64*
  store i64 %19, i64* %20, align 8
  %21 = bitcast %class.CPDF_FormField** %10 to i8*
  call void @_ZdlPv(i8* %21) #11
  br label %22

22:                                               ; preds = %15, %18
  call void @llvm.lifetime.end.p0i8(i64 24, i8* nonnull %7) #10
  %23 = icmp eq %class.CPDF_FormField* %16, null
  br i1 %23, label %24, label %25

24:                                               ; preds = %22
  call void @_ZN10CJS_ResultC1E9JSMessage(%class.CJS_Result* %0, i32 19) #10
  br label %50

25:                                               ; preds = %22
  %26 = call zeroext i8 @_ZNK14CPDF_FormField12GetFieldTypeEv(%class.CPDF_FormField* nonnull %16) #10
  %27 = icmp eq i8 %26, 1
  br i1 %27, label %31, label %28

28:                                               ; preds = %25
  %29 = call zeroext i8 @_ZNK14CPDF_FormField12GetFieldTypeEv(%class.CPDF_FormField* nonnull %16) #10
  %30 = icmp eq i8 %29, 7
  br i1 %30, label %31, label %32

31:                                               ; preds = %28, %25
  call void @_ZN10CJS_ResultC1E9JSMessage(%class.CJS_Result* %0, i32 20) #10
  br label %50

32:                                               ; preds = %28
  %33 = getelementptr inbounds %class.CJS_Runtime, %class.CJS_Runtime* %2, i64 0, i32 1, i32 0
  %34 = bitcast %"class.fxcrt::WideString"* %6 to i8*
  call void @llvm.lifetime.start.p0i8(i64 8, i8* nonnull %34) #10
  call void @_ZNK14CPDF_FormField15GetDefaultValueEv(%"class.fxcrt::WideString"* nonnull sret %6, %class.CPDF_FormField* nonnull %16) #10
  %35 = getelementptr inbounds %"class.fxcrt::WideString", %"class.fxcrt::WideString"* %6, i64 0, i32 0, i32 0, i32 0, i32 0, i32 0
  %36 = load %"class.fxcrt::StringDataTemplate.316"*, %"class.fxcrt::StringDataTemplate.316"** %35, align 8, !noalias !12
  %37 = icmp eq %"class.fxcrt::StringDataTemplate.316"* %36, null
  %38 = getelementptr inbounds %"class.fxcrt::StringDataTemplate.316", %"class.fxcrt::StringDataTemplate.316"* %36, i64 0, i32 3
  %39 = select i1 %37, [1 x i32]* @.str.117, [1 x i32]* %38
  %40 = getelementptr inbounds [1 x i32], [1 x i32]* %39, i64 0, i64 0
  br i1 %37, label %44, label %41

41:                                               ; preds = %32
  %42 = getelementptr inbounds %"class.fxcrt::StringDataTemplate.316", %"class.fxcrt::StringDataTemplate.316"* %36, i64 0, i32 1
  %43 = load i64, i64* %42, align 8, !noalias !12
  br label %44

44:                                               ; preds = %32, %41
  %45 = phi i64 [ %43, %41 ], [ 0, %32 ]
  %46 = getelementptr inbounds %"class.fxcrt::StringViewTemplate", %"class.fxcrt::StringViewTemplate"* %5, i64 0, i32 0, i32 0, i32 0
  store i32* %40, i32** %46, align 8, !alias.scope !12
  %47 = getelementptr inbounds %"class.fxcrt::StringViewTemplate", %"class.fxcrt::StringViewTemplate"* %5, i64 0, i32 0, i32 1
  store i64 %45, i64* %47, align 8, !alias.scope !12
  %48 = call %"class.v8::String"* @_ZN6CFX_V89NewStringEN5fxcrt18StringViewTemplateIwEE(%class.CFX_V8* %33, %"class.fxcrt::StringViewTemplate"* nonnull %5) #10
  %49 = bitcast %"class.v8::String"* %48 to %"class.v8::Value"*
  call void @_ZN10CJS_ResultC1EN2v85LocalINS0_5ValueEEE(%class.CJS_Result* %0, %"class.v8::Value"* %49) #10
  call void @_ZN5fxcrt10WideStringD1Ev(%"class.fxcrt::WideString"* nonnull %6) #10
  call void @llvm.lifetime.end.p0i8(i64 8, i8* nonnull %34) #10
  br label %50

50:                                               ; preds = %44, %31, %24
  ret void
}

declare %"class.v8::String"* @_ZN6CFX_V89NewStringEN5fxcrt18StringViewTemplateIwEE(%class.CFX_V8*, %"class.fxcrt::StringViewTemplate"*) local_unnamed_addr #2

declare void @_ZNK14CPDF_FormField15GetDefaultValueEv(%"class.fxcrt::WideString"* sret, %class.CPDF_FormField*) local_unnamed_addr #2

; Function Attrs: nounwind ssp uwtable
define hidden void @_ZN9CJS_Field17set_default_valueEP11CJS_RuntimeN2v85LocalINS2_5ValueEEE(%class.CJS_Result* noalias sret, %class.CJS_Field* nocapture readonly, %class.CJS_Runtime* nocapture readnone, %"class.v8::Value"* nocapture readnone) local_unnamed_addr #0 align 2 {
  %5 = getelementptr inbounds %class.CJS_Field, %class.CJS_Field* %1, i64 0, i32 5
  %6 = load i8, i8* %5, align 4, !range !5
  %7 = icmp eq i8 %6, 0
  br i1 %7, label %8, label %9

8:                                                ; preds = %4
  tail call void @_ZN10CJS_ResultC1E9JSMessage(%class.CJS_Result* %0, i32 15) #10
  br label %10

9:                                                ; preds = %4
  tail call void @_ZN10CJS_ResultC1Ev(%class.CJS_Result* %0) #10
  br label %10

10:                                               ; preds = %9, %8
  ret void
}

; Function Attrs: nounwind ssp uwtable
define hidden void @_ZN9CJS_Field17get_do_not_scrollEP11CJS_Runtime(%class.CJS_Result* noalias sret, %class.CJS_Field*, %class.CJS_Runtime*) local_unnamed_addr #0 align 2 {
  %4 = alloca %"class.std::__1::vector.446", align 8
  %5 = bitcast %"class.std::__1::vector.446"* %4 to i8*
  call void @llvm.lifetime.start.p0i8(i64 24, i8* nonnull %5) #10
  %6 = getelementptr inbounds %"class.std::__1::vector.446", %"class.std::__1::vector.446"* %4, i64 0, i32 0, i32 0
  %7 = getelementptr inbounds %"class.std::__1::vector.446", %"class.std::__1::vector.446"* %4, i64 0, i32 0, i32 1
  call void @llvm.memset.p0i8.i64(i8* nonnull align 8 %5, i8 -86, i64 24, i1 false) #10
  call void @_ZNK9CJS_Field13GetFormFieldsEv(%"class.std::__1::vector.446"* nonnull sret %4, %class.CJS_Field* %1) #10
  %8 = load %class.CPDF_FormField**, %class.CPDF_FormField*** %6, align 8
  %9 = load %class.CPDF_FormField**, %class.CPDF_FormField*** %7, align 8
  %10 = icmp eq %class.CPDF_FormField** %8, %9
  br i1 %10, label %13, label %11

11:                                               ; preds = %3
  %12 = load %class.CPDF_FormField*, %class.CPDF_FormField** %8, align 8
  br label %13

13:                                               ; preds = %11, %3
  %14 = phi %class.CPDF_FormField* [ %12, %11 ], [ null, %3 ]
  %15 = icmp eq %class.CPDF_FormField** %8, null
  br i1 %15, label %20, label %16

16:                                               ; preds = %13
  %17 = ptrtoint %class.CPDF_FormField** %8 to i64
  %18 = bitcast %class.CPDF_FormField*** %7 to i64*
  store i64 %17, i64* %18, align 8
  %19 = bitcast %class.CPDF_FormField** %8 to i8*
  call void @_ZdlPv(i8* %19) #11
  br label %20

20:                                               ; preds = %13, %16
  call void @llvm.lifetime.end.p0i8(i64 24, i8* nonnull %5) #10
  %21 = icmp eq %class.CPDF_FormField* %14, null
  br i1 %21, label %22, label %23

22:                                               ; preds = %20
  call void @_ZN10CJS_ResultC1E9JSMessage(%class.CJS_Result* %0, i32 19) #10
  br label %34

23:                                               ; preds = %20
  %24 = call zeroext i8 @_ZNK14CPDF_FormField12GetFieldTypeEv(%class.CPDF_FormField* nonnull %14) #10
  %25 = icmp eq i8 %24, 6
  br i1 %25, label %27, label %26

26:                                               ; preds = %23
  call void @_ZN10CJS_ResultC1E9JSMessage(%class.CJS_Result* %0, i32 20) #10
  br label %34

27:                                               ; preds = %23
  %28 = getelementptr inbounds %class.CJS_Runtime, %class.CJS_Runtime* %2, i64 0, i32 1, i32 0
  %29 = call i32 @_ZNK14CPDF_FormField13GetFieldFlagsEv(%class.CPDF_FormField* nonnull %14) #10
  %30 = and i32 %29, 8388608
  %31 = icmp ne i32 %30, 0
  %32 = call %"class.v8::Boolean"* @_ZN6CFX_V810NewBooleanEb(%class.CFX_V8* %28, i1 zeroext %31) #10
  %33 = bitcast %"class.v8::Boolean"* %32 to %"class.v8::Value"*
  call void @_ZN10CJS_ResultC1EN2v85LocalINS0_5ValueEEE(%class.CJS_Result* %0, %"class.v8::Value"* %33) #10
  br label %34

34:                                               ; preds = %27, %26, %22
  ret void
}

; Function Attrs: nounwind ssp uwtable
define hidden void @_ZN9CJS_Field17set_do_not_scrollEP11CJS_RuntimeN2v85LocalINS2_5ValueEEE(%class.CJS_Result* noalias sret, %class.CJS_Field* nocapture readonly, %class.CJS_Runtime* nocapture readnone, %"class.v8::Value"* nocapture readnone) local_unnamed_addr #0 align 2 {
  %5 = getelementptr inbounds %class.CJS_Field, %class.CJS_Field* %1, i64 0, i32 5
  %6 = load i8, i8* %5, align 4, !range !5
  %7 = icmp eq i8 %6, 0
  br i1 %7, label %8, label %9

8:                                                ; preds = %4
  tail call void @_ZN10CJS_ResultC1E9JSMessage(%class.CJS_Result* %0, i32 15) #10
  br label %10

9:                                                ; preds = %4
  tail call void @_ZN10CJS_ResultC1Ev(%class.CJS_Result* %0) #10
  br label %10

10:                                               ; preds = %9, %8
  ret void
}

; Function Attrs: nounwind ssp uwtable
define hidden void @_ZN9CJS_Field22get_do_not_spell_checkEP11CJS_Runtime(%class.CJS_Result* noalias sret, %class.CJS_Field*, %class.CJS_Runtime*) local_unnamed_addr #0 align 2 {
  %4 = alloca %"class.std::__1::vector.446", align 8
  %5 = bitcast %"class.std::__1::vector.446"* %4 to i8*
  call void @llvm.lifetime.start.p0i8(i64 24, i8* nonnull %5) #10
  %6 = getelementptr inbounds %"class.std::__1::vector.446", %"class.std::__1::vector.446"* %4, i64 0, i32 0, i32 0
  %7 = getelementptr inbounds %"class.std::__1::vector.446", %"class.std::__1::vector.446"* %4, i64 0, i32 0, i32 1
  call void @llvm.memset.p0i8.i64(i8* nonnull align 8 %5, i8 -86, i64 24, i1 false) #10
  call void @_ZNK9CJS_Field13GetFormFieldsEv(%"class.std::__1::vector.446"* nonnull sret %4, %class.CJS_Field* %1) #10
  %8 = load %class.CPDF_FormField**, %class.CPDF_FormField*** %6, align 8
  %9 = load %class.CPDF_FormField**, %class.CPDF_FormField*** %7, align 8
  %10 = icmp eq %class.CPDF_FormField** %8, %9
  br i1 %10, label %13, label %11

11:                                               ; preds = %3
  %12 = load %class.CPDF_FormField*, %class.CPDF_FormField** %8, align 8
  br label %13

13:                                               ; preds = %11, %3
  %14 = phi %class.CPDF_FormField* [ %12, %11 ], [ null, %3 ]
  %15 = icmp eq %class.CPDF_FormField** %8, null
  br i1 %15, label %20, label %16

16:                                               ; preds = %13
  %17 = ptrtoint %class.CPDF_FormField** %8 to i64
  %18 = bitcast %class.CPDF_FormField*** %7 to i64*
  store i64 %17, i64* %18, align 8
  %19 = bitcast %class.CPDF_FormField** %8 to i8*
  call void @_ZdlPv(i8* %19) #11
  br label %20

20:                                               ; preds = %13, %16
  call void @llvm.lifetime.end.p0i8(i64 24, i8* nonnull %5) #10
  %21 = icmp eq %class.CPDF_FormField* %14, null
  br i1 %21, label %22, label %23

22:                                               ; preds = %20
  call void @_ZN10CJS_ResultC1E9JSMessage(%class.CJS_Result* %0, i32 19) #10
  br label %37

23:                                               ; preds = %20
  %24 = call zeroext i8 @_ZNK14CPDF_FormField12GetFieldTypeEv(%class.CPDF_FormField* nonnull %14) #10
  %25 = icmp eq i8 %24, 4
  br i1 %25, label %30, label %26

26:                                               ; preds = %23
  %27 = call zeroext i8 @_ZNK14CPDF_FormField12GetFieldTypeEv(%class.CPDF_FormField* nonnull %14) #10
  %28 = icmp eq i8 %27, 6
  br i1 %28, label %30, label %29

29:                                               ; preds = %26
  call void @_ZN10CJS_ResultC1E9JSMessage(%class.CJS_Result* %0, i32 20) #10
  br label %37

30:                                               ; preds = %23, %26
  %31 = call i32 @_ZNK14CPDF_FormField13GetFieldFlagsEv(%class.CPDF_FormField* nonnull %14) #10
  %32 = getelementptr inbounds %class.CJS_Runtime, %class.CJS_Runtime* %2, i64 0, i32 1, i32 0
  %33 = and i32 %31, 4194304
  %34 = icmp ne i32 %33, 0
  %35 = call %"class.v8::Boolean"* @_ZN6CFX_V810NewBooleanEb(%class.CFX_V8* %32, i1 zeroext %34) #10
  %36 = bitcast %"class.v8::Boolean"* %35 to %"class.v8::Value"*
  call void @_ZN10CJS_ResultC1EN2v85LocalINS0_5ValueEEE(%class.CJS_Result* %0, %"class.v8::Value"* %36) #10
  br label %37

37:                                               ; preds = %30, %29, %22
  ret void
}

; Function Attrs: nounwind ssp uwtable
define hidden void @_ZN9CJS_Field22set_do_not_spell_checkEP11CJS_RuntimeN2v85LocalINS2_5ValueEEE(%class.CJS_Result* noalias sret, %class.CJS_Field* nocapture readonly, %class.CJS_Runtime* nocapture readnone, %"class.v8::Value"* nocapture readnone) local_unnamed_addr #0 align 2 {
  %5 = getelementptr inbounds %class.CJS_Field, %class.CJS_Field* %1, i64 0, i32 5
  %6 = load i8, i8* %5, align 4, !range !5
  %7 = icmp eq i8 %6, 0
  br i1 %7, label %8, label %9

8:                                                ; preds = %4
  tail call void @_ZN10CJS_ResultC1E9JSMessage(%class.CJS_Result* %0, i32 15) #10
  br label %10

9:                                                ; preds = %4
  tail call void @_ZN10CJS_ResultC1Ev(%class.CJS_Result* %0) #10
  br label %10

10:                                               ; preds = %9, %8
  ret void
}

; Function Attrs: nounwind ssp uwtable
define hidden void @_ZN9CJS_Field8SetDelayEb(%class.CJS_Field*, i1 zeroext) local_unnamed_addr #0 align 2 {
  %3 = zext i1 %1 to i8
  %4 = getelementptr inbounds %class.CJS_Field, %class.CJS_Field* %0, i64 0, i32 6
  store i8 %3, i8* %4, align 1
  br i1 %1, label %13, label %5

5:                                                ; preds = %2
  %6 = getelementptr inbounds %class.CJS_Field, %class.CJS_Field* %0, i64 0, i32 1, i32 1
  %7 = load %class.CJS_Document*, %class.CJS_Document** %6, align 8
  %8 = icmp eq %class.CJS_Document* %7, null
  br i1 %8, label %13, label %9

9:                                                ; preds = %5
  %10 = getelementptr inbounds %class.CJS_Field, %class.CJS_Field* %0, i64 0, i32 3
  %11 = getelementptr inbounds %class.CJS_Field, %class.CJS_Field* %0, i64 0, i32 4
  %12 = load i32, i32* %11, align 8
  tail call void @_ZN12CJS_Document12DoFieldDelayERKN5fxcrt10WideStringEi(%class.CJS_Document* nonnull %7, %"class.fxcrt::WideString"* dereferenceable(8) %10, i32 %12) #10
  br label %13

13:                                               ; preds = %5, %2, %9
  ret void
}

declare void @_ZN12CJS_Document12DoFieldDelayERKN5fxcrt10WideStringEi(%class.CJS_Document*, %"class.fxcrt::WideString"* dereferenceable(8), i32) local_unnamed_addr #2

; Function Attrs: nounwind ssp uwtable
define hidden void @_ZN9CJS_Field9get_delayEP11CJS_Runtime(%class.CJS_Result* noalias sret, %class.CJS_Field* nocapture readonly, %class.CJS_Runtime*) local_unnamed_addr #0 align 2 {
  %4 = getelementptr inbounds %class.CJS_Runtime, %class.CJS_Runtime* %2, i64 0, i32 1, i32 0
  %5 = getelementptr inbounds %class.CJS_Field, %class.CJS_Field* %1, i64 0, i32 6
  %6 = load i8, i8* %5, align 1, !range !5
  %7 = icmp ne i8 %6, 0
  %8 = tail call %"class.v8::Boolean"* @_ZN6CFX_V810NewBooleanEb(%class.CFX_V8* %4, i1 zeroext %7) #10
  %9 = bitcast %"class.v8::Boolean"* %8 to %"class.v8::Value"*
  tail call void @_ZN10CJS_ResultC1EN2v85LocalINS0_5ValueEEE(%class.CJS_Result* %0, %"class.v8::Value"* %9) #10
  ret void
}

; Function Attrs: nounwind ssp uwtable
define hidden void @_ZN9CJS_Field9set_delayEP11CJS_RuntimeN2v85LocalINS2_5ValueEEE(%class.CJS_Result* noalias sret, %class.CJS_Field*, %class.CJS_Runtime*, %"class.v8::Value"*) local_unnamed_addr #0 align 2 {
  %5 = getelementptr inbounds %class.CJS_Field, %class.CJS_Field* %1, i64 0, i32 5
  %6 = load i8, i8* %5, align 4, !range !5
  %7 = icmp eq i8 %6, 0
  br i1 %7, label %8, label %9

8:                                                ; preds = %4
  tail call void @_ZN10CJS_ResultC1E9JSMessage(%class.CJS_Result* %0, i32 15) #10
  br label %23

9:                                                ; preds = %4
  %10 = getelementptr inbounds %class.CJS_Runtime, %class.CJS_Runtime* %2, i64 0, i32 1, i32 0
  %11 = tail call zeroext i1 @_ZN6CFX_V89ToBooleanEN2v85LocalINS0_5ValueEEE(%class.CFX_V8* %10, %"class.v8::Value"* %3) #10
  %12 = zext i1 %11 to i8
  %13 = getelementptr inbounds %class.CJS_Field, %class.CJS_Field* %1, i64 0, i32 6
  store i8 %12, i8* %13, align 1
  br i1 %11, label %22, label %14

14:                                               ; preds = %9
  %15 = getelementptr inbounds %class.CJS_Field, %class.CJS_Field* %1, i64 0, i32 1, i32 1
  %16 = load %class.CJS_Document*, %class.CJS_Document** %15, align 8
  %17 = icmp eq %class.CJS_Document* %16, null
  br i1 %17, label %22, label %18

18:                                               ; preds = %14
  %19 = getelementptr inbounds %class.CJS_Field, %class.CJS_Field* %1, i64 0, i32 3
  %20 = getelementptr inbounds %class.CJS_Field, %class.CJS_Field* %1, i64 0, i32 4
  %21 = load i32, i32* %20, align 8
  tail call void @_ZN12CJS_Document12DoFieldDelayERKN5fxcrt10WideStringEi(%class.CJS_Document* nonnull %16, %"class.fxcrt::WideString"* dereferenceable(8) %19, i32 %21) #10
  br label %22

22:                                               ; preds = %9, %14, %18
  tail call void @_ZN10CJS_ResultC1Ev(%class.CJS_Result* %0) #10
  br label %23

23:                                               ; preds = %22, %8
  ret void
}

declare zeroext i1 @_ZN6CFX_V89ToBooleanEN2v85LocalINS0_5ValueEEE(%class.CFX_V8*, %"class.v8::Value"*) local_unnamed_addr #2

; Function Attrs: nounwind ssp uwtable
define hidden void @_ZN9CJS_Field11get_displayEP11CJS_Runtime(%class.CJS_Result* noalias sret, %class.CJS_Field*, %class.CJS_Runtime*) local_unnamed_addr #0 align 2 {
  %4 = alloca %"class.std::__1::vector.446", align 8
  %5 = bitcast %"class.std::__1::vector.446"* %4 to i8*
  call void @llvm.lifetime.start.p0i8(i64 24, i8* nonnull %5) #10
  %6 = getelementptr inbounds %"class.std::__1::vector.446", %"class.std::__1::vector.446"* %4, i64 0, i32 0, i32 0
  %7 = getelementptr inbounds %"class.std::__1::vector.446", %"class.std::__1::vector.446"* %4, i64 0, i32 0, i32 1
  call void @llvm.memset.p0i8.i64(i8* nonnull align 8 %5, i8 -86, i64 24, i1 false) #10
  call void @_ZNK9CJS_Field13GetFormFieldsEv(%"class.std::__1::vector.446"* nonnull sret %4, %class.CJS_Field* %1) #10
  %8 = load %class.CPDF_FormField**, %class.CPDF_FormField*** %6, align 8
  %9 = load %class.CPDF_FormField**, %class.CPDF_FormField*** %7, align 8
  %10 = icmp eq %class.CPDF_FormField** %8, %9
  br i1 %10, label %13, label %11

11:                                               ; preds = %3
  %12 = load %class.CPDF_FormField*, %class.CPDF_FormField** %8, align 8
  br label %13

13:                                               ; preds = %11, %3
  %14 = phi %class.CPDF_FormField* [ %12, %11 ], [ null, %3 ]
  %15 = icmp eq %class.CPDF_FormField** %8, null
  br i1 %15, label %20, label %16

16:                                               ; preds = %13
  %17 = ptrtoint %class.CPDF_FormField** %8 to i64
  %18 = bitcast %class.CPDF_FormField*** %7 to i64*
  store i64 %17, i64* %18, align 8
  %19 = bitcast %class.CPDF_FormField** %8 to i8*
  call void @_ZdlPv(i8* %19) #11
  br label %20

20:                                               ; preds = %13, %16
  call void @llvm.lifetime.end.p0i8(i64 24, i8* nonnull %5) #10
  %21 = icmp eq %class.CPDF_FormField* %14, null
  br i1 %21, label %22, label %23

22:                                               ; preds = %20
  call void @_ZN10CJS_ResultC1E9JSMessage(%class.CJS_Result* %0, i32 19) #10
  br label %72

23:                                               ; preds = %20
  %24 = getelementptr inbounds %class.CJS_Field, %class.CJS_Field* %1, i64 0, i32 2, i32 1
  %25 = load %class.CPDFSDK_FormFillEnvironment*, %class.CPDFSDK_FormFillEnvironment** %24, align 8
  %26 = call %class.CPDFSDK_InteractiveForm* @_ZN27CPDFSDK_FormFillEnvironment18GetInteractiveFormEv(%class.CPDFSDK_FormFillEnvironment* %25) #10
  %27 = call i32 @_ZNK14CPDF_FormField13CountControlsEv(%class.CPDF_FormField* nonnull %14) #10
  %28 = icmp eq i32 %27, 0
  br i1 %28, label %41, label %29

29:                                               ; preds = %23
  %30 = getelementptr inbounds %class.CJS_Field, %class.CJS_Field* %1, i64 0, i32 4
  %31 = load i32, i32* %30, align 8
  %32 = call i32 @_ZNK14CPDF_FormField13CountControlsEv(%class.CPDF_FormField* nonnull %14) #10
  %33 = icmp slt i32 %31, %32
  br i1 %33, label %34, label %41

34:                                               ; preds = %29
  %35 = load i32, i32* %30, align 8
  %36 = icmp slt i32 %35, 0
  br i1 %36, label %37, label %39

37:                                               ; preds = %34
  %38 = call %class.CPDF_FormControl* @_ZNK14CPDF_FormField10GetControlEi(%class.CPDF_FormField* nonnull %14, i32 0) #10
  br label %41

39:                                               ; preds = %34
  %40 = call %class.CPDF_FormControl* @_ZNK14CPDF_FormField10GetControlEi(%class.CPDF_FormField* nonnull %14, i32 %35) #10
  br label %41

41:                                               ; preds = %23, %29, %37, %39
  %42 = phi %class.CPDF_FormControl* [ %38, %37 ], [ %40, %39 ], [ null, %29 ], [ null, %23 ]
  %43 = call %class.CPDFSDK_Widget* @_ZNK23CPDFSDK_InteractiveForm9GetWidgetEP16CPDF_FormControl(%class.CPDFSDK_InteractiveForm* %26, %class.CPDF_FormControl* %42) #10
  %44 = icmp eq %class.CPDFSDK_Widget* %43, null
  br i1 %44, label %45, label %46

45:                                               ; preds = %41
  call void @_ZN10CJS_ResultC1E9JSMessage(%class.CJS_Result* %0, i32 19) #10
  br label %72

46:                                               ; preds = %41
  %47 = getelementptr inbounds %class.CPDFSDK_Widget, %class.CPDFSDK_Widget* %43, i64 0, i32 0
  %48 = call i32 @_ZNK15CPDFSDK_BAAnnot8GetFlagsEv(%class.CPDFSDK_BAAnnot* %47) #10
  %49 = and i32 %48, 3
  %50 = icmp eq i32 %49, 0
  br i1 %50, label %55, label %51

51:                                               ; preds = %46
  %52 = getelementptr inbounds %class.CJS_Runtime, %class.CJS_Runtime* %2, i64 0, i32 1, i32 0
  %53 = call %"class.v8::Number"* @_ZN6CFX_V89NewNumberEi(%class.CFX_V8* %52, i32 1) #10
  %54 = bitcast %"class.v8::Number"* %53 to %"class.v8::Value"*
  call void @_ZN10CJS_ResultC1EN2v85LocalINS0_5ValueEEE(%class.CJS_Result* %0, %"class.v8::Value"* %54) #10
  br label %72

55:                                               ; preds = %46
  %56 = and i32 %48, 4
  %57 = icmp eq i32 %56, 0
  br i1 %57, label %68, label %58

58:                                               ; preds = %55
  %59 = and i32 %48, 32
  %60 = icmp eq i32 %59, 0
  %61 = getelementptr inbounds %class.CJS_Runtime, %class.CJS_Runtime* %2, i64 0, i32 1, i32 0
  br i1 %60, label %65, label %62

62:                                               ; preds = %58
  %63 = call %"class.v8::Number"* @_ZN6CFX_V89NewNumberEi(%class.CFX_V8* %61, i32 3) #10
  %64 = bitcast %"class.v8::Number"* %63 to %"class.v8::Value"*
  call void @_ZN10CJS_ResultC1EN2v85LocalINS0_5ValueEEE(%class.CJS_Result* %0, %"class.v8::Value"* %64) #10
  br label %72

65:                                               ; preds = %58
  %66 = call %"class.v8::Number"* @_ZN6CFX_V89NewNumberEi(%class.CFX_V8* %61, i32 0) #10
  %67 = bitcast %"class.v8::Number"* %66 to %"class.v8::Value"*
  call void @_ZN10CJS_ResultC1EN2v85LocalINS0_5ValueEEE(%class.CJS_Result* %0, %"class.v8::Value"* %67) #10
  br label %72

68:                                               ; preds = %55
  %69 = getelementptr inbounds %class.CJS_Runtime, %class.CJS_Runtime* %2, i64 0, i32 1, i32 0
  %70 = call %"class.v8::Number"* @_ZN6CFX_V89NewNumberEi(%class.CFX_V8* %69, i32 2) #10
  %71 = bitcast %"class.v8::Number"* %70 to %"class.v8::Value"*
  call void @_ZN10CJS_ResultC1EN2v85LocalINS0_5ValueEEE(%class.CJS_Result* %0, %"class.v8::Value"* %71) #10
  br label %72

72:                                               ; preds = %45, %68, %65, %62, %51, %22
  ret void
}

declare i32 @_ZNK15CPDFSDK_BAAnnot8GetFlagsEv(%class.CPDFSDK_BAAnnot*) local_unnamed_addr #2

; Function Attrs: nounwind ssp uwtable
define hidden void @_ZN9CJS_Field11set_displayEP11CJS_RuntimeN2v85LocalINS2_5ValueEEE(%class.CJS_Result* noalias sret, %class.CJS_Field*, %class.CJS_Runtime*, %"class.v8::Value"*) local_unnamed_addr #0 align 2 {
  %5 = getelementptr inbounds %class.CJS_Field, %class.CJS_Field* %1, i64 0, i32 5
  %6 = load i8, i8* %5, align 4, !range !5
  %7 = icmp eq i8 %6, 0
  br i1 %7, label %8, label %9

8:                                                ; preds = %4
  tail call void @_ZN10CJS_ResultC1E9JSMessage(%class.CJS_Result* %0, i32 15) #10
  br label %34

9:                                                ; preds = %4
  %10 = getelementptr inbounds %class.CJS_Field, %class.CJS_Field* %1, i64 0, i32 6
  %11 = load i8, i8* %10, align 1, !range !5
  %12 = icmp eq i8 %11, 0
  br i1 %12, label %25, label %13

13:                                               ; preds = %9
  %14 = getelementptr inbounds %class.CJS_Runtime, %class.CJS_Runtime* %2, i64 0, i32 1, i32 0
  %15 = tail call i32 @_ZN6CFX_V87ToInt32EN2v85LocalINS0_5ValueEEE(%class.CFX_V8* %14, %"class.v8::Value"* %3) #10
  %16 = getelementptr inbounds %class.CJS_Field, %class.CJS_Field* %1, i64 0, i32 4
  %17 = getelementptr inbounds %class.CJS_Field, %class.CJS_Field* %1, i64 0, i32 3
  %18 = tail call i8* @_Znwm(i64 128) #11
  %19 = bitcast i8* %18 to %struct.CJS_DelayData*
  %20 = load i32, i32* %16, align 4
  tail call void @_ZN13CJS_DelayDataC1E10FIELD_PROPiRKN5fxcrt10WideStringE(%struct.CJS_DelayData* nonnull %19, i32 2, i32 %20, %"class.fxcrt::WideString"* dereferenceable(8) %17) #10
  %21 = getelementptr inbounds i8, i8* %18, i64 16
  %22 = bitcast i8* %21 to i32*
  store i32 %15, i32* %22, align 8
  %23 = getelementptr inbounds %class.CJS_Field, %class.CJS_Field* %1, i64 0, i32 1, i32 1
  %24 = load %class.CJS_Document*, %class.CJS_Document** %23, align 8
  tail call void @_ZN12CJS_Document12AddDelayDataENSt3__110unique_ptrI13CJS_DelayDataNS0_14default_deleteIS2_EEEE(%class.CJS_Document* %24, %struct.CJS_DelayData* nonnull %19) #10
  br label %33

25:                                               ; preds = %9
  %26 = getelementptr inbounds %class.CJS_Field, %class.CJS_Field* %1, i64 0, i32 2, i32 1
  %27 = load %class.CPDFSDK_FormFillEnvironment*, %class.CPDFSDK_FormFillEnvironment** %26, align 8
  %28 = getelementptr inbounds %class.CJS_Field, %class.CJS_Field* %1, i64 0, i32 3
  %29 = getelementptr inbounds %class.CJS_Field, %class.CJS_Field* %1, i64 0, i32 4
  %30 = load i32, i32* %29, align 8
  %31 = getelementptr inbounds %class.CJS_Runtime, %class.CJS_Runtime* %2, i64 0, i32 1, i32 0
  %32 = tail call i32 @_ZN6CFX_V87ToInt32EN2v85LocalINS0_5ValueEEE(%class.CFX_V8* %31, %"class.v8::Value"* %3) #10
  tail call fastcc void @_ZN12_GLOBAL__N_110SetDisplayEP27CPDFSDK_FormFillEnvironmentRKN5fxcrt10WideStringEii(%class.CPDFSDK_FormFillEnvironment* %27, %"class.fxcrt::WideString"* dereferenceable(8) %28, i32 %30, i32 %32)
  br label %33

33:                                               ; preds = %25, %13
  tail call void @_ZN10CJS_ResultC1Ev(%class.CJS_Result* %0) #10
  br label %34

34:                                               ; preds = %33, %8
  ret void
}

; Function Attrs: nounwind ssp uwtable
define hidden void @_ZN9CJS_Field12AddDelay_IntE10FIELD_PROPi(%class.CJS_Field*, i32, i32) local_unnamed_addr #0 align 2 {
  %4 = getelementptr inbounds %class.CJS_Field, %class.CJS_Field* %0, i64 0, i32 4
  %5 = getelementptr inbounds %class.CJS_Field, %class.CJS_Field* %0, i64 0, i32 3
  %6 = tail call i8* @_Znwm(i64 128) #11
  %7 = bitcast i8* %6 to %struct.CJS_DelayData*
  %8 = load i32, i32* %4, align 4
  tail call void @_ZN13CJS_DelayDataC1E10FIELD_PROPiRKN5fxcrt10WideStringE(%struct.CJS_DelayData* nonnull %7, i32 %1, i32 %8, %"class.fxcrt::WideString"* dereferenceable(8) %5) #10
  %9 = getelementptr inbounds i8, i8* %6, i64 16
  %10 = bitcast i8* %9 to i32*
  store i32 %2, i32* %10, align 8
  %11 = getelementptr inbounds %class.CJS_Field, %class.CJS_Field* %0, i64 0, i32 1, i32 1
  %12 = load %class.CJS_Document*, %class.CJS_Document** %11, align 8
  tail call void @_ZN12CJS_Document12AddDelayDataENSt3__110unique_ptrI13CJS_DelayDataNS0_14default_deleteIS2_EEEE(%class.CJS_Document* %12, %struct.CJS_DelayData* nonnull %7) #10
  ret void
}

; Function Attrs: nounwind ssp uwtable
define internal fastcc void @_ZN12_GLOBAL__N_110SetDisplayEP27CPDFSDK_FormFillEnvironmentRKN5fxcrt10WideStringEii(%class.CPDFSDK_FormFillEnvironment*, %"class.fxcrt::WideString"* dereferenceable(8), i32, i32) unnamed_addr #0 {
  %5 = alloca %"class.std::__1::vector.446", align 8
  %6 = tail call %class.CPDFSDK_InteractiveForm* @_ZN27CPDFSDK_FormFillEnvironment18GetInteractiveFormEv(%class.CPDFSDK_FormFillEnvironment* %0) #10
  %7 = bitcast %"class.std::__1::vector.446"* %5 to i8*
  call void @llvm.lifetime.start.p0i8(i64 24, i8* nonnull %7) #10
  %8 = getelementptr inbounds %"class.std::__1::vector.446", %"class.std::__1::vector.446"* %5, i64 0, i32 0, i32 1
  %9 = getelementptr inbounds %"class.std::__1::vector.446", %"class.std::__1::vector.446"* %5, i64 0, i32 0, i32 2, i32 0, i32 0
  call void @llvm.memset.p0i8.i64(i8* nonnull align 8 %7, i8 0, i64 24, i1 false) #10, !alias.scope !15
  %10 = tail call %class.CPDFSDK_InteractiveForm* @_ZN27CPDFSDK_FormFillEnvironment18GetInteractiveFormEv(%class.CPDFSDK_FormFillEnvironment* %0) #10, !noalias !15
  %11 = getelementptr inbounds %class.CPDFSDK_InteractiveForm, %class.CPDFSDK_InteractiveForm* %10, i64 0, i32 2, i32 0, i32 0, i32 0
  %12 = load %class.CPDF_InteractiveForm*, %class.CPDF_InteractiveForm** %11, align 8, !noalias !15
  %13 = tail call i64 @_ZNK20CPDF_InteractiveForm11CountFieldsERKN5fxcrt10WideStringE(%class.CPDF_InteractiveForm* %12, %"class.fxcrt::WideString"* dereferenceable(8) %1) #10, !noalias !15
  %14 = trunc i64 %13 to i32
  %15 = icmp sgt i32 %14, 0
  br i1 %15, label %16, label %170

16:                                               ; preds = %4
  %17 = bitcast %class.CPDF_FormField*** %8 to i64*
  %18 = bitcast %"class.std::__1::vector.446"* %5 to i64*
  %19 = bitcast %class.CPDF_FormField*** %9 to i64*
  br label %20

20:                                               ; preds = %16, %83
  %21 = phi %class.CPDF_FormField** [ %84, %83 ], [ null, %16 ]
  %22 = phi %class.CPDF_FormField** [ %85, %83 ], [ null, %16 ]
  %23 = phi %class.CPDF_FormField** [ %86, %83 ], [ null, %16 ]
  %24 = phi i64 [ %87, %83 ], [ 0, %16 ]
  %25 = phi %class.CPDF_FormField** [ %88, %83 ], [ null, %16 ]
  %26 = phi i32 [ %89, %83 ], [ 0, %16 ]
  %27 = tail call %class.CPDF_FormField* @_ZNK20CPDF_InteractiveForm8GetFieldEjRKN5fxcrt10WideStringE(%class.CPDF_InteractiveForm* %12, i32 %26, %"class.fxcrt::WideString"* dereferenceable(8) %1) #10
  %28 = ptrtoint %class.CPDF_FormField* %27 to i64
  %29 = icmp eq %class.CPDF_FormField* %27, null
  br i1 %29, label %83, label %30

30:                                               ; preds = %20
  %31 = load %class.CPDF_FormField**, %class.CPDF_FormField*** %9, align 8
  %32 = icmp eq %class.CPDF_FormField** %25, %31
  br i1 %32, label %37, label %33

33:                                               ; preds = %30
  %34 = bitcast %class.CPDF_FormField** %25 to i64*
  store i64 %28, i64* %34, align 8
  %35 = getelementptr inbounds %class.CPDF_FormField*, %class.CPDF_FormField** %25, i64 1
  %36 = ptrtoint %class.CPDF_FormField** %35 to i64
  store i64 %36, i64* %17, align 8
  br label %83

37:                                               ; preds = %30
  %38 = ptrtoint %class.CPDF_FormField** %31 to i64
  %39 = load i64, i64* %18, align 8
  %40 = sub i64 %38, %39
  %41 = ashr exact i64 %40, 3
  %42 = add nsw i64 %41, 1
  %43 = icmp ugt i64 %42, 2305843009213693951
  br i1 %43, label %44, label %46

44:                                               ; preds = %37
  %45 = bitcast %"class.std::__1::vector.446"* %5 to %"class.std::__1::__vector_base_common"*
  call void @_ZNKSt3__120__vector_base_commonILb1EE20__throw_length_errorEv(%"class.std::__1::__vector_base_common"* nonnull %45) #12
  unreachable

46:                                               ; preds = %37
  %47 = icmp ult i64 %41, 1152921504606846975
  br i1 %47, label %48, label %56

48:                                               ; preds = %46
  %49 = ashr exact i64 %40, 2
  %50 = icmp ult i64 %49, %42
  %51 = select i1 %50, i64 %42, i64 %49
  %52 = icmp eq i64 %51, 0
  br i1 %52, label %61, label %53

53:                                               ; preds = %48
  %54 = icmp ugt i64 %51, 2305843009213693951
  br i1 %54, label %55, label %56

55:                                               ; preds = %53
  tail call void @abort() #12
  unreachable

56:                                               ; preds = %53, %46
  %57 = phi i64 [ %51, %53 ], [ 2305843009213693951, %46 ]
  %58 = shl i64 %57, 3
  %59 = tail call i8* @_Znwm(i64 %58) #11
  %60 = bitcast i8* %59 to %class.CPDF_FormField**
  br label %61

61:                                               ; preds = %56, %48
  %62 = phi i64 [ %57, %56 ], [ 0, %48 ]
  %63 = phi %class.CPDF_FormField** [ %60, %56 ], [ null, %48 ]
  %64 = getelementptr inbounds %class.CPDF_FormField*, %class.CPDF_FormField** %63, i64 %41
  %65 = getelementptr inbounds %class.CPDF_FormField*, %class.CPDF_FormField** %63, i64 %62
  %66 = ptrtoint %class.CPDF_FormField** %65 to i64
  %67 = bitcast %class.CPDF_FormField** %64 to i64*
  store i64 %28, i64* %67, align 8
  %68 = getelementptr inbounds %class.CPDF_FormField*, %class.CPDF_FormField** %64, i64 1
  %69 = ptrtoint %class.CPDF_FormField** %68 to i64
  %70 = sub i64 %24, %39
  %71 = ashr exact i64 %70, 3
  %72 = sub nsw i64 0, %71
  %73 = getelementptr inbounds %class.CPDF_FormField*, %class.CPDF_FormField** %64, i64 %72
  %74 = ptrtoint %class.CPDF_FormField** %73 to i64
  %75 = icmp sgt i64 %70, 0
  br i1 %75, label %76, label %79

76:                                               ; preds = %61
  %77 = bitcast %class.CPDF_FormField** %73 to i8*
  %78 = inttoptr i64 %39 to i8*
  tail call void @llvm.memcpy.p0i8.p0i8.i64(i8* align 8 %77, i8* align 8 %78, i64 %70, i1 false) #10
  br label %79

79:                                               ; preds = %76, %61
  store i64 %74, i64* %18, align 8
  store i64 %69, i64* %17, align 8
  store i64 %66, i64* %19, align 8
  %80 = icmp eq i64 %39, 0
  br i1 %80, label %83, label %81

81:                                               ; preds = %79
  %82 = inttoptr i64 %39 to i8*
  tail call void @_ZdlPv(i8* %82) #11
  br label %83

83:                                               ; preds = %81, %79, %33, %20
  %84 = phi %class.CPDF_FormField** [ %73, %81 ], [ %73, %79 ], [ %21, %33 ], [ %21, %20 ]
  %85 = phi %class.CPDF_FormField** [ %68, %81 ], [ %68, %79 ], [ %35, %33 ], [ %22, %20 ]
  %86 = phi %class.CPDF_FormField** [ %73, %81 ], [ %73, %79 ], [ %23, %33 ], [ %23, %20 ]
  %87 = phi i64 [ %69, %81 ], [ %69, %79 ], [ %36, %33 ], [ %24, %20 ]
  %88 = phi %class.CPDF_FormField** [ %68, %81 ], [ %68, %79 ], [ %35, %33 ], [ %25, %20 ]
  %89 = add nuw nsw i32 %26, 1
  %90 = icmp eq i32 %89, %14
  br i1 %90, label %91, label %20

91:                                               ; preds = %83
  %92 = icmp eq %class.CPDF_FormField** %86, %85
  br i1 %92, label %164, label %93

93:                                               ; preds = %91
  %94 = icmp slt i32 %2, 0
  br label %95

95:                                               ; preds = %93, %161
  %96 = phi %class.CPDF_FormField** [ %86, %93 ], [ %162, %161 ]
  %97 = load %class.CPDF_FormField*, %class.CPDF_FormField** %96, align 8
  %98 = tail call i32 @_ZNK14CPDF_FormField13CountControlsEv(%class.CPDF_FormField* %97) #10
  br i1 %94, label %99, label %134

99:                                               ; preds = %95
  %100 = icmp sgt i32 %98, 0
  br i1 %100, label %104, label %161

101:                                              ; preds = %129
  %102 = and i8 %130, 1
  %103 = icmp eq i8 %102, 0
  br i1 %103, label %161, label %133

104:                                              ; preds = %99, %129
  %105 = phi i32 [ %131, %129 ], [ 0, %99 ]
  %106 = phi i8 [ %130, %129 ], [ 0, %99 ]
  %107 = tail call %class.CPDF_FormControl* @_ZNK14CPDF_FormField10GetControlEi(%class.CPDF_FormField* %97, i32 %105) #10
  %108 = tail call %class.CPDFSDK_Widget* @_ZNK23CPDFSDK_InteractiveForm9GetWidgetEP16CPDF_FormControl(%class.CPDFSDK_InteractiveForm* %6, %class.CPDF_FormControl* %107) #10
  %109 = icmp eq %class.CPDFSDK_Widget* %108, null
  br i1 %109, label %129, label %110

110:                                              ; preds = %104
  %111 = getelementptr inbounds %class.CPDFSDK_Widget, %class.CPDFSDK_Widget* %108, i64 0, i32 0
  %112 = tail call i32 @_ZNK15CPDFSDK_BAAnnot8GetFlagsEv(%class.CPDFSDK_BAAnnot* %111) #10
  switch i32 %3, label %124 [
    i32 0, label %113
    i32 1, label %116
    i32 2, label %119
    i32 3, label %121
  ]

113:                                              ; preds = %110
  %114 = and i32 %112, -40
  %115 = or i32 %114, 4
  br label %124

116:                                              ; preds = %110
  %117 = and i32 %112, -40
  %118 = or i32 %117, 6
  br label %124

119:                                              ; preds = %110
  %120 = and i32 %112, -40
  br label %124

121:                                              ; preds = %110
  %122 = and i32 %112, -39
  %123 = or i32 %122, 36
  br label %124

124:                                              ; preds = %121, %119, %116, %113, %110
  %125 = phi i32 [ %112, %110 ], [ %123, %121 ], [ %120, %119 ], [ %118, %116 ], [ %115, %113 ]
  %126 = tail call i32 @_ZNK15CPDFSDK_BAAnnot8GetFlagsEv(%class.CPDFSDK_BAAnnot* %111) #10
  %127 = icmp eq i32 %125, %126
  br i1 %127, label %129, label %128

128:                                              ; preds = %124
  tail call void @_ZN15CPDFSDK_BAAnnot8SetFlagsEj(%class.CPDFSDK_BAAnnot* %111, i32 %125) #10
  br label %129

129:                                              ; preds = %124, %104, %128
  %130 = phi i8 [ 1, %128 ], [ %106, %104 ], [ %106, %124 ]
  %131 = add nuw nsw i32 %105, 1
  %132 = icmp eq i32 %131, %98
  br i1 %132, label %101, label %104

133:                                              ; preds = %101
  tail call fastcc void @_ZN12_GLOBAL__N_115UpdateFormFieldEP27CPDFSDK_FormFillEnvironmentP14CPDF_FormFieldbbb(%class.CPDFSDK_FormFillEnvironment* %0, %class.CPDF_FormField* %97, i1 zeroext false)
  br label %161

134:                                              ; preds = %95
  %135 = icmp sgt i32 %98, %2
  br i1 %135, label %136, label %164

136:                                              ; preds = %134
  %137 = tail call %class.CPDF_FormControl* @_ZNK14CPDF_FormField10GetControlEi(%class.CPDF_FormField* %97, i32 %2) #10
  %138 = icmp eq %class.CPDF_FormControl* %137, null
  br i1 %138, label %164, label %139

139:                                              ; preds = %136
  %140 = tail call %class.CPDFSDK_Widget* @_ZNK23CPDFSDK_InteractiveForm9GetWidgetEP16CPDF_FormControl(%class.CPDFSDK_InteractiveForm* %6, %class.CPDF_FormControl* nonnull %137) #10
  %141 = icmp eq %class.CPDFSDK_Widget* %140, null
  br i1 %141, label %161, label %142

142:                                              ; preds = %139
  %143 = getelementptr inbounds %class.CPDFSDK_Widget, %class.CPDFSDK_Widget* %140, i64 0, i32 0
  %144 = tail call i32 @_ZNK15CPDFSDK_BAAnnot8GetFlagsEv(%class.CPDFSDK_BAAnnot* %143) #10
  switch i32 %3, label %156 [
    i32 0, label %145
    i32 1, label %148
    i32 2, label %151
    i32 3, label %153
  ]

145:                                              ; preds = %142
  %146 = and i32 %144, -40
  %147 = or i32 %146, 4
  br label %156

148:                                              ; preds = %142
  %149 = and i32 %144, -40
  %150 = or i32 %149, 6
  br label %156

151:                                              ; preds = %142
  %152 = and i32 %144, -40
  br label %156

153:                                              ; preds = %142
  %154 = and i32 %144, -39
  %155 = or i32 %154, 36
  br label %156

156:                                              ; preds = %153, %151, %148, %145, %142
  %157 = phi i32 [ %144, %142 ], [ %155, %153 ], [ %152, %151 ], [ %150, %148 ], [ %147, %145 ]
  %158 = tail call i32 @_ZNK15CPDFSDK_BAAnnot8GetFlagsEv(%class.CPDFSDK_BAAnnot* %143) #10
  %159 = icmp eq i32 %157, %158
  br i1 %159, label %161, label %160

160:                                              ; preds = %156
  tail call void @_ZN15CPDFSDK_BAAnnot8SetFlagsEj(%class.CPDFSDK_BAAnnot* %143, i32 %157) #10
  tail call fastcc void @_ZN12_GLOBAL__N_117UpdateFormControlEP27CPDFSDK_FormFillEnvironmentP16CPDF_FormControlbbb(%class.CPDFSDK_FormFillEnvironment* %0, %class.CPDF_FormControl* nonnull %137, i1 zeroext false)
  br label %161

161:                                              ; preds = %99, %156, %139, %160, %133, %101
  %162 = getelementptr inbounds %class.CPDF_FormField*, %class.CPDF_FormField** %96, i64 1
  %163 = icmp eq %class.CPDF_FormField** %162, %85
  br i1 %163, label %164, label %95

164:                                              ; preds = %136, %134, %161, %91
  %165 = icmp eq %class.CPDF_FormField** %84, null
  br i1 %165, label %170, label %166

166:                                              ; preds = %164
  %167 = ptrtoint %class.CPDF_FormField** %84 to i64
  %168 = bitcast %class.CPDF_FormField*** %8 to i64*
  store i64 %167, i64* %168, align 8
  %169 = bitcast %class.CPDF_FormField** %84 to i8*
  tail call void @_ZdlPv(i8* %169) #11
  br label %170

170:                                              ; preds = %4, %164, %166
  call void @llvm.lifetime.end.p0i8(i64 24, i8* nonnull %7) #10
  ret void
}

; Function Attrs: nounwind ssp uwtable
define hidden void @_ZN9CJS_Field7get_docEP11CJS_Runtime(%class.CJS_Result* noalias sret, %class.CJS_Field* nocapture readonly, %class.CJS_Runtime* nocapture readnone) local_unnamed_addr #0 align 2 {
  %4 = getelementptr inbounds %class.CJS_Field, %class.CJS_Field* %1, i64 0, i32 1, i32 1
  %5 = load %class.CJS_Document*, %class.CJS_Document** %4, align 8
  %6 = getelementptr inbounds %class.CJS_Document, %class.CJS_Document* %5, i64 0, i32 0, i32 2, i32 0, i32 0
  %7 = load %"class.v8::Object"*, %"class.v8::Object"** %6, align 8
  %8 = icmp eq %"class.v8::Object"* %7, null
  br i1 %8, label %17, label %9

9:                                                ; preds = %3
  %10 = getelementptr inbounds %class.CJS_Document, %class.CJS_Document* %5, i64 0, i32 0, i32 1, i32 0
  %11 = bitcast %"class.v8::Isolate"** %10 to %"class.v8::internal::Isolate"**
  %12 = load %"class.v8::internal::Isolate"*, %"class.v8::internal::Isolate"** %11, align 8
  %13 = bitcast %"class.v8::Object"* %7 to i64*
  %14 = load i64, i64* %13, align 8
  %15 = tail call i64* @_ZN2v811HandleScope12CreateHandleEPNS_8internal7IsolateEm(%"class.v8::internal::Isolate"* %12, i64 %14) #10
  %16 = bitcast i64* %15 to %"class.v8::Value"*
  br label %17

17:                                               ; preds = %3, %9
  %18 = phi %"class.v8::Value"* [ %16, %9 ], [ null, %3 ]
  tail call void @_ZN10CJS_ResultC1EN2v85LocalINS0_5ValueEEE(%class.CJS_Result* %0, %"class.v8::Value"* %18) #10
  ret void
}

; Function Attrs: nounwind ssp uwtable
define hidden void @_ZN9CJS_Field7set_docEP11CJS_RuntimeN2v85LocalINS2_5ValueEEE(%class.CJS_Result* noalias sret, %class.CJS_Field* nocapture readnone, %class.CJS_Runtime* nocapture readnone, %"class.v8::Value"* nocapture readnone) local_unnamed_addr #0 align 2 {
  tail call void @_ZN10CJS_ResultC1E9JSMessage(%class.CJS_Result* %0, i32 9) #10
  ret void
}

; Function Attrs: nounwind ssp uwtable
define hidden void @_ZN9CJS_Field12get_editableEP11CJS_Runtime(%class.CJS_Result* noalias sret, %class.CJS_Field*, %class.CJS_Runtime*) local_unnamed_addr #0 align 2 {
  %4 = alloca %"class.std::__1::vector.446", align 8
  %5 = bitcast %"class.std::__1::vector.446"* %4 to i8*
  call void @llvm.lifetime.start.p0i8(i64 24, i8* nonnull %5) #10
  %6 = getelementptr inbounds %"class.std::__1::vector.446", %"class.std::__1::vector.446"* %4, i64 0, i32 0, i32 0
  %7 = getelementptr inbounds %"class.std::__1::vector.446", %"class.std::__1::vector.446"* %4, i64 0, i32 0, i32 1
  call void @llvm.memset.p0i8.i64(i8* nonnull align 8 %5, i8 -86, i64 24, i1 false) #10
  call void @_ZNK9CJS_Field13GetFormFieldsEv(%"class.std::__1::vector.446"* nonnull sret %4, %class.CJS_Field* %1) #10
  %8 = load %class.CPDF_FormField**, %class.CPDF_FormField*** %6, align 8
  %9 = load %class.CPDF_FormField**, %class.CPDF_FormField*** %7, align 8
  %10 = icmp eq %class.CPDF_FormField** %8, %9
  br i1 %10, label %13, label %11

11:                                               ; preds = %3
  %12 = load %class.CPDF_FormField*, %class.CPDF_FormField** %8, align 8
  br label %13

13:                                               ; preds = %11, %3
  %14 = phi %class.CPDF_FormField* [ %12, %11 ], [ null, %3 ]
  %15 = icmp eq %class.CPDF_FormField** %8, null
  br i1 %15, label %20, label %16

16:                                               ; preds = %13
  %17 = ptrtoint %class.CPDF_FormField** %8 to i64
  %18 = bitcast %class.CPDF_FormField*** %7 to i64*
  store i64 %17, i64* %18, align 8
  %19 = bitcast %class.CPDF_FormField** %8 to i8*
  call void @_ZdlPv(i8* %19) #11
  br label %20

20:                                               ; preds = %13, %16
  call void @llvm.lifetime.end.p0i8(i64 24, i8* nonnull %5) #10
  %21 = icmp eq %class.CPDF_FormField* %14, null
  br i1 %21, label %22, label %23

22:                                               ; preds = %20
  call void @_ZN10CJS_ResultC1E9JSMessage(%class.CJS_Result* %0, i32 19) #10
  br label %34

23:                                               ; preds = %20
  %24 = call zeroext i8 @_ZNK14CPDF_FormField12GetFieldTypeEv(%class.CPDF_FormField* nonnull %14) #10
  %25 = icmp eq i8 %24, 4
  br i1 %25, label %27, label %26

26:                                               ; preds = %23
  call void @_ZN10CJS_ResultC1E9JSMessage(%class.CJS_Result* %0, i32 20) #10
  br label %34

27:                                               ; preds = %23
  %28 = getelementptr inbounds %class.CJS_Runtime, %class.CJS_Runtime* %2, i64 0, i32 1, i32 0
  %29 = call i32 @_ZNK14CPDF_FormField13GetFieldFlagsEv(%class.CPDF_FormField* nonnull %14) #10
  %30 = and i32 %29, 262144
  %31 = icmp ne i32 %30, 0
  %32 = call %"class.v8::Boolean"* @_ZN6CFX_V810NewBooleanEb(%class.CFX_V8* %28, i1 zeroext %31) #10
  %33 = bitcast %"class.v8::Boolean"* %32 to %"class.v8::Value"*
  call void @_ZN10CJS_ResultC1EN2v85LocalINS0_5ValueEEE(%class.CJS_Result* %0, %"class.v8::Value"* %33) #10
  br label %34

34:                                               ; preds = %27, %26, %22
  ret void
}

; Function Attrs: nounwind ssp uwtable
define hidden void @_ZN9CJS_Field12set_editableEP11CJS_RuntimeN2v85LocalINS2_5ValueEEE(%class.CJS_Result* noalias sret, %class.CJS_Field* nocapture readonly, %class.CJS_Runtime* nocapture readnone, %"class.v8::Value"* nocapture readnone) local_unnamed_addr #0 align 2 {
  %5 = getelementptr inbounds %class.CJS_Field, %class.CJS_Field* %1, i64 0, i32 5
  %6 = load i8, i8* %5, align 4, !range !5
  %7 = icmp eq i8 %6, 0
  br i1 %7, label %8, label %9

8:                                                ; preds = %4
  tail call void @_ZN10CJS_ResultC1E9JSMessage(%class.CJS_Result* %0, i32 15) #10
  br label %10

9:                                                ; preds = %4
  tail call void @_ZN10CJS_ResultC1Ev(%class.CJS_Result* %0) #10
  br label %10

10:                                               ; preds = %9, %8
  ret void
}

; Function Attrs: nounwind ssp uwtable
define hidden void @_ZN9CJS_Field17get_export_valuesEP11CJS_Runtime(%class.CJS_Result* noalias sret, %class.CJS_Field*, %class.CJS_Runtime*) local_unnamed_addr #0 align 2 {
  %4 = alloca %"class.std::__1::vector.446", align 8
  %5 = alloca %"class.fxcrt::StringViewTemplate", align 8
  %6 = alloca %"class.fxcrt::WideString", align 8
  %7 = alloca %"class.fxcrt::StringViewTemplate", align 8
  %8 = alloca %"class.fxcrt::WideString", align 8
  %9 = bitcast %"class.std::__1::vector.446"* %4 to i8*
  call void @llvm.lifetime.start.p0i8(i64 24, i8* nonnull %9) #10
  %10 = getelementptr inbounds %"class.std::__1::vector.446", %"class.std::__1::vector.446"* %4, i64 0, i32 0, i32 0
  %11 = getelementptr inbounds %"class.std::__1::vector.446", %"class.std::__1::vector.446"* %4, i64 0, i32 0, i32 1
  call void @llvm.memset.p0i8.i64(i8* nonnull align 8 %9, i8 -86, i64 24, i1 false) #10
  call void @_ZNK9CJS_Field13GetFormFieldsEv(%"class.std::__1::vector.446"* nonnull sret %4, %class.CJS_Field* %1) #10
  %12 = load %class.CPDF_FormField**, %class.CPDF_FormField*** %10, align 8
  %13 = load %class.CPDF_FormField**, %class.CPDF_FormField*** %11, align 8
  %14 = icmp eq %class.CPDF_FormField** %12, %13
  br i1 %14, label %17, label %15

15:                                               ; preds = %3
  %16 = load %class.CPDF_FormField*, %class.CPDF_FormField** %12, align 8
  br label %17

17:                                               ; preds = %15, %3
  %18 = phi %class.CPDF_FormField* [ %16, %15 ], [ null, %3 ]
  %19 = icmp eq %class.CPDF_FormField** %12, null
  br i1 %19, label %24, label %20

20:                                               ; preds = %17
  %21 = ptrtoint %class.CPDF_FormField** %12 to i64
  %22 = bitcast %class.CPDF_FormField*** %11 to i64*
  store i64 %21, i64* %22, align 8
  %23 = bitcast %class.CPDF_FormField** %12 to i8*
  call void @_ZdlPv(i8* %23) #11
  br label %24

24:                                               ; preds = %17, %20
  call void @llvm.lifetime.end.p0i8(i64 24, i8* nonnull %9) #10
  %25 = icmp eq %class.CPDF_FormField* %18, null
  br i1 %25, label %26, label %27

26:                                               ; preds = %24
  call void @_ZN10CJS_ResultC1E9JSMessage(%class.CJS_Result* %0, i32 19) #10
  br label %92

27:                                               ; preds = %24
  %28 = call zeroext i8 @_ZNK14CPDF_FormField12GetFieldTypeEv(%class.CPDF_FormField* nonnull %18) #10
  %29 = icmp eq i8 %28, 2
  br i1 %29, label %34, label %30

30:                                               ; preds = %27
  %31 = call zeroext i8 @_ZNK14CPDF_FormField12GetFieldTypeEv(%class.CPDF_FormField* nonnull %18) #10
  %32 = icmp eq i8 %31, 3
  br i1 %32, label %34, label %33

33:                                               ; preds = %30
  call void @_ZN10CJS_ResultC1E9JSMessage(%class.CJS_Result* %0, i32 20) #10
  br label %92

34:                                               ; preds = %27, %30
  %35 = getelementptr inbounds %class.CJS_Runtime, %class.CJS_Runtime* %2, i64 0, i32 1, i32 0
  %36 = call %"class.v8::Array"* @_ZN6CFX_V88NewArrayEv(%class.CFX_V8* %35) #10
  %37 = getelementptr inbounds %class.CJS_Field, %class.CJS_Field* %1, i64 0, i32 4
  %38 = load i32, i32* %37, align 8
  %39 = icmp slt i32 %38, 0
  %40 = call i32 @_ZNK14CPDF_FormField13CountControlsEv(%class.CPDF_FormField* nonnull %18) #10
  br i1 %39, label %41, label %65

41:                                               ; preds = %34
  %42 = icmp sgt i32 %40, 0
  br i1 %42, label %43, label %90

43:                                               ; preds = %41
  %44 = bitcast %"class.fxcrt::WideString"* %6 to i8*
  %45 = getelementptr inbounds %"class.fxcrt::WideString", %"class.fxcrt::WideString"* %6, i64 0, i32 0, i32 0, i32 0, i32 0, i32 0
  %46 = getelementptr inbounds %"class.fxcrt::StringViewTemplate", %"class.fxcrt::StringViewTemplate"* %5, i64 0, i32 0, i32 0, i32 0
  %47 = getelementptr inbounds %"class.fxcrt::StringViewTemplate", %"class.fxcrt::StringViewTemplate"* %5, i64 0, i32 0, i32 1
  br label %48

48:                                               ; preds = %59, %43
  %49 = phi i32 [ 0, %43 ], [ %63, %59 ]
  %50 = call %class.CPDF_FormControl* @_ZNK14CPDF_FormField10GetControlEi(%class.CPDF_FormField* nonnull %18, i32 %49) #10
  call void @llvm.lifetime.start.p0i8(i64 8, i8* nonnull %44) #10
  call void @_ZNK16CPDF_FormControl14GetExportValueEv(%"class.fxcrt::WideString"* nonnull sret %6, %class.CPDF_FormControl* %50) #10
  %51 = load %"class.fxcrt::StringDataTemplate.316"*, %"class.fxcrt::StringDataTemplate.316"** %45, align 8, !noalias !18
  %52 = icmp eq %"class.fxcrt::StringDataTemplate.316"* %51, null
  %53 = getelementptr inbounds %"class.fxcrt::StringDataTemplate.316", %"class.fxcrt::StringDataTemplate.316"* %51, i64 0, i32 3
  %54 = select i1 %52, [1 x i32]* @.str.117, [1 x i32]* %53
  %55 = getelementptr inbounds [1 x i32], [1 x i32]* %54, i64 0, i64 0
  br i1 %52, label %59, label %56

56:                                               ; preds = %48
  %57 = getelementptr inbounds %"class.fxcrt::StringDataTemplate.316", %"class.fxcrt::StringDataTemplate.316"* %51, i64 0, i32 1
  %58 = load i64, i64* %57, align 8, !noalias !18
  br label %59

59:                                               ; preds = %48, %56
  %60 = phi i64 [ %58, %56 ], [ 0, %48 ]
  store i32* %55, i32** %46, align 8, !alias.scope !18
  store i64 %60, i64* %47, align 8, !alias.scope !18
  %61 = call %"class.v8::String"* @_ZN6CFX_V89NewStringEN5fxcrt18StringViewTemplateIwEE(%class.CFX_V8* %35, %"class.fxcrt::StringViewTemplate"* nonnull %5) #10
  %62 = bitcast %"class.v8::String"* %61 to %"class.v8::Value"*
  call void @_ZN6CFX_V815PutArrayElementEN2v85LocalINS0_5ArrayEEEjNS1_INS0_5ValueEEE(%class.CFX_V8* %35, %"class.v8::Array"* %36, i32 %49, %"class.v8::Value"* %62) #10
  call void @_ZN5fxcrt10WideStringD1Ev(%"class.fxcrt::WideString"* nonnull %6) #10
  call void @llvm.lifetime.end.p0i8(i64 8, i8* nonnull %44) #10
  %63 = add nuw nsw i32 %49, 1
  %64 = icmp eq i32 %63, %40
  br i1 %64, label %90, label %48

65:                                               ; preds = %34
  %66 = icmp slt i32 %38, %40
  br i1 %66, label %68, label %67

67:                                               ; preds = %65
  call void @_ZN10CJS_ResultC1E9JSMessage(%class.CJS_Result* %0, i32 17) #10
  br label %92

68:                                               ; preds = %65
  %69 = load i32, i32* %37, align 8
  %70 = call %class.CPDF_FormControl* @_ZNK14CPDF_FormField10GetControlEi(%class.CPDF_FormField* nonnull %18, i32 %69) #10
  %71 = icmp eq %class.CPDF_FormControl* %70, null
  br i1 %71, label %72, label %73

72:                                               ; preds = %68
  call void @_ZN10CJS_ResultC1E9JSMessage(%class.CJS_Result* %0, i32 19) #10
  br label %92

73:                                               ; preds = %68
  %74 = bitcast %"class.fxcrt::WideString"* %8 to i8*
  call void @llvm.lifetime.start.p0i8(i64 8, i8* nonnull %74) #10
  call void @_ZNK16CPDF_FormControl14GetExportValueEv(%"class.fxcrt::WideString"* nonnull sret %8, %class.CPDF_FormControl* nonnull %70) #10
  %75 = getelementptr inbounds %"class.fxcrt::WideString", %"class.fxcrt::WideString"* %8, i64 0, i32 0, i32 0, i32 0, i32 0, i32 0
  %76 = load %"class.fxcrt::StringDataTemplate.316"*, %"class.fxcrt::StringDataTemplate.316"** %75, align 8, !noalias !21
  %77 = icmp eq %"class.fxcrt::StringDataTemplate.316"* %76, null
  %78 = getelementptr inbounds %"class.fxcrt::StringDataTemplate.316", %"class.fxcrt::StringDataTemplate.316"* %76, i64 0, i32 3
  %79 = select i1 %77, [1 x i32]* @.str.117, [1 x i32]* %78
  %80 = getelementptr inbounds [1 x i32], [1 x i32]* %79, i64 0, i64 0
  br i1 %77, label %84, label %81

81:                                               ; preds = %73
  %82 = getelementptr inbounds %"class.fxcrt::StringDataTemplate.316", %"class.fxcrt::StringDataTemplate.316"* %76, i64 0, i32 1
  %83 = load i64, i64* %82, align 8, !noalias !21
  br label %84

84:                                               ; preds = %73, %81
  %85 = phi i64 [ %83, %81 ], [ 0, %73 ]
  %86 = getelementptr inbounds %"class.fxcrt::StringViewTemplate", %"class.fxcrt::StringViewTemplate"* %7, i64 0, i32 0, i32 0, i32 0
  store i32* %80, i32** %86, align 8, !alias.scope !21
  %87 = getelementptr inbounds %"class.fxcrt::StringViewTemplate", %"class.fxcrt::StringViewTemplate"* %7, i64 0, i32 0, i32 1
  store i64 %85, i64* %87, align 8, !alias.scope !21
  %88 = call %"class.v8::String"* @_ZN6CFX_V89NewStringEN5fxcrt18StringViewTemplateIwEE(%class.CFX_V8* %35, %"class.fxcrt::StringViewTemplate"* nonnull %7) #10
  %89 = bitcast %"class.v8::String"* %88 to %"class.v8::Value"*
  call void @_ZN6CFX_V815PutArrayElementEN2v85LocalINS0_5ArrayEEEjNS1_INS0_5ValueEEE(%class.CFX_V8* %35, %"class.v8::Array"* %36, i32 0, %"class.v8::Value"* %89) #10
  call void @_ZN5fxcrt10WideStringD1Ev(%"class.fxcrt::WideString"* nonnull %8) #10
  call void @llvm.lifetime.end.p0i8(i64 8, i8* nonnull %74) #10
  br label %90

90:                                               ; preds = %59, %41, %84
  %91 = bitcast %"class.v8::Array"* %36 to %"class.v8::Value"*
  call void @_ZN10CJS_ResultC1EN2v85LocalINS0_5ValueEEE(%class.CJS_Result* %0, %"class.v8::Value"* %91) #10
  br label %92

92:                                               ; preds = %67, %90, %72, %33, %26
  ret void
}

declare void @_ZNK16CPDF_FormControl14GetExportValueEv(%"class.fxcrt::WideString"* sret, %class.CPDF_FormControl*) local_unnamed_addr #2

; Function Attrs: nounwind ssp uwtable
define hidden void @_ZN9CJS_Field17set_export_valuesEP11CJS_RuntimeN2v85LocalINS2_5ValueEEE(%class.CJS_Result* noalias sret, %class.CJS_Field*, %class.CJS_Runtime* nocapture readnone, %"class.v8::Value"*) local_unnamed_addr #0 align 2 {
  %5 = alloca %"class.std::__1::vector.446", align 8
  %6 = bitcast %"class.std::__1::vector.446"* %5 to i8*
  call void @llvm.lifetime.start.p0i8(i64 24, i8* nonnull %6) #10
  %7 = getelementptr inbounds %"class.std::__1::vector.446", %"class.std::__1::vector.446"* %5, i64 0, i32 0, i32 0
  %8 = getelementptr inbounds %"class.std::__1::vector.446", %"class.std::__1::vector.446"* %5, i64 0, i32 0, i32 1
  call void @llvm.memset.p0i8.i64(i8* nonnull align 8 %6, i8 -86, i64 24, i1 false) #10
  call void @_ZNK9CJS_Field13GetFormFieldsEv(%"class.std::__1::vector.446"* nonnull sret %5, %class.CJS_Field* %1) #10
  %9 = load %class.CPDF_FormField**, %class.CPDF_FormField*** %7, align 8
  %10 = load %class.CPDF_FormField**, %class.CPDF_FormField*** %8, align 8
  %11 = icmp eq %class.CPDF_FormField** %9, %10
  br i1 %11, label %14, label %12

12:                                               ; preds = %4
  %13 = load %class.CPDF_FormField*, %class.CPDF_FormField** %9, align 8
  br label %14

14:                                               ; preds = %12, %4
  %15 = phi %class.CPDF_FormField* [ %13, %12 ], [ null, %4 ]
  %16 = icmp eq %class.CPDF_FormField** %9, null
  br i1 %16, label %21, label %17

17:                                               ; preds = %14
  %18 = ptrtoint %class.CPDF_FormField** %9 to i64
  %19 = bitcast %class.CPDF_FormField*** %8 to i64*
  store i64 %18, i64* %19, align 8
  %20 = bitcast %class.CPDF_FormField** %9 to i8*
  call void @_ZdlPv(i8* %20) #11
  br label %21

21:                                               ; preds = %14, %17
  call void @llvm.lifetime.end.p0i8(i64 24, i8* nonnull %6) #10
  %22 = icmp eq %class.CPDF_FormField* %15, null
  br i1 %22, label %23, label %24

23:                                               ; preds = %21
  call void @_ZN10CJS_ResultC1E9JSMessage(%class.CJS_Result* %0, i32 19) #10
  br label %40

24:                                               ; preds = %21
  %25 = call zeroext i8 @_ZNK14CPDF_FormField12GetFieldTypeEv(%class.CPDF_FormField* nonnull %15) #10
  %26 = icmp eq i8 %25, 2
  br i1 %26, label %31, label %27

27:                                               ; preds = %24
  %28 = call zeroext i8 @_ZNK14CPDF_FormField12GetFieldTypeEv(%class.CPDF_FormField* nonnull %15) #10
  %29 = icmp eq i8 %28, 3
  br i1 %29, label %31, label %30

30:                                               ; preds = %27
  call void @_ZN10CJS_ResultC1E9JSMessage(%class.CJS_Result* %0, i32 20) #10
  br label %40

31:                                               ; preds = %24, %27
  %32 = getelementptr inbounds %class.CJS_Field, %class.CJS_Field* %1, i64 0, i32 5
  %33 = load i8, i8* %32, align 4, !range !5
  %34 = icmp eq i8 %33, 0
  br i1 %34, label %35, label %36

35:                                               ; preds = %31
  call void @_ZN10CJS_ResultC1E9JSMessage(%class.CJS_Result* %0, i32 15) #10
  br label %40

36:                                               ; preds = %31
  %37 = call zeroext i1 @_ZN4fxv87IsArrayEN2v85LocalINS0_5ValueEEE(%"class.v8::Value"* %3) #10
  br i1 %37, label %39, label %38

38:                                               ; preds = %36
  call void @_ZN10CJS_ResultC1E9JSMessage(%class.CJS_Result* %0, i32 19) #10
  br label %40

39:                                               ; preds = %36
  call void @_ZN10CJS_ResultC1Ev(%class.CJS_Result* %0) #10
  br label %40

40:                                               ; preds = %39, %38, %35, %30, %23
  ret void
}

; Function Attrs: nounwind ssp uwtable
define hidden void @_ZN9CJS_Field15get_file_selectEP11CJS_Runtime(%class.CJS_Result* noalias sret, %class.CJS_Field*, %class.CJS_Runtime*) local_unnamed_addr #0 align 2 {
  %4 = alloca %"class.std::__1::vector.446", align 8
  %5 = bitcast %"class.std::__1::vector.446"* %4 to i8*
  call void @llvm.lifetime.start.p0i8(i64 24, i8* nonnull %5) #10
  %6 = getelementptr inbounds %"class.std::__1::vector.446", %"class.std::__1::vector.446"* %4, i64 0, i32 0, i32 0
  %7 = getelementptr inbounds %"class.std::__1::vector.446", %"class.std::__1::vector.446"* %4, i64 0, i32 0, i32 1
  call void @llvm.memset.p0i8.i64(i8* nonnull align 8 %5, i8 -86, i64 24, i1 false) #10
  call void @_ZNK9CJS_Field13GetFormFieldsEv(%"class.std::__1::vector.446"* nonnull sret %4, %class.CJS_Field* %1) #10
  %8 = load %class.CPDF_FormField**, %class.CPDF_FormField*** %6, align 8
  %9 = load %class.CPDF_FormField**, %class.CPDF_FormField*** %7, align 8
  %10 = icmp eq %class.CPDF_FormField** %8, %9
  br i1 %10, label %13, label %11

11:                                               ; preds = %3
  %12 = load %class.CPDF_FormField*, %class.CPDF_FormField** %8, align 8
  br label %13

13:                                               ; preds = %11, %3
  %14 = phi %class.CPDF_FormField* [ %12, %11 ], [ null, %3 ]
  %15 = icmp eq %class.CPDF_FormField** %8, null
  br i1 %15, label %20, label %16

16:                                               ; preds = %13
  %17 = ptrtoint %class.CPDF_FormField** %8 to i64
  %18 = bitcast %class.CPDF_FormField*** %7 to i64*
  store i64 %17, i64* %18, align 8
  %19 = bitcast %class.CPDF_FormField** %8 to i8*
  call void @_ZdlPv(i8* %19) #11
  br label %20

20:                                               ; preds = %13, %16
  call void @llvm.lifetime.end.p0i8(i64 24, i8* nonnull %5) #10
  %21 = icmp eq %class.CPDF_FormField* %14, null
  br i1 %21, label %22, label %23

22:                                               ; preds = %20
  call void @_ZN10CJS_ResultC1E9JSMessage(%class.CJS_Result* %0, i32 19) #10
  br label %34

23:                                               ; preds = %20
  %24 = call zeroext i8 @_ZNK14CPDF_FormField12GetFieldTypeEv(%class.CPDF_FormField* nonnull %14) #10
  %25 = icmp eq i8 %24, 6
  br i1 %25, label %27, label %26

26:                                               ; preds = %23
  call void @_ZN10CJS_ResultC1E9JSMessage(%class.CJS_Result* %0, i32 20) #10
  br label %34

27:                                               ; preds = %23
  %28 = getelementptr inbounds %class.CJS_Runtime, %class.CJS_Runtime* %2, i64 0, i32 1, i32 0
  %29 = call i32 @_ZNK14CPDF_FormField13GetFieldFlagsEv(%class.CPDF_FormField* nonnull %14) #10
  %30 = and i32 %29, 1048576
  %31 = icmp ne i32 %30, 0
  %32 = call %"class.v8::Boolean"* @_ZN6CFX_V810NewBooleanEb(%class.CFX_V8* %28, i1 zeroext %31) #10
  %33 = bitcast %"class.v8::Boolean"* %32 to %"class.v8::Value"*
  call void @_ZN10CJS_ResultC1EN2v85LocalINS0_5ValueEEE(%class.CJS_Result* %0, %"class.v8::Value"* %33) #10
  br label %34

34:                                               ; preds = %27, %26, %22
  ret void
}

; Function Attrs: nounwind ssp uwtable
define hidden void @_ZN9CJS_Field15set_file_selectEP11CJS_RuntimeN2v85LocalINS2_5ValueEEE(%class.CJS_Result* noalias sret, %class.CJS_Field*, %class.CJS_Runtime* nocapture readnone, %"class.v8::Value"* nocapture readnone) local_unnamed_addr #0 align 2 {
  %5 = alloca %"class.std::__1::vector.446", align 8
  %6 = bitcast %"class.std::__1::vector.446"* %5 to i8*
  call void @llvm.lifetime.start.p0i8(i64 24, i8* nonnull %6) #10
  %7 = getelementptr inbounds %"class.std::__1::vector.446", %"class.std::__1::vector.446"* %5, i64 0, i32 0, i32 0
  %8 = getelementptr inbounds %"class.std::__1::vector.446", %"class.std::__1::vector.446"* %5, i64 0, i32 0, i32 1
  call void @llvm.memset.p0i8.i64(i8* nonnull align 8 %6, i8 -86, i64 24, i1 false) #10
  call void @_ZNK9CJS_Field13GetFormFieldsEv(%"class.std::__1::vector.446"* nonnull sret %5, %class.CJS_Field* %1) #10
  %9 = load %class.CPDF_FormField**, %class.CPDF_FormField*** %7, align 8
  %10 = load %class.CPDF_FormField**, %class.CPDF_FormField*** %8, align 8
  %11 = icmp eq %class.CPDF_FormField** %9, %10
  br i1 %11, label %14, label %12

12:                                               ; preds = %4
  %13 = load %class.CPDF_FormField*, %class.CPDF_FormField** %9, align 8
  br label %14

14:                                               ; preds = %12, %4
  %15 = phi %class.CPDF_FormField* [ %13, %12 ], [ null, %4 ]
  %16 = icmp eq %class.CPDF_FormField** %9, null
  br i1 %16, label %21, label %17

17:                                               ; preds = %14
  %18 = ptrtoint %class.CPDF_FormField** %9 to i64
  %19 = bitcast %class.CPDF_FormField*** %8 to i64*
  store i64 %18, i64* %19, align 8
  %20 = bitcast %class.CPDF_FormField** %9 to i8*
  call void @_ZdlPv(i8* %20) #11
  br label %21

21:                                               ; preds = %14, %17
  call void @llvm.lifetime.end.p0i8(i64 24, i8* nonnull %6) #10
  %22 = icmp eq %class.CPDF_FormField* %15, null
  br i1 %22, label %23, label %24

23:                                               ; preds = %21
  call void @_ZN10CJS_ResultC1E9JSMessage(%class.CJS_Result* %0, i32 19) #10
  br label %34

24:                                               ; preds = %21
  %25 = call zeroext i8 @_ZNK14CPDF_FormField12GetFieldTypeEv(%class.CPDF_FormField* nonnull %15) #10
  %26 = icmp eq i8 %25, 6
  br i1 %26, label %28, label %27

27:                                               ; preds = %24
  call void @_ZN10CJS_ResultC1E9JSMessage(%class.CJS_Result* %0, i32 20) #10
  br label %34

28:                                               ; preds = %24
  %29 = getelementptr inbounds %class.CJS_Field, %class.CJS_Field* %1, i64 0, i32 5
  %30 = load i8, i8* %29, align 4, !range !5
  %31 = icmp eq i8 %30, 0
  br i1 %31, label %32, label %33

32:                                               ; preds = %28
  call void @_ZN10CJS_ResultC1E9JSMessage(%class.CJS_Result* %0, i32 15) #10
  br label %34

33:                                               ; preds = %28
  call void @_ZN10CJS_ResultC1Ev(%class.CJS_Result* %0) #10
  br label %34

34:                                               ; preds = %33, %32, %27, %23
  ret void
}

; Function Attrs: nounwind ssp uwtable
define hidden void @_ZN9CJS_Field14get_fill_colorEP11CJS_Runtime(%class.CJS_Result* noalias sret, %class.CJS_Field*, %class.CJS_Runtime*) local_unnamed_addr #0 align 2 {
  %4 = alloca %"class.fxcrt::ByteString", align 8
  %5 = alloca %"class.fxcrt::ByteString", align 8
  %6 = alloca %"class.fxcrt::ByteString", align 8
  %7 = alloca %"class.fxcrt::ByteString", align 8
  %8 = alloca %"class.fxcrt::ByteString", align 8
  %9 = alloca %"class.fxcrt::ByteString", align 8
  %10 = alloca %"class.fxcrt::ByteString", align 8
  %11 = alloca %"class.fxcrt::ByteString", align 8
  %12 = alloca %"class.fxcrt::ByteString", align 8
  %13 = alloca %"class.std::__1::vector.446", align 8
  %14 = alloca %struct.CFX_Color, align 4
  %15 = bitcast %"class.std::__1::vector.446"* %13 to i8*
  call void @llvm.lifetime.start.p0i8(i64 24, i8* nonnull %15) #10
  %16 = getelementptr inbounds %"class.std::__1::vector.446", %"class.std::__1::vector.446"* %13, i64 0, i32 0, i32 0
  %17 = getelementptr inbounds %"class.std::__1::vector.446", %"class.std::__1::vector.446"* %13, i64 0, i32 0, i32 1
  call void @llvm.memset.p0i8.i64(i8* nonnull align 8 %15, i8 -86, i64 24, i1 false) #10
  call void @_ZNK9CJS_Field13GetFormFieldsEv(%"class.std::__1::vector.446"* nonnull sret %13, %class.CJS_Field* %1) #10
  %18 = load %class.CPDF_FormField**, %class.CPDF_FormField*** %16, align 8
  %19 = load %class.CPDF_FormField**, %class.CPDF_FormField*** %17, align 8
  %20 = icmp eq %class.CPDF_FormField** %18, %19
  br i1 %20, label %23, label %21

21:                                               ; preds = %3
  %22 = load %class.CPDF_FormField*, %class.CPDF_FormField** %18, align 8
  br label %23

23:                                               ; preds = %21, %3
  %24 = phi %class.CPDF_FormField* [ %22, %21 ], [ null, %3 ]
  %25 = icmp eq %class.CPDF_FormField** %18, null
  br i1 %25, label %30, label %26

26:                                               ; preds = %23
  %27 = ptrtoint %class.CPDF_FormField** %18 to i64
  %28 = bitcast %class.CPDF_FormField*** %17 to i64*
  store i64 %27, i64* %28, align 8
  %29 = bitcast %class.CPDF_FormField** %18 to i8*
  call void @_ZdlPv(i8* %29) #11
  br label %30

30:                                               ; preds = %23, %26
  call void @llvm.lifetime.end.p0i8(i64 24, i8* nonnull %15) #10
  %31 = icmp eq %class.CPDF_FormField* %24, null
  br i1 %31, label %32, label %33

32:                                               ; preds = %30
  call void @_ZN10CJS_ResultC1E9JSMessage(%class.CJS_Result* %0, i32 19) #10
  br label %91

33:                                               ; preds = %30
  %34 = call i32 @_ZNK14CPDF_FormField13CountControlsEv(%class.CPDF_FormField* nonnull %24) #10
  %35 = icmp eq i32 %34, 0
  br i1 %35, label %47, label %36

36:                                               ; preds = %33
  %37 = getelementptr inbounds %class.CJS_Field, %class.CJS_Field* %1, i64 0, i32 4
  %38 = load i32, i32* %37, align 8
  %39 = call i32 @_ZNK14CPDF_FormField13CountControlsEv(%class.CPDF_FormField* nonnull %24) #10
  %40 = icmp slt i32 %38, %39
  br i1 %40, label %41, label %47

41:                                               ; preds = %36
  %42 = load i32, i32* %37, align 8
  %43 = icmp sgt i32 %42, 0
  %44 = select i1 %43, i32 %42, i32 0
  %45 = call %class.CPDF_FormControl* @_ZNK14CPDF_FormField10GetControlEi(%class.CPDF_FormField* nonnull %24, i32 %44) #10
  %46 = icmp eq %class.CPDF_FormControl* %45, null
  br i1 %46, label %47, label %48

47:                                               ; preds = %33, %36, %41
  call void @_ZN10CJS_ResultC1E9JSMessage(%class.CJS_Result* %0, i32 19) #10
  br label %91

48:                                               ; preds = %41
  %49 = bitcast %struct.CFX_Color* %14 to i8*
  call void @llvm.lifetime.start.p0i8(i64 20, i8* nonnull %49) #10
  %50 = getelementptr inbounds %struct.CFX_Color, %struct.CFX_Color* %14, i64 0, i32 0
  %51 = getelementptr inbounds %struct.CFX_Color, %struct.CFX_Color* %14, i64 0, i32 1
  %52 = getelementptr inbounds %struct.CFX_Color, %struct.CFX_Color* %14, i64 0, i32 2
  %53 = getelementptr inbounds %struct.CFX_Color, %struct.CFX_Color* %14, i64 0, i32 3
  %54 = getelementptr inbounds %struct.CFX_Color, %struct.CFX_Color* %14, i64 0, i32 4
  %55 = bitcast %"class.fxcrt::ByteString"* %12 to i8*
  %56 = bitcast %struct.CFX_Color* %14 to i8*
  call void @llvm.memset.p0i8.i64(i8* nonnull align 4 %56, i8 0, i64 20, i1 false)
  call void @llvm.lifetime.start.p0i8(i64 8, i8* nonnull %55) #10
  call void @_ZN5fxcrt10ByteStringC1EPKc(%"class.fxcrt::ByteString"* nonnull %12, i8* getelementptr inbounds ([3 x i8], [3 x i8]* @.str.114, i64 0, i64 0)) #10
  %57 = call i64 @_ZN16CPDF_FormControl12GetColorARGBERKN5fxcrt10ByteStringE(%class.CPDF_FormControl* nonnull %45, %"class.fxcrt::ByteString"* nonnull dereferenceable(8) %12) #10
  call void @_ZN5fxcrt10ByteStringD1Ev(%"class.fxcrt::ByteString"* nonnull %12) #10
  call void @llvm.lifetime.end.p0i8(i64 8, i8* nonnull %55) #10
  %58 = trunc i64 %57 to i32
  switch i32 %58, label %80 [
    i32 0, label %59
    i32 1, label %61
    i32 2, label %64
    i32 3, label %71
  ]

59:                                               ; preds = %48
  %60 = bitcast %struct.CFX_Color* %14 to i8*
  call void @llvm.memset.p0i8.i64(i8* nonnull align 4 %60, i8 0, i64 20, i1 false)
  br label %81

61:                                               ; preds = %48
  %62 = bitcast %"class.fxcrt::ByteString"* %11 to i8*
  call void @llvm.lifetime.start.p0i8(i64 8, i8* nonnull %62) #10
  call void @_ZN5fxcrt10ByteStringC1EPKc(%"class.fxcrt::ByteString"* nonnull %11, i8* getelementptr inbounds ([3 x i8], [3 x i8]* @.str.114, i64 0, i64 0)) #10
  %63 = call float @_ZN16CPDF_FormControl25GetOriginalColorComponentEiRKN5fxcrt10ByteStringE(%class.CPDF_FormControl* nonnull %45, i32 0, %"class.fxcrt::ByteString"* nonnull dereferenceable(8) %11) #10
  call void @_ZN5fxcrt10ByteStringD1Ev(%"class.fxcrt::ByteString"* nonnull %11) #10
  call void @llvm.lifetime.end.p0i8(i64 8, i8* nonnull %62) #10
  store i32 1, i32* %50, align 4
  store float %63, float* %51, align 4
  store float 0.000000e+00, float* %52, align 4
  store float 0.000000e+00, float* %53, align 4
  store float 0.000000e+00, float* %54, align 4
  br label %81

64:                                               ; preds = %48
  %65 = bitcast %"class.fxcrt::ByteString"* %10 to i8*
  call void @llvm.lifetime.start.p0i8(i64 8, i8* nonnull %65) #10
  call void @_ZN5fxcrt10ByteStringC1EPKc(%"class.fxcrt::ByteString"* nonnull %10, i8* getelementptr inbounds ([3 x i8], [3 x i8]* @.str.114, i64 0, i64 0)) #10
  %66 = call float @_ZN16CPDF_FormControl25GetOriginalColorComponentEiRKN5fxcrt10ByteStringE(%class.CPDF_FormControl* nonnull %45, i32 0, %"class.fxcrt::ByteString"* nonnull dereferenceable(8) %10) #10
  call void @_ZN5fxcrt10ByteStringD1Ev(%"class.fxcrt::ByteString"* nonnull %10) #10
  call void @llvm.lifetime.end.p0i8(i64 8, i8* nonnull %65) #10
  %67 = bitcast %"class.fxcrt::ByteString"* %9 to i8*
  call void @llvm.lifetime.start.p0i8(i64 8, i8* nonnull %67) #10
  call void @_ZN5fxcrt10ByteStringC1EPKc(%"class.fxcrt::ByteString"* nonnull %9, i8* getelementptr inbounds ([3 x i8], [3 x i8]* @.str.114, i64 0, i64 0)) #10
  %68 = call float @_ZN16CPDF_FormControl25GetOriginalColorComponentEiRKN5fxcrt10ByteStringE(%class.CPDF_FormControl* nonnull %45, i32 1, %"class.fxcrt::ByteString"* nonnull dereferenceable(8) %9) #10
  call void @_ZN5fxcrt10ByteStringD1Ev(%"class.fxcrt::ByteString"* nonnull %9) #10
  call void @llvm.lifetime.end.p0i8(i64 8, i8* nonnull %67) #10
  %69 = bitcast %"class.fxcrt::ByteString"* %8 to i8*
  call void @llvm.lifetime.start.p0i8(i64 8, i8* nonnull %69) #10
  call void @_ZN5fxcrt10ByteStringC1EPKc(%"class.fxcrt::ByteString"* nonnull %8, i8* getelementptr inbounds ([3 x i8], [3 x i8]* @.str.114, i64 0, i64 0)) #10
  %70 = call float @_ZN16CPDF_FormControl25GetOriginalColorComponentEiRKN5fxcrt10ByteStringE(%class.CPDF_FormControl* nonnull %45, i32 2, %"class.fxcrt::ByteString"* nonnull dereferenceable(8) %8) #10
  call void @_ZN5fxcrt10ByteStringD1Ev(%"class.fxcrt::ByteString"* nonnull %8) #10
  call void @llvm.lifetime.end.p0i8(i64 8, i8* nonnull %69) #10
  store i32 2, i32* %50, align 4
  store float %66, float* %51, align 4
  store float %68, float* %52, align 4
  store float %70, float* %53, align 4
  store float 0.000000e+00, float* %54, align 4
  br label %81

71:                                               ; preds = %48
  %72 = bitcast %"class.fxcrt::ByteString"* %7 to i8*
  call void @llvm.lifetime.start.p0i8(i64 8, i8* nonnull %72) #10
  call void @_ZN5fxcrt10ByteStringC1EPKc(%"class.fxcrt::ByteString"* nonnull %7, i8* getelementptr inbounds ([3 x i8], [3 x i8]* @.str.114, i64 0, i64 0)) #10
  %73 = call float @_ZN16CPDF_FormControl25GetOriginalColorComponentEiRKN5fxcrt10ByteStringE(%class.CPDF_FormControl* nonnull %45, i32 0, %"class.fxcrt::ByteString"* nonnull dereferenceable(8) %7) #10
  call void @_ZN5fxcrt10ByteStringD1Ev(%"class.fxcrt::ByteString"* nonnull %7) #10
  call void @llvm.lifetime.end.p0i8(i64 8, i8* nonnull %72) #10
  %74 = bitcast %"class.fxcrt::ByteString"* %6 to i8*
  call void @llvm.lifetime.start.p0i8(i64 8, i8* nonnull %74) #10
  call void @_ZN5fxcrt10ByteStringC1EPKc(%"class.fxcrt::ByteString"* nonnull %6, i8* getelementptr inbounds ([3 x i8], [3 x i8]* @.str.114, i64 0, i64 0)) #10
  %75 = call float @_ZN16CPDF_FormControl25GetOriginalColorComponentEiRKN5fxcrt10ByteStringE(%class.CPDF_FormControl* nonnull %45, i32 1, %"class.fxcrt::ByteString"* nonnull dereferenceable(8) %6) #10
  call void @_ZN5fxcrt10ByteStringD1Ev(%"class.fxcrt::ByteString"* nonnull %6) #10
  call void @llvm.lifetime.end.p0i8(i64 8, i8* nonnull %74) #10
  %76 = bitcast %"class.fxcrt::ByteString"* %5 to i8*
  call void @llvm.lifetime.start.p0i8(i64 8, i8* nonnull %76) #10
  call void @_ZN5fxcrt10ByteStringC1EPKc(%"class.fxcrt::ByteString"* nonnull %5, i8* getelementptr inbounds ([3 x i8], [3 x i8]* @.str.114, i64 0, i64 0)) #10
  %77 = call float @_ZN16CPDF_FormControl25GetOriginalColorComponentEiRKN5fxcrt10ByteStringE(%class.CPDF_FormControl* nonnull %45, i32 2, %"class.fxcrt::ByteString"* nonnull dereferenceable(8) %5) #10
  call void @_ZN5fxcrt10ByteStringD1Ev(%"class.fxcrt::ByteString"* nonnull %5) #10
  call void @llvm.lifetime.end.p0i8(i64 8, i8* nonnull %76) #10
  %78 = bitcast %"class.fxcrt::ByteString"* %4 to i8*
  call void @llvm.lifetime.start.p0i8(i64 8, i8* nonnull %78) #10
  call void @_ZN5fxcrt10ByteStringC1EPKc(%"class.fxcrt::ByteString"* nonnull %4, i8* getelementptr inbounds ([3 x i8], [3 x i8]* @.str.114, i64 0, i64 0)) #10
  %79 = call float @_ZN16CPDF_FormControl25GetOriginalColorComponentEiRKN5fxcrt10ByteStringE(%class.CPDF_FormControl* nonnull %45, i32 3, %"class.fxcrt::ByteString"* nonnull dereferenceable(8) %4) #10
  call void @_ZN5fxcrt10ByteStringD1Ev(%"class.fxcrt::ByteString"* nonnull %4) #10
  call void @llvm.lifetime.end.p0i8(i64 8, i8* nonnull %78) #10
  store i32 3, i32* %50, align 4
  store float %73, float* %51, align 4
  store float %75, float* %52, align 4
  store float %77, float* %53, align 4
  store float %79, float* %54, align 4
  br label %81

80:                                               ; preds = %48
  call void @_ZN10CJS_ResultC1E9JSMessage(%class.CJS_Result* %0, i32 17) #10
  br label %90

81:                                               ; preds = %61, %71, %64, %59
  %82 = call %"class.v8::Array"* @_ZN9CJS_Color22ConvertPWLColorToArrayEP11CJS_RuntimeRK9CFX_Color(%class.CJS_Runtime* %2, %struct.CFX_Color* nonnull dereferenceable(20) %14) #10
  %83 = icmp eq %"class.v8::Array"* %82, null
  br i1 %83, label %84, label %88

84:                                               ; preds = %81
  %85 = getelementptr inbounds %class.CJS_Runtime, %class.CJS_Runtime* %2, i64 0, i32 1, i32 0
  %86 = call %"class.v8::Array"* @_ZN6CFX_V88NewArrayEv(%class.CFX_V8* %85) #10
  %87 = bitcast %"class.v8::Array"* %86 to %"class.v8::Value"*
  call void @_ZN10CJS_ResultC1EN2v85LocalINS0_5ValueEEE(%class.CJS_Result* %0, %"class.v8::Value"* %87) #10
  br label %90

88:                                               ; preds = %81
  %89 = bitcast %"class.v8::Array"* %82 to %"class.v8::Value"*
  call void @_ZN10CJS_ResultC1EN2v85LocalINS0_5ValueEEE(%class.CJS_Result* %0, %"class.v8::Value"* nonnull %89) #10
  br label %90

90:                                               ; preds = %84, %88, %80
  call void @llvm.lifetime.end.p0i8(i64 20, i8* nonnull %49) #10
  br label %91

91:                                               ; preds = %47, %90, %32
  ret void
}

declare %"class.v8::Array"* @_ZN9CJS_Color22ConvertPWLColorToArrayEP11CJS_RuntimeRK9CFX_Color(%class.CJS_Runtime*, %struct.CFX_Color* dereferenceable(20)) local_unnamed_addr #2

; Function Attrs: nounwind ssp uwtable
define hidden void @_ZN9CJS_Field14set_fill_colorEP11CJS_RuntimeN2v85LocalINS2_5ValueEEE(%class.CJS_Result* noalias sret, %class.CJS_Field*, %class.CJS_Runtime* nocapture readnone, %"class.v8::Value"*) local_unnamed_addr #0 align 2 {
  %5 = alloca %"class.std::__1::vector.446", align 8
  %6 = bitcast %"class.std::__1::vector.446"* %5 to i8*
  call void @llvm.lifetime.start.p0i8(i64 24, i8* nonnull %6) #10
  %7 = getelementptr inbounds %"class.std::__1::vector.446", %"class.std::__1::vector.446"* %5, i64 0, i32 0, i32 0
  %8 = getelementptr inbounds %"class.std::__1::vector.446", %"class.std::__1::vector.446"* %5, i64 0, i32 0, i32 1
  %9 = bitcast %"class.std::__1::vector.446"* %5 to i8*
  call void @llvm.memset.p0i8.i64(i8* nonnull align 8 %9, i8 -86, i64 24, i1 false)
  call void @_ZNK9CJS_Field13GetFormFieldsEv(%"class.std::__1::vector.446"* nonnull sret %5, %class.CJS_Field* %1)
  %10 = load %class.CPDF_FormField**, %class.CPDF_FormField*** %7, align 8
  %11 = load %class.CPDF_FormField**, %class.CPDF_FormField*** %8, align 8
  %12 = icmp eq %class.CPDF_FormField** %10, %11
  br i1 %12, label %13, label %14

13:                                               ; preds = %4
  call void @_ZN10CJS_ResultC1E9JSMessage(%class.CJS_Result* %0, i32 19) #10
  br label %23

14:                                               ; preds = %4
  %15 = getelementptr inbounds %class.CJS_Field, %class.CJS_Field* %1, i64 0, i32 5
  %16 = load i8, i8* %15, align 4, !range !5
  %17 = icmp eq i8 %16, 0
  br i1 %17, label %18, label %19

18:                                               ; preds = %14
  call void @_ZN10CJS_ResultC1E9JSMessage(%class.CJS_Result* %0, i32 15) #10
  br label %23

19:                                               ; preds = %14
  %20 = call zeroext i1 @_ZN4fxv87IsArrayEN2v85LocalINS0_5ValueEEE(%"class.v8::Value"* %3) #10
  br i1 %20, label %22, label %21

21:                                               ; preds = %19
  call void @_ZN10CJS_ResultC1E9JSMessage(%class.CJS_Result* %0, i32 19) #10
  br label %23

22:                                               ; preds = %19
  call void @_ZN10CJS_ResultC1Ev(%class.CJS_Result* %0) #10
  br label %23

23:                                               ; preds = %22, %21, %18, %13
  %24 = load %class.CPDF_FormField**, %class.CPDF_FormField*** %7, align 8
  %25 = icmp eq %class.CPDF_FormField** %24, null
  br i1 %25, label %30, label %26

26:                                               ; preds = %23
  %27 = ptrtoint %class.CPDF_FormField** %24 to i64
  %28 = bitcast %class.CPDF_FormField*** %8 to i64*
  store i64 %27, i64* %28, align 8
  %29 = bitcast %class.CPDF_FormField** %24 to i8*
  call void @_ZdlPv(i8* %29) #11
  br label %30

30:                                               ; preds = %23, %26
  call void @llvm.lifetime.end.p0i8(i64 24, i8* nonnull %6) #10
  ret void
}

; Function Attrs: nounwind ssp uwtable
define hidden void @_ZN9CJS_Field10get_hiddenEP11CJS_Runtime(%class.CJS_Result* noalias sret, %class.CJS_Field*, %class.CJS_Runtime*) local_unnamed_addr #0 align 2 {
  %4 = alloca %"class.std::__1::vector.446", align 8
  %5 = bitcast %"class.std::__1::vector.446"* %4 to i8*
  call void @llvm.lifetime.start.p0i8(i64 24, i8* nonnull %5) #10
  %6 = getelementptr inbounds %"class.std::__1::vector.446", %"class.std::__1::vector.446"* %4, i64 0, i32 0, i32 0
  %7 = getelementptr inbounds %"class.std::__1::vector.446", %"class.std::__1::vector.446"* %4, i64 0, i32 0, i32 1
  call void @llvm.memset.p0i8.i64(i8* nonnull align 8 %5, i8 -86, i64 24, i1 false) #10
  call void @_ZNK9CJS_Field13GetFormFieldsEv(%"class.std::__1::vector.446"* nonnull sret %4, %class.CJS_Field* %1) #10
  %8 = load %class.CPDF_FormField**, %class.CPDF_FormField*** %6, align 8
  %9 = load %class.CPDF_FormField**, %class.CPDF_FormField*** %7, align 8
  %10 = icmp eq %class.CPDF_FormField** %8, %9
  br i1 %10, label %13, label %11

11:                                               ; preds = %3
  %12 = load %class.CPDF_FormField*, %class.CPDF_FormField** %8, align 8
  br label %13

13:                                               ; preds = %11, %3
  %14 = phi %class.CPDF_FormField* [ %12, %11 ], [ null, %3 ]
  %15 = icmp eq %class.CPDF_FormField** %8, null
  br i1 %15, label %20, label %16

16:                                               ; preds = %13
  %17 = ptrtoint %class.CPDF_FormField** %8 to i64
  %18 = bitcast %class.CPDF_FormField*** %7 to i64*
  store i64 %17, i64* %18, align 8
  %19 = bitcast %class.CPDF_FormField** %8 to i8*
  call void @_ZdlPv(i8* %19) #11
  br label %20

20:                                               ; preds = %13, %16
  call void @llvm.lifetime.end.p0i8(i64 24, i8* nonnull %5) #10
  %21 = icmp eq %class.CPDF_FormField* %14, null
  br i1 %21, label %22, label %23

22:                                               ; preds = %20
  call void @_ZN10CJS_ResultC1E9JSMessage(%class.CJS_Result* %0, i32 19) #10
  br label %54

23:                                               ; preds = %20
  %24 = getelementptr inbounds %class.CJS_Field, %class.CJS_Field* %1, i64 0, i32 2, i32 1
  %25 = load %class.CPDFSDK_FormFillEnvironment*, %class.CPDFSDK_FormFillEnvironment** %24, align 8
  %26 = call %class.CPDFSDK_InteractiveForm* @_ZN27CPDFSDK_FormFillEnvironment18GetInteractiveFormEv(%class.CPDFSDK_FormFillEnvironment* %25) #10
  %27 = call i32 @_ZNK14CPDF_FormField13CountControlsEv(%class.CPDF_FormField* nonnull %14) #10
  %28 = icmp eq i32 %27, 0
  br i1 %28, label %41, label %29

29:                                               ; preds = %23
  %30 = getelementptr inbounds %class.CJS_Field, %class.CJS_Field* %1, i64 0, i32 4
  %31 = load i32, i32* %30, align 8
  %32 = call i32 @_ZNK14CPDF_FormField13CountControlsEv(%class.CPDF_FormField* nonnull %14) #10
  %33 = icmp slt i32 %31, %32
  br i1 %33, label %34, label %41

34:                                               ; preds = %29
  %35 = load i32, i32* %30, align 8
  %36 = icmp slt i32 %35, 0
  br i1 %36, label %37, label %39

37:                                               ; preds = %34
  %38 = call %class.CPDF_FormControl* @_ZNK14CPDF_FormField10GetControlEi(%class.CPDF_FormField* nonnull %14, i32 0) #10
  br label %41

39:                                               ; preds = %34
  %40 = call %class.CPDF_FormControl* @_ZNK14CPDF_FormField10GetControlEi(%class.CPDF_FormField* nonnull %14, i32 %35) #10
  br label %41

41:                                               ; preds = %23, %29, %37, %39
  %42 = phi %class.CPDF_FormControl* [ %38, %37 ], [ %40, %39 ], [ null, %29 ], [ null, %23 ]
  %43 = call %class.CPDFSDK_Widget* @_ZNK23CPDFSDK_InteractiveForm9GetWidgetEP16CPDF_FormControl(%class.CPDFSDK_InteractiveForm* %26, %class.CPDF_FormControl* %42) #10
  %44 = icmp eq %class.CPDFSDK_Widget* %43, null
  br i1 %44, label %45, label %46

45:                                               ; preds = %41
  call void @_ZN10CJS_ResultC1E9JSMessage(%class.CJS_Result* %0, i32 19) #10
  br label %54

46:                                               ; preds = %41
  %47 = getelementptr inbounds %class.CPDFSDK_Widget, %class.CPDFSDK_Widget* %43, i64 0, i32 0
  %48 = call i32 @_ZNK15CPDFSDK_BAAnnot8GetFlagsEv(%class.CPDFSDK_BAAnnot* %47) #10
  %49 = getelementptr inbounds %class.CJS_Runtime, %class.CJS_Runtime* %2, i64 0, i32 1, i32 0
  %50 = and i32 %48, 3
  %51 = icmp ne i32 %50, 0
  %52 = call %"class.v8::Boolean"* @_ZN6CFX_V810NewBooleanEb(%class.CFX_V8* %49, i1 zeroext %51) #10
  %53 = bitcast %"class.v8::Boolean"* %52 to %"class.v8::Value"*
  call void @_ZN10CJS_ResultC1EN2v85LocalINS0_5ValueEEE(%class.CJS_Result* %0, %"class.v8::Value"* %53) #10
  br label %54

54:                                               ; preds = %45, %46, %22
  ret void
}

; Function Attrs: nounwind ssp uwtable
define hidden void @_ZN9CJS_Field10set_hiddenEP11CJS_RuntimeN2v85LocalINS2_5ValueEEE(%class.CJS_Result* noalias sret, %class.CJS_Field*, %class.CJS_Runtime*, %"class.v8::Value"*) local_unnamed_addr #0 align 2 {
  %5 = getelementptr inbounds %class.CJS_Field, %class.CJS_Field* %1, i64 0, i32 5
  %6 = load i8, i8* %5, align 4, !range !5
  %7 = icmp eq i8 %6, 0
  br i1 %7, label %8, label %9

8:                                                ; preds = %4
  tail call void @_ZN10CJS_ResultC1E9JSMessage(%class.CJS_Result* %0, i32 15) #10
  br label %35

9:                                                ; preds = %4
  %10 = getelementptr inbounds %class.CJS_Field, %class.CJS_Field* %1, i64 0, i32 6
  %11 = load i8, i8* %10, align 1, !range !5
  %12 = icmp eq i8 %11, 0
  br i1 %12, label %25, label %13

13:                                               ; preds = %9
  %14 = getelementptr inbounds %class.CJS_Runtime, %class.CJS_Runtime* %2, i64 0, i32 1, i32 0
  %15 = tail call zeroext i1 @_ZN6CFX_V89ToBooleanEN2v85LocalINS0_5ValueEEE(%class.CFX_V8* %14, %"class.v8::Value"* %3) #10
  %16 = zext i1 %15 to i8
  %17 = getelementptr inbounds %class.CJS_Field, %class.CJS_Field* %1, i64 0, i32 4
  %18 = getelementptr inbounds %class.CJS_Field, %class.CJS_Field* %1, i64 0, i32 3
  %19 = tail call i8* @_Znwm(i64 128) #11
  %20 = bitcast i8* %19 to %struct.CJS_DelayData*
  %21 = load i32, i32* %17, align 4
  tail call void @_ZN13CJS_DelayDataC1E10FIELD_PROPiRKN5fxcrt10WideStringE(%struct.CJS_DelayData* nonnull %20, i32 3, i32 %21, %"class.fxcrt::WideString"* dereferenceable(8) %18) #10
  %22 = getelementptr inbounds i8, i8* %19, i64 20
  store i8 %16, i8* %22, align 4
  %23 = getelementptr inbounds %class.CJS_Field, %class.CJS_Field* %1, i64 0, i32 1, i32 1
  %24 = load %class.CJS_Document*, %class.CJS_Document** %23, align 8
  tail call void @_ZN12CJS_Document12AddDelayDataENSt3__110unique_ptrI13CJS_DelayDataNS0_14default_deleteIS2_EEEE(%class.CJS_Document* %24, %struct.CJS_DelayData* nonnull %20) #10
  br label %34

25:                                               ; preds = %9
  %26 = getelementptr inbounds %class.CJS_Field, %class.CJS_Field* %1, i64 0, i32 2, i32 1
  %27 = load %class.CPDFSDK_FormFillEnvironment*, %class.CPDFSDK_FormFillEnvironment** %26, align 8
  %28 = getelementptr inbounds %class.CJS_Field, %class.CJS_Field* %1, i64 0, i32 3
  %29 = getelementptr inbounds %class.CJS_Field, %class.CJS_Field* %1, i64 0, i32 4
  %30 = load i32, i32* %29, align 8
  %31 = getelementptr inbounds %class.CJS_Runtime, %class.CJS_Runtime* %2, i64 0, i32 1, i32 0
  %32 = tail call zeroext i1 @_ZN6CFX_V89ToBooleanEN2v85LocalINS0_5ValueEEE(%class.CFX_V8* %31, %"class.v8::Value"* %3) #10
  %33 = zext i1 %32 to i32
  tail call fastcc void @_ZN12_GLOBAL__N_110SetDisplayEP27CPDFSDK_FormFillEnvironmentRKN5fxcrt10WideStringEii(%class.CPDFSDK_FormFillEnvironment* %27, %"class.fxcrt::WideString"* dereferenceable(8) %28, i32 %30, i32 %33) #10
  br label %34

34:                                               ; preds = %25, %13
  tail call void @_ZN10CJS_ResultC1Ev(%class.CJS_Result* %0) #10
  br label %35

35:                                               ; preds = %34, %8
  ret void
}

; Function Attrs: nounwind ssp uwtable
define hidden void @_ZN9CJS_Field13AddDelay_BoolE10FIELD_PROPb(%class.CJS_Field*, i32, i1 zeroext) local_unnamed_addr #0 align 2 {
  %4 = zext i1 %2 to i8
  %5 = getelementptr inbounds %class.CJS_Field, %class.CJS_Field* %0, i64 0, i32 4
  %6 = getelementptr inbounds %class.CJS_Field, %class.CJS_Field* %0, i64 0, i32 3
  %7 = tail call i8* @_Znwm(i64 128) #11
  %8 = bitcast i8* %7 to %struct.CJS_DelayData*
  %9 = load i32, i32* %5, align 4
  tail call void @_ZN13CJS_DelayDataC1E10FIELD_PROPiRKN5fxcrt10WideStringE(%struct.CJS_DelayData* nonnull %8, i32 %1, i32 %9, %"class.fxcrt::WideString"* dereferenceable(8) %6) #10
  %10 = getelementptr inbounds i8, i8* %7, i64 20
  store i8 %4, i8* %10, align 4
  %11 = getelementptr inbounds %class.CJS_Field, %class.CJS_Field* %0, i64 0, i32 1, i32 1
  %12 = load %class.CJS_Document*, %class.CJS_Document** %11, align 8
  tail call void @_ZN12CJS_Document12AddDelayDataENSt3__110unique_ptrI13CJS_DelayDataNS0_14default_deleteIS2_EEEE(%class.CJS_Document* %12, %struct.CJS_DelayData* nonnull %8) #10
  ret void
}

; Function Attrs: nounwind ssp uwtable
define hidden void @_ZN9CJS_Field13get_highlightEP11CJS_Runtime(%class.CJS_Result* noalias sret, %class.CJS_Field*, %class.CJS_Runtime*) local_unnamed_addr #0 align 2 {
  %4 = alloca %"class.std::__1::vector.446", align 8
  %5 = alloca %"class.fxcrt::StringViewTemplate.462", align 8
  %6 = alloca %"class.fxcrt::StringViewTemplate.462", align 8
  %7 = alloca %"class.fxcrt::StringViewTemplate.462", align 8
  %8 = alloca %"class.fxcrt::StringViewTemplate.462", align 8
  %9 = alloca %"class.fxcrt::StringViewTemplate.462", align 8
  %10 = bitcast %"class.std::__1::vector.446"* %4 to i8*
  call void @llvm.lifetime.start.p0i8(i64 24, i8* nonnull %10) #10
  %11 = getelementptr inbounds %"class.std::__1::vector.446", %"class.std::__1::vector.446"* %4, i64 0, i32 0, i32 0
  %12 = getelementptr inbounds %"class.std::__1::vector.446", %"class.std::__1::vector.446"* %4, i64 0, i32 0, i32 1
  call void @llvm.memset.p0i8.i64(i8* nonnull align 8 %10, i8 -86, i64 24, i1 false) #10
  call void @_ZNK9CJS_Field13GetFormFieldsEv(%"class.std::__1::vector.446"* nonnull sret %4, %class.CJS_Field* %1) #10
  %13 = load %class.CPDF_FormField**, %class.CPDF_FormField*** %11, align 8
  %14 = load %class.CPDF_FormField**, %class.CPDF_FormField*** %12, align 8
  %15 = icmp eq %class.CPDF_FormField** %13, %14
  br i1 %15, label %18, label %16

16:                                               ; preds = %3
  %17 = load %class.CPDF_FormField*, %class.CPDF_FormField** %13, align 8
  br label %18

18:                                               ; preds = %16, %3
  %19 = phi %class.CPDF_FormField* [ %17, %16 ], [ null, %3 ]
  %20 = icmp eq %class.CPDF_FormField** %13, null
  br i1 %20, label %25, label %21

21:                                               ; preds = %18
  %22 = ptrtoint %class.CPDF_FormField** %13 to i64
  %23 = bitcast %class.CPDF_FormField*** %12 to i64*
  store i64 %22, i64* %23, align 8
  %24 = bitcast %class.CPDF_FormField** %13 to i8*
  call void @_ZdlPv(i8* %24) #11
  br label %25

25:                                               ; preds = %18, %21
  call void @llvm.lifetime.end.p0i8(i64 24, i8* nonnull %10) #10
  %26 = icmp eq %class.CPDF_FormField* %19, null
  br i1 %26, label %27, label %28

27:                                               ; preds = %25
  call void @_ZN10CJS_ResultC1E9JSMessage(%class.CJS_Result* %0, i32 19) #10
  br label %80

28:                                               ; preds = %25
  %29 = call zeroext i8 @_ZNK14CPDF_FormField12GetFieldTypeEv(%class.CPDF_FormField* nonnull %19) #10
  %30 = icmp eq i8 %29, 1
  br i1 %30, label %32, label %31

31:                                               ; preds = %28
  call void @_ZN10CJS_ResultC1E9JSMessage(%class.CJS_Result* %0, i32 20) #10
  br label %80

32:                                               ; preds = %28
  %33 = call i32 @_ZNK14CPDF_FormField13CountControlsEv(%class.CPDF_FormField* nonnull %19) #10
  %34 = icmp eq i32 %33, 0
  br i1 %34, label %46, label %35

35:                                               ; preds = %32
  %36 = getelementptr inbounds %class.CJS_Field, %class.CJS_Field* %1, i64 0, i32 4
  %37 = load i32, i32* %36, align 8
  %38 = call i32 @_ZNK14CPDF_FormField13CountControlsEv(%class.CPDF_FormField* nonnull %19) #10
  %39 = icmp slt i32 %37, %38
  br i1 %39, label %40, label %46

40:                                               ; preds = %35
  %41 = load i32, i32* %36, align 8
  %42 = icmp sgt i32 %41, 0
  %43 = select i1 %42, i32 %41, i32 0
  %44 = call %class.CPDF_FormControl* @_ZNK14CPDF_FormField10GetControlEi(%class.CPDF_FormField* nonnull %19, i32 %43) #10
  %45 = icmp eq %class.CPDF_FormControl* %44, null
  br i1 %45, label %46, label %47

46:                                               ; preds = %32, %35, %40
  call void @_ZN10CJS_ResultC1E9JSMessage(%class.CJS_Result* %0, i32 19) #10
  br label %80

47:                                               ; preds = %40
  %48 = call i32 @_ZNK16CPDF_FormControl19GetHighlightingModeEv(%class.CPDF_FormControl* nonnull %44) #10
  switch i32 %48, label %79 [
    i32 0, label %49
    i32 3, label %55
    i32 1, label %61
    i32 2, label %67
    i32 4, label %73
  ]

49:                                               ; preds = %47
  %50 = getelementptr inbounds %class.CJS_Runtime, %class.CJS_Runtime* %2, i64 0, i32 1, i32 0
  %51 = getelementptr inbounds %"class.fxcrt::StringViewTemplate.462", %"class.fxcrt::StringViewTemplate.462"* %5, i64 0, i32 0, i32 0, i32 0
  store i8* getelementptr inbounds ([5 x i8], [5 x i8]* @.str.89, i64 0, i64 0), i8** %51, align 8
  %52 = getelementptr inbounds %"class.fxcrt::StringViewTemplate.462", %"class.fxcrt::StringViewTemplate.462"* %5, i64 0, i32 0, i32 1
  store i64 4, i64* %52, align 8
  %53 = call %"class.v8::String"* @_ZN6CFX_V89NewStringEN5fxcrt18StringViewTemplateIcEE(%class.CFX_V8* %50, %"class.fxcrt::StringViewTemplate.462"* nonnull %5) #10
  %54 = bitcast %"class.v8::String"* %53 to %"class.v8::Value"*
  call void @_ZN10CJS_ResultC1EN2v85LocalINS0_5ValueEEE(%class.CJS_Result* %0, %"class.v8::Value"* %54) #10
  br label %80

55:                                               ; preds = %47
  %56 = getelementptr inbounds %class.CJS_Runtime, %class.CJS_Runtime* %2, i64 0, i32 1, i32 0
  %57 = getelementptr inbounds %"class.fxcrt::StringViewTemplate.462", %"class.fxcrt::StringViewTemplate.462"* %6, i64 0, i32 0, i32 0, i32 0
  store i8* getelementptr inbounds ([5 x i8], [5 x i8]* @.str.90, i64 0, i64 0), i8** %57, align 8
  %58 = getelementptr inbounds %"class.fxcrt::StringViewTemplate.462", %"class.fxcrt::StringViewTemplate.462"* %6, i64 0, i32 0, i32 1
  store i64 4, i64* %58, align 8
  %59 = call %"class.v8::String"* @_ZN6CFX_V89NewStringEN5fxcrt18StringViewTemplateIcEE(%class.CFX_V8* %56, %"class.fxcrt::StringViewTemplate.462"* nonnull %6) #10
  %60 = bitcast %"class.v8::String"* %59 to %"class.v8::Value"*
  call void @_ZN10CJS_ResultC1EN2v85LocalINS0_5ValueEEE(%class.CJS_Result* %0, %"class.v8::Value"* %60) #10
  br label %80

61:                                               ; preds = %47
  %62 = getelementptr inbounds %class.CJS_Runtime, %class.CJS_Runtime* %2, i64 0, i32 1, i32 0
  %63 = getelementptr inbounds %"class.fxcrt::StringViewTemplate.462", %"class.fxcrt::StringViewTemplate.462"* %7, i64 0, i32 0, i32 0, i32 0
  store i8* getelementptr inbounds ([7 x i8], [7 x i8]* @.str.91, i64 0, i64 0), i8** %63, align 8
  %64 = getelementptr inbounds %"class.fxcrt::StringViewTemplate.462", %"class.fxcrt::StringViewTemplate.462"* %7, i64 0, i32 0, i32 1
  store i64 6, i64* %64, align 8
  %65 = call %"class.v8::String"* @_ZN6CFX_V89NewStringEN5fxcrt18StringViewTemplateIcEE(%class.CFX_V8* %62, %"class.fxcrt::StringViewTemplate.462"* nonnull %7) #10
  %66 = bitcast %"class.v8::String"* %65 to %"class.v8::Value"*
  call void @_ZN10CJS_ResultC1EN2v85LocalINS0_5ValueEEE(%class.CJS_Result* %0, %"class.v8::Value"* %66) #10
  br label %80

67:                                               ; preds = %47
  %68 = getelementptr inbounds %class.CJS_Runtime, %class.CJS_Runtime* %2, i64 0, i32 1, i32 0
  %69 = getelementptr inbounds %"class.fxcrt::StringViewTemplate.462", %"class.fxcrt::StringViewTemplate.462"* %8, i64 0, i32 0, i32 0, i32 0
  store i8* getelementptr inbounds ([8 x i8], [8 x i8]* @.str.92, i64 0, i64 0), i8** %69, align 8
  %70 = getelementptr inbounds %"class.fxcrt::StringViewTemplate.462", %"class.fxcrt::StringViewTemplate.462"* %8, i64 0, i32 0, i32 1
  store i64 7, i64* %70, align 8
  %71 = call %"class.v8::String"* @_ZN6CFX_V89NewStringEN5fxcrt18StringViewTemplateIcEE(%class.CFX_V8* %68, %"class.fxcrt::StringViewTemplate.462"* nonnull %8) #10
  %72 = bitcast %"class.v8::String"* %71 to %"class.v8::Value"*
  call void @_ZN10CJS_ResultC1EN2v85LocalINS0_5ValueEEE(%class.CJS_Result* %0, %"class.v8::Value"* %72) #10
  br label %80

73:                                               ; preds = %47
  %74 = getelementptr inbounds %class.CJS_Runtime, %class.CJS_Runtime* %2, i64 0, i32 1, i32 0
  %75 = getelementptr inbounds %"class.fxcrt::StringViewTemplate.462", %"class.fxcrt::StringViewTemplate.462"* %9, i64 0, i32 0, i32 0, i32 0
  store i8* getelementptr inbounds ([7 x i8], [7 x i8]* @.str.93, i64 0, i64 0), i8** %75, align 8
  %76 = getelementptr inbounds %"class.fxcrt::StringViewTemplate.462", %"class.fxcrt::StringViewTemplate.462"* %9, i64 0, i32 0, i32 1
  store i64 6, i64* %76, align 8
  %77 = call %"class.v8::String"* @_ZN6CFX_V89NewStringEN5fxcrt18StringViewTemplateIcEE(%class.CFX_V8* %74, %"class.fxcrt::StringViewTemplate.462"* nonnull %9) #10
  %78 = bitcast %"class.v8::String"* %77 to %"class.v8::Value"*
  call void @_ZN10CJS_ResultC1EN2v85LocalINS0_5ValueEEE(%class.CJS_Result* %0, %"class.v8::Value"* %78) #10
  br label %80

79:                                               ; preds = %47
  call void @_ZN10CJS_ResultC1Ev(%class.CJS_Result* %0) #10
  br label %80

80:                                               ; preds = %46, %79, %73, %67, %61, %55, %49, %31, %27
  ret void
}

declare i32 @_ZNK16CPDF_FormControl19GetHighlightingModeEv(%class.CPDF_FormControl*) local_unnamed_addr #2

; Function Attrs: nounwind ssp uwtable
define hidden void @_ZN9CJS_Field13set_highlightEP11CJS_RuntimeN2v85LocalINS2_5ValueEEE(%class.CJS_Result* noalias sret, %class.CJS_Field* nocapture readonly, %class.CJS_Runtime* nocapture readnone, %"class.v8::Value"* nocapture readnone) local_unnamed_addr #0 align 2 {
  %5 = getelementptr inbounds %class.CJS_Field, %class.CJS_Field* %1, i64 0, i32 5
  %6 = load i8, i8* %5, align 4, !range !5
  %7 = icmp eq i8 %6, 0
  br i1 %7, label %8, label %9

8:                                                ; preds = %4
  tail call void @_ZN10CJS_ResultC1E9JSMessage(%class.CJS_Result* %0, i32 15) #10
  br label %10

9:                                                ; preds = %4
  tail call void @_ZN10CJS_ResultC1Ev(%class.CJS_Result* %0) #10
  br label %10

10:                                               ; preds = %9, %8
  ret void
}

; Function Attrs: nounwind ssp uwtable
define hidden void @_ZN9CJS_Field14get_line_widthEP11CJS_Runtime(%class.CJS_Result* noalias sret, %class.CJS_Field*, %class.CJS_Runtime*) local_unnamed_addr #0 align 2 {
  %4 = alloca %"class.std::__1::vector.446", align 8
  %5 = bitcast %"class.std::__1::vector.446"* %4 to i8*
  call void @llvm.lifetime.start.p0i8(i64 24, i8* nonnull %5) #10
  %6 = getelementptr inbounds %"class.std::__1::vector.446", %"class.std::__1::vector.446"* %4, i64 0, i32 0, i32 0
  %7 = getelementptr inbounds %"class.std::__1::vector.446", %"class.std::__1::vector.446"* %4, i64 0, i32 0, i32 1
  call void @llvm.memset.p0i8.i64(i8* nonnull align 8 %5, i8 -86, i64 24, i1 false) #10
  call void @_ZNK9CJS_Field13GetFormFieldsEv(%"class.std::__1::vector.446"* nonnull sret %4, %class.CJS_Field* %1) #10
  %8 = load %class.CPDF_FormField**, %class.CPDF_FormField*** %6, align 8
  %9 = load %class.CPDF_FormField**, %class.CPDF_FormField*** %7, align 8
  %10 = icmp eq %class.CPDF_FormField** %8, %9
  br i1 %10, label %13, label %11

11:                                               ; preds = %3
  %12 = load %class.CPDF_FormField*, %class.CPDF_FormField** %8, align 8
  br label %13

13:                                               ; preds = %11, %3
  %14 = phi %class.CPDF_FormField* [ %12, %11 ], [ null, %3 ]
  %15 = icmp eq %class.CPDF_FormField** %8, null
  br i1 %15, label %20, label %16

16:                                               ; preds = %13
  %17 = ptrtoint %class.CPDF_FormField** %8 to i64
  %18 = bitcast %class.CPDF_FormField*** %7 to i64*
  store i64 %17, i64* %18, align 8
  %19 = bitcast %class.CPDF_FormField** %8 to i8*
  call void @_ZdlPv(i8* %19) #11
  br label %20

20:                                               ; preds = %13, %16
  call void @llvm.lifetime.end.p0i8(i64 24, i8* nonnull %5) #10
  %21 = icmp eq %class.CPDF_FormField* %14, null
  br i1 %21, label %22, label %23

22:                                               ; preds = %20
  call void @_ZN10CJS_ResultC1E9JSMessage(%class.CJS_Result* %0, i32 19) #10
  br label %56

23:                                               ; preds = %20
  %24 = call i32 @_ZNK14CPDF_FormField13CountControlsEv(%class.CPDF_FormField* nonnull %14) #10
  %25 = icmp eq i32 %24, 0
  br i1 %25, label %37, label %26

26:                                               ; preds = %23
  %27 = getelementptr inbounds %class.CJS_Field, %class.CJS_Field* %1, i64 0, i32 4
  %28 = load i32, i32* %27, align 8
  %29 = call i32 @_ZNK14CPDF_FormField13CountControlsEv(%class.CPDF_FormField* nonnull %14) #10
  %30 = icmp slt i32 %28, %29
  br i1 %30, label %31, label %37

31:                                               ; preds = %26
  %32 = load i32, i32* %27, align 8
  %33 = icmp sgt i32 %32, 0
  %34 = select i1 %33, i32 %32, i32 0
  %35 = call %class.CPDF_FormControl* @_ZNK14CPDF_FormField10GetControlEi(%class.CPDF_FormField* nonnull %14, i32 %34) #10
  %36 = icmp eq %class.CPDF_FormControl* %35, null
  br i1 %36, label %37, label %38

37:                                               ; preds = %23, %26, %31
  call void @_ZN10CJS_ResultC1E9JSMessage(%class.CJS_Result* %0, i32 19) #10
  br label %56

38:                                               ; preds = %31
  %39 = getelementptr inbounds %class.CJS_Field, %class.CJS_Field* %1, i64 0, i32 2, i32 1
  %40 = load %class.CPDFSDK_FormFillEnvironment*, %class.CPDFSDK_FormFillEnvironment** %39, align 8
  %41 = call %class.CPDFSDK_InteractiveForm* @_ZN27CPDFSDK_FormFillEnvironment18GetInteractiveFormEv(%class.CPDFSDK_FormFillEnvironment* %40) #10
  %42 = call i32 @_ZNK14CPDF_FormField13CountControlsEv(%class.CPDF_FormField* nonnull %14) #10
  %43 = icmp eq i32 %42, 0
  br i1 %43, label %44, label %45

44:                                               ; preds = %38
  call void @_ZN10CJS_ResultC1E9JSMessage(%class.CJS_Result* %0, i32 19) #10
  br label %56

45:                                               ; preds = %38
  %46 = call %class.CPDF_FormControl* @_ZNK14CPDF_FormField10GetControlEi(%class.CPDF_FormField* nonnull %14, i32 0) #10
  %47 = call %class.CPDFSDK_Widget* @_ZNK23CPDFSDK_InteractiveForm9GetWidgetEP16CPDF_FormControl(%class.CPDFSDK_InteractiveForm* %41, %class.CPDF_FormControl* %46) #10
  %48 = icmp eq %class.CPDFSDK_Widget* %47, null
  br i1 %48, label %49, label %50

49:                                               ; preds = %45
  call void @_ZN10CJS_ResultC1E9JSMessage(%class.CJS_Result* %0, i32 19) #10
  br label %56

50:                                               ; preds = %45
  %51 = getelementptr inbounds %class.CJS_Runtime, %class.CJS_Runtime* %2, i64 0, i32 1, i32 0
