; ModuleID = '../../gpu/command_buffer/client/client_transfer_cache.cc'
source_filename = "../../gpu/command_buffer/client/client_transfer_cache.cc"
target datalayout = "e-m:e-i64:64-f80:128-n8:16:32:64-S128"
target triple = "x86_64-unknown-linux-gnu"

module asm ".symver exp, exp@GLIBC_2.2.5"
module asm ".symver exp2, exp2@GLIBC_2.2.5"
module asm ".symver exp2f, exp2f@GLIBC_2.2.5"
module asm ".symver expf, expf@GLIBC_2.2.5"
module asm ".symver lgamma, lgamma@GLIBC_2.2.5"
module asm ".symver lgammaf, lgammaf@GLIBC_2.2.5"
module asm ".symver lgammal, lgammal@GLIBC_2.2.5"
module asm ".symver log, log@GLIBC_2.2.5"
module asm ".symver log2, log2@GLIBC_2.2.5"
module asm ".symver log2f, log2f@GLIBC_2.2.5"
module asm ".symver logf, logf@GLIBC_2.2.5"
module asm ".symver pow, pow@GLIBC_2.2.5"
module asm ".symver powf, powf@GLIBC_2.2.5"

%"class.gpu::ClientTransferCache" = type { %"class.gpu::ClientTransferCache::Client"*, %"class.absl::optional", %"class.absl::optional.18", %"class.base::Lock", %"class.gpu::ClientDiscardableManager", %"class.std::__1::map.41" }
%"class.absl::optional" = type { %"class.absl::optional_internal::optional_data" }
%"class.absl::optional_internal::optional_data" = type { %"class.absl::optional_internal::optional_data_base" }
%"class.absl::optional_internal::optional_data_base" = type { %"class.absl::optional_internal::optional_data_dtor_base" }
%"class.absl::optional_internal::optional_data_dtor_base" = type { i8, %union.anon }
%union.anon = type { %"class.gpu::ScopedMappedMemoryPtr" }
%"class.gpu::ScopedMappedMemoryPtr" = type { i8*, i32, i32, i32, i8, %"class.gpu::CommandBufferHelper"*, %"class.gpu::MappedMemoryManager"* }
%"class.gpu::CommandBufferHelper" = type opaque
%"class.gpu::MappedMemoryManager" = type <{ i32, [4 x i8], %"class.gpu::CommandBufferHelper"*, %"class.std::__1::vector", i64, i64, i64, i32, [4 x i8] }>
%"class.std::__1::vector" = type { %"class.std::__1::__vector_base" }
%"class.std::__1::__vector_base" = type { %"class.std::__1::unique_ptr"*, %"class.std::__1::unique_ptr"*, %"class.std::__1::__compressed_pair.13" }
%"class.std::__1::unique_ptr" = type { %"class.std::__1::__compressed_pair" }
%"class.std::__1::__compressed_pair" = type { %"struct.std::__1::__compressed_pair_elem" }
%"struct.std::__1::__compressed_pair_elem" = type { %"class.gpu::MemoryChunk"* }
%"class.gpu::MemoryChunk" = type { i32, %class.scoped_refptr, %"class.gpu::FencedAllocatorWrapper" }
%class.scoped_refptr = type { %"class.gpu::Buffer"* }
%"class.gpu::Buffer" = type <{ %"class.base::RefCountedThreadSafe", [4 x i8], %"class.std::__1::unique_ptr.1", i8*, i32, [4 x i8] }>
%"class.base::RefCountedThreadSafe" = type { %"class.base::subtle::RefCountedThreadSafeBase" }
%"class.base::subtle::RefCountedThreadSafeBase" = type { %"class.base::AtomicRefCount" }
%"class.base::AtomicRefCount" = type { %"struct.std::__1::atomic" }
%"struct.std::__1::atomic" = type { %"struct.std::__1::__atomic_base" }
%"struct.std::__1::__atomic_base" = type { %"struct.std::__1::__atomic_base.0" }
%"struct.std::__1::__atomic_base.0" = type { %"struct.std::__1::__cxx_atomic_impl" }
%"struct.std::__1::__cxx_atomic_impl" = type { %"struct.std::__1::__cxx_atomic_base_impl" }
%"struct.std::__1::__cxx_atomic_base_impl" = type { i32 }
%"class.std::__1::unique_ptr.1" = type { %"class.std::__1::__compressed_pair.2" }
%"class.std::__1::__compressed_pair.2" = type { %"struct.std::__1::__compressed_pair_elem.3" }
%"struct.std::__1::__compressed_pair_elem.3" = type { %"class.gpu::BufferBacking"* }
%"class.gpu::BufferBacking" = type { i32 (...)** }
%"class.gpu::FencedAllocatorWrapper" = type { %"class.gpu::FencedAllocator", i8* }
%"class.gpu::FencedAllocator" = type <{ %"class.gpu::CommandBufferHelper"*, %"class.std::__1::vector.5", i32, [4 x i8] }>
%"class.std::__1::vector.5" = type { %"class.std::__1::__vector_base.6" }
%"class.std::__1::__vector_base.6" = type { %"struct.gpu::FencedAllocator::Block"*, %"struct.gpu::FencedAllocator::Block"*, %"class.std::__1::__compressed_pair.7" }
%"struct.gpu::FencedAllocator::Block" = type { i32, i32, i32, i32 }
%"class.std::__1::__compressed_pair.7" = type { %"struct.std::__1::__compressed_pair_elem.8" }
%"struct.std::__1::__compressed_pair_elem.8" = type { %"struct.gpu::FencedAllocator::Block"* }
%"class.std::__1::__compressed_pair.13" = type { %"struct.std::__1::__compressed_pair_elem.14" }
%"struct.std::__1::__compressed_pair_elem.14" = type { %"class.std::__1::unique_ptr"* }
%"class.absl::optional.18" = type { %"class.absl::optional_internal::optional_data.19" }
%"class.absl::optional_internal::optional_data.19" = type { %"class.absl::optional_internal::optional_data_base.20" }
%"class.absl::optional_internal::optional_data_base.20" = type { %"class.absl::optional_internal::optional_data_dtor_base.21" }
%"class.absl::optional_internal::optional_data_dtor_base.21" = type { i8, %union.anon.22 }
%union.anon.22 = type { %"class.gpu::ScopedTransferBufferPtr" }
%"class.gpu::ScopedTransferBufferPtr" = type { i8*, i32, %"class.gpu::CommandBufferHelper"*, %"class.gpu::TransferBufferInterface"* }
%"class.gpu::TransferBufferInterface" = type { i32 (...)** }
%"class.base::Lock" = type { %"class.base::internal::LockImpl" }
%"class.base::internal::LockImpl" = type { %union.pthread_mutex_t }
%union.pthread_mutex_t = type { %struct.__pthread_mutex_s }
%struct.__pthread_mutex_s = type { i32, i32, i32, i32, i32, i16, i16, %struct.__pthread_internal_list }
%struct.__pthread_internal_list = type { %struct.__pthread_internal_list*, %struct.__pthread_internal_list* }
%"class.gpu::ClientDiscardableManager" = type { i32, i64, i32, %"class.std::__1::vector.25", %"class.std::__1::map", %"class.std::__1::queue" }
%"class.std::__1::vector.25" = type { %"class.std::__1::__vector_base.26" }
%"class.std::__1::__vector_base.26" = type { %"class.std::__1::unique_ptr.27"*, %"class.std::__1::unique_ptr.27"*, %"class.std::__1::__compressed_pair.28" }
%"class.std::__1::unique_ptr.27" = type opaque
%"class.std::__1::__compressed_pair.28" = type { %"struct.std::__1::__compressed_pair_elem.29" }
%"struct.std::__1::__compressed_pair_elem.29" = type { %"class.std::__1::unique_ptr.27"* }
%"class.std::__1::map" = type { %"class.std::__1::__tree" }
%"class.std::__1::__tree" = type { %"class.std::__1::__tree_end_node"*, %"class.std::__1::__compressed_pair.33", %"class.std::__1::__compressed_pair.38" }
%"class.std::__1::__tree_end_node" = type { %"class.std::__1::__tree_node_base"* }
%"class.std::__1::__tree_node_base" = type <{ %"class.std::__1::__tree_end_node", %"class.std::__1::__tree_node_base"*, %"class.std::__1::__tree_end_node"*, i8, [7 x i8] }>
%"class.std::__1::__compressed_pair.33" = type { %"struct.std::__1::__compressed_pair_elem.34" }
%"struct.std::__1::__compressed_pair_elem.34" = type { %"class.std::__1::__tree_end_node" }
%"class.std::__1::__compressed_pair.38" = type { %"struct.std::__1::__compressed_pair_elem.39" }
%"struct.std::__1::__compressed_pair_elem.39" = type { i64 }
%"class.std::__1::queue" = type { %"class.base::circular_deque" }
%"class.base::circular_deque" = type { %"class.base::internal::VectorBuffer", i64, i64 }
%"class.base::internal::VectorBuffer" = type { %"class.gpu::ClientDiscardableHandle"*, i64 }
%"class.gpu::ClientDiscardableHandle" = type { %"class.gpu::DiscardableHandleBase" }
%"class.gpu::DiscardableHandleBase" = type { %class.scoped_refptr, i32, i32 }
%"class.std::__1::map.41" = type { %"class.std::__1::__tree.42" }
%"class.std::__1::__tree.42" = type { %"class.std::__1::__tree_end_node"*, %"class.std::__1::__compressed_pair.43", %"class.std::__1::__compressed_pair.47" }
%"class.std::__1::__compressed_pair.43" = type { %"struct.std::__1::__compressed_pair_elem.34" }
%"class.std::__1::__compressed_pair.47" = type { %"struct.std::__1::__compressed_pair_elem.39" }
%"class.gpu::ClientTransferCache::Client" = type { i32 (...)** }
%"class.std::__1::__tree_node" = type { %"class.std::__1::__tree_node_base.base", %"struct.std::__1::__value_type" }
%"class.std::__1::__tree_node_base.base" = type <{ %"class.std::__1::__tree_end_node", %"class.std::__1::__tree_node_base"*, %"class.std::__1::__tree_end_node"*, i8 }>
%"struct.std::__1::__value_type" = type { %"struct.std::__1::pair.62" }
%"struct.std::__1::pair.62" = type { %"struct.std::__1::pair", %"class.util::IdType" }
%"struct.std::__1::pair" = type { i32, i32 }
%"class.util::IdType" = type { %"class.base::StrongAlias" }
%"class.base::StrongAlias" = type { i32 }
%"class.gpu::CommandBuffer" = type { i32 (...)** }
%"class.base::OnceCallback" = type { %"class.base::internal::CallbackBase" }
%"class.base::internal::CallbackBase" = type { %class.scoped_refptr.52 }
%class.scoped_refptr.52 = type { %"class.base::internal::BindStateBase"* }
%"class.base::internal::BindStateBase" = type { %"class.base::RefCountedThreadSafe.53", void ()*, void (%"class.base::internal::BindStateBase"*)*, i1 (%"class.base::internal::BindStateBase"*, i32)* }
%"class.base::RefCountedThreadSafe.53" = type { %"class.base::subtle::RefCountedThreadSafeBase" }
%"class.std::__1::vector.55" = type { %"class.std::__1::__vector_base.56" }
%"class.std::__1::__vector_base.56" = type { %"struct.std::__1::pair"*, %"struct.std::__1::pair"*, %"class.std::__1::__compressed_pair.57" }
%"class.std::__1::__compressed_pair.57" = type { %"struct.std::__1::__compressed_pair_elem.58" }
%"struct.std::__1::__compressed_pair_elem.58" = type { %"struct.std::__1::pair"* }

$_ZNSt3__16__treeINS_12__value_typeINS_4pairIjjEEN4util6IdTypeIN3gpu23ClientDiscardableHandleEiLi0ELi1EEEEENS_19__map_value_compareIS3_S9_NS_4lessIS3_EELb1EEENS_9allocatorIS9_EEE7destroyEPNS_11__tree_nodeIS9_PvEE = comdat any

$_ZNSt3__16__treeINS_12__value_typeINS_4pairIjjEEN4util6IdTypeIN3gpu23ClientDiscardableHandleEiLi0ELi1EEEEENS_19__map_value_compareIS3_S9_NS_4lessIS3_EELb1EEENS_9allocatorIS9_EEE25__emplace_unique_key_argsIS3_JRKS3_RS8_EEENS2_INS_15__tree_iteratorIS9_PNS_11__tree_nodeIS9_PvEElEEbEERKT_DpOT0_ = comdat any

$_ZNSt3__127__tree_balance_after_insertIPNS_16__tree_node_baseIPvEEEEvT_S5_ = comdat any

$_ZNSt3__16__treeINS_12__value_typeINS_4pairIjjEEN4util6IdTypeIN3gpu23ClientDiscardableHandleEiLi0ELi1EEEEENS_19__map_value_compareIS3_S9_NS_4lessIS3_EELb1EEENS_9allocatorIS9_EEE14__erase_uniqueIS3_EEmRKT_ = comdat any

$_ZNSt3__113__tree_removeIPNS_16__tree_node_baseIPvEEEEvT_S5_ = comdat any

@_ZN3gpu19ClientTransferCacheC1EPNS0_6ClientE = hidden unnamed_addr alias void (%"class.gpu::ClientTransferCache"*, %"class.gpu::ClientTransferCache::Client"*), void (%"class.gpu::ClientTransferCache"*, %"class.gpu::ClientTransferCache::Client"*)* @_ZN3gpu19ClientTransferCacheC2EPNS0_6ClientE
@_ZN3gpu19ClientTransferCacheD1Ev = hidden unnamed_addr alias void (%"class.gpu::ClientTransferCache"*), void (%"class.gpu::ClientTransferCache"*)* @_ZN3gpu19ClientTransferCacheD2Ev

; Function Attrs: nounwind ssp uwtable
define hidden void @_ZN3gpu19ClientTransferCacheC2EPNS0_6ClientE(%"class.gpu::ClientTransferCache"*, %"class.gpu::ClientTransferCache::Client"*) unnamed_addr #0 align 2 {
  %3 = getelementptr inbounds %"class.gpu::ClientTransferCache", %"class.gpu::ClientTransferCache"* %0, i64 0, i32 0
  store %"class.gpu::ClientTransferCache::Client"* %1, %"class.gpu::ClientTransferCache::Client"** %3, align 8
  %4 = getelementptr inbounds %"class.gpu::ClientTransferCache", %"class.gpu::ClientTransferCache"* %0, i64 0, i32 1, i32 0, i32 0, i32 0, i32 0
  store i8 0, i8* %4, align 8
  %5 = getelementptr inbounds %"class.gpu::ClientTransferCache", %"class.gpu::ClientTransferCache"* %0, i64 0, i32 1, i32 0, i32 0, i32 0, i32 1
  %6 = getelementptr inbounds %"class.gpu::ClientTransferCache", %"class.gpu::ClientTransferCache"* %0, i64 0, i32 2, i32 0, i32 0, i32 0, i32 1
  %7 = bitcast %union.anon.22* %6 to i8*
  tail call void @llvm.memset.p0i8.i64(i8* align 8 %7, i8 0, i64 32, i1 false) #8
  %8 = getelementptr inbounds %"class.gpu::ClientTransferCache", %"class.gpu::ClientTransferCache"* %0, i64 0, i32 3, i32 0
  %9 = bitcast %union.anon* %5 to i8*
  call void @llvm.memset.p0i8.i64(i8* align 8 %9, i8 0, i64 41, i1 false)
  tail call void @_ZN4base8internal8LockImplC1Ev(%"class.base::internal::LockImpl"* %8) #8
  %10 = getelementptr inbounds %"class.gpu::ClientTransferCache", %"class.gpu::ClientTransferCache"* %0, i64 0, i32 4
  tail call void @_ZN3gpu24ClientDiscardableManagerC1Ev(%"class.gpu::ClientDiscardableManager"* %10) #8
  %11 = getelementptr inbounds %"class.gpu::ClientTransferCache", %"class.gpu::ClientTransferCache"* %0, i64 0, i32 5, i32 0, i32 1, i32 0, i32 0, i32 0
  %12 = getelementptr inbounds %"class.gpu::ClientTransferCache", %"class.gpu::ClientTransferCache"* %0, i64 0, i32 5, i32 0, i32 1, i32 0, i32 0
  %13 = getelementptr inbounds %"class.gpu::ClientTransferCache", %"class.gpu::ClientTransferCache"* %0, i64 0, i32 5, i32 0, i32 0
  %14 = bitcast %"class.std::__1::__tree_node_base"** %11 to i8*
  tail call void @llvm.memset.p0i8.i64(i8* align 8 %14, i8 0, i64 16, i1 false) #8
  store %"class.std::__1::__tree_end_node"* %12, %"class.std::__1::__tree_end_node"** %13, align 8
  ret void
}

declare void @_ZN3gpu24ClientDiscardableManagerC1Ev(%"class.gpu::ClientDiscardableManager"*) unnamed_addr #1

; Function Attrs: nounwind ssp uwtable
define hidden void @_ZN3gpu19ClientTransferCacheD2Ev(%"class.gpu::ClientTransferCache"*) unnamed_addr #0 align 2 {
  %2 = getelementptr inbounds %"class.gpu::ClientTransferCache", %"class.gpu::ClientTransferCache"* %0, i64 0, i32 5, i32 0
  %3 = getelementptr inbounds %"class.gpu::ClientTransferCache", %"class.gpu::ClientTransferCache"* %0, i64 0, i32 5, i32 0, i32 1, i32 0, i32 0
  %4 = bitcast %"class.std::__1::__tree_end_node"* %3 to %"class.std::__1::__tree_node"**
  %5 = load %"class.std::__1::__tree_node"*, %"class.std::__1::__tree_node"** %4, align 8
  tail call void @_ZNSt3__16__treeINS_12__value_typeINS_4pairIjjEEN4util6IdTypeIN3gpu23ClientDiscardableHandleEiLi0ELi1EEEEENS_19__map_value_compareIS3_S9_NS_4lessIS3_EELb1EEENS_9allocatorIS9_EEE7destroyEPNS_11__tree_nodeIS9_PvEE(%"class.std::__1::__tree.42"* %2, %"class.std::__1::__tree_node"* %5) #8
  %6 = getelementptr inbounds %"class.gpu::ClientTransferCache", %"class.gpu::ClientTransferCache"* %0, i64 0, i32 4
  tail call void @_ZN3gpu24ClientDiscardableManagerD1Ev(%"class.gpu::ClientDiscardableManager"* %6) #8
  %7 = getelementptr inbounds %"class.gpu::ClientTransferCache", %"class.gpu::ClientTransferCache"* %0, i64 0, i32 3, i32 0
  tail call void @_ZN4base8internal8LockImplD1Ev(%"class.base::internal::LockImpl"* %7) #8
  %8 = getelementptr inbounds %"class.gpu::ClientTransferCache", %"class.gpu::ClientTransferCache"* %0, i64 0, i32 2, i32 0, i32 0, i32 0, i32 0
  %9 = load i8, i8* %8, align 8, !range !2
  %10 = icmp eq i8 %9, 0
  br i1 %10, label %13, label %11

11:                                               ; preds = %1
  %12 = getelementptr inbounds %"class.gpu::ClientTransferCache", %"class.gpu::ClientTransferCache"* %0, i64 0, i32 2, i32 0, i32 0, i32 0, i32 1, i32 0
  tail call void @_ZN3gpu23ScopedTransferBufferPtr7ReleaseEv(%"class.gpu::ScopedTransferBufferPtr"* %12) #8
  store i8 0, i8* %8, align 8
  br label %13

13:                                               ; preds = %1, %11
  %14 = getelementptr inbounds %"class.gpu::ClientTransferCache", %"class.gpu::ClientTransferCache"* %0, i64 0, i32 1, i32 0, i32 0, i32 0, i32 0
  %15 = load i8, i8* %14, align 8, !range !2
  %16 = icmp eq i8 %15, 0
  br i1 %16, label %19, label %17

17:                                               ; preds = %13
  %18 = getelementptr inbounds %"class.gpu::ClientTransferCache", %"class.gpu::ClientTransferCache"* %0, i64 0, i32 1, i32 0, i32 0, i32 0, i32 1, i32 0
  tail call void @_ZN3gpu21ScopedMappedMemoryPtr7ReleaseEv(%"class.gpu::ScopedMappedMemoryPtr"* %18) #8
  store i8 0, i8* %14, align 8
  br label %19

19:                                               ; preds = %13, %17
  ret void
}

; Function Attrs: nounwind
declare void @_ZN3gpu24ClientDiscardableManagerD1Ev(%"class.gpu::ClientDiscardableManager"*) unnamed_addr #2

; Function Attrs: nounwind ssp uwtable
define hidden i8* @_ZN3gpu19ClientTransferCache8MapEntryEPNS_19MappedMemoryManagerEj(%"class.gpu::ClientTransferCache"*, %"class.gpu::MappedMemoryManager"*, i32) local_unnamed_addr #0 align 2 {
  %4 = ptrtoint %"class.gpu::MappedMemoryManager"* %1 to i64
  %5 = getelementptr inbounds %"class.gpu::ClientTransferCache", %"class.gpu::ClientTransferCache"* %0, i64 0, i32 0
  %6 = load %"class.gpu::ClientTransferCache::Client"*, %"class.gpu::ClientTransferCache::Client"** %5, align 8
  %7 = bitcast %"class.gpu::ClientTransferCache::Client"* %6 to %"class.gpu::CommandBufferHelper"* (%"class.gpu::ClientTransferCache::Client"*)***
  %8 = load %"class.gpu::CommandBufferHelper"* (%"class.gpu::ClientTransferCache::Client"*)**, %"class.gpu::CommandBufferHelper"* (%"class.gpu::ClientTransferCache::Client"*)*** %7, align 8
  %9 = getelementptr inbounds %"class.gpu::CommandBufferHelper"* (%"class.gpu::ClientTransferCache::Client"*)*, %"class.gpu::CommandBufferHelper"* (%"class.gpu::ClientTransferCache::Client"*)** %8, i64 3
  %10 = load %"class.gpu::CommandBufferHelper"* (%"class.gpu::ClientTransferCache::Client"*)*, %"class.gpu::CommandBufferHelper"* (%"class.gpu::ClientTransferCache::Client"*)** %9, align 8
  %11 = tail call %"class.gpu::CommandBufferHelper"* %10(%"class.gpu::ClientTransferCache::Client"* %6) #8
  %12 = ptrtoint %"class.gpu::CommandBufferHelper"* %11 to i64
  %13 = getelementptr inbounds %"class.gpu::ClientTransferCache", %"class.gpu::ClientTransferCache"* %0, i64 0, i32 1, i32 0, i32 0, i32 0, i32 0
  %14 = load i8, i8* %13, align 8, !range !2
  %15 = icmp eq i8 %14, 0
  br i1 %15, label %18, label %16

16:                                               ; preds = %3
  %17 = getelementptr inbounds %"class.gpu::ClientTransferCache", %"class.gpu::ClientTransferCache"* %0, i64 0, i32 1, i32 0, i32 0, i32 0, i32 1, i32 0
  tail call void @_ZN3gpu21ScopedMappedMemoryPtr7ReleaseEv(%"class.gpu::ScopedMappedMemoryPtr"* %17) #8
  store i8 0, i8* %13, align 8
  br label %18

18:                                               ; preds = %16, %3
  %19 = getelementptr inbounds %"class.gpu::ClientTransferCache", %"class.gpu::ClientTransferCache"* %0, i64 0, i32 1, i32 0, i32 0, i32 0, i32 1, i32 0
  %20 = getelementptr inbounds %"class.gpu::ClientTransferCache", %"class.gpu::ClientTransferCache"* %0, i64 0, i32 1, i32 0, i32 0, i32 0, i32 1, i32 0, i32 5
  %21 = bitcast %"class.gpu::ScopedMappedMemoryPtr"* %19 to i8*
  tail call void @llvm.memset.p0i8.i64(i8* align 8 %21, i8 0, i64 21, i1 false) #8
  %22 = bitcast %"class.gpu::CommandBufferHelper"** %20 to i64*
  store i64 %12, i64* %22, align 8
  %23 = getelementptr inbounds %"class.gpu::ClientTransferCache", %"class.gpu::ClientTransferCache"* %0, i64 0, i32 1, i32 0, i32 0, i32 0, i32 1, i32 0, i32 6
  %24 = bitcast %"class.gpu::MappedMemoryManager"** %23 to i64*
  store i64 %4, i64* %24, align 8
  tail call void @_ZN3gpu21ScopedMappedMemoryPtr5ResetEj(%"class.gpu::ScopedMappedMemoryPtr"* %19, i32 %2) #8
  store i8 1, i8* %13, align 8
  %25 = getelementptr inbounds %"class.gpu::ScopedMappedMemoryPtr", %"class.gpu::ScopedMappedMemoryPtr"* %19, i64 0, i32 0
  %26 = load i8*, i8** %25, align 8
  %27 = icmp eq i8* %26, null
  br i1 %27, label %28, label %29

28:                                               ; preds = %18
  tail call void @_ZN3gpu21ScopedMappedMemoryPtr7ReleaseEv(%"class.gpu::ScopedMappedMemoryPtr"* %19) #8
  store i8 0, i8* %13, align 8
  br label %29

29:                                               ; preds = %18, %28
  ret i8* %26
}

; Function Attrs: argmemonly nounwind
declare void @llvm.lifetime.start.p0i8(i64 immarg, i8* nocapture) #3

; Function Attrs: argmemonly nounwind
declare void @llvm.lifetime.end.p0i8(i64 immarg, i8* nocapture) #3

; Function Attrs: nounwind ssp uwtable
define hidden i8* @_ZN3gpu19ClientTransferCache22MapTransferBufferEntryEPNS_23TransferBufferInterfaceEj(%"class.gpu::ClientTransferCache"*, %"class.gpu::TransferBufferInterface"*, i32) local_unnamed_addr #0 align 2 {
  %4 = ptrtoint %"class.gpu::TransferBufferInterface"* %1 to i64
  %5 = getelementptr inbounds %"class.gpu::ClientTransferCache", %"class.gpu::ClientTransferCache"* %0, i64 0, i32 0
  %6 = load %"class.gpu::ClientTransferCache::Client"*, %"class.gpu::ClientTransferCache::Client"** %5, align 8
  %7 = bitcast %"class.gpu::ClientTransferCache::Client"* %6 to %"class.gpu::CommandBufferHelper"* (%"class.gpu::ClientTransferCache::Client"*)***
  %8 = load %"class.gpu::CommandBufferHelper"* (%"class.gpu::ClientTransferCache::Client"*)**, %"class.gpu::CommandBufferHelper"* (%"class.gpu::ClientTransferCache::Client"*)*** %7, align 8
  %9 = getelementptr inbounds %"class.gpu::CommandBufferHelper"* (%"class.gpu::ClientTransferCache::Client"*)*, %"class.gpu::CommandBufferHelper"* (%"class.gpu::ClientTransferCache::Client"*)** %8, i64 3
  %10 = load %"class.gpu::CommandBufferHelper"* (%"class.gpu::ClientTransferCache::Client"*)*, %"class.gpu::CommandBufferHelper"* (%"class.gpu::ClientTransferCache::Client"*)** %9, align 8
  %11 = tail call %"class.gpu::CommandBufferHelper"* %10(%"class.gpu::ClientTransferCache::Client"* %6) #8
  %12 = ptrtoint %"class.gpu::CommandBufferHelper"* %11 to i64
  %13 = getelementptr inbounds %"class.gpu::ClientTransferCache", %"class.gpu::ClientTransferCache"* %0, i64 0, i32 2, i32 0, i32 0, i32 0, i32 0
  %14 = load i8, i8* %13, align 8, !range !2
  %15 = icmp eq i8 %14, 0
  br i1 %15, label %18, label %16

16:                                               ; preds = %3
  %17 = getelementptr inbounds %"class.gpu::ClientTransferCache", %"class.gpu::ClientTransferCache"* %0, i64 0, i32 2, i32 0, i32 0, i32 0, i32 1, i32 0
  tail call void @_ZN3gpu23ScopedTransferBufferPtr7ReleaseEv(%"class.gpu::ScopedTransferBufferPtr"* %17) #8
  store i8 0, i8* %13, align 8
  br label %18

18:                                               ; preds = %16, %3
  %19 = getelementptr inbounds %"class.gpu::ClientTransferCache", %"class.gpu::ClientTransferCache"* %0, i64 0, i32 2, i32 0, i32 0, i32 0, i32 1, i32 0
  %20 = getelementptr inbounds %"class.gpu::ScopedTransferBufferPtr", %"class.gpu::ScopedTransferBufferPtr"* %19, i64 0, i32 0
  store i8* null, i8** %20, align 8
  %21 = getelementptr inbounds %"class.gpu::ClientTransferCache", %"class.gpu::ClientTransferCache"* %0, i64 0, i32 2, i32 0, i32 0, i32 0, i32 1, i32 0, i32 1
  store i32 0, i32* %21, align 8
  %22 = getelementptr inbounds %"class.gpu::ClientTransferCache", %"class.gpu::ClientTransferCache"* %0, i64 0, i32 2, i32 0, i32 0, i32 0, i32 1, i32 0, i32 2
  %23 = bitcast %"class.gpu::CommandBufferHelper"** %22 to i64*
  store i64 %12, i64* %23, align 8
  %24 = getelementptr inbounds %"class.gpu::ClientTransferCache", %"class.gpu::ClientTransferCache"* %0, i64 0, i32 2, i32 0, i32 0, i32 0, i32 1, i32 0, i32 3
  %25 = bitcast %"class.gpu::TransferBufferInterface"** %24 to i64*
  store i64 %4, i64* %25, align 8
  tail call void @_ZN3gpu23ScopedTransferBufferPtr5ResetEj(%"class.gpu::ScopedTransferBufferPtr"* %19, i32 %2) #8
  store i8 1, i8* %13, align 8
  %26 = load i8*, i8** %20, align 8
  %27 = icmp eq i8* %26, null
  br i1 %27, label %28, label %29

28:                                               ; preds = %18
  tail call void @_ZN3gpu23ScopedTransferBufferPtr7ReleaseEv(%"class.gpu::ScopedTransferBufferPtr"* %19) #8
  store i8 0, i8* %13, align 8
  br label %29

29:                                               ; preds = %18, %28
  ret i8* %26
}

; Function Attrs: nounwind ssp uwtable
define hidden void @_ZN3gpu19ClientTransferCache19UnmapAndCreateEntryEjj(%"class.gpu::ClientTransferCache"*, i32, i32) local_unnamed_addr #0 align 2 {
  %4 = alloca %"struct.std::__1::pair", align 4
  %5 = alloca %"class.gpu::ClientDiscardableHandle", align 8
  %6 = bitcast %"struct.std::__1::pair"* %4 to i8*
  call void @llvm.lifetime.start.p0i8(i64 8, i8* nonnull %6) #8
  %7 = getelementptr inbounds %"struct.std::__1::pair", %"struct.std::__1::pair"* %4, i64 0, i32 0
  %8 = getelementptr inbounds %"struct.std::__1::pair", %"struct.std::__1::pair"* %4, i64 0, i32 1
  store i32 %1, i32* %7, align 4
  store i32 %2, i32* %8, align 4
  %9 = getelementptr inbounds %"class.gpu::ClientTransferCache", %"class.gpu::ClientTransferCache"* %0, i64 0, i32 3
  %10 = getelementptr inbounds %"class.base::Lock", %"class.base::Lock"* %9, i64 0, i32 0, i32 0
  %11 = tail call i32 @pthread_mutex_trylock(%union.pthread_mutex_t* %10) #8
  %12 = icmp eq i32 %11, 0
  br i1 %12, label %15, label %13, !prof !3

13:                                               ; preds = %3
  %14 = getelementptr inbounds %"class.base::Lock", %"class.base::Lock"* %9, i64 0, i32 0
  tail call void @_ZN4base8internal8LockImpl24LockInternalWithTrackingEv(%"class.base::internal::LockImpl"* %14) #8
  br label %15

15:                                               ; preds = %3, %13
  %16 = bitcast %"class.gpu::ClientDiscardableHandle"* %5 to i8*
  call void @llvm.lifetime.start.p0i8(i64 16, i8* nonnull %16) #8
  %17 = getelementptr inbounds %"class.gpu::ClientDiscardableHandle", %"class.gpu::ClientDiscardableHandle"* %5, i64 0, i32 0, i32 2
  %18 = bitcast %"class.gpu::ClientDiscardableHandle"* %5 to i8*
  call void @llvm.memset.p0i8.i64(i8* nonnull align 8 %18, i8 -86, i64 16, i1 false)
  call void @_ZN3gpu19ClientTransferCache23CreateDiscardableHandleERKNSt3__14pairIjjEE(%"class.gpu::ClientDiscardableHandle"* nonnull sret %5, %"class.gpu::ClientTransferCache"* %0, %"struct.std::__1::pair"* nonnull dereferenceable(8) %4)
  %19 = load i32, i32* %17, align 4
  %20 = icmp sgt i32 %19, 0
  %21 = getelementptr inbounds %"class.gpu::ClientTransferCache", %"class.gpu::ClientTransferCache"* %0, i64 0, i32 1, i32 0, i32 0, i32 0, i32 0
  %22 = load i8, i8* %21, align 8, !range !2
  %23 = icmp eq i8 %22, 0
  br i1 %20, label %33, label %24

24:                                               ; preds = %15
  br i1 %23, label %27, label %25

25:                                               ; preds = %24
  %26 = getelementptr inbounds %"class.gpu::ClientTransferCache", %"class.gpu::ClientTransferCache"* %0, i64 0, i32 1, i32 0, i32 0, i32 0, i32 1, i32 0
  call void @_ZN3gpu21ScopedMappedMemoryPtr7ReleaseEv(%"class.gpu::ScopedMappedMemoryPtr"* %26) #8
  store i8 0, i8* %21, align 8
  br label %27

27:                                               ; preds = %24, %25
  %28 = getelementptr inbounds %"class.gpu::ClientTransferCache", %"class.gpu::ClientTransferCache"* %0, i64 0, i32 2, i32 0, i32 0, i32 0, i32 0
  %29 = load i8, i8* %28, align 8, !range !2
  %30 = icmp eq i8 %29, 0
  br i1 %30, label %90, label %31

31:                                               ; preds = %27
  %32 = getelementptr inbounds %"class.gpu::ClientTransferCache", %"class.gpu::ClientTransferCache"* %0, i64 0, i32 2, i32 0, i32 0, i32 0, i32 1, i32 0
  call void @_ZN3gpu23ScopedTransferBufferPtr7ReleaseEv(%"class.gpu::ScopedTransferBufferPtr"* %32) #8
  store i8 0, i8* %28, align 8
  br label %90

33:                                               ; preds = %15
  %34 = getelementptr inbounds %"class.gpu::ClientDiscardableHandle", %"class.gpu::ClientDiscardableHandle"* %5, i64 0, i32 0, i32 1
  %35 = getelementptr inbounds %"class.gpu::ClientTransferCache", %"class.gpu::ClientTransferCache"* %0, i64 0, i32 0
  %36 = load %"class.gpu::ClientTransferCache::Client"*, %"class.gpu::ClientTransferCache::Client"** %35, align 8
  %37 = load i32, i32* %34, align 8
  br i1 %23, label %52, label %38

38:                                               ; preds = %33
  %39 = getelementptr inbounds %"class.gpu::ClientTransferCache", %"class.gpu::ClientTransferCache"* %0, i64 0, i32 1, i32 0, i32 0, i32 0, i32 1, i32 0, i32 2
  %40 = load i32, i32* %39, align 4
  %41 = getelementptr inbounds %"class.gpu::ClientTransferCache", %"class.gpu::ClientTransferCache"* %0, i64 0, i32 1, i32 0, i32 0, i32 0, i32 1, i32 0, i32 3
  %42 = load i32, i32* %41, align 8
  %43 = getelementptr inbounds %"class.gpu::ClientTransferCache", %"class.gpu::ClientTransferCache"* %0, i64 0, i32 1, i32 0, i32 0, i32 0, i32 1, i32 0, i32 1
  %44 = load i32, i32* %43, align 8
  %45 = bitcast %"class.gpu::ClientTransferCache::Client"* %36 to void (%"class.gpu::ClientTransferCache::Client"*, i32, i32, i32, i32, i32, i32, i32)***
  %46 = load void (%"class.gpu::ClientTransferCache::Client"*, i32, i32, i32, i32, i32, i32, i32)**, void (%"class.gpu::ClientTransferCache::Client"*, i32, i32, i32, i32, i32, i32, i32)*** %45, align 8
  %47 = load void (%"class.gpu::ClientTransferCache::Client"*, i32, i32, i32, i32, i32, i32, i32)*, void (%"class.gpu::ClientTransferCache::Client"*, i32, i32, i32, i32, i32, i32, i32)** %46, align 8
  call void %47(%"class.gpu::ClientTransferCache::Client"* %36, i32 %1, i32 %2, i32 %19, i32 %37, i32 %40, i32 %42, i32 %44) #8
  %48 = load i8, i8* %21, align 8, !range !2
  %49 = icmp eq i8 %48, 0
  br i1 %49, label %90, label %50

50:                                               ; preds = %38
  %51 = getelementptr inbounds %"class.gpu::ClientTransferCache", %"class.gpu::ClientTransferCache"* %0, i64 0, i32 1, i32 0, i32 0, i32 0, i32 1, i32 0
  call void @_ZN3gpu21ScopedMappedMemoryPtr7ReleaseEv(%"class.gpu::ScopedMappedMemoryPtr"* %51) #8
  store i8 0, i8* %21, align 8
  br label %90

52:                                               ; preds = %33
  %53 = getelementptr inbounds %"class.gpu::ClientTransferCache", %"class.gpu::ClientTransferCache"* %0, i64 0, i32 2, i32 0, i32 0, i32 0, i32 0
  %54 = load i8, i8* %53, align 8, !range !2
  %55 = icmp eq i8 %54, 0
  br i1 %55, label %56, label %57, !prof !4

56:                                               ; preds = %52
  call void @llvm.trap() #8
  unreachable

57:                                               ; preds = %52
  %58 = getelementptr inbounds %"class.gpu::ClientTransferCache", %"class.gpu::ClientTransferCache"* %0, i64 0, i32 2, i32 0, i32 0, i32 0, i32 1, i32 0
  %59 = getelementptr inbounds %"class.gpu::ClientTransferCache", %"class.gpu::ClientTransferCache"* %0, i64 0, i32 2, i32 0, i32 0, i32 0, i32 1, i32 0, i32 3
  %60 = load %"class.gpu::TransferBufferInterface"*, %"class.gpu::TransferBufferInterface"** %59, align 8
  %61 = bitcast %"class.gpu::TransferBufferInterface"* %60 to i32 (%"class.gpu::TransferBufferInterface"*)***
  %62 = load i32 (%"class.gpu::TransferBufferInterface"*)**, i32 (%"class.gpu::TransferBufferInterface"*)*** %61, align 8
  %63 = getelementptr inbounds i32 (%"class.gpu::TransferBufferInterface"*)*, i32 (%"class.gpu::TransferBufferInterface"*)** %62, i64 4
  %64 = load i32 (%"class.gpu::TransferBufferInterface"*)*, i32 (%"class.gpu::TransferBufferInterface"*)** %63, align 8
  %65 = call i32 %64(%"class.gpu::TransferBufferInterface"* %60) #8
  %66 = load i8, i8* %53, align 8, !range !2
  %67 = icmp eq i8 %66, 0
  br i1 %67, label %68, label %69, !prof !4

68:                                               ; preds = %57
  call void @llvm.trap() #8
  unreachable

69:                                               ; preds = %57
  %70 = load %"class.gpu::TransferBufferInterface"*, %"class.gpu::TransferBufferInterface"** %59, align 8
  %71 = getelementptr inbounds %"class.gpu::ScopedTransferBufferPtr", %"class.gpu::ScopedTransferBufferPtr"* %58, i64 0, i32 0
  %72 = load i8*, i8** %71, align 8
  %73 = bitcast %"class.gpu::TransferBufferInterface"* %70 to i32 (%"class.gpu::TransferBufferInterface"*, i8*)***
  %74 = load i32 (%"class.gpu::TransferBufferInterface"*, i8*)**, i32 (%"class.gpu::TransferBufferInterface"*, i8*)*** %73, align 8
  %75 = getelementptr inbounds i32 (%"class.gpu::TransferBufferInterface"*, i8*)*, i32 (%"class.gpu::TransferBufferInterface"*, i8*)** %74, i64 9
  %76 = load i32 (%"class.gpu::TransferBufferInterface"*, i8*)*, i32 (%"class.gpu::TransferBufferInterface"*, i8*)** %75, align 8
  %77 = call i32 %76(%"class.gpu::TransferBufferInterface"* %70, i8* %72) #8
  %78 = load i8, i8* %53, align 8, !range !2
  %79 = icmp eq i8 %78, 0
  br i1 %79, label %80, label %81, !prof !4

80:                                               ; preds = %69
  call void @llvm.trap() #8
  unreachable

81:                                               ; preds = %69
  %82 = getelementptr inbounds %"class.gpu::ClientTransferCache", %"class.gpu::ClientTransferCache"* %0, i64 0, i32 2, i32 0, i32 0, i32 0, i32 1, i32 0, i32 1
  %83 = load i32, i32* %82, align 8
  %84 = bitcast %"class.gpu::ClientTransferCache::Client"* %36 to void (%"class.gpu::ClientTransferCache::Client"*, i32, i32, i32, i32, i32, i32, i32)***
  %85 = load void (%"class.gpu::ClientTransferCache::Client"*, i32, i32, i32, i32, i32, i32, i32)**, void (%"class.gpu::ClientTransferCache::Client"*, i32, i32, i32, i32, i32, i32, i32)*** %84, align 8
  %86 = load void (%"class.gpu::ClientTransferCache::Client"*, i32, i32, i32, i32, i32, i32, i32)*, void (%"class.gpu::ClientTransferCache::Client"*, i32, i32, i32, i32, i32, i32, i32)** %85, align 8
  call void %86(%"class.gpu::ClientTransferCache::Client"* %36, i32 %1, i32 %2, i32 %19, i32 %37, i32 %65, i32 %77, i32 %83) #8
  %87 = load i8, i8* %53, align 8, !range !2
  %88 = icmp eq i8 %87, 0
  br i1 %88, label %90, label %89

89:                                               ; preds = %81
  call void @_ZN3gpu23ScopedTransferBufferPtr7ReleaseEv(%"class.gpu::ScopedTransferBufferPtr"* %58) #8
  store i8 0, i8* %53, align 8
  br label %90

90:                                               ; preds = %89, %81, %50, %38, %31, %27
  %91 = getelementptr inbounds %"class.gpu::ClientDiscardableHandle", %"class.gpu::ClientDiscardableHandle"* %5, i64 0, i32 0
  call void @_ZN3gpu21DiscardableHandleBaseD2Ev(%"class.gpu::DiscardableHandleBase"* nonnull %91) #8
  call void @llvm.lifetime.end.p0i8(i64 16, i8* nonnull %16) #8
  %92 = call i32 @pthread_mutex_unlock(%union.pthread_mutex_t* %10) #8
  call void @llvm.lifetime.end.p0i8(i64 8, i8* nonnull %6) #8
  ret void
}

; Function Attrs: nounwind ssp uwtable
define hidden void @_ZN3gpu19ClientTransferCache23CreateDiscardableHandleERKNSt3__14pairIjjEE(%"class.gpu::ClientDiscardableHandle"* noalias sret, %"class.gpu::ClientTransferCache"*, %"struct.std::__1::pair"* dereferenceable(8)) local_unnamed_addr #0 align 2 {
  %4 = alloca %"class.util::IdType", align 4
  %5 = alloca %"class.gpu::ClientDiscardableHandle", align 8
  %6 = bitcast %"class.util::IdType"* %4 to i8*
  call void @llvm.lifetime.start.p0i8(i64 4, i8* nonnull %6) #8
  %7 = getelementptr inbounds %"class.util::IdType", %"class.util::IdType"* %4, i64 0, i32 0, i32 0
  %8 = getelementptr inbounds %"class.gpu::ClientTransferCache", %"class.gpu::ClientTransferCache"* %1, i64 0, i32 4
  %9 = getelementptr inbounds %"class.gpu::ClientTransferCache", %"class.gpu::ClientTransferCache"* %1, i64 0, i32 0
  %10 = load %"class.gpu::ClientTransferCache::Client"*, %"class.gpu::ClientTransferCache::Client"** %9, align 8
  %11 = bitcast %"class.gpu::ClientTransferCache::Client"* %10 to %"class.gpu::CommandBuffer"* (%"class.gpu::ClientTransferCache::Client"*)***
  %12 = load %"class.gpu::CommandBuffer"* (%"class.gpu::ClientTransferCache::Client"*)**, %"class.gpu::CommandBuffer"* (%"class.gpu::ClientTransferCache::Client"*)*** %11, align 8
  %13 = getelementptr inbounds %"class.gpu::CommandBuffer"* (%"class.gpu::ClientTransferCache::Client"*)*, %"class.gpu::CommandBuffer"* (%"class.gpu::ClientTransferCache::Client"*)** %12, i64 4
  %14 = load %"class.gpu::CommandBuffer"* (%"class.gpu::ClientTransferCache::Client"*)*, %"class.gpu::CommandBuffer"* (%"class.gpu::ClientTransferCache::Client"*)** %13, align 8
  %15 = tail call %"class.gpu::CommandBuffer"* %14(%"class.gpu::ClientTransferCache::Client"* %10) #8
  %16 = tail call i32 @_ZN3gpu24ClientDiscardableManager12CreateHandleEPNS_13CommandBufferE(%"class.gpu::ClientDiscardableManager"* %8, %"class.gpu::CommandBuffer"* %15) #8
  store i32 %16, i32* %7, align 4
  %17 = icmp eq i32 %16, 0
  br i1 %17, label %18, label %19

18:                                               ; preds = %3
  tail call void @_ZN3gpu23ClientDiscardableHandleC1Ev(%"class.gpu::ClientDiscardableHandle"* %0) #8
  br label %25

19:                                               ; preds = %3
  %20 = bitcast %"class.gpu::ClientDiscardableHandle"* %5 to i8*
  call void @llvm.lifetime.start.p0i8(i64 16, i8* nonnull %20) #8
  %21 = bitcast %"class.gpu::ClientDiscardableHandle"* %5 to i8*
  call void @llvm.memset.p0i8.i64(i8* nonnull align 8 %21, i8 -86, i64 16, i1 false)
  call void @_ZN3gpu24ClientDiscardableManager9GetHandleEN4util6IdTypeINS_23ClientDiscardableHandleEiLi0ELi1EEE(%"class.gpu::ClientDiscardableHandle"* nonnull sret %5, %"class.gpu::ClientDiscardableManager"* %8, i32 %16) #8
  %22 = getelementptr inbounds %"class.gpu::ClientTransferCache", %"class.gpu::ClientTransferCache"* %1, i64 0, i32 5, i32 0
  %23 = call { %"class.std::__1::__tree_end_node"*, i8 } @_ZNSt3__16__treeINS_12__value_typeINS_4pairIjjEEN4util6IdTypeIN3gpu23ClientDiscardableHandleEiLi0ELi1EEEEENS_19__map_value_compareIS3_S9_NS_4lessIS3_EELb1EEENS_9allocatorIS9_EEE25__emplace_unique_key_argsIS3_JRKS3_RS8_EEENS2_INS_15__tree_iteratorIS9_PNS_11__tree_nodeIS9_PvEElEEbEERKT_DpOT0_(%"class.std::__1::__tree.42"* %22, %"struct.std::__1::pair"* dereferenceable(8) %2, %"struct.std::__1::pair"* dereferenceable(8) %2, %"class.util::IdType"* nonnull dereferenceable(4) %4) #8
  call void @_ZN3gpu23ClientDiscardableHandleC1EOS0_(%"class.gpu::ClientDiscardableHandle"* %0, %"class.gpu::ClientDiscardableHandle"* nonnull dereferenceable(16) %5) #8
  %24 = getelementptr inbounds %"class.gpu::ClientDiscardableHandle", %"class.gpu::ClientDiscardableHandle"* %5, i64 0, i32 0
  call void @_ZN3gpu21DiscardableHandleBaseD2Ev(%"class.gpu::DiscardableHandleBase"* nonnull %24) #8
  call void @llvm.lifetime.end.p0i8(i64 16, i8* nonnull %20) #8
  br label %25

25:                                               ; preds = %19, %18
  call void @llvm.lifetime.end.p0i8(i64 4, i8* nonnull %6) #8
  ret void
}

; Function Attrs: nounwind
declare void @_ZN3gpu21DiscardableHandleBaseD2Ev(%"class.gpu::DiscardableHandleBase"*) unnamed_addr #2

; Function Attrs: nounwind ssp uwtable
define hidden void @_ZN3gpu19ClientTransferCache21AddTransferCacheEntryEjjjjj(%"class.gpu::ClientTransferCache"*, i32, i32, i32, i32, i32) local_unnamed_addr #0 align 2 {
  %7 = alloca %"struct.std::__1::pair", align 4
  %8 = alloca %"class.gpu::ClientDiscardableHandle", align 8
  %9 = bitcast %"struct.std::__1::pair"* %7 to i8*
  call void @llvm.lifetime.start.p0i8(i64 8, i8* nonnull %9) #8
  %10 = getelementptr inbounds %"struct.std::__1::pair", %"struct.std::__1::pair"* %7, i64 0, i32 0
  %11 = getelementptr inbounds %"struct.std::__1::pair", %"struct.std::__1::pair"* %7, i64 0, i32 1
  store i32 %1, i32* %10, align 4
  store i32 %2, i32* %11, align 4
  %12 = getelementptr inbounds %"class.gpu::ClientTransferCache", %"class.gpu::ClientTransferCache"* %0, i64 0, i32 3
  %13 = getelementptr inbounds %"class.base::Lock", %"class.base::Lock"* %12, i64 0, i32 0, i32 0
  %14 = tail call i32 @pthread_mutex_trylock(%union.pthread_mutex_t* %13) #8
  %15 = icmp eq i32 %14, 0
  br i1 %15, label %18, label %16, !prof !3

16:                                               ; preds = %6
  %17 = getelementptr inbounds %"class.base::Lock", %"class.base::Lock"* %12, i64 0, i32 0
  tail call void @_ZN4base8internal8LockImpl24LockInternalWithTrackingEv(%"class.base::internal::LockImpl"* %17) #8
  br label %18

18:                                               ; preds = %6, %16
  %19 = bitcast %"class.gpu::ClientDiscardableHandle"* %8 to i8*
  call void @llvm.lifetime.start.p0i8(i64 16, i8* nonnull %19) #8
  %20 = getelementptr inbounds %"class.gpu::ClientDiscardableHandle", %"class.gpu::ClientDiscardableHandle"* %8, i64 0, i32 0, i32 2
  %21 = bitcast %"class.gpu::ClientDiscardableHandle"* %8 to i8*
  call void @llvm.memset.p0i8.i64(i8* nonnull align 8 %21, i8 -86, i64 16, i1 false)
  call void @_ZN3gpu19ClientTransferCache23CreateDiscardableHandleERKNSt3__14pairIjjEE(%"class.gpu::ClientDiscardableHandle"* nonnull sret %8, %"class.gpu::ClientTransferCache"* %0, %"struct.std::__1::pair"* nonnull dereferenceable(8) %7)
  %22 = load i32, i32* %20, align 4
  %23 = icmp sgt i32 %22, 0
  br i1 %23, label %24, label %32

24:                                               ; preds = %18
  %25 = getelementptr inbounds %"class.gpu::ClientDiscardableHandle", %"class.gpu::ClientDiscardableHandle"* %8, i64 0, i32 0, i32 1
  %26 = getelementptr inbounds %"class.gpu::ClientTransferCache", %"class.gpu::ClientTransferCache"* %0, i64 0, i32 0
  %27 = load %"class.gpu::ClientTransferCache::Client"*, %"class.gpu::ClientTransferCache::Client"** %26, align 8
  %28 = load i32, i32* %25, align 8
  %29 = bitcast %"class.gpu::ClientTransferCache::Client"* %27 to void (%"class.gpu::ClientTransferCache::Client"*, i32, i32, i32, i32, i32, i32, i32)***
  %30 = load void (%"class.gpu::ClientTransferCache::Client"*, i32, i32, i32, i32, i32, i32, i32)**, void (%"class.gpu::ClientTransferCache::Client"*, i32, i32, i32, i32, i32, i32, i32)*** %29, align 8
  %31 = load void (%"class.gpu::ClientTransferCache::Client"*, i32, i32, i32, i32, i32, i32, i32)*, void (%"class.gpu::ClientTransferCache::Client"*, i32, i32, i32, i32, i32, i32, i32)** %30, align 8
  call void %31(%"class.gpu::ClientTransferCache::Client"* %27, i32 %1, i32 %2, i32 %22, i32 %28, i32 %3, i32 %4, i32 %5) #8
  br label %32

32:                                               ; preds = %18, %24
  %33 = getelementptr inbounds %"class.gpu::ClientDiscardableHandle", %"class.gpu::ClientDiscardableHandle"* %8, i64 0, i32 0
  call void @_ZN3gpu21DiscardableHandleBaseD2Ev(%"class.gpu::DiscardableHandleBase"* nonnull %33) #8
  call void @llvm.lifetime.end.p0i8(i64 16, i8* nonnull %19) #8
  %34 = call i32 @pthread_mutex_unlock(%union.pthread_mutex_t* %13) #8
  call void @llvm.lifetime.end.p0i8(i64 8, i8* nonnull %9) #8
  ret void
}

; Function Attrs: nounwind ssp uwtable
define hidden void @_ZN3gpu19ClientTransferCache23StartTransferCacheEntryEjjN4base12OnceCallbackIFvNS_23ClientDiscardableHandleEEEE(%"class.gpu::ClientTransferCache"*, i32, i32, %"class.base::OnceCallback"* nocapture) local_unnamed_addr #0 align 2 {
  %5 = alloca %"class.base::OnceCallback", align 8
  %6 = alloca %"struct.std::__1::pair", align 4
  %7 = alloca %"class.gpu::ClientDiscardableHandle", align 8
  %8 = alloca %"class.gpu::ClientDiscardableHandle", align 8
  %9 = bitcast %"struct.std::__1::pair"* %6 to i8*
  call void @llvm.lifetime.start.p0i8(i64 8, i8* nonnull %9) #8
  %10 = getelementptr inbounds %"struct.std::__1::pair", %"struct.std::__1::pair"* %6, i64 0, i32 0
  %11 = getelementptr inbounds %"struct.std::__1::pair", %"struct.std::__1::pair"* %6, i64 0, i32 1
  store i32 %1, i32* %10, align 4
  store i32 %2, i32* %11, align 4
  %12 = getelementptr inbounds %"class.gpu::ClientTransferCache", %"class.gpu::ClientTransferCache"* %0, i64 0, i32 3
  %13 = getelementptr inbounds %"class.base::Lock", %"class.base::Lock"* %12, i64 0, i32 0, i32 0
  %14 = tail call i32 @pthread_mutex_trylock(%union.pthread_mutex_t* %13) #8
  %15 = icmp eq i32 %14, 0
  br i1 %15, label %18, label %16, !prof !3

16:                                               ; preds = %4
  %17 = getelementptr inbounds %"class.base::Lock", %"class.base::Lock"* %12, i64 0, i32 0
  tail call void @_ZN4base8internal8LockImpl24LockInternalWithTrackingEv(%"class.base::internal::LockImpl"* %17) #8
  br label %18

18:                                               ; preds = %4, %16
  %19 = bitcast %"class.gpu::ClientDiscardableHandle"* %7 to i8*
  call void @llvm.lifetime.start.p0i8(i64 16, i8* nonnull %19) #8
  %20 = getelementptr inbounds %"class.gpu::ClientDiscardableHandle", %"class.gpu::ClientDiscardableHandle"* %7, i64 0, i32 0, i32 2
  %21 = bitcast %"class.gpu::ClientDiscardableHandle"* %7 to i8*
  call void @llvm.memset.p0i8.i64(i8* nonnull align 8 %21, i8 -86, i64 16, i1 false)
  call void @_ZN3gpu19ClientTransferCache23CreateDiscardableHandleERKNSt3__14pairIjjEE(%"class.gpu::ClientDiscardableHandle"* nonnull sret %7, %"class.gpu::ClientTransferCache"* %0, %"struct.std::__1::pair"* nonnull dereferenceable(8) %6)
  %22 = load i32, i32* %20, align 4
  %23 = icmp sgt i32 %22, 0
  br i1 %23, label %24, label %36

24:                                               ; preds = %18
  call void @_ZN3gpu23ClientDiscardableHandleC1ERKS0_(%"class.gpu::ClientDiscardableHandle"* nonnull %8, %"class.gpu::ClientDiscardableHandle"* nonnull dereferenceable(16) %7) #8
  %25 = bitcast %"class.base::OnceCallback"* %5 to i8*
  call void @llvm.lifetime.start.p0i8(i64 8, i8* nonnull %25) #8
  %26 = getelementptr inbounds %"class.base::OnceCallback", %"class.base::OnceCallback"* %3, i64 0, i32 0, i32 0, i32 0
  %27 = bitcast %"class.base::OnceCallback"* %3 to i64*
  %28 = load i64, i64* %27, align 8
  %29 = bitcast %"class.base::OnceCallback"* %5 to i64*
  store i64 %28, i64* %29, align 8
  store %"class.base::internal::BindStateBase"* null, %"class.base::internal::BindStateBase"** %26, align 8
  %30 = getelementptr inbounds %"class.base::OnceCallback", %"class.base::OnceCallback"* %5, i64 0, i32 0
  %31 = inttoptr i64 %28 to %"class.base::internal::BindStateBase"*
  %32 = getelementptr inbounds %"class.base::internal::BindStateBase", %"class.base::internal::BindStateBase"* %31, i64 0, i32 1
  %33 = bitcast void ()** %32 to void (%"class.base::internal::BindStateBase"*, %"class.gpu::ClientDiscardableHandle"*)**
  %34 = load void (%"class.base::internal::BindStateBase"*, %"class.gpu::ClientDiscardableHandle"*)*, void (%"class.base::internal::BindStateBase"*, %"class.gpu::ClientDiscardableHandle"*)** %33, align 8
  call void %34(%"class.base::internal::BindStateBase"* %31, %"class.gpu::ClientDiscardableHandle"* nonnull dereferenceable(16) %8) #8
  call void @_ZN4base8internal12CallbackBaseD2Ev(%"class.base::internal::CallbackBase"* nonnull %30) #8
  call void @llvm.lifetime.end.p0i8(i64 8, i8* nonnull %25) #8
  %35 = getelementptr inbounds %"class.gpu::ClientDiscardableHandle", %"class.gpu::ClientDiscardableHandle"* %8, i64 0, i32 0
  call void @_ZN3gpu21DiscardableHandleBaseD2Ev(%"class.gpu::DiscardableHandleBase"* nonnull %35) #8
  br label %36

36:                                               ; preds = %18, %24
  %37 = getelementptr inbounds %"class.gpu::ClientDiscardableHandle", %"class.gpu::ClientDiscardableHandle"* %7, i64 0, i32 0
  call void @_ZN3gpu21DiscardableHandleBaseD2Ev(%"class.gpu::DiscardableHandleBase"* nonnull %37) #8
  call void @llvm.lifetime.end.p0i8(i64 16, i8* nonnull %19) #8
  %38 = call i32 @pthread_mutex_unlock(%union.pthread_mutex_t* %13) #8
  call void @llvm.lifetime.end.p0i8(i64 8, i8* nonnull %9) #8
  ret void
}

declare void @_ZN3gpu23ClientDiscardableHandleC1ERKS0_(%"class.gpu::ClientDiscardableHandle"*, %"class.gpu::ClientDiscardableHandle"* dereferenceable(16)) unnamed_addr #1

declare i32 @_ZN3gpu24ClientDiscardableManager12CreateHandleEPNS_13CommandBufferE(%"class.gpu::ClientDiscardableManager"*, %"class.gpu::CommandBuffer"*) local_unnamed_addr #1

declare void @_ZN3gpu23ClientDiscardableHandleC1Ev(%"class.gpu::ClientDiscardableHandle"*) unnamed_addr #1

declare void @_ZN3gpu24ClientDiscardableManager9GetHandleEN4util6IdTypeINS_23ClientDiscardableHandleEiLi0ELi1EEE(%"class.gpu::ClientDiscardableHandle"* sret, %"class.gpu::ClientDiscardableManager"*, i32) local_unnamed_addr #1

declare void @_ZN3gpu23ClientDiscardableHandleC1EOS0_(%"class.gpu::ClientDiscardableHandle"*, %"class.gpu::ClientDiscardableHandle"* dereferenceable(16)) unnamed_addr #1

; Function Attrs: nounwind ssp uwtable
define hidden zeroext i1 @_ZN3gpu19ClientTransferCache9LockEntryEjj(%"class.gpu::ClientTransferCache"*, i32, i32) local_unnamed_addr #0 align 2 {
  %4 = alloca %"struct.std::__1::pair", align 4
  %5 = bitcast %"struct.std::__1::pair"* %4 to i8*
  call void @llvm.lifetime.start.p0i8(i64 8, i8* nonnull %5) #8
  %6 = getelementptr inbounds %"struct.std::__1::pair", %"struct.std::__1::pair"* %4, i64 0, i32 0
  %7 = getelementptr inbounds %"struct.std::__1::pair", %"struct.std::__1::pair"* %4, i64 0, i32 1
  store i32 %1, i32* %6, align 4
  store i32 %2, i32* %7, align 4
  %8 = getelementptr inbounds %"class.gpu::ClientTransferCache", %"class.gpu::ClientTransferCache"* %0, i64 0, i32 3
  %9 = getelementptr inbounds %"class.base::Lock", %"class.base::Lock"* %8, i64 0, i32 0, i32 0
  %10 = tail call i32 @pthread_mutex_trylock(%union.pthread_mutex_t* %9) #8
  %11 = icmp eq i32 %10, 0
  br i1 %11, label %14, label %12, !prof !3

12:                                               ; preds = %3
  %13 = getelementptr inbounds %"class.base::Lock", %"class.base::Lock"* %8, i64 0, i32 0
  tail call void @_ZN4base8internal8LockImpl24LockInternalWithTrackingEv(%"class.base::internal::LockImpl"* %13) #8
  br label %14

14:                                               ; preds = %3, %12
  %15 = getelementptr inbounds %"class.gpu::ClientTransferCache", %"class.gpu::ClientTransferCache"* %0, i64 0, i32 5, i32 0, i32 1, i32 0, i32 0
  %16 = bitcast %"class.std::__1::__tree_end_node"* %15 to %"class.std::__1::__tree_node"**
  %17 = load %"class.std::__1::__tree_node"*, %"class.std::__1::__tree_node"** %16, align 8
  %18 = icmp eq %"class.std::__1::__tree_node"* %17, null
  br i1 %18, label %68, label %19

19:                                               ; preds = %14, %39
  %20 = phi %"class.std::__1::__tree_end_node"* [ %41, %39 ], [ %15, %14 ]
  %21 = phi %"class.std::__1::__tree_node"* [ %42, %39 ], [ %17, %14 ]
  %22 = getelementptr inbounds %"class.std::__1::__tree_node", %"class.std::__1::__tree_node"* %21, i64 0, i32 1, i32 0, i32 0, i32 0
  %23 = load i32, i32* %22, align 4
  %24 = icmp ult i32 %23, %1
  br i1 %24, label %25, label %28

25:                                               ; preds = %19
  %26 = getelementptr inbounds %"class.std::__1::__tree_node", %"class.std::__1::__tree_node"* %21, i64 0, i32 0, i32 1
  %27 = bitcast %"class.std::__1::__tree_node_base"** %26 to %"class.std::__1::__tree_node"**
  br label %39

28:                                               ; preds = %19
  %29 = icmp ugt i32 %23, %1
  br i1 %29, label %36, label %30

30:                                               ; preds = %28
  %31 = getelementptr inbounds %"class.std::__1::__tree_node", %"class.std::__1::__tree_node"* %21, i64 0, i32 1, i32 0, i32 0, i32 1
  %32 = load i32, i32* %31, align 4
  %33 = icmp ult i32 %32, %2
  %34 = getelementptr inbounds %"class.std::__1::__tree_node", %"class.std::__1::__tree_node"* %21, i64 0, i32 0, i32 1
  %35 = bitcast %"class.std::__1::__tree_node_base"** %34 to %"class.std::__1::__tree_node"**
  br i1 %33, label %39, label %36

36:                                               ; preds = %30, %28
  %37 = bitcast %"class.std::__1::__tree_node"* %21 to %"class.std::__1::__tree_node"**
  %38 = getelementptr inbounds %"class.std::__1::__tree_node", %"class.std::__1::__tree_node"* %21, i64 0, i32 0, i32 0
  br label %39

39:                                               ; preds = %36, %30, %25
  %40 = phi %"class.std::__1::__tree_node"** [ %37, %36 ], [ %27, %25 ], [ %35, %30 ]
  %41 = phi %"class.std::__1::__tree_end_node"* [ %38, %36 ], [ %20, %25 ], [ %20, %30 ]
  %42 = load %"class.std::__1::__tree_node"*, %"class.std::__1::__tree_node"** %40, align 8
  %43 = icmp eq %"class.std::__1::__tree_node"* %42, null
  br i1 %43, label %44, label %19

44:                                               ; preds = %39
  %45 = icmp eq %"class.std::__1::__tree_end_node"* %41, %15
  br i1 %45, label %68, label %46

46:                                               ; preds = %44
  %47 = bitcast %"class.std::__1::__tree_end_node"* %41 to %"class.std::__1::__tree_node"*
  %48 = getelementptr inbounds %"class.std::__1::__tree_node", %"class.std::__1::__tree_node"* %47, i64 0, i32 1, i32 0, i32 0, i32 0
  %49 = load i32, i32* %48, align 4
  %50 = icmp ugt i32 %49, %1
  br i1 %50, label %68, label %51

51:                                               ; preds = %46
  %52 = icmp ult i32 %49, %1
  br i1 %52, label %58, label %53

53:                                               ; preds = %51
  %54 = getelementptr inbounds %"class.std::__1::__tree_end_node", %"class.std::__1::__tree_end_node"* %41, i64 4
  %55 = bitcast %"class.std::__1::__tree_end_node"* %54 to i32*
  %56 = load i32, i32* %55, align 4
  %57 = icmp ugt i32 %56, %2
  br i1 %57, label %68, label %58

58:                                               ; preds = %51, %53
  %59 = getelementptr inbounds %"class.std::__1::__tree_node", %"class.std::__1::__tree_node"* %47, i64 0, i32 1, i32 0, i32 1, i32 0, i32 0
  %60 = load i32, i32* %59, align 4
  %61 = icmp eq i32 %60, 0
  br i1 %61, label %68, label %62

62:                                               ; preds = %58
  %63 = getelementptr inbounds %"class.gpu::ClientTransferCache", %"class.gpu::ClientTransferCache"* %0, i64 0, i32 4
  %64 = tail call zeroext i1 @_ZN3gpu24ClientDiscardableManager10LockHandleEN4util6IdTypeINS_23ClientDiscardableHandleEiLi0ELi1EEE(%"class.gpu::ClientDiscardableManager"* %63, i32 %60) #8
  br i1 %64, label %68, label %65

65:                                               ; preds = %62
  %66 = getelementptr inbounds %"class.gpu::ClientTransferCache", %"class.gpu::ClientTransferCache"* %0, i64 0, i32 5, i32 0
  %67 = call i64 @_ZNSt3__16__treeINS_12__value_typeINS_4pairIjjEEN4util6IdTypeIN3gpu23ClientDiscardableHandleEiLi0ELi1EEEEENS_19__map_value_compareIS3_S9_NS_4lessIS3_EELb1EEENS_9allocatorIS9_EEE14__erase_uniqueIS3_EEmRKT_(%"class.std::__1::__tree.42"* %66, %"struct.std::__1::pair"* nonnull dereferenceable(8) %4) #8
  br label %68

68:                                               ; preds = %53, %46, %44, %14, %62, %58, %65
  %69 = phi i1 [ false, %65 ], [ false, %58 ], [ true, %62 ], [ false, %14 ], [ false, %44 ], [ false, %46 ], [ false, %53 ]
  %70 = call i32 @pthread_mutex_unlock(%union.pthread_mutex_t* %9) #8
  call void @llvm.lifetime.end.p0i8(i64 8, i8* nonnull %5) #8
  ret i1 %69
}

; Function Attrs: nounwind readonly ssp uwtable
define hidden i32 @_ZN3gpu19ClientTransferCache23FindDiscardableHandleIdERKNSt3__14pairIjjEE(%"class.gpu::ClientTransferCache"*, %"struct.std::__1::pair"* nocapture readonly dereferenceable(8)) local_unnamed_addr #4 align 2 {
  %3 = getelementptr inbounds %"class.gpu::ClientTransferCache", %"class.gpu::ClientTransferCache"* %0, i64 0, i32 5, i32 0, i32 1, i32 0, i32 0
  %4 = bitcast %"class.std::__1::__tree_end_node"* %3 to %"class.std::__1::__tree_node"**
  %5 = load %"class.std::__1::__tree_node"*, %"class.std::__1::__tree_node"** %4, align 8
  %6 = icmp eq %"class.std::__1::__tree_node"* %5, null
  br i1 %6, label %54, label %7

7:                                                ; preds = %2
  %8 = getelementptr inbounds %"struct.std::__1::pair", %"struct.std::__1::pair"* %1, i64 0, i32 0
  %9 = load i32, i32* %8, align 4
  %10 = getelementptr inbounds %"struct.std::__1::pair", %"struct.std::__1::pair"* %1, i64 0, i32 1
  %11 = load i32, i32* %10, align 4
  br label %12

12:                                               ; preds = %32, %7
  %13 = phi %"class.std::__1::__tree_end_node"* [ %3, %7 ], [ %34, %32 ]
  %14 = phi %"class.std::__1::__tree_node"* [ %5, %7 ], [ %35, %32 ]
  %15 = getelementptr inbounds %"class.std::__1::__tree_node", %"class.std::__1::__tree_node"* %14, i64 0, i32 1, i32 0, i32 0, i32 0
  %16 = load i32, i32* %15, align 4
  %17 = icmp ult i32 %16, %9
  br i1 %17, label %18, label %21

18:                                               ; preds = %12
  %19 = getelementptr inbounds %"class.std::__1::__tree_node", %"class.std::__1::__tree_node"* %14, i64 0, i32 0, i32 1
  %20 = bitcast %"class.std::__1::__tree_node_base"** %19 to %"class.std::__1::__tree_node"**
  br label %32

21:                                               ; preds = %12
  %22 = icmp ult i32 %9, %16
  br i1 %22, label %29, label %23

23:                                               ; preds = %21
  %24 = getelementptr inbounds %"class.std::__1::__tree_node", %"class.std::__1::__tree_node"* %14, i64 0, i32 1, i32 0, i32 0, i32 1
  %25 = load i32, i32* %24, align 4
  %26 = icmp ult i32 %25, %11
  %27 = getelementptr inbounds %"class.std::__1::__tree_node", %"class.std::__1::__tree_node"* %14, i64 0, i32 0, i32 1
  %28 = bitcast %"class.std::__1::__tree_node_base"** %27 to %"class.std::__1::__tree_node"**
  br i1 %26, label %32, label %29

29:                                               ; preds = %23, %21
  %30 = bitcast %"class.std::__1::__tree_node"* %14 to %"class.std::__1::__tree_node"**
  %31 = getelementptr inbounds %"class.std::__1::__tree_node", %"class.std::__1::__tree_node"* %14, i64 0, i32 0, i32 0
  br label %32

32:                                               ; preds = %29, %23, %18
  %33 = phi %"class.std::__1::__tree_node"** [ %30, %29 ], [ %20, %18 ], [ %28, %23 ]
  %34 = phi %"class.std::__1::__tree_end_node"* [ %31, %29 ], [ %13, %18 ], [ %13, %23 ]
  %35 = load %"class.std::__1::__tree_node"*, %"class.std::__1::__tree_node"** %33, align 8
  %36 = icmp eq %"class.std::__1::__tree_node"* %35, null
  br i1 %36, label %37, label %12

37:                                               ; preds = %32
  %38 = icmp eq %"class.std::__1::__tree_end_node"* %34, %3
  br i1 %38, label %54, label %39

39:                                               ; preds = %37
  %40 = bitcast %"class.std::__1::__tree_end_node"* %34 to %"class.std::__1::__tree_node"*
  %41 = getelementptr inbounds %"class.std::__1::__tree_node", %"class.std::__1::__tree_node"* %40, i64 0, i32 1, i32 0, i32 0, i32 0
  %42 = load i32, i32* %41, align 4
  %43 = icmp ult i32 %9, %42
  br i1 %43, label %54, label %44

44:                                               ; preds = %39
  %45 = icmp ult i32 %42, %9
  br i1 %45, label %51, label %46

46:                                               ; preds = %44
  %47 = getelementptr inbounds %"class.std::__1::__tree_end_node", %"class.std::__1::__tree_end_node"* %34, i64 4
  %48 = bitcast %"class.std::__1::__tree_end_node"* %47 to i32*
  %49 = load i32, i32* %48, align 4
  %50 = icmp ult i32 %11, %49
  br i1 %50, label %54, label %51

51:                                               ; preds = %44, %46
  %52 = getelementptr inbounds %"class.std::__1::__tree_node", %"class.std::__1::__tree_node"* %40, i64 0, i32 1, i32 0, i32 1, i32 0, i32 0
  %53 = load i32, i32* %52, align 4
  br label %54

54:                                               ; preds = %46, %39, %37, %2, %51
  %55 = phi i32 [ %53, %51 ], [ 0, %2 ], [ 0, %37 ], [ 0, %39 ], [ 0, %46 ]
  ret i32 %55
}

declare zeroext i1 @_ZN3gpu24ClientDiscardableManager10LockHandleEN4util6IdTypeINS_23ClientDiscardableHandleEiLi0ELi1EEE(%"class.gpu::ClientDiscardableManager"*, i32) local_unnamed_addr #1

; Function Attrs: nounwind ssp uwtable
define hidden void @_ZN3gpu19ClientTransferCache13UnlockEntriesERKNSt3__16vectorINS1_4pairIjjEENS1_9allocatorIS4_EEEE(%"class.gpu::ClientTransferCache"*, %"class.std::__1::vector.55"* nocapture readonly dereferenceable(24)) local_unnamed_addr #0 align 2 {
  %3 = getelementptr inbounds %"class.gpu::ClientTransferCache", %"class.gpu::ClientTransferCache"* %0, i64 0, i32 3
  %4 = getelementptr inbounds %"class.base::Lock", %"class.base::Lock"* %3, i64 0, i32 0, i32 0
  %5 = tail call i32 @pthread_mutex_trylock(%union.pthread_mutex_t* %4) #8
  %6 = icmp eq i32 %5, 0
  br i1 %6, label %9, label %7, !prof !3

7:                                                ; preds = %2
  %8 = getelementptr inbounds %"class.base::Lock", %"class.base::Lock"* %3, i64 0, i32 0
  tail call void @_ZN4base8internal8LockImpl24LockInternalWithTrackingEv(%"class.base::internal::LockImpl"* %8) #8
  br label %9

9:                                                ; preds = %2, %7
  %10 = getelementptr inbounds %"class.std::__1::vector.55", %"class.std::__1::vector.55"* %1, i64 0, i32 0, i32 0
  %11 = load %"struct.std::__1::pair"*, %"struct.std::__1::pair"** %10, align 8
  %12 = getelementptr inbounds %"class.std::__1::vector.55", %"class.std::__1::vector.55"* %1, i64 0, i32 0, i32 1
  %13 = load %"struct.std::__1::pair"*, %"struct.std::__1::pair"** %12, align 8
  %14 = icmp eq %"struct.std::__1::pair"* %11, %13
  br i1 %14, label %17, label %15

15:                                               ; preds = %9
  %16 = getelementptr inbounds %"class.gpu::ClientTransferCache", %"class.gpu::ClientTransferCache"* %0, i64 0, i32 0
  br label %19

17:                                               ; preds = %19, %9
  %18 = tail call i32 @pthread_mutex_unlock(%union.pthread_mutex_t* %4) #8
  ret void

19:                                               ; preds = %15, %19
  %20 = phi %"struct.std::__1::pair"* [ %11, %15 ], [ %30, %19 ]
  %21 = load %"class.gpu::ClientTransferCache::Client"*, %"class.gpu::ClientTransferCache::Client"** %16, align 8
  %22 = getelementptr inbounds %"struct.std::__1::pair", %"struct.std::__1::pair"* %20, i64 0, i32 0
  %23 = load i32, i32* %22, align 4
  %24 = getelementptr inbounds %"struct.std::__1::pair", %"struct.std::__1::pair"* %20, i64 0, i32 1
  %25 = load i32, i32* %24, align 4
  %26 = bitcast %"class.gpu::ClientTransferCache::Client"* %21 to void (%"class.gpu::ClientTransferCache::Client"*, i32, i32)***
  %27 = load void (%"class.gpu::ClientTransferCache::Client"*, i32, i32)**, void (%"class.gpu::ClientTransferCache::Client"*, i32, i32)*** %26, align 8
  %28 = getelementptr inbounds void (%"class.gpu::ClientTransferCache::Client"*, i32, i32)*, void (%"class.gpu::ClientTransferCache::Client"*, i32, i32)** %27, i64 2
  %29 = load void (%"class.gpu::ClientTransferCache::Client"*, i32, i32)*, void (%"class.gpu::ClientTransferCache::Client"*, i32, i32)** %28, align 8
  tail call void %29(%"class.gpu::ClientTransferCache::Client"* %21, i32 %23, i32 %25) #8
  %30 = getelementptr inbounds %"struct.std::__1::pair", %"struct.std::__1::pair"* %20, i64 1
  %31 = icmp eq %"struct.std::__1::pair"* %30, %13
  br i1 %31, label %17, label %19
}

; Function Attrs: nounwind ssp uwtable
define hidden void @_ZN3gpu19ClientTransferCache11DeleteEntryEjj(%"class.gpu::ClientTransferCache"*, i32, i32) local_unnamed_addr #0 align 2 {
  %4 = alloca %"struct.std::__1::pair", align 4
  %5 = bitcast %"struct.std::__1::pair"* %4 to i8*
  call void @llvm.lifetime.start.p0i8(i64 8, i8* nonnull %5) #8
  %6 = getelementptr inbounds %"struct.std::__1::pair", %"struct.std::__1::pair"* %4, i64 0, i32 0
  %7 = getelementptr inbounds %"struct.std::__1::pair", %"struct.std::__1::pair"* %4, i64 0, i32 1
  store i32 %1, i32* %6, align 4
  store i32 %2, i32* %7, align 4
  %8 = getelementptr inbounds %"class.gpu::ClientTransferCache", %"class.gpu::ClientTransferCache"* %0, i64 0, i32 3
  %9 = getelementptr inbounds %"class.base::Lock", %"class.base::Lock"* %8, i64 0, i32 0, i32 0
  %10 = tail call i32 @pthread_mutex_trylock(%union.pthread_mutex_t* %9) #8
  %11 = icmp eq i32 %10, 0
  br i1 %11, label %14, label %12, !prof !3

12:                                               ; preds = %3
  %13 = getelementptr inbounds %"class.base::Lock", %"class.base::Lock"* %8, i64 0, i32 0
  tail call void @_ZN4base8internal8LockImpl24LockInternalWithTrackingEv(%"class.base::internal::LockImpl"* %13) #8
  br label %14

14:                                               ; preds = %3, %12
  %15 = getelementptr inbounds %"class.gpu::ClientTransferCache", %"class.gpu::ClientTransferCache"* %0, i64 0, i32 5, i32 0, i32 1, i32 0, i32 0
  %16 = bitcast %"class.std::__1::__tree_end_node"* %15 to %"class.std::__1::__tree_node"**
  %17 = load %"class.std::__1::__tree_node"*, %"class.std::__1::__tree_node"** %16, align 8
  %18 = icmp eq %"class.std::__1::__tree_node"* %17, null
  br i1 %18, label %72, label %19

19:                                               ; preds = %14, %39
  %20 = phi %"class.std::__1::__tree_end_node"* [ %41, %39 ], [ %15, %14 ]
  %21 = phi %"class.std::__1::__tree_node"* [ %42, %39 ], [ %17, %14 ]
  %22 = getelementptr inbounds %"class.std::__1::__tree_node", %"class.std::__1::__tree_node"* %21, i64 0, i32 1, i32 0, i32 0, i32 0
  %23 = load i32, i32* %22, align 4
  %24 = icmp ult i32 %23, %1
  br i1 %24, label %25, label %28

25:                                               ; preds = %19
  %26 = getelementptr inbounds %"class.std::__1::__tree_node", %"class.std::__1::__tree_node"* %21, i64 0, i32 0, i32 1
  %27 = bitcast %"class.std::__1::__tree_node_base"** %26 to %"class.std::__1::__tree_node"**
  br label %39

28:                                               ; preds = %19
  %29 = icmp ugt i32 %23, %1
  br i1 %29, label %36, label %30

30:                                               ; preds = %28
  %31 = getelementptr inbounds %"class.std::__1::__tree_node", %"class.std::__1::__tree_node"* %21, i64 0, i32 1, i32 0, i32 0, i32 1
  %32 = load i32, i32* %31, align 4
  %33 = icmp ult i32 %32, %2
  %34 = getelementptr inbounds %"class.std::__1::__tree_node", %"class.std::__1::__tree_node"* %21, i64 0, i32 0, i32 1
  %35 = bitcast %"class.std::__1::__tree_node_base"** %34 to %"class.std::__1::__tree_node"**
  br i1 %33, label %39, label %36

36:                                               ; preds = %30, %28
  %37 = bitcast %"class.std::__1::__tree_node"* %21 to %"class.std::__1::__tree_node"**
  %38 = getelementptr inbounds %"class.std::__1::__tree_node", %"class.std::__1::__tree_node"* %21, i64 0, i32 0, i32 0
  br label %39

39:                                               ; preds = %36, %30, %25
  %40 = phi %"class.std::__1::__tree_node"** [ %37, %36 ], [ %27, %25 ], [ %35, %30 ]
  %41 = phi %"class.std::__1::__tree_end_node"* [ %38, %36 ], [ %20, %25 ], [ %20, %30 ]
  %42 = load %"class.std::__1::__tree_node"*, %"class.std::__1::__tree_node"** %40, align 8
  %43 = icmp eq %"class.std::__1::__tree_node"* %42, null
  br i1 %43, label %44, label %19

44:                                               ; preds = %39
  %45 = icmp eq %"class.std::__1::__tree_end_node"* %41, %15
  br i1 %45, label %72, label %46

46:                                               ; preds = %44
  %47 = bitcast %"class.std::__1::__tree_end_node"* %41 to %"class.std::__1::__tree_node"*
  %48 = getelementptr inbounds %"class.std::__1::__tree_node", %"class.std::__1::__tree_node"* %47, i64 0, i32 1, i32 0, i32 0, i32 0
  %49 = load i32, i32* %48, align 4
  %50 = icmp ugt i32 %49, %1
  br i1 %50, label %72, label %51

51:                                               ; preds = %46
  %52 = icmp ult i32 %49, %1
  br i1 %52, label %58, label %53

53:                                               ; preds = %51
  %54 = getelementptr inbounds %"class.std::__1::__tree_end_node", %"class.std::__1::__tree_end_node"* %41, i64 4
  %55 = bitcast %"class.std::__1::__tree_end_node"* %54 to i32*
  %56 = load i32, i32* %55, align 4
  %57 = icmp ugt i32 %56, %2
  br i1 %57, label %72, label %58

58:                                               ; preds = %51, %53
  %59 = getelementptr inbounds %"class.std::__1::__tree_node", %"class.std::__1::__tree_node"* %47, i64 0, i32 1, i32 0, i32 1, i32 0, i32 0
  %60 = load i32, i32* %59, align 4
  %61 = icmp eq i32 %60, 0
  br i1 %61, label %72, label %62

62:                                               ; preds = %58
  %63 = getelementptr inbounds %"class.gpu::ClientTransferCache", %"class.gpu::ClientTransferCache"* %0, i64 0, i32 4
  tail call void @_ZN3gpu24ClientDiscardableManager10FreeHandleEN4util6IdTypeINS_23ClientDiscardableHandleEiLi0ELi1EEE(%"class.gpu::ClientDiscardableManager"* %63, i32 %60) #8
  %64 = getelementptr inbounds %"class.gpu::ClientTransferCache", %"class.gpu::ClientTransferCache"* %0, i64 0, i32 0
  %65 = load %"class.gpu::ClientTransferCache::Client"*, %"class.gpu::ClientTransferCache::Client"** %64, align 8
  %66 = bitcast %"class.gpu::ClientTransferCache::Client"* %65 to void (%"class.gpu::ClientTransferCache::Client"*, i32, i32)***
  %67 = load void (%"class.gpu::ClientTransferCache::Client"*, i32, i32)**, void (%"class.gpu::ClientTransferCache::Client"*, i32, i32)*** %66, align 8
  %68 = getelementptr inbounds void (%"class.gpu::ClientTransferCache::Client"*, i32, i32)*, void (%"class.gpu::ClientTransferCache::Client"*, i32, i32)** %67, i64 1
  %69 = load void (%"class.gpu::ClientTransferCache::Client"*, i32, i32)*, void (%"class.gpu::ClientTransferCache::Client"*, i32, i32)** %68, align 8
  tail call void %69(%"class.gpu::ClientTransferCache::Client"* %65, i32 %1, i32 %2) #8
  %70 = getelementptr inbounds %"class.gpu::ClientTransferCache", %"class.gpu::ClientTransferCache"* %0, i64 0, i32 5, i32 0
  %71 = call i64 @_ZNSt3__16__treeINS_12__value_typeINS_4pairIjjEEN4util6IdTypeIN3gpu23ClientDiscardableHandleEiLi0ELi1EEEEENS_19__map_value_compareIS3_S9_NS_4lessIS3_EELb1EEENS_9allocatorIS9_EEE14__erase_uniqueIS3_EEmRKT_(%"class.std::__1::__tree.42"* %70, %"struct.std::__1::pair"* nonnull dereferenceable(8) %4) #8
  br label %72

72:                                               ; preds = %53, %46, %44, %14, %58, %62
  %73 = call i32 @pthread_mutex_unlock(%union.pthread_mutex_t* %9) #8
  call void @llvm.lifetime.end.p0i8(i64 8, i8* nonnull %5) #8
  ret void
}

declare void @_ZN3gpu24ClientDiscardableManager10FreeHandleEN4util6IdTypeINS_23ClientDiscardableHandleEiLi0ELi1EEE(%"class.gpu::ClientDiscardableManager"*, i32) local_unnamed_addr #1

; Function Attrs: argmemonly nounwind
declare void @llvm.memset.p0i8.i64(i8* nocapture writeonly, i8, i64, i1 immarg) #3

declare void @_ZN4base8internal8LockImplC1Ev(%"class.base::internal::LockImpl"*) unnamed_addr #1

; Function Attrs: nounwind
declare void @_ZN4base8internal8LockImplD1Ev(%"class.base::internal::LockImpl"*) unnamed_addr #2

declare void @_ZN3gpu23ScopedTransferBufferPtr7ReleaseEv(%"class.gpu::ScopedTransferBufferPtr"*) local_unnamed_addr #1

declare void @_ZN3gpu21ScopedMappedMemoryPtr7ReleaseEv(%"class.gpu::ScopedMappedMemoryPtr"*) local_unnamed_addr #1

; Function Attrs: nounwind ssp uwtable
define linkonce_odr hidden void @_ZNSt3__16__treeINS_12__value_typeINS_4pairIjjEEN4util6IdTypeIN3gpu23ClientDiscardableHandleEiLi0ELi1EEEEENS_19__map_value_compareIS3_S9_NS_4lessIS3_EELb1EEENS_9allocatorIS9_EEE7destroyEPNS_11__tree_nodeIS9_PvEE(%"class.std::__1::__tree.42"*, %"class.std::__1::__tree_node"*) local_unnamed_addr #0 comdat align 2 {
  %3 = icmp eq %"class.std::__1::__tree_node"* %1, null
  br i1 %3, label %11, label %4

4:                                                ; preds = %2
  %5 = bitcast %"class.std::__1::__tree_node"* %1 to %"class.std::__1::__tree_node"**
  %6 = load %"class.std::__1::__tree_node"*, %"class.std::__1::__tree_node"** %5, align 8
  tail call void @_ZNSt3__16__treeINS_12__value_typeINS_4pairIjjEEN4util6IdTypeIN3gpu23ClientDiscardableHandleEiLi0ELi1EEEEENS_19__map_value_compareIS3_S9_NS_4lessIS3_EELb1EEENS_9allocatorIS9_EEE7destroyEPNS_11__tree_nodeIS9_PvEE(%"class.std::__1::__tree.42"* %0, %"class.std::__1::__tree_node"* %6) #8
  %7 = getelementptr inbounds %"class.std::__1::__tree_node", %"class.std::__1::__tree_node"* %1, i64 0, i32 0, i32 1
  %8 = bitcast %"class.std::__1::__tree_node_base"** %7 to %"class.std::__1::__tree_node"**
  %9 = load %"class.std::__1::__tree_node"*, %"class.std::__1::__tree_node"** %8, align 8
  tail call void @_ZNSt3__16__treeINS_12__value_typeINS_4pairIjjEEN4util6IdTypeIN3gpu23ClientDiscardableHandleEiLi0ELi1EEEEENS_19__map_value_compareIS3_S9_NS_4lessIS3_EELb1EEENS_9allocatorIS9_EEE7destroyEPNS_11__tree_nodeIS9_PvEE(%"class.std::__1::__tree.42"* %0, %"class.std::__1::__tree_node"* %9) #8
  %10 = bitcast %"class.std::__1::__tree_node"* %1 to i8*
  tail call void @_ZdlPv(i8* %10) #9
  ret void

11:                                               ; preds = %2
  ret void
}

; Function Attrs: nobuiltin nounwind
declare void @_ZdlPv(i8*) local_unnamed_addr #5

declare void @_ZN3gpu21ScopedMappedMemoryPtr5ResetEj(%"class.gpu::ScopedMappedMemoryPtr"*, i32) local_unnamed_addr #1

; Function Attrs: cold noreturn nounwind
declare void @llvm.trap() #6

declare void @_ZN3gpu23ScopedTransferBufferPtr5ResetEj(%"class.gpu::ScopedTransferBufferPtr"*, i32) local_unnamed_addr #1

declare void @_ZN4base8internal8LockImpl24LockInternalWithTrackingEv(%"class.base::internal::LockImpl"*) local_unnamed_addr #1

; Function Attrs: nounwind
declare i32 @pthread_mutex_trylock(%union.pthread_mutex_t*) local_unnamed_addr #2

; Function Attrs: nounwind
declare i32 @pthread_mutex_unlock(%union.pthread_mutex_t*) local_unnamed_addr #2

; Function Attrs: nounwind
declare void @_ZN4base8internal12CallbackBaseD2Ev(%"class.base::internal::CallbackBase"*) unnamed_addr #2

; Function Attrs: nounwind ssp uwtable
define linkonce_odr hidden { %"class.std::__1::__tree_end_node"*, i8 } @_ZNSt3__16__treeINS_12__value_typeINS_4pairIjjEEN4util6IdTypeIN3gpu23ClientDiscardableHandleEiLi0ELi1EEEEENS_19__map_value_compareIS3_S9_NS_4lessIS3_EELb1EEENS_9allocatorIS9_EEE25__emplace_unique_key_argsIS3_JRKS3_RS8_EEENS2_INS_15__tree_iteratorIS9_PNS_11__tree_nodeIS9_PvEElEEbEERKT_DpOT0_(%"class.std::__1::__tree.42"*, %"struct.std::__1::pair"* dereferenceable(8), %"struct.std::__1::pair"* dereferenceable(8), %"class.util::IdType"* dereferenceable(4)) local_unnamed_addr #0 comdat align 2 {
  %5 = getelementptr inbounds %"class.std::__1::__tree.42", %"class.std::__1::__tree.42"* %0, i64 0, i32 1, i32 0, i32 0
  %6 = bitcast %"class.std::__1::__tree_end_node"* %5 to %"class.std::__1::__tree_node"**
  %7 = load %"class.std::__1::__tree_node"*, %"class.std::__1::__tree_node"** %6, align 8
  %8 = icmp eq %"class.std::__1::__tree_node"* %7, null
  br i1 %8, label %47, label %9

9:                                                ; preds = %4
  %10 = getelementptr inbounds %"class.std::__1::__tree.42", %"class.std::__1::__tree.42"* %0, i64 0, i32 1, i32 0, i32 0, i32 0
  %11 = getelementptr inbounds %"struct.std::__1::pair", %"struct.std::__1::pair"* %1, i64 0, i32 0
  %12 = load i32, i32* %11, align 4
  %13 = getelementptr inbounds %"struct.std::__1::pair", %"struct.std::__1::pair"* %1, i64 0, i32 1
  %14 = load i32, i32* %13, align 4
  br label %15

15:                                               ; preds = %43, %9
  %16 = phi %"class.std::__1::__tree_node"* [ %46, %43 ], [ %7, %9 ]
  %17 = phi %"class.std::__1::__tree_node_base"** [ %45, %43 ], [ %10, %9 ]
  %18 = getelementptr inbounds %"class.std::__1::__tree_node", %"class.std::__1::__tree_node"* %16, i64 0, i32 1, i32 0, i32 0, i32 0
  %19 = load i32, i32* %18, align 4
  %20 = icmp ult i32 %12, %19
  br i1 %20, label %27, label %21

21:                                               ; preds = %15
  %22 = icmp ult i32 %19, %12
  br i1 %22, label %35, label %23

23:                                               ; preds = %21
  %24 = getelementptr inbounds %"class.std::__1::__tree_node", %"class.std::__1::__tree_node"* %16, i64 0, i32 1, i32 0, i32 0, i32 1
  %25 = load i32, i32* %24, align 4
  %26 = icmp ult i32 %14, %25
  br i1 %26, label %27, label %33

27:                                               ; preds = %23, %15
  %28 = getelementptr inbounds %"class.std::__1::__tree_node", %"class.std::__1::__tree_node"* %16, i64 0, i32 0, i32 0, i32 0
  %29 = load %"class.std::__1::__tree_node_base"*, %"class.std::__1::__tree_node_base"** %28, align 8
  %30 = icmp eq %"class.std::__1::__tree_node_base"* %29, null
  br i1 %30, label %31, label %43

31:                                               ; preds = %27
  %32 = getelementptr inbounds %"class.std::__1::__tree_node", %"class.std::__1::__tree_node"* %16, i64 0, i32 0, i32 0
  br label %49

33:                                               ; preds = %23
  %34 = icmp ult i32 %25, %14
  br i1 %34, label %35, label %41

35:                                               ; preds = %33, %21
  %36 = getelementptr inbounds %"class.std::__1::__tree_node", %"class.std::__1::__tree_node"* %16, i64 0, i32 0, i32 1
  %37 = load %"class.std::__1::__tree_node_base"*, %"class.std::__1::__tree_node_base"** %36, align 8
  %38 = icmp eq %"class.std::__1::__tree_node_base"* %37, null
  br i1 %38, label %39, label %43

39:                                               ; preds = %35
  %40 = getelementptr inbounds %"class.std::__1::__tree_node", %"class.std::__1::__tree_node"* %16, i64 0, i32 0, i32 0
  br label %49

41:                                               ; preds = %33
  %42 = getelementptr inbounds %"class.std::__1::__tree_node", %"class.std::__1::__tree_node"* %16, i64 0, i32 0, i32 0
  br label %49

43:                                               ; preds = %35, %27
  %44 = phi %"class.std::__1::__tree_node_base"* [ %29, %27 ], [ %37, %35 ]
  %45 = phi %"class.std::__1::__tree_node_base"** [ %28, %27 ], [ %36, %35 ]
  %46 = bitcast %"class.std::__1::__tree_node_base"* %44 to %"class.std::__1::__tree_node"*
  br label %15

47:                                               ; preds = %4
  %48 = getelementptr inbounds %"class.std::__1::__tree_end_node", %"class.std::__1::__tree_end_node"* %5, i64 0, i32 0
  br label %49

49:                                               ; preds = %31, %39, %41, %47
  %50 = phi %"class.std::__1::__tree_end_node"* [ %5, %47 ], [ %32, %31 ], [ %40, %39 ], [ %42, %41 ]
  %51 = phi %"class.std::__1::__tree_node_base"** [ %48, %47 ], [ %28, %31 ], [ %36, %39 ], [ %17, %41 ]
  %52 = bitcast %"class.std::__1::__tree_node_base"** %51 to %"class.std::__1::__tree_node"**
  %53 = load %"class.std::__1::__tree_node"*, %"class.std::__1::__tree_node"** %52, align 8
  %54 = icmp eq %"class.std::__1::__tree_node"* %53, null
  br i1 %54, label %55, label %86

55:                                               ; preds = %49
  %56 = tail call i8* @_Znwm(i64 40) #9, !noalias !5
  %57 = getelementptr inbounds i8, i8* %56, i64 28
  %58 = bitcast %"struct.std::__1::pair"* %2 to i64*
  %59 = bitcast i8* %57 to i64*
  %60 = load i64, i64* %58, align 4, !noalias !5
  store i64 %60, i64* %59, align 4, !noalias !5
  %61 = getelementptr inbounds %"class.util::IdType", %"class.util::IdType"* %3, i64 0, i32 0, i32 0
  %62 = getelementptr inbounds i8, i8* %56, i64 36
  %63 = bitcast i8* %62 to i32*
  %64 = load i32, i32* %61, align 4, !noalias !5
  store i32 %64, i32* %63, align 4, !noalias !5
  %65 = bitcast i8* %56 to %"class.std::__1::__tree_node"*
  %66 = bitcast i8* %56 to %"class.std::__1::__tree_node_base"*
  %67 = getelementptr inbounds i8, i8* %56, i64 16
  %68 = bitcast i8* %67 to %"class.std::__1::__tree_end_node"**
  tail call void @llvm.memset.p0i8.i64(i8* nonnull align 8 %56, i8 0, i64 16, i1 false) #8
  store %"class.std::__1::__tree_end_node"* %50, %"class.std::__1::__tree_end_node"** %68, align 8
  %69 = bitcast %"class.std::__1::__tree_node_base"** %51 to i8**
  store i8* %56, i8** %69, align 8
  %70 = getelementptr inbounds %"class.std::__1::__tree.42", %"class.std::__1::__tree.42"* %0, i64 0, i32 0
  %71 = load %"class.std::__1::__tree_end_node"*, %"class.std::__1::__tree_end_node"** %70, align 8
  %72 = getelementptr inbounds %"class.std::__1::__tree_end_node", %"class.std::__1::__tree_end_node"* %71, i64 0, i32 0
  %73 = load %"class.std::__1::__tree_node_base"*, %"class.std::__1::__tree_node_base"** %72, align 8
  %74 = icmp eq %"class.std::__1::__tree_node_base"* %73, null
  br i1 %74, label %79, label %75

75:                                               ; preds = %55
  %76 = ptrtoint %"class.std::__1::__tree_node_base"* %73 to i64
  %77 = bitcast %"class.std::__1::__tree.42"* %0 to i64*
  store i64 %76, i64* %77, align 8
  %78 = load %"class.std::__1::__tree_node_base"*, %"class.std::__1::__tree_node_base"** %51, align 8
  br label %79

79:                                               ; preds = %75, %55
  %80 = phi %"class.std::__1::__tree_node_base"* [ %66, %55 ], [ %78, %75 ]
  %81 = getelementptr inbounds %"class.std::__1::__tree.42", %"class.std::__1::__tree.42"* %0, i64 0, i32 1, i32 0, i32 0, i32 0
  %82 = load %"class.std::__1::__tree_node_base"*, %"class.std::__1::__tree_node_base"** %81, align 8
  tail call void @_ZNSt3__127__tree_balance_after_insertIPNS_16__tree_node_baseIPvEEEEvT_S5_(%"class.std::__1::__tree_node_base"* %82, %"class.std::__1::__tree_node_base"* %80) #8
  %83 = getelementptr inbounds %"class.std::__1::__tree.42", %"class.std::__1::__tree.42"* %0, i64 0, i32 2, i32 0, i32 0
  %84 = load i64, i64* %83, align 8
  %85 = add i64 %84, 1
  store i64 %85, i64* %83, align 8
  br label %86

86:                                               ; preds = %79, %49
  %87 = phi i8 [ 1, %79 ], [ 0, %49 ]
  %88 = phi %"class.std::__1::__tree_node"* [ %65, %79 ], [ %53, %49 ]
  %89 = getelementptr inbounds %"class.std::__1::__tree_node", %"class.std::__1::__tree_node"* %88, i64 0, i32 0, i32 0
  %90 = insertvalue { %"class.std::__1::__tree_end_node"*, i8 } undef, %"class.std::__1::__tree_end_node"* %89, 0
  %91 = insertvalue { %"class.std::__1::__tree_end_node"*, i8 } %90, i8 %87, 1
  ret { %"class.std::__1::__tree_end_node"*, i8 } %91
}

; Function Attrs: nobuiltin nofree
declare noalias nonnull i8* @_Znwm(i64) local_unnamed_addr #7

; Function Attrs: nounwind ssp uwtable
define linkonce_odr hidden void @_ZNSt3__127__tree_balance_after_insertIPNS_16__tree_node_baseIPvEEEEvT_S5_(%"class.std::__1::__tree_node_base"*, %"class.std::__1::__tree_node_base"*) local_unnamed_addr #0 comdat {
  %3 = icmp eq %"class.std::__1::__tree_node_base"* %1, %0
  %4 = getelementptr inbounds %"class.std::__1::__tree_node_base", %"class.std::__1::__tree_node_base"* %1, i64 0, i32 3
  %5 = zext i1 %3 to i8
  store i8 %5, i8* %4, align 8
  br i1 %3, label %156, label %6

6:                                                ; preds = %2, %149
  %7 = phi %"class.std::__1::__tree_node_base"* [ %20, %149 ], [ %1, %2 ]
  %8 = getelementptr inbounds %"class.std::__1::__tree_node_base", %"class.std::__1::__tree_node_base"* %7, i64 0, i32 2
  %9 = bitcast %"class.std::__1::__tree_end_node"** %8 to %"class.std::__1::__tree_node_base"**
  %10 = load %"class.std::__1::__tree_node_base"*, %"class.std::__1::__tree_node_base"** %9, align 8
  %11 = getelementptr inbounds %"class.std::__1::__tree_node_base", %"class.std::__1::__tree_node_base"* %10, i64 0, i32 3
  %12 = load i8, i8* %11, align 8, !range !2
  %13 = icmp eq i8 %12, 0
  br i1 %13, label %14, label %156

14:                                               ; preds = %6
  %15 = getelementptr inbounds %"class.std::__1::__tree_node_base", %"class.std::__1::__tree_node_base"* %10, i64 0, i32 2
  %16 = load %"class.std::__1::__tree_end_node"*, %"class.std::__1::__tree_end_node"** %15, align 8
  %17 = getelementptr inbounds %"class.std::__1::__tree_end_node", %"class.std::__1::__tree_end_node"* %16, i64 0, i32 0
  %18 = load %"class.std::__1::__tree_node_base"*, %"class.std::__1::__tree_node_base"** %17, align 8
  %19 = icmp eq %"class.std::__1::__tree_node_base"* %18, %10
  %20 = bitcast %"class.std::__1::__tree_end_node"* %16 to %"class.std::__1::__tree_node_base"*
  br i1 %19, label %21, label %87

21:                                               ; preds = %14
  %22 = getelementptr inbounds %"class.std::__1::__tree_end_node", %"class.std::__1::__tree_end_node"* %16, i64 1, i32 0
  %23 = load %"class.std::__1::__tree_node_base"*, %"class.std::__1::__tree_node_base"** %22, align 8
  %24 = icmp eq %"class.std::__1::__tree_node_base"* %23, null
  br i1 %24, label %29, label %25

25:                                               ; preds = %21
  %26 = getelementptr inbounds %"class.std::__1::__tree_node_base", %"class.std::__1::__tree_node_base"* %23, i64 0, i32 3
  %27 = load i8, i8* %26, align 8, !range !2
  %28 = icmp eq i8 %27, 0
  br i1 %28, label %149, label %29

29:                                               ; preds = %25, %21
  %30 = getelementptr inbounds %"class.std::__1::__tree_node_base", %"class.std::__1::__tree_node_base"* %10, i64 0, i32 2
  %31 = bitcast %"class.std::__1::__tree_end_node"* %16 to %"class.std::__1::__tree_node_base"*
  %32 = getelementptr inbounds %"class.std::__1::__tree_node_base", %"class.std::__1::__tree_node_base"* %10, i64 0, i32 0, i32 0
  %33 = load %"class.std::__1::__tree_node_base"*, %"class.std::__1::__tree_node_base"** %32, align 8
  %34 = icmp eq %"class.std::__1::__tree_node_base"* %33, %7
  br i1 %34, label %61, label %35

35:                                               ; preds = %29
  %36 = ptrtoint %"class.std::__1::__tree_end_node"* %16 to i64
  %37 = getelementptr inbounds %"class.std::__1::__tree_node_base", %"class.std::__1::__tree_node_base"* %10, i64 0, i32 1
  %38 = load %"class.std::__1::__tree_node_base"*, %"class.std::__1::__tree_node_base"** %37, align 8
  %39 = getelementptr inbounds %"class.std::__1::__tree_node_base", %"class.std::__1::__tree_node_base"* %38, i64 0, i32 0, i32 0
  %40 = load %"class.std::__1::__tree_node_base"*, %"class.std::__1::__tree_node_base"** %39, align 8
  store %"class.std::__1::__tree_node_base"* %40, %"class.std::__1::__tree_node_base"** %37, align 8
  %41 = icmp eq %"class.std::__1::__tree_node_base"* %40, null
  br i1 %41, label %47, label %42

42:                                               ; preds = %35
  %43 = getelementptr inbounds %"class.std::__1::__tree_node_base", %"class.std::__1::__tree_node_base"* %10, i64 0, i32 0
  %44 = getelementptr inbounds %"class.std::__1::__tree_node_base", %"class.std::__1::__tree_node_base"* %40, i64 0, i32 2
  store %"class.std::__1::__tree_end_node"* %43, %"class.std::__1::__tree_end_node"** %44, align 8
  %45 = bitcast %"class.std::__1::__tree_end_node"** %30 to i64*
  %46 = load i64, i64* %45, align 8
  br label %47

47:                                               ; preds = %35, %42
  %48 = phi i64 [ %46, %42 ], [ %36, %35 ]
  %49 = getelementptr inbounds %"class.std::__1::__tree_node_base", %"class.std::__1::__tree_node_base"* %38, i64 0, i32 2
  %50 = bitcast %"class.std::__1::__tree_end_node"** %49 to i64*
  store i64 %48, i64* %50, align 8
  %51 = load %"class.std::__1::__tree_end_node"*, %"class.std::__1::__tree_end_node"** %30, align 8
  %52 = getelementptr inbounds %"class.std::__1::__tree_end_node", %"class.std::__1::__tree_end_node"* %51, i64 0, i32 0
  %53 = load %"class.std::__1::__tree_node_base"*, %"class.std::__1::__tree_node_base"** %52, align 8
  %54 = icmp eq %"class.std::__1::__tree_node_base"* %53, %10
  %55 = getelementptr inbounds %"class.std::__1::__tree_end_node", %"class.std::__1::__tree_end_node"* %51, i64 1, i32 0
  %56 = select i1 %54, %"class.std::__1::__tree_node_base"** %52, %"class.std::__1::__tree_node_base"** %55
  store %"class.std::__1::__tree_node_base"* %38, %"class.std::__1::__tree_node_base"** %56, align 8
  store %"class.std::__1::__tree_node_base"* %10, %"class.std::__1::__tree_node_base"** %39, align 8
  %57 = getelementptr inbounds %"class.std::__1::__tree_node_base", %"class.std::__1::__tree_node_base"* %38, i64 0, i32 0
  store %"class.std::__1::__tree_end_node"* %57, %"class.std::__1::__tree_end_node"** %30, align 8
  %58 = getelementptr inbounds %"class.std::__1::__tree_node_base", %"class.std::__1::__tree_node_base"* %38, i64 0, i32 2
  %59 = bitcast %"class.std::__1::__tree_end_node"** %58 to %"class.std::__1::__tree_node_base"**
  %60 = load %"class.std::__1::__tree_node_base"*, %"class.std::__1::__tree_node_base"** %59, align 8
  br label %61

61:                                               ; preds = %47, %29
  %62 = phi %"class.std::__1::__tree_node_base"* [ %31, %29 ], [ %60, %47 ]
  %63 = phi %"class.std::__1::__tree_node_base"* [ %10, %29 ], [ %38, %47 ]
  %64 = getelementptr inbounds %"class.std::__1::__tree_node_base", %"class.std::__1::__tree_node_base"* %63, i64 0, i32 3
  store i8 1, i8* %64, align 8
  %65 = getelementptr inbounds %"class.std::__1::__tree_node_base", %"class.std::__1::__tree_node_base"* %62, i64 0, i32 3
  store i8 0, i8* %65, align 8
  %66 = getelementptr inbounds %"class.std::__1::__tree_node_base", %"class.std::__1::__tree_node_base"* %62, i64 0, i32 0, i32 0
  %67 = load %"class.std::__1::__tree_node_base"*, %"class.std::__1::__tree_node_base"** %66, align 8
  %68 = getelementptr inbounds %"class.std::__1::__tree_node_base", %"class.std::__1::__tree_node_base"* %67, i64 0, i32 1
  %69 = load %"class.std::__1::__tree_node_base"*, %"class.std::__1::__tree_node_base"** %68, align 8
  store %"class.std::__1::__tree_node_base"* %69, %"class.std::__1::__tree_node_base"** %66, align 8
  %70 = icmp eq %"class.std::__1::__tree_node_base"* %69, null
  br i1 %70, label %74, label %71

71:                                               ; preds = %61
  %72 = getelementptr inbounds %"class.std::__1::__tree_node_base", %"class.std::__1::__tree_node_base"* %62, i64 0, i32 0
  %73 = getelementptr inbounds %"class.std::__1::__tree_node_base", %"class.std::__1::__tree_node_base"* %69, i64 0, i32 2
  store %"class.std::__1::__tree_end_node"* %72, %"class.std::__1::__tree_end_node"** %73, align 8
  br label %74

74:                                               ; preds = %71, %61
  %75 = getelementptr inbounds %"class.std::__1::__tree_node_base", %"class.std::__1::__tree_node_base"* %62, i64 0, i32 2
  %76 = bitcast %"class.std::__1::__tree_end_node"** %75 to i64*
  %77 = load i64, i64* %76, align 8
  %78 = getelementptr inbounds %"class.std::__1::__tree_node_base", %"class.std::__1::__tree_node_base"* %67, i64 0, i32 2
  %79 = bitcast %"class.std::__1::__tree_end_node"** %78 to i64*
  store i64 %77, i64* %79, align 8
  %80 = load %"class.std::__1::__tree_end_node"*, %"class.std::__1::__tree_end_node"** %75, align 8
  %81 = getelementptr inbounds %"class.std::__1::__tree_end_node", %"class.std::__1::__tree_end_node"* %80, i64 0, i32 0
  %82 = load %"class.std::__1::__tree_node_base"*, %"class.std::__1::__tree_node_base"** %81, align 8
  %83 = icmp eq %"class.std::__1::__tree_node_base"* %82, %62
  %84 = getelementptr inbounds %"class.std::__1::__tree_end_node", %"class.std::__1::__tree_end_node"* %80, i64 1, i32 0
  %85 = select i1 %83, %"class.std::__1::__tree_node_base"** %81, %"class.std::__1::__tree_node_base"** %84
  store %"class.std::__1::__tree_node_base"* %67, %"class.std::__1::__tree_node_base"** %85, align 8
  store %"class.std::__1::__tree_node_base"* %62, %"class.std::__1::__tree_node_base"** %68, align 8
  %86 = getelementptr inbounds %"class.std::__1::__tree_node_base", %"class.std::__1::__tree_node_base"* %67, i64 0, i32 0
  store %"class.std::__1::__tree_end_node"* %86, %"class.std::__1::__tree_end_node"** %75, align 8
  br label %156

87:                                               ; preds = %14
  %88 = icmp eq %"class.std::__1::__tree_node_base"* %18, null
  br i1 %88, label %93, label %89

89:                                               ; preds = %87
  %90 = getelementptr inbounds %"class.std::__1::__tree_node_base", %"class.std::__1::__tree_node_base"* %18, i64 0, i32 3
  %91 = load i8, i8* %90, align 8, !range !2
  %92 = icmp eq i8 %91, 0
  br i1 %92, label %149, label %93

93:                                               ; preds = %89, %87
  %94 = getelementptr inbounds %"class.std::__1::__tree_node_base", %"class.std::__1::__tree_node_base"* %10, i64 0, i32 2
  %95 = bitcast %"class.std::__1::__tree_end_node"* %16 to %"class.std::__1::__tree_node_base"*
  %96 = getelementptr inbounds %"class.std::__1::__tree_node_base", %"class.std::__1::__tree_node_base"* %10, i64 0, i32 0, i32 0
  %97 = load %"class.std::__1::__tree_node_base"*, %"class.std::__1::__tree_node_base"** %96, align 8
  %98 = icmp eq %"class.std::__1::__tree_node_base"* %97, %7
  br i1 %98, label %99, label %123

99:                                               ; preds = %93
  %100 = ptrtoint %"class.std::__1::__tree_end_node"* %16 to i64
  %101 = getelementptr inbounds %"class.std::__1::__tree_node_base", %"class.std::__1::__tree_node_base"* %10, i64 0, i32 0, i32 0
  %102 = getelementptr inbounds %"class.std::__1::__tree_node_base", %"class.std::__1::__tree_node_base"* %7, i64 0, i32 1
  %103 = load %"class.std::__1::__tree_node_base"*, %"class.std::__1::__tree_node_base"** %102, align 8
  store %"class.std::__1::__tree_node_base"* %103, %"class.std::__1::__tree_node_base"** %101, align 8
  %104 = icmp eq %"class.std::__1::__tree_node_base"* %103, null
  br i1 %104, label %110, label %105

105:                                              ; preds = %99
  %106 = getelementptr inbounds %"class.std::__1::__tree_node_base", %"class.std::__1::__tree_node_base"* %10, i64 0, i32 0
  %107 = getelementptr inbounds %"class.std::__1::__tree_node_base", %"class.std::__1::__tree_node_base"* %103, i64 0, i32 2
  store %"class.std::__1::__tree_end_node"* %106, %"class.std::__1::__tree_end_node"** %107, align 8
  %108 = bitcast %"class.std::__1::__tree_end_node"** %94 to i64*
  %109 = load i64, i64* %108, align 8
  br label %110

110:                                              ; preds = %99, %105
  %111 = phi i64 [ %109, %105 ], [ %100, %99 ]
  %112 = bitcast %"class.std::__1::__tree_end_node"** %8 to i64*
  store i64 %111, i64* %112, align 8
  %113 = load %"class.std::__1::__tree_end_node"*, %"class.std::__1::__tree_end_node"** %94, align 8
  %114 = getelementptr inbounds %"class.std::__1::__tree_end_node", %"class.std::__1::__tree_end_node"* %113, i64 0, i32 0
  %115 = load %"class.std::__1::__tree_node_base"*, %"class.std::__1::__tree_node_base"** %114, align 8
  %116 = icmp eq %"class.std::__1::__tree_node_base"* %115, %10
  %117 = getelementptr inbounds %"class.std::__1::__tree_end_node", %"class.std::__1::__tree_end_node"* %113, i64 1, i32 0
  %118 = select i1 %116, %"class.std::__1::__tree_node_base"** %114, %"class.std::__1::__tree_node_base"** %117
  store %"class.std::__1::__tree_node_base"* %7, %"class.std::__1::__tree_node_base"** %118, align 8
  store %"class.std::__1::__tree_node_base"* %10, %"class.std::__1::__tree_node_base"** %102, align 8
  %119 = getelementptr inbounds %"class.std::__1::__tree_node_base", %"class.std::__1::__tree_node_base"* %7, i64 0, i32 0
  store %"class.std::__1::__tree_end_node"* %119, %"class.std::__1::__tree_end_node"** %94, align 8
  %120 = getelementptr inbounds %"class.std::__1::__tree_node_base", %"class.std::__1::__tree_node_base"* %7, i64 0, i32 2
  %121 = bitcast %"class.std::__1::__tree_end_node"** %120 to %"class.std::__1::__tree_node_base"**
  %122 = load %"class.std::__1::__tree_node_base"*, %"class.std::__1::__tree_node_base"** %121, align 8
  br label %123

123:                                              ; preds = %93, %110
  %124 = phi %"class.std::__1::__tree_node_base"* [ %122, %110 ], [ %95, %93 ]
  %125 = phi %"class.std::__1::__tree_node_base"* [ %7, %110 ], [ %10, %93 ]
  %126 = getelementptr inbounds %"class.std::__1::__tree_node_base", %"class.std::__1::__tree_node_base"* %125, i64 0, i32 3
  store i8 1, i8* %126, align 8
  %127 = getelementptr inbounds %"class.std::__1::__tree_node_base", %"class.std::__1::__tree_node_base"* %124, i64 0, i32 3
  store i8 0, i8* %127, align 8
  %128 = getelementptr inbounds %"class.std::__1::__tree_node_base", %"class.std::__1::__tree_node_base"* %124, i64 0, i32 1
  %129 = load %"class.std::__1::__tree_node_base"*, %"class.std::__1::__tree_node_base"** %128, align 8
  %130 = getelementptr inbounds %"class.std::__1::__tree_node_base", %"class.std::__1::__tree_node_base"* %129, i64 0, i32 0, i32 0
  %131 = load %"class.std::__1::__tree_node_base"*, %"class.std::__1::__tree_node_base"** %130, align 8
  store %"class.std::__1::__tree_node_base"* %131, %"class.std::__1::__tree_node_base"** %128, align 8
  %132 = icmp eq %"class.std::__1::__tree_node_base"* %131, null
  br i1 %132, label %136, label %133

133:                                              ; preds = %123
  %134 = getelementptr inbounds %"class.std::__1::__tree_node_base", %"class.std::__1::__tree_node_base"* %124, i64 0, i32 0
  %135 = getelementptr inbounds %"class.std::__1::__tree_node_base", %"class.std::__1::__tree_node_base"* %131, i64 0, i32 2
  store %"class.std::__1::__tree_end_node"* %134, %"class.std::__1::__tree_end_node"** %135, align 8
  br label %136

136:                                              ; preds = %133, %123
  %137 = getelementptr inbounds %"class.std::__1::__tree_node_base", %"class.std::__1::__tree_node_base"* %124, i64 0, i32 2
  %138 = bitcast %"class.std::__1::__tree_end_node"** %137 to i64*
  %139 = load i64, i64* %138, align 8
  %140 = getelementptr inbounds %"class.std::__1::__tree_node_base", %"class.std::__1::__tree_node_base"* %129, i64 0, i32 2
  %141 = bitcast %"class.std::__1::__tree_end_node"** %140 to i64*
  store i64 %139, i64* %141, align 8
  %142 = load %"class.std::__1::__tree_end_node"*, %"class.std::__1::__tree_end_node"** %137, align 8
  %143 = getelementptr inbounds %"class.std::__1::__tree_end_node", %"class.std::__1::__tree_end_node"* %142, i64 0, i32 0
  %144 = load %"class.std::__1::__tree_node_base"*, %"class.std::__1::__tree_node_base"** %143, align 8
  %145 = icmp eq %"class.std::__1::__tree_node_base"* %144, %124
  %146 = getelementptr inbounds %"class.std::__1::__tree_end_node", %"class.std::__1::__tree_end_node"* %142, i64 1, i32 0
  %147 = select i1 %145, %"class.std::__1::__tree_node_base"** %143, %"class.std::__1::__tree_node_base"** %146
  store %"class.std::__1::__tree_node_base"* %129, %"class.std::__1::__tree_node_base"** %147, align 8
  store %"class.std::__1::__tree_node_base"* %124, %"class.std::__1::__tree_node_base"** %130, align 8
  %148 = getelementptr inbounds %"class.std::__1::__tree_node_base", %"class.std::__1::__tree_node_base"* %129, i64 0, i32 0
  store %"class.std::__1::__tree_end_node"* %148, %"class.std::__1::__tree_end_node"** %137, align 8
  br label %156

149:                                              ; preds = %89, %25
  %150 = phi i8* [ %26, %25 ], [ %90, %89 ]
  store i8 1, i8* %11, align 8
  %151 = icmp eq %"class.std::__1::__tree_node_base"* %20, %0
  %152 = getelementptr inbounds %"class.std::__1::__tree_end_node", %"class.std::__1::__tree_end_node"* %16, i64 3
  %153 = bitcast %"class.std::__1::__tree_end_node"* %152 to i8*
  %154 = zext i1 %151 to i8
  store i8 %154, i8* %153, align 8
  store i8 1, i8* %150, align 8
  %155 = icmp eq %"class.std::__1::__tree_node_base"* %20, %0
  br i1 %155, label %156, label %6

156:                                              ; preds = %6, %149, %2, %136, %74
  ret void
}

; Function Attrs: nounwind ssp uwtable
define linkonce_odr hidden i64 @_ZNSt3__16__treeINS_12__value_typeINS_4pairIjjEEN4util6IdTypeIN3gpu23ClientDiscardableHandleEiLi0ELi1EEEEENS_19__map_value_compareIS3_S9_NS_4lessIS3_EELb1EEENS_9allocatorIS9_EEE14__erase_uniqueIS3_EEmRKT_(%"class.std::__1::__tree.42"*, %"struct.std::__1::pair"* dereferenceable(8)) local_unnamed_addr #0 comdat align 2 {
  %3 = getelementptr inbounds %"class.std::__1::__tree.42", %"class.std::__1::__tree.42"* %0, i64 0, i32 1, i32 0, i32 0
  %4 = bitcast %"class.std::__1::__tree_end_node"* %3 to %"class.std::__1::__tree_node"**
  %5 = load %"class.std::__1::__tree_node"*, %"class.std::__1::__tree_node"** %4, align 8
  %6 = icmp eq %"class.std::__1::__tree_node"* %5, null
  %7 = bitcast %"class.std::__1::__tree_node"* %5 to %"class.std::__1::__tree_node_base"*
  br i1 %6, label %94, label %8

8:                                                ; preds = %2
  %9 = getelementptr inbounds %"struct.std::__1::pair", %"struct.std::__1::pair"* %1, i64 0, i32 0
  %10 = load i32, i32* %9, align 4
  %11 = getelementptr inbounds %"struct.std::__1::pair", %"struct.std::__1::pair"* %1, i64 0, i32 1
  %12 = load i32, i32* %11, align 4
  br label %13

13:                                               ; preds = %33, %8
  %14 = phi %"class.std::__1::__tree_end_node"* [ %3, %8 ], [ %35, %33 ]
  %15 = phi %"class.std::__1::__tree_node"* [ %5, %8 ], [ %36, %33 ]
  %16 = getelementptr inbounds %"class.std::__1::__tree_node", %"class.std::__1::__tree_node"* %15, i64 0, i32 1, i32 0, i32 0, i32 0
  %17 = load i32, i32* %16, align 4
  %18 = icmp ult i32 %17, %10
  br i1 %18, label %19, label %22

19:                                               ; preds = %13
  %20 = getelementptr inbounds %"class.std::__1::__tree_node", %"class.std::__1::__tree_node"* %15, i64 0, i32 0, i32 1
  %21 = bitcast %"class.std::__1::__tree_node_base"** %20 to %"class.std::__1::__tree_node"**
  br label %33

22:                                               ; preds = %13
  %23 = icmp ult i32 %10, %17
  br i1 %23, label %30, label %24

24:                                               ; preds = %22
  %25 = getelementptr inbounds %"class.std::__1::__tree_node", %"class.std::__1::__tree_node"* %15, i64 0, i32 1, i32 0, i32 0, i32 1
  %26 = load i32, i32* %25, align 4
  %27 = icmp ult i32 %26, %12
  %28 = getelementptr inbounds %"class.std::__1::__tree_node", %"class.std::__1::__tree_node"* %15, i64 0, i32 0, i32 1
  %29 = bitcast %"class.std::__1::__tree_node_base"** %28 to %"class.std::__1::__tree_node"**
  br i1 %27, label %33, label %30

30:                                               ; preds = %24, %22
  %31 = bitcast %"class.std::__1::__tree_node"* %15 to %"class.std::__1::__tree_node"**
  %32 = getelementptr inbounds %"class.std::__1::__tree_node", %"class.std::__1::__tree_node"* %15, i64 0, i32 0, i32 0
  br label %33

33:                                               ; preds = %30, %24, %19
  %34 = phi %"class.std::__1::__tree_node"** [ %31, %30 ], [ %21, %19 ], [ %29, %24 ]
  %35 = phi %"class.std::__1::__tree_end_node"* [ %32, %30 ], [ %14, %19 ], [ %14, %24 ]
  %36 = load %"class.std::__1::__tree_node"*, %"class.std::__1::__tree_node"** %34, align 8
  %37 = icmp eq %"class.std::__1::__tree_node"* %36, null
  br i1 %37, label %38, label %13

38:                                               ; preds = %33
  %39 = icmp eq %"class.std::__1::__tree_end_node"* %35, %3
  br i1 %39, label %94, label %40

40:                                               ; preds = %38
  %41 = bitcast %"class.std::__1::__tree_end_node"* %35 to %"class.std::__1::__tree_node"*
  %42 = getelementptr inbounds %"class.std::__1::__tree_node", %"class.std::__1::__tree_node"* %41, i64 0, i32 1, i32 0, i32 0, i32 0
  %43 = load i32, i32* %42, align 4
  %44 = icmp ult i32 %10, %43
  br i1 %44, label %94, label %45

45:                                               ; preds = %40
  %46 = icmp ult i32 %43, %10
  br i1 %46, label %52, label %47

47:                                               ; preds = %45
  %48 = getelementptr inbounds %"class.std::__1::__tree_end_node", %"class.std::__1::__tree_end_node"* %35, i64 4
  %49 = bitcast %"class.std::__1::__tree_end_node"* %48 to i32*
  %50 = load i32, i32* %49, align 4
  %51 = icmp ult i32 %12, %50
  br i1 %51, label %94, label %52

52:                                               ; preds = %45, %47
  %53 = getelementptr inbounds %"class.std::__1::__tree_end_node", %"class.std::__1::__tree_end_node"* %35, i64 1, i32 0
  %54 = load %"class.std::__1::__tree_node_base"*, %"class.std::__1::__tree_node_base"** %53, align 8
  %55 = icmp eq %"class.std::__1::__tree_node_base"* %54, null
  br i1 %55, label %56, label %64

56:                                               ; preds = %52
  %57 = bitcast %"class.std::__1::__tree_end_node"* %35 to %"class.std::__1::__tree_node_base"*
  %58 = getelementptr inbounds %"class.std::__1::__tree_end_node", %"class.std::__1::__tree_end_node"* %35, i64 2
  %59 = bitcast %"class.std::__1::__tree_end_node"* %58 to %"class.std::__1::__tree_end_node"**
  %60 = load %"class.std::__1::__tree_end_node"*, %"class.std::__1::__tree_end_node"** %59, align 8
  %61 = getelementptr inbounds %"class.std::__1::__tree_end_node", %"class.std::__1::__tree_end_node"* %60, i64 0, i32 0
  %62 = load %"class.std::__1::__tree_node_base"*, %"class.std::__1::__tree_node_base"** %61, align 8
  %63 = icmp eq %"class.std::__1::__tree_node_base"* %62, %57
  br i1 %63, label %80, label %71

64:                                               ; preds = %52, %64
  %65 = phi %"class.std::__1::__tree_node_base"* [ %67, %64 ], [ %54, %52 ]
  %66 = getelementptr inbounds %"class.std::__1::__tree_node_base", %"class.std::__1::__tree_node_base"* %65, i64 0, i32 0, i32 0
  %67 = load %"class.std::__1::__tree_node_base"*, %"class.std::__1::__tree_node_base"** %66, align 8
  %68 = icmp eq %"class.std::__1::__tree_node_base"* %67, null
  br i1 %68, label %69, label %64

69:                                               ; preds = %64
  %70 = getelementptr inbounds %"class.std::__1::__tree_node_base", %"class.std::__1::__tree_node_base"* %65, i64 0, i32 0
  br label %80

71:                                               ; preds = %56, %71
  %72 = phi %"class.std::__1::__tree_end_node"** [ %75, %71 ], [ %59, %56 ]
  %73 = bitcast %"class.std::__1::__tree_end_node"** %72 to %"class.std::__1::__tree_node_base"**
  %74 = load %"class.std::__1::__tree_node_base"*, %"class.std::__1::__tree_node_base"** %73, align 8
  %75 = getelementptr inbounds %"class.std::__1::__tree_node_base", %"class.std::__1::__tree_node_base"* %74, i64 0, i32 2
  %76 = load %"class.std::__1::__tree_end_node"*, %"class.std::__1::__tree_end_node"** %75, align 8
  %77 = getelementptr inbounds %"class.std::__1::__tree_end_node", %"class.std::__1::__tree_end_node"* %76, i64 0, i32 0
  %78 = load %"class.std::__1::__tree_node_base"*, %"class.std::__1::__tree_node_base"** %77, align 8
  %79 = icmp eq %"class.std::__1::__tree_node_base"* %78, %74
  br i1 %79, label %80, label %71

80:                                               ; preds = %71, %69, %56
  %81 = phi %"class.std::__1::__tree_end_node"* [ %70, %69 ], [ %60, %56 ], [ %76, %71 ]
  %82 = getelementptr inbounds %"class.std::__1::__tree.42", %"class.std::__1::__tree.42"* %0, i64 0, i32 0
  %83 = load %"class.std::__1::__tree_end_node"*, %"class.std::__1::__tree_end_node"** %82, align 8
  %84 = icmp eq %"class.std::__1::__tree_end_node"* %83, %35
  br i1 %84, label %85, label %88

85:                                               ; preds = %80
  %86 = ptrtoint %"class.std::__1::__tree_end_node"* %81 to i64
  %87 = bitcast %"class.std::__1::__tree.42"* %0 to i64*
  store i64 %86, i64* %87, align 8
  br label %88

88:                                               ; preds = %80, %85
  %89 = getelementptr inbounds %"class.std::__1::__tree.42", %"class.std::__1::__tree.42"* %0, i64 0, i32 2, i32 0, i32 0
  %90 = load i64, i64* %89, align 8
  %91 = add i64 %90, -1
  store i64 %91, i64* %89, align 8
  %92 = bitcast %"class.std::__1::__tree_end_node"* %35 to %"class.std::__1::__tree_node_base"*
  tail call void @_ZNSt3__113__tree_removeIPNS_16__tree_node_baseIPvEEEEvT_S5_(%"class.std::__1::__tree_node_base"* nonnull %7, %"class.std::__1::__tree_node_base"* %92) #8
  %93 = bitcast %"class.std::__1::__tree_end_node"* %35 to i8*
  tail call void @_ZdlPv(i8* %93) #9
  br label %94

94:                                               ; preds = %47, %40, %38, %2, %88
  %95 = phi i64 [ 1, %88 ], [ 0, %2 ], [ 0, %38 ], [ 0, %40 ], [ 0, %47 ]
  ret i64 %95
}

; Function Attrs: nounwind ssp uwtable
define linkonce_odr hidden void @_ZNSt3__113__tree_removeIPNS_16__tree_node_baseIPvEEEEvT_S5_(%"class.std::__1::__tree_node_base"*, %"class.std::__1::__tree_node_base"*) local_unnamed_addr #0 comdat {
  %3 = getelementptr inbounds %"class.std::__1::__tree_node_base", %"class.std::__1::__tree_node_base"* %1, i64 0, i32 0, i32 0
  %4 = load %"class.std::__1::__tree_node_base"*, %"class.std::__1::__tree_node_base"** %3, align 8
  %5 = icmp eq %"class.std::__1::__tree_node_base"* %4, null
  br i1 %5, label %17, label %6

6:                                                ; preds = %2
  %7 = getelementptr inbounds %"class.std::__1::__tree_node_base", %"class.std::__1::__tree_node_base"* %1, i64 0, i32 1
  %8 = load %"class.std::__1::__tree_node_base"*, %"class.std::__1::__tree_node_base"** %7, align 8
  %9 = icmp eq %"class.std::__1::__tree_node_base"* %8, null
  br i1 %9, label %15, label %10

10:                                               ; preds = %6, %10
  %11 = phi %"class.std::__1::__tree_node_base"* [ %13, %10 ], [ %8, %6 ]
  %12 = getelementptr inbounds %"class.std::__1::__tree_node_base", %"class.std::__1::__tree_node_base"* %11, i64 0, i32 0, i32 0
  %13 = load %"class.std::__1::__tree_node_base"*, %"class.std::__1::__tree_node_base"** %12, align 8
  %14 = icmp eq %"class.std::__1::__tree_node_base"* %13, null
  br i1 %14, label %17, label %10

15:                                               ; preds = %6
  %16 = getelementptr inbounds %"class.std::__1::__tree_node_base", %"class.std::__1::__tree_node_base"* %1, i64 0, i32 0, i32 0
  br label %23

17:                                               ; preds = %10, %2
  %18 = phi %"class.std::__1::__tree_node_base"* [ %1, %2 ], [ %11, %10 ]
  %19 = getelementptr inbounds %"class.std::__1::__tree_node_base", %"class.std::__1::__tree_node_base"* %18, i64 0, i32 0, i32 0
  %20 = getelementptr inbounds %"class.std::__1::__tree_node_base", %"class.std::__1::__tree_node_base"* %18, i64 0, i32 1
  %21 = load %"class.std::__1::__tree_node_base"*, %"class.std::__1::__tree_node_base"** %20, align 8
  %22 = icmp eq %"class.std::__1::__tree_node_base"* %21, null
  br i1 %22, label %32, label %23

23:                                               ; preds = %15, %17
  %24 = phi %"class.std::__1::__tree_node_base"** [ %19, %17 ], [ %16, %15 ]
  %25 = phi %"class.std::__1::__tree_node_base"* [ %18, %17 ], [ %1, %15 ]
  %26 = phi %"class.std::__1::__tree_node_base"* [ %21, %17 ], [ %4, %15 ]
  %27 = getelementptr inbounds %"class.std::__1::__tree_node_base", %"class.std::__1::__tree_node_base"* %25, i64 0, i32 2
  %28 = bitcast %"class.std::__1::__tree_end_node"** %27 to i64*
  %29 = load i64, i64* %28, align 8
  %30 = getelementptr inbounds %"class.std::__1::__tree_node_base", %"class.std::__1::__tree_node_base"* %26, i64 0, i32 2
  %31 = bitcast %"class.std::__1::__tree_end_node"** %30 to i64*
  store i64 %29, i64* %31, align 8
  br label %32

32:                                               ; preds = %17, %23
  %33 = phi %"class.std::__1::__tree_node_base"** [ %24, %23 ], [ %19, %17 ]
  %34 = phi %"class.std::__1::__tree_node_base"* [ %25, %23 ], [ %18, %17 ]
  %35 = phi i1 [ true, %23 ], [ false, %17 ]
  %36 = phi %"class.std::__1::__tree_node_base"* [ %26, %23 ], [ null, %17 ]
  %37 = getelementptr inbounds %"class.std::__1::__tree_node_base", %"class.std::__1::__tree_node_base"* %34, i64 0, i32 2
  %38 = load %"class.std::__1::__tree_end_node"*, %"class.std::__1::__tree_end_node"** %37, align 8
  %39 = getelementptr inbounds %"class.std::__1::__tree_end_node", %"class.std::__1::__tree_end_node"* %38, i64 0, i32 0
  %40 = load %"class.std::__1::__tree_node_base"*, %"class.std::__1::__tree_node_base"** %39, align 8
  %41 = icmp eq %"class.std::__1::__tree_node_base"* %40, %34
  br i1 %41, label %42, label %48

42:                                               ; preds = %32
  store %"class.std::__1::__tree_node_base"* %36, %"class.std::__1::__tree_node_base"** %39, align 8
  %43 = icmp eq %"class.std::__1::__tree_node_base"* %34, %0
  br i1 %43, label %55, label %44

44:                                               ; preds = %42
  %45 = bitcast %"class.std::__1::__tree_end_node"** %37 to %"class.std::__1::__tree_node_base"**
  %46 = load %"class.std::__1::__tree_node_base"*, %"class.std::__1::__tree_node_base"** %45, align 8
  %47 = getelementptr inbounds %"class.std::__1::__tree_node_base", %"class.std::__1::__tree_node_base"* %46, i64 0, i32 1
  br label %52

48:                                               ; preds = %32
  %49 = getelementptr inbounds %"class.std::__1::__tree_end_node", %"class.std::__1::__tree_end_node"* %38, i64 1, i32 0
  store %"class.std::__1::__tree_node_base"* %36, %"class.std::__1::__tree_node_base"** %49, align 8
  %50 = load %"class.std::__1::__tree_end_node"*, %"class.std::__1::__tree_end_node"** %37, align 8
  %51 = getelementptr inbounds %"class.std::__1::__tree_end_node", %"class.std::__1::__tree_end_node"* %50, i64 0, i32 0
  br label %52

52:                                               ; preds = %48, %44
  %53 = phi %"class.std::__1::__tree_node_base"** [ %47, %44 ], [ %51, %48 ]
  %54 = load %"class.std::__1::__tree_node_base"*, %"class.std::__1::__tree_node_base"** %53, align 8
  br label %55

55:                                               ; preds = %52, %42
  %56 = phi %"class.std::__1::__tree_node_base"* [ %36, %42 ], [ %0, %52 ]
  %57 = phi %"class.std::__1::__tree_node_base"* [ null, %42 ], [ %54, %52 ]
  %58 = getelementptr inbounds %"class.std::__1::__tree_node_base", %"class.std::__1::__tree_node_base"* %34, i64 0, i32 3
  %59 = load i8, i8* %58, align 8, !range !2
  %60 = icmp ne i8 %59, 0
  %61 = icmp eq %"class.std::__1::__tree_node_base"* %34, %1
  br i1 %61, label %90, label %62

62:                                               ; preds = %55
  %63 = getelementptr inbounds %"class.std::__1::__tree_node_base", %"class.std::__1::__tree_node_base"* %1, i64 0, i32 2
  %64 = bitcast %"class.std::__1::__tree_end_node"** %63 to i64*
  %65 = load i64, i64* %64, align 8
  %66 = bitcast %"class.std::__1::__tree_end_node"** %37 to i64*
  store i64 %65, i64* %66, align 8
  %67 = load %"class.std::__1::__tree_end_node"*, %"class.std::__1::__tree_end_node"** %63, align 8
  %68 = getelementptr inbounds %"class.std::__1::__tree_end_node", %"class.std::__1::__tree_end_node"* %67, i64 0, i32 0
  %69 = load %"class.std::__1::__tree_node_base"*, %"class.std::__1::__tree_node_base"** %68, align 8
  %70 = icmp eq %"class.std::__1::__tree_node_base"* %69, %1
  %71 = inttoptr i64 %65 to %"class.std::__1::__tree_node_base"*
  %72 = getelementptr inbounds %"class.std::__1::__tree_node_base", %"class.std::__1::__tree_node_base"* %71, i64 0, i32 1
  %73 = inttoptr i64 %65 to %"class.std::__1::__tree_end_node"*
  %74 = getelementptr inbounds %"class.std::__1::__tree_end_node", %"class.std::__1::__tree_end_node"* %73, i64 0, i32 0
  %75 = select i1 %70, %"class.std::__1::__tree_node_base"** %74, %"class.std::__1::__tree_node_base"** %72
  store %"class.std::__1::__tree_node_base"* %34, %"class.std::__1::__tree_node_base"** %75, align 8
  %76 = load %"class.std::__1::__tree_node_base"*, %"class.std::__1::__tree_node_base"** %3, align 8
  store %"class.std::__1::__tree_node_base"* %76, %"class.std::__1::__tree_node_base"** %33, align 8
  %77 = getelementptr inbounds %"class.std::__1::__tree_node_base", %"class.std::__1::__tree_node_base"* %34, i64 0, i32 0
  %78 = getelementptr inbounds %"class.std::__1::__tree_node_base", %"class.std::__1::__tree_node_base"* %76, i64 0, i32 2
  store %"class.std::__1::__tree_end_node"* %77, %"class.std::__1::__tree_end_node"** %78, align 8
  %79 = getelementptr inbounds %"class.std::__1::__tree_node_base", %"class.std::__1::__tree_node_base"* %1, i64 0, i32 1
  %80 = load %"class.std::__1::__tree_node_base"*, %"class.std::__1::__tree_node_base"** %79, align 8
  %81 = getelementptr inbounds %"class.std::__1::__tree_node_base", %"class.std::__1::__tree_node_base"* %34, i64 0, i32 1
  store %"class.std::__1::__tree_node_base"* %80, %"class.std::__1::__tree_node_base"** %81, align 8
  %82 = icmp eq %"class.std::__1::__tree_node_base"* %80, null
  br i1 %82, label %85, label %83

83:                                               ; preds = %62
  %84 = getelementptr inbounds %"class.std::__1::__tree_node_base", %"class.std::__1::__tree_node_base"* %80, i64 0, i32 2
  store %"class.std::__1::__tree_end_node"* %77, %"class.std::__1::__tree_end_node"** %84, align 8
  br label %85

85:                                               ; preds = %62, %83
  %86 = getelementptr inbounds %"class.std::__1::__tree_node_base", %"class.std::__1::__tree_node_base"* %1, i64 0, i32 3
  %87 = load i8, i8* %86, align 8, !range !2
  store i8 %87, i8* %58, align 8
  %88 = icmp eq %"class.std::__1::__tree_node_base"* %56, %1
  %89 = select i1 %88, %"class.std::__1::__tree_node_base"* %34, %"class.std::__1::__tree_node_base"* %56
  br label %90

90:                                               ; preds = %85, %55
  %91 = phi %"class.std::__1::__tree_node_base"* [ %56, %55 ], [ %89, %85 ]
  %92 = icmp ne %"class.std::__1::__tree_node_base"* %91, null
  %93 = and i1 %60, %92
  br i1 %93, label %94, label %382

94:                                               ; preds = %90
  br i1 %35, label %95, label %97

95:                                               ; preds = %94
  %96 = getelementptr inbounds %"class.std::__1::__tree_node_base", %"class.std::__1::__tree_node_base"* %36, i64 0, i32 3
  store i8 1, i8* %96, align 8
  br label %382

97:                                               ; preds = %94, %371
  %98 = phi %"class.std::__1::__tree_node_base"* [ %373, %371 ], [ %91, %94 ]
  %99 = phi %"class.std::__1::__tree_node_base"* [ %381, %371 ], [ %57, %94 ]
  %100 = getelementptr inbounds %"class.std::__1::__tree_node_base", %"class.std::__1::__tree_node_base"* %99, i64 0, i32 2
  %101 = load %"class.std::__1::__tree_end_node"*, %"class.std::__1::__tree_end_node"** %100, align 8
  %102 = getelementptr inbounds %"class.std::__1::__tree_end_node", %"class.std::__1::__tree_end_node"* %101, i64 0, i32 0
  %103 = load %"class.std::__1::__tree_node_base"*, %"class.std::__1::__tree_node_base"** %102, align 8
  %104 = icmp eq %"class.std::__1::__tree_node_base"* %103, %99
  %105 = getelementptr inbounds %"class.std::__1::__tree_node_base", %"class.std::__1::__tree_node_base"* %99, i64 0, i32 3
  %106 = load i8, i8* %105, align 8, !range !2
  %107 = icmp ne i8 %106, 0
  br i1 %104, label %242, label %108

108:                                              ; preds = %97
  br i1 %107, label %141, label %109

109:                                              ; preds = %108
  store i8 1, i8* %105, align 8
  %110 = bitcast %"class.std::__1::__tree_end_node"** %100 to %"class.std::__1::__tree_node_base"**
  %111 = getelementptr inbounds %"class.std::__1::__tree_end_node", %"class.std::__1::__tree_end_node"* %101, i64 3
  %112 = bitcast %"class.std::__1::__tree_end_node"* %111 to i8*
  store i8 0, i8* %112, align 8
  %113 = load %"class.std::__1::__tree_node_base"*, %"class.std::__1::__tree_node_base"** %110, align 8
  %114 = getelementptr inbounds %"class.std::__1::__tree_node_base", %"class.std::__1::__tree_node_base"* %113, i64 0, i32 1
  %115 = load %"class.std::__1::__tree_node_base"*, %"class.std::__1::__tree_node_base"** %114, align 8
  %116 = getelementptr inbounds %"class.std::__1::__tree_node_base", %"class.std::__1::__tree_node_base"* %115, i64 0, i32 0, i32 0
  %117 = load %"class.std::__1::__tree_node_base"*, %"class.std::__1::__tree_node_base"** %116, align 8
  store %"class.std::__1::__tree_node_base"* %117, %"class.std::__1::__tree_node_base"** %114, align 8
  %118 = icmp eq %"class.std::__1::__tree_node_base"* %117, null
  br i1 %118, label %122, label %119

119:                                              ; preds = %109
  %120 = getelementptr inbounds %"class.std::__1::__tree_node_base", %"class.std::__1::__tree_node_base"* %113, i64 0, i32 0
  %121 = getelementptr inbounds %"class.std::__1::__tree_node_base", %"class.std::__1::__tree_node_base"* %117, i64 0, i32 2
  store %"class.std::__1::__tree_end_node"* %120, %"class.std::__1::__tree_end_node"** %121, align 8
  br label %122

122:                                              ; preds = %119, %109
  %123 = getelementptr inbounds %"class.std::__1::__tree_node_base", %"class.std::__1::__tree_node_base"* %113, i64 0, i32 2
  %124 = bitcast %"class.std::__1::__tree_end_node"** %123 to i64*
  %125 = load i64, i64* %124, align 8
  %126 = getelementptr inbounds %"class.std::__1::__tree_node_base", %"class.std::__1::__tree_node_base"* %115, i64 0, i32 2
  %127 = bitcast %"class.std::__1::__tree_end_node"** %126 to i64*
  store i64 %125, i64* %127, align 8
  %128 = load %"class.std::__1::__tree_end_node"*, %"class.std::__1::__tree_end_node"** %123, align 8
  %129 = getelementptr inbounds %"class.std::__1::__tree_end_node", %"class.std::__1::__tree_end_node"* %128, i64 0, i32 0
  %130 = load %"class.std::__1::__tree_node_base"*, %"class.std::__1::__tree_node_base"** %129, align 8
  %131 = icmp eq %"class.std::__1::__tree_node_base"* %130, %113
  %132 = getelementptr inbounds %"class.std::__1::__tree_end_node", %"class.std::__1::__tree_end_node"* %128, i64 1, i32 0
  %133 = select i1 %131, %"class.std::__1::__tree_node_base"** %129, %"class.std::__1::__tree_node_base"** %132
  store %"class.std::__1::__tree_node_base"* %115, %"class.std::__1::__tree_node_base"** %133, align 8
  store %"class.std::__1::__tree_node_base"* %113, %"class.std::__1::__tree_node_base"** %116, align 8
  %134 = getelementptr inbounds %"class.std::__1::__tree_node_base", %"class.std::__1::__tree_node_base"* %115, i64 0, i32 0
  store %"class.std::__1::__tree_end_node"* %134, %"class.std::__1::__tree_end_node"** %123, align 8
  %135 = getelementptr inbounds %"class.std::__1::__tree_node_base", %"class.std::__1::__tree_node_base"* %99, i64 0, i32 0, i32 0
  %136 = load %"class.std::__1::__tree_node_base"*, %"class.std::__1::__tree_node_base"** %135, align 8
  %137 = icmp eq %"class.std::__1::__tree_node_base"* %98, %136
  %138 = select i1 %137, %"class.std::__1::__tree_node_base"* %99, %"class.std::__1::__tree_node_base"* %98
  %139 = getelementptr inbounds %"class.std::__1::__tree_node_base", %"class.std::__1::__tree_node_base"* %136, i64 0, i32 1
  %140 = load %"class.std::__1::__tree_node_base"*, %"class.std::__1::__tree_node_base"** %139, align 8
  br label %141

141:                                              ; preds = %122, %108
  %142 = phi %"class.std::__1::__tree_node_base"* [ %98, %108 ], [ %138, %122 ]
  %143 = phi %"class.std::__1::__tree_node_base"* [ %99, %108 ], [ %140, %122 ]
  %144 = getelementptr inbounds %"class.std::__1::__tree_node_base", %"class.std::__1::__tree_node_base"* %143, i64 0, i32 0, i32 0
  %145 = load %"class.std::__1::__tree_node_base"*, %"class.std::__1::__tree_node_base"** %144, align 8
  %146 = icmp eq %"class.std::__1::__tree_node_base"* %145, null
  br i1 %146, label %151, label %147

147:                                              ; preds = %141
  %148 = getelementptr inbounds %"class.std::__1::__tree_node_base", %"class.std::__1::__tree_node_base"* %145, i64 0, i32 3
  %149 = load i8, i8* %148, align 8, !range !2
  %150 = icmp eq i8 %149, 0
  br i1 %150, label %172, label %151

151:                                              ; preds = %147, %141
  %152 = getelementptr inbounds %"class.std::__1::__tree_node_base", %"class.std::__1::__tree_node_base"* %143, i64 0, i32 1
  %153 = load %"class.std::__1::__tree_node_base"*, %"class.std::__1::__tree_node_base"** %152, align 8
  %154 = icmp eq %"class.std::__1::__tree_node_base"* %153, null
  br i1 %154, label %159, label %155

155:                                              ; preds = %151
  %156 = getelementptr inbounds %"class.std::__1::__tree_node_base", %"class.std::__1::__tree_node_base"* %153, i64 0, i32 3
  %157 = load i8, i8* %156, align 8, !range !2
  %158 = icmp eq i8 %157, 0
  br i1 %158, label %177, label %159

159:                                              ; preds = %155, %151
  %160 = getelementptr inbounds %"class.std::__1::__tree_node_base", %"class.std::__1::__tree_node_base"* %143, i64 0, i32 3
  store i8 0, i8* %160, align 8
  %161 = getelementptr inbounds %"class.std::__1::__tree_node_base", %"class.std::__1::__tree_node_base"* %143, i64 0, i32 2
  %162 = bitcast %"class.std::__1::__tree_end_node"** %161 to %"class.std::__1::__tree_node_base"**
  %163 = load %"class.std::__1::__tree_node_base"*, %"class.std::__1::__tree_node_base"** %162, align 8
  %164 = icmp eq %"class.std::__1::__tree_node_base"* %163, %142
  br i1 %164, label %169, label %165

165:                                              ; preds = %159
  %166 = getelementptr inbounds %"class.std::__1::__tree_node_base", %"class.std::__1::__tree_node_base"* %163, i64 0, i32 3
  %167 = load i8, i8* %166, align 8, !range !2
  %168 = icmp eq i8 %167, 0
  br i1 %168, label %169, label %371

169:                                              ; preds = %165, %159
  %170 = phi %"class.std::__1::__tree_node_base"* [ %163, %165 ], [ %142, %159 ]
  %171 = getelementptr inbounds %"class.std::__1::__tree_node_base", %"class.std::__1::__tree_node_base"* %170, i64 0, i32 3
  store i8 1, i8* %171, align 8
  br label %382

172:                                              ; preds = %147
  %173 = getelementptr inbounds %"class.std::__1::__tree_node_base", %"class.std::__1::__tree_node_base"* %143, i64 0, i32 0, i32 0
  %174 = getelementptr inbounds %"class.std::__1::__tree_node_base", %"class.std::__1::__tree_node_base"* %143, i64 0, i32 1
  %175 = load %"class.std::__1::__tree_node_base"*, %"class.std::__1::__tree_node_base"** %174, align 8
  %176 = icmp eq %"class.std::__1::__tree_node_base"* %175, null
  br i1 %176, label %185, label %179

177:                                              ; preds = %155
  %178 = getelementptr inbounds %"class.std::__1::__tree_node_base", %"class.std::__1::__tree_node_base"* %143, i64 0, i32 0, i32 0
  br label %179

179:                                              ; preds = %177, %172
  %180 = phi %"class.std::__1::__tree_node_base"** [ %173, %172 ], [ %178, %177 ]
  %181 = phi %"class.std::__1::__tree_node_base"* [ %175, %172 ], [ %153, %177 ]
  %182 = getelementptr inbounds %"class.std::__1::__tree_node_base", %"class.std::__1::__tree_node_base"* %181, i64 0, i32 3
  %183 = load i8, i8* %182, align 8, !range !2
  %184 = icmp eq i8 %183, 0
  br i1 %184, label %209, label %185

185:                                              ; preds = %179, %172
  %186 = phi %"class.std::__1::__tree_node_base"** [ %180, %179 ], [ %173, %172 ]
  %187 = getelementptr inbounds %"class.std::__1::__tree_node_base", %"class.std::__1::__tree_node_base"* %145, i64 0, i32 3
  store i8 1, i8* %187, align 8
  %188 = getelementptr inbounds %"class.std::__1::__tree_node_base", %"class.std::__1::__tree_node_base"* %143, i64 0, i32 3
  store i8 0, i8* %188, align 8
  %189 = load %"class.std::__1::__tree_node_base"*, %"class.std::__1::__tree_node_base"** %186, align 8
  %190 = getelementptr inbounds %"class.std::__1::__tree_node_base", %"class.std::__1::__tree_node_base"* %189, i64 0, i32 1
  %191 = load %"class.std::__1::__tree_node_base"*, %"class.std::__1::__tree_node_base"** %190, align 8
  store %"class.std::__1::__tree_node_base"* %191, %"class.std::__1::__tree_node_base"** %186, align 8
  %192 = icmp eq %"class.std::__1::__tree_node_base"* %191, null
  br i1 %192, label %196, label %193

193:                                              ; preds = %185
  %194 = getelementptr inbounds %"class.std::__1::__tree_node_base", %"class.std::__1::__tree_node_base"* %143, i64 0, i32 0
  %195 = getelementptr inbounds %"class.std::__1::__tree_node_base", %"class.std::__1::__tree_node_base"* %191, i64 0, i32 2
  store %"class.std::__1::__tree_end_node"* %194, %"class.std::__1::__tree_end_node"** %195, align 8
  br label %196

196:                                              ; preds = %193, %185
  %197 = getelementptr inbounds %"class.std::__1::__tree_node_base", %"class.std::__1::__tree_node_base"* %143, i64 0, i32 2
  %198 = bitcast %"class.std::__1::__tree_end_node"** %197 to i64*
  %199 = load i64, i64* %198, align 8
  %200 = getelementptr inbounds %"class.std::__1::__tree_node_base", %"class.std::__1::__tree_node_base"* %189, i64 0, i32 2
  %201 = bitcast %"class.std::__1::__tree_end_node"** %200 to i64*
  store i64 %199, i64* %201, align 8
  %202 = load %"class.std::__1::__tree_end_node"*, %"class.std::__1::__tree_end_node"** %197, align 8
  %203 = getelementptr inbounds %"class.std::__1::__tree_end_node", %"class.std::__1::__tree_end_node"* %202, i64 0, i32 0
  %204 = load %"class.std::__1::__tree_node_base"*, %"class.std::__1::__tree_node_base"** %203, align 8
  %205 = icmp eq %"class.std::__1::__tree_node_base"* %204, %143
  %206 = getelementptr inbounds %"class.std::__1::__tree_end_node", %"class.std::__1::__tree_end_node"* %202, i64 1, i32 0
  %207 = select i1 %205, %"class.std::__1::__tree_node_base"** %203, %"class.std::__1::__tree_node_base"** %206
  store %"class.std::__1::__tree_node_base"* %189, %"class.std::__1::__tree_node_base"** %207, align 8
  store %"class.std::__1::__tree_node_base"* %143, %"class.std::__1::__tree_node_base"** %190, align 8
  %208 = getelementptr inbounds %"class.std::__1::__tree_node_base", %"class.std::__1::__tree_node_base"* %189, i64 0, i32 0
  store %"class.std::__1::__tree_end_node"* %208, %"class.std::__1::__tree_end_node"** %197, align 8
  br label %209

209:                                              ; preds = %179, %196
  %210 = phi %"class.std::__1::__tree_node_base"* [ %189, %196 ], [ %143, %179 ]
  %211 = getelementptr inbounds %"class.std::__1::__tree_node_base", %"class.std::__1::__tree_node_base"* %210, i64 0, i32 2
  %212 = bitcast %"class.std::__1::__tree_end_node"** %211 to %"class.std::__1::__tree_node_base"**
  %213 = load %"class.std::__1::__tree_node_base"*, %"class.std::__1::__tree_node_base"** %212, align 8
  %214 = getelementptr inbounds %"class.std::__1::__tree_node_base", %"class.std::__1::__tree_node_base"* %213, i64 0, i32 3
  %215 = load i8, i8* %214, align 8, !range !2
  %216 = getelementptr inbounds %"class.std::__1::__tree_node_base", %"class.std::__1::__tree_node_base"* %210, i64 0, i32 3
  store i8 %215, i8* %216, align 8
  store i8 1, i8* %214, align 8
  %217 = getelementptr inbounds %"class.std::__1::__tree_node_base", %"class.std::__1::__tree_node_base"* %210, i64 0, i32 1
  %218 = load %"class.std::__1::__tree_node_base"*, %"class.std::__1::__tree_node_base"** %217, align 8
  %219 = getelementptr inbounds %"class.std::__1::__tree_node_base", %"class.std::__1::__tree_node_base"* %218, i64 0, i32 3
  store i8 1, i8* %219, align 8
  %220 = load %"class.std::__1::__tree_node_base"*, %"class.std::__1::__tree_node_base"** %212, align 8
  %221 = getelementptr inbounds %"class.std::__1::__tree_node_base", %"class.std::__1::__tree_node_base"* %220, i64 0, i32 1
  %222 = load %"class.std::__1::__tree_node_base"*, %"class.std::__1::__tree_node_base"** %221, align 8
  %223 = getelementptr inbounds %"class.std::__1::__tree_node_base", %"class.std::__1::__tree_node_base"* %222, i64 0, i32 0, i32 0
  %224 = load %"class.std::__1::__tree_node_base"*, %"class.std::__1::__tree_node_base"** %223, align 8
  store %"class.std::__1::__tree_node_base"* %224, %"class.std::__1::__tree_node_base"** %221, align 8
  %225 = icmp eq %"class.std::__1::__tree_node_base"* %224, null
  br i1 %225, label %229, label %226

226:                                              ; preds = %209
  %227 = getelementptr inbounds %"class.std::__1::__tree_node_base", %"class.std::__1::__tree_node_base"* %220, i64 0, i32 0
  %228 = getelementptr inbounds %"class.std::__1::__tree_node_base", %"class.std::__1::__tree_node_base"* %224, i64 0, i32 2
  store %"class.std::__1::__tree_end_node"* %227, %"class.std::__1::__tree_end_node"** %228, align 8
  br label %229

229:                                              ; preds = %226, %209
  %230 = getelementptr inbounds %"class.std::__1::__tree_node_base", %"class.std::__1::__tree_node_base"* %220, i64 0, i32 2
  %231 = bitcast %"class.std::__1::__tree_end_node"** %230 to i64*
  %232 = load i64, i64* %231, align 8
  %233 = getelementptr inbounds %"class.std::__1::__tree_node_base", %"class.std::__1::__tree_node_base"* %222, i64 0, i32 2
  %234 = bitcast %"class.std::__1::__tree_end_node"** %233 to i64*
  store i64 %232, i64* %234, align 8
  %235 = load %"class.std::__1::__tree_end_node"*, %"class.std::__1::__tree_end_node"** %230, align 8
  %236 = getelementptr inbounds %"class.std::__1::__tree_end_node", %"class.std::__1::__tree_end_node"* %235, i64 0, i32 0
  %237 = load %"class.std::__1::__tree_node_base"*, %"class.std::__1::__tree_node_base"** %236, align 8
  %238 = icmp eq %"class.std::__1::__tree_node_base"* %237, %220
  %239 = getelementptr inbounds %"class.std::__1::__tree_end_node", %"class.std::__1::__tree_end_node"* %235, i64 1, i32 0
  %240 = select i1 %238, %"class.std::__1::__tree_node_base"** %236, %"class.std::__1::__tree_node_base"** %239
  store %"class.std::__1::__tree_node_base"* %222, %"class.std::__1::__tree_node_base"** %240, align 8
  store %"class.std::__1::__tree_node_base"* %220, %"class.std::__1::__tree_node_base"** %223, align 8
  %241 = getelementptr inbounds %"class.std::__1::__tree_node_base", %"class.std::__1::__tree_node_base"* %222, i64 0, i32 0
  store %"class.std::__1::__tree_end_node"* %241, %"class.std::__1::__tree_end_node"** %230, align 8
  br label %382

242:                                              ; preds = %97
  br i1 %107, label %275, label %243

243:                                              ; preds = %242
  store i8 1, i8* %105, align 8
  %244 = bitcast %"class.std::__1::__tree_end_node"** %100 to %"class.std::__1::__tree_node_base"**
  %245 = getelementptr inbounds %"class.std::__1::__tree_end_node", %"class.std::__1::__tree_end_node"* %101, i64 3
  %246 = bitcast %"class.std::__1::__tree_end_node"* %245 to i8*
  store i8 0, i8* %246, align 8
  %247 = load %"class.std::__1::__tree_node_base"*, %"class.std::__1::__tree_node_base"** %244, align 8
  %248 = getelementptr inbounds %"class.std::__1::__tree_node_base", %"class.std::__1::__tree_node_base"* %247, i64 0, i32 0, i32 0
  %249 = load %"class.std::__1::__tree_node_base"*, %"class.std::__1::__tree_node_base"** %248, align 8
  %250 = getelementptr inbounds %"class.std::__1::__tree_node_base", %"class.std::__1::__tree_node_base"* %249, i64 0, i32 1
  %251 = load %"class.std::__1::__tree_node_base"*, %"class.std::__1::__tree_node_base"** %250, align 8
  store %"class.std::__1::__tree_node_base"* %251, %"class.std::__1::__tree_node_base"** %248, align 8
  %252 = icmp eq %"class.std::__1::__tree_node_base"* %251, null
  br i1 %252, label %256, label %253

253:                                              ; preds = %243
  %254 = getelementptr inbounds %"class.std::__1::__tree_node_base", %"class.std::__1::__tree_node_base"* %247, i64 0, i32 0
  %255 = getelementptr inbounds %"class.std::__1::__tree_node_base", %"class.std::__1::__tree_node_base"* %251, i64 0, i32 2
  store %"class.std::__1::__tree_end_node"* %254, %"class.std::__1::__tree_end_node"** %255, align 8
  br label %256

256:                                              ; preds = %253, %243
  %257 = getelementptr inbounds %"class.std::__1::__tree_node_base", %"class.std::__1::__tree_node_base"* %247, i64 0, i32 2
  %258 = bitcast %"class.std::__1::__tree_end_node"** %257 to i64*
  %259 = load i64, i64* %258, align 8
  %260 = getelementptr inbounds %"class.std::__1::__tree_node_base", %"class.std::__1::__tree_node_base"* %249, i64 0, i32 2
  %261 = bitcast %"class.std::__1::__tree_end_node"** %260 to i64*
  store i64 %259, i64* %261, align 8
  %262 = load %"class.std::__1::__tree_end_node"*, %"class.std::__1::__tree_end_node"** %257, align 8
  %263 = getelementptr inbounds %"class.std::__1::__tree_end_node", %"class.std::__1::__tree_end_node"* %262, i64 0, i32 0
  %264 = load %"class.std::__1::__tree_node_base"*, %"class.std::__1::__tree_node_base"** %263, align 8
  %265 = icmp eq %"class.std::__1::__tree_node_base"* %264, %247
  %266 = getelementptr inbounds %"class.std::__1::__tree_end_node", %"class.std::__1::__tree_end_node"* %262, i64 1, i32 0
  %267 = select i1 %265, %"class.std::__1::__tree_node_base"** %263, %"class.std::__1::__tree_node_base"** %266
  store %"class.std::__1::__tree_node_base"* %249, %"class.std::__1::__tree_node_base"** %267, align 8
  store %"class.std::__1::__tree_node_base"* %247, %"class.std::__1::__tree_node_base"** %250, align 8
  %268 = getelementptr inbounds %"class.std::__1::__tree_node_base", %"class.std::__1::__tree_node_base"* %249, i64 0, i32 0
  store %"class.std::__1::__tree_end_node"* %268, %"class.std::__1::__tree_end_node"** %257, align 8
  %269 = getelementptr inbounds %"class.std::__1::__tree_node_base", %"class.std::__1::__tree_node_base"* %99, i64 0, i32 1
  %270 = load %"class.std::__1::__tree_node_base"*, %"class.std::__1::__tree_node_base"** %269, align 8
  %271 = icmp eq %"class.std::__1::__tree_node_base"* %98, %270
  %272 = select i1 %271, %"class.std::__1::__tree_node_base"* %99, %"class.std::__1::__tree_node_base"* %98
  %273 = getelementptr inbounds %"class.std::__1::__tree_node_base", %"class.std::__1::__tree_node_base"* %270, i64 0, i32 0, i32 0
  %274 = load %"class.std::__1::__tree_node_base"*, %"class.std::__1::__tree_node_base"** %273, align 8
  br label %275

275:                                              ; preds = %256, %242
  %276 = phi %"class.std::__1::__tree_node_base"* [ %98, %242 ], [ %272, %256 ]
  %277 = phi %"class.std::__1::__tree_node_base"* [ %99, %242 ], [ %274, %256 ]
  %278 = getelementptr inbounds %"class.std::__1::__tree_node_base", %"class.std::__1::__tree_node_base"* %277, i64 0, i32 0, i32 0
  %279 = load %"class.std::__1::__tree_node_base"*, %"class.std::__1::__tree_node_base"** %278, align 8
  %280 = icmp eq %"class.std::__1::__tree_node_base"* %279, null
  br i1 %280, label %285, label %281

281:                                              ; preds = %275
  %282 = getelementptr inbounds %"class.std::__1::__tree_node_base", %"class.std::__1::__tree_node_base"* %279, i64 0, i32 3
  %283 = load i8, i8* %282, align 8, !range !2
  %284 = icmp eq i8 %283, 0
  br i1 %284, label %338, label %285

285:                                              ; preds = %281, %275
  %286 = getelementptr inbounds %"class.std::__1::__tree_node_base", %"class.std::__1::__tree_node_base"* %277, i64 0, i32 1
  %287 = load %"class.std::__1::__tree_node_base"*, %"class.std::__1::__tree_node_base"** %286, align 8
  %288 = icmp eq %"class.std::__1::__tree_node_base"* %287, null
  br i1 %288, label %293, label %289

289:                                              ; preds = %285
  %290 = getelementptr inbounds %"class.std::__1::__tree_node_base", %"class.std::__1::__tree_node_base"* %287, i64 0, i32 3
  %291 = load i8, i8* %290, align 8, !range !2
  %292 = icmp eq i8 %291, 0
  br i1 %292, label %305, label %293

293:                                              ; preds = %289, %285
  %294 = getelementptr inbounds %"class.std::__1::__tree_node_base", %"class.std::__1::__tree_node_base"* %277, i64 0, i32 3
  store i8 0, i8* %294, align 8
  %295 = getelementptr inbounds %"class.std::__1::__tree_node_base", %"class.std::__1::__tree_node_base"* %277, i64 0, i32 2
  %296 = bitcast %"class.std::__1::__tree_end_node"** %295 to %"class.std::__1::__tree_node_base"**
  %297 = load %"class.std::__1::__tree_node_base"*, %"class.std::__1::__tree_node_base"** %296, align 8
  %298 = getelementptr inbounds %"class.std::__1::__tree_node_base", %"class.std::__1::__tree_node_base"* %297, i64 0, i32 3
  %299 = load i8, i8* %298, align 8, !range !2
  %300 = icmp eq i8 %299, 0
  %301 = icmp eq %"class.std::__1::__tree_node_base"* %297, %276
  %302 = or i1 %301, %300
  br i1 %302, label %303, label %371

303:                                              ; preds = %293
  %304 = getelementptr inbounds %"class.std::__1::__tree_node_base", %"class.std::__1::__tree_node_base"* %297, i64 0, i32 3
  store i8 1, i8* %304, align 8
  br label %382

305:                                              ; preds = %289
  br i1 %280, label %313, label %306

306:                                              ; preds = %305
  %307 = getelementptr inbounds %"class.std::__1::__tree_node_base", %"class.std::__1::__tree_node_base"* %279, i64 0, i32 3
  %308 = load i8, i8* %307, align 8, !range !2
  %309 = icmp eq i8 %308, 0
  br i1 %309, label %338, label %310

310:                                              ; preds = %306
  %311 = getelementptr inbounds %"class.std::__1::__tree_node_base", %"class.std::__1::__tree_node_base"* %277, i64 0, i32 1
  %312 = load %"class.std::__1::__tree_node_base"*, %"class.std::__1::__tree_node_base"** %311, align 8
  br label %313

313:                                              ; preds = %310, %305
  %314 = phi %"class.std::__1::__tree_node_base"* [ %312, %310 ], [ %287, %305 ]
  %315 = getelementptr inbounds %"class.std::__1::__tree_node_base", %"class.std::__1::__tree_node_base"* %277, i64 0, i32 1
  %316 = getelementptr inbounds %"class.std::__1::__tree_node_base", %"class.std::__1::__tree_node_base"* %314, i64 0, i32 3
  store i8 1, i8* %316, align 8
  %317 = getelementptr inbounds %"class.std::__1::__tree_node_base", %"class.std::__1::__tree_node_base"* %277, i64 0, i32 3
  store i8 0, i8* %317, align 8
  %318 = load %"class.std::__1::__tree_node_base"*, %"class.std::__1::__tree_node_base"** %315, align 8
  %319 = getelementptr inbounds %"class.std::__1::__tree_node_base", %"class.std::__1::__tree_node_base"* %318, i64 0, i32 0, i32 0
  %320 = load %"class.std::__1::__tree_node_base"*, %"class.std::__1::__tree_node_base"** %319, align 8
  store %"class.std::__1::__tree_node_base"* %320, %"class.std::__1::__tree_node_base"** %315, align 8
  %321 = icmp eq %"class.std::__1::__tree_node_base"* %320, null
  br i1 %321, label %325, label %322

322:                                              ; preds = %313
  %323 = getelementptr inbounds %"class.std::__1::__tree_node_base", %"class.std::__1::__tree_node_base"* %277, i64 0, i32 0
  %324 = getelementptr inbounds %"class.std::__1::__tree_node_base", %"class.std::__1::__tree_node_base"* %320, i64 0, i32 2
  store %"class.std::__1::__tree_end_node"* %323, %"class.std::__1::__tree_end_node"** %324, align 8
  br label %325

325:                                              ; preds = %322, %313
  %326 = getelementptr inbounds %"class.std::__1::__tree_node_base", %"class.std::__1::__tree_node_base"* %277, i64 0, i32 2
  %327 = bitcast %"class.std::__1::__tree_end_node"** %326 to i64*
  %328 = load i64, i64* %327, align 8
  %329 = getelementptr inbounds %"class.std::__1::__tree_node_base", %"class.std::__1::__tree_node_base"* %318, i64 0, i32 2
  %330 = bitcast %"class.std::__1::__tree_end_node"** %329 to i64*
  store i64 %328, i64* %330, align 8
  %331 = load %"class.std::__1::__tree_end_node"*, %"class.std::__1::__tree_end_node"** %326, align 8
  %332 = getelementptr inbounds %"class.std::__1::__tree_end_node", %"class.std::__1::__tree_end_node"* %331, i64 0, i32 0
  %333 = load %"class.std::__1::__tree_node_base"*, %"class.std::__1::__tree_node_base"** %332, align 8
  %334 = icmp eq %"class.std::__1::__tree_node_base"* %333, %277
  %335 = getelementptr inbounds %"class.std::__1::__tree_end_node", %"class.std::__1::__tree_end_node"* %331, i64 1, i32 0
  %336 = select i1 %334, %"class.std::__1::__tree_node_base"** %332, %"class.std::__1::__tree_node_base"** %335
  store %"class.std::__1::__tree_node_base"* %318, %"class.std::__1::__tree_node_base"** %336, align 8
  store %"class.std::__1::__tree_node_base"* %277, %"class.std::__1::__tree_node_base"** %319, align 8
  %337 = getelementptr inbounds %"class.std::__1::__tree_node_base", %"class.std::__1::__tree_node_base"* %318, i64 0, i32 0
  store %"class.std::__1::__tree_end_node"* %337, %"class.std::__1::__tree_end_node"** %326, align 8
  br label %338

338:                                              ; preds = %281, %306, %325
  %339 = phi %"class.std::__1::__tree_node_base"* [ %318, %325 ], [ %277, %306 ], [ %277, %281 ]
  %340 = getelementptr inbounds %"class.std::__1::__tree_node_base", %"class.std::__1::__tree_node_base"* %339, i64 0, i32 2
  %341 = bitcast %"class.std::__1::__tree_end_node"** %340 to %"class.std::__1::__tree_node_base"**
  %342 = load %"class.std::__1::__tree_node_base"*, %"class.std::__1::__tree_node_base"** %341, align 8
  %343 = getelementptr inbounds %"class.std::__1::__tree_node_base", %"class.std::__1::__tree_node_base"* %342, i64 0, i32 3
  %344 = load i8, i8* %343, align 8, !range !2
  %345 = getelementptr inbounds %"class.std::__1::__tree_node_base", %"class.std::__1::__tree_node_base"* %339, i64 0, i32 3
  store i8 %344, i8* %345, align 8
  store i8 1, i8* %343, align 8
  %346 = getelementptr inbounds %"class.std::__1::__tree_node_base", %"class.std::__1::__tree_node_base"* %339, i64 0, i32 0, i32 0
  %347 = load %"class.std::__1::__tree_node_base"*, %"class.std::__1::__tree_node_base"** %346, align 8
  %348 = getelementptr inbounds %"class.std::__1::__tree_node_base", %"class.std::__1::__tree_node_base"* %347, i64 0, i32 3
  store i8 1, i8* %348, align 8
  %349 = load %"class.std::__1::__tree_node_base"*, %"class.std::__1::__tree_node_base"** %341, align 8
  %350 = getelementptr inbounds %"class.std::__1::__tree_node_base", %"class.std::__1::__tree_node_base"* %349, i64 0, i32 0, i32 0
  %351 = load %"class.std::__1::__tree_node_base"*, %"class.std::__1::__tree_node_base"** %350, align 8
  %352 = getelementptr inbounds %"class.std::__1::__tree_node_base", %"class.std::__1::__tree_node_base"* %351, i64 0, i32 1
  %353 = load %"class.std::__1::__tree_node_base"*, %"class.std::__1::__tree_node_base"** %352, align 8
  store %"class.std::__1::__tree_node_base"* %353, %"class.std::__1::__tree_node_base"** %350, align 8
  %354 = icmp eq %"class.std::__1::__tree_node_base"* %353, null
  br i1 %354, label %358, label %355

355:                                              ; preds = %338
  %356 = getelementptr inbounds %"class.std::__1::__tree_node_base", %"class.std::__1::__tree_node_base"* %349, i64 0, i32 0
  %357 = getelementptr inbounds %"class.std::__1::__tree_node_base", %"class.std::__1::__tree_node_base"* %353, i64 0, i32 2
  store %"class.std::__1::__tree_end_node"* %356, %"class.std::__1::__tree_end_node"** %357, align 8
  br label %358

358:                                              ; preds = %355, %338
  %359 = getelementptr inbounds %"class.std::__1::__tree_node_base", %"class.std::__1::__tree_node_base"* %349, i64 0, i32 2
  %360 = bitcast %"class.std::__1::__tree_end_node"** %359 to i64*
  %361 = load i64, i64* %360, align 8
  %362 = getelementptr inbounds %"class.std::__1::__tree_node_base", %"class.std::__1::__tree_node_base"* %351, i64 0, i32 2
  %363 = bitcast %"class.std::__1::__tree_end_node"** %362 to i64*
  store i64 %361, i64* %363, align 8
  %364 = load %"class.std::__1::__tree_end_node"*, %"class.std::__1::__tree_end_node"** %359, align 8
  %365 = getelementptr inbounds %"class.std::__1::__tree_end_node", %"class.std::__1::__tree_end_node"* %364, i64 0, i32 0
  %366 = load %"class.std::__1::__tree_node_base"*, %"class.std::__1::__tree_node_base"** %365, align 8
  %367 = icmp eq %"class.std::__1::__tree_node_base"* %366, %349
  %368 = getelementptr inbounds %"class.std::__1::__tree_end_node", %"class.std::__1::__tree_end_node"* %364, i64 1, i32 0
  %369 = select i1 %367, %"class.std::__1::__tree_node_base"** %365, %"class.std::__1::__tree_node_base"** %368
  store %"class.std::__1::__tree_node_base"* %351, %"class.std::__1::__tree_node_base"** %369, align 8
  store %"class.std::__1::__tree_node_base"* %349, %"class.std::__1::__tree_node_base"** %352, align 8
  %370 = getelementptr inbounds %"class.std::__1::__tree_node_base", %"class.std::__1::__tree_node_base"* %351, i64 0, i32 0
  store %"class.std::__1::__tree_end_node"* %370, %"class.std::__1::__tree_end_node"** %359, align 8
  br label %382

371:                                              ; preds = %293, %165
  %372 = phi %"class.std::__1::__tree_node_base"* [ %163, %165 ], [ %297, %293 ]
  %373 = phi %"class.std::__1::__tree_node_base"* [ %142, %165 ], [ %276, %293 ]
  %374 = getelementptr inbounds %"class.std::__1::__tree_node_base", %"class.std::__1::__tree_node_base"* %372, i64 0, i32 2
  %375 = load %"class.std::__1::__tree_end_node"*, %"class.std::__1::__tree_end_node"** %374, align 8
  %376 = getelementptr inbounds %"class.std::__1::__tree_end_node", %"class.std::__1::__tree_end_node"* %375, i64 0, i32 0
  %377 = load %"class.std::__1::__tree_node_base"*, %"class.std::__1::__tree_node_base"** %376, align 8
  %378 = icmp eq %"class.std::__1::__tree_node_base"* %377, %372
  %379 = getelementptr inbounds %"class.std::__1::__tree_end_node", %"class.std::__1::__tree_end_node"* %375, i64 1, i32 0
  %380 = select i1 %378, %"class.std::__1::__tree_node_base"** %379, %"class.std::__1::__tree_node_base"** %376
  %381 = load %"class.std::__1::__tree_node_base"*, %"class.std::__1::__tree_node_base"** %380, align 8
  br label %97

382:                                              ; preds = %95, %358, %303, %229, %169, %90
  ret void
}

attributes #0 = { nounwind ssp uwtable "correctly-rounded-divide-sqrt-fp-math"="false" "disable-tail-calls"="false" "less-precise-fpmad"="false" "min-legal-vector-width"="0" "no-frame-pointer-elim"="false" "no-frame-pointer-elim-non-leaf" "no-infs-fp-math"="false" "no-jump-tables"="false" "no-nans-fp-math"="false" "no-signed-zeros-fp-math"="false" "no-trapping-math"="false" "null-pointer-is-valid"="true" "stack-protector-buffer-size"="4" "target-cpu"="x86-64" "target-features"="+cx8,+fxsr,+mmx,+sse,+sse2,+sse3,+x87" "unsafe-fp-math"="false" "use-soft-float"="false" }
attributes #1 = { "correctly-rounded-divide-sqrt-fp-math"="false" "disable-tail-calls"="false" "less-precise-fpmad"="false" "no-frame-pointer-elim"="false" "no-frame-pointer-elim-non-leaf" "no-infs-fp-math"="false" "no-nans-fp-math"="false" "no-signed-zeros-fp-math"="false" "no-trapping-math"="false" "null-pointer-is-valid"="true" "stack-protector-buffer-size"="4" "target-cpu"="x86-64" "target-features"="+cx8,+fxsr,+mmx,+sse,+sse2,+sse3,+x87" "unsafe-fp-math"="false" "use-soft-float"="false" }
attributes #2 = { nounwind "correctly-rounded-divide-sqrt-fp-math"="false" "disable-tail-calls"="false" "less-precise-fpmad"="false" "no-frame-pointer-elim"="false" "no-frame-pointer-elim-non-leaf" "no-infs-fp-math"="false" "no-nans-fp-math"="false" "no-signed-zeros-fp-math"="false" "no-trapping-math"="false" "null-pointer-is-valid"="true" "stack-protector-buffer-size"="4" "target-cpu"="x86-64" "target-features"="+cx8,+fxsr,+mmx,+sse,+sse2,+sse3,+x87" "unsafe-fp-math"="false" "use-soft-float"="false" }
attributes #3 = { argmemonly nounwind }
attributes #4 = { nounwind readonly ssp uwtable "correctly-rounded-divide-sqrt-fp-math"="false" "disable-tail-calls"="false" "less-precise-fpmad"="false" "min-legal-vector-width"="0" "no-frame-pointer-elim"="false" "no-frame-pointer-elim-non-leaf" "no-infs-fp-math"="false" "no-jump-tables"="false" "no-nans-fp-math"="false" "no-signed-zeros-fp-math"="false" "no-trapping-math"="false" "null-pointer-is-valid"="true" "stack-protector-buffer-size"="4" "target-cpu"="x86-64" "target-features"="+cx8,+fxsr,+mmx,+sse,+sse2,+sse3,+x87" "unsafe-fp-math"="false" "use-soft-float"="false" }
attributes #5 = { nobuiltin nounwind "correctly-rounded-divide-sqrt-fp-math"="false" "disable-tail-calls"="false" "less-precise-fpmad"="false" "no-frame-pointer-elim"="false" "no-frame-pointer-elim-non-leaf" "no-infs-fp-math"="false" "no-nans-fp-math"="false" "no-signed-zeros-fp-math"="false" "no-trapping-math"="false" "null-pointer-is-valid"="true" "stack-protector-buffer-size"="4" "target-cpu"="x86-64" "target-features"="+cx8,+fxsr,+mmx,+sse,+sse2,+sse3,+x87" "unsafe-fp-math"="false" "use-soft-float"="false" }
attributes #6 = { cold noreturn nounwind }
attributes #7 = { nobuiltin nofree "correctly-rounded-divide-sqrt-fp-math"="false" "disable-tail-calls"="false" "less-precise-fpmad"="false" "no-frame-pointer-elim"="false" "no-frame-pointer-elim-non-leaf" "no-infs-fp-math"="false" "no-nans-fp-math"="false" "no-signed-zeros-fp-math"="false" "no-trapping-math"="false" "null-pointer-is-valid"="true" "stack-protector-buffer-size"="4" "target-cpu"="x86-64" "target-features"="+cx8,+fxsr,+mmx,+sse,+sse2,+sse3,+x87" "unsafe-fp-math"="false" "use-soft-float"="false" }
attributes #8 = { nounwind }
attributes #9 = { builtin nounwind }

!llvm.module.flags = !{!0, !1}

!0 = !{i32 1, !"wchar_size", i32 4}
!1 = !{i32 7, !"PIC Level", i32 2}
!2 = !{i8 0, i8 2}
!3 = !{!"branch_weights", i32 2000, i32 1}
!4 = !{!"branch_weights", i32 1, i32 2000}
!5 = !{!6}
!6 = distinct !{!6, !7, !"_ZNSt3__16__treeINS_12__value_typeINS_4pairIjjEEN4util6IdTypeIN3gpu23ClientDiscardableHandleEiLi0ELi1EEEEENS_19__map_value_compareIS3_S9_NS_4lessIS3_EELb1EEENS_9allocatorIS9_EEE16__construct_nodeIJRKS3_RS8_EEENS_10unique_ptrINS_11__tree_nodeIS9_PvEENS_22__tree_node_destructorINSE_ISO_EEEEEEDpOT_: argument 0"}
!7 = distinct !{!7, !"_ZNSt3__16__treeINS_12__value_typeINS_4pairIjjEEN4util6IdTypeIN3gpu23ClientDiscardableHandleEiLi0ELi1EEEEENS_19__map_value_compareIS3_S9_NS_4lessIS3_EELb1EEENS_9allocatorIS9_EEE16__construct_nodeIJRKS3_RS8_EEENS_10unique_ptrINS_11__tree_nodeIS9_PvEENS_22__tree_node_destructorINSE_ISO_EEEEEEDpOT_"}
