; ModuleID = '../../chrome/common/cloud_print/cloud_print_constants.cc'
source_filename = "../../chrome/common/cloud_print/cloud_print_constants.cc"
target datalayout = "e-m:e-i64:64-f80:128-n8:16:32:64-S128"
target triple = "x86_64-unknown-linux-gnu"

@_ZN11cloud_print20kCloudPrintUserAgentE = hidden local_unnamed_addr constant [22 x i8] c"GoogleCloudPrintProxy\00", align 16
@_ZN11cloud_print32kChromeCloudPrintProxyHeaderNameE = hidden local_unnamed_addr constant [19 x i8] c"X-CloudPrint-Proxy\00", align 16
@_ZN11cloud_print33kChromeCloudPrintProxyHeaderValueE = hidden local_unnamed_addr constant [7 x i8] c"Chrome\00", align 1
@_ZN11cloud_print34kCloudPrintPushNotificationsSourceE = hidden local_unnamed_addr constant [22 x i8] c"cloudprint.google.com\00", align 16
@_ZN11cloud_print13kProxyIdValueE = hidden local_unnamed_addr constant [6 x i8] c"proxy\00", align 1
@_ZN11cloud_print17kPrinterNameValueE = hidden local_unnamed_addr constant [8 x i8] c"printer\00", align 1
@_ZN11cloud_print17kPrinterDescValueE = hidden local_unnamed_addr constant [12 x i8] c"description\00", align 1
@_ZN11cloud_print17kPrinterCapsValueE = hidden local_unnamed_addr constant [13 x i8] c"capabilities\00", align 1
@_ZN11cloud_print24kPrinterDisplayNameValueE = hidden local_unnamed_addr constant [21 x i8] c"default_display_name\00", align 16
@_ZN11cloud_print21kPrinterDefaultsValueE = hidden local_unnamed_addr constant [9 x i8] c"defaults\00", align 1
@_ZN11cloud_print19kPrinterStatusValueE = hidden local_unnamed_addr constant [7 x i8] c"status\00", align 1
@_ZN11cloud_print16kPrinterTagValueE = hidden local_unnamed_addr constant [4 x i8] c"tag\00", align 1
@_ZN11cloud_print22kPrinterRemoveTagValueE = hidden local_unnamed_addr constant [11 x i8] c"remove_tag\00", align 1
@_ZN11cloud_print26kPrinterLocalSettingsValueE = hidden local_unnamed_addr constant [15 x i8] c"local_settings\00", align 1
@_ZN11cloud_print17kMessageTextValueE = hidden local_unnamed_addr constant [8 x i8] c"message\00", align 1
@_ZN11cloud_print7kUseCDDE = hidden local_unnamed_addr constant [8 x i8] c"use_cdd\00", align 1
@_ZN11cloud_print16kContentTypeJSONE = hidden local_unnamed_addr constant [17 x i8] c"application/json\00", align 16
@_ZN11cloud_print15kContentTypePDFE = hidden local_unnamed_addr constant [16 x i8] c"application/pdf\00", align 16
@_ZN11cloud_print27kPrintSystemFailedMessageIdE = hidden local_unnamed_addr constant [16 x i8] c"printsystemfail\00", align 16
@_ZN11cloud_print30kGetPrinterCapsFailedMessageIdE = hidden local_unnamed_addr constant [15 x i8] c"getprncapsfail\00", align 1
@_ZN11cloud_print28kEnumPrintersFailedMessageIdE = hidden local_unnamed_addr constant [9 x i8] c"enumfail\00", align 1
@_ZN11cloud_print23kZombiePrinterMessageIdE = hidden local_unnamed_addr constant [14 x i8] c"zombieprinter\00", align 1
@_ZN11cloud_print13kSuccessValueE = hidden local_unnamed_addr constant [8 x i8] c"success\00", align 1
@_ZN11cloud_print10kNameValueE = hidden local_unnamed_addr constant [5 x i8] c"name\00", align 1
@_ZN11cloud_print17kDisplayNameValueE = hidden local_unnamed_addr constant [12 x i8] c"displayName\00", align 1
@_ZN11cloud_print8kIdValueE = hidden local_unnamed_addr constant [3 x i8] c"id\00", align 1
@_ZN11cloud_print15kTicketUrlValueE = hidden local_unnamed_addr constant [10 x i8] c"ticketUrl\00", align 1
@_ZN11cloud_print13kFileUrlValueE = hidden local_unnamed_addr constant [8 x i8] c"fileUrl\00", align 1
@_ZN11cloud_print17kPrinterListValueE = hidden local_unnamed_addr constant [9 x i8] c"printers\00", align 1
@_ZN11cloud_print13kJobListValueE = hidden local_unnamed_addr constant [5 x i8] c"jobs\00", align 1
@_ZN11cloud_print11kTitleValueE = hidden local_unnamed_addr constant [6 x i8] c"title\00", align 1
@_ZN11cloud_print11kOwnerValueE = hidden local_unnamed_addr constant [8 x i8] c"ownerId\00", align 1
@_ZN11cloud_print21kPrinterCapsHashValueE = hidden local_unnamed_addr constant [9 x i8] c"capsHash\00", align 1
@_ZN11cloud_print10kTagsValueE = hidden local_unnamed_addr constant [5 x i8] c"tags\00", align 1
@_ZN11cloud_print13kXMPPJidValueE = hidden local_unnamed_addr constant [9 x i8] c"xmpp_jid\00", align 1
@_ZN11cloud_print15kOAuthCodeValueE = hidden local_unnamed_addr constant [19 x i8] c"authorization_code\00", align 16
@_ZN11cloud_print16kCreateTimeValueE = hidden local_unnamed_addr constant [11 x i8] c"createTime\00", align 1
@_ZN11cloud_print17kPrinterTypeValueE = hidden local_unnamed_addr constant [5 x i8] c"type\00", align 1
@_ZN11cloud_print10kUserValueE = hidden local_unnamed_addr constant [13 x i8] c"request.user\00", align 1
@_ZN11cloud_print11kUsersValueE = hidden local_unnamed_addr constant [14 x i8] c"request.users\00", align 1
@_ZN11cloud_print30kLocalSettingsPendingXmppValueE = hidden local_unnamed_addr constant [42 x i8] c"local_settings.pending.xmpp_timeout_value\00", align 16
@_ZN11cloud_print27kNotificationUpdateSettingsE = hidden local_unnamed_addr constant [17 x i8] c"/update_settings\00", align 16
@_ZN11cloud_print21kChromeVersionTagNameE = hidden local_unnamed_addr constant [15 x i8] c"chrome_version\00", align 1
@_ZN11cloud_print18kSystemNameTagNameE = hidden local_unnamed_addr constant [12 x i8] c"system_name\00", align 1
@_ZN11cloud_print21kSystemVersionTagNameE = hidden local_unnamed_addr constant [15 x i8] c"system_version\00", align 1
@_ZN11cloud_print32kCloudPrintServiceProxyTagPrefixE = hidden local_unnamed_addr constant [7 x i8] c"__cp__\00", align 1
@_ZN11cloud_print33kCloudPrintServiceTagsHashTagNameE = hidden local_unnamed_addr constant [15 x i8] c"__cp__tagshash\00", align 1
@_ZN11cloud_print31kCloudPrintServiceTagDryRunFlagE = hidden local_unnamed_addr constant [14 x i8] c"__cp__dry_run\00", align 1
@_ZN11cloud_print22kJobFetchReasonStartupE = hidden local_unnamed_addr constant [8 x i8] c"startup\00", align 1
@_ZN11cloud_print19kJobFetchReasonPollE = hidden local_unnamed_addr constant [5 x i8] c"poll\00", align 1
@_ZN11cloud_print23kJobFetchReasonNotifiedE = hidden local_unnamed_addr constant [9 x i8] c"notified\00", align 1
@_ZN11cloud_print24kJobFetchReasonQueryMoreE = hidden local_unnamed_addr constant [10 x i8] c"querymore\00", align 1
@_ZN11cloud_print22kJobFetchReasonFailureE = hidden local_unnamed_addr constant [8 x i8] c"failure\00", align 1
@_ZN11cloud_print20kJobFetchReasonRetryE = hidden local_unnamed_addr constant [6 x i8] c"retry\00", align 1
@_ZN11cloud_print34kCreateLocalSettingsXmppPingFormatE = hidden local_unnamed_addr constant [39 x i8] c"{\22current\22:{\22xmpp_timeout_value\22: %d}}\00", align 16
@_ZN11cloud_print34kUpdateLocalSettingsXmppPingFormatE = hidden local_unnamed_addr constant [52 x i8] c"{\22current\22:{\22xmpp_timeout_value\22: %d},\22pending\22:{}}\00", align 16

!llvm.module.flags = !{!0, !1}

!0 = !{i32 1, !"wchar_size", i32 4}
!1 = !{i32 7, !"PIC Level", i32 2}
