; ModuleID = '../../components/policy/core/common/cloud/cloud_policy_client_registration_helper.cc'
source_filename = "../../components/policy/core/common/cloud/cloud_policy_client_registration_helper.cc"
target datalayout = "e-m:e-i64:64-f80:128-n8:16:32:64-S128"
target triple = "x86_64-unknown-linux-gnu"

module asm ".symver exp, exp@GLIBC_2.2.5"
module asm ".symver exp2, exp2@GLIBC_2.2.5"
module asm ".symver exp2f, exp2f@GLIBC_2.2.5"
module asm ".symver expf, expf@GLIBC_2.2.5"
module asm ".symver lgamma, lgamma@GLIBC_2.2.5"
module asm ".symver lgammaf, lgammaf@GLIBC_2.2.5"
module asm ".symver lgammal, lgammal@GLIBC_2.2.5"
module asm ".symver log, log@GLIBC_2.2.5"
module asm ".symver log2, log2@GLIBC_2.2.5"
module asm ".symver log2f, log2f@GLIBC_2.2.5"
module asm ".symver logf, logf@GLIBC_2.2.5"
module asm ".symver pow, pow@GLIBC_2.2.5"
module asm ".symver powf, powf@GLIBC_2.2.5"

%"class.policy::CloudPolicyClientRegistrationHelper" = type { %"class.policy::UserInfoFetcher::Delegate", %"class.policy::CloudPolicyClient::Observer", %"class.std::__1::unique_ptr.151", %"class.std::__1::unique_ptr.157", %"class.std::__1::basic_string", %class.scoped_refptr.61, %"class.policy::CloudPolicyClient"*, i32, %"class.base::OnceCallback.270" }
%"class.policy::UserInfoFetcher::Delegate" = type { i32 (...)** }
%"class.policy::CloudPolicyClient::Observer" = type { i32 (...)** }
%"class.std::__1::unique_ptr.151" = type { %"class.std::__1::__compressed_pair.152" }
%"class.std::__1::__compressed_pair.152" = type { %"struct.std::__1::__compressed_pair_elem.153" }
%"struct.std::__1::__compressed_pair_elem.153" = type { %"class.policy::CloudPolicyClientRegistrationHelper::IdentityManagerHelper"* }
%"class.policy::CloudPolicyClientRegistrationHelper::IdentityManagerHelper" = type { %"class.base::OnceCallback", %"class.std::__1::unique_ptr" }
%"class.base::OnceCallback" = type { %"class.base::internal::CallbackBase" }
%"class.base::internal::CallbackBase" = type { %class.scoped_refptr }
%class.scoped_refptr = type { %"class.base::internal::BindStateBase"* }
%"class.base::internal::BindStateBase" = type { %"class.base::RefCountedThreadSafe", void ()*, void (%"class.base::internal::BindStateBase"*)*, i1 (%"class.base::internal::BindStateBase"*, i32)* }
%"class.base::RefCountedThreadSafe" = type { %"class.base::subtle::RefCountedThreadSafeBase" }
%"class.base::subtle::RefCountedThreadSafeBase" = type { %"class.base::AtomicRefCount" }
%"class.base::AtomicRefCount" = type { %"struct.std::__1::atomic" }
%"struct.std::__1::atomic" = type { %"struct.std::__1::__atomic_base" }
%"struct.std::__1::__atomic_base" = type { %"struct.std::__1::__atomic_base.0" }
%"struct.std::__1::__atomic_base.0" = type { %"struct.std::__1::__cxx_atomic_impl" }
%"struct.std::__1::__cxx_atomic_impl" = type { %"struct.std::__1::__cxx_atomic_base_impl" }
%"struct.std::__1::__cxx_atomic_base_impl" = type { i32 }
%"class.std::__1::unique_ptr" = type { %"class.std::__1::__compressed_pair" }
%"class.std::__1::__compressed_pair" = type { %"struct.std::__1::__compressed_pair_elem" }
%"struct.std::__1::__compressed_pair_elem" = type { %"class.signin::AccessTokenFetcher"* }
%"class.signin::AccessTokenFetcher" = type { %class.ProfileOAuth2TokenServiceObserver, %"class.OAuth2AccessTokenManager::Consumer", %struct.CoreAccountId, %"class.std::__1::basic_string", %"class.std::__1::basic_string", %class.ProfileOAuth2TokenService*, %class.PrimaryAccountManager*, %class.scoped_refptr.61, %"class.std::__1::set", i32, %"class.base::OnceCallback.71", %"class.base::ScopedObservation", %"class.std::__1::unique_ptr.72" }
%class.ProfileOAuth2TokenServiceObserver = type { i32 (...)** }
%"class.OAuth2AccessTokenManager::Consumer" = type { i32 (...)**, %"class.std::__1::basic_string" }
%struct.CoreAccountId = type { %"class.std::__1::basic_string" }
%class.ProfileOAuth2TokenService = type <{ %"class.OAuth2AccessTokenManager::Delegate", %class.ProfileOAuth2TokenServiceObserver, %class.PrefService*, %"class.std::__1::unique_ptr.4", i8, [7 x i8], %"class.std::__1::unique_ptr.8", %"class.base::RepeatingCallback", %"class.base::RepeatingCallback.36", i32, [4 x i8] }>
%"class.OAuth2AccessTokenManager::Delegate" = type { i32 (...)** }
%class.PrefService = type opaque
%"class.std::__1::unique_ptr.4" = type { %"class.std::__1::__compressed_pair.5" }
%"class.std::__1::__compressed_pair.5" = type { %"struct.std::__1::__compressed_pair_elem.6" }
%"struct.std::__1::__compressed_pair_elem.6" = type { %class.ProfileOAuth2TokenServiceDelegate* }
%class.ProfileOAuth2TokenServiceDelegate = type opaque
%"class.std::__1::unique_ptr.8" = type { %"class.std::__1::__compressed_pair.9" }
%"class.std::__1::__compressed_pair.9" = type { %"struct.std::__1::__compressed_pair_elem.10" }
%"struct.std::__1::__compressed_pair_elem.10" = type { %class.OAuth2AccessTokenManager* }
%class.OAuth2AccessTokenManager = type { i32 (...)**, %"class.std::__1::map", %"class.base::ObserverList", %"class.OAuth2AccessTokenManager::Delegate"*, %"class.std::__1::map.24" }
%"class.std::__1::map" = type { %"class.std::__1::__tree" }
%"class.std::__1::__tree" = type { %"class.std::__1::__tree_end_node"*, %"class.std::__1::__compressed_pair.11", %"class.std::__1::__compressed_pair.16" }
%"class.std::__1::__tree_end_node" = type { %"class.std::__1::__tree_node_base"* }
%"class.std::__1::__tree_node_base" = type <{ %"class.std::__1::__tree_end_node", %"class.std::__1::__tree_node_base"*, %"class.std::__1::__tree_end_node"*, i8, [7 x i8] }>
%"class.std::__1::__compressed_pair.11" = type { %"struct.std::__1::__compressed_pair_elem.12" }
%"struct.std::__1::__compressed_pair_elem.12" = type { %"class.std::__1::__tree_end_node" }
%"class.std::__1::__compressed_pair.16" = type { %"struct.std::__1::__compressed_pair_elem.17" }
%"struct.std::__1::__compressed_pair_elem.17" = type { i64 }
%"class.base::ObserverList" = type <{ %"class.std::__1::vector", %"class.base::LinkedList", i64, i32, [4 x i8] }>
%"class.std::__1::vector" = type { %"class.std::__1::__vector_base" }
%"class.std::__1::__vector_base" = type { %"class.base::internal::UncheckedObserverAdapter"*, %"class.base::internal::UncheckedObserverAdapter"*, %"class.std::__1::__compressed_pair.19" }
%"class.base::internal::UncheckedObserverAdapter" = type { i8* }
%"class.std::__1::__compressed_pair.19" = type { %"struct.std::__1::__compressed_pair_elem.20" }
%"struct.std::__1::__compressed_pair_elem.20" = type { %"class.base::internal::UncheckedObserverAdapter"* }
%"class.base::LinkedList" = type { %"class.base::LinkNode" }
%"class.base::LinkNode" = type { %"class.base::internal::LinkNodeBase" }
%"class.base::internal::LinkNodeBase" = type { %"class.base::internal::LinkNodeBase"*, %"class.base::internal::LinkNodeBase"* }
%"class.std::__1::map.24" = type { %"class.std::__1::__tree.25" }
%"class.std::__1::__tree.25" = type { %"class.std::__1::__tree_end_node"*, %"class.std::__1::__compressed_pair.26", %"class.std::__1::__compressed_pair.30" }
%"class.std::__1::__compressed_pair.26" = type { %"struct.std::__1::__compressed_pair_elem.12" }
%"class.std::__1::__compressed_pair.30" = type { %"struct.std::__1::__compressed_pair_elem.17" }
%"class.base::RepeatingCallback" = type { %"class.base::internal::CallbackBaseCopyable" }
%"class.base::internal::CallbackBaseCopyable" = type { %"class.base::internal::CallbackBase" }
%"class.base::RepeatingCallback.36" = type { %"class.base::internal::CallbackBaseCopyable" }
%class.PrimaryAccountManager = type { %class.ProfileOAuth2TokenServiceObserver, %class.SigninClient*, %class.ProfileOAuth2TokenService*, %class.AccountTrackerService*, i8, [7 x i8], %struct.CoreAccountInfo, %"class.std::__1::unique_ptr.37", %"class.base::ObserverList.43" }
%class.SigninClient = type { %class.KeyedService }
%class.KeyedService = type { i32 (...)** }
%class.AccountTrackerService = type opaque
%struct.CoreAccountInfo = type <{ %struct.CoreAccountId, %"class.std::__1::basic_string", %"class.std::__1::basic_string", i8, [7 x i8] }>
%"class.std::__1::unique_ptr.37" = type { %"class.std::__1::__compressed_pair.38" }
%"class.std::__1::__compressed_pair.38" = type { %"struct.std::__1::__compressed_pair_elem.39" }
%"struct.std::__1::__compressed_pair_elem.39" = type { %class.PrimaryAccountPolicyManager* }
%class.PrimaryAccountPolicyManager = type opaque
%"class.base::ObserverList.43" = type <{ %"class.std::__1::vector.44", %"class.base::LinkedList.58", i64, i32, [4 x i8] }>
%"class.std::__1::vector.44" = type { %"class.std::__1::__vector_base.45" }
%"class.std::__1::__vector_base.45" = type { %"class.base::internal::CheckedObserverAdapter"*, %"class.base::internal::CheckedObserverAdapter"*, %"class.std::__1::__compressed_pair.53" }
%"class.base::internal::CheckedObserverAdapter" = type { %"class.base::WeakPtr" }
%"class.base::WeakPtr" = type { %"class.base::internal::WeakPtrBase" }
%"class.base::internal::WeakPtrBase" = type { %"class.base::internal::WeakReference", i64 }
%"class.base::internal::WeakReference" = type { %class.scoped_refptr.46 }
%class.scoped_refptr.46 = type { %"class.base::internal::WeakReference::Flag"* }
%"class.base::internal::WeakReference::Flag" = type <{ %"class.base::RefCountedThreadSafe.47", %"class.base::AtomicFlag", [3 x i8] }>
%"class.base::RefCountedThreadSafe.47" = type { %"class.base::subtle::RefCountedThreadSafeBase" }
%"class.base::AtomicFlag" = type { %"struct.std::__1::atomic.48" }
%"struct.std::__1::atomic.48" = type { %"struct.std::__1::__atomic_base.49" }
%"struct.std::__1::__atomic_base.49" = type { %"struct.std::__1::__atomic_base.50" }
%"struct.std::__1::__atomic_base.50" = type { %"struct.std::__1::__cxx_atomic_impl.51" }
%"struct.std::__1::__cxx_atomic_impl.51" = type { %"struct.std::__1::__cxx_atomic_base_impl.52" }
%"struct.std::__1::__cxx_atomic_base_impl.52" = type { i8 }
%"class.std::__1::__compressed_pair.53" = type { %"struct.std::__1::__compressed_pair_elem.54" }
%"struct.std::__1::__compressed_pair_elem.54" = type { %"class.base::internal::CheckedObserverAdapter"* }
%"class.base::LinkedList.58" = type { %"class.base::LinkNode.59" }
%"class.base::LinkNode.59" = type { %"class.base::internal::LinkNodeBase" }
%"class.std::__1::set" = type { %"class.std::__1::__tree.62" }
%"class.std::__1::__tree.62" = type { %"class.std::__1::__tree_end_node"*, %"class.std::__1::__compressed_pair.63", %"class.std::__1::__compressed_pair.67" }
%"class.std::__1::__compressed_pair.63" = type { %"struct.std::__1::__compressed_pair_elem.12" }
%"class.std::__1::__compressed_pair.67" = type { %"struct.std::__1::__compressed_pair_elem.17" }
%"class.base::OnceCallback.71" = type { %"class.base::internal::CallbackBase" }
%"class.base::ScopedObservation" = type { %class.ProfileOAuth2TokenServiceObserver*, %class.ProfileOAuth2TokenService* }
%"class.std::__1::unique_ptr.72" = type { %"class.std::__1::__compressed_pair.73" }
%"class.std::__1::__compressed_pair.73" = type { %"struct.std::__1::__compressed_pair_elem.74" }
%"struct.std::__1::__compressed_pair_elem.74" = type { %"class.OAuth2AccessTokenManager::Request"* }
%"class.OAuth2AccessTokenManager::Request" = type { i32 (...)** }
%"class.std::__1::unique_ptr.157" = type { %"class.std::__1::__compressed_pair.158" }
%"class.std::__1::__compressed_pair.158" = type { %"struct.std::__1::__compressed_pair_elem.159" }
%"struct.std::__1::__compressed_pair_elem.159" = type { %"class.policy::UserInfoFetcher"* }
%"class.policy::UserInfoFetcher" = type { %"class.policy::UserInfoFetcher::Delegate"*, %class.scoped_refptr.61, %"class.std::__1::unique_ptr.160" }
%"class.std::__1::unique_ptr.160" = type { %"class.std::__1::__compressed_pair.161" }
%"class.std::__1::__compressed_pair.161" = type { %"struct.std::__1::__compressed_pair_elem.162" }
%"struct.std::__1::__compressed_pair_elem.162" = type { %"class.network::SimpleURLLoader"* }
%"class.network::SimpleURLLoader" = type { i32 (...)** }
%"class.std::__1::basic_string" = type { %"class.std::__1::__compressed_pair.1" }
%"class.std::__1::__compressed_pair.1" = type { %"struct.std::__1::__compressed_pair_elem.2" }
%"struct.std::__1::__compressed_pair_elem.2" = type { %"struct.std::__1::basic_string<char, std::__1::char_traits<char>, std::__1::allocator<char> >::__rep" }
%"struct.std::__1::basic_string<char, std::__1::char_traits<char>, std::__1::allocator<char> >::__rep" = type { %union.anon }
%union.anon = type { %"struct.std::__1::basic_string<char, std::__1::char_traits<char>, std::__1::allocator<char> >::__long" }
%"struct.std::__1::basic_string<char, std::__1::char_traits<char>, std::__1::allocator<char> >::__long" = type { i8*, i64, i64 }
%class.scoped_refptr.61 = type { %"class.network::SharedURLLoaderFactory"* }
%"class.network::SharedURLLoaderFactory" = type <{ %"class.network::mojom::URLLoaderFactory", %"class.base::RefCounted", [4 x i8] }>
%"class.network::mojom::URLLoaderFactory" = type { i32 (...)** }
%"class.base::RefCounted" = type { %"class.base::subtle::RefCountedBase" }
%"class.base::subtle::RefCountedBase" = type { i32 }
%"class.base::OnceCallback.270" = type { %"class.base::internal::CallbackBase" }
%"class.policy::CloudPolicyClient" = type { i32 (...)**, %"class.std::__1::basic_string", %"class.std::__1::basic_string", %"class.std::__1::basic_string", %"class.std::__1::basic_string", %"class.std::__1::basic_string", %"class.std::__1::basic_string", %"class.std::__1::basic_string", %"class.std::__1::set.169", %"class.std::__1::vector.179", %"class.std::__1::basic_string", %"class.std::__1::basic_string", %"class.std::__1::unique_ptr.186", i32, %"class.std::__1::basic_string", %"class.base::Time", i32, i8, %"class.std::__1::basic_string", i64, %"class.std::__1::basic_string", i64, %"class.policy::SigningService"*, %"class.policy::DeviceManagementService"*, %"class.std::__1::unique_ptr.242", %"class.std::__1::vector.248", %"class.policy::DeviceManagementService::Job"*, %"class.policy::DeviceManagementService::Job"*, %"class.std::__1::map.255", i32, %"class.base::RepeatingCallback.264", %"class.base::ObserverList.265", %class.scoped_refptr.61, %"class.std::__1::basic_string", i8, %"class.base::WeakPtrFactory.269" }
%"class.std::__1::set.169" = type { %"class.std::__1::__tree.170" }
%"class.std::__1::__tree.170" = type { %"class.std::__1::__tree_end_node"*, %"class.std::__1::__compressed_pair.171", %"class.std::__1::__compressed_pair.175" }
%"class.std::__1::__compressed_pair.171" = type { %"struct.std::__1::__compressed_pair_elem.12" }
%"class.std::__1::__compressed_pair.175" = type { %"struct.std::__1::__compressed_pair_elem.17" }
%"class.std::__1::vector.179" = type { %"class.std::__1::__vector_base.180" }
%"class.std::__1::__vector_base.180" = type { %"class.std::__1::basic_string"*, %"class.std::__1::basic_string"*, %"class.std::__1::__compressed_pair.181" }
%"class.std::__1::__compressed_pair.181" = type { %"struct.std::__1::__compressed_pair_elem.182" }
%"struct.std::__1::__compressed_pair_elem.182" = type { %"class.std::__1::basic_string"* }
%"class.std::__1::unique_ptr.186" = type { %"class.std::__1::__compressed_pair.187" }
%"class.std::__1::__compressed_pair.187" = type { %"struct.std::__1::__compressed_pair_elem.188" }
%"struct.std::__1::__compressed_pair_elem.188" = type { %"class.base::DictionaryValue"* }
%"class.base::DictionaryValue" = type { %"class.base::Value" }
%"class.base::Value" = type { %"class.absl::variant" }
%"class.absl::variant" = type { %"class.absl::variant_internal::VariantCopyAssignBaseNontrivial" }
%"class.absl::variant_internal::VariantCopyAssignBaseNontrivial" = type { %"class.absl::variant_internal::VariantMoveAssignBaseNontrivial" }
%"class.absl::variant_internal::VariantMoveAssignBaseNontrivial" = type { %"class.absl::variant_internal::VariantCopyBaseNontrivial" }
%"class.absl::variant_internal::VariantCopyBaseNontrivial" = type { %"class.absl::variant_internal::VariantMoveBaseNontrivial" }
%"class.absl::variant_internal::VariantMoveBaseNontrivial" = type { %"class.absl::variant_internal::VariantStateBaseDestructorNontrivial" }
%"class.absl::variant_internal::VariantStateBaseDestructorNontrivial" = type { %"class.absl::variant_internal::VariantStateBase" }
%"class.absl::variant_internal::VariantStateBase" = type { %"union.absl::variant_internal::DestructibleUnionImpl", i64 }
%"union.absl::variant_internal::DestructibleUnionImpl" = type { %"union.absl::variant_internal::DestructibleUnionImpl.189" }
%"union.absl::variant_internal::DestructibleUnionImpl.189" = type { %"union.absl::variant_internal::DestructibleUnionImpl.190" }
%"union.absl::variant_internal::DestructibleUnionImpl.190" = type { %"union.absl::variant_internal::DestructibleUnionImpl.191" }
%"union.absl::variant_internal::DestructibleUnionImpl.191" = type { %"union.absl::variant_internal::DestructibleUnionImpl.192" }
%"union.absl::variant_internal::DestructibleUnionImpl.192" = type { %"class.std::__1::basic_string" }
%"class.base::Time" = type { %"class.base::time_internal::TimeBase" }
%"class.base::time_internal::TimeBase" = type { i64 }
%"class.policy::SigningService" = type opaque
%"class.policy::DeviceManagementService" = type { i32 (...)**, %"class.std::__1::unique_ptr.222", %"class.std::__1::map.228", %"class.base::circular_deque", i8, %class.scoped_refptr.239, %"class.base::ThreadChecker", %"class.base::WeakPtrFactory.241" }
%"class.std::__1::unique_ptr.222" = type { %"class.std::__1::__compressed_pair.223" }
%"class.std::__1::__compressed_pair.223" = type { %"struct.std::__1::__compressed_pair_elem.224" }
%"struct.std::__1::__compressed_pair_elem.224" = type { %"class.policy::DeviceManagementService::Configuration"* }
%"class.policy::DeviceManagementService::Configuration" = type { i32 (...)** }
%"class.std::__1::map.228" = type { %"class.std::__1::__tree.229" }
%"class.std::__1::__tree.229" = type { %"class.std::__1::__tree_end_node"*, %"class.std::__1::__compressed_pair.230", %"class.std::__1::__compressed_pair.234" }
%"class.std::__1::__compressed_pair.230" = type { %"struct.std::__1::__compressed_pair_elem.12" }
%"class.std::__1::__compressed_pair.234" = type { %"struct.std::__1::__compressed_pair_elem.17" }
%"class.base::circular_deque" = type { %"class.base::internal::VectorBuffer", i64, i64 }
%"class.base::internal::VectorBuffer" = type { %"class.policy::DeviceManagementService::JobControl"**, i64 }
%"class.policy::DeviceManagementService::JobControl" = type { i32 (...)** }
%class.scoped_refptr.239 = type { %"class.base::SequencedTaskRunner"* }
%"class.base::SequencedTaskRunner" = type { %"class.base::TaskRunner.base", [4 x i8] }
%"class.base::TaskRunner.base" = type <{ i32 (...)**, %"class.base::RefCountedThreadSafe.240" }>
%"class.base::RefCountedThreadSafe.240" = type { %"class.base::subtle::RefCountedThreadSafeBase" }
%"class.base::ThreadChecker" = type { i8 }
%"class.base::WeakPtrFactory.241" = type { %"class.base::internal::WeakPtrFactoryBase" }
%"class.base::internal::WeakPtrFactoryBase" = type { %"class.base::internal::WeakReferenceOwner", i64 }
%"class.base::internal::WeakReferenceOwner" = type { %class.scoped_refptr.81 }
%class.scoped_refptr.81 = type { %"class.base::internal::WeakReference::Flag"* }
%"class.std::__1::unique_ptr.242" = type { %"class.std::__1::__compressed_pair.243" }
%"class.std::__1::__compressed_pair.243" = type { %"struct.std::__1::__compressed_pair_elem.244" }
%"struct.std::__1::__compressed_pair_elem.244" = type { %"class.policy::DeviceManagementService::Job"* }
%"class.std::__1::vector.248" = type { %"class.std::__1::__vector_base.249" }
%"class.std::__1::__vector_base.249" = type { %"class.std::__1::unique_ptr.242"*, %"class.std::__1::unique_ptr.242"*, %"class.std::__1::__compressed_pair.250" }
%"class.std::__1::__compressed_pair.250" = type { %"struct.std::__1::__compressed_pair_elem.251" }
%"struct.std::__1::__compressed_pair_elem.251" = type { %"class.std::__1::unique_ptr.242"* }
%"class.policy::DeviceManagementService::Job" = type { i32 (...)** }
%"class.std::__1::map.255" = type { %"class.std::__1::__tree.256" }
%"class.std::__1::__tree.256" = type { %"class.std::__1::__tree_end_node"*, %"class.std::__1::__compressed_pair.257", %"class.std::__1::__compressed_pair.261" }
%"class.std::__1::__compressed_pair.257" = type { %"struct.std::__1::__compressed_pair_elem.12" }
%"class.std::__1::__compressed_pair.261" = type { %"struct.std::__1::__compressed_pair_elem.17" }
%"class.base::RepeatingCallback.264" = type { %"class.base::internal::CallbackBaseCopyable" }
%"class.base::ObserverList.265" = type <{ %"class.std::__1::vector", %"class.base::LinkedList.266", i64, i32, [4 x i8] }>
%"class.base::LinkedList.266" = type { %"class.base::LinkNode.267" }
%"class.base::LinkNode.267" = type { %"class.base::internal::LinkNodeBase" }
%"class.base::WeakPtrFactory.269" = type { %"class.base::internal::WeakPtrFactoryBase" }
%"class.signin::IdentityManager" = type <{ %class.KeyedService, %"class.OAuth2AccessTokenManager::DiagnosticsObserver", %"class.PrimaryAccountManager::Observer", %class.ProfileOAuth2TokenServiceObserver, %"class.std::__1::unique_ptr.82", %"class.std::__1::unique_ptr.88", %"class.std::__1::unique_ptr.94", %"class.std::__1::unique_ptr.100", %"class.std::__1::unique_ptr.106", %"class.signin::IdentityMutator", %"class.std::__1::unique_ptr.136", %"class.base::ScopedObservation.142", %"class.base::ScopedObservation", %"class.base::ObserverList.143", %"class.base::ObserverList.147", i8, [7 x i8] }>
%"class.OAuth2AccessTokenManager::DiagnosticsObserver" = type { i32 (...)** }
%"class.PrimaryAccountManager::Observer" = type { %"class.base::CheckedObserver" }
%"class.base::CheckedObserver" = type { i32 (...)**, %"class.base::WeakPtrFactory" }
%"class.base::WeakPtrFactory" = type { %"class.base::internal::WeakPtrFactoryBase" }
%"class.std::__1::unique_ptr.82" = type { %"class.std::__1::__compressed_pair.83" }
%"class.std::__1::__compressed_pair.83" = type { %"struct.std::__1::__compressed_pair_elem.84" }
%"struct.std::__1::__compressed_pair_elem.84" = type { %class.AccountTrackerService* }
%"class.std::__1::unique_ptr.88" = type { %"class.std::__1::__compressed_pair.89" }
%"class.std::__1::__compressed_pair.89" = type { %"struct.std::__1::__compressed_pair_elem.90" }
%"struct.std::__1::__compressed_pair_elem.90" = type { %class.ProfileOAuth2TokenService* }
%"class.std::__1::unique_ptr.94" = type { %"class.std::__1::__compressed_pair.95" }
%"class.std::__1::__compressed_pair.95" = type { %"struct.std::__1::__compressed_pair_elem.96" }
%"struct.std::__1::__compressed_pair_elem.96" = type { %class.GaiaCookieManagerService* }
%class.GaiaCookieManagerService = type opaque
%"class.std::__1::unique_ptr.100" = type { %"class.std::__1::__compressed_pair.101" }
%"class.std::__1::__compressed_pair.101" = type { %"struct.std::__1::__compressed_pair_elem.102" }
%"struct.std::__1::__compressed_pair_elem.102" = type { %class.PrimaryAccountManager* }
%"class.std::__1::unique_ptr.106" = type { %"class.std::__1::__compressed_pair.107" }
%"class.std::__1::__compressed_pair.107" = type { %"struct.std::__1::__compressed_pair_elem.108" }
%"struct.std::__1::__compressed_pair_elem.108" = type { %class.AccountFetcherService* }
%class.AccountFetcherService = type opaque
%"class.signin::IdentityMutator" = type { i32 (...)**, %"class.std::__1::unique_ptr.112", %"class.std::__1::unique_ptr.118", %"class.std::__1::unique_ptr.124", %"class.std::__1::unique_ptr.130" }
%"class.std::__1::unique_ptr.112" = type { %"class.std::__1::__compressed_pair.113" }
%"class.std::__1::__compressed_pair.113" = type { %"struct.std::__1::__compressed_pair_elem.114" }
%"struct.std::__1::__compressed_pair_elem.114" = type { %"class.signin::PrimaryAccountMutator"* }
%"class.signin::PrimaryAccountMutator" = type opaque
%"class.std::__1::unique_ptr.118" = type { %"class.std::__1::__compressed_pair.119" }
%"class.std::__1::__compressed_pair.119" = type { %"struct.std::__1::__compressed_pair_elem.120" }
%"struct.std::__1::__compressed_pair_elem.120" = type { %"class.signin::AccountsMutator"* }
%"class.signin::AccountsMutator" = type opaque
%"class.std::__1::unique_ptr.124" = type { %"class.std::__1::__compressed_pair.125" }
%"class.std::__1::__compressed_pair.125" = type { %"struct.std::__1::__compressed_pair_elem.126" }
%"struct.std::__1::__compressed_pair_elem.126" = type { %"class.signin::AccountsCookieMutator"* }
%"class.signin::AccountsCookieMutator" = type opaque
%"class.std::__1::unique_ptr.130" = type { %"class.std::__1::__compressed_pair.131" }
%"class.std::__1::__compressed_pair.131" = type { %"struct.std::__1::__compressed_pair_elem.132" }
%"struct.std::__1::__compressed_pair_elem.132" = type { %"class.signin::DeviceAccountsSynchronizer"* }
%"class.signin::DeviceAccountsSynchronizer" = type opaque
%"class.std::__1::unique_ptr.136" = type { %"class.std::__1::__compressed_pair.137" }
%"class.std::__1::__compressed_pair.137" = type { %"struct.std::__1::__compressed_pair_elem.138" }
%"struct.std::__1::__compressed_pair_elem.138" = type { %"class.signin::DiagnosticsProvider"* }
%"class.signin::DiagnosticsProvider" = type opaque
%"class.base::ScopedObservation.142" = type { %"class.PrimaryAccountManager::Observer"*, %class.PrimaryAccountManager* }
%"class.base::ObserverList.143" = type <{ %"class.std::__1::vector", %"class.base::LinkedList.144", i64, i32, [4 x i8] }>
%"class.base::LinkedList.144" = type { %"class.base::LinkNode.145" }
%"class.base::LinkNode.145" = type { %"class.base::internal::LinkNodeBase" }
%"class.base::ObserverList.147" = type <{ %"class.std::__1::vector", %"class.base::LinkedList.148", i64, i32, [4 x i8] }>
%"class.base::LinkedList.148" = type { %"class.base::LinkNode.149" }
%"class.base::LinkNode.149" = type { %"class.base::internal::LinkNodeBase" }
%"class.std::__1::__basic_string_common" = type { i8 }
%"struct.std::__1::basic_string<char, std::__1::char_traits<char>, std::__1::allocator<char> >::__short" = type { [23 x i8], %struct.anon }
%struct.anon = type { i8 }
%"class.std::__1::__tree_node" = type { %"class.std::__1::__tree_node_base.base", %"class.std::__1::basic_string" }
%"class.std::__1::__tree_node_base.base" = type <{ %"class.std::__1::__tree_end_node", %"class.std::__1::__tree_node_base"*, %"class.std::__1::__tree_end_node"*, i8 }>
%class.GoogleServiceAuthError = type <{ i32, i32, %"class.std::__1::basic_string", i32, [4 x i8] }>
%"struct.signin::AccessTokenInfo" = type { %"class.std::__1::basic_string", %"class.base::Time", %"class.std::__1::basic_string" }
%"struct.policy::CloudPolicyClient::RegistrationParameters" = type { i32, i32, i32, %"class.std::__1::basic_string", %"class.std::__1::basic_string" }

$_ZN6policy17CloudPolicyClient8Observer19OnServiceAccountSetEPS0_RKNSt3__112basic_stringIcNS3_11char_traitsIcEENS3_9allocatorIcEEEE = comdat any

$_ZNSt3__16__treeINS_12basic_stringIcNS_11char_traitsIcEENS_9allocatorIcEEEENS_4lessIS6_EENS4_IS6_EEE7destroyEPNS_11__tree_nodeIS6_PvEE = comdat any

$_ZNSt3__16__treeINS_12basic_stringIcNS_11char_traitsIcEENS_9allocatorIcEEEENS_4lessIS6_EENS4_IS6_EEE12__find_equalIS6_EERPNS_16__tree_node_baseIPvEERPNS_15__tree_end_nodeISF_EERKT_ = comdat any

$_ZNSt3__127__tree_balance_after_insertIPNS_16__tree_node_baseIPvEEEEvT_S5_ = comdat any

$_ZN4base8internal7InvokerINS0_9BindStateIMN6policy35CloudPolicyClientRegistrationHelper21IdentityManagerHelperEFv22GoogleServiceAuthErrorN6signin15AccessTokenInfoEEJNS0_17UnretainedWrapperIS5_EEEEEFvS6_S8_EE7RunOnceEPNS0_13BindStateBaseEOS6_OS8_ = comdat any

$_ZN4base8internal13FunctorTraitsIMN6policy35CloudPolicyClientRegistrationHelper21IdentityManagerHelperEFv22GoogleServiceAuthErrorN6signin15AccessTokenInfoEEvE6InvokeIS9_PS4_JS5_S7_EEEvT_OT0_DpOT1_ = comdat any

$_ZN4base8internal9BindStateIMN6policy35CloudPolicyClientRegistrationHelper21IdentityManagerHelperEFv22GoogleServiceAuthErrorN6signin15AccessTokenInfoEEJNS0_17UnretainedWrapperIS4_EEEE7DestroyEPKNS0_13BindStateBaseE = comdat any

$_ZN4base8internal7InvokerINS0_9BindStateIMN6policy35CloudPolicyClientRegistrationHelperEFvRKNSt3__112basic_stringIcNS5_11char_traitsIcEENS5_9allocatorIcEEEEEJNS0_17UnretainedWrapperIS4_EEEEEFvSD_EE7RunOnceEPNS0_13BindStateBaseESD_ = comdat any

$_ZN4base8internal9BindStateIMN6policy35CloudPolicyClientRegistrationHelperEFvRKNSt3__112basic_stringIcNS4_11char_traitsIcEENS4_9allocatorIcEEEEEJNS0_17UnretainedWrapperIS3_EEEE7DestroyEPKNS0_13BindStateBaseE = comdat any

@_ZN13GaiaConstants29kDeviceManagementServiceOAuthE = external constant [0 x i8], align 1
@_ZN13GaiaConstants20kGoogleUserInfoEmailE = external constant [0 x i8], align 1
@.str = private unnamed_addr constant [13 x i8] c"cloud_policy\00", align 1
@_ZTVN6policy35CloudPolicyClientRegistrationHelperE = hidden unnamed_addr constant { [9 x i8*], [8 x i8*] } { [9 x i8*] [i8* null, i8* null, i8* bitcast (void (%"class.policy::CloudPolicyClientRegistrationHelper"*, %"class.base::DictionaryValue"*)* @_ZN6policy35CloudPolicyClientRegistrationHelper20OnGetUserInfoSuccessEPKN4base15DictionaryValueE to i8*), i8* bitcast (void (%"class.policy::CloudPolicyClientRegistrationHelper"*, %class.GoogleServiceAuthError*)* @_ZN6policy35CloudPolicyClientRegistrationHelper20OnGetUserInfoFailureERK22GoogleServiceAuthError to i8*), i8* bitcast (void (%"class.policy::CloudPolicyClientRegistrationHelper"*)* @_ZN6policy35CloudPolicyClientRegistrationHelperD2Ev to i8*), i8* bitcast (void (%"class.policy::CloudPolicyClientRegistrationHelper"*)* @_ZN6policy35CloudPolicyClientRegistrationHelperD0Ev to i8*), i8* bitcast (void (%"class.policy::CloudPolicyClientRegistrationHelper"*, %"class.policy::CloudPolicyClient"*)* @_ZN6policy35CloudPolicyClientRegistrationHelper15OnPolicyFetchedEPNS_17CloudPolicyClientE to i8*), i8* bitcast (void (%"class.policy::CloudPolicyClientRegistrationHelper"*, %"class.policy::CloudPolicyClient"*)* @_ZN6policy35CloudPolicyClientRegistrationHelper26OnRegistrationStateChangedEPNS_17CloudPolicyClientE to i8*), i8* bitcast (void (%"class.policy::CloudPolicyClientRegistrationHelper"*, %"class.policy::CloudPolicyClient"*)* @_ZN6policy35CloudPolicyClientRegistrationHelper13OnClientErrorEPNS_17CloudPolicyClientE to i8*)], [8 x i8*] [i8* inttoptr (i64 -8 to i8*), i8* null, i8* bitcast (void (%"class.policy::CloudPolicyClientRegistrationHelper"*)* @_ZThn8_N6policy35CloudPolicyClientRegistrationHelperD1Ev to i8*), i8* bitcast (void (%"class.policy::CloudPolicyClientRegistrationHelper"*)* @_ZThn8_N6policy35CloudPolicyClientRegistrationHelperD0Ev to i8*), i8* bitcast (void (%"class.policy::CloudPolicyClientRegistrationHelper"*, %"class.policy::CloudPolicyClient"*)* @_ZThn8_N6policy35CloudPolicyClientRegistrationHelper15OnPolicyFetchedEPNS_17CloudPolicyClientE to i8*), i8* bitcast (void (%"class.policy::CloudPolicyClientRegistrationHelper"*, %"class.policy::CloudPolicyClient"*)* @_ZThn8_N6policy35CloudPolicyClientRegistrationHelper26OnRegistrationStateChangedEPNS_17CloudPolicyClientE to i8*), i8* bitcast (void (%"class.policy::CloudPolicyClientRegistrationHelper"*, %"class.policy::CloudPolicyClient"*)* @_ZThn8_N6policy35CloudPolicyClientRegistrationHelper13OnClientErrorEPNS_17CloudPolicyClientE to i8*), i8* bitcast (void (%"class.policy::CloudPolicyClient::Observer"*, %"class.policy::CloudPolicyClient"*, %"class.std::__1::basic_string"*)* @_ZN6policy17CloudPolicyClient8Observer19OnServiceAccountSetEPS0_RKNSt3__112basic_stringIcNS3_11char_traitsIcEENS3_9allocatorIcEEEE to i8*)] }, align 8
@_ZN6policyL19kGetHostedDomainKeyE = internal constant [3 x i8] c"hd\00", align 1

@_ZN6policy35CloudPolicyClientRegistrationHelperC1EPNS_17CloudPolicyClientEN21enterprise_management26DeviceRegisterRequest_TypeE = hidden unnamed_addr alias void (%"class.policy::CloudPolicyClientRegistrationHelper"*, %"class.policy::CloudPolicyClient"*, i32), void (%"class.policy::CloudPolicyClientRegistrationHelper"*, %"class.policy::CloudPolicyClient"*, i32)* @_ZN6policy35CloudPolicyClientRegistrationHelperC2EPNS_17CloudPolicyClientEN21enterprise_management26DeviceRegisterRequest_TypeE
@_ZN6policy35CloudPolicyClientRegistrationHelperD1Ev = hidden unnamed_addr alias void (%"class.policy::CloudPolicyClientRegistrationHelper"*), void (%"class.policy::CloudPolicyClientRegistrationHelper"*)* @_ZN6policy35CloudPolicyClientRegistrationHelperD2Ev

; Function Attrs: nounwind ssp uwtable
define hidden void @_ZN6policy35CloudPolicyClientRegistrationHelper21IdentityManagerHelper16FetchAccessTokenEPN6signin15IdentityManagerERK13CoreAccountIdN4base12OnceCallbackIFvRKNSt3__112basic_stringIcNSA_11char_traitsIcEENSA_9allocatorIcEEEEEEE(%"class.policy::CloudPolicyClientRegistrationHelper::IdentityManagerHelper"*, %"class.signin::IdentityManager"*, %struct.CoreAccountId* dereferenceable(24), %"class.base::OnceCallback"*) local_unnamed_addr #0 align 2 {
  %5 = alloca %"class.std::__1::__tree_end_node"*, align 8
  %6 = alloca %"class.std::__1::__tree_end_node"*, align 8
  %7 = alloca %"class.std::__1::set", align 8
  %8 = alloca %"class.std::__1::basic_string", align 8
  %9 = alloca %"class.std::__1::basic_string", align 8
  %10 = alloca %"class.std::__1::basic_string", align 8
  %11 = alloca %"class.base::OnceCallback.71", align 8
  %12 = getelementptr inbounds %"class.policy::CloudPolicyClientRegistrationHelper::IdentityManagerHelper", %"class.policy::CloudPolicyClientRegistrationHelper::IdentityManagerHelper"* %0, i64 0, i32 0, i32 0
  %13 = getelementptr inbounds %"class.base::OnceCallback", %"class.base::OnceCallback"* %3, i64 0, i32 0
  %14 = tail call dereferenceable(8) %"class.base::internal::CallbackBase"* @_ZN4base8internal12CallbackBaseaSEOS1_(%"class.base::internal::CallbackBase"* %12, %"class.base::internal::CallbackBase"* dereferenceable(8) %13) #10
  %15 = bitcast %"class.std::__1::set"* %7 to i8*
  call void @llvm.lifetime.start.p0i8(i64 24, i8* nonnull %15) #10
  %16 = getelementptr inbounds %"class.std::__1::set", %"class.std::__1::set"* %7, i64 0, i32 0, i32 0
  %17 = getelementptr inbounds %"class.std::__1::set", %"class.std::__1::set"* %7, i64 0, i32 0, i32 1, i32 0, i32 0, i32 0
  %18 = getelementptr inbounds %"class.std::__1::set", %"class.std::__1::set"* %7, i64 0, i32 0, i32 2, i32 0, i32 0
  %19 = getelementptr inbounds %"class.std::__1::set", %"class.std::__1::set"* %7, i64 0, i32 0, i32 1, i32 0, i32 0
  %20 = bitcast %"class.std::__1::__tree_node_base"** %17 to i8*
  call void @llvm.memset.p0i8.i64(i8* align 8 %20, i8 0, i64 16, i1 false) #10
  store %"class.std::__1::__tree_end_node"* %19, %"class.std::__1::__tree_end_node"** %16, align 8
  %21 = bitcast %"class.std::__1::basic_string"* %8 to i8*
  call void @llvm.lifetime.start.p0i8(i64 24, i8* nonnull %21) #10
  %22 = call i64 @strlen(i8* getelementptr inbounds ([0 x i8], [0 x i8]* @_ZN13GaiaConstants29kDeviceManagementServiceOAuthE, i64 0, i64 0)) #10
  %23 = icmp ugt i64 %22, -17
  br i1 %23, label %24, label %26

24:                                               ; preds = %4
  %25 = bitcast %"class.std::__1::basic_string"* %8 to %"class.std::__1::__basic_string_common"*
  call void @_ZNKSt3__121__basic_string_commonILb1EE20__throw_length_errorEv(%"class.std::__1::__basic_string_common"* nonnull %25) #11
  unreachable

26:                                               ; preds = %4
  %27 = icmp ult i64 %22, 23
  br i1 %27, label %36, label %28

28:                                               ; preds = %26
  %29 = add nuw i64 %22, 16
  %30 = and i64 %29, -16
  %31 = call i8* @_Znwm(i64 %30) #12
  %32 = getelementptr inbounds %"class.std::__1::basic_string", %"class.std::__1::basic_string"* %8, i64 0, i32 0, i32 0, i32 0, i32 0, i32 0, i32 0
  store i8* %31, i8** %32, align 8
  %33 = or i64 %30, -9223372036854775808
  %34 = getelementptr inbounds %"class.std::__1::basic_string", %"class.std::__1::basic_string"* %8, i64 0, i32 0, i32 0, i32 0, i32 0, i32 0, i32 2
  store i64 %33, i64* %34, align 8
  %35 = getelementptr inbounds %"class.std::__1::basic_string", %"class.std::__1::basic_string"* %8, i64 0, i32 0, i32 0, i32 0, i32 0, i32 0, i32 1
  store i64 %22, i64* %35, align 8
  br label %41

36:                                               ; preds = %26
  %37 = trunc i64 %22 to i8
  %38 = bitcast %"class.std::__1::basic_string"* %8 to %"struct.std::__1::basic_string<char, std::__1::char_traits<char>, std::__1::allocator<char> >::__short"*
  %39 = getelementptr inbounds %"struct.std::__1::basic_string<char, std::__1::char_traits<char>, std::__1::allocator<char> >::__short", %"struct.std::__1::basic_string<char, std::__1::char_traits<char>, std::__1::allocator<char> >::__short"* %38, i64 0, i32 1, i32 0
  store i8 %37, i8* %39, align 1
  %40 = icmp eq i64 %22, 0
  br i1 %40, label %43, label %41

41:                                               ; preds = %36, %28
  %42 = phi i8* [ %31, %28 ], [ %21, %36 ]
  call void @llvm.memcpy.p0i8.p0i8.i64(i8* nonnull align 1 %42, i8* align 1 getelementptr inbounds ([0 x i8], [0 x i8]* @_ZN13GaiaConstants29kDeviceManagementServiceOAuthE, i64 0, i64 0), i64 %22, i1 false) #10
  br label %43

43:                                               ; preds = %36, %41
  %44 = phi i8* [ %21, %36 ], [ %42, %41 ]
  %45 = getelementptr inbounds i8, i8* %44, i64 %22
  store i8 0, i8* %45, align 1
  %46 = getelementptr inbounds %"class.std::__1::set", %"class.std::__1::set"* %7, i64 0, i32 0
  %47 = bitcast %"class.std::__1::__tree_end_node"** %6 to i8*
  call void @llvm.lifetime.start.p0i8(i64 8, i8* nonnull %47) #10
  store %"class.std::__1::__tree_end_node"* inttoptr (i64 -6148914691236517206 to %"class.std::__1::__tree_end_node"*), %"class.std::__1::__tree_end_node"** %6, align 8
  %48 = call dereferenceable(8) %"class.std::__1::__tree_node_base"** @_ZNSt3__16__treeINS_12basic_stringIcNS_11char_traitsIcEENS_9allocatorIcEEEENS_4lessIS6_EENS4_IS6_EEE12__find_equalIS6_EERPNS_16__tree_node_baseIPvEERPNS_15__tree_end_nodeISF_EERKT_(%"class.std::__1::__tree.62"* nonnull %46, %"class.std::__1::__tree_end_node"** nonnull dereferenceable(8) %6, %"class.std::__1::basic_string"* nonnull dereferenceable(24) %8) #10
  %49 = bitcast %"class.std::__1::__tree_node_base"** %48 to %"class.std::__1::__tree_node"**
  %50 = load %"class.std::__1::__tree_node"*, %"class.std::__1::__tree_node"** %49, align 8
  %51 = icmp eq %"class.std::__1::__tree_node"* %50, null
  br i1 %51, label %52, label %74

52:                                               ; preds = %43
  %53 = call i8* @_Znwm(i64 56) #12, !noalias !2
  %54 = getelementptr inbounds i8, i8* %53, i64 32
  call void @llvm.memcpy.p0i8.p0i8.i64(i8* align 8 %54, i8* nonnull align 8 %21, i64 24, i1 false) #10, !noalias !2
  call void @llvm.memset.p0i8.i64(i8* nonnull align 8 %21, i8 0, i64 24, i1 false) #10, !noalias !2
  %55 = bitcast %"class.std::__1::__tree_end_node"** %6 to i64*
  %56 = load i64, i64* %55, align 8
  %57 = bitcast i8* %53 to %"class.std::__1::__tree_node_base"*
  %58 = getelementptr inbounds i8, i8* %53, i64 16
  call void @llvm.memset.p0i8.i64(i8* nonnull align 8 %53, i8 0, i64 16, i1 false) #10
  %59 = bitcast i8* %58 to i64*
  store i64 %56, i64* %59, align 8
  %60 = bitcast %"class.std::__1::__tree_node_base"** %48 to i8**
  store i8* %53, i8** %60, align 8
  %61 = load %"class.std::__1::__tree_end_node"*, %"class.std::__1::__tree_end_node"** %16, align 8
  %62 = getelementptr inbounds %"class.std::__1::__tree_end_node", %"class.std::__1::__tree_end_node"* %61, i64 0, i32 0
  %63 = load %"class.std::__1::__tree_node_base"*, %"class.std::__1::__tree_node_base"** %62, align 8
  %64 = icmp eq %"class.std::__1::__tree_node_base"* %63, null
  br i1 %64, label %69, label %65

65:                                               ; preds = %52
  %66 = ptrtoint %"class.std::__1::__tree_node_base"* %63 to i64
  %67 = bitcast %"class.std::__1::set"* %7 to i64*
  store i64 %66, i64* %67, align 8
  %68 = load %"class.std::__1::__tree_node_base"*, %"class.std::__1::__tree_node_base"** %48, align 8
  br label %69

69:                                               ; preds = %65, %52
  %70 = phi %"class.std::__1::__tree_node_base"* [ %57, %52 ], [ %68, %65 ]
  %71 = load %"class.std::__1::__tree_node_base"*, %"class.std::__1::__tree_node_base"** %17, align 8
  call void @_ZNSt3__127__tree_balance_after_insertIPNS_16__tree_node_baseIPvEEEEvT_S5_(%"class.std::__1::__tree_node_base"* %71, %"class.std::__1::__tree_node_base"* %70) #10
  %72 = load i64, i64* %18, align 8
  %73 = add i64 %72, 1
  store i64 %73, i64* %18, align 8
  br label %74

74:                                               ; preds = %43, %69
  call void @llvm.lifetime.end.p0i8(i64 8, i8* nonnull %47) #10
  %75 = bitcast %"class.std::__1::basic_string"* %8 to %"struct.std::__1::basic_string<char, std::__1::char_traits<char>, std::__1::allocator<char> >::__short"*
  %76 = getelementptr inbounds %"struct.std::__1::basic_string<char, std::__1::char_traits<char>, std::__1::allocator<char> >::__short", %"struct.std::__1::basic_string<char, std::__1::char_traits<char>, std::__1::allocator<char> >::__short"* %75, i64 0, i32 1, i32 0
  %77 = load i8, i8* %76, align 1
  %78 = icmp slt i8 %77, 0
  br i1 %78, label %79, label %82

79:                                               ; preds = %74
  %80 = getelementptr inbounds %"class.std::__1::basic_string", %"class.std::__1::basic_string"* %8, i64 0, i32 0, i32 0, i32 0, i32 0, i32 0, i32 0
  %81 = load i8*, i8** %80, align 8
  call void @_ZdlPv(i8* %81) #12
  br label %82

82:                                               ; preds = %74, %79
  call void @llvm.lifetime.end.p0i8(i64 24, i8* nonnull %21) #10
  %83 = bitcast %"class.std::__1::basic_string"* %9 to i8*
  call void @llvm.lifetime.start.p0i8(i64 24, i8* nonnull %83) #10
  %84 = call i64 @strlen(i8* getelementptr inbounds ([0 x i8], [0 x i8]* @_ZN13GaiaConstants20kGoogleUserInfoEmailE, i64 0, i64 0)) #10
  %85 = icmp ugt i64 %84, -17
  br i1 %85, label %86, label %88

86:                                               ; preds = %82
  %87 = bitcast %"class.std::__1::basic_string"* %9 to %"class.std::__1::__basic_string_common"*
  call void @_ZNKSt3__121__basic_string_commonILb1EE20__throw_length_errorEv(%"class.std::__1::__basic_string_common"* nonnull %87) #11
  unreachable

88:                                               ; preds = %82
  %89 = icmp ult i64 %84, 23
  br i1 %89, label %98, label %90

90:                                               ; preds = %88
  %91 = add nuw i64 %84, 16
  %92 = and i64 %91, -16
  %93 = call i8* @_Znwm(i64 %92) #12
  %94 = getelementptr inbounds %"class.std::__1::basic_string", %"class.std::__1::basic_string"* %9, i64 0, i32 0, i32 0, i32 0, i32 0, i32 0, i32 0
  store i8* %93, i8** %94, align 8
  %95 = or i64 %92, -9223372036854775808
  %96 = getelementptr inbounds %"class.std::__1::basic_string", %"class.std::__1::basic_string"* %9, i64 0, i32 0, i32 0, i32 0, i32 0, i32 0, i32 2
  store i64 %95, i64* %96, align 8
  %97 = getelementptr inbounds %"class.std::__1::basic_string", %"class.std::__1::basic_string"* %9, i64 0, i32 0, i32 0, i32 0, i32 0, i32 0, i32 1
  store i64 %84, i64* %97, align 8
  br label %103

98:                                               ; preds = %88
  %99 = trunc i64 %84 to i8
  %100 = bitcast %"class.std::__1::basic_string"* %9 to %"struct.std::__1::basic_string<char, std::__1::char_traits<char>, std::__1::allocator<char> >::__short"*
  %101 = getelementptr inbounds %"struct.std::__1::basic_string<char, std::__1::char_traits<char>, std::__1::allocator<char> >::__short", %"struct.std::__1::basic_string<char, std::__1::char_traits<char>, std::__1::allocator<char> >::__short"* %100, i64 0, i32 1, i32 0
  store i8 %99, i8* %101, align 1
  %102 = icmp eq i64 %84, 0
  br i1 %102, label %105, label %103

103:                                              ; preds = %98, %90
  %104 = phi i8* [ %93, %90 ], [ %83, %98 ]
  call void @llvm.memcpy.p0i8.p0i8.i64(i8* nonnull align 1 %104, i8* align 1 getelementptr inbounds ([0 x i8], [0 x i8]* @_ZN13GaiaConstants20kGoogleUserInfoEmailE, i64 0, i64 0), i64 %84, i1 false) #10
  br label %105

105:                                              ; preds = %98, %103
  %106 = phi i8* [ %83, %98 ], [ %104, %103 ]
  %107 = getelementptr inbounds i8, i8* %106, i64 %84
  store i8 0, i8* %107, align 1
  %108 = bitcast %"class.std::__1::__tree_end_node"** %5 to i8*
  call void @llvm.lifetime.start.p0i8(i64 8, i8* nonnull %108) #10
  store %"class.std::__1::__tree_end_node"* inttoptr (i64 -6148914691236517206 to %"class.std::__1::__tree_end_node"*), %"class.std::__1::__tree_end_node"** %5, align 8
  %109 = call dereferenceable(8) %"class.std::__1::__tree_node_base"** @_ZNSt3__16__treeINS_12basic_stringIcNS_11char_traitsIcEENS_9allocatorIcEEEENS_4lessIS6_EENS4_IS6_EEE12__find_equalIS6_EERPNS_16__tree_node_baseIPvEERPNS_15__tree_end_nodeISF_EERKT_(%"class.std::__1::__tree.62"* nonnull %46, %"class.std::__1::__tree_end_node"** nonnull dereferenceable(8) %5, %"class.std::__1::basic_string"* nonnull dereferenceable(24) %9) #10
  %110 = bitcast %"class.std::__1::__tree_node_base"** %109 to %"class.std::__1::__tree_node"**
  %111 = load %"class.std::__1::__tree_node"*, %"class.std::__1::__tree_node"** %110, align 8
  %112 = icmp eq %"class.std::__1::__tree_node"* %111, null
  br i1 %112, label %113, label %135

113:                                              ; preds = %105
  %114 = call i8* @_Znwm(i64 56) #12, !noalias !5
  %115 = getelementptr inbounds i8, i8* %114, i64 32
  call void @llvm.memcpy.p0i8.p0i8.i64(i8* align 8 %115, i8* nonnull align 8 %83, i64 24, i1 false) #10, !noalias !5
  call void @llvm.memset.p0i8.i64(i8* nonnull align 8 %83, i8 0, i64 24, i1 false) #10, !noalias !5
  %116 = bitcast %"class.std::__1::__tree_end_node"** %5 to i64*
  %117 = load i64, i64* %116, align 8
  %118 = bitcast i8* %114 to %"class.std::__1::__tree_node_base"*
  %119 = getelementptr inbounds i8, i8* %114, i64 16
  call void @llvm.memset.p0i8.i64(i8* nonnull align 8 %114, i8 0, i64 16, i1 false) #10
  %120 = bitcast i8* %119 to i64*
  store i64 %117, i64* %120, align 8
  %121 = bitcast %"class.std::__1::__tree_node_base"** %109 to i8**
  store i8* %114, i8** %121, align 8
  %122 = load %"class.std::__1::__tree_end_node"*, %"class.std::__1::__tree_end_node"** %16, align 8
  %123 = getelementptr inbounds %"class.std::__1::__tree_end_node", %"class.std::__1::__tree_end_node"* %122, i64 0, i32 0
  %124 = load %"class.std::__1::__tree_node_base"*, %"class.std::__1::__tree_node_base"** %123, align 8
  %125 = icmp eq %"class.std::__1::__tree_node_base"* %124, null
  br i1 %125, label %130, label %126

126:                                              ; preds = %113
  %127 = ptrtoint %"class.std::__1::__tree_node_base"* %124 to i64
  %128 = bitcast %"class.std::__1::set"* %7 to i64*
  store i64 %127, i64* %128, align 8
  %129 = load %"class.std::__1::__tree_node_base"*, %"class.std::__1::__tree_node_base"** %109, align 8
  br label %130

130:                                              ; preds = %126, %113
  %131 = phi %"class.std::__1::__tree_node_base"* [ %118, %113 ], [ %129, %126 ]
  %132 = load %"class.std::__1::__tree_node_base"*, %"class.std::__1::__tree_node_base"** %17, align 8
  call void @_ZNSt3__127__tree_balance_after_insertIPNS_16__tree_node_baseIPvEEEEvT_S5_(%"class.std::__1::__tree_node_base"* %132, %"class.std::__1::__tree_node_base"* %131) #10
  %133 = load i64, i64* %18, align 8
  %134 = add i64 %133, 1
  store i64 %134, i64* %18, align 8
  br label %135

135:                                              ; preds = %105, %130
  call void @llvm.lifetime.end.p0i8(i64 8, i8* nonnull %108) #10
  %136 = bitcast %"class.std::__1::basic_string"* %9 to %"struct.std::__1::basic_string<char, std::__1::char_traits<char>, std::__1::allocator<char> >::__short"*
  %137 = getelementptr inbounds %"struct.std::__1::basic_string<char, std::__1::char_traits<char>, std::__1::allocator<char> >::__short", %"struct.std::__1::basic_string<char, std::__1::char_traits<char>, std::__1::allocator<char> >::__short"* %136, i64 0, i32 1, i32 0
  %138 = load i8, i8* %137, align 1
  %139 = icmp slt i8 %138, 0
  br i1 %139, label %140, label %143

140:                                              ; preds = %135
  %141 = getelementptr inbounds %"class.std::__1::basic_string", %"class.std::__1::basic_string"* %9, i64 0, i32 0, i32 0, i32 0, i32 0, i32 0, i32 0
  %142 = load i8*, i8** %141, align 8
  call void @_ZdlPv(i8* %142) #12
  br label %143

143:                                              ; preds = %135, %140
  call void @llvm.lifetime.end.p0i8(i64 24, i8* nonnull %83) #10
  %144 = bitcast %"class.std::__1::basic_string"* %10 to i8*
  call void @llvm.lifetime.start.p0i8(i64 24, i8* nonnull %144) #10
  %145 = bitcast %"class.std::__1::basic_string"* %10 to %"struct.std::__1::basic_string<char, std::__1::char_traits<char>, std::__1::allocator<char> >::__short"*
  %146 = getelementptr inbounds %"struct.std::__1::basic_string<char, std::__1::char_traits<char>, std::__1::allocator<char> >::__short", %"struct.std::__1::basic_string<char, std::__1::char_traits<char>, std::__1::allocator<char> >::__short"* %145, i64 0, i32 1, i32 0
  store i8 12, i8* %146, align 1
  call void @llvm.memcpy.p0i8.p0i8.i64(i8* nonnull align 8 %144, i8* align 1 getelementptr inbounds ([13 x i8], [13 x i8]* @.str, i64 0, i64 0), i64 12, i1 false) #10
  %147 = getelementptr inbounds i8, i8* %144, i64 12
  store i8 0, i8* %147, align 4
  %148 = ptrtoint %"class.policy::CloudPolicyClientRegistrationHelper::IdentityManagerHelper"* %0 to i64
  %149 = call i8* @_Znwm(i64 56) #12, !noalias !8
  %150 = bitcast i8* %149 to %"class.base::internal::BindStateBase"*
  call void @_ZN4base8internal13BindStateBaseC2EPFvvEPFvPKS1_E(%"class.base::internal::BindStateBase"* nonnull %150, void ()* bitcast (void (%"class.base::internal::BindStateBase"*, %class.GoogleServiceAuthError*, %"struct.signin::AccessTokenInfo"*)* @_ZN4base8internal7InvokerINS0_9BindStateIMN6policy35CloudPolicyClientRegistrationHelper21IdentityManagerHelperEFv22GoogleServiceAuthErrorN6signin15AccessTokenInfoEEJNS0_17UnretainedWrapperIS5_EEEEEFvS6_S8_EE7RunOnceEPNS0_13BindStateBaseEOS6_OS8_ to void ()*), void (%"class.base::internal::BindStateBase"*)* nonnull @_ZN4base8internal9BindStateIMN6policy35CloudPolicyClientRegistrationHelper21IdentityManagerHelperEFv22GoogleServiceAuthErrorN6signin15AccessTokenInfoEEJNS0_17UnretainedWrapperIS4_EEEE7DestroyEPKNS0_13BindStateBaseE) #10, !noalias !8
  %151 = getelementptr inbounds i8, i8* %149, i64 32
  %152 = bitcast i8* %151 to <2 x i64>*
  store <2 x i64> <i64 ptrtoint (void (%"class.policy::CloudPolicyClientRegistrationHelper::IdentityManagerHelper"*, %class.GoogleServiceAuthError*, %"struct.signin::AccessTokenInfo"*)* @_ZN6policy35CloudPolicyClientRegistrationHelper21IdentityManagerHelper26OnAccessTokenFetchCompleteE22GoogleServiceAuthErrorN6signin15AccessTokenInfoE to i64), i64 0>, <2 x i64>* %152, align 8, !noalias !8
  %153 = getelementptr inbounds i8, i8* %149, i64 48
  %154 = bitcast i8* %153 to i64*
  store i64 %148, i64* %154, align 8, !noalias !8
  %155 = bitcast %"class.base::OnceCallback.71"* %11 to i8**
  store i8* %149, i8** %155, align 8, !alias.scope !8
  %156 = call %"class.signin::AccessTokenFetcher"* @_ZN6signin15IdentityManager34CreateAccessTokenFetcherForAccountERK13CoreAccountIdRKNSt3__112basic_stringIcNS4_11char_traitsIcEENS4_9allocatorIcEEEERKNS4_3setISA_NS4_4lessISA_EENS8_ISA_EEEEN4base12OnceCallbackIFv22GoogleServiceAuthErrorNS_15AccessTokenInfoEEEENS_18AccessTokenFetcher4ModeE(%"class.signin::IdentityManager"* %1, %struct.CoreAccountId* dereferenceable(24) %2, %"class.std::__1::basic_string"* nonnull dereferenceable(24) %10, %"class.std::__1::set"* nonnull dereferenceable(24) %7, %"class.base::OnceCallback.71"* nonnull %11, i32 0) #10
  %157 = ptrtoint %"class.signin::AccessTokenFetcher"* %156 to i64
  %158 = getelementptr inbounds %"class.policy::CloudPolicyClientRegistrationHelper::IdentityManagerHelper", %"class.policy::CloudPolicyClientRegistrationHelper::IdentityManagerHelper"* %0, i64 0, i32 1
  %159 = getelementptr inbounds %"class.std::__1::unique_ptr", %"class.std::__1::unique_ptr"* %158, i64 0, i32 0, i32 0, i32 0
  %160 = load %"class.signin::AccessTokenFetcher"*, %"class.signin::AccessTokenFetcher"** %159, align 8
  %161 = bitcast %"class.std::__1::unique_ptr"* %158 to i64*
  store i64 %157, i64* %161, align 8
  %162 = icmp eq %"class.signin::AccessTokenFetcher"* %160, null
  br i1 %162, label %168, label %163

163:                                              ; preds = %143
  %164 = bitcast %"class.signin::AccessTokenFetcher"* %160 to void (%"class.signin::AccessTokenFetcher"*)***
  %165 = load void (%"class.signin::AccessTokenFetcher"*)**, void (%"class.signin::AccessTokenFetcher"*)*** %164, align 8
  %166 = getelementptr inbounds void (%"class.signin::AccessTokenFetcher"*)*, void (%"class.signin::AccessTokenFetcher"*)** %165, i64 6
  %167 = load void (%"class.signin::AccessTokenFetcher"*)*, void (%"class.signin::AccessTokenFetcher"*)** %166, align 8
  call void %167(%"class.signin::AccessTokenFetcher"* nonnull %160) #10
  br label %168

168:                                              ; preds = %163, %143
  %169 = getelementptr inbounds %"class.base::OnceCallback.71", %"class.base::OnceCallback.71"* %11, i64 0, i32 0
  call void @_ZN4base8internal12CallbackBaseD2Ev(%"class.base::internal::CallbackBase"* nonnull %169) #10
  %170 = load i8, i8* %146, align 1
  %171 = icmp slt i8 %170, 0
  br i1 %171, label %172, label %175

172:                                              ; preds = %168
  %173 = getelementptr inbounds %"class.std::__1::basic_string", %"class.std::__1::basic_string"* %10, i64 0, i32 0, i32 0, i32 0, i32 0, i32 0, i32 0
  %174 = load i8*, i8** %173, align 8
  call void @_ZdlPv(i8* %174) #12
  br label %175

175:                                              ; preds = %168, %172
  call void @llvm.lifetime.end.p0i8(i64 24, i8* nonnull %144) #10
  %176 = bitcast %"class.std::__1::__tree_end_node"* %19 to %"class.std::__1::__tree_node"**
  %177 = load %"class.std::__1::__tree_node"*, %"class.std::__1::__tree_node"** %176, align 8
  call void @_ZNSt3__16__treeINS_12basic_stringIcNS_11char_traitsIcEENS_9allocatorIcEEEENS_4lessIS6_EENS4_IS6_EEE7destroyEPNS_11__tree_nodeIS6_PvEE(%"class.std::__1::__tree.62"* nonnull %46, %"class.std::__1::__tree_node"* %177) #10
  call void @llvm.lifetime.end.p0i8(i64 24, i8* nonnull %15) #10
  ret void
}

; Function Attrs: argmemonly nounwind
declare void @llvm.lifetime.start.p0i8(i64 immarg, i8* nocapture) #1

; Function Attrs: argmemonly nounwind
declare void @llvm.lifetime.end.p0i8(i64 immarg, i8* nocapture) #1

declare %"class.signin::AccessTokenFetcher"* @_ZN6signin15IdentityManager34CreateAccessTokenFetcherForAccountERK13CoreAccountIdRKNSt3__112basic_stringIcNS4_11char_traitsIcEENS4_9allocatorIcEEEERKNS4_3setISA_NS4_4lessISA_EENS8_ISA_EEEEN4base12OnceCallbackIFv22GoogleServiceAuthErrorNS_15AccessTokenInfoEEEENS_18AccessTokenFetcher4ModeE(%"class.signin::IdentityManager"*, %struct.CoreAccountId* dereferenceable(24), %"class.std::__1::basic_string"* dereferenceable(24), %"class.std::__1::set"* dereferenceable(24), %"class.base::OnceCallback.71"*, i32) local_unnamed_addr #2

; Function Attrs: nounwind ssp uwtable
define hidden void @_ZN6policy35CloudPolicyClientRegistrationHelper21IdentityManagerHelper26OnAccessTokenFetchCompleteE22GoogleServiceAuthErrorN6signin15AccessTokenInfoE(%"class.policy::CloudPolicyClientRegistrationHelper::IdentityManagerHelper"* nocapture, %class.GoogleServiceAuthError*, %"struct.signin::AccessTokenInfo"*) #0 align 2 {
  %4 = alloca %"class.base::OnceCallback", align 8
  %5 = alloca %"class.base::OnceCallback", align 8
  %6 = alloca %"class.std::__1::basic_string", align 8
  %7 = getelementptr inbounds %"class.policy::CloudPolicyClientRegistrationHelper::IdentityManagerHelper", %"class.policy::CloudPolicyClientRegistrationHelper::IdentityManagerHelper"* %0, i64 0, i32 1, i32 0, i32 0, i32 0
  %8 = load %"class.signin::AccessTokenFetcher"*, %"class.signin::AccessTokenFetcher"** %7, align 8
  store %"class.signin::AccessTokenFetcher"* null, %"class.signin::AccessTokenFetcher"** %7, align 8
  %9 = icmp eq %"class.signin::AccessTokenFetcher"* %8, null
  br i1 %9, label %15, label %10

10:                                               ; preds = %3
  %11 = bitcast %"class.signin::AccessTokenFetcher"* %8 to void (%"class.signin::AccessTokenFetcher"*)***
  %12 = load void (%"class.signin::AccessTokenFetcher"*)**, void (%"class.signin::AccessTokenFetcher"*)*** %11, align 8
  %13 = getelementptr inbounds void (%"class.signin::AccessTokenFetcher"*)*, void (%"class.signin::AccessTokenFetcher"*)** %12, i64 6
  %14 = load void (%"class.signin::AccessTokenFetcher"*)*, void (%"class.signin::AccessTokenFetcher"*)** %13, align 8
  tail call void %14(%"class.signin::AccessTokenFetcher"* nonnull %8) #10
  br label %15

15:                                               ; preds = %3, %10
  %16 = tail call i32 @_ZNK22GoogleServiceAuthError5stateEv(%class.GoogleServiceAuthError* %1) #10
  %17 = icmp eq i32 %16, 0
  br i1 %17, label %18, label %30

18:                                               ; preds = %15
  %19 = getelementptr inbounds %"struct.signin::AccessTokenInfo", %"struct.signin::AccessTokenInfo"* %2, i64 0, i32 0
  %20 = bitcast %"class.base::OnceCallback"* %5 to i8*
  call void @llvm.lifetime.start.p0i8(i64 8, i8* nonnull %20) #10
  %21 = getelementptr inbounds %"class.policy::CloudPolicyClientRegistrationHelper::IdentityManagerHelper", %"class.policy::CloudPolicyClientRegistrationHelper::IdentityManagerHelper"* %0, i64 0, i32 0, i32 0, i32 0, i32 0
  %22 = bitcast %"class.policy::CloudPolicyClientRegistrationHelper::IdentityManagerHelper"* %0 to i64*
  %23 = load i64, i64* %22, align 8
  %24 = bitcast %"class.base::OnceCallback"* %5 to i64*
  store i64 %23, i64* %24, align 8
  store %"class.base::internal::BindStateBase"* null, %"class.base::internal::BindStateBase"** %21, align 8
  %25 = getelementptr inbounds %"class.base::OnceCallback", %"class.base::OnceCallback"* %5, i64 0, i32 0
  %26 = inttoptr i64 %23 to %"class.base::internal::BindStateBase"*
  %27 = getelementptr inbounds %"class.base::internal::BindStateBase", %"class.base::internal::BindStateBase"* %26, i64 0, i32 1
  %28 = bitcast void ()** %27 to void (%"class.base::internal::BindStateBase"*, %"class.std::__1::basic_string"*)**
  %29 = load void (%"class.base::internal::BindStateBase"*, %"class.std::__1::basic_string"*)*, void (%"class.base::internal::BindStateBase"*, %"class.std::__1::basic_string"*)** %28, align 8
  tail call void %29(%"class.base::internal::BindStateBase"* %26, %"class.std::__1::basic_string"* dereferenceable(24) %19) #10
  call void @_ZN4base8internal12CallbackBaseD2Ev(%"class.base::internal::CallbackBase"* nonnull %25) #10
  call void @llvm.lifetime.end.p0i8(i64 8, i8* nonnull %20) #10
  br label %50

30:                                               ; preds = %15
  %31 = bitcast %"class.std::__1::basic_string"* %6 to i8*
  call void @llvm.lifetime.start.p0i8(i64 24, i8* nonnull %31) #10
  %32 = bitcast %"class.std::__1::basic_string"* %6 to %"struct.std::__1::basic_string<char, std::__1::char_traits<char>, std::__1::allocator<char> >::__short"*
  %33 = getelementptr inbounds %"struct.std::__1::basic_string<char, std::__1::char_traits<char>, std::__1::allocator<char> >::__short", %"struct.std::__1::basic_string<char, std::__1::char_traits<char>, std::__1::allocator<char> >::__short"* %32, i64 0, i32 1, i32 0
  store i8 0, i8* %33, align 1
  store i8 0, i8* %31, align 8
  %34 = bitcast %"class.base::OnceCallback"* %4 to i8*
  call void @llvm.lifetime.start.p0i8(i64 8, i8* nonnull %34) #10
  %35 = getelementptr inbounds %"class.policy::CloudPolicyClientRegistrationHelper::IdentityManagerHelper", %"class.policy::CloudPolicyClientRegistrationHelper::IdentityManagerHelper"* %0, i64 0, i32 0, i32 0, i32 0, i32 0
  %36 = bitcast %"class.policy::CloudPolicyClientRegistrationHelper::IdentityManagerHelper"* %0 to i64*
  %37 = load i64, i64* %36, align 8
  %38 = bitcast %"class.base::OnceCallback"* %4 to i64*
  store i64 %37, i64* %38, align 8
  store %"class.base::internal::BindStateBase"* null, %"class.base::internal::BindStateBase"** %35, align 8
  %39 = getelementptr inbounds %"class.base::OnceCallback", %"class.base::OnceCallback"* %4, i64 0, i32 0
  %40 = inttoptr i64 %37 to %"class.base::internal::BindStateBase"*
  %41 = getelementptr inbounds %"class.base::internal::BindStateBase", %"class.base::internal::BindStateBase"* %40, i64 0, i32 1
  %42 = bitcast void ()** %41 to void (%"class.base::internal::BindStateBase"*, %"class.std::__1::basic_string"*)**
  %43 = load void (%"class.base::internal::BindStateBase"*, %"class.std::__1::basic_string"*)*, void (%"class.base::internal::BindStateBase"*, %"class.std::__1::basic_string"*)** %42, align 8
  call void %43(%"class.base::internal::BindStateBase"* %40, %"class.std::__1::basic_string"* nonnull dereferenceable(24) %6) #10
  call void @_ZN4base8internal12CallbackBaseD2Ev(%"class.base::internal::CallbackBase"* nonnull %39) #10
  call void @llvm.lifetime.end.p0i8(i64 8, i8* nonnull %34) #10
  %44 = load i8, i8* %33, align 1
  %45 = icmp slt i8 %44, 0
  br i1 %45, label %46, label %49

46:                                               ; preds = %30
  %47 = getelementptr inbounds %"class.std::__1::basic_string", %"class.std::__1::basic_string"* %6, i64 0, i32 0, i32 0, i32 0, i32 0, i32 0, i32 0
  %48 = load i8*, i8** %47, align 8
  call void @_ZdlPv(i8* %48) #12
  br label %49

49:                                               ; preds = %30, %46
  call void @llvm.lifetime.end.p0i8(i64 24, i8* nonnull %31) #10
  br label %50

50:                                               ; preds = %49, %18
  ret void
}

declare i32 @_ZNK22GoogleServiceAuthError5stateEv(%class.GoogleServiceAuthError*) local_unnamed_addr #2

; Function Attrs: nounwind ssp uwtable
define hidden void @_ZN6policy35CloudPolicyClientRegistrationHelperC2EPNS_17CloudPolicyClientEN21enterprise_management26DeviceRegisterRequest_TypeE(%"class.policy::CloudPolicyClientRegistrationHelper"* nocapture, %"class.policy::CloudPolicyClient"*, i32) unnamed_addr #0 align 2 {
  %4 = bitcast %"class.policy::CloudPolicyClientRegistrationHelper"* %0 to <2 x i32 (...)**>*
  store <2 x i32 (...)**> <i32 (...)** bitcast (i8** getelementptr inbounds ({ [9 x i8*], [8 x i8*] }, { [9 x i8*], [8 x i8*] }* @_ZTVN6policy35CloudPolicyClientRegistrationHelperE, i64 0, inrange i32 0, i64 2) to i32 (...)**), i32 (...)** bitcast (i8** getelementptr inbounds ({ [9 x i8*], [8 x i8*] }, { [9 x i8*], [8 x i8*] }* @_ZTVN6policy35CloudPolicyClientRegistrationHelperE, i64 0, inrange i32 1, i64 2) to i32 (...)**)>, <2 x i32 (...)**>* %4, align 8
  %5 = getelementptr inbounds %"class.policy::CloudPolicyClientRegistrationHelper", %"class.policy::CloudPolicyClientRegistrationHelper"* %0, i64 0, i32 2
  %6 = getelementptr inbounds %"class.policy::CloudPolicyClientRegistrationHelper", %"class.policy::CloudPolicyClientRegistrationHelper"* %0, i64 0, i32 6
  %7 = bitcast %"class.std::__1::unique_ptr.151"* %5 to i8*
  call void @llvm.memset.p0i8.i64(i8* align 8 %7, i8 0, i64 48, i1 false)
  store %"class.policy::CloudPolicyClient"* %1, %"class.policy::CloudPolicyClient"** %6, align 8
  %8 = getelementptr inbounds %"class.policy::CloudPolicyClientRegistrationHelper", %"class.policy::CloudPolicyClientRegistrationHelper"* %0, i64 0, i32 7
  store i32 %2, i32* %8, align 8
  %9 = getelementptr inbounds %"class.policy::CloudPolicyClientRegistrationHelper", %"class.policy::CloudPolicyClientRegistrationHelper"* %0, i64 0, i32 8, i32 0, i32 0, i32 0
  store %"class.base::internal::BindStateBase"* null, %"class.base::internal::BindStateBase"** %9, align 8
  ret void
}

; Function Attrs: nounwind ssp uwtable
define hidden void @_ZN6policy35CloudPolicyClientRegistrationHelperD2Ev(%"class.policy::CloudPolicyClientRegistrationHelper"*) unnamed_addr #0 align 2 {
  %2 = getelementptr inbounds %"class.policy::CloudPolicyClientRegistrationHelper", %"class.policy::CloudPolicyClientRegistrationHelper"* %0, i64 0, i32 1
  %3 = bitcast %"class.policy::CloudPolicyClientRegistrationHelper"* %0 to <2 x i32 (...)**>*
  store <2 x i32 (...)**> <i32 (...)** bitcast (i8** getelementptr inbounds ({ [9 x i8*], [8 x i8*] }, { [9 x i8*], [8 x i8*] }* @_ZTVN6policy35CloudPolicyClientRegistrationHelperE, i64 0, inrange i32 0, i64 2) to i32 (...)**), i32 (...)** bitcast (i8** getelementptr inbounds ({ [9 x i8*], [8 x i8*] }, { [9 x i8*], [8 x i8*] }* @_ZTVN6policy35CloudPolicyClientRegistrationHelperE, i64 0, inrange i32 1, i64 2) to i32 (...)**)>, <2 x i32 (...)**>* %3, align 8
  %4 = getelementptr inbounds %"class.policy::CloudPolicyClientRegistrationHelper", %"class.policy::CloudPolicyClientRegistrationHelper"* %0, i64 0, i32 6
  %5 = load %"class.policy::CloudPolicyClient"*, %"class.policy::CloudPolicyClient"** %4, align 8
  %6 = icmp eq %"class.policy::CloudPolicyClient"* %5, null
  br i1 %6, label %8, label %7

7:                                                ; preds = %1
  tail call void @_ZN6policy17CloudPolicyClient14RemoveObserverEPNS0_8ObserverE(%"class.policy::CloudPolicyClient"* nonnull %5, %"class.policy::CloudPolicyClient::Observer"* %2) #10
  br label %8

8:                                                ; preds = %1, %7
  %9 = getelementptr inbounds %"class.policy::CloudPolicyClientRegistrationHelper", %"class.policy::CloudPolicyClientRegistrationHelper"* %0, i64 0, i32 8, i32 0
  tail call void @_ZN4base8internal12CallbackBaseD2Ev(%"class.base::internal::CallbackBase"* %9) #10
  %10 = getelementptr inbounds %"class.policy::CloudPolicyClientRegistrationHelper", %"class.policy::CloudPolicyClientRegistrationHelper"* %0, i64 0, i32 5, i32 0
  %11 = load %"class.network::SharedURLLoaderFactory"*, %"class.network::SharedURLLoaderFactory"** %10, align 8
  %12 = icmp eq %"class.network::SharedURLLoaderFactory"* %11, null
  br i1 %12, label %26, label %13

13:                                               ; preds = %8
  %14 = getelementptr inbounds %"class.network::SharedURLLoaderFactory", %"class.network::SharedURLLoaderFactory"* %11, i64 0, i32 1
  %15 = getelementptr inbounds %"class.base::RefCounted", %"class.base::RefCounted"* %14, i64 0, i32 0
  tail call void @_ZNK4base6subtle14RefCountedBase11ReleaseImplEv(%"class.base::subtle::RefCountedBase"* %15) #10
  %16 = getelementptr inbounds %"class.base::RefCounted", %"class.base::RefCounted"* %14, i64 0, i32 0, i32 0
  %17 = load i32, i32* %16, align 4
  %18 = icmp eq i32 %17, 0
  br i1 %18, label %19, label %26

19:                                               ; preds = %13
  %20 = getelementptr inbounds %"class.base::RefCounted", %"class.base::RefCounted"* %14, i64 -2
  %21 = bitcast %"class.base::RefCounted"* %20 to %"class.network::SharedURLLoaderFactory"*
  %22 = bitcast %"class.base::RefCounted"* %20 to void (%"class.network::SharedURLLoaderFactory"*)***
  %23 = load void (%"class.network::SharedURLLoaderFactory"*)**, void (%"class.network::SharedURLLoaderFactory"*)*** %22, align 8
  %24 = getelementptr inbounds void (%"class.network::SharedURLLoaderFactory"*)*, void (%"class.network::SharedURLLoaderFactory"*)** %23, i64 1
  %25 = load void (%"class.network::SharedURLLoaderFactory"*)*, void (%"class.network::SharedURLLoaderFactory"*)** %24, align 8
  tail call void %25(%"class.network::SharedURLLoaderFactory"* nonnull %21) #10
  br label %26

26:                                               ; preds = %8, %13, %19
  %27 = getelementptr inbounds %"class.policy::CloudPolicyClientRegistrationHelper", %"class.policy::CloudPolicyClientRegistrationHelper"* %0, i64 0, i32 4
  %28 = bitcast %"class.std::__1::basic_string"* %27 to %"struct.std::__1::basic_string<char, std::__1::char_traits<char>, std::__1::allocator<char> >::__short"*
  %29 = getelementptr inbounds %"struct.std::__1::basic_string<char, std::__1::char_traits<char>, std::__1::allocator<char> >::__short", %"struct.std::__1::basic_string<char, std::__1::char_traits<char>, std::__1::allocator<char> >::__short"* %28, i64 0, i32 1, i32 0
  %30 = load i8, i8* %29, align 1
  %31 = icmp slt i8 %30, 0
  br i1 %31, label %32, label %35

32:                                               ; preds = %26
  %33 = getelementptr inbounds %"class.std::__1::basic_string", %"class.std::__1::basic_string"* %27, i64 0, i32 0, i32 0, i32 0, i32 0, i32 0, i32 0
  %34 = load i8*, i8** %33, align 8
  tail call void @_ZdlPv(i8* %34) #12
  br label %35

35:                                               ; preds = %26, %32
  %36 = getelementptr inbounds %"class.policy::CloudPolicyClientRegistrationHelper", %"class.policy::CloudPolicyClientRegistrationHelper"* %0, i64 0, i32 3, i32 0, i32 0, i32 0
  %37 = load %"class.policy::UserInfoFetcher"*, %"class.policy::UserInfoFetcher"** %36, align 8
  store %"class.policy::UserInfoFetcher"* null, %"class.policy::UserInfoFetcher"** %36, align 8
  %38 = icmp eq %"class.policy::UserInfoFetcher"* %37, null
  br i1 %38, label %41, label %39

39:                                               ; preds = %35
  tail call void @_ZN6policy15UserInfoFetcherD1Ev(%"class.policy::UserInfoFetcher"* nonnull %37) #10
  %40 = bitcast %"class.policy::UserInfoFetcher"* %37 to i8*
  tail call void @_ZdlPv(i8* %40) #12
  br label %41

41:                                               ; preds = %35, %39
  %42 = getelementptr inbounds %"class.policy::CloudPolicyClientRegistrationHelper", %"class.policy::CloudPolicyClientRegistrationHelper"* %0, i64 0, i32 2, i32 0, i32 0, i32 0
  %43 = load %"class.policy::CloudPolicyClientRegistrationHelper::IdentityManagerHelper"*, %"class.policy::CloudPolicyClientRegistrationHelper::IdentityManagerHelper"** %42, align 8
  store %"class.policy::CloudPolicyClientRegistrationHelper::IdentityManagerHelper"* null, %"class.policy::CloudPolicyClientRegistrationHelper::IdentityManagerHelper"** %42, align 8
  %44 = icmp eq %"class.policy::CloudPolicyClientRegistrationHelper::IdentityManagerHelper"* %43, null
  br i1 %44, label %57, label %45

45:                                               ; preds = %41
  %46 = getelementptr inbounds %"class.policy::CloudPolicyClientRegistrationHelper::IdentityManagerHelper", %"class.policy::CloudPolicyClientRegistrationHelper::IdentityManagerHelper"* %43, i64 0, i32 1, i32 0, i32 0, i32 0
  %47 = load %"class.signin::AccessTokenFetcher"*, %"class.signin::AccessTokenFetcher"** %46, align 8
  store %"class.signin::AccessTokenFetcher"* null, %"class.signin::AccessTokenFetcher"** %46, align 8
  %48 = icmp eq %"class.signin::AccessTokenFetcher"* %47, null
  br i1 %48, label %54, label %49

49:                                               ; preds = %45
  %50 = bitcast %"class.signin::AccessTokenFetcher"* %47 to void (%"class.signin::AccessTokenFetcher"*)***
  %51 = load void (%"class.signin::AccessTokenFetcher"*)**, void (%"class.signin::AccessTokenFetcher"*)*** %50, align 8
  %52 = getelementptr inbounds void (%"class.signin::AccessTokenFetcher"*)*, void (%"class.signin::AccessTokenFetcher"*)** %51, i64 6
  %53 = load void (%"class.signin::AccessTokenFetcher"*)*, void (%"class.signin::AccessTokenFetcher"*)** %52, align 8
  tail call void %53(%"class.signin::AccessTokenFetcher"* nonnull %47) #10
  br label %54

54:                                               ; preds = %49, %45
  %55 = getelementptr inbounds %"class.policy::CloudPolicyClientRegistrationHelper::IdentityManagerHelper", %"class.policy::CloudPolicyClientRegistrationHelper::IdentityManagerHelper"* %43, i64 0, i32 0, i32 0
  tail call void @_ZN4base8internal12CallbackBaseD2Ev(%"class.base::internal::CallbackBase"* %55) #10
  %56 = bitcast %"class.policy::CloudPolicyClientRegistrationHelper::IdentityManagerHelper"* %43 to i8*
  tail call void @_ZdlPv(i8* %56) #12
  br label %57

57:                                               ; preds = %41, %54
  tail call void @_ZN6policy17CloudPolicyClient8ObserverD2Ev(%"class.policy::CloudPolicyClient::Observer"* %2) #10
  ret void
}

declare void @_ZN6policy17CloudPolicyClient14RemoveObserverEPNS0_8ObserverE(%"class.policy::CloudPolicyClient"*, %"class.policy::CloudPolicyClient::Observer"*) local_unnamed_addr #2

; Function Attrs: nounwind
declare void @_ZN6policy17CloudPolicyClient8ObserverD2Ev(%"class.policy::CloudPolicyClient::Observer"*) unnamed_addr #3

; Function Attrs: nounwind ssp uwtable
define hidden void @_ZThn8_N6policy35CloudPolicyClientRegistrationHelperD1Ev(%"class.policy::CloudPolicyClientRegistrationHelper"*) unnamed_addr #0 align 2 {
  %2 = getelementptr inbounds %"class.policy::CloudPolicyClientRegistrationHelper", %"class.policy::CloudPolicyClientRegistrationHelper"* %0, i64 -1, i32 8
  %3 = bitcast %"class.base::OnceCallback.270"* %2 to %"class.policy::CloudPolicyClientRegistrationHelper"*
  tail call void @_ZN6policy35CloudPolicyClientRegistrationHelperD2Ev(%"class.policy::CloudPolicyClientRegistrationHelper"* %3) #10
  ret void
}

; Function Attrs: nounwind ssp uwtable
define hidden void @_ZN6policy35CloudPolicyClientRegistrationHelperD0Ev(%"class.policy::CloudPolicyClientRegistrationHelper"*) unnamed_addr #0 align 2 {
  tail call void @_ZN6policy35CloudPolicyClientRegistrationHelperD2Ev(%"class.policy::CloudPolicyClientRegistrationHelper"* %0) #10
  %2 = bitcast %"class.policy::CloudPolicyClientRegistrationHelper"* %0 to i8*
  tail call void @_ZdlPv(i8* %2) #12
  ret void
}

; Function Attrs: nobuiltin nounwind
declare void @_ZdlPv(i8*) local_unnamed_addr #4

; Function Attrs: nounwind ssp uwtable
define hidden void @_ZThn8_N6policy35CloudPolicyClientRegistrationHelperD0Ev(%"class.policy::CloudPolicyClientRegistrationHelper"*) unnamed_addr #0 align 2 {
  %2 = getelementptr inbounds %"class.policy::CloudPolicyClientRegistrationHelper", %"class.policy::CloudPolicyClientRegistrationHelper"* %0, i64 -1, i32 8
  %3 = bitcast %"class.base::OnceCallback.270"* %2 to %"class.policy::CloudPolicyClientRegistrationHelper"*
  tail call void @_ZN6policy35CloudPolicyClientRegistrationHelperD2Ev(%"class.policy::CloudPolicyClientRegistrationHelper"* %3) #10
  %4 = bitcast %"class.base::OnceCallback.270"* %2 to i8*
  tail call void @_ZdlPv(i8* %4) #12
  ret void
}

; Function Attrs: nounwind ssp uwtable
define hidden void @_ZN6policy35CloudPolicyClientRegistrationHelper17StartRegistrationEPN6signin15IdentityManagerERK13CoreAccountIdN4base12OnceCallbackIFvvEEE(%"class.policy::CloudPolicyClientRegistrationHelper"*, %"class.signin::IdentityManager"*, %struct.CoreAccountId* dereferenceable(24), %"class.base::OnceCallback.270"*) local_unnamed_addr #0 align 2 {
  %5 = alloca %"class.base::OnceCallback", align 8
  %6 = getelementptr inbounds %"class.policy::CloudPolicyClientRegistrationHelper", %"class.policy::CloudPolicyClientRegistrationHelper"* %0, i64 0, i32 8, i32 0
  %7 = getelementptr inbounds %"class.base::OnceCallback.270", %"class.base::OnceCallback.270"* %3, i64 0, i32 0
  %8 = tail call dereferenceable(8) %"class.base::internal::CallbackBase"* @_ZN4base8internal12CallbackBaseaSEOS1_(%"class.base::internal::CallbackBase"* %6, %"class.base::internal::CallbackBase"* dereferenceable(8) %7) #10
  %9 = getelementptr inbounds %"class.policy::CloudPolicyClientRegistrationHelper", %"class.policy::CloudPolicyClientRegistrationHelper"* %0, i64 0, i32 6
  %10 = load %"class.policy::CloudPolicyClient"*, %"class.policy::CloudPolicyClient"** %9, align 8
  %11 = getelementptr inbounds %"class.policy::CloudPolicyClientRegistrationHelper", %"class.policy::CloudPolicyClientRegistrationHelper"* %0, i64 0, i32 1
  tail call void @_ZN6policy17CloudPolicyClient11AddObserverEPNS0_8ObserverE(%"class.policy::CloudPolicyClient"* %10, %"class.policy::CloudPolicyClient::Observer"* %11) #10
  %12 = tail call i8* @_Znwm(i64 16) #12
  tail call void @llvm.memset.p0i8.i64(i8* nonnull align 8 %12, i8 0, i64 16, i1 false) #10
  %13 = ptrtoint i8* %12 to i64
  %14 = getelementptr inbounds %"class.policy::CloudPolicyClientRegistrationHelper", %"class.policy::CloudPolicyClientRegistrationHelper"* %0, i64 0, i32 2
  %15 = getelementptr inbounds %"class.std::__1::unique_ptr.151", %"class.std::__1::unique_ptr.151"* %14, i64 0, i32 0, i32 0, i32 0
  %16 = load %"class.policy::CloudPolicyClientRegistrationHelper::IdentityManagerHelper"*, %"class.policy::CloudPolicyClientRegistrationHelper::IdentityManagerHelper"** %15, align 8
  %17 = bitcast %"class.std::__1::unique_ptr.151"* %14 to i64*
  store i64 %13, i64* %17, align 8
  %18 = icmp eq %"class.policy::CloudPolicyClientRegistrationHelper::IdentityManagerHelper"* %16, null
  %19 = bitcast i8* %12 to %"class.policy::CloudPolicyClientRegistrationHelper::IdentityManagerHelper"*
  br i1 %18, label %33, label %20

20:                                               ; preds = %4
  %21 = getelementptr inbounds %"class.policy::CloudPolicyClientRegistrationHelper::IdentityManagerHelper", %"class.policy::CloudPolicyClientRegistrationHelper::IdentityManagerHelper"* %16, i64 0, i32 1, i32 0, i32 0, i32 0
  %22 = load %"class.signin::AccessTokenFetcher"*, %"class.signin::AccessTokenFetcher"** %21, align 8
  store %"class.signin::AccessTokenFetcher"* null, %"class.signin::AccessTokenFetcher"** %21, align 8
  %23 = icmp eq %"class.signin::AccessTokenFetcher"* %22, null
  br i1 %23, label %29, label %24

24:                                               ; preds = %20
  %25 = bitcast %"class.signin::AccessTokenFetcher"* %22 to void (%"class.signin::AccessTokenFetcher"*)***
  %26 = load void (%"class.signin::AccessTokenFetcher"*)**, void (%"class.signin::AccessTokenFetcher"*)*** %25, align 8
  %27 = getelementptr inbounds void (%"class.signin::AccessTokenFetcher"*)*, void (%"class.signin::AccessTokenFetcher"*)** %26, i64 6
  %28 = load void (%"class.signin::AccessTokenFetcher"*)*, void (%"class.signin::AccessTokenFetcher"*)** %27, align 8
  tail call void %28(%"class.signin::AccessTokenFetcher"* nonnull %22) #10
  br label %29

29:                                               ; preds = %24, %20
  %30 = getelementptr inbounds %"class.policy::CloudPolicyClientRegistrationHelper::IdentityManagerHelper", %"class.policy::CloudPolicyClientRegistrationHelper::IdentityManagerHelper"* %16, i64 0, i32 0, i32 0
  tail call void @_ZN4base8internal12CallbackBaseD2Ev(%"class.base::internal::CallbackBase"* %30) #10
  %31 = bitcast %"class.policy::CloudPolicyClientRegistrationHelper::IdentityManagerHelper"* %16 to i8*
  tail call void @_ZdlPv(i8* %31) #12
  %32 = load %"class.policy::CloudPolicyClientRegistrationHelper::IdentityManagerHelper"*, %"class.policy::CloudPolicyClientRegistrationHelper::IdentityManagerHelper"** %15, align 8
  br label %33

33:                                               ; preds = %29, %4
  %34 = phi %"class.policy::CloudPolicyClientRegistrationHelper::IdentityManagerHelper"* [ %32, %29 ], [ %19, %4 ]
  %35 = ptrtoint %"class.policy::CloudPolicyClientRegistrationHelper"* %0 to i64
  %36 = tail call i8* @_Znwm(i64 56) #12, !noalias !13
  %37 = bitcast i8* %36 to %"class.base::internal::BindStateBase"*
  tail call void @_ZN4base8internal13BindStateBaseC2EPFvvEPFvPKS1_E(%"class.base::internal::BindStateBase"* nonnull %37, void ()* bitcast (void (%"class.base::internal::BindStateBase"*, %"class.std::__1::basic_string"*)* @_ZN4base8internal7InvokerINS0_9BindStateIMN6policy35CloudPolicyClientRegistrationHelperEFvRKNSt3__112basic_stringIcNS5_11char_traitsIcEENS5_9allocatorIcEEEEEJNS0_17UnretainedWrapperIS4_EEEEEFvSD_EE7RunOnceEPNS0_13BindStateBaseESD_ to void ()*), void (%"class.base::internal::BindStateBase"*)* nonnull @_ZN4base8internal9BindStateIMN6policy35CloudPolicyClientRegistrationHelperEFvRKNSt3__112basic_stringIcNS4_11char_traitsIcEENS4_9allocatorIcEEEEEJNS0_17UnretainedWrapperIS3_EEEE7DestroyEPKNS0_13BindStateBaseE) #10, !noalias !13
  %38 = getelementptr inbounds i8, i8* %36, i64 32
  %39 = bitcast i8* %38 to <2 x i64>*
  store <2 x i64> <i64 ptrtoint (void (%"class.policy::CloudPolicyClientRegistrationHelper"*, %"class.std::__1::basic_string"*)* @_ZN6policy35CloudPolicyClientRegistrationHelper14OnTokenFetchedERKNSt3__112basic_stringIcNS1_11char_traitsIcEENS1_9allocatorIcEEEE to i64), i64 0>, <2 x i64>* %39, align 8, !noalias !13
  %40 = getelementptr inbounds i8, i8* %36, i64 48
  %41 = bitcast i8* %40 to i64*
  store i64 %35, i64* %41, align 8, !noalias !13
  %42 = bitcast %"class.base::OnceCallback"* %5 to i8**
  store i8* %36, i8** %42, align 8, !alias.scope !13
  call void @_ZN6policy35CloudPolicyClientRegistrationHelper21IdentityManagerHelper16FetchAccessTokenEPN6signin15IdentityManagerERK13CoreAccountIdN4base12OnceCallbackIFvRKNSt3__112basic_stringIcNSA_11char_traitsIcEENSA_9allocatorIcEEEEEEE(%"class.policy::CloudPolicyClientRegistrationHelper::IdentityManagerHelper"* %34, %"class.signin::IdentityManager"* %1, %struct.CoreAccountId* dereferenceable(24) %2, %"class.base::OnceCallback"* nonnull %5)
  %43 = getelementptr inbounds %"class.base::OnceCallback", %"class.base::OnceCallback"* %5, i64 0, i32 0
  call void @_ZN4base8internal12CallbackBaseD2Ev(%"class.base::internal::CallbackBase"* nonnull %43) #10
  ret void
}

declare void @_ZN6policy17CloudPolicyClient11AddObserverEPNS0_8ObserverE(%"class.policy::CloudPolicyClient"*, %"class.policy::CloudPolicyClient::Observer"*) local_unnamed_addr #2

; Function Attrs: nounwind ssp uwtable
define hidden void @_ZN6policy35CloudPolicyClientRegistrationHelper14OnTokenFetchedERKNSt3__112basic_stringIcNS1_11char_traitsIcEENS1_9allocatorIcEEEE(%"class.policy::CloudPolicyClientRegistrationHelper"*, %"class.std::__1::basic_string"* dereferenceable(24)) #0 align 2 {
  %3 = alloca %"class.base::OnceCallback.270", align 8
  %4 = getelementptr inbounds %"class.policy::CloudPolicyClientRegistrationHelper", %"class.policy::CloudPolicyClientRegistrationHelper"* %0, i64 0, i32 2, i32 0, i32 0, i32 0
  %5 = load %"class.policy::CloudPolicyClientRegistrationHelper::IdentityManagerHelper"*, %"class.policy::CloudPolicyClientRegistrationHelper::IdentityManagerHelper"** %4, align 8
  store %"class.policy::CloudPolicyClientRegistrationHelper::IdentityManagerHelper"* null, %"class.policy::CloudPolicyClientRegistrationHelper::IdentityManagerHelper"** %4, align 8
  %6 = icmp eq %"class.policy::CloudPolicyClientRegistrationHelper::IdentityManagerHelper"* %5, null
  br i1 %6, label %19, label %7

7:                                                ; preds = %2
  %8 = getelementptr inbounds %"class.policy::CloudPolicyClientRegistrationHelper::IdentityManagerHelper", %"class.policy::CloudPolicyClientRegistrationHelper::IdentityManagerHelper"* %5, i64 0, i32 1, i32 0, i32 0, i32 0
  %9 = load %"class.signin::AccessTokenFetcher"*, %"class.signin::AccessTokenFetcher"** %8, align 8
  store %"class.signin::AccessTokenFetcher"* null, %"class.signin::AccessTokenFetcher"** %8, align 8
  %10 = icmp eq %"class.signin::AccessTokenFetcher"* %9, null
  br i1 %10, label %16, label %11

11:                                               ; preds = %7
  %12 = bitcast %"class.signin::AccessTokenFetcher"* %9 to void (%"class.signin::AccessTokenFetcher"*)***
  %13 = load void (%"class.signin::AccessTokenFetcher"*)**, void (%"class.signin::AccessTokenFetcher"*)*** %12, align 8
  %14 = getelementptr inbounds void (%"class.signin::AccessTokenFetcher"*)*, void (%"class.signin::AccessTokenFetcher"*)** %13, i64 6
  %15 = load void (%"class.signin::AccessTokenFetcher"*)*, void (%"class.signin::AccessTokenFetcher"*)** %14, align 8
  tail call void %15(%"class.signin::AccessTokenFetcher"* nonnull %9) #10
  br label %16

16:                                               ; preds = %11, %7
  %17 = getelementptr inbounds %"class.policy::CloudPolicyClientRegistrationHelper::IdentityManagerHelper", %"class.policy::CloudPolicyClientRegistrationHelper::IdentityManagerHelper"* %5, i64 0, i32 0, i32 0
  tail call void @_ZN4base8internal12CallbackBaseD2Ev(%"class.base::internal::CallbackBase"* %17) #10
  %18 = bitcast %"class.policy::CloudPolicyClientRegistrationHelper::IdentityManagerHelper"* %5 to i8*
  tail call void @_ZdlPv(i8* %18) #12
  br label %19

19:                                               ; preds = %2, %16
  %20 = bitcast %"class.std::__1::basic_string"* %1 to %"struct.std::__1::basic_string<char, std::__1::char_traits<char>, std::__1::allocator<char> >::__short"*
  %21 = getelementptr inbounds %"struct.std::__1::basic_string<char, std::__1::char_traits<char>, std::__1::allocator<char> >::__short", %"struct.std::__1::basic_string<char, std::__1::char_traits<char>, std::__1::allocator<char> >::__short"* %20, i64 0, i32 1, i32 0
  %22 = load i8, i8* %21, align 1
  %23 = icmp slt i8 %22, 0
  %24 = getelementptr inbounds %"class.std::__1::basic_string", %"class.std::__1::basic_string"* %1, i64 0, i32 0, i32 0, i32 0, i32 0, i32 0, i32 1
  %25 = load i64, i64* %24, align 8
  %26 = zext i8 %22 to i64
  %27 = select i1 %23, i64 %25, i64 %26
  %28 = icmp eq i64 %27, 0
  br i1 %28, label %29, label %46

29:                                               ; preds = %19
  %30 = getelementptr inbounds %"class.policy::CloudPolicyClientRegistrationHelper", %"class.policy::CloudPolicyClientRegistrationHelper"* %0, i64 0, i32 6
  %31 = load %"class.policy::CloudPolicyClient"*, %"class.policy::CloudPolicyClient"** %30, align 8
  %32 = icmp eq %"class.policy::CloudPolicyClient"* %31, null
  br i1 %32, label %87, label %33

33:                                               ; preds = %29
  %34 = getelementptr inbounds %"class.policy::CloudPolicyClientRegistrationHelper", %"class.policy::CloudPolicyClientRegistrationHelper"* %0, i64 0, i32 1
  tail call void @_ZN6policy17CloudPolicyClient14RemoveObserverEPNS0_8ObserverE(%"class.policy::CloudPolicyClient"* nonnull %31, %"class.policy::CloudPolicyClient::Observer"* %34) #10
  store %"class.policy::CloudPolicyClient"* null, %"class.policy::CloudPolicyClient"** %30, align 8
  %35 = getelementptr inbounds %"class.policy::CloudPolicyClientRegistrationHelper", %"class.policy::CloudPolicyClientRegistrationHelper"* %0, i64 0, i32 8
  %36 = bitcast %"class.base::OnceCallback.270"* %3 to i8*
  call void @llvm.lifetime.start.p0i8(i64 8, i8* nonnull %36) #10
  %37 = getelementptr inbounds %"class.base::OnceCallback.270", %"class.base::OnceCallback.270"* %35, i64 0, i32 0, i32 0, i32 0
  %38 = bitcast %"class.base::OnceCallback.270"* %35 to i64*
  %39 = load i64, i64* %38, align 8
  %40 = bitcast %"class.base::OnceCallback.270"* %3 to i64*
  store i64 %39, i64* %40, align 8
  store %"class.base::internal::BindStateBase"* null, %"class.base::internal::BindStateBase"** %37, align 8
  %41 = getelementptr inbounds %"class.base::OnceCallback.270", %"class.base::OnceCallback.270"* %3, i64 0, i32 0
  %42 = inttoptr i64 %39 to %"class.base::internal::BindStateBase"*
  %43 = getelementptr inbounds %"class.base::internal::BindStateBase", %"class.base::internal::BindStateBase"* %42, i64 0, i32 1
  %44 = bitcast void ()** %43 to void (%"class.base::internal::BindStateBase"*)**
  %45 = load void (%"class.base::internal::BindStateBase"*)*, void (%"class.base::internal::BindStateBase"*)** %44, align 8
  tail call void %45(%"class.base::internal::BindStateBase"* %42) #10
  call void @_ZN4base8internal12CallbackBaseD2Ev(%"class.base::internal::CallbackBase"* nonnull %41) #10
  call void @llvm.lifetime.end.p0i8(i64 8, i8* nonnull %36) #10
  br label %87

46:                                               ; preds = %19
  %47 = getelementptr inbounds %"class.policy::CloudPolicyClientRegistrationHelper", %"class.policy::CloudPolicyClientRegistrationHelper"* %0, i64 0, i32 4
  %48 = icmp eq %"class.std::__1::basic_string"* %47, %1
  br i1 %48, label %68, label %49

49:                                               ; preds = %46
  %50 = bitcast %"class.std::__1::basic_string"* %47 to %"struct.std::__1::basic_string<char, std::__1::char_traits<char>, std::__1::allocator<char> >::__short"*
  %51 = getelementptr inbounds %"struct.std::__1::basic_string<char, std::__1::char_traits<char>, std::__1::allocator<char> >::__short", %"struct.std::__1::basic_string<char, std::__1::char_traits<char>, std::__1::allocator<char> >::__short"* %50, i64 0, i32 1, i32 0
  %52 = load i8, i8* %51, align 1
  %53 = icmp slt i8 %52, 0
  br i1 %53, label %62, label %54

54:                                               ; preds = %49
  br i1 %23, label %58, label %55

55:                                               ; preds = %54
  %56 = bitcast %"class.std::__1::basic_string"* %47 to i8*
  %57 = bitcast %"class.std::__1::basic_string"* %1 to i8*
  tail call void @llvm.memcpy.p0i8.p0i8.i64(i8* align 8 %56, i8* align 8 %57, i64 24, i1 false) #10
  br label %68

58:                                               ; preds = %54
  %59 = getelementptr inbounds %"class.std::__1::basic_string", %"class.std::__1::basic_string"* %1, i64 0, i32 0, i32 0, i32 0, i32 0, i32 0, i32 0
  %60 = load i8*, i8** %59, align 8
  %61 = tail call dereferenceable(24) %"class.std::__1::basic_string"* @_ZNSt3__112basic_stringIcNS_11char_traitsIcEENS_9allocatorIcEEE17__assign_no_aliasILb1EEERS5_PKcm(%"class.std::__1::basic_string"* %47, i8* %60, i64 %25) #10
  br label %68

62:                                               ; preds = %49
  %63 = getelementptr inbounds %"class.std::__1::basic_string", %"class.std::__1::basic_string"* %1, i64 0, i32 0, i32 0, i32 0, i32 0, i32 0, i32 0
  %64 = load i8*, i8** %63, align 8
  %65 = bitcast %"class.std::__1::basic_string"* %1 to i8*
  %66 = select i1 %23, i8* %64, i8* %65
  %67 = tail call dereferenceable(24) %"class.std::__1::basic_string"* @_ZNSt3__112basic_stringIcNS_11char_traitsIcEENS_9allocatorIcEEE17__assign_no_aliasILb0EEERS5_PKcm(%"class.std::__1::basic_string"* %47, i8* %66, i64 %27) #10
  br label %68

68:                                               ; preds = %46, %55, %58, %62
  %69 = getelementptr inbounds %"class.policy::CloudPolicyClientRegistrationHelper", %"class.policy::CloudPolicyClientRegistrationHelper"* %0, i64 0, i32 6
  %70 = load %"class.policy::CloudPolicyClient"*, %"class.policy::CloudPolicyClient"** %69, align 8
  %71 = tail call %"class.network::SharedURLLoaderFactory"* @_ZN6policy17CloudPolicyClient19GetURLLoaderFactoryEv(%"class.policy::CloudPolicyClient"* %70) #10
  %72 = tail call i8* @_Znwm(i64 24) #12
  %73 = bitcast i8* %72 to %"class.policy::UserInfoFetcher"*
  %74 = getelementptr inbounds %"class.policy::CloudPolicyClientRegistrationHelper", %"class.policy::CloudPolicyClientRegistrationHelper"* %0, i64 0, i32 0
  tail call void @_ZN6policy15UserInfoFetcherC1EPNS0_8DelegateE13scoped_refptrIN7network22SharedURLLoaderFactoryEE(%"class.policy::UserInfoFetcher"* nonnull %73, %"class.policy::UserInfoFetcher::Delegate"* %74, %"class.network::SharedURLLoaderFactory"* %71) #10
  %75 = ptrtoint i8* %72 to i64
  %76 = getelementptr inbounds %"class.policy::CloudPolicyClientRegistrationHelper", %"class.policy::CloudPolicyClientRegistrationHelper"* %0, i64 0, i32 3
  %77 = getelementptr inbounds %"class.std::__1::unique_ptr.157", %"class.std::__1::unique_ptr.157"* %76, i64 0, i32 0, i32 0, i32 0
  %78 = load %"class.policy::UserInfoFetcher"*, %"class.policy::UserInfoFetcher"** %77, align 8
  %79 = bitcast %"class.std::__1::unique_ptr.157"* %76 to i64*
  store i64 %75, i64* %79, align 8
  %80 = icmp eq %"class.policy::UserInfoFetcher"* %78, null
  %81 = bitcast i8* %72 to %"class.policy::UserInfoFetcher"*
  br i1 %80, label %85, label %82

82:                                               ; preds = %68
  tail call void @_ZN6policy15UserInfoFetcherD1Ev(%"class.policy::UserInfoFetcher"* nonnull %78) #10
  %83 = bitcast %"class.policy::UserInfoFetcher"* %78 to i8*
  tail call void @_ZdlPv(i8* %83) #12
  %84 = load %"class.policy::UserInfoFetcher"*, %"class.policy::UserInfoFetcher"** %77, align 8
  br label %85

85:                                               ; preds = %68, %82
  %86 = phi %"class.policy::UserInfoFetcher"* [ %81, %68 ], [ %84, %82 ]
  tail call void @_ZN6policy15UserInfoFetcher5StartERKNSt3__112basic_stringIcNS1_11char_traitsIcEENS1_9allocatorIcEEEE(%"class.policy::UserInfoFetcher"* %86, %"class.std::__1::basic_string"* dereferenceable(24) %47) #10
  br label %87

87:                                               ; preds = %33, %29, %85
  ret void
}

; Function Attrs: nounwind
declare void @_ZN4base8internal12CallbackBaseD2Ev(%"class.base::internal::CallbackBase"*) unnamed_addr #3

; Function Attrs: nounwind ssp uwtable
define hidden void @_ZN6policy35CloudPolicyClientRegistrationHelper36StartRegistrationWithEnrollmentTokenERKNSt3__112basic_stringIcNS1_11char_traitsIcEENS1_9allocatorIcEEEES9_N4base12OnceCallbackIFvvEEE(%"class.policy::CloudPolicyClientRegistrationHelper"*, %"class.std::__1::basic_string"* dereferenceable(24), %"class.std::__1::basic_string"* dereferenceable(24), %"class.base::OnceCallback.270"*) local_unnamed_addr #0 align 2 {
  %5 = getelementptr inbounds %"class.policy::CloudPolicyClientRegistrationHelper", %"class.policy::CloudPolicyClientRegistrationHelper"* %0, i64 0, i32 8, i32 0
  %6 = getelementptr inbounds %"class.base::OnceCallback.270", %"class.base::OnceCallback.270"* %3, i64 0, i32 0
  %7 = tail call dereferenceable(8) %"class.base::internal::CallbackBase"* @_ZN4base8internal12CallbackBaseaSEOS1_(%"class.base::internal::CallbackBase"* %5, %"class.base::internal::CallbackBase"* dereferenceable(8) %6) #10
  %8 = getelementptr inbounds %"class.policy::CloudPolicyClientRegistrationHelper", %"class.policy::CloudPolicyClientRegistrationHelper"* %0, i64 0, i32 6
  %9 = load %"class.policy::CloudPolicyClient"*, %"class.policy::CloudPolicyClient"** %8, align 8
  %10 = getelementptr inbounds %"class.policy::CloudPolicyClientRegistrationHelper", %"class.policy::CloudPolicyClientRegistrationHelper"* %0, i64 0, i32 1
  tail call void @_ZN6policy17CloudPolicyClient11AddObserverEPNS0_8ObserverE(%"class.policy::CloudPolicyClient"* %9, %"class.policy::CloudPolicyClient::Observer"* %10) #10
  %11 = load %"class.policy::CloudPolicyClient"*, %"class.policy::CloudPolicyClient"** %8, align 8
  %12 = bitcast %"class.policy::CloudPolicyClient"* %11 to void (%"class.policy::CloudPolicyClient"*, %"class.std::__1::basic_string"*, %"class.std::__1::basic_string"*)***
  %13 = load void (%"class.policy::CloudPolicyClient"*, %"class.std::__1::basic_string"*, %"class.std::__1::basic_string"*)**, void (%"class.policy::CloudPolicyClient"*, %"class.std::__1::basic_string"*, %"class.std::__1::basic_string"*)*** %12, align 8
  %14 = getelementptr inbounds void (%"class.policy::CloudPolicyClient"*, %"class.std::__1::basic_string"*, %"class.std::__1::basic_string"*)*, void (%"class.policy::CloudPolicyClient"*, %"class.std::__1::basic_string"*, %"class.std::__1::basic_string"*)** %13, i64 5
  %15 = load void (%"class.policy::CloudPolicyClient"*, %"class.std::__1::basic_string"*, %"class.std::__1::basic_string"*)*, void (%"class.policy::CloudPolicyClient"*, %"class.std::__1::basic_string"*, %"class.std::__1::basic_string"*)** %14, align 8
  tail call void %15(%"class.policy::CloudPolicyClient"* %11, %"class.std::__1::basic_string"* dereferenceable(24) %1, %"class.std::__1::basic_string"* dereferenceable(24) %2) #10
  ret void
}

; Function Attrs: nounwind ssp uwtable
define hidden void @_ZN6policy35CloudPolicyClientRegistrationHelper16RequestCompletedEv(%"class.policy::CloudPolicyClientRegistrationHelper"*) local_unnamed_addr #0 align 2 {
  %2 = alloca %"class.base::OnceCallback.270", align 8
  %3 = getelementptr inbounds %"class.policy::CloudPolicyClientRegistrationHelper", %"class.policy::CloudPolicyClientRegistrationHelper"* %0, i64 0, i32 6
  %4 = load %"class.policy::CloudPolicyClient"*, %"class.policy::CloudPolicyClient"** %3, align 8
  %5 = icmp eq %"class.policy::CloudPolicyClient"* %4, null
  br i1 %5, label %19, label %6

6:                                                ; preds = %1
  %7 = getelementptr inbounds %"class.policy::CloudPolicyClientRegistrationHelper", %"class.policy::CloudPolicyClientRegistrationHelper"* %0, i64 0, i32 1
  tail call void @_ZN6policy17CloudPolicyClient14RemoveObserverEPNS0_8ObserverE(%"class.policy::CloudPolicyClient"* nonnull %4, %"class.policy::CloudPolicyClient::Observer"* %7) #10
  store %"class.policy::CloudPolicyClient"* null, %"class.policy::CloudPolicyClient"** %3, align 8
  %8 = getelementptr inbounds %"class.policy::CloudPolicyClientRegistrationHelper", %"class.policy::CloudPolicyClientRegistrationHelper"* %0, i64 0, i32 8
  %9 = bitcast %"class.base::OnceCallback.270"* %2 to i8*
  call void @llvm.lifetime.start.p0i8(i64 8, i8* nonnull %9) #10
  %10 = getelementptr inbounds %"class.base::OnceCallback.270", %"class.base::OnceCallback.270"* %8, i64 0, i32 0, i32 0, i32 0
  %11 = bitcast %"class.base::OnceCallback.270"* %8 to i64*
  %12 = load i64, i64* %11, align 8
  %13 = bitcast %"class.base::OnceCallback.270"* %2 to i64*
  store i64 %12, i64* %13, align 8
  store %"class.base::internal::BindStateBase"* null, %"class.base::internal::BindStateBase"** %10, align 8
  %14 = getelementptr inbounds %"class.base::OnceCallback.270", %"class.base::OnceCallback.270"* %2, i64 0, i32 0
  %15 = inttoptr i64 %12 to %"class.base::internal::BindStateBase"*
  %16 = getelementptr inbounds %"class.base::internal::BindStateBase", %"class.base::internal::BindStateBase"* %15, i64 0, i32 1
  %17 = bitcast void ()** %16 to void (%"class.base::internal::BindStateBase"*)**
  %18 = load void (%"class.base::internal::BindStateBase"*)*, void (%"class.base::internal::BindStateBase"*)** %17, align 8
  tail call void %18(%"class.base::internal::BindStateBase"* %15) #10
  call void @_ZN4base8internal12CallbackBaseD2Ev(%"class.base::internal::CallbackBase"* nonnull %14) #10
  call void @llvm.lifetime.end.p0i8(i64 8, i8* nonnull %9) #10
  br label %19

19:                                               ; preds = %1, %6
  ret void
}

declare %"class.network::SharedURLLoaderFactory"* @_ZN6policy17CloudPolicyClient19GetURLLoaderFactoryEv(%"class.policy::CloudPolicyClient"*) local_unnamed_addr #2

declare void @_ZN6policy15UserInfoFetcher5StartERKNSt3__112basic_stringIcNS1_11char_traitsIcEENS1_9allocatorIcEEEE(%"class.policy::UserInfoFetcher"*, %"class.std::__1::basic_string"* dereferenceable(24)) local_unnamed_addr #2

; Function Attrs: nounwind ssp uwtable
define hidden void @_ZN6policy35CloudPolicyClientRegistrationHelper20OnGetUserInfoFailureERK22GoogleServiceAuthError(%"class.policy::CloudPolicyClientRegistrationHelper"*, %class.GoogleServiceAuthError* nocapture readnone dereferenceable(40)) unnamed_addr #0 align 2 {
  %3 = alloca %"class.base::OnceCallback.270", align 8
  %4 = getelementptr inbounds %"class.policy::CloudPolicyClientRegistrationHelper", %"class.policy::CloudPolicyClientRegistrationHelper"* %0, i64 0, i32 3, i32 0, i32 0, i32 0
  %5 = load %"class.policy::UserInfoFetcher"*, %"class.policy::UserInfoFetcher"** %4, align 8
  store %"class.policy::UserInfoFetcher"* null, %"class.policy::UserInfoFetcher"** %4, align 8
  %6 = icmp eq %"class.policy::UserInfoFetcher"* %5, null
  br i1 %6, label %9, label %7

7:                                                ; preds = %2
  tail call void @_ZN6policy15UserInfoFetcherD1Ev(%"class.policy::UserInfoFetcher"* nonnull %5) #10
  %8 = bitcast %"class.policy::UserInfoFetcher"* %5 to i8*
  tail call void @_ZdlPv(i8* %8) #12
  br label %9

9:                                                ; preds = %2, %7
  %10 = getelementptr inbounds %"class.policy::CloudPolicyClientRegistrationHelper", %"class.policy::CloudPolicyClientRegistrationHelper"* %0, i64 0, i32 6
  %11 = load %"class.policy::CloudPolicyClient"*, %"class.policy::CloudPolicyClient"** %10, align 8
  %12 = icmp eq %"class.policy::CloudPolicyClient"* %11, null
  br i1 %12, label %26, label %13

13:                                               ; preds = %9
  %14 = getelementptr inbounds %"class.policy::CloudPolicyClientRegistrationHelper", %"class.policy::CloudPolicyClientRegistrationHelper"* %0, i64 0, i32 1
  tail call void @_ZN6policy17CloudPolicyClient14RemoveObserverEPNS0_8ObserverE(%"class.policy::CloudPolicyClient"* nonnull %11, %"class.policy::CloudPolicyClient::Observer"* %14) #10
  store %"class.policy::CloudPolicyClient"* null, %"class.policy::CloudPolicyClient"** %10, align 8
  %15 = getelementptr inbounds %"class.policy::CloudPolicyClientRegistrationHelper", %"class.policy::CloudPolicyClientRegistrationHelper"* %0, i64 0, i32 8
  %16 = bitcast %"class.base::OnceCallback.270"* %3 to i8*
  call void @llvm.lifetime.start.p0i8(i64 8, i8* nonnull %16) #10
  %17 = getelementptr inbounds %"class.base::OnceCallback.270", %"class.base::OnceCallback.270"* %15, i64 0, i32 0, i32 0, i32 0
  %18 = bitcast %"class.base::OnceCallback.270"* %15 to i64*
  %19 = load i64, i64* %18, align 8
  %20 = bitcast %"class.base::OnceCallback.270"* %3 to i64*
  store i64 %19, i64* %20, align 8
  store %"class.base::internal::BindStateBase"* null, %"class.base::internal::BindStateBase"** %17, align 8
  %21 = getelementptr inbounds %"class.base::OnceCallback.270", %"class.base::OnceCallback.270"* %3, i64 0, i32 0
  %22 = inttoptr i64 %19 to %"class.base::internal::BindStateBase"*
  %23 = getelementptr inbounds %"class.base::internal::BindStateBase", %"class.base::internal::BindStateBase"* %22, i64 0, i32 1
  %24 = bitcast void ()** %23 to void (%"class.base::internal::BindStateBase"*)**
  %25 = load void (%"class.base::internal::BindStateBase"*)*, void (%"class.base::internal::BindStateBase"*)** %24, align 8
  tail call void %25(%"class.base::internal::BindStateBase"* %22) #10
  call void @_ZN4base8internal12CallbackBaseD2Ev(%"class.base::internal::CallbackBase"* nonnull %21) #10
  call void @llvm.lifetime.end.p0i8(i64 8, i8* nonnull %16) #10
  br label %26

26:                                               ; preds = %9, %13
  ret void
}

; Function Attrs: nounwind ssp uwtable
define hidden void @_ZN6policy35CloudPolicyClientRegistrationHelper20OnGetUserInfoSuccessEPKN4base15DictionaryValueE(%"class.policy::CloudPolicyClientRegistrationHelper"*, %"class.base::DictionaryValue"*) unnamed_addr #0 align 2 {
  %3 = alloca %"class.base::OnceCallback.270", align 8
  %4 = alloca %"class.base::OnceCallback.270", align 8
  %5 = alloca %"struct.policy::CloudPolicyClient::RegistrationParameters", align 8
  %6 = alloca %"class.std::__1::basic_string", align 8
  %7 = getelementptr inbounds %"class.policy::CloudPolicyClientRegistrationHelper", %"class.policy::CloudPolicyClientRegistrationHelper"* %0, i64 0, i32 3, i32 0, i32 0, i32 0
  %8 = load %"class.policy::UserInfoFetcher"*, %"class.policy::UserInfoFetcher"** %7, align 8
  store %"class.policy::UserInfoFetcher"* null, %"class.policy::UserInfoFetcher"** %7, align 8
  %9 = icmp eq %"class.policy::UserInfoFetcher"* %8, null
  br i1 %9, label %12, label %10

10:                                               ; preds = %2
  tail call void @_ZN6policy15UserInfoFetcherD1Ev(%"class.policy::UserInfoFetcher"* nonnull %8) #10
  %11 = bitcast %"class.policy::UserInfoFetcher"* %8 to i8*
  tail call void @_ZdlPv(i8* %11) #12
  br label %12

12:                                               ; preds = %2, %10
  %13 = tail call zeroext i1 @_ZNK4base15DictionaryValue6HasKeyENS_16BasicStringPieceIcNSt3__111char_traitsIcEEEE(%"class.base::DictionaryValue"* %1, i8* getelementptr inbounds ([3 x i8], [3 x i8]* @_ZN6policyL19kGetHostedDomainKeyE, i64 0, i64 0), i64 2) #10
  %14 = getelementptr inbounds %"class.policy::CloudPolicyClientRegistrationHelper", %"class.policy::CloudPolicyClientRegistrationHelper"* %0, i64 0, i32 6
  %15 = load %"class.policy::CloudPolicyClient"*, %"class.policy::CloudPolicyClient"** %14, align 8
  br i1 %13, label %31, label %16

16:                                               ; preds = %12
  %17 = icmp eq %"class.policy::CloudPolicyClient"* %15, null
  br i1 %17, label %78, label %18

18:                                               ; preds = %16
  %19 = getelementptr inbounds %"class.policy::CloudPolicyClientRegistrationHelper", %"class.policy::CloudPolicyClientRegistrationHelper"* %0, i64 0, i32 1
  tail call void @_ZN6policy17CloudPolicyClient14RemoveObserverEPNS0_8ObserverE(%"class.policy::CloudPolicyClient"* nonnull %15, %"class.policy::CloudPolicyClient::Observer"* %19) #10
  store %"class.policy::CloudPolicyClient"* null, %"class.policy::CloudPolicyClient"** %14, align 8
  %20 = getelementptr inbounds %"class.policy::CloudPolicyClientRegistrationHelper", %"class.policy::CloudPolicyClientRegistrationHelper"* %0, i64 0, i32 8
  %21 = bitcast %"class.base::OnceCallback.270"* %4 to i8*
  call void @llvm.lifetime.start.p0i8(i64 8, i8* nonnull %21) #10
  %22 = getelementptr inbounds %"class.base::OnceCallback.270", %"class.base::OnceCallback.270"* %20, i64 0, i32 0, i32 0, i32 0
  %23 = bitcast %"class.base::OnceCallback.270"* %20 to i64*
  %24 = load i64, i64* %23, align 8
  %25 = bitcast %"class.base::OnceCallback.270"* %4 to i64*
  store i64 %24, i64* %25, align 8
  store %"class.base::internal::BindStateBase"* null, %"class.base::internal::BindStateBase"** %22, align 8
  %26 = getelementptr inbounds %"class.base::OnceCallback.270", %"class.base::OnceCallback.270"* %4, i64 0, i32 0
  %27 = inttoptr i64 %24 to %"class.base::internal::BindStateBase"*
  %28 = getelementptr inbounds %"class.base::internal::BindStateBase", %"class.base::internal::BindStateBase"* %27, i64 0, i32 1
  %29 = bitcast void ()** %28 to void (%"class.base::internal::BindStateBase"*)**
  %30 = load void (%"class.base::internal::BindStateBase"*)*, void (%"class.base::internal::BindStateBase"*)** %29, align 8
  tail call void %30(%"class.base::internal::BindStateBase"* %27) #10
  call void @_ZN4base8internal12CallbackBaseD2Ev(%"class.base::internal::CallbackBase"* nonnull %26) #10
  call void @llvm.lifetime.end.p0i8(i64 8, i8* nonnull %21) #10
  br label %78

31:                                               ; preds = %12
  %32 = getelementptr inbounds %"class.policy::CloudPolicyClient", %"class.policy::CloudPolicyClient"* %15, i64 0, i32 11
  %33 = bitcast %"class.std::__1::basic_string"* %32 to %"struct.std::__1::basic_string<char, std::__1::char_traits<char>, std::__1::allocator<char> >::__short"*
  %34 = getelementptr inbounds %"struct.std::__1::basic_string<char, std::__1::char_traits<char>, std::__1::allocator<char> >::__short", %"struct.std::__1::basic_string<char, std::__1::char_traits<char>, std::__1::allocator<char> >::__short"* %33, i64 0, i32 1, i32 0
  %35 = load i8, i8* %34, align 1
  %36 = icmp slt i8 %35, 0
  br i1 %36, label %37, label %40

37:                                               ; preds = %31
  %38 = getelementptr inbounds %"class.policy::CloudPolicyClient", %"class.policy::CloudPolicyClient"* %15, i64 0, i32 11, i32 0, i32 0, i32 0, i32 0, i32 0, i32 1
  %39 = load i64, i64* %38, align 8
  br label %42

40:                                               ; preds = %31
  %41 = zext i8 %35 to i64
  br label %42

42:                                               ; preds = %37, %40
  %43 = phi i64 [ %39, %37 ], [ %41, %40 ]
  %44 = icmp eq i64 %43, 0
  br i1 %44, label %60, label %45

45:                                               ; preds = %42
  %46 = icmp eq %"class.policy::CloudPolicyClient"* %15, null
  br i1 %46, label %78, label %47

47:                                               ; preds = %45
  %48 = getelementptr inbounds %"class.policy::CloudPolicyClientRegistrationHelper", %"class.policy::CloudPolicyClientRegistrationHelper"* %0, i64 0, i32 1
  tail call void @_ZN6policy17CloudPolicyClient14RemoveObserverEPNS0_8ObserverE(%"class.policy::CloudPolicyClient"* nonnull %15, %"class.policy::CloudPolicyClient::Observer"* %48) #10
  store %"class.policy::CloudPolicyClient"* null, %"class.policy::CloudPolicyClient"** %14, align 8
  %49 = getelementptr inbounds %"class.policy::CloudPolicyClientRegistrationHelper", %"class.policy::CloudPolicyClientRegistrationHelper"* %0, i64 0, i32 8
  %50 = bitcast %"class.base::OnceCallback.270"* %3 to i8*
  call void @llvm.lifetime.start.p0i8(i64 8, i8* nonnull %50) #10
  %51 = getelementptr inbounds %"class.base::OnceCallback.270", %"class.base::OnceCallback.270"* %49, i64 0, i32 0, i32 0, i32 0
  %52 = bitcast %"class.base::OnceCallback.270"* %49 to i64*
  %53 = load i64, i64* %52, align 8
  %54 = bitcast %"class.base::OnceCallback.270"* %3 to i64*
  store i64 %53, i64* %54, align 8
  store %"class.base::internal::BindStateBase"* null, %"class.base::internal::BindStateBase"** %51, align 8
  %55 = getelementptr inbounds %"class.base::OnceCallback.270", %"class.base::OnceCallback.270"* %3, i64 0, i32 0
  %56 = inttoptr i64 %53 to %"class.base::internal::BindStateBase"*
  %57 = getelementptr inbounds %"class.base::internal::BindStateBase", %"class.base::internal::BindStateBase"* %56, i64 0, i32 1
  %58 = bitcast void ()** %57 to void (%"class.base::internal::BindStateBase"*)**
  %59 = load void (%"class.base::internal::BindStateBase"*)*, void (%"class.base::internal::BindStateBase"*)** %58, align 8
  tail call void %59(%"class.base::internal::BindStateBase"* %56) #10
  call void @_ZN4base8internal12CallbackBaseD2Ev(%"class.base::internal::CallbackBase"* nonnull %55) #10
  call void @llvm.lifetime.end.p0i8(i64 8, i8* nonnull %50) #10
  br label %78

60:                                               ; preds = %42
  %61 = bitcast %"struct.policy::CloudPolicyClient::RegistrationParameters"* %5 to i8*
  call void @llvm.lifetime.start.p0i8(i64 64, i8* nonnull %61) #10
  %62 = getelementptr inbounds %"class.policy::CloudPolicyClientRegistrationHelper", %"class.policy::CloudPolicyClientRegistrationHelper"* %0, i64 0, i32 7
  %63 = load i32, i32* %62, align 8
  call void @_ZN6policy17CloudPolicyClient22RegistrationParametersC1EN21enterprise_management26DeviceRegisterRequest_TypeENS2_28DeviceRegisterRequest_FlavorE(%"struct.policy::CloudPolicyClient::RegistrationParameters"* nonnull %5, i32 %63, i32 7) #10
  %64 = bitcast %"class.std::__1::basic_string"* %6 to i8*
  call void @llvm.lifetime.start.p0i8(i64 24, i8* nonnull %64) #10
  call void @llvm.memset.p0i8.i64(i8* nonnull align 8 %64, i8 0, i64 24, i1 false) #10
  %65 = getelementptr inbounds %"class.policy::CloudPolicyClientRegistrationHelper", %"class.policy::CloudPolicyClientRegistrationHelper"* %0, i64 0, i32 4
  %66 = bitcast %"class.policy::CloudPolicyClient"* %15 to void (%"class.policy::CloudPolicyClient"*, %"struct.policy::CloudPolicyClient::RegistrationParameters"*, %"class.std::__1::basic_string"*, %"class.std::__1::basic_string"*)***
  %67 = load void (%"class.policy::CloudPolicyClient"*, %"struct.policy::CloudPolicyClient::RegistrationParameters"*, %"class.std::__1::basic_string"*, %"class.std::__1::basic_string"*)**, void (%"class.policy::CloudPolicyClient"*, %"struct.policy::CloudPolicyClient::RegistrationParameters"*, %"class.std::__1::basic_string"*, %"class.std::__1::basic_string"*)*** %66, align 8
  %68 = getelementptr inbounds void (%"class.policy::CloudPolicyClient"*, %"struct.policy::CloudPolicyClient::RegistrationParameters"*, %"class.std::__1::basic_string"*, %"class.std::__1::basic_string"*)*, void (%"class.policy::CloudPolicyClient"*, %"struct.policy::CloudPolicyClient::RegistrationParameters"*, %"class.std::__1::basic_string"*, %"class.std::__1::basic_string"*)** %67, i64 3
  %69 = load void (%"class.policy::CloudPolicyClient"*, %"struct.policy::CloudPolicyClient::RegistrationParameters"*, %"class.std::__1::basic_string"*, %"class.std::__1::basic_string"*)*, void (%"class.policy::CloudPolicyClient"*, %"struct.policy::CloudPolicyClient::RegistrationParameters"*, %"class.std::__1::basic_string"*, %"class.std::__1::basic_string"*)** %68, align 8
  call void %69(%"class.policy::CloudPolicyClient"* %15, %"struct.policy::CloudPolicyClient::RegistrationParameters"* nonnull dereferenceable(64) %5, %"class.std::__1::basic_string"* nonnull dereferenceable(24) %6, %"class.std::__1::basic_string"* dereferenceable(24) %65) #10
  %70 = bitcast %"class.std::__1::basic_string"* %6 to %"struct.std::__1::basic_string<char, std::__1::char_traits<char>, std::__1::allocator<char> >::__short"*
  %71 = getelementptr inbounds %"struct.std::__1::basic_string<char, std::__1::char_traits<char>, std::__1::allocator<char> >::__short", %"struct.std::__1::basic_string<char, std::__1::char_traits<char>, std::__1::allocator<char> >::__short"* %70, i64 0, i32 1, i32 0
  %72 = load i8, i8* %71, align 1
  %73 = icmp slt i8 %72, 0
  br i1 %73, label %74, label %77

74:                                               ; preds = %60
  %75 = getelementptr inbounds %"class.std::__1::basic_string", %"class.std::__1::basic_string"* %6, i64 0, i32 0, i32 0, i32 0, i32 0, i32 0, i32 0
  %76 = load i8*, i8** %75, align 8
  call void @_ZdlPv(i8* %76) #12
  br label %77

77:                                               ; preds = %60, %74
  call void @llvm.lifetime.end.p0i8(i64 24, i8* nonnull %64) #10
  call void @_ZN6policy17CloudPolicyClient22RegistrationParametersD1Ev(%"struct.policy::CloudPolicyClient::RegistrationParameters"* nonnull %5) #10
  call void @llvm.lifetime.end.p0i8(i64 64, i8* nonnull %61) #10
  br label %78

78:                                               ; preds = %47, %45, %18, %16, %77
  ret void
}

declare zeroext i1 @_ZNK4base15DictionaryValue6HasKeyENS_16BasicStringPieceIcNSt3__111char_traitsIcEEEE(%"class.base::DictionaryValue"*, i8*, i64) local_unnamed_addr #2

declare void @_ZN6policy17CloudPolicyClient22RegistrationParametersC1EN21enterprise_management26DeviceRegisterRequest_TypeENS2_28DeviceRegisterRequest_FlavorE(%"struct.policy::CloudPolicyClient::RegistrationParameters"*, i32, i32) unnamed_addr #2

; Function Attrs: nounwind
declare void @_ZN6policy17CloudPolicyClient22RegistrationParametersD1Ev(%"struct.policy::CloudPolicyClient::RegistrationParameters"*) unnamed_addr #3

; Function Attrs: norecurse nounwind readnone ssp uwtable
define hidden void @_ZN6policy35CloudPolicyClientRegistrationHelper15OnPolicyFetchedEPNS_17CloudPolicyClientE(%"class.policy::CloudPolicyClientRegistrationHelper"* nocapture, %"class.policy::CloudPolicyClient"* nocapture) unnamed_addr #5 align 2 {
  ret void
}

; Function Attrs: norecurse nounwind readnone ssp uwtable
define hidden void @_ZThn8_N6policy35CloudPolicyClientRegistrationHelper15OnPolicyFetchedEPNS_17CloudPolicyClientE(%"class.policy::CloudPolicyClientRegistrationHelper"* nocapture, %"class.policy::CloudPolicyClient"* nocapture) unnamed_addr #5 align 2 {
  ret void
}

; Function Attrs: nounwind ssp uwtable
define hidden void @_ZN6policy35CloudPolicyClientRegistrationHelper26OnRegistrationStateChangedEPNS_17CloudPolicyClientE(%"class.policy::CloudPolicyClientRegistrationHelper"*, %"class.policy::CloudPolicyClient"* nocapture readnone) unnamed_addr #0 align 2 {
  %3 = alloca %"class.base::OnceCallback.270", align 8
  %4 = getelementptr inbounds %"class.policy::CloudPolicyClientRegistrationHelper", %"class.policy::CloudPolicyClientRegistrationHelper"* %0, i64 0, i32 6
  %5 = load %"class.policy::CloudPolicyClient"*, %"class.policy::CloudPolicyClient"** %4, align 8
  %6 = icmp eq %"class.policy::CloudPolicyClient"* %5, null
  br i1 %6, label %20, label %7

7:                                                ; preds = %2
  %8 = getelementptr inbounds %"class.policy::CloudPolicyClientRegistrationHelper", %"class.policy::CloudPolicyClientRegistrationHelper"* %0, i64 0, i32 1
  tail call void @_ZN6policy17CloudPolicyClient14RemoveObserverEPNS0_8ObserverE(%"class.policy::CloudPolicyClient"* nonnull %5, %"class.policy::CloudPolicyClient::Observer"* %8) #10
  store %"class.policy::CloudPolicyClient"* null, %"class.policy::CloudPolicyClient"** %4, align 8
  %9 = getelementptr inbounds %"class.policy::CloudPolicyClientRegistrationHelper", %"class.policy::CloudPolicyClientRegistrationHelper"* %0, i64 0, i32 8
  %10 = bitcast %"class.base::OnceCallback.270"* %3 to i8*
  call void @llvm.lifetime.start.p0i8(i64 8, i8* nonnull %10) #10
  %11 = getelementptr inbounds %"class.base::OnceCallback.270", %"class.base::OnceCallback.270"* %9, i64 0, i32 0, i32 0, i32 0
  %12 = bitcast %"class.base::OnceCallback.270"* %9 to i64*
  %13 = load i64, i64* %12, align 8
  %14 = bitcast %"class.base::OnceCallback.270"* %3 to i64*
  store i64 %13, i64* %14, align 8
  store %"class.base::internal::BindStateBase"* null, %"class.base::internal::BindStateBase"** %11, align 8
  %15 = getelementptr inbounds %"class.base::OnceCallback.270", %"class.base::OnceCallback.270"* %3, i64 0, i32 0
  %16 = inttoptr i64 %13 to %"class.base::internal::BindStateBase"*
  %17 = getelementptr inbounds %"class.base::internal::BindStateBase", %"class.base::internal::BindStateBase"* %16, i64 0, i32 1
  %18 = bitcast void ()** %17 to void (%"class.base::internal::BindStateBase"*)**
  %19 = load void (%"class.base::internal::BindStateBase"*)*, void (%"class.base::internal::BindStateBase"*)** %18, align 8
  tail call void %19(%"class.base::internal::BindStateBase"* %16) #10
  call void @_ZN4base8internal12CallbackBaseD2Ev(%"class.base::internal::CallbackBase"* nonnull %15) #10
  call void @llvm.lifetime.end.p0i8(i64 8, i8* nonnull %10) #10
  br label %20

20:                                               ; preds = %2, %7
  ret void
}

; Function Attrs: nounwind ssp uwtable
define hidden void @_ZThn8_N6policy35CloudPolicyClientRegistrationHelper26OnRegistrationStateChangedEPNS_17CloudPolicyClientE(%"class.policy::CloudPolicyClientRegistrationHelper"*, %"class.policy::CloudPolicyClient"* nocapture readnone) unnamed_addr #0 align 2 {
  %3 = alloca %"class.base::OnceCallback.270", align 8
  %4 = getelementptr inbounds %"class.policy::CloudPolicyClientRegistrationHelper", %"class.policy::CloudPolicyClientRegistrationHelper"* %0, i64 -1, i32 8
  %5 = getelementptr inbounds %"class.base::OnceCallback.270", %"class.base::OnceCallback.270"* %4, i64 8
  %6 = bitcast %"class.base::OnceCallback.270"* %5 to %"class.policy::CloudPolicyClient"**
  %7 = load %"class.policy::CloudPolicyClient"*, %"class.policy::CloudPolicyClient"** %6, align 8
  %8 = icmp eq %"class.policy::CloudPolicyClient"* %7, null
  br i1 %8, label %23, label %9

9:                                                ; preds = %2
  %10 = getelementptr inbounds %"class.base::OnceCallback.270", %"class.base::OnceCallback.270"* %4, i64 1
  %11 = bitcast %"class.base::OnceCallback.270"* %10 to %"class.policy::CloudPolicyClient::Observer"*
  tail call void @_ZN6policy17CloudPolicyClient14RemoveObserverEPNS0_8ObserverE(%"class.policy::CloudPolicyClient"* nonnull %7, %"class.policy::CloudPolicyClient::Observer"* %11) #10
  store %"class.policy::CloudPolicyClient"* null, %"class.policy::CloudPolicyClient"** %6, align 8
  %12 = getelementptr inbounds %"class.base::OnceCallback.270", %"class.base::OnceCallback.270"* %4, i64 10
  %13 = bitcast %"class.base::OnceCallback.270"* %3 to i8*
  call void @llvm.lifetime.start.p0i8(i64 8, i8* nonnull %13) #10
  %14 = getelementptr inbounds %"class.base::OnceCallback.270", %"class.base::OnceCallback.270"* %12, i64 0, i32 0, i32 0, i32 0
  %15 = bitcast %"class.base::OnceCallback.270"* %12 to i64*
  %16 = load i64, i64* %15, align 8
  %17 = bitcast %"class.base::OnceCallback.270"* %3 to i64*
  store i64 %16, i64* %17, align 8
  store %"class.base::internal::BindStateBase"* null, %"class.base::internal::BindStateBase"** %14, align 8
  %18 = getelementptr inbounds %"class.base::OnceCallback.270", %"class.base::OnceCallback.270"* %3, i64 0, i32 0
  %19 = inttoptr i64 %16 to %"class.base::internal::BindStateBase"*
  %20 = getelementptr inbounds %"class.base::internal::BindStateBase", %"class.base::internal::BindStateBase"* %19, i64 0, i32 1
  %21 = bitcast void ()** %20 to void (%"class.base::internal::BindStateBase"*)**
  %22 = load void (%"class.base::internal::BindStateBase"*)*, void (%"class.base::internal::BindStateBase"*)** %21, align 8
  tail call void %22(%"class.base::internal::BindStateBase"* %19) #10
  call void @_ZN4base8internal12CallbackBaseD2Ev(%"class.base::internal::CallbackBase"* nonnull %18) #10
  call void @llvm.lifetime.end.p0i8(i64 8, i8* nonnull %13) #10
  br label %23

23:                                               ; preds = %2, %9
  ret void
}

; Function Attrs: nounwind ssp uwtable
define hidden void @_ZN6policy35CloudPolicyClientRegistrationHelper13OnClientErrorEPNS_17CloudPolicyClientE(%"class.policy::CloudPolicyClientRegistrationHelper"*, %"class.policy::CloudPolicyClient"* nocapture readnone) unnamed_addr #0 align 2 {
  %3 = alloca %"class.base::OnceCallback.270", align 8
  %4 = getelementptr inbounds %"class.policy::CloudPolicyClientRegistrationHelper", %"class.policy::CloudPolicyClientRegistrationHelper"* %0, i64 0, i32 6
  %5 = load %"class.policy::CloudPolicyClient"*, %"class.policy::CloudPolicyClient"** %4, align 8
  %6 = icmp eq %"class.policy::CloudPolicyClient"* %5, null
  br i1 %6, label %20, label %7

7:                                                ; preds = %2
  %8 = getelementptr inbounds %"class.policy::CloudPolicyClientRegistrationHelper", %"class.policy::CloudPolicyClientRegistrationHelper"* %0, i64 0, i32 1
  tail call void @_ZN6policy17CloudPolicyClient14RemoveObserverEPNS0_8ObserverE(%"class.policy::CloudPolicyClient"* nonnull %5, %"class.policy::CloudPolicyClient::Observer"* %8) #10
  store %"class.policy::CloudPolicyClient"* null, %"class.policy::CloudPolicyClient"** %4, align 8
  %9 = getelementptr inbounds %"class.policy::CloudPolicyClientRegistrationHelper", %"class.policy::CloudPolicyClientRegistrationHelper"* %0, i64 0, i32 8
  %10 = bitcast %"class.base::OnceCallback.270"* %3 to i8*
  call void @llvm.lifetime.start.p0i8(i64 8, i8* nonnull %10) #10
  %11 = getelementptr inbounds %"class.base::OnceCallback.270", %"class.base::OnceCallback.270"* %9, i64 0, i32 0, i32 0, i32 0
  %12 = bitcast %"class.base::OnceCallback.270"* %9 to i64*
  %13 = load i64, i64* %12, align 8
  %14 = bitcast %"class.base::OnceCallback.270"* %3 to i64*
  store i64 %13, i64* %14, align 8
  store %"class.base::internal::BindStateBase"* null, %"class.base::internal::BindStateBase"** %11, align 8
  %15 = getelementptr inbounds %"class.base::OnceCallback.270", %"class.base::OnceCallback.270"* %3, i64 0, i32 0
  %16 = inttoptr i64 %13 to %"class.base::internal::BindStateBase"*
  %17 = getelementptr inbounds %"class.base::internal::BindStateBase", %"class.base::internal::BindStateBase"* %16, i64 0, i32 1
  %18 = bitcast void ()** %17 to void (%"class.base::internal::BindStateBase"*)**
  %19 = load void (%"class.base::internal::BindStateBase"*)*, void (%"class.base::internal::BindStateBase"*)** %18, align 8
  tail call void %19(%"class.base::internal::BindStateBase"* %16) #10
  call void @_ZN4base8internal12CallbackBaseD2Ev(%"class.base::internal::CallbackBase"* nonnull %15) #10
  call void @llvm.lifetime.end.p0i8(i64 8, i8* nonnull %10) #10
  br label %20

20:                                               ; preds = %2, %7
  ret void
}

; Function Attrs: nounwind ssp uwtable
define hidden void @_ZThn8_N6policy35CloudPolicyClientRegistrationHelper13OnClientErrorEPNS_17CloudPolicyClientE(%"class.policy::CloudPolicyClientRegistrationHelper"*, %"class.policy::CloudPolicyClient"* nocapture readnone) unnamed_addr #0 align 2 {
  %3 = alloca %"class.base::OnceCallback.270", align 8
  %4 = getelementptr inbounds %"class.policy::CloudPolicyClientRegistrationHelper", %"class.policy::CloudPolicyClientRegistrationHelper"* %0, i64 -1, i32 8
  %5 = getelementptr inbounds %"class.base::OnceCallback.270", %"class.base::OnceCallback.270"* %4, i64 8
  %6 = bitcast %"class.base::OnceCallback.270"* %5 to %"class.policy::CloudPolicyClient"**
  %7 = load %"class.policy::CloudPolicyClient"*, %"class.policy::CloudPolicyClient"** %6, align 8
  %8 = icmp eq %"class.policy::CloudPolicyClient"* %7, null
  br i1 %8, label %23, label %9

9:                                                ; preds = %2
  %10 = getelementptr inbounds %"class.base::OnceCallback.270", %"class.base::OnceCallback.270"* %4, i64 1
  %11 = bitcast %"class.base::OnceCallback.270"* %10 to %"class.policy::CloudPolicyClient::Observer"*
  tail call void @_ZN6policy17CloudPolicyClient14RemoveObserverEPNS0_8ObserverE(%"class.policy::CloudPolicyClient"* nonnull %7, %"class.policy::CloudPolicyClient::Observer"* %11) #10
  store %"class.policy::CloudPolicyClient"* null, %"class.policy::CloudPolicyClient"** %6, align 8
  %12 = getelementptr inbounds %"class.base::OnceCallback.270", %"class.base::OnceCallback.270"* %4, i64 10
  %13 = bitcast %"class.base::OnceCallback.270"* %3 to i8*
  call void @llvm.lifetime.start.p0i8(i64 8, i8* nonnull %13) #10
  %14 = getelementptr inbounds %"class.base::OnceCallback.270", %"class.base::OnceCallback.270"* %12, i64 0, i32 0, i32 0, i32 0
  %15 = bitcast %"class.base::OnceCallback.270"* %12 to i64*
  %16 = load i64, i64* %15, align 8
  %17 = bitcast %"class.base::OnceCallback.270"* %3 to i64*
  store i64 %16, i64* %17, align 8
  store %"class.base::internal::BindStateBase"* null, %"class.base::internal::BindStateBase"** %14, align 8
  %18 = getelementptr inbounds %"class.base::OnceCallback.270", %"class.base::OnceCallback.270"* %3, i64 0, i32 0
  %19 = inttoptr i64 %16 to %"class.base::internal::BindStateBase"*
  %20 = getelementptr inbounds %"class.base::internal::BindStateBase", %"class.base::internal::BindStateBase"* %19, i64 0, i32 1
  %21 = bitcast void ()** %20 to void (%"class.base::internal::BindStateBase"*)**
  %22 = load void (%"class.base::internal::BindStateBase"*)*, void (%"class.base::internal::BindStateBase"*)** %21, align 8
  tail call void %22(%"class.base::internal::BindStateBase"* %19) #10
  call void @_ZN4base8internal12CallbackBaseD2Ev(%"class.base::internal::CallbackBase"* nonnull %18) #10
  call void @llvm.lifetime.end.p0i8(i64 8, i8* nonnull %13) #10
  br label %23

23:                                               ; preds = %2, %9
  ret void
}

; Function Attrs: nounwind ssp uwtable
define linkonce_odr hidden void @_ZN6policy17CloudPolicyClient8Observer19OnServiceAccountSetEPS0_RKNSt3__112basic_stringIcNS3_11char_traitsIcEENS3_9allocatorIcEEEE(%"class.policy::CloudPolicyClient::Observer"*, %"class.policy::CloudPolicyClient"*, %"class.std::__1::basic_string"* dereferenceable(24)) unnamed_addr #0 comdat align 2 {
  ret void
}

; Function Attrs: nounwind
declare dereferenceable(8) %"class.base::internal::CallbackBase"* @_ZN4base8internal12CallbackBaseaSEOS1_(%"class.base::internal::CallbackBase"*, %"class.base::internal::CallbackBase"* dereferenceable(8)) local_unnamed_addr #3

; Function Attrs: argmemonly nofree nounwind readonly
declare i64 @strlen(i8* nocapture) local_unnamed_addr #6

; Function Attrs: noreturn
declare void @_ZNKSt3__121__basic_string_commonILb1EE20__throw_length_errorEv(%"class.std::__1::__basic_string_common"*) local_unnamed_addr #7

; Function Attrs: nobuiltin nofree
declare noalias nonnull i8* @_Znwm(i64) local_unnamed_addr #8

; Function Attrs: argmemonly nounwind
declare void @llvm.memcpy.p0i8.p0i8.i64(i8* nocapture writeonly, i8* nocapture readonly, i64, i1 immarg) #1

declare dereferenceable(24) %"class.std::__1::basic_string"* @_ZNSt3__112basic_stringIcNS_11char_traitsIcEENS_9allocatorIcEEE17__assign_no_aliasILb1EEERS5_PKcm(%"class.std::__1::basic_string"*, i8*, i64) local_unnamed_addr #2

declare dereferenceable(24) %"class.std::__1::basic_string"* @_ZNSt3__112basic_stringIcNS_11char_traitsIcEENS_9allocatorIcEEE17__assign_no_aliasILb0EEERS5_PKcm(%"class.std::__1::basic_string"*, i8*, i64) local_unnamed_addr #2

; Function Attrs: nounwind ssp uwtable
define linkonce_odr hidden void @_ZNSt3__16__treeINS_12basic_stringIcNS_11char_traitsIcEENS_9allocatorIcEEEENS_4lessIS6_EENS4_IS6_EEE7destroyEPNS_11__tree_nodeIS6_PvEE(%"class.std::__1::__tree.62"*, %"class.std::__1::__tree_node"*) local_unnamed_addr #0 comdat align 2 {
  %3 = icmp eq %"class.std::__1::__tree_node"* %1, null
  br i1 %3, label %20, label %4

4:                                                ; preds = %2
  %5 = bitcast %"class.std::__1::__tree_node"* %1 to %"class.std::__1::__tree_node"**
  %6 = load %"class.std::__1::__tree_node"*, %"class.std::__1::__tree_node"** %5, align 8
  tail call void @_ZNSt3__16__treeINS_12basic_stringIcNS_11char_traitsIcEENS_9allocatorIcEEEENS_4lessIS6_EENS4_IS6_EEE7destroyEPNS_11__tree_nodeIS6_PvEE(%"class.std::__1::__tree.62"* %0, %"class.std::__1::__tree_node"* %6) #10
  %7 = getelementptr inbounds %"class.std::__1::__tree_node", %"class.std::__1::__tree_node"* %1, i64 0, i32 0, i32 1
  %8 = bitcast %"class.std::__1::__tree_node_base"** %7 to %"class.std::__1::__tree_node"**
  %9 = load %"class.std::__1::__tree_node"*, %"class.std::__1::__tree_node"** %8, align 8
  tail call void @_ZNSt3__16__treeINS_12basic_stringIcNS_11char_traitsIcEENS_9allocatorIcEEEENS_4lessIS6_EENS4_IS6_EEE7destroyEPNS_11__tree_nodeIS6_PvEE(%"class.std::__1::__tree.62"* %0, %"class.std::__1::__tree_node"* %9) #10
  %10 = getelementptr inbounds %"class.std::__1::__tree_node", %"class.std::__1::__tree_node"* %1, i64 0, i32 1
  %11 = bitcast %"class.std::__1::basic_string"* %10 to %"struct.std::__1::basic_string<char, std::__1::char_traits<char>, std::__1::allocator<char> >::__short"*
  %12 = getelementptr inbounds %"struct.std::__1::basic_string<char, std::__1::char_traits<char>, std::__1::allocator<char> >::__short", %"struct.std::__1::basic_string<char, std::__1::char_traits<char>, std::__1::allocator<char> >::__short"* %11, i64 0, i32 1, i32 0
  %13 = load i8, i8* %12, align 1
  %14 = icmp slt i8 %13, 0
  br i1 %14, label %15, label %18

15:                                               ; preds = %4
  %16 = getelementptr inbounds %"class.std::__1::basic_string", %"class.std::__1::basic_string"* %10, i64 0, i32 0, i32 0, i32 0, i32 0, i32 0, i32 0
  %17 = load i8*, i8** %16, align 8
  tail call void @_ZdlPv(i8* %17) #12
  br label %18

18:                                               ; preds = %4, %15
  %19 = bitcast %"class.std::__1::__tree_node"* %1 to i8*
  tail call void @_ZdlPv(i8* %19) #12
  br label %20

20:                                               ; preds = %2, %18
  ret void
}

; Function Attrs: nounwind ssp uwtable
define linkonce_odr hidden dereferenceable(8) %"class.std::__1::__tree_node_base"** @_ZNSt3__16__treeINS_12basic_stringIcNS_11char_traitsIcEENS_9allocatorIcEEEENS_4lessIS6_EENS4_IS6_EEE12__find_equalIS6_EERPNS_16__tree_node_baseIPvEERPNS_15__tree_end_nodeISF_EERKT_(%"class.std::__1::__tree.62"*, %"class.std::__1::__tree_end_node"** dereferenceable(8), %"class.std::__1::basic_string"* dereferenceable(24)) local_unnamed_addr #0 comdat align 2 {
  %4 = getelementptr inbounds %"class.std::__1::__tree.62", %"class.std::__1::__tree.62"* %0, i64 0, i32 1, i32 0, i32 0
  %5 = bitcast %"class.std::__1::__tree_end_node"* %4 to %"class.std::__1::__tree_node"**
  %6 = load %"class.std::__1::__tree_node"*, %"class.std::__1::__tree_node"** %5, align 8
  %7 = icmp eq %"class.std::__1::__tree_node"* %6, null
  br i1 %7, label %79, label %8

8:                                                ; preds = %3
  %9 = getelementptr inbounds %"class.std::__1::__tree.62", %"class.std::__1::__tree.62"* %0, i64 0, i32 1, i32 0, i32 0, i32 0
  %10 = bitcast %"class.std::__1::basic_string"* %2 to %"struct.std::__1::basic_string<char, std::__1::char_traits<char>, std::__1::allocator<char> >::__short"*
  %11 = getelementptr inbounds %"struct.std::__1::basic_string<char, std::__1::char_traits<char>, std::__1::allocator<char> >::__short", %"struct.std::__1::basic_string<char, std::__1::char_traits<char>, std::__1::allocator<char> >::__short"* %10, i64 0, i32 1, i32 0
  %12 = load i8, i8* %11, align 1
  %13 = icmp slt i8 %12, 0
  %14 = getelementptr inbounds %"class.std::__1::basic_string", %"class.std::__1::basic_string"* %2, i64 0, i32 0, i32 0, i32 0, i32 0, i32 0, i32 1
  %15 = load i64, i64* %14, align 8
  %16 = zext i8 %12 to i64
  %17 = select i1 %13, i64 %15, i64 %16
  %18 = getelementptr inbounds %"class.std::__1::basic_string", %"class.std::__1::basic_string"* %2, i64 0, i32 0, i32 0, i32 0, i32 0, i32 0, i32 0
  %19 = load i8*, i8** %18, align 8
  %20 = bitcast %"class.std::__1::basic_string"* %2 to i8*
  %21 = select i1 %13, i8* %19, i8* %20
  br label %22

22:                                               ; preds = %8, %75
  %23 = phi %"class.std::__1::__tree_node"* [ %78, %75 ], [ %6, %8 ]
  %24 = phi %"class.std::__1::__tree_node_base"** [ %77, %75 ], [ %9, %8 ]
  %25 = getelementptr inbounds %"class.std::__1::__tree_node", %"class.std::__1::__tree_node"* %23, i64 0, i32 1
  %26 = bitcast %"class.std::__1::basic_string"* %25 to %"struct.std::__1::basic_string<char, std::__1::char_traits<char>, std::__1::allocator<char> >::__short"*
  %27 = getelementptr inbounds %"struct.std::__1::basic_string<char, std::__1::char_traits<char>, std::__1::allocator<char> >::__short", %"struct.std::__1::basic_string<char, std::__1::char_traits<char>, std::__1::allocator<char> >::__short"* %26, i64 0, i32 1, i32 0
  %28 = load i8, i8* %27, align 1
  %29 = icmp slt i8 %28, 0
  %30 = getelementptr inbounds %"class.std::__1::__tree_node", %"class.std::__1::__tree_node"* %23, i64 0, i32 1, i32 0, i32 0, i32 0, i32 0, i32 0, i32 1
  %31 = load i64, i64* %30, align 8
  %32 = zext i8 %28 to i64
  %33 = select i1 %29, i64 %31, i64 %32
  %34 = icmp ult i64 %33, %17
  %35 = select i1 %34, i64 %33, i64 %17
  %36 = icmp eq i64 %35, 0
  br i1 %36, label %44, label %37

37:                                               ; preds = %22
  %38 = getelementptr inbounds %"class.std::__1::basic_string", %"class.std::__1::basic_string"* %25, i64 0, i32 0, i32 0, i32 0, i32 0, i32 0, i32 0
  %39 = load i8*, i8** %38, align 8
  %40 = bitcast %"class.std::__1::basic_string"* %25 to i8*
  %41 = select i1 %29, i8* %39, i8* %40
  %42 = tail call i32 @memcmp(i8* %21, i8* %41, i64 %35) #10
  %43 = icmp eq i32 %42, 0
  br i1 %43, label %44, label %46

44:                                               ; preds = %37, %22
  %45 = icmp ult i64 %17, %33
  br i1 %45, label %48, label %54

46:                                               ; preds = %37
  %47 = icmp slt i32 %42, 0
  br i1 %47, label %48, label %60

48:                                               ; preds = %44, %46
  %49 = getelementptr inbounds %"class.std::__1::__tree_node", %"class.std::__1::__tree_node"* %23, i64 0, i32 0, i32 0, i32 0
  %50 = load %"class.std::__1::__tree_node_base"*, %"class.std::__1::__tree_node_base"** %49, align 8
  %51 = icmp eq %"class.std::__1::__tree_node_base"* %50, null
  br i1 %51, label %52, label %75

52:                                               ; preds = %48
  %53 = getelementptr inbounds %"class.std::__1::__tree_node", %"class.std::__1::__tree_node"* %23, i64 0, i32 0, i32 0
  store %"class.std::__1::__tree_end_node"* %53, %"class.std::__1::__tree_end_node"** %1, align 8
  br label %81

54:                                               ; preds = %44
  br i1 %36, label %64, label %55

55:                                               ; preds = %54
  %56 = getelementptr inbounds %"class.std::__1::basic_string", %"class.std::__1::basic_string"* %25, i64 0, i32 0, i32 0, i32 0, i32 0, i32 0, i32 0
  %57 = load i8*, i8** %56, align 8
  %58 = bitcast %"class.std::__1::basic_string"* %25 to i8*
  %59 = select i1 %29, i8* %57, i8* %58
  br label %60

60:                                               ; preds = %55, %46
  %61 = phi i8* [ %59, %55 ], [ %41, %46 ]
  %62 = tail call i32 @memcmp(i8* %61, i8* %21, i64 %35) #10
  %63 = icmp eq i32 %62, 0
  br i1 %63, label %64, label %65

64:                                               ; preds = %60, %54
  br i1 %34, label %67, label %73

65:                                               ; preds = %60
  %66 = icmp slt i32 %62, 0
  br i1 %66, label %67, label %73

67:                                               ; preds = %64, %65
  %68 = getelementptr inbounds %"class.std::__1::__tree_node", %"class.std::__1::__tree_node"* %23, i64 0, i32 0, i32 1
  %69 = load %"class.std::__1::__tree_node_base"*, %"class.std::__1::__tree_node_base"** %68, align 8
  %70 = icmp eq %"class.std::__1::__tree_node_base"* %69, null
  br i1 %70, label %71, label %75

71:                                               ; preds = %67
  %72 = getelementptr inbounds %"class.std::__1::__tree_node", %"class.std::__1::__tree_node"* %23, i64 0, i32 0, i32 0
  store %"class.std::__1::__tree_end_node"* %72, %"class.std::__1::__tree_end_node"** %1, align 8
  br label %81

73:                                               ; preds = %64, %65
  %74 = getelementptr inbounds %"class.std::__1::__tree_node", %"class.std::__1::__tree_node"* %23, i64 0, i32 0, i32 0
  store %"class.std::__1::__tree_end_node"* %74, %"class.std::__1::__tree_end_node"** %1, align 8
  br label %81

75:                                               ; preds = %67, %48
  %76 = phi %"class.std::__1::__tree_node_base"* [ %50, %48 ], [ %69, %67 ]
  %77 = phi %"class.std::__1::__tree_node_base"** [ %49, %48 ], [ %68, %67 ]
  %78 = bitcast %"class.std::__1::__tree_node_base"* %76 to %"class.std::__1::__tree_node"*
  br label %22

79:                                               ; preds = %3
  store %"class.std::__1::__tree_end_node"* %4, %"class.std::__1::__tree_end_node"** %1, align 8
  %80 = getelementptr inbounds %"class.std::__1::__tree_end_node", %"class.std::__1::__tree_end_node"* %4, i64 0, i32 0
  br label %81

81:                                               ; preds = %79, %73, %71, %52
  %82 = phi %"class.std::__1::__tree_node_base"** [ %49, %52 ], [ %68, %71 ], [ %24, %73 ], [ %80, %79 ]
  ret %"class.std::__1::__tree_node_base"** %82
}

; Function Attrs: nofree nounwind readonly
declare i32 @memcmp(i8* nocapture, i8* nocapture, i64) local_unnamed_addr #9

; Function Attrs: nounwind ssp uwtable
define linkonce_odr hidden void @_ZNSt3__127__tree_balance_after_insertIPNS_16__tree_node_baseIPvEEEEvT_S5_(%"class.std::__1::__tree_node_base"*, %"class.std::__1::__tree_node_base"*) local_unnamed_addr #0 comdat {
  %3 = icmp eq %"class.std::__1::__tree_node_base"* %1, %0
  %4 = getelementptr inbounds %"class.std::__1::__tree_node_base", %"class.std::__1::__tree_node_base"* %1, i64 0, i32 3
  %5 = zext i1 %3 to i8
  store i8 %5, i8* %4, align 8
  br i1 %3, label %156, label %6

6:                                                ; preds = %2, %149
  %7 = phi %"class.std::__1::__tree_node_base"* [ %20, %149 ], [ %1, %2 ]
  %8 = getelementptr inbounds %"class.std::__1::__tree_node_base", %"class.std::__1::__tree_node_base"* %7, i64 0, i32 2
  %9 = bitcast %"class.std::__1::__tree_end_node"** %8 to %"class.std::__1::__tree_node_base"**
  %10 = load %"class.std::__1::__tree_node_base"*, %"class.std::__1::__tree_node_base"** %9, align 8
  %11 = getelementptr inbounds %"class.std::__1::__tree_node_base", %"class.std::__1::__tree_node_base"* %10, i64 0, i32 3
  %12 = load i8, i8* %11, align 8, !range !18
  %13 = icmp eq i8 %12, 0
  br i1 %13, label %14, label %156

14:                                               ; preds = %6
  %15 = getelementptr inbounds %"class.std::__1::__tree_node_base", %"class.std::__1::__tree_node_base"* %10, i64 0, i32 2
  %16 = load %"class.std::__1::__tree_end_node"*, %"class.std::__1::__tree_end_node"** %15, align 8
  %17 = getelementptr inbounds %"class.std::__1::__tree_end_node", %"class.std::__1::__tree_end_node"* %16, i64 0, i32 0
  %18 = load %"class.std::__1::__tree_node_base"*, %"class.std::__1::__tree_node_base"** %17, align 8
  %19 = icmp eq %"class.std::__1::__tree_node_base"* %18, %10
  %20 = bitcast %"class.std::__1::__tree_end_node"* %16 to %"class.std::__1::__tree_node_base"*
  br i1 %19, label %21, label %87

21:                                               ; preds = %14
  %22 = getelementptr inbounds %"class.std::__1::__tree_end_node", %"class.std::__1::__tree_end_node"* %16, i64 1, i32 0
  %23 = load %"class.std::__1::__tree_node_base"*, %"class.std::__1::__tree_node_base"** %22, align 8
  %24 = icmp eq %"class.std::__1::__tree_node_base"* %23, null
  br i1 %24, label %29, label %25

25:                                               ; preds = %21
  %26 = getelementptr inbounds %"class.std::__1::__tree_node_base", %"class.std::__1::__tree_node_base"* %23, i64 0, i32 3
  %27 = load i8, i8* %26, align 8, !range !18
  %28 = icmp eq i8 %27, 0
  br i1 %28, label %149, label %29

29:                                               ; preds = %25, %21
  %30 = getelementptr inbounds %"class.std::__1::__tree_node_base", %"class.std::__1::__tree_node_base"* %10, i64 0, i32 2
  %31 = bitcast %"class.std::__1::__tree_end_node"* %16 to %"class.std::__1::__tree_node_base"*
  %32 = getelementptr inbounds %"class.std::__1::__tree_node_base", %"class.std::__1::__tree_node_base"* %10, i64 0, i32 0, i32 0
  %33 = load %"class.std::__1::__tree_node_base"*, %"class.std::__1::__tree_node_base"** %32, align 8
  %34 = icmp eq %"class.std::__1::__tree_node_base"* %33, %7
  br i1 %34, label %61, label %35

35:                                               ; preds = %29
  %36 = ptrtoint %"class.std::__1::__tree_end_node"* %16 to i64
  %37 = getelementptr inbounds %"class.std::__1::__tree_node_base", %"class.std::__1::__tree_node_base"* %10, i64 0, i32 1
  %38 = load %"class.std::__1::__tree_node_base"*, %"class.std::__1::__tree_node_base"** %37, align 8
  %39 = getelementptr inbounds %"class.std::__1::__tree_node_base", %"class.std::__1::__tree_node_base"* %38, i64 0, i32 0, i32 0
  %40 = load %"class.std::__1::__tree_node_base"*, %"class.std::__1::__tree_node_base"** %39, align 8
  store %"class.std::__1::__tree_node_base"* %40, %"class.std::__1::__tree_node_base"** %37, align 8
  %41 = icmp eq %"class.std::__1::__tree_node_base"* %40, null
  br i1 %41, label %47, label %42

42:                                               ; preds = %35
  %43 = getelementptr inbounds %"class.std::__1::__tree_node_base", %"class.std::__1::__tree_node_base"* %10, i64 0, i32 0
  %44 = getelementptr inbounds %"class.std::__1::__tree_node_base", %"class.std::__1::__tree_node_base"* %40, i64 0, i32 2
  store %"class.std::__1::__tree_end_node"* %43, %"class.std::__1::__tree_end_node"** %44, align 8
  %45 = bitcast %"class.std::__1::__tree_end_node"** %30 to i64*
  %46 = load i64, i64* %45, align 8
  br label %47

47:                                               ; preds = %35, %42
  %48 = phi i64 [ %46, %42 ], [ %36, %35 ]
  %49 = getelementptr inbounds %"class.std::__1::__tree_node_base", %"class.std::__1::__tree_node_base"* %38, i64 0, i32 2
  %50 = bitcast %"class.std::__1::__tree_end_node"** %49 to i64*
  store i64 %48, i64* %50, align 8
  %51 = load %"class.std::__1::__tree_end_node"*, %"class.std::__1::__tree_end_node"** %30, align 8
  %52 = getelementptr inbounds %"class.std::__1::__tree_end_node", %"class.std::__1::__tree_end_node"* %51, i64 0, i32 0
  %53 = load %"class.std::__1::__tree_node_base"*, %"class.std::__1::__tree_node_base"** %52, align 8
  %54 = icmp eq %"class.std::__1::__tree_node_base"* %53, %10
  %55 = getelementptr inbounds %"class.std::__1::__tree_end_node", %"class.std::__1::__tree_end_node"* %51, i64 1, i32 0
  %56 = select i1 %54, %"class.std::__1::__tree_node_base"** %52, %"class.std::__1::__tree_node_base"** %55
  store %"class.std::__1::__tree_node_base"* %38, %"class.std::__1::__tree_node_base"** %56, align 8
  store %"class.std::__1::__tree_node_base"* %10, %"class.std::__1::__tree_node_base"** %39, align 8
  %57 = getelementptr inbounds %"class.std::__1::__tree_node_base", %"class.std::__1::__tree_node_base"* %38, i64 0, i32 0
  store %"class.std::__1::__tree_end_node"* %57, %"class.std::__1::__tree_end_node"** %30, align 8
  %58 = getelementptr inbounds %"class.std::__1::__tree_node_base", %"class.std::__1::__tree_node_base"* %38, i64 0, i32 2
  %59 = bitcast %"class.std::__1::__tree_end_node"** %58 to %"class.std::__1::__tree_node_base"**
  %60 = load %"class.std::__1::__tree_node_base"*, %"class.std::__1::__tree_node_base"** %59, align 8
  br label %61

61:                                               ; preds = %47, %29
  %62 = phi %"class.std::__1::__tree_node_base"* [ %31, %29 ], [ %60, %47 ]
  %63 = phi %"class.std::__1::__tree_node_base"* [ %10, %29 ], [ %38, %47 ]
  %64 = getelementptr inbounds %"class.std::__1::__tree_node_base", %"class.std::__1::__tree_node_base"* %63, i64 0, i32 3
  store i8 1, i8* %64, align 8
  %65 = getelementptr inbounds %"class.std::__1::__tree_node_base", %"class.std::__1::__tree_node_base"* %62, i64 0, i32 3
  store i8 0, i8* %65, align 8
  %66 = getelementptr inbounds %"class.std::__1::__tree_node_base", %"class.std::__1::__tree_node_base"* %62, i64 0, i32 0, i32 0
  %67 = load %"class.std::__1::__tree_node_base"*, %"class.std::__1::__tree_node_base"** %66, align 8
  %68 = getelementptr inbounds %"class.std::__1::__tree_node_base", %"class.std::__1::__tree_node_base"* %67, i64 0, i32 1
  %69 = load %"class.std::__1::__tree_node_base"*, %"class.std::__1::__tree_node_base"** %68, align 8
  store %"class.std::__1::__tree_node_base"* %69, %"class.std::__1::__tree_node_base"** %66, align 8
  %70 = icmp eq %"class.std::__1::__tree_node_base"* %69, null
  br i1 %70, label %74, label %71

71:                                               ; preds = %61
  %72 = getelementptr inbounds %"class.std::__1::__tree_node_base", %"class.std::__1::__tree_node_base"* %62, i64 0, i32 0
  %73 = getelementptr inbounds %"class.std::__1::__tree_node_base", %"class.std::__1::__tree_node_base"* %69, i64 0, i32 2
  store %"class.std::__1::__tree_end_node"* %72, %"class.std::__1::__tree_end_node"** %73, align 8
  br label %74

74:                                               ; preds = %71, %61
  %75 = getelementptr inbounds %"class.std::__1::__tree_node_base", %"class.std::__1::__tree_node_base"* %62, i64 0, i32 2
  %76 = bitcast %"class.std::__1::__tree_end_node"** %75 to i64*
  %77 = load i64, i64* %76, align 8
  %78 = getelementptr inbounds %"class.std::__1::__tree_node_base", %"class.std::__1::__tree_node_base"* %67, i64 0, i32 2
  %79 = bitcast %"class.std::__1::__tree_end_node"** %78 to i64*
  store i64 %77, i64* %79, align 8
  %80 = load %"class.std::__1::__tree_end_node"*, %"class.std::__1::__tree_end_node"** %75, align 8
  %81 = getelementptr inbounds %"class.std::__1::__tree_end_node", %"class.std::__1::__tree_end_node"* %80, i64 0, i32 0
  %82 = load %"class.std::__1::__tree_node_base"*, %"class.std::__1::__tree_node_base"** %81, align 8
  %83 = icmp eq %"class.std::__1::__tree_node_base"* %82, %62
  %84 = getelementptr inbounds %"class.std::__1::__tree_end_node", %"class.std::__1::__tree_end_node"* %80, i64 1, i32 0
  %85 = select i1 %83, %"class.std::__1::__tree_node_base"** %81, %"class.std::__1::__tree_node_base"** %84
  store %"class.std::__1::__tree_node_base"* %67, %"class.std::__1::__tree_node_base"** %85, align 8
  store %"class.std::__1::__tree_node_base"* %62, %"class.std::__1::__tree_node_base"** %68, align 8
  %86 = getelementptr inbounds %"class.std::__1::__tree_node_base", %"class.std::__1::__tree_node_base"* %67, i64 0, i32 0
  store %"class.std::__1::__tree_end_node"* %86, %"class.std::__1::__tree_end_node"** %75, align 8
  br label %156

87:                                               ; preds = %14
  %88 = icmp eq %"class.std::__1::__tree_node_base"* %18, null
  br i1 %88, label %93, label %89

89:                                               ; preds = %87
  %90 = getelementptr inbounds %"class.std::__1::__tree_node_base", %"class.std::__1::__tree_node_base"* %18, i64 0, i32 3
  %91 = load i8, i8* %90, align 8, !range !18
  %92 = icmp eq i8 %91, 0
  br i1 %92, label %149, label %93

93:                                               ; preds = %89, %87
  %94 = getelementptr inbounds %"class.std::__1::__tree_node_base", %"class.std::__1::__tree_node_base"* %10, i64 0, i32 2
  %95 = bitcast %"class.std::__1::__tree_end_node"* %16 to %"class.std::__1::__tree_node_base"*
  %96 = getelementptr inbounds %"class.std::__1::__tree_node_base", %"class.std::__1::__tree_node_base"* %10, i64 0, i32 0, i32 0
  %97 = load %"class.std::__1::__tree_node_base"*, %"class.std::__1::__tree_node_base"** %96, align 8
  %98 = icmp eq %"class.std::__1::__tree_node_base"* %97, %7
  br i1 %98, label %99, label %123

99:                                               ; preds = %93
  %100 = ptrtoint %"class.std::__1::__tree_end_node"* %16 to i64
  %101 = getelementptr inbounds %"class.std::__1::__tree_node_base", %"class.std::__1::__tree_node_base"* %10, i64 0, i32 0, i32 0
  %102 = getelementptr inbounds %"class.std::__1::__tree_node_base", %"class.std::__1::__tree_node_base"* %7, i64 0, i32 1
  %103 = load %"class.std::__1::__tree_node_base"*, %"class.std::__1::__tree_node_base"** %102, align 8
  store %"class.std::__1::__tree_node_base"* %103, %"class.std::__1::__tree_node_base"** %101, align 8
  %104 = icmp eq %"class.std::__1::__tree_node_base"* %103, null
  br i1 %104, label %110, label %105

105:                                              ; preds = %99
  %106 = getelementptr inbounds %"class.std::__1::__tree_node_base", %"class.std::__1::__tree_node_base"* %10, i64 0, i32 0
  %107 = getelementptr inbounds %"class.std::__1::__tree_node_base", %"class.std::__1::__tree_node_base"* %103, i64 0, i32 2
  store %"class.std::__1::__tree_end_node"* %106, %"class.std::__1::__tree_end_node"** %107, align 8
  %108 = bitcast %"class.std::__1::__tree_end_node"** %94 to i64*
  %109 = load i64, i64* %108, align 8
  br label %110

110:                                              ; preds = %99, %105
  %111 = phi i64 [ %109, %105 ], [ %100, %99 ]
  %112 = bitcast %"class.std::__1::__tree_end_node"** %8 to i64*
  store i64 %111, i64* %112, align 8
  %113 = load %"class.std::__1::__tree_end_node"*, %"class.std::__1::__tree_end_node"** %94, align 8
  %114 = getelementptr inbounds %"class.std::__1::__tree_end_node", %"class.std::__1::__tree_end_node"* %113, i64 0, i32 0
  %115 = load %"class.std::__1::__tree_node_base"*, %"class.std::__1::__tree_node_base"** %114, align 8
  %116 = icmp eq %"class.std::__1::__tree_node_base"* %115, %10
  %117 = getelementptr inbounds %"class.std::__1::__tree_end_node", %"class.std::__1::__tree_end_node"* %113, i64 1, i32 0
  %118 = select i1 %116, %"class.std::__1::__tree_node_base"** %114, %"class.std::__1::__tree_node_base"** %117
  store %"class.std::__1::__tree_node_base"* %7, %"class.std::__1::__tree_node_base"** %118, align 8
  store %"class.std::__1::__tree_node_base"* %10, %"class.std::__1::__tree_node_base"** %102, align 8
  %119 = getelementptr inbounds %"class.std::__1::__tree_node_base", %"class.std::__1::__tree_node_base"* %7, i64 0, i32 0
  store %"class.std::__1::__tree_end_node"* %119, %"class.std::__1::__tree_end_node"** %94, align 8
  %120 = getelementptr inbounds %"class.std::__1::__tree_node_base", %"class.std::__1::__tree_node_base"* %7, i64 0, i32 2
  %121 = bitcast %"class.std::__1::__tree_end_node"** %120 to %"class.std::__1::__tree_node_base"**
  %122 = load %"class.std::__1::__tree_node_base"*, %"class.std::__1::__tree_node_base"** %121, align 8
  br label %123

123:                                              ; preds = %93, %110
  %124 = phi %"class.std::__1::__tree_node_base"* [ %122, %110 ], [ %95, %93 ]
  %125 = phi %"class.std::__1::__tree_node_base"* [ %7, %110 ], [ %10, %93 ]
  %126 = getelementptr inbounds %"class.std::__1::__tree_node_base", %"class.std::__1::__tree_node_base"* %125, i64 0, i32 3
  store i8 1, i8* %126, align 8
  %127 = getelementptr inbounds %"class.std::__1::__tree_node_base", %"class.std::__1::__tree_node_base"* %124, i64 0, i32 3
  store i8 0, i8* %127, align 8
  %128 = getelementptr inbounds %"class.std::__1::__tree_node_base", %"class.std::__1::__tree_node_base"* %124, i64 0, i32 1
  %129 = load %"class.std::__1::__tree_node_base"*, %"class.std::__1::__tree_node_base"** %128, align 8
  %130 = getelementptr inbounds %"class.std::__1::__tree_node_base", %"class.std::__1::__tree_node_base"* %129, i64 0, i32 0, i32 0
  %131 = load %"class.std::__1::__tree_node_base"*, %"class.std::__1::__tree_node_base"** %130, align 8
  store %"class.std::__1::__tree_node_base"* %131, %"class.std::__1::__tree_node_base"** %128, align 8
  %132 = icmp eq %"class.std::__1::__tree_node_base"* %131, null
  br i1 %132, label %136, label %133

133:                                              ; preds = %123
  %134 = getelementptr inbounds %"class.std::__1::__tree_node_base", %"class.std::__1::__tree_node_base"* %124, i64 0, i32 0
  %135 = getelementptr inbounds %"class.std::__1::__tree_node_base", %"class.std::__1::__tree_node_base"* %131, i64 0, i32 2
  store %"class.std::__1::__tree_end_node"* %134, %"class.std::__1::__tree_end_node"** %135, align 8
  br label %136

136:                                              ; preds = %133, %123
  %137 = getelementptr inbounds %"class.std::__1::__tree_node_base", %"class.std::__1::__tree_node_base"* %124, i64 0, i32 2
  %138 = bitcast %"class.std::__1::__tree_end_node"** %137 to i64*
  %139 = load i64, i64* %138, align 8
  %140 = getelementptr inbounds %"class.std::__1::__tree_node_base", %"class.std::__1::__tree_node_base"* %129, i64 0, i32 2
  %141 = bitcast %"class.std::__1::__tree_end_node"** %140 to i64*
  store i64 %139, i64* %141, align 8
  %142 = load %"class.std::__1::__tree_end_node"*, %"class.std::__1::__tree_end_node"** %137, align 8
  %143 = getelementptr inbounds %"class.std::__1::__tree_end_node", %"class.std::__1::__tree_end_node"* %142, i64 0, i32 0
  %144 = load %"class.std::__1::__tree_node_base"*, %"class.std::__1::__tree_node_base"** %143, align 8
  %145 = icmp eq %"class.std::__1::__tree_node_base"* %144, %124
  %146 = getelementptr inbounds %"class.std::__1::__tree_end_node", %"class.std::__1::__tree_end_node"* %142, i64 1, i32 0
  %147 = select i1 %145, %"class.std::__1::__tree_node_base"** %143, %"class.std::__1::__tree_node_base"** %146
  store %"class.std::__1::__tree_node_base"* %129, %"class.std::__1::__tree_node_base"** %147, align 8
  store %"class.std::__1::__tree_node_base"* %124, %"class.std::__1::__tree_node_base"** %130, align 8
  %148 = getelementptr inbounds %"class.std::__1::__tree_node_base", %"class.std::__1::__tree_node_base"* %129, i64 0, i32 0
  store %"class.std::__1::__tree_end_node"* %148, %"class.std::__1::__tree_end_node"** %137, align 8
  br label %156

149:                                              ; preds = %89, %25
  %150 = phi i8* [ %26, %25 ], [ %90, %89 ]
  store i8 1, i8* %11, align 8
  %151 = icmp eq %"class.std::__1::__tree_node_base"* %20, %0
  %152 = getelementptr inbounds %"class.std::__1::__tree_end_node", %"class.std::__1::__tree_end_node"* %16, i64 3
  %153 = bitcast %"class.std::__1::__tree_end_node"* %152 to i8*
  %154 = zext i1 %151 to i8
  store i8 %154, i8* %153, align 8
  store i8 1, i8* %150, align 8
  %155 = icmp eq %"class.std::__1::__tree_node_base"* %20, %0
  br i1 %155, label %156, label %6

156:                                              ; preds = %6, %149, %2, %136, %74
  ret void
}

; Function Attrs: nounwind ssp uwtable
define linkonce_odr hidden void @_ZN4base8internal7InvokerINS0_9BindStateIMN6policy35CloudPolicyClientRegistrationHelper21IdentityManagerHelperEFv22GoogleServiceAuthErrorN6signin15AccessTokenInfoEEJNS0_17UnretainedWrapperIS5_EEEEEFvS6_S8_EE7RunOnceEPNS0_13BindStateBaseEOS6_OS8_(%"class.base::internal::BindStateBase"*, %class.GoogleServiceAuthError* dereferenceable(40), %"struct.signin::AccessTokenInfo"* dereferenceable(56)) #0 comdat align 2 {
  %4 = alloca %"class.policy::CloudPolicyClientRegistrationHelper::IdentityManagerHelper"*, align 8
  %5 = getelementptr inbounds %"class.base::internal::BindStateBase", %"class.base::internal::BindStateBase"* %0, i64 1
  %6 = getelementptr inbounds %"class.base::internal::BindStateBase", %"class.base::internal::BindStateBase"* %0, i64 1, i32 2
  %7 = bitcast %"class.policy::CloudPolicyClientRegistrationHelper::IdentityManagerHelper"** %4 to i8*
  call void @llvm.lifetime.start.p0i8(i64 8, i8* nonnull %7) #10
  %8 = bitcast void (%"class.base::internal::BindStateBase"*)** %6 to i64*
  %9 = load i64, i64* %8, align 8
  %10 = bitcast %"class.policy::CloudPolicyClientRegistrationHelper::IdentityManagerHelper"** %4 to i64*
  store i64 %9, i64* %10, align 8
  %11 = bitcast %"class.base::internal::BindStateBase"* %5 to i64*
  %12 = load i64, i64* %11, align 8
  %13 = getelementptr inbounds %"class.base::internal::BindStateBase", %"class.base::internal::BindStateBase"* %0, i64 1, i32 1
  %14 = bitcast void ()** %13 to i64*
  %15 = load i64, i64* %14, align 8
  call void @_ZN4base8internal13FunctorTraitsIMN6policy35CloudPolicyClientRegistrationHelper21IdentityManagerHelperEFv22GoogleServiceAuthErrorN6signin15AccessTokenInfoEEvE6InvokeIS9_PS4_JS5_S7_EEEvT_OT0_DpOT1_(i64 %12, i64 %15, %"class.policy::CloudPolicyClientRegistrationHelper::IdentityManagerHelper"** nonnull dereferenceable(8) %4, %class.GoogleServiceAuthError* dereferenceable(40) %1, %"struct.signin::AccessTokenInfo"* dereferenceable(56) %2) #10
  call void @llvm.lifetime.end.p0i8(i64 8, i8* nonnull %7) #10
  ret void
}

; Function Attrs: nounwind ssp uwtable
define linkonce_odr hidden void @_ZN4base8internal13FunctorTraitsIMN6policy35CloudPolicyClientRegistrationHelper21IdentityManagerHelperEFv22GoogleServiceAuthErrorN6signin15AccessTokenInfoEEvE6InvokeIS9_PS4_JS5_S7_EEEvT_OT0_DpOT1_(i64, i64, %"class.policy::CloudPolicyClientRegistrationHelper::IdentityManagerHelper"** dereferenceable(8), %class.GoogleServiceAuthError* dereferenceable(40), %"struct.signin::AccessTokenInfo"* dereferenceable(56)) local_unnamed_addr #0 comdat align 2 {
  %6 = alloca %class.GoogleServiceAuthError, align 8
  %7 = alloca %"struct.signin::AccessTokenInfo", align 8
  %8 = bitcast %"class.policy::CloudPolicyClientRegistrationHelper::IdentityManagerHelper"** %2 to i8**
  %9 = load i8*, i8** %8, align 8
  %10 = getelementptr inbounds i8, i8* %9, i64 %1
  %11 = bitcast i8* %10 to %"class.policy::CloudPolicyClientRegistrationHelper::IdentityManagerHelper"*
  %12 = and i64 %0, 1
  %13 = icmp eq i64 %12, 0
  br i1 %13, label %21, label %14

14:                                               ; preds = %5
  %15 = bitcast i8* %10 to i8**
  %16 = load i8*, i8** %15, align 8
  %17 = add i64 %0, -1
  %18 = getelementptr i8, i8* %16, i64 %17
  %19 = bitcast i8* %18 to void (%"class.policy::CloudPolicyClientRegistrationHelper::IdentityManagerHelper"*, %class.GoogleServiceAuthError*, %"struct.signin::AccessTokenInfo"*)**
  %20 = load void (%"class.policy::CloudPolicyClientRegistrationHelper::IdentityManagerHelper"*, %class.GoogleServiceAuthError*, %"struct.signin::AccessTokenInfo"*)*, void (%"class.policy::CloudPolicyClientRegistrationHelper::IdentityManagerHelper"*, %class.GoogleServiceAuthError*, %"struct.signin::AccessTokenInfo"*)** %19, align 8
  br label %23

21:                                               ; preds = %5
  %22 = inttoptr i64 %0 to void (%"class.policy::CloudPolicyClientRegistrationHelper::IdentityManagerHelper"*, %class.GoogleServiceAuthError*, %"struct.signin::AccessTokenInfo"*)*
  br label %23

23:                                               ; preds = %21, %14
  %24 = phi void (%"class.policy::CloudPolicyClientRegistrationHelper::IdentityManagerHelper"*, %class.GoogleServiceAuthError*, %"struct.signin::AccessTokenInfo"*)* [ %20, %14 ], [ %22, %21 ]
  call void @_ZN22GoogleServiceAuthErrorC1ERKS_(%class.GoogleServiceAuthError* nonnull %6, %class.GoogleServiceAuthError* dereferenceable(40) %3) #10
  %25 = bitcast %"struct.signin::AccessTokenInfo"* %7 to i8*
  %26 = bitcast %"struct.signin::AccessTokenInfo"* %4 to i8*
  call void @llvm.memcpy.p0i8.p0i8.i64(i8* nonnull align 8 %25, i8* align 8 %26, i64 24, i1 false) #10
  call void @llvm.memset.p0i8.i64(i8* align 8 %26, i8 0, i64 24, i1 false) #10
  %27 = getelementptr inbounds %"struct.signin::AccessTokenInfo", %"struct.signin::AccessTokenInfo"* %4, i64 0, i32 1, i32 0, i32 0
  %28 = getelementptr inbounds %"struct.signin::AccessTokenInfo", %"struct.signin::AccessTokenInfo"* %7, i64 0, i32 1, i32 0, i32 0
  %29 = load i64, i64* %27, align 8
  store i64 %29, i64* %28, align 8
  %30 = getelementptr inbounds %"struct.signin::AccessTokenInfo", %"struct.signin::AccessTokenInfo"* %7, i64 0, i32 2
  %31 = getelementptr inbounds %"struct.signin::AccessTokenInfo", %"struct.signin::AccessTokenInfo"* %4, i64 0, i32 2
  %32 = bitcast %"class.std::__1::basic_string"* %30 to i8*
  %33 = bitcast %"class.std::__1::basic_string"* %31 to i8*
  call void @llvm.memcpy.p0i8.p0i8.i64(i8* align 8 %32, i8* align 8 %33, i64 24, i1 false) #10
  call void @llvm.memset.p0i8.i64(i8* align 8 %33, i8 0, i64 24, i1 false) #10
  call void %24(%"class.policy::CloudPolicyClientRegistrationHelper::IdentityManagerHelper"* %11, %class.GoogleServiceAuthError* nonnull %6, %"struct.signin::AccessTokenInfo"* nonnull %7) #10
  %34 = bitcast %"class.std::__1::basic_string"* %30 to %"struct.std::__1::basic_string<char, std::__1::char_traits<char>, std::__1::allocator<char> >::__short"*
  %35 = getelementptr inbounds %"struct.std::__1::basic_string<char, std::__1::char_traits<char>, std::__1::allocator<char> >::__short", %"struct.std::__1::basic_string<char, std::__1::char_traits<char>, std::__1::allocator<char> >::__short"* %34, i64 0, i32 1, i32 0
  %36 = load i8, i8* %35, align 1
  %37 = icmp slt i8 %36, 0
  br i1 %37, label %38, label %41

38:                                               ; preds = %23
  %39 = getelementptr inbounds %"class.std::__1::basic_string", %"class.std::__1::basic_string"* %30, i64 0, i32 0, i32 0, i32 0, i32 0, i32 0, i32 0
  %40 = load i8*, i8** %39, align 8
  call void @_ZdlPv(i8* %40) #12
  br label %41

41:                                               ; preds = %38, %23
  %42 = bitcast %"struct.signin::AccessTokenInfo"* %7 to %"struct.std::__1::basic_string<char, std::__1::char_traits<char>, std::__1::allocator<char> >::__short"*
  %43 = getelementptr inbounds %"struct.std::__1::basic_string<char, std::__1::char_traits<char>, std::__1::allocator<char> >::__short", %"struct.std::__1::basic_string<char, std::__1::char_traits<char>, std::__1::allocator<char> >::__short"* %42, i64 0, i32 1, i32 0
  %44 = load i8, i8* %43, align 1
  %45 = icmp slt i8 %44, 0
  br i1 %45, label %46, label %49

46:                                               ; preds = %41
  %47 = getelementptr inbounds %"struct.signin::AccessTokenInfo", %"struct.signin::AccessTokenInfo"* %7, i64 0, i32 0, i32 0, i32 0, i32 0, i32 0, i32 0, i32 0
  %48 = load i8*, i8** %47, align 8
  call void @_ZdlPv(i8* %48) #12
  br label %49

49:                                               ; preds = %41, %46
  %50 = getelementptr inbounds %class.GoogleServiceAuthError, %class.GoogleServiceAuthError* %6, i64 0, i32 2
  %51 = bitcast %"class.std::__1::basic_string"* %50 to %"struct.std::__1::basic_string<char, std::__1::char_traits<char>, std::__1::allocator<char> >::__short"*
  %52 = getelementptr inbounds %"struct.std::__1::basic_string<char, std::__1::char_traits<char>, std::__1::allocator<char> >::__short", %"struct.std::__1::basic_string<char, std::__1::char_traits<char>, std::__1::allocator<char> >::__short"* %51, i64 0, i32 1, i32 0
  %53 = load i8, i8* %52, align 1
  %54 = icmp slt i8 %53, 0
  br i1 %54, label %55, label %58

55:                                               ; preds = %49
  %56 = getelementptr inbounds %"class.std::__1::basic_string", %"class.std::__1::basic_string"* %50, i64 0, i32 0, i32 0, i32 0, i32 0, i32 0, i32 0
  %57 = load i8*, i8** %56, align 8
  call void @_ZdlPv(i8* %57) #12
  br label %58

58:                                               ; preds = %49, %55
  ret void
}

declare void @_ZN22GoogleServiceAuthErrorC1ERKS_(%class.GoogleServiceAuthError*, %class.GoogleServiceAuthError* dereferenceable(40)) unnamed_addr #2

; Function Attrs: nounwind ssp uwtable
define linkonce_odr hidden void @_ZN4base8internal9BindStateIMN6policy35CloudPolicyClientRegistrationHelper21IdentityManagerHelperEFv22GoogleServiceAuthErrorN6signin15AccessTokenInfoEEJNS0_17UnretainedWrapperIS4_EEEE7DestroyEPKNS0_13BindStateBaseE(%"class.base::internal::BindStateBase"*) #0 comdat align 2 {
  %2 = icmp eq %"class.base::internal::BindStateBase"* %0, null
  br i1 %2, label %5, label %3

3:                                                ; preds = %1
  %4 = bitcast %"class.base::internal::BindStateBase"* %0 to i8*
  tail call void @_ZdlPv(i8* %4) #12
  br label %5

5:                                                ; preds = %3, %1
  ret void
}

declare void @_ZN4base8internal13BindStateBaseC2EPFvvEPFvPKS1_E(%"class.base::internal::BindStateBase"*, void ()*, void (%"class.base::internal::BindStateBase"*)*) unnamed_addr #2

declare void @_ZNK4base6subtle14RefCountedBase11ReleaseImplEv(%"class.base::subtle::RefCountedBase"*) local_unnamed_addr #2

; Function Attrs: argmemonly nounwind
declare void @llvm.memset.p0i8.i64(i8* nocapture writeonly, i8, i64, i1 immarg) #1

; Function Attrs: nounwind ssp uwtable
define linkonce_odr hidden void @_ZN4base8internal7InvokerINS0_9BindStateIMN6policy35CloudPolicyClientRegistrationHelperEFvRKNSt3__112basic_stringIcNS5_11char_traitsIcEENS5_9allocatorIcEEEEEJNS0_17UnretainedWrapperIS4_EEEEEFvSD_EE7RunOnceEPNS0_13BindStateBaseESD_(%"class.base::internal::BindStateBase"*, %"class.std::__1::basic_string"* dereferenceable(24)) #0 comdat align 2 {
  %3 = getelementptr inbounds %"class.base::internal::BindStateBase", %"class.base::internal::BindStateBase"* %0, i64 1
  %4 = getelementptr inbounds %"class.base::internal::BindStateBase", %"class.base::internal::BindStateBase"* %0, i64 1, i32 2
  %5 = bitcast void (%"class.base::internal::BindStateBase"*)** %4 to i8**
  %6 = load i8*, i8** %5, align 8
  %7 = bitcast %"class.base::internal::BindStateBase"* %3 to i64*
  %8 = load i64, i64* %7, align 8
  %9 = getelementptr inbounds %"class.base::internal::BindStateBase", %"class.base::internal::BindStateBase"* %0, i64 1, i32 1
  %10 = bitcast void ()** %9 to i64*
  %11 = load i64, i64* %10, align 8
  %12 = getelementptr inbounds i8, i8* %6, i64 %11
  %13 = bitcast i8* %12 to %"class.policy::CloudPolicyClientRegistrationHelper"*
  %14 = and i64 %8, 1
  %15 = icmp eq i64 %14, 0
  br i1 %15, label %23, label %16

16:                                               ; preds = %2
  %17 = bitcast i8* %12 to i8**
  %18 = load i8*, i8** %17, align 8
  %19 = add i64 %8, -1
  %20 = getelementptr i8, i8* %18, i64 %19
  %21 = bitcast i8* %20 to void (%"class.policy::CloudPolicyClientRegistrationHelper"*, %"class.std::__1::basic_string"*)**
  %22 = load void (%"class.policy::CloudPolicyClientRegistrationHelper"*, %"class.std::__1::basic_string"*)*, void (%"class.policy::CloudPolicyClientRegistrationHelper"*, %"class.std::__1::basic_string"*)** %21, align 8
  br label %25

23:                                               ; preds = %2
  %24 = inttoptr i64 %8 to void (%"class.policy::CloudPolicyClientRegistrationHelper"*, %"class.std::__1::basic_string"*)*
  br label %25

25:                                               ; preds = %16, %23
  %26 = phi void (%"class.policy::CloudPolicyClientRegistrationHelper"*, %"class.std::__1::basic_string"*)* [ %22, %16 ], [ %24, %23 ]
  tail call void %26(%"class.policy::CloudPolicyClientRegistrationHelper"* %13, %"class.std::__1::basic_string"* dereferenceable(24) %1) #10
  ret void
}

; Function Attrs: nounwind ssp uwtable
define linkonce_odr hidden void @_ZN4base8internal9BindStateIMN6policy35CloudPolicyClientRegistrationHelperEFvRKNSt3__112basic_stringIcNS4_11char_traitsIcEENS4_9allocatorIcEEEEEJNS0_17UnretainedWrapperIS3_EEEE7DestroyEPKNS0_13BindStateBaseE(%"class.base::internal::BindStateBase"*) #0 comdat align 2 {
  %2 = icmp eq %"class.base::internal::BindStateBase"* %0, null
  br i1 %2, label %5, label %3

3:                                                ; preds = %1
  %4 = bitcast %"class.base::internal::BindStateBase"* %0 to i8*
  tail call void @_ZdlPv(i8* %4) #12
  br label %5

5:                                                ; preds = %3, %1
  ret void
}

declare void @_ZN6policy15UserInfoFetcherC1EPNS0_8DelegateE13scoped_refptrIN7network22SharedURLLoaderFactoryEE(%"class.policy::UserInfoFetcher"*, %"class.policy::UserInfoFetcher::Delegate"*, %"class.network::SharedURLLoaderFactory"*) unnamed_addr #2

; Function Attrs: nounwind
declare void @_ZN6policy15UserInfoFetcherD1Ev(%"class.policy::UserInfoFetcher"*) unnamed_addr #3

attributes #0 = { nounwind ssp uwtable "correctly-rounded-divide-sqrt-fp-math"="false" "disable-tail-calls"="false" "less-precise-fpmad"="false" "min-legal-vector-width"="0" "no-frame-pointer-elim"="false" "no-frame-pointer-elim-non-leaf" "no-infs-fp-math"="false" "no-jump-tables"="false" "no-nans-fp-math"="false" "no-signed-zeros-fp-math"="false" "no-trapping-math"="false" "null-pointer-is-valid"="true" "stack-protector-buffer-size"="4" "target-cpu"="x86-64" "target-features"="+cx8,+fxsr,+mmx,+sse,+sse2,+sse3,+x87" "unsafe-fp-math"="false" "use-soft-float"="false" }
attributes #1 = { argmemonly nounwind }
attributes #2 = { "correctly-rounded-divide-sqrt-fp-math"="false" "disable-tail-calls"="false" "less-precise-fpmad"="false" "no-frame-pointer-elim"="false" "no-frame-pointer-elim-non-leaf" "no-infs-fp-math"="false" "no-nans-fp-math"="false" "no-signed-zeros-fp-math"="false" "no-trapping-math"="false" "null-pointer-is-valid"="true" "stack-protector-buffer-size"="4" "target-cpu"="x86-64" "target-features"="+cx8,+fxsr,+mmx,+sse,+sse2,+sse3,+x87" "unsafe-fp-math"="false" "use-soft-float"="false" }
attributes #3 = { nounwind "correctly-rounded-divide-sqrt-fp-math"="false" "disable-tail-calls"="false" "less-precise-fpmad"="false" "no-frame-pointer-elim"="false" "no-frame-pointer-elim-non-leaf" "no-infs-fp-math"="false" "no-nans-fp-math"="false" "no-signed-zeros-fp-math"="false" "no-trapping-math"="false" "null-pointer-is-valid"="true" "stack-protector-buffer-size"="4" "target-cpu"="x86-64" "target-features"="+cx8,+fxsr,+mmx,+sse,+sse2,+sse3,+x87" "unsafe-fp-math"="false" "use-soft-float"="false" }
attributes #4 = { nobuiltin nounwind "correctly-rounded-divide-sqrt-fp-math"="false" "disable-tail-calls"="false" "less-precise-fpmad"="false" "no-frame-pointer-elim"="false" "no-frame-pointer-elim-non-leaf" "no-infs-fp-math"="false" "no-nans-fp-math"="false" "no-signed-zeros-fp-math"="false" "no-trapping-math"="false" "null-pointer-is-valid"="true" "stack-protector-buffer-size"="4" "target-cpu"="x86-64" "target-features"="+cx8,+fxsr,+mmx,+sse,+sse2,+sse3,+x87" "unsafe-fp-math"="false" "use-soft-float"="false" }
attributes #5 = { norecurse nounwind readnone ssp uwtable "correctly-rounded-divide-sqrt-fp-math"="false" "disable-tail-calls"="false" "less-precise-fpmad"="false" "min-legal-vector-width"="0" "no-frame-pointer-elim"="false" "no-frame-pointer-elim-non-leaf" "no-infs-fp-math"="false" "no-jump-tables"="false" "no-nans-fp-math"="false" "no-signed-zeros-fp-math"="false" "no-trapping-math"="false" "null-pointer-is-valid"="true" "stack-protector-buffer-size"="4" "target-cpu"="x86-64" "target-features"="+cx8,+fxsr,+mmx,+sse,+sse2,+sse3,+x87" "unsafe-fp-math"="false" "use-soft-float"="false" }
attributes #6 = { argmemonly nofree nounwind readonly "correctly-rounded-divide-sqrt-fp-math"="false" "disable-tail-calls"="false" "less-precise-fpmad"="false" "no-frame-pointer-elim"="false" "no-frame-pointer-elim-non-leaf" "no-infs-fp-math"="false" "no-nans-fp-math"="false" "no-signed-zeros-fp-math"="false" "no-trapping-math"="false" "null-pointer-is-valid"="true" "stack-protector-buffer-size"="4" "target-cpu"="x86-64" "target-features"="+cx8,+fxsr,+mmx,+sse,+sse2,+sse3,+x87" "unsafe-fp-math"="false" "use-soft-float"="false" }
attributes #7 = { noreturn "correctly-rounded-divide-sqrt-fp-math"="false" "disable-tail-calls"="false" "less-precise-fpmad"="false" "no-frame-pointer-elim"="false" "no-frame-pointer-elim-non-leaf" "no-infs-fp-math"="false" "no-nans-fp-math"="false" "no-signed-zeros-fp-math"="false" "no-trapping-math"="false" "null-pointer-is-valid"="true" "stack-protector-buffer-size"="4" "target-cpu"="x86-64" "target-features"="+cx8,+fxsr,+mmx,+sse,+sse2,+sse3,+x87" "unsafe-fp-math"="false" "use-soft-float"="false" }
attributes #8 = { nobuiltin nofree "correctly-rounded-divide-sqrt-fp-math"="false" "disable-tail-calls"="false" "less-precise-fpmad"="false" "no-frame-pointer-elim"="false" "no-frame-pointer-elim-non-leaf" "no-infs-fp-math"="false" "no-nans-fp-math"="false" "no-signed-zeros-fp-math"="false" "no-trapping-math"="false" "null-pointer-is-valid"="true" "stack-protector-buffer-size"="4" "target-cpu"="x86-64" "target-features"="+cx8,+fxsr,+mmx,+sse,+sse2,+sse3,+x87" "unsafe-fp-math"="false" "use-soft-float"="false" }
attributes #9 = { nofree nounwind readonly "correctly-rounded-divide-sqrt-fp-math"="false" "disable-tail-calls"="false" "less-precise-fpmad"="false" "no-frame-pointer-elim"="false" "no-frame-pointer-elim-non-leaf" "no-infs-fp-math"="false" "no-nans-fp-math"="false" "no-signed-zeros-fp-math"="false" "no-trapping-math"="false" "null-pointer-is-valid"="true" "stack-protector-buffer-size"="4" "target-cpu"="x86-64" "target-features"="+cx8,+fxsr,+mmx,+sse,+sse2,+sse3,+x87" "unsafe-fp-math"="false" "use-soft-float"="false" }
attributes #10 = { nounwind }
attributes #11 = { noreturn nounwind }
attributes #12 = { builtin nounwind }

!llvm.module.flags = !{!0, !1}

!0 = !{i32 1, !"wchar_size", i32 4}
!1 = !{i32 7, !"PIC Level", i32 2}
!2 = !{!3}
!3 = distinct !{!3, !4, !"_ZNSt3__16__treeINS_12basic_stringIcNS_11char_traitsIcEENS_9allocatorIcEEEENS_4lessIS6_EENS4_IS6_EEE16__construct_nodeIJS6_EEENS_10unique_ptrINS_11__tree_nodeIS6_PvEENS_22__tree_node_destructorINS4_ISF_EEEEEEDpOT_: argument 0"}
!4 = distinct !{!4, !"_ZNSt3__16__treeINS_12basic_stringIcNS_11char_traitsIcEENS_9allocatorIcEEEENS_4lessIS6_EENS4_IS6_EEE16__construct_nodeIJS6_EEENS_10unique_ptrINS_11__tree_nodeIS6_PvEENS_22__tree_node_destructorINS4_ISF_EEEEEEDpOT_"}
!5 = !{!6}
!6 = distinct !{!6, !7, !"_ZNSt3__16__treeINS_12basic_stringIcNS_11char_traitsIcEENS_9allocatorIcEEEENS_4lessIS6_EENS4_IS6_EEE16__construct_nodeIJS6_EEENS_10unique_ptrINS_11__tree_nodeIS6_PvEENS_22__tree_node_destructorINS4_ISF_EEEEEEDpOT_: argument 0"}
!7 = distinct !{!7, !"_ZNSt3__16__treeINS_12basic_stringIcNS_11char_traitsIcEENS_9allocatorIcEEEENS_4lessIS6_EENS4_IS6_EEE16__construct_nodeIJS6_EEENS_10unique_ptrINS_11__tree_nodeIS6_PvEENS_22__tree_node_destructorINS4_ISF_EEEEEEDpOT_"}
!8 = !{!9, !11}
!9 = distinct !{!9, !10, !"_ZN4base8internal8BindImplINS_12OnceCallbackEMN6policy35CloudPolicyClientRegistrationHelper21IdentityManagerHelperEFv22GoogleServiceAuthErrorN6signin15AccessTokenInfoEEJNS0_17UnretainedWrapperIS5_EEEEEDcOT0_DpOT1_: argument 0"}
!10 = distinct !{!10, !"_ZN4base8internal8BindImplINS_12OnceCallbackEMN6policy35CloudPolicyClientRegistrationHelper21IdentityManagerHelperEFv22GoogleServiceAuthErrorN6signin15AccessTokenInfoEEJNS0_17UnretainedWrapperIS5_EEEEEDcOT0_DpOT1_"}
!11 = distinct !{!11, !12, !"_ZN4base8BindOnceIMN6policy35CloudPolicyClientRegistrationHelper21IdentityManagerHelperEFv22GoogleServiceAuthErrorN6signin15AccessTokenInfoEEJNS_8internal17UnretainedWrapperIS3_EEEEENS_12OnceCallbackINS9_14BindTypeHelperIT_JDpT0_EE14UnboundRunTypeEEEOSE_DpOSF_: argument 0"}
!12 = distinct !{!12, !"_ZN4base8BindOnceIMN6policy35CloudPolicyClientRegistrationHelper21IdentityManagerHelperEFv22GoogleServiceAuthErrorN6signin15AccessTokenInfoEEJNS_8internal17UnretainedWrapperIS3_EEEEENS_12OnceCallbackINS9_14BindTypeHelperIT_JDpT0_EE14UnboundRunTypeEEEOSE_DpOSF_"}
!13 = !{!14, !16}
!14 = distinct !{!14, !15, !"_ZN4base8internal8BindImplINS_12OnceCallbackEMN6policy35CloudPolicyClientRegistrationHelperEFvRKNSt3__112basic_stringIcNS5_11char_traitsIcEENS5_9allocatorIcEEEEEJNS0_17UnretainedWrapperIS4_EEEEEDcOT0_DpOT1_: argument 0"}
!15 = distinct !{!15, !"_ZN4base8internal8BindImplINS_12OnceCallbackEMN6policy35CloudPolicyClientRegistrationHelperEFvRKNSt3__112basic_stringIcNS5_11char_traitsIcEENS5_9allocatorIcEEEEEJNS0_17UnretainedWrapperIS4_EEEEEDcOT0_DpOT1_"}
!16 = distinct !{!16, !17, !"_ZN4base8BindOnceIMN6policy35CloudPolicyClientRegistrationHelperEFvRKNSt3__112basic_stringIcNS3_11char_traitsIcEENS3_9allocatorIcEEEEEJNS_8internal17UnretainedWrapperIS2_EEEEENS_12OnceCallbackINSE_14BindTypeHelperIT_JDpT0_EE14UnboundRunTypeEEEOSJ_DpOSK_: argument 0"}
!17 = distinct !{!17, !"_ZN4base8BindOnceIMN6policy35CloudPolicyClientRegistrationHelperEFvRKNSt3__112basic_stringIcNS3_11char_traitsIcEENS3_9allocatorIcEEEEEJNS_8internal17UnretainedWrapperIS2_EEEEENS_12OnceCallbackINSE_14BindTypeHelperIT_JDpT0_EE14UnboundRunTypeEEEOSJ_DpOSK_"}
!18 = !{i8 0, i8 2}
