; ModuleID = '../../chrome/browser/ui/views/color_chooser_aura.cc'
source_filename = "../../chrome/browser/ui/views/color_chooser_aura.cc"
target datalayout = "e-m:e-i64:64-f80:128-n8:16:32:64-S128"
target triple = "x86_64-unknown-linux-gnu"

module asm ".symver exp, exp@GLIBC_2.2.5"
module asm ".symver exp2, exp2@GLIBC_2.2.5"
module asm ".symver exp2f, exp2f@GLIBC_2.2.5"
module asm ".symver expf, expf@GLIBC_2.2.5"
module asm ".symver lgamma, lgamma@GLIBC_2.2.5"
module asm ".symver lgammaf, lgammaf@GLIBC_2.2.5"
module asm ".symver lgammal, lgammal@GLIBC_2.2.5"
module asm ".symver log, log@GLIBC_2.2.5"
module asm ".symver log2, log2@GLIBC_2.2.5"
module asm ".symver log2f, log2f@GLIBC_2.2.5"
module asm ".symver logf, logf@GLIBC_2.2.5"
module asm ".symver pow, pow@GLIBC_2.2.5"
module asm ".symver powf, powf@GLIBC_2.2.5"

%class.ColorChooserAura = type { %"class.content::ColorChooser", %"class.views::ColorChooserListener", %"class.std::__1::unique_ptr", %"class.views::UniqueWidgetPtr", %"class.content::WebContents"* }
%"class.content::ColorChooser" = type { i32 (...)** }
%"class.views::ColorChooserListener" = type { i32 (...)** }
%"class.std::__1::unique_ptr" = type { %"class.std::__1::__compressed_pair" }
%"class.std::__1::__compressed_pair" = type { %"struct.std::__1::__compressed_pair_elem" }
%"struct.std::__1::__compressed_pair_elem" = type { %"class.views::ColorChooser"* }
%"class.views::ColorChooser" = type <{ %"class.views::TextfieldController", %"class.base::SupportsWeakPtr", [3 x float], [4 x i8], %"class.views::ColorChooserListener"*, %"class.views::ViewTracker", %"class.views::HueView"*, %"class.views::SaturationValueView"*, %"class.views::SelectedColorPatchView"*, %"class.views::Textfield"*, i32, [4 x i8] }>
%"class.views::TextfieldController" = type { i32 (...)** }
%"class.base::SupportsWeakPtr" = type { %"class.base::internal::WeakReferenceOwner" }
%"class.base::internal::WeakReferenceOwner" = type { %class.scoped_refptr }
%class.scoped_refptr = type { %"class.base::internal::WeakReference::Flag"* }
%"class.base::internal::WeakReference::Flag" = type <{ %"class.base::RefCountedThreadSafe", %"class.base::AtomicFlag", [3 x i8] }>
%"class.base::RefCountedThreadSafe" = type { %"class.base::subtle::RefCountedThreadSafeBase" }
%"class.base::subtle::RefCountedThreadSafeBase" = type { %"class.base::AtomicRefCount" }
%"class.base::AtomicRefCount" = type { %"struct.std::__1::atomic" }
%"struct.std::__1::atomic" = type { %"struct.std::__1::__atomic_base" }
%"struct.std::__1::__atomic_base" = type { %"struct.std::__1::__atomic_base.0" }
%"struct.std::__1::__atomic_base.0" = type { %"struct.std::__1::__cxx_atomic_impl" }
%"struct.std::__1::__cxx_atomic_impl" = type { %"struct.std::__1::__cxx_atomic_base_impl" }
%"struct.std::__1::__cxx_atomic_base_impl" = type { i32 }
%"class.base::AtomicFlag" = type { %"struct.std::__1::atomic.1" }
%"struct.std::__1::atomic.1" = type { %"struct.std::__1::__atomic_base.2" }
%"struct.std::__1::__atomic_base.2" = type { %"struct.std::__1::__atomic_base.3" }
%"struct.std::__1::__atomic_base.3" = type { %"struct.std::__1::__cxx_atomic_impl.4" }
%"struct.std::__1::__cxx_atomic_impl.4" = type { %"struct.std::__1::__cxx_atomic_base_impl.5" }
%"struct.std::__1::__cxx_atomic_base_impl.5" = type { i8 }
%"class.views::ViewTracker" = type { %"class.views::ViewObserver", %"class.views::View"*, %"class.base::ScopedObservation.280" }
%"class.views::ViewObserver" = type { i32 (...)** }
%"class.views::View" = type <{ %"class.ui::LayerDelegate", %"class.ui::LayerObserver", %"class.ui::LayerOwner", %"class.ui::AcceleratorTarget", %"class.ui::EventTarget", %"class.ui::EventHandler", %"class.ui::PropertyHandler", %"class.ui::metadata::MetaDataProvider", i8, [3 x i8], i32, i32, [4 x i8], %"class.views::View"*, %"class.std::__1::vector.58", i8, [3 x i8], %"class.absl::optional", %"class.gfx::Rect", i8, i8, i8, i8, [4 x i8], %"class.std::__1::unique_ptr.65", %class.SkPath, i8, [7 x i8], %"class.std::__1::unique_ptr.78", %"class.absl::optional.84", i8, [7 x i8], %"class.std::__1::unique_ptr.89", %"class.std::__1::unique_ptr.95", %"class.ui::PaintCache", i8, [7 x i8], %"class.ui::NativeTheme"*, i8, %"class.absl::optional.121", i8, i8, [3 x i8], %"class.std::__1::vector.126", %"class.std::__1::unique_ptr.133", %"class.views::FocusManager"*, %"class.std::__1::unique_ptr.251", i64, %"class.views::View"*, %"class.views::View"*, i32, [4 x i8], %"class.views::ContextMenuController"*, %"class.views::DragController"*, %"class.std::__1::unique_ptr.264", %"class.std::__1::unique_ptr.270", %"class.base::ObserverList.276", i32, [4 x i8] }>
%"class.ui::LayerDelegate" = type { i32 (...)** }
%"class.ui::LayerObserver" = type { i32 (...)** }
%"class.ui::LayerOwner" = type { i32 (...)**, %"class.std::__1::unique_ptr.6", %"class.ui::Layer"*, %"class.base::ObserverList" }
%"class.std::__1::unique_ptr.6" = type { %"class.std::__1::__compressed_pair.7" }
%"class.std::__1::__compressed_pair.7" = type { %"struct.std::__1::__compressed_pair_elem.8" }
%"struct.std::__1::__compressed_pair_elem.8" = type { %"class.ui::Layer"* }
%"class.ui::Layer" = type opaque
%"class.base::ObserverList" = type <{ %"class.std::__1::vector", %"class.base::LinkedList", i64, i32, [4 x i8] }>
%"class.std::__1::vector" = type { %"class.std::__1::__vector_base" }
%"class.std::__1::__vector_base" = type { %"class.base::internal::UncheckedObserverAdapter"*, %"class.base::internal::UncheckedObserverAdapter"*, %"class.std::__1::__compressed_pair.10" }
%"class.base::internal::UncheckedObserverAdapter" = type { i8* }
%"class.std::__1::__compressed_pair.10" = type { %"struct.std::__1::__compressed_pair_elem.11" }
%"struct.std::__1::__compressed_pair_elem.11" = type { %"class.base::internal::UncheckedObserverAdapter"* }
%"class.base::LinkedList" = type { %"class.base::LinkNode" }
%"class.base::LinkNode" = type { %"class.base::internal::LinkNodeBase" }
%"class.base::internal::LinkNodeBase" = type { %"class.base::internal::LinkNodeBase"*, %"class.base::internal::LinkNodeBase"* }
%"class.ui::AcceleratorTarget" = type { i32 (...)** }
%"class.ui::EventTarget" = type { i32 (...)**, %"class.std::__1::vector.13", %"class.std::__1::vector.29", %"class.ui::EventHandler"* }
%"class.std::__1::vector.13" = type { %"class.std::__1::__vector_base.14" }
%"class.std::__1::__vector_base.14" = type { %"struct.ui::EventTarget::PrioritizedHandler"*, %"struct.ui::EventTarget::PrioritizedHandler"*, %"class.std::__1::__compressed_pair.36" }
%"struct.ui::EventTarget::PrioritizedHandler" = type <{ %"class.ui::EventHandler"*, i32, [4 x i8] }>
%"class.std::__1::__compressed_pair.36" = type { %"struct.std::__1::__compressed_pair_elem.37" }
%"struct.std::__1::__compressed_pair_elem.37" = type { %"struct.ui::EventTarget::PrioritizedHandler"* }
%"class.std::__1::vector.29" = type { %"class.std::__1::__vector_base.30" }
%"class.std::__1::__vector_base.30" = type { %"class.ui::EventHandler"**, %"class.ui::EventHandler"**, %"class.std::__1::__compressed_pair.31" }
%"class.std::__1::__compressed_pair.31" = type { %"struct.std::__1::__compressed_pair_elem.32" }
%"struct.std::__1::__compressed_pair_elem.32" = type { %"class.ui::EventHandler"** }
%"class.ui::EventHandler" = type { i32 (...)**, %"class.std::__1::stack" }
%"class.std::__1::stack" = type { %"class.base::circular_deque" }
%"class.base::circular_deque" = type { %"class.base::internal::VectorBuffer", i64, i64 }
%"class.base::internal::VectorBuffer" = type { %"class.ui::EventDispatcher"**, i64 }
%"class.ui::EventDispatcher" = type { i32 (...)**, %"class.ui::EventDispatcherDelegate"*, %"class.ui::Event"*, %"class.std::__1::vector.29" }
%"class.ui::EventDispatcherDelegate" = type { i32 (...)**, %"class.ui::EventDispatcher"* }
%"class.ui::Event" = type { i32 (...)**, i32, %"class.base::TimeTicks", %"class.ui::LatencyInfo", i32, %"class.ui::Event"*, i8, i8, %"class.ui::EventTarget"*, i32, i32, i32, %"class.std::__1::unique_ptr.22" }
%"class.base::TimeTicks" = type { %"class.base::time_internal::TimeBase" }
%"class.base::time_internal::TimeBase" = type { i64 }
%"class.ui::LatencyInfo" = type { %"class.base::flat_map", i64, i64, i8, i8, i8, i32, float, float, i64 }
%"class.base::flat_map" = type { %"class.base::internal::flat_tree" }
%"class.base::internal::flat_tree" = type { %"class.std::__1::vector.15" }
%"class.std::__1::vector.15" = type { %"class.std::__1::__vector_base.16" }
%"class.std::__1::__vector_base.16" = type { %"struct.std::__1::pair"*, %"struct.std::__1::pair"*, %"class.std::__1::__compressed_pair.17" }
%"struct.std::__1::pair" = type opaque
%"class.std::__1::__compressed_pair.17" = type { %"struct.std::__1::__compressed_pair_elem.18" }
%"struct.std::__1::__compressed_pair_elem.18" = type { %"struct.std::__1::pair"* }
%"class.std::__1::unique_ptr.22" = type { %"class.std::__1::__compressed_pair.23" }
%"class.std::__1::__compressed_pair.23" = type { %"struct.std::__1::__compressed_pair_elem.24" }
%"struct.std::__1::__compressed_pair_elem.24" = type { %"class.base::flat_map.25"* }
%"class.base::flat_map.25" = type opaque
%"class.ui::PropertyHandler" = type { i32 (...)**, %"class.std::__1::map" }
%"class.std::__1::map" = type { %"class.std::__1::__tree" }
%"class.std::__1::__tree" = type { %"class.std::__1::__tree_end_node"*, %"class.std::__1::__compressed_pair.41", %"class.std::__1::__compressed_pair.46" }
%"class.std::__1::__tree_end_node" = type { %"class.std::__1::__tree_node_base"* }
%"class.std::__1::__tree_node_base" = type <{ %"class.std::__1::__tree_end_node", %"class.std::__1::__tree_node_base"*, %"class.std::__1::__tree_end_node"*, i8, [7 x i8] }>
%"class.std::__1::__compressed_pair.41" = type { %"struct.std::__1::__compressed_pair_elem.42" }
%"struct.std::__1::__compressed_pair_elem.42" = type { %"class.std::__1::__tree_end_node" }
%"class.std::__1::__compressed_pair.46" = type { %"struct.std::__1::__compressed_pair_elem.47" }
%"struct.std::__1::__compressed_pair_elem.47" = type { i64 }
%"class.ui::metadata::MetaDataProvider" = type { i32 (...)**, %"class.std::__1::map.49" }
%"class.std::__1::map.49" = type { %"class.std::__1::__tree.50" }
%"class.std::__1::__tree.50" = type { %"class.std::__1::__tree_end_node"*, %"class.std::__1::__compressed_pair.51", %"class.std::__1::__compressed_pair.55" }
%"class.std::__1::__compressed_pair.51" = type { %"struct.std::__1::__compressed_pair_elem.42" }
%"class.std::__1::__compressed_pair.55" = type { %"struct.std::__1::__compressed_pair_elem.47" }
%"class.std::__1::vector.58" = type { %"class.std::__1::__vector_base.59" }
%"class.std::__1::__vector_base.59" = type { %"class.views::View"**, %"class.views::View"**, %"class.std::__1::__compressed_pair.60" }
%"class.std::__1::__compressed_pair.60" = type { %"struct.std::__1::__compressed_pair_elem.61" }
%"struct.std::__1::__compressed_pair_elem.61" = type { %"class.views::View"** }
%"class.absl::optional" = type { %"class.absl::optional_internal::optional_data" }
%"class.absl::optional_internal::optional_data" = type { %"class.absl::optional_internal::optional_data_base" }
%"class.absl::optional_internal::optional_data_base" = type { %"class.absl::optional_internal::optional_data_dtor_base" }
%"class.absl::optional_internal::optional_data_dtor_base" = type { i8, %union.anon }
%union.anon = type { %"class.gfx::Size" }
%"class.gfx::Size" = type { i32, i32 }
%"class.gfx::Rect" = type { %"class.gfx::Point", %"class.gfx::Size" }
%"class.gfx::Point" = type { i32, i32 }
%"class.std::__1::unique_ptr.65" = type { %"class.std::__1::__compressed_pair.66" }
%"class.std::__1::__compressed_pair.66" = type { %"struct.std::__1::__compressed_pair_elem.67" }
%"struct.std::__1::__compressed_pair_elem.67" = type { %"class.std::__1::vector.58"* }
%class.SkPath = type <{ %class.sk_sp, i32, %"struct.std::__1::atomic.1", %"struct.std::__1::atomic.1", i8, i8 }>
%class.sk_sp = type { %class.SkPathRef* }
%class.SkPathRef = type <{ %class.SkNVRefCnt, %struct.SkRect, [4 x i8], %class.SkTDArray, %class.SkTDArray.71, %class.SkTDArray.72, i32, [4 x i8], %"class.SkIDChangeListener::List", i8, i8, i8, i8, i8, i8, i8, i8 }>
%class.SkNVRefCnt = type { %"struct.std::__1::atomic" }
%struct.SkRect = type { float, float, float, float }
%class.SkTDArray = type { %struct.SkPoint*, i32, i32 }
%struct.SkPoint = type { float, float }
%class.SkTDArray.71 = type { i8*, i32, i32 }
%class.SkTDArray.72 = type { float*, i32, i32 }
%"class.SkIDChangeListener::List" = type { %class.SkMutex, %class.SkTDArray.73 }
%class.SkMutex = type { %class.SkSemaphore }
%class.SkSemaphore = type { %"struct.std::__1::atomic", %class.SkOnce, %"struct.SkSemaphore::OSSemaphore"* }
%class.SkOnce = type { %"struct.std::__1::atomic.1" }
%"struct.SkSemaphore::OSSemaphore" = type opaque
%class.SkTDArray.73 = type { %class.SkIDChangeListener**, i32, i32 }
%class.SkIDChangeListener = type { %class.SkRefCnt.base, %"struct.std::__1::atomic.74", [3 x i8] }
%class.SkRefCnt.base = type { %class.SkRefCntBase.base }
%class.SkRefCntBase.base = type <{ i32 (...)**, %"struct.std::__1::atomic" }>
%"struct.std::__1::atomic.74" = type { %"struct.std::__1::__atomic_base.75" }
%"struct.std::__1::__atomic_base.75" = type { %"struct.std::__1::__cxx_atomic_impl.76" }
%"struct.std::__1::__cxx_atomic_impl.76" = type { %"struct.std::__1::__cxx_atomic_base_impl.77" }
%"struct.std::__1::__cxx_atomic_base_impl.77" = type { i8 }
%"class.std::__1::unique_ptr.78" = type { %"class.std::__1::__compressed_pair.79" }
%"class.std::__1::__compressed_pair.79" = type { %"struct.std::__1::__compressed_pair_elem.80" }
%"struct.std::__1::__compressed_pair_elem.80" = type { %"class.views::LayoutManager"* }
%"class.views::LayoutManager" = type { i32 (...)**, %"class.views::View"* }
%"class.absl::optional.84" = type { %"class.absl::optional_internal::optional_data.85" }
%"class.absl::optional_internal::optional_data.85" = type { %"class.absl::optional_internal::optional_data_base.86" }
%"class.absl::optional_internal::optional_data_base.86" = type { %"class.absl::optional_internal::optional_data_dtor_base.87" }
%"class.absl::optional_internal::optional_data_dtor_base.87" = type { i8, %union.anon.88 }
%union.anon.88 = type { %"class.views::View::DefaultFillLayout" }
%"class.views::View::DefaultFillLayout" = type { %"class.views::LayoutManager" }
%"class.std::__1::unique_ptr.89" = type { %"class.std::__1::__compressed_pair.90" }
%"class.std::__1::__compressed_pair.90" = type { %"struct.std::__1::__compressed_pair_elem.91" }
%"struct.std::__1::__compressed_pair_elem.91" = type { %"class.views::Background"* }
%"class.views::Background" = type opaque
%"class.std::__1::unique_ptr.95" = type { %"class.std::__1::__compressed_pair.96" }
%"class.std::__1::__compressed_pair.96" = type { %"struct.std::__1::__compressed_pair_elem.97" }
%"struct.std::__1::__compressed_pair_elem.97" = type { %"class.views::Border"* }
%"class.views::Border" = type opaque
%"class.ui::PaintCache" = type <{ %class.sk_sp.101, float, [4 x i8] }>
%class.sk_sp.101 = type { %"class.cc::PaintOpBuffer"* }
%"class.cc::PaintOpBuffer" = type <{ %class.SkRefCnt.base, [4 x i8], %"class.std::__1::unique_ptr.102", i64, i64, i64, i64, i64, i32, i8, [3 x i8] }>
%"class.std::__1::unique_ptr.102" = type { %"class.std::__1::__compressed_pair.103" }
%"class.std::__1::__compressed_pair.103" = type { %"struct.std::__1::__compressed_pair_elem.104" }
%"struct.std::__1::__compressed_pair_elem.104" = type { i8* }
%"class.ui::NativeTheme" = type <{ i32 (...)**, %"class.std::__1::map.106", %"class.base::ObserverList.117", i8, i8, [2 x i8], i32, i32, [4 x i8] }>
%"class.std::__1::map.106" = type { %"class.std::__1::__tree.107" }
%"class.std::__1::__tree.107" = type { %"class.std::__1::__tree_end_node"*, %"class.std::__1::__compressed_pair.108", %"class.std::__1::__compressed_pair.112" }
%"class.std::__1::__compressed_pair.108" = type { %"struct.std::__1::__compressed_pair_elem.42" }
%"class.std::__1::__compressed_pair.112" = type { %"struct.std::__1::__compressed_pair_elem.47" }
%"class.base::ObserverList.117" = type <{ %"class.std::__1::vector", %"class.base::LinkedList.118", i64, i32, [4 x i8] }>
%"class.base::LinkedList.118" = type { %"class.base::LinkNode.119" }
%"class.base::LinkNode.119" = type { %"class.base::internal::LinkNodeBase" }
%"class.absl::optional.121" = type { %"class.absl::optional_internal::optional_data.122" }
%"class.absl::optional_internal::optional_data.122" = type { %"class.absl::optional_internal::optional_data_base.123" }
%"class.absl::optional_internal::optional_data_base.123" = type { %"class.absl::optional_internal::optional_data_dtor_base.124" }
%"class.absl::optional_internal::optional_data_dtor_base.124" = type { i8, %union.anon.125 }
%union.anon.125 = type { i8 }
%"class.std::__1::vector.126" = type { %"class.std::__1::__vector_base.127" }
%"class.std::__1::__vector_base.127" = type { %"class.ui::Layer"**, %"class.ui::Layer"**, %"class.std::__1::__compressed_pair.128" }
%"class.std::__1::__compressed_pair.128" = type { %"struct.std::__1::__compressed_pair_elem.129" }
%"struct.std::__1::__compressed_pair_elem.129" = type { %"class.ui::Layer"** }
%"class.std::__1::unique_ptr.133" = type { %"class.std::__1::__compressed_pair.134" }
%"class.std::__1::__compressed_pair.134" = type { %"struct.std::__1::__compressed_pair_elem.135" }
%"struct.std::__1::__compressed_pair_elem.135" = type { %"class.views::ViewMaskLayer"* }
%"class.views::ViewMaskLayer" = type opaque
%"class.views::FocusManager" = type { %"class.views::ViewObserver", %"class.views::Widget"*, %"class.std::__1::unique_ptr.224", %"class.views::View"*, %"class.ui::AcceleratorManager", i8, %"class.std::__1::unique_ptr.241", i32, [4 x i8], %"class.base::ObserverList.247", i8, i8, i32 }
%"class.views::Widget" = type { %"class.views::internal::NativeWidgetDelegate", %"class.ui::EventSource", %"class.views::FocusTraversable", %"class.ui::NativeThemeObserver", %"class.ui::metadata::MetaDataProvider", %"class.views::internal::NativeWidgetPrivate"*, %"class.base::ObserverList.143", %"class.base::ObserverList.155", %"class.base::RepeatingCallbackList", %"class.views::WidgetDelegate"*, %"class.views::Widget"*, %"class.std::__1::unique_ptr.211", %"class.views::NonClientView"*, %"class.std::__1::unique_ptr.217", %"class.views::View"*, i32, i8, i32, i8, i64, i8, i32, i32, %"class.gfx::Rect", i8, i8, i8, i8, i8, i8, i8, %"class.gfx::Point", i8, %"class.std::__1::vector.58", i8, i8, i8, %"class.ui::NativeTheme"*, %"class.base::ScopedObservation", %"class.base::WeakPtrFactory.223" }
%"class.views::internal::NativeWidgetDelegate" = type { i32 (...)** }
%"class.ui::EventSource" = type { i32 (...)**, %"class.std::__1::list" }
%"class.std::__1::list" = type { %"class.std::__1::__list_imp" }
%"class.std::__1::__list_imp" = type { %"struct.std::__1::__list_node_base", %"class.std::__1::__compressed_pair.139" }
%"struct.std::__1::__list_node_base" = type { %"struct.std::__1::__list_node_base"*, %"struct.std::__1::__list_node_base"* }
%"class.std::__1::__compressed_pair.139" = type { %"struct.std::__1::__compressed_pair_elem.47" }
%"class.views::FocusTraversable" = type { i32 (...)** }
%"class.ui::NativeThemeObserver" = type { i32 (...)** }
%"class.views::internal::NativeWidgetPrivate" = type opaque
%"class.base::ObserverList.143" = type <{ %"class.std::__1::vector.144", %"class.base::LinkedList.152", i64, i32, [4 x i8] }>
%"class.std::__1::vector.144" = type { %"class.std::__1::__vector_base.145" }
%"class.std::__1::__vector_base.145" = type { %"class.base::internal::CheckedObserverAdapter"*, %"class.base::internal::CheckedObserverAdapter"*, %"class.std::__1::__compressed_pair.147" }
%"class.base::internal::CheckedObserverAdapter" = type { %"class.base::WeakPtr" }
%"class.base::WeakPtr" = type { %"class.base::internal::WeakPtrBase" }
%"class.base::internal::WeakPtrBase" = type { %"class.base::internal::WeakReference", i64 }
%"class.base::internal::WeakReference" = type { %class.scoped_refptr.146 }
%class.scoped_refptr.146 = type { %"class.base::internal::WeakReference::Flag"* }
%"class.std::__1::__compressed_pair.147" = type { %"struct.std::__1::__compressed_pair_elem.148" }
%"struct.std::__1::__compressed_pair_elem.148" = type { %"class.base::internal::CheckedObserverAdapter"* }
%"class.base::LinkedList.152" = type { %"class.base::LinkNode.153" }
%"class.base::LinkNode.153" = type { %"class.base::internal::LinkNodeBase" }
%"class.base::ObserverList.155" = type <{ %"class.std::__1::vector", %"class.base::LinkedList.156", i64, i32, [4 x i8] }>
%"class.base::LinkedList.156" = type { %"class.base::LinkNode.157" }
%"class.base::LinkNode.157" = type { %"class.base::internal::LinkNodeBase" }
%"class.base::RepeatingCallbackList" = type { %"class.base::internal::CallbackListBase" }
%"class.base::internal::CallbackListBase" = type { %"class.std::__1::list.159", i8, %"class.base::RepeatingCallback", %"class.base::WeakPtrFactory" }
%"class.std::__1::list.159" = type { %"class.std::__1::__list_imp.160" }
%"class.std::__1::__list_imp.160" = type { %"struct.std::__1::__list_node_base.161", %"class.std::__1::__compressed_pair.162" }
%"struct.std::__1::__list_node_base.161" = type { %"struct.std::__1::__list_node_base.161"*, %"struct.std::__1::__list_node_base.161"* }
%"class.std::__1::__compressed_pair.162" = type { %"struct.std::__1::__compressed_pair_elem.47" }
%"class.base::RepeatingCallback" = type { %"class.base::internal::CallbackBaseCopyable" }
%"class.base::internal::CallbackBaseCopyable" = type { %"class.base::internal::CallbackBase" }
%"class.base::internal::CallbackBase" = type { %class.scoped_refptr.166 }
%class.scoped_refptr.166 = type { %"class.base::internal::BindStateBase"* }
%"class.base::internal::BindStateBase" = type { %"class.base::RefCountedThreadSafe.167", void ()*, void (%"class.base::internal::BindStateBase"*)*, i1 (%"class.base::internal::BindStateBase"*, i32)* }
%"class.base::RefCountedThreadSafe.167" = type { %"class.base::subtle::RefCountedThreadSafeBase" }
%"class.base::WeakPtrFactory" = type { %"class.base::internal::WeakPtrFactoryBase" }
%"class.base::internal::WeakPtrFactoryBase" = type { %"class.base::internal::WeakReferenceOwner", i64 }
%"class.views::WidgetDelegate" = type { i32 (...)**, %"class.views::Widget"*, %"struct.views::WidgetDelegate::Params", %"class.views::View"*, i8, i8, %"class.views::View"*, %"class.std::__1::unique_ptr.189", i8, i8*, %"class.std::__1::unique_ptr.195", %"class.std::__1::unique_ptr.195", %"class.std::__1::vector.198", %"class.std::__1::vector.198", %"class.std::__1::vector.198", %"class.base::OnceCallback.208", %"class.base::RepeatingCallback.209", %"class.base::OnceCallback.210" }
%"struct.views::WidgetDelegate::Params" = type { i32, %"class.std::__1::basic_string", i8, i8, i8, i8, i8, i8, %"class.gfx::ImageSkia", %"class.gfx::ImageSkia", %"class.absl::optional.175", %"class.std::__1::basic_string.180", i32, i8, i8, i8, i8, %"class.std::__1::basic_string" }
%"class.gfx::ImageSkia" = type { %class.scoped_refptr.174 }
%class.scoped_refptr.174 = type { %"class.gfx::internal::ImageSkiaStorage"* }
%"class.gfx::internal::ImageSkiaStorage" = type opaque
%"class.absl::optional.175" = type { %"class.absl::optional_internal::optional_data.176" }
%"class.absl::optional_internal::optional_data.176" = type { %"class.absl::optional_internal::optional_data_base.177" }
%"class.absl::optional_internal::optional_data_base.177" = type { %"class.absl::optional_internal::optional_data_dtor_base.178" }
%"class.absl::optional_internal::optional_data_dtor_base.178" = type { i8, %union.anon.179 }
%union.anon.179 = type { %"class.views::View"* }
%"class.std::__1::basic_string.180" = type { %"class.std::__1::__compressed_pair.181" }
%"class.std::__1::__compressed_pair.181" = type { %"struct.std::__1::__compressed_pair_elem.182" }
%"struct.std::__1::__compressed_pair_elem.182" = type { %"struct.std::__1::basic_string<char, std::__1::char_traits<char>, std::__1::allocator<char> >::__rep" }
%"struct.std::__1::basic_string<char, std::__1::char_traits<char>, std::__1::allocator<char> >::__rep" = type { %union.anon.183 }
%union.anon.183 = type { %"struct.std::__1::basic_string<char, std::__1::char_traits<char>, std::__1::allocator<char> >::__long" }
%"struct.std::__1::basic_string<char, std::__1::char_traits<char>, std::__1::allocator<char> >::__long" = type { i8*, i64, i64 }
%"class.std::__1::basic_string" = type { %"class.std::__1::__compressed_pair.168" }
%"class.std::__1::__compressed_pair.168" = type { %"struct.std::__1::__compressed_pair_elem.169" }
%"struct.std::__1::__compressed_pair_elem.169" = type { %"struct.std::__1::basic_string<char16_t, std::__1::char_traits<char16_t>, std::__1::allocator<char16_t> >::__rep" }
%"struct.std::__1::basic_string<char16_t, std::__1::char_traits<char16_t>, std::__1::allocator<char16_t> >::__rep" = type { %union.anon.170 }
%union.anon.170 = type { %"struct.std::__1::basic_string<char16_t, std::__1::char_traits<char16_t>, std::__1::allocator<char16_t> >::__long" }
%"struct.std::__1::basic_string<char16_t, std::__1::char_traits<char16_t>, std::__1::allocator<char16_t> >::__long" = type { i16*, i64, i64 }
%"class.std::__1::unique_ptr.189" = type { %"class.std::__1::__compressed_pair.190" }
%"class.std::__1::__compressed_pair.190" = type { %"struct.std::__1::__compressed_pair_elem.191" }
%"struct.std::__1::__compressed_pair_elem.191" = type { %"class.views::View"* }
%"class.std::__1::unique_ptr.195" = type { %"class.std::__1::__compressed_pair.196" }
%"class.std::__1::__compressed_pair.196" = type { %"struct.std::__1::__compressed_pair_elem.197" }
%"struct.std::__1::__compressed_pair_elem.197" = type { %"class.std::__1::vector.198"* }
%"class.std::__1::vector.198" = type { %"class.std::__1::__vector_base.199" }
%"class.std::__1::__vector_base.199" = type { %"class.base::OnceCallback"*, %"class.base::OnceCallback"*, %"class.std::__1::__compressed_pair.200" }
%"class.base::OnceCallback" = type { %"class.base::internal::CallbackBase" }
%"class.std::__1::__compressed_pair.200" = type { %"struct.std::__1::__compressed_pair_elem.201" }
%"struct.std::__1::__compressed_pair_elem.201" = type { %"class.base::OnceCallback"* }
%"class.base::OnceCallback.208" = type { %"class.base::internal::CallbackBase" }
%"class.base::RepeatingCallback.209" = type { %"class.base::internal::CallbackBaseCopyable" }
%"class.base::OnceCallback.210" = type { %"class.base::internal::CallbackBase" }
%"class.std::__1::unique_ptr.211" = type { %"class.std::__1::__compressed_pair.212" }
%"class.std::__1::__compressed_pair.212" = type { %"struct.std::__1::__compressed_pair_elem.213" }
%"struct.std::__1::__compressed_pair_elem.213" = type { %"class.views::internal::RootView"* }
%"class.views::internal::RootView" = type opaque
%"class.views::NonClientView" = type { %"class.views::View.base", %"class.views::ViewTargeterDelegate", %"class.views::ClientView"*, %"class.std::__1::unique_ptr.299", %"class.views::View"*, %"class.std::__1::basic_string" }
%"class.views::View.base" = type <{ %"class.ui::LayerDelegate", %"class.ui::LayerObserver", %"class.ui::LayerOwner", %"class.ui::AcceleratorTarget", %"class.ui::EventTarget", %"class.ui::EventHandler", %"class.ui::PropertyHandler", %"class.ui::metadata::MetaDataProvider", i8, [3 x i8], i32, i32, [4 x i8], %"class.views::View"*, %"class.std::__1::vector.58", i8, [3 x i8], %"class.absl::optional", %"class.gfx::Rect", i8, i8, i8, i8, [4 x i8], %"class.std::__1::unique_ptr.65", %class.SkPath, i8, [7 x i8], %"class.std::__1::unique_ptr.78", %"class.absl::optional.84", i8, [7 x i8], %"class.std::__1::unique_ptr.89", %"class.std::__1::unique_ptr.95", %"class.ui::PaintCache", i8, [7 x i8], %"class.ui::NativeTheme"*, i8, %"class.absl::optional.121", i8, i8, [3 x i8], %"class.std::__1::vector.126", %"class.std::__1::unique_ptr.133", %"class.views::FocusManager"*, %"class.std::__1::unique_ptr.251", i64, %"class.views::View"*, %"class.views::View"*, i32, [4 x i8], %"class.views::ContextMenuController"*, %"class.views::DragController"*, %"class.std::__1::unique_ptr.264", %"class.std::__1::unique_ptr.270", %"class.base::ObserverList.276", i32 }>
%"class.views::ViewTargeterDelegate" = type { i32 (...)** }
%"class.views::ClientView" = type { %"class.views::View.base", %"class.views::View"* }
%"class.std::__1::unique_ptr.299" = type { %"class.std::__1::__compressed_pair.300" }
%"class.std::__1::__compressed_pair.300" = type { %"struct.std::__1::__compressed_pair_elem.301" }
%"struct.std::__1::__compressed_pair_elem.301" = type { %"class.views::NonClientFrameView"* }
%"class.views::NonClientFrameView" = type { %"class.views::View.base", %"class.views::ViewTargeterDelegate" }
%"class.std::__1::unique_ptr.217" = type { %"class.std::__1::__compressed_pair.218" }
%"class.std::__1::__compressed_pair.218" = type { %"struct.std::__1::__compressed_pair_elem.219" }
%"struct.std::__1::__compressed_pair_elem.219" = type { %"class.views::FocusManager"* }
%"class.base::ScopedObservation" = type { %"class.ui::NativeThemeObserver"*, %"class.ui::NativeTheme"* }
%"class.base::WeakPtrFactory.223" = type { %"class.base::internal::WeakPtrFactoryBase" }
%"class.std::__1::unique_ptr.224" = type { %"class.std::__1::__compressed_pair.225" }
%"class.std::__1::__compressed_pair.225" = type { %"struct.std::__1::__compressed_pair_elem.226" }
%"struct.std::__1::__compressed_pair_elem.226" = type { %"class.views::FocusManagerDelegate"* }
%"class.views::FocusManagerDelegate" = type opaque
%"class.ui::AcceleratorManager" = type { %"class.ui::AcceleratorMap" }
%"class.ui::AcceleratorMap" = type { %"class.std::__1::map.230" }
%"class.std::__1::map.230" = type { %"class.std::__1::__tree.231" }
%"class.std::__1::__tree.231" = type { %"class.std::__1::__tree_end_node"*, %"class.std::__1::__compressed_pair.232", %"class.std::__1::__compressed_pair.236" }
%"class.std::__1::__compressed_pair.232" = type { %"struct.std::__1::__compressed_pair_elem.42" }
%"class.std::__1::__compressed_pair.236" = type { %"struct.std::__1::__compressed_pair_elem.47" }
%"class.std::__1::unique_ptr.241" = type { %"class.std::__1::__compressed_pair.242" }
%"class.std::__1::__compressed_pair.242" = type { %"struct.std::__1::__compressed_pair_elem.243" }
%"struct.std::__1::__compressed_pair_elem.243" = type { %"class.views::ViewTracker"* }
%"class.base::ObserverList.247" = type <{ %"class.std::__1::vector", %"class.base::LinkedList.248", i64, i32, [4 x i8] }>
%"class.base::LinkedList.248" = type { %"class.base::LinkNode.249" }
%"class.base::LinkNode.249" = type { %"class.base::internal::LinkNodeBase" }
%"class.std::__1::unique_ptr.251" = type { %"class.std::__1::__compressed_pair.252" }
%"class.std::__1::__compressed_pair.252" = type { %"struct.std::__1::__compressed_pair_elem.253" }
%"struct.std::__1::__compressed_pair_elem.253" = type { %"class.std::__1::vector.254"* }
%"class.std::__1::vector.254" = type { %"class.std::__1::__vector_base.255" }
%"class.std::__1::__vector_base.255" = type { %"class.ui::Accelerator"*, %"class.ui::Accelerator"*, %"class.std::__1::__compressed_pair.256" }
%"class.ui::Accelerator" = type { i32, i32, i32, %"class.base::TimeTicks", i8, i32 }
%"class.std::__1::__compressed_pair.256" = type { %"struct.std::__1::__compressed_pair_elem.257" }
%"struct.std::__1::__compressed_pair_elem.257" = type { %"class.ui::Accelerator"* }
%"class.views::ContextMenuController" = type opaque
%"class.views::DragController" = type opaque
%"class.std::__1::unique_ptr.264" = type { %"class.std::__1::__compressed_pair.265" }
%"class.std::__1::__compressed_pair.265" = type { %"struct.std::__1::__compressed_pair_elem.266" }
%"struct.std::__1::__compressed_pair_elem.266" = type { %"class.views::ViewTargeter"* }
%"class.views::ViewTargeter" = type { %"class.ui::EventTargeter", %"class.views::ViewTargeterDelegate"* }
%"class.ui::EventTargeter" = type { i32 (...)** }
%"class.std::__1::unique_ptr.270" = type { %"class.std::__1::__compressed_pair.271" }
%"class.std::__1::__compressed_pair.271" = type { %"struct.std::__1::__compressed_pair_elem.272" }
%"struct.std::__1::__compressed_pair_elem.272" = type { %"class.views::ViewAccessibility"* }
%"class.views::ViewAccessibility" = type opaque
%"class.base::ObserverList.276" = type <{ %"class.std::__1::vector", %"class.base::LinkedList.277", i64, i32, [4 x i8] }>
%"class.base::LinkedList.277" = type { %"class.base::LinkNode.278" }
%"class.base::LinkNode.278" = type { %"class.base::internal::LinkNodeBase" }
%"class.base::ScopedObservation.280" = type { %"class.views::ViewObserver"*, %"class.views::View"* }
%"class.views::HueView" = type opaque
%"class.views::SaturationValueView" = type opaque
%"class.views::SelectedColorPatchView" = type opaque
%"class.views::Textfield" = type opaque
%"class.views::UniqueWidgetPtr" = type { %"class.std::__1::unique_ptr.284" }
%"class.std::__1::unique_ptr.284" = type { %"class.std::__1::__compressed_pair.285" }
%"class.std::__1::__compressed_pair.285" = type { %"struct.std::__1::__compressed_pair_elem.286" }
%"struct.std::__1::__compressed_pair_elem.286" = type { %"class.views::UniqueWidgetPtr::UniqueWidgetPtrImpl"* }
%"class.views::UniqueWidgetPtr::UniqueWidgetPtrImpl" = type opaque
%"class.content::WebContents" = type <{ %"class.content::PageNavigator", %"class.base::SupportsUserData.base", [7 x i8] }>
%"class.content::PageNavigator" = type { i32 (...)** }
%"class.base::SupportsUserData.base" = type <{ i32 (...)**, %"class.std::__1::map.290", %"class.base::SequenceCheckerDoNothing" }>
%"class.std::__1::map.290" = type { %"class.std::__1::__tree.291" }
%"class.std::__1::__tree.291" = type { %"class.std::__1::__tree_end_node"*, %"class.std::__1::__compressed_pair.292", %"class.std::__1::__compressed_pair.296" }
%"class.std::__1::__compressed_pair.292" = type { %"struct.std::__1::__compressed_pair_elem.42" }
%"class.std::__1::__compressed_pair.296" = type { %"struct.std::__1::__compressed_pair_elem.47" }
%"class.base::SequenceCheckerDoNothing" = type { i8 }
%"class.aura::Window" = type opaque

@_ZTV16ColorChooserAura = hidden unnamed_addr constant { [8 x i8*], [6 x i8*] } { [8 x i8*] [i8* null, i8* null, i8* bitcast (void (%class.ColorChooserAura*)* @_ZN16ColorChooserAuraD2Ev to i8*), i8* bitcast (void (%class.ColorChooserAura*)* @_ZN16ColorChooserAuraD0Ev to i8*), i8* bitcast (void (%class.ColorChooserAura*)* @_ZN16ColorChooserAura3EndEv to i8*), i8* bitcast (void (%class.ColorChooserAura*, i32)* @_ZN16ColorChooserAura16SetSelectedColorEj to i8*), i8* bitcast (void (%class.ColorChooserAura*, i32)* @_ZN16ColorChooserAura13OnColorChosenEj to i8*), i8* bitcast (void (%class.ColorChooserAura*)* @_ZN16ColorChooserAura26OnColorChooserDialogClosedEv to i8*)], [6 x i8*] [i8* inttoptr (i64 -8 to i8*), i8* null, i8* bitcast (void (%class.ColorChooserAura*, i32)* @_ZThn8_N16ColorChooserAura13OnColorChosenEj to i8*), i8* bitcast (void (%class.ColorChooserAura*)* @_ZThn8_N16ColorChooserAura26OnColorChooserDialogClosedEv to i8*), i8* bitcast (void (%class.ColorChooserAura*)* @_ZThn8_N16ColorChooserAuraD1Ev to i8*), i8* bitcast (void (%class.ColorChooserAura*)* @_ZThn8_N16ColorChooserAuraD0Ev to i8*)] }, align 8

@_ZN16ColorChooserAuraC1EPN7content11WebContentsEj = hidden unnamed_addr alias void (%class.ColorChooserAura*, %"class.content::WebContents"*, i32), void (%class.ColorChooserAura*, %"class.content::WebContents"*, i32)* @_ZN16ColorChooserAuraC2EPN7content11WebContentsEj
@_ZN16ColorChooserAuraD1Ev = hidden unnamed_addr alias void (%class.ColorChooserAura*), void (%class.ColorChooserAura*)* @_ZN16ColorChooserAuraD2Ev

; Function Attrs: nounwind ssp uwtable
define hidden void @_ZN16ColorChooserAuraC2EPN7content11WebContentsEj(%class.ColorChooserAura*, %"class.content::WebContents"*, i32) unnamed_addr #0 align 2 {
  %4 = alloca %"class.views::UniqueWidgetPtr", align 8
  %5 = alloca %"class.gfx::Rect", align 4
  %6 = getelementptr inbounds %class.ColorChooserAura, %class.ColorChooserAura* %0, i64 0, i32 1
  %7 = bitcast %class.ColorChooserAura* %0 to <2 x i32 (...)**>*
  store <2 x i32 (...)**> <i32 (...)** bitcast (i8** getelementptr inbounds ({ [8 x i8*], [6 x i8*] }, { [8 x i8*], [6 x i8*] }* @_ZTV16ColorChooserAura, i64 0, inrange i32 0, i64 2) to i32 (...)**), i32 (...)** bitcast (i8** getelementptr inbounds ({ [8 x i8*], [6 x i8*] }, { [8 x i8*], [6 x i8*] }* @_ZTV16ColorChooserAura, i64 0, inrange i32 1, i64 2) to i32 (...)**)>, <2 x i32 (...)**>* %7, align 8
  %8 = getelementptr inbounds %class.ColorChooserAura, %class.ColorChooserAura* %0, i64 0, i32 2
  %9 = bitcast %"class.std::__1::unique_ptr"* %8 to i64*
  store i64 0, i64* %9, align 8
  %10 = getelementptr inbounds %class.ColorChooserAura, %class.ColorChooserAura* %0, i64 0, i32 3
  tail call void @_ZN5views15UniqueWidgetPtrC1Ev(%"class.views::UniqueWidgetPtr"* %10) #6
  %11 = getelementptr inbounds %class.ColorChooserAura, %class.ColorChooserAura* %0, i64 0, i32 4
  store %"class.content::WebContents"* %1, %"class.content::WebContents"** %11, align 8
  %12 = tail call i8* @_Znwm(i64 112) #7
  %13 = bitcast i8* %12 to %"class.views::ColorChooser"*
  %14 = icmp eq %class.ColorChooserAura* %0, null
  %15 = select i1 %14, %"class.views::ColorChooserListener"* null, %"class.views::ColorChooserListener"* %6
  tail call void @_ZN5views12ColorChooserC1EPNS_20ColorChooserListenerEj(%"class.views::ColorChooser"* nonnull %13, %"class.views::ColorChooserListener"* %15, i32 %2) #6
  %16 = ptrtoint i8* %12 to i64
  %17 = getelementptr inbounds %"class.std::__1::unique_ptr", %"class.std::__1::unique_ptr"* %8, i64 0, i32 0, i32 0, i32 0
  %18 = load %"class.views::ColorChooser"*, %"class.views::ColorChooser"** %17, align 8
  store i64 %16, i64* %9, align 8
  %19 = icmp eq %"class.views::ColorChooser"* %18, null
  %20 = bitcast i8* %12 to %"class.views::ColorChooser"*
  br i1 %19, label %27, label %21

21:                                               ; preds = %3
  %22 = bitcast %"class.views::ColorChooser"* %18 to void (%"class.views::ColorChooser"*)***
  %23 = load void (%"class.views::ColorChooser"*)**, void (%"class.views::ColorChooser"*)*** %22, align 8
  %24 = getelementptr inbounds void (%"class.views::ColorChooser"*)*, void (%"class.views::ColorChooser"*)** %23, i64 14
  %25 = load void (%"class.views::ColorChooser"*)*, void (%"class.views::ColorChooser"*)** %24, align 8
  tail call void %25(%"class.views::ColorChooser"* nonnull %18) #6
  %26 = load %"class.views::ColorChooser"*, %"class.views::ColorChooser"** %17, align 8
  br label %27

27:                                               ; preds = %21, %3
  %28 = phi %"class.views::ColorChooser"* [ %26, %21 ], [ %20, %3 ]
  %29 = bitcast %"class.views::UniqueWidgetPtr"* %4 to i8*
  call void @llvm.lifetime.start.p0i8(i64 8, i8* nonnull %29) #6
  %30 = tail call %"class.views::WidgetDelegate"* @_ZN5views12ColorChooser18MakeWidgetDelegateEv(%"class.views::ColorChooser"* %28) #6
  %31 = bitcast %"class.content::WebContents"* %1 to %"class.aura::Window"* (%"class.content::WebContents"*)***
  %32 = load %"class.aura::Window"* (%"class.content::WebContents"*)**, %"class.aura::Window"* (%"class.content::WebContents"*)*** %31, align 8
  %33 = getelementptr inbounds %"class.aura::Window"* (%"class.content::WebContents"*)*, %"class.aura::Window"* (%"class.content::WebContents"*)** %32, i64 113
  %34 = load %"class.aura::Window"* (%"class.content::WebContents"*)*, %"class.aura::Window"* (%"class.content::WebContents"*)** %33, align 8
  %35 = tail call %"class.aura::Window"* %34(%"class.content::WebContents"* %1) #6
  %36 = bitcast %"class.gfx::Rect"* %5 to i8*
  call void @llvm.lifetime.start.p0i8(i64 16, i8* nonnull %36) #6
  %37 = bitcast %"class.gfx::Rect"* %5 to i8*
  call void @llvm.memset.p0i8.i64(i8* nonnull align 4 %37, i8 0, i64 16, i1 false)
  %38 = call %"class.views::Widget"* @_ZN5views6Widget22CreateWindowWithParentENSt3__110unique_ptrINS_14WidgetDelegateENS1_14default_deleteIS3_EEEEPN4aura6WindowERKN3gfx4RectE(%"class.views::WidgetDelegate"* %30, %"class.aura::Window"* %35, %"class.gfx::Rect"* nonnull dereferenceable(16) %5) #6
  call void @_ZN5views15UniqueWidgetPtrC1ENSt3__110unique_ptrINS_6WidgetENS1_14default_deleteIS3_EEEE(%"class.views::UniqueWidgetPtr"* nonnull %4, %"class.views::Widget"* %38) #6
  %39 = call dereferenceable(8) %"class.views::UniqueWidgetPtr"* @_ZN5views15UniqueWidgetPtraSEOS0_(%"class.views::UniqueWidgetPtr"* %10, %"class.views::UniqueWidgetPtr"* nonnull dereferenceable(8) %4) #6
  call void @_ZN5views15UniqueWidgetPtrD1Ev(%"class.views::UniqueWidgetPtr"* nonnull %4) #6
  call void @llvm.lifetime.end.p0i8(i64 16, i8* nonnull %36) #6
  call void @llvm.lifetime.end.p0i8(i64 8, i8* nonnull %29) #6
  %40 = call %"class.views::Widget"* @_ZNK5views15UniqueWidgetPtrptEv(%"class.views::UniqueWidgetPtr"* %10) #6
  call void @_ZN5views6Widget4ShowEv(%"class.views::Widget"* %40) #6
  ret void
}

declare void @_ZN5views15UniqueWidgetPtrC1Ev(%"class.views::UniqueWidgetPtr"*) unnamed_addr #1

; Function Attrs: argmemonly nounwind
declare void @llvm.lifetime.start.p0i8(i64 immarg, i8* nocapture) #2

; Function Attrs: argmemonly nounwind
declare void @llvm.lifetime.end.p0i8(i64 immarg, i8* nocapture) #2

declare %"class.views::Widget"* @_ZN5views6Widget22CreateWindowWithParentENSt3__110unique_ptrINS_14WidgetDelegateENS1_14default_deleteIS3_EEEEPN4aura6WindowERKN3gfx4RectE(%"class.views::WidgetDelegate"*, %"class.aura::Window"*, %"class.gfx::Rect"* dereferenceable(16)) local_unnamed_addr #1

declare %"class.views::WidgetDelegate"* @_ZN5views12ColorChooser18MakeWidgetDelegateEv(%"class.views::ColorChooser"*) local_unnamed_addr #1

; Function Attrs: argmemonly nounwind
declare void @llvm.memset.p0i8.i64(i8* nocapture writeonly, i8, i64, i1 immarg) #2

declare void @_ZN5views15UniqueWidgetPtrC1ENSt3__110unique_ptrINS_6WidgetENS1_14default_deleteIS3_EEEE(%"class.views::UniqueWidgetPtr"*, %"class.views::Widget"*) unnamed_addr #1

declare dereferenceable(8) %"class.views::UniqueWidgetPtr"* @_ZN5views15UniqueWidgetPtraSEOS0_(%"class.views::UniqueWidgetPtr"*, %"class.views::UniqueWidgetPtr"* dereferenceable(8)) local_unnamed_addr #1

; Function Attrs: nounwind
declare void @_ZN5views15UniqueWidgetPtrD1Ev(%"class.views::UniqueWidgetPtr"*) unnamed_addr #3

declare %"class.views::Widget"* @_ZNK5views15UniqueWidgetPtrptEv(%"class.views::UniqueWidgetPtr"*) local_unnamed_addr #1

declare void @_ZN5views6Widget4ShowEv(%"class.views::Widget"*) local_unnamed_addr #1

; Function Attrs: nounwind ssp uwtable
define hidden void @_ZN16ColorChooserAuraD2Ev(%class.ColorChooserAura*) unnamed_addr #0 align 2 {
  %2 = bitcast %class.ColorChooserAura* %0 to <2 x i32 (...)**>*
  store <2 x i32 (...)**> <i32 (...)** bitcast (i8** getelementptr inbounds ({ [8 x i8*], [6 x i8*] }, { [8 x i8*], [6 x i8*] }* @_ZTV16ColorChooserAura, i64 0, inrange i32 0, i64 2) to i32 (...)**), i32 (...)** bitcast (i8** getelementptr inbounds ({ [8 x i8*], [6 x i8*] }, { [8 x i8*], [6 x i8*] }* @_ZTV16ColorChooserAura, i64 0, inrange i32 1, i64 2) to i32 (...)**)>, <2 x i32 (...)**>* %2, align 8
  %3 = getelementptr inbounds %class.ColorChooserAura, %class.ColorChooserAura* %0, i64 0, i32 3
  tail call void @_ZN5views15UniqueWidgetPtrD1Ev(%"class.views::UniqueWidgetPtr"* %3) #6
  %4 = getelementptr inbounds %class.ColorChooserAura, %class.ColorChooserAura* %0, i64 0, i32 2, i32 0, i32 0, i32 0
  %5 = load %"class.views::ColorChooser"*, %"class.views::ColorChooser"** %4, align 8
  store %"class.views::ColorChooser"* null, %"class.views::ColorChooser"** %4, align 8
  %6 = icmp eq %"class.views::ColorChooser"* %5, null
  br i1 %6, label %12, label %7

7:                                                ; preds = %1
  %8 = bitcast %"class.views::ColorChooser"* %5 to void (%"class.views::ColorChooser"*)***
  %9 = load void (%"class.views::ColorChooser"*)**, void (%"class.views::ColorChooser"*)*** %8, align 8
  %10 = getelementptr inbounds void (%"class.views::ColorChooser"*)*, void (%"class.views::ColorChooser"*)** %9, i64 14
  %11 = load void (%"class.views::ColorChooser"*)*, void (%"class.views::ColorChooser"*)** %10, align 8
  tail call void %11(%"class.views::ColorChooser"* nonnull %5) #6
  br label %12

12:                                               ; preds = %1, %7
  ret void
}

; Function Attrs: nounwind ssp uwtable
define hidden void @_ZThn8_N16ColorChooserAuraD1Ev(%class.ColorChooserAura*) unnamed_addr #0 align 2 {
  %2 = getelementptr inbounds %class.ColorChooserAura, %class.ColorChooserAura* %0, i64 -1, i32 4
  %3 = bitcast %"class.content::WebContents"** %2 to <2 x i32 (...)**>*
  store <2 x i32 (...)**> <i32 (...)** bitcast (i8** getelementptr inbounds ({ [8 x i8*], [6 x i8*] }, { [8 x i8*], [6 x i8*] }* @_ZTV16ColorChooserAura, i64 0, inrange i32 0, i64 2) to i32 (...)**), i32 (...)** bitcast (i8** getelementptr inbounds ({ [8 x i8*], [6 x i8*] }, { [8 x i8*], [6 x i8*] }* @_ZTV16ColorChooserAura, i64 0, inrange i32 1, i64 2) to i32 (...)**)>, <2 x i32 (...)**>* %3, align 8
  %4 = getelementptr inbounds %"class.content::WebContents"*, %"class.content::WebContents"** %2, i64 3
  %5 = bitcast %"class.content::WebContents"** %4 to %"class.views::UniqueWidgetPtr"*
  tail call void @_ZN5views15UniqueWidgetPtrD1Ev(%"class.views::UniqueWidgetPtr"* %5) #6
  %6 = getelementptr inbounds %"class.content::WebContents"*, %"class.content::WebContents"** %2, i64 2
  %7 = bitcast %"class.content::WebContents"** %6 to %"class.views::ColorChooser"**
  %8 = load %"class.views::ColorChooser"*, %"class.views::ColorChooser"** %7, align 8
  store %"class.views::ColorChooser"* null, %"class.views::ColorChooser"** %7, align 8
  %9 = icmp eq %"class.views::ColorChooser"* %8, null
  br i1 %9, label %15, label %10

10:                                               ; preds = %1
  %11 = bitcast %"class.views::ColorChooser"* %8 to void (%"class.views::ColorChooser"*)***
  %12 = load void (%"class.views::ColorChooser"*)**, void (%"class.views::ColorChooser"*)*** %11, align 8
  %13 = getelementptr inbounds void (%"class.views::ColorChooser"*)*, void (%"class.views::ColorChooser"*)** %12, i64 14
  %14 = load void (%"class.views::ColorChooser"*)*, void (%"class.views::ColorChooser"*)** %13, align 8
  tail call void %14(%"class.views::ColorChooser"* nonnull %8) #6
  br label %15

15:                                               ; preds = %1, %10
  ret void
}

; Function Attrs: nounwind ssp uwtable
define hidden void @_ZN16ColorChooserAuraD0Ev(%class.ColorChooserAura*) unnamed_addr #0 align 2 {
  %2 = bitcast %class.ColorChooserAura* %0 to <2 x i32 (...)**>*
  store <2 x i32 (...)**> <i32 (...)** bitcast (i8** getelementptr inbounds ({ [8 x i8*], [6 x i8*] }, { [8 x i8*], [6 x i8*] }* @_ZTV16ColorChooserAura, i64 0, inrange i32 0, i64 2) to i32 (...)**), i32 (...)** bitcast (i8** getelementptr inbounds ({ [8 x i8*], [6 x i8*] }, { [8 x i8*], [6 x i8*] }* @_ZTV16ColorChooserAura, i64 0, inrange i32 1, i64 2) to i32 (...)**)>, <2 x i32 (...)**>* %2, align 8
  %3 = getelementptr inbounds %class.ColorChooserAura, %class.ColorChooserAura* %0, i64 0, i32 3
  tail call void @_ZN5views15UniqueWidgetPtrD1Ev(%"class.views::UniqueWidgetPtr"* %3) #6
  %4 = getelementptr inbounds %class.ColorChooserAura, %class.ColorChooserAura* %0, i64 0, i32 2, i32 0, i32 0, i32 0
  %5 = load %"class.views::ColorChooser"*, %"class.views::ColorChooser"** %4, align 8
  store %"class.views::ColorChooser"* null, %"class.views::ColorChooser"** %4, align 8
  %6 = icmp eq %"class.views::ColorChooser"* %5, null
  br i1 %6, label %12, label %7

7:                                                ; preds = %1
  %8 = bitcast %"class.views::ColorChooser"* %5 to void (%"class.views::ColorChooser"*)***
  %9 = load void (%"class.views::ColorChooser"*)**, void (%"class.views::ColorChooser"*)*** %8, align 8
  %10 = getelementptr inbounds void (%"class.views::ColorChooser"*)*, void (%"class.views::ColorChooser"*)** %9, i64 14
  %11 = load void (%"class.views::ColorChooser"*)*, void (%"class.views::ColorChooser"*)** %10, align 8
  tail call void %11(%"class.views::ColorChooser"* nonnull %5) #6
  br label %12

12:                                               ; preds = %1, %7
  %13 = bitcast %class.ColorChooserAura* %0 to i8*
  tail call void @_ZdlPv(i8* %13) #7
  ret void
}

; Function Attrs: nobuiltin nounwind
declare void @_ZdlPv(i8*) local_unnamed_addr #4

; Function Attrs: nounwind ssp uwtable
define hidden void @_ZThn8_N16ColorChooserAuraD0Ev(%class.ColorChooserAura*) unnamed_addr #0 align 2 {
  %2 = getelementptr inbounds %class.ColorChooserAura, %class.ColorChooserAura* %0, i64 -1, i32 4
  %3 = bitcast %"class.content::WebContents"** %2 to <2 x i32 (...)**>*
  store <2 x i32 (...)**> <i32 (...)** bitcast (i8** getelementptr inbounds ({ [8 x i8*], [6 x i8*] }, { [8 x i8*], [6 x i8*] }* @_ZTV16ColorChooserAura, i64 0, inrange i32 0, i64 2) to i32 (...)**), i32 (...)** bitcast (i8** getelementptr inbounds ({ [8 x i8*], [6 x i8*] }, { [8 x i8*], [6 x i8*] }* @_ZTV16ColorChooserAura, i64 0, inrange i32 1, i64 2) to i32 (...)**)>, <2 x i32 (...)**>* %3, align 8
  %4 = getelementptr inbounds %"class.content::WebContents"*, %"class.content::WebContents"** %2, i64 3
  %5 = bitcast %"class.content::WebContents"** %4 to %"class.views::UniqueWidgetPtr"*
  tail call void @_ZN5views15UniqueWidgetPtrD1Ev(%"class.views::UniqueWidgetPtr"* %5) #6
  %6 = getelementptr inbounds %"class.content::WebContents"*, %"class.content::WebContents"** %2, i64 2
  %7 = bitcast %"class.content::WebContents"** %6 to %"class.views::ColorChooser"**
  %8 = load %"class.views::ColorChooser"*, %"class.views::ColorChooser"** %7, align 8
  store %"class.views::ColorChooser"* null, %"class.views::ColorChooser"** %7, align 8
  %9 = icmp eq %"class.views::ColorChooser"* %8, null
  br i1 %9, label %15, label %10

10:                                               ; preds = %1
  %11 = bitcast %"class.views::ColorChooser"* %8 to void (%"class.views::ColorChooser"*)***
  %12 = load void (%"class.views::ColorChooser"*)**, void (%"class.views::ColorChooser"*)*** %11, align 8
  %13 = getelementptr inbounds void (%"class.views::ColorChooser"*)*, void (%"class.views::ColorChooser"*)** %12, i64 14
  %14 = load void (%"class.views::ColorChooser"*)*, void (%"class.views::ColorChooser"*)** %13, align 8
  tail call void %14(%"class.views::ColorChooser"* nonnull %8) #6
  br label %15

15:                                               ; preds = %1, %10
  %16 = bitcast %"class.content::WebContents"** %2 to i8*
  tail call void @_ZdlPv(i8* %16) #7
  ret void
}

; Function Attrs: nounwind ssp uwtable
define hidden void @_ZN16ColorChooserAura13OnColorChosenEj(%class.ColorChooserAura* nocapture readonly, i32) unnamed_addr #0 align 2 {
  %3 = getelementptr inbounds %class.ColorChooserAura, %class.ColorChooserAura* %0, i64 0, i32 4
  %4 = load %"class.content::WebContents"*, %"class.content::WebContents"** %3, align 8
  %5 = icmp eq %"class.content::WebContents"* %4, null
  br i1 %5, label %11, label %6

6:                                                ; preds = %2
  %7 = bitcast %"class.content::WebContents"* %4 to void (%"class.content::WebContents"*, i32)***
  %8 = load void (%"class.content::WebContents"*, i32)**, void (%"class.content::WebContents"*, i32)*** %7, align 8
  %9 = getelementptr inbounds void (%"class.content::WebContents"*, i32)*, void (%"class.content::WebContents"*, i32)** %8, i64 145
  %10 = load void (%"class.content::WebContents"*, i32)*, void (%"class.content::WebContents"*, i32)** %9, align 8
  tail call void %10(%"class.content::WebContents"* nonnull %4, i32 %1) #6
  br label %11

11:                                               ; preds = %2, %6
  ret void
}

; Function Attrs: nounwind ssp uwtable
define hidden void @_ZThn8_N16ColorChooserAura13OnColorChosenEj(%class.ColorChooserAura* nocapture readonly, i32) unnamed_addr #0 align 2 {
  %3 = getelementptr inbounds %class.ColorChooserAura, %class.ColorChooserAura* %0, i64 -1, i32 4
  %4 = getelementptr inbounds %"class.content::WebContents"*, %"class.content::WebContents"** %3, i64 4
  %5 = load %"class.content::WebContents"*, %"class.content::WebContents"** %4, align 8
  %6 = icmp eq %"class.content::WebContents"* %5, null
  br i1 %6, label %12, label %7

7:                                                ; preds = %2
  %8 = bitcast %"class.content::WebContents"* %5 to void (%"class.content::WebContents"*, i32)***
  %9 = load void (%"class.content::WebContents"*, i32)**, void (%"class.content::WebContents"*, i32)*** %8, align 8
  %10 = getelementptr inbounds void (%"class.content::WebContents"*, i32)*, void (%"class.content::WebContents"*, i32)** %9, i64 145
  %11 = load void (%"class.content::WebContents"*, i32)*, void (%"class.content::WebContents"*, i32)** %10, align 8
  tail call void %11(%"class.content::WebContents"* nonnull %5, i32 %1) #6
  br label %12

12:                                               ; preds = %2, %7
  ret void
}

; Function Attrs: nounwind ssp uwtable
define hidden void @_ZN16ColorChooserAura26OnColorChooserDialogClosedEv(%class.ColorChooserAura* nocapture readonly) unnamed_addr #0 align 2 {
  %2 = getelementptr inbounds %class.ColorChooserAura, %class.ColorChooserAura* %0, i64 0, i32 4
  %3 = load %"class.content::WebContents"*, %"class.content::WebContents"** %2, align 8
  %4 = icmp eq %"class.content::WebContents"* %3, null
  br i1 %4, label %10, label %5

5:                                                ; preds = %1
  %6 = bitcast %"class.content::WebContents"* %3 to void (%"class.content::WebContents"*)***
  %7 = load void (%"class.content::WebContents"*)**, void (%"class.content::WebContents"*)*** %6, align 8
  %8 = getelementptr inbounds void (%"class.content::WebContents"*)*, void (%"class.content::WebContents"*)** %7, i64 146
  %9 = load void (%"class.content::WebContents"*)*, void (%"class.content::WebContents"*)** %8, align 8
  tail call void %9(%"class.content::WebContents"* nonnull %3) #6
  br label %10

10:                                               ; preds = %1, %5
  ret void
}

; Function Attrs: nounwind ssp uwtable
define hidden void @_ZN16ColorChooserAura18DidEndColorChooserEv(%class.ColorChooserAura* nocapture readonly) local_unnamed_addr #0 align 2 {
  %2 = getelementptr inbounds %class.ColorChooserAura, %class.ColorChooserAura* %0, i64 0, i32 4
  %3 = load %"class.content::WebContents"*, %"class.content::WebContents"** %2, align 8
  %4 = icmp eq %"class.content::WebContents"* %3, null
  br i1 %4, label %10, label %5

5:                                                ; preds = %1
  %6 = bitcast %"class.content::WebContents"* %3 to void (%"class.content::WebContents"*)***
  %7 = load void (%"class.content::WebContents"*)**, void (%"class.content::WebContents"*)*** %6, align 8
  %8 = getelementptr inbounds void (%"class.content::WebContents"*)*, void (%"class.content::WebContents"*)** %7, i64 146
  %9 = load void (%"class.content::WebContents"*)*, void (%"class.content::WebContents"*)** %8, align 8
  tail call void %9(%"class.content::WebContents"* nonnull %3) #6
  br label %10

10:                                               ; preds = %1, %5
  ret void
}

; Function Attrs: nounwind ssp uwtable
define hidden void @_ZThn8_N16ColorChooserAura26OnColorChooserDialogClosedEv(%class.ColorChooserAura* nocapture readonly) unnamed_addr #0 align 2 {
  %2 = getelementptr inbounds %class.ColorChooserAura, %class.ColorChooserAura* %0, i64 -1, i32 4
  %3 = getelementptr inbounds %"class.content::WebContents"*, %"class.content::WebContents"** %2, i64 4
  %4 = load %"class.content::WebContents"*, %"class.content::WebContents"** %3, align 8
  %5 = icmp eq %"class.content::WebContents"* %4, null
  br i1 %5, label %11, label %6

6:                                                ; preds = %1
  %7 = bitcast %"class.content::WebContents"* %4 to void (%"class.content::WebContents"*)***
  %8 = load void (%"class.content::WebContents"*)**, void (%"class.content::WebContents"*)*** %7, align 8
  %9 = getelementptr inbounds void (%"class.content::WebContents"*)*, void (%"class.content::WebContents"*)** %8, i64 146
  %10 = load void (%"class.content::WebContents"*)*, void (%"class.content::WebContents"*)** %9, align 8
  tail call void %10(%"class.content::WebContents"* nonnull %4) #6
  br label %11

11:                                               ; preds = %1, %6
  ret void
}

; Function Attrs: nounwind ssp uwtable
define hidden void @_ZN16ColorChooserAura3EndEv(%class.ColorChooserAura*) unnamed_addr #0 align 2 {
  %2 = getelementptr inbounds %class.ColorChooserAura, %class.ColorChooserAura* %0, i64 0, i32 3
  %3 = tail call zeroext i1 @_ZNK5views15UniqueWidgetPtrcvbEv(%"class.views::UniqueWidgetPtr"* %2) #6
  br i1 %3, label %4, label %13

4:                                                ; preds = %1
  %5 = getelementptr inbounds %class.ColorChooserAura, %class.ColorChooserAura* %0, i64 0, i32 4
  %6 = load %"class.content::WebContents"*, %"class.content::WebContents"** %5, align 8
  %7 = icmp eq %"class.content::WebContents"* %6, null
  br i1 %7, label %13, label %8

8:                                                ; preds = %4
  %9 = bitcast %"class.content::WebContents"* %6 to void (%"class.content::WebContents"*)***
  %10 = load void (%"class.content::WebContents"*)**, void (%"class.content::WebContents"*)*** %9, align 8
  %11 = getelementptr inbounds void (%"class.content::WebContents"*)*, void (%"class.content::WebContents"*)** %10, i64 146
  %12 = load void (%"class.content::WebContents"*)*, void (%"class.content::WebContents"*)** %11, align 8
  tail call void %12(%"class.content::WebContents"* nonnull %6) #6
  br label %13

13:                                               ; preds = %8, %4, %1
  ret void
}

declare zeroext i1 @_ZNK5views15UniqueWidgetPtrcvbEv(%"class.views::UniqueWidgetPtr"*) local_unnamed_addr #1

; Function Attrs: nounwind ssp uwtable
define hidden void @_ZN16ColorChooserAura16SetSelectedColorEj(%class.ColorChooserAura* nocapture readonly, i32) unnamed_addr #0 align 2 {
  %3 = getelementptr inbounds %class.ColorChooserAura, %class.ColorChooserAura* %0, i64 0, i32 2, i32 0, i32 0, i32 0
  %4 = load %"class.views::ColorChooser"*, %"class.views::ColorChooser"** %3, align 8
  tail call void @_ZN5views12ColorChooser14OnColorChangedEj(%"class.views::ColorChooser"* %4, i32 %1) #6
  ret void
}

declare void @_ZN5views12ColorChooser14OnColorChangedEj(%"class.views::ColorChooser"*, i32) local_unnamed_addr #1

; Function Attrs: nounwind ssp uwtable
define hidden nonnull %class.ColorChooserAura* @_ZN16ColorChooserAura4OpenEPN7content11WebContentsEj(%"class.content::WebContents"*, i32) local_unnamed_addr #0 align 2 {
  %3 = tail call i8* @_Znwm(i64 40) #7
  %4 = bitcast i8* %3 to %class.ColorChooserAura*
  tail call void @_ZN16ColorChooserAuraC2EPN7content11WebContentsEj(%class.ColorChooserAura* nonnull %4, %"class.content::WebContents"* %0, i32 %1)
  ret %class.ColorChooserAura* %4
}

; Function Attrs: nobuiltin nofree
declare noalias nonnull i8* @_Znwm(i64) local_unnamed_addr #5

; Function Attrs: nounwind ssp uwtable
define hidden nonnull %"class.content::ColorChooser"* @_ZN6chrome16ShowColorChooserEPN7content11WebContentsEj(%"class.content::WebContents"*, i32) local_unnamed_addr #0 {
  %3 = tail call i8* @_Znwm(i64 40) #7
  %4 = bitcast i8* %3 to %class.ColorChooserAura*
  tail call void @_ZN16ColorChooserAuraC2EPN7content11WebContentsEj(%class.ColorChooserAura* nonnull %4, %"class.content::WebContents"* %0, i32 %1) #6
  %5 = bitcast i8* %3 to %"class.content::ColorChooser"*
  ret %"class.content::ColorChooser"* %5
}

declare void @_ZN5views12ColorChooserC1EPNS_20ColorChooserListenerEj(%"class.views::ColorChooser"*, %"class.views::ColorChooserListener"*, i32) unnamed_addr #1

attributes #0 = { nounwind ssp uwtable "correctly-rounded-divide-sqrt-fp-math"="false" "disable-tail-calls"="false" "less-precise-fpmad"="false" "min-legal-vector-width"="0" "no-frame-pointer-elim"="false" "no-frame-pointer-elim-non-leaf" "no-infs-fp-math"="false" "no-jump-tables"="false" "no-nans-fp-math"="false" "no-signed-zeros-fp-math"="false" "no-trapping-math"="false" "null-pointer-is-valid"="true" "stack-protector-buffer-size"="4" "target-cpu"="x86-64" "target-features"="+cx8,+fxsr,+mmx,+sse,+sse2,+sse3,+x87" "unsafe-fp-math"="false" "use-soft-float"="false" }
attributes #1 = { "correctly-rounded-divide-sqrt-fp-math"="false" "disable-tail-calls"="false" "less-precise-fpmad"="false" "no-frame-pointer-elim"="false" "no-frame-pointer-elim-non-leaf" "no-infs-fp-math"="false" "no-nans-fp-math"="false" "no-signed-zeros-fp-math"="false" "no-trapping-math"="false" "null-pointer-is-valid"="true" "stack-protector-buffer-size"="4" "target-cpu"="x86-64" "target-features"="+cx8,+fxsr,+mmx,+sse,+sse2,+sse3,+x87" "unsafe-fp-math"="false" "use-soft-float"="false" }
attributes #2 = { argmemonly nounwind }
attributes #3 = { nounwind "correctly-rounded-divide-sqrt-fp-math"="false" "disable-tail-calls"="false" "less-precise-fpmad"="false" "no-frame-pointer-elim"="false" "no-frame-pointer-elim-non-leaf" "no-infs-fp-math"="false" "no-nans-fp-math"="false" "no-signed-zeros-fp-math"="false" "no-trapping-math"="false" "null-pointer-is-valid"="true" "stack-protector-buffer-size"="4" "target-cpu"="x86-64" "target-features"="+cx8,+fxsr,+mmx,+sse,+sse2,+sse3,+x87" "unsafe-fp-math"="false" "use-soft-float"="false" }
attributes #4 = { nobuiltin nounwind "correctly-rounded-divide-sqrt-fp-math"="false" "disable-tail-calls"="false" "less-precise-fpmad"="false" "no-frame-pointer-elim"="false" "no-frame-pointer-elim-non-leaf" "no-infs-fp-math"="false" "no-nans-fp-math"="false" "no-signed-zeros-fp-math"="false" "no-trapping-math"="false" "null-pointer-is-valid"="true" "stack-protector-buffer-size"="4" "target-cpu"="x86-64" "target-features"="+cx8,+fxsr,+mmx,+sse,+sse2,+sse3,+x87" "unsafe-fp-math"="false" "use-soft-float"="false" }
attributes #5 = { nobuiltin nofree "correctly-rounded-divide-sqrt-fp-math"="false" "disable-tail-calls"="false" "less-precise-fpmad"="false" "no-frame-pointer-elim"="false" "no-frame-pointer-elim-non-leaf" "no-infs-fp-math"="false" "no-nans-fp-math"="false" "no-signed-zeros-fp-math"="false" "no-trapping-math"="false" "null-pointer-is-valid"="true" "stack-protector-buffer-size"="4" "target-cpu"="x86-64" "target-features"="+cx8,+fxsr,+mmx,+sse,+sse2,+sse3,+x87" "unsafe-fp-math"="false" "use-soft-float"="false" }
attributes #6 = { nounwind }
attributes #7 = { builtin nounwind }

!llvm.module.flags = !{!0, !1}

!0 = !{i32 1, !"wchar_size", i32 4}
!1 = !{i32 7, !"PIC Level", i32 2}
