; ModuleID = '../../v8/src/compiler/common-operator.cc'
source_filename = "../../v8/src/compiler/common-operator.cc"
target datalayout = "e-m:e-i64:64-f80:128-n8:16:32:64-S128"
target triple = "x86_64-unknown-linux-gnu"

module asm ".symver exp, exp@GLIBC_2.2.5"
module asm ".symver exp2, exp2@GLIBC_2.2.5"
module asm ".symver exp2f, exp2f@GLIBC_2.2.5"
module asm ".symver expf, expf@GLIBC_2.2.5"
module asm ".symver lgamma, lgamma@GLIBC_2.2.5"
module asm ".symver lgammaf, lgammaf@GLIBC_2.2.5"
module asm ".symver lgammal, lgammal@GLIBC_2.2.5"
module asm ".symver log, log@GLIBC_2.2.5"
module asm ".symver log2, log2@GLIBC_2.2.5"
module asm ".symver log2f, log2f@GLIBC_2.2.5"
module asm ".symver logf, logf@GLIBC_2.2.5"
module asm ".symver pow, pow@GLIBC_2.2.5"
module asm ".symver powf, powf@GLIBC_2.2.5"

%"class.v8::base::LeakyObject" = type { %"struct.std::__1::aligned_storage<7256, 8>::type" }
%"struct.std::__1::aligned_storage<7256, 8>::type" = type { [7256 x i8] }
%"class.std::__1::locale::id" = type <{ %"struct.std::__1::once_flag", i32, [4 x i8] }>
%"struct.std::__1::once_flag" = type { i64 }
%"class.v8::internal::compiler::SparseInputMask::InputIterator" = type <{ i32, [4 x i8], %"class.v8::internal::compiler::Node"*, i32, [4 x i8] }>
%"class.v8::internal::compiler::Node" = type { %"class.v8::internal::compiler::Operator"*, %"class.v8::internal::compiler::Type", i32, i32, %"struct.v8::internal::compiler::Node::Use"* }
%"class.v8::internal::compiler::Operator" = type <{ i32 (...)**, i8*, i16, %"class.v8::base::Flags", i8, i32, i32, i32, i32, i8, [3 x i8], i32, [4 x i8] }>
%"class.v8::base::Flags" = type { i8 }
%"class.v8::internal::compiler::Type" = type { i64 }
%"struct.v8::internal::compiler::Node::Use" = type { %"struct.v8::internal::compiler::Node::Use"*, %"struct.v8::internal::compiler::Node::Use"*, i32 }
%"class.v8::internal::compiler::CommonOperatorBuilder" = type { %"struct.v8::internal::compiler::CommonOperatorGlobalCache"*, %"class.v8::internal::Zone"* }
%"struct.v8::internal::compiler::CommonOperatorGlobalCache" = type { %"struct.v8::internal::compiler::CommonOperatorGlobalCache::DeadOperator", %"struct.v8::internal::compiler::CommonOperatorGlobalCache::UnreachableOperator", %"struct.v8::internal::compiler::CommonOperatorGlobalCache::IfTrueOperator", %"struct.v8::internal::compiler::CommonOperatorGlobalCache::IfFalseOperator", %"struct.v8::internal::compiler::CommonOperatorGlobalCache::IfSuccessOperator", %"struct.v8::internal::compiler::CommonOperatorGlobalCache::IfExceptionOperator", %"struct.v8::internal::compiler::CommonOperatorGlobalCache::ThrowOperator", %"struct.v8::internal::compiler::CommonOperatorGlobalCache::TerminateOperator", %"struct.v8::internal::compiler::CommonOperatorGlobalCache::LoopExitOperator", %"struct.v8::internal::compiler::CommonOperatorGlobalCache::LoopExitEffectOperator", %"struct.v8::internal::compiler::CommonOperatorGlobalCache::CheckpointOperator", %"struct.v8::internal::compiler::CommonOperatorGlobalCache::FinishRegionOperator", %"struct.v8::internal::compiler::CommonOperatorGlobalCache::RetainOperator", %"struct.v8::internal::compiler::CommonOperatorGlobalCache::EndOperator", %"struct.v8::internal::compiler::CommonOperatorGlobalCache::EndOperator.0", %"struct.v8::internal::compiler::CommonOperatorGlobalCache::EndOperator.1", %"struct.v8::internal::compiler::CommonOperatorGlobalCache::EndOperator.2", %"struct.v8::internal::compiler::CommonOperatorGlobalCache::EndOperator.3", %"struct.v8::internal::compiler::CommonOperatorGlobalCache::EndOperator.4", %"struct.v8::internal::compiler::CommonOperatorGlobalCache::EndOperator.5", %"struct.v8::internal::compiler::CommonOperatorGlobalCache::EndOperator.6", %"struct.v8::internal::compiler::CommonOperatorGlobalCache::ReturnOperator", %"struct.v8::internal::compiler::CommonOperatorGlobalCache::ReturnOperator.7", %"struct.v8::internal::compiler::CommonOperatorGlobalCache::ReturnOperator.8", %"struct.v8::internal::compiler::CommonOperatorGlobalCache::ReturnOperator.9", %"struct.v8::internal::compiler::CommonOperatorGlobalCache::BranchOperator", %"struct.v8::internal::compiler::CommonOperatorGlobalCache::BranchOperator.10", %"struct.v8::internal::compiler::CommonOperatorGlobalCache::BranchOperator.11", %"struct.v8::internal::compiler::CommonOperatorGlobalCache::BranchOperator.12", %"struct.v8::internal::compiler::CommonOperatorGlobalCache::BranchOperator.13", %"struct.v8::internal::compiler::CommonOperatorGlobalCache::BranchOperator.14", %"struct.v8::internal::compiler::CommonOperatorGlobalCache::BranchOperator.15", %"struct.v8::internal::compiler::CommonOperatorGlobalCache::BranchOperator.16", %"struct.v8::internal::compiler::CommonOperatorGlobalCache::BranchOperator.17", %"struct.v8::internal::compiler::CommonOperatorGlobalCache::EffectPhiOperator", %"struct.v8::internal::compiler::CommonOperatorGlobalCache::EffectPhiOperator.18", %"struct.v8::internal::compiler::CommonOperatorGlobalCache::EffectPhiOperator.19", %"struct.v8::internal::compiler::CommonOperatorGlobalCache::EffectPhiOperator.20", %"struct.v8::internal::compiler::CommonOperatorGlobalCache::EffectPhiOperator.21", %"struct.v8::internal::compiler::CommonOperatorGlobalCache::EffectPhiOperator.22", %"struct.v8::internal::compiler::CommonOperatorGlobalCache::BeginRegionOperator", %"struct.v8::internal::compiler::CommonOperatorGlobalCache::BeginRegionOperator.29", %"struct.v8::internal::compiler::CommonOperatorGlobalCache::LoopOperator", %"struct.v8::internal::compiler::CommonOperatorGlobalCache::LoopOperator.30", %"struct.v8::internal::compiler::CommonOperatorGlobalCache::MergeOperator", %"struct.v8::internal::compiler::CommonOperatorGlobalCache::MergeOperator.31", %"struct.v8::internal::compiler::CommonOperatorGlobalCache::MergeOperator.32", %"struct.v8::internal::compiler::CommonOperatorGlobalCache::MergeOperator.33", %"struct.v8::internal::compiler::CommonOperatorGlobalCache::MergeOperator.34", %"struct.v8::internal::compiler::CommonOperatorGlobalCache::MergeOperator.35", %"struct.v8::internal::compiler::CommonOperatorGlobalCache::MergeOperator.36", %"struct.v8::internal::compiler::CommonOperatorGlobalCache::MergeOperator.37", %"struct.v8::internal::compiler::CommonOperatorGlobalCache::LoopExitValueOperator", %"struct.v8::internal::compiler::CommonOperatorGlobalCache::DeoptimizeOperator", %"struct.v8::internal::compiler::CommonOperatorGlobalCache::DeoptimizeOperator.52", %"struct.v8::internal::compiler::CommonOperatorGlobalCache::DeoptimizeOperator.53", %"struct.v8::internal::compiler::CommonOperatorGlobalCache::DeoptimizeOperator.54", %"struct.v8::internal::compiler::CommonOperatorGlobalCache::DeoptimizeIfOperator", %"struct.v8::internal::compiler::CommonOperatorGlobalCache::DeoptimizeIfOperator.55", %"struct.v8::internal::compiler::CommonOperatorGlobalCache::DeoptimizeIfOperator.56", %"struct.v8::internal::compiler::CommonOperatorGlobalCache::DeoptimizeIfOperator.57", %"struct.v8::internal::compiler::CommonOperatorGlobalCache::DeoptimizeIfOperator.58", %"struct.v8::internal::compiler::CommonOperatorGlobalCache::DeoptimizeIfOperator.59", %"struct.v8::internal::compiler::CommonOperatorGlobalCache::DeoptimizeIfOperator.60", %"struct.v8::internal::compiler::CommonOperatorGlobalCache::DeoptimizeIfOperator.61", %"struct.v8::internal::compiler::CommonOperatorGlobalCache::DeoptimizeIfOperator.62", %"struct.v8::internal::compiler::CommonOperatorGlobalCache::DeoptimizeUnlessOperator", %"struct.v8::internal::compiler::CommonOperatorGlobalCache::DeoptimizeUnlessOperator.63", %"struct.v8::internal::compiler::CommonOperatorGlobalCache::DeoptimizeUnlessOperator.64", %"struct.v8::internal::compiler::CommonOperatorGlobalCache::DeoptimizeUnlessOperator.65", %"struct.v8::internal::compiler::CommonOperatorGlobalCache::DeoptimizeUnlessOperator.66", %"struct.v8::internal::compiler::CommonOperatorGlobalCache::DeoptimizeUnlessOperator.67", %"struct.v8::internal::compiler::CommonOperatorGlobalCache::DeoptimizeUnlessOperator.68", %"struct.v8::internal::compiler::CommonOperatorGlobalCache::DeoptimizeUnlessOperator.69", %"struct.v8::internal::compiler::CommonOperatorGlobalCache::DeoptimizeUnlessOperator.70", %"struct.v8::internal::compiler::CommonOperatorGlobalCache::DeoptimizeUnlessOperator.71", %"struct.v8::internal::compiler::CommonOperatorGlobalCache::DynamicMapCheckOperator", %"struct.v8::internal::compiler::CommonOperatorGlobalCache::TrapIfOperator", %"struct.v8::internal::compiler::CommonOperatorGlobalCache::TrapIfOperator.79", %"struct.v8::internal::compiler::CommonOperatorGlobalCache::TrapUnlessOperator", %"struct.v8::internal::compiler::CommonOperatorGlobalCache::TrapUnlessOperator.80", %"struct.v8::internal::compiler::CommonOperatorGlobalCache::TrapUnlessOperator.81", %"struct.v8::internal::compiler::CommonOperatorGlobalCache::TrapUnlessOperator.82", %"struct.v8::internal::compiler::CommonOperatorGlobalCache::TrapUnlessOperator.83", %"struct.v8::internal::compiler::CommonOperatorGlobalCache::TrapUnlessOperator.84", %"struct.v8::internal::compiler::CommonOperatorGlobalCache::TrapUnlessOperator.85", %"struct.v8::internal::compiler::CommonOperatorGlobalCache::TrapUnlessOperator.86", %"struct.v8::internal::compiler::CommonOperatorGlobalCache::PhiOperator", %"struct.v8::internal::compiler::CommonOperatorGlobalCache::PhiOperator.87", %"struct.v8::internal::compiler::CommonOperatorGlobalCache::PhiOperator.88", %"struct.v8::internal::compiler::CommonOperatorGlobalCache::PhiOperator.89", %"struct.v8::internal::compiler::CommonOperatorGlobalCache::PhiOperator.90", %"struct.v8::internal::compiler::CommonOperatorGlobalCache::PhiOperator.91", %"struct.v8::internal::compiler::CommonOperatorGlobalCache::PhiOperator.92", %"struct.v8::internal::compiler::CommonOperatorGlobalCache::PhiOperator.93", %"struct.v8::internal::compiler::CommonOperatorGlobalCache::PhiOperator.94", %"struct.v8::internal::compiler::CommonOperatorGlobalCache::InductionVariablePhiOperator", %"struct.v8::internal::compiler::CommonOperatorGlobalCache::InductionVariablePhiOperator.95", %"struct.v8::internal::compiler::CommonOperatorGlobalCache::InductionVariablePhiOperator.96", %"struct.v8::internal::compiler::CommonOperatorGlobalCache::InductionVariablePhiOperator.97", %"struct.v8::internal::compiler::CommonOperatorGlobalCache::ParameterOperator", %"struct.v8::internal::compiler::CommonOperatorGlobalCache::ParameterOperator.105", %"struct.v8::internal::compiler::CommonOperatorGlobalCache::ParameterOperator.106", %"struct.v8::internal::compiler::CommonOperatorGlobalCache::ParameterOperator.107", %"struct.v8::internal::compiler::CommonOperatorGlobalCache::ParameterOperator.108", %"struct.v8::internal::compiler::CommonOperatorGlobalCache::ParameterOperator.109", %"struct.v8::internal::compiler::CommonOperatorGlobalCache::ParameterOperator.110", %"struct.v8::internal::compiler::CommonOperatorGlobalCache::ProjectionOperator", %"struct.v8::internal::compiler::CommonOperatorGlobalCache::ProjectionOperator.118", %"struct.v8::internal::compiler::CommonOperatorGlobalCache::StateValuesOperator", %"struct.v8::internal::compiler::CommonOperatorGlobalCache::StateValuesOperator.126", %"struct.v8::internal::compiler::CommonOperatorGlobalCache::StateValuesOperator.127", %"struct.v8::internal::compiler::CommonOperatorGlobalCache::StateValuesOperator.128", %"struct.v8::internal::compiler::CommonOperatorGlobalCache::StateValuesOperator.129", %"struct.v8::internal::compiler::CommonOperatorGlobalCache::StateValuesOperator.130", %"struct.v8::internal::compiler::CommonOperatorGlobalCache::StateValuesOperator.131", %"struct.v8::internal::compiler::CommonOperatorGlobalCache::StateValuesOperator.132", %"struct.v8::internal::compiler::CommonOperatorGlobalCache::StateValuesOperator.133", %"struct.v8::internal::compiler::CommonOperatorGlobalCache::StateValuesOperator.134", %"struct.v8::internal::compiler::CommonOperatorGlobalCache::StateValuesOperator.135", %"struct.v8::internal::compiler::CommonOperatorGlobalCache::StateValuesOperator.136", %"struct.v8::internal::compiler::CommonOperatorGlobalCache::StateValuesOperator.137", %"struct.v8::internal::compiler::CommonOperatorGlobalCache::StateValuesOperator.138" }
%"struct.v8::internal::compiler::CommonOperatorGlobalCache::DeadOperator" = type { %"class.v8::internal::compiler::Operator.base", [4 x i8] }
%"class.v8::internal::compiler::Operator.base" = type <{ i32 (...)**, i8*, i16, %"class.v8::base::Flags", i8, i32, i32, i32, i32, i8, [3 x i8], i32 }>
%"struct.v8::internal::compiler::CommonOperatorGlobalCache::UnreachableOperator" = type { %"class.v8::internal::compiler::Operator.base", [4 x i8] }
%"struct.v8::internal::compiler::CommonOperatorGlobalCache::IfTrueOperator" = type { %"class.v8::internal::compiler::Operator.base", [4 x i8] }
%"struct.v8::internal::compiler::CommonOperatorGlobalCache::IfFalseOperator" = type { %"class.v8::internal::compiler::Operator.base", [4 x i8] }
%"struct.v8::internal::compiler::CommonOperatorGlobalCache::IfSuccessOperator" = type { %"class.v8::internal::compiler::Operator.base", [4 x i8] }
%"struct.v8::internal::compiler::CommonOperatorGlobalCache::IfExceptionOperator" = type { %"class.v8::internal::compiler::Operator.base", [4 x i8] }
%"struct.v8::internal::compiler::CommonOperatorGlobalCache::ThrowOperator" = type { %"class.v8::internal::compiler::Operator.base", [4 x i8] }
%"struct.v8::internal::compiler::CommonOperatorGlobalCache::TerminateOperator" = type { %"class.v8::internal::compiler::Operator.base", [4 x i8] }
%"struct.v8::internal::compiler::CommonOperatorGlobalCache::LoopExitOperator" = type { %"class.v8::internal::compiler::Operator.base", [4 x i8] }
%"struct.v8::internal::compiler::CommonOperatorGlobalCache::LoopExitEffectOperator" = type { %"class.v8::internal::compiler::Operator.base", [4 x i8] }
%"struct.v8::internal::compiler::CommonOperatorGlobalCache::CheckpointOperator" = type { %"class.v8::internal::compiler::Operator.base", [4 x i8] }
%"struct.v8::internal::compiler::CommonOperatorGlobalCache::FinishRegionOperator" = type { %"class.v8::internal::compiler::Operator.base", [4 x i8] }
%"struct.v8::internal::compiler::CommonOperatorGlobalCache::RetainOperator" = type { %"class.v8::internal::compiler::Operator.base", [4 x i8] }
%"struct.v8::internal::compiler::CommonOperatorGlobalCache::EndOperator" = type { %"class.v8::internal::compiler::Operator.base", [4 x i8] }
%"struct.v8::internal::compiler::CommonOperatorGlobalCache::EndOperator.0" = type { %"class.v8::internal::compiler::Operator.base", [4 x i8] }
%"struct.v8::internal::compiler::CommonOperatorGlobalCache::EndOperator.1" = type { %"class.v8::internal::compiler::Operator.base", [4 x i8] }
%"struct.v8::internal::compiler::CommonOperatorGlobalCache::EndOperator.2" = type { %"class.v8::internal::compiler::Operator.base", [4 x i8] }
%"struct.v8::internal::compiler::CommonOperatorGlobalCache::EndOperator.3" = type { %"class.v8::internal::compiler::Operator.base", [4 x i8] }
%"struct.v8::internal::compiler::CommonOperatorGlobalCache::EndOperator.4" = type { %"class.v8::internal::compiler::Operator.base", [4 x i8] }
%"struct.v8::internal::compiler::CommonOperatorGlobalCache::EndOperator.5" = type { %"class.v8::internal::compiler::Operator.base", [4 x i8] }
%"struct.v8::internal::compiler::CommonOperatorGlobalCache::EndOperator.6" = type { %"class.v8::internal::compiler::Operator.base", [4 x i8] }
%"struct.v8::internal::compiler::CommonOperatorGlobalCache::ReturnOperator" = type { %"class.v8::internal::compiler::Operator.base", [4 x i8] }
%"struct.v8::internal::compiler::CommonOperatorGlobalCache::ReturnOperator.7" = type { %"class.v8::internal::compiler::Operator.base", [4 x i8] }
%"struct.v8::internal::compiler::CommonOperatorGlobalCache::ReturnOperator.8" = type { %"class.v8::internal::compiler::Operator.base", [4 x i8] }
%"struct.v8::internal::compiler::CommonOperatorGlobalCache::ReturnOperator.9" = type { %"class.v8::internal::compiler::Operator.base", [4 x i8] }
%"struct.v8::internal::compiler::CommonOperatorGlobalCache::BranchOperator" = type { %"class.v8::internal::compiler::Operator1" }
%"class.v8::internal::compiler::Operator1" = type { %"class.v8::internal::compiler::Operator.base", %"struct.v8::internal::compiler::BranchOperatorInfo", %"struct.v8::internal::compiler::OpEqualTo", %"struct.v8::internal::compiler::OpHash" }
%"struct.v8::internal::compiler::BranchOperatorInfo" = type { i8, i8 }
%"struct.v8::internal::compiler::OpEqualTo" = type { i8 }
%"struct.v8::internal::compiler::OpHash" = type { i8 }
%"struct.v8::internal::compiler::CommonOperatorGlobalCache::BranchOperator.10" = type { %"class.v8::internal::compiler::Operator1" }
%"struct.v8::internal::compiler::CommonOperatorGlobalCache::BranchOperator.11" = type { %"class.v8::internal::compiler::Operator1" }
%"struct.v8::internal::compiler::CommonOperatorGlobalCache::BranchOperator.12" = type { %"class.v8::internal::compiler::Operator1" }
%"struct.v8::internal::compiler::CommonOperatorGlobalCache::BranchOperator.13" = type { %"class.v8::internal::compiler::Operator1" }
%"struct.v8::internal::compiler::CommonOperatorGlobalCache::BranchOperator.14" = type { %"class.v8::internal::compiler::Operator1" }
%"struct.v8::internal::compiler::CommonOperatorGlobalCache::BranchOperator.15" = type { %"class.v8::internal::compiler::Operator1" }
%"struct.v8::internal::compiler::CommonOperatorGlobalCache::BranchOperator.16" = type { %"class.v8::internal::compiler::Operator1" }
%"struct.v8::internal::compiler::CommonOperatorGlobalCache::BranchOperator.17" = type { %"class.v8::internal::compiler::Operator1" }
%"struct.v8::internal::compiler::CommonOperatorGlobalCache::EffectPhiOperator" = type { %"class.v8::internal::compiler::Operator.base", [4 x i8] }
%"struct.v8::internal::compiler::CommonOperatorGlobalCache::EffectPhiOperator.18" = type { %"class.v8::internal::compiler::Operator.base", [4 x i8] }
%"struct.v8::internal::compiler::CommonOperatorGlobalCache::EffectPhiOperator.19" = type { %"class.v8::internal::compiler::Operator.base", [4 x i8] }
%"struct.v8::internal::compiler::CommonOperatorGlobalCache::EffectPhiOperator.20" = type { %"class.v8::internal::compiler::Operator.base", [4 x i8] }
%"struct.v8::internal::compiler::CommonOperatorGlobalCache::EffectPhiOperator.21" = type { %"class.v8::internal::compiler::Operator.base", [4 x i8] }
%"struct.v8::internal::compiler::CommonOperatorGlobalCache::EffectPhiOperator.22" = type { %"class.v8::internal::compiler::Operator.base", [4 x i8] }
%"struct.v8::internal::compiler::CommonOperatorGlobalCache::BeginRegionOperator" = type { %"class.v8::internal::compiler::Operator1.base", i8 }
%"class.v8::internal::compiler::Operator1.base" = type { %"class.v8::internal::compiler::Operator.base", i8, %"struct.v8::internal::compiler::OpEqualTo.24", %"struct.v8::internal::compiler::OpHash.27" }
%"struct.v8::internal::compiler::OpEqualTo.24" = type { i8 }
%"struct.v8::internal::compiler::OpHash.27" = type { i8 }
%"struct.v8::internal::compiler::CommonOperatorGlobalCache::BeginRegionOperator.29" = type { %"class.v8::internal::compiler::Operator1.base", i8 }
%"struct.v8::internal::compiler::CommonOperatorGlobalCache::LoopOperator" = type { %"class.v8::internal::compiler::Operator.base", [4 x i8] }
%"struct.v8::internal::compiler::CommonOperatorGlobalCache::LoopOperator.30" = type { %"class.v8::internal::compiler::Operator.base", [4 x i8] }
%"struct.v8::internal::compiler::CommonOperatorGlobalCache::MergeOperator" = type { %"class.v8::internal::compiler::Operator.base", [4 x i8] }
%"struct.v8::internal::compiler::CommonOperatorGlobalCache::MergeOperator.31" = type { %"class.v8::internal::compiler::Operator.base", [4 x i8] }
%"struct.v8::internal::compiler::CommonOperatorGlobalCache::MergeOperator.32" = type { %"class.v8::internal::compiler::Operator.base", [4 x i8] }
%"struct.v8::internal::compiler::CommonOperatorGlobalCache::MergeOperator.33" = type { %"class.v8::internal::compiler::Operator.base", [4 x i8] }
%"struct.v8::internal::compiler::CommonOperatorGlobalCache::MergeOperator.34" = type { %"class.v8::internal::compiler::Operator.base", [4 x i8] }
%"struct.v8::internal::compiler::CommonOperatorGlobalCache::MergeOperator.35" = type { %"class.v8::internal::compiler::Operator.base", [4 x i8] }
%"struct.v8::internal::compiler::CommonOperatorGlobalCache::MergeOperator.36" = type { %"class.v8::internal::compiler::Operator.base", [4 x i8] }
%"struct.v8::internal::compiler::CommonOperatorGlobalCache::MergeOperator.37" = type { %"class.v8::internal::compiler::Operator.base", [4 x i8] }
%"struct.v8::internal::compiler::CommonOperatorGlobalCache::LoopExitValueOperator" = type { %"class.v8::internal::compiler::Operator1.base.44", i8 }
%"class.v8::internal::compiler::Operator1.base.44" = type { %"class.v8::internal::compiler::Operator.base", i8, %"struct.v8::internal::compiler::OpEqualTo.39", %"struct.v8::internal::compiler::OpHash.42" }
%"struct.v8::internal::compiler::OpEqualTo.39" = type { i8 }
%"struct.v8::internal::compiler::OpHash.42" = type { i8 }
%"struct.v8::internal::compiler::CommonOperatorGlobalCache::DeoptimizeOperator" = type { %"class.v8::internal::compiler::Operator1.base.51", [6 x i8] }
%"class.v8::internal::compiler::Operator1.base.51" = type { %"class.v8::internal::compiler::Operator.base", [4 x i8], %"class.v8::internal::compiler::DeoptimizeParameters", %"struct.v8::internal::compiler::OpEqualTo.46", %"struct.v8::internal::compiler::OpHash.49" }
%"class.v8::internal::compiler::DeoptimizeParameters" = type { i8, i8, [6 x i8], %"struct.v8::internal::compiler::FeedbackSource", i8, [7 x i8] }
%"struct.v8::internal::compiler::FeedbackSource" = type <{ %"class.v8::internal::Handle", %"class.v8::internal::FeedbackSlot", [4 x i8] }>
%"class.v8::internal::Handle" = type { %"class.v8::internal::HandleBase" }
%"class.v8::internal::HandleBase" = type { i64* }
%"class.v8::internal::FeedbackSlot" = type { i32 }
%"struct.v8::internal::compiler::OpEqualTo.46" = type { i8 }
%"struct.v8::internal::compiler::OpHash.49" = type { i8 }
%"struct.v8::internal::compiler::CommonOperatorGlobalCache::DeoptimizeOperator.52" = type { %"class.v8::internal::compiler::Operator1.base.51", [6 x i8] }
%"struct.v8::internal::compiler::CommonOperatorGlobalCache::DeoptimizeOperator.53" = type { %"class.v8::internal::compiler::Operator1.base.51", [6 x i8] }
%"struct.v8::internal::compiler::CommonOperatorGlobalCache::DeoptimizeOperator.54" = type { %"class.v8::internal::compiler::Operator1.base.51", [6 x i8] }
%"struct.v8::internal::compiler::CommonOperatorGlobalCache::DeoptimizeIfOperator" = type { %"class.v8::internal::compiler::Operator1.base.51", [6 x i8] }
%"struct.v8::internal::compiler::CommonOperatorGlobalCache::DeoptimizeIfOperator.55" = type { %"class.v8::internal::compiler::Operator1.base.51", [6 x i8] }
%"struct.v8::internal::compiler::CommonOperatorGlobalCache::DeoptimizeIfOperator.56" = type { %"class.v8::internal::compiler::Operator1.base.51", [6 x i8] }
%"struct.v8::internal::compiler::CommonOperatorGlobalCache::DeoptimizeIfOperator.57" = type { %"class.v8::internal::compiler::Operator1.base.51", [6 x i8] }
%"struct.v8::internal::compiler::CommonOperatorGlobalCache::DeoptimizeIfOperator.58" = type { %"class.v8::internal::compiler::Operator1.base.51", [6 x i8] }
%"struct.v8::internal::compiler::CommonOperatorGlobalCache::DeoptimizeIfOperator.59" = type { %"class.v8::internal::compiler::Operator1.base.51", [6 x i8] }
%"struct.v8::internal::compiler::CommonOperatorGlobalCache::DeoptimizeIfOperator.60" = type { %"class.v8::internal::compiler::Operator1.base.51", [6 x i8] }
%"struct.v8::internal::compiler::CommonOperatorGlobalCache::DeoptimizeIfOperator.61" = type { %"class.v8::internal::compiler::Operator1.base.51", [6 x i8] }
%"struct.v8::internal::compiler::CommonOperatorGlobalCache::DeoptimizeIfOperator.62" = type { %"class.v8::internal::compiler::Operator1.base.51", [6 x i8] }
%"struct.v8::internal::compiler::CommonOperatorGlobalCache::DeoptimizeUnlessOperator" = type { %"class.v8::internal::compiler::Operator1.base.51", [6 x i8] }
%"struct.v8::internal::compiler::CommonOperatorGlobalCache::DeoptimizeUnlessOperator.63" = type { %"class.v8::internal::compiler::Operator1.base.51", [6 x i8] }
%"struct.v8::internal::compiler::CommonOperatorGlobalCache::DeoptimizeUnlessOperator.64" = type { %"class.v8::internal::compiler::Operator1.base.51", [6 x i8] }
%"struct.v8::internal::compiler::CommonOperatorGlobalCache::DeoptimizeUnlessOperator.65" = type { %"class.v8::internal::compiler::Operator1.base.51", [6 x i8] }
%"struct.v8::internal::compiler::CommonOperatorGlobalCache::DeoptimizeUnlessOperator.66" = type { %"class.v8::internal::compiler::Operator1.base.51", [6 x i8] }
%"struct.v8::internal::compiler::CommonOperatorGlobalCache::DeoptimizeUnlessOperator.67" = type { %"class.v8::internal::compiler::Operator1.base.51", [6 x i8] }
%"struct.v8::internal::compiler::CommonOperatorGlobalCache::DeoptimizeUnlessOperator.68" = type { %"class.v8::internal::compiler::Operator1.base.51", [6 x i8] }
%"struct.v8::internal::compiler::CommonOperatorGlobalCache::DeoptimizeUnlessOperator.69" = type { %"class.v8::internal::compiler::Operator1.base.51", [6 x i8] }
%"struct.v8::internal::compiler::CommonOperatorGlobalCache::DeoptimizeUnlessOperator.70" = type { %"class.v8::internal::compiler::Operator1.base.51", [6 x i8] }
%"struct.v8::internal::compiler::CommonOperatorGlobalCache::DeoptimizeUnlessOperator.71" = type { %"class.v8::internal::compiler::Operator1.base.51", [6 x i8] }
%"struct.v8::internal::compiler::CommonOperatorGlobalCache::DynamicMapCheckOperator" = type { %"class.v8::internal::compiler::Operator1.base.51", [6 x i8] }
%"struct.v8::internal::compiler::CommonOperatorGlobalCache::TrapIfOperator" = type { %"class.v8::internal::compiler::Operator1.base.78", [6 x i8] }
%"class.v8::internal::compiler::Operator1.base.78" = type <{ %"class.v8::internal::compiler::Operator.base", i32, %"struct.v8::internal::compiler::OpEqualTo.73", %"struct.v8::internal::compiler::OpHash.76" }>
%"struct.v8::internal::compiler::OpEqualTo.73" = type { i8 }
%"struct.v8::internal::compiler::OpHash.76" = type { i8 }
%"struct.v8::internal::compiler::CommonOperatorGlobalCache::TrapIfOperator.79" = type { %"class.v8::internal::compiler::Operator1.base.78", [6 x i8] }
%"struct.v8::internal::compiler::CommonOperatorGlobalCache::TrapUnlessOperator" = type { %"class.v8::internal::compiler::Operator1.base.78", [6 x i8] }
%"struct.v8::internal::compiler::CommonOperatorGlobalCache::TrapUnlessOperator.80" = type { %"class.v8::internal::compiler::Operator1.base.78", [6 x i8] }
%"struct.v8::internal::compiler::CommonOperatorGlobalCache::TrapUnlessOperator.81" = type { %"class.v8::internal::compiler::Operator1.base.78", [6 x i8] }
%"struct.v8::internal::compiler::CommonOperatorGlobalCache::TrapUnlessOperator.82" = type { %"class.v8::internal::compiler::Operator1.base.78", [6 x i8] }
%"struct.v8::internal::compiler::CommonOperatorGlobalCache::TrapUnlessOperator.83" = type { %"class.v8::internal::compiler::Operator1.base.78", [6 x i8] }
%"struct.v8::internal::compiler::CommonOperatorGlobalCache::TrapUnlessOperator.84" = type { %"class.v8::internal::compiler::Operator1.base.78", [6 x i8] }
%"struct.v8::internal::compiler::CommonOperatorGlobalCache::TrapUnlessOperator.85" = type { %"class.v8::internal::compiler::Operator1.base.78", [6 x i8] }
%"struct.v8::internal::compiler::CommonOperatorGlobalCache::TrapUnlessOperator.86" = type { %"class.v8::internal::compiler::Operator1.base.78", [6 x i8] }
%"struct.v8::internal::compiler::CommonOperatorGlobalCache::PhiOperator" = type { %"class.v8::internal::compiler::Operator1.base.44", i8 }
%"struct.v8::internal::compiler::CommonOperatorGlobalCache::PhiOperator.87" = type { %"class.v8::internal::compiler::Operator1.base.44", i8 }
%"struct.v8::internal::compiler::CommonOperatorGlobalCache::PhiOperator.88" = type { %"class.v8::internal::compiler::Operator1.base.44", i8 }
%"struct.v8::internal::compiler::CommonOperatorGlobalCache::PhiOperator.89" = type { %"class.v8::internal::compiler::Operator1.base.44", i8 }
%"struct.v8::internal::compiler::CommonOperatorGlobalCache::PhiOperator.90" = type { %"class.v8::internal::compiler::Operator1.base.44", i8 }
%"struct.v8::internal::compiler::CommonOperatorGlobalCache::PhiOperator.91" = type { %"class.v8::internal::compiler::Operator1.base.44", i8 }
%"struct.v8::internal::compiler::CommonOperatorGlobalCache::PhiOperator.92" = type { %"class.v8::internal::compiler::Operator1.base.44", i8 }
%"struct.v8::internal::compiler::CommonOperatorGlobalCache::PhiOperator.93" = type { %"class.v8::internal::compiler::Operator1.base.44", i8 }
%"struct.v8::internal::compiler::CommonOperatorGlobalCache::PhiOperator.94" = type { %"class.v8::internal::compiler::Operator1.base.44", i8 }
%"struct.v8::internal::compiler::CommonOperatorGlobalCache::InductionVariablePhiOperator" = type { %"class.v8::internal::compiler::Operator.base", [4 x i8] }
%"struct.v8::internal::compiler::CommonOperatorGlobalCache::InductionVariablePhiOperator.95" = type { %"class.v8::internal::compiler::Operator.base", [4 x i8] }
%"struct.v8::internal::compiler::CommonOperatorGlobalCache::InductionVariablePhiOperator.96" = type { %"class.v8::internal::compiler::Operator.base", [4 x i8] }
%"struct.v8::internal::compiler::CommonOperatorGlobalCache::InductionVariablePhiOperator.97" = type { %"class.v8::internal::compiler::Operator.base", [4 x i8] }
%"struct.v8::internal::compiler::CommonOperatorGlobalCache::ParameterOperator" = type { %"class.v8::internal::compiler::Operator1.base.104", [6 x i8] }
%"class.v8::internal::compiler::Operator1.base.104" = type <{ %"class.v8::internal::compiler::Operator.base", [4 x i8], %"class.v8::internal::compiler::ParameterInfo", %"struct.v8::internal::compiler::OpEqualTo.99", %"struct.v8::internal::compiler::OpHash.102" }>
%"class.v8::internal::compiler::ParameterInfo" = type { i32, i8* }
%"struct.v8::internal::compiler::OpEqualTo.99" = type { i8 }
%"struct.v8::internal::compiler::OpHash.102" = type { i8 }
%"struct.v8::internal::compiler::CommonOperatorGlobalCache::ParameterOperator.105" = type { %"class.v8::internal::compiler::Operator1.base.104", [6 x i8] }
%"struct.v8::internal::compiler::CommonOperatorGlobalCache::ParameterOperator.106" = type { %"class.v8::internal::compiler::Operator1.base.104", [6 x i8] }
%"struct.v8::internal::compiler::CommonOperatorGlobalCache::ParameterOperator.107" = type { %"class.v8::internal::compiler::Operator1.base.104", [6 x i8] }
%"struct.v8::internal::compiler::CommonOperatorGlobalCache::ParameterOperator.108" = type { %"class.v8::internal::compiler::Operator1.base.104", [6 x i8] }
%"struct.v8::internal::compiler::CommonOperatorGlobalCache::ParameterOperator.109" = type { %"class.v8::internal::compiler::Operator1.base.104", [6 x i8] }
%"struct.v8::internal::compiler::CommonOperatorGlobalCache::ParameterOperator.110" = type { %"class.v8::internal::compiler::Operator1.base.104", [6 x i8] }
%"struct.v8::internal::compiler::CommonOperatorGlobalCache::ProjectionOperator" = type { %"class.v8::internal::compiler::Operator1.base.117", [6 x i8] }
%"class.v8::internal::compiler::Operator1.base.117" = type <{ %"class.v8::internal::compiler::Operator.base", [4 x i8], i64, %"struct.v8::internal::compiler::OpEqualTo.112", %"struct.v8::internal::compiler::OpHash.115" }>
%"struct.v8::internal::compiler::OpEqualTo.112" = type { i8 }
%"struct.v8::internal::compiler::OpHash.115" = type { i8 }
%"struct.v8::internal::compiler::CommonOperatorGlobalCache::ProjectionOperator.118" = type { %"class.v8::internal::compiler::Operator1.base.117", [6 x i8] }
%"struct.v8::internal::compiler::CommonOperatorGlobalCache::StateValuesOperator" = type { %"class.v8::internal::compiler::Operator1.base.125", [6 x i8] }
%"class.v8::internal::compiler::Operator1.base.125" = type <{ %"class.v8::internal::compiler::Operator.base", %"class.v8::internal::compiler::SparseInputMask", %"struct.v8::internal::compiler::OpEqualTo.120", %"struct.v8::internal::compiler::OpHash.123" }>
%"class.v8::internal::compiler::SparseInputMask" = type { i32 }
%"struct.v8::internal::compiler::OpEqualTo.120" = type { i8 }
%"struct.v8::internal::compiler::OpHash.123" = type { i8 }
%"struct.v8::internal::compiler::CommonOperatorGlobalCache::StateValuesOperator.126" = type { %"class.v8::internal::compiler::Operator1.base.125", [6 x i8] }
%"struct.v8::internal::compiler::CommonOperatorGlobalCache::StateValuesOperator.127" = type { %"class.v8::internal::compiler::Operator1.base.125", [6 x i8] }
%"struct.v8::internal::compiler::CommonOperatorGlobalCache::StateValuesOperator.128" = type { %"class.v8::internal::compiler::Operator1.base.125", [6 x i8] }
%"struct.v8::internal::compiler::CommonOperatorGlobalCache::StateValuesOperator.129" = type { %"class.v8::internal::compiler::Operator1.base.125", [6 x i8] }
%"struct.v8::internal::compiler::CommonOperatorGlobalCache::StateValuesOperator.130" = type { %"class.v8::internal::compiler::Operator1.base.125", [6 x i8] }
%"struct.v8::internal::compiler::CommonOperatorGlobalCache::StateValuesOperator.131" = type { %"class.v8::internal::compiler::Operator1.base.125", [6 x i8] }
%"struct.v8::internal::compiler::CommonOperatorGlobalCache::StateValuesOperator.132" = type { %"class.v8::internal::compiler::Operator1.base.125", [6 x i8] }
%"struct.v8::internal::compiler::CommonOperatorGlobalCache::StateValuesOperator.133" = type { %"class.v8::internal::compiler::Operator1.base.125", [6 x i8] }
%"struct.v8::internal::compiler::CommonOperatorGlobalCache::StateValuesOperator.134" = type { %"class.v8::internal::compiler::Operator1.base.125", [6 x i8] }
%"struct.v8::internal::compiler::CommonOperatorGlobalCache::StateValuesOperator.135" = type { %"class.v8::internal::compiler::Operator1.base.125", [6 x i8] }
%"struct.v8::internal::compiler::CommonOperatorGlobalCache::StateValuesOperator.136" = type { %"class.v8::internal::compiler::Operator1.base.125", [6 x i8] }
%"struct.v8::internal::compiler::CommonOperatorGlobalCache::StateValuesOperator.137" = type { %"class.v8::internal::compiler::Operator1.base.125", [6 x i8] }
%"struct.v8::internal::compiler::CommonOperatorGlobalCache::StateValuesOperator.138" = type { %"class.v8::internal::compiler::Operator1.base.125", [6 x i8] }
%"class.v8::internal::Zone" = type <{ i64, i64, i64, i64, %"class.v8::internal::AccountingAllocator"*, %"class.v8::internal::Segment"*, i8*, i8, i8, [6 x i8] }>
%"class.v8::internal::AccountingAllocator" = type { i32 (...)**, %"struct.std::__1::atomic", %"struct.std::__1::atomic", %"class.std::__1::unique_ptr", %"class.std::__1::unique_ptr.141" }
%"struct.std::__1::atomic" = type { %"struct.std::__1::__atomic_base" }
%"struct.std::__1::__atomic_base" = type { %"struct.std::__1::__atomic_base.139" }
%"struct.std::__1::__atomic_base.139" = type { %"struct.std::__1::__cxx_atomic_impl" }
%"struct.std::__1::__cxx_atomic_impl" = type { %"struct.std::__1::__cxx_atomic_base_impl" }
%"struct.std::__1::__cxx_atomic_base_impl" = type { i64 }
%"class.std::__1::unique_ptr" = type { %"class.std::__1::__compressed_pair" }
%"class.std::__1::__compressed_pair" = type { %"struct.std::__1::__compressed_pair_elem" }
%"struct.std::__1::__compressed_pair_elem" = type { %"class.v8::internal::VirtualMemory"* }
%"class.v8::internal::VirtualMemory" = type { %"class.v8::PageAllocator"*, %"class.v8::base::AddressRegion" }
%"class.v8::PageAllocator" = type { i32 (...)** }
%"class.v8::base::AddressRegion" = type { i64, i64 }
%"class.std::__1::unique_ptr.141" = type { %"class.std::__1::__compressed_pair.142" }
%"class.std::__1::__compressed_pair.142" = type { %"struct.std::__1::__compressed_pair_elem.143" }
%"struct.std::__1::__compressed_pair_elem.143" = type { %"class.v8::base::BoundedPageAllocator"* }
%"class.v8::base::BoundedPageAllocator" = type opaque
%"class.v8::internal::Segment" = type { %"class.v8::internal::Zone"*, %"class.v8::internal::Segment"*, i64 }
%"class.std::__1::basic_ostream" = type { i32 (...)**, %"class.std::__1::basic_ios.base" }
%"class.std::__1::basic_ios.base" = type <{ %"class.std::__1::ios_base", %"class.std::__1::basic_ostream"*, i32 }>
%"class.std::__1::ios_base" = type { i32 (...)**, i32, i64, i64, i32, i32, i8*, i8*, void (i32, %"class.std::__1::ios_base"*, i32)**, i32*, i64, i64, i64*, i64, i64, i8**, i64, i64 }
%"class.v8::internal::compiler::IfValueParameters" = type <{ i32, i32, i8, [3 x i8] }>
%"class.v8::internal::compiler::Operator1.45" = type { %"class.v8::internal::compiler::Operator.base", [4 x i8], %"class.v8::internal::compiler::DeoptimizeParameters", %"struct.v8::internal::compiler::OpEqualTo.46", %"struct.v8::internal::compiler::OpHash.49", [6 x i8] }
%"class.v8::internal::StringConstantBase" = type { i32, %"class.v8::internal::Handle.147" }
%"class.v8::internal::Handle.147" = type { %"class.v8::internal::HandleBase" }
%"class.v8::internal::compiler::Operator1.148" = type <{ %"class.v8::internal::compiler::Operator.base", [4 x i8], %"class.v8::internal::StringConstantBase"*, %"struct.v8::internal::compiler::OpEqualTo.149", %"struct.v8::internal::compiler::OpHash.152", [6 x i8] }>
%"struct.v8::internal::compiler::OpEqualTo.149" = type { i8 }
%"struct.v8::internal::compiler::OpHash.152" = type { i8 }
%"class.v8::internal::compiler::SelectParameters" = type { i8, i8 }
%"class.v8::internal::compiler::CallDescriptor" = type { i32, %"class.v8::internal::MachineType", [2 x i8], %"class.v8::internal::compiler::LinkageLocation", %"class.v8::internal::Signature"*, i64, i64, %"class.v8::base::Flags", i32, i32, i32, %"class.v8::base::Flags.155", i32, i8*, %"class.v8::CFunctionInfo"* }
%"class.v8::internal::MachineType" = type { i8, i8 }
%"class.v8::internal::compiler::LinkageLocation" = type <{ i32, %"class.v8::internal::MachineType", [2 x i8] }>
%"class.v8::internal::Signature" = type { i64, i64, %"class.v8::internal::compiler::LinkageLocation"* }
%"class.v8::base::Flags.155" = type { i32 }
%"class.v8::CFunctionInfo" = type opaque
%"struct.v8::internal::compiler::ObjectStateInfo" = type { %"struct.std::__1::pair" }
%"struct.std::__1::pair" = type { i32, i32 }
%"struct.v8::internal::compiler::TypedObjectStateInfo" = type { %"struct.std::__1::pair.156" }
%"struct.std::__1::pair.156" = type { i32, %"class.v8::internal::ZoneVector"* }
%"class.v8::internal::ZoneVector" = type { %"class.std::__1::vector" }
%"class.std::__1::vector" = type { %"class.std::__1::__vector_base" }
%"class.std::__1::__vector_base" = type { %"class.v8::internal::MachineType"*, %"class.v8::internal::MachineType"*, %"class.std::__1::__compressed_pair.157" }
%"class.std::__1::__compressed_pair.157" = type { %"struct.std::__1::__compressed_pair_elem.158", %"struct.std::__1::__compressed_pair_elem.159" }
%"struct.std::__1::__compressed_pair_elem.158" = type { %"class.v8::internal::MachineType"* }
%"struct.std::__1::__compressed_pair_elem.159" = type { %"class.v8::internal::ZoneAllocator" }
%"class.v8::internal::ZoneAllocator" = type { %"class.v8::internal::Zone"* }
%"class.v8::internal::compiler::RelocatablePtrConstantInfo" = type { i64, i8, i32 }
%"struct.v8::internal::compiler::Node::OutOfLineInputs" = type { %"class.v8::internal::compiler::Node"*, i32, i32 }
%"class.v8::internal::compiler::TypedStateValueInfo" = type <{ %"class.v8::internal::ZoneVector"*, %"class.v8::internal::compiler::SparseInputMask", [4 x i8] }>
%"class.v8::internal::compiler::Operator1.160" = type <{ %"class.v8::internal::compiler::Operator.base", [4 x i8], i8*, %"struct.v8::internal::compiler::OpEqualTo.161", %"struct.v8::internal::compiler::OpHash.164", [6 x i8] }>
%"struct.v8::internal::compiler::OpEqualTo.161" = type { i8 }
%"struct.v8::internal::compiler::OpHash.164" = type { i8 }
%"class.v8::internal::compiler::Operator1.72" = type <{ %"class.v8::internal::compiler::Operator.base", i32, %"struct.v8::internal::compiler::OpEqualTo.73", %"struct.v8::internal::compiler::OpHash.76", [6 x i8] }>
%"class.v8::internal::compiler::Operator1.167" = type { %"class.v8::internal::compiler::Operator.base", %"class.v8::internal::compiler::IfValueParameters", %"struct.v8::internal::compiler::OpEqualTo.168", %"struct.v8::internal::compiler::OpHash.171", [6 x i8] }
%"struct.v8::internal::compiler::OpEqualTo.168" = type { i8 }
%"struct.v8::internal::compiler::OpHash.171" = type { i8 }
%"class.v8::internal::compiler::Operator1.174" = type { %"class.v8::internal::compiler::Operator.base", i8, %"struct.v8::internal::compiler::OpEqualTo.175", %"struct.v8::internal::compiler::OpHash.178", i8 }
%"struct.v8::internal::compiler::OpEqualTo.175" = type { i8 }
%"struct.v8::internal::compiler::OpHash.178" = type { i8 }
%"class.v8::internal::compiler::Operator1.38" = type { %"class.v8::internal::compiler::Operator.base", i8, %"struct.v8::internal::compiler::OpEqualTo.39", %"struct.v8::internal::compiler::OpHash.42", i8 }
%"class.v8::internal::compiler::Operator1.98" = type <{ %"class.v8::internal::compiler::Operator.base", [4 x i8], %"class.v8::internal::compiler::ParameterInfo", %"struct.v8::internal::compiler::OpEqualTo.99", %"struct.v8::internal::compiler::OpHash.102", [6 x i8] }>
%"class.v8::internal::compiler::Operator1.181" = type <{ %"class.v8::internal::compiler::Operator.base", i32, %"struct.v8::internal::compiler::OpEqualTo.182", %"struct.v8::internal::compiler::OpHash.185", [6 x i8] }>
%"struct.v8::internal::compiler::OpEqualTo.182" = type { i8 }
%"struct.v8::internal::compiler::OpHash.185" = type { i8 }
%"class.v8::internal::compiler::Operator1.188" = type <{ %"class.v8::internal::compiler::Operator.base", [4 x i8], i64, %"struct.v8::internal::compiler::OpEqualTo.189", %"struct.v8::internal::compiler::OpHash.192", [6 x i8] }>
%"struct.v8::internal::compiler::OpEqualTo.189" = type { i8 }
%"struct.v8::internal::compiler::OpHash.192" = type { i8 }
%"class.v8::internal::compiler::Operator1.195" = type <{ %"class.v8::internal::compiler::Operator.base", float, %"struct.v8::internal::compiler::OpEqualTo.196", %"struct.v8::internal::compiler::OpHash.197", [6 x i8] }>
%"struct.v8::internal::compiler::OpEqualTo.196" = type { i8 }
%"struct.v8::internal::compiler::OpHash.197" = type { i8 }
%"class.v8::internal::compiler::Operator1.199" = type <{ %"class.v8::internal::compiler::Operator.base", [4 x i8], double, %"struct.v8::internal::compiler::OpEqualTo.200", %"struct.v8::internal::compiler::OpHash.202", [6 x i8] }>
%"struct.v8::internal::compiler::OpEqualTo.200" = type { i8 }
%"struct.v8::internal::compiler::OpHash.202" = type { i8 }
%"class.v8::internal::ExternalReference" = type { i64 }
%"class.v8::internal::compiler::Operator1.205" = type <{ %"class.v8::internal::compiler::Operator.base", [4 x i8], %"class.v8::internal::ExternalReference", %"struct.v8::internal::compiler::OpEqualTo.206", %"struct.v8::internal::compiler::OpHash.209", [6 x i8] }>
%"struct.v8::internal::compiler::OpEqualTo.206" = type { i8 }
%"struct.v8::internal::compiler::OpHash.209" = type { i8 }
%"class.v8::internal::Handle.212" = type { %"class.v8::internal::HandleBase" }
%"class.v8::internal::compiler::Operator1.213" = type <{ %"class.v8::internal::compiler::Operator.base", [4 x i8], %"class.v8::internal::Handle.212", %"struct.v8::internal::compiler::OpEqualTo.214", %"struct.v8::internal::compiler::OpHash.215", [6 x i8] }>
%"struct.v8::internal::compiler::OpEqualTo.214" = type { i8 }
%"struct.v8::internal::compiler::OpHash.215" = type { i8 }
%"class.v8::internal::compiler::Operator1.217" = type <{ %"class.v8::internal::compiler::Operator.base", [4 x i8], %"class.v8::internal::compiler::RelocatablePtrConstantInfo", %"struct.v8::internal::compiler::OpEqualTo.218", %"struct.v8::internal::compiler::OpHash.221", [6 x i8] }>
%"struct.v8::internal::compiler::OpEqualTo.218" = type { i8 }
%"struct.v8::internal::compiler::OpHash.221" = type { i8 }
%"class.v8::internal::compiler::Operator1.224" = type <{ %"class.v8::internal::compiler::Operator.base", i32, %"struct.v8::internal::compiler::OpEqualTo.225", %"struct.v8::internal::compiler::OpHash.228", [6 x i8] }>
%"struct.v8::internal::compiler::OpEqualTo.225" = type { i8 }
%"struct.v8::internal::compiler::OpHash.228" = type { i8 }
%"class.v8::internal::compiler::Operator1.231" = type { %"class.v8::internal::compiler::Operator.base", %"class.v8::internal::compiler::SelectParameters", %"struct.v8::internal::compiler::OpEqualTo.232", %"struct.v8::internal::compiler::OpHash.235" }
%"struct.v8::internal::compiler::OpEqualTo.232" = type { i8 }
%"struct.v8::internal::compiler::OpHash.235" = type { i8 }
%"class.v8::internal::compiler::Operator1.237" = type <{ %"class.v8::internal::compiler::Operator.base", [4 x i8], %"class.v8::internal::compiler::Type", %"struct.v8::internal::compiler::OpEqualTo.238", %"struct.v8::internal::compiler::OpHash.241", [6 x i8] }>
%"struct.v8::internal::compiler::OpEqualTo.238" = type { i8 }
%"struct.v8::internal::compiler::OpHash.241" = type { i8 }
%"class.v8::internal::compiler::Operator1.119" = type <{ %"class.v8::internal::compiler::Operator.base", %"class.v8::internal::compiler::SparseInputMask", %"struct.v8::internal::compiler::OpEqualTo.120", %"struct.v8::internal::compiler::OpHash.123", [6 x i8] }>
%"class.v8::internal::compiler::Operator1.244" = type { %"class.v8::internal::compiler::Operator.base", [4 x i8], %"class.v8::internal::compiler::TypedStateValueInfo", %"struct.v8::internal::compiler::OpEqualTo.245", %"struct.v8::internal::compiler::OpHash.248", [6 x i8] }
%"struct.v8::internal::compiler::OpEqualTo.245" = type { i8 }
%"struct.v8::internal::compiler::OpHash.248" = type { i8 }
%"class.v8::internal::compiler::Operator1.251" = type { %"class.v8::internal::compiler::Operator.base", i8, %"struct.v8::internal::compiler::OpEqualTo.252", %"struct.v8::internal::compiler::OpHash.255", i8 }
%"struct.v8::internal::compiler::OpEqualTo.252" = type { i8 }
%"struct.v8::internal::compiler::OpHash.255" = type { i8 }
%"class.v8::internal::compiler::Operator1.258" = type <{ %"class.v8::internal::compiler::Operator.base", %"struct.v8::internal::compiler::ObjectStateInfo", %"struct.v8::internal::compiler::OpEqualTo.259", %"struct.v8::internal::compiler::OpHash.262", [2 x i8] }>
%"struct.v8::internal::compiler::OpEqualTo.259" = type { i8 }
%"struct.v8::internal::compiler::OpHash.262" = type { i8 }
%"class.v8::internal::compiler::Operator1.265" = type <{ %"class.v8::internal::compiler::Operator.base", [4 x i8], %"struct.v8::internal::compiler::TypedObjectStateInfo", %"struct.v8::internal::compiler::OpEqualTo.266", %"struct.v8::internal::compiler::OpHash.269", [6 x i8] }>
%"struct.v8::internal::compiler::OpEqualTo.266" = type { i8 }
%"struct.v8::internal::compiler::OpHash.269" = type { i8 }
%"class.v8::internal::compiler::FrameStateFunctionInfo" = type { i32, i32, i32, %"class.v8::internal::Handle.272" }
%"class.v8::internal::Handle.272" = type { %"class.v8::internal::HandleBase" }
%"class.v8::internal::compiler::Operator1.273" = type <{ %"class.v8::internal::compiler::Operator.base", [4 x i8], %"class.v8::internal::compiler::FrameStateInfo", %"struct.v8::internal::compiler::OpEqualTo.274", %"struct.v8::internal::compiler::OpHash.277", [6 x i8] }>
%"class.v8::internal::compiler::FrameStateInfo" = type { %"class.v8::internal::BytecodeOffset", %"class.v8::internal::compiler::OutputFrameStateCombine", %"class.v8::internal::compiler::FrameStateFunctionInfo"* }
%"class.v8::internal::BytecodeOffset" = type { i32 }
%"class.v8::internal::compiler::OutputFrameStateCombine" = type { i64 }
%"struct.v8::internal::compiler::OpEqualTo.274" = type { i8 }
%"struct.v8::internal::compiler::OpHash.277" = type { i8 }
%class.CallOperator = type { %"class.v8::internal::compiler::Operator1.base.286", [6 x i8] }
%"class.v8::internal::compiler::Operator1.base.286" = type <{ %"class.v8::internal::compiler::Operator.base", [4 x i8], %"class.v8::internal::compiler::CallDescriptor"*, %"struct.v8::internal::compiler::OpEqualTo.281", %"struct.v8::internal::compiler::OpHash.284" }>
%"struct.v8::internal::compiler::OpEqualTo.281" = type { i8 }
%"struct.v8::internal::compiler::OpHash.284" = type { i8 }
%class.TailCallOperator = type { %"class.v8::internal::compiler::Operator1.base.286", [6 x i8] }
%"class.v8::internal::compiler::Operator1.111" = type <{ %"class.v8::internal::compiler::Operator.base", [4 x i8], i64, %"struct.v8::internal::compiler::OpEqualTo.112", %"struct.v8::internal::compiler::OpHash.115", [6 x i8] }>
%"class.v8::internal::Signature.287" = type opaque
%"class.v8::internal::compiler::JSToWasmFrameStateFunctionInfo" = type { %"class.v8::internal::compiler::FrameStateFunctionInfo", %"class.v8::internal::Signature.287"* }
%"class.v8::internal::compiler::Operator1.23" = type { %"class.v8::internal::compiler::Operator.base", i8, %"struct.v8::internal::compiler::OpEqualTo.24", %"struct.v8::internal::compiler::OpHash.27", i8 }
%"class.std::__1::locale" = type { %"class.std::__1::locale::__imp"* }
%"class.std::__1::locale::__imp" = type opaque
%"class.std::__1::basic_ostream<char, std::__1::char_traits<char> >::sentry" = type { i8, %"class.std::__1::basic_ostream"* }
%"class.std::__1::basic_streambuf" = type { i32 (...)**, %"class.std::__1::locale", i8*, i8*, i8*, i8*, i8*, i8* }
%"class.std::__1::locale::facet" = type { %"class.std::__1::__shared_count" }
%"class.std::__1::__shared_count" = type { i32 (...)**, i64 }
%"class.std::__1::ctype" = type <{ %"class.std::__1::locale::facet", i16*, i8, [7 x i8] }>
%"class.std::__1::basic_string" = type { %"class.std::__1::__compressed_pair.291" }
%"class.std::__1::__compressed_pair.291" = type { %"struct.std::__1::__compressed_pair_elem.292" }
%"struct.std::__1::__compressed_pair_elem.292" = type { %"struct.std::__1::basic_string<char, std::__1::char_traits<char>, std::__1::allocator<char> >::__rep" }
%"struct.std::__1::basic_string<char, std::__1::char_traits<char>, std::__1::allocator<char> >::__rep" = type { %union.anon }
%union.anon = type { %"struct.std::__1::basic_string<char, std::__1::char_traits<char>, std::__1::allocator<char> >::__long" }
%"struct.std::__1::basic_string<char, std::__1::char_traits<char>, std::__1::allocator<char> >::__long" = type { i8*, i64, i64 }
%"struct.std::__1::basic_string<char, std::__1::char_traits<char>, std::__1::allocator<char> >::__short" = type { [23 x i8], %struct.anon }
%struct.anon = type { i8 }
%"struct.v8::internal::Brief" = type { i64 }
%"class.v8::internal::compiler::Operator1.280" = type <{ %"class.v8::internal::compiler::Operator.base", [4 x i8], %"class.v8::internal::compiler::CallDescriptor"*, %"struct.v8::internal::compiler::OpEqualTo.281", %"struct.v8::internal::compiler::OpHash.284", [6 x i8] }>

$_ZN2v88internal8compiler25CommonOperatorGlobalCacheC2Ev = comdat any

$_ZN2v88internal8compiler25CommonOperatorGlobalCache12DeadOperatorD0Ev = comdat any

$_ZNK2v88internal8compiler8Operator6EqualsEPKS2_ = comdat any

$_ZNK2v88internal8compiler8Operator8HashCodeEv = comdat any

$_ZN2v88internal8compiler25CommonOperatorGlobalCache19UnreachableOperatorD0Ev = comdat any

$_ZN2v88internal8compiler25CommonOperatorGlobalCache14IfTrueOperatorD0Ev = comdat any

$_ZN2v88internal8compiler25CommonOperatorGlobalCache15IfFalseOperatorD0Ev = comdat any

$_ZN2v88internal8compiler25CommonOperatorGlobalCache17IfSuccessOperatorD0Ev = comdat any

$_ZN2v88internal8compiler25CommonOperatorGlobalCache19IfExceptionOperatorD0Ev = comdat any

$_ZN2v88internal8compiler25CommonOperatorGlobalCache13ThrowOperatorD0Ev = comdat any

$_ZN2v88internal8compiler25CommonOperatorGlobalCache17TerminateOperatorD0Ev = comdat any

$_ZN2v88internal8compiler25CommonOperatorGlobalCache16LoopExitOperatorD0Ev = comdat any

$_ZN2v88internal8compiler25CommonOperatorGlobalCache22LoopExitEffectOperatorD0Ev = comdat any

$_ZN2v88internal8compiler25CommonOperatorGlobalCache18CheckpointOperatorD0Ev = comdat any

$_ZN2v88internal8compiler25CommonOperatorGlobalCache20FinishRegionOperatorD0Ev = comdat any

$_ZN2v88internal8compiler25CommonOperatorGlobalCache14RetainOperatorD0Ev = comdat any

$_ZN2v88internal8compiler25CommonOperatorGlobalCache11EndOperatorILm1EED0Ev = comdat any

$_ZN2v88internal8compiler25CommonOperatorGlobalCache11EndOperatorILm2EED0Ev = comdat any

$_ZN2v88internal8compiler25CommonOperatorGlobalCache11EndOperatorILm3EED0Ev = comdat any

$_ZN2v88internal8compiler25CommonOperatorGlobalCache11EndOperatorILm4EED0Ev = comdat any

$_ZN2v88internal8compiler25CommonOperatorGlobalCache11EndOperatorILm5EED0Ev = comdat any

$_ZN2v88internal8compiler25CommonOperatorGlobalCache11EndOperatorILm6EED0Ev = comdat any

$_ZN2v88internal8compiler25CommonOperatorGlobalCache11EndOperatorILm7EED0Ev = comdat any

$_ZN2v88internal8compiler25CommonOperatorGlobalCache11EndOperatorILm8EED0Ev = comdat any

$_ZN2v88internal8compiler25CommonOperatorGlobalCache14ReturnOperatorILm1EED0Ev = comdat any

$_ZN2v88internal8compiler25CommonOperatorGlobalCache14ReturnOperatorILm2EED0Ev = comdat any

$_ZN2v88internal8compiler25CommonOperatorGlobalCache14ReturnOperatorILm3EED0Ev = comdat any

$_ZN2v88internal8compiler25CommonOperatorGlobalCache14ReturnOperatorILm4EED0Ev = comdat any

$_ZN2v88internal8compiler25CommonOperatorGlobalCache14BranchOperatorILNS1_10BranchHintE0ELNS1_13IsSafetyCheckE0EED0Ev = comdat any

$_ZNK2v88internal8compiler9Operator1INS1_18BranchOperatorInfoENS1_9OpEqualToIS3_EENS1_6OpHashIS3_EEE6EqualsEPKNS1_8OperatorE = comdat any

$_ZNK2v88internal8compiler9Operator1INS1_18BranchOperatorInfoENS1_9OpEqualToIS3_EENS1_6OpHashIS3_EEE8HashCodeEv = comdat any

$_ZNK2v88internal8compiler9Operator1INS1_18BranchOperatorInfoENS1_9OpEqualToIS3_EENS1_6OpHashIS3_EEE11PrintToImplERNSt3__113basic_ostreamIcNS9_11char_traitsIcEEEENS1_8Operator14PrintVerbosityE = comdat any

$_ZNK2v88internal8compiler9Operator1INS1_18BranchOperatorInfoENS1_9OpEqualToIS3_EENS1_6OpHashIS3_EEE14PrintParameterERNSt3__113basic_ostreamIcNS9_11char_traitsIcEEEENS1_8Operator14PrintVerbosityE = comdat any

$_ZN2v88internal8compiler25CommonOperatorGlobalCache14BranchOperatorILNS1_10BranchHintE1ELNS1_13IsSafetyCheckE0EED0Ev = comdat any

$_ZN2v88internal8compiler25CommonOperatorGlobalCache14BranchOperatorILNS1_10BranchHintE2ELNS1_13IsSafetyCheckE0EED0Ev = comdat any

$_ZN2v88internal8compiler25CommonOperatorGlobalCache14BranchOperatorILNS1_10BranchHintE0ELNS1_13IsSafetyCheckE1EED0Ev = comdat any

$_ZN2v88internal8compiler25CommonOperatorGlobalCache14BranchOperatorILNS1_10BranchHintE1ELNS1_13IsSafetyCheckE1EED0Ev = comdat any

$_ZN2v88internal8compiler25CommonOperatorGlobalCache14BranchOperatorILNS1_10BranchHintE2ELNS1_13IsSafetyCheckE1EED0Ev = comdat any

$_ZN2v88internal8compiler25CommonOperatorGlobalCache14BranchOperatorILNS1_10BranchHintE0ELNS1_13IsSafetyCheckE2EED0Ev = comdat any

$_ZN2v88internal8compiler25CommonOperatorGlobalCache14BranchOperatorILNS1_10BranchHintE1ELNS1_13IsSafetyCheckE2EED0Ev = comdat any

$_ZN2v88internal8compiler25CommonOperatorGlobalCache14BranchOperatorILNS1_10BranchHintE2ELNS1_13IsSafetyCheckE2EED0Ev = comdat any

$_ZN2v88internal8compiler25CommonOperatorGlobalCache17EffectPhiOperatorILi1EED0Ev = comdat any

$_ZN2v88internal8compiler25CommonOperatorGlobalCache17EffectPhiOperatorILi2EED0Ev = comdat any

$_ZN2v88internal8compiler25CommonOperatorGlobalCache17EffectPhiOperatorILi3EED0Ev = comdat any

$_ZN2v88internal8compiler25CommonOperatorGlobalCache17EffectPhiOperatorILi4EED0Ev = comdat any

$_ZN2v88internal8compiler25CommonOperatorGlobalCache17EffectPhiOperatorILi5EED0Ev = comdat any

$_ZN2v88internal8compiler25CommonOperatorGlobalCache17EffectPhiOperatorILi6EED0Ev = comdat any

$_ZN2v88internal8compiler25CommonOperatorGlobalCache19BeginRegionOperatorILNS1_19RegionObservabilityE0EED0Ev = comdat any

$_ZNK2v88internal8compiler9Operator1INS1_19RegionObservabilityENS1_9OpEqualToIS3_EENS1_6OpHashIS3_EEE6EqualsEPKNS1_8OperatorE = comdat any

$_ZNK2v88internal8compiler9Operator1INS1_19RegionObservabilityENS1_9OpEqualToIS3_EENS1_6OpHashIS3_EEE8HashCodeEv = comdat any

$_ZNK2v88internal8compiler9Operator1INS1_19RegionObservabilityENS1_9OpEqualToIS3_EENS1_6OpHashIS3_EEE11PrintToImplERNSt3__113basic_ostreamIcNS9_11char_traitsIcEEEENS1_8Operator14PrintVerbosityE = comdat any

$_ZNK2v88internal8compiler9Operator1INS1_19RegionObservabilityENS1_9OpEqualToIS3_EENS1_6OpHashIS3_EEE14PrintParameterERNSt3__113basic_ostreamIcNS9_11char_traitsIcEEEENS1_8Operator14PrintVerbosityE = comdat any

$_ZN2v88internal8compiler25CommonOperatorGlobalCache19BeginRegionOperatorILNS1_19RegionObservabilityE1EED0Ev = comdat any

$_ZN2v88internal8compiler25CommonOperatorGlobalCache12LoopOperatorILm1EED0Ev = comdat any

$_ZN2v88internal8compiler25CommonOperatorGlobalCache12LoopOperatorILm2EED0Ev = comdat any

$_ZN2v88internal8compiler25CommonOperatorGlobalCache13MergeOperatorILm1EED0Ev = comdat any

$_ZN2v88internal8compiler25CommonOperatorGlobalCache13MergeOperatorILm2EED0Ev = comdat any

$_ZN2v88internal8compiler25CommonOperatorGlobalCache13MergeOperatorILm3EED0Ev = comdat any

$_ZN2v88internal8compiler25CommonOperatorGlobalCache13MergeOperatorILm4EED0Ev = comdat any

$_ZN2v88internal8compiler25CommonOperatorGlobalCache13MergeOperatorILm5EED0Ev = comdat any

$_ZN2v88internal8compiler25CommonOperatorGlobalCache13MergeOperatorILm6EED0Ev = comdat any

$_ZN2v88internal8compiler25CommonOperatorGlobalCache13MergeOperatorILm7EED0Ev = comdat any

$_ZN2v88internal8compiler25CommonOperatorGlobalCache13MergeOperatorILm8EED0Ev = comdat any

$_ZN2v88internal8compiler25CommonOperatorGlobalCache21LoopExitValueOperatorILNS0_21MachineRepresentationE9EED0Ev = comdat any

$_ZNK2v88internal8compiler9Operator1INS0_21MachineRepresentationENS1_9OpEqualToIS3_EENS1_6OpHashIS3_EEE6EqualsEPKNS1_8OperatorE = comdat any

$_ZNK2v88internal8compiler9Operator1INS0_21MachineRepresentationENS1_9OpEqualToIS3_EENS1_6OpHashIS3_EEE8HashCodeEv = comdat any

$_ZNK2v88internal8compiler9Operator1INS0_21MachineRepresentationENS1_9OpEqualToIS3_EENS1_6OpHashIS3_EEE11PrintToImplERNSt3__113basic_ostreamIcNS9_11char_traitsIcEEEENS1_8Operator14PrintVerbosityE = comdat any

$_ZNK2v88internal8compiler9Operator1INS0_21MachineRepresentationENS1_9OpEqualToIS3_EENS1_6OpHashIS3_EEE14PrintParameterERNSt3__113basic_ostreamIcNS9_11char_traitsIcEEEENS1_8Operator14PrintVerbosityE = comdat any

$_ZN2v88internal8compiler9Operator1INS0_21MachineRepresentationENS1_9OpEqualToIS3_EENS1_6OpHashIS3_EEED0Ev = comdat any

$_ZN2v88internal8compiler25CommonOperatorGlobalCache18DeoptimizeOperatorILNS0_14DeoptimizeKindE0ELNS0_16DeoptimizeReasonE19EED0Ev = comdat any

$_ZNK2v88internal8compiler9Operator1INS1_20DeoptimizeParametersENS1_9OpEqualToIS3_EENS1_6OpHashIS3_EEE6EqualsEPKNS1_8OperatorE = comdat any

$_ZNK2v88internal8compiler9Operator1INS1_20DeoptimizeParametersENS1_9OpEqualToIS3_EENS1_6OpHashIS3_EEE8HashCodeEv = comdat any

$_ZNK2v88internal8compiler9Operator1INS1_20DeoptimizeParametersENS1_9OpEqualToIS3_EENS1_6OpHashIS3_EEE11PrintToImplERNSt3__113basic_ostreamIcNS9_11char_traitsIcEEEENS1_8Operator14PrintVerbosityE = comdat any

$_ZNK2v88internal8compiler9Operator1INS1_20DeoptimizeParametersENS1_9OpEqualToIS3_EENS1_6OpHashIS3_EEE14PrintParameterERNSt3__113basic_ostreamIcNS9_11char_traitsIcEEEENS1_8Operator14PrintVerbosityE = comdat any

$_ZN2v88internal8compiler9Operator1INS1_20DeoptimizeParametersENS1_9OpEqualToIS3_EENS1_6OpHashIS3_EEED0Ev = comdat any

$_ZN2v88internal8compiler25CommonOperatorGlobalCache18DeoptimizeOperatorILNS0_14DeoptimizeKindE0ELNS0_16DeoptimizeReasonE45EED0Ev = comdat any

$_ZN2v88internal8compiler25CommonOperatorGlobalCache18DeoptimizeOperatorILNS0_14DeoptimizeKindE1ELNS0_16DeoptimizeReasonE15EED0Ev = comdat any

$_ZN2v88internal8compiler25CommonOperatorGlobalCache18DeoptimizeOperatorILNS0_14DeoptimizeKindE1ELNS0_16DeoptimizeReasonE14EED0Ev = comdat any

$_ZN2v88internal8compiler25CommonOperatorGlobalCache20DeoptimizeIfOperatorILNS0_14DeoptimizeKindE0ELNS0_16DeoptimizeReasonE5ELNS1_13IsSafetyCheckE2EED0Ev = comdat any

$_ZN2v88internal8compiler25CommonOperatorGlobalCache20DeoptimizeIfOperatorILNS0_14DeoptimizeKindE0ELNS0_16DeoptimizeReasonE5ELNS1_13IsSafetyCheckE1EED0Ev = comdat any

$_ZN2v88internal8compiler25CommonOperatorGlobalCache20DeoptimizeIfOperatorILNS0_14DeoptimizeKindE0ELNS0_16DeoptimizeReasonE7ELNS1_13IsSafetyCheckE2EED0Ev = comdat any

$_ZN2v88internal8compiler25CommonOperatorGlobalCache20DeoptimizeIfOperatorILNS0_14DeoptimizeKindE0ELNS0_16DeoptimizeReasonE7ELNS1_13IsSafetyCheckE1EED0Ev = comdat any

$_ZN2v88internal8compiler25CommonOperatorGlobalCache20DeoptimizeIfOperatorILNS0_14DeoptimizeKindE0ELNS0_16DeoptimizeReasonE19ELNS1_13IsSafetyCheckE2EED0Ev = comdat any

$_ZN2v88internal8compiler25CommonOperatorGlobalCache20DeoptimizeIfOperatorILNS0_14DeoptimizeKindE0ELNS0_16DeoptimizeReasonE19ELNS1_13IsSafetyCheckE1EED0Ev = comdat any

$_ZN2v88internal8compiler25CommonOperatorGlobalCache20DeoptimizeIfOperatorILNS0_14DeoptimizeKindE0ELNS0_16DeoptimizeReasonE35ELNS1_13IsSafetyCheckE2EED0Ev = comdat any

$_ZN2v88internal8compiler25CommonOperatorGlobalCache20DeoptimizeIfOperatorILNS0_14DeoptimizeKindE0ELNS0_16DeoptimizeReasonE35ELNS1_13IsSafetyCheckE1EED0Ev = comdat any

$_ZN2v88internal8compiler25CommonOperatorGlobalCache20DeoptimizeIfOperatorILNS0_14DeoptimizeKindE0ELNS0_16DeoptimizeReasonE36ELNS1_13IsSafetyCheckE1EED0Ev = comdat any

$_ZN2v88internal8compiler25CommonOperatorGlobalCache24DeoptimizeUnlessOperatorILNS0_14DeoptimizeKindE0ELNS0_16DeoptimizeReasonE17ELNS1_13IsSafetyCheckE2EED0Ev = comdat any

$_ZN2v88internal8compiler25CommonOperatorGlobalCache24DeoptimizeUnlessOperatorILNS0_14DeoptimizeKindE0ELNS0_16DeoptimizeReasonE17ELNS1_13IsSafetyCheckE1EED0Ev = comdat any

$_ZN2v88internal8compiler25CommonOperatorGlobalCache24DeoptimizeUnlessOperatorILNS0_14DeoptimizeKindE0ELNS0_16DeoptimizeReasonE18ELNS1_13IsSafetyCheckE2EED0Ev = comdat any

$_ZN2v88internal8compiler25CommonOperatorGlobalCache24DeoptimizeUnlessOperatorILNS0_14DeoptimizeKindE0ELNS0_16DeoptimizeReasonE18ELNS1_13IsSafetyCheckE1EED0Ev = comdat any

$_ZN2v88internal8compiler25CommonOperatorGlobalCache24DeoptimizeUnlessOperatorILNS0_14DeoptimizeKindE0ELNS0_16DeoptimizeReasonE23ELNS1_13IsSafetyCheckE1EED0Ev = comdat any

$_ZN2v88internal8compiler25CommonOperatorGlobalCache24DeoptimizeUnlessOperatorILNS0_14DeoptimizeKindE0ELNS0_16DeoptimizeReasonE28ELNS1_13IsSafetyCheckE1EED0Ev = comdat any

$_ZN2v88internal8compiler25CommonOperatorGlobalCache24DeoptimizeUnlessOperatorILNS0_14DeoptimizeKindE0ELNS0_16DeoptimizeReasonE30ELNS1_13IsSafetyCheckE1EED0Ev = comdat any

$_ZN2v88internal8compiler25CommonOperatorGlobalCache24DeoptimizeUnlessOperatorILNS0_14DeoptimizeKindE0ELNS0_16DeoptimizeReasonE34ELNS1_13IsSafetyCheckE1EED0Ev = comdat any

$_ZN2v88internal8compiler25CommonOperatorGlobalCache24DeoptimizeUnlessOperatorILNS0_14DeoptimizeKindE0ELNS0_16DeoptimizeReasonE44ELNS1_13IsSafetyCheckE1EED0Ev = comdat any

$_ZN2v88internal8compiler25CommonOperatorGlobalCache24DeoptimizeUnlessOperatorILNS0_14DeoptimizeKindE0ELNS0_16DeoptimizeReasonE45ELNS1_13IsSafetyCheckE1EED0Ev = comdat any

$_ZN2v88internal8compiler25CommonOperatorGlobalCache23DynamicMapCheckOperatorD0Ev = comdat any

$_ZN2v88internal8compiler25CommonOperatorGlobalCache14TrapIfOperatorILNS1_6TrapIdE4EED0Ev = comdat any

$_ZNK2v88internal8compiler9Operator1INS1_6TrapIdENS1_9OpEqualToIS3_EENS1_6OpHashIS3_EEE6EqualsEPKNS1_8OperatorE = comdat any

$_ZNK2v88internal8compiler9Operator1INS1_6TrapIdENS1_9OpEqualToIS3_EENS1_6OpHashIS3_EEE8HashCodeEv = comdat any

$_ZNK2v88internal8compiler9Operator1INS1_6TrapIdENS1_9OpEqualToIS3_EENS1_6OpHashIS3_EEE11PrintToImplERNSt3__113basic_ostreamIcNS9_11char_traitsIcEEEENS1_8Operator14PrintVerbosityE = comdat any

$_ZNK2v88internal8compiler9Operator1INS1_6TrapIdENS1_9OpEqualToIS3_EENS1_6OpHashIS3_EEE14PrintParameterERNSt3__113basic_ostreamIcNS9_11char_traitsIcEEEENS1_8Operator14PrintVerbosityE = comdat any

$_ZN2v88internal8compiler9Operator1INS1_6TrapIdENS1_9OpEqualToIS3_EENS1_6OpHashIS3_EEED0Ev = comdat any

$_ZN2v88internal8compiler25CommonOperatorGlobalCache14TrapIfOperatorILNS1_6TrapIdE6EED0Ev = comdat any

$_ZN2v88internal8compiler25CommonOperatorGlobalCache18TrapUnlessOperatorILNS1_6TrapIdE0EED0Ev = comdat any

$_ZN2v88internal8compiler25CommonOperatorGlobalCache18TrapUnlessOperatorILNS1_6TrapIdE1EED0Ev = comdat any

$_ZN2v88internal8compiler25CommonOperatorGlobalCache18TrapUnlessOperatorILNS1_6TrapIdE3EED0Ev = comdat any

$_ZN2v88internal8compiler25CommonOperatorGlobalCache18TrapUnlessOperatorILNS1_6TrapIdE4EED0Ev = comdat any

$_ZN2v88internal8compiler25CommonOperatorGlobalCache18TrapUnlessOperatorILNS1_6TrapIdE5EED0Ev = comdat any

$_ZN2v88internal8compiler25CommonOperatorGlobalCache18TrapUnlessOperatorILNS1_6TrapIdE6EED0Ev = comdat any

$_ZN2v88internal8compiler25CommonOperatorGlobalCache18TrapUnlessOperatorILNS1_6TrapIdE10EED0Ev = comdat any

$_ZN2v88internal8compiler25CommonOperatorGlobalCache18TrapUnlessOperatorILNS1_6TrapIdE7EED0Ev = comdat any

$_ZN2v88internal8compiler25CommonOperatorGlobalCache11PhiOperatorILNS0_21MachineRepresentationE9ELi1EED0Ev = comdat any

$_ZN2v88internal8compiler25CommonOperatorGlobalCache11PhiOperatorILNS0_21MachineRepresentationE9ELi2EED0Ev = comdat any

$_ZN2v88internal8compiler25CommonOperatorGlobalCache11PhiOperatorILNS0_21MachineRepresentationE9ELi3EED0Ev = comdat any

$_ZN2v88internal8compiler25CommonOperatorGlobalCache11PhiOperatorILNS0_21MachineRepresentationE9ELi4EED0Ev = comdat any

$_ZN2v88internal8compiler25CommonOperatorGlobalCache11PhiOperatorILNS0_21MachineRepresentationE9ELi5EED0Ev = comdat any

$_ZN2v88internal8compiler25CommonOperatorGlobalCache11PhiOperatorILNS0_21MachineRepresentationE9ELi6EED0Ev = comdat any

$_ZN2v88internal8compiler25CommonOperatorGlobalCache11PhiOperatorILNS0_21MachineRepresentationE1ELi2EED0Ev = comdat any

$_ZN2v88internal8compiler25CommonOperatorGlobalCache11PhiOperatorILNS0_21MachineRepresentationE13ELi2EED0Ev = comdat any

$_ZN2v88internal8compiler25CommonOperatorGlobalCache11PhiOperatorILNS0_21MachineRepresentationE4ELi2EED0Ev = comdat any

$_ZN2v88internal8compiler25CommonOperatorGlobalCache28InductionVariablePhiOperatorILi4EED0Ev = comdat any

$_ZN2v88internal8compiler25CommonOperatorGlobalCache28InductionVariablePhiOperatorILi5EED0Ev = comdat any

$_ZN2v88internal8compiler25CommonOperatorGlobalCache28InductionVariablePhiOperatorILi6EED0Ev = comdat any

$_ZN2v88internal8compiler25CommonOperatorGlobalCache28InductionVariablePhiOperatorILi7EED0Ev = comdat any

$_ZN2v88internal8compiler25CommonOperatorGlobalCache17ParameterOperatorILi0EED0Ev = comdat any

$_ZNK2v88internal8compiler9Operator1INS1_13ParameterInfoENS1_9OpEqualToIS3_EENS1_6OpHashIS3_EEE6EqualsEPKNS1_8OperatorE = comdat any

$_ZNK2v88internal8compiler9Operator1INS1_13ParameterInfoENS1_9OpEqualToIS3_EENS1_6OpHashIS3_EEE8HashCodeEv = comdat any

$_ZNK2v88internal8compiler9Operator1INS1_13ParameterInfoENS1_9OpEqualToIS3_EENS1_6OpHashIS3_EEE11PrintToImplERNSt3__113basic_ostreamIcNS9_11char_traitsIcEEEENS1_8Operator14PrintVerbosityE = comdat any

$_ZNK2v88internal8compiler9Operator1INS1_13ParameterInfoENS1_9OpEqualToIS3_EENS1_6OpHashIS3_EEE14PrintParameterERNSt3__113basic_ostreamIcNS9_11char_traitsIcEEEENS1_8Operator14PrintVerbosityE = comdat any

$_ZN2v88internal8compiler9Operator1INS1_13ParameterInfoENS1_9OpEqualToIS3_EENS1_6OpHashIS3_EEED0Ev = comdat any

$_ZN2v88internal8compiler25CommonOperatorGlobalCache17ParameterOperatorILi1EED0Ev = comdat any

$_ZN2v88internal8compiler25CommonOperatorGlobalCache17ParameterOperatorILi2EED0Ev = comdat any

$_ZN2v88internal8compiler25CommonOperatorGlobalCache17ParameterOperatorILi3EED0Ev = comdat any

$_ZN2v88internal8compiler25CommonOperatorGlobalCache17ParameterOperatorILi4EED0Ev = comdat any

$_ZN2v88internal8compiler25CommonOperatorGlobalCache17ParameterOperatorILi5EED0Ev = comdat any

$_ZN2v88internal8compiler25CommonOperatorGlobalCache17ParameterOperatorILi6EED0Ev = comdat any

$_ZN2v88internal8compiler25CommonOperatorGlobalCache18ProjectionOperatorILm0EED0Ev = comdat any

$_ZNK2v88internal8compiler9Operator1ImNS1_9OpEqualToImEENS1_6OpHashImEEE6EqualsEPKNS1_8OperatorE = comdat any

$_ZNK2v88internal8compiler9Operator1ImNS1_9OpEqualToImEENS1_6OpHashImEEE8HashCodeEv = comdat any

$_ZNK2v88internal8compiler9Operator1ImNS1_9OpEqualToImEENS1_6OpHashImEEE11PrintToImplERNSt3__113basic_ostreamIcNS8_11char_traitsIcEEEENS1_8Operator14PrintVerbosityE = comdat any

$_ZNK2v88internal8compiler9Operator1ImNS1_9OpEqualToImEENS1_6OpHashImEEE14PrintParameterERNSt3__113basic_ostreamIcNS8_11char_traitsIcEEEENS1_8Operator14PrintVerbosityE = comdat any

$_ZN2v88internal8compiler9Operator1ImNS1_9OpEqualToImEENS1_6OpHashImEEED0Ev = comdat any

$_ZN2v88internal8compiler25CommonOperatorGlobalCache18ProjectionOperatorILm1EED0Ev = comdat any

$_ZN2v88internal8compiler8OperatorD2Ev = comdat any

$_ZN2v88internal8compiler25CommonOperatorGlobalCache19StateValuesOperatorILi0EED0Ev = comdat any

$_ZNK2v88internal8compiler9Operator1INS1_15SparseInputMaskENS1_9OpEqualToIS3_EENS1_6OpHashIS3_EEE6EqualsEPKNS1_8OperatorE = comdat any

$_ZNK2v88internal8compiler9Operator1INS1_15SparseInputMaskENS1_9OpEqualToIS3_EENS1_6OpHashIS3_EEE8HashCodeEv = comdat any

$_ZNK2v88internal8compiler9Operator1INS1_15SparseInputMaskENS1_9OpEqualToIS3_EENS1_6OpHashIS3_EEE11PrintToImplERNSt3__113basic_ostreamIcNS9_11char_traitsIcEEEENS1_8Operator14PrintVerbosityE = comdat any

$_ZNK2v88internal8compiler9Operator1INS1_15SparseInputMaskENS1_9OpEqualToIS3_EENS1_6OpHashIS3_EEE14PrintParameterERNSt3__113basic_ostreamIcNS9_11char_traitsIcEEEENS1_8Operator14PrintVerbosityE = comdat any

$_ZN2v88internal8compiler9Operator1INS1_15SparseInputMaskENS1_9OpEqualToIS3_EENS1_6OpHashIS3_EEED0Ev = comdat any

$_ZN2v88internal8compiler25CommonOperatorGlobalCache19StateValuesOperatorILi1EED0Ev = comdat any

$_ZN2v88internal8compiler25CommonOperatorGlobalCache19StateValuesOperatorILi2EED0Ev = comdat any

$_ZN2v88internal8compiler25CommonOperatorGlobalCache19StateValuesOperatorILi3EED0Ev = comdat any

$_ZN2v88internal8compiler25CommonOperatorGlobalCache19StateValuesOperatorILi4EED0Ev = comdat any

$_ZN2v88internal8compiler25CommonOperatorGlobalCache19StateValuesOperatorILi5EED0Ev = comdat any

$_ZN2v88internal8compiler25CommonOperatorGlobalCache19StateValuesOperatorILi6EED0Ev = comdat any

$_ZN2v88internal8compiler25CommonOperatorGlobalCache19StateValuesOperatorILi7EED0Ev = comdat any

$_ZN2v88internal8compiler25CommonOperatorGlobalCache19StateValuesOperatorILi8EED0Ev = comdat any

$_ZN2v88internal8compiler25CommonOperatorGlobalCache19StateValuesOperatorILi10EED0Ev = comdat any

$_ZN2v88internal8compiler25CommonOperatorGlobalCache19StateValuesOperatorILi11EED0Ev = comdat any

$_ZN2v88internal8compiler25CommonOperatorGlobalCache19StateValuesOperatorILi12EED0Ev = comdat any

$_ZN2v88internal8compiler25CommonOperatorGlobalCache19StateValuesOperatorILi13EED0Ev = comdat any

$_ZN2v88internal8compiler25CommonOperatorGlobalCache19StateValuesOperatorILi14EED0Ev = comdat any

$_ZNSt3__124__put_character_sequenceIcNS_11char_traitsIcEEEERNS_13basic_ostreamIT_T0_EES7_PKS4_m = comdat any

$_ZNSt3__116__pad_and_outputIcNS_11char_traitsIcEEEENS_19ostreambuf_iteratorIT_T0_EES6_PKS4_S8_S8_RNS_8ios_baseES4_ = comdat any

$_ZN2v88internal8compiler9Operator1IPKNS0_18StringConstantBaseENS1_9OpEqualToIS5_EENS1_6OpHashIS5_EEED0Ev = comdat any

$_ZNK2v88internal8compiler9Operator1IPKNS0_18StringConstantBaseENS1_9OpEqualToIS5_EENS1_6OpHashIS5_EEE6EqualsEPKNS1_8OperatorE = comdat any

$_ZNK2v88internal8compiler9Operator1IPKNS0_18StringConstantBaseENS1_9OpEqualToIS5_EENS1_6OpHashIS5_EEE8HashCodeEv = comdat any

$_ZNK2v88internal8compiler9Operator1IPKNS0_18StringConstantBaseENS1_9OpEqualToIS5_EENS1_6OpHashIS5_EEE11PrintToImplERNSt3__113basic_ostreamIcNSB_11char_traitsIcEEEENS1_8Operator14PrintVerbosityE = comdat any

$_ZNK2v88internal8compiler9Operator1IPKNS0_18StringConstantBaseENS1_9OpEqualToIS5_EENS1_6OpHashIS5_EEE14PrintParameterERNSt3__113basic_ostreamIcNSB_11char_traitsIcEEEENS1_8Operator14PrintVerbosityE = comdat any

$_ZN2v88internal8compiler9Operator1IPKcNS1_9OpEqualToIS4_EENS1_6OpHashIS4_EEED0Ev = comdat any

$_ZNK2v88internal8compiler9Operator1IPKcNS1_9OpEqualToIS4_EENS1_6OpHashIS4_EEE6EqualsEPKNS1_8OperatorE = comdat any

$_ZNK2v88internal8compiler9Operator1IPKcNS1_9OpEqualToIS4_EENS1_6OpHashIS4_EEE8HashCodeEv = comdat any

$_ZNK2v88internal8compiler9Operator1IPKcNS1_9OpEqualToIS4_EENS1_6OpHashIS4_EEE11PrintToImplERNSt3__113basic_ostreamIcNSA_11char_traitsIcEEEENS1_8Operator14PrintVerbosityE = comdat any

$_ZNK2v88internal8compiler9Operator1IPKcNS1_9OpEqualToIS4_EENS1_6OpHashIS4_EEE14PrintParameterERNSt3__113basic_ostreamIcNSA_11char_traitsIcEEEENS1_8Operator14PrintVerbosityE = comdat any

$_ZN2v88internal8compiler9Operator1INS1_17IfValueParametersENS1_9OpEqualToIS3_EENS1_6OpHashIS3_EEED0Ev = comdat any

$_ZNK2v88internal8compiler9Operator1INS1_17IfValueParametersENS1_9OpEqualToIS3_EENS1_6OpHashIS3_EEE6EqualsEPKNS1_8OperatorE = comdat any

$_ZNK2v88internal8compiler9Operator1INS1_17IfValueParametersENS1_9OpEqualToIS3_EENS1_6OpHashIS3_EEE8HashCodeEv = comdat any

$_ZNK2v88internal8compiler9Operator1INS1_17IfValueParametersENS1_9OpEqualToIS3_EENS1_6OpHashIS3_EEE11PrintToImplERNSt3__113basic_ostreamIcNS9_11char_traitsIcEEEENS1_8Operator14PrintVerbosityE = comdat any

$_ZNK2v88internal8compiler9Operator1INS1_17IfValueParametersENS1_9OpEqualToIS3_EENS1_6OpHashIS3_EEE14PrintParameterERNSt3__113basic_ostreamIcNS9_11char_traitsIcEEEENS1_8Operator14PrintVerbosityE = comdat any

$_ZN2v88internal8compiler9Operator1INS1_10BranchHintENS1_9OpEqualToIS3_EENS1_6OpHashIS3_EEED0Ev = comdat any

$_ZNK2v88internal8compiler9Operator1INS1_10BranchHintENS1_9OpEqualToIS3_EENS1_6OpHashIS3_EEE6EqualsEPKNS1_8OperatorE = comdat any

$_ZNK2v88internal8compiler9Operator1INS1_10BranchHintENS1_9OpEqualToIS3_EENS1_6OpHashIS3_EEE8HashCodeEv = comdat any

$_ZNK2v88internal8compiler9Operator1INS1_10BranchHintENS1_9OpEqualToIS3_EENS1_6OpHashIS3_EEE11PrintToImplERNSt3__113basic_ostreamIcNS9_11char_traitsIcEEEENS1_8Operator14PrintVerbosityE = comdat any

$_ZNK2v88internal8compiler9Operator1INS1_10BranchHintENS1_9OpEqualToIS3_EENS1_6OpHashIS3_EEE14PrintParameterERNSt3__113basic_ostreamIcNS9_11char_traitsIcEEEENS1_8Operator14PrintVerbosityE = comdat any

$_ZN2v88internal8compiler9Operator1IiNS1_9OpEqualToIiEENS1_6OpHashIiEEED0Ev = comdat any

$_ZNK2v88internal8compiler9Operator1IiNS1_9OpEqualToIiEENS1_6OpHashIiEEE6EqualsEPKNS1_8OperatorE = comdat any

$_ZNK2v88internal8compiler9Operator1IiNS1_9OpEqualToIiEENS1_6OpHashIiEEE8HashCodeEv = comdat any

$_ZNK2v88internal8compiler9Operator1IiNS1_9OpEqualToIiEENS1_6OpHashIiEEE11PrintToImplERNSt3__113basic_ostreamIcNS8_11char_traitsIcEEEENS1_8Operator14PrintVerbosityE = comdat any

$_ZNK2v88internal8compiler9Operator1IiNS1_9OpEqualToIiEENS1_6OpHashIiEEE14PrintParameterERNSt3__113basic_ostreamIcNS8_11char_traitsIcEEEENS1_8Operator14PrintVerbosityE = comdat any

$_ZN2v88internal8compiler9Operator1IlNS1_9OpEqualToIlEENS1_6OpHashIlEEED0Ev = comdat any

$_ZNK2v88internal8compiler9Operator1IlNS1_9OpEqualToIlEENS1_6OpHashIlEEE6EqualsEPKNS1_8OperatorE = comdat any

$_ZNK2v88internal8compiler9Operator1IlNS1_9OpEqualToIlEENS1_6OpHashIlEEE8HashCodeEv = comdat any

$_ZNK2v88internal8compiler9Operator1IlNS1_9OpEqualToIlEENS1_6OpHashIlEEE11PrintToImplERNSt3__113basic_ostreamIcNS8_11char_traitsIcEEEENS1_8Operator14PrintVerbosityE = comdat any

$_ZNK2v88internal8compiler9Operator1IlNS1_9OpEqualToIlEENS1_6OpHashIlEEE14PrintParameterERNSt3__113basic_ostreamIcNS8_11char_traitsIcEEEENS1_8Operator14PrintVerbosityE = comdat any

$_ZN2v88internal8compiler9Operator1IfNS1_9OpEqualToIfEENS1_6OpHashIfEEED0Ev = comdat any

$_ZNK2v88internal8compiler9Operator1IfNS1_9OpEqualToIfEENS1_6OpHashIfEEE6EqualsEPKNS1_8OperatorE = comdat any

$_ZNK2v88internal8compiler9Operator1IfNS1_9OpEqualToIfEENS1_6OpHashIfEEE8HashCodeEv = comdat any

$_ZNK2v88internal8compiler9Operator1IfNS1_9OpEqualToIfEENS1_6OpHashIfEEE11PrintToImplERNSt3__113basic_ostreamIcNS8_11char_traitsIcEEEENS1_8Operator14PrintVerbosityE = comdat any

$_ZNK2v88internal8compiler9Operator1IfNS1_9OpEqualToIfEENS1_6OpHashIfEEE14PrintParameterERNSt3__113basic_ostreamIcNS8_11char_traitsIcEEEENS1_8Operator14PrintVerbosityE = comdat any

$_ZN2v88internal8compiler9Operator1IdNS1_9OpEqualToIdEENS1_6OpHashIdEEED0Ev = comdat any

$_ZNK2v88internal8compiler9Operator1IdNS1_9OpEqualToIdEENS1_6OpHashIdEEE6EqualsEPKNS1_8OperatorE = comdat any

$_ZNK2v88internal8compiler9Operator1IdNS1_9OpEqualToIdEENS1_6OpHashIdEEE8HashCodeEv = comdat any

$_ZNK2v88internal8compiler9Operator1IdNS1_9OpEqualToIdEENS1_6OpHashIdEEE11PrintToImplERNSt3__113basic_ostreamIcNS8_11char_traitsIcEEEENS1_8Operator14PrintVerbosityE = comdat any

$_ZNK2v88internal8compiler9Operator1IdNS1_9OpEqualToIdEENS1_6OpHashIdEEE14PrintParameterERNSt3__113basic_ostreamIcNS8_11char_traitsIcEEEENS1_8Operator14PrintVerbosityE = comdat any

$_ZN2v88internal8compiler9Operator1INS0_17ExternalReferenceENS1_9OpEqualToIS3_EENS1_6OpHashIS3_EEED0Ev = comdat any

$_ZNK2v88internal8compiler9Operator1INS0_17ExternalReferenceENS1_9OpEqualToIS3_EENS1_6OpHashIS3_EEE6EqualsEPKNS1_8OperatorE = comdat any

$_ZNK2v88internal8compiler9Operator1INS0_17ExternalReferenceENS1_9OpEqualToIS3_EENS1_6OpHashIS3_EEE8HashCodeEv = comdat any

$_ZNK2v88internal8compiler9Operator1INS0_17ExternalReferenceENS1_9OpEqualToIS3_EENS1_6OpHashIS3_EEE11PrintToImplERNSt3__113basic_ostreamIcNS9_11char_traitsIcEEEENS1_8Operator14PrintVerbosityE = comdat any

$_ZNK2v88internal8compiler9Operator1INS0_17ExternalReferenceENS1_9OpEqualToIS3_EENS1_6OpHashIS3_EEE14PrintParameterERNSt3__113basic_ostreamIcNS9_11char_traitsIcEEEENS1_8Operator14PrintVerbosityE = comdat any

$_ZN2v88internal8compiler9Operator1INS0_6HandleINS0_10HeapObjectEEENS1_9OpEqualToIS5_EENS1_6OpHashIS5_EEED0Ev = comdat any

$_ZNK2v88internal8compiler9Operator1INS0_6HandleINS0_10HeapObjectEEENS1_9OpEqualToIS5_EENS1_6OpHashIS5_EEE6EqualsEPKNS1_8OperatorE = comdat any

$_ZNK2v88internal8compiler9Operator1INS0_6HandleINS0_10HeapObjectEEENS1_9OpEqualToIS5_EENS1_6OpHashIS5_EEE8HashCodeEv = comdat any

$_ZNK2v88internal8compiler9Operator1INS0_6HandleINS0_10HeapObjectEEENS1_9OpEqualToIS5_EENS1_6OpHashIS5_EEE11PrintToImplERNSt3__113basic_ostreamIcNSB_11char_traitsIcEEEENS1_8Operator14PrintVerbosityE = comdat any

$_ZNK2v88internal8compiler9Operator1INS0_6HandleINS0_10HeapObjectEEENS1_9OpEqualToIS5_EENS1_6OpHashIS5_EEE14PrintParameterERNSt3__113basic_ostreamIcNSB_11char_traitsIcEEEENS1_8Operator14PrintVerbosityE = comdat any

$_ZN2v88internal8compiler9Operator1INS1_26RelocatablePtrConstantInfoENS1_9OpEqualToIS3_EENS1_6OpHashIS3_EEED0Ev = comdat any

$_ZNK2v88internal8compiler9Operator1INS1_26RelocatablePtrConstantInfoENS1_9OpEqualToIS3_EENS1_6OpHashIS3_EEE6EqualsEPKNS1_8OperatorE = comdat any

$_ZNK2v88internal8compiler9Operator1INS1_26RelocatablePtrConstantInfoENS1_9OpEqualToIS3_EENS1_6OpHashIS3_EEE8HashCodeEv = comdat any

$_ZNK2v88internal8compiler9Operator1INS1_26RelocatablePtrConstantInfoENS1_9OpEqualToIS3_EENS1_6OpHashIS3_EEE11PrintToImplERNSt3__113basic_ostreamIcNS9_11char_traitsIcEEEENS1_8Operator14PrintVerbosityE = comdat any

$_ZNK2v88internal8compiler9Operator1INS1_26RelocatablePtrConstantInfoENS1_9OpEqualToIS3_EENS1_6OpHashIS3_EEE14PrintParameterERNSt3__113basic_ostreamIcNS9_11char_traitsIcEEEENS1_8Operator14PrintVerbosityE = comdat any

$_ZN2v88internal8compiler9Operator1IjNS1_9OpEqualToIjEENS1_6OpHashIjEEED0Ev = comdat any

$_ZNK2v88internal8compiler9Operator1IjNS1_9OpEqualToIjEENS1_6OpHashIjEEE6EqualsEPKNS1_8OperatorE = comdat any

$_ZNK2v88internal8compiler9Operator1IjNS1_9OpEqualToIjEENS1_6OpHashIjEEE8HashCodeEv = comdat any

$_ZNK2v88internal8compiler9Operator1IjNS1_9OpEqualToIjEENS1_6OpHashIjEEE11PrintToImplERNSt3__113basic_ostreamIcNS8_11char_traitsIcEEEENS1_8Operator14PrintVerbosityE = comdat any

$_ZNK2v88internal8compiler9Operator1IjNS1_9OpEqualToIjEENS1_6OpHashIjEEE14PrintParameterERNSt3__113basic_ostreamIcNS8_11char_traitsIcEEEENS1_8Operator14PrintVerbosityE = comdat any

$_ZN2v88internal8compiler9Operator1INS1_16SelectParametersENS1_9OpEqualToIS3_EENS1_6OpHashIS3_EEED0Ev = comdat any

$_ZNK2v88internal8compiler9Operator1INS1_16SelectParametersENS1_9OpEqualToIS3_EENS1_6OpHashIS3_EEE6EqualsEPKNS1_8OperatorE = comdat any

$_ZNK2v88internal8compiler9Operator1INS1_16SelectParametersENS1_9OpEqualToIS3_EENS1_6OpHashIS3_EEE8HashCodeEv = comdat any

$_ZNK2v88internal8compiler9Operator1INS1_16SelectParametersENS1_9OpEqualToIS3_EENS1_6OpHashIS3_EEE11PrintToImplERNSt3__113basic_ostreamIcNS9_11char_traitsIcEEEENS1_8Operator14PrintVerbosityE = comdat any

$_ZNK2v88internal8compiler9Operator1INS1_16SelectParametersENS1_9OpEqualToIS3_EENS1_6OpHashIS3_EEE14PrintParameterERNSt3__113basic_ostreamIcNS9_11char_traitsIcEEEENS1_8Operator14PrintVerbosityE = comdat any

$_ZN2v88internal8compiler9Operator1INS1_4TypeENS1_9OpEqualToIS3_EENS1_6OpHashIS3_EEED0Ev = comdat any

$_ZNK2v88internal8compiler9Operator1INS1_4TypeENS1_9OpEqualToIS3_EENS1_6OpHashIS3_EEE6EqualsEPKNS1_8OperatorE = comdat any

$_ZNK2v88internal8compiler9Operator1INS1_4TypeENS1_9OpEqualToIS3_EENS1_6OpHashIS3_EEE8HashCodeEv = comdat any

$_ZNK2v88internal8compiler9Operator1INS1_4TypeENS1_9OpEqualToIS3_EENS1_6OpHashIS3_EEE11PrintToImplERNSt3__113basic_ostreamIcNS9_11char_traitsIcEEEENS1_8Operator14PrintVerbosityE = comdat any

$_ZNK2v88internal8compiler9Operator1INS1_4TypeENS1_9OpEqualToIS3_EENS1_6OpHashIS3_EEE14PrintParameterERNSt3__113basic_ostreamIcNS9_11char_traitsIcEEEENS1_8Operator14PrintVerbosityE = comdat any

$_ZN2v88internal8compiler9Operator1INS1_19TypedStateValueInfoENS1_9OpEqualToIS3_EENS1_6OpHashIS3_EEED0Ev = comdat any

$_ZNK2v88internal8compiler9Operator1INS1_19TypedStateValueInfoENS1_9OpEqualToIS3_EENS1_6OpHashIS3_EEE6EqualsEPKNS1_8OperatorE = comdat any

$_ZNK2v88internal8compiler9Operator1INS1_19TypedStateValueInfoENS1_9OpEqualToIS3_EENS1_6OpHashIS3_EEE8HashCodeEv = comdat any

$_ZNK2v88internal8compiler9Operator1INS1_19TypedStateValueInfoENS1_9OpEqualToIS3_EENS1_6OpHashIS3_EEE11PrintToImplERNSt3__113basic_ostreamIcNS9_11char_traitsIcEEEENS1_8Operator14PrintVerbosityE = comdat any

$_ZNK2v88internal8compiler9Operator1INS1_19TypedStateValueInfoENS1_9OpEqualToIS3_EENS1_6OpHashIS3_EEE14PrintParameterERNSt3__113basic_ostreamIcNS9_11char_traitsIcEEEENS1_8Operator14PrintVerbosityE = comdat any

$_ZN2v88internal8compiler9Operator1INS0_19CreateArgumentsTypeENS1_9OpEqualToIS3_EENS1_6OpHashIS3_EEED0Ev = comdat any

$_ZNK2v88internal8compiler9Operator1INS0_19CreateArgumentsTypeENS1_9OpEqualToIS3_EENS1_6OpHashIS3_EEE6EqualsEPKNS1_8OperatorE = comdat any

$_ZNK2v88internal8compiler9Operator1INS0_19CreateArgumentsTypeENS1_9OpEqualToIS3_EENS1_6OpHashIS3_EEE8HashCodeEv = comdat any

$_ZNK2v88internal8compiler9Operator1INS0_19CreateArgumentsTypeENS1_9OpEqualToIS3_EENS1_6OpHashIS3_EEE11PrintToImplERNSt3__113basic_ostreamIcNS9_11char_traitsIcEEEENS1_8Operator14PrintVerbosityE = comdat any

$_ZNK2v88internal8compiler9Operator1INS0_19CreateArgumentsTypeENS1_9OpEqualToIS3_EENS1_6OpHashIS3_EEE14PrintParameterERNSt3__113basic_ostreamIcNS9_11char_traitsIcEEEENS1_8Operator14PrintVerbosityE = comdat any

$_ZN2v88internal8compiler9Operator1INS1_15ObjectStateInfoENS1_9OpEqualToIS3_EENS1_6OpHashIS3_EEED0Ev = comdat any

$_ZNK2v88internal8compiler9Operator1INS1_15ObjectStateInfoENS1_9OpEqualToIS3_EENS1_6OpHashIS3_EEE6EqualsEPKNS1_8OperatorE = comdat any

$_ZNK2v88internal8compiler9Operator1INS1_15ObjectStateInfoENS1_9OpEqualToIS3_EENS1_6OpHashIS3_EEE8HashCodeEv = comdat any

$_ZNK2v88internal8compiler9Operator1INS1_15ObjectStateInfoENS1_9OpEqualToIS3_EENS1_6OpHashIS3_EEE11PrintToImplERNSt3__113basic_ostreamIcNS9_11char_traitsIcEEEENS1_8Operator14PrintVerbosityE = comdat any

$_ZNK2v88internal8compiler9Operator1INS1_15ObjectStateInfoENS1_9OpEqualToIS3_EENS1_6OpHashIS3_EEE14PrintParameterERNSt3__113basic_ostreamIcNS9_11char_traitsIcEEEENS1_8Operator14PrintVerbosityE = comdat any

$_ZN2v88internal8compiler9Operator1INS1_20TypedObjectStateInfoENS1_9OpEqualToIS3_EENS1_6OpHashIS3_EEED0Ev = comdat any

$_ZNK2v88internal8compiler9Operator1INS1_20TypedObjectStateInfoENS1_9OpEqualToIS3_EENS1_6OpHashIS3_EEE6EqualsEPKNS1_8OperatorE = comdat any

$_ZNK2v88internal8compiler9Operator1INS1_20TypedObjectStateInfoENS1_9OpEqualToIS3_EENS1_6OpHashIS3_EEE8HashCodeEv = comdat any

$_ZNK2v88internal8compiler9Operator1INS1_20TypedObjectStateInfoENS1_9OpEqualToIS3_EENS1_6OpHashIS3_EEE11PrintToImplERNSt3__113basic_ostreamIcNS9_11char_traitsIcEEEENS1_8Operator14PrintVerbosityE = comdat any

$_ZNK2v88internal8compiler9Operator1INS1_20TypedObjectStateInfoENS1_9OpEqualToIS3_EENS1_6OpHashIS3_EEE14PrintParameterERNSt3__113basic_ostreamIcNS9_11char_traitsIcEEEENS1_8Operator14PrintVerbosityE = comdat any

$_ZN2v88internal8compiler9Operator1INS1_14FrameStateInfoENS1_9OpEqualToIS3_EENS1_6OpHashIS3_EEED0Ev = comdat any

$_ZNK2v88internal8compiler9Operator1INS1_14FrameStateInfoENS1_9OpEqualToIS3_EENS1_6OpHashIS3_EEE6EqualsEPKNS1_8OperatorE = comdat any

$_ZNK2v88internal8compiler9Operator1INS1_14FrameStateInfoENS1_9OpEqualToIS3_EENS1_6OpHashIS3_EEE8HashCodeEv = comdat any

$_ZNK2v88internal8compiler9Operator1INS1_14FrameStateInfoENS1_9OpEqualToIS3_EENS1_6OpHashIS3_EEE11PrintToImplERNSt3__113basic_ostreamIcNS9_11char_traitsIcEEEENS1_8Operator14PrintVerbosityE = comdat any

$_ZNK2v88internal8compiler9Operator1INS1_14FrameStateInfoENS1_9OpEqualToIS3_EENS1_6OpHashIS3_EEE14PrintParameterERNSt3__113basic_ostreamIcNS9_11char_traitsIcEEEENS1_8Operator14PrintVerbosityE = comdat any

$_ZNK2v88internal8compiler9Operator1IPKNS1_14CallDescriptorENS1_9OpEqualToIS5_EENS1_6OpHashIS5_EEE6EqualsEPKNS1_8OperatorE = comdat any

$_ZNK2v88internal8compiler9Operator1IPKNS1_14CallDescriptorENS1_9OpEqualToIS5_EENS1_6OpHashIS5_EEE8HashCodeEv = comdat any

$_ZNK2v88internal8compiler9Operator1IPKNS1_14CallDescriptorENS1_9OpEqualToIS5_EENS1_6OpHashIS5_EEE11PrintToImplERNSt3__113basic_ostreamIcNSB_11char_traitsIcEEEENS1_8Operator14PrintVerbosityE = comdat any

$_ZTVN2v88internal8compiler25CommonOperatorGlobalCache12DeadOperatorE = comdat any

$_ZTVN2v88internal8compiler25CommonOperatorGlobalCache19UnreachableOperatorE = comdat any

$_ZTVN2v88internal8compiler25CommonOperatorGlobalCache14IfTrueOperatorE = comdat any

$_ZTVN2v88internal8compiler25CommonOperatorGlobalCache15IfFalseOperatorE = comdat any

$_ZTVN2v88internal8compiler25CommonOperatorGlobalCache17IfSuccessOperatorE = comdat any

$_ZTVN2v88internal8compiler25CommonOperatorGlobalCache19IfExceptionOperatorE = comdat any

$_ZTVN2v88internal8compiler25CommonOperatorGlobalCache13ThrowOperatorE = comdat any

$_ZTVN2v88internal8compiler25CommonOperatorGlobalCache17TerminateOperatorE = comdat any

$_ZTVN2v88internal8compiler25CommonOperatorGlobalCache16LoopExitOperatorE = comdat any

$_ZTVN2v88internal8compiler25CommonOperatorGlobalCache22LoopExitEffectOperatorE = comdat any

$_ZTVN2v88internal8compiler25CommonOperatorGlobalCache18CheckpointOperatorE = comdat any

$_ZTVN2v88internal8compiler25CommonOperatorGlobalCache20FinishRegionOperatorE = comdat any

$_ZTVN2v88internal8compiler25CommonOperatorGlobalCache14RetainOperatorE = comdat any

$_ZTVN2v88internal8compiler25CommonOperatorGlobalCache11EndOperatorILm1EEE = comdat any

$_ZTVN2v88internal8compiler25CommonOperatorGlobalCache11EndOperatorILm2EEE = comdat any

$_ZTVN2v88internal8compiler25CommonOperatorGlobalCache11EndOperatorILm3EEE = comdat any

$_ZTVN2v88internal8compiler25CommonOperatorGlobalCache11EndOperatorILm4EEE = comdat any

$_ZTVN2v88internal8compiler25CommonOperatorGlobalCache11EndOperatorILm5EEE = comdat any

$_ZTVN2v88internal8compiler25CommonOperatorGlobalCache11EndOperatorILm6EEE = comdat any

$_ZTVN2v88internal8compiler25CommonOperatorGlobalCache11EndOperatorILm7EEE = comdat any

$_ZTVN2v88internal8compiler25CommonOperatorGlobalCache11EndOperatorILm8EEE = comdat any

$_ZTVN2v88internal8compiler25CommonOperatorGlobalCache14ReturnOperatorILm1EEE = comdat any

$_ZTVN2v88internal8compiler25CommonOperatorGlobalCache14ReturnOperatorILm2EEE = comdat any

$_ZTVN2v88internal8compiler25CommonOperatorGlobalCache14ReturnOperatorILm3EEE = comdat any

$_ZTVN2v88internal8compiler25CommonOperatorGlobalCache14ReturnOperatorILm4EEE = comdat any

$_ZTVN2v88internal8compiler25CommonOperatorGlobalCache14BranchOperatorILNS1_10BranchHintE0ELNS1_13IsSafetyCheckE0EEE = comdat any

$_ZTVN2v88internal8compiler25CommonOperatorGlobalCache14BranchOperatorILNS1_10BranchHintE1ELNS1_13IsSafetyCheckE0EEE = comdat any

$_ZTVN2v88internal8compiler25CommonOperatorGlobalCache14BranchOperatorILNS1_10BranchHintE2ELNS1_13IsSafetyCheckE0EEE = comdat any

$_ZTVN2v88internal8compiler25CommonOperatorGlobalCache14BranchOperatorILNS1_10BranchHintE0ELNS1_13IsSafetyCheckE1EEE = comdat any

$_ZTVN2v88internal8compiler25CommonOperatorGlobalCache14BranchOperatorILNS1_10BranchHintE1ELNS1_13IsSafetyCheckE1EEE = comdat any

$_ZTVN2v88internal8compiler25CommonOperatorGlobalCache14BranchOperatorILNS1_10BranchHintE2ELNS1_13IsSafetyCheckE1EEE = comdat any

$_ZTVN2v88internal8compiler25CommonOperatorGlobalCache14BranchOperatorILNS1_10BranchHintE0ELNS1_13IsSafetyCheckE2EEE = comdat any

$_ZTVN2v88internal8compiler25CommonOperatorGlobalCache14BranchOperatorILNS1_10BranchHintE1ELNS1_13IsSafetyCheckE2EEE = comdat any

$_ZTVN2v88internal8compiler25CommonOperatorGlobalCache14BranchOperatorILNS1_10BranchHintE2ELNS1_13IsSafetyCheckE2EEE = comdat any

$_ZTVN2v88internal8compiler25CommonOperatorGlobalCache17EffectPhiOperatorILi1EEE = comdat any

$_ZTVN2v88internal8compiler25CommonOperatorGlobalCache17EffectPhiOperatorILi2EEE = comdat any

$_ZTVN2v88internal8compiler25CommonOperatorGlobalCache17EffectPhiOperatorILi3EEE = comdat any

$_ZTVN2v88internal8compiler25CommonOperatorGlobalCache17EffectPhiOperatorILi4EEE = comdat any

$_ZTVN2v88internal8compiler25CommonOperatorGlobalCache17EffectPhiOperatorILi5EEE = comdat any

$_ZTVN2v88internal8compiler25CommonOperatorGlobalCache17EffectPhiOperatorILi6EEE = comdat any

$_ZTVN2v88internal8compiler25CommonOperatorGlobalCache19BeginRegionOperatorILNS1_19RegionObservabilityE0EEE = comdat any

$_ZTVN2v88internal8compiler25CommonOperatorGlobalCache19BeginRegionOperatorILNS1_19RegionObservabilityE1EEE = comdat any

$_ZTVN2v88internal8compiler25CommonOperatorGlobalCache12LoopOperatorILm1EEE = comdat any

$_ZTVN2v88internal8compiler25CommonOperatorGlobalCache12LoopOperatorILm2EEE = comdat any

$_ZTVN2v88internal8compiler25CommonOperatorGlobalCache13MergeOperatorILm1EEE = comdat any

$_ZTVN2v88internal8compiler25CommonOperatorGlobalCache13MergeOperatorILm2EEE = comdat any

$_ZTVN2v88internal8compiler25CommonOperatorGlobalCache13MergeOperatorILm3EEE = comdat any

$_ZTVN2v88internal8compiler25CommonOperatorGlobalCache13MergeOperatorILm4EEE = comdat any

$_ZTVN2v88internal8compiler25CommonOperatorGlobalCache13MergeOperatorILm5EEE = comdat any

$_ZTVN2v88internal8compiler25CommonOperatorGlobalCache13MergeOperatorILm6EEE = comdat any

$_ZTVN2v88internal8compiler25CommonOperatorGlobalCache13MergeOperatorILm7EEE = comdat any

$_ZTVN2v88internal8compiler25CommonOperatorGlobalCache13MergeOperatorILm8EEE = comdat any

$_ZTVN2v88internal8compiler25CommonOperatorGlobalCache21LoopExitValueOperatorILNS0_21MachineRepresentationE9EEE = comdat any

$_ZTVN2v88internal8compiler9Operator1INS0_21MachineRepresentationENS1_9OpEqualToIS3_EENS1_6OpHashIS3_EEEE = comdat any

$_ZTVN2v88internal8compiler25CommonOperatorGlobalCache18DeoptimizeOperatorILNS0_14DeoptimizeKindE0ELNS0_16DeoptimizeReasonE19EEE = comdat any

$_ZTVN2v88internal8compiler9Operator1INS1_20DeoptimizeParametersENS1_9OpEqualToIS3_EENS1_6OpHashIS3_EEEE = comdat any

$_ZTVN2v88internal8compiler25CommonOperatorGlobalCache18DeoptimizeOperatorILNS0_14DeoptimizeKindE0ELNS0_16DeoptimizeReasonE45EEE = comdat any

$_ZTVN2v88internal8compiler25CommonOperatorGlobalCache18DeoptimizeOperatorILNS0_14DeoptimizeKindE1ELNS0_16DeoptimizeReasonE15EEE = comdat any

$_ZTVN2v88internal8compiler25CommonOperatorGlobalCache18DeoptimizeOperatorILNS0_14DeoptimizeKindE1ELNS0_16DeoptimizeReasonE14EEE = comdat any

$_ZTVN2v88internal8compiler25CommonOperatorGlobalCache20DeoptimizeIfOperatorILNS0_14DeoptimizeKindE0ELNS0_16DeoptimizeReasonE5ELNS1_13IsSafetyCheckE2EEE = comdat any

$_ZTVN2v88internal8compiler25CommonOperatorGlobalCache20DeoptimizeIfOperatorILNS0_14DeoptimizeKindE0ELNS0_16DeoptimizeReasonE5ELNS1_13IsSafetyCheckE1EEE = comdat any

$_ZTVN2v88internal8compiler25CommonOperatorGlobalCache20DeoptimizeIfOperatorILNS0_14DeoptimizeKindE0ELNS0_16DeoptimizeReasonE7ELNS1_13IsSafetyCheckE2EEE = comdat any

$_ZTVN2v88internal8compiler25CommonOperatorGlobalCache20DeoptimizeIfOperatorILNS0_14DeoptimizeKindE0ELNS0_16DeoptimizeReasonE7ELNS1_13IsSafetyCheckE1EEE = comdat any

$_ZTVN2v88internal8compiler25CommonOperatorGlobalCache20DeoptimizeIfOperatorILNS0_14DeoptimizeKindE0ELNS0_16DeoptimizeReasonE19ELNS1_13IsSafetyCheckE2EEE = comdat any

$_ZTVN2v88internal8compiler25CommonOperatorGlobalCache20DeoptimizeIfOperatorILNS0_14DeoptimizeKindE0ELNS0_16DeoptimizeReasonE19ELNS1_13IsSafetyCheckE1EEE = comdat any

$_ZTVN2v88internal8compiler25CommonOperatorGlobalCache20DeoptimizeIfOperatorILNS0_14DeoptimizeKindE0ELNS0_16DeoptimizeReasonE35ELNS1_13IsSafetyCheckE2EEE = comdat any

$_ZTVN2v88internal8compiler25CommonOperatorGlobalCache20DeoptimizeIfOperatorILNS0_14DeoptimizeKindE0ELNS0_16DeoptimizeReasonE35ELNS1_13IsSafetyCheckE1EEE = comdat any

$_ZTVN2v88internal8compiler25CommonOperatorGlobalCache20DeoptimizeIfOperatorILNS0_14DeoptimizeKindE0ELNS0_16DeoptimizeReasonE36ELNS1_13IsSafetyCheckE1EEE = comdat any

$_ZTVN2v88internal8compiler25CommonOperatorGlobalCache24DeoptimizeUnlessOperatorILNS0_14DeoptimizeKindE0ELNS0_16DeoptimizeReasonE17ELNS1_13IsSafetyCheckE2EEE = comdat any

$_ZTVN2v88internal8compiler25CommonOperatorGlobalCache24DeoptimizeUnlessOperatorILNS0_14DeoptimizeKindE0ELNS0_16DeoptimizeReasonE17ELNS1_13IsSafetyCheckE1EEE = comdat any

$_ZTVN2v88internal8compiler25CommonOperatorGlobalCache24DeoptimizeUnlessOperatorILNS0_14DeoptimizeKindE0ELNS0_16DeoptimizeReasonE18ELNS1_13IsSafetyCheckE2EEE = comdat any

$_ZTVN2v88internal8compiler25CommonOperatorGlobalCache24DeoptimizeUnlessOperatorILNS0_14DeoptimizeKindE0ELNS0_16DeoptimizeReasonE18ELNS1_13IsSafetyCheckE1EEE = comdat any

$_ZTVN2v88internal8compiler25CommonOperatorGlobalCache24DeoptimizeUnlessOperatorILNS0_14DeoptimizeKindE0ELNS0_16DeoptimizeReasonE23ELNS1_13IsSafetyCheckE1EEE = comdat any

$_ZTVN2v88internal8compiler25CommonOperatorGlobalCache24DeoptimizeUnlessOperatorILNS0_14DeoptimizeKindE0ELNS0_16DeoptimizeReasonE28ELNS1_13IsSafetyCheckE1EEE = comdat any

$_ZTVN2v88internal8compiler25CommonOperatorGlobalCache24DeoptimizeUnlessOperatorILNS0_14DeoptimizeKindE0ELNS0_16DeoptimizeReasonE30ELNS1_13IsSafetyCheckE1EEE = comdat any

$_ZTVN2v88internal8compiler25CommonOperatorGlobalCache24DeoptimizeUnlessOperatorILNS0_14DeoptimizeKindE0ELNS0_16DeoptimizeReasonE34ELNS1_13IsSafetyCheckE1EEE = comdat any

$_ZTVN2v88internal8compiler25CommonOperatorGlobalCache24DeoptimizeUnlessOperatorILNS0_14DeoptimizeKindE0ELNS0_16DeoptimizeReasonE44ELNS1_13IsSafetyCheckE1EEE = comdat any

$_ZTVN2v88internal8compiler25CommonOperatorGlobalCache24DeoptimizeUnlessOperatorILNS0_14DeoptimizeKindE0ELNS0_16DeoptimizeReasonE45ELNS1_13IsSafetyCheckE1EEE = comdat any

$_ZTVN2v88internal8compiler25CommonOperatorGlobalCache23DynamicMapCheckOperatorE = comdat any

$_ZTVN2v88internal8compiler25CommonOperatorGlobalCache14TrapIfOperatorILNS1_6TrapIdE4EEE = comdat any

$_ZTVN2v88internal8compiler9Operator1INS1_6TrapIdENS1_9OpEqualToIS3_EENS1_6OpHashIS3_EEEE = comdat any

$_ZTVN2v88internal8compiler25CommonOperatorGlobalCache14TrapIfOperatorILNS1_6TrapIdE6EEE = comdat any

$_ZTVN2v88internal8compiler25CommonOperatorGlobalCache18TrapUnlessOperatorILNS1_6TrapIdE0EEE = comdat any

$_ZTVN2v88internal8compiler25CommonOperatorGlobalCache18TrapUnlessOperatorILNS1_6TrapIdE1EEE = comdat any

$_ZTVN2v88internal8compiler25CommonOperatorGlobalCache18TrapUnlessOperatorILNS1_6TrapIdE3EEE = comdat any

$_ZTVN2v88internal8compiler25CommonOperatorGlobalCache18TrapUnlessOperatorILNS1_6TrapIdE4EEE = comdat any

$_ZTVN2v88internal8compiler25CommonOperatorGlobalCache18TrapUnlessOperatorILNS1_6TrapIdE5EEE = comdat any

$_ZTVN2v88internal8compiler25CommonOperatorGlobalCache18TrapUnlessOperatorILNS1_6TrapIdE6EEE = comdat any

$_ZTVN2v88internal8compiler25CommonOperatorGlobalCache18TrapUnlessOperatorILNS1_6TrapIdE10EEE = comdat any

$_ZTVN2v88internal8compiler25CommonOperatorGlobalCache18TrapUnlessOperatorILNS1_6TrapIdE7EEE = comdat any

$_ZTVN2v88internal8compiler25CommonOperatorGlobalCache11PhiOperatorILNS0_21MachineRepresentationE9ELi1EEE = comdat any

$_ZTVN2v88internal8compiler25CommonOperatorGlobalCache11PhiOperatorILNS0_21MachineRepresentationE9ELi2EEE = comdat any

$_ZTVN2v88internal8compiler25CommonOperatorGlobalCache11PhiOperatorILNS0_21MachineRepresentationE9ELi3EEE = comdat any

$_ZTVN2v88internal8compiler25CommonOperatorGlobalCache11PhiOperatorILNS0_21MachineRepresentationE9ELi4EEE = comdat any

$_ZTVN2v88internal8compiler25CommonOperatorGlobalCache11PhiOperatorILNS0_21MachineRepresentationE9ELi5EEE = comdat any

$_ZTVN2v88internal8compiler25CommonOperatorGlobalCache11PhiOperatorILNS0_21MachineRepresentationE9ELi6EEE = comdat any

$_ZTVN2v88internal8compiler25CommonOperatorGlobalCache11PhiOperatorILNS0_21MachineRepresentationE1ELi2EEE = comdat any

$_ZTVN2v88internal8compiler25CommonOperatorGlobalCache11PhiOperatorILNS0_21MachineRepresentationE13ELi2EEE = comdat any

$_ZTVN2v88internal8compiler25CommonOperatorGlobalCache11PhiOperatorILNS0_21MachineRepresentationE4ELi2EEE = comdat any

$_ZTVN2v88internal8compiler25CommonOperatorGlobalCache28InductionVariablePhiOperatorILi4EEE = comdat any

$_ZTVN2v88internal8compiler25CommonOperatorGlobalCache28InductionVariablePhiOperatorILi5EEE = comdat any

$_ZTVN2v88internal8compiler25CommonOperatorGlobalCache28InductionVariablePhiOperatorILi6EEE = comdat any

$_ZTVN2v88internal8compiler25CommonOperatorGlobalCache28InductionVariablePhiOperatorILi7EEE = comdat any

$_ZTVN2v88internal8compiler25CommonOperatorGlobalCache17ParameterOperatorILi0EEE = comdat any

$_ZTVN2v88internal8compiler9Operator1INS1_13ParameterInfoENS1_9OpEqualToIS3_EENS1_6OpHashIS3_EEEE = comdat any

$_ZTVN2v88internal8compiler25CommonOperatorGlobalCache17ParameterOperatorILi1EEE = comdat any

$_ZTVN2v88internal8compiler25CommonOperatorGlobalCache17ParameterOperatorILi2EEE = comdat any

$_ZTVN2v88internal8compiler25CommonOperatorGlobalCache17ParameterOperatorILi3EEE = comdat any

$_ZTVN2v88internal8compiler25CommonOperatorGlobalCache17ParameterOperatorILi4EEE = comdat any

$_ZTVN2v88internal8compiler25CommonOperatorGlobalCache17ParameterOperatorILi5EEE = comdat any

$_ZTVN2v88internal8compiler25CommonOperatorGlobalCache17ParameterOperatorILi6EEE = comdat any

$_ZTVN2v88internal8compiler25CommonOperatorGlobalCache18ProjectionOperatorILm0EEE = comdat any

$_ZTVN2v88internal8compiler9Operator1ImNS1_9OpEqualToImEENS1_6OpHashImEEEE = comdat any

$_ZTVN2v88internal8compiler25CommonOperatorGlobalCache18ProjectionOperatorILm1EEE = comdat any

$_ZTVN2v88internal8compiler25CommonOperatorGlobalCache19StateValuesOperatorILi0EEE = comdat any

$_ZTVN2v88internal8compiler9Operator1INS1_15SparseInputMaskENS1_9OpEqualToIS3_EENS1_6OpHashIS3_EEEE = comdat any

$_ZTVN2v88internal8compiler25CommonOperatorGlobalCache19StateValuesOperatorILi1EEE = comdat any

$_ZTVN2v88internal8compiler25CommonOperatorGlobalCache19StateValuesOperatorILi2EEE = comdat any

$_ZTVN2v88internal8compiler25CommonOperatorGlobalCache19StateValuesOperatorILi3EEE = comdat any

$_ZTVN2v88internal8compiler25CommonOperatorGlobalCache19StateValuesOperatorILi4EEE = comdat any

$_ZTVN2v88internal8compiler25CommonOperatorGlobalCache19StateValuesOperatorILi5EEE = comdat any

$_ZTVN2v88internal8compiler25CommonOperatorGlobalCache19StateValuesOperatorILi6EEE = comdat any

$_ZTVN2v88internal8compiler25CommonOperatorGlobalCache19StateValuesOperatorILi7EEE = comdat any

$_ZTVN2v88internal8compiler25CommonOperatorGlobalCache19StateValuesOperatorILi8EEE = comdat any

$_ZTVN2v88internal8compiler25CommonOperatorGlobalCache19StateValuesOperatorILi10EEE = comdat any

$_ZTVN2v88internal8compiler25CommonOperatorGlobalCache19StateValuesOperatorILi11EEE = comdat any

$_ZTVN2v88internal8compiler25CommonOperatorGlobalCache19StateValuesOperatorILi12EEE = comdat any

$_ZTVN2v88internal8compiler25CommonOperatorGlobalCache19StateValuesOperatorILi13EEE = comdat any

$_ZTVN2v88internal8compiler25CommonOperatorGlobalCache19StateValuesOperatorILi14EEE = comdat any

$_ZTVN2v88internal8compiler9Operator1IPKNS0_18StringConstantBaseENS1_9OpEqualToIS5_EENS1_6OpHashIS5_EEEE = comdat any

$_ZTVN2v88internal8compiler9Operator1IPKcNS1_9OpEqualToIS4_EENS1_6OpHashIS4_EEEE = comdat any

$_ZTVN2v88internal8compiler9Operator1INS1_17IfValueParametersENS1_9OpEqualToIS3_EENS1_6OpHashIS3_EEEE = comdat any

$_ZTVN2v88internal8compiler9Operator1INS1_10BranchHintENS1_9OpEqualToIS3_EENS1_6OpHashIS3_EEEE = comdat any

$_ZTVN2v88internal8compiler9Operator1IiNS1_9OpEqualToIiEENS1_6OpHashIiEEEE = comdat any

$_ZTVN2v88internal8compiler9Operator1IlNS1_9OpEqualToIlEENS1_6OpHashIlEEEE = comdat any

$_ZTVN2v88internal8compiler9Operator1IfNS1_9OpEqualToIfEENS1_6OpHashIfEEEE = comdat any

$_ZTVN2v88internal8compiler9Operator1IdNS1_9OpEqualToIdEENS1_6OpHashIdEEEE = comdat any

$_ZTVN2v88internal8compiler9Operator1INS0_17ExternalReferenceENS1_9OpEqualToIS3_EENS1_6OpHashIS3_EEEE = comdat any

$_ZTVN2v88internal8compiler9Operator1INS0_6HandleINS0_10HeapObjectEEENS1_9OpEqualToIS5_EENS1_6OpHashIS5_EEEE = comdat any

$_ZTVN2v88internal8compiler9Operator1INS1_26RelocatablePtrConstantInfoENS1_9OpEqualToIS3_EENS1_6OpHashIS3_EEEE = comdat any

$_ZTVN2v88internal8compiler9Operator1IjNS1_9OpEqualToIjEENS1_6OpHashIjEEEE = comdat any

$_ZTVN2v88internal8compiler9Operator1INS1_16SelectParametersENS1_9OpEqualToIS3_EENS1_6OpHashIS3_EEEE = comdat any

$_ZTVN2v88internal8compiler9Operator1INS1_4TypeENS1_9OpEqualToIS3_EENS1_6OpHashIS3_EEEE = comdat any

$_ZTVN2v88internal8compiler9Operator1INS1_19TypedStateValueInfoENS1_9OpEqualToIS3_EENS1_6OpHashIS3_EEEE = comdat any

$_ZTVN2v88internal8compiler9Operator1INS0_19CreateArgumentsTypeENS1_9OpEqualToIS3_EENS1_6OpHashIS3_EEEE = comdat any

$_ZTVN2v88internal8compiler9Operator1INS1_15ObjectStateInfoENS1_9OpEqualToIS3_EENS1_6OpHashIS3_EEEE = comdat any

$_ZTVN2v88internal8compiler9Operator1INS1_20TypedObjectStateInfoENS1_9OpEqualToIS3_EENS1_6OpHashIS3_EEEE = comdat any

$_ZTVN2v88internal8compiler9Operator1INS1_14FrameStateInfoENS1_9OpEqualToIS3_EENS1_6OpHashIS3_EEEE = comdat any

@.str = private unnamed_addr constant [5 x i8] c"None\00", align 1
@.str.1 = private unnamed_addr constant [5 x i8] c"True\00", align 1
@.str.2 = private unnamed_addr constant [6 x i8] c"False\00", align 1
@.str.3 = private unnamed_addr constant [17 x i8] c"unreachable code\00", align 1
@.str.4 = private unnamed_addr constant [20 x i8] c"CriticalSafetyCheck\00", align 1
@.str.5 = private unnamed_addr constant [12 x i8] c"SafetyCheck\00", align 1
@.str.6 = private unnamed_addr constant [14 x i8] c"NoSafetyCheck\00", align 1
@.str.7 = private unnamed_addr constant [16 x i8] c"TrapUnreachable\00", align 1
@.str.8 = private unnamed_addr constant [19 x i8] c"TrapMemOutOfBounds\00", align 1
@.str.9 = private unnamed_addr constant [20 x i8] c"TrapUnalignedAccess\00", align 1
@.str.10 = private unnamed_addr constant [14 x i8] c"TrapDivByZero\00", align 1
@.str.11 = private unnamed_addr constant [23 x i8] c"TrapDivUnrepresentable\00", align 1
@.str.12 = private unnamed_addr constant [14 x i8] c"TrapRemByZero\00", align 1
@.str.13 = private unnamed_addr constant [25 x i8] c"TrapFloatUnrepresentable\00", align 1
@.str.14 = private unnamed_addr constant [20 x i8] c"TrapFuncSigMismatch\00", align 1
@.str.15 = private unnamed_addr constant [23 x i8] c"TrapDataSegmentDropped\00", align 1
@.str.16 = private unnamed_addr constant [23 x i8] c"TrapElemSegmentDropped\00", align 1
@.str.17 = private unnamed_addr constant [21 x i8] c"TrapTableOutOfBounds\00", align 1
@.str.18 = private unnamed_addr constant [16 x i8] c"TrapRethrowNull\00", align 1
@.str.19 = private unnamed_addr constant [20 x i8] c"TrapNullDereference\00", align 1
@.str.20 = private unnamed_addr constant [16 x i8] c"TrapIllegalCast\00", align 1
@.str.21 = private unnamed_addr constant [21 x i8] c"TrapArrayOutOfBounds\00", align 1
@.str.22 = private unnamed_addr constant [8 x i8] c"Invalid\00", align 1
@.str.23 = private unnamed_addr constant [3 x i8] c", \00", align 1
@.str.24 = private unnamed_addr constant [22 x i8] c"DelayedStringConstant\00", align 1
@.str.25 = private unnamed_addr constant [15 x i8] c", debug name: \00", align 1
@.str.26 = private unnamed_addr constant [4 x i8] c"id:\00", align 1
@.str.27 = private unnamed_addr constant [8 x i8] c", size:\00", align 1
@.str.28 = private unnamed_addr constant [6 x i8] c"dense\00", align 1
@.str.29 = private unnamed_addr constant [8 x i8] c"sparse:\00", align 1
@.str.30 = private unnamed_addr constant [2 x i8] c"^\00", align 1
@.str.31 = private unnamed_addr constant [2 x i8] c".\00", align 1
@.str.32 = private unnamed_addr constant [11 x i8] c"observable\00", align 1
@.str.33 = private unnamed_addr constant [15 x i8] c"not-observable\00", align 1
@.str.34 = private unnamed_addr constant [9 x i8] c" (order \00", align 1
@.str.35 = private unnamed_addr constant [8 x i8] c", hint \00", align 1
@.str.36 = private unnamed_addr constant [2 x i8] c")\00", align 1
@.str.37 = private unnamed_addr constant [4 x i8] c"End\00", align 1
@.str.38 = private unnamed_addr constant [7 x i8] c"Return\00", align 1
@.str.39 = private unnamed_addr constant [13 x i8] c"StaticAssert\00", align 1
@.str.40 = private unnamed_addr constant [11 x i8] c"Deoptimize\00", align 1
@.str.41 = private unnamed_addr constant [13 x i8] c"DeoptimizeIf\00", align 1
@.str.42 = private unnamed_addr constant [17 x i8] c"DeoptimizeUnless\00", align 1
@.str.43 = private unnamed_addr constant [7 x i8] c"TrapIf\00", align 1
@.str.44 = private unnamed_addr constant [11 x i8] c"TrapUnless\00", align 1
@.str.45 = private unnamed_addr constant [7 x i8] c"Switch\00", align 1
@.str.46 = private unnamed_addr constant [8 x i8] c"IfValue\00", align 1
@.str.47 = private unnamed_addr constant [10 x i8] c"IfDefault\00", align 1
@.str.48 = private unnamed_addr constant [6 x i8] c"Start\00", align 1
@.str.49 = private unnamed_addr constant [5 x i8] c"Loop\00", align 1
@.str.50 = private unnamed_addr constant [6 x i8] c"Merge\00", align 1
@.str.51 = private unnamed_addr constant [14 x i8] c"LoopExitValue\00", align 1
@.str.52 = private unnamed_addr constant [10 x i8] c"Parameter\00", align 1
@.str.53 = private unnamed_addr constant [9 x i8] c"OsrValue\00", align 1
@.str.54 = private unnamed_addr constant [14 x i8] c"Int32Constant\00", align 1
@.str.55 = private unnamed_addr constant [14 x i8] c"Int64Constant\00", align 1
@.str.56 = private unnamed_addr constant [20 x i8] c"TaggedIndexConstant\00", align 1
@.str.57 = private unnamed_addr constant [16 x i8] c"Float32Constant\00", align 1
@.str.58 = private unnamed_addr constant [16 x i8] c"Float64Constant\00", align 1
@.str.59 = private unnamed_addr constant [17 x i8] c"ExternalConstant\00", align 1
@.str.60 = private unnamed_addr constant [15 x i8] c"NumberConstant\00", align 1
@.str.61 = private unnamed_addr constant [16 x i8] c"PointerConstant\00", align 1
@.str.62 = private unnamed_addr constant [13 x i8] c"HeapConstant\00", align 1
@.str.63 = private unnamed_addr constant [23 x i8] c"CompressedHeapConstant\00", align 1
@.str.64 = private unnamed_addr constant [25 x i8] c"RelocatableInt32Constant\00", align 1
@.str.65 = private unnamed_addr constant [25 x i8] c"RelocatableInt64Constant\00", align 1
@.str.66 = private unnamed_addr constant [9 x i8] c"ObjectId\00", align 1
@.str.67 = private unnamed_addr constant [7 x i8] c"Select\00", align 1
@.str.68 = private unnamed_addr constant [4 x i8] c"Phi\00", align 1
@.str.69 = private unnamed_addr constant [10 x i8] c"TypeGuard\00", align 1
@.str.70 = private unnamed_addr constant [13 x i8] c"FoldConstant\00", align 1
@.str.71 = private unnamed_addr constant [10 x i8] c"EffectPhi\00", align 1
@.str.72 = private unnamed_addr constant [21 x i8] c"InductionVariablePhi\00", align 1
@.str.73 = private unnamed_addr constant [12 x i8] c"StateValues\00", align 1
@.str.74 = private unnamed_addr constant [17 x i8] c"TypedStateValues\00", align 1
@.str.75 = private unnamed_addr constant [23 x i8] c"ArgumentsElementsState\00", align 1
@.str.76 = private unnamed_addr constant [21 x i8] c"ArgumentsLengthState\00", align 1
@.str.77 = private unnamed_addr constant [12 x i8] c"ObjectState\00", align 1
@.str.78 = private unnamed_addr constant [17 x i8] c"TypedObjectState\00", align 1
@.str.79 = private unnamed_addr constant [11 x i8] c"FrameState\00", align 1
@.str.80 = private unnamed_addr constant [11 x i8] c"Projection\00", align 1
@.str.81 = private unnamed_addr constant [10 x i8] c"DeadValue\00", align 1
@.str.82 = private unnamed_addr constant [6 x i8] c"Eager\00", align 1
@.str.83 = private unnamed_addr constant [5 x i8] c"Soft\00", align 1
@.str.84 = private unnamed_addr constant [5 x i8] c"Lazy\00", align 1
@.str.85 = private unnamed_addr constant [8 x i8] c"Bailout\00", align 1
@.str.86 = private unnamed_addr constant [17 x i8] c"EagerMaybeResume\00", align 1
@_ZZN2v88internal8compiler12_GLOBAL__N_128GetCommonOperatorGlobalCacheEvE6object = internal global %"class.v8::base::LeakyObject" zeroinitializer, align 8
@_ZGVZN2v88internal8compiler12_GLOBAL__N_128GetCommonOperatorGlobalCacheEvE6object = internal global i64 0, align 8
@.str.87 = private unnamed_addr constant [5 x i8] c"Dead\00", align 1
@_ZTVN2v88internal8compiler25CommonOperatorGlobalCache12DeadOperatorE = linkonce_odr hidden unnamed_addr constant { [7 x i8*] } { [7 x i8*] [i8* null, i8* null, i8* bitcast (void (%"class.v8::internal::compiler::Operator"*)* @_ZN2v88internal8compiler8OperatorD2Ev to i8*), i8* bitcast (void (%"struct.v8::internal::compiler::CommonOperatorGlobalCache::DeadOperator"*)* @_ZN2v88internal8compiler25CommonOperatorGlobalCache12DeadOperatorD0Ev to i8*), i8* bitcast (i1 (%"class.v8::internal::compiler::Operator"*, %"class.v8::internal::compiler::Operator"*)* @_ZNK2v88internal8compiler8Operator6EqualsEPKS2_ to i8*), i8* bitcast (i64 (%"class.v8::internal::compiler::Operator"*)* @_ZNK2v88internal8compiler8Operator8HashCodeEv to i8*), i8* bitcast (void (%"class.v8::internal::compiler::Operator"*, %"class.std::__1::basic_ostream"*, i32)* @_ZNK2v88internal8compiler8Operator11PrintToImplERNSt3__113basic_ostreamIcNS3_11char_traitsIcEEEENS2_14PrintVerbosityE to i8*)] }, comdat, align 8
@.str.88 = private unnamed_addr constant [12 x i8] c"Unreachable\00", align 1
@_ZTVN2v88internal8compiler25CommonOperatorGlobalCache19UnreachableOperatorE = linkonce_odr hidden unnamed_addr constant { [7 x i8*] } { [7 x i8*] [i8* null, i8* null, i8* bitcast (void (%"class.v8::internal::compiler::Operator"*)* @_ZN2v88internal8compiler8OperatorD2Ev to i8*), i8* bitcast (void (%"struct.v8::internal::compiler::CommonOperatorGlobalCache::UnreachableOperator"*)* @_ZN2v88internal8compiler25CommonOperatorGlobalCache19UnreachableOperatorD0Ev to i8*), i8* bitcast (i1 (%"class.v8::internal::compiler::Operator"*, %"class.v8::internal::compiler::Operator"*)* @_ZNK2v88internal8compiler8Operator6EqualsEPKS2_ to i8*), i8* bitcast (i64 (%"class.v8::internal::compiler::Operator"*)* @_ZNK2v88internal8compiler8Operator8HashCodeEv to i8*), i8* bitcast (void (%"class.v8::internal::compiler::Operator"*, %"class.std::__1::basic_ostream"*, i32)* @_ZNK2v88internal8compiler8Operator11PrintToImplERNSt3__113basic_ostreamIcNS3_11char_traitsIcEEEENS2_14PrintVerbosityE to i8*)] }, comdat, align 8
@.str.89 = private unnamed_addr constant [7 x i8] c"IfTrue\00", align 1
@_ZTVN2v88internal8compiler25CommonOperatorGlobalCache14IfTrueOperatorE = linkonce_odr hidden unnamed_addr constant { [7 x i8*] } { [7 x i8*] [i8* null, i8* null, i8* bitcast (void (%"class.v8::internal::compiler::Operator"*)* @_ZN2v88internal8compiler8OperatorD2Ev to i8*), i8* bitcast (void (%"struct.v8::internal::compiler::CommonOperatorGlobalCache::IfTrueOperator"*)* @_ZN2v88internal8compiler25CommonOperatorGlobalCache14IfTrueOperatorD0Ev to i8*), i8* bitcast (i1 (%"class.v8::internal::compiler::Operator"*, %"class.v8::internal::compiler::Operator"*)* @_ZNK2v88internal8compiler8Operator6EqualsEPKS2_ to i8*), i8* bitcast (i64 (%"class.v8::internal::compiler::Operator"*)* @_ZNK2v88internal8compiler8Operator8HashCodeEv to i8*), i8* bitcast (void (%"class.v8::internal::compiler::Operator"*, %"class.std::__1::basic_ostream"*, i32)* @_ZNK2v88internal8compiler8Operator11PrintToImplERNSt3__113basic_ostreamIcNS3_11char_traitsIcEEEENS2_14PrintVerbosityE to i8*)] }, comdat, align 8
@.str.90 = private unnamed_addr constant [8 x i8] c"IfFalse\00", align 1
@_ZTVN2v88internal8compiler25CommonOperatorGlobalCache15IfFalseOperatorE = linkonce_odr hidden unnamed_addr constant { [7 x i8*] } { [7 x i8*] [i8* null, i8* null, i8* bitcast (void (%"class.v8::internal::compiler::Operator"*)* @_ZN2v88internal8compiler8OperatorD2Ev to i8*), i8* bitcast (void (%"struct.v8::internal::compiler::CommonOperatorGlobalCache::IfFalseOperator"*)* @_ZN2v88internal8compiler25CommonOperatorGlobalCache15IfFalseOperatorD0Ev to i8*), i8* bitcast (i1 (%"class.v8::internal::compiler::Operator"*, %"class.v8::internal::compiler::Operator"*)* @_ZNK2v88internal8compiler8Operator6EqualsEPKS2_ to i8*), i8* bitcast (i64 (%"class.v8::internal::compiler::Operator"*)* @_ZNK2v88internal8compiler8Operator8HashCodeEv to i8*), i8* bitcast (void (%"class.v8::internal::compiler::Operator"*, %"class.std::__1::basic_ostream"*, i32)* @_ZNK2v88internal8compiler8Operator11PrintToImplERNSt3__113basic_ostreamIcNS3_11char_traitsIcEEEENS2_14PrintVerbosityE to i8*)] }, comdat, align 8
@.str.91 = private unnamed_addr constant [10 x i8] c"IfSuccess\00", align 1
@_ZTVN2v88internal8compiler25CommonOperatorGlobalCache17IfSuccessOperatorE = linkonce_odr hidden unnamed_addr constant { [7 x i8*] } { [7 x i8*] [i8* null, i8* null, i8* bitcast (void (%"class.v8::internal::compiler::Operator"*)* @_ZN2v88internal8compiler8OperatorD2Ev to i8*), i8* bitcast (void (%"struct.v8::internal::compiler::CommonOperatorGlobalCache::IfSuccessOperator"*)* @_ZN2v88internal8compiler25CommonOperatorGlobalCache17IfSuccessOperatorD0Ev to i8*), i8* bitcast (i1 (%"class.v8::internal::compiler::Operator"*, %"class.v8::internal::compiler::Operator"*)* @_ZNK2v88internal8compiler8Operator6EqualsEPKS2_ to i8*), i8* bitcast (i64 (%"class.v8::internal::compiler::Operator"*)* @_ZNK2v88internal8compiler8Operator8HashCodeEv to i8*), i8* bitcast (void (%"class.v8::internal::compiler::Operator"*, %"class.std::__1::basic_ostream"*, i32)* @_ZNK2v88internal8compiler8Operator11PrintToImplERNSt3__113basic_ostreamIcNS3_11char_traitsIcEEEENS2_14PrintVerbosityE to i8*)] }, comdat, align 8
@.str.92 = private unnamed_addr constant [12 x i8] c"IfException\00", align 1
@_ZTVN2v88internal8compiler25CommonOperatorGlobalCache19IfExceptionOperatorE = linkonce_odr hidden unnamed_addr constant { [7 x i8*] } { [7 x i8*] [i8* null, i8* null, i8* bitcast (void (%"class.v8::internal::compiler::Operator"*)* @_ZN2v88internal8compiler8OperatorD2Ev to i8*), i8* bitcast (void (%"struct.v8::internal::compiler::CommonOperatorGlobalCache::IfExceptionOperator"*)* @_ZN2v88internal8compiler25CommonOperatorGlobalCache19IfExceptionOperatorD0Ev to i8*), i8* bitcast (i1 (%"class.v8::internal::compiler::Operator"*, %"class.v8::internal::compiler::Operator"*)* @_ZNK2v88internal8compiler8Operator6EqualsEPKS2_ to i8*), i8* bitcast (i64 (%"class.v8::internal::compiler::Operator"*)* @_ZNK2v88internal8compiler8Operator8HashCodeEv to i8*), i8* bitcast (void (%"class.v8::internal::compiler::Operator"*, %"class.std::__1::basic_ostream"*, i32)* @_ZNK2v88internal8compiler8Operator11PrintToImplERNSt3__113basic_ostreamIcNS3_11char_traitsIcEEEENS2_14PrintVerbosityE to i8*)] }, comdat, align 8
@.str.93 = private unnamed_addr constant [6 x i8] c"Throw\00", align 1
@_ZTVN2v88internal8compiler25CommonOperatorGlobalCache13ThrowOperatorE = linkonce_odr hidden unnamed_addr constant { [7 x i8*] } { [7 x i8*] [i8* null, i8* null, i8* bitcast (void (%"class.v8::internal::compiler::Operator"*)* @_ZN2v88internal8compiler8OperatorD2Ev to i8*), i8* bitcast (void (%"struct.v8::internal::compiler::CommonOperatorGlobalCache::ThrowOperator"*)* @_ZN2v88internal8compiler25CommonOperatorGlobalCache13ThrowOperatorD0Ev to i8*), i8* bitcast (i1 (%"class.v8::internal::compiler::Operator"*, %"class.v8::internal::compiler::Operator"*)* @_ZNK2v88internal8compiler8Operator6EqualsEPKS2_ to i8*), i8* bitcast (i64 (%"class.v8::internal::compiler::Operator"*)* @_ZNK2v88internal8compiler8Operator8HashCodeEv to i8*), i8* bitcast (void (%"class.v8::internal::compiler::Operator"*, %"class.std::__1::basic_ostream"*, i32)* @_ZNK2v88internal8compiler8Operator11PrintToImplERNSt3__113basic_ostreamIcNS3_11char_traitsIcEEEENS2_14PrintVerbosityE to i8*)] }, comdat, align 8
@.str.94 = private unnamed_addr constant [10 x i8] c"Terminate\00", align 1
@_ZTVN2v88internal8compiler25CommonOperatorGlobalCache17TerminateOperatorE = linkonce_odr hidden unnamed_addr constant { [7 x i8*] } { [7 x i8*] [i8* null, i8* null, i8* bitcast (void (%"class.v8::internal::compiler::Operator"*)* @_ZN2v88internal8compiler8OperatorD2Ev to i8*), i8* bitcast (void (%"struct.v8::internal::compiler::CommonOperatorGlobalCache::TerminateOperator"*)* @_ZN2v88internal8compiler25CommonOperatorGlobalCache17TerminateOperatorD0Ev to i8*), i8* bitcast (i1 (%"class.v8::internal::compiler::Operator"*, %"class.v8::internal::compiler::Operator"*)* @_ZNK2v88internal8compiler8Operator6EqualsEPKS2_ to i8*), i8* bitcast (i64 (%"class.v8::internal::compiler::Operator"*)* @_ZNK2v88internal8compiler8Operator8HashCodeEv to i8*), i8* bitcast (void (%"class.v8::internal::compiler::Operator"*, %"class.std::__1::basic_ostream"*, i32)* @_ZNK2v88internal8compiler8Operator11PrintToImplERNSt3__113basic_ostreamIcNS3_11char_traitsIcEEEENS2_14PrintVerbosityE to i8*)] }, comdat, align 8
@.str.95 = private unnamed_addr constant [9 x i8] c"LoopExit\00", align 1
@_ZTVN2v88internal8compiler25CommonOperatorGlobalCache16LoopExitOperatorE = linkonce_odr hidden unnamed_addr constant { [7 x i8*] } { [7 x i8*] [i8* null, i8* null, i8* bitcast (void (%"class.v8::internal::compiler::Operator"*)* @_ZN2v88internal8compiler8OperatorD2Ev to i8*), i8* bitcast (void (%"struct.v8::internal::compiler::CommonOperatorGlobalCache::LoopExitOperator"*)* @_ZN2v88internal8compiler25CommonOperatorGlobalCache16LoopExitOperatorD0Ev to i8*), i8* bitcast (i1 (%"class.v8::internal::compiler::Operator"*, %"class.v8::internal::compiler::Operator"*)* @_ZNK2v88internal8compiler8Operator6EqualsEPKS2_ to i8*), i8* bitcast (i64 (%"class.v8::internal::compiler::Operator"*)* @_ZNK2v88internal8compiler8Operator8HashCodeEv to i8*), i8* bitcast (void (%"class.v8::internal::compiler::Operator"*, %"class.std::__1::basic_ostream"*, i32)* @_ZNK2v88internal8compiler8Operator11PrintToImplERNSt3__113basic_ostreamIcNS3_11char_traitsIcEEEENS2_14PrintVerbosityE to i8*)] }, comdat, align 8
@.str.96 = private unnamed_addr constant [15 x i8] c"LoopExitEffect\00", align 1
@_ZTVN2v88internal8compiler25CommonOperatorGlobalCache22LoopExitEffectOperatorE = linkonce_odr hidden unnamed_addr constant { [7 x i8*] } { [7 x i8*] [i8* null, i8* null, i8* bitcast (void (%"class.v8::internal::compiler::Operator"*)* @_ZN2v88internal8compiler8OperatorD2Ev to i8*), i8* bitcast (void (%"struct.v8::internal::compiler::CommonOperatorGlobalCache::LoopExitEffectOperator"*)* @_ZN2v88internal8compiler25CommonOperatorGlobalCache22LoopExitEffectOperatorD0Ev to i8*), i8* bitcast (i1 (%"class.v8::internal::compiler::Operator"*, %"class.v8::internal::compiler::Operator"*)* @_ZNK2v88internal8compiler8Operator6EqualsEPKS2_ to i8*), i8* bitcast (i64 (%"class.v8::internal::compiler::Operator"*)* @_ZNK2v88internal8compiler8Operator8HashCodeEv to i8*), i8* bitcast (void (%"class.v8::internal::compiler::Operator"*, %"class.std::__1::basic_ostream"*, i32)* @_ZNK2v88internal8compiler8Operator11PrintToImplERNSt3__113basic_ostreamIcNS3_11char_traitsIcEEEENS2_14PrintVerbosityE to i8*)] }, comdat, align 8
@.str.97 = private unnamed_addr constant [11 x i8] c"Checkpoint\00", align 1
@_ZTVN2v88internal8compiler25CommonOperatorGlobalCache18CheckpointOperatorE = linkonce_odr hidden unnamed_addr constant { [7 x i8*] } { [7 x i8*] [i8* null, i8* null, i8* bitcast (void (%"class.v8::internal::compiler::Operator"*)* @_ZN2v88internal8compiler8OperatorD2Ev to i8*), i8* bitcast (void (%"struct.v8::internal::compiler::CommonOperatorGlobalCache::CheckpointOperator"*)* @_ZN2v88internal8compiler25CommonOperatorGlobalCache18CheckpointOperatorD0Ev to i8*), i8* bitcast (i1 (%"class.v8::internal::compiler::Operator"*, %"class.v8::internal::compiler::Operator"*)* @_ZNK2v88internal8compiler8Operator6EqualsEPKS2_ to i8*), i8* bitcast (i64 (%"class.v8::internal::compiler::Operator"*)* @_ZNK2v88internal8compiler8Operator8HashCodeEv to i8*), i8* bitcast (void (%"class.v8::internal::compiler::Operator"*, %"class.std::__1::basic_ostream"*, i32)* @_ZNK2v88internal8compiler8Operator11PrintToImplERNSt3__113basic_ostreamIcNS3_11char_traitsIcEEEENS2_14PrintVerbosityE to i8*)] }, comdat, align 8
@.str.98 = private unnamed_addr constant [13 x i8] c"FinishRegion\00", align 1
@_ZTVN2v88internal8compiler25CommonOperatorGlobalCache20FinishRegionOperatorE = linkonce_odr hidden unnamed_addr constant { [7 x i8*] } { [7 x i8*] [i8* null, i8* null, i8* bitcast (void (%"class.v8::internal::compiler::Operator"*)* @_ZN2v88internal8compiler8OperatorD2Ev to i8*), i8* bitcast (void (%"struct.v8::internal::compiler::CommonOperatorGlobalCache::FinishRegionOperator"*)* @_ZN2v88internal8compiler25CommonOperatorGlobalCache20FinishRegionOperatorD0Ev to i8*), i8* bitcast (i1 (%"class.v8::internal::compiler::Operator"*, %"class.v8::internal::compiler::Operator"*)* @_ZNK2v88internal8compiler8Operator6EqualsEPKS2_ to i8*), i8* bitcast (i64 (%"class.v8::internal::compiler::Operator"*)* @_ZNK2v88internal8compiler8Operator8HashCodeEv to i8*), i8* bitcast (void (%"class.v8::internal::compiler::Operator"*, %"class.std::__1::basic_ostream"*, i32)* @_ZNK2v88internal8compiler8Operator11PrintToImplERNSt3__113basic_ostreamIcNS3_11char_traitsIcEEEENS2_14PrintVerbosityE to i8*)] }, comdat, align 8
@.str.99 = private unnamed_addr constant [7 x i8] c"Retain\00", align 1
@_ZTVN2v88internal8compiler25CommonOperatorGlobalCache14RetainOperatorE = linkonce_odr hidden unnamed_addr constant { [7 x i8*] } { [7 x i8*] [i8* null, i8* null, i8* bitcast (void (%"class.v8::internal::compiler::Operator"*)* @_ZN2v88internal8compiler8OperatorD2Ev to i8*), i8* bitcast (void (%"struct.v8::internal::compiler::CommonOperatorGlobalCache::RetainOperator"*)* @_ZN2v88internal8compiler25CommonOperatorGlobalCache14RetainOperatorD0Ev to i8*), i8* bitcast (i1 (%"class.v8::internal::compiler::Operator"*, %"class.v8::internal::compiler::Operator"*)* @_ZNK2v88internal8compiler8Operator6EqualsEPKS2_ to i8*), i8* bitcast (i64 (%"class.v8::internal::compiler::Operator"*)* @_ZNK2v88internal8compiler8Operator8HashCodeEv to i8*), i8* bitcast (void (%"class.v8::internal::compiler::Operator"*, %"class.std::__1::basic_ostream"*, i32)* @_ZNK2v88internal8compiler8Operator11PrintToImplERNSt3__113basic_ostreamIcNS3_11char_traitsIcEEEENS2_14PrintVerbosityE to i8*)] }, comdat, align 8
@_ZTVN2v88internal8compiler25CommonOperatorGlobalCache11EndOperatorILm1EEE = linkonce_odr hidden unnamed_addr constant { [7 x i8*] } { [7 x i8*] [i8* null, i8* null, i8* bitcast (void (%"class.v8::internal::compiler::Operator"*)* @_ZN2v88internal8compiler8OperatorD2Ev to i8*), i8* bitcast (void (%"struct.v8::internal::compiler::CommonOperatorGlobalCache::EndOperator"*)* @_ZN2v88internal8compiler25CommonOperatorGlobalCache11EndOperatorILm1EED0Ev to i8*), i8* bitcast (i1 (%"class.v8::internal::compiler::Operator"*, %"class.v8::internal::compiler::Operator"*)* @_ZNK2v88internal8compiler8Operator6EqualsEPKS2_ to i8*), i8* bitcast (i64 (%"class.v8::internal::compiler::Operator"*)* @_ZNK2v88internal8compiler8Operator8HashCodeEv to i8*), i8* bitcast (void (%"class.v8::internal::compiler::Operator"*, %"class.std::__1::basic_ostream"*, i32)* @_ZNK2v88internal8compiler8Operator11PrintToImplERNSt3__113basic_ostreamIcNS3_11char_traitsIcEEEENS2_14PrintVerbosityE to i8*)] }, comdat, align 8
@_ZTVN2v88internal8compiler25CommonOperatorGlobalCache11EndOperatorILm2EEE = linkonce_odr hidden unnamed_addr constant { [7 x i8*] } { [7 x i8*] [i8* null, i8* null, i8* bitcast (void (%"class.v8::internal::compiler::Operator"*)* @_ZN2v88internal8compiler8OperatorD2Ev to i8*), i8* bitcast (void (%"struct.v8::internal::compiler::CommonOperatorGlobalCache::EndOperator.0"*)* @_ZN2v88internal8compiler25CommonOperatorGlobalCache11EndOperatorILm2EED0Ev to i8*), i8* bitcast (i1 (%"class.v8::internal::compiler::Operator"*, %"class.v8::internal::compiler::Operator"*)* @_ZNK2v88internal8compiler8Operator6EqualsEPKS2_ to i8*), i8* bitcast (i64 (%"class.v8::internal::compiler::Operator"*)* @_ZNK2v88internal8compiler8Operator8HashCodeEv to i8*), i8* bitcast (void (%"class.v8::internal::compiler::Operator"*, %"class.std::__1::basic_ostream"*, i32)* @_ZNK2v88internal8compiler8Operator11PrintToImplERNSt3__113basic_ostreamIcNS3_11char_traitsIcEEEENS2_14PrintVerbosityE to i8*)] }, comdat, align 8
@_ZTVN2v88internal8compiler25CommonOperatorGlobalCache11EndOperatorILm3EEE = linkonce_odr hidden unnamed_addr constant { [7 x i8*] } { [7 x i8*] [i8* null, i8* null, i8* bitcast (void (%"class.v8::internal::compiler::Operator"*)* @_ZN2v88internal8compiler8OperatorD2Ev to i8*), i8* bitcast (void (%"struct.v8::internal::compiler::CommonOperatorGlobalCache::EndOperator.1"*)* @_ZN2v88internal8compiler25CommonOperatorGlobalCache11EndOperatorILm3EED0Ev to i8*), i8* bitcast (i1 (%"class.v8::internal::compiler::Operator"*, %"class.v8::internal::compiler::Operator"*)* @_ZNK2v88internal8compiler8Operator6EqualsEPKS2_ to i8*), i8* bitcast (i64 (%"class.v8::internal::compiler::Operator"*)* @_ZNK2v88internal8compiler8Operator8HashCodeEv to i8*), i8* bitcast (void (%"class.v8::internal::compiler::Operator"*, %"class.std::__1::basic_ostream"*, i32)* @_ZNK2v88internal8compiler8Operator11PrintToImplERNSt3__113basic_ostreamIcNS3_11char_traitsIcEEEENS2_14PrintVerbosityE to i8*)] }, comdat, align 8
@_ZTVN2v88internal8compiler25CommonOperatorGlobalCache11EndOperatorILm4EEE = linkonce_odr hidden unnamed_addr constant { [7 x i8*] } { [7 x i8*] [i8* null, i8* null, i8* bitcast (void (%"class.v8::internal::compiler::Operator"*)* @_ZN2v88internal8compiler8OperatorD2Ev to i8*), i8* bitcast (void (%"struct.v8::internal::compiler::CommonOperatorGlobalCache::EndOperator.2"*)* @_ZN2v88internal8compiler25CommonOperatorGlobalCache11EndOperatorILm4EED0Ev to i8*), i8* bitcast (i1 (%"class.v8::internal::compiler::Operator"*, %"class.v8::internal::compiler::Operator"*)* @_ZNK2v88internal8compiler8Operator6EqualsEPKS2_ to i8*), i8* bitcast (i64 (%"class.v8::internal::compiler::Operator"*)* @_ZNK2v88internal8compiler8Operator8HashCodeEv to i8*), i8* bitcast (void (%"class.v8::internal::compiler::Operator"*, %"class.std::__1::basic_ostream"*, i32)* @_ZNK2v88internal8compiler8Operator11PrintToImplERNSt3__113basic_ostreamIcNS3_11char_traitsIcEEEENS2_14PrintVerbosityE to i8*)] }, comdat, align 8
@_ZTVN2v88internal8compiler25CommonOperatorGlobalCache11EndOperatorILm5EEE = linkonce_odr hidden unnamed_addr constant { [7 x i8*] } { [7 x i8*] [i8* null, i8* null, i8* bitcast (void (%"class.v8::internal::compiler::Operator"*)* @_ZN2v88internal8compiler8OperatorD2Ev to i8*), i8* bitcast (void (%"struct.v8::internal::compiler::CommonOperatorGlobalCache::EndOperator.3"*)* @_ZN2v88internal8compiler25CommonOperatorGlobalCache11EndOperatorILm5EED0Ev to i8*), i8* bitcast (i1 (%"class.v8::internal::compiler::Operator"*, %"class.v8::internal::compiler::Operator"*)* @_ZNK2v88internal8compiler8Operator6EqualsEPKS2_ to i8*), i8* bitcast (i64 (%"class.v8::internal::compiler::Operator"*)* @_ZNK2v88internal8compiler8Operator8HashCodeEv to i8*), i8* bitcast (void (%"class.v8::internal::compiler::Operator"*, %"class.std::__1::basic_ostream"*, i32)* @_ZNK2v88internal8compiler8Operator11PrintToImplERNSt3__113basic_ostreamIcNS3_11char_traitsIcEEEENS2_14PrintVerbosityE to i8*)] }, comdat, align 8
@_ZTVN2v88internal8compiler25CommonOperatorGlobalCache11EndOperatorILm6EEE = linkonce_odr hidden unnamed_addr constant { [7 x i8*] } { [7 x i8*] [i8* null, i8* null, i8* bitcast (void (%"class.v8::internal::compiler::Operator"*)* @_ZN2v88internal8compiler8OperatorD2Ev to i8*), i8* bitcast (void (%"struct.v8::internal::compiler::CommonOperatorGlobalCache::EndOperator.4"*)* @_ZN2v88internal8compiler25CommonOperatorGlobalCache11EndOperatorILm6EED0Ev to i8*), i8* bitcast (i1 (%"class.v8::internal::compiler::Operator"*, %"class.v8::internal::compiler::Operator"*)* @_ZNK2v88internal8compiler8Operator6EqualsEPKS2_ to i8*), i8* bitcast (i64 (%"class.v8::internal::compiler::Operator"*)* @_ZNK2v88internal8compiler8Operator8HashCodeEv to i8*), i8* bitcast (void (%"class.v8::internal::compiler::Operator"*, %"class.std::__1::basic_ostream"*, i32)* @_ZNK2v88internal8compiler8Operator11PrintToImplERNSt3__113basic_ostreamIcNS3_11char_traitsIcEEEENS2_14PrintVerbosityE to i8*)] }, comdat, align 8
@_ZTVN2v88internal8compiler25CommonOperatorGlobalCache11EndOperatorILm7EEE = linkonce_odr hidden unnamed_addr constant { [7 x i8*] } { [7 x i8*] [i8* null, i8* null, i8* bitcast (void (%"class.v8::internal::compiler::Operator"*)* @_ZN2v88internal8compiler8OperatorD2Ev to i8*), i8* bitcast (void (%"struct.v8::internal::compiler::CommonOperatorGlobalCache::EndOperator.5"*)* @_ZN2v88internal8compiler25CommonOperatorGlobalCache11EndOperatorILm7EED0Ev to i8*), i8* bitcast (i1 (%"class.v8::internal::compiler::Operator"*, %"class.v8::internal::compiler::Operator"*)* @_ZNK2v88internal8compiler8Operator6EqualsEPKS2_ to i8*), i8* bitcast (i64 (%"class.v8::internal::compiler::Operator"*)* @_ZNK2v88internal8compiler8Operator8HashCodeEv to i8*), i8* bitcast (void (%"class.v8::internal::compiler::Operator"*, %"class.std::__1::basic_ostream"*, i32)* @_ZNK2v88internal8compiler8Operator11PrintToImplERNSt3__113basic_ostreamIcNS3_11char_traitsIcEEEENS2_14PrintVerbosityE to i8*)] }, comdat, align 8
@_ZTVN2v88internal8compiler25CommonOperatorGlobalCache11EndOperatorILm8EEE = linkonce_odr hidden unnamed_addr constant { [7 x i8*] } { [7 x i8*] [i8* null, i8* null, i8* bitcast (void (%"class.v8::internal::compiler::Operator"*)* @_ZN2v88internal8compiler8OperatorD2Ev to i8*), i8* bitcast (void (%"struct.v8::internal::compiler::CommonOperatorGlobalCache::EndOperator.6"*)* @_ZN2v88internal8compiler25CommonOperatorGlobalCache11EndOperatorILm8EED0Ev to i8*), i8* bitcast (i1 (%"class.v8::internal::compiler::Operator"*, %"class.v8::internal::compiler::Operator"*)* @_ZNK2v88internal8compiler8Operator6EqualsEPKS2_ to i8*), i8* bitcast (i64 (%"class.v8::internal::compiler::Operator"*)* @_ZNK2v88internal8compiler8Operator8HashCodeEv to i8*), i8* bitcast (void (%"class.v8::internal::compiler::Operator"*, %"class.std::__1::basic_ostream"*, i32)* @_ZNK2v88internal8compiler8Operator11PrintToImplERNSt3__113basic_ostreamIcNS3_11char_traitsIcEEEENS2_14PrintVerbosityE to i8*)] }, comdat, align 8
@_ZTVN2v88internal8compiler25CommonOperatorGlobalCache14ReturnOperatorILm1EEE = linkonce_odr hidden unnamed_addr constant { [7 x i8*] } { [7 x i8*] [i8* null, i8* null, i8* bitcast (void (%"class.v8::internal::compiler::Operator"*)* @_ZN2v88internal8compiler8OperatorD2Ev to i8*), i8* bitcast (void (%"struct.v8::internal::compiler::CommonOperatorGlobalCache::ReturnOperator"*)* @_ZN2v88internal8compiler25CommonOperatorGlobalCache14ReturnOperatorILm1EED0Ev to i8*), i8* bitcast (i1 (%"class.v8::internal::compiler::Operator"*, %"class.v8::internal::compiler::Operator"*)* @_ZNK2v88internal8compiler8Operator6EqualsEPKS2_ to i8*), i8* bitcast (i64 (%"class.v8::internal::compiler::Operator"*)* @_ZNK2v88internal8compiler8Operator8HashCodeEv to i8*), i8* bitcast (void (%"class.v8::internal::compiler::Operator"*, %"class.std::__1::basic_ostream"*, i32)* @_ZNK2v88internal8compiler8Operator11PrintToImplERNSt3__113basic_ostreamIcNS3_11char_traitsIcEEEENS2_14PrintVerbosityE to i8*)] }, comdat, align 8
@_ZTVN2v88internal8compiler25CommonOperatorGlobalCache14ReturnOperatorILm2EEE = linkonce_odr hidden unnamed_addr constant { [7 x i8*] } { [7 x i8*] [i8* null, i8* null, i8* bitcast (void (%"class.v8::internal::compiler::Operator"*)* @_ZN2v88internal8compiler8OperatorD2Ev to i8*), i8* bitcast (void (%"struct.v8::internal::compiler::CommonOperatorGlobalCache::ReturnOperator.7"*)* @_ZN2v88internal8compiler25CommonOperatorGlobalCache14ReturnOperatorILm2EED0Ev to i8*), i8* bitcast (i1 (%"class.v8::internal::compiler::Operator"*, %"class.v8::internal::compiler::Operator"*)* @_ZNK2v88internal8compiler8Operator6EqualsEPKS2_ to i8*), i8* bitcast (i64 (%"class.v8::internal::compiler::Operator"*)* @_ZNK2v88internal8compiler8Operator8HashCodeEv to i8*), i8* bitcast (void (%"class.v8::internal::compiler::Operator"*, %"class.std::__1::basic_ostream"*, i32)* @_ZNK2v88internal8compiler8Operator11PrintToImplERNSt3__113basic_ostreamIcNS3_11char_traitsIcEEEENS2_14PrintVerbosityE to i8*)] }, comdat, align 8
@_ZTVN2v88internal8compiler25CommonOperatorGlobalCache14ReturnOperatorILm3EEE = linkonce_odr hidden unnamed_addr constant { [7 x i8*] } { [7 x i8*] [i8* null, i8* null, i8* bitcast (void (%"class.v8::internal::compiler::Operator"*)* @_ZN2v88internal8compiler8OperatorD2Ev to i8*), i8* bitcast (void (%"struct.v8::internal::compiler::CommonOperatorGlobalCache::ReturnOperator.8"*)* @_ZN2v88internal8compiler25CommonOperatorGlobalCache14ReturnOperatorILm3EED0Ev to i8*), i8* bitcast (i1 (%"class.v8::internal::compiler::Operator"*, %"class.v8::internal::compiler::Operator"*)* @_ZNK2v88internal8compiler8Operator6EqualsEPKS2_ to i8*), i8* bitcast (i64 (%"class.v8::internal::compiler::Operator"*)* @_ZNK2v88internal8compiler8Operator8HashCodeEv to i8*), i8* bitcast (void (%"class.v8::internal::compiler::Operator"*, %"class.std::__1::basic_ostream"*, i32)* @_ZNK2v88internal8compiler8Operator11PrintToImplERNSt3__113basic_ostreamIcNS3_11char_traitsIcEEEENS2_14PrintVerbosityE to i8*)] }, comdat, align 8
@_ZTVN2v88internal8compiler25CommonOperatorGlobalCache14ReturnOperatorILm4EEE = linkonce_odr hidden unnamed_addr constant { [7 x i8*] } { [7 x i8*] [i8* null, i8* null, i8* bitcast (void (%"class.v8::internal::compiler::Operator"*)* @_ZN2v88internal8compiler8OperatorD2Ev to i8*), i8* bitcast (void (%"struct.v8::internal::compiler::CommonOperatorGlobalCache::ReturnOperator.9"*)* @_ZN2v88internal8compiler25CommonOperatorGlobalCache14ReturnOperatorILm4EED0Ev to i8*), i8* bitcast (i1 (%"class.v8::internal::compiler::Operator"*, %"class.v8::internal::compiler::Operator"*)* @_ZNK2v88internal8compiler8Operator6EqualsEPKS2_ to i8*), i8* bitcast (i64 (%"class.v8::internal::compiler::Operator"*)* @_ZNK2v88internal8compiler8Operator8HashCodeEv to i8*), i8* bitcast (void (%"class.v8::internal::compiler::Operator"*, %"class.std::__1::basic_ostream"*, i32)* @_ZNK2v88internal8compiler8Operator11PrintToImplERNSt3__113basic_ostreamIcNS3_11char_traitsIcEEEENS2_14PrintVerbosityE to i8*)] }, comdat, align 8
@.str.100 = private unnamed_addr constant [7 x i8] c"Branch\00", align 1
@_ZTVN2v88internal8compiler25CommonOperatorGlobalCache14BranchOperatorILNS1_10BranchHintE0ELNS1_13IsSafetyCheckE0EEE = linkonce_odr hidden unnamed_addr constant { [8 x i8*] } { [8 x i8*] [i8* null, i8* null, i8* bitcast (void (%"class.v8::internal::compiler::Operator"*)* @_ZN2v88internal8compiler8OperatorD2Ev to i8*), i8* bitcast (void (%"struct.v8::internal::compiler::CommonOperatorGlobalCache::BranchOperator"*)* @_ZN2v88internal8compiler25CommonOperatorGlobalCache14BranchOperatorILNS1_10BranchHintE0ELNS1_13IsSafetyCheckE0EED0Ev to i8*), i8* bitcast (i1 (%"class.v8::internal::compiler::Operator1"*, %"class.v8::internal::compiler::Operator"*)* @_ZNK2v88internal8compiler9Operator1INS1_18BranchOperatorInfoENS1_9OpEqualToIS3_EENS1_6OpHashIS3_EEE6EqualsEPKNS1_8OperatorE to i8*), i8* bitcast (i64 (%"class.v8::internal::compiler::Operator1"*)* @_ZNK2v88internal8compiler9Operator1INS1_18BranchOperatorInfoENS1_9OpEqualToIS3_EENS1_6OpHashIS3_EEE8HashCodeEv to i8*), i8* bitcast (void (%"class.v8::internal::compiler::Operator1"*, %"class.std::__1::basic_ostream"*, i32)* @_ZNK2v88internal8compiler9Operator1INS1_18BranchOperatorInfoENS1_9OpEqualToIS3_EENS1_6OpHashIS3_EEE11PrintToImplERNSt3__113basic_ostreamIcNS9_11char_traitsIcEEEENS1_8Operator14PrintVerbosityE to i8*), i8* bitcast (void (%"class.v8::internal::compiler::Operator1"*, %"class.std::__1::basic_ostream"*, i32)* @_ZNK2v88internal8compiler9Operator1INS1_18BranchOperatorInfoENS1_9OpEqualToIS3_EENS1_6OpHashIS3_EEE14PrintParameterERNSt3__113basic_ostreamIcNS9_11char_traitsIcEEEENS1_8Operator14PrintVerbosityE to i8*)] }, comdat, align 8
@.str.101 = private unnamed_addr constant [2 x i8] c"[\00", align 1
@.str.102 = private unnamed_addr constant [2 x i8] c"]\00", align 1
@_ZTVN2v88internal8compiler25CommonOperatorGlobalCache14BranchOperatorILNS1_10BranchHintE1ELNS1_13IsSafetyCheckE0EEE = linkonce_odr hidden unnamed_addr constant { [8 x i8*] } { [8 x i8*] [i8* null, i8* null, i8* bitcast (void (%"class.v8::internal::compiler::Operator"*)* @_ZN2v88internal8compiler8OperatorD2Ev to i8*), i8* bitcast (void (%"struct.v8::internal::compiler::CommonOperatorGlobalCache::BranchOperator.10"*)* @_ZN2v88internal8compiler25CommonOperatorGlobalCache14BranchOperatorILNS1_10BranchHintE1ELNS1_13IsSafetyCheckE0EED0Ev to i8*), i8* bitcast (i1 (%"class.v8::internal::compiler::Operator1"*, %"class.v8::internal::compiler::Operator"*)* @_ZNK2v88internal8compiler9Operator1INS1_18BranchOperatorInfoENS1_9OpEqualToIS3_EENS1_6OpHashIS3_EEE6EqualsEPKNS1_8OperatorE to i8*), i8* bitcast (i64 (%"class.v8::internal::compiler::Operator1"*)* @_ZNK2v88internal8compiler9Operator1INS1_18BranchOperatorInfoENS1_9OpEqualToIS3_EENS1_6OpHashIS3_EEE8HashCodeEv to i8*), i8* bitcast (void (%"class.v8::internal::compiler::Operator1"*, %"class.std::__1::basic_ostream"*, i32)* @_ZNK2v88internal8compiler9Operator1INS1_18BranchOperatorInfoENS1_9OpEqualToIS3_EENS1_6OpHashIS3_EEE11PrintToImplERNSt3__113basic_ostreamIcNS9_11char_traitsIcEEEENS1_8Operator14PrintVerbosityE to i8*), i8* bitcast (void (%"class.v8::internal::compiler::Operator1"*, %"class.std::__1::basic_ostream"*, i32)* @_ZNK2v88internal8compiler9Operator1INS1_18BranchOperatorInfoENS1_9OpEqualToIS3_EENS1_6OpHashIS3_EEE14PrintParameterERNSt3__113basic_ostreamIcNS9_11char_traitsIcEEEENS1_8Operator14PrintVerbosityE to i8*)] }, comdat, align 8
@_ZTVN2v88internal8compiler25CommonOperatorGlobalCache14BranchOperatorILNS1_10BranchHintE2ELNS1_13IsSafetyCheckE0EEE = linkonce_odr hidden unnamed_addr constant { [8 x i8*] } { [8 x i8*] [i8* null, i8* null, i8* bitcast (void (%"class.v8::internal::compiler::Operator"*)* @_ZN2v88internal8compiler8OperatorD2Ev to i8*), i8* bitcast (void (%"struct.v8::internal::compiler::CommonOperatorGlobalCache::BranchOperator.11"*)* @_ZN2v88internal8compiler25CommonOperatorGlobalCache14BranchOperatorILNS1_10BranchHintE2ELNS1_13IsSafetyCheckE0EED0Ev to i8*), i8* bitcast (i1 (%"class.v8::internal::compiler::Operator1"*, %"class.v8::internal::compiler::Operator"*)* @_ZNK2v88internal8compiler9Operator1INS1_18BranchOperatorInfoENS1_9OpEqualToIS3_EENS1_6OpHashIS3_EEE6EqualsEPKNS1_8OperatorE to i8*), i8* bitcast (i64 (%"class.v8::internal::compiler::Operator1"*)* @_ZNK2v88internal8compiler9Operator1INS1_18BranchOperatorInfoENS1_9OpEqualToIS3_EENS1_6OpHashIS3_EEE8HashCodeEv to i8*), i8* bitcast (void (%"class.v8::internal::compiler::Operator1"*, %"class.std::__1::basic_ostream"*, i32)* @_ZNK2v88internal8compiler9Operator1INS1_18BranchOperatorInfoENS1_9OpEqualToIS3_EENS1_6OpHashIS3_EEE11PrintToImplERNSt3__113basic_ostreamIcNS9_11char_traitsIcEEEENS1_8Operator14PrintVerbosityE to i8*), i8* bitcast (void (%"class.v8::internal::compiler::Operator1"*, %"class.std::__1::basic_ostream"*, i32)* @_ZNK2v88internal8compiler9Operator1INS1_18BranchOperatorInfoENS1_9OpEqualToIS3_EENS1_6OpHashIS3_EEE14PrintParameterERNSt3__113basic_ostreamIcNS9_11char_traitsIcEEEENS1_8Operator14PrintVerbosityE to i8*)] }, comdat, align 8
@_ZTVN2v88internal8compiler25CommonOperatorGlobalCache14BranchOperatorILNS1_10BranchHintE0ELNS1_13IsSafetyCheckE1EEE = linkonce_odr hidden unnamed_addr constant { [8 x i8*] } { [8 x i8*] [i8* null, i8* null, i8* bitcast (void (%"class.v8::internal::compiler::Operator"*)* @_ZN2v88internal8compiler8OperatorD2Ev to i8*), i8* bitcast (void (%"struct.v8::internal::compiler::CommonOperatorGlobalCache::BranchOperator.12"*)* @_ZN2v88internal8compiler25CommonOperatorGlobalCache14BranchOperatorILNS1_10BranchHintE0ELNS1_13IsSafetyCheckE1EED0Ev to i8*), i8* bitcast (i1 (%"class.v8::internal::compiler::Operator1"*, %"class.v8::internal::compiler::Operator"*)* @_ZNK2v88internal8compiler9Operator1INS1_18BranchOperatorInfoENS1_9OpEqualToIS3_EENS1_6OpHashIS3_EEE6EqualsEPKNS1_8OperatorE to i8*), i8* bitcast (i64 (%"class.v8::internal::compiler::Operator1"*)* @_ZNK2v88internal8compiler9Operator1INS1_18BranchOperatorInfoENS1_9OpEqualToIS3_EENS1_6OpHashIS3_EEE8HashCodeEv to i8*), i8* bitcast (void (%"class.v8::internal::compiler::Operator1"*, %"class.std::__1::basic_ostream"*, i32)* @_ZNK2v88internal8compiler9Operator1INS1_18BranchOperatorInfoENS1_9OpEqualToIS3_EENS1_6OpHashIS3_EEE11PrintToImplERNSt3__113basic_ostreamIcNS9_11char_traitsIcEEEENS1_8Operator14PrintVerbosityE to i8*), i8* bitcast (void (%"class.v8::internal::compiler::Operator1"*, %"class.std::__1::basic_ostream"*, i32)* @_ZNK2v88internal8compiler9Operator1INS1_18BranchOperatorInfoENS1_9OpEqualToIS3_EENS1_6OpHashIS3_EEE14PrintParameterERNSt3__113basic_ostreamIcNS9_11char_traitsIcEEEENS1_8Operator14PrintVerbosityE to i8*)] }, comdat, align 8
@_ZTVN2v88internal8compiler25CommonOperatorGlobalCache14BranchOperatorILNS1_10BranchHintE1ELNS1_13IsSafetyCheckE1EEE = linkonce_odr hidden unnamed_addr constant { [8 x i8*] } { [8 x i8*] [i8* null, i8* null, i8* bitcast (void (%"class.v8::internal::compiler::Operator"*)* @_ZN2v88internal8compiler8OperatorD2Ev to i8*), i8* bitcast (void (%"struct.v8::internal::compiler::CommonOperatorGlobalCache::BranchOperator.13"*)* @_ZN2v88internal8compiler25CommonOperatorGlobalCache14BranchOperatorILNS1_10BranchHintE1ELNS1_13IsSafetyCheckE1EED0Ev to i8*), i8* bitcast (i1 (%"class.v8::internal::compiler::Operator1"*, %"class.v8::internal::compiler::Operator"*)* @_ZNK2v88internal8compiler9Operator1INS1_18BranchOperatorInfoENS1_9OpEqualToIS3_EENS1_6OpHashIS3_EEE6EqualsEPKNS1_8OperatorE to i8*), i8* bitcast (i64 (%"class.v8::internal::compiler::Operator1"*)* @_ZNK2v88internal8compiler9Operator1INS1_18BranchOperatorInfoENS1_9OpEqualToIS3_EENS1_6OpHashIS3_EEE8HashCodeEv to i8*), i8* bitcast (void (%"class.v8::internal::compiler::Operator1"*, %"class.std::__1::basic_ostream"*, i32)* @_ZNK2v88internal8compiler9Operator1INS1_18BranchOperatorInfoENS1_9OpEqualToIS3_EENS1_6OpHashIS3_EEE11PrintToImplERNSt3__113basic_ostreamIcNS9_11char_traitsIcEEEENS1_8Operator14PrintVerbosityE to i8*), i8* bitcast (void (%"class.v8::internal::compiler::Operator1"*, %"class.std::__1::basic_ostream"*, i32)* @_ZNK2v88internal8compiler9Operator1INS1_18BranchOperatorInfoENS1_9OpEqualToIS3_EENS1_6OpHashIS3_EEE14PrintParameterERNSt3__113basic_ostreamIcNS9_11char_traitsIcEEEENS1_8Operator14PrintVerbosityE to i8*)] }, comdat, align 8
@_ZTVN2v88internal8compiler25CommonOperatorGlobalCache14BranchOperatorILNS1_10BranchHintE2ELNS1_13IsSafetyCheckE1EEE = linkonce_odr hidden unnamed_addr constant { [8 x i8*] } { [8 x i8*] [i8* null, i8* null, i8* bitcast (void (%"class.v8::internal::compiler::Operator"*)* @_ZN2v88internal8compiler8OperatorD2Ev to i8*), i8* bitcast (void (%"struct.v8::internal::compiler::CommonOperatorGlobalCache::BranchOperator.14"*)* @_ZN2v88internal8compiler25CommonOperatorGlobalCache14BranchOperatorILNS1_10BranchHintE2ELNS1_13IsSafetyCheckE1EED0Ev to i8*), i8* bitcast (i1 (%"class.v8::internal::compiler::Operator1"*, %"class.v8::internal::compiler::Operator"*)* @_ZNK2v88internal8compiler9Operator1INS1_18BranchOperatorInfoENS1_9OpEqualToIS3_EENS1_6OpHashIS3_EEE6EqualsEPKNS1_8OperatorE to i8*), i8* bitcast (i64 (%"class.v8::internal::compiler::Operator1"*)* @_ZNK2v88internal8compiler9Operator1INS1_18BranchOperatorInfoENS1_9OpEqualToIS3_EENS1_6OpHashIS3_EEE8HashCodeEv to i8*), i8* bitcast (void (%"class.v8::internal::compiler::Operator1"*, %"class.std::__1::basic_ostream"*, i32)* @_ZNK2v88internal8compiler9Operator1INS1_18BranchOperatorInfoENS1_9OpEqualToIS3_EENS1_6OpHashIS3_EEE11PrintToImplERNSt3__113basic_ostreamIcNS9_11char_traitsIcEEEENS1_8Operator14PrintVerbosityE to i8*), i8* bitcast (void (%"class.v8::internal::compiler::Operator1"*, %"class.std::__1::basic_ostream"*, i32)* @_ZNK2v88internal8compiler9Operator1INS1_18BranchOperatorInfoENS1_9OpEqualToIS3_EENS1_6OpHashIS3_EEE14PrintParameterERNSt3__113basic_ostreamIcNS9_11char_traitsIcEEEENS1_8Operator14PrintVerbosityE to i8*)] }, comdat, align 8
@_ZTVN2v88internal8compiler25CommonOperatorGlobalCache14BranchOperatorILNS1_10BranchHintE0ELNS1_13IsSafetyCheckE2EEE = linkonce_odr hidden unnamed_addr constant { [8 x i8*] } { [8 x i8*] [i8* null, i8* null, i8* bitcast (void (%"class.v8::internal::compiler::Operator"*)* @_ZN2v88internal8compiler8OperatorD2Ev to i8*), i8* bitcast (void (%"struct.v8::internal::compiler::CommonOperatorGlobalCache::BranchOperator.15"*)* @_ZN2v88internal8compiler25CommonOperatorGlobalCache14BranchOperatorILNS1_10BranchHintE0ELNS1_13IsSafetyCheckE2EED0Ev to i8*), i8* bitcast (i1 (%"class.v8::internal::compiler::Operator1"*, %"class.v8::internal::compiler::Operator"*)* @_ZNK2v88internal8compiler9Operator1INS1_18BranchOperatorInfoENS1_9OpEqualToIS3_EENS1_6OpHashIS3_EEE6EqualsEPKNS1_8OperatorE to i8*), i8* bitcast (i64 (%"class.v8::internal::compiler::Operator1"*)* @_ZNK2v88internal8compiler9Operator1INS1_18BranchOperatorInfoENS1_9OpEqualToIS3_EENS1_6OpHashIS3_EEE8HashCodeEv to i8*), i8* bitcast (void (%"class.v8::internal::compiler::Operator1"*, %"class.std::__1::basic_ostream"*, i32)* @_ZNK2v88internal8compiler9Operator1INS1_18BranchOperatorInfoENS1_9OpEqualToIS3_EENS1_6OpHashIS3_EEE11PrintToImplERNSt3__113basic_ostreamIcNS9_11char_traitsIcEEEENS1_8Operator14PrintVerbosityE to i8*), i8* bitcast (void (%"class.v8::internal::compiler::Operator1"*, %"class.std::__1::basic_ostream"*, i32)* @_ZNK2v88internal8compiler9Operator1INS1_18BranchOperatorInfoENS1_9OpEqualToIS3_EENS1_6OpHashIS3_EEE14PrintParameterERNSt3__113basic_ostreamIcNS9_11char_traitsIcEEEENS1_8Operator14PrintVerbosityE to i8*)] }, comdat, align 8
@_ZTVN2v88internal8compiler25CommonOperatorGlobalCache14BranchOperatorILNS1_10BranchHintE1ELNS1_13IsSafetyCheckE2EEE = linkonce_odr hidden unnamed_addr constant { [8 x i8*] } { [8 x i8*] [i8* null, i8* null, i8* bitcast (void (%"class.v8::internal::compiler::Operator"*)* @_ZN2v88internal8compiler8OperatorD2Ev to i8*), i8* bitcast (void (%"struct.v8::internal::compiler::CommonOperatorGlobalCache::BranchOperator.16"*)* @_ZN2v88internal8compiler25CommonOperatorGlobalCache14BranchOperatorILNS1_10BranchHintE1ELNS1_13IsSafetyCheckE2EED0Ev to i8*), i8* bitcast (i1 (%"class.v8::internal::compiler::Operator1"*, %"class.v8::internal::compiler::Operator"*)* @_ZNK2v88internal8compiler9Operator1INS1_18BranchOperatorInfoENS1_9OpEqualToIS3_EENS1_6OpHashIS3_EEE6EqualsEPKNS1_8OperatorE to i8*), i8* bitcast (i64 (%"class.v8::internal::compiler::Operator1"*)* @_ZNK2v88internal8compiler9Operator1INS1_18BranchOperatorInfoENS1_9OpEqualToIS3_EENS1_6OpHashIS3_EEE8HashCodeEv to i8*), i8* bitcast (void (%"class.v8::internal::compiler::Operator1"*, %"class.std::__1::basic_ostream"*, i32)* @_ZNK2v88internal8compiler9Operator1INS1_18BranchOperatorInfoENS1_9OpEqualToIS3_EENS1_6OpHashIS3_EEE11PrintToImplERNSt3__113basic_ostreamIcNS9_11char_traitsIcEEEENS1_8Operator14PrintVerbosityE to i8*), i8* bitcast (void (%"class.v8::internal::compiler::Operator1"*, %"class.std::__1::basic_ostream"*, i32)* @_ZNK2v88internal8compiler9Operator1INS1_18BranchOperatorInfoENS1_9OpEqualToIS3_EENS1_6OpHashIS3_EEE14PrintParameterERNSt3__113basic_ostreamIcNS9_11char_traitsIcEEEENS1_8Operator14PrintVerbosityE to i8*)] }, comdat, align 8
@_ZTVN2v88internal8compiler25CommonOperatorGlobalCache14BranchOperatorILNS1_10BranchHintE2ELNS1_13IsSafetyCheckE2EEE = linkonce_odr hidden unnamed_addr constant { [8 x i8*] } { [8 x i8*] [i8* null, i8* null, i8* bitcast (void (%"class.v8::internal::compiler::Operator"*)* @_ZN2v88internal8compiler8OperatorD2Ev to i8*), i8* bitcast (void (%"struct.v8::internal::compiler::CommonOperatorGlobalCache::BranchOperator.17"*)* @_ZN2v88internal8compiler25CommonOperatorGlobalCache14BranchOperatorILNS1_10BranchHintE2ELNS1_13IsSafetyCheckE2EED0Ev to i8*), i8* bitcast (i1 (%"class.v8::internal::compiler::Operator1"*, %"class.v8::internal::compiler::Operator"*)* @_ZNK2v88internal8compiler9Operator1INS1_18BranchOperatorInfoENS1_9OpEqualToIS3_EENS1_6OpHashIS3_EEE6EqualsEPKNS1_8OperatorE to i8*), i8* bitcast (i64 (%"class.v8::internal::compiler::Operator1"*)* @_ZNK2v88internal8compiler9Operator1INS1_18BranchOperatorInfoENS1_9OpEqualToIS3_EENS1_6OpHashIS3_EEE8HashCodeEv to i8*), i8* bitcast (void (%"class.v8::internal::compiler::Operator1"*, %"class.std::__1::basic_ostream"*, i32)* @_ZNK2v88internal8compiler9Operator1INS1_18BranchOperatorInfoENS1_9OpEqualToIS3_EENS1_6OpHashIS3_EEE11PrintToImplERNSt3__113basic_ostreamIcNS9_11char_traitsIcEEEENS1_8Operator14PrintVerbosityE to i8*), i8* bitcast (void (%"class.v8::internal::compiler::Operator1"*, %"class.std::__1::basic_ostream"*, i32)* @_ZNK2v88internal8compiler9Operator1INS1_18BranchOperatorInfoENS1_9OpEqualToIS3_EENS1_6OpHashIS3_EEE14PrintParameterERNSt3__113basic_ostreamIcNS9_11char_traitsIcEEEENS1_8Operator14PrintVerbosityE to i8*)] }, comdat, align 8
@_ZTVN2v88internal8compiler25CommonOperatorGlobalCache17EffectPhiOperatorILi1EEE = linkonce_odr hidden unnamed_addr constant { [7 x i8*] } { [7 x i8*] [i8* null, i8* null, i8* bitcast (void (%"class.v8::internal::compiler::Operator"*)* @_ZN2v88internal8compiler8OperatorD2Ev to i8*), i8* bitcast (void (%"struct.v8::internal::compiler::CommonOperatorGlobalCache::EffectPhiOperator"*)* @_ZN2v88internal8compiler25CommonOperatorGlobalCache17EffectPhiOperatorILi1EED0Ev to i8*), i8* bitcast (i1 (%"class.v8::internal::compiler::Operator"*, %"class.v8::internal::compiler::Operator"*)* @_ZNK2v88internal8compiler8Operator6EqualsEPKS2_ to i8*), i8* bitcast (i64 (%"class.v8::internal::compiler::Operator"*)* @_ZNK2v88internal8compiler8Operator8HashCodeEv to i8*), i8* bitcast (void (%"class.v8::internal::compiler::Operator"*, %"class.std::__1::basic_ostream"*, i32)* @_ZNK2v88internal8compiler8Operator11PrintToImplERNSt3__113basic_ostreamIcNS3_11char_traitsIcEEEENS2_14PrintVerbosityE to i8*)] }, comdat, align 8
@_ZTVN2v88internal8compiler25CommonOperatorGlobalCache17EffectPhiOperatorILi2EEE = linkonce_odr hidden unnamed_addr constant { [7 x i8*] } { [7 x i8*] [i8* null, i8* null, i8* bitcast (void (%"class.v8::internal::compiler::Operator"*)* @_ZN2v88internal8compiler8OperatorD2Ev to i8*), i8* bitcast (void (%"struct.v8::internal::compiler::CommonOperatorGlobalCache::EffectPhiOperator.18"*)* @_ZN2v88internal8compiler25CommonOperatorGlobalCache17EffectPhiOperatorILi2EED0Ev to i8*), i8* bitcast (i1 (%"class.v8::internal::compiler::Operator"*, %"class.v8::internal::compiler::Operator"*)* @_ZNK2v88internal8compiler8Operator6EqualsEPKS2_ to i8*), i8* bitcast (i64 (%"class.v8::internal::compiler::Operator"*)* @_ZNK2v88internal8compiler8Operator8HashCodeEv to i8*), i8* bitcast (void (%"class.v8::internal::compiler::Operator"*, %"class.std::__1::basic_ostream"*, i32)* @_ZNK2v88internal8compiler8Operator11PrintToImplERNSt3__113basic_ostreamIcNS3_11char_traitsIcEEEENS2_14PrintVerbosityE to i8*)] }, comdat, align 8
@_ZTVN2v88internal8compiler25CommonOperatorGlobalCache17EffectPhiOperatorILi3EEE = linkonce_odr hidden unnamed_addr constant { [7 x i8*] } { [7 x i8*] [i8* null, i8* null, i8* bitcast (void (%"class.v8::internal::compiler::Operator"*)* @_ZN2v88internal8compiler8OperatorD2Ev to i8*), i8* bitcast (void (%"struct.v8::internal::compiler::CommonOperatorGlobalCache::EffectPhiOperator.19"*)* @_ZN2v88internal8compiler25CommonOperatorGlobalCache17EffectPhiOperatorILi3EED0Ev to i8*), i8* bitcast (i1 (%"class.v8::internal::compiler::Operator"*, %"class.v8::internal::compiler::Operator"*)* @_ZNK2v88internal8compiler8Operator6EqualsEPKS2_ to i8*), i8* bitcast (i64 (%"class.v8::internal::compiler::Operator"*)* @_ZNK2v88internal8compiler8Operator8HashCodeEv to i8*), i8* bitcast (void (%"class.v8::internal::compiler::Operator"*, %"class.std::__1::basic_ostream"*, i32)* @_ZNK2v88internal8compiler8Operator11PrintToImplERNSt3__113basic_ostreamIcNS3_11char_traitsIcEEEENS2_14PrintVerbosityE to i8*)] }, comdat, align 8
@_ZTVN2v88internal8compiler25CommonOperatorGlobalCache17EffectPhiOperatorILi4EEE = linkonce_odr hidden unnamed_addr constant { [7 x i8*] } { [7 x i8*] [i8* null, i8* null, i8* bitcast (void (%"class.v8::internal::compiler::Operator"*)* @_ZN2v88internal8compiler8OperatorD2Ev to i8*), i8* bitcast (void (%"struct.v8::internal::compiler::CommonOperatorGlobalCache::EffectPhiOperator.20"*)* @_ZN2v88internal8compiler25CommonOperatorGlobalCache17EffectPhiOperatorILi4EED0Ev to i8*), i8* bitcast (i1 (%"class.v8::internal::compiler::Operator"*, %"class.v8::internal::compiler::Operator"*)* @_ZNK2v88internal8compiler8Operator6EqualsEPKS2_ to i8*), i8* bitcast (i64 (%"class.v8::internal::compiler::Operator"*)* @_ZNK2v88internal8compiler8Operator8HashCodeEv to i8*), i8* bitcast (void (%"class.v8::internal::compiler::Operator"*, %"class.std::__1::basic_ostream"*, i32)* @_ZNK2v88internal8compiler8Operator11PrintToImplERNSt3__113basic_ostreamIcNS3_11char_traitsIcEEEENS2_14PrintVerbosityE to i8*)] }, comdat, align 8
@_ZTVN2v88internal8compiler25CommonOperatorGlobalCache17EffectPhiOperatorILi5EEE = linkonce_odr hidden unnamed_addr constant { [7 x i8*] } { [7 x i8*] [i8* null, i8* null, i8* bitcast (void (%"class.v8::internal::compiler::Operator"*)* @_ZN2v88internal8compiler8OperatorD2Ev to i8*), i8* bitcast (void (%"struct.v8::internal::compiler::CommonOperatorGlobalCache::EffectPhiOperator.21"*)* @_ZN2v88internal8compiler25CommonOperatorGlobalCache17EffectPhiOperatorILi5EED0Ev to i8*), i8* bitcast (i1 (%"class.v8::internal::compiler::Operator"*, %"class.v8::internal::compiler::Operator"*)* @_ZNK2v88internal8compiler8Operator6EqualsEPKS2_ to i8*), i8* bitcast (i64 (%"class.v8::internal::compiler::Operator"*)* @_ZNK2v88internal8compiler8Operator8HashCodeEv to i8*), i8* bitcast (void (%"class.v8::internal::compiler::Operator"*, %"class.std::__1::basic_ostream"*, i32)* @_ZNK2v88internal8compiler8Operator11PrintToImplERNSt3__113basic_ostreamIcNS3_11char_traitsIcEEEENS2_14PrintVerbosityE to i8*)] }, comdat, align 8
@_ZTVN2v88internal8compiler25CommonOperatorGlobalCache17EffectPhiOperatorILi6EEE = linkonce_odr hidden unnamed_addr constant { [7 x i8*] } { [7 x i8*] [i8* null, i8* null, i8* bitcast (void (%"class.v8::internal::compiler::Operator"*)* @_ZN2v88internal8compiler8OperatorD2Ev to i8*), i8* bitcast (void (%"struct.v8::internal::compiler::CommonOperatorGlobalCache::EffectPhiOperator.22"*)* @_ZN2v88internal8compiler25CommonOperatorGlobalCache17EffectPhiOperatorILi6EED0Ev to i8*), i8* bitcast (i1 (%"class.v8::internal::compiler::Operator"*, %"class.v8::internal::compiler::Operator"*)* @_ZNK2v88internal8compiler8Operator6EqualsEPKS2_ to i8*), i8* bitcast (i64 (%"class.v8::internal::compiler::Operator"*)* @_ZNK2v88internal8compiler8Operator8HashCodeEv to i8*), i8* bitcast (void (%"class.v8::internal::compiler::Operator"*, %"class.std::__1::basic_ostream"*, i32)* @_ZNK2v88internal8compiler8Operator11PrintToImplERNSt3__113basic_ostreamIcNS3_11char_traitsIcEEEENS2_14PrintVerbosityE to i8*)] }, comdat, align 8
@.str.103 = private unnamed_addr constant [12 x i8] c"BeginRegion\00", align 1
@_ZTVN2v88internal8compiler25CommonOperatorGlobalCache19BeginRegionOperatorILNS1_19RegionObservabilityE0EEE = linkonce_odr hidden unnamed_addr constant { [8 x i8*] } { [8 x i8*] [i8* null, i8* null, i8* bitcast (void (%"class.v8::internal::compiler::Operator"*)* @_ZN2v88internal8compiler8OperatorD2Ev to i8*), i8* bitcast (void (%"struct.v8::internal::compiler::CommonOperatorGlobalCache::BeginRegionOperator"*)* @_ZN2v88internal8compiler25CommonOperatorGlobalCache19BeginRegionOperatorILNS1_19RegionObservabilityE0EED0Ev to i8*), i8* bitcast (i1 (%"class.v8::internal::compiler::Operator1.23"*, %"class.v8::internal::compiler::Operator"*)* @_ZNK2v88internal8compiler9Operator1INS1_19RegionObservabilityENS1_9OpEqualToIS3_EENS1_6OpHashIS3_EEE6EqualsEPKNS1_8OperatorE to i8*), i8* bitcast (i64 (%"class.v8::internal::compiler::Operator1.23"*)* @_ZNK2v88internal8compiler9Operator1INS1_19RegionObservabilityENS1_9OpEqualToIS3_EENS1_6OpHashIS3_EEE8HashCodeEv to i8*), i8* bitcast (void (%"class.v8::internal::compiler::Operator1.23"*, %"class.std::__1::basic_ostream"*, i32)* @_ZNK2v88internal8compiler9Operator1INS1_19RegionObservabilityENS1_9OpEqualToIS3_EENS1_6OpHashIS3_EEE11PrintToImplERNSt3__113basic_ostreamIcNS9_11char_traitsIcEEEENS1_8Operator14PrintVerbosityE to i8*), i8* bitcast (void (%"class.v8::internal::compiler::Operator1.23"*, %"class.std::__1::basic_ostream"*, i32)* @_ZNK2v88internal8compiler9Operator1INS1_19RegionObservabilityENS1_9OpEqualToIS3_EENS1_6OpHashIS3_EEE14PrintParameterERNSt3__113basic_ostreamIcNS9_11char_traitsIcEEEENS1_8Operator14PrintVerbosityE to i8*)] }, comdat, align 8
@_ZTVN2v88internal8compiler25CommonOperatorGlobalCache19BeginRegionOperatorILNS1_19RegionObservabilityE1EEE = linkonce_odr hidden unnamed_addr constant { [8 x i8*] } { [8 x i8*] [i8* null, i8* null, i8* bitcast (void (%"class.v8::internal::compiler::Operator"*)* @_ZN2v88internal8compiler8OperatorD2Ev to i8*), i8* bitcast (void (%"struct.v8::internal::compiler::CommonOperatorGlobalCache::BeginRegionOperator.29"*)* @_ZN2v88internal8compiler25CommonOperatorGlobalCache19BeginRegionOperatorILNS1_19RegionObservabilityE1EED0Ev to i8*), i8* bitcast (i1 (%"class.v8::internal::compiler::Operator1.23"*, %"class.v8::internal::compiler::Operator"*)* @_ZNK2v88internal8compiler9Operator1INS1_19RegionObservabilityENS1_9OpEqualToIS3_EENS1_6OpHashIS3_EEE6EqualsEPKNS1_8OperatorE to i8*), i8* bitcast (i64 (%"class.v8::internal::compiler::Operator1.23"*)* @_ZNK2v88internal8compiler9Operator1INS1_19RegionObservabilityENS1_9OpEqualToIS3_EENS1_6OpHashIS3_EEE8HashCodeEv to i8*), i8* bitcast (void (%"class.v8::internal::compiler::Operator1.23"*, %"class.std::__1::basic_ostream"*, i32)* @_ZNK2v88internal8compiler9Operator1INS1_19RegionObservabilityENS1_9OpEqualToIS3_EENS1_6OpHashIS3_EEE11PrintToImplERNSt3__113basic_ostreamIcNS9_11char_traitsIcEEEENS1_8Operator14PrintVerbosityE to i8*), i8* bitcast (void (%"class.v8::internal::compiler::Operator1.23"*, %"class.std::__1::basic_ostream"*, i32)* @_ZNK2v88internal8compiler9Operator1INS1_19RegionObservabilityENS1_9OpEqualToIS3_EENS1_6OpHashIS3_EEE14PrintParameterERNSt3__113basic_ostreamIcNS9_11char_traitsIcEEEENS1_8Operator14PrintVerbosityE to i8*)] }, comdat, align 8
@_ZTVN2v88internal8compiler25CommonOperatorGlobalCache12LoopOperatorILm1EEE = linkonce_odr hidden unnamed_addr constant { [7 x i8*] } { [7 x i8*] [i8* null, i8* null, i8* bitcast (void (%"class.v8::internal::compiler::Operator"*)* @_ZN2v88internal8compiler8OperatorD2Ev to i8*), i8* bitcast (void (%"struct.v8::internal::compiler::CommonOperatorGlobalCache::LoopOperator"*)* @_ZN2v88internal8compiler25CommonOperatorGlobalCache12LoopOperatorILm1EED0Ev to i8*), i8* bitcast (i1 (%"class.v8::internal::compiler::Operator"*, %"class.v8::internal::compiler::Operator"*)* @_ZNK2v88internal8compiler8Operator6EqualsEPKS2_ to i8*), i8* bitcast (i64 (%"class.v8::internal::compiler::Operator"*)* @_ZNK2v88internal8compiler8Operator8HashCodeEv to i8*), i8* bitcast (void (%"class.v8::internal::compiler::Operator"*, %"class.std::__1::basic_ostream"*, i32)* @_ZNK2v88internal8compiler8Operator11PrintToImplERNSt3__113basic_ostreamIcNS3_11char_traitsIcEEEENS2_14PrintVerbosityE to i8*)] }, comdat, align 8
@_ZTVN2v88internal8compiler25CommonOperatorGlobalCache12LoopOperatorILm2EEE = linkonce_odr hidden unnamed_addr constant { [7 x i8*] } { [7 x i8*] [i8* null, i8* null, i8* bitcast (void (%"class.v8::internal::compiler::Operator"*)* @_ZN2v88internal8compiler8OperatorD2Ev to i8*), i8* bitcast (void (%"struct.v8::internal::compiler::CommonOperatorGlobalCache::LoopOperator.30"*)* @_ZN2v88internal8compiler25CommonOperatorGlobalCache12LoopOperatorILm2EED0Ev to i8*), i8* bitcast (i1 (%"class.v8::internal::compiler::Operator"*, %"class.v8::internal::compiler::Operator"*)* @_ZNK2v88internal8compiler8Operator6EqualsEPKS2_ to i8*), i8* bitcast (i64 (%"class.v8::internal::compiler::Operator"*)* @_ZNK2v88internal8compiler8Operator8HashCodeEv to i8*), i8* bitcast (void (%"class.v8::internal::compiler::Operator"*, %"class.std::__1::basic_ostream"*, i32)* @_ZNK2v88internal8compiler8Operator11PrintToImplERNSt3__113basic_ostreamIcNS3_11char_traitsIcEEEENS2_14PrintVerbosityE to i8*)] }, comdat, align 8
@_ZTVN2v88internal8compiler25CommonOperatorGlobalCache13MergeOperatorILm1EEE = linkonce_odr hidden unnamed_addr constant { [7 x i8*] } { [7 x i8*] [i8* null, i8* null, i8* bitcast (void (%"class.v8::internal::compiler::Operator"*)* @_ZN2v88internal8compiler8OperatorD2Ev to i8*), i8* bitcast (void (%"struct.v8::internal::compiler::CommonOperatorGlobalCache::MergeOperator"*)* @_ZN2v88internal8compiler25CommonOperatorGlobalCache13MergeOperatorILm1EED0Ev to i8*), i8* bitcast (i1 (%"class.v8::internal::compiler::Operator"*, %"class.v8::internal::compiler::Operator"*)* @_ZNK2v88internal8compiler8Operator6EqualsEPKS2_ to i8*), i8* bitcast (i64 (%"class.v8::internal::compiler::Operator"*)* @_ZNK2v88internal8compiler8Operator8HashCodeEv to i8*), i8* bitcast (void (%"class.v8::internal::compiler::Operator"*, %"class.std::__1::basic_ostream"*, i32)* @_ZNK2v88internal8compiler8Operator11PrintToImplERNSt3__113basic_ostreamIcNS3_11char_traitsIcEEEENS2_14PrintVerbosityE to i8*)] }, comdat, align 8
@_ZTVN2v88internal8compiler25CommonOperatorGlobalCache13MergeOperatorILm2EEE = linkonce_odr hidden unnamed_addr constant { [7 x i8*] } { [7 x i8*] [i8* null, i8* null, i8* bitcast (void (%"class.v8::internal::compiler::Operator"*)* @_ZN2v88internal8compiler8OperatorD2Ev to i8*), i8* bitcast (void (%"struct.v8::internal::compiler::CommonOperatorGlobalCache::MergeOperator.31"*)* @_ZN2v88internal8compiler25CommonOperatorGlobalCache13MergeOperatorILm2EED0Ev to i8*), i8* bitcast (i1 (%"class.v8::internal::compiler::Operator"*, %"class.v8::internal::compiler::Operator"*)* @_ZNK2v88internal8compiler8Operator6EqualsEPKS2_ to i8*), i8* bitcast (i64 (%"class.v8::internal::compiler::Operator"*)* @_ZNK2v88internal8compiler8Operator8HashCodeEv to i8*), i8* bitcast (void (%"class.v8::internal::compiler::Operator"*, %"class.std::__1::basic_ostream"*, i32)* @_ZNK2v88internal8compiler8Operator11PrintToImplERNSt3__113basic_ostreamIcNS3_11char_traitsIcEEEENS2_14PrintVerbosityE to i8*)] }, comdat, align 8
@_ZTVN2v88internal8compiler25CommonOperatorGlobalCache13MergeOperatorILm3EEE = linkonce_odr hidden unnamed_addr constant { [7 x i8*] } { [7 x i8*] [i8* null, i8* null, i8* bitcast (void (%"class.v8::internal::compiler::Operator"*)* @_ZN2v88internal8compiler8OperatorD2Ev to i8*), i8* bitcast (void (%"struct.v8::internal::compiler::CommonOperatorGlobalCache::MergeOperator.32"*)* @_ZN2v88internal8compiler25CommonOperatorGlobalCache13MergeOperatorILm3EED0Ev to i8*), i8* bitcast (i1 (%"class.v8::internal::compiler::Operator"*, %"class.v8::internal::compiler::Operator"*)* @_ZNK2v88internal8compiler8Operator6EqualsEPKS2_ to i8*), i8* bitcast (i64 (%"class.v8::internal::compiler::Operator"*)* @_ZNK2v88internal8compiler8Operator8HashCodeEv to i8*), i8* bitcast (void (%"class.v8::internal::compiler::Operator"*, %"class.std::__1::basic_ostream"*, i32)* @_ZNK2v88internal8compiler8Operator11PrintToImplERNSt3__113basic_ostreamIcNS3_11char_traitsIcEEEENS2_14PrintVerbosityE to i8*)] }, comdat, align 8
@_ZTVN2v88internal8compiler25CommonOperatorGlobalCache13MergeOperatorILm4EEE = linkonce_odr hidden unnamed_addr constant { [7 x i8*] } { [7 x i8*] [i8* null, i8* null, i8* bitcast (void (%"class.v8::internal::compiler::Operator"*)* @_ZN2v88internal8compiler8OperatorD2Ev to i8*), i8* bitcast (void (%"struct.v8::internal::compiler::CommonOperatorGlobalCache::MergeOperator.33"*)* @_ZN2v88internal8compiler25CommonOperatorGlobalCache13MergeOperatorILm4EED0Ev to i8*), i8* bitcast (i1 (%"class.v8::internal::compiler::Operator"*, %"class.v8::internal::compiler::Operator"*)* @_ZNK2v88internal8compiler8Operator6EqualsEPKS2_ to i8*), i8* bitcast (i64 (%"class.v8::internal::compiler::Operator"*)* @_ZNK2v88internal8compiler8Operator8HashCodeEv to i8*), i8* bitcast (void (%"class.v8::internal::compiler::Operator"*, %"class.std::__1::basic_ostream"*, i32)* @_ZNK2v88internal8compiler8Operator11PrintToImplERNSt3__113basic_ostreamIcNS3_11char_traitsIcEEEENS2_14PrintVerbosityE to i8*)] }, comdat, align 8
@_ZTVN2v88internal8compiler25CommonOperatorGlobalCache13MergeOperatorILm5EEE = linkonce_odr hidden unnamed_addr constant { [7 x i8*] } { [7 x i8*] [i8* null, i8* null, i8* bitcast (void (%"class.v8::internal::compiler::Operator"*)* @_ZN2v88internal8compiler8OperatorD2Ev to i8*), i8* bitcast (void (%"struct.v8::internal::compiler::CommonOperatorGlobalCache::MergeOperator.34"*)* @_ZN2v88internal8compiler25CommonOperatorGlobalCache13MergeOperatorILm5EED0Ev to i8*), i8* bitcast (i1 (%"class.v8::internal::compiler::Operator"*, %"class.v8::internal::compiler::Operator"*)* @_ZNK2v88internal8compiler8Operator6EqualsEPKS2_ to i8*), i8* bitcast (i64 (%"class.v8::internal::compiler::Operator"*)* @_ZNK2v88internal8compiler8Operator8HashCodeEv to i8*), i8* bitcast (void (%"class.v8::internal::compiler::Operator"*, %"class.std::__1::basic_ostream"*, i32)* @_ZNK2v88internal8compiler8Operator11PrintToImplERNSt3__113basic_ostreamIcNS3_11char_traitsIcEEEENS2_14PrintVerbosityE to i8*)] }, comdat, align 8
@_ZTVN2v88internal8compiler25CommonOperatorGlobalCache13MergeOperatorILm6EEE = linkonce_odr hidden unnamed_addr constant { [7 x i8*] } { [7 x i8*] [i8* null, i8* null, i8* bitcast (void (%"class.v8::internal::compiler::Operator"*)* @_ZN2v88internal8compiler8OperatorD2Ev to i8*), i8* bitcast (void (%"struct.v8::internal::compiler::CommonOperatorGlobalCache::MergeOperator.35"*)* @_ZN2v88internal8compiler25CommonOperatorGlobalCache13MergeOperatorILm6EED0Ev to i8*), i8* bitcast (i1 (%"class.v8::internal::compiler::Operator"*, %"class.v8::internal::compiler::Operator"*)* @_ZNK2v88internal8compiler8Operator6EqualsEPKS2_ to i8*), i8* bitcast (i64 (%"class.v8::internal::compiler::Operator"*)* @_ZNK2v88internal8compiler8Operator8HashCodeEv to i8*), i8* bitcast (void (%"class.v8::internal::compiler::Operator"*, %"class.std::__1::basic_ostream"*, i32)* @_ZNK2v88internal8compiler8Operator11PrintToImplERNSt3__113basic_ostreamIcNS3_11char_traitsIcEEEENS2_14PrintVerbosityE to i8*)] }, comdat, align 8
@_ZTVN2v88internal8compiler25CommonOperatorGlobalCache13MergeOperatorILm7EEE = linkonce_odr hidden unnamed_addr constant { [7 x i8*] } { [7 x i8*] [i8* null, i8* null, i8* bitcast (void (%"class.v8::internal::compiler::Operator"*)* @_ZN2v88internal8compiler8OperatorD2Ev to i8*), i8* bitcast (void (%"struct.v8::internal::compiler::CommonOperatorGlobalCache::MergeOperator.36"*)* @_ZN2v88internal8compiler25CommonOperatorGlobalCache13MergeOperatorILm7EED0Ev to i8*), i8* bitcast (i1 (%"class.v8::internal::compiler::Operator"*, %"class.v8::internal::compiler::Operator"*)* @_ZNK2v88internal8compiler8Operator6EqualsEPKS2_ to i8*), i8* bitcast (i64 (%"class.v8::internal::compiler::Operator"*)* @_ZNK2v88internal8compiler8Operator8HashCodeEv to i8*), i8* bitcast (void (%"class.v8::internal::compiler::Operator"*, %"class.std::__1::basic_ostream"*, i32)* @_ZNK2v88internal8compiler8Operator11PrintToImplERNSt3__113basic_ostreamIcNS3_11char_traitsIcEEEENS2_14PrintVerbosityE to i8*)] }, comdat, align 8
@_ZTVN2v88internal8compiler25CommonOperatorGlobalCache13MergeOperatorILm8EEE = linkonce_odr hidden unnamed_addr constant { [7 x i8*] } { [7 x i8*] [i8* null, i8* null, i8* bitcast (void (%"class.v8::internal::compiler::Operator"*)* @_ZN2v88internal8compiler8OperatorD2Ev to i8*), i8* bitcast (void (%"struct.v8::internal::compiler::CommonOperatorGlobalCache::MergeOperator.37"*)* @_ZN2v88internal8compiler25CommonOperatorGlobalCache13MergeOperatorILm8EED0Ev to i8*), i8* bitcast (i1 (%"class.v8::internal::compiler::Operator"*, %"class.v8::internal::compiler::Operator"*)* @_ZNK2v88internal8compiler8Operator6EqualsEPKS2_ to i8*), i8* bitcast (i64 (%"class.v8::internal::compiler::Operator"*)* @_ZNK2v88internal8compiler8Operator8HashCodeEv to i8*), i8* bitcast (void (%"class.v8::internal::compiler::Operator"*, %"class.std::__1::basic_ostream"*, i32)* @_ZNK2v88internal8compiler8Operator11PrintToImplERNSt3__113basic_ostreamIcNS3_11char_traitsIcEEEENS2_14PrintVerbosityE to i8*)] }, comdat, align 8
@_ZTVN2v88internal8compiler25CommonOperatorGlobalCache21LoopExitValueOperatorILNS0_21MachineRepresentationE9EEE = linkonce_odr hidden unnamed_addr constant { [8 x i8*] } { [8 x i8*] [i8* null, i8* null, i8* bitcast (void (%"class.v8::internal::compiler::Operator"*)* @_ZN2v88internal8compiler8OperatorD2Ev to i8*), i8* bitcast (void (%"struct.v8::internal::compiler::CommonOperatorGlobalCache::LoopExitValueOperator"*)* @_ZN2v88internal8compiler25CommonOperatorGlobalCache21LoopExitValueOperatorILNS0_21MachineRepresentationE9EED0Ev to i8*), i8* bitcast (i1 (%"class.v8::internal::compiler::Operator1.38"*, %"class.v8::internal::compiler::Operator"*)* @_ZNK2v88internal8compiler9Operator1INS0_21MachineRepresentationENS1_9OpEqualToIS3_EENS1_6OpHashIS3_EEE6EqualsEPKNS1_8OperatorE to i8*), i8* bitcast (i64 (%"class.v8::internal::compiler::Operator1.38"*)* @_ZNK2v88internal8compiler9Operator1INS0_21MachineRepresentationENS1_9OpEqualToIS3_EENS1_6OpHashIS3_EEE8HashCodeEv to i8*), i8* bitcast (void (%"class.v8::internal::compiler::Operator1.38"*, %"class.std::__1::basic_ostream"*, i32)* @_ZNK2v88internal8compiler9Operator1INS0_21MachineRepresentationENS1_9OpEqualToIS3_EENS1_6OpHashIS3_EEE11PrintToImplERNSt3__113basic_ostreamIcNS9_11char_traitsIcEEEENS1_8Operator14PrintVerbosityE to i8*), i8* bitcast (void (%"class.v8::internal::compiler::Operator1.38"*, %"class.std::__1::basic_ostream"*, i32)* @_ZNK2v88internal8compiler9Operator1INS0_21MachineRepresentationENS1_9OpEqualToIS3_EENS1_6OpHashIS3_EEE14PrintParameterERNSt3__113basic_ostreamIcNS9_11char_traitsIcEEEENS1_8Operator14PrintVerbosityE to i8*)] }, comdat, align 8
@_ZTVN2v88internal8compiler9Operator1INS0_21MachineRepresentationENS1_9OpEqualToIS3_EENS1_6OpHashIS3_EEEE = linkonce_odr hidden unnamed_addr constant { [8 x i8*] } { [8 x i8*] [i8* null, i8* null, i8* bitcast (void (%"class.v8::internal::compiler::Operator"*)* @_ZN2v88internal8compiler8OperatorD2Ev to i8*), i8* bitcast (void (%"class.v8::internal::compiler::Operator1.38"*)* @_ZN2v88internal8compiler9Operator1INS0_21MachineRepresentationENS1_9OpEqualToIS3_EENS1_6OpHashIS3_EEED0Ev to i8*), i8* bitcast (i1 (%"class.v8::internal::compiler::Operator1.38"*, %"class.v8::internal::compiler::Operator"*)* @_ZNK2v88internal8compiler9Operator1INS0_21MachineRepresentationENS1_9OpEqualToIS3_EENS1_6OpHashIS3_EEE6EqualsEPKNS1_8OperatorE to i8*), i8* bitcast (i64 (%"class.v8::internal::compiler::Operator1.38"*)* @_ZNK2v88internal8compiler9Operator1INS0_21MachineRepresentationENS1_9OpEqualToIS3_EENS1_6OpHashIS3_EEE8HashCodeEv to i8*), i8* bitcast (void (%"class.v8::internal::compiler::Operator1.38"*, %"class.std::__1::basic_ostream"*, i32)* @_ZNK2v88internal8compiler9Operator1INS0_21MachineRepresentationENS1_9OpEqualToIS3_EENS1_6OpHashIS3_EEE11PrintToImplERNSt3__113basic_ostreamIcNS9_11char_traitsIcEEEENS1_8Operator14PrintVerbosityE to i8*), i8* bitcast (void (%"class.v8::internal::compiler::Operator1.38"*, %"class.std::__1::basic_ostream"*, i32)* @_ZNK2v88internal8compiler9Operator1INS0_21MachineRepresentationENS1_9OpEqualToIS3_EENS1_6OpHashIS3_EEE14PrintParameterERNSt3__113basic_ostreamIcNS9_11char_traitsIcEEEENS1_8Operator14PrintVerbosityE to i8*)] }, comdat, align 8
@_ZTVN2v88internal8compiler25CommonOperatorGlobalCache18DeoptimizeOperatorILNS0_14DeoptimizeKindE0ELNS0_16DeoptimizeReasonE19EEE = linkonce_odr hidden unnamed_addr constant { [8 x i8*] } { [8 x i8*] [i8* null, i8* null, i8* bitcast (void (%"class.v8::internal::compiler::Operator"*)* @_ZN2v88internal8compiler8OperatorD2Ev to i8*), i8* bitcast (void (%"struct.v8::internal::compiler::CommonOperatorGlobalCache::DeoptimizeOperator"*)* @_ZN2v88internal8compiler25CommonOperatorGlobalCache18DeoptimizeOperatorILNS0_14DeoptimizeKindE0ELNS0_16DeoptimizeReasonE19EED0Ev to i8*), i8* bitcast (i1 (%"class.v8::internal::compiler::Operator1.45"*, %"class.v8::internal::compiler::Operator"*)* @_ZNK2v88internal8compiler9Operator1INS1_20DeoptimizeParametersENS1_9OpEqualToIS3_EENS1_6OpHashIS3_EEE6EqualsEPKNS1_8OperatorE to i8*), i8* bitcast (i64 (%"class.v8::internal::compiler::Operator1.45"*)* @_ZNK2v88internal8compiler9Operator1INS1_20DeoptimizeParametersENS1_9OpEqualToIS3_EENS1_6OpHashIS3_EEE8HashCodeEv to i8*), i8* bitcast (void (%"class.v8::internal::compiler::Operator1.45"*, %"class.std::__1::basic_ostream"*, i32)* @_ZNK2v88internal8compiler9Operator1INS1_20DeoptimizeParametersENS1_9OpEqualToIS3_EENS1_6OpHashIS3_EEE11PrintToImplERNSt3__113basic_ostreamIcNS9_11char_traitsIcEEEENS1_8Operator14PrintVerbosityE to i8*), i8* bitcast (void (%"class.v8::internal::compiler::Operator1.45"*, %"class.std::__1::basic_ostream"*, i32)* @_ZNK2v88internal8compiler9Operator1INS1_20DeoptimizeParametersENS1_9OpEqualToIS3_EENS1_6OpHashIS3_EEE14PrintParameterERNSt3__113basic_ostreamIcNS9_11char_traitsIcEEEENS1_8Operator14PrintVerbosityE to i8*)] }, comdat, align 8
@_ZTVN2v88internal8compiler9Operator1INS1_20DeoptimizeParametersENS1_9OpEqualToIS3_EENS1_6OpHashIS3_EEEE = linkonce_odr hidden unnamed_addr constant { [8 x i8*] } { [8 x i8*] [i8* null, i8* null, i8* bitcast (void (%"class.v8::internal::compiler::Operator"*)* @_ZN2v88internal8compiler8OperatorD2Ev to i8*), i8* bitcast (void (%"class.v8::internal::compiler::Operator1.45"*)* @_ZN2v88internal8compiler9Operator1INS1_20DeoptimizeParametersENS1_9OpEqualToIS3_EENS1_6OpHashIS3_EEED0Ev to i8*), i8* bitcast (i1 (%"class.v8::internal::compiler::Operator1.45"*, %"class.v8::internal::compiler::Operator"*)* @_ZNK2v88internal8compiler9Operator1INS1_20DeoptimizeParametersENS1_9OpEqualToIS3_EENS1_6OpHashIS3_EEE6EqualsEPKNS1_8OperatorE to i8*), i8* bitcast (i64 (%"class.v8::internal::compiler::Operator1.45"*)* @_ZNK2v88internal8compiler9Operator1INS1_20DeoptimizeParametersENS1_9OpEqualToIS3_EENS1_6OpHashIS3_EEE8HashCodeEv to i8*), i8* bitcast (void (%"class.v8::internal::compiler::Operator1.45"*, %"class.std::__1::basic_ostream"*, i32)* @_ZNK2v88internal8compiler9Operator1INS1_20DeoptimizeParametersENS1_9OpEqualToIS3_EENS1_6OpHashIS3_EEE11PrintToImplERNSt3__113basic_ostreamIcNS9_11char_traitsIcEEEENS1_8Operator14PrintVerbosityE to i8*), i8* bitcast (void (%"class.v8::internal::compiler::Operator1.45"*, %"class.std::__1::basic_ostream"*, i32)* @_ZNK2v88internal8compiler9Operator1INS1_20DeoptimizeParametersENS1_9OpEqualToIS3_EENS1_6OpHashIS3_EEE14PrintParameterERNSt3__113basic_ostreamIcNS9_11char_traitsIcEEEENS1_8Operator14PrintVerbosityE to i8*)] }, comdat, align 8
@_ZTVN2v88internal8compiler25CommonOperatorGlobalCache18DeoptimizeOperatorILNS0_14DeoptimizeKindE0ELNS0_16DeoptimizeReasonE45EEE = linkonce_odr hidden unnamed_addr constant { [8 x i8*] } { [8 x i8*] [i8* null, i8* null, i8* bitcast (void (%"class.v8::internal::compiler::Operator"*)* @_ZN2v88internal8compiler8OperatorD2Ev to i8*), i8* bitcast (void (%"struct.v8::internal::compiler::CommonOperatorGlobalCache::DeoptimizeOperator.52"*)* @_ZN2v88internal8compiler25CommonOperatorGlobalCache18DeoptimizeOperatorILNS0_14DeoptimizeKindE0ELNS0_16DeoptimizeReasonE45EED0Ev to i8*), i8* bitcast (i1 (%"class.v8::internal::compiler::Operator1.45"*, %"class.v8::internal::compiler::Operator"*)* @_ZNK2v88internal8compiler9Operator1INS1_20DeoptimizeParametersENS1_9OpEqualToIS3_EENS1_6OpHashIS3_EEE6EqualsEPKNS1_8OperatorE to i8*), i8* bitcast (i64 (%"class.v8::internal::compiler::Operator1.45"*)* @_ZNK2v88internal8compiler9Operator1INS1_20DeoptimizeParametersENS1_9OpEqualToIS3_EENS1_6OpHashIS3_EEE8HashCodeEv to i8*), i8* bitcast (void (%"class.v8::internal::compiler::Operator1.45"*, %"class.std::__1::basic_ostream"*, i32)* @_ZNK2v88internal8compiler9Operator1INS1_20DeoptimizeParametersENS1_9OpEqualToIS3_EENS1_6OpHashIS3_EEE11PrintToImplERNSt3__113basic_ostreamIcNS9_11char_traitsIcEEEENS1_8Operator14PrintVerbosityE to i8*), i8* bitcast (void (%"class.v8::internal::compiler::Operator1.45"*, %"class.std::__1::basic_ostream"*, i32)* @_ZNK2v88internal8compiler9Operator1INS1_20DeoptimizeParametersENS1_9OpEqualToIS3_EENS1_6OpHashIS3_EEE14PrintParameterERNSt3__113basic_ostreamIcNS9_11char_traitsIcEEEENS1_8Operator14PrintVerbosityE to i8*)] }, comdat, align 8
@_ZTVN2v88internal8compiler25CommonOperatorGlobalCache18DeoptimizeOperatorILNS0_14DeoptimizeKindE1ELNS0_16DeoptimizeReasonE15EEE = linkonce_odr hidden unnamed_addr constant { [8 x i8*] } { [8 x i8*] [i8* null, i8* null, i8* bitcast (void (%"class.v8::internal::compiler::Operator"*)* @_ZN2v88internal8compiler8OperatorD2Ev to i8*), i8* bitcast (void (%"struct.v8::internal::compiler::CommonOperatorGlobalCache::DeoptimizeOperator.53"*)* @_ZN2v88internal8compiler25CommonOperatorGlobalCache18DeoptimizeOperatorILNS0_14DeoptimizeKindE1ELNS0_16DeoptimizeReasonE15EED0Ev to i8*), i8* bitcast (i1 (%"class.v8::internal::compiler::Operator1.45"*, %"class.v8::internal::compiler::Operator"*)* @_ZNK2v88internal8compiler9Operator1INS1_20DeoptimizeParametersENS1_9OpEqualToIS3_EENS1_6OpHashIS3_EEE6EqualsEPKNS1_8OperatorE to i8*), i8* bitcast (i64 (%"class.v8::internal::compiler::Operator1.45"*)* @_ZNK2v88internal8compiler9Operator1INS1_20DeoptimizeParametersENS1_9OpEqualToIS3_EENS1_6OpHashIS3_EEE8HashCodeEv to i8*), i8* bitcast (void (%"class.v8::internal::compiler::Operator1.45"*, %"class.std::__1::basic_ostream"*, i32)* @_ZNK2v88internal8compiler9Operator1INS1_20DeoptimizeParametersENS1_9OpEqualToIS3_EENS1_6OpHashIS3_EEE11PrintToImplERNSt3__113basic_ostreamIcNS9_11char_traitsIcEEEENS1_8Operator14PrintVerbosityE to i8*), i8* bitcast (void (%"class.v8::internal::compiler::Operator1.45"*, %"class.std::__1::basic_ostream"*, i32)* @_ZNK2v88internal8compiler9Operator1INS1_20DeoptimizeParametersENS1_9OpEqualToIS3_EENS1_6OpHashIS3_EEE14PrintParameterERNSt3__113basic_ostreamIcNS9_11char_traitsIcEEEENS1_8Operator14PrintVerbosityE to i8*)] }, comdat, align 8
@_ZTVN2v88internal8compiler25CommonOperatorGlobalCache18DeoptimizeOperatorILNS0_14DeoptimizeKindE1ELNS0_16DeoptimizeReasonE14EEE = linkonce_odr hidden unnamed_addr constant { [8 x i8*] } { [8 x i8*] [i8* null, i8* null, i8* bitcast (void (%"class.v8::internal::compiler::Operator"*)* @_ZN2v88internal8compiler8OperatorD2Ev to i8*), i8* bitcast (void (%"struct.v8::internal::compiler::CommonOperatorGlobalCache::DeoptimizeOperator.54"*)* @_ZN2v88internal8compiler25CommonOperatorGlobalCache18DeoptimizeOperatorILNS0_14DeoptimizeKindE1ELNS0_16DeoptimizeReasonE14EED0Ev to i8*), i8* bitcast (i1 (%"class.v8::internal::compiler::Operator1.45"*, %"class.v8::internal::compiler::Operator"*)* @_ZNK2v88internal8compiler9Operator1INS1_20DeoptimizeParametersENS1_9OpEqualToIS3_EENS1_6OpHashIS3_EEE6EqualsEPKNS1_8OperatorE to i8*), i8* bitcast (i64 (%"class.v8::internal::compiler::Operator1.45"*)* @_ZNK2v88internal8compiler9Operator1INS1_20DeoptimizeParametersENS1_9OpEqualToIS3_EENS1_6OpHashIS3_EEE8HashCodeEv to i8*), i8* bitcast (void (%"class.v8::internal::compiler::Operator1.45"*, %"class.std::__1::basic_ostream"*, i32)* @_ZNK2v88internal8compiler9Operator1INS1_20DeoptimizeParametersENS1_9OpEqualToIS3_EENS1_6OpHashIS3_EEE11PrintToImplERNSt3__113basic_ostreamIcNS9_11char_traitsIcEEEENS1_8Operator14PrintVerbosityE to i8*), i8* bitcast (void (%"class.v8::internal::compiler::Operator1.45"*, %"class.std::__1::basic_ostream"*, i32)* @_ZNK2v88internal8compiler9Operator1INS1_20DeoptimizeParametersENS1_9OpEqualToIS3_EENS1_6OpHashIS3_EEE14PrintParameterERNSt3__113basic_ostreamIcNS9_11char_traitsIcEEEENS1_8Operator14PrintVerbosityE to i8*)] }, comdat, align 8
@_ZTVN2v88internal8compiler25CommonOperatorGlobalCache20DeoptimizeIfOperatorILNS0_14DeoptimizeKindE0ELNS0_16DeoptimizeReasonE5ELNS1_13IsSafetyCheckE2EEE = linkonce_odr hidden unnamed_addr constant { [8 x i8*] } { [8 x i8*] [i8* null, i8* null, i8* bitcast (void (%"class.v8::internal::compiler::Operator"*)* @_ZN2v88internal8compiler8OperatorD2Ev to i8*), i8* bitcast (void (%"struct.v8::internal::compiler::CommonOperatorGlobalCache::DeoptimizeIfOperator"*)* @_ZN2v88internal8compiler25CommonOperatorGlobalCache20DeoptimizeIfOperatorILNS0_14DeoptimizeKindE0ELNS0_16DeoptimizeReasonE5ELNS1_13IsSafetyCheckE2EED0Ev to i8*), i8* bitcast (i1 (%"class.v8::internal::compiler::Operator1.45"*, %"class.v8::internal::compiler::Operator"*)* @_ZNK2v88internal8compiler9Operator1INS1_20DeoptimizeParametersENS1_9OpEqualToIS3_EENS1_6OpHashIS3_EEE6EqualsEPKNS1_8OperatorE to i8*), i8* bitcast (i64 (%"class.v8::internal::compiler::Operator1.45"*)* @_ZNK2v88internal8compiler9Operator1INS1_20DeoptimizeParametersENS1_9OpEqualToIS3_EENS1_6OpHashIS3_EEE8HashCodeEv to i8*), i8* bitcast (void (%"class.v8::internal::compiler::Operator1.45"*, %"class.std::__1::basic_ostream"*, i32)* @_ZNK2v88internal8compiler9Operator1INS1_20DeoptimizeParametersENS1_9OpEqualToIS3_EENS1_6OpHashIS3_EEE11PrintToImplERNSt3__113basic_ostreamIcNS9_11char_traitsIcEEEENS1_8Operator14PrintVerbosityE to i8*), i8* bitcast (void (%"class.v8::internal::compiler::Operator1.45"*, %"class.std::__1::basic_ostream"*, i32)* @_ZNK2v88internal8compiler9Operator1INS1_20DeoptimizeParametersENS1_9OpEqualToIS3_EENS1_6OpHashIS3_EEE14PrintParameterERNSt3__113basic_ostreamIcNS9_11char_traitsIcEEEENS1_8Operator14PrintVerbosityE to i8*)] }, comdat, align 8
@_ZTVN2v88internal8compiler25CommonOperatorGlobalCache20DeoptimizeIfOperatorILNS0_14DeoptimizeKindE0ELNS0_16DeoptimizeReasonE5ELNS1_13IsSafetyCheckE1EEE = linkonce_odr hidden unnamed_addr constant { [8 x i8*] } { [8 x i8*] [i8* null, i8* null, i8* bitcast (void (%"class.v8::internal::compiler::Operator"*)* @_ZN2v88internal8compiler8OperatorD2Ev to i8*), i8* bitcast (void (%"struct.v8::internal::compiler::CommonOperatorGlobalCache::DeoptimizeIfOperator.55"*)* @_ZN2v88internal8compiler25CommonOperatorGlobalCache20DeoptimizeIfOperatorILNS0_14DeoptimizeKindE0ELNS0_16DeoptimizeReasonE5ELNS1_13IsSafetyCheckE1EED0Ev to i8*), i8* bitcast (i1 (%"class.v8::internal::compiler::Operator1.45"*, %"class.v8::internal::compiler::Operator"*)* @_ZNK2v88internal8compiler9Operator1INS1_20DeoptimizeParametersENS1_9OpEqualToIS3_EENS1_6OpHashIS3_EEE6EqualsEPKNS1_8OperatorE to i8*), i8* bitcast (i64 (%"class.v8::internal::compiler::Operator1.45"*)* @_ZNK2v88internal8compiler9Operator1INS1_20DeoptimizeParametersENS1_9OpEqualToIS3_EENS1_6OpHashIS3_EEE8HashCodeEv to i8*), i8* bitcast (void (%"class.v8::internal::compiler::Operator1.45"*, %"class.std::__1::basic_ostream"*, i32)* @_ZNK2v88internal8compiler9Operator1INS1_20DeoptimizeParametersENS1_9OpEqualToIS3_EENS1_6OpHashIS3_EEE11PrintToImplERNSt3__113basic_ostreamIcNS9_11char_traitsIcEEEENS1_8Operator14PrintVerbosityE to i8*), i8* bitcast (void (%"class.v8::internal::compiler::Operator1.45"*, %"class.std::__1::basic_ostream"*, i32)* @_ZNK2v88internal8compiler9Operator1INS1_20DeoptimizeParametersENS1_9OpEqualToIS3_EENS1_6OpHashIS3_EEE14PrintParameterERNSt3__113basic_ostreamIcNS9_11char_traitsIcEEEENS1_8Operator14PrintVerbosityE to i8*)] }, comdat, align 8
@_ZTVN2v88internal8compiler25CommonOperatorGlobalCache20DeoptimizeIfOperatorILNS0_14DeoptimizeKindE0ELNS0_16DeoptimizeReasonE7ELNS1_13IsSafetyCheckE2EEE = linkonce_odr hidden unnamed_addr constant { [8 x i8*] } { [8 x i8*] [i8* null, i8* null, i8* bitcast (void (%"class.v8::internal::compiler::Operator"*)* @_ZN2v88internal8compiler8OperatorD2Ev to i8*), i8* bitcast (void (%"struct.v8::internal::compiler::CommonOperatorGlobalCache::DeoptimizeIfOperator.56"*)* @_ZN2v88internal8compiler25CommonOperatorGlobalCache20DeoptimizeIfOperatorILNS0_14DeoptimizeKindE0ELNS0_16DeoptimizeReasonE7ELNS1_13IsSafetyCheckE2EED0Ev to i8*), i8* bitcast (i1 (%"class.v8::internal::compiler::Operator1.45"*, %"class.v8::internal::compiler::Operator"*)* @_ZNK2v88internal8compiler9Operator1INS1_20DeoptimizeParametersENS1_9OpEqualToIS3_EENS1_6OpHashIS3_EEE6EqualsEPKNS1_8OperatorE to i8*), i8* bitcast (i64 (%"class.v8::internal::compiler::Operator1.45"*)* @_ZNK2v88internal8compiler9Operator1INS1_20DeoptimizeParametersENS1_9OpEqualToIS3_EENS1_6OpHashIS3_EEE8HashCodeEv to i8*), i8* bitcast (void (%"class.v8::internal::compiler::Operator1.45"*, %"class.std::__1::basic_ostream"*, i32)* @_ZNK2v88internal8compiler9Operator1INS1_20DeoptimizeParametersENS1_9OpEqualToIS3_EENS1_6OpHashIS3_EEE11PrintToImplERNSt3__113basic_ostreamIcNS9_11char_traitsIcEEEENS1_8Operator14PrintVerbosityE to i8*), i8* bitcast (void (%"class.v8::internal::compiler::Operator1.45"*, %"class.std::__1::basic_ostream"*, i32)* @_ZNK2v88internal8compiler9Operator1INS1_20DeoptimizeParametersENS1_9OpEqualToIS3_EENS1_6OpHashIS3_EEE14PrintParameterERNSt3__113basic_ostreamIcNS9_11char_traitsIcEEEENS1_8Operator14PrintVerbosityE to i8*)] }, comdat, align 8
@_ZTVN2v88internal8compiler25CommonOperatorGlobalCache20DeoptimizeIfOperatorILNS0_14DeoptimizeKindE0ELNS0_16DeoptimizeReasonE7ELNS1_13IsSafetyCheckE1EEE = linkonce_odr hidden unnamed_addr constant { [8 x i8*] } { [8 x i8*] [i8* null, i8* null, i8* bitcast (void (%"class.v8::internal::compiler::Operator"*)* @_ZN2v88internal8compiler8OperatorD2Ev to i8*), i8* bitcast (void (%"struct.v8::internal::compiler::CommonOperatorGlobalCache::DeoptimizeIfOperator.57"*)* @_ZN2v88internal8compiler25CommonOperatorGlobalCache20DeoptimizeIfOperatorILNS0_14DeoptimizeKindE0ELNS0_16DeoptimizeReasonE7ELNS1_13IsSafetyCheckE1EED0Ev to i8*), i8* bitcast (i1 (%"class.v8::internal::compiler::Operator1.45"*, %"class.v8::internal::compiler::Operator"*)* @_ZNK2v88internal8compiler9Operator1INS1_20DeoptimizeParametersENS1_9OpEqualToIS3_EENS1_6OpHashIS3_EEE6EqualsEPKNS1_8OperatorE to i8*), i8* bitcast (i64 (%"class.v8::internal::compiler::Operator1.45"*)* @_ZNK2v88internal8compiler9Operator1INS1_20DeoptimizeParametersENS1_9OpEqualToIS3_EENS1_6OpHashIS3_EEE8HashCodeEv to i8*), i8* bitcast (void (%"class.v8::internal::compiler::Operator1.45"*, %"class.std::__1::basic_ostream"*, i32)* @_ZNK2v88internal8compiler9Operator1INS1_20DeoptimizeParametersENS1_9OpEqualToIS3_EENS1_6OpHashIS3_EEE11PrintToImplERNSt3__113basic_ostreamIcNS9_11char_traitsIcEEEENS1_8Operator14PrintVerbosityE to i8*), i8* bitcast (void (%"class.v8::internal::compiler::Operator1.45"*, %"class.std::__1::basic_ostream"*, i32)* @_ZNK2v88internal8compiler9Operator1INS1_20DeoptimizeParametersENS1_9OpEqualToIS3_EENS1_6OpHashIS3_EEE14PrintParameterERNSt3__113basic_ostreamIcNS9_11char_traitsIcEEEENS1_8Operator14PrintVerbosityE to i8*)] }, comdat, align 8
@_ZTVN2v88internal8compiler25CommonOperatorGlobalCache20DeoptimizeIfOperatorILNS0_14DeoptimizeKindE0ELNS0_16DeoptimizeReasonE19ELNS1_13IsSafetyCheckE2EEE = linkonce_odr hidden unnamed_addr constant { [8 x i8*] } { [8 x i8*] [i8* null, i8* null, i8* bitcast (void (%"class.v8::internal::compiler::Operator"*)* @_ZN2v88internal8compiler8OperatorD2Ev to i8*), i8* bitcast (void (%"struct.v8::internal::compiler::CommonOperatorGlobalCache::DeoptimizeIfOperator.58"*)* @_ZN2v88internal8compiler25CommonOperatorGlobalCache20DeoptimizeIfOperatorILNS0_14DeoptimizeKindE0ELNS0_16DeoptimizeReasonE19ELNS1_13IsSafetyCheckE2EED0Ev to i8*), i8* bitcast (i1 (%"class.v8::internal::compiler::Operator1.45"*, %"class.v8::internal::compiler::Operator"*)* @_ZNK2v88internal8compiler9Operator1INS1_20DeoptimizeParametersENS1_9OpEqualToIS3_EENS1_6OpHashIS3_EEE6EqualsEPKNS1_8OperatorE to i8*), i8* bitcast (i64 (%"class.v8::internal::compiler::Operator1.45"*)* @_ZNK2v88internal8compiler9Operator1INS1_20DeoptimizeParametersENS1_9OpEqualToIS3_EENS1_6OpHashIS3_EEE8HashCodeEv to i8*), i8* bitcast (void (%"class.v8::internal::compiler::Operator1.45"*, %"class.std::__1::basic_ostream"*, i32)* @_ZNK2v88internal8compiler9Operator1INS1_20DeoptimizeParametersENS1_9OpEqualToIS3_EENS1_6OpHashIS3_EEE11PrintToImplERNSt3__113basic_ostreamIcNS9_11char_traitsIcEEEENS1_8Operator14PrintVerbosityE to i8*), i8* bitcast (void (%"class.v8::internal::compiler::Operator1.45"*, %"class.std::__1::basic_ostream"*, i32)* @_ZNK2v88internal8compiler9Operator1INS1_20DeoptimizeParametersENS1_9OpEqualToIS3_EENS1_6OpHashIS3_EEE14PrintParameterERNSt3__113basic_ostreamIcNS9_11char_traitsIcEEEENS1_8Operator14PrintVerbosityE to i8*)] }, comdat, align 8
@_ZTVN2v88internal8compiler25CommonOperatorGlobalCache20DeoptimizeIfOperatorILNS0_14DeoptimizeKindE0ELNS0_16DeoptimizeReasonE19ELNS1_13IsSafetyCheckE1EEE = linkonce_odr hidden unnamed_addr constant { [8 x i8*] } { [8 x i8*] [i8* null, i8* null, i8* bitcast (void (%"class.v8::internal::compiler::Operator"*)* @_ZN2v88internal8compiler8OperatorD2Ev to i8*), i8* bitcast (void (%"struct.v8::internal::compiler::CommonOperatorGlobalCache::DeoptimizeIfOperator.59"*)* @_ZN2v88internal8compiler25CommonOperatorGlobalCache20DeoptimizeIfOperatorILNS0_14DeoptimizeKindE0ELNS0_16DeoptimizeReasonE19ELNS1_13IsSafetyCheckE1EED0Ev to i8*), i8* bitcast (i1 (%"class.v8::internal::compiler::Operator1.45"*, %"class.v8::internal::compiler::Operator"*)* @_ZNK2v88internal8compiler9Operator1INS1_20DeoptimizeParametersENS1_9OpEqualToIS3_EENS1_6OpHashIS3_EEE6EqualsEPKNS1_8OperatorE to i8*), i8* bitcast (i64 (%"class.v8::internal::compiler::Operator1.45"*)* @_ZNK2v88internal8compiler9Operator1INS1_20DeoptimizeParametersENS1_9OpEqualToIS3_EENS1_6OpHashIS3_EEE8HashCodeEv to i8*), i8* bitcast (void (%"class.v8::internal::compiler::Operator1.45"*, %"class.std::__1::basic_ostream"*, i32)* @_ZNK2v88internal8compiler9Operator1INS1_20DeoptimizeParametersENS1_9OpEqualToIS3_EENS1_6OpHashIS3_EEE11PrintToImplERNSt3__113basic_ostreamIcNS9_11char_traitsIcEEEENS1_8Operator14PrintVerbosityE to i8*), i8* bitcast (void (%"class.v8::internal::compiler::Operator1.45"*, %"class.std::__1::basic_ostream"*, i32)* @_ZNK2v88internal8compiler9Operator1INS1_20DeoptimizeParametersENS1_9OpEqualToIS3_EENS1_6OpHashIS3_EEE14PrintParameterERNSt3__113basic_ostreamIcNS9_11char_traitsIcEEEENS1_8Operator14PrintVerbosityE to i8*)] }, comdat, align 8
@_ZTVN2v88internal8compiler25CommonOperatorGlobalCache20DeoptimizeIfOperatorILNS0_14DeoptimizeKindE0ELNS0_16DeoptimizeReasonE35ELNS1_13IsSafetyCheckE2EEE = linkonce_odr hidden unnamed_addr constant { [8 x i8*] } { [8 x i8*] [i8* null, i8* null, i8* bitcast (void (%"class.v8::internal::compiler::Operator"*)* @_ZN2v88internal8compiler8OperatorD2Ev to i8*), i8* bitcast (void (%"struct.v8::internal::compiler::CommonOperatorGlobalCache::DeoptimizeIfOperator.60"*)* @_ZN2v88internal8compiler25CommonOperatorGlobalCache20DeoptimizeIfOperatorILNS0_14DeoptimizeKindE0ELNS0_16DeoptimizeReasonE35ELNS1_13IsSafetyCheckE2EED0Ev to i8*), i8* bitcast (i1 (%"class.v8::internal::compiler::Operator1.45"*, %"class.v8::internal::compiler::Operator"*)* @_ZNK2v88internal8compiler9Operator1INS1_20DeoptimizeParametersENS1_9OpEqualToIS3_EENS1_6OpHashIS3_EEE6EqualsEPKNS1_8OperatorE to i8*), i8* bitcast (i64 (%"class.v8::internal::compiler::Operator1.45"*)* @_ZNK2v88internal8compiler9Operator1INS1_20DeoptimizeParametersENS1_9OpEqualToIS3_EENS1_6OpHashIS3_EEE8HashCodeEv to i8*), i8* bitcast (void (%"class.v8::internal::compiler::Operator1.45"*, %"class.std::__1::basic_ostream"*, i32)* @_ZNK2v88internal8compiler9Operator1INS1_20DeoptimizeParametersENS1_9OpEqualToIS3_EENS1_6OpHashIS3_EEE11PrintToImplERNSt3__113basic_ostreamIcNS9_11char_traitsIcEEEENS1_8Operator14PrintVerbosityE to i8*), i8* bitcast (void (%"class.v8::internal::compiler::Operator1.45"*, %"class.std::__1::basic_ostream"*, i32)* @_ZNK2v88internal8compiler9Operator1INS1_20DeoptimizeParametersENS1_9OpEqualToIS3_EENS1_6OpHashIS3_EEE14PrintParameterERNSt3__113basic_ostreamIcNS9_11char_traitsIcEEEENS1_8Operator14PrintVerbosityE to i8*)] }, comdat, align 8
@_ZTVN2v88internal8compiler25CommonOperatorGlobalCache20DeoptimizeIfOperatorILNS0_14DeoptimizeKindE0ELNS0_16DeoptimizeReasonE35ELNS1_13IsSafetyCheckE1EEE = linkonce_odr hidden unnamed_addr constant { [8 x i8*] } { [8 x i8*] [i8* null, i8* null, i8* bitcast (void (%"class.v8::internal::compiler::Operator"*)* @_ZN2v88internal8compiler8OperatorD2Ev to i8*), i8* bitcast (void (%"struct.v8::internal::compiler::CommonOperatorGlobalCache::DeoptimizeIfOperator.61"*)* @_ZN2v88internal8compiler25CommonOperatorGlobalCache20DeoptimizeIfOperatorILNS0_14DeoptimizeKindE0ELNS0_16DeoptimizeReasonE35ELNS1_13IsSafetyCheckE1EED0Ev to i8*), i8* bitcast (i1 (%"class.v8::internal::compiler::Operator1.45"*, %"class.v8::internal::compiler::Operator"*)* @_ZNK2v88internal8compiler9Operator1INS1_20DeoptimizeParametersENS1_9OpEqualToIS3_EENS1_6OpHashIS3_EEE6EqualsEPKNS1_8OperatorE to i8*), i8* bitcast (i64 (%"class.v8::internal::compiler::Operator1.45"*)* @_ZNK2v88internal8compiler9Operator1INS1_20DeoptimizeParametersENS1_9OpEqualToIS3_EENS1_6OpHashIS3_EEE8HashCodeEv to i8*), i8* bitcast (void (%"class.v8::internal::compiler::Operator1.45"*, %"class.std::__1::basic_ostream"*, i32)* @_ZNK2v88internal8compiler9Operator1INS1_20DeoptimizeParametersENS1_9OpEqualToIS3_EENS1_6OpHashIS3_EEE11PrintToImplERNSt3__113basic_ostreamIcNS9_11char_traitsIcEEEENS1_8Operator14PrintVerbosityE to i8*), i8* bitcast (void (%"class.v8::internal::compiler::Operator1.45"*, %"class.std::__1::basic_ostream"*, i32)* @_ZNK2v88internal8compiler9Operator1INS1_20DeoptimizeParametersENS1_9OpEqualToIS3_EENS1_6OpHashIS3_EEE14PrintParameterERNSt3__113basic_ostreamIcNS9_11char_traitsIcEEEENS1_8Operator14PrintVerbosityE to i8*)] }, comdat, align 8
@_ZTVN2v88internal8compiler25CommonOperatorGlobalCache20DeoptimizeIfOperatorILNS0_14DeoptimizeKindE0ELNS0_16DeoptimizeReasonE36ELNS1_13IsSafetyCheckE1EEE = linkonce_odr hidden unnamed_addr constant { [8 x i8*] } { [8 x i8*] [i8* null, i8* null, i8* bitcast (void (%"class.v8::internal::compiler::Operator"*)* @_ZN2v88internal8compiler8OperatorD2Ev to i8*), i8* bitcast (void (%"struct.v8::internal::compiler::CommonOperatorGlobalCache::DeoptimizeIfOperator.62"*)* @_ZN2v88internal8compiler25CommonOperatorGlobalCache20DeoptimizeIfOperatorILNS0_14DeoptimizeKindE0ELNS0_16DeoptimizeReasonE36ELNS1_13IsSafetyCheckE1EED0Ev to i8*), i8* bitcast (i1 (%"class.v8::internal::compiler::Operator1.45"*, %"class.v8::internal::compiler::Operator"*)* @_ZNK2v88internal8compiler9Operator1INS1_20DeoptimizeParametersENS1_9OpEqualToIS3_EENS1_6OpHashIS3_EEE6EqualsEPKNS1_8OperatorE to i8*), i8* bitcast (i64 (%"class.v8::internal::compiler::Operator1.45"*)* @_ZNK2v88internal8compiler9Operator1INS1_20DeoptimizeParametersENS1_9OpEqualToIS3_EENS1_6OpHashIS3_EEE8HashCodeEv to i8*), i8* bitcast (void (%"class.v8::internal::compiler::Operator1.45"*, %"class.std::__1::basic_ostream"*, i32)* @_ZNK2v88internal8compiler9Operator1INS1_20DeoptimizeParametersENS1_9OpEqualToIS3_EENS1_6OpHashIS3_EEE11PrintToImplERNSt3__113basic_ostreamIcNS9_11char_traitsIcEEEENS1_8Operator14PrintVerbosityE to i8*), i8* bitcast (void (%"class.v8::internal::compiler::Operator1.45"*, %"class.std::__1::basic_ostream"*, i32)* @_ZNK2v88internal8compiler9Operator1INS1_20DeoptimizeParametersENS1_9OpEqualToIS3_EENS1_6OpHashIS3_EEE14PrintParameterERNSt3__113basic_ostreamIcNS9_11char_traitsIcEEEENS1_8Operator14PrintVerbosityE to i8*)] }, comdat, align 8
@_ZTVN2v88internal8compiler25CommonOperatorGlobalCache24DeoptimizeUnlessOperatorILNS0_14DeoptimizeKindE0ELNS0_16DeoptimizeReasonE17ELNS1_13IsSafetyCheckE2EEE = linkonce_odr hidden unnamed_addr constant { [8 x i8*] } { [8 x i8*] [i8* null, i8* null, i8* bitcast (void (%"class.v8::internal::compiler::Operator"*)* @_ZN2v88internal8compiler8OperatorD2Ev to i8*), i8* bitcast (void (%"struct.v8::internal::compiler::CommonOperatorGlobalCache::DeoptimizeUnlessOperator"*)* @_ZN2v88internal8compiler25CommonOperatorGlobalCache24DeoptimizeUnlessOperatorILNS0_14DeoptimizeKindE0ELNS0_16DeoptimizeReasonE17ELNS1_13IsSafetyCheckE2EED0Ev to i8*), i8* bitcast (i1 (%"class.v8::internal::compiler::Operator1.45"*, %"class.v8::internal::compiler::Operator"*)* @_ZNK2v88internal8compiler9Operator1INS1_20DeoptimizeParametersENS1_9OpEqualToIS3_EENS1_6OpHashIS3_EEE6EqualsEPKNS1_8OperatorE to i8*), i8* bitcast (i64 (%"class.v8::internal::compiler::Operator1.45"*)* @_ZNK2v88internal8compiler9Operator1INS1_20DeoptimizeParametersENS1_9OpEqualToIS3_EENS1_6OpHashIS3_EEE8HashCodeEv to i8*), i8* bitcast (void (%"class.v8::internal::compiler::Operator1.45"*, %"class.std::__1::basic_ostream"*, i32)* @_ZNK2v88internal8compiler9Operator1INS1_20DeoptimizeParametersENS1_9OpEqualToIS3_EENS1_6OpHashIS3_EEE11PrintToImplERNSt3__113basic_ostreamIcNS9_11char_traitsIcEEEENS1_8Operator14PrintVerbosityE to i8*), i8* bitcast (void (%"class.v8::internal::compiler::Operator1.45"*, %"class.std::__1::basic_ostream"*, i32)* @_ZNK2v88internal8compiler9Operator1INS1_20DeoptimizeParametersENS1_9OpEqualToIS3_EENS1_6OpHashIS3_EEE14PrintParameterERNSt3__113basic_ostreamIcNS9_11char_traitsIcEEEENS1_8Operator14PrintVerbosityE to i8*)] }, comdat, align 8
@_ZTVN2v88internal8compiler25CommonOperatorGlobalCache24DeoptimizeUnlessOperatorILNS0_14DeoptimizeKindE0ELNS0_16DeoptimizeReasonE17ELNS1_13IsSafetyCheckE1EEE = linkonce_odr hidden unnamed_addr constant { [8 x i8*] } { [8 x i8*] [i8* null, i8* null, i8* bitcast (void (%"class.v8::internal::compiler::Operator"*)* @_ZN2v88internal8compiler8OperatorD2Ev to i8*), i8* bitcast (void (%"struct.v8::internal::compiler::CommonOperatorGlobalCache::DeoptimizeUnlessOperator.63"*)* @_ZN2v88internal8compiler25CommonOperatorGlobalCache24DeoptimizeUnlessOperatorILNS0_14DeoptimizeKindE0ELNS0_16DeoptimizeReasonE17ELNS1_13IsSafetyCheckE1EED0Ev to i8*), i8* bitcast (i1 (%"class.v8::internal::compiler::Operator1.45"*, %"class.v8::internal::compiler::Operator"*)* @_ZNK2v88internal8compiler9Operator1INS1_20DeoptimizeParametersENS1_9OpEqualToIS3_EENS1_6OpHashIS3_EEE6EqualsEPKNS1_8OperatorE to i8*), i8* bitcast (i64 (%"class.v8::internal::compiler::Operator1.45"*)* @_ZNK2v88internal8compiler9Operator1INS1_20DeoptimizeParametersENS1_9OpEqualToIS3_EENS1_6OpHashIS3_EEE8HashCodeEv to i8*), i8* bitcast (void (%"class.v8::internal::compiler::Operator1.45"*, %"class.std::__1::basic_ostream"*, i32)* @_ZNK2v88internal8compiler9Operator1INS1_20DeoptimizeParametersENS1_9OpEqualToIS3_EENS1_6OpHashIS3_EEE11PrintToImplERNSt3__113basic_ostreamIcNS9_11char_traitsIcEEEENS1_8Operator14PrintVerbosityE to i8*), i8* bitcast (void (%"class.v8::internal::compiler::Operator1.45"*, %"class.std::__1::basic_ostream"*, i32)* @_ZNK2v88internal8compiler9Operator1INS1_20DeoptimizeParametersENS1_9OpEqualToIS3_EENS1_6OpHashIS3_EEE14PrintParameterERNSt3__113basic_ostreamIcNS9_11char_traitsIcEEEENS1_8Operator14PrintVerbosityE to i8*)] }, comdat, align 8
@_ZTVN2v88internal8compiler25CommonOperatorGlobalCache24DeoptimizeUnlessOperatorILNS0_14DeoptimizeKindE0ELNS0_16DeoptimizeReasonE18ELNS1_13IsSafetyCheckE2EEE = linkonce_odr hidden unnamed_addr constant { [8 x i8*] } { [8 x i8*] [i8* null, i8* null, i8* bitcast (void (%"class.v8::internal::compiler::Operator"*)* @_ZN2v88internal8compiler8OperatorD2Ev to i8*), i8* bitcast (void (%"struct.v8::internal::compiler::CommonOperatorGlobalCache::DeoptimizeUnlessOperator.64"*)* @_ZN2v88internal8compiler25CommonOperatorGlobalCache24DeoptimizeUnlessOperatorILNS0_14DeoptimizeKindE0ELNS0_16DeoptimizeReasonE18ELNS1_13IsSafetyCheckE2EED0Ev to i8*), i8* bitcast (i1 (%"class.v8::internal::compiler::Operator1.45"*, %"class.v8::internal::compiler::Operator"*)* @_ZNK2v88internal8compiler9Operator1INS1_20DeoptimizeParametersENS1_9OpEqualToIS3_EENS1_6OpHashIS3_EEE6EqualsEPKNS1_8OperatorE to i8*), i8* bitcast (i64 (%"class.v8::internal::compiler::Operator1.45"*)* @_ZNK2v88internal8compiler9Operator1INS1_20DeoptimizeParametersENS1_9OpEqualToIS3_EENS1_6OpHashIS3_EEE8HashCodeEv to i8*), i8* bitcast (void (%"class.v8::internal::compiler::Operator1.45"*, %"class.std::__1::basic_ostream"*, i32)* @_ZNK2v88internal8compiler9Operator1INS1_20DeoptimizeParametersENS1_9OpEqualToIS3_EENS1_6OpHashIS3_EEE11PrintToImplERNSt3__113basic_ostreamIcNS9_11char_traitsIcEEEENS1_8Operator14PrintVerbosityE to i8*), i8* bitcast (void (%"class.v8::internal::compiler::Operator1.45"*, %"class.std::__1::basic_ostream"*, i32)* @_ZNK2v88internal8compiler9Operator1INS1_20DeoptimizeParametersENS1_9OpEqualToIS3_EENS1_6OpHashIS3_EEE14PrintParameterERNSt3__113basic_ostreamIcNS9_11char_traitsIcEEEENS1_8Operator14PrintVerbosityE to i8*)] }, comdat, align 8
@_ZTVN2v88internal8compiler25CommonOperatorGlobalCache24DeoptimizeUnlessOperatorILNS0_14DeoptimizeKindE0ELNS0_16DeoptimizeReasonE18ELNS1_13IsSafetyCheckE1EEE = linkonce_odr hidden unnamed_addr constant { [8 x i8*] } { [8 x i8*] [i8* null, i8* null, i8* bitcast (void (%"class.v8::internal::compiler::Operator"*)* @_ZN2v88internal8compiler8OperatorD2Ev to i8*), i8* bitcast (void (%"struct.v8::internal::compiler::CommonOperatorGlobalCache::DeoptimizeUnlessOperator.65"*)* @_ZN2v88internal8compiler25CommonOperatorGlobalCache24DeoptimizeUnlessOperatorILNS0_14DeoptimizeKindE0ELNS0_16DeoptimizeReasonE18ELNS1_13IsSafetyCheckE1EED0Ev to i8*), i8* bitcast (i1 (%"class.v8::internal::compiler::Operator1.45"*, %"class.v8::internal::compiler::Operator"*)* @_ZNK2v88internal8compiler9Operator1INS1_20DeoptimizeParametersENS1_9OpEqualToIS3_EENS1_6OpHashIS3_EEE6EqualsEPKNS1_8OperatorE to i8*), i8* bitcast (i64 (%"class.v8::internal::compiler::Operator1.45"*)* @_ZNK2v88internal8compiler9Operator1INS1_20DeoptimizeParametersENS1_9OpEqualToIS3_EENS1_6OpHashIS3_EEE8HashCodeEv to i8*), i8* bitcast (void (%"class.v8::internal::compiler::Operator1.45"*, %"class.std::__1::basic_ostream"*, i32)* @_ZNK2v88internal8compiler9Operator1INS1_20DeoptimizeParametersENS1_9OpEqualToIS3_EENS1_6OpHashIS3_EEE11PrintToImplERNSt3__113basic_ostreamIcNS9_11char_traitsIcEEEENS1_8Operator14PrintVerbosityE to i8*), i8* bitcast (void (%"class.v8::internal::compiler::Operator1.45"*, %"class.std::__1::basic_ostream"*, i32)* @_ZNK2v88internal8compiler9Operator1INS1_20DeoptimizeParametersENS1_9OpEqualToIS3_EENS1_6OpHashIS3_EEE14PrintParameterERNSt3__113basic_ostreamIcNS9_11char_traitsIcEEEENS1_8Operator14PrintVerbosityE to i8*)] }, comdat, align 8
@_ZTVN2v88internal8compiler25CommonOperatorGlobalCache24DeoptimizeUnlessOperatorILNS0_14DeoptimizeKindE0ELNS0_16DeoptimizeReasonE23ELNS1_13IsSafetyCheckE1EEE = linkonce_odr hidden unnamed_addr constant { [8 x i8*] } { [8 x i8*] [i8* null, i8* null, i8* bitcast (void (%"class.v8::internal::compiler::Operator"*)* @_ZN2v88internal8compiler8OperatorD2Ev to i8*), i8* bitcast (void (%"struct.v8::internal::compiler::CommonOperatorGlobalCache::DeoptimizeUnlessOperator.66"*)* @_ZN2v88internal8compiler25CommonOperatorGlobalCache24DeoptimizeUnlessOperatorILNS0_14DeoptimizeKindE0ELNS0_16DeoptimizeReasonE23ELNS1_13IsSafetyCheckE1EED0Ev to i8*), i8* bitcast (i1 (%"class.v8::internal::compiler::Operator1.45"*, %"class.v8::internal::compiler::Operator"*)* @_ZNK2v88internal8compiler9Operator1INS1_20DeoptimizeParametersENS1_9OpEqualToIS3_EENS1_6OpHashIS3_EEE6EqualsEPKNS1_8OperatorE to i8*), i8* bitcast (i64 (%"class.v8::internal::compiler::Operator1.45"*)* @_ZNK2v88internal8compiler9Operator1INS1_20DeoptimizeParametersENS1_9OpEqualToIS3_EENS1_6OpHashIS3_EEE8HashCodeEv to i8*), i8* bitcast (void (%"class.v8::internal::compiler::Operator1.45"*, %"class.std::__1::basic_ostream"*, i32)* @_ZNK2v88internal8compiler9Operator1INS1_20DeoptimizeParametersENS1_9OpEqualToIS3_EENS1_6OpHashIS3_EEE11PrintToImplERNSt3__113basic_ostreamIcNS9_11char_traitsIcEEEENS1_8Operator14PrintVerbosityE to i8*), i8* bitcast (void (%"class.v8::internal::compiler::Operator1.45"*, %"class.std::__1::basic_ostream"*, i32)* @_ZNK2v88internal8compiler9Operator1INS1_20DeoptimizeParametersENS1_9OpEqualToIS3_EENS1_6OpHashIS3_EEE14PrintParameterERNSt3__113basic_ostreamIcNS9_11char_traitsIcEEEENS1_8Operator14PrintVerbosityE to i8*)] }, comdat, align 8
@_ZTVN2v88internal8compiler25CommonOperatorGlobalCache24DeoptimizeUnlessOperatorILNS0_14DeoptimizeKindE0ELNS0_16DeoptimizeReasonE28ELNS1_13IsSafetyCheckE1EEE = linkonce_odr hidden unnamed_addr constant { [8 x i8*] } { [8 x i8*] [i8* null, i8* null, i8* bitcast (void (%"class.v8::internal::compiler::Operator"*)* @_ZN2v88internal8compiler8OperatorD2Ev to i8*), i8* bitcast (void (%"struct.v8::internal::compiler::CommonOperatorGlobalCache::DeoptimizeUnlessOperator.67"*)* @_ZN2v88internal8compiler25CommonOperatorGlobalCache24DeoptimizeUnlessOperatorILNS0_14DeoptimizeKindE0ELNS0_16DeoptimizeReasonE28ELNS1_13IsSafetyCheckE1EED0Ev to i8*), i8* bitcast (i1 (%"class.v8::internal::compiler::Operator1.45"*, %"class.v8::internal::compiler::Operator"*)* @_ZNK2v88internal8compiler9Operator1INS1_20DeoptimizeParametersENS1_9OpEqualToIS3_EENS1_6OpHashIS3_EEE6EqualsEPKNS1_8OperatorE to i8*), i8* bitcast (i64 (%"class.v8::internal::compiler::Operator1.45"*)* @_ZNK2v88internal8compiler9Operator1INS1_20DeoptimizeParametersENS1_9OpEqualToIS3_EENS1_6OpHashIS3_EEE8HashCodeEv to i8*), i8* bitcast (void (%"class.v8::internal::compiler::Operator1.45"*, %"class.std::__1::basic_ostream"*, i32)* @_ZNK2v88internal8compiler9Operator1INS1_20DeoptimizeParametersENS1_9OpEqualToIS3_EENS1_6OpHashIS3_EEE11PrintToImplERNSt3__113basic_ostreamIcNS9_11char_traitsIcEEEENS1_8Operator14PrintVerbosityE to i8*), i8* bitcast (void (%"class.v8::internal::compiler::Operator1.45"*, %"class.std::__1::basic_ostream"*, i32)* @_ZNK2v88internal8compiler9Operator1INS1_20DeoptimizeParametersENS1_9OpEqualToIS3_EENS1_6OpHashIS3_EEE14PrintParameterERNSt3__113basic_ostreamIcNS9_11char_traitsIcEEEENS1_8Operator14PrintVerbosityE to i8*)] }, comdat, align 8
@_ZTVN2v88internal8compiler25CommonOperatorGlobalCache24DeoptimizeUnlessOperatorILNS0_14DeoptimizeKindE0ELNS0_16DeoptimizeReasonE30ELNS1_13IsSafetyCheckE1EEE = linkonce_odr hidden unnamed_addr constant { [8 x i8*] } { [8 x i8*] [i8* null, i8* null, i8* bitcast (void (%"class.v8::internal::compiler::Operator"*)* @_ZN2v88internal8compiler8OperatorD2Ev to i8*), i8* bitcast (void (%"struct.v8::internal::compiler::CommonOperatorGlobalCache::DeoptimizeUnlessOperator.68"*)* @_ZN2v88internal8compiler25CommonOperatorGlobalCache24DeoptimizeUnlessOperatorILNS0_14DeoptimizeKindE0ELNS0_16DeoptimizeReasonE30ELNS1_13IsSafetyCheckE1EED0Ev to i8*), i8* bitcast (i1 (%"class.v8::internal::compiler::Operator1.45"*, %"class.v8::internal::compiler::Operator"*)* @_ZNK2v88internal8compiler9Operator1INS1_20DeoptimizeParametersENS1_9OpEqualToIS3_EENS1_6OpHashIS3_EEE6EqualsEPKNS1_8OperatorE to i8*), i8* bitcast (i64 (%"class.v8::internal::compiler::Operator1.45"*)* @_ZNK2v88internal8compiler9Operator1INS1_20DeoptimizeParametersENS1_9OpEqualToIS3_EENS1_6OpHashIS3_EEE8HashCodeEv to i8*), i8* bitcast (void (%"class.v8::internal::compiler::Operator1.45"*, %"class.std::__1::basic_ostream"*, i32)* @_ZNK2v88internal8compiler9Operator1INS1_20DeoptimizeParametersENS1_9OpEqualToIS3_EENS1_6OpHashIS3_EEE11PrintToImplERNSt3__113basic_ostreamIcNS9_11char_traitsIcEEEENS1_8Operator14PrintVerbosityE to i8*), i8* bitcast (void (%"class.v8::internal::compiler::Operator1.45"*, %"class.std::__1::basic_ostream"*, i32)* @_ZNK2v88internal8compiler9Operator1INS1_20DeoptimizeParametersENS1_9OpEqualToIS3_EENS1_6OpHashIS3_EEE14PrintParameterERNSt3__113basic_ostreamIcNS9_11char_traitsIcEEEENS1_8Operator14PrintVerbosityE to i8*)] }, comdat, align 8
@_ZTVN2v88internal8compiler25CommonOperatorGlobalCache24DeoptimizeUnlessOperatorILNS0_14DeoptimizeKindE0ELNS0_16DeoptimizeReasonE34ELNS1_13IsSafetyCheckE1EEE = linkonce_odr hidden unnamed_addr constant { [8 x i8*] } { [8 x i8*] [i8* null, i8* null, i8* bitcast (void (%"class.v8::internal::compiler::Operator"*)* @_ZN2v88internal8compiler8OperatorD2Ev to i8*), i8* bitcast (void (%"struct.v8::internal::compiler::CommonOperatorGlobalCache::DeoptimizeUnlessOperator.69"*)* @_ZN2v88internal8compiler25CommonOperatorGlobalCache24DeoptimizeUnlessOperatorILNS0_14DeoptimizeKindE0ELNS0_16DeoptimizeReasonE34ELNS1_13IsSafetyCheckE1EED0Ev to i8*), i8* bitcast (i1 (%"class.v8::internal::compiler::Operator1.45"*, %"class.v8::internal::compiler::Operator"*)* @_ZNK2v88internal8compiler9Operator1INS1_20DeoptimizeParametersENS1_9OpEqualToIS3_EENS1_6OpHashIS3_EEE6EqualsEPKNS1_8OperatorE to i8*), i8* bitcast (i64 (%"class.v8::internal::compiler::Operator1.45"*)* @_ZNK2v88internal8compiler9Operator1INS1_20DeoptimizeParametersENS1_9OpEqualToIS3_EENS1_6OpHashIS3_EEE8HashCodeEv to i8*), i8* bitcast (void (%"class.v8::internal::compiler::Operator1.45"*, %"class.std::__1::basic_ostream"*, i32)* @_ZNK2v88internal8compiler9Operator1INS1_20DeoptimizeParametersENS1_9OpEqualToIS3_EENS1_6OpHashIS3_EEE11PrintToImplERNSt3__113basic_ostreamIcNS9_11char_traitsIcEEEENS1_8Operator14PrintVerbosityE to i8*), i8* bitcast (void (%"class.v8::internal::compiler::Operator1.45"*, %"class.std::__1::basic_ostream"*, i32)* @_ZNK2v88internal8compiler9Operator1INS1_20DeoptimizeParametersENS1_9OpEqualToIS3_EENS1_6OpHashIS3_EEE14PrintParameterERNSt3__113basic_ostreamIcNS9_11char_traitsIcEEEENS1_8Operator14PrintVerbosityE to i8*)] }, comdat, align 8
@_ZTVN2v88internal8compiler25CommonOperatorGlobalCache24DeoptimizeUnlessOperatorILNS0_14DeoptimizeKindE0ELNS0_16DeoptimizeReasonE44ELNS1_13IsSafetyCheckE1EEE = linkonce_odr hidden unnamed_addr constant { [8 x i8*] } { [8 x i8*] [i8* null, i8* null, i8* bitcast (void (%"class.v8::internal::compiler::Operator"*)* @_ZN2v88internal8compiler8OperatorD2Ev to i8*), i8* bitcast (void (%"struct.v8::internal::compiler::CommonOperatorGlobalCache::DeoptimizeUnlessOperator.70"*)* @_ZN2v88internal8compiler25CommonOperatorGlobalCache24DeoptimizeUnlessOperatorILNS0_14DeoptimizeKindE0ELNS0_16DeoptimizeReasonE44ELNS1_13IsSafetyCheckE1EED0Ev to i8*), i8* bitcast (i1 (%"class.v8::internal::compiler::Operator1.45"*, %"class.v8::internal::compiler::Operator"*)* @_ZNK2v88internal8compiler9Operator1INS1_20DeoptimizeParametersENS1_9OpEqualToIS3_EENS1_6OpHashIS3_EEE6EqualsEPKNS1_8OperatorE to i8*), i8* bitcast (i64 (%"class.v8::internal::compiler::Operator1.45"*)* @_ZNK2v88internal8compiler9Operator1INS1_20DeoptimizeParametersENS1_9OpEqualToIS3_EENS1_6OpHashIS3_EEE8HashCodeEv to i8*), i8* bitcast (void (%"class.v8::internal::compiler::Operator1.45"*, %"class.std::__1::basic_ostream"*, i32)* @_ZNK2v88internal8compiler9Operator1INS1_20DeoptimizeParametersENS1_9OpEqualToIS3_EENS1_6OpHashIS3_EEE11PrintToImplERNSt3__113basic_ostreamIcNS9_11char_traitsIcEEEENS1_8Operator14PrintVerbosityE to i8*), i8* bitcast (void (%"class.v8::internal::compiler::Operator1.45"*, %"class.std::__1::basic_ostream"*, i32)* @_ZNK2v88internal8compiler9Operator1INS1_20DeoptimizeParametersENS1_9OpEqualToIS3_EENS1_6OpHashIS3_EEE14PrintParameterERNSt3__113basic_ostreamIcNS9_11char_traitsIcEEEENS1_8Operator14PrintVerbosityE to i8*)] }, comdat, align 8
@_ZTVN2v88internal8compiler25CommonOperatorGlobalCache24DeoptimizeUnlessOperatorILNS0_14DeoptimizeKindE0ELNS0_16DeoptimizeReasonE45ELNS1_13IsSafetyCheckE1EEE = linkonce_odr hidden unnamed_addr constant { [8 x i8*] } { [8 x i8*] [i8* null, i8* null, i8* bitcast (void (%"class.v8::internal::compiler::Operator"*)* @_ZN2v88internal8compiler8OperatorD2Ev to i8*), i8* bitcast (void (%"struct.v8::internal::compiler::CommonOperatorGlobalCache::DeoptimizeUnlessOperator.71"*)* @_ZN2v88internal8compiler25CommonOperatorGlobalCache24DeoptimizeUnlessOperatorILNS0_14DeoptimizeKindE0ELNS0_16DeoptimizeReasonE45ELNS1_13IsSafetyCheckE1EED0Ev to i8*), i8* bitcast (i1 (%"class.v8::internal::compiler::Operator1.45"*, %"class.v8::internal::compiler::Operator"*)* @_ZNK2v88internal8compiler9Operator1INS1_20DeoptimizeParametersENS1_9OpEqualToIS3_EENS1_6OpHashIS3_EEE6EqualsEPKNS1_8OperatorE to i8*), i8* bitcast (i64 (%"class.v8::internal::compiler::Operator1.45"*)* @_ZNK2v88internal8compiler9Operator1INS1_20DeoptimizeParametersENS1_9OpEqualToIS3_EENS1_6OpHashIS3_EEE8HashCodeEv to i8*), i8* bitcast (void (%"class.v8::internal::compiler::Operator1.45"*, %"class.std::__1::basic_ostream"*, i32)* @_ZNK2v88internal8compiler9Operator1INS1_20DeoptimizeParametersENS1_9OpEqualToIS3_EENS1_6OpHashIS3_EEE11PrintToImplERNSt3__113basic_ostreamIcNS9_11char_traitsIcEEEENS1_8Operator14PrintVerbosityE to i8*), i8* bitcast (void (%"class.v8::internal::compiler::Operator1.45"*, %"class.std::__1::basic_ostream"*, i32)* @_ZNK2v88internal8compiler9Operator1INS1_20DeoptimizeParametersENS1_9OpEqualToIS3_EENS1_6OpHashIS3_EEE14PrintParameterERNSt3__113basic_ostreamIcNS9_11char_traitsIcEEEENS1_8Operator14PrintVerbosityE to i8*)] }, comdat, align 8
@.str.104 = private unnamed_addr constant [32 x i8] c"DynamicCheckMapsWithDeoptUnless\00", align 1
@_ZTVN2v88internal8compiler25CommonOperatorGlobalCache23DynamicMapCheckOperatorE = linkonce_odr hidden unnamed_addr constant { [8 x i8*] } { [8 x i8*] [i8* null, i8* null, i8* bitcast (void (%"class.v8::internal::compiler::Operator"*)* @_ZN2v88internal8compiler8OperatorD2Ev to i8*), i8* bitcast (void (%"struct.v8::internal::compiler::CommonOperatorGlobalCache::DynamicMapCheckOperator"*)* @_ZN2v88internal8compiler25CommonOperatorGlobalCache23DynamicMapCheckOperatorD0Ev to i8*), i8* bitcast (i1 (%"class.v8::internal::compiler::Operator1.45"*, %"class.v8::internal::compiler::Operator"*)* @_ZNK2v88internal8compiler9Operator1INS1_20DeoptimizeParametersENS1_9OpEqualToIS3_EENS1_6OpHashIS3_EEE6EqualsEPKNS1_8OperatorE to i8*), i8* bitcast (i64 (%"class.v8::internal::compiler::Operator1.45"*)* @_ZNK2v88internal8compiler9Operator1INS1_20DeoptimizeParametersENS1_9OpEqualToIS3_EENS1_6OpHashIS3_EEE8HashCodeEv to i8*), i8* bitcast (void (%"class.v8::internal::compiler::Operator1.45"*, %"class.std::__1::basic_ostream"*, i32)* @_ZNK2v88internal8compiler9Operator1INS1_20DeoptimizeParametersENS1_9OpEqualToIS3_EENS1_6OpHashIS3_EEE11PrintToImplERNSt3__113basic_ostreamIcNS9_11char_traitsIcEEEENS1_8Operator14PrintVerbosityE to i8*), i8* bitcast (void (%"class.v8::internal::compiler::Operator1.45"*, %"class.std::__1::basic_ostream"*, i32)* @_ZNK2v88internal8compiler9Operator1INS1_20DeoptimizeParametersENS1_9OpEqualToIS3_EENS1_6OpHashIS3_EEE14PrintParameterERNSt3__113basic_ostreamIcNS9_11char_traitsIcEEEENS1_8Operator14PrintVerbosityE to i8*)] }, comdat, align 8
@_ZTVN2v88internal8compiler25CommonOperatorGlobalCache14TrapIfOperatorILNS1_6TrapIdE4EEE = linkonce_odr hidden unnamed_addr constant { [8 x i8*] } { [8 x i8*] [i8* null, i8* null, i8* bitcast (void (%"class.v8::internal::compiler::Operator"*)* @_ZN2v88internal8compiler8OperatorD2Ev to i8*), i8* bitcast (void (%"struct.v8::internal::compiler::CommonOperatorGlobalCache::TrapIfOperator"*)* @_ZN2v88internal8compiler25CommonOperatorGlobalCache14TrapIfOperatorILNS1_6TrapIdE4EED0Ev to i8*), i8* bitcast (i1 (%"class.v8::internal::compiler::Operator1.72"*, %"class.v8::internal::compiler::Operator"*)* @_ZNK2v88internal8compiler9Operator1INS1_6TrapIdENS1_9OpEqualToIS3_EENS1_6OpHashIS3_EEE6EqualsEPKNS1_8OperatorE to i8*), i8* bitcast (i64 (%"class.v8::internal::compiler::Operator1.72"*)* @_ZNK2v88internal8compiler9Operator1INS1_6TrapIdENS1_9OpEqualToIS3_EENS1_6OpHashIS3_EEE8HashCodeEv to i8*), i8* bitcast (void (%"class.v8::internal::compiler::Operator1.72"*, %"class.std::__1::basic_ostream"*, i32)* @_ZNK2v88internal8compiler9Operator1INS1_6TrapIdENS1_9OpEqualToIS3_EENS1_6OpHashIS3_EEE11PrintToImplERNSt3__113basic_ostreamIcNS9_11char_traitsIcEEEENS1_8Operator14PrintVerbosityE to i8*), i8* bitcast (void (%"class.v8::internal::compiler::Operator1.72"*, %"class.std::__1::basic_ostream"*, i32)* @_ZNK2v88internal8compiler9Operator1INS1_6TrapIdENS1_9OpEqualToIS3_EENS1_6OpHashIS3_EEE14PrintParameterERNSt3__113basic_ostreamIcNS9_11char_traitsIcEEEENS1_8Operator14PrintVerbosityE to i8*)] }, comdat, align 8
@_ZTVN2v88internal8compiler9Operator1INS1_6TrapIdENS1_9OpEqualToIS3_EENS1_6OpHashIS3_EEEE = linkonce_odr hidden unnamed_addr constant { [8 x i8*] } { [8 x i8*] [i8* null, i8* null, i8* bitcast (void (%"class.v8::internal::compiler::Operator"*)* @_ZN2v88internal8compiler8OperatorD2Ev to i8*), i8* bitcast (void (%"class.v8::internal::compiler::Operator1.72"*)* @_ZN2v88internal8compiler9Operator1INS1_6TrapIdENS1_9OpEqualToIS3_EENS1_6OpHashIS3_EEED0Ev to i8*), i8* bitcast (i1 (%"class.v8::internal::compiler::Operator1.72"*, %"class.v8::internal::compiler::Operator"*)* @_ZNK2v88internal8compiler9Operator1INS1_6TrapIdENS1_9OpEqualToIS3_EENS1_6OpHashIS3_EEE6EqualsEPKNS1_8OperatorE to i8*), i8* bitcast (i64 (%"class.v8::internal::compiler::Operator1.72"*)* @_ZNK2v88internal8compiler9Operator1INS1_6TrapIdENS1_9OpEqualToIS3_EENS1_6OpHashIS3_EEE8HashCodeEv to i8*), i8* bitcast (void (%"class.v8::internal::compiler::Operator1.72"*, %"class.std::__1::basic_ostream"*, i32)* @_ZNK2v88internal8compiler9Operator1INS1_6TrapIdENS1_9OpEqualToIS3_EENS1_6OpHashIS3_EEE11PrintToImplERNSt3__113basic_ostreamIcNS9_11char_traitsIcEEEENS1_8Operator14PrintVerbosityE to i8*), i8* bitcast (void (%"class.v8::internal::compiler::Operator1.72"*, %"class.std::__1::basic_ostream"*, i32)* @_ZNK2v88internal8compiler9Operator1INS1_6TrapIdENS1_9OpEqualToIS3_EENS1_6OpHashIS3_EEE14PrintParameterERNSt3__113basic_ostreamIcNS9_11char_traitsIcEEEENS1_8Operator14PrintVerbosityE to i8*)] }, comdat, align 8
@_ZTVN2v88internal8compiler25CommonOperatorGlobalCache14TrapIfOperatorILNS1_6TrapIdE6EEE = linkonce_odr hidden unnamed_addr constant { [8 x i8*] } { [8 x i8*] [i8* null, i8* null, i8* bitcast (void (%"class.v8::internal::compiler::Operator"*)* @_ZN2v88internal8compiler8OperatorD2Ev to i8*), i8* bitcast (void (%"struct.v8::internal::compiler::CommonOperatorGlobalCache::TrapIfOperator.79"*)* @_ZN2v88internal8compiler25CommonOperatorGlobalCache14TrapIfOperatorILNS1_6TrapIdE6EED0Ev to i8*), i8* bitcast (i1 (%"class.v8::internal::compiler::Operator1.72"*, %"class.v8::internal::compiler::Operator"*)* @_ZNK2v88internal8compiler9Operator1INS1_6TrapIdENS1_9OpEqualToIS3_EENS1_6OpHashIS3_EEE6EqualsEPKNS1_8OperatorE to i8*), i8* bitcast (i64 (%"class.v8::internal::compiler::Operator1.72"*)* @_ZNK2v88internal8compiler9Operator1INS1_6TrapIdENS1_9OpEqualToIS3_EENS1_6OpHashIS3_EEE8HashCodeEv to i8*), i8* bitcast (void (%"class.v8::internal::compiler::Operator1.72"*, %"class.std::__1::basic_ostream"*, i32)* @_ZNK2v88internal8compiler9Operator1INS1_6TrapIdENS1_9OpEqualToIS3_EENS1_6OpHashIS3_EEE11PrintToImplERNSt3__113basic_ostreamIcNS9_11char_traitsIcEEEENS1_8Operator14PrintVerbosityE to i8*), i8* bitcast (void (%"class.v8::internal::compiler::Operator1.72"*, %"class.std::__1::basic_ostream"*, i32)* @_ZNK2v88internal8compiler9Operator1INS1_6TrapIdENS1_9OpEqualToIS3_EENS1_6OpHashIS3_EEE14PrintParameterERNSt3__113basic_ostreamIcNS9_11char_traitsIcEEEENS1_8Operator14PrintVerbosityE to i8*)] }, comdat, align 8
@_ZTVN2v88internal8compiler25CommonOperatorGlobalCache18TrapUnlessOperatorILNS1_6TrapIdE0EEE = linkonce_odr hidden unnamed_addr constant { [8 x i8*] } { [8 x i8*] [i8* null, i8* null, i8* bitcast (void (%"class.v8::internal::compiler::Operator"*)* @_ZN2v88internal8compiler8OperatorD2Ev to i8*), i8* bitcast (void (%"struct.v8::internal::compiler::CommonOperatorGlobalCache::TrapUnlessOperator"*)* @_ZN2v88internal8compiler25CommonOperatorGlobalCache18TrapUnlessOperatorILNS1_6TrapIdE0EED0Ev to i8*), i8* bitcast (i1 (%"class.v8::internal::compiler::Operator1.72"*, %"class.v8::internal::compiler::Operator"*)* @_ZNK2v88internal8compiler9Operator1INS1_6TrapIdENS1_9OpEqualToIS3_EENS1_6OpHashIS3_EEE6EqualsEPKNS1_8OperatorE to i8*), i8* bitcast (i64 (%"class.v8::internal::compiler::Operator1.72"*)* @_ZNK2v88internal8compiler9Operator1INS1_6TrapIdENS1_9OpEqualToIS3_EENS1_6OpHashIS3_EEE8HashCodeEv to i8*), i8* bitcast (void (%"class.v8::internal::compiler::Operator1.72"*, %"class.std::__1::basic_ostream"*, i32)* @_ZNK2v88internal8compiler9Operator1INS1_6TrapIdENS1_9OpEqualToIS3_EENS1_6OpHashIS3_EEE11PrintToImplERNSt3__113basic_ostreamIcNS9_11char_traitsIcEEEENS1_8Operator14PrintVerbosityE to i8*), i8* bitcast (void (%"class.v8::internal::compiler::Operator1.72"*, %"class.std::__1::basic_ostream"*, i32)* @_ZNK2v88internal8compiler9Operator1INS1_6TrapIdENS1_9OpEqualToIS3_EENS1_6OpHashIS3_EEE14PrintParameterERNSt3__113basic_ostreamIcNS9_11char_traitsIcEEEENS1_8Operator14PrintVerbosityE to i8*)] }, comdat, align 8
@_ZTVN2v88internal8compiler25CommonOperatorGlobalCache18TrapUnlessOperatorILNS1_6TrapIdE1EEE = linkonce_odr hidden unnamed_addr constant { [8 x i8*] } { [8 x i8*] [i8* null, i8* null, i8* bitcast (void (%"class.v8::internal::compiler::Operator"*)* @_ZN2v88internal8compiler8OperatorD2Ev to i8*), i8* bitcast (void (%"struct.v8::internal::compiler::CommonOperatorGlobalCache::TrapUnlessOperator.80"*)* @_ZN2v88internal8compiler25CommonOperatorGlobalCache18TrapUnlessOperatorILNS1_6TrapIdE1EED0Ev to i8*), i8* bitcast (i1 (%"class.v8::internal::compiler::Operator1.72"*, %"class.v8::internal::compiler::Operator"*)* @_ZNK2v88internal8compiler9Operator1INS1_6TrapIdENS1_9OpEqualToIS3_EENS1_6OpHashIS3_EEE6EqualsEPKNS1_8OperatorE to i8*), i8* bitcast (i64 (%"class.v8::internal::compiler::Operator1.72"*)* @_ZNK2v88internal8compiler9Operator1INS1_6TrapIdENS1_9OpEqualToIS3_EENS1_6OpHashIS3_EEE8HashCodeEv to i8*), i8* bitcast (void (%"class.v8::internal::compiler::Operator1.72"*, %"class.std::__1::basic_ostream"*, i32)* @_ZNK2v88internal8compiler9Operator1INS1_6TrapIdENS1_9OpEqualToIS3_EENS1_6OpHashIS3_EEE11PrintToImplERNSt3__113basic_ostreamIcNS9_11char_traitsIcEEEENS1_8Operator14PrintVerbosityE to i8*), i8* bitcast (void (%"class.v8::internal::compiler::Operator1.72"*, %"class.std::__1::basic_ostream"*, i32)* @_ZNK2v88internal8compiler9Operator1INS1_6TrapIdENS1_9OpEqualToIS3_EENS1_6OpHashIS3_EEE14PrintParameterERNSt3__113basic_ostreamIcNS9_11char_traitsIcEEEENS1_8Operator14PrintVerbosityE to i8*)] }, comdat, align 8
@_ZTVN2v88internal8compiler25CommonOperatorGlobalCache18TrapUnlessOperatorILNS1_6TrapIdE3EEE = linkonce_odr hidden unnamed_addr constant { [8 x i8*] } { [8 x i8*] [i8* null, i8* null, i8* bitcast (void (%"class.v8::internal::compiler::Operator"*)* @_ZN2v88internal8compiler8OperatorD2Ev to i8*), i8* bitcast (void (%"struct.v8::internal::compiler::CommonOperatorGlobalCache::TrapUnlessOperator.81"*)* @_ZN2v88internal8compiler25CommonOperatorGlobalCache18TrapUnlessOperatorILNS1_6TrapIdE3EED0Ev to i8*), i8* bitcast (i1 (%"class.v8::internal::compiler::Operator1.72"*, %"class.v8::internal::compiler::Operator"*)* @_ZNK2v88internal8compiler9Operator1INS1_6TrapIdENS1_9OpEqualToIS3_EENS1_6OpHashIS3_EEE6EqualsEPKNS1_8OperatorE to i8*), i8* bitcast (i64 (%"class.v8::internal::compiler::Operator1.72"*)* @_ZNK2v88internal8compiler9Operator1INS1_6TrapIdENS1_9OpEqualToIS3_EENS1_6OpHashIS3_EEE8HashCodeEv to i8*), i8* bitcast (void (%"class.v8::internal::compiler::Operator1.72"*, %"class.std::__1::basic_ostream"*, i32)* @_ZNK2v88internal8compiler9Operator1INS1_6TrapIdENS1_9OpEqualToIS3_EENS1_6OpHashIS3_EEE11PrintToImplERNSt3__113basic_ostreamIcNS9_11char_traitsIcEEEENS1_8Operator14PrintVerbosityE to i8*), i8* bitcast (void (%"class.v8::internal::compiler::Operator1.72"*, %"class.std::__1::basic_ostream"*, i32)* @_ZNK2v88internal8compiler9Operator1INS1_6TrapIdENS1_9OpEqualToIS3_EENS1_6OpHashIS3_EEE14PrintParameterERNSt3__113basic_ostreamIcNS9_11char_traitsIcEEEENS1_8Operator14PrintVerbosityE to i8*)] }, comdat, align 8
@_ZTVN2v88internal8compiler25CommonOperatorGlobalCache18TrapUnlessOperatorILNS1_6TrapIdE4EEE = linkonce_odr hidden unnamed_addr constant { [8 x i8*] } { [8 x i8*] [i8* null, i8* null, i8* bitcast (void (%"class.v8::internal::compiler::Operator"*)* @_ZN2v88internal8compiler8OperatorD2Ev to i8*), i8* bitcast (void (%"struct.v8::internal::compiler::CommonOperatorGlobalCache::TrapUnlessOperator.82"*)* @_ZN2v88internal8compiler25CommonOperatorGlobalCache18TrapUnlessOperatorILNS1_6TrapIdE4EED0Ev to i8*), i8* bitcast (i1 (%"class.v8::internal::compiler::Operator1.72"*, %"class.v8::internal::compiler::Operator"*)* @_ZNK2v88internal8compiler9Operator1INS1_6TrapIdENS1_9OpEqualToIS3_EENS1_6OpHashIS3_EEE6EqualsEPKNS1_8OperatorE to i8*), i8* bitcast (i64 (%"class.v8::internal::compiler::Operator1.72"*)* @_ZNK2v88internal8compiler9Operator1INS1_6TrapIdENS1_9OpEqualToIS3_EENS1_6OpHashIS3_EEE8HashCodeEv to i8*), i8* bitcast (void (%"class.v8::internal::compiler::Operator1.72"*, %"class.std::__1::basic_ostream"*, i32)* @_ZNK2v88internal8compiler9Operator1INS1_6TrapIdENS1_9OpEqualToIS3_EENS1_6OpHashIS3_EEE11PrintToImplERNSt3__113basic_ostreamIcNS9_11char_traitsIcEEEENS1_8Operator14PrintVerbosityE to i8*), i8* bitcast (void (%"class.v8::internal::compiler::Operator1.72"*, %"class.std::__1::basic_ostream"*, i32)* @_ZNK2v88internal8compiler9Operator1INS1_6TrapIdENS1_9OpEqualToIS3_EENS1_6OpHashIS3_EEE14PrintParameterERNSt3__113basic_ostreamIcNS9_11char_traitsIcEEEENS1_8Operator14PrintVerbosityE to i8*)] }, comdat, align 8
@_ZTVN2v88internal8compiler25CommonOperatorGlobalCache18TrapUnlessOperatorILNS1_6TrapIdE5EEE = linkonce_odr hidden unnamed_addr constant { [8 x i8*] } { [8 x i8*] [i8* null, i8* null, i8* bitcast (void (%"class.v8::internal::compiler::Operator"*)* @_ZN2v88internal8compiler8OperatorD2Ev to i8*), i8* bitcast (void (%"struct.v8::internal::compiler::CommonOperatorGlobalCache::TrapUnlessOperator.83"*)* @_ZN2v88internal8compiler25CommonOperatorGlobalCache18TrapUnlessOperatorILNS1_6TrapIdE5EED0Ev to i8*), i8* bitcast (i1 (%"class.v8::internal::compiler::Operator1.72"*, %"class.v8::internal::compiler::Operator"*)* @_ZNK2v88internal8compiler9Operator1INS1_6TrapIdENS1_9OpEqualToIS3_EENS1_6OpHashIS3_EEE6EqualsEPKNS1_8OperatorE to i8*), i8* bitcast (i64 (%"class.v8::internal::compiler::Operator1.72"*)* @_ZNK2v88internal8compiler9Operator1INS1_6TrapIdENS1_9OpEqualToIS3_EENS1_6OpHashIS3_EEE8HashCodeEv to i8*), i8* bitcast (void (%"class.v8::internal::compiler::Operator1.72"*, %"class.std::__1::basic_ostream"*, i32)* @_ZNK2v88internal8compiler9Operator1INS1_6TrapIdENS1_9OpEqualToIS3_EENS1_6OpHashIS3_EEE11PrintToImplERNSt3__113basic_ostreamIcNS9_11char_traitsIcEEEENS1_8Operator14PrintVerbosityE to i8*), i8* bitcast (void (%"class.v8::internal::compiler::Operator1.72"*, %"class.std::__1::basic_ostream"*, i32)* @_ZNK2v88internal8compiler9Operator1INS1_6TrapIdENS1_9OpEqualToIS3_EENS1_6OpHashIS3_EEE14PrintParameterERNSt3__113basic_ostreamIcNS9_11char_traitsIcEEEENS1_8Operator14PrintVerbosityE to i8*)] }, comdat, align 8
@_ZTVN2v88internal8compiler25CommonOperatorGlobalCache18TrapUnlessOperatorILNS1_6TrapIdE6EEE = linkonce_odr hidden unnamed_addr constant { [8 x i8*] } { [8 x i8*] [i8* null, i8* null, i8* bitcast (void (%"class.v8::internal::compiler::Operator"*)* @_ZN2v88internal8compiler8OperatorD2Ev to i8*), i8* bitcast (void (%"struct.v8::internal::compiler::CommonOperatorGlobalCache::TrapUnlessOperator.84"*)* @_ZN2v88internal8compiler25CommonOperatorGlobalCache18TrapUnlessOperatorILNS1_6TrapIdE6EED0Ev to i8*), i8* bitcast (i1 (%"class.v8::internal::compiler::Operator1.72"*, %"class.v8::internal::compiler::Operator"*)* @_ZNK2v88internal8compiler9Operator1INS1_6TrapIdENS1_9OpEqualToIS3_EENS1_6OpHashIS3_EEE6EqualsEPKNS1_8OperatorE to i8*), i8* bitcast (i64 (%"class.v8::internal::compiler::Operator1.72"*)* @_ZNK2v88internal8compiler9Operator1INS1_6TrapIdENS1_9OpEqualToIS3_EENS1_6OpHashIS3_EEE8HashCodeEv to i8*), i8* bitcast (void (%"class.v8::internal::compiler::Operator1.72"*, %"class.std::__1::basic_ostream"*, i32)* @_ZNK2v88internal8compiler9Operator1INS1_6TrapIdENS1_9OpEqualToIS3_EENS1_6OpHashIS3_EEE11PrintToImplERNSt3__113basic_ostreamIcNS9_11char_traitsIcEEEENS1_8Operator14PrintVerbosityE to i8*), i8* bitcast (void (%"class.v8::internal::compiler::Operator1.72"*, %"class.std::__1::basic_ostream"*, i32)* @_ZNK2v88internal8compiler9Operator1INS1_6TrapIdENS1_9OpEqualToIS3_EENS1_6OpHashIS3_EEE14PrintParameterERNSt3__113basic_ostreamIcNS9_11char_traitsIcEEEENS1_8Operator14PrintVerbosityE to i8*)] }, comdat, align 8
@_ZTVN2v88internal8compiler25CommonOperatorGlobalCache18TrapUnlessOperatorILNS1_6TrapIdE10EEE = linkonce_odr hidden unnamed_addr constant { [8 x i8*] } { [8 x i8*] [i8* null, i8* null, i8* bitcast (void (%"class.v8::internal::compiler::Operator"*)* @_ZN2v88internal8compiler8OperatorD2Ev to i8*), i8* bitcast (void (%"struct.v8::internal::compiler::CommonOperatorGlobalCache::TrapUnlessOperator.85"*)* @_ZN2v88internal8compiler25CommonOperatorGlobalCache18TrapUnlessOperatorILNS1_6TrapIdE10EED0Ev to i8*), i8* bitcast (i1 (%"class.v8::internal::compiler::Operator1.72"*, %"class.v8::internal::compiler::Operator"*)* @_ZNK2v88internal8compiler9Operator1INS1_6TrapIdENS1_9OpEqualToIS3_EENS1_6OpHashIS3_EEE6EqualsEPKNS1_8OperatorE to i8*), i8* bitcast (i64 (%"class.v8::internal::compiler::Operator1.72"*)* @_ZNK2v88internal8compiler9Operator1INS1_6TrapIdENS1_9OpEqualToIS3_EENS1_6OpHashIS3_EEE8HashCodeEv to i8*), i8* bitcast (void (%"class.v8::internal::compiler::Operator1.72"*, %"class.std::__1::basic_ostream"*, i32)* @_ZNK2v88internal8compiler9Operator1INS1_6TrapIdENS1_9OpEqualToIS3_EENS1_6OpHashIS3_EEE11PrintToImplERNSt3__113basic_ostreamIcNS9_11char_traitsIcEEEENS1_8Operator14PrintVerbosityE to i8*), i8* bitcast (void (%"class.v8::internal::compiler::Operator1.72"*, %"class.std::__1::basic_ostream"*, i32)* @_ZNK2v88internal8compiler9Operator1INS1_6TrapIdENS1_9OpEqualToIS3_EENS1_6OpHashIS3_EEE14PrintParameterERNSt3__113basic_ostreamIcNS9_11char_traitsIcEEEENS1_8Operator14PrintVerbosityE to i8*)] }, comdat, align 8
@_ZTVN2v88internal8compiler25CommonOperatorGlobalCache18TrapUnlessOperatorILNS1_6TrapIdE7EEE = linkonce_odr hidden unnamed_addr constant { [8 x i8*] } { [8 x i8*] [i8* null, i8* null, i8* bitcast (void (%"class.v8::internal::compiler::Operator"*)* @_ZN2v88internal8compiler8OperatorD2Ev to i8*), i8* bitcast (void (%"struct.v8::internal::compiler::CommonOperatorGlobalCache::TrapUnlessOperator.86"*)* @_ZN2v88internal8compiler25CommonOperatorGlobalCache18TrapUnlessOperatorILNS1_6TrapIdE7EED0Ev to i8*), i8* bitcast (i1 (%"class.v8::internal::compiler::Operator1.72"*, %"class.v8::internal::compiler::Operator"*)* @_ZNK2v88internal8compiler9Operator1INS1_6TrapIdENS1_9OpEqualToIS3_EENS1_6OpHashIS3_EEE6EqualsEPKNS1_8OperatorE to i8*), i8* bitcast (i64 (%"class.v8::internal::compiler::Operator1.72"*)* @_ZNK2v88internal8compiler9Operator1INS1_6TrapIdENS1_9OpEqualToIS3_EENS1_6OpHashIS3_EEE8HashCodeEv to i8*), i8* bitcast (void (%"class.v8::internal::compiler::Operator1.72"*, %"class.std::__1::basic_ostream"*, i32)* @_ZNK2v88internal8compiler9Operator1INS1_6TrapIdENS1_9OpEqualToIS3_EENS1_6OpHashIS3_EEE11PrintToImplERNSt3__113basic_ostreamIcNS9_11char_traitsIcEEEENS1_8Operator14PrintVerbosityE to i8*), i8* bitcast (void (%"class.v8::internal::compiler::Operator1.72"*, %"class.std::__1::basic_ostream"*, i32)* @_ZNK2v88internal8compiler9Operator1INS1_6TrapIdENS1_9OpEqualToIS3_EENS1_6OpHashIS3_EEE14PrintParameterERNSt3__113basic_ostreamIcNS9_11char_traitsIcEEEENS1_8Operator14PrintVerbosityE to i8*)] }, comdat, align 8
@_ZTVN2v88internal8compiler25CommonOperatorGlobalCache11PhiOperatorILNS0_21MachineRepresentationE9ELi1EEE = linkonce_odr hidden unnamed_addr constant { [8 x i8*] } { [8 x i8*] [i8* null, i8* null, i8* bitcast (void (%"class.v8::internal::compiler::Operator"*)* @_ZN2v88internal8compiler8OperatorD2Ev to i8*), i8* bitcast (void (%"struct.v8::internal::compiler::CommonOperatorGlobalCache::PhiOperator"*)* @_ZN2v88internal8compiler25CommonOperatorGlobalCache11PhiOperatorILNS0_21MachineRepresentationE9ELi1EED0Ev to i8*), i8* bitcast (i1 (%"class.v8::internal::compiler::Operator1.38"*, %"class.v8::internal::compiler::Operator"*)* @_ZNK2v88internal8compiler9Operator1INS0_21MachineRepresentationENS1_9OpEqualToIS3_EENS1_6OpHashIS3_EEE6EqualsEPKNS1_8OperatorE to i8*), i8* bitcast (i64 (%"class.v8::internal::compiler::Operator1.38"*)* @_ZNK2v88internal8compiler9Operator1INS0_21MachineRepresentationENS1_9OpEqualToIS3_EENS1_6OpHashIS3_EEE8HashCodeEv to i8*), i8* bitcast (void (%"class.v8::internal::compiler::Operator1.38"*, %"class.std::__1::basic_ostream"*, i32)* @_ZNK2v88internal8compiler9Operator1INS0_21MachineRepresentationENS1_9OpEqualToIS3_EENS1_6OpHashIS3_EEE11PrintToImplERNSt3__113basic_ostreamIcNS9_11char_traitsIcEEEENS1_8Operator14PrintVerbosityE to i8*), i8* bitcast (void (%"class.v8::internal::compiler::Operator1.38"*, %"class.std::__1::basic_ostream"*, i32)* @_ZNK2v88internal8compiler9Operator1INS0_21MachineRepresentationENS1_9OpEqualToIS3_EENS1_6OpHashIS3_EEE14PrintParameterERNSt3__113basic_ostreamIcNS9_11char_traitsIcEEEENS1_8Operator14PrintVerbosityE to i8*)] }, comdat, align 8
@_ZTVN2v88internal8compiler25CommonOperatorGlobalCache11PhiOperatorILNS0_21MachineRepresentationE9ELi2EEE = linkonce_odr hidden unnamed_addr constant { [8 x i8*] } { [8 x i8*] [i8* null, i8* null, i8* bitcast (void (%"class.v8::internal::compiler::Operator"*)* @_ZN2v88internal8compiler8OperatorD2Ev to i8*), i8* bitcast (void (%"struct.v8::internal::compiler::CommonOperatorGlobalCache::PhiOperator.87"*)* @_ZN2v88internal8compiler25CommonOperatorGlobalCache11PhiOperatorILNS0_21MachineRepresentationE9ELi2EED0Ev to i8*), i8* bitcast (i1 (%"class.v8::internal::compiler::Operator1.38"*, %"class.v8::internal::compiler::Operator"*)* @_ZNK2v88internal8compiler9Operator1INS0_21MachineRepresentationENS1_9OpEqualToIS3_EENS1_6OpHashIS3_EEE6EqualsEPKNS1_8OperatorE to i8*), i8* bitcast (i64 (%"class.v8::internal::compiler::Operator1.38"*)* @_ZNK2v88internal8compiler9Operator1INS0_21MachineRepresentationENS1_9OpEqualToIS3_EENS1_6OpHashIS3_EEE8HashCodeEv to i8*), i8* bitcast (void (%"class.v8::internal::compiler::Operator1.38"*, %"class.std::__1::basic_ostream"*, i32)* @_ZNK2v88internal8compiler9Operator1INS0_21MachineRepresentationENS1_9OpEqualToIS3_EENS1_6OpHashIS3_EEE11PrintToImplERNSt3__113basic_ostreamIcNS9_11char_traitsIcEEEENS1_8Operator14PrintVerbosityE to i8*), i8* bitcast (void (%"class.v8::internal::compiler::Operator1.38"*, %"class.std::__1::basic_ostream"*, i32)* @_ZNK2v88internal8compiler9Operator1INS0_21MachineRepresentationENS1_9OpEqualToIS3_EENS1_6OpHashIS3_EEE14PrintParameterERNSt3__113basic_ostreamIcNS9_11char_traitsIcEEEENS1_8Operator14PrintVerbosityE to i8*)] }, comdat, align 8
@_ZTVN2v88internal8compiler25CommonOperatorGlobalCache11PhiOperatorILNS0_21MachineRepresentationE9ELi3EEE = linkonce_odr hidden unnamed_addr constant { [8 x i8*] } { [8 x i8*] [i8* null, i8* null, i8* bitcast (void (%"class.v8::internal::compiler::Operator"*)* @_ZN2v88internal8compiler8OperatorD2Ev to i8*), i8* bitcast (void (%"struct.v8::internal::compiler::CommonOperatorGlobalCache::PhiOperator.88"*)* @_ZN2v88internal8compiler25CommonOperatorGlobalCache11PhiOperatorILNS0_21MachineRepresentationE9ELi3EED0Ev to i8*), i8* bitcast (i1 (%"class.v8::internal::compiler::Operator1.38"*, %"class.v8::internal::compiler::Operator"*)* @_ZNK2v88internal8compiler9Operator1INS0_21MachineRepresentationENS1_9OpEqualToIS3_EENS1_6OpHashIS3_EEE6EqualsEPKNS1_8OperatorE to i8*), i8* bitcast (i64 (%"class.v8::internal::compiler::Operator1.38"*)* @_ZNK2v88internal8compiler9Operator1INS0_21MachineRepresentationENS1_9OpEqualToIS3_EENS1_6OpHashIS3_EEE8HashCodeEv to i8*), i8* bitcast (void (%"class.v8::internal::compiler::Operator1.38"*, %"class.std::__1::basic_ostream"*, i32)* @_ZNK2v88internal8compiler9Operator1INS0_21MachineRepresentationENS1_9OpEqualToIS3_EENS1_6OpHashIS3_EEE11PrintToImplERNSt3__113basic_ostreamIcNS9_11char_traitsIcEEEENS1_8Operator14PrintVerbosityE to i8*), i8* bitcast (void (%"class.v8::internal::compiler::Operator1.38"*, %"class.std::__1::basic_ostream"*, i32)* @_ZNK2v88internal8compiler9Operator1INS0_21MachineRepresentationENS1_9OpEqualToIS3_EENS1_6OpHashIS3_EEE14PrintParameterERNSt3__113basic_ostreamIcNS9_11char_traitsIcEEEENS1_8Operator14PrintVerbosityE to i8*)] }, comdat, align 8
@_ZTVN2v88internal8compiler25CommonOperatorGlobalCache11PhiOperatorILNS0_21MachineRepresentationE9ELi4EEE = linkonce_odr hidden unnamed_addr constant { [8 x i8*] } { [8 x i8*] [i8* null, i8* null, i8* bitcast (void (%"class.v8::internal::compiler::Operator"*)* @_ZN2v88internal8compiler8OperatorD2Ev to i8*), i8* bitcast (void (%"struct.v8::internal::compiler::CommonOperatorGlobalCache::PhiOperator.89"*)* @_ZN2v88internal8compiler25CommonOperatorGlobalCache11PhiOperatorILNS0_21MachineRepresentationE9ELi4EED0Ev to i8*), i8* bitcast (i1 (%"class.v8::internal::compiler::Operator1.38"*, %"class.v8::internal::compiler::Operator"*)* @_ZNK2v88internal8compiler9Operator1INS0_21MachineRepresentationENS1_9OpEqualToIS3_EENS1_6OpHashIS3_EEE6EqualsEPKNS1_8OperatorE to i8*), i8* bitcast (i64 (%"class.v8::internal::compiler::Operator1.38"*)* @_ZNK2v88internal8compiler9Operator1INS0_21MachineRepresentationENS1_9OpEqualToIS3_EENS1_6OpHashIS3_EEE8HashCodeEv to i8*), i8* bitcast (void (%"class.v8::internal::compiler::Operator1.38"*, %"class.std::__1::basic_ostream"*, i32)* @_ZNK2v88internal8compiler9Operator1INS0_21MachineRepresentationENS1_9OpEqualToIS3_EENS1_6OpHashIS3_EEE11PrintToImplERNSt3__113basic_ostreamIcNS9_11char_traitsIcEEEENS1_8Operator14PrintVerbosityE to i8*), i8* bitcast (void (%"class.v8::internal::compiler::Operator1.38"*, %"class.std::__1::basic_ostream"*, i32)* @_ZNK2v88internal8compiler9Operator1INS0_21MachineRepresentationENS1_9OpEqualToIS3_EENS1_6OpHashIS3_EEE14PrintParameterERNSt3__113basic_ostreamIcNS9_11char_traitsIcEEEENS1_8Operator14PrintVerbosityE to i8*)] }, comdat, align 8
@_ZTVN2v88internal8compiler25CommonOperatorGlobalCache11PhiOperatorILNS0_21MachineRepresentationE9ELi5EEE = linkonce_odr hidden unnamed_addr constant { [8 x i8*] } { [8 x i8*] [i8* null, i8* null, i8* bitcast (void (%"class.v8::internal::compiler::Operator"*)* @_ZN2v88internal8compiler8OperatorD2Ev to i8*), i8* bitcast (void (%"struct.v8::internal::compiler::CommonOperatorGlobalCache::PhiOperator.90"*)* @_ZN2v88internal8compiler25CommonOperatorGlobalCache11PhiOperatorILNS0_21MachineRepresentationE9ELi5EED0Ev to i8*), i8* bitcast (i1 (%"class.v8::internal::compiler::Operator1.38"*, %"class.v8::internal::compiler::Operator"*)* @_ZNK2v88internal8compiler9Operator1INS0_21MachineRepresentationENS1_9OpEqualToIS3_EENS1_6OpHashIS3_EEE6EqualsEPKNS1_8OperatorE to i8*), i8* bitcast (i64 (%"class.v8::internal::compiler::Operator1.38"*)* @_ZNK2v88internal8compiler9Operator1INS0_21MachineRepresentationENS1_9OpEqualToIS3_EENS1_6OpHashIS3_EEE8HashCodeEv to i8*), i8* bitcast (void (%"class.v8::internal::compiler::Operator1.38"*, %"class.std::__1::basic_ostream"*, i32)* @_ZNK2v88internal8compiler9Operator1INS0_21MachineRepresentationENS1_9OpEqualToIS3_EENS1_6OpHashIS3_EEE11PrintToImplERNSt3__113basic_ostreamIcNS9_11char_traitsIcEEEENS1_8Operator14PrintVerbosityE to i8*), i8* bitcast (void (%"class.v8::internal::compiler::Operator1.38"*, %"class.std::__1::basic_ostream"*, i32)* @_ZNK2v88internal8compiler9Operator1INS0_21MachineRepresentationENS1_9OpEqualToIS3_EENS1_6OpHashIS3_EEE14PrintParameterERNSt3__113basic_ostreamIcNS9_11char_traitsIcEEEENS1_8Operator14PrintVerbosityE to i8*)] }, comdat, align 8
@_ZTVN2v88internal8compiler25CommonOperatorGlobalCache11PhiOperatorILNS0_21MachineRepresentationE9ELi6EEE = linkonce_odr hidden unnamed_addr constant { [8 x i8*] } { [8 x i8*] [i8* null, i8* null, i8* bitcast (void (%"class.v8::internal::compiler::Operator"*)* @_ZN2v88internal8compiler8OperatorD2Ev to i8*), i8* bitcast (void (%"struct.v8::internal::compiler::CommonOperatorGlobalCache::PhiOperator.91"*)* @_ZN2v88internal8compiler25CommonOperatorGlobalCache11PhiOperatorILNS0_21MachineRepresentationE9ELi6EED0Ev to i8*), i8* bitcast (i1 (%"class.v8::internal::compiler::Operator1.38"*, %"class.v8::internal::compiler::Operator"*)* @_ZNK2v88internal8compiler9Operator1INS0_21MachineRepresentationENS1_9OpEqualToIS3_EENS1_6OpHashIS3_EEE6EqualsEPKNS1_8OperatorE to i8*), i8* bitcast (i64 (%"class.v8::internal::compiler::Operator1.38"*)* @_ZNK2v88internal8compiler9Operator1INS0_21MachineRepresentationENS1_9OpEqualToIS3_EENS1_6OpHashIS3_EEE8HashCodeEv to i8*), i8* bitcast (void (%"class.v8::internal::compiler::Operator1.38"*, %"class.std::__1::basic_ostream"*, i32)* @_ZNK2v88internal8compiler9Operator1INS0_21MachineRepresentationENS1_9OpEqualToIS3_EENS1_6OpHashIS3_EEE11PrintToImplERNSt3__113basic_ostreamIcNS9_11char_traitsIcEEEENS1_8Operator14PrintVerbosityE to i8*), i8* bitcast (void (%"class.v8::internal::compiler::Operator1.38"*, %"class.std::__1::basic_ostream"*, i32)* @_ZNK2v88internal8compiler9Operator1INS0_21MachineRepresentationENS1_9OpEqualToIS3_EENS1_6OpHashIS3_EEE14PrintParameterERNSt3__113basic_ostreamIcNS9_11char_traitsIcEEEENS1_8Operator14PrintVerbosityE to i8*)] }, comdat, align 8
@_ZTVN2v88internal8compiler25CommonOperatorGlobalCache11PhiOperatorILNS0_21MachineRepresentationE1ELi2EEE = linkonce_odr hidden unnamed_addr constant { [8 x i8*] } { [8 x i8*] [i8* null, i8* null, i8* bitcast (void (%"class.v8::internal::compiler::Operator"*)* @_ZN2v88internal8compiler8OperatorD2Ev to i8*), i8* bitcast (void (%"struct.v8::internal::compiler::CommonOperatorGlobalCache::PhiOperator.92"*)* @_ZN2v88internal8compiler25CommonOperatorGlobalCache11PhiOperatorILNS0_21MachineRepresentationE1ELi2EED0Ev to i8*), i8* bitcast (i1 (%"class.v8::internal::compiler::Operator1.38"*, %"class.v8::internal::compiler::Operator"*)* @_ZNK2v88internal8compiler9Operator1INS0_21MachineRepresentationENS1_9OpEqualToIS3_EENS1_6OpHashIS3_EEE6EqualsEPKNS1_8OperatorE to i8*), i8* bitcast (i64 (%"class.v8::internal::compiler::Operator1.38"*)* @_ZNK2v88internal8compiler9Operator1INS0_21MachineRepresentationENS1_9OpEqualToIS3_EENS1_6OpHashIS3_EEE8HashCodeEv to i8*), i8* bitcast (void (%"class.v8::internal::compiler::Operator1.38"*, %"class.std::__1::basic_ostream"*, i32)* @_ZNK2v88internal8compiler9Operator1INS0_21MachineRepresentationENS1_9OpEqualToIS3_EENS1_6OpHashIS3_EEE11PrintToImplERNSt3__113basic_ostreamIcNS9_11char_traitsIcEEEENS1_8Operator14PrintVerbosityE to i8*), i8* bitcast (void (%"class.v8::internal::compiler::Operator1.38"*, %"class.std::__1::basic_ostream"*, i32)* @_ZNK2v88internal8compiler9Operator1INS0_21MachineRepresentationENS1_9OpEqualToIS3_EENS1_6OpHashIS3_EEE14PrintParameterERNSt3__113basic_ostreamIcNS9_11char_traitsIcEEEENS1_8Operator14PrintVerbosityE to i8*)] }, comdat, align 8
@_ZTVN2v88internal8compiler25CommonOperatorGlobalCache11PhiOperatorILNS0_21MachineRepresentationE13ELi2EEE = linkonce_odr hidden unnamed_addr constant { [8 x i8*] } { [8 x i8*] [i8* null, i8* null, i8* bitcast (void (%"class.v8::internal::compiler::Operator"*)* @_ZN2v88internal8compiler8OperatorD2Ev to i8*), i8* bitcast (void (%"struct.v8::internal::compiler::CommonOperatorGlobalCache::PhiOperator.93"*)* @_ZN2v88internal8compiler25CommonOperatorGlobalCache11PhiOperatorILNS0_21MachineRepresentationE13ELi2EED0Ev to i8*), i8* bitcast (i1 (%"class.v8::internal::compiler::Operator1.38"*, %"class.v8::internal::compiler::Operator"*)* @_ZNK2v88internal8compiler9Operator1INS0_21MachineRepresentationENS1_9OpEqualToIS3_EENS1_6OpHashIS3_EEE6EqualsEPKNS1_8OperatorE to i8*), i8* bitcast (i64 (%"class.v8::internal::compiler::Operator1.38"*)* @_ZNK2v88internal8compiler9Operator1INS0_21MachineRepresentationENS1_9OpEqualToIS3_EENS1_6OpHashIS3_EEE8HashCodeEv to i8*), i8* bitcast (void (%"class.v8::internal::compiler::Operator1.38"*, %"class.std::__1::basic_ostream"*, i32)* @_ZNK2v88internal8compiler9Operator1INS0_21MachineRepresentationENS1_9OpEqualToIS3_EENS1_6OpHashIS3_EEE11PrintToImplERNSt3__113basic_ostreamIcNS9_11char_traitsIcEEEENS1_8Operator14PrintVerbosityE to i8*), i8* bitcast (void (%"class.v8::internal::compiler::Operator1.38"*, %"class.std::__1::basic_ostream"*, i32)* @_ZNK2v88internal8compiler9Operator1INS0_21MachineRepresentationENS1_9OpEqualToIS3_EENS1_6OpHashIS3_EEE14PrintParameterERNSt3__113basic_ostreamIcNS9_11char_traitsIcEEEENS1_8Operator14PrintVerbosityE to i8*)] }, comdat, align 8
@_ZTVN2v88internal8compiler25CommonOperatorGlobalCache11PhiOperatorILNS0_21MachineRepresentationE4ELi2EEE = linkonce_odr hidden unnamed_addr constant { [8 x i8*] } { [8 x i8*] [i8* null, i8* null, i8* bitcast (void (%"class.v8::internal::compiler::Operator"*)* @_ZN2v88internal8compiler8OperatorD2Ev to i8*), i8* bitcast (void (%"struct.v8::internal::compiler::CommonOperatorGlobalCache::PhiOperator.94"*)* @_ZN2v88internal8compiler25CommonOperatorGlobalCache11PhiOperatorILNS0_21MachineRepresentationE4ELi2EED0Ev to i8*), i8* bitcast (i1 (%"class.v8::internal::compiler::Operator1.38"*, %"class.v8::internal::compiler::Operator"*)* @_ZNK2v88internal8compiler9Operator1INS0_21MachineRepresentationENS1_9OpEqualToIS3_EENS1_6OpHashIS3_EEE6EqualsEPKNS1_8OperatorE to i8*), i8* bitcast (i64 (%"class.v8::internal::compiler::Operator1.38"*)* @_ZNK2v88internal8compiler9Operator1INS0_21MachineRepresentationENS1_9OpEqualToIS3_EENS1_6OpHashIS3_EEE8HashCodeEv to i8*), i8* bitcast (void (%"class.v8::internal::compiler::Operator1.38"*, %"class.std::__1::basic_ostream"*, i32)* @_ZNK2v88internal8compiler9Operator1INS0_21MachineRepresentationENS1_9OpEqualToIS3_EENS1_6OpHashIS3_EEE11PrintToImplERNSt3__113basic_ostreamIcNS9_11char_traitsIcEEEENS1_8Operator14PrintVerbosityE to i8*), i8* bitcast (void (%"class.v8::internal::compiler::Operator1.38"*, %"class.std::__1::basic_ostream"*, i32)* @_ZNK2v88internal8compiler9Operator1INS0_21MachineRepresentationENS1_9OpEqualToIS3_EENS1_6OpHashIS3_EEE14PrintParameterERNSt3__113basic_ostreamIcNS9_11char_traitsIcEEEENS1_8Operator14PrintVerbosityE to i8*)] }, comdat, align 8
@_ZTVN2v88internal8compiler25CommonOperatorGlobalCache28InductionVariablePhiOperatorILi4EEE = linkonce_odr hidden unnamed_addr constant { [7 x i8*] } { [7 x i8*] [i8* null, i8* null, i8* bitcast (void (%"class.v8::internal::compiler::Operator"*)* @_ZN2v88internal8compiler8OperatorD2Ev to i8*), i8* bitcast (void (%"struct.v8::internal::compiler::CommonOperatorGlobalCache::InductionVariablePhiOperator"*)* @_ZN2v88internal8compiler25CommonOperatorGlobalCache28InductionVariablePhiOperatorILi4EED0Ev to i8*), i8* bitcast (i1 (%"class.v8::internal::compiler::Operator"*, %"class.v8::internal::compiler::Operator"*)* @_ZNK2v88internal8compiler8Operator6EqualsEPKS2_ to i8*), i8* bitcast (i64 (%"class.v8::internal::compiler::Operator"*)* @_ZNK2v88internal8compiler8Operator8HashCodeEv to i8*), i8* bitcast (void (%"class.v8::internal::compiler::Operator"*, %"class.std::__1::basic_ostream"*, i32)* @_ZNK2v88internal8compiler8Operator11PrintToImplERNSt3__113basic_ostreamIcNS3_11char_traitsIcEEEENS2_14PrintVerbosityE to i8*)] }, comdat, align 8
@_ZTVN2v88internal8compiler25CommonOperatorGlobalCache28InductionVariablePhiOperatorILi5EEE = linkonce_odr hidden unnamed_addr constant { [7 x i8*] } { [7 x i8*] [i8* null, i8* null, i8* bitcast (void (%"class.v8::internal::compiler::Operator"*)* @_ZN2v88internal8compiler8OperatorD2Ev to i8*), i8* bitcast (void (%"struct.v8::internal::compiler::CommonOperatorGlobalCache::InductionVariablePhiOperator.95"*)* @_ZN2v88internal8compiler25CommonOperatorGlobalCache28InductionVariablePhiOperatorILi5EED0Ev to i8*), i8* bitcast (i1 (%"class.v8::internal::compiler::Operator"*, %"class.v8::internal::compiler::Operator"*)* @_ZNK2v88internal8compiler8Operator6EqualsEPKS2_ to i8*), i8* bitcast (i64 (%"class.v8::internal::compiler::Operator"*)* @_ZNK2v88internal8compiler8Operator8HashCodeEv to i8*), i8* bitcast (void (%"class.v8::internal::compiler::Operator"*, %"class.std::__1::basic_ostream"*, i32)* @_ZNK2v88internal8compiler8Operator11PrintToImplERNSt3__113basic_ostreamIcNS3_11char_traitsIcEEEENS2_14PrintVerbosityE to i8*)] }, comdat, align 8
@_ZTVN2v88internal8compiler25CommonOperatorGlobalCache28InductionVariablePhiOperatorILi6EEE = linkonce_odr hidden unnamed_addr constant { [7 x i8*] } { [7 x i8*] [i8* null, i8* null, i8* bitcast (void (%"class.v8::internal::compiler::Operator"*)* @_ZN2v88internal8compiler8OperatorD2Ev to i8*), i8* bitcast (void (%"struct.v8::internal::compiler::CommonOperatorGlobalCache::InductionVariablePhiOperator.96"*)* @_ZN2v88internal8compiler25CommonOperatorGlobalCache28InductionVariablePhiOperatorILi6EED0Ev to i8*), i8* bitcast (i1 (%"class.v8::internal::compiler::Operator"*, %"class.v8::internal::compiler::Operator"*)* @_ZNK2v88internal8compiler8Operator6EqualsEPKS2_ to i8*), i8* bitcast (i64 (%"class.v8::internal::compiler::Operator"*)* @_ZNK2v88internal8compiler8Operator8HashCodeEv to i8*), i8* bitcast (void (%"class.v8::internal::compiler::Operator"*, %"class.std::__1::basic_ostream"*, i32)* @_ZNK2v88internal8compiler8Operator11PrintToImplERNSt3__113basic_ostreamIcNS3_11char_traitsIcEEEENS2_14PrintVerbosityE to i8*)] }, comdat, align 8
@_ZTVN2v88internal8compiler25CommonOperatorGlobalCache28InductionVariablePhiOperatorILi7EEE = linkonce_odr hidden unnamed_addr constant { [7 x i8*] } { [7 x i8*] [i8* null, i8* null, i8* bitcast (void (%"class.v8::internal::compiler::Operator"*)* @_ZN2v88internal8compiler8OperatorD2Ev to i8*), i8* bitcast (void (%"struct.v8::internal::compiler::CommonOperatorGlobalCache::InductionVariablePhiOperator.97"*)* @_ZN2v88internal8compiler25CommonOperatorGlobalCache28InductionVariablePhiOperatorILi7EED0Ev to i8*), i8* bitcast (i1 (%"class.v8::internal::compiler::Operator"*, %"class.v8::internal::compiler::Operator"*)* @_ZNK2v88internal8compiler8Operator6EqualsEPKS2_ to i8*), i8* bitcast (i64 (%"class.v8::internal::compiler::Operator"*)* @_ZNK2v88internal8compiler8Operator8HashCodeEv to i8*), i8* bitcast (void (%"class.v8::internal::compiler::Operator"*, %"class.std::__1::basic_ostream"*, i32)* @_ZNK2v88internal8compiler8Operator11PrintToImplERNSt3__113basic_ostreamIcNS3_11char_traitsIcEEEENS2_14PrintVerbosityE to i8*)] }, comdat, align 8
@_ZTVN2v88internal8compiler25CommonOperatorGlobalCache17ParameterOperatorILi0EEE = linkonce_odr hidden unnamed_addr constant { [8 x i8*] } { [8 x i8*] [i8* null, i8* null, i8* bitcast (void (%"class.v8::internal::compiler::Operator"*)* @_ZN2v88internal8compiler8OperatorD2Ev to i8*), i8* bitcast (void (%"struct.v8::internal::compiler::CommonOperatorGlobalCache::ParameterOperator"*)* @_ZN2v88internal8compiler25CommonOperatorGlobalCache17ParameterOperatorILi0EED0Ev to i8*), i8* bitcast (i1 (%"class.v8::internal::compiler::Operator1.98"*, %"class.v8::internal::compiler::Operator"*)* @_ZNK2v88internal8compiler9Operator1INS1_13ParameterInfoENS1_9OpEqualToIS3_EENS1_6OpHashIS3_EEE6EqualsEPKNS1_8OperatorE to i8*), i8* bitcast (i64 (%"class.v8::internal::compiler::Operator1.98"*)* @_ZNK2v88internal8compiler9Operator1INS1_13ParameterInfoENS1_9OpEqualToIS3_EENS1_6OpHashIS3_EEE8HashCodeEv to i8*), i8* bitcast (void (%"class.v8::internal::compiler::Operator1.98"*, %"class.std::__1::basic_ostream"*, i32)* @_ZNK2v88internal8compiler9Operator1INS1_13ParameterInfoENS1_9OpEqualToIS3_EENS1_6OpHashIS3_EEE11PrintToImplERNSt3__113basic_ostreamIcNS9_11char_traitsIcEEEENS1_8Operator14PrintVerbosityE to i8*), i8* bitcast (void (%"class.v8::internal::compiler::Operator1.98"*, %"class.std::__1::basic_ostream"*, i32)* @_ZNK2v88internal8compiler9Operator1INS1_13ParameterInfoENS1_9OpEqualToIS3_EENS1_6OpHashIS3_EEE14PrintParameterERNSt3__113basic_ostreamIcNS9_11char_traitsIcEEEENS1_8Operator14PrintVerbosityE to i8*)] }, comdat, align 8
@_ZTVN2v88internal8compiler9Operator1INS1_13ParameterInfoENS1_9OpEqualToIS3_EENS1_6OpHashIS3_EEEE = linkonce_odr hidden unnamed_addr constant { [8 x i8*] } { [8 x i8*] [i8* null, i8* null, i8* bitcast (void (%"class.v8::internal::compiler::Operator"*)* @_ZN2v88internal8compiler8OperatorD2Ev to i8*), i8* bitcast (void (%"class.v8::internal::compiler::Operator1.98"*)* @_ZN2v88internal8compiler9Operator1INS1_13ParameterInfoENS1_9OpEqualToIS3_EENS1_6OpHashIS3_EEED0Ev to i8*), i8* bitcast (i1 (%"class.v8::internal::compiler::Operator1.98"*, %"class.v8::internal::compiler::Operator"*)* @_ZNK2v88internal8compiler9Operator1INS1_13ParameterInfoENS1_9OpEqualToIS3_EENS1_6OpHashIS3_EEE6EqualsEPKNS1_8OperatorE to i8*), i8* bitcast (i64 (%"class.v8::internal::compiler::Operator1.98"*)* @_ZNK2v88internal8compiler9Operator1INS1_13ParameterInfoENS1_9OpEqualToIS3_EENS1_6OpHashIS3_EEE8HashCodeEv to i8*), i8* bitcast (void (%"class.v8::internal::compiler::Operator1.98"*, %"class.std::__1::basic_ostream"*, i32)* @_ZNK2v88internal8compiler9Operator1INS1_13ParameterInfoENS1_9OpEqualToIS3_EENS1_6OpHashIS3_EEE11PrintToImplERNSt3__113basic_ostreamIcNS9_11char_traitsIcEEEENS1_8Operator14PrintVerbosityE to i8*), i8* bitcast (void (%"class.v8::internal::compiler::Operator1.98"*, %"class.std::__1::basic_ostream"*, i32)* @_ZNK2v88internal8compiler9Operator1INS1_13ParameterInfoENS1_9OpEqualToIS3_EENS1_6OpHashIS3_EEE14PrintParameterERNSt3__113basic_ostreamIcNS9_11char_traitsIcEEEENS1_8Operator14PrintVerbosityE to i8*)] }, comdat, align 8
@_ZTVN2v88internal8compiler25CommonOperatorGlobalCache17ParameterOperatorILi1EEE = linkonce_odr hidden unnamed_addr constant { [8 x i8*] } { [8 x i8*] [i8* null, i8* null, i8* bitcast (void (%"class.v8::internal::compiler::Operator"*)* @_ZN2v88internal8compiler8OperatorD2Ev to i8*), i8* bitcast (void (%"struct.v8::internal::compiler::CommonOperatorGlobalCache::ParameterOperator.105"*)* @_ZN2v88internal8compiler25CommonOperatorGlobalCache17ParameterOperatorILi1EED0Ev to i8*), i8* bitcast (i1 (%"class.v8::internal::compiler::Operator1.98"*, %"class.v8::internal::compiler::Operator"*)* @_ZNK2v88internal8compiler9Operator1INS1_13ParameterInfoENS1_9OpEqualToIS3_EENS1_6OpHashIS3_EEE6EqualsEPKNS1_8OperatorE to i8*), i8* bitcast (i64 (%"class.v8::internal::compiler::Operator1.98"*)* @_ZNK2v88internal8compiler9Operator1INS1_13ParameterInfoENS1_9OpEqualToIS3_EENS1_6OpHashIS3_EEE8HashCodeEv to i8*), i8* bitcast (void (%"class.v8::internal::compiler::Operator1.98"*, %"class.std::__1::basic_ostream"*, i32)* @_ZNK2v88internal8compiler9Operator1INS1_13ParameterInfoENS1_9OpEqualToIS3_EENS1_6OpHashIS3_EEE11PrintToImplERNSt3__113basic_ostreamIcNS9_11char_traitsIcEEEENS1_8Operator14PrintVerbosityE to i8*), i8* bitcast (void (%"class.v8::internal::compiler::Operator1.98"*, %"class.std::__1::basic_ostream"*, i32)* @_ZNK2v88internal8compiler9Operator1INS1_13ParameterInfoENS1_9OpEqualToIS3_EENS1_6OpHashIS3_EEE14PrintParameterERNSt3__113basic_ostreamIcNS9_11char_traitsIcEEEENS1_8Operator14PrintVerbosityE to i8*)] }, comdat, align 8
@_ZTVN2v88internal8compiler25CommonOperatorGlobalCache17ParameterOperatorILi2EEE = linkonce_odr hidden unnamed_addr constant { [8 x i8*] } { [8 x i8*] [i8* null, i8* null, i8* bitcast (void (%"class.v8::internal::compiler::Operator"*)* @_ZN2v88internal8compiler8OperatorD2Ev to i8*), i8* bitcast (void (%"struct.v8::internal::compiler::CommonOperatorGlobalCache::ParameterOperator.106"*)* @_ZN2v88internal8compiler25CommonOperatorGlobalCache17ParameterOperatorILi2EED0Ev to i8*), i8* bitcast (i1 (%"class.v8::internal::compiler::Operator1.98"*, %"class.v8::internal::compiler::Operator"*)* @_ZNK2v88internal8compiler9Operator1INS1_13ParameterInfoENS1_9OpEqualToIS3_EENS1_6OpHashIS3_EEE6EqualsEPKNS1_8OperatorE to i8*), i8* bitcast (i64 (%"class.v8::internal::compiler::Operator1.98"*)* @_ZNK2v88internal8compiler9Operator1INS1_13ParameterInfoENS1_9OpEqualToIS3_EENS1_6OpHashIS3_EEE8HashCodeEv to i8*), i8* bitcast (void (%"class.v8::internal::compiler::Operator1.98"*, %"class.std::__1::basic_ostream"*, i32)* @_ZNK2v88internal8compiler9Operator1INS1_13ParameterInfoENS1_9OpEqualToIS3_EENS1_6OpHashIS3_EEE11PrintToImplERNSt3__113basic_ostreamIcNS9_11char_traitsIcEEEENS1_8Operator14PrintVerbosityE to i8*), i8* bitcast (void (%"class.v8::internal::compiler::Operator1.98"*, %"class.std::__1::basic_ostream"*, i32)* @_ZNK2v88internal8compiler9Operator1INS1_13ParameterInfoENS1_9OpEqualToIS3_EENS1_6OpHashIS3_EEE14PrintParameterERNSt3__113basic_ostreamIcNS9_11char_traitsIcEEEENS1_8Operator14PrintVerbosityE to i8*)] }, comdat, align 8
@_ZTVN2v88internal8compiler25CommonOperatorGlobalCache17ParameterOperatorILi3EEE = linkonce_odr hidden unnamed_addr constant { [8 x i8*] } { [8 x i8*] [i8* null, i8* null, i8* bitcast (void (%"class.v8::internal::compiler::Operator"*)* @_ZN2v88internal8compiler8OperatorD2Ev to i8*), i8* bitcast (void (%"struct.v8::internal::compiler::CommonOperatorGlobalCache::ParameterOperator.107"*)* @_ZN2v88internal8compiler25CommonOperatorGlobalCache17ParameterOperatorILi3EED0Ev to i8*), i8* bitcast (i1 (%"class.v8::internal::compiler::Operator1.98"*, %"class.v8::internal::compiler::Operator"*)* @_ZNK2v88internal8compiler9Operator1INS1_13ParameterInfoENS1_9OpEqualToIS3_EENS1_6OpHashIS3_EEE6EqualsEPKNS1_8OperatorE to i8*), i8* bitcast (i64 (%"class.v8::internal::compiler::Operator1.98"*)* @_ZNK2v88internal8compiler9Operator1INS1_13ParameterInfoENS1_9OpEqualToIS3_EENS1_6OpHashIS3_EEE8HashCodeEv to i8*), i8* bitcast (void (%"class.v8::internal::compiler::Operator1.98"*, %"class.std::__1::basic_ostream"*, i32)* @_ZNK2v88internal8compiler9Operator1INS1_13ParameterInfoENS1_9OpEqualToIS3_EENS1_6OpHashIS3_EEE11PrintToImplERNSt3__113basic_ostreamIcNS9_11char_traitsIcEEEENS1_8Operator14PrintVerbosityE to i8*), i8* bitcast (void (%"class.v8::internal::compiler::Operator1.98"*, %"class.std::__1::basic_ostream"*, i32)* @_ZNK2v88internal8compiler9Operator1INS1_13ParameterInfoENS1_9OpEqualToIS3_EENS1_6OpHashIS3_EEE14PrintParameterERNSt3__113basic_ostreamIcNS9_11char_traitsIcEEEENS1_8Operator14PrintVerbosityE to i8*)] }, comdat, align 8
@_ZTVN2v88internal8compiler25CommonOperatorGlobalCache17ParameterOperatorILi4EEE = linkonce_odr hidden unnamed_addr constant { [8 x i8*] } { [8 x i8*] [i8* null, i8* null, i8* bitcast (void (%"class.v8::internal::compiler::Operator"*)* @_ZN2v88internal8compiler8OperatorD2Ev to i8*), i8* bitcast (void (%"struct.v8::internal::compiler::CommonOperatorGlobalCache::ParameterOperator.108"*)* @_ZN2v88internal8compiler25CommonOperatorGlobalCache17ParameterOperatorILi4EED0Ev to i8*), i8* bitcast (i1 (%"class.v8::internal::compiler::Operator1.98"*, %"class.v8::internal::compiler::Operator"*)* @_ZNK2v88internal8compiler9Operator1INS1_13ParameterInfoENS1_9OpEqualToIS3_EENS1_6OpHashIS3_EEE6EqualsEPKNS1_8OperatorE to i8*), i8* bitcast (i64 (%"class.v8::internal::compiler::Operator1.98"*)* @_ZNK2v88internal8compiler9Operator1INS1_13ParameterInfoENS1_9OpEqualToIS3_EENS1_6OpHashIS3_EEE8HashCodeEv to i8*), i8* bitcast (void (%"class.v8::internal::compiler::Operator1.98"*, %"class.std::__1::basic_ostream"*, i32)* @_ZNK2v88internal8compiler9Operator1INS1_13ParameterInfoENS1_9OpEqualToIS3_EENS1_6OpHashIS3_EEE11PrintToImplERNSt3__113basic_ostreamIcNS9_11char_traitsIcEEEENS1_8Operator14PrintVerbosityE to i8*), i8* bitcast (void (%"class.v8::internal::compiler::Operator1.98"*, %"class.std::__1::basic_ostream"*, i32)* @_ZNK2v88internal8compiler9Operator1INS1_13ParameterInfoENS1_9OpEqualToIS3_EENS1_6OpHashIS3_EEE14PrintParameterERNSt3__113basic_ostreamIcNS9_11char_traitsIcEEEENS1_8Operator14PrintVerbosityE to i8*)] }, comdat, align 8
@_ZTVN2v88internal8compiler25CommonOperatorGlobalCache17ParameterOperatorILi5EEE = linkonce_odr hidden unnamed_addr constant { [8 x i8*] } { [8 x i8*] [i8* null, i8* null, i8* bitcast (void (%"class.v8::internal::compiler::Operator"*)* @_ZN2v88internal8compiler8OperatorD2Ev to i8*), i8* bitcast (void (%"struct.v8::internal::compiler::CommonOperatorGlobalCache::ParameterOperator.109"*)* @_ZN2v88internal8compiler25CommonOperatorGlobalCache17ParameterOperatorILi5EED0Ev to i8*), i8* bitcast (i1 (%"class.v8::internal::compiler::Operator1.98"*, %"class.v8::internal::compiler::Operator"*)* @_ZNK2v88internal8compiler9Operator1INS1_13ParameterInfoENS1_9OpEqualToIS3_EENS1_6OpHashIS3_EEE6EqualsEPKNS1_8OperatorE to i8*), i8* bitcast (i64 (%"class.v8::internal::compiler::Operator1.98"*)* @_ZNK2v88internal8compiler9Operator1INS1_13ParameterInfoENS1_9OpEqualToIS3_EENS1_6OpHashIS3_EEE8HashCodeEv to i8*), i8* bitcast (void (%"class.v8::internal::compiler::Operator1.98"*, %"class.std::__1::basic_ostream"*, i32)* @_ZNK2v88internal8compiler9Operator1INS1_13ParameterInfoENS1_9OpEqualToIS3_EENS1_6OpHashIS3_EEE11PrintToImplERNSt3__113basic_ostreamIcNS9_11char_traitsIcEEEENS1_8Operator14PrintVerbosityE to i8*), i8* bitcast (void (%"class.v8::internal::compiler::Operator1.98"*, %"class.std::__1::basic_ostream"*, i32)* @_ZNK2v88internal8compiler9Operator1INS1_13ParameterInfoENS1_9OpEqualToIS3_EENS1_6OpHashIS3_EEE14PrintParameterERNSt3__113basic_ostreamIcNS9_11char_traitsIcEEEENS1_8Operator14PrintVerbosityE to i8*)] }, comdat, align 8
@_ZTVN2v88internal8compiler25CommonOperatorGlobalCache17ParameterOperatorILi6EEE = linkonce_odr hidden unnamed_addr constant { [8 x i8*] } { [8 x i8*] [i8* null, i8* null, i8* bitcast (void (%"class.v8::internal::compiler::Operator"*)* @_ZN2v88internal8compiler8OperatorD2Ev to i8*), i8* bitcast (void (%"struct.v8::internal::compiler::CommonOperatorGlobalCache::ParameterOperator.110"*)* @_ZN2v88internal8compiler25CommonOperatorGlobalCache17ParameterOperatorILi6EED0Ev to i8*), i8* bitcast (i1 (%"class.v8::internal::compiler::Operator1.98"*, %"class.v8::internal::compiler::Operator"*)* @_ZNK2v88internal8compiler9Operator1INS1_13ParameterInfoENS1_9OpEqualToIS3_EENS1_6OpHashIS3_EEE6EqualsEPKNS1_8OperatorE to i8*), i8* bitcast (i64 (%"class.v8::internal::compiler::Operator1.98"*)* @_ZNK2v88internal8compiler9Operator1INS1_13ParameterInfoENS1_9OpEqualToIS3_EENS1_6OpHashIS3_EEE8HashCodeEv to i8*), i8* bitcast (void (%"class.v8::internal::compiler::Operator1.98"*, %"class.std::__1::basic_ostream"*, i32)* @_ZNK2v88internal8compiler9Operator1INS1_13ParameterInfoENS1_9OpEqualToIS3_EENS1_6OpHashIS3_EEE11PrintToImplERNSt3__113basic_ostreamIcNS9_11char_traitsIcEEEENS1_8Operator14PrintVerbosityE to i8*), i8* bitcast (void (%"class.v8::internal::compiler::Operator1.98"*, %"class.std::__1::basic_ostream"*, i32)* @_ZNK2v88internal8compiler9Operator1INS1_13ParameterInfoENS1_9OpEqualToIS3_EENS1_6OpHashIS3_EEE14PrintParameterERNSt3__113basic_ostreamIcNS9_11char_traitsIcEEEENS1_8Operator14PrintVerbosityE to i8*)] }, comdat, align 8
@_ZTVN2v88internal8compiler25CommonOperatorGlobalCache18ProjectionOperatorILm0EEE = linkonce_odr hidden unnamed_addr constant { [8 x i8*] } { [8 x i8*] [i8* null, i8* null, i8* bitcast (void (%"class.v8::internal::compiler::Operator"*)* @_ZN2v88internal8compiler8OperatorD2Ev to i8*), i8* bitcast (void (%"struct.v8::internal::compiler::CommonOperatorGlobalCache::ProjectionOperator"*)* @_ZN2v88internal8compiler25CommonOperatorGlobalCache18ProjectionOperatorILm0EED0Ev to i8*), i8* bitcast (i1 (%"class.v8::internal::compiler::Operator1.111"*, %"class.v8::internal::compiler::Operator"*)* @_ZNK2v88internal8compiler9Operator1ImNS1_9OpEqualToImEENS1_6OpHashImEEE6EqualsEPKNS1_8OperatorE to i8*), i8* bitcast (i64 (%"class.v8::internal::compiler::Operator1.111"*)* @_ZNK2v88internal8compiler9Operator1ImNS1_9OpEqualToImEENS1_6OpHashImEEE8HashCodeEv to i8*), i8* bitcast (void (%"class.v8::internal::compiler::Operator1.111"*, %"class.std::__1::basic_ostream"*, i32)* @_ZNK2v88internal8compiler9Operator1ImNS1_9OpEqualToImEENS1_6OpHashImEEE11PrintToImplERNSt3__113basic_ostreamIcNS8_11char_traitsIcEEEENS1_8Operator14PrintVerbosityE to i8*), i8* bitcast (void (%"class.v8::internal::compiler::Operator1.111"*, %"class.std::__1::basic_ostream"*, i32)* @_ZNK2v88internal8compiler9Operator1ImNS1_9OpEqualToImEENS1_6OpHashImEEE14PrintParameterERNSt3__113basic_ostreamIcNS8_11char_traitsIcEEEENS1_8Operator14PrintVerbosityE to i8*)] }, comdat, align 8
@_ZTVN2v88internal8compiler9Operator1ImNS1_9OpEqualToImEENS1_6OpHashImEEEE = linkonce_odr hidden unnamed_addr constant { [8 x i8*] } { [8 x i8*] [i8* null, i8* null, i8* bitcast (void (%"class.v8::internal::compiler::Operator"*)* @_ZN2v88internal8compiler8OperatorD2Ev to i8*), i8* bitcast (void (%"class.v8::internal::compiler::Operator1.111"*)* @_ZN2v88internal8compiler9Operator1ImNS1_9OpEqualToImEENS1_6OpHashImEEED0Ev to i8*), i8* bitcast (i1 (%"class.v8::internal::compiler::Operator1.111"*, %"class.v8::internal::compiler::Operator"*)* @_ZNK2v88internal8compiler9Operator1ImNS1_9OpEqualToImEENS1_6OpHashImEEE6EqualsEPKNS1_8OperatorE to i8*), i8* bitcast (i64 (%"class.v8::internal::compiler::Operator1.111"*)* @_ZNK2v88internal8compiler9Operator1ImNS1_9OpEqualToImEENS1_6OpHashImEEE8HashCodeEv to i8*), i8* bitcast (void (%"class.v8::internal::compiler::Operator1.111"*, %"class.std::__1::basic_ostream"*, i32)* @_ZNK2v88internal8compiler9Operator1ImNS1_9OpEqualToImEENS1_6OpHashImEEE11PrintToImplERNSt3__113basic_ostreamIcNS8_11char_traitsIcEEEENS1_8Operator14PrintVerbosityE to i8*), i8* bitcast (void (%"class.v8::internal::compiler::Operator1.111"*, %"class.std::__1::basic_ostream"*, i32)* @_ZNK2v88internal8compiler9Operator1ImNS1_9OpEqualToImEENS1_6OpHashImEEE14PrintParameterERNSt3__113basic_ostreamIcNS8_11char_traitsIcEEEENS1_8Operator14PrintVerbosityE to i8*)] }, comdat, align 8
@_ZTVN2v88internal8compiler25CommonOperatorGlobalCache18ProjectionOperatorILm1EEE = linkonce_odr hidden unnamed_addr constant { [8 x i8*] } { [8 x i8*] [i8* null, i8* null, i8* bitcast (void (%"class.v8::internal::compiler::Operator"*)* @_ZN2v88internal8compiler8OperatorD2Ev to i8*), i8* bitcast (void (%"struct.v8::internal::compiler::CommonOperatorGlobalCache::ProjectionOperator.118"*)* @_ZN2v88internal8compiler25CommonOperatorGlobalCache18ProjectionOperatorILm1EED0Ev to i8*), i8* bitcast (i1 (%"class.v8::internal::compiler::Operator1.111"*, %"class.v8::internal::compiler::Operator"*)* @_ZNK2v88internal8compiler9Operator1ImNS1_9OpEqualToImEENS1_6OpHashImEEE6EqualsEPKNS1_8OperatorE to i8*), i8* bitcast (i64 (%"class.v8::internal::compiler::Operator1.111"*)* @_ZNK2v88internal8compiler9Operator1ImNS1_9OpEqualToImEENS1_6OpHashImEEE8HashCodeEv to i8*), i8* bitcast (void (%"class.v8::internal::compiler::Operator1.111"*, %"class.std::__1::basic_ostream"*, i32)* @_ZNK2v88internal8compiler9Operator1ImNS1_9OpEqualToImEENS1_6OpHashImEEE11PrintToImplERNSt3__113basic_ostreamIcNS8_11char_traitsIcEEEENS1_8Operator14PrintVerbosityE to i8*), i8* bitcast (void (%"class.v8::internal::compiler::Operator1.111"*, %"class.std::__1::basic_ostream"*, i32)* @_ZNK2v88internal8compiler9Operator1ImNS1_9OpEqualToImEENS1_6OpHashImEEE14PrintParameterERNSt3__113basic_ostreamIcNS8_11char_traitsIcEEEENS1_8Operator14PrintVerbosityE to i8*)] }, comdat, align 8
@_ZTVN2v88internal8compiler25CommonOperatorGlobalCache19StateValuesOperatorILi0EEE = linkonce_odr hidden unnamed_addr constant { [8 x i8*] } { [8 x i8*] [i8* null, i8* null, i8* bitcast (void (%"class.v8::internal::compiler::Operator"*)* @_ZN2v88internal8compiler8OperatorD2Ev to i8*), i8* bitcast (void (%"struct.v8::internal::compiler::CommonOperatorGlobalCache::StateValuesOperator"*)* @_ZN2v88internal8compiler25CommonOperatorGlobalCache19StateValuesOperatorILi0EED0Ev to i8*), i8* bitcast (i1 (%"class.v8::internal::compiler::Operator1.119"*, %"class.v8::internal::compiler::Operator"*)* @_ZNK2v88internal8compiler9Operator1INS1_15SparseInputMaskENS1_9OpEqualToIS3_EENS1_6OpHashIS3_EEE6EqualsEPKNS1_8OperatorE to i8*), i8* bitcast (i64 (%"class.v8::internal::compiler::Operator1.119"*)* @_ZNK2v88internal8compiler9Operator1INS1_15SparseInputMaskENS1_9OpEqualToIS3_EENS1_6OpHashIS3_EEE8HashCodeEv to i8*), i8* bitcast (void (%"class.v8::internal::compiler::Operator1.119"*, %"class.std::__1::basic_ostream"*, i32)* @_ZNK2v88internal8compiler9Operator1INS1_15SparseInputMaskENS1_9OpEqualToIS3_EENS1_6OpHashIS3_EEE11PrintToImplERNSt3__113basic_ostreamIcNS9_11char_traitsIcEEEENS1_8Operator14PrintVerbosityE to i8*), i8* bitcast (void (%"class.v8::internal::compiler::Operator1.119"*, %"class.std::__1::basic_ostream"*, i32)* @_ZNK2v88internal8compiler9Operator1INS1_15SparseInputMaskENS1_9OpEqualToIS3_EENS1_6OpHashIS3_EEE14PrintParameterERNSt3__113basic_ostreamIcNS9_11char_traitsIcEEEENS1_8Operator14PrintVerbosityE to i8*)] }, comdat, align 8
@_ZTVN2v88internal8compiler9Operator1INS1_15SparseInputMaskENS1_9OpEqualToIS3_EENS1_6OpHashIS3_EEEE = linkonce_odr hidden unnamed_addr constant { [8 x i8*] } { [8 x i8*] [i8* null, i8* null, i8* bitcast (void (%"class.v8::internal::compiler::Operator"*)* @_ZN2v88internal8compiler8OperatorD2Ev to i8*), i8* bitcast (void (%"class.v8::internal::compiler::Operator1.119"*)* @_ZN2v88internal8compiler9Operator1INS1_15SparseInputMaskENS1_9OpEqualToIS3_EENS1_6OpHashIS3_EEED0Ev to i8*), i8* bitcast (i1 (%"class.v8::internal::compiler::Operator1.119"*, %"class.v8::internal::compiler::Operator"*)* @_ZNK2v88internal8compiler9Operator1INS1_15SparseInputMaskENS1_9OpEqualToIS3_EENS1_6OpHashIS3_EEE6EqualsEPKNS1_8OperatorE to i8*), i8* bitcast (i64 (%"class.v8::internal::compiler::Operator1.119"*)* @_ZNK2v88internal8compiler9Operator1INS1_15SparseInputMaskENS1_9OpEqualToIS3_EENS1_6OpHashIS3_EEE8HashCodeEv to i8*), i8* bitcast (void (%"class.v8::internal::compiler::Operator1.119"*, %"class.std::__1::basic_ostream"*, i32)* @_ZNK2v88internal8compiler9Operator1INS1_15SparseInputMaskENS1_9OpEqualToIS3_EENS1_6OpHashIS3_EEE11PrintToImplERNSt3__113basic_ostreamIcNS9_11char_traitsIcEEEENS1_8Operator14PrintVerbosityE to i8*), i8* bitcast (void (%"class.v8::internal::compiler::Operator1.119"*, %"class.std::__1::basic_ostream"*, i32)* @_ZNK2v88internal8compiler9Operator1INS1_15SparseInputMaskENS1_9OpEqualToIS3_EENS1_6OpHashIS3_EEE14PrintParameterERNSt3__113basic_ostreamIcNS9_11char_traitsIcEEEENS1_8Operator14PrintVerbosityE to i8*)] }, comdat, align 8
@_ZTVN2v88internal8compiler25CommonOperatorGlobalCache19StateValuesOperatorILi1EEE = linkonce_odr hidden unnamed_addr constant { [8 x i8*] } { [8 x i8*] [i8* null, i8* null, i8* bitcast (void (%"class.v8::internal::compiler::Operator"*)* @_ZN2v88internal8compiler8OperatorD2Ev to i8*), i8* bitcast (void (%"struct.v8::internal::compiler::CommonOperatorGlobalCache::StateValuesOperator.126"*)* @_ZN2v88internal8compiler25CommonOperatorGlobalCache19StateValuesOperatorILi1EED0Ev to i8*), i8* bitcast (i1 (%"class.v8::internal::compiler::Operator1.119"*, %"class.v8::internal::compiler::Operator"*)* @_ZNK2v88internal8compiler9Operator1INS1_15SparseInputMaskENS1_9OpEqualToIS3_EENS1_6OpHashIS3_EEE6EqualsEPKNS1_8OperatorE to i8*), i8* bitcast (i64 (%"class.v8::internal::compiler::Operator1.119"*)* @_ZNK2v88internal8compiler9Operator1INS1_15SparseInputMaskENS1_9OpEqualToIS3_EENS1_6OpHashIS3_EEE8HashCodeEv to i8*), i8* bitcast (void (%"class.v8::internal::compiler::Operator1.119"*, %"class.std::__1::basic_ostream"*, i32)* @_ZNK2v88internal8compiler9Operator1INS1_15SparseInputMaskENS1_9OpEqualToIS3_EENS1_6OpHashIS3_EEE11PrintToImplERNSt3__113basic_ostreamIcNS9_11char_traitsIcEEEENS1_8Operator14PrintVerbosityE to i8*), i8* bitcast (void (%"class.v8::internal::compiler::Operator1.119"*, %"class.std::__1::basic_ostream"*, i32)* @_ZNK2v88internal8compiler9Operator1INS1_15SparseInputMaskENS1_9OpEqualToIS3_EENS1_6OpHashIS3_EEE14PrintParameterERNSt3__113basic_ostreamIcNS9_11char_traitsIcEEEENS1_8Operator14PrintVerbosityE to i8*)] }, comdat, align 8
@_ZTVN2v88internal8compiler25CommonOperatorGlobalCache19StateValuesOperatorILi2EEE = linkonce_odr hidden unnamed_addr constant { [8 x i8*] } { [8 x i8*] [i8* null, i8* null, i8* bitcast (void (%"class.v8::internal::compiler::Operator"*)* @_ZN2v88internal8compiler8OperatorD2Ev to i8*), i8* bitcast (void (%"struct.v8::internal::compiler::CommonOperatorGlobalCache::StateValuesOperator.127"*)* @_ZN2v88internal8compiler25CommonOperatorGlobalCache19StateValuesOperatorILi2EED0Ev to i8*), i8* bitcast (i1 (%"class.v8::internal::compiler::Operator1.119"*, %"class.v8::internal::compiler::Operator"*)* @_ZNK2v88internal8compiler9Operator1INS1_15SparseInputMaskENS1_9OpEqualToIS3_EENS1_6OpHashIS3_EEE6EqualsEPKNS1_8OperatorE to i8*), i8* bitcast (i64 (%"class.v8::internal::compiler::Operator1.119"*)* @_ZNK2v88internal8compiler9Operator1INS1_15SparseInputMaskENS1_9OpEqualToIS3_EENS1_6OpHashIS3_EEE8HashCodeEv to i8*), i8* bitcast (void (%"class.v8::internal::compiler::Operator1.119"*, %"class.std::__1::basic_ostream"*, i32)* @_ZNK2v88internal8compiler9Operator1INS1_15SparseInputMaskENS1_9OpEqualToIS3_EENS1_6OpHashIS3_EEE11PrintToImplERNSt3__113basic_ostreamIcNS9_11char_traitsIcEEEENS1_8Operator14PrintVerbosityE to i8*), i8* bitcast (void (%"class.v8::internal::compiler::Operator1.119"*, %"class.std::__1::basic_ostream"*, i32)* @_ZNK2v88internal8compiler9Operator1INS1_15SparseInputMaskENS1_9OpEqualToIS3_EENS1_6OpHashIS3_EEE14PrintParameterERNSt3__113basic_ostreamIcNS9_11char_traitsIcEEEENS1_8Operator14PrintVerbosityE to i8*)] }, comdat, align 8
@_ZTVN2v88internal8compiler25CommonOperatorGlobalCache19StateValuesOperatorILi3EEE = linkonce_odr hidden unnamed_addr constant { [8 x i8*] } { [8 x i8*] [i8* null, i8* null, i8* bitcast (void (%"class.v8::internal::compiler::Operator"*)* @_ZN2v88internal8compiler8OperatorD2Ev to i8*), i8* bitcast (void (%"struct.v8::internal::compiler::CommonOperatorGlobalCache::StateValuesOperator.128"*)* @_ZN2v88internal8compiler25CommonOperatorGlobalCache19StateValuesOperatorILi3EED0Ev to i8*), i8* bitcast (i1 (%"class.v8::internal::compiler::Operator1.119"*, %"class.v8::internal::compiler::Operator"*)* @_ZNK2v88internal8compiler9Operator1INS1_15SparseInputMaskENS1_9OpEqualToIS3_EENS1_6OpHashIS3_EEE6EqualsEPKNS1_8OperatorE to i8*), i8* bitcast (i64 (%"class.v8::internal::compiler::Operator1.119"*)* @_ZNK2v88internal8compiler9Operator1INS1_15SparseInputMaskENS1_9OpEqualToIS3_EENS1_6OpHashIS3_EEE8HashCodeEv to i8*), i8* bitcast (void (%"class.v8::internal::compiler::Operator1.119"*, %"class.std::__1::basic_ostream"*, i32)* @_ZNK2v88internal8compiler9Operator1INS1_15SparseInputMaskENS1_9OpEqualToIS3_EENS1_6OpHashIS3_EEE11PrintToImplERNSt3__113basic_ostreamIcNS9_11char_traitsIcEEEENS1_8Operator14PrintVerbosityE to i8*), i8* bitcast (void (%"class.v8::internal::compiler::Operator1.119"*, %"class.std::__1::basic_ostream"*, i32)* @_ZNK2v88internal8compiler9Operator1INS1_15SparseInputMaskENS1_9OpEqualToIS3_EENS1_6OpHashIS3_EEE14PrintParameterERNSt3__113basic_ostreamIcNS9_11char_traitsIcEEEENS1_8Operator14PrintVerbosityE to i8*)] }, comdat, align 8
@_ZTVN2v88internal8compiler25CommonOperatorGlobalCache19StateValuesOperatorILi4EEE = linkonce_odr hidden unnamed_addr constant { [8 x i8*] } { [8 x i8*] [i8* null, i8* null, i8* bitcast (void (%"class.v8::internal::compiler::Operator"*)* @_ZN2v88internal8compiler8OperatorD2Ev to i8*), i8* bitcast (void (%"struct.v8::internal::compiler::CommonOperatorGlobalCache::StateValuesOperator.129"*)* @_ZN2v88internal8compiler25CommonOperatorGlobalCache19StateValuesOperatorILi4EED0Ev to i8*), i8* bitcast (i1 (%"class.v8::internal::compiler::Operator1.119"*, %"class.v8::internal::compiler::Operator"*)* @_ZNK2v88internal8compiler9Operator1INS1_15SparseInputMaskENS1_9OpEqualToIS3_EENS1_6OpHashIS3_EEE6EqualsEPKNS1_8OperatorE to i8*), i8* bitcast (i64 (%"class.v8::internal::compiler::Operator1.119"*)* @_ZNK2v88internal8compiler9Operator1INS1_15SparseInputMaskENS1_9OpEqualToIS3_EENS1_6OpHashIS3_EEE8HashCodeEv to i8*), i8* bitcast (void (%"class.v8::internal::compiler::Operator1.119"*, %"class.std::__1::basic_ostream"*, i32)* @_ZNK2v88internal8compiler9Operator1INS1_15SparseInputMaskENS1_9OpEqualToIS3_EENS1_6OpHashIS3_EEE11PrintToImplERNSt3__113basic_ostreamIcNS9_11char_traitsIcEEEENS1_8Operator14PrintVerbosityE to i8*), i8* bitcast (void (%"class.v8::internal::compiler::Operator1.119"*, %"class.std::__1::basic_ostream"*, i32)* @_ZNK2v88internal8compiler9Operator1INS1_15SparseInputMaskENS1_9OpEqualToIS3_EENS1_6OpHashIS3_EEE14PrintParameterERNSt3__113basic_ostreamIcNS9_11char_traitsIcEEEENS1_8Operator14PrintVerbosityE to i8*)] }, comdat, align 8
@_ZTVN2v88internal8compiler25CommonOperatorGlobalCache19StateValuesOperatorILi5EEE = linkonce_odr hidden unnamed_addr constant { [8 x i8*] } { [8 x i8*] [i8* null, i8* null, i8* bitcast (void (%"class.v8::internal::compiler::Operator"*)* @_ZN2v88internal8compiler8OperatorD2Ev to i8*), i8* bitcast (void (%"struct.v8::internal::compiler::CommonOperatorGlobalCache::StateValuesOperator.130"*)* @_ZN2v88internal8compiler25CommonOperatorGlobalCache19StateValuesOperatorILi5EED0Ev to i8*), i8* bitcast (i1 (%"class.v8::internal::compiler::Operator1.119"*, %"class.v8::internal::compiler::Operator"*)* @_ZNK2v88internal8compiler9Operator1INS1_15SparseInputMaskENS1_9OpEqualToIS3_EENS1_6OpHashIS3_EEE6EqualsEPKNS1_8OperatorE to i8*), i8* bitcast (i64 (%"class.v8::internal::compiler::Operator1.119"*)* @_ZNK2v88internal8compiler9Operator1INS1_15SparseInputMaskENS1_9OpEqualToIS3_EENS1_6OpHashIS3_EEE8HashCodeEv to i8*), i8* bitcast (void (%"class.v8::internal::compiler::Operator1.119"*, %"class.std::__1::basic_ostream"*, i32)* @_ZNK2v88internal8compiler9Operator1INS1_15SparseInputMaskENS1_9OpEqualToIS3_EENS1_6OpHashIS3_EEE11PrintToImplERNSt3__113basic_ostreamIcNS9_11char_traitsIcEEEENS1_8Operator14PrintVerbosityE to i8*), i8* bitcast (void (%"class.v8::internal::compiler::Operator1.119"*, %"class.std::__1::basic_ostream"*, i32)* @_ZNK2v88internal8compiler9Operator1INS1_15SparseInputMaskENS1_9OpEqualToIS3_EENS1_6OpHashIS3_EEE14PrintParameterERNSt3__113basic_ostreamIcNS9_11char_traitsIcEEEENS1_8Operator14PrintVerbosityE to i8*)] }, comdat, align 8
@_ZTVN2v88internal8compiler25CommonOperatorGlobalCache19StateValuesOperatorILi6EEE = linkonce_odr hidden unnamed_addr constant { [8 x i8*] } { [8 x i8*] [i8* null, i8* null, i8* bitcast (void (%"class.v8::internal::compiler::Operator"*)* @_ZN2v88internal8compiler8OperatorD2Ev to i8*), i8* bitcast (void (%"struct.v8::internal::compiler::CommonOperatorGlobalCache::StateValuesOperator.131"*)* @_ZN2v88internal8compiler25CommonOperatorGlobalCache19StateValuesOperatorILi6EED0Ev to i8*), i8* bitcast (i1 (%"class.v8::internal::compiler::Operator1.119"*, %"class.v8::internal::compiler::Operator"*)* @_ZNK2v88internal8compiler9Operator1INS1_15SparseInputMaskENS1_9OpEqualToIS3_EENS1_6OpHashIS3_EEE6EqualsEPKNS1_8OperatorE to i8*), i8* bitcast (i64 (%"class.v8::internal::compiler::Operator1.119"*)* @_ZNK2v88internal8compiler9Operator1INS1_15SparseInputMaskENS1_9OpEqualToIS3_EENS1_6OpHashIS3_EEE8HashCodeEv to i8*), i8* bitcast (void (%"class.v8::internal::compiler::Operator1.119"*, %"class.std::__1::basic_ostream"*, i32)* @_ZNK2v88internal8compiler9Operator1INS1_15SparseInputMaskENS1_9OpEqualToIS3_EENS1_6OpHashIS3_EEE11PrintToImplERNSt3__113basic_ostreamIcNS9_11char_traitsIcEEEENS1_8Operator14PrintVerbosityE to i8*), i8* bitcast (void (%"class.v8::internal::compiler::Operator1.119"*, %"class.std::__1::basic_ostream"*, i32)* @_ZNK2v88internal8compiler9Operator1INS1_15SparseInputMaskENS1_9OpEqualToIS3_EENS1_6OpHashIS3_EEE14PrintParameterERNSt3__113basic_ostreamIcNS9_11char_traitsIcEEEENS1_8Operator14PrintVerbosityE to i8*)] }, comdat, align 8
@_ZTVN2v88internal8compiler25CommonOperatorGlobalCache19StateValuesOperatorILi7EEE = linkonce_odr hidden unnamed_addr constant { [8 x i8*] } { [8 x i8*] [i8* null, i8* null, i8* bitcast (void (%"class.v8::internal::compiler::Operator"*)* @_ZN2v88internal8compiler8OperatorD2Ev to i8*), i8* bitcast (void (%"struct.v8::internal::compiler::CommonOperatorGlobalCache::StateValuesOperator.132"*)* @_ZN2v88internal8compiler25CommonOperatorGlobalCache19StateValuesOperatorILi7EED0Ev to i8*), i8* bitcast (i1 (%"class.v8::internal::compiler::Operator1.119"*, %"class.v8::internal::compiler::Operator"*)* @_ZNK2v88internal8compiler9Operator1INS1_15SparseInputMaskENS1_9OpEqualToIS3_EENS1_6OpHashIS3_EEE6EqualsEPKNS1_8OperatorE to i8*), i8* bitcast (i64 (%"class.v8::internal::compiler::Operator1.119"*)* @_ZNK2v88internal8compiler9Operator1INS1_15SparseInputMaskENS1_9OpEqualToIS3_EENS1_6OpHashIS3_EEE8HashCodeEv to i8*), i8* bitcast (void (%"class.v8::internal::compiler::Operator1.119"*, %"class.std::__1::basic_ostream"*, i32)* @_ZNK2v88internal8compiler9Operator1INS1_15SparseInputMaskENS1_9OpEqualToIS3_EENS1_6OpHashIS3_EEE11PrintToImplERNSt3__113basic_ostreamIcNS9_11char_traitsIcEEEENS1_8Operator14PrintVerbosityE to i8*), i8* bitcast (void (%"class.v8::internal::compiler::Operator1.119"*, %"class.std::__1::basic_ostream"*, i32)* @_ZNK2v88internal8compiler9Operator1INS1_15SparseInputMaskENS1_9OpEqualToIS3_EENS1_6OpHashIS3_EEE14PrintParameterERNSt3__113basic_ostreamIcNS9_11char_traitsIcEEEENS1_8Operator14PrintVerbosityE to i8*)] }, comdat, align 8
@_ZTVN2v88internal8compiler25CommonOperatorGlobalCache19StateValuesOperatorILi8EEE = linkonce_odr hidden unnamed_addr constant { [8 x i8*] } { [8 x i8*] [i8* null, i8* null, i8* bitcast (void (%"class.v8::internal::compiler::Operator"*)* @_ZN2v88internal8compiler8OperatorD2Ev to i8*), i8* bitcast (void (%"struct.v8::internal::compiler::CommonOperatorGlobalCache::StateValuesOperator.133"*)* @_ZN2v88internal8compiler25CommonOperatorGlobalCache19StateValuesOperatorILi8EED0Ev to i8*), i8* bitcast (i1 (%"class.v8::internal::compiler::Operator1.119"*, %"class.v8::internal::compiler::Operator"*)* @_ZNK2v88internal8compiler9Operator1INS1_15SparseInputMaskENS1_9OpEqualToIS3_EENS1_6OpHashIS3_EEE6EqualsEPKNS1_8OperatorE to i8*), i8* bitcast (i64 (%"class.v8::internal::compiler::Operator1.119"*)* @_ZNK2v88internal8compiler9Operator1INS1_15SparseInputMaskENS1_9OpEqualToIS3_EENS1_6OpHashIS3_EEE8HashCodeEv to i8*), i8* bitcast (void (%"class.v8::internal::compiler::Operator1.119"*, %"class.std::__1::basic_ostream"*, i32)* @_ZNK2v88internal8compiler9Operator1INS1_15SparseInputMaskENS1_9OpEqualToIS3_EENS1_6OpHashIS3_EEE11PrintToImplERNSt3__113basic_ostreamIcNS9_11char_traitsIcEEEENS1_8Operator14PrintVerbosityE to i8*), i8* bitcast (void (%"class.v8::internal::compiler::Operator1.119"*, %"class.std::__1::basic_ostream"*, i32)* @_ZNK2v88internal8compiler9Operator1INS1_15SparseInputMaskENS1_9OpEqualToIS3_EENS1_6OpHashIS3_EEE14PrintParameterERNSt3__113basic_ostreamIcNS9_11char_traitsIcEEEENS1_8Operator14PrintVerbosityE to i8*)] }, comdat, align 8
@_ZTVN2v88internal8compiler25CommonOperatorGlobalCache19StateValuesOperatorILi10EEE = linkonce_odr hidden unnamed_addr constant { [8 x i8*] } { [8 x i8*] [i8* null, i8* null, i8* bitcast (void (%"class.v8::internal::compiler::Operator"*)* @_ZN2v88internal8compiler8OperatorD2Ev to i8*), i8* bitcast (void (%"struct.v8::internal::compiler::CommonOperatorGlobalCache::StateValuesOperator.134"*)* @_ZN2v88internal8compiler25CommonOperatorGlobalCache19StateValuesOperatorILi10EED0Ev to i8*), i8* bitcast (i1 (%"class.v8::internal::compiler::Operator1.119"*, %"class.v8::internal::compiler::Operator"*)* @_ZNK2v88internal8compiler9Operator1INS1_15SparseInputMaskENS1_9OpEqualToIS3_EENS1_6OpHashIS3_EEE6EqualsEPKNS1_8OperatorE to i8*), i8* bitcast (i64 (%"class.v8::internal::compiler::Operator1.119"*)* @_ZNK2v88internal8compiler9Operator1INS1_15SparseInputMaskENS1_9OpEqualToIS3_EENS1_6OpHashIS3_EEE8HashCodeEv to i8*), i8* bitcast (void (%"class.v8::internal::compiler::Operator1.119"*, %"class.std::__1::basic_ostream"*, i32)* @_ZNK2v88internal8compiler9Operator1INS1_15SparseInputMaskENS1_9OpEqualToIS3_EENS1_6OpHashIS3_EEE11PrintToImplERNSt3__113basic_ostreamIcNS9_11char_traitsIcEEEENS1_8Operator14PrintVerbosityE to i8*), i8* bitcast (void (%"class.v8::internal::compiler::Operator1.119"*, %"class.std::__1::basic_ostream"*, i32)* @_ZNK2v88internal8compiler9Operator1INS1_15SparseInputMaskENS1_9OpEqualToIS3_EENS1_6OpHashIS3_EEE14PrintParameterERNSt3__113basic_ostreamIcNS9_11char_traitsIcEEEENS1_8Operator14PrintVerbosityE to i8*)] }, comdat, align 8
@_ZTVN2v88internal8compiler25CommonOperatorGlobalCache19StateValuesOperatorILi11EEE = linkonce_odr hidden unnamed_addr constant { [8 x i8*] } { [8 x i8*] [i8* null, i8* null, i8* bitcast (void (%"class.v8::internal::compiler::Operator"*)* @_ZN2v88internal8compiler8OperatorD2Ev to i8*), i8* bitcast (void (%"struct.v8::internal::compiler::CommonOperatorGlobalCache::StateValuesOperator.135"*)* @_ZN2v88internal8compiler25CommonOperatorGlobalCache19StateValuesOperatorILi11EED0Ev to i8*), i8* bitcast (i1 (%"class.v8::internal::compiler::Operator1.119"*, %"class.v8::internal::compiler::Operator"*)* @_ZNK2v88internal8compiler9Operator1INS1_15SparseInputMaskENS1_9OpEqualToIS3_EENS1_6OpHashIS3_EEE6EqualsEPKNS1_8OperatorE to i8*), i8* bitcast (i64 (%"class.v8::internal::compiler::Operator1.119"*)* @_ZNK2v88internal8compiler9Operator1INS1_15SparseInputMaskENS1_9OpEqualToIS3_EENS1_6OpHashIS3_EEE8HashCodeEv to i8*), i8* bitcast (void (%"class.v8::internal::compiler::Operator1.119"*, %"class.std::__1::basic_ostream"*, i32)* @_ZNK2v88internal8compiler9Operator1INS1_15SparseInputMaskENS1_9OpEqualToIS3_EENS1_6OpHashIS3_EEE11PrintToImplERNSt3__113basic_ostreamIcNS9_11char_traitsIcEEEENS1_8Operator14PrintVerbosityE to i8*), i8* bitcast (void (%"class.v8::internal::compiler::Operator1.119"*, %"class.std::__1::basic_ostream"*, i32)* @_ZNK2v88internal8compiler9Operator1INS1_15SparseInputMaskENS1_9OpEqualToIS3_EENS1_6OpHashIS3_EEE14PrintParameterERNSt3__113basic_ostreamIcNS9_11char_traitsIcEEEENS1_8Operator14PrintVerbosityE to i8*)] }, comdat, align 8
@_ZTVN2v88internal8compiler25CommonOperatorGlobalCache19StateValuesOperatorILi12EEE = linkonce_odr hidden unnamed_addr constant { [8 x i8*] } { [8 x i8*] [i8* null, i8* null, i8* bitcast (void (%"class.v8::internal::compiler::Operator"*)* @_ZN2v88internal8compiler8OperatorD2Ev to i8*), i8* bitcast (void (%"struct.v8::internal::compiler::CommonOperatorGlobalCache::StateValuesOperator.136"*)* @_ZN2v88internal8compiler25CommonOperatorGlobalCache19StateValuesOperatorILi12EED0Ev to i8*), i8* bitcast (i1 (%"class.v8::internal::compiler::Operator1.119"*, %"class.v8::internal::compiler::Operator"*)* @_ZNK2v88internal8compiler9Operator1INS1_15SparseInputMaskENS1_9OpEqualToIS3_EENS1_6OpHashIS3_EEE6EqualsEPKNS1_8OperatorE to i8*), i8* bitcast (i64 (%"class.v8::internal::compiler::Operator1.119"*)* @_ZNK2v88internal8compiler9Operator1INS1_15SparseInputMaskENS1_9OpEqualToIS3_EENS1_6OpHashIS3_EEE8HashCodeEv to i8*), i8* bitcast (void (%"class.v8::internal::compiler::Operator1.119"*, %"class.std::__1::basic_ostream"*, i32)* @_ZNK2v88internal8compiler9Operator1INS1_15SparseInputMaskENS1_9OpEqualToIS3_EENS1_6OpHashIS3_EEE11PrintToImplERNSt3__113basic_ostreamIcNS9_11char_traitsIcEEEENS1_8Operator14PrintVerbosityE to i8*), i8* bitcast (void (%"class.v8::internal::compiler::Operator1.119"*, %"class.std::__1::basic_ostream"*, i32)* @_ZNK2v88internal8compiler9Operator1INS1_15SparseInputMaskENS1_9OpEqualToIS3_EENS1_6OpHashIS3_EEE14PrintParameterERNSt3__113basic_ostreamIcNS9_11char_traitsIcEEEENS1_8Operator14PrintVerbosityE to i8*)] }, comdat, align 8
@_ZTVN2v88internal8compiler25CommonOperatorGlobalCache19StateValuesOperatorILi13EEE = linkonce_odr hidden unnamed_addr constant { [8 x i8*] } { [8 x i8*] [i8* null, i8* null, i8* bitcast (void (%"class.v8::internal::compiler::Operator"*)* @_ZN2v88internal8compiler8OperatorD2Ev to i8*), i8* bitcast (void (%"struct.v8::internal::compiler::CommonOperatorGlobalCache::StateValuesOperator.137"*)* @_ZN2v88internal8compiler25CommonOperatorGlobalCache19StateValuesOperatorILi13EED0Ev to i8*), i8* bitcast (i1 (%"class.v8::internal::compiler::Operator1.119"*, %"class.v8::internal::compiler::Operator"*)* @_ZNK2v88internal8compiler9Operator1INS1_15SparseInputMaskENS1_9OpEqualToIS3_EENS1_6OpHashIS3_EEE6EqualsEPKNS1_8OperatorE to i8*), i8* bitcast (i64 (%"class.v8::internal::compiler::Operator1.119"*)* @_ZNK2v88internal8compiler9Operator1INS1_15SparseInputMaskENS1_9OpEqualToIS3_EENS1_6OpHashIS3_EEE8HashCodeEv to i8*), i8* bitcast (void (%"class.v8::internal::compiler::Operator1.119"*, %"class.std::__1::basic_ostream"*, i32)* @_ZNK2v88internal8compiler9Operator1INS1_15SparseInputMaskENS1_9OpEqualToIS3_EENS1_6OpHashIS3_EEE11PrintToImplERNSt3__113basic_ostreamIcNS9_11char_traitsIcEEEENS1_8Operator14PrintVerbosityE to i8*), i8* bitcast (void (%"class.v8::internal::compiler::Operator1.119"*, %"class.std::__1::basic_ostream"*, i32)* @_ZNK2v88internal8compiler9Operator1INS1_15SparseInputMaskENS1_9OpEqualToIS3_EENS1_6OpHashIS3_EEE14PrintParameterERNSt3__113basic_ostreamIcNS9_11char_traitsIcEEEENS1_8Operator14PrintVerbosityE to i8*)] }, comdat, align 8
@_ZTVN2v88internal8compiler25CommonOperatorGlobalCache19StateValuesOperatorILi14EEE = linkonce_odr hidden unnamed_addr constant { [8 x i8*] } { [8 x i8*] [i8* null, i8* null, i8* bitcast (void (%"class.v8::internal::compiler::Operator"*)* @_ZN2v88internal8compiler8OperatorD2Ev to i8*), i8* bitcast (void (%"struct.v8::internal::compiler::CommonOperatorGlobalCache::StateValuesOperator.138"*)* @_ZN2v88internal8compiler25CommonOperatorGlobalCache19StateValuesOperatorILi14EED0Ev to i8*), i8* bitcast (i1 (%"class.v8::internal::compiler::Operator1.119"*, %"class.v8::internal::compiler::Operator"*)* @_ZNK2v88internal8compiler9Operator1INS1_15SparseInputMaskENS1_9OpEqualToIS3_EENS1_6OpHashIS3_EEE6EqualsEPKNS1_8OperatorE to i8*), i8* bitcast (i64 (%"class.v8::internal::compiler::Operator1.119"*)* @_ZNK2v88internal8compiler9Operator1INS1_15SparseInputMaskENS1_9OpEqualToIS3_EENS1_6OpHashIS3_EEE8HashCodeEv to i8*), i8* bitcast (void (%"class.v8::internal::compiler::Operator1.119"*, %"class.std::__1::basic_ostream"*, i32)* @_ZNK2v88internal8compiler9Operator1INS1_15SparseInputMaskENS1_9OpEqualToIS3_EENS1_6OpHashIS3_EEE11PrintToImplERNSt3__113basic_ostreamIcNS9_11char_traitsIcEEEENS1_8Operator14PrintVerbosityE to i8*), i8* bitcast (void (%"class.v8::internal::compiler::Operator1.119"*, %"class.std::__1::basic_ostream"*, i32)* @_ZNK2v88internal8compiler9Operator1INS1_15SparseInputMaskENS1_9OpEqualToIS3_EENS1_6OpHashIS3_EEE14PrintParameterERNSt3__113basic_ostreamIcNS9_11char_traitsIcEEEENS1_8Operator14PrintVerbosityE to i8*)] }, comdat, align 8
@_ZNSt3__15ctypeIcE2idE = external global %"class.std::__1::locale::id", align 8
@_ZTVN2v88internal8compiler9Operator1IPKNS0_18StringConstantBaseENS1_9OpEqualToIS5_EENS1_6OpHashIS5_EEEE = linkonce_odr hidden unnamed_addr constant { [8 x i8*] } { [8 x i8*] [i8* null, i8* null, i8* bitcast (void (%"class.v8::internal::compiler::Operator"*)* @_ZN2v88internal8compiler8OperatorD2Ev to i8*), i8* bitcast (void (%"class.v8::internal::compiler::Operator1.148"*)* @_ZN2v88internal8compiler9Operator1IPKNS0_18StringConstantBaseENS1_9OpEqualToIS5_EENS1_6OpHashIS5_EEED0Ev to i8*), i8* bitcast (i1 (%"class.v8::internal::compiler::Operator1.148"*, %"class.v8::internal::compiler::Operator"*)* @_ZNK2v88internal8compiler9Operator1IPKNS0_18StringConstantBaseENS1_9OpEqualToIS5_EENS1_6OpHashIS5_EEE6EqualsEPKNS1_8OperatorE to i8*), i8* bitcast (i64 (%"class.v8::internal::compiler::Operator1.148"*)* @_ZNK2v88internal8compiler9Operator1IPKNS0_18StringConstantBaseENS1_9OpEqualToIS5_EENS1_6OpHashIS5_EEE8HashCodeEv to i8*), i8* bitcast (void (%"class.v8::internal::compiler::Operator1.148"*, %"class.std::__1::basic_ostream"*, i32)* @_ZNK2v88internal8compiler9Operator1IPKNS0_18StringConstantBaseENS1_9OpEqualToIS5_EENS1_6OpHashIS5_EEE11PrintToImplERNSt3__113basic_ostreamIcNSB_11char_traitsIcEEEENS1_8Operator14PrintVerbosityE to i8*), i8* bitcast (void (%"class.v8::internal::compiler::Operator1.148"*, %"class.std::__1::basic_ostream"*, i32)* @_ZNK2v88internal8compiler9Operator1IPKNS0_18StringConstantBaseENS1_9OpEqualToIS5_EENS1_6OpHashIS5_EEE14PrintParameterERNSt3__113basic_ostreamIcNSB_11char_traitsIcEEEENS1_8Operator14PrintVerbosityE to i8*)] }, comdat, align 8
@_ZTVN2v88internal8compiler9Operator1IPKcNS1_9OpEqualToIS4_EENS1_6OpHashIS4_EEEE = linkonce_odr hidden unnamed_addr constant { [8 x i8*] } { [8 x i8*] [i8* null, i8* null, i8* bitcast (void (%"class.v8::internal::compiler::Operator"*)* @_ZN2v88internal8compiler8OperatorD2Ev to i8*), i8* bitcast (void (%"class.v8::internal::compiler::Operator1.160"*)* @_ZN2v88internal8compiler9Operator1IPKcNS1_9OpEqualToIS4_EENS1_6OpHashIS4_EEED0Ev to i8*), i8* bitcast (i1 (%"class.v8::internal::compiler::Operator1.160"*, %"class.v8::internal::compiler::Operator"*)* @_ZNK2v88internal8compiler9Operator1IPKcNS1_9OpEqualToIS4_EENS1_6OpHashIS4_EEE6EqualsEPKNS1_8OperatorE to i8*), i8* bitcast (i64 (%"class.v8::internal::compiler::Operator1.160"*)* @_ZNK2v88internal8compiler9Operator1IPKcNS1_9OpEqualToIS4_EENS1_6OpHashIS4_EEE8HashCodeEv to i8*), i8* bitcast (void (%"class.v8::internal::compiler::Operator1.160"*, %"class.std::__1::basic_ostream"*, i32)* @_ZNK2v88internal8compiler9Operator1IPKcNS1_9OpEqualToIS4_EENS1_6OpHashIS4_EEE11PrintToImplERNSt3__113basic_ostreamIcNSA_11char_traitsIcEEEENS1_8Operator14PrintVerbosityE to i8*), i8* bitcast (void (%"class.v8::internal::compiler::Operator1.160"*, %"class.std::__1::basic_ostream"*, i32)* @_ZNK2v88internal8compiler9Operator1IPKcNS1_9OpEqualToIS4_EENS1_6OpHashIS4_EEE14PrintParameterERNSt3__113basic_ostreamIcNSA_11char_traitsIcEEEENS1_8Operator14PrintVerbosityE to i8*)] }, comdat, align 8
@_ZTVN2v88internal8compiler9Operator1INS1_17IfValueParametersENS1_9OpEqualToIS3_EENS1_6OpHashIS3_EEEE = linkonce_odr hidden unnamed_addr constant { [8 x i8*] } { [8 x i8*] [i8* null, i8* null, i8* bitcast (void (%"class.v8::internal::compiler::Operator"*)* @_ZN2v88internal8compiler8OperatorD2Ev to i8*), i8* bitcast (void (%"class.v8::internal::compiler::Operator1.167"*)* @_ZN2v88internal8compiler9Operator1INS1_17IfValueParametersENS1_9OpEqualToIS3_EENS1_6OpHashIS3_EEED0Ev to i8*), i8* bitcast (i1 (%"class.v8::internal::compiler::Operator1.167"*, %"class.v8::internal::compiler::Operator"*)* @_ZNK2v88internal8compiler9Operator1INS1_17IfValueParametersENS1_9OpEqualToIS3_EENS1_6OpHashIS3_EEE6EqualsEPKNS1_8OperatorE to i8*), i8* bitcast (i64 (%"class.v8::internal::compiler::Operator1.167"*)* @_ZNK2v88internal8compiler9Operator1INS1_17IfValueParametersENS1_9OpEqualToIS3_EENS1_6OpHashIS3_EEE8HashCodeEv to i8*), i8* bitcast (void (%"class.v8::internal::compiler::Operator1.167"*, %"class.std::__1::basic_ostream"*, i32)* @_ZNK2v88internal8compiler9Operator1INS1_17IfValueParametersENS1_9OpEqualToIS3_EENS1_6OpHashIS3_EEE11PrintToImplERNSt3__113basic_ostreamIcNS9_11char_traitsIcEEEENS1_8Operator14PrintVerbosityE to i8*), i8* bitcast (void (%"class.v8::internal::compiler::Operator1.167"*, %"class.std::__1::basic_ostream"*, i32)* @_ZNK2v88internal8compiler9Operator1INS1_17IfValueParametersENS1_9OpEqualToIS3_EENS1_6OpHashIS3_EEE14PrintParameterERNSt3__113basic_ostreamIcNS9_11char_traitsIcEEEENS1_8Operator14PrintVerbosityE to i8*)] }, comdat, align 8
@_ZTVN2v88internal8compiler9Operator1INS1_10BranchHintENS1_9OpEqualToIS3_EENS1_6OpHashIS3_EEEE = linkonce_odr hidden unnamed_addr constant { [8 x i8*] } { [8 x i8*] [i8* null, i8* null, i8* bitcast (void (%"class.v8::internal::compiler::Operator"*)* @_ZN2v88internal8compiler8OperatorD2Ev to i8*), i8* bitcast (void (%"class.v8::internal::compiler::Operator1.174"*)* @_ZN2v88internal8compiler9Operator1INS1_10BranchHintENS1_9OpEqualToIS3_EENS1_6OpHashIS3_EEED0Ev to i8*), i8* bitcast (i1 (%"class.v8::internal::compiler::Operator1.174"*, %"class.v8::internal::compiler::Operator"*)* @_ZNK2v88internal8compiler9Operator1INS1_10BranchHintENS1_9OpEqualToIS3_EENS1_6OpHashIS3_EEE6EqualsEPKNS1_8OperatorE to i8*), i8* bitcast (i64 (%"class.v8::internal::compiler::Operator1.174"*)* @_ZNK2v88internal8compiler9Operator1INS1_10BranchHintENS1_9OpEqualToIS3_EENS1_6OpHashIS3_EEE8HashCodeEv to i8*), i8* bitcast (void (%"class.v8::internal::compiler::Operator1.174"*, %"class.std::__1::basic_ostream"*, i32)* @_ZNK2v88internal8compiler9Operator1INS1_10BranchHintENS1_9OpEqualToIS3_EENS1_6OpHashIS3_EEE11PrintToImplERNSt3__113basic_ostreamIcNS9_11char_traitsIcEEEENS1_8Operator14PrintVerbosityE to i8*), i8* bitcast (void (%"class.v8::internal::compiler::Operator1.174"*, %"class.std::__1::basic_ostream"*, i32)* @_ZNK2v88internal8compiler9Operator1INS1_10BranchHintENS1_9OpEqualToIS3_EENS1_6OpHashIS3_EEE14PrintParameterERNSt3__113basic_ostreamIcNS9_11char_traitsIcEEEENS1_8Operator14PrintVerbosityE to i8*)] }, comdat, align 8
@_ZTVN2v88internal8compiler9Operator1IiNS1_9OpEqualToIiEENS1_6OpHashIiEEEE = linkonce_odr hidden unnamed_addr constant { [8 x i8*] } { [8 x i8*] [i8* null, i8* null, i8* bitcast (void (%"class.v8::internal::compiler::Operator"*)* @_ZN2v88internal8compiler8OperatorD2Ev to i8*), i8* bitcast (void (%"class.v8::internal::compiler::Operator1.181"*)* @_ZN2v88internal8compiler9Operator1IiNS1_9OpEqualToIiEENS1_6OpHashIiEEED0Ev to i8*), i8* bitcast (i1 (%"class.v8::internal::compiler::Operator1.181"*, %"class.v8::internal::compiler::Operator"*)* @_ZNK2v88internal8compiler9Operator1IiNS1_9OpEqualToIiEENS1_6OpHashIiEEE6EqualsEPKNS1_8OperatorE to i8*), i8* bitcast (i64 (%"class.v8::internal::compiler::Operator1.181"*)* @_ZNK2v88internal8compiler9Operator1IiNS1_9OpEqualToIiEENS1_6OpHashIiEEE8HashCodeEv to i8*), i8* bitcast (void (%"class.v8::internal::compiler::Operator1.181"*, %"class.std::__1::basic_ostream"*, i32)* @_ZNK2v88internal8compiler9Operator1IiNS1_9OpEqualToIiEENS1_6OpHashIiEEE11PrintToImplERNSt3__113basic_ostreamIcNS8_11char_traitsIcEEEENS1_8Operator14PrintVerbosityE to i8*), i8* bitcast (void (%"class.v8::internal::compiler::Operator1.181"*, %"class.std::__1::basic_ostream"*, i32)* @_ZNK2v88internal8compiler9Operator1IiNS1_9OpEqualToIiEENS1_6OpHashIiEEE14PrintParameterERNSt3__113basic_ostreamIcNS8_11char_traitsIcEEEENS1_8Operator14PrintVerbosityE to i8*)] }, comdat, align 8
@_ZTVN2v88internal8compiler9Operator1IlNS1_9OpEqualToIlEENS1_6OpHashIlEEEE = linkonce_odr hidden unnamed_addr constant { [8 x i8*] } { [8 x i8*] [i8* null, i8* null, i8* bitcast (void (%"class.v8::internal::compiler::Operator"*)* @_ZN2v88internal8compiler8OperatorD2Ev to i8*), i8* bitcast (void (%"class.v8::internal::compiler::Operator1.188"*)* @_ZN2v88internal8compiler9Operator1IlNS1_9OpEqualToIlEENS1_6OpHashIlEEED0Ev to i8*), i8* bitcast (i1 (%"class.v8::internal::compiler::Operator1.188"*, %"class.v8::internal::compiler::Operator"*)* @_ZNK2v88internal8compiler9Operator1IlNS1_9OpEqualToIlEENS1_6OpHashIlEEE6EqualsEPKNS1_8OperatorE to i8*), i8* bitcast (i64 (%"class.v8::internal::compiler::Operator1.188"*)* @_ZNK2v88internal8compiler9Operator1IlNS1_9OpEqualToIlEENS1_6OpHashIlEEE8HashCodeEv to i8*), i8* bitcast (void (%"class.v8::internal::compiler::Operator1.188"*, %"class.std::__1::basic_ostream"*, i32)* @_ZNK2v88internal8compiler9Operator1IlNS1_9OpEqualToIlEENS1_6OpHashIlEEE11PrintToImplERNSt3__113basic_ostreamIcNS8_11char_traitsIcEEEENS1_8Operator14PrintVerbosityE to i8*), i8* bitcast (void (%"class.v8::internal::compiler::Operator1.188"*, %"class.std::__1::basic_ostream"*, i32)* @_ZNK2v88internal8compiler9Operator1IlNS1_9OpEqualToIlEENS1_6OpHashIlEEE14PrintParameterERNSt3__113basic_ostreamIcNS8_11char_traitsIcEEEENS1_8Operator14PrintVerbosityE to i8*)] }, comdat, align 8
@_ZTVN2v88internal8compiler9Operator1IfNS1_9OpEqualToIfEENS1_6OpHashIfEEEE = linkonce_odr hidden unnamed_addr constant { [8 x i8*] } { [8 x i8*] [i8* null, i8* null, i8* bitcast (void (%"class.v8::internal::compiler::Operator"*)* @_ZN2v88internal8compiler8OperatorD2Ev to i8*), i8* bitcast (void (%"class.v8::internal::compiler::Operator1.195"*)* @_ZN2v88internal8compiler9Operator1IfNS1_9OpEqualToIfEENS1_6OpHashIfEEED0Ev to i8*), i8* bitcast (i1 (%"class.v8::internal::compiler::Operator1.195"*, %"class.v8::internal::compiler::Operator"*)* @_ZNK2v88internal8compiler9Operator1IfNS1_9OpEqualToIfEENS1_6OpHashIfEEE6EqualsEPKNS1_8OperatorE to i8*), i8* bitcast (i64 (%"class.v8::internal::compiler::Operator1.195"*)* @_ZNK2v88internal8compiler9Operator1IfNS1_9OpEqualToIfEENS1_6OpHashIfEEE8HashCodeEv to i8*), i8* bitcast (void (%"class.v8::internal::compiler::Operator1.195"*, %"class.std::__1::basic_ostream"*, i32)* @_ZNK2v88internal8compiler9Operator1IfNS1_9OpEqualToIfEENS1_6OpHashIfEEE11PrintToImplERNSt3__113basic_ostreamIcNS8_11char_traitsIcEEEENS1_8Operator14PrintVerbosityE to i8*), i8* bitcast (void (%"class.v8::internal::compiler::Operator1.195"*, %"class.std::__1::basic_ostream"*, i32)* @_ZNK2v88internal8compiler9Operator1IfNS1_9OpEqualToIfEENS1_6OpHashIfEEE14PrintParameterERNSt3__113basic_ostreamIcNS8_11char_traitsIcEEEENS1_8Operator14PrintVerbosityE to i8*)] }, comdat, align 8
@_ZTVN2v88internal8compiler9Operator1IdNS1_9OpEqualToIdEENS1_6OpHashIdEEEE = linkonce_odr hidden unnamed_addr constant { [8 x i8*] } { [8 x i8*] [i8* null, i8* null, i8* bitcast (void (%"class.v8::internal::compiler::Operator"*)* @_ZN2v88internal8compiler8OperatorD2Ev to i8*), i8* bitcast (void (%"class.v8::internal::compiler::Operator1.199"*)* @_ZN2v88internal8compiler9Operator1IdNS1_9OpEqualToIdEENS1_6OpHashIdEEED0Ev to i8*), i8* bitcast (i1 (%"class.v8::internal::compiler::Operator1.199"*, %"class.v8::internal::compiler::Operator"*)* @_ZNK2v88internal8compiler9Operator1IdNS1_9OpEqualToIdEENS1_6OpHashIdEEE6EqualsEPKNS1_8OperatorE to i8*), i8* bitcast (i64 (%"class.v8::internal::compiler::Operator1.199"*)* @_ZNK2v88internal8compiler9Operator1IdNS1_9OpEqualToIdEENS1_6OpHashIdEEE8HashCodeEv to i8*), i8* bitcast (void (%"class.v8::internal::compiler::Operator1.199"*, %"class.std::__1::basic_ostream"*, i32)* @_ZNK2v88internal8compiler9Operator1IdNS1_9OpEqualToIdEENS1_6OpHashIdEEE11PrintToImplERNSt3__113basic_ostreamIcNS8_11char_traitsIcEEEENS1_8Operator14PrintVerbosityE to i8*), i8* bitcast (void (%"class.v8::internal::compiler::Operator1.199"*, %"class.std::__1::basic_ostream"*, i32)* @_ZNK2v88internal8compiler9Operator1IdNS1_9OpEqualToIdEENS1_6OpHashIdEEE14PrintParameterERNSt3__113basic_ostreamIcNS8_11char_traitsIcEEEENS1_8Operator14PrintVerbosityE to i8*)] }, comdat, align 8
@_ZTVN2v88internal8compiler9Operator1INS0_17ExternalReferenceENS1_9OpEqualToIS3_EENS1_6OpHashIS3_EEEE = linkonce_odr hidden unnamed_addr constant { [8 x i8*] } { [8 x i8*] [i8* null, i8* null, i8* bitcast (void (%"class.v8::internal::compiler::Operator"*)* @_ZN2v88internal8compiler8OperatorD2Ev to i8*), i8* bitcast (void (%"class.v8::internal::compiler::Operator1.205"*)* @_ZN2v88internal8compiler9Operator1INS0_17ExternalReferenceENS1_9OpEqualToIS3_EENS1_6OpHashIS3_EEED0Ev to i8*), i8* bitcast (i1 (%"class.v8::internal::compiler::Operator1.205"*, %"class.v8::internal::compiler::Operator"*)* @_ZNK2v88internal8compiler9Operator1INS0_17ExternalReferenceENS1_9OpEqualToIS3_EENS1_6OpHashIS3_EEE6EqualsEPKNS1_8OperatorE to i8*), i8* bitcast (i64 (%"class.v8::internal::compiler::Operator1.205"*)* @_ZNK2v88internal8compiler9Operator1INS0_17ExternalReferenceENS1_9OpEqualToIS3_EENS1_6OpHashIS3_EEE8HashCodeEv to i8*), i8* bitcast (void (%"class.v8::internal::compiler::Operator1.205"*, %"class.std::__1::basic_ostream"*, i32)* @_ZNK2v88internal8compiler9Operator1INS0_17ExternalReferenceENS1_9OpEqualToIS3_EENS1_6OpHashIS3_EEE11PrintToImplERNSt3__113basic_ostreamIcNS9_11char_traitsIcEEEENS1_8Operator14PrintVerbosityE to i8*), i8* bitcast (void (%"class.v8::internal::compiler::Operator1.205"*, %"class.std::__1::basic_ostream"*, i32)* @_ZNK2v88internal8compiler9Operator1INS0_17ExternalReferenceENS1_9OpEqualToIS3_EENS1_6OpHashIS3_EEE14PrintParameterERNSt3__113basic_ostreamIcNS9_11char_traitsIcEEEENS1_8Operator14PrintVerbosityE to i8*)] }, comdat, align 8
@_ZTVN2v88internal8compiler9Operator1INS0_6HandleINS0_10HeapObjectEEENS1_9OpEqualToIS5_EENS1_6OpHashIS5_EEEE = linkonce_odr hidden unnamed_addr constant { [8 x i8*] } { [8 x i8*] [i8* null, i8* null, i8* bitcast (void (%"class.v8::internal::compiler::Operator"*)* @_ZN2v88internal8compiler8OperatorD2Ev to i8*), i8* bitcast (void (%"class.v8::internal::compiler::Operator1.213"*)* @_ZN2v88internal8compiler9Operator1INS0_6HandleINS0_10HeapObjectEEENS1_9OpEqualToIS5_EENS1_6OpHashIS5_EEED0Ev to i8*), i8* bitcast (i1 (%"class.v8::internal::compiler::Operator1.213"*, %"class.v8::internal::compiler::Operator"*)* @_ZNK2v88internal8compiler9Operator1INS0_6HandleINS0_10HeapObjectEEENS1_9OpEqualToIS5_EENS1_6OpHashIS5_EEE6EqualsEPKNS1_8OperatorE to i8*), i8* bitcast (i64 (%"class.v8::internal::compiler::Operator1.213"*)* @_ZNK2v88internal8compiler9Operator1INS0_6HandleINS0_10HeapObjectEEENS1_9OpEqualToIS5_EENS1_6OpHashIS5_EEE8HashCodeEv to i8*), i8* bitcast (void (%"class.v8::internal::compiler::Operator1.213"*, %"class.std::__1::basic_ostream"*, i32)* @_ZNK2v88internal8compiler9Operator1INS0_6HandleINS0_10HeapObjectEEENS1_9OpEqualToIS5_EENS1_6OpHashIS5_EEE11PrintToImplERNSt3__113basic_ostreamIcNSB_11char_traitsIcEEEENS1_8Operator14PrintVerbosityE to i8*), i8* bitcast (void (%"class.v8::internal::compiler::Operator1.213"*, %"class.std::__1::basic_ostream"*, i32)* @_ZNK2v88internal8compiler9Operator1INS0_6HandleINS0_10HeapObjectEEENS1_9OpEqualToIS5_EENS1_6OpHashIS5_EEE14PrintParameterERNSt3__113basic_ostreamIcNSB_11char_traitsIcEEEENS1_8Operator14PrintVerbosityE to i8*)] }, comdat, align 8
@_ZTVN2v88internal8compiler9Operator1INS1_26RelocatablePtrConstantInfoENS1_9OpEqualToIS3_EENS1_6OpHashIS3_EEEE = linkonce_odr hidden unnamed_addr constant { [8 x i8*] } { [8 x i8*] [i8* null, i8* null, i8* bitcast (void (%"class.v8::internal::compiler::Operator"*)* @_ZN2v88internal8compiler8OperatorD2Ev to i8*), i8* bitcast (void (%"class.v8::internal::compiler::Operator1.217"*)* @_ZN2v88internal8compiler9Operator1INS1_26RelocatablePtrConstantInfoENS1_9OpEqualToIS3_EENS1_6OpHashIS3_EEED0Ev to i8*), i8* bitcast (i1 (%"class.v8::internal::compiler::Operator1.217"*, %"class.v8::internal::compiler::Operator"*)* @_ZNK2v88internal8compiler9Operator1INS1_26RelocatablePtrConstantInfoENS1_9OpEqualToIS3_EENS1_6OpHashIS3_EEE6EqualsEPKNS1_8OperatorE to i8*), i8* bitcast (i64 (%"class.v8::internal::compiler::Operator1.217"*)* @_ZNK2v88internal8compiler9Operator1INS1_26RelocatablePtrConstantInfoENS1_9OpEqualToIS3_EENS1_6OpHashIS3_EEE8HashCodeEv to i8*), i8* bitcast (void (%"class.v8::internal::compiler::Operator1.217"*, %"class.std::__1::basic_ostream"*, i32)* @_ZNK2v88internal8compiler9Operator1INS1_26RelocatablePtrConstantInfoENS1_9OpEqualToIS3_EENS1_6OpHashIS3_EEE11PrintToImplERNSt3__113basic_ostreamIcNS9_11char_traitsIcEEEENS1_8Operator14PrintVerbosityE to i8*), i8* bitcast (void (%"class.v8::internal::compiler::Operator1.217"*, %"class.std::__1::basic_ostream"*, i32)* @_ZNK2v88internal8compiler9Operator1INS1_26RelocatablePtrConstantInfoENS1_9OpEqualToIS3_EENS1_6OpHashIS3_EEE14PrintParameterERNSt3__113basic_ostreamIcNS9_11char_traitsIcEEEENS1_8Operator14PrintVerbosityE to i8*)] }, comdat, align 8
@_ZTVN2v88internal8compiler9Operator1IjNS1_9OpEqualToIjEENS1_6OpHashIjEEEE = linkonce_odr hidden unnamed_addr constant { [8 x i8*] } { [8 x i8*] [i8* null, i8* null, i8* bitcast (void (%"class.v8::internal::compiler::Operator"*)* @_ZN2v88internal8compiler8OperatorD2Ev to i8*), i8* bitcast (void (%"class.v8::internal::compiler::Operator1.224"*)* @_ZN2v88internal8compiler9Operator1IjNS1_9OpEqualToIjEENS1_6OpHashIjEEED0Ev to i8*), i8* bitcast (i1 (%"class.v8::internal::compiler::Operator1.224"*, %"class.v8::internal::compiler::Operator"*)* @_ZNK2v88internal8compiler9Operator1IjNS1_9OpEqualToIjEENS1_6OpHashIjEEE6EqualsEPKNS1_8OperatorE to i8*), i8* bitcast (i64 (%"class.v8::internal::compiler::Operator1.224"*)* @_ZNK2v88internal8compiler9Operator1IjNS1_9OpEqualToIjEENS1_6OpHashIjEEE8HashCodeEv to i8*), i8* bitcast (void (%"class.v8::internal::compiler::Operator1.224"*, %"class.std::__1::basic_ostream"*, i32)* @_ZNK2v88internal8compiler9Operator1IjNS1_9OpEqualToIjEENS1_6OpHashIjEEE11PrintToImplERNSt3__113basic_ostreamIcNS8_11char_traitsIcEEEENS1_8Operator14PrintVerbosityE to i8*), i8* bitcast (void (%"class.v8::internal::compiler::Operator1.224"*, %"class.std::__1::basic_ostream"*, i32)* @_ZNK2v88internal8compiler9Operator1IjNS1_9OpEqualToIjEENS1_6OpHashIjEEE14PrintParameterERNSt3__113basic_ostreamIcNS8_11char_traitsIcEEEENS1_8Operator14PrintVerbosityE to i8*)] }, comdat, align 8
@_ZTVN2v88internal8compiler9Operator1INS1_16SelectParametersENS1_9OpEqualToIS3_EENS1_6OpHashIS3_EEEE = linkonce_odr hidden unnamed_addr constant { [8 x i8*] } { [8 x i8*] [i8* null, i8* null, i8* bitcast (void (%"class.v8::internal::compiler::Operator"*)* @_ZN2v88internal8compiler8OperatorD2Ev to i8*), i8* bitcast (void (%"class.v8::internal::compiler::Operator1.231"*)* @_ZN2v88internal8compiler9Operator1INS1_16SelectParametersENS1_9OpEqualToIS3_EENS1_6OpHashIS3_EEED0Ev to i8*), i8* bitcast (i1 (%"class.v8::internal::compiler::Operator1.231"*, %"class.v8::internal::compiler::Operator"*)* @_ZNK2v88internal8compiler9Operator1INS1_16SelectParametersENS1_9OpEqualToIS3_EENS1_6OpHashIS3_EEE6EqualsEPKNS1_8OperatorE to i8*), i8* bitcast (i64 (%"class.v8::internal::compiler::Operator1.231"*)* @_ZNK2v88internal8compiler9Operator1INS1_16SelectParametersENS1_9OpEqualToIS3_EENS1_6OpHashIS3_EEE8HashCodeEv to i8*), i8* bitcast (void (%"class.v8::internal::compiler::Operator1.231"*, %"class.std::__1::basic_ostream"*, i32)* @_ZNK2v88internal8compiler9Operator1INS1_16SelectParametersENS1_9OpEqualToIS3_EENS1_6OpHashIS3_EEE11PrintToImplERNSt3__113basic_ostreamIcNS9_11char_traitsIcEEEENS1_8Operator14PrintVerbosityE to i8*), i8* bitcast (void (%"class.v8::internal::compiler::Operator1.231"*, %"class.std::__1::basic_ostream"*, i32)* @_ZNK2v88internal8compiler9Operator1INS1_16SelectParametersENS1_9OpEqualToIS3_EENS1_6OpHashIS3_EEE14PrintParameterERNSt3__113basic_ostreamIcNS9_11char_traitsIcEEEENS1_8Operator14PrintVerbosityE to i8*)] }, comdat, align 8
@_ZTVN2v88internal8compiler9Operator1INS1_4TypeENS1_9OpEqualToIS3_EENS1_6OpHashIS3_EEEE = linkonce_odr hidden unnamed_addr constant { [8 x i8*] } { [8 x i8*] [i8* null, i8* null, i8* bitcast (void (%"class.v8::internal::compiler::Operator"*)* @_ZN2v88internal8compiler8OperatorD2Ev to i8*), i8* bitcast (void (%"class.v8::internal::compiler::Operator1.237"*)* @_ZN2v88internal8compiler9Operator1INS1_4TypeENS1_9OpEqualToIS3_EENS1_6OpHashIS3_EEED0Ev to i8*), i8* bitcast (i1 (%"class.v8::internal::compiler::Operator1.237"*, %"class.v8::internal::compiler::Operator"*)* @_ZNK2v88internal8compiler9Operator1INS1_4TypeENS1_9OpEqualToIS3_EENS1_6OpHashIS3_EEE6EqualsEPKNS1_8OperatorE to i8*), i8* bitcast (i64 (%"class.v8::internal::compiler::Operator1.237"*)* @_ZNK2v88internal8compiler9Operator1INS1_4TypeENS1_9OpEqualToIS3_EENS1_6OpHashIS3_EEE8HashCodeEv to i8*), i8* bitcast (void (%"class.v8::internal::compiler::Operator1.237"*, %"class.std::__1::basic_ostream"*, i32)* @_ZNK2v88internal8compiler9Operator1INS1_4TypeENS1_9OpEqualToIS3_EENS1_6OpHashIS3_EEE11PrintToImplERNSt3__113basic_ostreamIcNS9_11char_traitsIcEEEENS1_8Operator14PrintVerbosityE to i8*), i8* bitcast (void (%"class.v8::internal::compiler::Operator1.237"*, %"class.std::__1::basic_ostream"*, i32)* @_ZNK2v88internal8compiler9Operator1INS1_4TypeENS1_9OpEqualToIS3_EENS1_6OpHashIS3_EEE14PrintParameterERNSt3__113basic_ostreamIcNS9_11char_traitsIcEEEENS1_8Operator14PrintVerbosityE to i8*)] }, comdat, align 8
@_ZTVN2v88internal8compiler9Operator1INS1_19TypedStateValueInfoENS1_9OpEqualToIS3_EENS1_6OpHashIS3_EEEE = linkonce_odr hidden unnamed_addr constant { [8 x i8*] } { [8 x i8*] [i8* null, i8* null, i8* bitcast (void (%"class.v8::internal::compiler::Operator"*)* @_ZN2v88internal8compiler8OperatorD2Ev to i8*), i8* bitcast (void (%"class.v8::internal::compiler::Operator1.244"*)* @_ZN2v88internal8compiler9Operator1INS1_19TypedStateValueInfoENS1_9OpEqualToIS3_EENS1_6OpHashIS3_EEED0Ev to i8*), i8* bitcast (i1 (%"class.v8::internal::compiler::Operator1.244"*, %"class.v8::internal::compiler::Operator"*)* @_ZNK2v88internal8compiler9Operator1INS1_19TypedStateValueInfoENS1_9OpEqualToIS3_EENS1_6OpHashIS3_EEE6EqualsEPKNS1_8OperatorE to i8*), i8* bitcast (i64 (%"class.v8::internal::compiler::Operator1.244"*)* @_ZNK2v88internal8compiler9Operator1INS1_19TypedStateValueInfoENS1_9OpEqualToIS3_EENS1_6OpHashIS3_EEE8HashCodeEv to i8*), i8* bitcast (void (%"class.v8::internal::compiler::Operator1.244"*, %"class.std::__1::basic_ostream"*, i32)* @_ZNK2v88internal8compiler9Operator1INS1_19TypedStateValueInfoENS1_9OpEqualToIS3_EENS1_6OpHashIS3_EEE11PrintToImplERNSt3__113basic_ostreamIcNS9_11char_traitsIcEEEENS1_8Operator14PrintVerbosityE to i8*), i8* bitcast (void (%"class.v8::internal::compiler::Operator1.244"*, %"class.std::__1::basic_ostream"*, i32)* @_ZNK2v88internal8compiler9Operator1INS1_19TypedStateValueInfoENS1_9OpEqualToIS3_EENS1_6OpHashIS3_EEE14PrintParameterERNSt3__113basic_ostreamIcNS9_11char_traitsIcEEEENS1_8Operator14PrintVerbosityE to i8*)] }, comdat, align 8
@_ZTVN2v88internal8compiler9Operator1INS0_19CreateArgumentsTypeENS1_9OpEqualToIS3_EENS1_6OpHashIS3_EEEE = linkonce_odr hidden unnamed_addr constant { [8 x i8*] } { [8 x i8*] [i8* null, i8* null, i8* bitcast (void (%"class.v8::internal::compiler::Operator"*)* @_ZN2v88internal8compiler8OperatorD2Ev to i8*), i8* bitcast (void (%"class.v8::internal::compiler::Operator1.251"*)* @_ZN2v88internal8compiler9Operator1INS0_19CreateArgumentsTypeENS1_9OpEqualToIS3_EENS1_6OpHashIS3_EEED0Ev to i8*), i8* bitcast (i1 (%"class.v8::internal::compiler::Operator1.251"*, %"class.v8::internal::compiler::Operator"*)* @_ZNK2v88internal8compiler9Operator1INS0_19CreateArgumentsTypeENS1_9OpEqualToIS3_EENS1_6OpHashIS3_EEE6EqualsEPKNS1_8OperatorE to i8*), i8* bitcast (i64 (%"class.v8::internal::compiler::Operator1.251"*)* @_ZNK2v88internal8compiler9Operator1INS0_19CreateArgumentsTypeENS1_9OpEqualToIS3_EENS1_6OpHashIS3_EEE8HashCodeEv to i8*), i8* bitcast (void (%"class.v8::internal::compiler::Operator1.251"*, %"class.std::__1::basic_ostream"*, i32)* @_ZNK2v88internal8compiler9Operator1INS0_19CreateArgumentsTypeENS1_9OpEqualToIS3_EENS1_6OpHashIS3_EEE11PrintToImplERNSt3__113basic_ostreamIcNS9_11char_traitsIcEEEENS1_8Operator14PrintVerbosityE to i8*), i8* bitcast (void (%"class.v8::internal::compiler::Operator1.251"*, %"class.std::__1::basic_ostream"*, i32)* @_ZNK2v88internal8compiler9Operator1INS0_19CreateArgumentsTypeENS1_9OpEqualToIS3_EENS1_6OpHashIS3_EEE14PrintParameterERNSt3__113basic_ostreamIcNS9_11char_traitsIcEEEENS1_8Operator14PrintVerbosityE to i8*)] }, comdat, align 8
@.str.106 = private unnamed_addr constant [17 x i8] c"MAPPED_ARGUMENTS\00", align 1
@.str.107 = private unnamed_addr constant [19 x i8] c"UNMAPPED_ARGUMENTS\00", align 1
@.str.108 = private unnamed_addr constant [15 x i8] c"REST_PARAMETER\00", align 1
@_ZTVN2v88internal8compiler9Operator1INS1_15ObjectStateInfoENS1_9OpEqualToIS3_EENS1_6OpHashIS3_EEEE = linkonce_odr hidden unnamed_addr constant { [8 x i8*] } { [8 x i8*] [i8* null, i8* null, i8* bitcast (void (%"class.v8::internal::compiler::Operator"*)* @_ZN2v88internal8compiler8OperatorD2Ev to i8*), i8* bitcast (void (%"class.v8::internal::compiler::Operator1.258"*)* @_ZN2v88internal8compiler9Operator1INS1_15ObjectStateInfoENS1_9OpEqualToIS3_EENS1_6OpHashIS3_EEED0Ev to i8*), i8* bitcast (i1 (%"class.v8::internal::compiler::Operator1.258"*, %"class.v8::internal::compiler::Operator"*)* @_ZNK2v88internal8compiler9Operator1INS1_15ObjectStateInfoENS1_9OpEqualToIS3_EENS1_6OpHashIS3_EEE6EqualsEPKNS1_8OperatorE to i8*), i8* bitcast (i64 (%"class.v8::internal::compiler::Operator1.258"*)* @_ZNK2v88internal8compiler9Operator1INS1_15ObjectStateInfoENS1_9OpEqualToIS3_EENS1_6OpHashIS3_EEE8HashCodeEv to i8*), i8* bitcast (void (%"class.v8::internal::compiler::Operator1.258"*, %"class.std::__1::basic_ostream"*, i32)* @_ZNK2v88internal8compiler9Operator1INS1_15ObjectStateInfoENS1_9OpEqualToIS3_EENS1_6OpHashIS3_EEE11PrintToImplERNSt3__113basic_ostreamIcNS9_11char_traitsIcEEEENS1_8Operator14PrintVerbosityE to i8*), i8* bitcast (void (%"class.v8::internal::compiler::Operator1.258"*, %"class.std::__1::basic_ostream"*, i32)* @_ZNK2v88internal8compiler9Operator1INS1_15ObjectStateInfoENS1_9OpEqualToIS3_EENS1_6OpHashIS3_EEE14PrintParameterERNSt3__113basic_ostreamIcNS9_11char_traitsIcEEEENS1_8Operator14PrintVerbosityE to i8*)] }, comdat, align 8
@_ZTVN2v88internal8compiler9Operator1INS1_20TypedObjectStateInfoENS1_9OpEqualToIS3_EENS1_6OpHashIS3_EEEE = linkonce_odr hidden unnamed_addr constant { [8 x i8*] } { [8 x i8*] [i8* null, i8* null, i8* bitcast (void (%"class.v8::internal::compiler::Operator"*)* @_ZN2v88internal8compiler8OperatorD2Ev to i8*), i8* bitcast (void (%"class.v8::internal::compiler::Operator1.265"*)* @_ZN2v88internal8compiler9Operator1INS1_20TypedObjectStateInfoENS1_9OpEqualToIS3_EENS1_6OpHashIS3_EEED0Ev to i8*), i8* bitcast (i1 (%"class.v8::internal::compiler::Operator1.265"*, %"class.v8::internal::compiler::Operator"*)* @_ZNK2v88internal8compiler9Operator1INS1_20TypedObjectStateInfoENS1_9OpEqualToIS3_EENS1_6OpHashIS3_EEE6EqualsEPKNS1_8OperatorE to i8*), i8* bitcast (i64 (%"class.v8::internal::compiler::Operator1.265"*)* @_ZNK2v88internal8compiler9Operator1INS1_20TypedObjectStateInfoENS1_9OpEqualToIS3_EENS1_6OpHashIS3_EEE8HashCodeEv to i8*), i8* bitcast (void (%"class.v8::internal::compiler::Operator1.265"*, %"class.std::__1::basic_ostream"*, i32)* @_ZNK2v88internal8compiler9Operator1INS1_20TypedObjectStateInfoENS1_9OpEqualToIS3_EENS1_6OpHashIS3_EEE11PrintToImplERNSt3__113basic_ostreamIcNS9_11char_traitsIcEEEENS1_8Operator14PrintVerbosityE to i8*), i8* bitcast (void (%"class.v8::internal::compiler::Operator1.265"*, %"class.std::__1::basic_ostream"*, i32)* @_ZNK2v88internal8compiler9Operator1INS1_20TypedObjectStateInfoENS1_9OpEqualToIS3_EENS1_6OpHashIS3_EEE14PrintParameterERNSt3__113basic_ostreamIcNS9_11char_traitsIcEEEENS1_8Operator14PrintVerbosityE to i8*)] }, comdat, align 8
@_ZTVN2v88internal8compiler9Operator1INS1_14FrameStateInfoENS1_9OpEqualToIS3_EENS1_6OpHashIS3_EEEE = linkonce_odr hidden unnamed_addr constant { [8 x i8*] } { [8 x i8*] [i8* null, i8* null, i8* bitcast (void (%"class.v8::internal::compiler::Operator"*)* @_ZN2v88internal8compiler8OperatorD2Ev to i8*), i8* bitcast (void (%"class.v8::internal::compiler::Operator1.273"*)* @_ZN2v88internal8compiler9Operator1INS1_14FrameStateInfoENS1_9OpEqualToIS3_EENS1_6OpHashIS3_EEED0Ev to i8*), i8* bitcast (i1 (%"class.v8::internal::compiler::Operator1.273"*, %"class.v8::internal::compiler::Operator"*)* @_ZNK2v88internal8compiler9Operator1INS1_14FrameStateInfoENS1_9OpEqualToIS3_EENS1_6OpHashIS3_EEE6EqualsEPKNS1_8OperatorE to i8*), i8* bitcast (i64 (%"class.v8::internal::compiler::Operator1.273"*)* @_ZNK2v88internal8compiler9Operator1INS1_14FrameStateInfoENS1_9OpEqualToIS3_EENS1_6OpHashIS3_EEE8HashCodeEv to i8*), i8* bitcast (void (%"class.v8::internal::compiler::Operator1.273"*, %"class.std::__1::basic_ostream"*, i32)* @_ZNK2v88internal8compiler9Operator1INS1_14FrameStateInfoENS1_9OpEqualToIS3_EENS1_6OpHashIS3_EEE11PrintToImplERNSt3__113basic_ostreamIcNS9_11char_traitsIcEEEENS1_8Operator14PrintVerbosityE to i8*), i8* bitcast (void (%"class.v8::internal::compiler::Operator1.273"*, %"class.std::__1::basic_ostream"*, i32)* @_ZNK2v88internal8compiler9Operator1INS1_14FrameStateInfoENS1_9OpEqualToIS3_EENS1_6OpHashIS3_EEE14PrintParameterERNSt3__113basic_ostreamIcNS9_11char_traitsIcEEEENS1_8Operator14PrintVerbosityE to i8*)] }, comdat, align 8
@.str.109 = private unnamed_addr constant [5 x i8] c"Call\00", align 1
@_ZTVZN2v88internal8compiler21CommonOperatorBuilder4CallEPKNS1_14CallDescriptorEE12CallOperator = internal unnamed_addr constant { [8 x i8*] } { [8 x i8*] [i8* null, i8* null, i8* bitcast (void (%"class.v8::internal::compiler::Operator"*)* @_ZN2v88internal8compiler8OperatorD2Ev to i8*), i8* bitcast (void (%class.CallOperator*)* @_ZZN2v88internal8compiler21CommonOperatorBuilder4CallEPKNS1_14CallDescriptorEEN12CallOperatorD0Ev to i8*), i8* bitcast (i1 (%"class.v8::internal::compiler::Operator1.280"*, %"class.v8::internal::compiler::Operator"*)* @_ZNK2v88internal8compiler9Operator1IPKNS1_14CallDescriptorENS1_9OpEqualToIS5_EENS1_6OpHashIS5_EEE6EqualsEPKNS1_8OperatorE to i8*), i8* bitcast (i64 (%"class.v8::internal::compiler::Operator1.280"*)* @_ZNK2v88internal8compiler9Operator1IPKNS1_14CallDescriptorENS1_9OpEqualToIS5_EENS1_6OpHashIS5_EEE8HashCodeEv to i8*), i8* bitcast (void (%"class.v8::internal::compiler::Operator1.280"*, %"class.std::__1::basic_ostream"*, i32)* @_ZNK2v88internal8compiler9Operator1IPKNS1_14CallDescriptorENS1_9OpEqualToIS5_EENS1_6OpHashIS5_EEE11PrintToImplERNSt3__113basic_ostreamIcNSB_11char_traitsIcEEEENS1_8Operator14PrintVerbosityE to i8*), i8* bitcast (void (%class.CallOperator*, %"class.std::__1::basic_ostream"*, i32)* @_ZZN2v88internal8compiler21CommonOperatorBuilder4CallEPKNS1_14CallDescriptorEENK12CallOperator14PrintParameterERNSt3__113basic_ostreamIcNS7_11char_traitsIcEEEENS1_8Operator14PrintVerbosityE to i8*)] }, align 8
@.str.110 = private unnamed_addr constant [9 x i8] c"TailCall\00", align 1
@_ZTVZN2v88internal8compiler21CommonOperatorBuilder8TailCallEPKNS1_14CallDescriptorEE16TailCallOperator = internal unnamed_addr constant { [8 x i8*] } { [8 x i8*] [i8* null, i8* null, i8* bitcast (void (%"class.v8::internal::compiler::Operator"*)* @_ZN2v88internal8compiler8OperatorD2Ev to i8*), i8* bitcast (void (%class.TailCallOperator*)* @_ZZN2v88internal8compiler21CommonOperatorBuilder8TailCallEPKNS1_14CallDescriptorEEN16TailCallOperatorD0Ev to i8*), i8* bitcast (i1 (%"class.v8::internal::compiler::Operator1.280"*, %"class.v8::internal::compiler::Operator"*)* @_ZNK2v88internal8compiler9Operator1IPKNS1_14CallDescriptorENS1_9OpEqualToIS5_EENS1_6OpHashIS5_EEE6EqualsEPKNS1_8OperatorE to i8*), i8* bitcast (i64 (%"class.v8::internal::compiler::Operator1.280"*)* @_ZNK2v88internal8compiler9Operator1IPKNS1_14CallDescriptorENS1_9OpEqualToIS5_EENS1_6OpHashIS5_EEE8HashCodeEv to i8*), i8* bitcast (void (%"class.v8::internal::compiler::Operator1.280"*, %"class.std::__1::basic_ostream"*, i32)* @_ZNK2v88internal8compiler9Operator1IPKNS1_14CallDescriptorENS1_9OpEqualToIS5_EENS1_6OpHashIS5_EEE11PrintToImplERNSt3__113basic_ostreamIcNSB_11char_traitsIcEEEENS1_8Operator14PrintVerbosityE to i8*), i8* bitcast (void (%class.TailCallOperator*, %"class.std::__1::basic_ostream"*, i32)* @_ZZN2v88internal8compiler21CommonOperatorBuilder8TailCallEPKNS1_14CallDescriptorEENK16TailCallOperator14PrintParameterERNSt3__113basic_ostreamIcNS7_11char_traitsIcEEEENS1_8Operator14PrintVerbosityE to i8*)] }, align 8

@_ZN2v88internal8compiler15SparseInputMask13InputIteratorC1EjPNS1_4NodeE = hidden unnamed_addr alias void (%"class.v8::internal::compiler::SparseInputMask::InputIterator"*, i32, %"class.v8::internal::compiler::Node"*), void (%"class.v8::internal::compiler::SparseInputMask::InputIterator"*, i32, %"class.v8::internal::compiler::Node"*)* @_ZN2v88internal8compiler15SparseInputMask13InputIteratorC2EjPNS1_4NodeE
@_ZN2v88internal8compiler21CommonOperatorBuilderC1EPNS0_4ZoneE = hidden unnamed_addr alias void (%"class.v8::internal::compiler::CommonOperatorBuilder"*, %"class.v8::internal::Zone"*), void (%"class.v8::internal::compiler::CommonOperatorBuilder"*, %"class.v8::internal::Zone"*)* @_ZN2v88internal8compiler21CommonOperatorBuilderC2EPNS0_4ZoneE

; Function Attrs: nounwind ssp uwtable
define hidden dereferenceable(160) %"class.std::__1::basic_ostream"* @_ZN2v88internal8compilerlsERNSt3__113basic_ostreamIcNS2_11char_traitsIcEEEENS1_10BranchHintE(%"class.std::__1::basic_ostream"* dereferenceable(160), i8 zeroext) local_unnamed_addr #0 {
  switch i8 %1, label %9 [
    i8 0, label %3
    i8 1, label %5
    i8 2, label %7
  ]

3:                                                ; preds = %2
  %4 = tail call dereferenceable(160) %"class.std::__1::basic_ostream"* @_ZNSt3__124__put_character_sequenceIcNS_11char_traitsIcEEEERNS_13basic_ostreamIT_T0_EES7_PKS4_m(%"class.std::__1::basic_ostream"* dereferenceable(160) %0, i8* getelementptr inbounds ([5 x i8], [5 x i8]* @.str, i64 0, i64 0), i64 4) #17
  br label %10

5:                                                ; preds = %2
  %6 = tail call dereferenceable(160) %"class.std::__1::basic_ostream"* @_ZNSt3__124__put_character_sequenceIcNS_11char_traitsIcEEEERNS_13basic_ostreamIT_T0_EES7_PKS4_m(%"class.std::__1::basic_ostream"* dereferenceable(160) %0, i8* getelementptr inbounds ([5 x i8], [5 x i8]* @.str.1, i64 0, i64 0), i64 4) #17
  br label %10

7:                                                ; preds = %2
  %8 = tail call dereferenceable(160) %"class.std::__1::basic_ostream"* @_ZNSt3__124__put_character_sequenceIcNS_11char_traitsIcEEEERNS_13basic_ostreamIT_T0_EES7_PKS4_m(%"class.std::__1::basic_ostream"* dereferenceable(160) %0, i8* getelementptr inbounds ([6 x i8], [6 x i8]* @.str.2, i64 0, i64 0), i64 5) #17
  br label %10

9:                                                ; preds = %2
  tail call void (i8*, ...) @_Z8V8_FatalPKcz(i8* getelementptr inbounds ([17 x i8], [17 x i8]* @.str.3, i64 0, i64 0)) #18
  unreachable

10:                                               ; preds = %7, %5, %3
  %11 = phi %"class.std::__1::basic_ostream"* [ %8, %7 ], [ %6, %5 ], [ %4, %3 ]
  ret %"class.std::__1::basic_ostream"* %11
}

; Function Attrs: noreturn
declare void @_Z8V8_FatalPKcz(i8*, ...) local_unnamed_addr #1

; Function Attrs: nounwind ssp uwtable
define hidden dereferenceable(160) %"class.std::__1::basic_ostream"* @_ZN2v88internal8compilerlsERNSt3__113basic_ostreamIcNS2_11char_traitsIcEEEENS1_13IsSafetyCheckE(%"class.std::__1::basic_ostream"* dereferenceable(160), i8 zeroext) local_unnamed_addr #0 {
  switch i8 %1, label %9 [
    i8 0, label %3
    i8 1, label %5
    i8 2, label %7
  ]

3:                                                ; preds = %2
  %4 = tail call dereferenceable(160) %"class.std::__1::basic_ostream"* @_ZNSt3__124__put_character_sequenceIcNS_11char_traitsIcEEEERNS_13basic_ostreamIT_T0_EES7_PKS4_m(%"class.std::__1::basic_ostream"* dereferenceable(160) %0, i8* getelementptr inbounds ([20 x i8], [20 x i8]* @.str.4, i64 0, i64 0), i64 19) #17
  br label %10

5:                                                ; preds = %2
  %6 = tail call dereferenceable(160) %"class.std::__1::basic_ostream"* @_ZNSt3__124__put_character_sequenceIcNS_11char_traitsIcEEEERNS_13basic_ostreamIT_T0_EES7_PKS4_m(%"class.std::__1::basic_ostream"* dereferenceable(160) %0, i8* getelementptr inbounds ([12 x i8], [12 x i8]* @.str.5, i64 0, i64 0), i64 11) #17
  br label %10

7:                                                ; preds = %2
  %8 = tail call dereferenceable(160) %"class.std::__1::basic_ostream"* @_ZNSt3__124__put_character_sequenceIcNS_11char_traitsIcEEEERNS_13basic_ostreamIT_T0_EES7_PKS4_m(%"class.std::__1::basic_ostream"* dereferenceable(160) %0, i8* getelementptr inbounds ([14 x i8], [14 x i8]* @.str.6, i64 0, i64 0), i64 13) #17
  br label %10

9:                                                ; preds = %2
  tail call void (i8*, ...) @_Z8V8_FatalPKcz(i8* getelementptr inbounds ([17 x i8], [17 x i8]* @.str.3, i64 0, i64 0)) #18
  unreachable

10:                                               ; preds = %7, %5, %3
  %11 = phi %"class.std::__1::basic_ostream"* [ %8, %7 ], [ %6, %5 ], [ %4, %3 ]
  ret %"class.std::__1::basic_ostream"* %11
}

; Function Attrs: nounwind ssp uwtable
define hidden dereferenceable(160) %"class.std::__1::basic_ostream"* @_ZN2v88internal8compilerlsERNSt3__113basic_ostreamIcNS2_11char_traitsIcEEEENS1_6TrapIdE(%"class.std::__1::basic_ostream"* dereferenceable(160), i32) local_unnamed_addr #0 {
  switch i32 %1, label %35 [
    i32 0, label %3
    i32 1, label %5
    i32 2, label %7
    i32 3, label %9
    i32 4, label %11
    i32 5, label %13
    i32 6, label %15
    i32 7, label %17
    i32 8, label %19
    i32 9, label %21
    i32 10, label %23
    i32 11, label %25
    i32 12, label %27
    i32 13, label %29
    i32 14, label %31
    i32 15, label %33
  ]

3:                                                ; preds = %2
  %4 = tail call dereferenceable(160) %"class.std::__1::basic_ostream"* @_ZNSt3__124__put_character_sequenceIcNS_11char_traitsIcEEEERNS_13basic_ostreamIT_T0_EES7_PKS4_m(%"class.std::__1::basic_ostream"* dereferenceable(160) %0, i8* getelementptr inbounds ([16 x i8], [16 x i8]* @.str.7, i64 0, i64 0), i64 15) #17
  br label %36

5:                                                ; preds = %2
  %6 = tail call dereferenceable(160) %"class.std::__1::basic_ostream"* @_ZNSt3__124__put_character_sequenceIcNS_11char_traitsIcEEEERNS_13basic_ostreamIT_T0_EES7_PKS4_m(%"class.std::__1::basic_ostream"* dereferenceable(160) %0, i8* getelementptr inbounds ([19 x i8], [19 x i8]* @.str.8, i64 0, i64 0), i64 18) #17
  br label %36

7:                                                ; preds = %2
  %8 = tail call dereferenceable(160) %"class.std::__1::basic_ostream"* @_ZNSt3__124__put_character_sequenceIcNS_11char_traitsIcEEEERNS_13basic_ostreamIT_T0_EES7_PKS4_m(%"class.std::__1::basic_ostream"* dereferenceable(160) %0, i8* getelementptr inbounds ([20 x i8], [20 x i8]* @.str.9, i64 0, i64 0), i64 19) #17
  br label %36

9:                                                ; preds = %2
  %10 = tail call dereferenceable(160) %"class.std::__1::basic_ostream"* @_ZNSt3__124__put_character_sequenceIcNS_11char_traitsIcEEEERNS_13basic_ostreamIT_T0_EES7_PKS4_m(%"class.std::__1::basic_ostream"* dereferenceable(160) %0, i8* getelementptr inbounds ([14 x i8], [14 x i8]* @.str.10, i64 0, i64 0), i64 13) #17
  br label %36

11:                                               ; preds = %2
  %12 = tail call dereferenceable(160) %"class.std::__1::basic_ostream"* @_ZNSt3__124__put_character_sequenceIcNS_11char_traitsIcEEEERNS_13basic_ostreamIT_T0_EES7_PKS4_m(%"class.std::__1::basic_ostream"* dereferenceable(160) %0, i8* getelementptr inbounds ([23 x i8], [23 x i8]* @.str.11, i64 0, i64 0), i64 22) #17
  br label %36

13:                                               ; preds = %2
  %14 = tail call dereferenceable(160) %"class.std::__1::basic_ostream"* @_ZNSt3__124__put_character_sequenceIcNS_11char_traitsIcEEEERNS_13basic_ostreamIT_T0_EES7_PKS4_m(%"class.std::__1::basic_ostream"* dereferenceable(160) %0, i8* getelementptr inbounds ([14 x i8], [14 x i8]* @.str.12, i64 0, i64 0), i64 13) #17
  br label %36

15:                                               ; preds = %2
  %16 = tail call dereferenceable(160) %"class.std::__1::basic_ostream"* @_ZNSt3__124__put_character_sequenceIcNS_11char_traitsIcEEEERNS_13basic_ostreamIT_T0_EES7_PKS4_m(%"class.std::__1::basic_ostream"* dereferenceable(160) %0, i8* getelementptr inbounds ([25 x i8], [25 x i8]* @.str.13, i64 0, i64 0), i64 24) #17
  br label %36

17:                                               ; preds = %2
  %18 = tail call dereferenceable(160) %"class.std::__1::basic_ostream"* @_ZNSt3__124__put_character_sequenceIcNS_11char_traitsIcEEEERNS_13basic_ostreamIT_T0_EES7_PKS4_m(%"class.std::__1::basic_ostream"* dereferenceable(160) %0, i8* getelementptr inbounds ([20 x i8], [20 x i8]* @.str.14, i64 0, i64 0), i64 19) #17
  br label %36

19:                                               ; preds = %2
  %20 = tail call dereferenceable(160) %"class.std::__1::basic_ostream"* @_ZNSt3__124__put_character_sequenceIcNS_11char_traitsIcEEEERNS_13basic_ostreamIT_T0_EES7_PKS4_m(%"class.std::__1::basic_ostream"* dereferenceable(160) %0, i8* getelementptr inbounds ([23 x i8], [23 x i8]* @.str.15, i64 0, i64 0), i64 22) #17
  br label %36

21:                                               ; preds = %2
  %22 = tail call dereferenceable(160) %"class.std::__1::basic_ostream"* @_ZNSt3__124__put_character_sequenceIcNS_11char_traitsIcEEEERNS_13basic_ostreamIT_T0_EES7_PKS4_m(%"class.std::__1::basic_ostream"* dereferenceable(160) %0, i8* getelementptr inbounds ([23 x i8], [23 x i8]* @.str.16, i64 0, i64 0), i64 22) #17
  br label %36

23:                                               ; preds = %2
  %24 = tail call dereferenceable(160) %"class.std::__1::basic_ostream"* @_ZNSt3__124__put_character_sequenceIcNS_11char_traitsIcEEEERNS_13basic_ostreamIT_T0_EES7_PKS4_m(%"class.std::__1::basic_ostream"* dereferenceable(160) %0, i8* getelementptr inbounds ([21 x i8], [21 x i8]* @.str.17, i64 0, i64 0), i64 20) #17
  br label %36

25:                                               ; preds = %2
  %26 = tail call dereferenceable(160) %"class.std::__1::basic_ostream"* @_ZNSt3__124__put_character_sequenceIcNS_11char_traitsIcEEEERNS_13basic_ostreamIT_T0_EES7_PKS4_m(%"class.std::__1::basic_ostream"* dereferenceable(160) %0, i8* getelementptr inbounds ([16 x i8], [16 x i8]* @.str.18, i64 0, i64 0), i64 15) #17
  br label %36

27:                                               ; preds = %2
  %28 = tail call dereferenceable(160) %"class.std::__1::basic_ostream"* @_ZNSt3__124__put_character_sequenceIcNS_11char_traitsIcEEEERNS_13basic_ostreamIT_T0_EES7_PKS4_m(%"class.std::__1::basic_ostream"* dereferenceable(160) %0, i8* getelementptr inbounds ([20 x i8], [20 x i8]* @.str.19, i64 0, i64 0), i64 19) #17
  br label %36

29:                                               ; preds = %2
  %30 = tail call dereferenceable(160) %"class.std::__1::basic_ostream"* @_ZNSt3__124__put_character_sequenceIcNS_11char_traitsIcEEEERNS_13basic_ostreamIT_T0_EES7_PKS4_m(%"class.std::__1::basic_ostream"* dereferenceable(160) %0, i8* getelementptr inbounds ([16 x i8], [16 x i8]* @.str.20, i64 0, i64 0), i64 15) #17
  br label %36

31:                                               ; preds = %2
  %32 = tail call dereferenceable(160) %"class.std::__1::basic_ostream"* @_ZNSt3__124__put_character_sequenceIcNS_11char_traitsIcEEEERNS_13basic_ostreamIT_T0_EES7_PKS4_m(%"class.std::__1::basic_ostream"* dereferenceable(160) %0, i8* getelementptr inbounds ([21 x i8], [21 x i8]* @.str.21, i64 0, i64 0), i64 20) #17
  br label %36

33:                                               ; preds = %2
  %34 = tail call dereferenceable(160) %"class.std::__1::basic_ostream"* @_ZNSt3__124__put_character_sequenceIcNS_11char_traitsIcEEEERNS_13basic_ostreamIT_T0_EES7_PKS4_m(%"class.std::__1::basic_ostream"* dereferenceable(160) %0, i8* getelementptr inbounds ([8 x i8], [8 x i8]* @.str.22, i64 0, i64 0), i64 7) #17
  br label %36

35:                                               ; preds = %2
  tail call void (i8*, ...) @_Z8V8_FatalPKcz(i8* getelementptr inbounds ([17 x i8], [17 x i8]* @.str.3, i64 0, i64 0)) #18
  unreachable

36:                                               ; preds = %33, %31, %29, %27, %25, %23, %21, %19, %17, %15, %13, %11, %9, %7, %5, %3
  %37 = phi %"class.std::__1::basic_ostream"* [ %34, %33 ], [ %32, %31 ], [ %30, %29 ], [ %28, %27 ], [ %26, %25 ], [ %24, %23 ], [ %22, %21 ], [ %20, %19 ], [ %18, %17 ], [ %16, %15 ], [ %14, %13 ], [ %12, %11 ], [ %10, %9 ], [ %8, %7 ], [ %6, %5 ], [ %4, %3 ]
  ret %"class.std::__1::basic_ostream"* %37
}

; Function Attrs: norecurse nounwind readonly ssp uwtable
define hidden i32 @_ZN2v88internal8compiler8TrapIdOfEPKNS1_8OperatorE(%"class.v8::internal::compiler::Operator"* nocapture readonly) local_unnamed_addr #2 {
  %2 = getelementptr inbounds %"class.v8::internal::compiler::Operator", %"class.v8::internal::compiler::Operator"* %0, i64 0, i32 12
  %3 = bitcast [4 x i8]* %2 to i32*
  %4 = load i32, i32* %3, align 4
  ret i32 %4
}

; Function Attrs: nounwind ssp uwtable
define hidden dereferenceable(160) %"class.std::__1::basic_ostream"* @_ZN2v88internal8compilerlsERNSt3__113basic_ostreamIcNS2_11char_traitsIcEEEENS1_18BranchOperatorInfoE(%"class.std::__1::basic_ostream"* dereferenceable(160), i16) local_unnamed_addr #0 {
  %3 = trunc i16 %1 to i8
  %4 = lshr i16 %1, 8
  %5 = trunc i16 %4 to i8
  switch i8 %3, label %12 [
    i8 0, label %6
    i8 1, label %8
    i8 2, label %10
  ]

6:                                                ; preds = %2
  %7 = tail call dereferenceable(160) %"class.std::__1::basic_ostream"* @_ZNSt3__124__put_character_sequenceIcNS_11char_traitsIcEEEERNS_13basic_ostreamIT_T0_EES7_PKS4_m(%"class.std::__1::basic_ostream"* dereferenceable(160) %0, i8* getelementptr inbounds ([5 x i8], [5 x i8]* @.str, i64 0, i64 0), i64 4) #17
  br label %13

8:                                                ; preds = %2
  %9 = tail call dereferenceable(160) %"class.std::__1::basic_ostream"* @_ZNSt3__124__put_character_sequenceIcNS_11char_traitsIcEEEERNS_13basic_ostreamIT_T0_EES7_PKS4_m(%"class.std::__1::basic_ostream"* dereferenceable(160) %0, i8* getelementptr inbounds ([5 x i8], [5 x i8]* @.str.1, i64 0, i64 0), i64 4) #17
  br label %13

10:                                               ; preds = %2
  %11 = tail call dereferenceable(160) %"class.std::__1::basic_ostream"* @_ZNSt3__124__put_character_sequenceIcNS_11char_traitsIcEEEERNS_13basic_ostreamIT_T0_EES7_PKS4_m(%"class.std::__1::basic_ostream"* dereferenceable(160) %0, i8* getelementptr inbounds ([6 x i8], [6 x i8]* @.str.2, i64 0, i64 0), i64 5) #17
  br label %13

12:                                               ; preds = %2
  tail call void (i8*, ...) @_Z8V8_FatalPKcz(i8* getelementptr inbounds ([17 x i8], [17 x i8]* @.str.3, i64 0, i64 0)) #18
  unreachable

13:                                               ; preds = %6, %8, %10
  %14 = phi %"class.std::__1::basic_ostream"* [ %11, %10 ], [ %9, %8 ], [ %7, %6 ]
  %15 = tail call dereferenceable(160) %"class.std::__1::basic_ostream"* @_ZNSt3__124__put_character_sequenceIcNS_11char_traitsIcEEEERNS_13basic_ostreamIT_T0_EES7_PKS4_m(%"class.std::__1::basic_ostream"* dereferenceable(160) %14, i8* getelementptr inbounds ([3 x i8], [3 x i8]* @.str.23, i64 0, i64 0), i64 2) #17
  switch i8 %5, label %22 [
    i8 0, label %16
    i8 1, label %18
    i8 2, label %20
  ]

16:                                               ; preds = %13
  %17 = tail call dereferenceable(160) %"class.std::__1::basic_ostream"* @_ZNSt3__124__put_character_sequenceIcNS_11char_traitsIcEEEERNS_13basic_ostreamIT_T0_EES7_PKS4_m(%"class.std::__1::basic_ostream"* dereferenceable(160) %15, i8* getelementptr inbounds ([20 x i8], [20 x i8]* @.str.4, i64 0, i64 0), i64 19) #17
  br label %23

18:                                               ; preds = %13
  %19 = tail call dereferenceable(160) %"class.std::__1::basic_ostream"* @_ZNSt3__124__put_character_sequenceIcNS_11char_traitsIcEEEERNS_13basic_ostreamIT_T0_EES7_PKS4_m(%"class.std::__1::basic_ostream"* dereferenceable(160) %15, i8* getelementptr inbounds ([12 x i8], [12 x i8]* @.str.5, i64 0, i64 0), i64 11) #17
  br label %23

20:                                               ; preds = %13
  %21 = tail call dereferenceable(160) %"class.std::__1::basic_ostream"* @_ZNSt3__124__put_character_sequenceIcNS_11char_traitsIcEEEERNS_13basic_ostreamIT_T0_EES7_PKS4_m(%"class.std::__1::basic_ostream"* dereferenceable(160) %15, i8* getelementptr inbounds ([14 x i8], [14 x i8]* @.str.6, i64 0, i64 0), i64 13) #17
  br label %23

22:                                               ; preds = %13
  tail call void (i8*, ...) @_Z8V8_FatalPKcz(i8* getelementptr inbounds ([17 x i8], [17 x i8]* @.str.3, i64 0, i64 0)) #18
  unreachable

23:                                               ; preds = %16, %18, %20
  %24 = phi %"class.std::__1::basic_ostream"* [ %21, %20 ], [ %19, %18 ], [ %17, %16 ]
  ret %"class.std::__1::basic_ostream"* %24
}

; Function Attrs: norecurse nounwind readnone ssp uwtable
define hidden dereferenceable(2) %"struct.v8::internal::compiler::BranchOperatorInfo"* @_ZN2v88internal8compiler20BranchOperatorInfoOfEPKNS1_8OperatorE(%"class.v8::internal::compiler::Operator"* readnone) local_unnamed_addr #3 {
  %2 = getelementptr inbounds %"class.v8::internal::compiler::Operator", %"class.v8::internal::compiler::Operator"* %0, i64 0, i32 12
  %3 = bitcast [4 x i8]* %2 to %"struct.v8::internal::compiler::BranchOperatorInfo"*
  ret %"struct.v8::internal::compiler::BranchOperatorInfo"* %3
}

; Function Attrs: nounwind ssp uwtable
define hidden zeroext i8 @_ZN2v88internal8compiler12BranchHintOfEPKNS1_8OperatorE(%"class.v8::internal::compiler::Operator"* nocapture readonly) local_unnamed_addr #0 {
  %2 = getelementptr inbounds %"class.v8::internal::compiler::Operator", %"class.v8::internal::compiler::Operator"* %0, i64 0, i32 2
  %3 = load i16, i16* %2, align 8
  switch i16 %3, label %11 [
    i16 2, label %4
    i16 8, label %6
    i16 9, label %9
  ]

4:                                                ; preds = %1
  %5 = getelementptr inbounds %"class.v8::internal::compiler::Operator", %"class.v8::internal::compiler::Operator"* %0, i64 0, i32 12, i64 0
  br label %12

6:                                                ; preds = %1
  %7 = getelementptr inbounds %"class.v8::internal::compiler::Operator", %"class.v8::internal::compiler::Operator"* %0, i64 0, i32 12
  %8 = getelementptr inbounds [4 x i8], [4 x i8]* %7, i64 2, i64 0
  br label %12

9:                                                ; preds = %1
  %10 = getelementptr inbounds %"class.v8::internal::compiler::Operator", %"class.v8::internal::compiler::Operator"* %0, i64 0, i32 12, i64 0
  br label %12

11:                                               ; preds = %1
  tail call void (i8*, ...) @_Z8V8_FatalPKcz(i8* getelementptr inbounds ([17 x i8], [17 x i8]* @.str.3, i64 0, i64 0)) #18
  unreachable

12:                                               ; preds = %9, %6, %4
  %13 = phi i8* [ %10, %9 ], [ %8, %6 ], [ %5, %4 ]
  %14 = load i8, i8* %13, align 1
  ret i8 %14
}

; Function Attrs: norecurse nounwind readnone ssp uwtable
define hidden dereferenceable(12) %"class.v8::internal::compiler::IfValueParameters"* @_ZN2v88internal8compiler19IfValueParametersOfEPKNS1_8OperatorE(%"class.v8::internal::compiler::Operator"* readnone) local_unnamed_addr #3 {
  %2 = getelementptr inbounds %"class.v8::internal::compiler::Operator", %"class.v8::internal::compiler::Operator"* %0, i64 0, i32 12
  %3 = bitcast [4 x i8]* %2 to %"class.v8::internal::compiler::IfValueParameters"*
  ret %"class.v8::internal::compiler::IfValueParameters"* %3
}

; Function Attrs: norecurse nounwind readonly ssp uwtable
define hidden i32 @_ZN2v88internal8compiler23ValueInputCountOfReturnEPKNS1_8OperatorE(%"class.v8::internal::compiler::Operator"* nocapture readonly) local_unnamed_addr #2 {
  %2 = getelementptr inbounds %"class.v8::internal::compiler::Operator", %"class.v8::internal::compiler::Operator"* %0, i64 0, i32 5
  %3 = load i32, i32* %2, align 4
  %4 = add nsw i32 %3, -1
  ret i32 %4
}

; Function Attrs: nounwind ssp uwtable
define hidden zeroext i1 @_ZN2v88internal8compilereqENS1_20DeoptimizeParametersES2_(%"class.v8::internal::compiler::DeoptimizeParameters"* byval(%"class.v8::internal::compiler::DeoptimizeParameters") align 8, %"class.v8::internal::compiler::DeoptimizeParameters"* byval(%"class.v8::internal::compiler::DeoptimizeParameters") align 8) local_unnamed_addr #0 {
  %3 = getelementptr inbounds %"class.v8::internal::compiler::DeoptimizeParameters", %"class.v8::internal::compiler::DeoptimizeParameters"* %0, i64 0, i32 0
  %4 = load i8, i8* %3, align 8
  %5 = getelementptr inbounds %"class.v8::internal::compiler::DeoptimizeParameters", %"class.v8::internal::compiler::DeoptimizeParameters"* %1, i64 0, i32 0
  %6 = load i8, i8* %5, align 8
  %7 = icmp eq i8 %4, %6
  br i1 %7, label %8, label %24

8:                                                ; preds = %2
  %9 = getelementptr inbounds %"class.v8::internal::compiler::DeoptimizeParameters", %"class.v8::internal::compiler::DeoptimizeParameters"* %0, i64 0, i32 1
  %10 = load i8, i8* %9, align 1
  %11 = getelementptr inbounds %"class.v8::internal::compiler::DeoptimizeParameters", %"class.v8::internal::compiler::DeoptimizeParameters"* %1, i64 0, i32 1
  %12 = load i8, i8* %11, align 1
  %13 = icmp eq i8 %10, %12
  br i1 %13, label %14, label %24

14:                                               ; preds = %8
  %15 = getelementptr inbounds %"class.v8::internal::compiler::DeoptimizeParameters", %"class.v8::internal::compiler::DeoptimizeParameters"* %0, i64 0, i32 3
  %16 = getelementptr inbounds %"class.v8::internal::compiler::DeoptimizeParameters", %"class.v8::internal::compiler::DeoptimizeParameters"* %1, i64 0, i32 3
  %17 = call zeroext i1 @_ZN2v88internal8compilereqERKNS1_14FeedbackSourceES4_(%"struct.v8::internal::compiler::FeedbackSource"* dereferenceable(16) %15, %"struct.v8::internal::compiler::FeedbackSource"* dereferenceable(16) %16) #17
  br i1 %17, label %18, label %24

18:                                               ; preds = %14
  %19 = getelementptr inbounds %"class.v8::internal::compiler::DeoptimizeParameters", %"class.v8::internal::compiler::DeoptimizeParameters"* %0, i64 0, i32 4
  %20 = load i8, i8* %19, align 8
  %21 = getelementptr inbounds %"class.v8::internal::compiler::DeoptimizeParameters", %"class.v8::internal::compiler::DeoptimizeParameters"* %1, i64 0, i32 4
  %22 = load i8, i8* %21, align 8
  %23 = icmp eq i8 %20, %22
  br label %24

24:                                               ; preds = %18, %14, %8, %2
  %25 = phi i1 [ false, %14 ], [ false, %8 ], [ false, %2 ], [ %23, %18 ]
  ret i1 %25
}

declare zeroext i1 @_ZN2v88internal8compilereqERKNS1_14FeedbackSourceES4_(%"struct.v8::internal::compiler::FeedbackSource"* dereferenceable(16), %"struct.v8::internal::compiler::FeedbackSource"* dereferenceable(16)) local_unnamed_addr #4

; Function Attrs: nounwind ssp uwtable
define hidden zeroext i1 @_ZN2v88internal8compilerneENS1_20DeoptimizeParametersES2_(%"class.v8::internal::compiler::DeoptimizeParameters"* nocapture readonly byval(%"class.v8::internal::compiler::DeoptimizeParameters") align 8, %"class.v8::internal::compiler::DeoptimizeParameters"* nocapture readonly byval(%"class.v8::internal::compiler::DeoptimizeParameters") align 8) local_unnamed_addr #0 {
  %3 = alloca %"class.v8::internal::compiler::DeoptimizeParameters", align 8
  %4 = alloca %"class.v8::internal::compiler::DeoptimizeParameters", align 8
  %5 = getelementptr inbounds %"class.v8::internal::compiler::DeoptimizeParameters", %"class.v8::internal::compiler::DeoptimizeParameters"* %0, i64 0, i32 0
  %6 = getelementptr inbounds %"class.v8::internal::compiler::DeoptimizeParameters", %"class.v8::internal::compiler::DeoptimizeParameters"* %1, i64 0, i32 0
  %7 = getelementptr inbounds %"class.v8::internal::compiler::DeoptimizeParameters", %"class.v8::internal::compiler::DeoptimizeParameters"* %4, i64 0, i32 0
  call void @llvm.lifetime.start.p0i8(i64 32, i8* nonnull %7)
  %8 = getelementptr inbounds %"class.v8::internal::compiler::DeoptimizeParameters", %"class.v8::internal::compiler::DeoptimizeParameters"* %3, i64 0, i32 0
  call void @llvm.lifetime.start.p0i8(i64 32, i8* nonnull %8)
  call void @llvm.memcpy.p0i8.p0i8.i64(i8* nonnull align 8 %8, i8* nonnull align 8 %6, i64 32, i1 false)
  call void @llvm.memcpy.p0i8.p0i8.i64(i8* nonnull align 8 %7, i8* nonnull align 8 %5, i64 32, i1 false)
  %9 = load i8, i8* %7, align 8
  %10 = load i8, i8* %8, align 8
  %11 = icmp eq i8 %9, %10
  br i1 %11, label %12, label %28

12:                                               ; preds = %2
  %13 = getelementptr inbounds %"class.v8::internal::compiler::DeoptimizeParameters", %"class.v8::internal::compiler::DeoptimizeParameters"* %4, i64 0, i32 1
  %14 = load i8, i8* %13, align 1
  %15 = getelementptr inbounds %"class.v8::internal::compiler::DeoptimizeParameters", %"class.v8::internal::compiler::DeoptimizeParameters"* %3, i64 0, i32 1
  %16 = load i8, i8* %15, align 1
  %17 = icmp eq i8 %14, %16
  br i1 %17, label %18, label %28

18:                                               ; preds = %12
  %19 = getelementptr inbounds %"class.v8::internal::compiler::DeoptimizeParameters", %"class.v8::internal::compiler::DeoptimizeParameters"* %4, i64 0, i32 3
  %20 = getelementptr inbounds %"class.v8::internal::compiler::DeoptimizeParameters", %"class.v8::internal::compiler::DeoptimizeParameters"* %3, i64 0, i32 3
  %21 = call zeroext i1 @_ZN2v88internal8compilereqERKNS1_14FeedbackSourceES4_(%"struct.v8::internal::compiler::FeedbackSource"* dereferenceable(16) %19, %"struct.v8::internal::compiler::FeedbackSource"* dereferenceable(16) %20) #17
  br i1 %21, label %22, label %28

22:                                               ; preds = %18
  %23 = getelementptr inbounds %"class.v8::internal::compiler::DeoptimizeParameters", %"class.v8::internal::compiler::DeoptimizeParameters"* %4, i64 0, i32 4
  %24 = load i8, i8* %23, align 8
  %25 = getelementptr inbounds %"class.v8::internal::compiler::DeoptimizeParameters", %"class.v8::internal::compiler::DeoptimizeParameters"* %3, i64 0, i32 4
  %26 = load i8, i8* %25, align 8
  %27 = icmp ne i8 %24, %26
  br label %28

28:                                               ; preds = %2, %12, %18, %22
  %29 = phi i1 [ true, %18 ], [ true, %12 ], [ true, %2 ], [ %27, %22 ]
  call void @llvm.lifetime.end.p0i8(i64 32, i8* nonnull %7)
  call void @llvm.lifetime.end.p0i8(i64 32, i8* nonnull %8)
  ret i1 %29
}

; Function Attrs: argmemonly nounwind
declare void @llvm.memcpy.p0i8.p0i8.i64(i8* nocapture writeonly, i8* nocapture readonly, i64, i1 immarg) #5

; Function Attrs: nounwind ssp uwtable
define hidden i64 @_ZN2v88internal8compiler10hash_valueENS1_20DeoptimizeParametersE(%"class.v8::internal::compiler::DeoptimizeParameters"* nocapture readonly byval(%"class.v8::internal::compiler::DeoptimizeParameters") align 8) local_unnamed_addr #0 {
  %2 = getelementptr inbounds %"class.v8::internal::compiler::DeoptimizeParameters", %"class.v8::internal::compiler::DeoptimizeParameters"* %0, i64 0, i32 0
  %3 = load i8, i8* %2, align 8
  %4 = getelementptr inbounds %"class.v8::internal::compiler::DeoptimizeParameters", %"class.v8::internal::compiler::DeoptimizeParameters"* %0, i64 0, i32 1
  %5 = load i8, i8* %4, align 1
  %6 = getelementptr inbounds %"class.v8::internal::compiler::DeoptimizeParameters", %"class.v8::internal::compiler::DeoptimizeParameters"* %0, i64 0, i32 3
  %7 = bitcast %"struct.v8::internal::compiler::FeedbackSource"* %6 to i64*
  %8 = load i64, i64* %7, align 8
  %9 = getelementptr inbounds %"class.v8::internal::compiler::DeoptimizeParameters", %"class.v8::internal::compiler::DeoptimizeParameters"* %0, i64 0, i32 3, i32 1, i32 0
  %10 = load i32, i32* %9, align 8
  %11 = sext i32 %10 to i64
  %12 = tail call i64 @_ZN2v84base12hash_combineEmm(i64 0, i64 %11) #17
  %13 = tail call i64 @_ZN2v84base10hash_valueEm(i64 %8) #17
  %14 = tail call i64 @_ZN2v84base12hash_combineEmm(i64 %12, i64 %13) #17
  %15 = getelementptr inbounds %"class.v8::internal::compiler::DeoptimizeParameters", %"class.v8::internal::compiler::DeoptimizeParameters"* %0, i64 0, i32 4
  %16 = load i8, i8* %15, align 8
  %17 = zext i8 %16 to i64
  %18 = tail call i64 @_ZN2v84base12hash_combineEmm(i64 0, i64 %17) #17
  %19 = tail call i64 @_ZN2v84base10hash_valueEm(i64 %14) #17
  %20 = tail call i64 @_ZN2v84base12hash_combineEmm(i64 %18, i64 %19) #17
  %21 = tail call i64 @_ZN2v88internal10hash_valueENS0_16DeoptimizeReasonE(i8 zeroext %5) #17
  %22 = tail call i64 @_ZN2v84base12hash_combineEmm(i64 %20, i64 %21) #17
  %23 = zext i8 %3 to i64
  %24 = tail call i64 @_ZN2v84base12hash_combineEmm(i64 %22, i64 %23) #17
  ret i64 %24
}

; Function Attrs: argmemonly nounwind
declare void @llvm.lifetime.start.p0i8(i64 immarg, i8* nocapture) #5

; Function Attrs: argmemonly nounwind
declare void @llvm.lifetime.end.p0i8(i64 immarg, i8* nocapture) #5

; Function Attrs: nounwind ssp uwtable
define hidden dereferenceable(160) %"class.std::__1::basic_ostream"* @_ZN2v88internal8compilerlsERNSt3__113basic_ostreamIcNS2_11char_traitsIcEEEENS1_20DeoptimizeParametersE(%"class.std::__1::basic_ostream"* dereferenceable(160), %"class.v8::internal::compiler::DeoptimizeParameters"* byval(%"class.v8::internal::compiler::DeoptimizeParameters") align 8) local_unnamed_addr #0 {
  %3 = getelementptr inbounds %"class.v8::internal::compiler::DeoptimizeParameters", %"class.v8::internal::compiler::DeoptimizeParameters"* %1, i64 0, i32 0
  %4 = load i8, i8* %3, align 8
  switch i8 %4, label %15 [
    i8 0, label %5
    i8 1, label %7
    i8 3, label %9
    i8 2, label %11
    i8 4, label %13
  ]

5:                                                ; preds = %2
  %6 = tail call dereferenceable(160) %"class.std::__1::basic_ostream"* @_ZNSt3__124__put_character_sequenceIcNS_11char_traitsIcEEEERNS_13basic_ostreamIT_T0_EES7_PKS4_m(%"class.std::__1::basic_ostream"* dereferenceable(160) %0, i8* getelementptr inbounds ([6 x i8], [6 x i8]* @.str.82, i64 0, i64 0), i64 5) #17
  br label %16

7:                                                ; preds = %2
  %8 = tail call dereferenceable(160) %"class.std::__1::basic_ostream"* @_ZNSt3__124__put_character_sequenceIcNS_11char_traitsIcEEEERNS_13basic_ostreamIT_T0_EES7_PKS4_m(%"class.std::__1::basic_ostream"* dereferenceable(160) %0, i8* getelementptr inbounds ([5 x i8], [5 x i8]* @.str.83, i64 0, i64 0), i64 4) #17
  br label %16

9:                                                ; preds = %2
  %10 = tail call dereferenceable(160) %"class.std::__1::basic_ostream"* @_ZNSt3__124__put_character_sequenceIcNS_11char_traitsIcEEEERNS_13basic_ostreamIT_T0_EES7_PKS4_m(%"class.std::__1::basic_ostream"* dereferenceable(160) %0, i8* getelementptr inbounds ([5 x i8], [5 x i8]* @.str.84, i64 0, i64 0), i64 4) #17
  br label %16

11:                                               ; preds = %2
  %12 = tail call dereferenceable(160) %"class.std::__1::basic_ostream"* @_ZNSt3__124__put_character_sequenceIcNS_11char_traitsIcEEEERNS_13basic_ostreamIT_T0_EES7_PKS4_m(%"class.std::__1::basic_ostream"* dereferenceable(160) %0, i8* getelementptr inbounds ([8 x i8], [8 x i8]* @.str.85, i64 0, i64 0), i64 7) #17
  br label %16

13:                                               ; preds = %2
  %14 = tail call dereferenceable(160) %"class.std::__1::basic_ostream"* @_ZNSt3__124__put_character_sequenceIcNS_11char_traitsIcEEEERNS_13basic_ostreamIT_T0_EES7_PKS4_m(%"class.std::__1::basic_ostream"* dereferenceable(160) %0, i8* getelementptr inbounds ([17 x i8], [17 x i8]* @.str.86, i64 0, i64 0), i64 16) #17
  br label %16

15:                                               ; preds = %2
  unreachable

16:                                               ; preds = %5, %7, %9, %11, %13
  %17 = phi %"class.std::__1::basic_ostream"* [ %14, %13 ], [ %12, %11 ], [ %10, %9 ], [ %8, %7 ], [ %6, %5 ]
  %18 = tail call dereferenceable(160) %"class.std::__1::basic_ostream"* @_ZNSt3__124__put_character_sequenceIcNS_11char_traitsIcEEEERNS_13basic_ostreamIT_T0_EES7_PKS4_m(%"class.std::__1::basic_ostream"* dereferenceable(160) %17, i8* getelementptr inbounds ([3 x i8], [3 x i8]* @.str.23, i64 0, i64 0), i64 2) #17
  %19 = getelementptr inbounds %"class.v8::internal::compiler::DeoptimizeParameters", %"class.v8::internal::compiler::DeoptimizeParameters"* %1, i64 0, i32 1
  %20 = load i8, i8* %19, align 1
  %21 = tail call dereferenceable(160) %"class.std::__1::basic_ostream"* @_ZN2v88internallsERNSt3__113basic_ostreamIcNS1_11char_traitsIcEEEENS0_16DeoptimizeReasonE(%"class.std::__1::basic_ostream"* dereferenceable(160) %18, i8 zeroext %20) #17
  %22 = tail call dereferenceable(160) %"class.std::__1::basic_ostream"* @_ZNSt3__124__put_character_sequenceIcNS_11char_traitsIcEEEERNS_13basic_ostreamIT_T0_EES7_PKS4_m(%"class.std::__1::basic_ostream"* dereferenceable(160) %21, i8* getelementptr inbounds ([3 x i8], [3 x i8]* @.str.23, i64 0, i64 0), i64 2) #17
  %23 = getelementptr inbounds %"class.v8::internal::compiler::DeoptimizeParameters", %"class.v8::internal::compiler::DeoptimizeParameters"* %1, i64 0, i32 4
  %24 = load i8, i8* %23, align 8
  switch i8 %24, label %31 [
    i8 0, label %25
    i8 1, label %27
    i8 2, label %29
  ]

25:                                               ; preds = %16
  %26 = tail call dereferenceable(160) %"class.std::__1::basic_ostream"* @_ZNSt3__124__put_character_sequenceIcNS_11char_traitsIcEEEERNS_13basic_ostreamIT_T0_EES7_PKS4_m(%"class.std::__1::basic_ostream"* dereferenceable(160) %22, i8* getelementptr inbounds ([20 x i8], [20 x i8]* @.str.4, i64 0, i64 0), i64 19) #17
  br label %32

27:                                               ; preds = %16
  %28 = tail call dereferenceable(160) %"class.std::__1::basic_ostream"* @_ZNSt3__124__put_character_sequenceIcNS_11char_traitsIcEEEERNS_13basic_ostreamIT_T0_EES7_PKS4_m(%"class.std::__1::basic_ostream"* dereferenceable(160) %22, i8* getelementptr inbounds ([12 x i8], [12 x i8]* @.str.5, i64 0, i64 0), i64 11) #17
  br label %32

29:                                               ; preds = %16
  %30 = tail call dereferenceable(160) %"class.std::__1::basic_ostream"* @_ZNSt3__124__put_character_sequenceIcNS_11char_traitsIcEEEERNS_13basic_ostreamIT_T0_EES7_PKS4_m(%"class.std::__1::basic_ostream"* dereferenceable(160) %22, i8* getelementptr inbounds ([14 x i8], [14 x i8]* @.str.6, i64 0, i64 0), i64 13) #17
  br label %32

31:                                               ; preds = %16
  tail call void (i8*, ...) @_Z8V8_FatalPKcz(i8* getelementptr inbounds ([17 x i8], [17 x i8]* @.str.3, i64 0, i64 0)) #18
  unreachable

32:                                               ; preds = %25, %27, %29
  %33 = phi %"class.std::__1::basic_ostream"* [ %30, %29 ], [ %28, %27 ], [ %26, %25 ]
  %34 = tail call dereferenceable(160) %"class.std::__1::basic_ostream"* @_ZNSt3__124__put_character_sequenceIcNS_11char_traitsIcEEEERNS_13basic_ostreamIT_T0_EES7_PKS4_m(%"class.std::__1::basic_ostream"* dereferenceable(160) %33, i8* getelementptr inbounds ([3 x i8], [3 x i8]* @.str.23, i64 0, i64 0), i64 2) #17
  %35 = getelementptr inbounds %"class.v8::internal::compiler::DeoptimizeParameters", %"class.v8::internal::compiler::DeoptimizeParameters"* %1, i64 0, i32 3
  %36 = call dereferenceable(160) %"class.std::__1::basic_ostream"* @_ZN2v88internal8compilerlsERNSt3__113basic_ostreamIcNS2_11char_traitsIcEEEERKNS1_14FeedbackSourceE(%"class.std::__1::basic_ostream"* dereferenceable(160) %34, %"struct.v8::internal::compiler::FeedbackSource"* dereferenceable(16) %35) #17
  ret %"class.std::__1::basic_ostream"* %36
}

declare dereferenceable(160) %"class.std::__1::basic_ostream"* @_ZN2v88internal8compilerlsERNSt3__113basic_ostreamIcNS2_11char_traitsIcEEEERKNS1_14FeedbackSourceE(%"class.std::__1::basic_ostream"* dereferenceable(160), %"struct.v8::internal::compiler::FeedbackSource"* dereferenceable(16)) local_unnamed_addr #4

declare dereferenceable(160) %"class.std::__1::basic_ostream"* @_ZN2v88internallsERNSt3__113basic_ostreamIcNS1_11char_traitsIcEEEENS0_16DeoptimizeReasonE(%"class.std::__1::basic_ostream"* dereferenceable(160), i8 zeroext) local_unnamed_addr #4

; Function Attrs: norecurse nounwind readnone ssp uwtable
define hidden dereferenceable(32) %"class.v8::internal::compiler::DeoptimizeParameters"* @_ZN2v88internal8compiler22DeoptimizeParametersOfEPKNS1_8OperatorE(%"class.v8::internal::compiler::Operator"* readnone) local_unnamed_addr #3 {
  %2 = getelementptr inbounds %"class.v8::internal::compiler::Operator", %"class.v8::internal::compiler::Operator"* %0, i64 1
  %3 = bitcast %"class.v8::internal::compiler::Operator"* %2 to %"class.v8::internal::compiler::DeoptimizeParameters"*
  ret %"class.v8::internal::compiler::DeoptimizeParameters"* %3
}

; Function Attrs: norecurse nounwind readonly ssp uwtable
define hidden zeroext i8 @_ZN2v88internal8compiler15IsSafetyCheckOfEPKNS1_8OperatorE(%"class.v8::internal::compiler::Operator"* nocapture readonly) local_unnamed_addr #2 {
  %2 = getelementptr inbounds %"class.v8::internal::compiler::Operator", %"class.v8::internal::compiler::Operator"* %0, i64 0, i32 2
  %3 = load i16, i16* %2, align 8
  %4 = icmp eq i16 %3, 2
  %5 = getelementptr inbounds %"class.v8::internal::compiler::Operator", %"class.v8::internal::compiler::Operator"* %0, i64 0, i32 12, i64 1
  %6 = getelementptr inbounds %"class.v8::internal::compiler::Operator", %"class.v8::internal::compiler::Operator"* %0, i64 1, i32 6
  %7 = bitcast i32* %6 to i8*
  %8 = select i1 %4, i8* %5, i8* %7
  %9 = load i8, i8* %8, align 1
  ret i8 %9
}

; Function Attrs: nounwind ssp uwtable
define hidden %"class.v8::internal::compiler::Operator"* @_ZN2v88internal8compiler21CommonOperatorBuilder17MarkAsSafetyCheckEPKNS1_8OperatorENS1_13IsSafetyCheckE(%"class.v8::internal::compiler::CommonOperatorBuilder"* nocapture readonly, %"class.v8::internal::compiler::Operator"* readonly, i8 zeroext) local_unnamed_addr #0 align 2 {
  %4 = alloca %"class.v8::internal::compiler::DeoptimizeParameters", align 8
  %5 = getelementptr inbounds %"class.v8::internal::compiler::Operator", %"class.v8::internal::compiler::Operator"* %1, i64 0, i32 2
  %6 = load i16, i16* %5, align 8
  %7 = icmp eq i16 %6, 2
  br i1 %7, label %8, label %85

8:                                                ; preds = %3
  %9 = getelementptr inbounds %"class.v8::internal::compiler::Operator", %"class.v8::internal::compiler::Operator"* %1, i64 0, i32 12, i64 1
  %10 = load i8, i8* %9, align 1
  %11 = icmp eq i8 %10, %2
  br i1 %11, label %108, label %12

12:                                               ; preds = %8
  %13 = getelementptr inbounds %"class.v8::internal::compiler::Operator", %"class.v8::internal::compiler::Operator"* %1, i64 0, i32 12, i64 0
  %14 = load i8, i8* %13, align 1
  %15 = icmp eq i8 %14, 0
  %16 = icmp eq i8 %2, 0
  %17 = or i8 %14, %2
  %18 = icmp eq i8 %17, 0
  br i1 %18, label %19, label %24

19:                                               ; preds = %12
  %20 = getelementptr inbounds %"class.v8::internal::compiler::CommonOperatorBuilder", %"class.v8::internal::compiler::CommonOperatorBuilder"* %0, i64 0, i32 0
  %21 = load %"struct.v8::internal::compiler::CommonOperatorGlobalCache"*, %"struct.v8::internal::compiler::CommonOperatorGlobalCache"** %20, align 8
  %22 = getelementptr inbounds %"struct.v8::internal::compiler::CommonOperatorGlobalCache", %"struct.v8::internal::compiler::CommonOperatorGlobalCache"* %21, i64 0, i32 25
  %23 = bitcast %"struct.v8::internal::compiler::CommonOperatorGlobalCache::BranchOperator"* %22 to %"class.v8::internal::compiler::Operator"*
  br label %108

24:                                               ; preds = %12
  %25 = icmp eq i8 %14, 1
  %26 = and i1 %16, %25
  br i1 %26, label %27, label %32

27:                                               ; preds = %24
  %28 = getelementptr inbounds %"class.v8::internal::compiler::CommonOperatorBuilder", %"class.v8::internal::compiler::CommonOperatorBuilder"* %0, i64 0, i32 0
  %29 = load %"struct.v8::internal::compiler::CommonOperatorGlobalCache"*, %"struct.v8::internal::compiler::CommonOperatorGlobalCache"** %28, align 8
  %30 = getelementptr inbounds %"struct.v8::internal::compiler::CommonOperatorGlobalCache", %"struct.v8::internal::compiler::CommonOperatorGlobalCache"* %29, i64 0, i32 26
  %31 = bitcast %"struct.v8::internal::compiler::CommonOperatorGlobalCache::BranchOperator.10"* %30 to %"class.v8::internal::compiler::Operator"*
  br label %108

32:                                               ; preds = %24
  %33 = icmp eq i8 %14, 2
  %34 = and i1 %16, %33
  br i1 %34, label %35, label %40

35:                                               ; preds = %32
  %36 = getelementptr inbounds %"class.v8::internal::compiler::CommonOperatorBuilder", %"class.v8::internal::compiler::CommonOperatorBuilder"* %0, i64 0, i32 0
  %37 = load %"struct.v8::internal::compiler::CommonOperatorGlobalCache"*, %"struct.v8::internal::compiler::CommonOperatorGlobalCache"** %36, align 8
  %38 = getelementptr inbounds %"struct.v8::internal::compiler::CommonOperatorGlobalCache", %"struct.v8::internal::compiler::CommonOperatorGlobalCache"* %37, i64 0, i32 27
  %39 = bitcast %"struct.v8::internal::compiler::CommonOperatorGlobalCache::BranchOperator.11"* %38 to %"class.v8::internal::compiler::Operator"*
  br label %108

40:                                               ; preds = %32
  %41 = icmp eq i8 %2, 1
  %42 = and i1 %41, %15
  br i1 %42, label %43, label %48

43:                                               ; preds = %40
  %44 = getelementptr inbounds %"class.v8::internal::compiler::CommonOperatorBuilder", %"class.v8::internal::compiler::CommonOperatorBuilder"* %0, i64 0, i32 0
  %45 = load %"struct.v8::internal::compiler::CommonOperatorGlobalCache"*, %"struct.v8::internal::compiler::CommonOperatorGlobalCache"** %44, align 8
  %46 = getelementptr inbounds %"struct.v8::internal::compiler::CommonOperatorGlobalCache", %"struct.v8::internal::compiler::CommonOperatorGlobalCache"* %45, i64 0, i32 28
  %47 = bitcast %"struct.v8::internal::compiler::CommonOperatorGlobalCache::BranchOperator.12"* %46 to %"class.v8::internal::compiler::Operator"*
  br label %108

48:                                               ; preds = %40
  %49 = and i1 %41, %25
  br i1 %49, label %50, label %55

50:                                               ; preds = %48
  %51 = getelementptr inbounds %"class.v8::internal::compiler::CommonOperatorBuilder", %"class.v8::internal::compiler::CommonOperatorBuilder"* %0, i64 0, i32 0
  %52 = load %"struct.v8::internal::compiler::CommonOperatorGlobalCache"*, %"struct.v8::internal::compiler::CommonOperatorGlobalCache"** %51, align 8
  %53 = getelementptr inbounds %"struct.v8::internal::compiler::CommonOperatorGlobalCache", %"struct.v8::internal::compiler::CommonOperatorGlobalCache"* %52, i64 0, i32 29
  %54 = bitcast %"struct.v8::internal::compiler::CommonOperatorGlobalCache::BranchOperator.13"* %53 to %"class.v8::internal::compiler::Operator"*
  br label %108

55:                                               ; preds = %48
  %56 = and i1 %41, %33
  br i1 %56, label %57, label %62

57:                                               ; preds = %55
  %58 = getelementptr inbounds %"class.v8::internal::compiler::CommonOperatorBuilder", %"class.v8::internal::compiler::CommonOperatorBuilder"* %0, i64 0, i32 0
  %59 = load %"struct.v8::internal::compiler::CommonOperatorGlobalCache"*, %"struct.v8::internal::compiler::CommonOperatorGlobalCache"** %58, align 8
  %60 = getelementptr inbounds %"struct.v8::internal::compiler::CommonOperatorGlobalCache", %"struct.v8::internal::compiler::CommonOperatorGlobalCache"* %59, i64 0, i32 30
  %61 = bitcast %"struct.v8::internal::compiler::CommonOperatorGlobalCache::BranchOperator.14"* %60 to %"class.v8::internal::compiler::Operator"*
  br label %108

62:                                               ; preds = %55
  %63 = icmp eq i8 %2, 2
  %64 = and i1 %63, %15
  br i1 %64, label %65, label %70

65:                                               ; preds = %62
  %66 = getelementptr inbounds %"class.v8::internal::compiler::CommonOperatorBuilder", %"class.v8::internal::compiler::CommonOperatorBuilder"* %0, i64 0, i32 0
  %67 = load %"struct.v8::internal::compiler::CommonOperatorGlobalCache"*, %"struct.v8::internal::compiler::CommonOperatorGlobalCache"** %66, align 8
  %68 = getelementptr inbounds %"struct.v8::internal::compiler::CommonOperatorGlobalCache", %"struct.v8::internal::compiler::CommonOperatorGlobalCache"* %67, i64 0, i32 31
  %69 = bitcast %"struct.v8::internal::compiler::CommonOperatorGlobalCache::BranchOperator.15"* %68 to %"class.v8::internal::compiler::Operator"*
  br label %108

70:                                               ; preds = %62
  %71 = and i1 %63, %25
  br i1 %71, label %72, label %77

72:                                               ; preds = %70
  %73 = getelementptr inbounds %"class.v8::internal::compiler::CommonOperatorBuilder", %"class.v8::internal::compiler::CommonOperatorBuilder"* %0, i64 0, i32 0
  %74 = load %"struct.v8::internal::compiler::CommonOperatorGlobalCache"*, %"struct.v8::internal::compiler::CommonOperatorGlobalCache"** %73, align 8
  %75 = getelementptr inbounds %"struct.v8::internal::compiler::CommonOperatorGlobalCache", %"struct.v8::internal::compiler::CommonOperatorGlobalCache"* %74, i64 0, i32 32
  %76 = bitcast %"struct.v8::internal::compiler::CommonOperatorGlobalCache::BranchOperator.16"* %75 to %"class.v8::internal::compiler::Operator"*
  br label %108

77:                                               ; preds = %70
  %78 = and i1 %63, %33
  br i1 %78, label %79, label %84

79:                                               ; preds = %77
  %80 = getelementptr inbounds %"class.v8::internal::compiler::CommonOperatorBuilder", %"class.v8::internal::compiler::CommonOperatorBuilder"* %0, i64 0, i32 0
  %81 = load %"struct.v8::internal::compiler::CommonOperatorGlobalCache"*, %"struct.v8::internal::compiler::CommonOperatorGlobalCache"** %80, align 8
  %82 = getelementptr inbounds %"struct.v8::internal::compiler::CommonOperatorGlobalCache", %"struct.v8::internal::compiler::CommonOperatorGlobalCache"* %81, i64 0, i32 33
  %83 = bitcast %"struct.v8::internal::compiler::CommonOperatorGlobalCache::BranchOperator.17"* %82 to %"class.v8::internal::compiler::Operator"*
  br label %108

84:                                               ; preds = %77
  tail call void (i8*, ...) @_Z8V8_FatalPKcz(i8* getelementptr inbounds ([17 x i8], [17 x i8]* @.str.3, i64 0, i64 0)) #18
  unreachable

85:                                               ; preds = %3
  %86 = getelementptr inbounds %"class.v8::internal::compiler::DeoptimizeParameters", %"class.v8::internal::compiler::DeoptimizeParameters"* %4, i64 0, i32 0
  call void @llvm.lifetime.start.p0i8(i64 32, i8* nonnull %86) #17
  %87 = getelementptr inbounds %"class.v8::internal::compiler::Operator", %"class.v8::internal::compiler::Operator"* %1, i64 1
  %88 = bitcast %"class.v8::internal::compiler::Operator"* %87 to i8*
  call void @llvm.memcpy.p0i8.p0i8.i64(i8* nonnull align 8 %86, i8* align 8 %88, i64 32, i1 false)
  %89 = getelementptr inbounds %"class.v8::internal::compiler::DeoptimizeParameters", %"class.v8::internal::compiler::DeoptimizeParameters"* %4, i64 0, i32 4
  %90 = load i8, i8* %89, align 8
  %91 = icmp eq i8 %90, %2
  br i1 %91, label %106, label %92

92:                                               ; preds = %85
  switch i16 %6, label %105 [
    i16 12, label %93
    i16 13, label %99
  ]

93:                                               ; preds = %92
  %94 = load i8, i8* %86, align 8
  %95 = getelementptr inbounds %"class.v8::internal::compiler::DeoptimizeParameters", %"class.v8::internal::compiler::DeoptimizeParameters"* %4, i64 0, i32 1
  %96 = load i8, i8* %95, align 1
  %97 = getelementptr inbounds %"class.v8::internal::compiler::DeoptimizeParameters", %"class.v8::internal::compiler::DeoptimizeParameters"* %4, i64 0, i32 3
  %98 = call %"class.v8::internal::compiler::Operator"* @_ZN2v88internal8compiler21CommonOperatorBuilder12DeoptimizeIfENS0_14DeoptimizeKindENS0_16DeoptimizeReasonERKNS1_14FeedbackSourceENS1_13IsSafetyCheckE(%"class.v8::internal::compiler::CommonOperatorBuilder"* %0, i8 zeroext %94, i8 zeroext %96, %"struct.v8::internal::compiler::FeedbackSource"* dereferenceable(16) %97, i8 zeroext %2)
  br label %106

99:                                               ; preds = %92
  %100 = load i8, i8* %86, align 8
  %101 = getelementptr inbounds %"class.v8::internal::compiler::DeoptimizeParameters", %"class.v8::internal::compiler::DeoptimizeParameters"* %4, i64 0, i32 1
  %102 = load i8, i8* %101, align 1
  %103 = getelementptr inbounds %"class.v8::internal::compiler::DeoptimizeParameters", %"class.v8::internal::compiler::DeoptimizeParameters"* %4, i64 0, i32 3
  %104 = call %"class.v8::internal::compiler::Operator"* @_ZN2v88internal8compiler21CommonOperatorBuilder16DeoptimizeUnlessENS0_14DeoptimizeKindENS0_16DeoptimizeReasonERKNS1_14FeedbackSourceENS1_13IsSafetyCheckE(%"class.v8::internal::compiler::CommonOperatorBuilder"* %0, i8 zeroext %100, i8 zeroext %102, %"struct.v8::internal::compiler::FeedbackSource"* dereferenceable(16) %103, i8 zeroext %2)
  br label %106

105:                                              ; preds = %92
  tail call void (i8*, ...) @_Z8V8_FatalPKcz(i8* getelementptr inbounds ([17 x i8], [17 x i8]* @.str.3, i64 0, i64 0)) #18
  unreachable

106:                                              ; preds = %85, %99, %93
  %107 = phi %"class.v8::internal::compiler::Operator"* [ %104, %99 ], [ %98, %93 ], [ %1, %85 ]
  call void @llvm.lifetime.end.p0i8(i64 32, i8* nonnull %86) #17
  br label %108

108:                                              ; preds = %79, %72, %65, %57, %50, %43, %35, %27, %19, %8, %106
  %109 = phi %"class.v8::internal::compiler::Operator"* [ %107, %106 ], [ %1, %8 ], [ %23, %19 ], [ %31, %27 ], [ %39, %35 ], [ %47, %43 ], [ %54, %50 ], [ %61, %57 ], [ %69, %65 ], [ %76, %72 ], [ %83, %79 ]
  ret %"class.v8::internal::compiler::Operator"* %109
}

; Function Attrs: nounwind ssp uwtable
define hidden %"class.v8::internal::compiler::Operator"* @_ZN2v88internal8compiler21CommonOperatorBuilder6BranchENS1_10BranchHintENS1_13IsSafetyCheckE(%"class.v8::internal::compiler::CommonOperatorBuilder"* nocapture readonly, i8 zeroext, i8 zeroext) local_unnamed_addr #0 align 2 {
  %4 = icmp eq i8 %1, 0
  %5 = icmp eq i8 %2, 0
  %6 = or i8 %2, %1
  %7 = icmp eq i8 %6, 0
  br i1 %7, label %8, label %13

8:                                                ; preds = %3
  %9 = getelementptr inbounds %"class.v8::internal::compiler::CommonOperatorBuilder", %"class.v8::internal::compiler::CommonOperatorBuilder"* %0, i64 0, i32 0
  %10 = load %"struct.v8::internal::compiler::CommonOperatorGlobalCache"*, %"struct.v8::internal::compiler::CommonOperatorGlobalCache"** %9, align 8
  %11 = getelementptr inbounds %"struct.v8::internal::compiler::CommonOperatorGlobalCache", %"struct.v8::internal::compiler::CommonOperatorGlobalCache"* %10, i64 0, i32 25
  %12 = bitcast %"struct.v8::internal::compiler::CommonOperatorGlobalCache::BranchOperator"* %11 to %"class.v8::internal::compiler::Operator"*
  br label %74

13:                                               ; preds = %3
  %14 = icmp eq i8 %1, 1
  %15 = and i1 %14, %5
  br i1 %15, label %16, label %21

16:                                               ; preds = %13
  %17 = getelementptr inbounds %"class.v8::internal::compiler::CommonOperatorBuilder", %"class.v8::internal::compiler::CommonOperatorBuilder"* %0, i64 0, i32 0
  %18 = load %"struct.v8::internal::compiler::CommonOperatorGlobalCache"*, %"struct.v8::internal::compiler::CommonOperatorGlobalCache"** %17, align 8
  %19 = getelementptr inbounds %"struct.v8::internal::compiler::CommonOperatorGlobalCache", %"struct.v8::internal::compiler::CommonOperatorGlobalCache"* %18, i64 0, i32 26
  %20 = bitcast %"struct.v8::internal::compiler::CommonOperatorGlobalCache::BranchOperator.10"* %19 to %"class.v8::internal::compiler::Operator"*
  br label %74

21:                                               ; preds = %13
  %22 = icmp eq i8 %1, 2
  %23 = and i1 %22, %5
  br i1 %23, label %24, label %29

24:                                               ; preds = %21
  %25 = getelementptr inbounds %"class.v8::internal::compiler::CommonOperatorBuilder", %"class.v8::internal::compiler::CommonOperatorBuilder"* %0, i64 0, i32 0
  %26 = load %"struct.v8::internal::compiler::CommonOperatorGlobalCache"*, %"struct.v8::internal::compiler::CommonOperatorGlobalCache"** %25, align 8
  %27 = getelementptr inbounds %"struct.v8::internal::compiler::CommonOperatorGlobalCache", %"struct.v8::internal::compiler::CommonOperatorGlobalCache"* %26, i64 0, i32 27
  %28 = bitcast %"struct.v8::internal::compiler::CommonOperatorGlobalCache::BranchOperator.11"* %27 to %"class.v8::internal::compiler::Operator"*
  br label %74

29:                                               ; preds = %21
  %30 = icmp eq i8 %2, 1
  %31 = and i1 %4, %30
  br i1 %31, label %32, label %37

32:                                               ; preds = %29
  %33 = getelementptr inbounds %"class.v8::internal::compiler::CommonOperatorBuilder", %"class.v8::internal::compiler::CommonOperatorBuilder"* %0, i64 0, i32 0
  %34 = load %"struct.v8::internal::compiler::CommonOperatorGlobalCache"*, %"struct.v8::internal::compiler::CommonOperatorGlobalCache"** %33, align 8
  %35 = getelementptr inbounds %"struct.v8::internal::compiler::CommonOperatorGlobalCache", %"struct.v8::internal::compiler::CommonOperatorGlobalCache"* %34, i64 0, i32 28
  %36 = bitcast %"struct.v8::internal::compiler::CommonOperatorGlobalCache::BranchOperator.12"* %35 to %"class.v8::internal::compiler::Operator"*
  br label %74

37:                                               ; preds = %29
  %38 = and i1 %14, %30
  br i1 %38, label %39, label %44

39:                                               ; preds = %37
  %40 = getelementptr inbounds %"class.v8::internal::compiler::CommonOperatorBuilder", %"class.v8::internal::compiler::CommonOperatorBuilder"* %0, i64 0, i32 0
  %41 = load %"struct.v8::internal::compiler::CommonOperatorGlobalCache"*, %"struct.v8::internal::compiler::CommonOperatorGlobalCache"** %40, align 8
  %42 = getelementptr inbounds %"struct.v8::internal::compiler::CommonOperatorGlobalCache", %"struct.v8::internal::compiler::CommonOperatorGlobalCache"* %41, i64 0, i32 29
  %43 = bitcast %"struct.v8::internal::compiler::CommonOperatorGlobalCache::BranchOperator.13"* %42 to %"class.v8::internal::compiler::Operator"*
  br label %74

44:                                               ; preds = %37
  %45 = and i1 %22, %30
  br i1 %45, label %46, label %51

46:                                               ; preds = %44
  %47 = getelementptr inbounds %"class.v8::internal::compiler::CommonOperatorBuilder", %"class.v8::internal::compiler::CommonOperatorBuilder"* %0, i64 0, i32 0
  %48 = load %"struct.v8::internal::compiler::CommonOperatorGlobalCache"*, %"struct.v8::internal::compiler::CommonOperatorGlobalCache"** %47, align 8
  %49 = getelementptr inbounds %"struct.v8::internal::compiler::CommonOperatorGlobalCache", %"struct.v8::internal::compiler::CommonOperatorGlobalCache"* %48, i64 0, i32 30
  %50 = bitcast %"struct.v8::internal::compiler::CommonOperatorGlobalCache::BranchOperator.14"* %49 to %"class.v8::internal::compiler::Operator"*
  br label %74

51:                                               ; preds = %44
  %52 = icmp eq i8 %2, 2
  %53 = and i1 %4, %52
  br i1 %53, label %54, label %59

54:                                               ; preds = %51
  %55 = getelementptr inbounds %"class.v8::internal::compiler::CommonOperatorBuilder", %"class.v8::internal::compiler::CommonOperatorBuilder"* %0, i64 0, i32 0
  %56 = load %"struct.v8::internal::compiler::CommonOperatorGlobalCache"*, %"struct.v8::internal::compiler::CommonOperatorGlobalCache"** %55, align 8
  %57 = getelementptr inbounds %"struct.v8::internal::compiler::CommonOperatorGlobalCache", %"struct.v8::internal::compiler::CommonOperatorGlobalCache"* %56, i64 0, i32 31
  %58 = bitcast %"struct.v8::internal::compiler::CommonOperatorGlobalCache::BranchOperator.15"* %57 to %"class.v8::internal::compiler::Operator"*
  br label %74

59:                                               ; preds = %51
  %60 = and i1 %14, %52
  br i1 %60, label %61, label %66

61:                                               ; preds = %59
  %62 = getelementptr inbounds %"class.v8::internal::compiler::CommonOperatorBuilder", %"class.v8::internal::compiler::CommonOperatorBuilder"* %0, i64 0, i32 0
  %63 = load %"struct.v8::internal::compiler::CommonOperatorGlobalCache"*, %"struct.v8::internal::compiler::CommonOperatorGlobalCache"** %62, align 8
  %64 = getelementptr inbounds %"struct.v8::internal::compiler::CommonOperatorGlobalCache", %"struct.v8::internal::compiler::CommonOperatorGlobalCache"* %63, i64 0, i32 32
  %65 = bitcast %"struct.v8::internal::compiler::CommonOperatorGlobalCache::BranchOperator.16"* %64 to %"class.v8::internal::compiler::Operator"*
  br label %74

66:                                               ; preds = %59
  %67 = and i1 %22, %52
  br i1 %67, label %68, label %73

68:                                               ; preds = %66
  %69 = getelementptr inbounds %"class.v8::internal::compiler::CommonOperatorBuilder", %"class.v8::internal::compiler::CommonOperatorBuilder"* %0, i64 0, i32 0
  %70 = load %"struct.v8::internal::compiler::CommonOperatorGlobalCache"*, %"struct.v8::internal::compiler::CommonOperatorGlobalCache"** %69, align 8
  %71 = getelementptr inbounds %"struct.v8::internal::compiler::CommonOperatorGlobalCache", %"struct.v8::internal::compiler::CommonOperatorGlobalCache"* %70, i64 0, i32 33
  %72 = bitcast %"struct.v8::internal::compiler::CommonOperatorGlobalCache::BranchOperator.17"* %71 to %"class.v8::internal::compiler::Operator"*
  br label %74

73:                                               ; preds = %66
  tail call void (i8*, ...) @_Z8V8_FatalPKcz(i8* getelementptr inbounds ([17 x i8], [17 x i8]* @.str.3, i64 0, i64 0)) #18
  unreachable

74:                                               ; preds = %68, %61, %54, %46, %39, %32, %24, %16, %8
  %75 = phi %"class.v8::internal::compiler::Operator"* [ %12, %8 ], [ %20, %16 ], [ %28, %24 ], [ %36, %32 ], [ %43, %39 ], [ %50, %46 ], [ %58, %54 ], [ %65, %61 ], [ %72, %68 ]
  ret %"class.v8::internal::compiler::Operator"* %75
}

; Function Attrs: nounwind ssp uwtable
define hidden %"class.v8::internal::compiler::Operator"* @_ZN2v88internal8compiler21CommonOperatorBuilder12DeoptimizeIfENS0_14DeoptimizeKindENS0_16DeoptimizeReasonERKNS1_14FeedbackSourceENS1_13IsSafetyCheckE(%"class.v8::internal::compiler::CommonOperatorBuilder"* nocapture readonly, i8 zeroext, i8 zeroext, %"struct.v8::internal::compiler::FeedbackSource"* nocapture readonly dereferenceable(16), i8 zeroext) local_unnamed_addr #0 align 2 {
  %6 = alloca { [6 x i8], %"struct.v8::internal::compiler::FeedbackSource" }, align 2
  %7 = alloca { [6 x i8], %"struct.v8::internal::compiler::FeedbackSource" }, align 2
  %8 = alloca [7 x i8], align 1
  %9 = icmp eq i8 %1, 0
  %10 = icmp eq i8 %2, 5
  %11 = and i1 %9, %10
  %12 = icmp eq i8 %4, 2
  %13 = and i1 %11, %12
  br i1 %13, label %14, label %27

14:                                               ; preds = %5
  %15 = getelementptr inbounds %"struct.v8::internal::compiler::FeedbackSource", %"struct.v8::internal::compiler::FeedbackSource"* %3, i64 0, i32 0, i32 0, i32 0
  %16 = load i64*, i64** %15, align 8
  %17 = icmp eq i64* %16, null
  br i1 %17, label %22, label %18

18:                                               ; preds = %14
  %19 = getelementptr inbounds %"struct.v8::internal::compiler::FeedbackSource", %"struct.v8::internal::compiler::FeedbackSource"* %3, i64 0, i32 1, i32 0
  %20 = load i32, i32* %19, align 4
  %21 = icmp eq i32 %20, -1
  br i1 %21, label %22, label %93

22:                                               ; preds = %18, %14
  %23 = getelementptr inbounds %"class.v8::internal::compiler::CommonOperatorBuilder", %"class.v8::internal::compiler::CommonOperatorBuilder"* %0, i64 0, i32 0
  %24 = load %"struct.v8::internal::compiler::CommonOperatorGlobalCache"*, %"struct.v8::internal::compiler::CommonOperatorGlobalCache"** %23, align 8
  %25 = getelementptr inbounds %"struct.v8::internal::compiler::CommonOperatorGlobalCache", %"struct.v8::internal::compiler::CommonOperatorGlobalCache"* %24, i64 0, i32 57
  %26 = bitcast %"struct.v8::internal::compiler::CommonOperatorGlobalCache::DeoptimizeIfOperator"* %25 to %"class.v8::internal::compiler::Operator"*
  br label %189

27:                                               ; preds = %5
  %28 = icmp eq i8 %4, 1
  %29 = and i1 %11, %28
  br i1 %29, label %30, label %43

30:                                               ; preds = %27
  %31 = getelementptr inbounds %"struct.v8::internal::compiler::FeedbackSource", %"struct.v8::internal::compiler::FeedbackSource"* %3, i64 0, i32 0, i32 0, i32 0
  %32 = load i64*, i64** %31, align 8
  %33 = icmp eq i64* %32, null
  br i1 %33, label %38, label %34

34:                                               ; preds = %30
  %35 = getelementptr inbounds %"struct.v8::internal::compiler::FeedbackSource", %"struct.v8::internal::compiler::FeedbackSource"* %3, i64 0, i32 1, i32 0
  %36 = load i32, i32* %35, align 4
  %37 = icmp eq i32 %36, -1
  br i1 %37, label %38, label %93

38:                                               ; preds = %34, %30
  %39 = getelementptr inbounds %"class.v8::internal::compiler::CommonOperatorBuilder", %"class.v8::internal::compiler::CommonOperatorBuilder"* %0, i64 0, i32 0
  %40 = load %"struct.v8::internal::compiler::CommonOperatorGlobalCache"*, %"struct.v8::internal::compiler::CommonOperatorGlobalCache"** %39, align 8
  %41 = getelementptr inbounds %"struct.v8::internal::compiler::CommonOperatorGlobalCache", %"struct.v8::internal::compiler::CommonOperatorGlobalCache"* %40, i64 0, i32 58
  %42 = bitcast %"struct.v8::internal::compiler::CommonOperatorGlobalCache::DeoptimizeIfOperator.55"* %41 to %"class.v8::internal::compiler::Operator"*
  br label %189

43:                                               ; preds = %27
  %44 = icmp eq i8 %2, 7
  %45 = and i1 %9, %44
  %46 = and i1 %45, %12
  br i1 %46, label %47, label %60

47:                                               ; preds = %43
  %48 = getelementptr inbounds %"struct.v8::internal::compiler::FeedbackSource", %"struct.v8::internal::compiler::FeedbackSource"* %3, i64 0, i32 0, i32 0, i32 0
  %49 = load i64*, i64** %48, align 8
  %50 = icmp eq i64* %49, null
  br i1 %50, label %55, label %51

51:                                               ; preds = %47
  %52 = getelementptr inbounds %"struct.v8::internal::compiler::FeedbackSource", %"struct.v8::internal::compiler::FeedbackSource"* %3, i64 0, i32 1, i32 0
  %53 = load i32, i32* %52, align 4
  %54 = icmp eq i32 %53, -1
  br i1 %54, label %55, label %60

55:                                               ; preds = %51, %47
  %56 = getelementptr inbounds %"class.v8::internal::compiler::CommonOperatorBuilder", %"class.v8::internal::compiler::CommonOperatorBuilder"* %0, i64 0, i32 0
  %57 = load %"struct.v8::internal::compiler::CommonOperatorGlobalCache"*, %"struct.v8::internal::compiler::CommonOperatorGlobalCache"** %56, align 8
  %58 = getelementptr inbounds %"struct.v8::internal::compiler::CommonOperatorGlobalCache", %"struct.v8::internal::compiler::CommonOperatorGlobalCache"* %57, i64 0, i32 59
  %59 = bitcast %"struct.v8::internal::compiler::CommonOperatorGlobalCache::DeoptimizeIfOperator.56"* %58 to %"class.v8::internal::compiler::Operator"*
  br label %189

60:                                               ; preds = %51, %43
  %61 = phi i1 [ true, %51 ], [ %45, %43 ]
  %62 = and i1 %61, %28
  br i1 %62, label %63, label %76

63:                                               ; preds = %60
  %64 = getelementptr inbounds %"struct.v8::internal::compiler::FeedbackSource", %"struct.v8::internal::compiler::FeedbackSource"* %3, i64 0, i32 0, i32 0, i32 0
  %65 = load i64*, i64** %64, align 8
  %66 = icmp eq i64* %65, null
  br i1 %66, label %71, label %67

67:                                               ; preds = %63
  %68 = getelementptr inbounds %"struct.v8::internal::compiler::FeedbackSource", %"struct.v8::internal::compiler::FeedbackSource"* %3, i64 0, i32 1, i32 0
  %69 = load i32, i32* %68, align 4
  %70 = icmp eq i32 %69, -1
  br i1 %70, label %71, label %76

71:                                               ; preds = %67, %63
  %72 = getelementptr inbounds %"class.v8::internal::compiler::CommonOperatorBuilder", %"class.v8::internal::compiler::CommonOperatorBuilder"* %0, i64 0, i32 0
  %73 = load %"struct.v8::internal::compiler::CommonOperatorGlobalCache"*, %"struct.v8::internal::compiler::CommonOperatorGlobalCache"** %72, align 8
  %74 = getelementptr inbounds %"struct.v8::internal::compiler::CommonOperatorGlobalCache", %"struct.v8::internal::compiler::CommonOperatorGlobalCache"* %73, i64 0, i32 60
  %75 = bitcast %"struct.v8::internal::compiler::CommonOperatorGlobalCache::DeoptimizeIfOperator.57"* %74 to %"class.v8::internal::compiler::Operator"*
  br label %189

76:                                               ; preds = %67, %60
  %77 = icmp eq i8 %2, 19
  %78 = and i1 %9, %77
  %79 = and i1 %78, %12
  br i1 %79, label %80, label %93

80:                                               ; preds = %76
  %81 = getelementptr inbounds %"struct.v8::internal::compiler::FeedbackSource", %"struct.v8::internal::compiler::FeedbackSource"* %3, i64 0, i32 0, i32 0, i32 0
  %82 = load i64*, i64** %81, align 8
  %83 = icmp eq i64* %82, null
  br i1 %83, label %88, label %84

84:                                               ; preds = %80
  %85 = getelementptr inbounds %"struct.v8::internal::compiler::FeedbackSource", %"struct.v8::internal::compiler::FeedbackSource"* %3, i64 0, i32 1, i32 0
  %86 = load i32, i32* %85, align 4
  %87 = icmp eq i32 %86, -1
  br i1 %87, label %88, label %93

88:                                               ; preds = %84, %80
  %89 = getelementptr inbounds %"class.v8::internal::compiler::CommonOperatorBuilder", %"class.v8::internal::compiler::CommonOperatorBuilder"* %0, i64 0, i32 0
  %90 = load %"struct.v8::internal::compiler::CommonOperatorGlobalCache"*, %"struct.v8::internal::compiler::CommonOperatorGlobalCache"** %89, align 8
  %91 = getelementptr inbounds %"struct.v8::internal::compiler::CommonOperatorGlobalCache", %"struct.v8::internal::compiler::CommonOperatorGlobalCache"* %90, i64 0, i32 61
  %92 = bitcast %"struct.v8::internal::compiler::CommonOperatorGlobalCache::DeoptimizeIfOperator.58"* %91 to %"class.v8::internal::compiler::Operator"*
  br label %189

93:                                               ; preds = %18, %34, %84, %76
  %94 = phi i1 [ %78, %84 ], [ %78, %76 ], [ false, %34 ], [ false, %18 ]
  %95 = phi i1 [ %28, %84 ], [ %28, %76 ], [ true, %34 ], [ false, %18 ]
  %96 = and i1 %94, %95
  br i1 %96, label %97, label %110

97:                                               ; preds = %93
  %98 = getelementptr inbounds %"struct.v8::internal::compiler::FeedbackSource", %"struct.v8::internal::compiler::FeedbackSource"* %3, i64 0, i32 0, i32 0, i32 0
  %99 = load i64*, i64** %98, align 8
  %100 = icmp eq i64* %99, null
  br i1 %100, label %105, label %101

101:                                              ; preds = %97
  %102 = getelementptr inbounds %"struct.v8::internal::compiler::FeedbackSource", %"struct.v8::internal::compiler::FeedbackSource"* %3, i64 0, i32 1, i32 0
  %103 = load i32, i32* %102, align 4
  %104 = icmp eq i32 %103, -1
  br i1 %104, label %105, label %143

105:                                              ; preds = %101, %97
  %106 = getelementptr inbounds %"class.v8::internal::compiler::CommonOperatorBuilder", %"class.v8::internal::compiler::CommonOperatorBuilder"* %0, i64 0, i32 0
  %107 = load %"struct.v8::internal::compiler::CommonOperatorGlobalCache"*, %"struct.v8::internal::compiler::CommonOperatorGlobalCache"** %106, align 8
  %108 = getelementptr inbounds %"struct.v8::internal::compiler::CommonOperatorGlobalCache", %"struct.v8::internal::compiler::CommonOperatorGlobalCache"* %107, i64 0, i32 62
  %109 = bitcast %"struct.v8::internal::compiler::CommonOperatorGlobalCache::DeoptimizeIfOperator.59"* %108 to %"class.v8::internal::compiler::Operator"*
  br label %189

110:                                              ; preds = %93
  %111 = icmp eq i8 %2, 35
  %112 = and i1 %9, %111
  %113 = and i1 %112, %12
  br i1 %113, label %114, label %127

114:                                              ; preds = %110
  %115 = getelementptr inbounds %"struct.v8::internal::compiler::FeedbackSource", %"struct.v8::internal::compiler::FeedbackSource"* %3, i64 0, i32 0, i32 0, i32 0
  %116 = load i64*, i64** %115, align 8
  %117 = icmp eq i64* %116, null
  br i1 %117, label %122, label %118

118:                                              ; preds = %114
  %119 = getelementptr inbounds %"struct.v8::internal::compiler::FeedbackSource", %"struct.v8::internal::compiler::FeedbackSource"* %3, i64 0, i32 1, i32 0
  %120 = load i32, i32* %119, align 4
  %121 = icmp eq i32 %120, -1
  br i1 %121, label %122, label %127

122:                                              ; preds = %118, %114
  %123 = getelementptr inbounds %"class.v8::internal::compiler::CommonOperatorBuilder", %"class.v8::internal::compiler::CommonOperatorBuilder"* %0, i64 0, i32 0
  %124 = load %"struct.v8::internal::compiler::CommonOperatorGlobalCache"*, %"struct.v8::internal::compiler::CommonOperatorGlobalCache"** %123, align 8
  %125 = getelementptr inbounds %"struct.v8::internal::compiler::CommonOperatorGlobalCache", %"struct.v8::internal::compiler::CommonOperatorGlobalCache"* %124, i64 0, i32 63
  %126 = bitcast %"struct.v8::internal::compiler::CommonOperatorGlobalCache::DeoptimizeIfOperator.60"* %125 to %"class.v8::internal::compiler::Operator"*
  br label %189

127:                                              ; preds = %118, %110
  %128 = phi i1 [ true, %118 ], [ %112, %110 ]
  %129 = and i1 %95, %128
  br i1 %129, label %130, label %143

130:                                              ; preds = %127
  %131 = getelementptr inbounds %"struct.v8::internal::compiler::FeedbackSource", %"struct.v8::internal::compiler::FeedbackSource"* %3, i64 0, i32 0, i32 0, i32 0
  %132 = load i64*, i64** %131, align 8
  %133 = icmp eq i64* %132, null
  br i1 %133, label %138, label %134

134:                                              ; preds = %130
  %135 = getelementptr inbounds %"struct.v8::internal::compiler::FeedbackSource", %"struct.v8::internal::compiler::FeedbackSource"* %3, i64 0, i32 1, i32 0
  %136 = load i32, i32* %135, align 4
  %137 = icmp eq i32 %136, -1
  br i1 %137, label %138, label %143

138:                                              ; preds = %134, %130
  %139 = getelementptr inbounds %"class.v8::internal::compiler::CommonOperatorBuilder", %"class.v8::internal::compiler::CommonOperatorBuilder"* %0, i64 0, i32 0
  %140 = load %"struct.v8::internal::compiler::CommonOperatorGlobalCache"*, %"struct.v8::internal::compiler::CommonOperatorGlobalCache"** %139, align 8
  %141 = getelementptr inbounds %"struct.v8::internal::compiler::CommonOperatorGlobalCache", %"struct.v8::internal::compiler::CommonOperatorGlobalCache"* %140, i64 0, i32 64
  %142 = bitcast %"struct.v8::internal::compiler::CommonOperatorGlobalCache::DeoptimizeIfOperator.61"* %141 to %"class.v8::internal::compiler::Operator"*
  br label %189

143:                                              ; preds = %101, %134, %127
  %144 = icmp eq i8 %2, 36
  %145 = and i1 %9, %144
  %146 = and i1 %145, %95
  br i1 %146, label %147, label %160

147:                                              ; preds = %143
  %148 = getelementptr inbounds %"struct.v8::internal::compiler::FeedbackSource", %"struct.v8::internal::compiler::FeedbackSource"* %3, i64 0, i32 0, i32 0, i32 0
  %149 = load i64*, i64** %148, align 8
  %150 = icmp eq i64* %149, null
  br i1 %150, label %155, label %151

151:                                              ; preds = %147
  %152 = getelementptr inbounds %"struct.v8::internal::compiler::FeedbackSource", %"struct.v8::internal::compiler::FeedbackSource"* %3, i64 0, i32 1, i32 0
  %153 = load i32, i32* %152, align 4
  %154 = icmp eq i32 %153, -1
  br i1 %154, label %155, label %160

155:                                              ; preds = %151, %147
  %156 = getelementptr inbounds %"class.v8::internal::compiler::CommonOperatorBuilder", %"class.v8::internal::compiler::CommonOperatorBuilder"* %0, i64 0, i32 0
  %157 = load %"struct.v8::internal::compiler::CommonOperatorGlobalCache"*, %"struct.v8::internal::compiler::CommonOperatorGlobalCache"** %156, align 8
  %158 = getelementptr inbounds %"struct.v8::internal::compiler::CommonOperatorGlobalCache", %"struct.v8::internal::compiler::CommonOperatorGlobalCache"* %157, i64 0, i32 65
  %159 = bitcast %"struct.v8::internal::compiler::CommonOperatorGlobalCache::DeoptimizeIfOperator.62"* %158 to %"class.v8::internal::compiler::Operator"*
  br label %189

160:                                              ; preds = %151, %143
  %161 = getelementptr inbounds { [6 x i8], %"struct.v8::internal::compiler::FeedbackSource" }, { [6 x i8], %"struct.v8::internal::compiler::FeedbackSource" }* %7, i64 0, i32 0, i64 0
  call void @llvm.lifetime.start.p0i8(i64 22, i8* nonnull %161)
  %162 = getelementptr inbounds [7 x i8], [7 x i8]* %8, i64 0, i64 0
  call void @llvm.lifetime.start.p0i8(i64 7, i8* nonnull %162)
  %163 = bitcast %"struct.v8::internal::compiler::FeedbackSource"* %3 to i8*
  %164 = getelementptr inbounds { [6 x i8], %"struct.v8::internal::compiler::FeedbackSource" }, { [6 x i8], %"struct.v8::internal::compiler::FeedbackSource" }* %7, i64 0, i32 1
  %165 = bitcast %"struct.v8::internal::compiler::FeedbackSource"* %164 to i8*
  call void @llvm.memcpy.p0i8.p0i8.i64(i8* align 2 %165, i8* align 8 %163, i64 16, i1 false)
  %166 = getelementptr inbounds %"class.v8::internal::compiler::CommonOperatorBuilder", %"class.v8::internal::compiler::CommonOperatorBuilder"* %0, i64 0, i32 1
  %167 = load %"class.v8::internal::Zone"*, %"class.v8::internal::Zone"** %166, align 8
  %168 = getelementptr inbounds %"class.v8::internal::Zone", %"class.v8::internal::Zone"* %167, i64 0, i32 2
  %169 = load i64, i64* %168, align 8
  %170 = getelementptr inbounds %"class.v8::internal::Zone", %"class.v8::internal::Zone"* %167, i64 0, i32 3
  %171 = load i64, i64* %170, align 8
  %172 = sub i64 %171, %169
  %173 = icmp ult i64 %172, 88
  br i1 %173, label %174, label %176, !prof !2

174:                                              ; preds = %160
  %175 = tail call i64 @_ZN2v88internal4Zone9NewExpandEm(%"class.v8::internal::Zone"* %167, i64 88) #17
  br label %178

176:                                              ; preds = %160
  %177 = add i64 %169, 88
  store i64 %177, i64* %168, align 8
  br label %178

178:                                              ; preds = %174, %176
  %179 = phi i64 [ %175, %174 ], [ %169, %176 ]
  %180 = inttoptr i64 %179 to %"class.v8::internal::compiler::Operator1.45"*
  %181 = getelementptr inbounds { [6 x i8], %"struct.v8::internal::compiler::FeedbackSource" }, { [6 x i8], %"struct.v8::internal::compiler::FeedbackSource" }* %6, i64 0, i32 0, i64 0
  call void @llvm.lifetime.start.p0i8(i64 22, i8* nonnull %181)
  call void @llvm.memcpy.p0i8.p0i8.i64(i8* nonnull align 2 %181, i8* nonnull align 2 %161, i64 22, i1 false)
  %182 = inttoptr i64 %179 to %"class.v8::internal::compiler::Operator"*
  tail call void @_ZN2v88internal8compiler8OperatorC2EtNS_4base5FlagsINS2_8PropertyEhEEPKcmmmmmm(%"class.v8::internal::compiler::Operator"* %182, i16 zeroext 12, i8 56, i8* getelementptr inbounds ([13 x i8], [13 x i8]* @.str.41, i64 0, i64 0), i64 2, i64 1, i64 1, i64 0, i64 1, i64 1) #17
  %183 = getelementptr inbounds %"class.v8::internal::compiler::Operator1.45", %"class.v8::internal::compiler::Operator1.45"* %180, i64 0, i32 0, i32 0
  store i32 (...)** bitcast (i8** getelementptr inbounds ({ [8 x i8*] }, { [8 x i8*] }* @_ZTVN2v88internal8compiler9Operator1INS1_20DeoptimizeParametersENS1_9OpEqualToIS3_EENS1_6OpHashIS3_EEEE, i64 0, inrange i32 0, i64 2) to i32 (...)**), i32 (...)*** %183, align 8
  %184 = getelementptr inbounds %"class.v8::internal::compiler::Operator1.45", %"class.v8::internal::compiler::Operator1.45"* %180, i64 0, i32 2, i32 0
  store i8 %1, i8* %184, align 8
  %185 = getelementptr inbounds %"class.v8::internal::compiler::Operator1.45", %"class.v8::internal::compiler::Operator1.45"* %180, i64 0, i32 2, i32 1
  store i8 %2, i8* %185, align 1
  %186 = getelementptr inbounds %"class.v8::internal::compiler::Operator1.45", %"class.v8::internal::compiler::Operator1.45"* %180, i64 0, i32 2, i32 2, i64 0
  call void @llvm.memcpy.p0i8.p0i8.i64(i8* align 2 %186, i8* nonnull align 2 %181, i64 22, i1 false)
  %187 = getelementptr inbounds %"class.v8::internal::compiler::Operator1.45", %"class.v8::internal::compiler::Operator1.45"* %180, i64 0, i32 2, i32 4
  store i8 %4, i8* %187, align 8
  %188 = getelementptr inbounds %"class.v8::internal::compiler::Operator1.45", %"class.v8::internal::compiler::Operator1.45"* %180, i64 0, i32 2, i32 5, i64 0
  call void @llvm.memcpy.p0i8.p0i8.i64(i8* align 1 %188, i8* nonnull align 1 %162, i64 7, i1 false)
  call void @llvm.lifetime.end.p0i8(i64 22, i8* nonnull %181)
  call void @llvm.lifetime.end.p0i8(i64 22, i8* nonnull %161)
  call void @llvm.lifetime.end.p0i8(i64 7, i8* nonnull %162)
  br label %189

189:                                              ; preds = %178, %155, %138, %122, %105, %88, %71, %55, %38, %22
  %190 = phi %"class.v8::internal::compiler::Operator"* [ %182, %178 ], [ %159, %155 ], [ %142, %138 ], [ %126, %122 ], [ %109, %105 ], [ %92, %88 ], [ %75, %71 ], [ %59, %55 ], [ %42, %38 ], [ %26, %22 ]
  ret %"class.v8::internal::compiler::Operator"* %190
}

; Function Attrs: nounwind ssp uwtable
define hidden %"class.v8::internal::compiler::Operator"* @_ZN2v88internal8compiler21CommonOperatorBuilder16DeoptimizeUnlessENS0_14DeoptimizeKindENS0_16DeoptimizeReasonERKNS1_14FeedbackSourceENS1_13IsSafetyCheckE(%"class.v8::internal::compiler::CommonOperatorBuilder"* nocapture readonly, i8 zeroext, i8 zeroext, %"struct.v8::internal::compiler::FeedbackSource"* readonly dereferenceable(16), i8 zeroext) local_unnamed_addr #0 align 2 {
  %6 = alloca { [6 x i8], %"struct.v8::internal::compiler::FeedbackSource" }, align 2
  %7 = alloca { [6 x i8], %"struct.v8::internal::compiler::FeedbackSource" }, align 2
  %8 = alloca [7 x i8], align 1
  %9 = icmp eq i8 %1, 0
  %10 = icmp eq i8 %2, 17
  %11 = and i1 %9, %10
  %12 = icmp eq i8 %4, 2
  %13 = and i1 %11, %12
  br i1 %13, label %14, label %27

14:                                               ; preds = %5
  %15 = getelementptr inbounds %"struct.v8::internal::compiler::FeedbackSource", %"struct.v8::internal::compiler::FeedbackSource"* %3, i64 0, i32 0, i32 0, i32 0
  %16 = load i64*, i64** %15, align 8
  %17 = icmp eq i64* %16, null
  br i1 %17, label %22, label %18

18:                                               ; preds = %14
  %19 = getelementptr inbounds %"struct.v8::internal::compiler::FeedbackSource", %"struct.v8::internal::compiler::FeedbackSource"* %3, i64 0, i32 1, i32 0
  %20 = load i32, i32* %19, align 4
  %21 = icmp eq i32 %20, -1
  br i1 %21, label %22, label %178

22:                                               ; preds = %18, %14
  %23 = getelementptr inbounds %"class.v8::internal::compiler::CommonOperatorBuilder", %"class.v8::internal::compiler::CommonOperatorBuilder"* %0, i64 0, i32 0
  %24 = load %"struct.v8::internal::compiler::CommonOperatorGlobalCache"*, %"struct.v8::internal::compiler::CommonOperatorGlobalCache"** %23, align 8
  %25 = getelementptr inbounds %"struct.v8::internal::compiler::CommonOperatorGlobalCache", %"struct.v8::internal::compiler::CommonOperatorGlobalCache"* %24, i64 0, i32 66
  %26 = bitcast %"struct.v8::internal::compiler::CommonOperatorGlobalCache::DeoptimizeUnlessOperator"* %25 to %"class.v8::internal::compiler::Operator"*
  br label %207

27:                                               ; preds = %5
  %28 = icmp eq i8 %4, 1
  %29 = and i1 %11, %28
  br i1 %29, label %30, label %43

30:                                               ; preds = %27
  %31 = getelementptr inbounds %"struct.v8::internal::compiler::FeedbackSource", %"struct.v8::internal::compiler::FeedbackSource"* %3, i64 0, i32 0, i32 0, i32 0
  %32 = load i64*, i64** %31, align 8
  %33 = icmp eq i64* %32, null
  br i1 %33, label %38, label %34

34:                                               ; preds = %30
  %35 = getelementptr inbounds %"struct.v8::internal::compiler::FeedbackSource", %"struct.v8::internal::compiler::FeedbackSource"* %3, i64 0, i32 1, i32 0
  %36 = load i32, i32* %35, align 4
  %37 = icmp eq i32 %36, -1
  br i1 %37, label %38, label %178

38:                                               ; preds = %34, %30
  %39 = getelementptr inbounds %"class.v8::internal::compiler::CommonOperatorBuilder", %"class.v8::internal::compiler::CommonOperatorBuilder"* %0, i64 0, i32 0
  %40 = load %"struct.v8::internal::compiler::CommonOperatorGlobalCache"*, %"struct.v8::internal::compiler::CommonOperatorGlobalCache"** %39, align 8
  %41 = getelementptr inbounds %"struct.v8::internal::compiler::CommonOperatorGlobalCache", %"struct.v8::internal::compiler::CommonOperatorGlobalCache"* %40, i64 0, i32 67
  %42 = bitcast %"struct.v8::internal::compiler::CommonOperatorGlobalCache::DeoptimizeUnlessOperator.63"* %41 to %"class.v8::internal::compiler::Operator"*
  br label %207

43:                                               ; preds = %27
  %44 = icmp eq i8 %2, 18
  %45 = and i1 %9, %44
  %46 = and i1 %45, %12
  br i1 %46, label %47, label %60

47:                                               ; preds = %43
  %48 = getelementptr inbounds %"struct.v8::internal::compiler::FeedbackSource", %"struct.v8::internal::compiler::FeedbackSource"* %3, i64 0, i32 0, i32 0, i32 0
  %49 = load i64*, i64** %48, align 8
  %50 = icmp eq i64* %49, null
  br i1 %50, label %55, label %51

51:                                               ; preds = %47
  %52 = getelementptr inbounds %"struct.v8::internal::compiler::FeedbackSource", %"struct.v8::internal::compiler::FeedbackSource"* %3, i64 0, i32 1, i32 0
  %53 = load i32, i32* %52, align 4
  %54 = icmp eq i32 %53, -1
  br i1 %54, label %55, label %60

55:                                               ; preds = %51, %47
  %56 = getelementptr inbounds %"class.v8::internal::compiler::CommonOperatorBuilder", %"class.v8::internal::compiler::CommonOperatorBuilder"* %0, i64 0, i32 0
  %57 = load %"struct.v8::internal::compiler::CommonOperatorGlobalCache"*, %"struct.v8::internal::compiler::CommonOperatorGlobalCache"** %56, align 8
  %58 = getelementptr inbounds %"struct.v8::internal::compiler::CommonOperatorGlobalCache", %"struct.v8::internal::compiler::CommonOperatorGlobalCache"* %57, i64 0, i32 68
  %59 = bitcast %"struct.v8::internal::compiler::CommonOperatorGlobalCache::DeoptimizeUnlessOperator.64"* %58 to %"class.v8::internal::compiler::Operator"*
  br label %207

60:                                               ; preds = %51, %43
  %61 = phi i1 [ true, %51 ], [ %45, %43 ]
  %62 = and i1 %61, %28
  br i1 %62, label %63, label %76

63:                                               ; preds = %60
  %64 = getelementptr inbounds %"struct.v8::internal::compiler::FeedbackSource", %"struct.v8::internal::compiler::FeedbackSource"* %3, i64 0, i32 0, i32 0, i32 0
  %65 = load i64*, i64** %64, align 8
  %66 = icmp eq i64* %65, null
  br i1 %66, label %71, label %67

67:                                               ; preds = %63
  %68 = getelementptr inbounds %"struct.v8::internal::compiler::FeedbackSource", %"struct.v8::internal::compiler::FeedbackSource"* %3, i64 0, i32 1, i32 0
  %69 = load i32, i32* %68, align 4
  %70 = icmp eq i32 %69, -1
  br i1 %70, label %71, label %76

71:                                               ; preds = %67, %63
  %72 = getelementptr inbounds %"class.v8::internal::compiler::CommonOperatorBuilder", %"class.v8::internal::compiler::CommonOperatorBuilder"* %0, i64 0, i32 0
  %73 = load %"struct.v8::internal::compiler::CommonOperatorGlobalCache"*, %"struct.v8::internal::compiler::CommonOperatorGlobalCache"** %72, align 8
  %74 = getelementptr inbounds %"struct.v8::internal::compiler::CommonOperatorGlobalCache", %"struct.v8::internal::compiler::CommonOperatorGlobalCache"* %73, i64 0, i32 69
  %75 = bitcast %"struct.v8::internal::compiler::CommonOperatorGlobalCache::DeoptimizeUnlessOperator.65"* %74 to %"class.v8::internal::compiler::Operator"*
  br label %207

76:                                               ; preds = %67, %60
  %77 = icmp eq i8 %2, 23
  %78 = and i1 %9, %77
  %79 = and i1 %78, %28
  br i1 %79, label %80, label %93

80:                                               ; preds = %76
  %81 = getelementptr inbounds %"struct.v8::internal::compiler::FeedbackSource", %"struct.v8::internal::compiler::FeedbackSource"* %3, i64 0, i32 0, i32 0, i32 0
  %82 = load i64*, i64** %81, align 8
  %83 = icmp eq i64* %82, null
  br i1 %83, label %88, label %84

84:                                               ; preds = %80
  %85 = getelementptr inbounds %"struct.v8::internal::compiler::FeedbackSource", %"struct.v8::internal::compiler::FeedbackSource"* %3, i64 0, i32 1, i32 0
  %86 = load i32, i32* %85, align 4
  %87 = icmp eq i32 %86, -1
  br i1 %87, label %88, label %178

88:                                               ; preds = %84, %80
  %89 = getelementptr inbounds %"class.v8::internal::compiler::CommonOperatorBuilder", %"class.v8::internal::compiler::CommonOperatorBuilder"* %0, i64 0, i32 0
  %90 = load %"struct.v8::internal::compiler::CommonOperatorGlobalCache"*, %"struct.v8::internal::compiler::CommonOperatorGlobalCache"** %89, align 8
  %91 = getelementptr inbounds %"struct.v8::internal::compiler::CommonOperatorGlobalCache", %"struct.v8::internal::compiler::CommonOperatorGlobalCache"* %90, i64 0, i32 70
  %92 = bitcast %"struct.v8::internal::compiler::CommonOperatorGlobalCache::DeoptimizeUnlessOperator.66"* %91 to %"class.v8::internal::compiler::Operator"*
  br label %207

93:                                               ; preds = %76
  %94 = icmp eq i8 %2, 28
  %95 = and i1 %9, %94
  %96 = and i1 %95, %28
  br i1 %96, label %97, label %110

97:                                               ; preds = %93
  %98 = getelementptr inbounds %"struct.v8::internal::compiler::FeedbackSource", %"struct.v8::internal::compiler::FeedbackSource"* %3, i64 0, i32 0, i32 0, i32 0
  %99 = load i64*, i64** %98, align 8
  %100 = icmp eq i64* %99, null
  br i1 %100, label %105, label %101

101:                                              ; preds = %97
  %102 = getelementptr inbounds %"struct.v8::internal::compiler::FeedbackSource", %"struct.v8::internal::compiler::FeedbackSource"* %3, i64 0, i32 1, i32 0
  %103 = load i32, i32* %102, align 4
  %104 = icmp eq i32 %103, -1
  br i1 %104, label %105, label %178

105:                                              ; preds = %101, %97
  %106 = getelementptr inbounds %"class.v8::internal::compiler::CommonOperatorBuilder", %"class.v8::internal::compiler::CommonOperatorBuilder"* %0, i64 0, i32 0
  %107 = load %"struct.v8::internal::compiler::CommonOperatorGlobalCache"*, %"struct.v8::internal::compiler::CommonOperatorGlobalCache"** %106, align 8
  %108 = getelementptr inbounds %"struct.v8::internal::compiler::CommonOperatorGlobalCache", %"struct.v8::internal::compiler::CommonOperatorGlobalCache"* %107, i64 0, i32 71
  %109 = bitcast %"struct.v8::internal::compiler::CommonOperatorGlobalCache::DeoptimizeUnlessOperator.67"* %108 to %"class.v8::internal::compiler::Operator"*
  br label %207

110:                                              ; preds = %93
  %111 = icmp eq i8 %2, 30
  %112 = and i1 %9, %111
  %113 = and i1 %112, %28
  br i1 %113, label %114, label %127

114:                                              ; preds = %110
  %115 = getelementptr inbounds %"struct.v8::internal::compiler::FeedbackSource", %"struct.v8::internal::compiler::FeedbackSource"* %3, i64 0, i32 0, i32 0, i32 0
  %116 = load i64*, i64** %115, align 8
  %117 = icmp eq i64* %116, null
  br i1 %117, label %122, label %118

118:                                              ; preds = %114
  %119 = getelementptr inbounds %"struct.v8::internal::compiler::FeedbackSource", %"struct.v8::internal::compiler::FeedbackSource"* %3, i64 0, i32 1, i32 0
  %120 = load i32, i32* %119, align 4
  %121 = icmp eq i32 %120, -1
  br i1 %121, label %122, label %178

122:                                              ; preds = %118, %114
  %123 = getelementptr inbounds %"class.v8::internal::compiler::CommonOperatorBuilder", %"class.v8::internal::compiler::CommonOperatorBuilder"* %0, i64 0, i32 0
  %124 = load %"struct.v8::internal::compiler::CommonOperatorGlobalCache"*, %"struct.v8::internal::compiler::CommonOperatorGlobalCache"** %123, align 8
  %125 = getelementptr inbounds %"struct.v8::internal::compiler::CommonOperatorGlobalCache", %"struct.v8::internal::compiler::CommonOperatorGlobalCache"* %124, i64 0, i32 72
  %126 = bitcast %"struct.v8::internal::compiler::CommonOperatorGlobalCache::DeoptimizeUnlessOperator.68"* %125 to %"class.v8::internal::compiler::Operator"*
  br label %207

127:                                              ; preds = %110
  %128 = icmp eq i8 %2, 34
  %129 = and i1 %9, %128
  %130 = and i1 %129, %28
  br i1 %130, label %131, label %144

131:                                              ; preds = %127
  %132 = getelementptr inbounds %"struct.v8::internal::compiler::FeedbackSource", %"struct.v8::internal::compiler::FeedbackSource"* %3, i64 0, i32 0, i32 0, i32 0
  %133 = load i64*, i64** %132, align 8
  %134 = icmp eq i64* %133, null
  br i1 %134, label %139, label %135

135:                                              ; preds = %131
  %136 = getelementptr inbounds %"struct.v8::internal::compiler::FeedbackSource", %"struct.v8::internal::compiler::FeedbackSource"* %3, i64 0, i32 1, i32 0
  %137 = load i32, i32* %136, align 4
  %138 = icmp eq i32 %137, -1
  br i1 %138, label %139, label %178

139:                                              ; preds = %135, %131
  %140 = getelementptr inbounds %"class.v8::internal::compiler::CommonOperatorBuilder", %"class.v8::internal::compiler::CommonOperatorBuilder"* %0, i64 0, i32 0
  %141 = load %"struct.v8::internal::compiler::CommonOperatorGlobalCache"*, %"struct.v8::internal::compiler::CommonOperatorGlobalCache"** %140, align 8
  %142 = getelementptr inbounds %"struct.v8::internal::compiler::CommonOperatorGlobalCache", %"struct.v8::internal::compiler::CommonOperatorGlobalCache"* %141, i64 0, i32 73
  %143 = bitcast %"struct.v8::internal::compiler::CommonOperatorGlobalCache::DeoptimizeUnlessOperator.69"* %142 to %"class.v8::internal::compiler::Operator"*
  br label %207

144:                                              ; preds = %127
  %145 = icmp eq i8 %2, 44
  %146 = and i1 %9, %145
  %147 = and i1 %146, %28
  br i1 %147, label %148, label %161

148:                                              ; preds = %144
  %149 = getelementptr inbounds %"struct.v8::internal::compiler::FeedbackSource", %"struct.v8::internal::compiler::FeedbackSource"* %3, i64 0, i32 0, i32 0, i32 0
  %150 = load i64*, i64** %149, align 8
  %151 = icmp eq i64* %150, null
  br i1 %151, label %156, label %152

152:                                              ; preds = %148
  %153 = getelementptr inbounds %"struct.v8::internal::compiler::FeedbackSource", %"struct.v8::internal::compiler::FeedbackSource"* %3, i64 0, i32 1, i32 0
  %154 = load i32, i32* %153, align 4
  %155 = icmp eq i32 %154, -1
  br i1 %155, label %156, label %178

156:                                              ; preds = %152, %148
  %157 = getelementptr inbounds %"class.v8::internal::compiler::CommonOperatorBuilder", %"class.v8::internal::compiler::CommonOperatorBuilder"* %0, i64 0, i32 0
  %158 = load %"struct.v8::internal::compiler::CommonOperatorGlobalCache"*, %"struct.v8::internal::compiler::CommonOperatorGlobalCache"** %157, align 8
  %159 = getelementptr inbounds %"struct.v8::internal::compiler::CommonOperatorGlobalCache", %"struct.v8::internal::compiler::CommonOperatorGlobalCache"* %158, i64 0, i32 74
  %160 = bitcast %"struct.v8::internal::compiler::CommonOperatorGlobalCache::DeoptimizeUnlessOperator.70"* %159 to %"class.v8::internal::compiler::Operator"*
  br label %207

161:                                              ; preds = %144
  %162 = icmp eq i8 %2, 45
  %163 = and i1 %9, %162
  %164 = and i1 %163, %28
  br i1 %164, label %165, label %178

165:                                              ; preds = %161
  %166 = getelementptr inbounds %"struct.v8::internal::compiler::FeedbackSource", %"struct.v8::internal::compiler::FeedbackSource"* %3, i64 0, i32 0, i32 0, i32 0
  %167 = load i64*, i64** %166, align 8
  %168 = icmp eq i64* %167, null
  br i1 %168, label %173, label %169

169:                                              ; preds = %165
  %170 = getelementptr inbounds %"struct.v8::internal::compiler::FeedbackSource", %"struct.v8::internal::compiler::FeedbackSource"* %3, i64 0, i32 1, i32 0
  %171 = load i32, i32* %170, align 4
  %172 = icmp eq i32 %171, -1
  br i1 %172, label %173, label %178

173:                                              ; preds = %169, %165
  %174 = getelementptr inbounds %"class.v8::internal::compiler::CommonOperatorBuilder", %"class.v8::internal::compiler::CommonOperatorBuilder"* %0, i64 0, i32 0
  %175 = load %"struct.v8::internal::compiler::CommonOperatorGlobalCache"*, %"struct.v8::internal::compiler::CommonOperatorGlobalCache"** %174, align 8
  %176 = getelementptr inbounds %"struct.v8::internal::compiler::CommonOperatorGlobalCache", %"struct.v8::internal::compiler::CommonOperatorGlobalCache"* %175, i64 0, i32 75
  %177 = bitcast %"struct.v8::internal::compiler::CommonOperatorGlobalCache::DeoptimizeUnlessOperator.71"* %176 to %"class.v8::internal::compiler::Operator"*
  br label %207

178:                                              ; preds = %34, %18, %84, %101, %118, %135, %152, %169, %161
  %179 = getelementptr inbounds { [6 x i8], %"struct.v8::internal::compiler::FeedbackSource" }, { [6 x i8], %"struct.v8::internal::compiler::FeedbackSource" }* %7, i64 0, i32 0, i64 0
  call void @llvm.lifetime.start.p0i8(i64 22, i8* nonnull %179)
  %180 = getelementptr inbounds [7 x i8], [7 x i8]* %8, i64 0, i64 0
  call void @llvm.lifetime.start.p0i8(i64 7, i8* nonnull %180)
  %181 = bitcast %"struct.v8::internal::compiler::FeedbackSource"* %3 to i8*
  %182 = getelementptr inbounds { [6 x i8], %"struct.v8::internal::compiler::FeedbackSource" }, { [6 x i8], %"struct.v8::internal::compiler::FeedbackSource" }* %7, i64 0, i32 1
  %183 = bitcast %"struct.v8::internal::compiler::FeedbackSource"* %182 to i8*
  call void @llvm.memcpy.p0i8.p0i8.i64(i8* align 2 %183, i8* align 8 %181, i64 16, i1 false)
  %184 = getelementptr inbounds %"class.v8::internal::compiler::CommonOperatorBuilder", %"class.v8::internal::compiler::CommonOperatorBuilder"* %0, i64 0, i32 1
  %185 = load %"class.v8::internal::Zone"*, %"class.v8::internal::Zone"** %184, align 8
  %186 = getelementptr inbounds %"class.v8::internal::Zone", %"class.v8::internal::Zone"* %185, i64 0, i32 2
  %187 = load i64, i64* %186, align 8
  %188 = getelementptr inbounds %"class.v8::internal::Zone", %"class.v8::internal::Zone"* %185, i64 0, i32 3
  %189 = load i64, i64* %188, align 8
  %190 = sub i64 %189, %187
  %191 = icmp ult i64 %190, 88
  br i1 %191, label %192, label %194, !prof !2

192:                                              ; preds = %178
  %193 = tail call i64 @_ZN2v88internal4Zone9NewExpandEm(%"class.v8::internal::Zone"* %185, i64 88) #17
  br label %196

194:                                              ; preds = %178
  %195 = add i64 %187, 88
  store i64 %195, i64* %186, align 8
  br label %196

196:                                              ; preds = %192, %194
  %197 = phi i64 [ %193, %192 ], [ %187, %194 ]
  %198 = inttoptr i64 %197 to %"class.v8::internal::compiler::Operator1.45"*
  %199 = getelementptr inbounds { [6 x i8], %"struct.v8::internal::compiler::FeedbackSource" }, { [6 x i8], %"struct.v8::internal::compiler::FeedbackSource" }* %6, i64 0, i32 0, i64 0
  call void @llvm.lifetime.start.p0i8(i64 22, i8* nonnull %199)
  call void @llvm.memcpy.p0i8.p0i8.i64(i8* nonnull align 2 %199, i8* nonnull align 2 %179, i64 22, i1 false)
  %200 = inttoptr i64 %197 to %"class.v8::internal::compiler::Operator"*
  tail call void @_ZN2v88internal8compiler8OperatorC2EtNS_4base5FlagsINS2_8PropertyEhEEPKcmmmmmm(%"class.v8::internal::compiler::Operator"* %200, i16 zeroext 13, i8 56, i8* getelementptr inbounds ([17 x i8], [17 x i8]* @.str.42, i64 0, i64 0), i64 2, i64 1, i64 1, i64 0, i64 1, i64 1) #17
  %201 = getelementptr inbounds %"class.v8::internal::compiler::Operator1.45", %"class.v8::internal::compiler::Operator1.45"* %198, i64 0, i32 0, i32 0
  store i32 (...)** bitcast (i8** getelementptr inbounds ({ [8 x i8*] }, { [8 x i8*] }* @_ZTVN2v88internal8compiler9Operator1INS1_20DeoptimizeParametersENS1_9OpEqualToIS3_EENS1_6OpHashIS3_EEEE, i64 0, inrange i32 0, i64 2) to i32 (...)**), i32 (...)*** %201, align 8
  %202 = getelementptr inbounds %"class.v8::internal::compiler::Operator1.45", %"class.v8::internal::compiler::Operator1.45"* %198, i64 0, i32 2, i32 0
  store i8 %1, i8* %202, align 8
  %203 = getelementptr inbounds %"class.v8::internal::compiler::Operator1.45", %"class.v8::internal::compiler::Operator1.45"* %198, i64 0, i32 2, i32 1
  store i8 %2, i8* %203, align 1
  %204 = getelementptr inbounds %"class.v8::internal::compiler::Operator1.45", %"class.v8::internal::compiler::Operator1.45"* %198, i64 0, i32 2, i32 2, i64 0
  call void @llvm.memcpy.p0i8.p0i8.i64(i8* align 2 %204, i8* nonnull align 2 %199, i64 22, i1 false)
  %205 = getelementptr inbounds %"class.v8::internal::compiler::Operator1.45", %"class.v8::internal::compiler::Operator1.45"* %198, i64 0, i32 2, i32 4
  store i8 %4, i8* %205, align 8
  %206 = getelementptr inbounds %"class.v8::internal::compiler::Operator1.45", %"class.v8::internal::compiler::Operator1.45"* %198, i64 0, i32 2, i32 5, i64 0
  call void @llvm.memcpy.p0i8.p0i8.i64(i8* align 1 %206, i8* nonnull align 1 %180, i64 7, i1 false)
  call void @llvm.lifetime.end.p0i8(i64 22, i8* nonnull %199)
  call void @llvm.lifetime.end.p0i8(i64 22, i8* nonnull %179)
  call void @llvm.lifetime.end.p0i8(i64 7, i8* nonnull %180)
  br label %207

207:                                              ; preds = %196, %173, %156, %139, %122, %105, %88, %71, %55, %38, %22
  %208 = phi %"class.v8::internal::compiler::Operator"* [ %200, %196 ], [ %177, %173 ], [ %160, %156 ], [ %143, %139 ], [ %126, %122 ], [ %109, %105 ], [ %92, %88 ], [ %75, %71 ], [ %59, %55 ], [ %42, %38 ], [ %26, %22 ]
  ret %"class.v8::internal::compiler::Operator"* %208
}

; Function Attrs: nounwind ssp uwtable
define hidden %"class.v8::internal::compiler::Operator"* @_ZN2v88internal8compiler21CommonOperatorBuilder21DelayedStringConstantEPKNS0_18StringConstantBaseE(%"class.v8::internal::compiler::CommonOperatorBuilder"* nocapture readonly, %"class.v8::internal::StringConstantBase"*) local_unnamed_addr #0 align 2 {
  %3 = ptrtoint %"class.v8::internal::StringConstantBase"* %1 to i64
  %4 = getelementptr inbounds %"class.v8::internal::compiler::CommonOperatorBuilder", %"class.v8::internal::compiler::CommonOperatorBuilder"* %0, i64 0, i32 1
  %5 = load %"class.v8::internal::Zone"*, %"class.v8::internal::Zone"** %4, align 8
  %6 = getelementptr inbounds %"class.v8::internal::Zone", %"class.v8::internal::Zone"* %5, i64 0, i32 2
  %7 = load i64, i64* %6, align 8
  %8 = getelementptr inbounds %"class.v8::internal::Zone", %"class.v8::internal::Zone"* %5, i64 0, i32 3
  %9 = load i64, i64* %8, align 8
  %10 = sub i64 %9, %7
  %11 = icmp ult i64 %10, 64
  br i1 %11, label %12, label %14, !prof !2

12:                                               ; preds = %2
  %13 = tail call i64 @_ZN2v88internal4Zone9NewExpandEm(%"class.v8::internal::Zone"* %5, i64 64) #17
  br label %16

14:                                               ; preds = %2
  %15 = add i64 %7, 64
  store i64 %15, i64* %6, align 8
  br label %16

16:                                               ; preds = %12, %14
  %17 = phi i64 [ %13, %12 ], [ %7, %14 ]
  %18 = inttoptr i64 %17 to %"class.v8::internal::compiler::Operator1.148"*
  %19 = inttoptr i64 %17 to %"class.v8::internal::compiler::Operator"*
  tail call void @_ZN2v88internal8compiler8OperatorC2EtNS_4base5FlagsINS2_8PropertyEhEEPKcmmmmmm(%"class.v8::internal::compiler::Operator"* %19, i16 zeroext 222, i8 124, i8* getelementptr inbounds ([22 x i8], [22 x i8]* @.str.24, i64 0, i64 0), i64 0, i64 0, i64 0, i64 1, i64 0, i64 0) #17
  %20 = getelementptr inbounds %"class.v8::internal::compiler::Operator1.148", %"class.v8::internal::compiler::Operator1.148"* %18, i64 0, i32 0, i32 0
  store i32 (...)** bitcast (i8** getelementptr inbounds ({ [8 x i8*] }, { [8 x i8*] }* @_ZTVN2v88internal8compiler9Operator1IPKNS0_18StringConstantBaseENS1_9OpEqualToIS5_EENS1_6OpHashIS5_EEEE, i64 0, inrange i32 0, i64 2) to i32 (...)**), i32 (...)*** %20, align 8
  %21 = getelementptr inbounds %"class.v8::internal::compiler::Operator1.148", %"class.v8::internal::compiler::Operator1.148"* %18, i64 0, i32 2
  %22 = bitcast %"class.v8::internal::StringConstantBase"** %21 to i64*
  store i64 %3, i64* %22, align 8
  ret %"class.v8::internal::compiler::Operator"* %19
}

; Function Attrs: norecurse nounwind readonly ssp uwtable
define hidden zeroext i1 @_ZN2v88internal8compilereqERKNS1_16SelectParametersES4_(%"class.v8::internal::compiler::SelectParameters"* nocapture readonly dereferenceable(2), %"class.v8::internal::compiler::SelectParameters"* nocapture readonly dereferenceable(2)) local_unnamed_addr #2 {
  %3 = getelementptr inbounds %"class.v8::internal::compiler::SelectParameters", %"class.v8::internal::compiler::SelectParameters"* %0, i64 0, i32 0
  %4 = load i8, i8* %3, align 1
  %5 = getelementptr inbounds %"class.v8::internal::compiler::SelectParameters", %"class.v8::internal::compiler::SelectParameters"* %1, i64 0, i32 0
  %6 = load i8, i8* %5, align 1
  %7 = icmp eq i8 %4, %6
  br i1 %7, label %8, label %14

8:                                                ; preds = %2
  %9 = getelementptr inbounds %"class.v8::internal::compiler::SelectParameters", %"class.v8::internal::compiler::SelectParameters"* %0, i64 0, i32 1
  %10 = load i8, i8* %9, align 1
  %11 = getelementptr inbounds %"class.v8::internal::compiler::SelectParameters", %"class.v8::internal::compiler::SelectParameters"* %1, i64 0, i32 1
  %12 = load i8, i8* %11, align 1
  %13 = icmp eq i8 %10, %12
  br label %14

14:                                               ; preds = %8, %2
  %15 = phi i1 [ false, %2 ], [ %13, %8 ]
  ret i1 %15
}

; Function Attrs: norecurse nounwind readonly ssp uwtable
define hidden zeroext i1 @_ZN2v88internal8compilerneERKNS1_16SelectParametersES4_(%"class.v8::internal::compiler::SelectParameters"* nocapture readonly dereferenceable(2), %"class.v8::internal::compiler::SelectParameters"* nocapture readonly dereferenceable(2)) local_unnamed_addr #2 {
  %3 = getelementptr inbounds %"class.v8::internal::compiler::SelectParameters", %"class.v8::internal::compiler::SelectParameters"* %0, i64 0, i32 0
  %4 = load i8, i8* %3, align 1
  %5 = getelementptr inbounds %"class.v8::internal::compiler::SelectParameters", %"class.v8::internal::compiler::SelectParameters"* %1, i64 0, i32 0
  %6 = load i8, i8* %5, align 1
  %7 = icmp eq i8 %4, %6
  br i1 %7, label %8, label %14

8:                                                ; preds = %2
  %9 = getelementptr inbounds %"class.v8::internal::compiler::SelectParameters", %"class.v8::internal::compiler::SelectParameters"* %0, i64 0, i32 1
  %10 = load i8, i8* %9, align 1
  %11 = getelementptr inbounds %"class.v8::internal::compiler::SelectParameters", %"class.v8::internal::compiler::SelectParameters"* %1, i64 0, i32 1
  %12 = load i8, i8* %11, align 1
  %13 = icmp ne i8 %10, %12
  br label %14

14:                                               ; preds = %2, %8
  %15 = phi i1 [ true, %2 ], [ %13, %8 ]
  ret i1 %15
}

; Function Attrs: nounwind ssp uwtable
define hidden i64 @_ZN2v88internal8compiler10hash_valueERKNS1_16SelectParametersE(%"class.v8::internal::compiler::SelectParameters"* nocapture readonly dereferenceable(2)) local_unnamed_addr #0 {
  %2 = getelementptr inbounds %"class.v8::internal::compiler::SelectParameters", %"class.v8::internal::compiler::SelectParameters"* %0, i64 0, i32 0
  %3 = load i8, i8* %2, align 1
  %4 = getelementptr inbounds %"class.v8::internal::compiler::SelectParameters", %"class.v8::internal::compiler::SelectParameters"* %0, i64 0, i32 1
  %5 = load i8, i8* %4, align 1
  %6 = zext i8 %5 to i64
  %7 = tail call i64 @_ZN2v84base12hash_combineEmm(i64 0, i64 %6) #17
  %8 = zext i8 %3 to i64
  %9 = tail call i64 @_ZN2v84base12hash_combineEmm(i64 %7, i64 %8) #17
  ret i64 %9
}

; Function Attrs: nounwind ssp uwtable
define hidden dereferenceable(160) %"class.std::__1::basic_ostream"* @_ZN2v88internal8compilerlsERNSt3__113basic_ostreamIcNS2_11char_traitsIcEEEERKNS1_16SelectParametersE(%"class.std::__1::basic_ostream"* dereferenceable(160), %"class.v8::internal::compiler::SelectParameters"* nocapture readonly dereferenceable(2)) local_unnamed_addr #0 {
  %3 = getelementptr inbounds %"class.v8::internal::compiler::SelectParameters", %"class.v8::internal::compiler::SelectParameters"* %1, i64 0, i32 0
  %4 = load i8, i8* %3, align 1
  %5 = tail call dereferenceable(160) %"class.std::__1::basic_ostream"* @_ZN2v88internallsERNSt3__113basic_ostreamIcNS1_11char_traitsIcEEEENS0_21MachineRepresentationE(%"class.std::__1::basic_ostream"* dereferenceable(160) %0, i8 zeroext %4) #17
  %6 = tail call dereferenceable(160) %"class.std::__1::basic_ostream"* @_ZNSt3__124__put_character_sequenceIcNS_11char_traitsIcEEEERNS_13basic_ostreamIT_T0_EES7_PKS4_m(%"class.std::__1::basic_ostream"* dereferenceable(160) %5, i8* getelementptr inbounds ([3 x i8], [3 x i8]* @.str.23, i64 0, i64 0), i64 2) #17
  %7 = getelementptr inbounds %"class.v8::internal::compiler::SelectParameters", %"class.v8::internal::compiler::SelectParameters"* %1, i64 0, i32 1
  %8 = load i8, i8* %7, align 1
  switch i8 %8, label %15 [
    i8 0, label %9
    i8 1, label %11
    i8 2, label %13
  ]

9:                                                ; preds = %2
  %10 = tail call dereferenceable(160) %"class.std::__1::basic_ostream"* @_ZNSt3__124__put_character_sequenceIcNS_11char_traitsIcEEEERNS_13basic_ostreamIT_T0_EES7_PKS4_m(%"class.std::__1::basic_ostream"* dereferenceable(160) %6, i8* getelementptr inbounds ([5 x i8], [5 x i8]* @.str, i64 0, i64 0), i64 4) #17
  br label %16

11:                                               ; preds = %2
  %12 = tail call dereferenceable(160) %"class.std::__1::basic_ostream"* @_ZNSt3__124__put_character_sequenceIcNS_11char_traitsIcEEEERNS_13basic_ostreamIT_T0_EES7_PKS4_m(%"class.std::__1::basic_ostream"* dereferenceable(160) %6, i8* getelementptr inbounds ([5 x i8], [5 x i8]* @.str.1, i64 0, i64 0), i64 4) #17
  br label %16

13:                                               ; preds = %2
  %14 = tail call dereferenceable(160) %"class.std::__1::basic_ostream"* @_ZNSt3__124__put_character_sequenceIcNS_11char_traitsIcEEEERNS_13basic_ostreamIT_T0_EES7_PKS4_m(%"class.std::__1::basic_ostream"* dereferenceable(160) %6, i8* getelementptr inbounds ([6 x i8], [6 x i8]* @.str.2, i64 0, i64 0), i64 5) #17
  br label %16

15:                                               ; preds = %2
  tail call void (i8*, ...) @_Z8V8_FatalPKcz(i8* getelementptr inbounds ([17 x i8], [17 x i8]* @.str.3, i64 0, i64 0)) #18
  unreachable

16:                                               ; preds = %9, %11, %13
  %17 = phi %"class.std::__1::basic_ostream"* [ %14, %13 ], [ %12, %11 ], [ %10, %9 ]
  ret %"class.std::__1::basic_ostream"* %17
}

declare dereferenceable(160) %"class.std::__1::basic_ostream"* @_ZN2v88internallsERNSt3__113basic_ostreamIcNS1_11char_traitsIcEEEENS0_21MachineRepresentationE(%"class.std::__1::basic_ostream"* dereferenceable(160), i8 zeroext) local_unnamed_addr #4

; Function Attrs: norecurse nounwind readnone ssp uwtable
define hidden dereferenceable(2) %"class.v8::internal::compiler::SelectParameters"* @_ZN2v88internal8compiler18SelectParametersOfEPKNS1_8OperatorE(%"class.v8::internal::compiler::Operator"* readnone) local_unnamed_addr #3 {
  %2 = getelementptr inbounds %"class.v8::internal::compiler::Operator", %"class.v8::internal::compiler::Operator"* %0, i64 0, i32 12
  %3 = bitcast [4 x i8]* %2 to %"class.v8::internal::compiler::SelectParameters"*
  ret %"class.v8::internal::compiler::SelectParameters"* %3
}

; Function Attrs: norecurse nounwind readonly ssp uwtable
define hidden %"class.v8::internal::compiler::CallDescriptor"* @_ZN2v88internal8compiler16CallDescriptorOfEPKNS1_8OperatorE(%"class.v8::internal::compiler::Operator"* nocapture readonly) local_unnamed_addr #2 {
  %2 = getelementptr inbounds %"class.v8::internal::compiler::Operator", %"class.v8::internal::compiler::Operator"* %0, i64 1
  %3 = bitcast %"class.v8::internal::compiler::Operator"* %2 to %"class.v8::internal::compiler::CallDescriptor"**
  %4 = load %"class.v8::internal::compiler::CallDescriptor"*, %"class.v8::internal::compiler::CallDescriptor"** %3, align 8
  ret %"class.v8::internal::compiler::CallDescriptor"* %4
}

; Function Attrs: norecurse nounwind readonly ssp uwtable
define hidden i64 @_ZN2v88internal8compiler17ProjectionIndexOfEPKNS1_8OperatorE(%"class.v8::internal::compiler::Operator"* nocapture readonly) local_unnamed_addr #2 {
  %2 = getelementptr inbounds %"class.v8::internal::compiler::Operator", %"class.v8::internal::compiler::Operator"* %0, i64 1
  %3 = bitcast %"class.v8::internal::compiler::Operator"* %2 to i64*
  %4 = load i64, i64* %3, align 8
  ret i64 %4
}

; Function Attrs: norecurse nounwind readonly ssp uwtable
define hidden zeroext i8 @_ZN2v88internal8compiler19PhiRepresentationOfEPKNS1_8OperatorE(%"class.v8::internal::compiler::Operator"* nocapture readonly) local_unnamed_addr #2 {
  %2 = getelementptr inbounds %"class.v8::internal::compiler::Operator", %"class.v8::internal::compiler::Operator"* %0, i64 0, i32 12, i64 0
  %3 = load i8, i8* %2, align 1
  ret i8 %3
}

; Function Attrs: norecurse nounwind readonly ssp uwtable
define hidden zeroext i8 @_ZN2v88internal8compiler29LoopExitValueRepresentationOfEPKNS1_8OperatorE(%"class.v8::internal::compiler::Operator"* nocapture readonly) local_unnamed_addr #2 {
  %2 = getelementptr inbounds %"class.v8::internal::compiler::Operator", %"class.v8::internal::compiler::Operator"* %0, i64 0, i32 12, i64 0
  %3 = load i8, i8* %2, align 1
  ret i8 %3
}

; Function Attrs: norecurse nounwind readonly ssp uwtable
define hidden i32 @_ZN2v88internal8compiler16ParameterIndexOfEPKNS1_8OperatorE(%"class.v8::internal::compiler::Operator"* nocapture readonly) local_unnamed_addr #2 {
  %2 = getelementptr inbounds %"class.v8::internal::compiler::Operator", %"class.v8::internal::compiler::Operator"* %0, i64 1
  %3 = bitcast %"class.v8::internal::compiler::Operator"* %2 to i32*
  %4 = load i32, i32* %3, align 8
  ret i32 %4
}

; Function Attrs: norecurse nounwind readnone ssp uwtable
define hidden dereferenceable(16) %"class.v8::internal::compiler::ParameterInfo"* @_ZN2v88internal8compiler15ParameterInfoOfEPKNS1_8OperatorE(%"class.v8::internal::compiler::Operator"* readnone) local_unnamed_addr #3 {
  %2 = getelementptr inbounds %"class.v8::internal::compiler::Operator", %"class.v8::internal::compiler::Operator"* %0, i64 1
  %3 = bitcast %"class.v8::internal::compiler::Operator"* %2 to %"class.v8::internal::compiler::ParameterInfo"*
  ret %"class.v8::internal::compiler::ParameterInfo"* %3
}

; Function Attrs: norecurse nounwind readonly ssp uwtable
define hidden zeroext i1 @_ZN2v88internal8compilereqERKNS1_13ParameterInfoES4_(%"class.v8::internal::compiler::ParameterInfo"* nocapture readonly dereferenceable(16), %"class.v8::internal::compiler::ParameterInfo"* nocapture readonly dereferenceable(16)) local_unnamed_addr #2 {
  %3 = getelementptr inbounds %"class.v8::internal::compiler::ParameterInfo", %"class.v8::internal::compiler::ParameterInfo"* %0, i64 0, i32 0
  %4 = load i32, i32* %3, align 8
  %5 = getelementptr inbounds %"class.v8::internal::compiler::ParameterInfo", %"class.v8::internal::compiler::ParameterInfo"* %1, i64 0, i32 0
  %6 = load i32, i32* %5, align 8
  %7 = icmp eq i32 %4, %6
  ret i1 %7
}

; Function Attrs: norecurse nounwind readonly ssp uwtable
define hidden zeroext i1 @_ZN2v88internal8compilerneERKNS1_13ParameterInfoES4_(%"class.v8::internal::compiler::ParameterInfo"* nocapture readonly dereferenceable(16), %"class.v8::internal::compiler::ParameterInfo"* nocapture readonly dereferenceable(16)) local_unnamed_addr #2 {
  %3 = getelementptr inbounds %"class.v8::internal::compiler::ParameterInfo", %"class.v8::internal::compiler::ParameterInfo"* %0, i64 0, i32 0
  %4 = load i32, i32* %3, align 8
  %5 = getelementptr inbounds %"class.v8::internal::compiler::ParameterInfo", %"class.v8::internal::compiler::ParameterInfo"* %1, i64 0, i32 0
  %6 = load i32, i32* %5, align 8
  %7 = icmp ne i32 %4, %6
  ret i1 %7
}

; Function Attrs: norecurse nounwind readonly ssp uwtable
define hidden i64 @_ZN2v88internal8compiler10hash_valueERKNS1_13ParameterInfoE(%"class.v8::internal::compiler::ParameterInfo"* nocapture readonly dereferenceable(16)) local_unnamed_addr #2 {
  %2 = getelementptr inbounds %"class.v8::internal::compiler::ParameterInfo", %"class.v8::internal::compiler::ParameterInfo"* %0, i64 0, i32 0
  %3 = load i32, i32* %2, align 8
  %4 = sext i32 %3 to i64
  ret i64 %4
}

; Function Attrs: nounwind ssp uwtable
define hidden dereferenceable(160) %"class.std::__1::basic_ostream"* @_ZN2v88internal8compilerlsERNSt3__113basic_ostreamIcNS2_11char_traitsIcEEEERKNS1_13ParameterInfoE(%"class.std::__1::basic_ostream"* returned dereferenceable(160), %"class.v8::internal::compiler::ParameterInfo"* nocapture readonly dereferenceable(16)) local_unnamed_addr #0 {
  %3 = getelementptr inbounds %"class.v8::internal::compiler::ParameterInfo", %"class.v8::internal::compiler::ParameterInfo"* %1, i64 0, i32 0
  %4 = load i32, i32* %3, align 8
  %5 = tail call dereferenceable(160) %"class.std::__1::basic_ostream"* @_ZNSt3__113basic_ostreamIcNS_11char_traitsIcEEElsEi(%"class.std::__1::basic_ostream"* %0, i32 %4) #17
  %6 = getelementptr inbounds %"class.v8::internal::compiler::ParameterInfo", %"class.v8::internal::compiler::ParameterInfo"* %1, i64 0, i32 1
  %7 = load i8*, i8** %6, align 8
  %8 = icmp eq i8* %7, null
  br i1 %8, label %14, label %9

9:                                                ; preds = %2
  %10 = tail call dereferenceable(160) %"class.std::__1::basic_ostream"* @_ZNSt3__124__put_character_sequenceIcNS_11char_traitsIcEEEERNS_13basic_ostreamIT_T0_EES7_PKS4_m(%"class.std::__1::basic_ostream"* dereferenceable(160) %0, i8* getelementptr inbounds ([15 x i8], [15 x i8]* @.str.25, i64 0, i64 0), i64 14) #17
  %11 = load i8*, i8** %6, align 8
  %12 = tail call i64 @strlen(i8* %11) #17
  %13 = tail call dereferenceable(160) %"class.std::__1::basic_ostream"* @_ZNSt3__124__put_character_sequenceIcNS_11char_traitsIcEEEERNS_13basic_ostreamIT_T0_EES7_PKS4_m(%"class.std::__1::basic_ostream"* dereferenceable(160) %10, i8* %11, i64 %12) #17
  br label %14

14:                                               ; preds = %2, %9
  ret %"class.std::__1::basic_ostream"* %0
}

declare dereferenceable(160) %"class.std::__1::basic_ostream"* @_ZNSt3__113basic_ostreamIcNS_11char_traitsIcEEElsEi(%"class.std::__1::basic_ostream"*, i32) local_unnamed_addr #4

; Function Attrs: nounwind ssp uwtable
define hidden dereferenceable(160) %"class.std::__1::basic_ostream"* @_ZN2v88internal8compilerlsERNSt3__113basic_ostreamIcNS2_11char_traitsIcEEEERKNS1_15ObjectStateInfoE(%"class.std::__1::basic_ostream"* dereferenceable(160), %"struct.v8::internal::compiler::ObjectStateInfo"* nocapture readonly dereferenceable(8)) local_unnamed_addr #0 {
  %3 = tail call dereferenceable(160) %"class.std::__1::basic_ostream"* @_ZNSt3__124__put_character_sequenceIcNS_11char_traitsIcEEEERNS_13basic_ostreamIT_T0_EES7_PKS4_m(%"class.std::__1::basic_ostream"* dereferenceable(160) %0, i8* getelementptr inbounds ([4 x i8], [4 x i8]* @.str.26, i64 0, i64 0), i64 3) #17
  %4 = getelementptr inbounds %"struct.v8::internal::compiler::ObjectStateInfo", %"struct.v8::internal::compiler::ObjectStateInfo"* %1, i64 0, i32 0, i32 0
  %5 = load i32, i32* %4, align 4
  %6 = tail call dereferenceable(160) %"class.std::__1::basic_ostream"* @_ZNSt3__113basic_ostreamIcNS_11char_traitsIcEEElsEj(%"class.std::__1::basic_ostream"* %3, i32 %5) #17
  %7 = tail call dereferenceable(160) %"class.std::__1::basic_ostream"* @_ZNSt3__124__put_character_sequenceIcNS_11char_traitsIcEEEERNS_13basic_ostreamIT_T0_EES7_PKS4_m(%"class.std::__1::basic_ostream"* dereferenceable(160) %6, i8* getelementptr inbounds ([8 x i8], [8 x i8]* @.str.27, i64 0, i64 0), i64 7) #17
  %8 = getelementptr inbounds %"struct.v8::internal::compiler::ObjectStateInfo", %"struct.v8::internal::compiler::ObjectStateInfo"* %1, i64 0, i32 0, i32 1
  %9 = load i32, i32* %8, align 4
  %10 = tail call dereferenceable(160) %"class.std::__1::basic_ostream"* @_ZNSt3__113basic_ostreamIcNS_11char_traitsIcEEElsEi(%"class.std::__1::basic_ostream"* %7, i32 %9) #17
  ret %"class.std::__1::basic_ostream"* %10
}

declare dereferenceable(160) %"class.std::__1::basic_ostream"* @_ZNSt3__113basic_ostreamIcNS_11char_traitsIcEEElsEj(%"class.std::__1::basic_ostream"*, i32) local_unnamed_addr #4

; Function Attrs: nounwind ssp uwtable
define hidden i64 @_ZN2v88internal8compiler10hash_valueERKNS1_15ObjectStateInfoE(%"struct.v8::internal::compiler::ObjectStateInfo"* nocapture readonly dereferenceable(8)) local_unnamed_addr #0 {
  %2 = getelementptr inbounds %"struct.v8::internal::compiler::ObjectStateInfo", %"struct.v8::internal::compiler::ObjectStateInfo"* %0, i64 0, i32 0, i32 0
  %3 = load i32, i32* %2, align 4
  %4 = getelementptr inbounds %"struct.v8::internal::compiler::ObjectStateInfo", %"struct.v8::internal::compiler::ObjectStateInfo"* %0, i64 0, i32 0, i32 1
  %5 = load i32, i32* %4, align 4
  %6 = tail call i64 @_ZN2v84base10hash_valueEj(i32 %5) #17
  %7 = tail call i64 @_ZN2v84base12hash_combineEmm(i64 0, i64 %6) #17
  %8 = tail call i64 @_ZN2v84base10hash_valueEj(i32 %3) #17
  %9 = tail call i64 @_ZN2v84base12hash_combineEmm(i64 %7, i64 %8) #17
  ret i64 %9
}

; Function Attrs: nounwind ssp uwtable
define hidden dereferenceable(160) %"class.std::__1::basic_ostream"* @_ZN2v88internal8compilerlsERNSt3__113basic_ostreamIcNS2_11char_traitsIcEEEERKNS1_20TypedObjectStateInfoE(%"class.std::__1::basic_ostream"* dereferenceable(160), %"struct.v8::internal::compiler::TypedObjectStateInfo"* nocapture readonly dereferenceable(16)) local_unnamed_addr #0 {
  %3 = tail call dereferenceable(160) %"class.std::__1::basic_ostream"* @_ZNSt3__124__put_character_sequenceIcNS_11char_traitsIcEEEERNS_13basic_ostreamIT_T0_EES7_PKS4_m(%"class.std::__1::basic_ostream"* dereferenceable(160) %0, i8* getelementptr inbounds ([4 x i8], [4 x i8]* @.str.26, i64 0, i64 0), i64 3) #17
  %4 = getelementptr inbounds %"struct.v8::internal::compiler::TypedObjectStateInfo", %"struct.v8::internal::compiler::TypedObjectStateInfo"* %1, i64 0, i32 0, i32 0
  %5 = load i32, i32* %4, align 8
  %6 = tail call dereferenceable(160) %"class.std::__1::basic_ostream"* @_ZNSt3__113basic_ostreamIcNS_11char_traitsIcEEElsEj(%"class.std::__1::basic_ostream"* %3, i32 %5) #17
  %7 = tail call dereferenceable(160) %"class.std::__1::basic_ostream"* @_ZNSt3__124__put_character_sequenceIcNS_11char_traitsIcEEEERNS_13basic_ostreamIT_T0_EES7_PKS4_m(%"class.std::__1::basic_ostream"* dereferenceable(160) %6, i8* getelementptr inbounds ([3 x i8], [3 x i8]* @.str.23, i64 0, i64 0), i64 2) #17
  %8 = getelementptr inbounds %"struct.v8::internal::compiler::TypedObjectStateInfo", %"struct.v8::internal::compiler::TypedObjectStateInfo"* %1, i64 0, i32 0, i32 1
  %9 = load %"class.v8::internal::ZoneVector"*, %"class.v8::internal::ZoneVector"** %8, align 8
  %10 = getelementptr inbounds %"class.v8::internal::ZoneVector", %"class.v8::internal::ZoneVector"* %9, i64 0, i32 0, i32 0, i32 0
  %11 = load %"class.v8::internal::MachineType"*, %"class.v8::internal::MachineType"** %10, align 8
  %12 = getelementptr inbounds %"class.v8::internal::ZoneVector", %"class.v8::internal::ZoneVector"* %9, i64 0, i32 0, i32 0, i32 1
  %13 = load %"class.v8::internal::MachineType"*, %"class.v8::internal::MachineType"** %12, align 8
  %14 = icmp eq %"class.v8::internal::MachineType"* %11, %13
  br i1 %14, label %29, label %15

15:                                               ; preds = %2
  %16 = bitcast %"class.v8::internal::MachineType"* %11 to i16*
  %17 = load i16, i16* %16, align 1
  %18 = tail call dereferenceable(160) %"class.std::__1::basic_ostream"* @_ZN2v88internallsERNSt3__113basic_ostreamIcNS1_11char_traitsIcEEEENS0_11MachineTypeE(%"class.std::__1::basic_ostream"* dereferenceable(160) %7, i16 %17) #17
  %19 = getelementptr inbounds %"class.v8::internal::MachineType", %"class.v8::internal::MachineType"* %11, i64 1
  %20 = icmp eq %"class.v8::internal::MachineType"* %19, %13
  br i1 %20, label %29, label %21

21:                                               ; preds = %15, %21
  %22 = phi %"class.v8::internal::MachineType"* [ %27, %21 ], [ %19, %15 ]
  %23 = bitcast %"class.v8::internal::MachineType"* %22 to i16*
  %24 = load i16, i16* %23, align 1
  %25 = tail call dereferenceable(160) %"class.std::__1::basic_ostream"* @_ZNSt3__124__put_character_sequenceIcNS_11char_traitsIcEEEERNS_13basic_ostreamIT_T0_EES7_PKS4_m(%"class.std::__1::basic_ostream"* dereferenceable(160) %7, i8* getelementptr inbounds ([3 x i8], [3 x i8]* @.str.23, i64 0, i64 0), i64 2) #17
  %26 = tail call dereferenceable(160) %"class.std::__1::basic_ostream"* @_ZN2v88internallsERNSt3__113basic_ostreamIcNS1_11char_traitsIcEEEENS0_11MachineTypeE(%"class.std::__1::basic_ostream"* dereferenceable(160) %7, i16 %24) #17
  %27 = getelementptr inbounds %"class.v8::internal::MachineType", %"class.v8::internal::MachineType"* %22, i64 1
  %28 = icmp eq %"class.v8::internal::MachineType"* %27, %13
  br i1 %28, label %29, label %21, !llvm.loop !3

29:                                               ; preds = %15, %21, %2
  ret %"class.std::__1::basic_ostream"* %7
}

; Function Attrs: nounwind ssp uwtable
define hidden dereferenceable(160) %"class.std::__1::basic_ostream"* @_ZN2v88internal8compilerlsERNSt3__113basic_ostreamIcNS2_11char_traitsIcEEEEPKNS0_10ZoneVectorINS0_11MachineTypeEEE(%"class.std::__1::basic_ostream"* returned dereferenceable(160), %"class.v8::internal::ZoneVector"* nocapture readonly) local_unnamed_addr #0 {
  %3 = getelementptr inbounds %"class.v8::internal::ZoneVector", %"class.v8::internal::ZoneVector"* %1, i64 0, i32 0, i32 0, i32 0
  %4 = load %"class.v8::internal::MachineType"*, %"class.v8::internal::MachineType"** %3, align 8
  %5 = getelementptr inbounds %"class.v8::internal::ZoneVector", %"class.v8::internal::ZoneVector"* %1, i64 0, i32 0, i32 0, i32 1
  %6 = load %"class.v8::internal::MachineType"*, %"class.v8::internal::MachineType"** %5, align 8
  %7 = icmp eq %"class.v8::internal::MachineType"* %4, %6
  br i1 %7, label %14, label %8

8:                                                ; preds = %2
  %9 = bitcast %"class.v8::internal::MachineType"* %4 to i16*
  %10 = load i16, i16* %9, align 1
  %11 = tail call dereferenceable(160) %"class.std::__1::basic_ostream"* @_ZN2v88internallsERNSt3__113basic_ostreamIcNS1_11char_traitsIcEEEENS0_11MachineTypeE(%"class.std::__1::basic_ostream"* dereferenceable(160) %0, i16 %10) #17
  %12 = getelementptr inbounds %"class.v8::internal::MachineType", %"class.v8::internal::MachineType"* %4, i64 1
  %13 = icmp eq %"class.v8::internal::MachineType"* %12, %6
  br i1 %13, label %14, label %15

14:                                               ; preds = %8, %15, %2
  ret %"class.std::__1::basic_ostream"* %0

15:                                               ; preds = %8, %15
  %16 = phi %"class.v8::internal::MachineType"* [ %21, %15 ], [ %12, %8 ]
  %17 = bitcast %"class.v8::internal::MachineType"* %16 to i16*
  %18 = load i16, i16* %17, align 1
  %19 = tail call dereferenceable(160) %"class.std::__1::basic_ostream"* @_ZNSt3__124__put_character_sequenceIcNS_11char_traitsIcEEEERNS_13basic_ostreamIT_T0_EES7_PKS4_m(%"class.std::__1::basic_ostream"* dereferenceable(160) %0, i8* getelementptr inbounds ([3 x i8], [3 x i8]* @.str.23, i64 0, i64 0), i64 2) #17
  %20 = tail call dereferenceable(160) %"class.std::__1::basic_ostream"* @_ZN2v88internallsERNSt3__113basic_ostreamIcNS1_11char_traitsIcEEEENS0_11MachineTypeE(%"class.std::__1::basic_ostream"* dereferenceable(160) %0, i16 %18) #17
  %21 = getelementptr inbounds %"class.v8::internal::MachineType", %"class.v8::internal::MachineType"* %16, i64 1
  %22 = icmp eq %"class.v8::internal::MachineType"* %21, %6
  br i1 %22, label %14, label %15, !llvm.loop !5
}

; Function Attrs: nounwind ssp uwtable
define hidden i64 @_ZN2v88internal8compiler10hash_valueERKNS1_20TypedObjectStateInfoE(%"struct.v8::internal::compiler::TypedObjectStateInfo"* nocapture readonly dereferenceable(16)) local_unnamed_addr #0 {
  %2 = getelementptr inbounds %"struct.v8::internal::compiler::TypedObjectStateInfo", %"struct.v8::internal::compiler::TypedObjectStateInfo"* %0, i64 0, i32 0, i32 0
  %3 = load i32, i32* %2, align 8
  %4 = getelementptr inbounds %"struct.v8::internal::compiler::TypedObjectStateInfo", %"struct.v8::internal::compiler::TypedObjectStateInfo"* %0, i64 0, i32 0, i32 1
  %5 = bitcast %"class.v8::internal::ZoneVector"** %4 to i64*
  %6 = load i64, i64* %5, align 8
  %7 = tail call i64 @_ZN2v84base10hash_valueEm(i64 %6) #17
  %8 = tail call i64 @_ZN2v84base12hash_combineEmm(i64 0, i64 %7) #17
  %9 = tail call i64 @_ZN2v84base10hash_valueEj(i32 %3) #17
  %10 = tail call i64 @_ZN2v84base12hash_combineEmm(i64 %8, i64 %9) #17
  ret i64 %10
}

; Function Attrs: norecurse nounwind readonly ssp uwtable
define hidden zeroext i1 @_ZN2v88internal8compilereqERKNS1_26RelocatablePtrConstantInfoES4_(%"class.v8::internal::compiler::RelocatablePtrConstantInfo"* nocapture readonly dereferenceable(16), %"class.v8::internal::compiler::RelocatablePtrConstantInfo"* nocapture readonly dereferenceable(16)) local_unnamed_addr #2 {
  %3 = getelementptr inbounds %"class.v8::internal::compiler::RelocatablePtrConstantInfo", %"class.v8::internal::compiler::RelocatablePtrConstantInfo"* %0, i64 0, i32 1
  %4 = load i8, i8* %3, align 8
  %5 = getelementptr inbounds %"class.v8::internal::compiler::RelocatablePtrConstantInfo", %"class.v8::internal::compiler::RelocatablePtrConstantInfo"* %1, i64 0, i32 1
  %6 = load i8, i8* %5, align 8
  %7 = icmp eq i8 %4, %6
  br i1 %7, label %8, label %20

8:                                                ; preds = %2
  %9 = getelementptr inbounds %"class.v8::internal::compiler::RelocatablePtrConstantInfo", %"class.v8::internal::compiler::RelocatablePtrConstantInfo"* %0, i64 0, i32 0
  %10 = load i64, i64* %9, align 8
  %11 = getelementptr inbounds %"class.v8::internal::compiler::RelocatablePtrConstantInfo", %"class.v8::internal::compiler::RelocatablePtrConstantInfo"* %1, i64 0, i32 0
  %12 = load i64, i64* %11, align 8
  %13 = icmp eq i64 %10, %12
  br i1 %13, label %14, label %20

14:                                               ; preds = %8
  %15 = getelementptr inbounds %"class.v8::internal::compiler::RelocatablePtrConstantInfo", %"class.v8::internal::compiler::RelocatablePtrConstantInfo"* %0, i64 0, i32 2
  %16 = load i32, i32* %15, align 4
  %17 = getelementptr inbounds %"class.v8::internal::compiler::RelocatablePtrConstantInfo", %"class.v8::internal::compiler::RelocatablePtrConstantInfo"* %1, i64 0, i32 2
  %18 = load i32, i32* %17, align 4
  %19 = icmp eq i32 %16, %18
  br label %20

20:                                               ; preds = %14, %8, %2
  %21 = phi i1 [ false, %8 ], [ false, %2 ], [ %19, %14 ]
  ret i1 %21
}

; Function Attrs: norecurse nounwind readonly ssp uwtable
define hidden zeroext i1 @_ZN2v88internal8compilerneERKNS1_26RelocatablePtrConstantInfoES4_(%"class.v8::internal::compiler::RelocatablePtrConstantInfo"* nocapture readonly dereferenceable(16), %"class.v8::internal::compiler::RelocatablePtrConstantInfo"* nocapture readonly dereferenceable(16)) local_unnamed_addr #2 {
  %3 = getelementptr inbounds %"class.v8::internal::compiler::RelocatablePtrConstantInfo", %"class.v8::internal::compiler::RelocatablePtrConstantInfo"* %0, i64 0, i32 1
  %4 = load i8, i8* %3, align 8
  %5 = getelementptr inbounds %"class.v8::internal::compiler::RelocatablePtrConstantInfo", %"class.v8::internal::compiler::RelocatablePtrConstantInfo"* %1, i64 0, i32 1
  %6 = load i8, i8* %5, align 8
  %7 = icmp eq i8 %4, %6
  br i1 %7, label %8, label %20

8:                                                ; preds = %2
  %9 = getelementptr inbounds %"class.v8::internal::compiler::RelocatablePtrConstantInfo", %"class.v8::internal::compiler::RelocatablePtrConstantInfo"* %0, i64 0, i32 0
  %10 = load i64, i64* %9, align 8
  %11 = getelementptr inbounds %"class.v8::internal::compiler::RelocatablePtrConstantInfo", %"class.v8::internal::compiler::RelocatablePtrConstantInfo"* %1, i64 0, i32 0
  %12 = load i64, i64* %11, align 8
  %13 = icmp eq i64 %10, %12
  br i1 %13, label %14, label %20

14:                                               ; preds = %8
  %15 = getelementptr inbounds %"class.v8::internal::compiler::RelocatablePtrConstantInfo", %"class.v8::internal::compiler::RelocatablePtrConstantInfo"* %0, i64 0, i32 2
  %16 = load i32, i32* %15, align 4
  %17 = getelementptr inbounds %"class.v8::internal::compiler::RelocatablePtrConstantInfo", %"class.v8::internal::compiler::RelocatablePtrConstantInfo"* %1, i64 0, i32 2
  %18 = load i32, i32* %17, align 4
  %19 = icmp ne i32 %16, %18
  br label %20

20:                                               ; preds = %2, %8, %14
  %21 = phi i1 [ true, %8 ], [ true, %2 ], [ %19, %14 ]
  ret i1 %21
}

; Function Attrs: nounwind ssp uwtable
define hidden i64 @_ZN2v88internal8compiler10hash_valueERKNS1_26RelocatablePtrConstantInfoE(%"class.v8::internal::compiler::RelocatablePtrConstantInfo"* nocapture readonly dereferenceable(16)) local_unnamed_addr #0 {
  %2 = getelementptr inbounds %"class.v8::internal::compiler::RelocatablePtrConstantInfo", %"class.v8::internal::compiler::RelocatablePtrConstantInfo"* %0, i64 0, i32 0
  %3 = load i64, i64* %2, align 8
  %4 = getelementptr inbounds %"class.v8::internal::compiler::RelocatablePtrConstantInfo", %"class.v8::internal::compiler::RelocatablePtrConstantInfo"* %0, i64 0, i32 1
  %5 = load i8, i8* %4, align 8
  %6 = getelementptr inbounds %"class.v8::internal::compiler::RelocatablePtrConstantInfo", %"class.v8::internal::compiler::RelocatablePtrConstantInfo"* %0, i64 0, i32 2
  %7 = load i32, i32* %6, align 4
  %8 = tail call i64 @_ZN2v84base10hash_valueEj(i32 %7) #17
  %9 = tail call i64 @_ZN2v84base12hash_combineEmm(i64 0, i64 %8) #17
  %10 = zext i8 %5 to i64
  %11 = tail call i64 @_ZN2v84base12hash_combineEmm(i64 %9, i64 %10) #17
  %12 = tail call i64 @_ZN2v84base10hash_valueEm(i64 %3) #17
  %13 = tail call i64 @_ZN2v84base12hash_combineEmm(i64 %11, i64 %12) #17
  ret i64 %13
}

; Function Attrs: nounwind ssp uwtable
define hidden dereferenceable(160) %"class.std::__1::basic_ostream"* @_ZN2v88internal8compilerlsERNSt3__113basic_ostreamIcNS2_11char_traitsIcEEEERKNS1_26RelocatablePtrConstantInfoE(%"class.std::__1::basic_ostream"* dereferenceable(160), %"class.v8::internal::compiler::RelocatablePtrConstantInfo"* nocapture readonly dereferenceable(16)) local_unnamed_addr #0 {
  %3 = getelementptr inbounds %"class.v8::internal::compiler::RelocatablePtrConstantInfo", %"class.v8::internal::compiler::RelocatablePtrConstantInfo"* %1, i64 0, i32 0
  %4 = load i64, i64* %3, align 8
  %5 = tail call dereferenceable(160) %"class.std::__1::basic_ostream"* @_ZNSt3__113basic_ostreamIcNS_11char_traitsIcEEElsEl(%"class.std::__1::basic_ostream"* %0, i64 %4) #17
  %6 = tail call dereferenceable(160) %"class.std::__1::basic_ostream"* @_ZNSt3__124__put_character_sequenceIcNS_11char_traitsIcEEEERNS_13basic_ostreamIT_T0_EES7_PKS4_m(%"class.std::__1::basic_ostream"* dereferenceable(160) %5, i8* getelementptr inbounds ([3 x i8], [3 x i8]* @.str.23, i64 0, i64 0), i64 2) #17
  %7 = getelementptr inbounds %"class.v8::internal::compiler::RelocatablePtrConstantInfo", %"class.v8::internal::compiler::RelocatablePtrConstantInfo"* %1, i64 0, i32 1
  %8 = load i8, i8* %7, align 8
  %9 = sext i8 %8 to i32
  %10 = tail call dereferenceable(160) %"class.std::__1::basic_ostream"* @_ZNSt3__113basic_ostreamIcNS_11char_traitsIcEEElsEi(%"class.std::__1::basic_ostream"* %6, i32 %9) #17
  %11 = tail call dereferenceable(160) %"class.std::__1::basic_ostream"* @_ZNSt3__124__put_character_sequenceIcNS_11char_traitsIcEEEERNS_13basic_ostreamIT_T0_EES7_PKS4_m(%"class.std::__1::basic_ostream"* dereferenceable(160) %10, i8* getelementptr inbounds ([3 x i8], [3 x i8]* @.str.23, i64 0, i64 0), i64 2) #17
  %12 = getelementptr inbounds %"class.v8::internal::compiler::RelocatablePtrConstantInfo", %"class.v8::internal::compiler::RelocatablePtrConstantInfo"* %1, i64 0, i32 2
  %13 = load i32, i32* %12, align 4
  %14 = tail call dereferenceable(160) %"class.std::__1::basic_ostream"* @_ZNSt3__113basic_ostreamIcNS_11char_traitsIcEEElsEi(%"class.std::__1::basic_ostream"* %11, i32 %13) #17
  ret %"class.std::__1::basic_ostream"* %14
}

declare dereferenceable(160) %"class.std::__1::basic_ostream"* @_ZNSt3__113basic_ostreamIcNS_11char_traitsIcEEElsEl(%"class.std::__1::basic_ostream"*, i64) local_unnamed_addr #4

; Function Attrs: nofree norecurse nounwind ssp uwtable writeonly
define hidden void @_ZN2v88internal8compiler15SparseInputMask13InputIteratorC2EjPNS1_4NodeE(%"class.v8::internal::compiler::SparseInputMask::InputIterator"* nocapture, i32, %"class.v8::internal::compiler::Node"*) unnamed_addr #6 align 2 {
  %4 = getelementptr inbounds %"class.v8::internal::compiler::SparseInputMask::InputIterator", %"class.v8::internal::compiler::SparseInputMask::InputIterator"* %0, i64 0, i32 0
  store i32 %1, i32* %4, align 8
  %5 = getelementptr inbounds %"class.v8::internal::compiler::SparseInputMask::InputIterator", %"class.v8::internal::compiler::SparseInputMask::InputIterator"* %0, i64 0, i32 2
  store %"class.v8::internal::compiler::Node"* %2, %"class.v8::internal::compiler::Node"** %5, align 8
  %6 = getelementptr inbounds %"class.v8::internal::compiler::SparseInputMask::InputIterator", %"class.v8::internal::compiler::SparseInputMask::InputIterator"* %0, i64 0, i32 3
  store i32 0, i32* %6, align 8
  ret void
}

; Function Attrs: nofree norecurse nounwind ssp uwtable
define hidden void @_ZN2v88internal8compiler15SparseInputMask13InputIterator7AdvanceEv(%"class.v8::internal::compiler::SparseInputMask::InputIterator"* nocapture) local_unnamed_addr #7 align 2 {
  %2 = getelementptr inbounds %"class.v8::internal::compiler::SparseInputMask::InputIterator", %"class.v8::internal::compiler::SparseInputMask::InputIterator"* %0, i64 0, i32 0
  %3 = load i32, i32* %2, align 8
  %4 = icmp eq i32 %3, 0
  %5 = and i32 %3, 1
  %6 = icmp ne i32 %5, 0
  %7 = or i1 %4, %6
  br i1 %7, label %8, label %12

8:                                                ; preds = %1
  %9 = getelementptr inbounds %"class.v8::internal::compiler::SparseInputMask::InputIterator", %"class.v8::internal::compiler::SparseInputMask::InputIterator"* %0, i64 0, i32 3
  %10 = load i32, i32* %9, align 8
  %11 = add nsw i32 %10, 1
  store i32 %11, i32* %9, align 8
  br label %12

12:                                               ; preds = %8, %1
  %13 = lshr i32 %3, 1
  store i32 %13, i32* %2, align 8
  ret void
}

; Function Attrs: norecurse nounwind readonly ssp uwtable
define hidden zeroext i1 @_ZNK2v88internal8compiler15SparseInputMask13InputIterator6IsRealEv(%"class.v8::internal::compiler::SparseInputMask::InputIterator"* nocapture readonly) local_unnamed_addr #2 align 2 {
  %2 = getelementptr inbounds %"class.v8::internal::compiler::SparseInputMask::InputIterator", %"class.v8::internal::compiler::SparseInputMask::InputIterator"* %0, i64 0, i32 0
  %3 = load i32, i32* %2, align 8
  %4 = icmp eq i32 %3, 0
  %5 = and i32 %3, 1
  %6 = icmp ne i32 %5, 0
  %7 = or i1 %4, %6
  ret i1 %7
}

; Function Attrs: nofree nounwind ssp uwtable
define hidden i64 @_ZN2v88internal8compiler15SparseInputMask13InputIterator22AdvanceToNextRealOrEndEv(%"class.v8::internal::compiler::SparseInputMask::InputIterator"* nocapture) local_unnamed_addr #8 align 2 {
  %2 = getelementptr inbounds %"class.v8::internal::compiler::SparseInputMask::InputIterator", %"class.v8::internal::compiler::SparseInputMask::InputIterator"* %0, i64 0, i32 0
  %3 = load i32, i32* %2, align 8
  %4 = tail call i32 @llvm.cttz.i32(i32 %3, i1 false) #17, !range !6
  %5 = zext i32 %4 to i64
  %6 = lshr i32 %3, %4
  store i32 %6, i32* %2, align 8
  ret i64 %5
}

; Function Attrs: norecurse nounwind readonly ssp uwtable
define hidden %"class.v8::internal::compiler::Node"* @_ZNK2v88internal8compiler15SparseInputMask13InputIterator7GetRealEv(%"class.v8::internal::compiler::SparseInputMask::InputIterator"* nocapture readonly) local_unnamed_addr #2 align 2 {
  %2 = getelementptr inbounds %"class.v8::internal::compiler::SparseInputMask::InputIterator", %"class.v8::internal::compiler::SparseInputMask::InputIterator"* %0, i64 0, i32 2
  %3 = load %"class.v8::internal::compiler::Node"*, %"class.v8::internal::compiler::Node"** %2, align 8
  %4 = getelementptr inbounds %"class.v8::internal::compiler::SparseInputMask::InputIterator", %"class.v8::internal::compiler::SparseInputMask::InputIterator"* %0, i64 0, i32 3
  %5 = load i32, i32* %4, align 8
  %6 = getelementptr inbounds %"class.v8::internal::compiler::Node", %"class.v8::internal::compiler::Node"* %3, i64 0, i32 3
  %7 = load i32, i32* %6, align 4
  %8 = and i32 %7, 251658240
  %9 = icmp eq i32 %8, 251658240
  %10 = ptrtoint %"class.v8::internal::compiler::Node"* %3 to i64
  %11 = add i64 %10, 32
  br i1 %9, label %12, label %16

12:                                               ; preds = %1
  %13 = inttoptr i64 %11 to i64*
  %14 = load i64, i64* %13, align 8
  %15 = add i64 %14, 16
  br label %16

16:                                               ; preds = %1, %12
  %17 = phi i64 [ %15, %12 ], [ %11, %1 ]
  %18 = inttoptr i64 %17 to %"class.v8::internal::compiler::Node"**
  %19 = sext i32 %5 to i64
  %20 = getelementptr inbounds %"class.v8::internal::compiler::Node"*, %"class.v8::internal::compiler::Node"** %18, i64 %19
  %21 = load %"class.v8::internal::compiler::Node"*, %"class.v8::internal::compiler::Node"** %20, align 8
  ret %"class.v8::internal::compiler::Node"* %21
}

; Function Attrs: norecurse nounwind readonly ssp uwtable
define hidden zeroext i1 @_ZNK2v88internal8compiler15SparseInputMask13InputIterator5IsEndEv(%"class.v8::internal::compiler::SparseInputMask::InputIterator"* nocapture readonly) local_unnamed_addr #2 align 2 {
  %2 = getelementptr inbounds %"class.v8::internal::compiler::SparseInputMask::InputIterator", %"class.v8::internal::compiler::SparseInputMask::InputIterator"* %0, i64 0, i32 0
  %3 = load i32, i32* %2, align 8
  switch i32 %3, label %26 [
    i32 1, label %27
    i32 0, label %4
  ]

4:                                                ; preds = %1
  %5 = getelementptr inbounds %"class.v8::internal::compiler::SparseInputMask::InputIterator", %"class.v8::internal::compiler::SparseInputMask::InputIterator"* %0, i64 0, i32 3
  %6 = load i32, i32* %5, align 8
  %7 = getelementptr inbounds %"class.v8::internal::compiler::SparseInputMask::InputIterator", %"class.v8::internal::compiler::SparseInputMask::InputIterator"* %0, i64 0, i32 2
  %8 = load %"class.v8::internal::compiler::Node"*, %"class.v8::internal::compiler::Node"** %7, align 8
  %9 = getelementptr inbounds %"class.v8::internal::compiler::Node", %"class.v8::internal::compiler::Node"* %8, i64 0, i32 3
  %10 = load i32, i32* %9, align 4
  %11 = and i32 %10, 251658240
  %12 = icmp eq i32 %11, 251658240
  br i1 %12, label %16, label %13

13:                                               ; preds = %4
  %14 = lshr i32 %10, 24
  %15 = and i32 %14, 15
  br label %23

16:                                               ; preds = %4
  %17 = ptrtoint %"class.v8::internal::compiler::Node"* %8 to i64
  %18 = add i64 %17, 32
  %19 = inttoptr i64 %18 to %"struct.v8::internal::compiler::Node::OutOfLineInputs"**
  %20 = load %"struct.v8::internal::compiler::Node::OutOfLineInputs"*, %"struct.v8::internal::compiler::Node::OutOfLineInputs"** %19, align 8
  %21 = getelementptr inbounds %"struct.v8::internal::compiler::Node::OutOfLineInputs", %"struct.v8::internal::compiler::Node::OutOfLineInputs"* %20, i64 0, i32 1
  %22 = load i32, i32* %21, align 8
  br label %23

23:                                               ; preds = %13, %16
  %24 = phi i32 [ %15, %13 ], [ %22, %16 ]
  %25 = icmp sge i32 %6, %24
  br label %27

26:                                               ; preds = %1
  br label %27

27:                                               ; preds = %1, %26, %23
  %28 = phi i1 [ true, %1 ], [ %25, %23 ], [ false, %26 ]
  ret i1 %28
}

; Function Attrs: nounwind readonly ssp uwtable
define hidden i32 @_ZNK2v88internal8compiler15SparseInputMask9CountRealEv(%"class.v8::internal::compiler::SparseInputMask"* nocapture readonly) local_unnamed_addr #9 align 2 {
  %2 = getelementptr inbounds %"class.v8::internal::compiler::SparseInputMask", %"class.v8::internal::compiler::SparseInputMask"* %0, i64 0, i32 0
  %3 = load i32, i32* %2, align 4
  %4 = tail call i32 @llvm.ctpop.i32(i32 %3) #17, !range !6
  %5 = add nsw i32 %4, -1
  ret i32 %5
}

; Function Attrs: nofree norecurse nounwind ssp uwtable
define hidden void @_ZN2v88internal8compiler15SparseInputMask17IterateOverInputsEPNS1_4NodeE(%"class.v8::internal::compiler::SparseInputMask::InputIterator"* noalias nocapture sret, %"class.v8::internal::compiler::SparseInputMask"* nocapture readonly, %"class.v8::internal::compiler::Node"*) local_unnamed_addr #7 align 2 {
  %4 = getelementptr inbounds %"class.v8::internal::compiler::SparseInputMask", %"class.v8::internal::compiler::SparseInputMask"* %1, i64 0, i32 0
  %5 = load i32, i32* %4, align 4
  %6 = getelementptr inbounds %"class.v8::internal::compiler::SparseInputMask::InputIterator", %"class.v8::internal::compiler::SparseInputMask::InputIterator"* %0, i64 0, i32 0
  store i32 %5, i32* %6, align 8
  %7 = getelementptr inbounds %"class.v8::internal::compiler::SparseInputMask::InputIterator", %"class.v8::internal::compiler::SparseInputMask::InputIterator"* %0, i64 0, i32 2
  store %"class.v8::internal::compiler::Node"* %2, %"class.v8::internal::compiler::Node"** %7, align 8
  %8 = getelementptr inbounds %"class.v8::internal::compiler::SparseInputMask::InputIterator", %"class.v8::internal::compiler::SparseInputMask::InputIterator"* %0, i64 0, i32 3
  store i32 0, i32* %8, align 8
  ret void
}

; Function Attrs: norecurse nounwind readonly ssp uwtable
define hidden zeroext i1 @_ZN2v88internal8compilereqERKNS1_15SparseInputMaskES4_(%"class.v8::internal::compiler::SparseInputMask"* nocapture readonly dereferenceable(4), %"class.v8::internal::compiler::SparseInputMask"* nocapture readonly dereferenceable(4)) local_unnamed_addr #2 {
  %3 = getelementptr inbounds %"class.v8::internal::compiler::SparseInputMask", %"class.v8::internal::compiler::SparseInputMask"* %0, i64 0, i32 0
  %4 = load i32, i32* %3, align 4
  %5 = getelementptr inbounds %"class.v8::internal::compiler::SparseInputMask", %"class.v8::internal::compiler::SparseInputMask"* %1, i64 0, i32 0
  %6 = load i32, i32* %5, align 4
  %7 = icmp eq i32 %4, %6
  ret i1 %7
}

; Function Attrs: norecurse nounwind readonly ssp uwtable
define hidden zeroext i1 @_ZN2v88internal8compilerneERKNS1_15SparseInputMaskES4_(%"class.v8::internal::compiler::SparseInputMask"* nocapture readonly dereferenceable(4), %"class.v8::internal::compiler::SparseInputMask"* nocapture readonly dereferenceable(4)) local_unnamed_addr #2 {
  %3 = getelementptr inbounds %"class.v8::internal::compiler::SparseInputMask", %"class.v8::internal::compiler::SparseInputMask"* %0, i64 0, i32 0
  %4 = load i32, i32* %3, align 4
  %5 = getelementptr inbounds %"class.v8::internal::compiler::SparseInputMask", %"class.v8::internal::compiler::SparseInputMask"* %1, i64 0, i32 0
  %6 = load i32, i32* %5, align 4
  %7 = icmp ne i32 %4, %6
  ret i1 %7
}

; Function Attrs: nounwind ssp uwtable
define hidden i64 @_ZN2v88internal8compiler10hash_valueERKNS1_15SparseInputMaskE(%"class.v8::internal::compiler::SparseInputMask"* nocapture readonly dereferenceable(4)) local_unnamed_addr #0 {
  %2 = getelementptr inbounds %"class.v8::internal::compiler::SparseInputMask", %"class.v8::internal::compiler::SparseInputMask"* %0, i64 0, i32 0
  %3 = load i32, i32* %2, align 4
  %4 = tail call i64 @_ZN2v84base10hash_valueEj(i32 %3) #17
  ret i64 %4
}

declare i64 @_ZN2v84base10hash_valueEj(i32) local_unnamed_addr #4

; Function Attrs: nounwind ssp uwtable
define hidden dereferenceable(160) %"class.std::__1::basic_ostream"* @_ZN2v88internal8compilerlsERNSt3__113basic_ostreamIcNS2_11char_traitsIcEEEERKNS1_15SparseInputMaskE(%"class.std::__1::basic_ostream"* dereferenceable(160), %"class.v8::internal::compiler::SparseInputMask"* nocapture readonly dereferenceable(4)) local_unnamed_addr #0 {
  %3 = getelementptr inbounds %"class.v8::internal::compiler::SparseInputMask", %"class.v8::internal::compiler::SparseInputMask"* %1, i64 0, i32 0
  %4 = load i32, i32* %3, align 4
  %5 = icmp eq i32 %4, 0
  br i1 %5, label %6, label %8

6:                                                ; preds = %2
  %7 = tail call dereferenceable(160) %"class.std::__1::basic_ostream"* @_ZNSt3__124__put_character_sequenceIcNS_11char_traitsIcEEEERNS_13basic_ostreamIT_T0_EES7_PKS4_m(%"class.std::__1::basic_ostream"* dereferenceable(160) %0, i8* getelementptr inbounds ([6 x i8], [6 x i8]* @.str.28, i64 0, i64 0), i64 5) #17
  br label %19

8:                                                ; preds = %2
  %9 = tail call dereferenceable(160) %"class.std::__1::basic_ostream"* @_ZNSt3__124__put_character_sequenceIcNS_11char_traitsIcEEEERNS_13basic_ostreamIT_T0_EES7_PKS4_m(%"class.std::__1::basic_ostream"* dereferenceable(160) %0, i8* getelementptr inbounds ([8 x i8], [8 x i8]* @.str.29, i64 0, i64 0), i64 7) #17
  %10 = icmp eq i32 %4, 1
  br i1 %10, label %19, label %11

11:                                               ; preds = %8, %11
  %12 = phi i32 [ %17, %11 ], [ %4, %8 ]
  %13 = and i32 %12, 1
  %14 = icmp eq i32 %13, 0
  %15 = select i1 %14, i8* getelementptr inbounds ([2 x i8], [2 x i8]* @.str.31, i64 0, i64 0), i8* getelementptr inbounds ([2 x i8], [2 x i8]* @.str.30, i64 0, i64 0)
  %16 = tail call dereferenceable(160) %"class.std::__1::basic_ostream"* @_ZNSt3__124__put_character_sequenceIcNS_11char_traitsIcEEEERNS_13basic_ostreamIT_T0_EES7_PKS4_m(%"class.std::__1::basic_ostream"* dereferenceable(160) %0, i8* %15, i64 1) #17
  %17 = lshr i32 %12, 1
  %18 = icmp eq i32 %17, 1
  br i1 %18, label %19, label %11

19:                                               ; preds = %11, %8, %6
  %20 = phi %"class.std::__1::basic_ostream"* [ %7, %6 ], [ %0, %8 ], [ %0, %11 ]
  ret %"class.std::__1::basic_ostream"* %20
}

; Function Attrs: nounwind readonly ssp uwtable
define hidden zeroext i1 @_ZN2v88internal8compilereqERKNS1_19TypedStateValueInfoES4_(%"class.v8::internal::compiler::TypedStateValueInfo"* nocapture readonly dereferenceable(16), %"class.v8::internal::compiler::TypedStateValueInfo"* nocapture readonly dereferenceable(16)) local_unnamed_addr #9 {
  %3 = getelementptr inbounds %"class.v8::internal::compiler::TypedStateValueInfo", %"class.v8::internal::compiler::TypedStateValueInfo"* %0, i64 0, i32 0
  %4 = load %"class.v8::internal::ZoneVector"*, %"class.v8::internal::ZoneVector"** %3, align 8
  %5 = getelementptr inbounds %"class.v8::internal::compiler::TypedStateValueInfo", %"class.v8::internal::compiler::TypedStateValueInfo"* %1, i64 0, i32 0
  %6 = load %"class.v8::internal::ZoneVector"*, %"class.v8::internal::ZoneVector"** %5, align 8
  %7 = icmp eq %"class.v8::internal::ZoneVector"* %4, %6
  br i1 %7, label %8, label %14

8:                                                ; preds = %2
  %9 = getelementptr inbounds %"class.v8::internal::compiler::TypedStateValueInfo", %"class.v8::internal::compiler::TypedStateValueInfo"* %0, i64 0, i32 1, i32 0
  %10 = load i32, i32* %9, align 8
  %11 = getelementptr inbounds %"class.v8::internal::compiler::TypedStateValueInfo", %"class.v8::internal::compiler::TypedStateValueInfo"* %1, i64 0, i32 1, i32 0
  %12 = load i32, i32* %11, align 8
  %13 = icmp eq i32 %10, %12
  br label %14

14:                                               ; preds = %8, %2
  %15 = phi i1 [ false, %2 ], [ %13, %8 ]
  ret i1 %15
}

; Function Attrs: norecurse nounwind readonly ssp uwtable
define hidden zeroext i1 @_ZN2v88internal8compilerneERKNS1_19TypedStateValueInfoES4_(%"class.v8::internal::compiler::TypedStateValueInfo"* nocapture readonly dereferenceable(16), %"class.v8::internal::compiler::TypedStateValueInfo"* nocapture readonly dereferenceable(16)) local_unnamed_addr #2 {
  %3 = getelementptr inbounds %"class.v8::internal::compiler::TypedStateValueInfo", %"class.v8::internal::compiler::TypedStateValueInfo"* %0, i64 0, i32 0
  %4 = load %"class.v8::internal::ZoneVector"*, %"class.v8::internal::ZoneVector"** %3, align 8
  %5 = getelementptr inbounds %"class.v8::internal::compiler::TypedStateValueInfo", %"class.v8::internal::compiler::TypedStateValueInfo"* %1, i64 0, i32 0
  %6 = load %"class.v8::internal::ZoneVector"*, %"class.v8::internal::ZoneVector"** %5, align 8
  %7 = icmp eq %"class.v8::internal::ZoneVector"* %4, %6
  br i1 %7, label %8, label %14

8:                                                ; preds = %2
  %9 = getelementptr inbounds %"class.v8::internal::compiler::TypedStateValueInfo", %"class.v8::internal::compiler::TypedStateValueInfo"* %0, i64 0, i32 1, i32 0
  %10 = load i32, i32* %9, align 8
  %11 = getelementptr inbounds %"class.v8::internal::compiler::TypedStateValueInfo", %"class.v8::internal::compiler::TypedStateValueInfo"* %1, i64 0, i32 1, i32 0
  %12 = load i32, i32* %11, align 8
  %13 = icmp ne i32 %10, %12
  br label %14

14:                                               ; preds = %2, %8
  %15 = phi i1 [ true, %2 ], [ %13, %8 ]
  ret i1 %15
}

; Function Attrs: nounwind ssp uwtable
define hidden i64 @_ZN2v88internal8compiler10hash_valueERKNS1_19TypedStateValueInfoE(%"class.v8::internal::compiler::TypedStateValueInfo"* nocapture readonly dereferenceable(16)) local_unnamed_addr #0 {
  %2 = bitcast %"class.v8::internal::compiler::TypedStateValueInfo"* %0 to i64*
  %3 = load i64, i64* %2, align 8
  %4 = getelementptr inbounds %"class.v8::internal::compiler::TypedStateValueInfo", %"class.v8::internal::compiler::TypedStateValueInfo"* %0, i64 0, i32 1, i32 0
  %5 = load i32, i32* %4, align 8
  %6 = tail call i64 @_ZN2v84base10hash_valueEj(i32 %5) #17
  %7 = tail call i64 @_ZN2v84base12hash_combineEmm(i64 0, i64 %6) #17
  %8 = tail call i64 @_ZN2v84base10hash_valueEm(i64 %3) #17
  %9 = tail call i64 @_ZN2v84base12hash_combineEmm(i64 %7, i64 %8) #17
  ret i64 %9
}

; Function Attrs: nounwind ssp uwtable
define hidden dereferenceable(160) %"class.std::__1::basic_ostream"* @_ZN2v88internal8compilerlsERNSt3__113basic_ostreamIcNS2_11char_traitsIcEEEERKNS1_19TypedStateValueInfoE(%"class.std::__1::basic_ostream"* dereferenceable(160), %"class.v8::internal::compiler::TypedStateValueInfo"* nocapture readonly dereferenceable(16)) local_unnamed_addr #0 {
  %3 = getelementptr inbounds %"class.v8::internal::compiler::TypedStateValueInfo", %"class.v8::internal::compiler::TypedStateValueInfo"* %1, i64 0, i32 0
  %4 = load %"class.v8::internal::ZoneVector"*, %"class.v8::internal::ZoneVector"** %3, align 8
  %5 = getelementptr inbounds %"class.v8::internal::ZoneVector", %"class.v8::internal::ZoneVector"* %4, i64 0, i32 0, i32 0, i32 0
  %6 = load %"class.v8::internal::MachineType"*, %"class.v8::internal::MachineType"** %5, align 8
  %7 = getelementptr inbounds %"class.v8::internal::ZoneVector", %"class.v8::internal::ZoneVector"* %4, i64 0, i32 0, i32 0, i32 1
  %8 = load %"class.v8::internal::MachineType"*, %"class.v8::internal::MachineType"** %7, align 8
  %9 = icmp eq %"class.v8::internal::MachineType"* %6, %8
  br i1 %9, label %24, label %10

10:                                               ; preds = %2
  %11 = bitcast %"class.v8::internal::MachineType"* %6 to i16*
  %12 = load i16, i16* %11, align 1
  %13 = tail call dereferenceable(160) %"class.std::__1::basic_ostream"* @_ZN2v88internallsERNSt3__113basic_ostreamIcNS1_11char_traitsIcEEEENS0_11MachineTypeE(%"class.std::__1::basic_ostream"* dereferenceable(160) %0, i16 %12) #17
  %14 = getelementptr inbounds %"class.v8::internal::MachineType", %"class.v8::internal::MachineType"* %6, i64 1
  %15 = icmp eq %"class.v8::internal::MachineType"* %14, %8
  br i1 %15, label %24, label %16

16:                                               ; preds = %10, %16
  %17 = phi %"class.v8::internal::MachineType"* [ %22, %16 ], [ %14, %10 ]
  %18 = bitcast %"class.v8::internal::MachineType"* %17 to i16*
  %19 = load i16, i16* %18, align 1
  %20 = tail call dereferenceable(160) %"class.std::__1::basic_ostream"* @_ZNSt3__124__put_character_sequenceIcNS_11char_traitsIcEEEERNS_13basic_ostreamIT_T0_EES7_PKS4_m(%"class.std::__1::basic_ostream"* dereferenceable(160) %0, i8* getelementptr inbounds ([3 x i8], [3 x i8]* @.str.23, i64 0, i64 0), i64 2) #17
  %21 = tail call dereferenceable(160) %"class.std::__1::basic_ostream"* @_ZN2v88internallsERNSt3__113basic_ostreamIcNS1_11char_traitsIcEEEENS0_11MachineTypeE(%"class.std::__1::basic_ostream"* dereferenceable(160) %0, i16 %19) #17
  %22 = getelementptr inbounds %"class.v8::internal::MachineType", %"class.v8::internal::MachineType"* %17, i64 1
  %23 = icmp eq %"class.v8::internal::MachineType"* %22, %8
  br i1 %23, label %24, label %16, !llvm.loop !7

24:                                               ; preds = %10, %16, %2
  %25 = tail call dereferenceable(160) %"class.std::__1::basic_ostream"* @_ZNSt3__124__put_character_sequenceIcNS_11char_traitsIcEEEERNS_13basic_ostreamIT_T0_EES7_PKS4_m(%"class.std::__1::basic_ostream"* dereferenceable(160) %0, i8* getelementptr inbounds ([3 x i8], [3 x i8]* @.str.23, i64 0, i64 0), i64 2) #17
  %26 = getelementptr inbounds %"class.v8::internal::compiler::TypedStateValueInfo", %"class.v8::internal::compiler::TypedStateValueInfo"* %1, i64 0, i32 1, i32 0
  %27 = load i32, i32* %26, align 8
  %28 = icmp eq i32 %27, 0
  br i1 %28, label %29, label %31

29:                                               ; preds = %24
  %30 = tail call dereferenceable(160) %"class.std::__1::basic_ostream"* @_ZNSt3__124__put_character_sequenceIcNS_11char_traitsIcEEEERNS_13basic_ostreamIT_T0_EES7_PKS4_m(%"class.std::__1::basic_ostream"* dereferenceable(160) %25, i8* getelementptr inbounds ([6 x i8], [6 x i8]* @.str.28, i64 0, i64 0), i64 5) #17
  br label %42

31:                                               ; preds = %24
  %32 = tail call dereferenceable(160) %"class.std::__1::basic_ostream"* @_ZNSt3__124__put_character_sequenceIcNS_11char_traitsIcEEEERNS_13basic_ostreamIT_T0_EES7_PKS4_m(%"class.std::__1::basic_ostream"* dereferenceable(160) %25, i8* getelementptr inbounds ([8 x i8], [8 x i8]* @.str.29, i64 0, i64 0), i64 7) #17
  %33 = icmp eq i32 %27, 1
  br i1 %33, label %42, label %34

34:                                               ; preds = %31, %34
  %35 = phi i32 [ %40, %34 ], [ %27, %31 ]
  %36 = and i32 %35, 1
  %37 = icmp eq i32 %36, 0
  %38 = select i1 %37, i8* getelementptr inbounds ([2 x i8], [2 x i8]* @.str.31, i64 0, i64 0), i8* getelementptr inbounds ([2 x i8], [2 x i8]* @.str.30, i64 0, i64 0)
  %39 = tail call dereferenceable(160) %"class.std::__1::basic_ostream"* @_ZNSt3__124__put_character_sequenceIcNS_11char_traitsIcEEEERNS_13basic_ostreamIT_T0_EES7_PKS4_m(%"class.std::__1::basic_ostream"* dereferenceable(160) %25, i8* %38, i64 1) #17
  %40 = lshr i32 %35, 1
  %41 = icmp eq i32 %40, 1
  br i1 %41, label %42, label %34

42:                                               ; preds = %34, %29, %31
  %43 = phi %"class.std::__1::basic_ostream"* [ %30, %29 ], [ %25, %31 ], [ %25, %34 ]
  ret %"class.std::__1::basic_ostream"* %43
}

; Function Attrs: norecurse nounwind readnone ssp uwtable
define hidden i64 @_ZN2v88internal8compiler10hash_valueENS1_19RegionObservabilityE(i8 zeroext) local_unnamed_addr #3 {
  %2 = zext i8 %0 to i64
  ret i64 %2
}

; Function Attrs: nounwind ssp uwtable
define hidden dereferenceable(160) %"class.std::__1::basic_ostream"* @_ZN2v88internal8compilerlsERNSt3__113basic_ostreamIcNS2_11char_traitsIcEEEENS1_19RegionObservabilityE(%"class.std::__1::basic_ostream"* dereferenceable(160), i8 zeroext) local_unnamed_addr #0 {
  switch i8 %1, label %7 [
    i8 0, label %3
    i8 1, label %5
  ]

3:                                                ; preds = %2
  %4 = tail call dereferenceable(160) %"class.std::__1::basic_ostream"* @_ZNSt3__124__put_character_sequenceIcNS_11char_traitsIcEEEERNS_13basic_ostreamIT_T0_EES7_PKS4_m(%"class.std::__1::basic_ostream"* dereferenceable(160) %0, i8* getelementptr inbounds ([11 x i8], [11 x i8]* @.str.32, i64 0, i64 0), i64 10) #17
  br label %8

5:                                                ; preds = %2
  %6 = tail call dereferenceable(160) %"class.std::__1::basic_ostream"* @_ZNSt3__124__put_character_sequenceIcNS_11char_traitsIcEEEERNS_13basic_ostreamIT_T0_EES7_PKS4_m(%"class.std::__1::basic_ostream"* dereferenceable(160) %0, i8* getelementptr inbounds ([15 x i8], [15 x i8]* @.str.33, i64 0, i64 0), i64 14) #17
  br label %8

7:                                                ; preds = %2
  tail call void (i8*, ...) @_Z8V8_FatalPKcz(i8* getelementptr inbounds ([17 x i8], [17 x i8]* @.str.3, i64 0, i64 0)) #18
  unreachable

8:                                                ; preds = %5, %3
  %9 = phi %"class.std::__1::basic_ostream"* [ %6, %5 ], [ %4, %3 ]
  ret %"class.std::__1::basic_ostream"* %9
}

; Function Attrs: norecurse nounwind readonly ssp uwtable
define hidden zeroext i8 @_ZN2v88internal8compiler21RegionObservabilityOfEPKNS1_8OperatorE(%"class.v8::internal::compiler::Operator"* nocapture readonly) local_unnamed_addr #2 {
  %2 = getelementptr inbounds %"class.v8::internal::compiler::Operator", %"class.v8::internal::compiler::Operator"* %0, i64 0, i32 12, i64 0
  %3 = load i8, i8* %2, align 1
  ret i8 %3
}

; Function Attrs: norecurse nounwind readonly ssp uwtable
define hidden i64 @_ZN2v88internal8compiler15TypeGuardTypeOfEPKNS1_8OperatorE(%"class.v8::internal::compiler::Operator"* nocapture readonly) local_unnamed_addr #2 {
  %2 = getelementptr inbounds %"class.v8::internal::compiler::Operator", %"class.v8::internal::compiler::Operator"* %0, i64 1
  %3 = bitcast %"class.v8::internal::compiler::Operator"* %2 to i64*
  %4 = load i64, i64* %3, align 8
  ret i64 %4
}

declare dereferenceable(160) %"class.std::__1::basic_ostream"* @_ZN2v88internallsERNSt3__113basic_ostreamIcNS1_11char_traitsIcEEEENS0_11MachineTypeE(%"class.std::__1::basic_ostream"* dereferenceable(160), i16) local_unnamed_addr #4

; Function Attrs: norecurse nounwind readonly ssp uwtable
define hidden i32 @_ZN2v88internal8compiler15OsrValueIndexOfEPKNS1_8OperatorE(%"class.v8::internal::compiler::Operator"* nocapture readonly) local_unnamed_addr #2 {
  %2 = getelementptr inbounds %"class.v8::internal::compiler::Operator", %"class.v8::internal::compiler::Operator"* %0, i64 0, i32 12
  %3 = bitcast [4 x i8]* %2 to i32*
  %4 = load i32, i32* %3, align 4
  ret i32 %4
}

; Function Attrs: norecurse nounwind readonly ssp uwtable
define hidden i32 @_ZN2v88internal8compiler17SparseInputMaskOfEPKNS1_8OperatorE(%"class.v8::internal::compiler::Operator"* nocapture readonly) local_unnamed_addr #2 {
  %2 = getelementptr inbounds %"class.v8::internal::compiler::Operator", %"class.v8::internal::compiler::Operator"* %0, i64 0, i32 2
  %3 = load i16, i16* %2, align 8
  %4 = icmp eq i16 %3, 43
  %5 = getelementptr inbounds %"class.v8::internal::compiler::Operator", %"class.v8::internal::compiler::Operator"* %0, i64 1, i32 1
  %6 = bitcast i8** %5 to i32*
  %7 = getelementptr inbounds %"class.v8::internal::compiler::Operator", %"class.v8::internal::compiler::Operator"* %0, i64 0, i32 12
  %8 = bitcast [4 x i8]* %7 to i32*
  %9 = select i1 %4, i32* %6, i32* %8
  %10 = load i32, i32* %9, align 4
  ret i32 %10
}

; Function Attrs: norecurse nounwind readonly ssp uwtable
define hidden %"class.v8::internal::ZoneVector"* @_ZN2v88internal8compiler14MachineTypesOfEPKNS1_8OperatorE(%"class.v8::internal::compiler::Operator"* nocapture readonly) local_unnamed_addr #2 {
  %2 = getelementptr inbounds %"class.v8::internal::compiler::Operator", %"class.v8::internal::compiler::Operator"* %0, i64 0, i32 2
  %3 = load i16, i16* %2, align 8
  %4 = icmp eq i16 %3, 43
  %5 = getelementptr inbounds %"class.v8::internal::compiler::Operator", %"class.v8::internal::compiler::Operator"* %0, i64 1
  %6 = bitcast %"class.v8::internal::compiler::Operator"* %5 to %"class.v8::internal::ZoneVector"**
  %7 = getelementptr inbounds %"class.v8::internal::compiler::Operator", %"class.v8::internal::compiler::Operator"* %0, i64 1, i32 1
  %8 = bitcast i8** %7 to %"class.v8::internal::ZoneVector"**
  %9 = select i1 %4, %"class.v8::internal::ZoneVector"** %6, %"class.v8::internal::ZoneVector"** %8
  %10 = load %"class.v8::internal::ZoneVector"*, %"class.v8::internal::ZoneVector"** %9, align 8
  ret %"class.v8::internal::ZoneVector"* %10
}

; Function Attrs: norecurse nounwind readonly ssp uwtable
define hidden zeroext i1 @_ZN2v88internal8compilereqERKNS1_17IfValueParametersES4_(%"class.v8::internal::compiler::IfValueParameters"* nocapture readonly dereferenceable(12), %"class.v8::internal::compiler::IfValueParameters"* nocapture readonly dereferenceable(12)) local_unnamed_addr #2 {
  %3 = getelementptr inbounds %"class.v8::internal::compiler::IfValueParameters", %"class.v8::internal::compiler::IfValueParameters"* %0, i64 0, i32 0
  %4 = load i32, i32* %3, align 4
  %5 = getelementptr inbounds %"class.v8::internal::compiler::IfValueParameters", %"class.v8::internal::compiler::IfValueParameters"* %1, i64 0, i32 0
  %6 = load i32, i32* %5, align 4
  %7 = icmp eq i32 %4, %6
  br i1 %7, label %8, label %20

8:                                                ; preds = %2
  %9 = getelementptr inbounds %"class.v8::internal::compiler::IfValueParameters", %"class.v8::internal::compiler::IfValueParameters"* %0, i64 0, i32 1
  %10 = load i32, i32* %9, align 4
  %11 = getelementptr inbounds %"class.v8::internal::compiler::IfValueParameters", %"class.v8::internal::compiler::IfValueParameters"* %1, i64 0, i32 1
  %12 = load i32, i32* %11, align 4
  %13 = icmp eq i32 %10, %12
  br i1 %13, label %14, label %20

14:                                               ; preds = %8
  %15 = getelementptr inbounds %"class.v8::internal::compiler::IfValueParameters", %"class.v8::internal::compiler::IfValueParameters"* %0, i64 0, i32 2
  %16 = load i8, i8* %15, align 4
  %17 = getelementptr inbounds %"class.v8::internal::compiler::IfValueParameters", %"class.v8::internal::compiler::IfValueParameters"* %1, i64 0, i32 2
  %18 = load i8, i8* %17, align 4
  %19 = icmp eq i8 %16, %18
  br label %20

20:                                               ; preds = %14, %8, %2
  %21 = phi i1 [ false, %8 ], [ false, %2 ], [ %19, %14 ]
  ret i1 %21
}

; Function Attrs: nounwind ssp uwtable
define hidden i64 @_ZN2v88internal8compiler10hash_valueERKNS1_17IfValueParametersE(%"class.v8::internal::compiler::IfValueParameters"* nocapture readonly dereferenceable(12)) local_unnamed_addr #0 {
  %2 = getelementptr inbounds %"class.v8::internal::compiler::IfValueParameters", %"class.v8::internal::compiler::IfValueParameters"* %0, i64 0, i32 0
  %3 = load i32, i32* %2, align 4
  %4 = getelementptr inbounds %"class.v8::internal::compiler::IfValueParameters", %"class.v8::internal::compiler::IfValueParameters"* %0, i64 0, i32 1
  %5 = load i32, i32* %4, align 4
  %6 = getelementptr inbounds %"class.v8::internal::compiler::IfValueParameters", %"class.v8::internal::compiler::IfValueParameters"* %0, i64 0, i32 2
  %7 = load i8, i8* %6, align 4
  %8 = zext i8 %7 to i64
  %9 = tail call i64 @_ZN2v84base12hash_combineEmm(i64 0, i64 %8) #17
  %10 = tail call i64 @_ZN2v84base10hash_valueEj(i32 %5) #17
  %11 = tail call i64 @_ZN2v84base12hash_combineEmm(i64 %9, i64 %10) #17
  %12 = tail call i64 @_ZN2v84base10hash_valueEj(i32 %3) #17
  %13 = tail call i64 @_ZN2v84base12hash_combineEmm(i64 %11, i64 %12) #17
  ret i64 %13
}

; Function Attrs: nounwind ssp uwtable
define hidden dereferenceable(160) %"class.std::__1::basic_ostream"* @_ZN2v88internal8compilerlsERNSt3__113basic_ostreamIcNS2_11char_traitsIcEEEERKNS1_17IfValueParametersE(%"class.std::__1::basic_ostream"* returned dereferenceable(160), %"class.v8::internal::compiler::IfValueParameters"* nocapture readonly dereferenceable(12)) local_unnamed_addr #0 {
  %3 = getelementptr inbounds %"class.v8::internal::compiler::IfValueParameters", %"class.v8::internal::compiler::IfValueParameters"* %1, i64 0, i32 0
  %4 = load i32, i32* %3, align 4
  %5 = tail call dereferenceable(160) %"class.std::__1::basic_ostream"* @_ZNSt3__113basic_ostreamIcNS_11char_traitsIcEEElsEi(%"class.std::__1::basic_ostream"* %0, i32 %4) #17
  %6 = tail call dereferenceable(160) %"class.std::__1::basic_ostream"* @_ZNSt3__124__put_character_sequenceIcNS_11char_traitsIcEEEERNS_13basic_ostreamIT_T0_EES7_PKS4_m(%"class.std::__1::basic_ostream"* dereferenceable(160) %5, i8* getelementptr inbounds ([9 x i8], [9 x i8]* @.str.34, i64 0, i64 0), i64 8) #17
  %7 = getelementptr inbounds %"class.v8::internal::compiler::IfValueParameters", %"class.v8::internal::compiler::IfValueParameters"* %1, i64 0, i32 1
  %8 = load i32, i32* %7, align 4
  %9 = tail call dereferenceable(160) %"class.std::__1::basic_ostream"* @_ZNSt3__113basic_ostreamIcNS_11char_traitsIcEEElsEi(%"class.std::__1::basic_ostream"* %6, i32 %8) #17
  %10 = tail call dereferenceable(160) %"class.std::__1::basic_ostream"* @_ZNSt3__124__put_character_sequenceIcNS_11char_traitsIcEEEERNS_13basic_ostreamIT_T0_EES7_PKS4_m(%"class.std::__1::basic_ostream"* dereferenceable(160) %9, i8* getelementptr inbounds ([8 x i8], [8 x i8]* @.str.35, i64 0, i64 0), i64 7) #17
  %11 = getelementptr inbounds %"class.v8::internal::compiler::IfValueParameters", %"class.v8::internal::compiler::IfValueParameters"* %1, i64 0, i32 2
  %12 = load i8, i8* %11, align 4
  switch i8 %12, label %19 [
    i8 0, label %13
    i8 1, label %15
    i8 2, label %17
  ]

13:                                               ; preds = %2
  %14 = tail call dereferenceable(160) %"class.std::__1::basic_ostream"* @_ZNSt3__124__put_character_sequenceIcNS_11char_traitsIcEEEERNS_13basic_ostreamIT_T0_EES7_PKS4_m(%"class.std::__1::basic_ostream"* dereferenceable(160) %10, i8* getelementptr inbounds ([5 x i8], [5 x i8]* @.str, i64 0, i64 0), i64 4) #17
  br label %20

15:                                               ; preds = %2
  %16 = tail call dereferenceable(160) %"class.std::__1::basic_ostream"* @_ZNSt3__124__put_character_sequenceIcNS_11char_traitsIcEEEERNS_13basic_ostreamIT_T0_EES7_PKS4_m(%"class.std::__1::basic_ostream"* dereferenceable(160) %10, i8* getelementptr inbounds ([5 x i8], [5 x i8]* @.str.1, i64 0, i64 0), i64 4) #17
  br label %20

17:                                               ; preds = %2
  %18 = tail call dereferenceable(160) %"class.std::__1::basic_ostream"* @_ZNSt3__124__put_character_sequenceIcNS_11char_traitsIcEEEERNS_13basic_ostreamIT_T0_EES7_PKS4_m(%"class.std::__1::basic_ostream"* dereferenceable(160) %10, i8* getelementptr inbounds ([6 x i8], [6 x i8]* @.str.2, i64 0, i64 0), i64 5) #17
  br label %20

19:                                               ; preds = %2
  tail call void (i8*, ...) @_Z8V8_FatalPKcz(i8* getelementptr inbounds ([17 x i8], [17 x i8]* @.str.3, i64 0, i64 0)) #18
  unreachable

20:                                               ; preds = %13, %15, %17
  %21 = phi %"class.std::__1::basic_ostream"* [ %18, %17 ], [ %16, %15 ], [ %14, %13 ]
  %22 = tail call dereferenceable(160) %"class.std::__1::basic_ostream"* @_ZNSt3__124__put_character_sequenceIcNS_11char_traitsIcEEEERNS_13basic_ostreamIT_T0_EES7_PKS4_m(%"class.std::__1::basic_ostream"* dereferenceable(160) %21, i8* getelementptr inbounds ([2 x i8], [2 x i8]* @.str.36, i64 0, i64 0), i64 1) #17
  ret %"class.std::__1::basic_ostream"* %0
}

; Function Attrs: nounwind ssp uwtable
define hidden void @_ZN2v88internal8compiler21CommonOperatorBuilderC2EPNS0_4ZoneE(%"class.v8::internal::compiler::CommonOperatorBuilder"* nocapture, %"class.v8::internal::Zone"*) unnamed_addr #0 align 2 {
  %3 = getelementptr inbounds %"class.v8::internal::compiler::CommonOperatorBuilder", %"class.v8::internal::compiler::CommonOperatorBuilder"* %0, i64 0, i32 0
  %4 = load atomic i8, i8* bitcast (i64* @_ZGVZN2v88internal8compiler12_GLOBAL__N_128GetCommonOperatorGlobalCacheEvE6object to i8*) acquire, align 8
  %5 = icmp eq i8 %4, 0
  br i1 %5, label %6, label %10, !prof !8

6:                                                ; preds = %2
  %7 = tail call i32 @__cxa_guard_acquire(i64* nonnull @_ZGVZN2v88internal8compiler12_GLOBAL__N_128GetCommonOperatorGlobalCacheEvE6object) #17
  %8 = icmp eq i32 %7, 0
  br i1 %8, label %10, label %9

9:                                                ; preds = %6
  tail call void @llvm.memset.p0i8.i64(i8* align 8 getelementptr inbounds (%"class.v8::base::LeakyObject", %"class.v8::base::LeakyObject"* @_ZZN2v88internal8compiler12_GLOBAL__N_128GetCommonOperatorGlobalCacheEvE6object, i64 0, i32 0, i32 0, i64 0), i8 0, i64 7256, i1 false) #17
  tail call void @_ZN2v88internal8compiler25CommonOperatorGlobalCacheC2Ev(%"struct.v8::internal::compiler::CommonOperatorGlobalCache"* bitcast (%"class.v8::base::LeakyObject"* @_ZZN2v88internal8compiler12_GLOBAL__N_128GetCommonOperatorGlobalCacheEvE6object to %"struct.v8::internal::compiler::CommonOperatorGlobalCache"*)) #17
  tail call void @__cxa_guard_release(i64* nonnull @_ZGVZN2v88internal8compiler12_GLOBAL__N_128GetCommonOperatorGlobalCacheEvE6object) #17
  br label %10

10:                                               ; preds = %2, %6, %9
  store %"struct.v8::internal::compiler::CommonOperatorGlobalCache"* bitcast (%"class.v8::base::LeakyObject"* @_ZZN2v88internal8compiler12_GLOBAL__N_128GetCommonOperatorGlobalCacheEvE6object to %"struct.v8::internal::compiler::CommonOperatorGlobalCache"*), %"struct.v8::internal::compiler::CommonOperatorGlobalCache"** %3, align 8
  %11 = getelementptr inbounds %"class.v8::internal::compiler::CommonOperatorBuilder", %"class.v8::internal::compiler::CommonOperatorBuilder"* %0, i64 0, i32 1
  store %"class.v8::internal::Zone"* %1, %"class.v8::internal::Zone"** %11, align 8
  ret void
}

; Function Attrs: norecurse nounwind readonly ssp uwtable
define hidden %"class.v8::internal::compiler::Operator"* @_ZN2v88internal8compiler21CommonOperatorBuilder4DeadEv(%"class.v8::internal::compiler::CommonOperatorBuilder"* nocapture readonly) local_unnamed_addr #2 align 2 {
  %2 = bitcast %"class.v8::internal::compiler::CommonOperatorBuilder"* %0 to %"class.v8::internal::compiler::Operator"**
  %3 = load %"class.v8::internal::compiler::Operator"*, %"class.v8::internal::compiler::Operator"** %2, align 8
  ret %"class.v8::internal::compiler::Operator"* %3
}

; Function Attrs: norecurse nounwind readonly ssp uwtable
define hidden %"class.v8::internal::compiler::Operator"* @_ZN2v88internal8compiler21CommonOperatorBuilder11UnreachableEv(%"class.v8::internal::compiler::CommonOperatorBuilder"* nocapture readonly) local_unnamed_addr #2 align 2 {
  %2 = getelementptr inbounds %"class.v8::internal::compiler::CommonOperatorBuilder", %"class.v8::internal::compiler::CommonOperatorBuilder"* %0, i64 0, i32 0
  %3 = load %"struct.v8::internal::compiler::CommonOperatorGlobalCache"*, %"struct.v8::internal::compiler::CommonOperatorGlobalCache"** %2, align 8
  %4 = getelementptr inbounds %"struct.v8::internal::compiler::CommonOperatorGlobalCache", %"struct.v8::internal::compiler::CommonOperatorGlobalCache"* %3, i64 0, i32 1
  %5 = bitcast %"struct.v8::internal::compiler::CommonOperatorGlobalCache::UnreachableOperator"* %4 to %"class.v8::internal::compiler::Operator"*
  ret %"class.v8::internal::compiler::Operator"* %5
}

; Function Attrs: norecurse nounwind readonly ssp uwtable
define hidden %"class.v8::internal::compiler::Operator"* @_ZN2v88internal8compiler21CommonOperatorBuilder6IfTrueEv(%"class.v8::internal::compiler::CommonOperatorBuilder"* nocapture readonly) local_unnamed_addr #2 align 2 {
  %2 = getelementptr inbounds %"class.v8::internal::compiler::CommonOperatorBuilder", %"class.v8::internal::compiler::CommonOperatorBuilder"* %0, i64 0, i32 0
  %3 = load %"struct.v8::internal::compiler::CommonOperatorGlobalCache"*, %"struct.v8::internal::compiler::CommonOperatorGlobalCache"** %2, align 8
  %4 = getelementptr inbounds %"struct.v8::internal::compiler::CommonOperatorGlobalCache", %"struct.v8::internal::compiler::CommonOperatorGlobalCache"* %3, i64 0, i32 2
  %5 = bitcast %"struct.v8::internal::compiler::CommonOperatorGlobalCache::IfTrueOperator"* %4 to %"class.v8::internal::compiler::Operator"*
  ret %"class.v8::internal::compiler::Operator"* %5
}

; Function Attrs: norecurse nounwind readonly ssp uwtable
define hidden %"class.v8::internal::compiler::Operator"* @_ZN2v88internal8compiler21CommonOperatorBuilder7IfFalseEv(%"class.v8::internal::compiler::CommonOperatorBuilder"* nocapture readonly) local_unnamed_addr #2 align 2 {
  %2 = getelementptr inbounds %"class.v8::internal::compiler::CommonOperatorBuilder", %"class.v8::internal::compiler::CommonOperatorBuilder"* %0, i64 0, i32 0
  %3 = load %"struct.v8::internal::compiler::CommonOperatorGlobalCache"*, %"struct.v8::internal::compiler::CommonOperatorGlobalCache"** %2, align 8
  %4 = getelementptr inbounds %"struct.v8::internal::compiler::CommonOperatorGlobalCache", %"struct.v8::internal::compiler::CommonOperatorGlobalCache"* %3, i64 0, i32 3
  %5 = bitcast %"struct.v8::internal::compiler::CommonOperatorGlobalCache::IfFalseOperator"* %4 to %"class.v8::internal::compiler::Operator"*
  ret %"class.v8::internal::compiler::Operator"* %5
}

; Function Attrs: norecurse nounwind readonly ssp uwtable
define hidden %"class.v8::internal::compiler::Operator"* @_ZN2v88internal8compiler21CommonOperatorBuilder9IfSuccessEv(%"class.v8::internal::compiler::CommonOperatorBuilder"* nocapture readonly) local_unnamed_addr #2 align 2 {
  %2 = getelementptr inbounds %"class.v8::internal::compiler::CommonOperatorBuilder", %"class.v8::internal::compiler::CommonOperatorBuilder"* %0, i64 0, i32 0
  %3 = load %"struct.v8::internal::compiler::CommonOperatorGlobalCache"*, %"struct.v8::internal::compiler::CommonOperatorGlobalCache"** %2, align 8
  %4 = getelementptr inbounds %"struct.v8::internal::compiler::CommonOperatorGlobalCache", %"struct.v8::internal::compiler::CommonOperatorGlobalCache"* %3, i64 0, i32 4
  %5 = bitcast %"struct.v8::internal::compiler::CommonOperatorGlobalCache::IfSuccessOperator"* %4 to %"class.v8::internal::compiler::Operator"*
  ret %"class.v8::internal::compiler::Operator"* %5
}

; Function Attrs: norecurse nounwind readonly ssp uwtable
define hidden %"class.v8::internal::compiler::Operator"* @_ZN2v88internal8compiler21CommonOperatorBuilder11IfExceptionEv(%"class.v8::internal::compiler::CommonOperatorBuilder"* nocapture readonly) local_unnamed_addr #2 align 2 {
  %2 = getelementptr inbounds %"class.v8::internal::compiler::CommonOperatorBuilder", %"class.v8::internal::compiler::CommonOperatorBuilder"* %0, i64 0, i32 0
  %3 = load %"struct.v8::internal::compiler::CommonOperatorGlobalCache"*, %"struct.v8::internal::compiler::CommonOperatorGlobalCache"** %2, align 8
  %4 = getelementptr inbounds %"struct.v8::internal::compiler::CommonOperatorGlobalCache", %"struct.v8::internal::compiler::CommonOperatorGlobalCache"* %3, i64 0, i32 5
  %5 = bitcast %"struct.v8::internal::compiler::CommonOperatorGlobalCache::IfExceptionOperator"* %4 to %"class.v8::internal::compiler::Operator"*
  ret %"class.v8::internal::compiler::Operator"* %5
}

; Function Attrs: norecurse nounwind readonly ssp uwtable
