; ModuleID = '../../chrome/browser/policy/configuration_policy_handler_list_factory.cc'
source_filename = "../../chrome/browser/policy/configuration_policy_handler_list_factory.cc"
target datalayout = "e-m:e-i64:64-f80:128-n8:16:32:64-S128"
target triple = "x86_64-unknown-linux-gnu"

module asm ".symver exp, exp@GLIBC_2.2.5"
module asm ".symver exp2, exp2@GLIBC_2.2.5"
module asm ".symver exp2f, exp2f@GLIBC_2.2.5"
module asm ".symver expf, expf@GLIBC_2.2.5"
module asm ".symver lgamma, lgamma@GLIBC_2.2.5"
module asm ".symver lgammaf, lgammaf@GLIBC_2.2.5"
module asm ".symver lgammal, lgammal@GLIBC_2.2.5"
module asm ".symver log, log@GLIBC_2.2.5"
module asm ".symver log2, log2@GLIBC_2.2.5"
module asm ".symver log2f, log2f@GLIBC_2.2.5"
module asm ".symver logf, logf@GLIBC_2.2.5"
module asm ".symver pow, pow@GLIBC_2.2.5"
module asm ".symver powf, powf@GLIBC_2.2.5"

%"struct.policy::PolicyToPreferenceMapEntry" = type { i8*, i8*, i8 }
%"struct.extensions::schema_constants::AllowedTypesMapEntry" = type { i8*, i32 }
%"struct.policy::PolicyHandlerParameters" = type { %"class.std::__1::basic_string" }
%"class.std::__1::basic_string" = type { %"class.std::__1::__compressed_pair" }
%"class.std::__1::__compressed_pair" = type { %"struct.std::__1::__compressed_pair_elem" }
%"struct.std::__1::__compressed_pair_elem" = type { %"struct.std::__1::basic_string<char, std::__1::char_traits<char>, std::__1::allocator<char> >::__rep" }
%"struct.std::__1::basic_string<char, std::__1::char_traits<char>, std::__1::allocator<char> >::__rep" = type { %union.anon }
%union.anon = type { %"struct.std::__1::basic_string<char, std::__1::char_traits<char>, std::__1::allocator<char> >::__long" }
%"struct.std::__1::basic_string<char, std::__1::char_traits<char>, std::__1::allocator<char> >::__long" = type { i8*, i64, i64 }
%"class.policy::ConfigurationPolicyHandlerList" = type <{ %"class.std::__1::vector", %"class.base::RepeatingCallback", %"class.base::RepeatingCallback.13", i8, [7 x i8] }>
%"class.std::__1::vector" = type { %"class.std::__1::__vector_base" }
%"class.std::__1::__vector_base" = type { %"class.std::__1::unique_ptr.3"*, %"class.std::__1::unique_ptr.3"*, %"class.std::__1::__compressed_pair.7" }
%"class.std::__1::unique_ptr.3" = type { %"class.std::__1::__compressed_pair.4" }
%"class.std::__1::__compressed_pair.4" = type { %"struct.std::__1::__compressed_pair_elem.5" }
%"struct.std::__1::__compressed_pair_elem.5" = type { %"class.policy::ConfigurationPolicyHandler"* }
%"class.policy::ConfigurationPolicyHandler" = type { i32 (...)** }
%"class.std::__1::__compressed_pair.7" = type { %"struct.std::__1::__compressed_pair_elem.8" }
%"struct.std::__1::__compressed_pair_elem.8" = type { %"class.std::__1::unique_ptr.3"* }
%"class.base::RepeatingCallback" = type { %"class.base::internal::CallbackBaseCopyable" }
%"class.base::internal::CallbackBaseCopyable" = type { %"class.base::internal::CallbackBase" }
%"class.base::internal::CallbackBase" = type { %class.scoped_refptr }
%class.scoped_refptr = type { %"class.base::internal::BindStateBase"* }
%"class.base::internal::BindStateBase" = type { %"class.base::RefCountedThreadSafe", void ()*, void (%"class.base::internal::BindStateBase"*)*, i1 (%"class.base::internal::BindStateBase"*, i32)* }
%"class.base::RefCountedThreadSafe" = type { %"class.base::subtle::RefCountedThreadSafeBase" }
%"class.base::subtle::RefCountedThreadSafeBase" = type { %"class.base::AtomicRefCount" }
%"class.base::AtomicRefCount" = type { %"struct.std::__1::atomic" }
%"struct.std::__1::atomic" = type { %"struct.std::__1::__atomic_base" }
%"struct.std::__1::__atomic_base" = type { %"struct.std::__1::__atomic_base.12" }
%"struct.std::__1::__atomic_base.12" = type { %"struct.std::__1::__cxx_atomic_impl" }
%"struct.std::__1::__cxx_atomic_impl" = type { %"struct.std::__1::__cxx_atomic_base_impl" }
%"struct.std::__1::__cxx_atomic_base_impl" = type { i32 }
%"class.base::RepeatingCallback.13" = type { %"class.base::internal::CallbackBaseCopyable" }
%"class.policy::Schema" = type { %class.scoped_refptr.17, %"struct.policy::internal::SchemaNode"* }
%class.scoped_refptr.17 = type { %"class.policy::Schema::InternalStorage"* }
%"class.policy::Schema::InternalStorage" = type opaque
%"struct.policy::internal::SchemaNode" = type opaque
%"class.base::RepeatingCallback.327" = type { %"class.base::internal::CallbackBaseCopyable" }
%"class.base::CommandLine" = type { %"class.std::__1::vector.430", %"class.std::__1::map", i64 }
%"class.std::__1::vector.430" = type { %"class.std::__1::__vector_base.431" }
%"class.std::__1::__vector_base.431" = type { %"class.std::__1::basic_string"*, %"class.std::__1::basic_string"*, %"class.std::__1::__compressed_pair.432" }
%"class.std::__1::__compressed_pair.432" = type { %"struct.std::__1::__compressed_pair_elem.433" }
%"struct.std::__1::__compressed_pair_elem.433" = type { %"class.std::__1::basic_string"* }
%"class.std::__1::map" = type { %"class.std::__1::__tree" }
%"class.std::__1::__tree" = type { %"class.std::__1::__tree_end_node"*, %"class.std::__1::__compressed_pair.437", %"class.std::__1::__compressed_pair.442" }
%"class.std::__1::__tree_end_node" = type { %"class.std::__1::__tree_node_base"* }
%"class.std::__1::__tree_node_base" = type opaque
%"class.std::__1::__compressed_pair.437" = type { %"struct.std::__1::__compressed_pair_elem.438" }
%"struct.std::__1::__compressed_pair_elem.438" = type { %"class.std::__1::__tree_end_node" }
%"class.std::__1::__compressed_pair.442" = type { %"struct.std::__1::__compressed_pair_elem.443" }
%"struct.std::__1::__compressed_pair_elem.443" = type { i64 }
%"class.autofill::AutofillAddressPolicyHandler" = type { %"class.policy::TypeCheckingPolicyHandler.base", [7 x i8] }
%"class.policy::TypeCheckingPolicyHandler.base" = type <{ %"class.policy::NamedPolicyHandler", i8 }>
%"class.policy::NamedPolicyHandler" = type { %"class.policy::ConfigurationPolicyHandler", i8* }
%"class.autofill::AutofillCreditCardPolicyHandler" = type { %"class.policy::TypeCheckingPolicyHandler.base", [7 x i8] }
%"class.autofill::AutofillPolicyHandler" = type { %"class.policy::TypeCheckingPolicyHandler.base", [7 x i8] }
%"class.content_settings::CookieSettingsPolicyHandler" = type { %"class.policy::TypeCheckingPolicyHandler.base", [7 x i8] }
%"class.content_settings::InsecurePrivateNetworkPolicyHandler" = type { %"class.policy::TypeCheckingPolicyHandler.base", [7 x i8] }
%"class.policy::DefaultSearchPolicyHandler" = type { %"class.policy::ConfigurationPolicyHandler" }
%"class.policy::ForceSafeSearchPolicyHandler" = type { %"class.policy::TypeCheckingPolicyHandler.base", [7 x i8] }
%"class.policy::ForceYouTubeSafetyModePolicyHandler" = type { %"class.policy::TypeCheckingPolicyHandler.base", [7 x i8] }
%"class.policy::IncognitoModePolicyHandler" = type { %"class.policy::ConfigurationPolicyHandler" }
%"class.policy::GuestModePolicyHandler" = type { %"class.policy::TypeCheckingPolicyHandler.base", [7 x i8] }
%"class.bookmarks::ManagedBookmarksPolicyHandler" = type { %"class.policy::SchemaValidatingPolicyHandler.base", [4 x i8] }
%"class.policy::SchemaValidatingPolicyHandler.base" = type <{ %"class.policy::NamedPolicyHandler", %"class.policy::Schema", i32 }>
%"class.policy::HomepageLocationPolicyHandler" = type { %"class.policy::TypeCheckingPolicyHandler.base", [7 x i8] }
%"class.policy::ProxyPolicyHandler" = type { %"class.policy::ConfigurationPolicyHandler" }
%"class.policy::SecureDnsPolicyHandler" = type { %"class.policy::ConfigurationPolicyHandler" }
%"class.policy::SimpleSchemaValidatingPolicyHandler" = type <{ %"class.policy::SchemaValidatingPolicyHandler.base", [4 x i8], i8*, i8, i8, [6 x i8] }>
%class.ManagedAccountRestrictionsPolicyHandler = type { %"class.policy::SimpleSchemaValidatingPolicyHandler.base", [6 x i8] }
%"class.policy::SimpleSchemaValidatingPolicyHandler.base" = type <{ %"class.policy::SchemaValidatingPolicyHandler.base", [4 x i8], i8*, i8, i8 }>
%"class.policy::WebUsbAllowDevicesForUrlsPolicyHandler" = type { %"class.policy::SchemaValidatingPolicyHandler.base", [4 x i8] }
%"class.policy::DeveloperToolsPolicyHandler" = type { %"class.policy::ConfigurationPolicyHandler" }
%"class.policy::FileSelectionDialogsPolicyHandler" = type { %"class.policy::TypeCheckingPolicyHandler.base", [7 x i8] }
%"class.policy::JavascriptPolicyHandler" = type { %"class.policy::ConfigurationPolicyHandler" }
%"class.policy::NetworkPredictionPolicyHandler" = type { %"class.policy::ConfigurationPolicyHandler" }
%"class.policy::RestoreOnStartupPolicyHandler" = type { %"class.policy::TypeCheckingPolicyHandler.base", [7 x i8] }
%"class.policy::SimplePolicyHandler" = type { %"class.policy::TypeCheckingPolicyHandler.base", i8* }
%"class.policy::SimpleDeprecatingPolicyHandler" = type { %"class.policy::ConfigurationPolicyHandler", %"class.std::__1::unique_ptr.165", %"class.std::__1::unique_ptr.165" }
%"class.std::__1::unique_ptr.165" = type { %"class.std::__1::__compressed_pair.166" }
%"class.std::__1::__compressed_pair.166" = type { %"struct.std::__1::__compressed_pair_elem.167" }
%"struct.std::__1::__compressed_pair_elem.167" = type { %"class.policy::NamedPolicyHandler"* }
%"class.syncer::SyncPolicyHandler" = type { %"class.policy::TypeCheckingPolicyHandler.base", [7 x i8] }
%"class.policy::BrowsingHistoryPolicyHandler" = type { %"class.policy::TypeCheckingPolicyHandler.base", [7 x i8] }
%"class.policy::URLBlocklistPolicyHandler" = type { %"class.policy::TypeCheckingPolicyHandler.base", [7 x i8] }
%"class.policy::ExplicitlyAllowedNetworkPortsPolicyHandler" = type { %"class.policy::ListPolicyHandler.base", [6 x i8] }
%"class.policy::ListPolicyHandler.base" = type { %"class.policy::TypeCheckingPolicyHandler.base", i8 }
%class.NtpCustomBackgroundEnabledPolicyHandler = type { %"class.policy::TypeCheckingPolicyHandler.base", [7 x i8] }
%class.DefaultDownloadDirPolicyHandler = type { %"class.policy::TypeCheckingPolicyHandler.base", [7 x i8] }
%class.DownloadAutoOpenPolicyHandler = type { %"class.policy::SchemaValidatingPolicyHandler.base", [4 x i8] }
%class.DownloadDirPolicyHandler = type { %"class.policy::TypeCheckingPolicyHandler.base", [7 x i8] }
%"class.policy::LocalSyncPolicyHandler" = type { %"class.policy::TypeCheckingPolicyHandler.base", [7 x i8] }
%class.ThemeColorPolicyHandler = type { %"class.policy::TypeCheckingPolicyHandler.base", [7 x i8] }
%"class.policy::SimpleJsonStringSchemaValidatingPolicyHandler" = type <{ %"class.policy::NamedPolicyHandler", %"class.policy::Schema", i8*, i8, i8, [6 x i8] }>
%"class.enterprise_reporting::CloudReportingPolicyHandler" = type { %"class.policy::TypeCheckingPolicyHandler.base", [7 x i8] }
%"class.enterprise_reporting::ExtensionRequestPolicyHandler" = type { %"class.policy::TypeCheckingPolicyHandler.base", [7 x i8] }
%"class.enterprise_connectors::EnterpriseConnectorsPolicyHandler" = type { %"class.policy::SchemaValidatingPolicyHandler.base", i8*, i8* }
%class.BrowsingDataLifetimePolicyHandler = type { %"class.policy::SimpleSchemaValidatingPolicyHandler.base", [6 x i8] }
%"class.policy::BrowserSigninPolicyHandler" = type { %"class.policy::SchemaValidatingPolicyHandler.base", [4 x i8] }
%"class.policy::LegacyPoliciesDeprecatingPolicyHandler" = type { %"class.policy::ConfigurationPolicyHandler", %"class.std::__1::vector", %"class.std::__1::unique_ptr.267" }
%"class.std::__1::unique_ptr.267" = type { %"class.std::__1::__compressed_pair.268" }
%"class.std::__1::__compressed_pair.268" = type { %"struct.std::__1::__compressed_pair_elem.269" }
%"struct.std::__1::__compressed_pair_elem.269" = type { %"class.policy::SchemaValidatingPolicyHandler"* }
%"class.policy::SchemaValidatingPolicyHandler" = type <{ %"class.policy::NamedPolicyHandler", %"class.policy::Schema", i32, [4 x i8] }>
%"class.policy::SecureOriginPolicyHandler" = type { %"class.policy::SchemaValidatingPolicyHandler.base", [4 x i8] }
%"class.policy::DiskCacheDirPolicyHandler" = type { %"class.policy::TypeCheckingPolicyHandler.base", [7 x i8] }
%"class.extensions::NativeMessagingHostListPolicyHandler" = type <{ %"class.policy::ListPolicyHandler.base", [6 x i8], i8*, i8, [7 x i8] }>
%"class.policy::AutoLaunchProtocolsPolicyHandler" = type { %"class.policy::SchemaValidatingPolicyHandler.base", [4 x i8] }
%"class.extensions::ExtensionListPolicyHandler" = type <{ %"class.policy::ListPolicyHandler.base", [6 x i8], i8*, i8, [7 x i8] }>
%"class.extensions::ExtensionInstallForceListPolicyHandler" = type { %"class.policy::TypeCheckingPolicyHandler.base", [7 x i8] }
%"class.extensions::ExtensionURLPatternListPolicyHandler" = type { %"class.policy::TypeCheckingPolicyHandler.base", i8* }
%"class.std::__1::vector.328" = type { %"class.std::__1::__vector_base.329" }
%"class.std::__1::__vector_base.329" = type { %"class.std::__1::unique_ptr.330"*, %"class.std::__1::unique_ptr.330"*, %"class.std::__1::__compressed_pair.342" }
%"class.std::__1::unique_ptr.330" = type { %"class.std::__1::__compressed_pair.331" }
%"class.std::__1::__compressed_pair.331" = type { %"struct.std::__1::__compressed_pair_elem.332" }
%"struct.std::__1::__compressed_pair_elem.332" = type { %"class.policy::StringMappingListPolicyHandler::MappingEntry"* }
%"class.policy::StringMappingListPolicyHandler::MappingEntry" = type { i8*, %"class.std::__1::unique_ptr.333" }
%"class.std::__1::unique_ptr.333" = type { %"class.std::__1::__compressed_pair.334" }
%"class.std::__1::__compressed_pair.334" = type { %"struct.std::__1::__compressed_pair_elem.335" }
%"struct.std::__1::__compressed_pair_elem.335" = type { %"class.base::Value"* }
%"class.base::Value" = type { %"class.absl::variant" }
%"class.absl::variant" = type { %"class.absl::variant_internal::VariantCopyAssignBaseNontrivial" }
%"class.absl::variant_internal::VariantCopyAssignBaseNontrivial" = type { %"class.absl::variant_internal::VariantMoveAssignBaseNontrivial" }
%"class.absl::variant_internal::VariantMoveAssignBaseNontrivial" = type { %"class.absl::variant_internal::VariantCopyBaseNontrivial" }
%"class.absl::variant_internal::VariantCopyBaseNontrivial" = type { %"class.absl::variant_internal::VariantMoveBaseNontrivial" }
%"class.absl::variant_internal::VariantMoveBaseNontrivial" = type { %"class.absl::variant_internal::VariantStateBaseDestructorNontrivial" }
%"class.absl::variant_internal::VariantStateBaseDestructorNontrivial" = type { %"class.absl::variant_internal::VariantStateBase" }
%"class.absl::variant_internal::VariantStateBase" = type { %"union.absl::variant_internal::DestructibleUnionImpl", i64 }
%"union.absl::variant_internal::DestructibleUnionImpl" = type { %"union.absl::variant_internal::DestructibleUnionImpl.350" }
%"union.absl::variant_internal::DestructibleUnionImpl.350" = type { %"union.absl::variant_internal::DestructibleUnionImpl.351" }
%"union.absl::variant_internal::DestructibleUnionImpl.351" = type { %"union.absl::variant_internal::DestructibleUnionImpl.352" }
%"union.absl::variant_internal::DestructibleUnionImpl.352" = type { %"union.absl::variant_internal::DestructibleUnionImpl.353" }
%"union.absl::variant_internal::DestructibleUnionImpl.353" = type { %"class.std::__1::basic_string" }
%"class.std::__1::__compressed_pair.342" = type { %"struct.std::__1::__compressed_pair_elem.343" }
%"struct.std::__1::__compressed_pair_elem.343" = type { %"class.std::__1::unique_ptr.330"* }
%"class.policy::StringMappingListPolicyHandler" = type { %"class.policy::TypeCheckingPolicyHandler.base", i8*, %"class.base::RepeatingCallback.327", %"class.std::__1::vector.328" }
%"class.extensions::ExtensionSettingsPolicyHandler" = type { %"class.policy::SchemaValidatingPolicyHandler.base", [4 x i8] }
%"class.policy::IntRangePolicyHandler" = type { %"class.policy::IntRangePolicyHandlerBase.base", i8* }
%"class.policy::IntRangePolicyHandlerBase.base" = type <{ %"class.policy::TypeCheckingPolicyHandler.base", [3 x i8], i32, i32, i8 }>
%"class.policy::PrintingAllowedBackgroundGraphicsModesPolicyHandler" = type { %"class.policy::PrintingEnumPolicyHandler" }
%"class.policy::PrintingEnumPolicyHandler" = type { %"class.policy::TypeCheckingPolicyHandler.base", i8*, i8*, %"class.base::flat_map.393" }
%"class.base::flat_map.393" = type { %"class.base::internal::flat_tree.394" }
%"class.base::internal::flat_tree.394" = type { %"class.std::__1::vector.395" }
%"class.std::__1::vector.395" = type { %"class.std::__1::__vector_base.396" }
%"class.std::__1::__vector_base.396" = type { %"struct.std::__1::pair.397"*, %"struct.std::__1::pair.397"*, %"class.std::__1::__compressed_pair.398" }
%"struct.std::__1::pair.397" = type opaque
%"class.std::__1::__compressed_pair.398" = type { %"struct.std::__1::__compressed_pair_elem.399" }
%"struct.std::__1::__compressed_pair_elem.399" = type { %"struct.std::__1::pair.397"* }
%"class.policy::PrintingBackgroundGraphicsDefaultPolicyHandler" = type { %"class.policy::PrintingEnumPolicyHandler" }
%"class.policy::PrintingPaperSizeDefaultPolicyHandler" = type { %"class.policy::TypeCheckingPolicyHandler.base", [7 x i8] }
%class.SpellcheckLanguagePolicyHandler = type { %"class.policy::TypeCheckingPolicyHandler.base", [7 x i8] }
%class.SpellcheckLanguageBlocklistPolicyHandler = type { %"class.policy::TypeCheckingPolicyHandler.base", [7 x i8] }
%"struct.policy::PolicyDetails" = type { i8, i16, i32, [3 x i8] }
%"class.std::__1::__vector_base_common" = type { i8 }

$_ZNSt3__16vectorINS_10unique_ptrIN6policy30StringMappingListPolicyHandler12MappingEntryENS_14default_deleteIS4_EEEENS_9allocatorIS7_EEE21__push_back_slow_pathIS7_EEvOT_ = comdat any

$_ZN4base8internal7InvokerINS0_9BindStateIPFvPN6policy23PolicyHandlerParametersEEJEEES6_E3RunEPNS0_13BindStateBaseES5_ = comdat any

$_ZN4base8internal9BindStateIPFvPN6policy23PolicyHandlerParametersEEJEE7DestroyEPKNS0_13BindStateBaseE = comdat any

$_ZN4base8internal7InvokerINS0_9BindStateIPFPKN6policy13PolicyDetailsERKNSt3__112basic_stringIcNS7_11char_traitsIcEENS7_9allocatorIcEEEEEJEEESG_E3RunEPNS0_13BindStateBaseESF_ = comdat any

$_ZN4base8internal9BindStateIPFPKN6policy13PolicyDetailsERKNSt3__112basic_stringIcNS6_11char_traitsIcEENS6_9allocatorIcEEEEEJEE7DestroyEPKNS0_13BindStateBaseE = comdat any

$_ZNSt3__16vectorINS_10unique_ptrIN6policy26ConfigurationPolicyHandlerENS_14default_deleteIS3_EEEENS_9allocatorIS6_EEE21__push_back_slow_pathIS6_EEvOT_ = comdat any

$_ZN4base8internal7InvokerINS0_9BindStateIPFvPNSt3__16vectorINS3_10unique_ptrIN6policy30StringMappingListPolicyHandler12MappingEntryENS3_14default_deleteIS8_EEEENS3_9allocatorISB_EEEEEJEEESG_E3RunEPNS0_13BindStateBaseESF_ = comdat any

$_ZN4base8internal9BindStateIPFvPNSt3__16vectorINS2_10unique_ptrIN6policy30StringMappingListPolicyHandler12MappingEntryENS2_14default_deleteIS7_EEEENS2_9allocatorISA_EEEEEJEE7DestroyEPKNS0_13BindStateBaseE = comdat any

@_ZN6policy12_GLOBAL__N_116kSimplePolicyMapE = internal unnamed_addr constant [215 x %"struct.policy::PolicyToPreferenceMapEntry"] [%"struct.policy::PolicyToPreferenceMapEntry" { i8* getelementptr inbounds ([0 x i8], [0 x i8]* @_ZN6policy3key21kHomepageIsNewTabPageE, i32 0, i32 0), i8* getelementptr inbounds ([0 x i8], [0 x i8]* @_ZN5prefs21kHomePageIsNewTabPageE, i32 0, i32 0), i8 1 }, %"struct.policy::PolicyToPreferenceMapEntry" { i8* getelementptr inbounds ([0 x i8], [0 x i8]* @_ZN6policy3key19kNewTabPageLocationE, i32 0, i32 0), i8* getelementptr inbounds ([0 x i8], [0 x i8]* @_ZN5prefs27kNewTabPageLocationOverrideE, i32 0, i32 0), i8 4 }, %"struct.policy::PolicyToPreferenceMapEntry" { i8* getelementptr inbounds ([0 x i8], [0 x i8]* @_ZN6policy3key21kRestoreOnStartupURLsE, i32 0, i32 0), i8* getelementptr inbounds ([0 x i8], [0 x i8]* @_ZN5prefs23kURLsToRestoreOnStartupE, i32 0, i32 0), i8 7 }, %"struct.policy::PolicyToPreferenceMapEntry" { i8* getelementptr inbounds ([0 x i8], [0 x i8]* @_ZN6policy3key27kAlternateErrorPagesEnabledE, i32 0, i32 0), i8* getelementptr inbounds ([0 x i8], [0 x i8]* @_ZN16embedder_support27kAlternateErrorPagesEnabledE, i32 0, i32 0), i8 1 }, %"struct.policy::PolicyToPreferenceMapEntry" { i8* getelementptr inbounds ([0 x i8], [0 x i8]* @_ZN6policy3key21kSearchSuggestEnabledE, i32 0, i32 0), i8* getelementptr inbounds ([0 x i8], [0 x i8]* @_ZN5prefs21kSearchSuggestEnabledE, i32 0, i32 0), i8 1 }, %"struct.policy::PolicyToPreferenceMapEntry" { i8* getelementptr inbounds ([0 x i8], [0 x i8]* @_ZN6policy3key24kBuiltInDnsClientEnabledE, i32 0, i32 0), i8* getelementptr inbounds ([0 x i8], [0 x i8]* @_ZN5prefs24kBuiltInDnsClientEnabledE, i32 0, i32 0), i8 1 }, %"struct.policy::PolicyToPreferenceMapEntry" { i8* getelementptr inbounds ([0 x i8], [0 x i8]* @_ZN6policy3key31kAdditionalDnsQueryTypesEnabledE, i32 0, i32 0), i8* getelementptr inbounds ([0 x i8], [0 x i8]* @_ZN5prefs31kAdditionalDnsQueryTypesEnabledE, i32 0, i32 0), i8 1 }, %"struct.policy::PolicyToPreferenceMapEntry" { i8* getelementptr inbounds ([0 x i8], [0 x i8]* @_ZN6policy3key22kWPADQuickCheckEnabledE, i32 0, i32 0), i8* getelementptr inbounds ([0 x i8], [0 x i8]* @_ZN5prefs18kQuickCheckEnabledE, i32 0, i32 0), i8 1 }, %"struct.policy::PolicyToPreferenceMapEntry" { i8* getelementptr inbounds ([0 x i8], [0 x i8]* @_ZN6policy3key12kQuicAllowedE, i32 0, i32 0), i8* getelementptr inbounds ([0 x i8], [0 x i8]* @_ZN5prefs12kQuicAllowedE, i32 0, i32 0), i8 1 }, %"struct.policy::PolicyToPreferenceMapEntry" { i8* getelementptr inbounds ([0 x i8], [0 x i8]* @_ZN6policy3key20kSafeBrowsingEnabledE, i32 0, i32 0), i8* getelementptr inbounds ([0 x i8], [0 x i8]* @_ZN5prefs20kSafeBrowsingEnabledE, i32 0, i32 0), i8 1 }, %"struct.policy::PolicyToPreferenceMapEntry" { i8* getelementptr inbounds ([0 x i8], [0 x i8]* @_ZN6policy3key37kSafeBrowsingForTrustedSourcesEnabledE, i32 0, i32 0), i8* getelementptr inbounds ([0 x i8], [0 x i8]* @_ZN5prefs37kSafeBrowsingForTrustedSourcesEnabledE, i32 0, i32 0), i8 1 }, %"struct.policy::PolicyToPreferenceMapEntry" { i8* getelementptr inbounds ([0 x i8], [0 x i8]* @_ZN6policy3key40kUrlKeyedAnonymizedDataCollectionEnabledE, i32 0, i32 0), i8* getelementptr inbounds ([0 x i8], [0 x i8]* @_ZN15unified_consent5prefs40kUrlKeyedAnonymizedDataCollectionEnabledE, i32 0, i32 0), i8 1 }, %"struct.policy::PolicyToPreferenceMapEntry" { i8* getelementptr inbounds ([0 x i8], [0 x i8]* @_ZN6policy3key21kDownloadRestrictionsE, i32 0, i32 0), i8* getelementptr inbounds ([0 x i8], [0 x i8]* @_ZN5prefs21kDownloadRestrictionsE, i32 0, i32 0), i8 2 }, %"struct.policy::PolicyToPreferenceMapEntry" { i8* getelementptr inbounds ([0 x i8], [0 x i8]* @_ZN6policy3key23kAutoOpenAllowedForURLsE, i32 0, i32 0), i8* getelementptr inbounds ([0 x i8], [0 x i8]* @_ZN5prefs35kDownloadAllowedURLsForOpenByPolicyE, i32 0, i32 0), i8 7 }, %"struct.policy::PolicyToPreferenceMapEntry" { i8* getelementptr inbounds ([0 x i8], [0 x i8]* @_ZN6policy3key22kForceGoogleSafeSearchE, i32 0, i32 0), i8* getelementptr inbounds ([0 x i8], [0 x i8]* @_ZN5prefs22kForceGoogleSafeSearchE, i32 0, i32 0), i8 1 }, %"struct.policy::PolicyToPreferenceMapEntry" { i8* getelementptr inbounds ([0 x i8], [0 x i8]* @_ZN6policy3key21kForceYouTubeRestrictE, i32 0, i32 0), i8* getelementptr inbounds ([0 x i8], [0 x i8]* @_ZN5prefs21kForceYouTubeRestrictE, i32 0, i32 0), i8 2 }, %"struct.policy::PolicyToPreferenceMapEntry" { i8* getelementptr inbounds ([0 x i8], [0 x i8]* @_ZN6policy3key23kPasswordManagerEnabledE, i32 0, i32 0), i8* getelementptr inbounds ([0 x i8], [0 x i8]* @_ZN16password_manager5prefs25kCredentialsEnableServiceE, i32 0, i32 0), i8 1 }, %"struct.policy::PolicyToPreferenceMapEntry" { i8* getelementptr inbounds ([0 x i8], [0 x i8]* @_ZN6policy3key16kPrintingEnabledE, i32 0, i32 0), i8* getelementptr inbounds ([0 x i8], [0 x i8]* @_ZN5prefs16kPrintingEnabledE, i32 0, i32 0), i8 1 }, %"struct.policy::PolicyToPreferenceMapEntry" { i8* getelementptr inbounds ([0 x i8], [0 x i8]* @_ZN6policy3key18kPrintHeaderFooterE, i32 0, i32 0), i8* getelementptr inbounds ([0 x i8], [0 x i8]* @_ZN5prefs18kPrintHeaderFooterE, i32 0, i32 0), i8 1 }, %"struct.policy::PolicyToPreferenceMapEntry" { i8* getelementptr inbounds ([0 x i8], [0 x i8]* @_ZN6policy3key20kDisablePrintPreviewE, i32 0, i32 0), i8* getelementptr inbounds ([0 x i8], [0 x i8]* @_ZN5prefs21kPrintPreviewDisabledE, i32 0, i32 0), i8 1 }, %"struct.policy::PolicyToPreferenceMapEntry" { i8* getelementptr inbounds ([0 x i8], [0 x i8]* @_ZN6policy3key23kApplicationLocaleValueE, i32 0, i32 0), i8* getelementptr inbounds ([0 x i8], [0 x i8]* @_ZN8language5prefs18kApplicationLocaleE, i32 0, i32 0), i8 4 }, %"struct.policy::PolicyToPreferenceMapEntry" { i8* getelementptr inbounds ([0 x i8], [0 x i8]* @_ZN6policy3key24kAlwaysOpenPdfExternallyE, i32 0, i32 0), i8* getelementptr inbounds ([0 x i8], [0 x i8]* @_ZN5prefs31kPluginsAlwaysOpenPdfExternallyE, i32 0, i32 0), i8 1 }, %"struct.policy::PolicyToPreferenceMapEntry" { i8* getelementptr inbounds ([0 x i8], [0 x i8]* @_ZN6policy3key15kShowHomeButtonE, i32 0, i32 0), i8* getelementptr inbounds ([0 x i8], [0 x i8]* @_ZN5prefs15kShowHomeButtonE, i32 0, i32 0), i8 1 }, %"struct.policy::PolicyToPreferenceMapEntry" { i8* getelementptr inbounds ([0 x i8], [0 x i8]* @_ZN6policy3key29kSavingBrowserHistoryDisabledE, i32 0, i32 0), i8* getelementptr inbounds ([0 x i8], [0 x i8]* @_ZN5prefs29kSavingBrowserHistoryDisabledE, i32 0, i32 0), i8 1 }, %"struct.policy::PolicyToPreferenceMapEntry" { i8* getelementptr inbounds ([0 x i8], [0 x i8]* @_ZN6policy3key28kAllowDeletingBrowserHistoryE, i32 0, i32 0), i8* getelementptr inbounds ([0 x i8], [0 x i8]* @_ZN5prefs28kAllowDeletingBrowserHistoryE, i32 0, i32 0), i8 1 }, %"struct.policy::PolicyToPreferenceMapEntry" { i8* getelementptr inbounds ([0 x i8], [0 x i8]* @_ZN6policy3key31kAdsSettingForIntrusiveAdsSitesE, i32 0, i32 0), i8* getelementptr inbounds ([0 x i8], [0 x i8]* @_ZN5prefs25kManagedDefaultAdsSettingE, i32 0, i32 0), i8 2 }, %"struct.policy::PolicyToPreferenceMapEntry" { i8* getelementptr inbounds ([0 x i8], [0 x i8]* @_ZN6policy3key22kDefaultCookiesSettingE, i32 0, i32 0), i8* getelementptr inbounds ([0 x i8], [0 x i8]* @_ZN5prefs29kManagedDefaultCookiesSettingE, i32 0, i32 0), i8 2 }, %"struct.policy::PolicyToPreferenceMapEntry" { i8* getelementptr inbounds ([0 x i8], [0 x i8]* @_ZN6policy3key21kDefaultImagesSettingE, i32 0, i32 0), i8* getelementptr inbounds ([0 x i8], [0 x i8]* @_ZN5prefs28kManagedDefaultImagesSettingE, i32 0, i32 0), i8 2 }, %"struct.policy::PolicyToPreferenceMapEntry" { i8* getelementptr inbounds ([0 x i8], [0 x i8]* @_ZN6policy3key36kLegacySameSiteCookieBehaviorEnabledE, i32 0, i32 0), i8* getelementptr inbounds ([0 x i8], [0 x i8]* @_ZN5prefs40kManagedDefaultLegacyCookieAccessSettingE, i32 0, i32 0), i8 2 }, %"struct.policy::PolicyToPreferenceMapEntry" { i8* getelementptr inbounds ([0 x i8], [0 x i8]* @_ZN6policy3key21kDefaultPopupsSettingE, i32 0, i32 0), i8* getelementptr inbounds ([0 x i8], [0 x i8]* @_ZN5prefs28kManagedDefaultPopupsSettingE, i32 0, i32 0), i8 2 }, %"struct.policy::PolicyToPreferenceMapEntry" { i8* getelementptr inbounds ([0 x i8], [0 x i8]* @_ZN6policy3key22kCookiesAllowedForUrlsE, i32 0, i32 0), i8* getelementptr inbounds ([0 x i8], [0 x i8]* @_ZN5prefs29kManagedCookiesAllowedForUrlsE, i32 0, i32 0), i8 7 }, %"struct.policy::PolicyToPreferenceMapEntry" { i8* getelementptr inbounds ([0 x i8], [0 x i8]* @_ZN6policy3key22kCookiesBlockedForUrlsE, i32 0, i32 0), i8* getelementptr inbounds ([0 x i8], [0 x i8]* @_ZN5prefs29kManagedCookiesBlockedForUrlsE, i32 0, i32 0), i8 7 }, %"struct.policy::PolicyToPreferenceMapEntry" { i8* getelementptr inbounds ([0 x i8], [0 x i8]* @_ZN6policy3key26kCookiesSessionOnlyForUrlsE, i32 0, i32 0), i8* getelementptr inbounds ([0 x i8], [0 x i8]* @_ZN5prefs33kManagedCookiesSessionOnlyForUrlsE, i32 0, i32 0), i8 7 }, %"struct.policy::PolicyToPreferenceMapEntry" { i8* getelementptr inbounds ([0 x i8], [0 x i8]* @_ZN6policy3key21kImagesAllowedForUrlsE, i32 0, i32 0), i8* getelementptr inbounds ([0 x i8], [0 x i8]* @_ZN5prefs28kManagedImagesAllowedForUrlsE, i32 0, i32 0), i8 7 }, %"struct.policy::PolicyToPreferenceMapEntry" { i8* getelementptr inbounds ([0 x i8], [0 x i8]* @_ZN6policy3key21kImagesBlockedForUrlsE, i32 0, i32 0), i8* getelementptr inbounds ([0 x i8], [0 x i8]* @_ZN5prefs28kManagedImagesBlockedForUrlsE, i32 0, i32 0), i8 7 }, %"struct.policy::PolicyToPreferenceMapEntry" { i8* getelementptr inbounds ([0 x i8], [0 x i8]* @_ZN6policy3key25kJavaScriptAllowedForUrlsE, i32 0, i32 0), i8* getelementptr inbounds ([0 x i8], [0 x i8]* @_ZN5prefs32kManagedJavaScriptAllowedForUrlsE, i32 0, i32 0), i8 7 }, %"struct.policy::PolicyToPreferenceMapEntry" { i8* getelementptr inbounds ([0 x i8], [0 x i8]* @_ZN6policy3key25kJavaScriptBlockedForUrlsE, i32 0, i32 0), i8* getelementptr inbounds ([0 x i8], [0 x i8]* @_ZN5prefs32kManagedJavaScriptBlockedForUrlsE, i32 0, i32 0), i8 7 }, %"struct.policy::PolicyToPreferenceMapEntry" { i8* getelementptr inbounds ([0 x i8], [0 x i8]* @_ZN6policy3key49kLegacySameSiteCookieBehaviorEnabledForDomainListE, i32 0, i32 0), i8* getelementptr inbounds ([0 x i8], [0 x i8]* @_ZN5prefs43kManagedLegacyCookieAccessAllowedForDomainsE, i32 0, i32 0), i8 7 }, %"struct.policy::PolicyToPreferenceMapEntry" { i8* getelementptr inbounds ([0 x i8], [0 x i8]* @_ZN6policy3key45kInsecurePrivateNetworkRequestsAllowedForUrlsE, i32 0, i32 0), i8* getelementptr inbounds ([0 x i8], [0 x i8]* @_ZN5prefs44kManagedInsecurePrivateNetworkAllowedForUrlsE, i32 0, i32 0), i8 7 }, %"struct.policy::PolicyToPreferenceMapEntry" { i8* getelementptr inbounds ([0 x i8], [0 x i8]* @_ZN6policy3key21kPopupsAllowedForUrlsE, i32 0, i32 0), i8* getelementptr inbounds ([0 x i8], [0 x i8]* @_ZN5prefs28kManagedPopupsAllowedForUrlsE, i32 0, i32 0), i8 7 }, %"struct.policy::PolicyToPreferenceMapEntry" { i8* getelementptr inbounds ([0 x i8], [0 x i8]* @_ZN6policy3key21kPopupsBlockedForUrlsE, i32 0, i32 0), i8* getelementptr inbounds ([0 x i8], [0 x i8]* @_ZN5prefs28kManagedPopupsBlockedForUrlsE, i32 0, i32 0), i8 7 }, %"struct.policy::PolicyToPreferenceMapEntry" { i8* getelementptr inbounds ([0 x i8], [0 x i8]* @_ZN6policy3key28kNotificationsAllowedForUrlsE, i32 0, i32 0), i8* getelementptr inbounds ([0 x i8], [0 x i8]* @_ZN5prefs35kManagedNotificationsAllowedForUrlsE, i32 0, i32 0), i8 7 }, %"struct.policy::PolicyToPreferenceMapEntry" { i8* getelementptr inbounds ([0 x i8], [0 x i8]* @_ZN6policy3key28kNotificationsBlockedForUrlsE, i32 0, i32 0), i8* getelementptr inbounds ([0 x i8], [0 x i8]* @_ZN5prefs35kManagedNotificationsBlockedForUrlsE, i32 0, i32 0), i8 7 }, %"struct.policy::PolicyToPreferenceMapEntry" { i8* getelementptr inbounds ([0 x i8], [0 x i8]* @_ZN6policy3key28kDefaultNotificationsSettingE, i32 0, i32 0), i8* getelementptr inbounds ([0 x i8], [0 x i8]* @_ZN5prefs35kManagedDefaultNotificationsSettingE, i32 0, i32 0), i8 2 }, %"struct.policy::PolicyToPreferenceMapEntry" { i8* getelementptr inbounds ([0 x i8], [0 x i8]* @_ZN6policy3key26kDefaultGeolocationSettingE, i32 0, i32 0), i8* getelementptr inbounds ([0 x i8], [0 x i8]* @_ZN5prefs33kManagedDefaultGeolocationSettingE, i32 0, i32 0), i8 2 }, %"struct.policy::PolicyToPreferenceMapEntry" { i8* getelementptr inbounds ([0 x i8], [0 x i8]* @_ZN6policy3key29kEnableOnlineRevocationChecksE, i32 0, i32 0), i8* getelementptr inbounds ([0 x i8], [0 x i8]* @_ZN5prefs30kCertRevocationCheckingEnabledE, i32 0, i32 0), i8 1 }, %"struct.policy::PolicyToPreferenceMapEntry" { i8* getelementptr inbounds ([0 x i8], [0 x i8]* @_ZN6policy3key35kCloudManagementEnrollmentMandatoryE, i32 0, i32 0), i8* getelementptr inbounds ([0 x i8], [0 x i8]* @_ZN6policy12policy_prefs35kCloudManagementEnrollmentMandatoryE, i32 0, i32 0), i8 1 }, %"struct.policy::PolicyToPreferenceMapEntry" { i8* getelementptr inbounds ([0 x i8], [0 x i8]* @_ZN6policy3key45kRequireOnlineRevocationChecksForLocalAnchorsE, i32 0, i32 0), i8* getelementptr inbounds ([0 x i8], [0 x i8]* @_ZN5prefs43kCertRevocationCheckingRequiredLocalAnchorsE, i32 0, i32 0), i8 1 }, %"struct.policy::PolicyToPreferenceMapEntry" { i8* getelementptr inbounds ([0 x i8], [0 x i8]* @_ZN6policy3key12kAuthSchemesE, i32 0, i32 0), i8* getelementptr inbounds ([0 x i8], [0 x i8]* @_ZN5prefs12kAuthSchemesE, i32 0, i32 0), i8 4 }, %"struct.policy::PolicyToPreferenceMapEntry" { i8* getelementptr inbounds ([0 x i8], [0 x i8]* @_ZN6policy3key32kDisableAuthNegotiateCnameLookupE, i32 0, i32 0), i8* getelementptr inbounds ([0 x i8], [0 x i8]* @_ZN5prefs32kDisableAuthNegotiateCnameLookupE, i32 0, i32 0), i8 1 }, %"struct.policy::PolicyToPreferenceMapEntry" { i8* getelementptr inbounds ([0 x i8], [0 x i8]* @_ZN6policy3key24kEnableAuthNegotiatePortE, i32 0, i32 0), i8* getelementptr inbounds ([0 x i8], [0 x i8]* @_ZN5prefs24kEnableAuthNegotiatePortE, i32 0, i32 0), i8 1 }, %"struct.policy::PolicyToPreferenceMapEntry" { i8* getelementptr inbounds ([0 x i8], [0 x i8]* @_ZN6policy3key18kGSSAPILibraryNameE, i32 0, i32 0), i8* getelementptr inbounds ([0 x i8], [0 x i8]* @_ZN5prefs18kGSSAPILibraryNameE, i32 0, i32 0), i8 4 }, %"struct.policy::PolicyToPreferenceMapEntry" { i8* getelementptr inbounds ([0 x i8], [0 x i8]* @_ZN6policy3key27kAllowCrossOriginAuthPromptE, i32 0, i32 0), i8* getelementptr inbounds ([0 x i8], [0 x i8]* @_ZN5prefs27kAllowCrossOriginAuthPromptE, i32 0, i32 0), i8 1 }, %"struct.policy::PolicyToPreferenceMapEntry" { i8* getelementptr inbounds ([0 x i8], [0 x i8]* @_ZN6policy3key34kGloballyScopeHTTPAuthCacheEnabledE, i32 0, i32 0), i8* getelementptr inbounds ([0 x i8], [0 x i8]* @_ZN5prefs34kGloballyScopeHTTPAuthCacheEnabledE, i32 0, i32 0), i8 1 }, %"struct.policy::PolicyToPreferenceMapEntry" { i8* getelementptr inbounds ([0 x i8], [0 x i8]* @_ZN6policy3key33kPasswordProtectionWarningTriggerE, i32 0, i32 0), i8* getelementptr inbounds ([0 x i8], [0 x i8]* @_ZN5prefs33kPasswordProtectionWarningTriggerE, i32 0, i32 0), i8 2 }, %"struct.policy::PolicyToPreferenceMapEntry" { i8* getelementptr inbounds ([0 x i8], [0 x i8]* @_ZN6policy3key28kPasswordProtectionLoginURLsE, i32 0, i32 0), i8* getelementptr inbounds ([0 x i8], [0 x i8]* @_ZN5prefs28kPasswordProtectionLoginURLsE, i32 0, i32 0), i8 7 }, %"struct.policy::PolicyToPreferenceMapEntry" { i8* getelementptr inbounds ([0 x i8], [0 x i8]* @_ZN6policy3key36kPasswordProtectionChangePasswordURLE, i32 0, i32 0), i8* getelementptr inbounds ([0 x i8], [0 x i8]* @_ZN5prefs36kPasswordProtectionChangePasswordURLE, i32 0, i32 0), i8 4 }, %"struct.policy::PolicyToPreferenceMapEntry" { i8* getelementptr inbounds ([0 x i8], [0 x i8]* @_ZN6policy3key24kSafeSitesFilterBehaviorE, i32 0, i32 0), i8* getelementptr inbounds ([0 x i8], [0 x i8]* @_ZN6policy12policy_prefs24kSafeSitesFilterBehaviorE, i32 0, i32 0), i8 2 }, %"struct.policy::PolicyToPreferenceMapEntry" { i8* getelementptr inbounds ([0 x i8], [0 x i8]* @_ZN6policy3key43kAmbientAuthenticationInPrivateModesEnabledE, i32 0, i32 0), i8* getelementptr inbounds ([0 x i8], [0 x i8]* @_ZN5prefs43kAmbientAuthenticationInPrivateModesEnabledE, i32 0, i32 0), i8 2 }, %"struct.policy::PolicyToPreferenceMapEntry" { i8* getelementptr inbounds ([0 x i8], [0 x i8]* @_ZN6policy3key25kBasicAuthOverHttpEnabledE, i32 0, i32 0), i8* getelementptr inbounds ([0 x i8], [0 x i8]* @_ZN5prefs25kBasicAuthOverHttpEnabledE, i32 0, i32 0), i8 1 }, %"struct.policy::PolicyToPreferenceMapEntry" { i8* getelementptr inbounds ([0 x i8], [0 x i8]* @_ZN6policy3key14kDisable3DAPIsE, i32 0, i32 0), i8* getelementptr inbounds ([0 x i8], [0 x i8]* @_ZN5prefs14kDisable3DAPIsE, i32 0, i32 0), i8 1 }, %"struct.policy::PolicyToPreferenceMapEntry" { i8* getelementptr inbounds ([0 x i8], [0 x i8]* @_ZN6policy3key14kDiskCacheSizeE, i32 0, i32 0), i8* getelementptr inbounds ([0 x i8], [0 x i8]* @_ZN5prefs14kDiskCacheSizeE, i32 0, i32 0), i8 2 }, %"struct.policy::PolicyToPreferenceMapEntry" { i8* getelementptr inbounds ([0 x i8], [0 x i8]* @_ZN6policy3key18kPolicyRefreshRateE, i32 0, i32 0), i8* getelementptr inbounds ([0 x i8], [0 x i8]* @_ZN6policy12policy_prefs22kUserPolicyRefreshRateE, i32 0, i32 0), i8 2 }, %"struct.policy::PolicyToPreferenceMapEntry" { i8* getelementptr inbounds ([0 x i8], [0 x i8]* @_ZN6policy3key24kDevicePolicyRefreshRateE, i32 0, i32 0), i8* getelementptr inbounds ([0 x i8], [0 x i8]* @_ZN5prefs24kDevicePolicyRefreshRateE, i32 0, i32 0), i8 2 }, %"struct.policy::PolicyToPreferenceMapEntry" { i8* getelementptr inbounds ([0 x i8], [0 x i8]* @_ZN6policy3key29kDefaultBrowserSettingEnabledE, i32 0, i32 0), i8* getelementptr inbounds ([0 x i8], [0 x i8]* @_ZN5prefs29kDefaultBrowserSettingEnabledE, i32 0, i32 0), i8 1 }, %"struct.policy::PolicyToPreferenceMapEntry" { i8* getelementptr inbounds ([0 x i8], [0 x i8]* @_ZN6policy3key23kCloudPrintProxyEnabledE, i32 0, i32 0), i8* getelementptr inbounds ([0 x i8], [0 x i8]* @_ZN5prefs23kCloudPrintProxyEnabledE, i32 0, i32 0), i8 1 }, %"struct.policy::PolicyToPreferenceMapEntry" { i8* getelementptr inbounds ([0 x i8], [0 x i8]* @_ZN6policy3key24kCloudPrintSubmitEnabledE, i32 0, i32 0), i8* getelementptr inbounds ([0 x i8], [0 x i8]* @_ZN5prefs24kCloudPrintSubmitEnabledE, i32 0, i32 0), i8 1 }, %"struct.policy::PolicyToPreferenceMapEntry" { i8* getelementptr inbounds ([0 x i8], [0 x i8]* @_ZN6policy3key29kCloudPrintWarningsSuppressedE, i32 0, i32 0), i8* getelementptr inbounds ([0 x i8], [0 x i8]* @_ZN5prefs40kCloudPrintDeprecationWarningsSuppressedE, i32 0, i32 0), i8 1 }, %"struct.policy::PolicyToPreferenceMapEntry" { i8* getelementptr inbounds ([0 x i8], [0 x i8]* @_ZN6policy3key31kEnableDeprecatedPrivetPrintingE, i32 0, i32 0), i8* getelementptr inbounds ([0 x i8], [0 x i8]* @_ZN5prefs26kForceEnablePrivetPrintingE, i32 0, i32 0), i8 1 }, %"struct.policy::PolicyToPreferenceMapEntry" { i8* getelementptr inbounds ([0 x i8], [0 x i8]* @_ZN6policy3key17kTranslateEnabledE, i32 0, i32 0), i8* getelementptr inbounds ([0 x i8], [0 x i8]* @_ZN5prefs22kOfferTranslateEnabledE, i32 0, i32 0), i8 1 }, %"struct.policy::PolicyToPreferenceMapEntry" { i8* getelementptr inbounds ([0 x i8], [0 x i8]* @_ZN6policy3key19kBookmarkBarEnabledE, i32 0, i32 0), i8* getelementptr inbounds ([0 x i8], [0 x i8]* @_ZN9bookmarks5prefs16kShowBookmarkBarE, i32 0, i32 0), i8 1 }, %"struct.policy::PolicyToPreferenceMapEntry" { i8* getelementptr inbounds ([0 x i8], [0 x i8]* @_ZN6policy3key21kEditBookmarksEnabledE, i32 0, i32 0), i8* getelementptr inbounds ([0 x i8], [0 x i8]* @_ZN9bookmarks5prefs21kEditBookmarksEnabledE, i32 0, i32 0), i8 1 }, %"struct.policy::PolicyToPreferenceMapEntry" { i8* getelementptr inbounds ([0 x i8], [0 x i8]* @_ZN6policy3key30kShowAppsShortcutInBookmarkBarE, i32 0, i32 0), i8* getelementptr inbounds ([0 x i8], [0 x i8]* @_ZN9bookmarks5prefs30kShowAppsShortcutInBookmarkBarE, i32 0, i32 0), i8 1 }, %"struct.policy::PolicyToPreferenceMapEntry" { i8* getelementptr inbounds ([0 x i8], [0 x i8]* @_ZN6policy3key26kAllowFileSelectionDialogsE, i32 0, i32 0), i8* getelementptr inbounds ([0 x i8], [0 x i8]* @_ZN5prefs26kAllowFileSelectionDialogsE, i32 0, i32 0), i8 1 }, %"struct.policy::PolicyToPreferenceMapEntry" { i8* getelementptr inbounds ([0 x i8], [0 x i8]* @_ZN6policy3key26kPromptForDownloadLocationE, i32 0, i32 0), i8* getelementptr inbounds ([0 x i8], [0 x i8]* @_ZN5prefs18kPromptForDownloadE, i32 0, i32 0), i8 1 }, %"struct.policy::PolicyToPreferenceMapEntry" { i8* getelementptr inbounds ([0 x i8], [0 x i8]* @_ZN6policy3key18kSpellcheckEnabledE, i32 0, i32 0), i8* getelementptr inbounds ([0 x i8], [0 x i8]* @_ZN10spellcheck5prefs17kSpellCheckEnableE, i32 0, i32 0), i8 1 }, %"struct.policy::PolicyToPreferenceMapEntry" { i8* getelementptr inbounds ([0 x i8], [0 x i8]* @_ZN6policy3key23kSharedClipboardEnabledE, i32 0, i32 0), i8* getelementptr inbounds ([0 x i8], [0 x i8]* @_ZN5prefs23kSharedClipboardEnabledE, i32 0, i32 0), i8 1 }, %"struct.policy::PolicyToPreferenceMapEntry" { i8* getelementptr inbounds ([0 x i8], [0 x i8]* @_ZN6policy3key22kDefaultSensorsSettingE, i32 0, i32 0), i8* getelementptr inbounds ([0 x i8], [0 x i8]* @_ZN5prefs29kManagedDefaultSensorsSettingE, i32 0, i32 0), i8 2 }, %"struct.policy::PolicyToPreferenceMapEntry" { i8* getelementptr inbounds ([0 x i8], [0 x i8]* @_ZN6policy3key22kSensorsAllowedForUrlsE, i32 0, i32 0), i8* getelementptr inbounds ([0 x i8], [0 x i8]* @_ZN5prefs29kManagedSensorsAllowedForUrlsE, i32 0, i32 0), i8 7 }, %"struct.policy::PolicyToPreferenceMapEntry" { i8* getelementptr inbounds ([0 x i8], [0 x i8]* @_ZN6policy3key22kSensorsBlockedForUrlsE, i32 0, i32 0), i8* getelementptr inbounds ([0 x i8], [0 x i8]* @_ZN5prefs29kManagedSensorsBlockedForUrlsE, i32 0, i32 0), i8 7 }, %"struct.policy::PolicyToPreferenceMapEntry" { i8* getelementptr inbounds ([0 x i8], [0 x i8]* @_ZN6policy3key16kImportBookmarksE, i32 0, i32 0), i8* getelementptr inbounds ([0 x i8], [0 x i8]* @_ZN5prefs16kImportBookmarksE, i32 0, i32 0), i8 1 }, %"struct.policy::PolicyToPreferenceMapEntry" { i8* getelementptr inbounds ([0 x i8], [0 x i8]* @_ZN6policy3key14kImportHistoryE, i32 0, i32 0), i8* getelementptr inbounds ([0 x i8], [0 x i8]* @_ZN5prefs14kImportHistoryE, i32 0, i32 0), i8 1 }, %"struct.policy::PolicyToPreferenceMapEntry" { i8* getelementptr inbounds ([0 x i8], [0 x i8]* @_ZN6policy3key15kImportHomepageE, i32 0, i32 0), i8* getelementptr inbounds ([0 x i8], [0 x i8]* @_ZN5prefs15kImportHomepageE, i32 0, i32 0), i8 1 }, %"struct.policy::PolicyToPreferenceMapEntry" { i8* getelementptr inbounds ([0 x i8], [0 x i8]* @_ZN6policy3key19kImportSearchEngineE, i32 0, i32 0), i8* getelementptr inbounds ([0 x i8], [0 x i8]* @_ZN5prefs19kImportSearchEngineE, i32 0, i32 0), i8 1 }, %"struct.policy::PolicyToPreferenceMapEntry" { i8* getelementptr inbounds ([0 x i8], [0 x i8]* @_ZN6policy3key21kImportSavedPasswordsE, i32 0, i32 0), i8* getelementptr inbounds ([0 x i8], [0 x i8]* @_ZN5prefs21kImportSavedPasswordsE, i32 0, i32 0), i8 1 }, %"struct.policy::PolicyToPreferenceMapEntry" { i8* getelementptr inbounds ([0 x i8], [0 x i8]* @_ZN6policy3key23kImportAutofillFormDataE, i32 0, i32 0), i8* getelementptr inbounds ([0 x i8], [0 x i8]* @_ZN5prefs23kImportAutofillFormDataE, i32 0, i32 0), i8 1 }, %"struct.policy::PolicyToPreferenceMapEntry" { i8* getelementptr inbounds ([0 x i8], [0 x i8]* @_ZN6policy3key16kImportBookmarksE, i32 0, i32 0), i8* getelementptr inbounds ([0 x i8], [0 x i8]* @_ZN5prefs22kImportDialogBookmarksE, i32 0, i32 0), i8 1 }, %"struct.policy::PolicyToPreferenceMapEntry" { i8* getelementptr inbounds ([0 x i8], [0 x i8]* @_ZN6policy3key14kImportHistoryE, i32 0, i32 0), i8* getelementptr inbounds ([0 x i8], [0 x i8]* @_ZN5prefs20kImportDialogHistoryE, i32 0, i32 0), i8 1 }, %"struct.policy::PolicyToPreferenceMapEntry" { i8* getelementptr inbounds ([0 x i8], [0 x i8]* @_ZN6policy3key19kImportSearchEngineE, i32 0, i32 0), i8* getelementptr inbounds ([0 x i8], [0 x i8]* @_ZN5prefs25kImportDialogSearchEngineE, i32 0, i32 0), i8 1 }, %"struct.policy::PolicyToPreferenceMapEntry" { i8* getelementptr inbounds ([0 x i8], [0 x i8]* @_ZN6policy3key21kImportSavedPasswordsE, i32 0, i32 0), i8* getelementptr inbounds ([0 x i8], [0 x i8]* @_ZN5prefs27kImportDialogSavedPasswordsE, i32 0, i32 0), i8 1 }, %"struct.policy::PolicyToPreferenceMapEntry" { i8* getelementptr inbounds ([0 x i8], [0 x i8]* @_ZN6policy3key23kImportAutofillFormDataE, i32 0, i32 0), i8* getelementptr inbounds ([0 x i8], [0 x i8]* @_ZN5prefs29kImportDialogAutofillFormDataE, i32 0, i32 0), i8 1 }, %"struct.policy::PolicyToPreferenceMapEntry" { i8* getelementptr inbounds ([0 x i8], [0 x i8]* @_ZN6policy3key23kMaxConnectionsPerProxyE, i32 0, i32 0), i8* getelementptr inbounds ([0 x i8], [0 x i8]* @_ZN5prefs23kMaxConnectionsPerProxyE, i32 0, i32 0), i8 2 }, %"struct.policy::PolicyToPreferenceMapEntry" { i8* getelementptr inbounds ([0 x i8], [0 x i8]* @_ZN6policy3key24kRestrictSigninToPatternE, i32 0, i32 0), i8* getelementptr inbounds ([0 x i8], [0 x i8]* @_ZN5prefs30kGoogleServicesUsernamePatternE, i32 0, i32 0), i8 4 }, %"struct.policy::PolicyToPreferenceMapEntry" { i8* getelementptr inbounds ([0 x i8], [0 x i8]* @_ZN6policy3key32kDefaultWebBluetoothGuardSettingE, i32 0, i32 0), i8* getelementptr inbounds ([0 x i8], [0 x i8]* @_ZN5prefs39kManagedDefaultWebBluetoothGuardSettingE, i32 0, i32 0), i8 2 }, %"struct.policy::PolicyToPreferenceMapEntry" { i8* getelementptr inbounds ([0 x i8], [0 x i8]* @_ZN6policy3key26kDefaultMediaStreamSettingE, i32 0, i32 0), i8* getelementptr inbounds ([0 x i8], [0 x i8]* @_ZN5prefs33kManagedDefaultMediaStreamSettingE, i32 0, i32 0), i8 2 }, %"struct.policy::PolicyToPreferenceMapEntry" { i8* getelementptr inbounds ([0 x i8], [0 x i8]* @_ZN6policy3key33kDisableSafeBrowsingProceedAnywayE, i32 0, i32 0), i8* getelementptr inbounds ([0 x i8], [0 x i8]* @_ZN5prefs34kSafeBrowsingProceedAnywayDisabledE, i32 0, i32 0), i8 1 }, %"struct.policy::PolicyToPreferenceMapEntry" { i8* getelementptr inbounds ([0 x i8], [0 x i8]* @_ZN6policy3key14kCECPQ2EnabledE, i32 0, i32 0), i8* getelementptr inbounds ([0 x i8], [0 x i8]* @_ZN5prefs14kCECPQ2EnabledE, i32 0, i32 0), i8 1 }, %"struct.policy::PolicyToPreferenceMapEntry" { i8* getelementptr inbounds ([0 x i8], [0 x i8]* @_ZN6policy3key17kTripleDESEnabledE, i32 0, i32 0), i8* getelementptr inbounds ([0 x i8], [0 x i8]* @_ZN5prefs17kTripleDESEnabledE, i32 0, i32 0), i8 1 }, %"struct.policy::PolicyToPreferenceMapEntry" { i8* getelementptr inbounds ([0 x i8], [0 x i8]* @_ZN6policy3key24kSSLErrorOverrideAllowedE, i32 0, i32 0), i8* getelementptr inbounds ([0 x i8], [0 x i8]* @_ZN5prefs24kSSLErrorOverrideAllowedE, i32 0, i32 0), i8 1 }, %"struct.policy::PolicyToPreferenceMapEntry" { i8* getelementptr inbounds ([0 x i8], [0 x i8]* @_ZN6policy3key34kSSLErrorOverrideAllowedForOriginsE, i32 0, i32 0), i8* getelementptr inbounds ([0 x i8], [0 x i8]* @_ZN5prefs34kSSLErrorOverrideAllowedForOriginsE, i32 0, i32 0), i8 7 }, %"struct.policy::PolicyToPreferenceMapEntry" { i8* getelementptr inbounds ([0 x i8], [0 x i8]* @_ZN6policy3key32kHardwareAccelerationModeEnabledE, i32 0, i32 0), i8* getelementptr inbounds ([0 x i8], [0 x i8]* @_ZN5prefs32kHardwareAccelerationModeEnabledE, i32 0, i32 0), i8 1 }, %"struct.policy::PolicyToPreferenceMapEntry" { i8* getelementptr inbounds ([0 x i8], [0 x i8]* @_ZN6policy3key23kAllowDinosaurEasterEggE, i32 0, i32 0), i8* getelementptr inbounds ([0 x i8], [0 x i8]* @_ZN5prefs23kAllowDinosaurEasterEggE, i32 0, i32 0), i8 1 }, %"struct.policy::PolicyToPreferenceMapEntry" { i8* getelementptr inbounds ([0 x i8], [0 x i8]* @_ZN6policy3key22kAllowedDomainsForAppsE, i32 0, i32 0), i8* getelementptr inbounds ([0 x i8], [0 x i8]* @_ZN5prefs22kAllowedDomainsForAppsE, i32 0, i32 0), i8 4 }, %"struct.policy::PolicyToPreferenceMapEntry" { i8* getelementptr inbounds ([0 x i8], [0 x i8]* @_ZN6policy3key24kComponentUpdatesEnabledE, i32 0, i32 0), i8* getelementptr inbounds ([0 x i8], [0 x i8]* @_ZN5prefs24kComponentUpdatesEnabledE, i32 0, i32 0), i8 1 }, %"struct.policy::PolicyToPreferenceMapEntry" { i8* getelementptr inbounds ([0 x i8], [0 x i8]* @_ZN6policy3key19kDisableScreenshotsE, i32 0, i32 0), i8* getelementptr inbounds ([0 x i8], [0 x i8]* @_ZN5prefs19kDisableScreenshotsE, i32 0, i32 0), i8 1 }, %"struct.policy::PolicyToPreferenceMapEntry" { i8* getelementptr inbounds ([0 x i8], [0 x i8]* @_ZN6policy3key20kAudioCaptureAllowedE, i32 0, i32 0), i8* getelementptr inbounds ([0 x i8], [0 x i8]* @_ZN5prefs20kAudioCaptureAllowedE, i32 0, i32 0), i8 1 }, %"struct.policy::PolicyToPreferenceMapEntry" { i8* getelementptr inbounds ([0 x i8], [0 x i8]* @_ZN6policy3key20kVideoCaptureAllowedE, i32 0, i32 0), i8* getelementptr inbounds ([0 x i8], [0 x i8]* @_ZN5prefs20kVideoCaptureAllowedE, i32 0, i32 0), i8 1 }, %"struct.policy::PolicyToPreferenceMapEntry" { i8* getelementptr inbounds ([0 x i8], [0 x i8]* @_ZN6policy3key24kAudioCaptureAllowedUrlsE, i32 0, i32 0), i8* getelementptr inbounds ([0 x i8], [0 x i8]* @_ZN5prefs24kAudioCaptureAllowedUrlsE, i32 0, i32 0), i8 7 }, %"struct.policy::PolicyToPreferenceMapEntry" { i8* getelementptr inbounds ([0 x i8], [0 x i8]* @_ZN6policy3key24kVideoCaptureAllowedUrlsE, i32 0, i32 0), i8* getelementptr inbounds ([0 x i8], [0 x i8]* @_ZN5prefs24kVideoCaptureAllowedUrlsE, i32 0, i32 0), i8 7 }, %"struct.policy::PolicyToPreferenceMapEntry" { i8* getelementptr inbounds ([0 x i8], [0 x i8]* @_ZN6policy3key21kScreenCaptureAllowedE, i32 0, i32 0), i8* getelementptr inbounds ([0 x i8], [0 x i8]* @_ZN5prefs21kScreenCaptureAllowedE, i32 0, i32 0), i8 1 }, %"struct.policy::PolicyToPreferenceMapEntry" { i8* getelementptr inbounds ([0 x i8], [0 x i8]* @_ZN6policy3key17kHideWebStoreIconE, i32 0, i32 0), i8* getelementptr inbounds ([0 x i8], [0 x i8]* @_ZN5prefs17kHideWebStoreIconE, i32 0, i32 0), i8 1 }, %"struct.policy::PolicyToPreferenceMapEntry" { i8* getelementptr inbounds ([0 x i8], [0 x i8]* @_ZN6policy3key28kVariationsRestrictParameterE, i32 0, i32 0), i8* getelementptr inbounds ([0 x i8], [0 x i8]* @_ZN10variations5prefs28kVariationsRestrictParameterE, i32 0, i32 0), i8 4 }, %"struct.policy::PolicyToPreferenceMapEntry" { i8* getelementptr inbounds ([0 x i8], [0 x i8]* @_ZN6policy3key23kForceEphemeralProfilesE, i32 0, i32 0), i8* getelementptr inbounds ([0 x i8], [0 x i8]* @_ZN5prefs23kForceEphemeralProfilesE, i32 0, i32 0), i8 1 }, %"struct.policy::PolicyToPreferenceMapEntry" { i8* getelementptr inbounds ([0 x i8], [0 x i8]* @_ZN6policy3key14kSSLVersionMinE, i32 0, i32 0), i8* getelementptr inbounds ([0 x i8], [0 x i8]* @_ZN5prefs14kSSLVersionMinE, i32 0, i32 0), i8 4 }, %"struct.policy::PolicyToPreferenceMapEntry" { i8* getelementptr inbounds ([0 x i8], [0 x i8]* @_ZN6policy3key29kNTPContentSuggestionsEnabledE, i32 0, i32 0), i8* getelementptr inbounds ([0 x i8], [0 x i8]* @_ZN4feed5prefs15kEnableSnippetsE, i32 0, i32 0), i8 1 }, %"struct.policy::PolicyToPreferenceMapEntry" { i8* getelementptr inbounds ([0 x i8], [0 x i8]* @_ZN6policy3key18kEnableMediaRouterE, i32 0, i32 0), i8* getelementptr inbounds ([0 x i8], [0 x i8]* @_ZN5prefs18kEnableMediaRouterE, i32 0, i32 0), i8 1 }, %"struct.policy::PolicyToPreferenceMapEntry" { i8* getelementptr inbounds ([0 x i8], [0 x i8]* @_ZN6policy3key19kWebRtcUdpPortRangeE, i32 0, i32 0), i8* getelementptr inbounds ([0 x i8], [0 x i8]* @_ZN5prefs19kWebRTCUDPPortRangeE, i32 0, i32 0), i8 4 }, %"struct.policy::PolicyToPreferenceMapEntry" { i8* getelementptr inbounds ([0 x i8], [0 x i8]* @_ZN6policy3key29kTaskManagerEndProcessEnabledE, i32 0, i32 0), i8* getelementptr inbounds ([0 x i8], [0 x i8]* @_ZN5prefs29kTaskManagerEndProcessEnabledE, i32 0, i32 0), i8 1 }, %"struct.policy::PolicyToPreferenceMapEntry" { i8* getelementptr inbounds ([0 x i8], [0 x i8]* @_ZN6policy3key29kRoamingProfileSupportEnabledE, i32 0, i32 0), i8* getelementptr inbounds ([0 x i8], [0 x i8]* @_ZN6syncer5prefs23kEnableLocalSyncBackendE, i32 0, i32 0), i8 1 }, %"struct.policy::PolicyToPreferenceMapEntry" { i8* getelementptr inbounds ([0 x i8], [0 x i8]* @_ZN6policy3key33kBrowserNetworkTimeQueriesEnabledE, i32 0, i32 0), i8* getelementptr inbounds ([0 x i8], [0 x i8]* @_ZN12network_time5prefs26kNetworkTimeQueriesEnabledE, i32 0, i32 0), i8 1 }, %"struct.policy::PolicyToPreferenceMapEntry" { i8* getelementptr inbounds ([0 x i8], [0 x i8]* @_ZN6policy3key15kIsolateOriginsE, i32 0, i32 0), i8* getelementptr inbounds ([0 x i8], [0 x i8]* @_ZN5prefs15kIsolateOriginsE, i32 0, i32 0), i8 4 }, %"struct.policy::PolicyToPreferenceMapEntry" { i8* getelementptr inbounds ([0 x i8], [0 x i8]* @_ZN6policy3key15kSitePerProcessE, i32 0, i32 0), i8* getelementptr inbounds ([0 x i8], [0 x i8]* @_ZN5prefs15kSitePerProcessE, i32 0, i32 0), i8 1 }, %"struct.policy::PolicyToPreferenceMapEntry" { i8* getelementptr inbounds ([0 x i8], [0 x i8]* @_ZN6policy3key43kSharedArrayBufferUnrestrictedAccessAllowedE, i32 0, i32 0), i8* getelementptr inbounds ([0 x i8], [0 x i8]* @_ZN5prefs43kSharedArrayBufferUnrestrictedAccessAllowedE, i32 0, i32 0), i8 1 }, %"struct.policy::PolicyToPreferenceMapEntry" { i8* getelementptr inbounds ([0 x i8], [0 x i8]* @_ZN6policy3key22kIsolateOriginsAndroidE, i32 0, i32 0), i8* getelementptr inbounds ([0 x i8], [0 x i8]* @_ZN5prefs15kIsolateOriginsE, i32 0, i32 0), i8 4 }, %"struct.policy::PolicyToPreferenceMapEntry" { i8* getelementptr inbounds ([0 x i8], [0 x i8]* @_ZN6policy3key22kSitePerProcessAndroidE, i32 0, i32 0), i8* getelementptr inbounds ([0 x i8], [0 x i8]* @_ZN5prefs15kSitePerProcessE, i32 0, i32 0), i8 1 }, %"struct.policy::PolicyToPreferenceMapEntry" { i8* getelementptr inbounds ([0 x i8], [0 x i8]* @_ZN6policy3key37kAbusiveExperienceInterventionEnforceE, i32 0, i32 0), i8* getelementptr inbounds ([0 x i8], [0 x i8]* @_ZN15blocked_content5prefs37kAbusiveExperienceInterventionEnforceE, i32 0, i32 0), i8 1 }, %"struct.policy::PolicyToPreferenceMapEntry" { i8* getelementptr inbounds ([0 x i8], [0 x i8]* @_ZN6policy3key26kDefaultWebUsbGuardSettingE, i32 0, i32 0), i8* getelementptr inbounds ([0 x i8], [0 x i8]* @_ZN5prefs33kManagedDefaultWebUsbGuardSettingE, i32 0, i32 0), i8 2 }, %"struct.policy::PolicyToPreferenceMapEntry" { i8* getelementptr inbounds ([0 x i8], [0 x i8]* @_ZN6policy3key17kWebUsbAskForUrlsE, i32 0, i32 0), i8* getelementptr inbounds ([0 x i8], [0 x i8]* @_ZN5prefs24kManagedWebUsbAskForUrlsE, i32 0, i32 0), i8 7 }, %"struct.policy::PolicyToPreferenceMapEntry" { i8* getelementptr inbounds ([0 x i8], [0 x i8]* @_ZN6policy3key21kWebUsbBlockedForUrlsE, i32 0, i32 0), i8* getelementptr inbounds ([0 x i8], [0 x i8]* @_ZN5prefs28kManagedWebUsbBlockedForUrlsE, i32 0, i32 0), i8 7 }, %"struct.policy::PolicyToPreferenceMapEntry" { i8* getelementptr inbounds ([0 x i8], [0 x i8]* @_ZN6policy3key26kDefaultSerialGuardSettingE, i32 0, i32 0), i8* getelementptr inbounds ([0 x i8], [0 x i8]* @_ZN5prefs33kManagedDefaultSerialGuardSettingE, i32 0, i32 0), i8 2 }, %"struct.policy::PolicyToPreferenceMapEntry" { i8* getelementptr inbounds ([0 x i8], [0 x i8]* @_ZN6policy3key17kSerialAskForUrlsE, i32 0, i32 0), i8* getelementptr inbounds ([0 x i8], [0 x i8]* @_ZN5prefs24kManagedSerialAskForUrlsE, i32 0, i32 0), i8 7 }, %"struct.policy::PolicyToPreferenceMapEntry" { i8* getelementptr inbounds ([0 x i8], [0 x i8]* @_ZN6policy3key21kSerialBlockedForUrlsE, i32 0, i32 0), i8* getelementptr inbounds ([0 x i8], [0 x i8]* @_ZN5prefs28kManagedSerialBlockedForUrlsE, i32 0, i32 0), i8 7 }, %"struct.policy::PolicyToPreferenceMapEntry" { i8* getelementptr inbounds ([0 x i8], [0 x i8]* @_ZN6policy3key27kSerialAllowAllPortsForUrlsE, i32 0, i32 0), i8* getelementptr inbounds ([0 x i8], [0 x i8]* @_ZN5prefs34kManagedSerialAllowAllPortsForUrlsE, i32 0, i32 0), i8 7 }, %"struct.policy::PolicyToPreferenceMapEntry" { i8* getelementptr inbounds ([0 x i8], [0 x i8]* @_ZN6policy3key32kDefaultFileHandlingGuardSettingE, i32 0, i32 0), i8* getelementptr inbounds ([0 x i8], [0 x i8]* @_ZN5prefs39kManagedDefaultFileHandlingGuardSettingE, i32 0, i32 0), i8 2 }, %"struct.policy::PolicyToPreferenceMapEntry" { i8* getelementptr inbounds ([0 x i8], [0 x i8]* @_ZN6policy3key27kFileHandlingAllowedForUrlsE, i32 0, i32 0), i8* getelementptr inbounds ([0 x i8], [0 x i8]* @_ZN5prefs34kManagedFileHandlingAllowedForUrlsE, i32 0, i32 0), i8 7 }, %"struct.policy::PolicyToPreferenceMapEntry" { i8* getelementptr inbounds ([0 x i8], [0 x i8]* @_ZN6policy3key27kFileHandlingBlockedForUrlsE, i32 0, i32 0), i8* getelementptr inbounds ([0 x i8], [0 x i8]* @_ZN5prefs34kManagedFileHandlingBlockedForUrlsE, i32 0, i32 0), i8 7 }, %"struct.policy::PolicyToPreferenceMapEntry" { i8* getelementptr inbounds ([0 x i8], [0 x i8]* @_ZN6policy3key34kDefaultFileSystemReadGuardSettingE, i32 0, i32 0), i8* getelementptr inbounds ([0 x i8], [0 x i8]* @_ZN5prefs41kManagedDefaultFileSystemReadGuardSettingE, i32 0, i32 0), i8 2 }, %"struct.policy::PolicyToPreferenceMapEntry" { i8* getelementptr inbounds ([0 x i8], [0 x i8]* @_ZN6policy3key25kFileSystemReadAskForUrlsE, i32 0, i32 0), i8* getelementptr inbounds ([0 x i8], [0 x i8]* @_ZN5prefs32kManagedFileSystemReadAskForUrlsE, i32 0, i32 0), i8 7 }, %"struct.policy::PolicyToPreferenceMapEntry" { i8* getelementptr inbounds ([0 x i8], [0 x i8]* @_ZN6policy3key29kFileSystemReadBlockedForUrlsE, i32 0, i32 0), i8* getelementptr inbounds ([0 x i8], [0 x i8]* @_ZN5prefs36kManagedFileSystemReadBlockedForUrlsE, i32 0, i32 0), i8 7 }, %"struct.policy::PolicyToPreferenceMapEntry" { i8* getelementptr inbounds ([0 x i8], [0 x i8]* @_ZN6policy3key35kDefaultFileSystemWriteGuardSettingE, i32 0, i32 0), i8* getelementptr inbounds ([0 x i8], [0 x i8]* @_ZN5prefs42kManagedDefaultFileSystemWriteGuardSettingE, i32 0, i32 0), i8 2 }, %"struct.policy::PolicyToPreferenceMapEntry" { i8* getelementptr inbounds ([0 x i8], [0 x i8]* @_ZN6policy3key26kFileSystemWriteAskForUrlsE, i32 0, i32 0), i8* getelementptr inbounds ([0 x i8], [0 x i8]* @_ZN5prefs33kManagedFileSystemWriteAskForUrlsE, i32 0, i32 0), i8 7 }, %"struct.policy::PolicyToPreferenceMapEntry" { i8* getelementptr inbounds ([0 x i8], [0 x i8]* @_ZN6policy3key30kFileSystemWriteBlockedForUrlsE, i32 0, i32 0), i8* getelementptr inbounds ([0 x i8], [0 x i8]* @_ZN5prefs37kManagedFileSystemWriteBlockedForUrlsE, i32 0, i32 0), i8 7 }, %"struct.policy::PolicyToPreferenceMapEntry" { i8* getelementptr inbounds ([0 x i8], [0 x i8]* @_ZN6policy3key19kTabFreezingEnabledE, i32 0, i32 0), i8* getelementptr inbounds ([0 x i8], [0 x i8]* @_ZN5prefs19kTabFreezingEnabledE, i32 0, i32 0), i8 1 }, %"struct.policy::PolicyToPreferenceMapEntry" { i8* getelementptr inbounds ([0 x i8], [0 x i8]* @_ZN6policy3key52kCoalesceH2ConnectionsWithClientCertificatesForHostsE, i32 0, i32 0), i8* getelementptr inbounds ([0 x i8], [0 x i8]* @_ZN5prefs28kH2ClientCertCoalescingHostsE, i32 0, i32 0), i8 7 }, %"struct.policy::PolicyToPreferenceMapEntry" { i8* getelementptr inbounds ([0 x i8], [0 x i8]* @_ZN6policy3key37kEnterpriseHardwarePlatformAPIEnabledE, i32 0, i32 0), i8* getelementptr inbounds ([0 x i8], [0 x i8]* @_ZN5prefs37kEnterpriseHardwarePlatformAPIEnabledE, i32 0, i32 0), i8 1 }, %"struct.policy::PolicyToPreferenceMapEntry" { i8* getelementptr inbounds ([0 x i8], [0 x i8]* @_ZN6policy3key26kSignedHTTPExchangeEnabledE, i32 0, i32 0), i8* getelementptr inbounds ([0 x i8], [0 x i8]* @_ZN5prefs26kSignedHTTPExchangeEnabledE, i32 0, i32 0), i8 1 }, %"struct.policy::PolicyToPreferenceMapEntry" { i8* getelementptr inbounds ([0 x i8], [0 x i8]* @_ZN6policy3key20kUserFeedbackAllowedE, i32 0, i32 0), i8* getelementptr inbounds ([0 x i8], [0 x i8]* @_ZN5prefs20kUserFeedbackAllowedE, i32 0, i32 0), i8 1 }, %"struct.policy::PolicyToPreferenceMapEntry" { i8* getelementptr inbounds ([0 x i8], [0 x i8]* @_ZN6policy3key28kAllowSyncXHRInPageDismissalE, i32 0, i32 0), i8* getelementptr inbounds ([0 x i8], [0 x i8]* @_ZN5prefs28kAllowSyncXHRInPageDismissalE, i32 0, i32 0), i8 1 }, %"struct.policy::PolicyToPreferenceMapEntry" { i8* getelementptr inbounds ([0 x i8], [0 x i8]* @_ZN6policy3key45kExternalProtocolDialogShowAlwaysOpenCheckboxE, i32 0, i32 0), i8* getelementptr inbounds ([0 x i8], [0 x i8]* @_ZN5prefs45kExternalProtocolDialogShowAlwaysOpenCheckboxE, i32 0, i32 0), i8 1 }, %"struct.policy::PolicyToPreferenceMapEntry" { i8* getelementptr inbounds ([0 x i8], [0 x i8]* @_ZN6policy3key29kPasswordLeakDetectionEnabledE, i32 0, i32 0), i8* getelementptr inbounds ([0 x i8], [0 x i8]* @_ZN16password_manager5prefs29kPasswordLeakDetectionEnabledE, i32 0, i32 0), i8 1 }, %"struct.policy::PolicyToPreferenceMapEntry" { i8* getelementptr inbounds ([0 x i8], [0 x i8]* @_ZN6policy3key19kTotalMemoryLimitMbE, i32 0, i32 0), i8* getelementptr inbounds ([0 x i8], [0 x i8]* @_ZN5prefs19kTotalMemoryLimitMbE, i32 0, i32 0), i8 2 }, %"struct.policy::PolicyToPreferenceMapEntry" { i8* getelementptr inbounds ([0 x i8], [0 x i8]* @_ZN6policy3key20kPrinterTypeDenyListE, i32 0, i32 0), i8* getelementptr inbounds ([0 x i8], [0 x i8]* @_ZN5prefs20kPrinterTypeDenyListE, i32 0, i32 0), i8 7 }, %"struct.policy::PolicyToPreferenceMapEntry" { i8* getelementptr inbounds ([0 x i8], [0 x i8]* @_ZN6policy3key26kPaymentMethodQueryEnabledE, i32 0, i32 0), i8* getelementptr inbounds ([0 x i8], [0 x i8]* @_ZN8payments22kCanMakePaymentEnabledE, i32 0, i32 0), i8 1 }, %"struct.policy::PolicyToPreferenceMapEntry" { i8* getelementptr inbounds ([0 x i8], [0 x i8]* @_ZN6policy3key29kDNSInterceptionChecksEnabledE, i32 0, i32 0), i8* getelementptr inbounds ([0 x i8], [0 x i8]* @_ZN5prefs29kDNSInterceptionChecksEnabledE, i32 0, i32 0), i8 1 }, %"struct.policy::PolicyToPreferenceMapEntry" { i8* getelementptr inbounds ([0 x i8], [0 x i8]* @_ZN6policy3key25kIntranetRedirectBehaviorE, i32 0, i32 0), i8* getelementptr inbounds ([0 x i8], [0 x i8]* @_ZN7omnibox25kIntranetRedirectBehaviorE, i32 0, i32 0), i8 2 }, %"struct.policy::PolicyToPreferenceMapEntry" { i8* getelementptr inbounds ([0 x i8], [0 x i8]* @_ZN6policy3key26kAdvancedProtectionAllowedE, i32 0, i32 0), i8* getelementptr inbounds ([0 x i8], [0 x i8]* @_ZN5prefs26kAdvancedProtectionAllowedE, i32 0, i32 0), i8 1 }, %"struct.policy::PolicyToPreferenceMapEntry" { i8* getelementptr inbounds ([0 x i8], [0 x i8]* @_ZN6policy3key32kAccessibilityImageLabelsEnabledE, i32 0, i32 0), i8* getelementptr inbounds ([0 x i8], [0 x i8]* @_ZN5prefs32kAccessibilityImageLabelsEnabledE, i32 0, i32 0), i8 1 }, %"struct.policy::PolicyToPreferenceMapEntry" { i8* getelementptr inbounds ([0 x i8], [0 x i8]* @_ZN6policy3key46kDefaultSearchProviderContextMenuAccessAllowedE, i32 0, i32 0), i8* getelementptr inbounds ([0 x i8], [0 x i8]* @_ZN5prefs46kDefaultSearchProviderContextMenuAccessAllowedE, i32 0, i32 0), i8 1 }, %"struct.policy::PolicyToPreferenceMapEntry" { i8* getelementptr inbounds ([0 x i8], [0 x i8]* @_ZN6policy3key19kBrowserLabsEnabledE, i32 0, i32 0), i8* getelementptr inbounds ([0 x i8], [0 x i8]* @_ZN17chrome_labs_prefs19kBrowserLabsEnabledE, i32 0, i32 0), i8 1 }, %"struct.policy::PolicyToPreferenceMapEntry" { i8* getelementptr inbounds ([0 x i8], [0 x i8]* @_ZN6policy3key16kForcedLanguagesE, i32 0, i32 0), i8* getelementptr inbounds ([0 x i8], [0 x i8]* @_ZN8language5prefs16kForcedLanguagesE, i32 0, i32 0), i8 7 }, %"struct.policy::PolicyToPreferenceMapEntry" { i8* getelementptr inbounds ([0 x i8], [0 x i8]* @_ZN6policy3key30kDefaultInsecureContentSettingE, i32 0, i32 0), i8* getelementptr inbounds ([0 x i8], [0 x i8]* @_ZN5prefs37kManagedDefaultInsecureContentSettingE, i32 0, i32 0), i8 2 }, %"struct.policy::PolicyToPreferenceMapEntry" { i8* getelementptr inbounds ([0 x i8], [0 x i8]* @_ZN6policy3key30kInsecureContentAllowedForUrlsE, i32 0, i32 0), i8* getelementptr inbounds ([0 x i8], [0 x i8]* @_ZN5prefs37kManagedInsecureContentAllowedForUrlsE, i32 0, i32 0), i8 7 }, %"struct.policy::PolicyToPreferenceMapEntry" { i8* getelementptr inbounds ([0 x i8], [0 x i8]* @_ZN6policy3key30kInsecureContentBlockedForUrlsE, i32 0, i32 0), i8* getelementptr inbounds ([0 x i8], [0 x i8]* @_ZN5prefs37kManagedInsecureContentBlockedForUrlsE, i32 0, i32 0), i8 7 }, %"struct.policy::PolicyToPreferenceMapEntry" { i8* getelementptr inbounds ([0 x i8], [0 x i8]* @_ZN6policy3key22kShowCastIconInToolbarE, i32 0, i32 0), i8* getelementptr inbounds ([0 x i8], [0 x i8]* @_ZN5prefs22kShowCastIconInToolbarE, i32 0, i32 0), i8 1 }, %"struct.policy::PolicyToPreferenceMapEntry" { i8* getelementptr inbounds ([0 x i8], [0 x i8]* @_ZN6policy3key27kMediaRouterCastAllowAllIPsE, i32 0, i32 0), i8* getelementptr inbounds ([32 x i8], [32 x i8]* @_ZN12media_router5prefsL27kMediaRouterCastAllowAllIPsE, i32 0, i32 0), i8 1 }, %"struct.policy::PolicyToPreferenceMapEntry" { i8* getelementptr inbounds ([0 x i8], [0 x i8]* @_ZN6policy3key26kWebRtcLocalIpsAllowedUrlsE, i32 0, i32 0), i8* getelementptr inbounds ([0 x i8], [0 x i8]* @_ZN5prefs26kWebRtcLocalIpsAllowedUrlsE, i32 0, i32 0), i8 7 }, %"struct.policy::PolicyToPreferenceMapEntry" { i8* getelementptr inbounds ([0 x i8], [0 x i8]* @_ZN6policy3key32kWebRtcEventLogCollectionAllowedE, i32 0, i32 0), i8* getelementptr inbounds ([0 x i8], [0 x i8]* @_ZN5prefs32kWebRtcEventLogCollectionAllowedE, i32 0, i32 0), i8 1 }, %"struct.policy::PolicyToPreferenceMapEntry" { i8* getelementptr inbounds ([0 x i8], [0 x i8]* @_ZN6policy3key29kSuppressUnsupportedOSWarningE, i32 0, i32 0), i8* getelementptr inbounds ([0 x i8], [0 x i8]* @_ZN5prefs29kSuppressUnsupportedOSWarningE, i32 0, i32 0), i8 1 }, %"struct.policy::PolicyToPreferenceMapEntry" { i8* getelementptr inbounds ([0 x i8], [0 x i8]* @_ZN6policy3key21kRelaunchNotificationE, i32 0, i32 0), i8* getelementptr inbounds ([0 x i8], [0 x i8]* @_ZN5prefs21kRelaunchNotificationE, i32 0, i32 0), i8 2 }, %"struct.policy::PolicyToPreferenceMapEntry" { i8* getelementptr inbounds ([0 x i8], [0 x i8]* @_ZN6policy3key27kRelaunchNotificationPeriodE, i32 0, i32 0), i8* getelementptr inbounds ([0 x i8], [0 x i8]* @_ZN5prefs27kRelaunchNotificationPeriodE, i32 0, i32 0), i8 2 }, %"struct.policy::PolicyToPreferenceMapEntry" { i8* getelementptr inbounds ([0 x i8], [0 x i8]* @_ZN6policy3key16kAutoplayAllowedE, i32 0, i32 0), i8* getelementptr inbounds ([0 x i8], [0 x i8]* @_ZN5prefs16kAutoplayAllowedE, i32 0, i32 0), i8 1 }, %"struct.policy::PolicyToPreferenceMapEntry" { i8* getelementptr inbounds ([0 x i8], [0 x i8]* @_ZN6policy3key25kBrowserGuestModeEnforcedE, i32 0, i32 0), i8* getelementptr inbounds ([0 x i8], [0 x i8]* @_ZN5prefs25kBrowserGuestModeEnforcedE, i32 0, i32 0), i8 1 }, %"struct.policy::PolicyToPreferenceMapEntry" { i8* getelementptr inbounds ([0 x i8], [0 x i8]* @_ZN6policy3key30kWebRtcAllowLegacyTLSProtocolsE, i32 0, i32 0), i8* getelementptr inbounds ([0 x i8], [0 x i8]* @_ZN5prefs30kWebRTCAllowLegacyTLSProtocolsE, i32 0, i32 0), i8 1 }, %"struct.policy::PolicyToPreferenceMapEntry" { i8* getelementptr inbounds ([0 x i8], [0 x i8]* @_ZN6policy3key16kNTPCardsVisibleE, i32 0, i32 0), i8* getelementptr inbounds ([0 x i8], [0 x i8]* @_ZN5prefs18kNtpModulesVisibleE, i32 0, i32 0), i8 1 }, %"struct.policy::PolicyToPreferenceMapEntry" { i8* getelementptr inbounds ([0 x i8], [0 x i8]* @_ZN6policy3key24kMetricsReportingEnabledE, i32 0, i32 0), i8* getelementptr inbounds ([0 x i8], [0 x i8]* @_ZN7metrics5prefs24kMetricsReportingEnabledE, i32 0, i32 0), i8 1 }, %"struct.policy::PolicyToPreferenceMapEntry" { i8* getelementptr inbounds ([0 x i8], [0 x i8]* @_ZN6policy3key14kNtlmV2EnabledE, i32 0, i32 0), i8* getelementptr inbounds ([0 x i8], [0 x i8]* @_ZN5prefs14kNtlmV2EnabledE, i32 0, i32 0), i8 1 }, %"struct.policy::PolicyToPreferenceMapEntry" { i8* getelementptr inbounds ([0 x i8], [0 x i8]* @_ZN6policy3key30kNativeMessagingUserLevelHostsE, i32 0, i32 0), i8* getelementptr inbounds ([0 x i8], [0 x i8]* @_ZN10extensions10pref_names30kNativeMessagingUserLevelHostsE, i32 0, i32 0), i8 1 }, %"struct.policy::PolicyToPreferenceMapEntry" { i8* getelementptr inbounds ([0 x i8], [0 x i8]* @_ZN6policy3key24kBrowserAddPersonEnabledE, i32 0, i32 0), i8* getelementptr inbounds ([0 x i8], [0 x i8]* @_ZN5prefs24kBrowserAddPersonEnabledE, i32 0, i32 0), i8 1 }, %"struct.policy::PolicyToPreferenceMapEntry" { i8* getelementptr inbounds ([0 x i8], [0 x i8]* @_ZN6policy3key36kPrintPreviewUseSystemDefaultPrinterE, i32 0, i32 0), i8* getelementptr inbounds ([0 x i8], [0 x i8]* @_ZN5prefs36kPrintPreviewUseSystemDefaultPrinterE, i32 0, i32 0), i8 1 }, %"struct.policy::PolicyToPreferenceMapEntry" { i8* getelementptr inbounds ([0 x i8], [0 x i8]* @_ZN6policy3key35kCloudPolicyOverridesPlatformPolicyE, i32 0, i32 0), i8* getelementptr inbounds ([0 x i8], [0 x i8]* @_ZN6policy12policy_prefs35kCloudPolicyOverridesPlatformPolicyE, i32 0, i32 0), i8 1 }, %"struct.policy::PolicyToPreferenceMapEntry" { i8* getelementptr inbounds ([0 x i8], [0 x i8]* @_ZN6policy3key31kUserDataSnapshotRetentionLimitE, i32 0, i32 0), i8* getelementptr inbounds ([0 x i8], [0 x i8]* @_ZN5prefs31kUserDataSnapshotRetentionLimitE, i32 0, i32 0), i8 2 }, %"struct.policy::PolicyToPreferenceMapEntry" { i8* getelementptr inbounds ([0 x i8], [0 x i8]* @_ZN6policy3key23kPromotionalTabsEnabledE, i32 0, i32 0), i8* getelementptr inbounds ([0 x i8], [0 x i8]* @_ZN5prefs23kPromotionalTabsEnabledE, i32 0, i32 0), i8 1 }, %"struct.policy::PolicyToPreferenceMapEntry" { i8* getelementptr inbounds ([0 x i8], [0 x i8]* @_ZN6policy3key39kCommandLineFlagSecurityWarningsEnabledE, i32 0, i32 0), i8* getelementptr inbounds ([0 x i8], [0 x i8]* @_ZN5prefs39kCommandLineFlagSecurityWarningsEnabledE, i32 0, i32 0), i8 1 }, %"struct.policy::PolicyToPreferenceMapEntry" { i8* getelementptr inbounds ([0 x i8], [0 x i8]* @_ZN6policy3key23kAlternativeBrowserPathE, i32 0, i32 0), i8* getelementptr inbounds ([0 x i8], [0 x i8]* @_ZN16browser_switcher5prefs23kAlternativeBrowserPathE, i32 0, i32 0), i8 4 }, %"struct.policy::PolicyToPreferenceMapEntry" { i8* getelementptr inbounds ([0 x i8], [0 x i8]* @_ZN6policy3key29kAlternativeBrowserParametersE, i32 0, i32 0), i8* getelementptr inbounds ([0 x i8], [0 x i8]* @_ZN16browser_switcher5prefs29kAlternativeBrowserParametersE, i32 0, i32 0), i8 7 }, %"struct.policy::PolicyToPreferenceMapEntry" { i8* getelementptr inbounds ([0 x i8], [0 x i8]* @_ZN6policy3key23kBrowserSwitcherUrlListE, i32 0, i32 0), i8* getelementptr inbounds ([0 x i8], [0 x i8]* @_ZN16browser_switcher5prefs8kUrlListE, i32 0, i32 0), i8 7 }, %"struct.policy::PolicyToPreferenceMapEntry" { i8* getelementptr inbounds ([0 x i8], [0 x i8]* @_ZN6policy3key27kBrowserSwitcherUrlGreylistE, i32 0, i32 0), i8* getelementptr inbounds ([0 x i8], [0 x i8]* @_ZN16browser_switcher5prefs12kUrlGreylistE, i32 0, i32 0), i8 7 }, %"struct.policy::PolicyToPreferenceMapEntry" { i8* getelementptr inbounds ([0 x i8], [0 x i8]* @_ZN6policy3key35kBrowserSwitcherExternalSitelistUrlE, i32 0, i32 0), i8* getelementptr inbounds ([0 x i8], [0 x i8]* @_ZN16browser_switcher5prefs20kExternalSitelistUrlE, i32 0, i32 0), i8 4 }, %"struct.policy::PolicyToPreferenceMapEntry" { i8* getelementptr inbounds ([0 x i8], [0 x i8]* @_ZN6policy3key35kBrowserSwitcherExternalGreylistUrlE, i32 0, i32 0), i8* getelementptr inbounds ([0 x i8], [0 x i8]* @_ZN16browser_switcher5prefs20kExternalGreylistUrlE, i32 0, i32 0), i8 4 }, %"struct.policy::PolicyToPreferenceMapEntry" { i8* getelementptr inbounds ([0 x i8], [0 x i8]* @_ZN6policy3key23kBrowserSwitcherEnabledE, i32 0, i32 0), i8* getelementptr inbounds ([0 x i8], [0 x i8]* @_ZN16browser_switcher5prefs8kEnabledE, i32 0, i32 0), i8 1 }, %"struct.policy::PolicyToPreferenceMapEntry" { i8* getelementptr inbounds ([0 x i8], [0 x i8]* @_ZN6policy3key33kBrowserSwitcherKeepLastChromeTabE, i32 0, i32 0), i8* getelementptr inbounds ([0 x i8], [0 x i8]* @_ZN16browser_switcher5prefs12kKeepLastTabE, i32 0, i32 0), i8 1 }, %"struct.policy::PolicyToPreferenceMapEntry" { i8* getelementptr inbounds ([0 x i8], [0 x i8]* @_ZN6policy3key21kBrowserSwitcherDelayE, i32 0, i32 0), i8* getelementptr inbounds ([0 x i8], [0 x i8]* @_ZN16browser_switcher5prefs6kDelayE, i32 0, i32 0), i8 2 }, %"struct.policy::PolicyToPreferenceMapEntry" { i8* getelementptr inbounds ([0 x i8], [0 x i8]* @_ZN6policy3key17kChromeVariationsE, i32 0, i32 0), i8* getelementptr inbounds ([0 x i8], [0 x i8]* @_ZN10variations5prefs31kVariationsRestrictionsByPolicyE, i32 0, i32 0), i8 2 }, %"struct.policy::PolicyToPreferenceMapEntry" { i8* getelementptr inbounds ([0 x i8], [0 x i8]* @_ZN6policy3key26kSigninInterceptionEnabledE, i32 0, i32 0), i8* getelementptr inbounds ([0 x i8], [0 x i8]* @_ZN5prefs26kSigninInterceptionEnabledE, i32 0, i32 0), i8 1 }, %"struct.policy::PolicyToPreferenceMapEntry" { i8* getelementptr inbounds ([0 x i8], [0 x i8]* @_ZN6policy3key31kLacrosSecondaryProfilesAllowedE, i32 0, i32 0), i8* getelementptr inbounds ([0 x i8], [0 x i8]* @_ZN5prefs31kLacrosSecondaryProfilesAllowedE, i32 0, i32 0), i8 1 }, %"struct.policy::PolicyToPreferenceMapEntry" { i8* getelementptr inbounds ([0 x i8], [0 x i8]* @_ZN6policy3key22kBackgroundModeEnabledE, i32 0, i32 0), i8* getelementptr inbounds ([0 x i8], [0 x i8]* @_ZN5prefs22kBackgroundModeEnabledE, i32 0, i32 0), i8 1 }, %"struct.policy::PolicyToPreferenceMapEntry" { i8* getelementptr inbounds ([0 x i8], [0 x i8]* @_ZN6policy3key33kAuthNegotiateDelegateByKdcPolicyE, i32 0, i32 0), i8* getelementptr inbounds ([0 x i8], [0 x i8]* @_ZN5prefs33kAuthNegotiateDelegateByKdcPolicyE, i32 0, i32 0), i8 1 }, %"struct.policy::PolicyToPreferenceMapEntry" { i8* getelementptr inbounds ([0 x i8], [0 x i8]* @_ZN6policy3key18kFullscreenAllowedE, i32 0, i32 0), i8* getelementptr inbounds ([0 x i8], [0 x i8]* @_ZN5prefs18kFullscreenAllowedE, i32 0, i32 0), i8 1 }, %"struct.policy::PolicyToPreferenceMapEntry" { i8* getelementptr inbounds ([0 x i8], [0 x i8]* @_ZN6policy3key18kFullscreenAllowedE, i32 0, i32 0), i8* getelementptr inbounds ([0 x i8], [0 x i8]* @_ZN10extensions10pref_names21kAppFullscreenAllowedE, i32 0, i32 0), i8 1 }, %"struct.policy::PolicyToPreferenceMapEntry" { i8* getelementptr inbounds ([0 x i8], [0 x i8]* @_ZN6policy3key29kSecurityKeyPermitAttestationE, i32 0, i32 0), i8* getelementptr inbounds ([0 x i8], [0 x i8]* @_ZN5prefs29kSecurityKeyPermitAttestationE, i32 0, i32 0), i8 7 }, %"struct.policy::PolicyToPreferenceMapEntry" { i8* getelementptr inbounds ([0 x i8], [0 x i8]* @_ZN6policy3key24kBlockExternalExtensionsE, i32 0, i32 0), i8* getelementptr inbounds ([0 x i8], [0 x i8]* @_ZN10extensions10pref_names24kBlockExternalExtensionsE, i32 0, i32 0), i8 1 }, %"struct.policy::PolicyToPreferenceMapEntry" { i8* getelementptr inbounds ([0 x i8], [0 x i8]* @_ZN6policy3key19kClickToCallEnabledE, i32 0, i32 0), i8* getelementptr inbounds ([0 x i8], [0 x i8]* @_ZN5prefs19kClickToCallEnabledE, i32 0, i32 0), i8 1 }, %"struct.policy::PolicyToPreferenceMapEntry" { i8* getelementptr inbounds ([0 x i8], [0 x i8]* @_ZN6policy3key25kSpellCheckServiceEnabledE, i32 0, i32 0), i8* getelementptr inbounds ([0 x i8], [0 x i8]* @_ZN10spellcheck5prefs29kSpellCheckUseSpellingServiceE, i32 0, i32 0), i8 1 }, %"struct.policy::PolicyToPreferenceMapEntry" { i8* getelementptr inbounds ([0 x i8], [0 x i8]* @_ZN6policy3key28kScrollToTextFragmentEnabledE, i32 0, i32 0), i8* getelementptr inbounds ([0 x i8], [0 x i8]* @_ZN5prefs28kScrollToTextFragmentEnabledE, i32 0, i32 0), i8 1 }, %"struct.policy::PolicyToPreferenceMapEntry" { i8* getelementptr inbounds ([0 x i8], [0 x i8]* @_ZN6policy3key21kAppCacheForceEnabledE, i32 0, i32 0), i8* getelementptr inbounds ([0 x i8], [0 x i8]* @_ZN5prefs21kAppCacheForceEnabledE, i32 0, i32 0), i8 1 }, %"struct.policy::PolicyToPreferenceMapEntry" { i8* getelementptr inbounds ([0 x i8], [0 x i8]* @_ZN6policy3key33kIntensiveWakeUpThrottlingEnabledE, i32 0, i32 0), i8* getelementptr inbounds ([0 x i8], [0 x i8]* @_ZN6policy12policy_prefs33kIntensiveWakeUpThrottlingEnabledE, i32 0, i32 0), i8 1 }, %"struct.policy::PolicyToPreferenceMapEntry" { i8* getelementptr inbounds ([0 x i8], [0 x i8]* @_ZN6policy3key28kUserAgentClientHintsEnabledE, i32 0, i32 0), i8* getelementptr inbounds ([0 x i8], [0 x i8]* @_ZN6policy12policy_prefs28kUserAgentClientHintsEnabledE, i32 0, i32 0), i8 1 }, %"struct.policy::PolicyToPreferenceMapEntry" { i8* getelementptr inbounds ([0 x i8], [0 x i8]* @_ZN6policy3key25kShowFullUrlsInAddressBarE, i32 0, i32 0), i8* getelementptr inbounds ([0 x i8], [0 x i8]* @_ZN7omnibox28kPreventUrlElisionsInOmniboxE, i32 0, i32 0), i8 1 }, %"struct.policy::PolicyToPreferenceMapEntry" { i8* getelementptr inbounds ([0 x i8], [0 x i8]* @_ZN6policy3key29kInsecureFormsWarningsEnabledE, i32 0, i32 0), i8* getelementptr inbounds ([0 x i8], [0 x i8]* @_ZN5prefs26kMixedFormsWarningsEnabledE, i32 0, i32 0), i8 1 }, %"struct.policy::PolicyToPreferenceMapEntry" { i8* getelementptr inbounds ([0 x i8], [0 x i8]* @_ZN6policy3key28kLockIconInAddressBarEnabledE, i32 0, i32 0), i8* getelementptr inbounds ([0 x i8], [0 x i8]* @_ZN7omnibox28kLockIconInAddressBarEnabledE, i32 0, i32 0), i8 1 }, %"struct.policy::PolicyToPreferenceMapEntry" { i8* getelementptr inbounds ([0 x i8], [0 x i8]* @_ZN6policy3key33kLookalikeWarningAllowlistDomainsE, i32 0, i32 0), i8* getelementptr inbounds ([0 x i8], [0 x i8]* @_ZN5prefs33kLookalikeWarningAllowlistDomainsE, i32 0, i32 0), i8 7 }, %"struct.policy::PolicyToPreferenceMapEntry" { i8* getelementptr inbounds ([0 x i8], [0 x i8]* @_ZN6policy3key27kTargetBlankImpliesNoOpenerE, i32 0, i32 0), i8* getelementptr inbounds ([0 x i8], [0 x i8]* @_ZN6policy12policy_prefs27kTargetBlankImpliesNoOpenerE, i32 0, i32 0), i8 1 }, %"struct.policy::PolicyToPreferenceMapEntry" { i8* getelementptr inbounds ([0 x i8], [0 x i8]* @_ZN6policy3key40kFetchKeepaliveDurationSecondsOnShutdownE, i32 0, i32 0), i8* getelementptr inbounds ([0 x i8], [0 x i8]* @_ZN5prefs33kFetchKeepaliveDurationOnShutdownE, i32 0, i32 0), i8 2 }, %"struct.policy::PolicyToPreferenceMapEntry" { i8* getelementptr inbounds ([0 x i8], [0 x i8]* @_ZN6policy3key39kSuppressDifferentOriginSubframeDialogsE, i32 0, i32 0), i8* getelementptr inbounds ([0 x i8], [0 x i8]* @_ZN5prefs41kSuppressDifferentOriginSubframeJSDialogsE, i32 0, i32 0), i8 1 }, %"struct.policy::PolicyToPreferenceMapEntry" { i8* getelementptr inbounds ([0 x i8], [0 x i8]* @_ZN6policy3key17kWebRtcIPHandlingE, i32 0, i32 0), i8* getelementptr inbounds ([0 x i8], [0 x i8]* @_ZN5prefs23kWebRTCIPHandlingPolicyE, i32 0, i32 0), i8 4 }], align 16
@_ZN6policy3key29kSerialAllowUsbDevicesForUrlsE = external constant [0 x i8], align 1
@_ZN5prefs36kManagedSerialAllowUsbDevicesForUrlsE = external constant [0 x i8], align 1
@_ZN6policy3key50kCertificateTransparencyEnforcementDisabledForUrlsE = external constant [0 x i8], align 1
@_ZN24certificate_transparency5prefs16kCTExcludedHostsE = external constant [0 x i8], align 1
@_ZN6policy3key49kCertificateTransparencyEnforcementDisabledForCasE = external constant [0 x i8], align 1
@_ZN24certificate_transparency5prefs16kCTExcludedSPKIsE = external constant [0 x i8], align 1
@_ZN6policy3key55kCertificateTransparencyEnforcementDisabledForLegacyCasE = external constant [0 x i8], align 1
@_ZN24certificate_transparency5prefs22kCTExcludedLegacySPKIsE = external constant [0 x i8], align 1
@_ZN6policy3key21kHSTSPolicyBypassListE = external constant [0 x i8], align 1
@_ZN5prefs21kHSTSPolicyBypassListE = external constant [0 x i8], align 1
@_ZN6policy3key20kAuthServerWhitelistE = external constant [0 x i8], align 1
@_ZN5prefs20kAuthServerAllowlistE = external constant [0 x i8], align 1
@_ZN6policy3key20kAuthServerAllowlistE = external constant [0 x i8], align 1
@_ZN6policy3key31kAuthNegotiateDelegateWhitelistE = external constant [0 x i8], align 1
@_ZN5prefs31kAuthNegotiateDelegateAllowlistE = external constant [0 x i8], align 1
@_ZN6policy3key31kAuthNegotiateDelegateAllowlistE = external constant [0 x i8], align 1
@_ZN6policy3key29kNativeWindowOcclusionEnabledE = external constant [0 x i8], align 1
@_ZN6policy12policy_prefs29kNativeWindowOcclusionEnabledE = external constant [0 x i8], align 1
@_ZN6policy3key23kWindowOcclusionEnabledE = external constant [0 x i8], align 1
@_ZN6policy3key29kSafeBrowsingAllowlistDomainsE = external constant [0 x i8], align 1
@_ZN5prefs29kSafeBrowsingAllowlistDomainsE = external constant [0 x i8], align 1
@_ZN6policy3key13kURLBlocklistE = external constant [0 x i8], align 1
@_ZN6policy3key13kURLAllowlistE = external constant [0 x i8], align 1
@_ZN6policy12policy_prefs13kUrlAllowlistE = external constant [0 x i8], align 1
@_ZN6policy3key37kSafeBrowsingExtendedReportingEnabledE = external constant [0 x i8], align 1
@_ZN5prefs34kSafeBrowsingScoutReportingEnabledE = external constant [0 x i8], align 1
@_ZN6policy3key27kRegisteredProtocolHandlersE = external constant [0 x i8], align 1
@_ZN5prefs33kPolicyRegisteredProtocolHandlersE = external constant [0 x i8], align 1
@_ZN6policy3key18kAutoplayAllowlistE = external constant [0 x i8], align 1
@_ZN5prefs18kAutoplayWhitelistE = external constant [0 x i8], align 1
@_ZN6policy3key24kDefaultPrinterSelectionE = external constant [0 x i8], align 1
@_ZN5prefs45kPrintPreviewDefaultDestinationSelectionRulesE = external constant [0 x i8], align 1
@_ZN6policy3key29kAutoSelectCertificateForUrlsE = external constant [0 x i8], align 1
@_ZN5prefs36kManagedAutoSelectCertificateForUrlsE = external constant [0 x i8], align 1
@_ZN6policy3key39kSendDownloadToCloudEnterpriseConnectorE = external constant [0 x i8], align 1
@_ZN21enterprise_connectors24kSendDownloadToCloudPrefE = external constant [0 x i8], align 1
@_ZN6policy3key34kOnFileAttachedEnterpriseConnectorE = external constant [0 x i8], align 1
@_ZN21enterprise_connectors19kOnFileAttachedPrefE = external constant [0 x i8], align 1
@_ZN21enterprise_connectors24kOnFileAttachedScopePrefE = external constant [0 x i8], align 1
@_ZN6policy3key36kOnFileDownloadedEnterpriseConnectorE = external constant [0 x i8], align 1
@_ZN21enterprise_connectors21kOnFileDownloadedPrefE = external constant [0 x i8], align 1
@_ZN21enterprise_connectors26kOnFileDownloadedScopePrefE = external constant [0 x i8], align 1
@_ZN6policy3key35kOnBulkDataEntryEnterpriseConnectorE = external constant [0 x i8], align 1
@_ZN21enterprise_connectors20kOnBulkDataEntryPrefE = external constant [0 x i8], align 1
@_ZN21enterprise_connectors25kOnBulkDataEntryScopePrefE = external constant [0 x i8], align 1
@_ZN6policy3key35kOnSecurityEventEnterpriseConnectorE = external constant [0 x i8], align 1
@_ZN21enterprise_connectors20kOnSecurityEventPrefE = external constant [0 x i8], align 1
@_ZN21enterprise_connectors25kOnSecurityEventScopePrefE = external constant [0 x i8], align 1
@_ZN6policy3key31kEnterpriseRealTimeUrlCheckModeE = external constant [0 x i8], align 1
@_ZN5prefs43kSafeBrowsingEnterpriseRealTimeUrlCheckModeE = external constant [0 x i8], align 1
@_ZN5prefs44kSafeBrowsingEnterpriseRealTimeUrlCheckScopeE = external constant [0 x i8], align 1
@_ZN6policy3key21kBrowsingDataLifetimeE = external constant [0 x i8], align 1
@_ZN13browsing_data5prefs21kBrowsingDataLifetimeE = external constant [0 x i8], align 1
@_ZN6policy3key28kClearBrowsingDataOnExitListE = external constant [0 x i8], align 1
@_ZN13browsing_data5prefs28kClearBrowsingDataOnExitListE = external constant [0 x i8], align 1
@_ZN6policy3key15kRelaunchWindowE = external constant [0 x i8], align 1
@_ZN5prefs15kRelaunchWindowE = external constant [0 x i8], align 1
@_ZN6policy3key35kContextAwareAccessSignalsAllowlistE = external constant [0 x i8], align 1
@_ZN21enterprise_connectors39kContextAwareAccessSignalsAllowlistPrefE = external constant [0 x i8], align 1
@_ZN6policy3key19kForceBrowserSigninE = external constant [0 x i8], align 1
@_ZN5prefs19kForceBrowserSigninE = external constant [0 x i8], align 1
@_ZN6policy3key14kSigninAllowedE = external constant [0 x i8], align 1
@_ZN5prefs27kSigninAllowedOnNextStartupE = external constant [0 x i8], align 1
@_ZN6policy3key36kUnsafelyTreatInsecureOriginAsSecureE = external constant [0 x i8], align 1
@_ZN6policy3key45kOverrideSecurityRestrictionsOnInsecureOriginE = external constant [0 x i8], align 1
@_ZN6policy3key25kNativeMessagingAllowlistE = external constant [0 x i8], align 1
@_ZN10extensions10pref_names25kNativeMessagingAllowlistE = external constant [0 x i8], align 1
@_ZN6policy3key25kNativeMessagingBlocklistE = external constant [0 x i8], align 1
@_ZN10extensions10pref_names25kNativeMessagingBlocklistE = external constant [0 x i8], align 1
@_ZN6policy3key35kProfilePickerOnStartupAvailabilityE = external constant [0 x i8], align 1
@_ZN5prefs42kBrowserProfilePickerAvailabilityOnStartupE = external constant [0 x i8], align 1
@_ZN6policy3key26kExtensionInstallAllowlistE = external constant [0 x i8], align 1
@_ZN10extensions10pref_names17kInstallAllowListE = external constant [0 x i8], align 1
@_ZN6policy3key26kExtensionInstallBlocklistE = external constant [0 x i8], align 1
@_ZN10extensions10pref_names16kInstallDenyListE = external constant [0 x i8], align 1
@_ZN6policy3key24kExtensionInstallSourcesE = external constant [0 x i8], align 1
@_ZN10extensions10pref_names20kAllowedInstallSitesE = external constant [0 x i8], align 1
@_ZN6policy3key22kExtensionAllowedTypesE = external constant [0 x i8], align 1
@_ZN10extensions10pref_names13kAllowedTypesE = external constant [0 x i8], align 1
@_ZN6policy3key23kDeviceChromeVariationsE = external constant [0 x i8], align 1
@_ZN6policy3key23kWebAppInstallForceListE = external constant [0 x i8], align 1
@_ZN5prefs23kWebAppInstallForceListE = external constant [0 x i8], align 1
@_ZN6policy3key30kManagedConfigurationPerOriginE = external constant [0 x i8], align 1
@_ZN5prefs30kManagedConfigurationPerOriginE = external constant [0 x i8], align 1
@_ZN6policy3key15kWebAppSettingsE = external constant [0 x i8], align 1
@_ZN5prefs15kWebAppSettingsE = external constant [0 x i8], align 1
@_ZN6policy3key28kSpellcheckLanguageBlocklistE = external constant [0 x i8], align 1
@_ZN6policy3key25kAllowNativeNotificationsE = external constant [0 x i8], align 1
@_ZN5prefs25kAllowNativeNotificationsE = external constant [0 x i8], align 1
@_ZN6policy3key25kAllowSystemNotificationsE = external constant [0 x i8], align 1
@_ZN5prefs25kAllowSystemNotificationsE = external constant [0 x i8], align 1
@_ZN8switches9kTestTypeE = external constant [0 x i8], align 1
@_ZN6policy3key21kHomepageIsNewTabPageE = external constant [0 x i8], align 1
@_ZN5prefs21kHomePageIsNewTabPageE = external constant [0 x i8], align 1
@_ZN6policy3key19kNewTabPageLocationE = external constant [0 x i8], align 1
@_ZN5prefs27kNewTabPageLocationOverrideE = external constant [0 x i8], align 1
@_ZN6policy3key21kRestoreOnStartupURLsE = external constant [0 x i8], align 1
@_ZN5prefs23kURLsToRestoreOnStartupE = external constant [0 x i8], align 1
@_ZN6policy3key27kAlternateErrorPagesEnabledE = external constant [0 x i8], align 1
@_ZN16embedder_support27kAlternateErrorPagesEnabledE = external constant [0 x i8], align 1
@_ZN6policy3key21kSearchSuggestEnabledE = external constant [0 x i8], align 1
@_ZN5prefs21kSearchSuggestEnabledE = external constant [0 x i8], align 1
@_ZN6policy3key24kBuiltInDnsClientEnabledE = external constant [0 x i8], align 1
@_ZN5prefs24kBuiltInDnsClientEnabledE = external constant [0 x i8], align 1
@_ZN6policy3key31kAdditionalDnsQueryTypesEnabledE = external constant [0 x i8], align 1
@_ZN5prefs31kAdditionalDnsQueryTypesEnabledE = external constant [0 x i8], align 1
@_ZN6policy3key22kWPADQuickCheckEnabledE = external constant [0 x i8], align 1
@_ZN5prefs18kQuickCheckEnabledE = external constant [0 x i8], align 1
@_ZN6policy3key12kQuicAllowedE = external constant [0 x i8], align 1
@_ZN5prefs12kQuicAllowedE = external constant [0 x i8], align 1
@_ZN6policy3key20kSafeBrowsingEnabledE = external constant [0 x i8], align 1
@_ZN5prefs20kSafeBrowsingEnabledE = external constant [0 x i8], align 1
@_ZN6policy3key37kSafeBrowsingForTrustedSourcesEnabledE = external constant [0 x i8], align 1
@_ZN5prefs37kSafeBrowsingForTrustedSourcesEnabledE = external constant [0 x i8], align 1
@_ZN6policy3key40kUrlKeyedAnonymizedDataCollectionEnabledE = external constant [0 x i8], align 1
@_ZN15unified_consent5prefs40kUrlKeyedAnonymizedDataCollectionEnabledE = external constant [0 x i8], align 1
@_ZN6policy3key21kDownloadRestrictionsE = external constant [0 x i8], align 1
@_ZN5prefs21kDownloadRestrictionsE = external constant [0 x i8], align 1
@_ZN6policy3key23kAutoOpenAllowedForURLsE = external constant [0 x i8], align 1
@_ZN5prefs35kDownloadAllowedURLsForOpenByPolicyE = external constant [0 x i8], align 1
@_ZN6policy3key22kForceGoogleSafeSearchE = external constant [0 x i8], align 1
@_ZN5prefs22kForceGoogleSafeSearchE = external constant [0 x i8], align 1
@_ZN6policy3key21kForceYouTubeRestrictE = external constant [0 x i8], align 1
@_ZN5prefs21kForceYouTubeRestrictE = external constant [0 x i8], align 1
@_ZN6policy3key23kPasswordManagerEnabledE = external constant [0 x i8], align 1
@_ZN16password_manager5prefs25kCredentialsEnableServiceE = external constant [0 x i8], align 1
@_ZN6policy3key16kPrintingEnabledE = external constant [0 x i8], align 1
@_ZN5prefs16kPrintingEnabledE = external constant [0 x i8], align 1
@_ZN6policy3key18kPrintHeaderFooterE = external constant [0 x i8], align 1
@_ZN5prefs18kPrintHeaderFooterE = external constant [0 x i8], align 1
@_ZN6policy3key20kDisablePrintPreviewE = external constant [0 x i8], align 1
@_ZN5prefs21kPrintPreviewDisabledE = external constant [0 x i8], align 1
@_ZN6policy3key23kApplicationLocaleValueE = external constant [0 x i8], align 1
@_ZN8language5prefs18kApplicationLocaleE = external constant [0 x i8], align 1
@_ZN6policy3key24kAlwaysOpenPdfExternallyE = external constant [0 x i8], align 1
@_ZN5prefs31kPluginsAlwaysOpenPdfExternallyE = external constant [0 x i8], align 1
@_ZN6policy3key15kShowHomeButtonE = external constant [0 x i8], align 1
@_ZN5prefs15kShowHomeButtonE = external constant [0 x i8], align 1
@_ZN6policy3key29kSavingBrowserHistoryDisabledE = external constant [0 x i8], align 1
@_ZN5prefs29kSavingBrowserHistoryDisabledE = external constant [0 x i8], align 1
@_ZN6policy3key28kAllowDeletingBrowserHistoryE = external constant [0 x i8], align 1
@_ZN5prefs28kAllowDeletingBrowserHistoryE = external constant [0 x i8], align 1
@_ZN6policy3key31kAdsSettingForIntrusiveAdsSitesE = external constant [0 x i8], align 1
@_ZN5prefs25kManagedDefaultAdsSettingE = external constant [0 x i8], align 1
@_ZN6policy3key22kDefaultCookiesSettingE = external constant [0 x i8], align 1
@_ZN5prefs29kManagedDefaultCookiesSettingE = external constant [0 x i8], align 1
@_ZN6policy3key21kDefaultImagesSettingE = external constant [0 x i8], align 1
@_ZN5prefs28kManagedDefaultImagesSettingE = external constant [0 x i8], align 1
@_ZN6policy3key36kLegacySameSiteCookieBehaviorEnabledE = external constant [0 x i8], align 1
@_ZN5prefs40kManagedDefaultLegacyCookieAccessSettingE = external constant [0 x i8], align 1
@_ZN6policy3key21kDefaultPopupsSettingE = external constant [0 x i8], align 1
@_ZN5prefs28kManagedDefaultPopupsSettingE = external constant [0 x i8], align 1
@_ZN6policy3key22kCookiesAllowedForUrlsE = external constant [0 x i8], align 1
@_ZN5prefs29kManagedCookiesAllowedForUrlsE = external constant [0 x i8], align 1
@_ZN6policy3key22kCookiesBlockedForUrlsE = external constant [0 x i8], align 1
@_ZN5prefs29kManagedCookiesBlockedForUrlsE = external constant [0 x i8], align 1
@_ZN6policy3key26kCookiesSessionOnlyForUrlsE = external constant [0 x i8], align 1
@_ZN5prefs33kManagedCookiesSessionOnlyForUrlsE = external constant [0 x i8], align 1
@_ZN6policy3key21kImagesAllowedForUrlsE = external constant [0 x i8], align 1
@_ZN5prefs28kManagedImagesAllowedForUrlsE = external constant [0 x i8], align 1
@_ZN6policy3key21kImagesBlockedForUrlsE = external constant [0 x i8], align 1
@_ZN5prefs28kManagedImagesBlockedForUrlsE = external constant [0 x i8], align 1
@_ZN6policy3key25kJavaScriptAllowedForUrlsE = external constant [0 x i8], align 1
@_ZN5prefs32kManagedJavaScriptAllowedForUrlsE = external constant [0 x i8], align 1
@_ZN6policy3key25kJavaScriptBlockedForUrlsE = external constant [0 x i8], align 1
@_ZN5prefs32kManagedJavaScriptBlockedForUrlsE = external constant [0 x i8], align 1
@_ZN6policy3key49kLegacySameSiteCookieBehaviorEnabledForDomainListE = external constant [0 x i8], align 1
@_ZN5prefs43kManagedLegacyCookieAccessAllowedForDomainsE = external constant [0 x i8], align 1
@_ZN6policy3key45kInsecurePrivateNetworkRequestsAllowedForUrlsE = external constant [0 x i8], align 1
@_ZN5prefs44kManagedInsecurePrivateNetworkAllowedForUrlsE = external constant [0 x i8], align 1
@_ZN6policy3key21kPopupsAllowedForUrlsE = external constant [0 x i8], align 1
@_ZN5prefs28kManagedPopupsAllowedForUrlsE = external constant [0 x i8], align 1
@_ZN6policy3key21kPopupsBlockedForUrlsE = external constant [0 x i8], align 1
@_ZN5prefs28kManagedPopupsBlockedForUrlsE = external constant [0 x i8], align 1
@_ZN6policy3key28kNotificationsAllowedForUrlsE = external constant [0 x i8], align 1
@_ZN5prefs35kManagedNotificationsAllowedForUrlsE = external constant [0 x i8], align 1
@_ZN6policy3key28kNotificationsBlockedForUrlsE = external constant [0 x i8], align 1
@_ZN5prefs35kManagedNotificationsBlockedForUrlsE = external constant [0 x i8], align 1
@_ZN6policy3key28kDefaultNotificationsSettingE = external constant [0 x i8], align 1
@_ZN5prefs35kManagedDefaultNotificationsSettingE = external constant [0 x i8], align 1
@_ZN6policy3key26kDefaultGeolocationSettingE = external constant [0 x i8], align 1
@_ZN5prefs33kManagedDefaultGeolocationSettingE = external constant [0 x i8], align 1
@_ZN6policy3key29kEnableOnlineRevocationChecksE = external constant [0 x i8], align 1
@_ZN5prefs30kCertRevocationCheckingEnabledE = external constant [0 x i8], align 1
@_ZN6policy3key35kCloudManagementEnrollmentMandatoryE = external constant [0 x i8], align 1
@_ZN6policy12policy_prefs35kCloudManagementEnrollmentMandatoryE = external constant [0 x i8], align 1
@_ZN6policy3key45kRequireOnlineRevocationChecksForLocalAnchorsE = external constant [0 x i8], align 1
@_ZN5prefs43kCertRevocationCheckingRequiredLocalAnchorsE = external constant [0 x i8], align 1
@_ZN6policy3key12kAuthSchemesE = external constant [0 x i8], align 1
@_ZN5prefs12kAuthSchemesE = external constant [0 x i8], align 1
@_ZN6policy3key32kDisableAuthNegotiateCnameLookupE = external constant [0 x i8], align 1
@_ZN5prefs32kDisableAuthNegotiateCnameLookupE = external constant [0 x i8], align 1
@_ZN6policy3key24kEnableAuthNegotiatePortE = external constant [0 x i8], align 1
@_ZN5prefs24kEnableAuthNegotiatePortE = external constant [0 x i8], align 1
@_ZN6policy3key18kGSSAPILibraryNameE = external constant [0 x i8], align 1
@_ZN5prefs18kGSSAPILibraryNameE = external constant [0 x i8], align 1
@_ZN6policy3key27kAllowCrossOriginAuthPromptE = external constant [0 x i8], align 1
@_ZN5prefs27kAllowCrossOriginAuthPromptE = external constant [0 x i8], align 1
@_ZN6policy3key34kGloballyScopeHTTPAuthCacheEnabledE = external constant [0 x i8], align 1
@_ZN5prefs34kGloballyScopeHTTPAuthCacheEnabledE = external constant [0 x i8], align 1
@_ZN6policy3key33kPasswordProtectionWarningTriggerE = external constant [0 x i8], align 1
@_ZN5prefs33kPasswordProtectionWarningTriggerE = external constant [0 x i8], align 1
@_ZN6policy3key28kPasswordProtectionLoginURLsE = external constant [0 x i8], align 1
@_ZN5prefs28kPasswordProtectionLoginURLsE = external constant [0 x i8], align 1
@_ZN6policy3key36kPasswordProtectionChangePasswordURLE = external constant [0 x i8], align 1
@_ZN5prefs36kPasswordProtectionChangePasswordURLE = external constant [0 x i8], align 1
@_ZN6policy3key24kSafeSitesFilterBehaviorE = external constant [0 x i8], align 1
@_ZN6policy12policy_prefs24kSafeSitesFilterBehaviorE = external constant [0 x i8], align 1
@_ZN6policy3key43kAmbientAuthenticationInPrivateModesEnabledE = external constant [0 x i8], align 1
@_ZN5prefs43kAmbientAuthenticationInPrivateModesEnabledE = external constant [0 x i8], align 1
@_ZN6policy3key25kBasicAuthOverHttpEnabledE = external constant [0 x i8], align 1
@_ZN5prefs25kBasicAuthOverHttpEnabledE = external constant [0 x i8], align 1
@_ZN6policy3key14kDisable3DAPIsE = external constant [0 x i8], align 1
@_ZN5prefs14kDisable3DAPIsE = external constant [0 x i8], align 1
@_ZN6policy3key14kDiskCacheSizeE = external constant [0 x i8], align 1
@_ZN5prefs14kDiskCacheSizeE = external constant [0 x i8], align 1
@_ZN6policy3key18kPolicyRefreshRateE = external constant [0 x i8], align 1
@_ZN6policy12policy_prefs22kUserPolicyRefreshRateE = external constant [0 x i8], align 1
@_ZN6policy3key24kDevicePolicyRefreshRateE = external constant [0 x i8], align 1
@_ZN5prefs24kDevicePolicyRefreshRateE = external constant [0 x i8], align 1
@_ZN6policy3key29kDefaultBrowserSettingEnabledE = external constant [0 x i8], align 1
@_ZN5prefs29kDefaultBrowserSettingEnabledE = external constant [0 x i8], align 1
@_ZN6policy3key23kCloudPrintProxyEnabledE = external constant [0 x i8], align 1
@_ZN5prefs23kCloudPrintProxyEnabledE = external constant [0 x i8], align 1
@_ZN6policy3key24kCloudPrintSubmitEnabledE = external constant [0 x i8], align 1
@_ZN5prefs24kCloudPrintSubmitEnabledE = external constant [0 x i8], align 1
@_ZN6policy3key29kCloudPrintWarningsSuppressedE = external constant [0 x i8], align 1
@_ZN5prefs40kCloudPrintDeprecationWarningsSuppressedE = external constant [0 x i8], align 1
@_ZN6policy3key31kEnableDeprecatedPrivetPrintingE = external constant [0 x i8], align 1
@_ZN5prefs26kForceEnablePrivetPrintingE = external constant [0 x i8], align 1
@_ZN6policy3key17kTranslateEnabledE = external constant [0 x i8], align 1
@_ZN5prefs22kOfferTranslateEnabledE = external constant [0 x i8], align 1
@_ZN6policy3key19kBookmarkBarEnabledE = external constant [0 x i8], align 1
@_ZN9bookmarks5prefs16kShowBookmarkBarE = external constant [0 x i8], align 1
@_ZN6policy3key21kEditBookmarksEnabledE = external constant [0 x i8], align 1
@_ZN9bookmarks5prefs21kEditBookmarksEnabledE = external constant [0 x i8], align 1
@_ZN6policy3key30kShowAppsShortcutInBookmarkBarE = external constant [0 x i8], align 1
@_ZN9bookmarks5prefs30kShowAppsShortcutInBookmarkBarE = external constant [0 x i8], align 1
@_ZN6policy3key26kAllowFileSelectionDialogsE = external constant [0 x i8], align 1
@_ZN5prefs26kAllowFileSelectionDialogsE = external constant [0 x i8], align 1
@_ZN6policy3key26kPromptForDownloadLocationE = external constant [0 x i8], align 1
@_ZN5prefs18kPromptForDownloadE = external constant [0 x i8], align 1
@_ZN6policy3key18kSpellcheckEnabledE = external constant [0 x i8], align 1
@_ZN10spellcheck5prefs17kSpellCheckEnableE = external constant [0 x i8], align 1
@_ZN6policy3key23kSharedClipboardEnabledE = external constant [0 x i8], align 1
@_ZN5prefs23kSharedClipboardEnabledE = external constant [0 x i8], align 1
@_ZN6policy3key22kDefaultSensorsSettingE = external constant [0 x i8], align 1
@_ZN5prefs29kManagedDefaultSensorsSettingE = external constant [0 x i8], align 1
@_ZN6policy3key22kSensorsAllowedForUrlsE = external constant [0 x i8], align 1
@_ZN5prefs29kManagedSensorsAllowedForUrlsE = external constant [0 x i8], align 1
@_ZN6policy3key22kSensorsBlockedForUrlsE = external constant [0 x i8], align 1
@_ZN5prefs29kManagedSensorsBlockedForUrlsE = external constant [0 x i8], align 1
@_ZN6policy3key16kImportBookmarksE = external constant [0 x i8], align 1
@_ZN5prefs16kImportBookmarksE = external constant [0 x i8], align 1
@_ZN6policy3key14kImportHistoryE = external constant [0 x i8], align 1
@_ZN5prefs14kImportHistoryE = external constant [0 x i8], align 1
@_ZN6policy3key15kImportHomepageE = external constant [0 x i8], align 1
@_ZN5prefs15kImportHomepageE = external constant [0 x i8], align 1
@_ZN6policy3key19kImportSearchEngineE = external constant [0 x i8], align 1
@_ZN5prefs19kImportSearchEngineE = external constant [0 x i8], align 1
@_ZN6policy3key21kImportSavedPasswordsE = external constant [0 x i8], align 1
@_ZN5prefs21kImportSavedPasswordsE = external constant [0 x i8], align 1
@_ZN6policy3key23kImportAutofillFormDataE = external constant [0 x i8], align 1
@_ZN5prefs23kImportAutofillFormDataE = external constant [0 x i8], align 1
@_ZN5prefs22kImportDialogBookmarksE = external constant [0 x i8], align 1
@_ZN5prefs20kImportDialogHistoryE = external constant [0 x i8], align 1
@_ZN5prefs25kImportDialogSearchEngineE = external constant [0 x i8], align 1
@_ZN5prefs27kImportDialogSavedPasswordsE = external constant [0 x i8], align 1
@_ZN5prefs29kImportDialogAutofillFormDataE = external constant [0 x i8], align 1
@_ZN6policy3key23kMaxConnectionsPerProxyE = external constant [0 x i8], align 1
@_ZN5prefs23kMaxConnectionsPerProxyE = external constant [0 x i8], align 1
@_ZN6policy3key24kRestrictSigninToPatternE = external constant [0 x i8], align 1
@_ZN5prefs30kGoogleServicesUsernamePatternE = external constant [0 x i8], align 1
@_ZN6policy3key32kDefaultWebBluetoothGuardSettingE = external constant [0 x i8], align 1
@_ZN5prefs39kManagedDefaultWebBluetoothGuardSettingE = external constant [0 x i8], align 1
@_ZN6policy3key26kDefaultMediaStreamSettingE = external constant [0 x i8], align 1
@_ZN5prefs33kManagedDefaultMediaStreamSettingE = external constant [0 x i8], align 1
@_ZN6policy3key33kDisableSafeBrowsingProceedAnywayE = external constant [0 x i8], align 1
@_ZN5prefs34kSafeBrowsingProceedAnywayDisabledE = external constant [0 x i8], align 1
@_ZN6policy3key14kCECPQ2EnabledE = external constant [0 x i8], align 1
@_ZN5prefs14kCECPQ2EnabledE = external constant [0 x i8], align 1
@_ZN6policy3key17kTripleDESEnabledE = external constant [0 x i8], align 1
@_ZN5prefs17kTripleDESEnabledE = external constant [0 x i8], align 1
@_ZN6policy3key24kSSLErrorOverrideAllowedE = external constant [0 x i8], align 1
@_ZN5prefs24kSSLErrorOverrideAllowedE = external constant [0 x i8], align 1
@_ZN6policy3key34kSSLErrorOverrideAllowedForOriginsE = external constant [0 x i8], align 1
@_ZN5prefs34kSSLErrorOverrideAllowedForOriginsE = external constant [0 x i8], align 1
@_ZN6policy3key32kHardwareAccelerationModeEnabledE = external constant [0 x i8], align 1
@_ZN5prefs32kHardwareAccelerationModeEnabledE = external constant [0 x i8], align 1
@_ZN6policy3key23kAllowDinosaurEasterEggE = external constant [0 x i8], align 1
@_ZN5prefs23kAllowDinosaurEasterEggE = external constant [0 x i8], align 1
@_ZN6policy3key22kAllowedDomainsForAppsE = external constant [0 x i8], align 1
@_ZN5prefs22kAllowedDomainsForAppsE = external constant [0 x i8], align 1
@_ZN6policy3key24kComponentUpdatesEnabledE = external constant [0 x i8], align 1
@_ZN5prefs24kComponentUpdatesEnabledE = external constant [0 x i8], align 1
@_ZN6policy3key19kDisableScreenshotsE = external constant [0 x i8], align 1
@_ZN5prefs19kDisableScreenshotsE = external constant [0 x i8], align 1
@_ZN6policy3key20kAudioCaptureAllowedE = external constant [0 x i8], align 1
@_ZN5prefs20kAudioCaptureAllowedE = external constant [0 x i8], align 1
@_ZN6policy3key20kVideoCaptureAllowedE = external constant [0 x i8], align 1
@_ZN5prefs20kVideoCaptureAllowedE = external constant [0 x i8], align 1
@_ZN6policy3key24kAudioCaptureAllowedUrlsE = external constant [0 x i8], align 1
@_ZN5prefs24kAudioCaptureAllowedUrlsE = external constant [0 x i8], align 1
@_ZN6policy3key24kVideoCaptureAllowedUrlsE = external constant [0 x i8], align 1
@_ZN5prefs24kVideoCaptureAllowedUrlsE = external constant [0 x i8], align 1
@_ZN6policy3key21kScreenCaptureAllowedE = external constant [0 x i8], align 1
@_ZN5prefs21kScreenCaptureAllowedE = external constant [0 x i8], align 1
@_ZN6policy3key17kHideWebStoreIconE = external constant [0 x i8], align 1
@_ZN5prefs17kHideWebStoreIconE = external constant [0 x i8], align 1
@_ZN6policy3key28kVariationsRestrictParameterE = external constant [0 x i8], align 1
@_ZN10variations5prefs28kVariationsRestrictParameterE = external constant [0 x i8], align 1
@_ZN6policy3key23kForceEphemeralProfilesE = external constant [0 x i8], align 1
@_ZN5prefs23kForceEphemeralProfilesE = external constant [0 x i8], align 1
@_ZN6policy3key14kSSLVersionMinE = external constant [0 x i8], align 1
@_ZN5prefs14kSSLVersionMinE = external constant [0 x i8], align 1
@_ZN6policy3key29kNTPContentSuggestionsEnabledE = external constant [0 x i8], align 1
@_ZN4feed5prefs15kEnableSnippetsE = external constant [0 x i8], align 1
@_ZN6policy3key18kEnableMediaRouterE = external constant [0 x i8], align 1
@_ZN5prefs18kEnableMediaRouterE = external constant [0 x i8], align 1
@_ZN6policy3key19kWebRtcUdpPortRangeE = external constant [0 x i8], align 1
@_ZN5prefs19kWebRTCUDPPortRangeE = external constant [0 x i8], align 1
@_ZN6policy3key29kTaskManagerEndProcessEnabledE = external constant [0 x i8], align 1
@_ZN5prefs29kTaskManagerEndProcessEnabledE = external constant [0 x i8], align 1
@_ZN6policy3key29kRoamingProfileSupportEnabledE = external constant [0 x i8], align 1
@_ZN6syncer5prefs23kEnableLocalSyncBackendE = external constant [0 x i8], align 1
@_ZN6policy3key33kBrowserNetworkTimeQueriesEnabledE = external constant [0 x i8], align 1
@_ZN12network_time5prefs26kNetworkTimeQueriesEnabledE = external constant [0 x i8], align 1
@_ZN6policy3key15kIsolateOriginsE = external constant [0 x i8], align 1
@_ZN5prefs15kIsolateOriginsE = external constant [0 x i8], align 1
@_ZN6policy3key15kSitePerProcessE = external constant [0 x i8], align 1
@_ZN5prefs15kSitePerProcessE = external constant [0 x i8], align 1
@_ZN6policy3key43kSharedArrayBufferUnrestrictedAccessAllowedE = external constant [0 x i8], align 1
@_ZN5prefs43kSharedArrayBufferUnrestrictedAccessAllowedE = external constant [0 x i8], align 1
@_ZN6policy3key22kIsolateOriginsAndroidE = external constant [0 x i8], align 1
@_ZN6policy3key22kSitePerProcessAndroidE = external constant [0 x i8], align 1
@_ZN6policy3key37kAbusiveExperienceInterventionEnforceE = external constant [0 x i8], align 1
@_ZN15blocked_content5prefs37kAbusiveExperienceInterventionEnforceE = external constant [0 x i8], align 1
@_ZN6policy3key26kDefaultWebUsbGuardSettingE = external constant [0 x i8], align 1
@_ZN5prefs33kManagedDefaultWebUsbGuardSettingE = external constant [0 x i8], align 1
@_ZN6policy3key17kWebUsbAskForUrlsE = external constant [0 x i8], align 1
@_ZN5prefs24kManagedWebUsbAskForUrlsE = external constant [0 x i8], align 1
@_ZN6policy3key21kWebUsbBlockedForUrlsE = external constant [0 x i8], align 1
@_ZN5prefs28kManagedWebUsbBlockedForUrlsE = external constant [0 x i8], align 1
@_ZN6policy3key26kDefaultSerialGuardSettingE = external constant [0 x i8], align 1
@_ZN5prefs33kManagedDefaultSerialGuardSettingE = external constant [0 x i8], align 1
@_ZN6policy3key17kSerialAskForUrlsE = external constant [0 x i8], align 1
@_ZN5prefs24kManagedSerialAskForUrlsE = external constant [0 x i8], align 1
@_ZN6policy3key21kSerialBlockedForUrlsE = external constant [0 x i8], align 1
@_ZN5prefs28kManagedSerialBlockedForUrlsE = external constant [0 x i8], align 1
@_ZN6policy3key27kSerialAllowAllPortsForUrlsE = external constant [0 x i8], align 1
@_ZN5prefs34kManagedSerialAllowAllPortsForUrlsE = external constant [0 x i8], align 1
@_ZN6policy3key32kDefaultFileHandlingGuardSettingE = external constant [0 x i8], align 1
@_ZN5prefs39kManagedDefaultFileHandlingGuardSettingE = external constant [0 x i8], align 1
@_ZN6policy3key27kFileHandlingAllowedForUrlsE = external constant [0 x i8], align 1
@_ZN5prefs34kManagedFileHandlingAllowedForUrlsE = external constant [0 x i8], align 1
@_ZN6policy3key27kFileHandlingBlockedForUrlsE = external constant [0 x i8], align 1
@_ZN5prefs34kManagedFileHandlingBlockedForUrlsE = external constant [0 x i8], align 1
@_ZN6policy3key34kDefaultFileSystemReadGuardSettingE = external constant [0 x i8], align 1
@_ZN5prefs41kManagedDefaultFileSystemReadGuardSettingE = external constant [0 x i8], align 1
@_ZN6policy3key25kFileSystemReadAskForUrlsE = external constant [0 x i8], align 1
@_ZN5prefs32kManagedFileSystemReadAskForUrlsE = external constant [0 x i8], align 1
@_ZN6policy3key29kFileSystemReadBlockedForUrlsE = external constant [0 x i8], align 1
@_ZN5prefs36kManagedFileSystemReadBlockedForUrlsE = external constant [0 x i8], align 1
@_ZN6policy3key35kDefaultFileSystemWriteGuardSettingE = external constant [0 x i8], align 1
@_ZN5prefs42kManagedDefaultFileSystemWriteGuardSettingE = external constant [0 x i8], align 1
@_ZN6policy3key26kFileSystemWriteAskForUrlsE = external constant [0 x i8], align 1
@_ZN5prefs33kManagedFileSystemWriteAskForUrlsE = external constant [0 x i8], align 1
@_ZN6policy3key30kFileSystemWriteBlockedForUrlsE = external constant [0 x i8], align 1
@_ZN5prefs37kManagedFileSystemWriteBlockedForUrlsE = external constant [0 x i8], align 1
@_ZN6policy3key19kTabFreezingEnabledE = external constant [0 x i8], align 1
@_ZN5prefs19kTabFreezingEnabledE = external constant [0 x i8], align 1
@_ZN6policy3key52kCoalesceH2ConnectionsWithClientCertificatesForHostsE = external constant [0 x i8], align 1
@_ZN5prefs28kH2ClientCertCoalescingHostsE = external constant [0 x i8], align 1
@_ZN6policy3key37kEnterpriseHardwarePlatformAPIEnabledE = external constant [0 x i8], align 1
@_ZN5prefs37kEnterpriseHardwarePlatformAPIEnabledE = external constant [0 x i8], align 1
@_ZN6policy3key26kSignedHTTPExchangeEnabledE = external constant [0 x i8], align 1
@_ZN5prefs26kSignedHTTPExchangeEnabledE = external constant [0 x i8], align 1
@_ZN6policy3key20kUserFeedbackAllowedE = external constant [0 x i8], align 1
@_ZN5prefs20kUserFeedbackAllowedE = external constant [0 x i8], align 1
@_ZN6policy3key28kAllowSyncXHRInPageDismissalE = external constant [0 x i8], align 1
@_ZN5prefs28kAllowSyncXHRInPageDismissalE = external constant [0 x i8], align 1
@_ZN6policy3key45kExternalProtocolDialogShowAlwaysOpenCheckboxE = external constant [0 x i8], align 1
@_ZN5prefs45kExternalProtocolDialogShowAlwaysOpenCheckboxE = external constant [0 x i8], align 1
@_ZN6policy3key29kPasswordLeakDetectionEnabledE = external constant [0 x i8], align 1
@_ZN16password_manager5prefs29kPasswordLeakDetectionEnabledE = external constant [0 x i8], align 1
@_ZN6policy3key19kTotalMemoryLimitMbE = external constant [0 x i8], align 1
@_ZN5prefs19kTotalMemoryLimitMbE = external constant [0 x i8], align 1
@_ZN6policy3key20kPrinterTypeDenyListE = external constant [0 x i8], align 1
@_ZN5prefs20kPrinterTypeDenyListE = external constant [0 x i8], align 1
@_ZN6policy3key26kPaymentMethodQueryEnabledE = external constant [0 x i8], align 1
@_ZN8payments22kCanMakePaymentEnabledE = external constant [0 x i8], align 1
@_ZN6policy3key29kDNSInterceptionChecksEnabledE = external constant [0 x i8], align 1
@_ZN5prefs29kDNSInterceptionChecksEnabledE = external constant [0 x i8], align 1
@_ZN6policy3key25kIntranetRedirectBehaviorE = external constant [0 x i8], align 1
@_ZN7omnibox25kIntranetRedirectBehaviorE = external constant [0 x i8], align 1
@_ZN6policy3key26kAdvancedProtectionAllowedE = external constant [0 x i8], align 1
@_ZN5prefs26kAdvancedProtectionAllowedE = external constant [0 x i8], align 1
@_ZN6policy3key32kAccessibilityImageLabelsEnabledE = external constant [0 x i8], align 1
@_ZN5prefs32kAccessibilityImageLabelsEnabledE = external constant [0 x i8], align 1
@_ZN6policy3key46kDefaultSearchProviderContextMenuAccessAllowedE = external constant [0 x i8], align 1
@_ZN5prefs46kDefaultSearchProviderContextMenuAccessAllowedE = external constant [0 x i8], align 1
@_ZN6policy3key19kBrowserLabsEnabledE = external constant [0 x i8], align 1
@_ZN17chrome_labs_prefs19kBrowserLabsEnabledE = external constant [0 x i8], align 1
@_ZN6policy3key16kForcedLanguagesE = external constant [0 x i8], align 1
@_ZN8language5prefs16kForcedLanguagesE = external constant [0 x i8], align 1
@_ZN6policy3key30kDefaultInsecureContentSettingE = external constant [0 x i8], align 1
@_ZN5prefs37kManagedDefaultInsecureContentSettingE = external constant [0 x i8], align 1
@_ZN6policy3key30kInsecureContentAllowedForUrlsE = external constant [0 x i8], align 1
@_ZN5prefs37kManagedInsecureContentAllowedForUrlsE = external constant [0 x i8], align 1
@_ZN6policy3key30kInsecureContentBlockedForUrlsE = external constant [0 x i8], align 1
@_ZN5prefs37kManagedInsecureContentBlockedForUrlsE = external constant [0 x i8], align 1
@_ZN6policy3key22kShowCastIconInToolbarE = external constant [0 x i8], align 1
@_ZN5prefs22kShowCastIconInToolbarE = external constant [0 x i8], align 1
@_ZN6policy3key27kMediaRouterCastAllowAllIPsE = external constant [0 x i8], align 1
@_ZN12media_router5prefsL27kMediaRouterCastAllowAllIPsE = internal constant [32 x i8] c"media_router.cast_allow_all_ips\00", align 16
@_ZN6policy3key26kWebRtcLocalIpsAllowedUrlsE = external constant [0 x i8], align 1
@_ZN5prefs26kWebRtcLocalIpsAllowedUrlsE = external constant [0 x i8], align 1
@_ZN6policy3key32kWebRtcEventLogCollectionAllowedE = external constant [0 x i8], align 1
@_ZN5prefs32kWebRtcEventLogCollectionAllowedE = external constant [0 x i8], align 1
@_ZN6policy3key29kSuppressUnsupportedOSWarningE = external constant [0 x i8], align 1
@_ZN5prefs29kSuppressUnsupportedOSWarningE = external constant [0 x i8], align 1
@_ZN6policy3key21kRelaunchNotificationE = external constant [0 x i8], align 1
@_ZN5prefs21kRelaunchNotificationE = external constant [0 x i8], align 1
@_ZN6policy3key27kRelaunchNotificationPeriodE = external constant [0 x i8], align 1
@_ZN5prefs27kRelaunchNotificationPeriodE = external constant [0 x i8], align 1
@_ZN6policy3key16kAutoplayAllowedE = external constant [0 x i8], align 1
@_ZN5prefs16kAutoplayAllowedE = external constant [0 x i8], align 1
@_ZN6policy3key25kBrowserGuestModeEnforcedE = external constant [0 x i8], align 1
@_ZN5prefs25kBrowserGuestModeEnforcedE = external constant [0 x i8], align 1
@_ZN6policy3key30kWebRtcAllowLegacyTLSProtocolsE = external constant [0 x i8], align 1
@_ZN5prefs30kWebRTCAllowLegacyTLSProtocolsE = external constant [0 x i8], align 1
@_ZN6policy3key16kNTPCardsVisibleE = external constant [0 x i8], align 1
@_ZN5prefs18kNtpModulesVisibleE = external constant [0 x i8], align 1
@_ZN6policy3key24kMetricsReportingEnabledE = external constant [0 x i8], align 1
@_ZN7metrics5prefs24kMetricsReportingEnabledE = external constant [0 x i8], align 1
@_ZN6policy3key14kNtlmV2EnabledE = external constant [0 x i8], align 1
@_ZN5prefs14kNtlmV2EnabledE = external constant [0 x i8], align 1
@_ZN6policy3key30kNativeMessagingUserLevelHostsE = external constant [0 x i8], align 1
@_ZN10extensions10pref_names30kNativeMessagingUserLevelHostsE = external constant [0 x i8], align 1
@_ZN6policy3key24kBrowserAddPersonEnabledE = external constant [0 x i8], align 1
@_ZN5prefs24kBrowserAddPersonEnabledE = external constant [0 x i8], align 1
@_ZN6policy3key36kPrintPreviewUseSystemDefaultPrinterE = external constant [0 x i8], align 1
@_ZN5prefs36kPrintPreviewUseSystemDefaultPrinterE = external constant [0 x i8], align 1
@_ZN6policy3key35kCloudPolicyOverridesPlatformPolicyE = external constant [0 x i8], align 1
@_ZN6policy12policy_prefs35kCloudPolicyOverridesPlatformPolicyE = external constant [0 x i8], align 1
@_ZN6policy3key31kUserDataSnapshotRetentionLimitE = external constant [0 x i8], align 1
@_ZN5prefs31kUserDataSnapshotRetentionLimitE = external constant [0 x i8], align 1
@_ZN6policy3key23kPromotionalTabsEnabledE = external constant [0 x i8], align 1
@_ZN5prefs23kPromotionalTabsEnabledE = external constant [0 x i8], align 1
@_ZN6policy3key39kCommandLineFlagSecurityWarningsEnabledE = external constant [0 x i8], align 1
@_ZN5prefs39kCommandLineFlagSecurityWarningsEnabledE = external constant [0 x i8], align 1
@_ZN6policy3key23kAlternativeBrowserPathE = external constant [0 x i8], align 1
@_ZN16browser_switcher5prefs23kAlternativeBrowserPathE = external constant [0 x i8], align 1
@_ZN6policy3key29kAlternativeBrowserParametersE = external constant [0 x i8], align 1
@_ZN16browser_switcher5prefs29kAlternativeBrowserParametersE = external constant [0 x i8], align 1
@_ZN6policy3key23kBrowserSwitcherUrlListE = external constant [0 x i8], align 1
@_ZN16browser_switcher5prefs8kUrlListE = external constant [0 x i8], align 1
@_ZN6policy3key27kBrowserSwitcherUrlGreylistE = external constant [0 x i8], align 1
@_ZN16browser_switcher5prefs12kUrlGreylistE = external constant [0 x i8], align 1
@_ZN6policy3key35kBrowserSwitcherExternalSitelistUrlE = external constant [0 x i8], align 1
@_ZN16browser_switcher5prefs20kExternalSitelistUrlE = external constant [0 x i8], align 1
@_ZN6policy3key35kBrowserSwitcherExternalGreylistUrlE = external constant [0 x i8], align 1
@_ZN16browser_switcher5prefs20kExternalGreylistUrlE = external constant [0 x i8], align 1
@_ZN6policy3key23kBrowserSwitcherEnabledE = external constant [0 x i8], align 1
@_ZN16browser_switcher5prefs8kEnabledE = external constant [0 x i8], align 1
@_ZN6policy3key33kBrowserSwitcherKeepLastChromeTabE = external constant [0 x i8], align 1
@_ZN16browser_switcher5prefs12kKeepLastTabE = external constant [0 x i8], align 1
@_ZN6policy3key21kBrowserSwitcherDelayE = external constant [0 x i8], align 1
@_ZN16browser_switcher5prefs6kDelayE = external constant [0 x i8], align 1
@_ZN6policy3key17kChromeVariationsE = external constant [0 x i8], align 1
@_ZN10variations5prefs31kVariationsRestrictionsByPolicyE = external constant [0 x i8], align 1
@_ZN6policy3key26kSigninInterceptionEnabledE = external constant [0 x i8], align 1
@_ZN5prefs26kSigninInterceptionEnabledE = external constant [0 x i8], align 1
@_ZN6policy3key31kLacrosSecondaryProfilesAllowedE = external constant [0 x i8], align 1
@_ZN5prefs31kLacrosSecondaryProfilesAllowedE = external constant [0 x i8], align 1
@_ZN6policy3key22kBackgroundModeEnabledE = external constant [0 x i8], align 1
@_ZN5prefs22kBackgroundModeEnabledE = external constant [0 x i8], align 1
@_ZN6policy3key33kAuthNegotiateDelegateByKdcPolicyE = external constant [0 x i8], align 1
@_ZN5prefs33kAuthNegotiateDelegateByKdcPolicyE = external constant [0 x i8], align 1
@_ZN6policy3key18kFullscreenAllowedE = external constant [0 x i8], align 1
@_ZN5prefs18kFullscreenAllowedE = external constant [0 x i8], align 1
@_ZN10extensions10pref_names21kAppFullscreenAllowedE = external constant [0 x i8], align 1
@_ZN6policy3key29kSecurityKeyPermitAttestationE = external constant [0 x i8], align 1
@_ZN5prefs29kSecurityKeyPermitAttestationE = external constant [0 x i8], align 1
@_ZN6policy3key24kBlockExternalExtensionsE = external constant [0 x i8], align 1
@_ZN10extensions10pref_names24kBlockExternalExtensionsE = external constant [0 x i8], align 1
@_ZN6policy3key19kClickToCallEnabledE = external constant [0 x i8], align 1
@_ZN5prefs19kClickToCallEnabledE = external constant [0 x i8], align 1
@_ZN6policy3key25kSpellCheckServiceEnabledE = external constant [0 x i8], align 1
@_ZN10spellcheck5prefs29kSpellCheckUseSpellingServiceE = external constant [0 x i8], align 1
@_ZN6policy3key28kScrollToTextFragmentEnabledE = external constant [0 x i8], align 1
@_ZN5prefs28kScrollToTextFragmentEnabledE = external constant [0 x i8], align 1
@_ZN6policy3key21kAppCacheForceEnabledE = external constant [0 x i8], align 1
@_ZN5prefs21kAppCacheForceEnabledE = external constant [0 x i8], align 1
@_ZN6policy3key33kIntensiveWakeUpThrottlingEnabledE = external constant [0 x i8], align 1
@_ZN6policy12policy_prefs33kIntensiveWakeUpThrottlingEnabledE = external constant [0 x i8], align 1
@_ZN6policy3key28kUserAgentClientHintsEnabledE = external constant [0 x i8], align 1
@_ZN6policy12policy_prefs28kUserAgentClientHintsEnabledE = external constant [0 x i8], align 1
@_ZN6policy3key25kShowFullUrlsInAddressBarE = external constant [0 x i8], align 1
@_ZN7omnibox28kPreventUrlElisionsInOmniboxE = external constant [0 x i8], align 1
@_ZN6policy3key29kInsecureFormsWarningsEnabledE = external constant [0 x i8], align 1
@_ZN5prefs26kMixedFormsWarningsEnabledE = external constant [0 x i8], align 1
@_ZN6policy3key28kLockIconInAddressBarEnabledE = external constant [0 x i8], align 1
@_ZN7omnibox28kLockIconInAddressBarEnabledE = external constant [0 x i8], align 1
@_ZN6policy3key33kLookalikeWarningAllowlistDomainsE = external constant [0 x i8], align 1
@_ZN5prefs33kLookalikeWarningAllowlistDomainsE = external constant [0 x i8], align 1
@_ZN6policy3key27kTargetBlankImpliesNoOpenerE = external constant [0 x i8], align 1
@_ZN6policy12policy_prefs27kTargetBlankImpliesNoOpenerE = external constant [0 x i8], align 1
@_ZN6policy3key40kFetchKeepaliveDurationSecondsOnShutdownE = external constant [0 x i8], align 1
@_ZN5prefs33kFetchKeepaliveDurationOnShutdownE = external constant [0 x i8], align 1
@_ZN6policy3key39kSuppressDifferentOriginSubframeDialogsE = external constant [0 x i8], align 1
@_ZN5prefs41kSuppressDifferentOriginSubframeJSDialogsE = external constant [0 x i8], align 1
@_ZN6policy3key17kWebRtcIPHandlingE = external constant [0 x i8], align 1
@_ZN5prefs23kWebRTCIPHandlingPolicyE = external constant [0 x i8], align 1
@_ZN10extensions16schema_constants20kAllowedTypesMapSizeE = external local_unnamed_addr constant i64, align 8
@_ZN10extensions16schema_constants16kAllowedTypesMapE = external local_unnamed_addr global [0 x %"struct.extensions::schema_constants::AllowedTypesMapEntry"], align 8
@_ZTVN13safe_browsing25SafeBrowsingPolicyHandlerE = external unnamed_addr constant { [8 x i8*] }, align 8

; Function Attrs: norecurse nounwind readnone ssp uwtable
define hidden void @_ZN6policy31PopulatePolicyHandlerParametersEPNS_23PolicyHandlerParametersE(%"struct.policy::PolicyHandlerParameters"* nocapture) #0 {
  ret void
}

; Function Attrs: nounwind ssp uwtable
define hidden %"class.policy::ConfigurationPolicyHandlerList"* @_ZN6policy16BuildHandlerListERKNS_6SchemaE(%"class.policy::Schema"* dereferenceable(16)) local_unnamed_addr #1 {
  %2 = alloca %"class.policy::Schema", align 8
  %3 = alloca %"class.policy::Schema", align 8
  %4 = alloca %"class.policy::Schema", align 8
  %5 = alloca %"class.policy::Schema", align 8
  %6 = alloca %"class.std::__1::vector", align 16
  %7 = alloca %"class.policy::Schema", align 8
  %8 = alloca %"class.policy::Schema", align 8
  %9 = alloca %"class.std::__1::vector", align 16
  %10 = alloca %"class.policy::Schema", align 8
  %11 = alloca %"class.policy::Schema", align 8
  %12 = alloca %"class.policy::Schema", align 8
  %13 = alloca %"class.policy::Schema", align 8
  %14 = alloca %"class.policy::Schema", align 8
  %15 = alloca %"class.policy::Schema", align 8
  %16 = alloca %"class.policy::Schema", align 8
  %17 = alloca %"class.policy::Schema", align 8
  %18 = alloca %"class.policy::Schema", align 8
  %19 = alloca %"class.policy::Schema", align 8
  %20 = alloca %"class.policy::Schema", align 8
  %21 = alloca %"class.policy::Schema", align 8
  %22 = alloca %"class.policy::Schema", align 8
  %23 = alloca %"class.policy::Schema", align 8
  %24 = alloca %"class.policy::Schema", align 8
  %25 = alloca %"class.policy::Schema", align 8
  %26 = alloca %"class.policy::Schema", align 8
  %27 = alloca %"class.policy::Schema", align 8
  %28 = alloca %"class.policy::Schema", align 8
  %29 = alloca %"class.policy::Schema", align 8
  %30 = alloca %"class.policy::Schema", align 8
  %31 = alloca %"class.policy::Schema", align 8
  %32 = alloca %"class.base::RepeatingCallback", align 8
  %33 = alloca %"class.base::RepeatingCallback.13", align 8
  %34 = alloca %"class.policy::Schema", align 8
  %35 = alloca %"class.policy::Schema", align 8
  %36 = alloca %"class.std::__1::vector", align 16
  %37 = alloca %"class.std::__1::unique_ptr.3", align 8
  %38 = alloca %"class.std::__1::unique_ptr.3", align 8
  %39 = alloca %"class.std::__1::vector", align 16
  %40 = alloca %"class.std::__1::unique_ptr.3", align 8
  %41 = alloca %"class.base::RepeatingCallback.327", align 8
  %42 = tail call i8* @_Znwm(i64 48) #10
  %43 = bitcast i8* %42 to %"class.policy::ConfigurationPolicyHandlerList"*
  %44 = bitcast %"class.base::RepeatingCallback"* %32 to i8*
  call void @llvm.lifetime.start.p0i8(i64 8, i8* nonnull %44) #11
  %45 = tail call i8* @_Znwm(i64 48) #10, !noalias !2
  %46 = bitcast i8* %45 to %"class.base::internal::BindStateBase"*
  tail call void @_ZN4base8internal13BindStateBaseC2EPFvvEPFvPKS1_E(%"class.base::internal::BindStateBase"* nonnull %46, void ()* bitcast (void (%"class.base::internal::BindStateBase"*, %"struct.policy::PolicyHandlerParameters"*)* @_ZN4base8internal7InvokerINS0_9BindStateIPFvPN6policy23PolicyHandlerParametersEEJEEES6_E3RunEPNS0_13BindStateBaseES5_ to void ()*), void (%"class.base::internal::BindStateBase"*)* nonnull @_ZN4base8internal9BindStateIPFvPN6policy23PolicyHandlerParametersEEJEE7DestroyEPKNS0_13BindStateBaseE) #11, !noalias !2
  %47 = getelementptr inbounds i8, i8* %45, i64 32
  %48 = bitcast i8* %47 to i64*
  store i64 ptrtoint (void (%"struct.policy::PolicyHandlerParameters"*)* @_ZN6policy31PopulatePolicyHandlerParametersEPNS_23PolicyHandlerParametersE to i64), i64* %48, align 8, !noalias !2
  %49 = bitcast %"class.base::RepeatingCallback"* %32 to i8**
  store i8* %45, i8** %49, align 8, !alias.scope !2
  %50 = bitcast %"class.base::RepeatingCallback.13"* %33 to i8*
  call void @llvm.lifetime.start.p0i8(i64 8, i8* nonnull %50) #11
  %51 = tail call i8* @_Znwm(i64 48) #10, !noalias !7
  %52 = bitcast i8* %51 to %"class.base::internal::BindStateBase"*
  tail call void @_ZN4base8internal13BindStateBaseC2EPFvvEPFvPKS1_E(%"class.base::internal::BindStateBase"* nonnull %52, void ()* bitcast (%"struct.policy::PolicyDetails"* (%"class.base::internal::BindStateBase"*, %"class.std::__1::basic_string"*)* @_ZN4base8internal7InvokerINS0_9BindStateIPFPKN6policy13PolicyDetailsERKNSt3__112basic_stringIcNS7_11char_traitsIcEENS7_9allocatorIcEEEEEJEEESG_E3RunEPNS0_13BindStateBaseESF_ to void ()*), void (%"class.base::internal::BindStateBase"*)* nonnull @_ZN4base8internal9BindStateIPFPKN6policy13PolicyDetailsERKNSt3__112basic_stringIcNS6_11char_traitsIcEENS6_9allocatorIcEEEEEJEE7DestroyEPKNS0_13BindStateBaseE) #11, !noalias !7
  %53 = getelementptr inbounds i8, i8* %51, i64 32
  %54 = bitcast i8* %53 to i64*
  store i64 ptrtoint (%"struct.policy::PolicyDetails"* (%"class.std::__1::basic_string"*)* @_ZN6policy22GetChromePolicyDetailsERKNSt3__112basic_stringIcNS0_11char_traitsIcEENS0_9allocatorIcEEEE to i64), i64* %54, align 8, !noalias !7
  %55 = bitcast %"class.base::RepeatingCallback.13"* %33 to i8**
  store i8* %51, i8** %55, align 8, !alias.scope !7
  %56 = tail call %"class.base::CommandLine"* @_ZN4base11CommandLine17ForCurrentProcessEv() #11
  %57 = tail call zeroext i1 @_ZNK4base11CommandLine9HasSwitchEPKc(%"class.base::CommandLine"* %56, i8* getelementptr inbounds ([0 x i8], [0 x i8]* @_ZN8switches9kTestTypeE, i64 0, i64 0)) #11
  br i1 %57, label %62, label %58

58:                                               ; preds = %1
  %59 = tail call i32 @_ZN6chrome10GetChannelEv() #11
  %60 = add i32 %59, -3
  %61 = icmp ugt i32 %60, 1
  br label %62

62:                                               ; preds = %1, %58
  %63 = phi i1 [ %61, %58 ], [ true, %1 ]
  call void @_ZN6policy30ConfigurationPolicyHandlerListC1ERKN4base17RepeatingCallbackIFvPNS_23PolicyHandlerParametersEEEERKNS2_IFPKNS_13PolicyDetailsERKNSt3__112basic_stringIcNSC_11char_traitsIcEENSC_9allocatorIcEEEEEEEb(%"class.policy::ConfigurationPolicyHandlerList"* nonnull %43, %"class.base::RepeatingCallback"* nonnull dereferenceable(8) %32, %"class.base::RepeatingCallback.13"* nonnull dereferenceable(8) %33, i1 zeroext %63) #11
  %64 = getelementptr inbounds %"class.base::RepeatingCallback.13", %"class.base::RepeatingCallback.13"* %33, i64 0, i32 0, i32 0
  call void @_ZN4base8internal12CallbackBaseD2Ev(%"class.base::internal::CallbackBase"* nonnull %64) #11
  call void @llvm.lifetime.end.p0i8(i64 8, i8* nonnull %50) #11
  %65 = getelementptr inbounds %"class.base::RepeatingCallback", %"class.base::RepeatingCallback"* %32, i64 0, i32 0, i32 0
  call void @_ZN4base8internal12CallbackBaseD2Ev(%"class.base::internal::CallbackBase"* nonnull %65) #11
  call void @llvm.lifetime.end.p0i8(i64 8, i8* nonnull %44) #11
  br label %574

66:                                               ; preds = %574
  %67 = call i8* @_Znwm(i64 24) #10
  %68 = bitcast i8* %67 to %"class.autofill::AutofillAddressPolicyHandler"*
  call void @_ZN8autofill28AutofillAddressPolicyHandlerC1Ev(%"class.autofill::AutofillAddressPolicyHandler"* nonnull %68) #11
  %69 = bitcast i8* %67 to %"class.policy::ConfigurationPolicyHandler"*
  call void @_ZN6policy30ConfigurationPolicyHandlerList10AddHandlerENSt3__110unique_ptrINS_26ConfigurationPolicyHandlerENS1_14default_deleteIS3_EEEE(%"class.policy::ConfigurationPolicyHandlerList"* nonnull %43, %"class.policy::ConfigurationPolicyHandler"* nonnull %69) #11
  %70 = call i8* @_Znwm(i64 24) #10
  %71 = bitcast i8* %70 to %"class.autofill::AutofillCreditCardPolicyHandler"*
  call void @_ZN8autofill31AutofillCreditCardPolicyHandlerC1Ev(%"class.autofill::AutofillCreditCardPolicyHandler"* nonnull %71) #11
  %72 = bitcast i8* %70 to %"class.policy::ConfigurationPolicyHandler"*
  call void @_ZN6policy30ConfigurationPolicyHandlerList10AddHandlerENSt3__110unique_ptrINS_26ConfigurationPolicyHandlerENS1_14default_deleteIS3_EEEE(%"class.policy::ConfigurationPolicyHandlerList"* nonnull %43, %"class.policy::ConfigurationPolicyHandler"* nonnull %72) #11
  %73 = call i8* @_Znwm(i64 24) #10
  %74 = bitcast i8* %73 to %"class.autofill::AutofillPolicyHandler"*
  call void @_ZN8autofill21AutofillPolicyHandlerC1Ev(%"class.autofill::AutofillPolicyHandler"* nonnull %74) #11
  %75 = bitcast i8* %73 to %"class.policy::ConfigurationPolicyHandler"*
  call void @_ZN6policy30ConfigurationPolicyHandlerList10AddHandlerENSt3__110unique_ptrINS_26ConfigurationPolicyHandlerENS1_14default_deleteIS3_EEEE(%"class.policy::ConfigurationPolicyHandlerList"* nonnull %43, %"class.policy::ConfigurationPolicyHandler"* nonnull %75) #11
  %76 = call i8* @_Znwm(i64 24) #10
  %77 = bitcast i8* %76 to %"class.content_settings::CookieSettingsPolicyHandler"*
  call void @_ZN16content_settings27CookieSettingsPolicyHandlerC1Ev(%"class.content_settings::CookieSettingsPolicyHandler"* nonnull %77) #11
  %78 = bitcast i8* %76 to %"class.policy::ConfigurationPolicyHandler"*
  call void @_ZN6policy30ConfigurationPolicyHandlerList10AddHandlerENSt3__110unique_ptrINS_26ConfigurationPolicyHandlerENS1_14default_deleteIS3_EEEE(%"class.policy::ConfigurationPolicyHandlerList"* nonnull %43, %"class.policy::ConfigurationPolicyHandler"* nonnull %78) #11
  %79 = call i8* @_Znwm(i64 24) #10
  %80 = bitcast i8* %79 to %"class.content_settings::InsecurePrivateNetworkPolicyHandler"*
  call void @_ZN16content_settings35InsecurePrivateNetworkPolicyHandlerC1Ev(%"class.content_settings::InsecurePrivateNetworkPolicyHandler"* nonnull %80) #11
  %81 = bitcast i8* %79 to %"class.policy::ConfigurationPolicyHandler"*
  call void @_ZN6policy30ConfigurationPolicyHandlerList10AddHandlerENSt3__110unique_ptrINS_26ConfigurationPolicyHandlerENS1_14default_deleteIS3_EEEE(%"class.policy::ConfigurationPolicyHandlerList"* nonnull %43, %"class.policy::ConfigurationPolicyHandler"* nonnull %81) #11
  %82 = call i8* @_Znwm(i64 8) #10
  %83 = bitcast i8* %82 to %"class.policy::DefaultSearchPolicyHandler"*
  call void @_ZN6policy26DefaultSearchPolicyHandlerC1Ev(%"class.policy::DefaultSearchPolicyHandler"* nonnull %83) #11
  %84 = bitcast i8* %82 to %"class.policy::ConfigurationPolicyHandler"*
  call void @_ZN6policy30ConfigurationPolicyHandlerList10AddHandlerENSt3__110unique_ptrINS_26ConfigurationPolicyHandlerENS1_14default_deleteIS3_EEEE(%"class.policy::ConfigurationPolicyHandlerList"* nonnull %43, %"class.policy::ConfigurationPolicyHandler"* nonnull %84) #11
  %85 = call i8* @_Znwm(i64 24) #10
  %86 = bitcast i8* %85 to %"class.policy::ForceSafeSearchPolicyHandler"*
  call void @_ZN6policy28ForceSafeSearchPolicyHandlerC1Ev(%"class.policy::ForceSafeSearchPolicyHandler"* nonnull %86) #11
  %87 = bitcast i8* %85 to %"class.policy::ConfigurationPolicyHandler"*
  call void @_ZN6policy30ConfigurationPolicyHandlerList10AddHandlerENSt3__110unique_ptrINS_26ConfigurationPolicyHandlerENS1_14default_deleteIS3_EEEE(%"class.policy::ConfigurationPolicyHandlerList"* nonnull %43, %"class.policy::ConfigurationPolicyHandler"* nonnull %87) #11
  %88 = call i8* @_Znwm(i64 24) #10
  %89 = bitcast i8* %88 to %"class.policy::ForceYouTubeSafetyModePolicyHandler"*
  call void @_ZN6policy35ForceYouTubeSafetyModePolicyHandlerC1Ev(%"class.policy::ForceYouTubeSafetyModePolicyHandler"* nonnull %89) #11
  %90 = bitcast i8* %88 to %"class.policy::ConfigurationPolicyHandler"*
  call void @_ZN6policy30ConfigurationPolicyHandlerList10AddHandlerENSt3__110unique_ptrINS_26ConfigurationPolicyHandlerENS1_14default_deleteIS3_EEEE(%"class.policy::ConfigurationPolicyHandlerList"* nonnull %43, %"class.policy::ConfigurationPolicyHandler"* nonnull %90) #11
  %91 = call i8* @_Znwm(i64 8) #10
  %92 = bitcast i8* %91 to %"class.policy::IncognitoModePolicyHandler"*
  call void @_ZN6policy26IncognitoModePolicyHandlerC1Ev(%"class.policy::IncognitoModePolicyHandler"* nonnull %92) #11
  %93 = bitcast i8* %91 to %"class.policy::ConfigurationPolicyHandler"*
  call void @_ZN6policy30ConfigurationPolicyHandlerList10AddHandlerENSt3__110unique_ptrINS_26ConfigurationPolicyHandlerENS1_14default_deleteIS3_EEEE(%"class.policy::ConfigurationPolicyHandlerList"* nonnull %43, %"class.policy::ConfigurationPolicyHandler"* nonnull %93) #11
  %94 = call i8* @_Znwm(i64 24) #10
  %95 = bitcast i8* %94 to %"class.policy::GuestModePolicyHandler"*
  call void @_ZN6policy22GuestModePolicyHandlerC1Ev(%"class.policy::GuestModePolicyHandler"* nonnull %95) #11
  %96 = bitcast i8* %94 to %"class.policy::ConfigurationPolicyHandler"*
  call void @_ZN6policy30ConfigurationPolicyHandlerList10AddHandlerENSt3__110unique_ptrINS_26ConfigurationPolicyHandlerENS1_14default_deleteIS3_EEEE(%"class.policy::ConfigurationPolicyHandlerList"* nonnull %43, %"class.policy::ConfigurationPolicyHandler"* nonnull %96) #11
  %97 = bitcast %"class.policy::Schema"* %31 to i8*
  call void @llvm.lifetime.start.p0i8(i64 16, i8* nonnull %97)
  %98 = call i8* @_Znwm(i64 40) #10
  %99 = bitcast i8* %98 to %"class.bookmarks::ManagedBookmarksPolicyHandler"*
  call void @_ZN6policy6SchemaC1ERKS0_(%"class.policy::Schema"* nonnull %31, %"class.policy::Schema"* dereferenceable(16) %0) #11
  call void @_ZN9bookmarks29ManagedBookmarksPolicyHandlerC1EN6policy6SchemaE(%"class.bookmarks::ManagedBookmarksPolicyHandler"* nonnull %99, %"class.policy::Schema"* nonnull %31) #11
  call void @_ZN6policy6SchemaD1Ev(%"class.policy::Schema"* nonnull %31) #11
  call void @llvm.lifetime.end.p0i8(i64 16, i8* nonnull %97)
  %100 = bitcast i8* %98 to %"class.policy::ConfigurationPolicyHandler"*
  call void @_ZN6policy30ConfigurationPolicyHandlerList10AddHandlerENSt3__110unique_ptrINS_26ConfigurationPolicyHandlerENS1_14default_deleteIS3_EEEE(%"class.policy::ConfigurationPolicyHandlerList"* nonnull %43, %"class.policy::ConfigurationPolicyHandler"* nonnull %100) #11
  %101 = call i8* @_Znwm(i64 24) #10
  %102 = bitcast i8* %101 to %"class.policy::HomepageLocationPolicyHandler"*
  call void @_ZN6policy29HomepageLocationPolicyHandlerC1Ev(%"class.policy::HomepageLocationPolicyHandler"* nonnull %102) #11
  %103 = bitcast i8* %101 to %"class.policy::ConfigurationPolicyHandler"*
  call void @_ZN6policy30ConfigurationPolicyHandlerList10AddHandlerENSt3__110unique_ptrINS_26ConfigurationPolicyHandlerENS1_14default_deleteIS3_EEEE(%"class.policy::ConfigurationPolicyHandlerList"* nonnull %43, %"class.policy::ConfigurationPolicyHandler"* nonnull %103) #11
  %104 = call i8* @_Znwm(i64 8) #10
  %105 = bitcast i8* %104 to %"class.policy::ProxyPolicyHandler"*
  call void @_ZN6policy18ProxyPolicyHandlerC1Ev(%"class.policy::ProxyPolicyHandler"* nonnull %105) #11
  %106 = bitcast i8* %104 to %"class.policy::ConfigurationPolicyHandler"*
  call void @_ZN6policy30ConfigurationPolicyHandlerList10AddHandlerENSt3__110unique_ptrINS_26ConfigurationPolicyHandlerENS1_14default_deleteIS3_EEEE(%"class.policy::ConfigurationPolicyHandlerList"* nonnull %43, %"class.policy::ConfigurationPolicyHandler"* nonnull %106) #11
  %107 = call i8* @_Znwm(i64 8) #10
  %108 = bitcast i8* %107 to %"class.policy::SecureDnsPolicyHandler"*
  call void @_ZN6policy22SecureDnsPolicyHandlerC1Ev(%"class.policy::SecureDnsPolicyHandler"* nonnull %108) #11
  %109 = bitcast i8* %107 to %"class.policy::ConfigurationPolicyHandler"*
  call void @_ZN6policy30ConfigurationPolicyHandlerList10AddHandlerENSt3__110unique_ptrINS_26ConfigurationPolicyHandlerENS1_14default_deleteIS3_EEEE(%"class.policy::ConfigurationPolicyHandlerList"* nonnull %43, %"class.policy::ConfigurationPolicyHandler"* nonnull %109) #11
  %110 = bitcast %"class.policy::Schema"* %30 to i8*
  call void @llvm.lifetime.start.p0i8(i64 16, i8* nonnull %110)
  %111 = call i8* @_Znwm(i64 56) #10
  %112 = bitcast i8* %111 to %"class.policy::SimpleSchemaValidatingPolicyHandler"*
  call void @_ZN6policy6SchemaC1ERKS0_(%"class.policy::Schema"* nonnull %30, %"class.policy::Schema"* dereferenceable(16) %0) #11
  call void @_ZN6policy35SimpleSchemaValidatingPolicyHandlerC1EPKcS2_NS_6SchemaENS_21SchemaOnErrorStrategyENS0_21RecommendedPermissionENS0_19MandatoryPermissionE(%"class.policy::SimpleSchemaValidatingPolicyHandler"* nonnull %112, i8* getelementptr inbounds ([0 x i8], [0 x i8]* @_ZN6policy3key29kSerialAllowUsbDevicesForUrlsE, i64 0, i64 0), i8* getelementptr inbounds ([0 x i8], [0 x i8]* @_ZN5prefs36kManagedSerialAllowUsbDevicesForUrlsE, i64 0, i64 0), %"class.policy::Schema"* nonnull %30, i32 1, i32 1, i32 0) #11
  call void @_ZN6policy6SchemaD1Ev(%"class.policy::Schema"* nonnull %30) #11
  call void @llvm.lifetime.end.p0i8(i64 16, i8* nonnull %110)
  %113 = bitcast i8* %111 to %"class.policy::ConfigurationPolicyHandler"*
  call void @_ZN6policy30ConfigurationPolicyHandlerList10AddHandlerENSt3__110unique_ptrINS_26ConfigurationPolicyHandlerENS1_14default_deleteIS3_EEEE(%"class.policy::ConfigurationPolicyHandlerList"* nonnull %43, %"class.policy::ConfigurationPolicyHandler"* nonnull %113) #11
  %114 = bitcast %"class.policy::Schema"* %29 to i8*
  call void @llvm.lifetime.start.p0i8(i64 16, i8* nonnull %114)
  %115 = call i8* @_Znwm(i64 56) #10
  %116 = bitcast i8* %115 to %class.ManagedAccountRestrictionsPolicyHandler*
  call void @_ZN6policy6SchemaC1ERKS0_(%"class.policy::Schema"* nonnull %29, %"class.policy::Schema"* dereferenceable(16) %0) #11
  call void @_ZN39ManagedAccountRestrictionsPolicyHandlerC1EN6policy6SchemaE(%class.ManagedAccountRestrictionsPolicyHandler* nonnull %116, %"class.policy::Schema"* nonnull %29) #11
  call void @_ZN6policy6SchemaD1Ev(%"class.policy::Schema"* nonnull %29) #11
  call void @llvm.lifetime.end.p0i8(i64 16, i8* nonnull %114)
  %117 = bitcast i8* %115 to %"class.policy::ConfigurationPolicyHandler"*
  call void @_ZN6policy30ConfigurationPolicyHandlerList10AddHandlerENSt3__110unique_ptrINS_26ConfigurationPolicyHandlerENS1_14default_deleteIS3_EEEE(%"class.policy::ConfigurationPolicyHandlerList"* nonnull %43, %"class.policy::ConfigurationPolicyHandler"* nonnull %117) #11
  %118 = bitcast %"class.policy::Schema"* %28 to i8*
  call void @llvm.lifetime.start.p0i8(i64 16, i8* nonnull %118)
  %119 = call i8* @_Znwm(i64 56) #10
  %120 = bitcast i8* %119 to %"class.policy::SimpleSchemaValidatingPolicyHandler"*
  call void @_ZN6policy6SchemaC1ERKS0_(%"class.policy::Schema"* nonnull %28, %"class.policy::Schema"* dereferenceable(16) %0) #11
  call void @_ZN6policy35SimpleSchemaValidatingPolicyHandlerC1EPKcS2_NS_6SchemaENS_21SchemaOnErrorStrategyENS0_21RecommendedPermissionENS0_19MandatoryPermissionE(%"class.policy::SimpleSchemaValidatingPolicyHandler"* nonnull %120, i8* getelementptr inbounds ([0 x i8], [0 x i8]* @_ZN6policy3key50kCertificateTransparencyEnforcementDisabledForUrlsE, i64 0, i64 0), i8* getelementptr inbounds ([0 x i8], [0 x i8]* @_ZN24certificate_transparency5prefs16kCTExcludedHostsE, i64 0, i64 0), %"class.policy::Schema"* nonnull %28, i32 1, i32 1, i32 0) #11
  call void @_ZN6policy6SchemaD1Ev(%"class.policy::Schema"* nonnull %28) #11
  call void @llvm.lifetime.end.p0i8(i64 16, i8* nonnull %118)
  %121 = bitcast i8* %119 to %"class.policy::ConfigurationPolicyHandler"*
  call void @_ZN6policy30ConfigurationPolicyHandlerList10AddHandlerENSt3__110unique_ptrINS_26ConfigurationPolicyHandlerENS1_14default_deleteIS3_EEEE(%"class.policy::ConfigurationPolicyHandlerList"* nonnull %43, %"class.policy::ConfigurationPolicyHandler"* nonnull %121) #11
  %122 = bitcast %"class.policy::Schema"* %27 to i8*
  call void @llvm.lifetime.start.p0i8(i64 16, i8* nonnull %122)
  %123 = call i8* @_Znwm(i64 56) #10
  %124 = bitcast i8* %123 to %"class.policy::SimpleSchemaValidatingPolicyHandler"*
  call void @_ZN6policy6SchemaC1ERKS0_(%"class.policy::Schema"* nonnull %27, %"class.policy::Schema"* dereferenceable(16) %0) #11
  call void @_ZN6policy35SimpleSchemaValidatingPolicyHandlerC1EPKcS2_NS_6SchemaENS_21SchemaOnErrorStrategyENS0_21RecommendedPermissionENS0_19MandatoryPermissionE(%"class.policy::SimpleSchemaValidatingPolicyHandler"* nonnull %124, i8* getelementptr inbounds ([0 x i8], [0 x i8]* @_ZN6policy3key49kCertificateTransparencyEnforcementDisabledForCasE, i64 0, i64 0), i8* getelementptr inbounds ([0 x i8], [0 x i8]* @_ZN24certificate_transparency5prefs16kCTExcludedSPKIsE, i64 0, i64 0), %"class.policy::Schema"* nonnull %27, i32 1, i32 1, i32 0) #11
  call void @_ZN6policy6SchemaD1Ev(%"class.policy::Schema"* nonnull %27) #11
  call void @llvm.lifetime.end.p0i8(i64 16, i8* nonnull %122)
  %125 = bitcast i8* %123 to %"class.policy::ConfigurationPolicyHandler"*
  call void @_ZN6policy30ConfigurationPolicyHandlerList10AddHandlerENSt3__110unique_ptrINS_26ConfigurationPolicyHandlerENS1_14default_deleteIS3_EEEE(%"class.policy::ConfigurationPolicyHandlerList"* nonnull %43, %"class.policy::ConfigurationPolicyHandler"* nonnull %125) #11
  %126 = bitcast %"class.policy::Schema"* %26 to i8*
  call void @llvm.lifetime.start.p0i8(i64 16, i8* nonnull %126)
  %127 = call i8* @_Znwm(i64 56) #10
  %128 = bitcast i8* %127 to %"class.policy::SimpleSchemaValidatingPolicyHandler"*
  call void @_ZN6policy6SchemaC1ERKS0_(%"class.policy::Schema"* nonnull %26, %"class.policy::Schema"* dereferenceable(16) %0) #11
  call void @_ZN6policy35SimpleSchemaValidatingPolicyHandlerC1EPKcS2_NS_6SchemaENS_21SchemaOnErrorStrategyENS0_21RecommendedPermissionENS0_19MandatoryPermissionE(%"class.policy::SimpleSchemaValidatingPolicyHandler"* nonnull %128, i8* getelementptr inbounds ([0 x i8], [0 x i8]* @_ZN6policy3key55kCertificateTransparencyEnforcementDisabledForLegacyCasE, i64 0, i64 0), i8* getelementptr inbounds ([0 x i8], [0 x i8]* @_ZN24certificate_transparency5prefs22kCTExcludedLegacySPKIsE, i64 0, i64 0), %"class.policy::Schema"* nonnull %26, i32 1, i32 1, i32 0) #11
  call void @_ZN6policy6SchemaD1Ev(%"class.policy::Schema"* nonnull %26) #11
  call void @llvm.lifetime.end.p0i8(i64 16, i8* nonnull %126)
  %129 = bitcast i8* %127 to %"class.policy::ConfigurationPolicyHandler"*
  call void @_ZN6policy30ConfigurationPolicyHandlerList10AddHandlerENSt3__110unique_ptrINS_26ConfigurationPolicyHandlerENS1_14default_deleteIS3_EEEE(%"class.policy::ConfigurationPolicyHandlerList"* nonnull %43, %"class.policy::ConfigurationPolicyHandler"* nonnull %129) #11
  %130 = bitcast %"class.policy::Schema"* %25 to i8*
  call void @llvm.lifetime.start.p0i8(i64 16, i8* nonnull %130)
  %131 = call i8* @_Znwm(i64 56) #10
  %132 = bitcast i8* %131 to %"class.policy::SimpleSchemaValidatingPolicyHandler"*
  call void @_ZN6policy6SchemaC1ERKS0_(%"class.policy::Schema"* nonnull %25, %"class.policy::Schema"* dereferenceable(16) %0) #11
  call void @_ZN6policy35SimpleSchemaValidatingPolicyHandlerC1EPKcS2_NS_6SchemaENS_21SchemaOnErrorStrategyENS0_21RecommendedPermissionENS0_19MandatoryPermissionE(%"class.policy::SimpleSchemaValidatingPolicyHandler"* nonnull %132, i8* getelementptr inbounds ([0 x i8], [0 x i8]* @_ZN6policy3key21kHSTSPolicyBypassListE, i64 0, i64 0), i8* getelementptr inbounds ([0 x i8], [0 x i8]* @_ZN5prefs21kHSTSPolicyBypassListE, i64 0, i64 0), %"class.policy::Schema"* nonnull %25, i32 1, i32 1, i32 0) #11
  call void @_ZN6policy6SchemaD1Ev(%"class.policy::Schema"* nonnull %25) #11
  call void @llvm.lifetime.end.p0i8(i64 16, i8* nonnull %130)
  %133 = bitcast i8* %131 to %"class.policy::ConfigurationPolicyHandler"*
  call void @_ZN6policy30ConfigurationPolicyHandlerList10AddHandlerENSt3__110unique_ptrINS_26ConfigurationPolicyHandlerENS1_14default_deleteIS3_EEEE(%"class.policy::ConfigurationPolicyHandlerList"* nonnull %43, %"class.policy::ConfigurationPolicyHandler"* nonnull %133) #11
  %134 = call i8* @_Znwm(i64 40) #10
  %135 = bitcast i8* %134 to %"class.policy::WebUsbAllowDevicesForUrlsPolicyHandler"*
  call void @_ZN6policy38WebUsbAllowDevicesForUrlsPolicyHandlerC1ERKNS_6SchemaE(%"class.policy::WebUsbAllowDevicesForUrlsPolicyHandler"* nonnull %135, %"class.policy::Schema"* dereferenceable(16) %0) #11
  %136 = bitcast i8* %134 to %"class.policy::ConfigurationPolicyHandler"*
  call void @_ZN6policy30ConfigurationPolicyHandlerList10AddHandlerENSt3__110unique_ptrINS_26ConfigurationPolicyHandlerENS1_14default_deleteIS3_EEEE(%"class.policy::ConfigurationPolicyHandlerList"* nonnull %43, %"class.policy::ConfigurationPolicyHandler"* nonnull %136) #11
  %137 = call i8* @_Znwm(i64 8) #10
  %138 = bitcast i8* %137 to %"class.policy::DeveloperToolsPolicyHandler"*
  call void @_ZN6policy27DeveloperToolsPolicyHandlerC1Ev(%"class.policy::DeveloperToolsPolicyHandler"* nonnull %138) #11
  %139 = bitcast i8* %137 to %"class.policy::ConfigurationPolicyHandler"*
  call void @_ZN6policy30ConfigurationPolicyHandlerList10AddHandlerENSt3__110unique_ptrINS_26ConfigurationPolicyHandlerENS1_14default_deleteIS3_EEEE(%"class.policy::ConfigurationPolicyHandlerList"* nonnull %43, %"class.policy::ConfigurationPolicyHandler"* nonnull %139) #11
  %140 = call i8* @_Znwm(i64 24) #10
  %141 = bitcast i8* %140 to %"class.policy::FileSelectionDialogsPolicyHandler"*
  call void @_ZN6policy33FileSelectionDialogsPolicyHandlerC1Ev(%"class.policy::FileSelectionDialogsPolicyHandler"* nonnull %141) #11
  %142 = bitcast i8* %140 to %"class.policy::ConfigurationPolicyHandler"*
  call void @_ZN6policy30ConfigurationPolicyHandlerList10AddHandlerENSt3__110unique_ptrINS_26ConfigurationPolicyHandlerENS1_14default_deleteIS3_EEEE(%"class.policy::ConfigurationPolicyHandlerList"* nonnull %43, %"class.policy::ConfigurationPolicyHandler"* nonnull %142) #11
  %143 = call i8* @_Znwm(i64 8) #10
  %144 = bitcast i8* %143 to %"class.policy::JavascriptPolicyHandler"*
  call void @_ZN6policy23JavascriptPolicyHandlerC1Ev(%"class.policy::JavascriptPolicyHandler"* nonnull %144) #11
  %145 = bitcast i8* %143 to %"class.policy::ConfigurationPolicyHandler"*
  call void @_ZN6policy30ConfigurationPolicyHandlerList10AddHandlerENSt3__110unique_ptrINS_26ConfigurationPolicyHandlerENS1_14default_deleteIS3_EEEE(%"class.policy::ConfigurationPolicyHandlerList"* nonnull %43, %"class.policy::ConfigurationPolicyHandler"* nonnull %145) #11
  %146 = call i8* @_Znwm(i64 8) #10
  %147 = bitcast i8* %146 to %"class.policy::NetworkPredictionPolicyHandler"*
  call void @_ZN6policy30NetworkPredictionPolicyHandlerC1Ev(%"class.policy::NetworkPredictionPolicyHandler"* nonnull %147) #11
  %148 = bitcast i8* %146 to %"class.policy::ConfigurationPolicyHandler"*
  call void @_ZN6policy30ConfigurationPolicyHandlerList10AddHandlerENSt3__110unique_ptrINS_26ConfigurationPolicyHandlerENS1_14default_deleteIS3_EEEE(%"class.policy::ConfigurationPolicyHandlerList"* nonnull %43, %"class.policy::ConfigurationPolicyHandler"* nonnull %148) #11
  %149 = call i8* @_Znwm(i64 24) #10
  %150 = bitcast i8* %149 to %"class.policy::RestoreOnStartupPolicyHandler"*
  call void @_ZN6policy29RestoreOnStartupPolicyHandlerC1Ev(%"class.policy::RestoreOnStartupPolicyHandler"* nonnull %150) #11
  %151 = bitcast i8* %149 to %"class.policy::ConfigurationPolicyHandler"*
  call void @_ZN6policy30ConfigurationPolicyHandlerList10AddHandlerENSt3__110unique_ptrINS_26ConfigurationPolicyHandlerENS1_14default_deleteIS3_EEEE(%"class.policy::ConfigurationPolicyHandlerList"* nonnull %43, %"class.policy::ConfigurationPolicyHandler"* nonnull %151) #11
  %152 = call i8* @_Znwm(i64 8) #10
  %153 = bitcast i8* %152 to i64*
  store i64 0, i64* %153, align 8
  %154 = bitcast i8* %152 to %"class.policy::ConfigurationPolicyHandler"*
  call void @_ZN6policy26ConfigurationPolicyHandlerC2Ev(%"class.policy::ConfigurationPolicyHandler"* nonnull %154) #11
  %155 = bitcast i8* %152 to i32 (...)***
  store i32 (...)** bitcast (i8** getelementptr inbounds ({ [8 x i8*] }, { [8 x i8*] }* @_ZTVN13safe_browsing25SafeBrowsingPolicyHandlerE, i64 0, inrange i32 0, i64 2) to i32 (...)**), i32 (...)*** %155, align 8
  call void @_ZN6policy30ConfigurationPolicyHandlerList10AddHandlerENSt3__110unique_ptrINS_26ConfigurationPolicyHandlerENS1_14default_deleteIS3_EEEE(%"class.policy::ConfigurationPolicyHandlerList"* nonnull %43, %"class.policy::ConfigurationPolicyHandler"* nonnull %154) #11
  %156 = call i8* @_Znwm(i64 32) #10
  %157 = bitcast i8* %156 to %"class.policy::SimplePolicyHandler"*
  call void @_ZN6policy19SimplePolicyHandlerC1EPKcS2_N4base5Value4TypeE(%"class.policy::SimplePolicyHandler"* nonnull %157, i8* getelementptr inbounds ([0 x i8], [0 x i8]* @_ZN6policy3key20kAuthServerWhitelistE, i64 0, i64 0), i8* getelementptr inbounds ([0 x i8], [0 x i8]* @_ZN5prefs20kAuthServerAllowlistE, i64 0, i64 0), i8 zeroext 4) #11
  %158 = call i8* @_Znwm(i64 32) #10
  %159 = bitcast i8* %158 to %"class.policy::SimplePolicyHandler"*
  call void @_ZN6policy19SimplePolicyHandlerC1EPKcS2_N4base5Value4TypeE(%"class.policy::SimplePolicyHandler"* nonnull %159, i8* getelementptr inbounds ([0 x i8], [0 x i8]* @_ZN6policy3key20kAuthServerAllowlistE, i64 0, i64 0), i8* getelementptr inbounds ([0 x i8], [0 x i8]* @_ZN5prefs20kAuthServerAllowlistE, i64 0, i64 0), i8 zeroext 4) #11
  %160 = call i8* @_Znwm(i64 24) #10
  %161 = bitcast i8* %160 to %"class.policy::SimpleDeprecatingPolicyHandler"*
  %162 = bitcast i8* %156 to %"class.policy::NamedPolicyHandler"*
  %163 = bitcast i8* %158 to %"class.policy::NamedPolicyHandler"*
  call void @_ZN6policy30SimpleDeprecatingPolicyHandlerC1ENSt3__110unique_ptrINS_18NamedPolicyHandlerENS1_14default_deleteIS3_EEEES6_(%"class.policy::SimpleDeprecatingPolicyHandler"* nonnull %161, %"class.policy::NamedPolicyHandler"* nonnull %162, %"class.policy::NamedPolicyHandler"* nonnull %163) #11
  %164 = bitcast i8* %160 to %"class.policy::ConfigurationPolicyHandler"*
  call void @_ZN6policy30ConfigurationPolicyHandlerList10AddHandlerENSt3__110unique_ptrINS_26ConfigurationPolicyHandlerENS1_14default_deleteIS3_EEEE(%"class.policy::ConfigurationPolicyHandlerList"* nonnull %43, %"class.policy::ConfigurationPolicyHandler"* nonnull %164) #11
  %165 = call i8* @_Znwm(i64 32) #10
  %166 = bitcast i8* %165 to %"class.policy::SimplePolicyHandler"*
  call void @_ZN6policy19SimplePolicyHandlerC1EPKcS2_N4base5Value4TypeE(%"class.policy::SimplePolicyHandler"* nonnull %166, i8* getelementptr inbounds ([0 x i8], [0 x i8]* @_ZN6policy3key31kAuthNegotiateDelegateWhitelistE, i64 0, i64 0), i8* getelementptr inbounds ([0 x i8], [0 x i8]* @_ZN5prefs31kAuthNegotiateDelegateAllowlistE, i64 0, i64 0), i8 zeroext 4) #11
  %167 = call i8* @_Znwm(i64 32) #10
  %168 = bitcast i8* %167 to %"class.policy::SimplePolicyHandler"*
  call void @_ZN6policy19SimplePolicyHandlerC1EPKcS2_N4base5Value4TypeE(%"class.policy::SimplePolicyHandler"* nonnull %168, i8* getelementptr inbounds ([0 x i8], [0 x i8]* @_ZN6policy3key31kAuthNegotiateDelegateAllowlistE, i64 0, i64 0), i8* getelementptr inbounds ([0 x i8], [0 x i8]* @_ZN5prefs31kAuthNegotiateDelegateAllowlistE, i64 0, i64 0), i8 zeroext 4) #11
  %169 = call i8* @_Znwm(i64 24) #10
  %170 = bitcast i8* %169 to %"class.policy::SimpleDeprecatingPolicyHandler"*
  %171 = bitcast i8* %165 to %"class.policy::NamedPolicyHandler"*
  %172 = bitcast i8* %167 to %"class.policy::NamedPolicyHandler"*
  call void @_ZN6policy30SimpleDeprecatingPolicyHandlerC1ENSt3__110unique_ptrINS_18NamedPolicyHandlerENS1_14default_deleteIS3_EEEES6_(%"class.policy::SimpleDeprecatingPolicyHandler"* nonnull %170, %"class.policy::NamedPolicyHandler"* nonnull %171, %"class.policy::NamedPolicyHandler"* nonnull %172) #11
  %173 = bitcast i8* %169 to %"class.policy::ConfigurationPolicyHandler"*
  call void @_ZN6policy30ConfigurationPolicyHandlerList10AddHandlerENSt3__110unique_ptrINS_26ConfigurationPolicyHandlerENS1_14default_deleteIS3_EEEE(%"class.policy::ConfigurationPolicyHandlerList"* nonnull %43, %"class.policy::ConfigurationPolicyHandler"* nonnull %173) #11
  %174 = call i8* @_Znwm(i64 32) #10
  %175 = bitcast i8* %174 to %"class.policy::SimplePolicyHandler"*
  call void @_ZN6policy19SimplePolicyHandlerC1EPKcS2_N4base5Value4TypeE(%"class.policy::SimplePolicyHandler"* nonnull %175, i8* getelementptr inbounds ([0 x i8], [0 x i8]* @_ZN6policy3key29kNativeWindowOcclusionEnabledE, i64 0, i64 0), i8* getelementptr inbounds ([0 x i8], [0 x i8]* @_ZN6policy12policy_prefs29kNativeWindowOcclusionEnabledE, i64 0, i64 0), i8 zeroext 1) #11
  %176 = call i8* @_Znwm(i64 32) #10
  %177 = bitcast i8* %176 to %"class.policy::SimplePolicyHandler"*
  call void @_ZN6policy19SimplePolicyHandlerC1EPKcS2_N4base5Value4TypeE(%"class.policy::SimplePolicyHandler"* nonnull %177, i8* getelementptr inbounds ([0 x i8], [0 x i8]* @_ZN6policy3key23kWindowOcclusionEnabledE, i64 0, i64 0), i8* getelementptr inbounds ([0 x i8], [0 x i8]* @_ZN6policy12policy_prefs29kNativeWindowOcclusionEnabledE, i64 0, i64 0), i8 zeroext 1) #11
  %178 = call i8* @_Znwm(i64 24) #10
  %179 = bitcast i8* %178 to %"class.policy::SimpleDeprecatingPolicyHandler"*
  %180 = bitcast i8* %174 to %"class.policy::NamedPolicyHandler"*
  %181 = bitcast i8* %176 to %"class.policy::NamedPolicyHandler"*
  call void @_ZN6policy30SimpleDeprecatingPolicyHandlerC1ENSt3__110unique_ptrINS_18NamedPolicyHandlerENS1_14default_deleteIS3_EEEES6_(%"class.policy::SimpleDeprecatingPolicyHandler"* nonnull %179, %"class.policy::NamedPolicyHandler"* nonnull %180, %"class.policy::NamedPolicyHandler"* nonnull %181) #11
  %182 = bitcast i8* %178 to %"class.policy::ConfigurationPolicyHandler"*
  call void @_ZN6policy30ConfigurationPolicyHandlerList10AddHandlerENSt3__110unique_ptrINS_26ConfigurationPolicyHandlerENS1_14default_deleteIS3_EEEE(%"class.policy::ConfigurationPolicyHandlerList"* nonnull %43, %"class.policy::ConfigurationPolicyHandler"* nonnull %182) #11
  %183 = call i8* @_Znwm(i64 32) #10
  %184 = bitcast i8* %183 to %"class.policy::SimplePolicyHandler"*
  call void @_ZN6policy19SimplePolicyHandlerC1EPKcS2_N4base5Value4TypeE(%"class.policy::SimplePolicyHandler"* nonnull %184, i8* getelementptr inbounds ([0 x i8], [0 x i8]* @_ZN6policy3key29kSafeBrowsingAllowlistDomainsE, i64 0, i64 0), i8* getelementptr inbounds ([0 x i8], [0 x i8]* @_ZN5prefs29kSafeBrowsingAllowlistDomainsE, i64 0, i64 0), i8 zeroext 7) #11
  %185 = bitcast i8* %183 to %"class.policy::ConfigurationPolicyHandler"*
  call void @_ZN6policy30ConfigurationPolicyHandlerList10AddHandlerENSt3__110unique_ptrINS_26ConfigurationPolicyHandlerENS1_14default_deleteIS3_EEEE(%"class.policy::ConfigurationPolicyHandlerList"* nonnull %43, %"class.policy::ConfigurationPolicyHandler"* nonnull %185) #11
  %186 = call i8* @_Znwm(i64 24) #10
  %187 = bitcast i8* %186 to %"class.syncer::SyncPolicyHandler"*
  call void @_ZN6syncer17SyncPolicyHandlerC1Ev(%"class.syncer::SyncPolicyHandler"* nonnull %187) #11
  %188 = bitcast i8* %186 to %"class.policy::ConfigurationPolicyHandler"*
  call void @_ZN6policy30ConfigurationPolicyHandlerList10AddHandlerENSt3__110unique_ptrINS_26ConfigurationPolicyHandlerENS1_14default_deleteIS3_EEEE(%"class.policy::ConfigurationPolicyHandlerList"* nonnull %43, %"class.policy::ConfigurationPolicyHandler"* nonnull %188) #11
  %189 = call i8* @_Znwm(i64 24) #10
  %190 = bitcast i8* %189 to %"class.policy::BrowsingHistoryPolicyHandler"*
  call void @_ZN6policy28BrowsingHistoryPolicyHandlerC1Ev(%"class.policy::BrowsingHistoryPolicyHandler"* nonnull %190) #11
  %191 = bitcast i8* %189 to %"class.policy::ConfigurationPolicyHandler"*
  call void @_ZN6policy30ConfigurationPolicyHandlerList10AddHandlerENSt3__110unique_ptrINS_26ConfigurationPolicyHandlerENS1_14default_deleteIS3_EEEE(%"class.policy::ConfigurationPolicyHandlerList"* nonnull %43, %"class.policy::ConfigurationPolicyHandler"* nonnull %191) #11
  %192 = call i8* @_Znwm(i64 24) #10
  %193 = bitcast i8* %192 to %"class.policy::URLBlocklistPolicyHandler"*
  call void @_ZN6policy25URLBlocklistPolicyHandlerC1EPKc(%"class.policy::URLBlocklistPolicyHandler"* nonnull %193, i8* getelementptr inbounds ([0 x i8], [0 x i8]* @_ZN6policy3key13kURLBlocklistE, i64 0, i64 0)) #11
  %194 = bitcast i8* %192 to %"class.policy::ConfigurationPolicyHandler"*
  call void @_ZN6policy30ConfigurationPolicyHandlerList10AddHandlerENSt3__110unique_ptrINS_26ConfigurationPolicyHandlerENS1_14default_deleteIS3_EEEE(%"class.policy::ConfigurationPolicyHandlerList"* nonnull %43, %"class.policy::ConfigurationPolicyHandler"* nonnull %194) #11
  %195 = call i8* @_Znwm(i64 32) #10
  %196 = bitcast i8* %195 to %"class.policy::SimplePolicyHandler"*
  call void @_ZN6policy19SimplePolicyHandlerC1EPKcS2_N4base5Value4TypeE(%"class.policy::SimplePolicyHandler"* nonnull %196, i8* getelementptr inbounds ([0 x i8], [0 x i8]* @_ZN6policy3key13kURLAllowlistE, i64 0, i64 0), i8* getelementptr inbounds ([0 x i8], [0 x i8]* @_ZN6policy12policy_prefs13kUrlAllowlistE, i64 0, i64 0), i8 zeroext 7) #11
  %197 = bitcast i8* %195 to %"class.policy::ConfigurationPolicyHandler"*
  call void @_ZN6policy30ConfigurationPolicyHandlerList10AddHandlerENSt3__110unique_ptrINS_26ConfigurationPolicyHandlerENS1_14default_deleteIS3_EEEE(%"class.policy::ConfigurationPolicyHandlerList"* nonnull %43, %"class.policy::ConfigurationPolicyHandler"* nonnull %197) #11
  %198 = bitcast %"class.policy::Schema"* %24 to i8*
  call void @llvm.lifetime.start.p0i8(i64 16, i8* nonnull %198)
  %199 = call i8* @_Znwm(i64 56) #10
  %200 = bitcast i8* %199 to %"class.policy::SimpleSchemaValidatingPolicyHandler"*
  call void @_ZN6policy6SchemaC1ERKS0_(%"class.policy::Schema"* nonnull %24, %"class.policy::Schema"* dereferenceable(16) %0) #11
  call void @_ZN6policy35SimpleSchemaValidatingPolicyHandlerC1EPKcS2_NS_6SchemaENS_21SchemaOnErrorStrategyENS0_21RecommendedPermissionENS0_19MandatoryPermissionE(%"class.policy::SimpleSchemaValidatingPolicyHandler"* nonnull %200, i8* getelementptr inbounds ([0 x i8], [0 x i8]* @_ZN6policy3key37kSafeBrowsingExtendedReportingEnabledE, i64 0, i64 0), i8* getelementptr inbounds ([0 x i8], [0 x i8]* @_ZN5prefs34kSafeBrowsingScoutReportingEnabledE, i64 0, i64 0), %"class.policy::Schema"* nonnull %24, i32 1, i32 0, i32 0) #11
  call void @_ZN6policy6SchemaD1Ev(%"class.policy::Schema"* nonnull %24) #11
  call void @llvm.lifetime.end.p0i8(i64 16, i8* nonnull %198)
  %201 = bitcast i8* %199 to %"class.policy::ConfigurationPolicyHandler"*
  call void @_ZN6policy30ConfigurationPolicyHandlerList10AddHandlerENSt3__110unique_ptrINS_26ConfigurationPolicyHandlerENS1_14default_deleteIS3_EEEE(%"class.policy::ConfigurationPolicyHandlerList"* nonnull %43, %"class.policy::ConfigurationPolicyHandler"* nonnull %201) #11
  %202 = call i8* @_Znwm(i64 24) #10
  %203 = bitcast i8* %202 to %"class.policy::ExplicitlyAllowedNetworkPortsPolicyHandler"*
  call void @_ZN6policy42ExplicitlyAllowedNetworkPortsPolicyHandlerC1Ev(%"class.policy::ExplicitlyAllowedNetworkPortsPolicyHandler"* nonnull %203) #11
  %204 = bitcast i8* %202 to %"class.policy::ConfigurationPolicyHandler"*
  call void @_ZN6policy30ConfigurationPolicyHandlerList10AddHandlerENSt3__110unique_ptrINS_26ConfigurationPolicyHandlerENS1_14default_deleteIS3_EEEE(%"class.policy::ConfigurationPolicyHandlerList"* nonnull %43, %"class.policy::ConfigurationPolicyHandler"* nonnull %204) #11
  %205 = call i8* @_Znwm(i64 24) #10
  %206 = bitcast i8* %205 to %class.NtpCustomBackgroundEnabledPolicyHandler*
  call void @_ZN39NtpCustomBackgroundEnabledPolicyHandlerC1Ev(%class.NtpCustomBackgroundEnabledPolicyHandler* nonnull %206) #11
  %207 = bitcast i8* %205 to %"class.policy::ConfigurationPolicyHandler"*
  call void @_ZN6policy30ConfigurationPolicyHandlerList10AddHandlerENSt3__110unique_ptrINS_26ConfigurationPolicyHandlerENS1_14default_deleteIS3_EEEE(%"class.policy::ConfigurationPolicyHandlerList"* nonnull %43, %"class.policy::ConfigurationPolicyHandler"* nonnull %207) #11
  %208 = call i8* @_Znwm(i64 24) #10
  %209 = bitcast i8* %208 to %class.DefaultDownloadDirPolicyHandler*
  call void @_ZN31DefaultDownloadDirPolicyHandlerC1Ev(%class.DefaultDownloadDirPolicyHandler* nonnull %209) #11
  %210 = bitcast i8* %208 to %"class.policy::ConfigurationPolicyHandler"*
  call void @_ZN6policy30ConfigurationPolicyHandlerList10AddHandlerENSt3__110unique_ptrINS_26ConfigurationPolicyHandlerENS1_14default_deleteIS3_EEEE(%"class.policy::ConfigurationPolicyHandlerList"* nonnull %43, %"class.policy::ConfigurationPolicyHandler"* nonnull %210) #11
  %211 = call i8* @_Znwm(i64 40) #10
  %212 = bitcast i8* %211 to %class.DownloadAutoOpenPolicyHandler*
  call void @_ZN29DownloadAutoOpenPolicyHandlerC1ERKN6policy6SchemaE(%class.DownloadAutoOpenPolicyHandler* nonnull %212, %"class.policy::Schema"* dereferenceable(16) %0) #11
  %213 = bitcast i8* %211 to %"class.policy::ConfigurationPolicyHandler"*
  call void @_ZN6policy30ConfigurationPolicyHandlerList10AddHandlerENSt3__110unique_ptrINS_26ConfigurationPolicyHandlerENS1_14default_deleteIS3_EEEE(%"class.policy::ConfigurationPolicyHandlerList"* nonnull %43, %"class.policy::ConfigurationPolicyHandler"* nonnull %213) #11
  %214 = call i8* @_Znwm(i64 24) #10
  %215 = bitcast i8* %214 to %class.DownloadDirPolicyHandler*
  call void @_ZN24DownloadDirPolicyHandlerC1Ev(%class.DownloadDirPolicyHandler* nonnull %215) #11
  %216 = bitcast i8* %214 to %"class.policy::ConfigurationPolicyHandler"*
  call void @_ZN6policy30ConfigurationPolicyHandlerList10AddHandlerENSt3__110unique_ptrINS_26ConfigurationPolicyHandlerENS1_14default_deleteIS3_EEEE(%"class.policy::ConfigurationPolicyHandlerList"* nonnull %43, %"class.policy::ConfigurationPolicyHandler"* nonnull %216) #11
  %217 = call i8* @_Znwm(i64 24) #10
  %218 = bitcast i8* %217 to %"class.policy::LocalSyncPolicyHandler"*
  call void @_ZN6policy22LocalSyncPolicyHandlerC1Ev(%"class.policy::LocalSyncPolicyHandler"* nonnull %218) #11
  %219 = bitcast i8* %217 to %"class.policy::ConfigurationPolicyHandler"*
  call void @_ZN6policy30ConfigurationPolicyHandlerList10AddHandlerENSt3__110unique_ptrINS_26ConfigurationPolicyHandlerENS1_14default_deleteIS3_EEEE(%"class.policy::ConfigurationPolicyHandlerList"* nonnull %43, %"class.policy::ConfigurationPolicyHandler"* nonnull %219) #11
  %220 = call i8* @_Znwm(i64 24) #10
  %221 = bitcast i8* %220 to %class.ThemeColorPolicyHandler*
  call void @_ZN23ThemeColorPolicyHandlerC1Ev(%class.ThemeColorPolicyHandler* nonnull %221) #11
  %222 = bitcast i8* %220 to %"class.policy::ConfigurationPolicyHandler"*
  call void @_ZN6policy30ConfigurationPolicyHandlerList10AddHandlerENSt3__110unique_ptrINS_26ConfigurationPolicyHandlerENS1_14default_deleteIS3_EEEE(%"class.policy::ConfigurationPolicyHandlerList"* nonnull %43, %"class.policy::ConfigurationPolicyHandler"* nonnull %222) #11
  %223 = bitcast %"class.policy::Schema"* %23 to i8*
  call void @llvm.lifetime.start.p0i8(i64 16, i8* nonnull %223)
  %224 = call i8* @_Znwm(i64 56) #10
  %225 = bitcast i8* %224 to %"class.policy::SimpleSchemaValidatingPolicyHandler"*
  call void @_ZN6policy6SchemaC1ERKS0_(%"class.policy::Schema"* nonnull %23, %"class.policy::Schema"* dereferenceable(16) %0) #11
  call void @_ZN6policy35SimpleSchemaValidatingPolicyHandlerC1EPKcS2_NS_6SchemaENS_21SchemaOnErrorStrategyENS0_21RecommendedPermissionENS0_19MandatoryPermissionE(%"class.policy::SimpleSchemaValidatingPolicyHandler"* nonnull %225, i8* getelementptr inbounds ([0 x i8], [0 x i8]* @_ZN6policy3key27kRegisteredProtocolHandlersE, i64 0, i64 0), i8* getelementptr inbounds ([0 x i8], [0 x i8]* @_ZN5prefs33kPolicyRegisteredProtocolHandlersE, i64 0, i64 0), %"class.policy::Schema"* nonnull %23, i32 1, i32 0, i32 1) #11
  call void @_ZN6policy6SchemaD1Ev(%"class.policy::Schema"* nonnull %23) #11
  call void @llvm.lifetime.end.p0i8(i64 16, i8* nonnull %223)
  %226 = bitcast i8* %224 to %"class.policy::ConfigurationPolicyHandler"*
  call void @_ZN6policy30ConfigurationPolicyHandlerList10AddHandlerENSt3__110unique_ptrINS_26ConfigurationPolicyHandlerENS1_14default_deleteIS3_EEEE(%"class.policy::ConfigurationPolicyHandlerList"* nonnull %43, %"class.policy::ConfigurationPolicyHandler"* nonnull %226) #11
  %227 = call i8* @_Znwm(i64 32) #10
  %228 = bitcast i8* %227 to %"class.policy::SimplePolicyHandler"*
  call void @_ZN6policy19SimplePolicyHandlerC1EPKcS2_N4base5Value4TypeE(%"class.policy::SimplePolicyHandler"* nonnull %228, i8* getelementptr inbounds ([0 x i8], [0 x i8]* @_ZN6policy3key18kAutoplayAllowlistE, i64 0, i64 0), i8* getelementptr inbounds ([0 x i8], [0 x i8]* @_ZN5prefs18kAutoplayWhitelistE, i64 0, i64 0), i8 zeroext 7) #11
  %229 = bitcast i8* %227 to %"class.policy::ConfigurationPolicyHandler"*
  call void @_ZN6policy30ConfigurationPolicyHandlerList10AddHandlerENSt3__110unique_ptrINS_26ConfigurationPolicyHandlerENS1_14default_deleteIS3_EEEE(%"class.policy::ConfigurationPolicyHandlerList"* nonnull %43, %"class.policy::ConfigurationPolicyHandler"* nonnull %229) #11
  %230 = bitcast %"class.policy::Schema"* %34 to i8*
  call void @llvm.lifetime.start.p0i8(i64 16, i8* nonnull %230) #11
  call void @_ZNK6policy6Schema19GetValidationSchemaEv(%"class.policy::Schema"* nonnull sret %34, %"class.policy::Schema"* %0) #11
  %231 = bitcast %"class.policy::Schema"* %22 to i8*
  call void @llvm.lifetime.start.p0i8(i64 16, i8* nonnull %231)
  %232 = call i8* @_Znwm(i64 48) #10
  %233 = bitcast i8* %232 to %"class.policy::SimpleJsonStringSchemaValidatingPolicyHandler"*
  call void @_ZN6policy6SchemaC1ERKS0_(%"class.policy::Schema"* nonnull %22, %"class.policy::Schema"* nonnull dereferenceable(16) %34) #11
  call void @_ZN6policy45SimpleJsonStringSchemaValidatingPolicyHandlerC1EPKcS2_NS_6SchemaENS_35SimpleSchemaValidatingPolicyHandler21RecommendedPermissionENS4_19MandatoryPermissionE(%"class.policy::SimpleJsonStringSchemaValidatingPolicyHandler"* nonnull %233, i8* getelementptr inbounds ([0 x i8], [0 x i8]* @_ZN6policy3key24kDefaultPrinterSelectionE, i64 0, i64 0), i8* getelementptr inbounds ([0 x i8], [0 x i8]* @_ZN5prefs45kPrintPreviewDefaultDestinationSelectionRulesE, i64 0, i64 0), %"class.policy::Schema"* nonnull %22, i32 0, i32 0) #11
  call void @_ZN6policy6SchemaD1Ev(%"class.policy::Schema"* nonnull %22) #11
  call void @llvm.lifetime.end.p0i8(i64 16, i8* nonnull %231)
  %234 = bitcast i8* %232 to %"class.policy::ConfigurationPolicyHandler"*
  call void @_ZN6policy30ConfigurationPolicyHandlerList10AddHandlerENSt3__110unique_ptrINS_26ConfigurationPolicyHandlerENS1_14default_deleteIS3_EEEE(%"class.policy::ConfigurationPolicyHandlerList"* nonnull %43, %"class.policy::ConfigurationPolicyHandler"* nonnull %234) #11
  call void @_ZN6policy6SchemaD1Ev(%"class.policy::Schema"* nonnull %34) #11
  call void @llvm.lifetime.end.p0i8(i64 16, i8* nonnull %230) #11
  %235 = bitcast %"class.policy::Schema"* %35 to i8*
  call void @llvm.lifetime.start.p0i8(i64 16, i8* nonnull %235) #11
  call void @_ZNK6policy6Schema19GetValidationSchemaEv(%"class.policy::Schema"* nonnull sret %35, %"class.policy::Schema"* %0) #11
  %236 = bitcast %"class.policy::Schema"* %21 to i8*
  call void @llvm.lifetime.start.p0i8(i64 16, i8* nonnull %236)
  %237 = call i8* @_Znwm(i64 48) #10
  %238 = bitcast i8* %237 to %"class.policy::SimpleJsonStringSchemaValidatingPolicyHandler"*
  call void @_ZN6policy6SchemaC1ERKS0_(%"class.policy::Schema"* nonnull %21, %"class.policy::Schema"* nonnull dereferenceable(16) %35) #11
  call void @_ZN6policy45SimpleJsonStringSchemaValidatingPolicyHandlerC1EPKcS2_NS_6SchemaENS_35SimpleSchemaValidatingPolicyHandler21RecommendedPermissionENS4_19MandatoryPermissionE(%"class.policy::SimpleJsonStringSchemaValidatingPolicyHandler"* nonnull %238, i8* getelementptr inbounds ([0 x i8], [0 x i8]* @_ZN6policy3key29kAutoSelectCertificateForUrlsE, i64 0, i64 0), i8* getelementptr inbounds ([0 x i8], [0 x i8]* @_ZN5prefs36kManagedAutoSelectCertificateForUrlsE, i64 0, i64 0), %"class.policy::Schema"* nonnull %21, i32 0, i32 0) #11
  call void @_ZN6policy6SchemaD1Ev(%"class.policy::Schema"* nonnull %21) #11
  call void @llvm.lifetime.end.p0i8(i64 16, i8* nonnull %236)
  %239 = bitcast i8* %237 to %"class.policy::ConfigurationPolicyHandler"*
  call void @_ZN6policy30ConfigurationPolicyHandlerList10AddHandlerENSt3__110unique_ptrINS_26ConfigurationPolicyHandlerENS1_14default_deleteIS3_EEEE(%"class.policy::ConfigurationPolicyHandlerList"* nonnull %43, %"class.policy::ConfigurationPolicyHandler"* nonnull %239) #11
  call void @_ZN6policy6SchemaD1Ev(%"class.policy::Schema"* nonnull %35) #11
  call void @llvm.lifetime.end.p0i8(i64 16, i8* nonnull %235) #11
  %240 = call i8* @_Znwm(i64 24) #10
  %241 = bitcast i8* %240 to %"class.enterprise_reporting::CloudReportingPolicyHandler"*
  call void @_ZN20enterprise_reporting27CloudReportingPolicyHandlerC1Ev(%"class.enterprise_reporting::CloudReportingPolicyHandler"* nonnull %241) #11
  %242 = bitcast i8* %240 to %"class.policy::ConfigurationPolicyHandler"*
  call void @_ZN6policy30ConfigurationPolicyHandlerList10AddHandlerENSt3__110unique_ptrINS_26ConfigurationPolicyHandlerENS1_14default_deleteIS3_EEEE(%"class.policy::ConfigurationPolicyHandlerList"* nonnull %43, %"class.policy::ConfigurationPolicyHandler"* nonnull %242) #11
  %243 = call i8* @_Znwm(i64 24) #10
  %244 = bitcast i8* %243 to %"class.enterprise_reporting::ExtensionRequestPolicyHandler"*
  call void @_ZN20enterprise_reporting29ExtensionRequestPolicyHandlerC1Ev(%"class.enterprise_reporting::ExtensionRequestPolicyHandler"* nonnull %244) #11
  %245 = bitcast i8* %243 to %"class.policy::ConfigurationPolicyHandler"*
  call void @_ZN6policy30ConfigurationPolicyHandlerList10AddHandlerENSt3__110unique_ptrINS_26ConfigurationPolicyHandlerENS1_14default_deleteIS3_EEEE(%"class.policy::ConfigurationPolicyHandlerList"* nonnull %43, %"class.policy::ConfigurationPolicyHandler"* nonnull %245) #11
  %246 = bitcast %"class.policy::Schema"* %20 to i8*
  call void @llvm.lifetime.start.p0i8(i64 16, i8* nonnull %246)
  %247 = call i8* @_Znwm(i64 56) #10
  %248 = bitcast i8* %247 to %"class.enterprise_connectors::EnterpriseConnectorsPolicyHandler"*
  call void @_ZN6policy6SchemaC1ERKS0_(%"class.policy::Schema"* nonnull %20, %"class.policy::Schema"* dereferenceable(16) %0) #11
  call void @_ZN21enterprise_connectors33EnterpriseConnectorsPolicyHandlerC1EPKcS2_N6policy6SchemaE(%"class.enterprise_connectors::EnterpriseConnectorsPolicyHandler"* nonnull %248, i8* getelementptr inbounds ([0 x i8], [0 x i8]* @_ZN6policy3key39kSendDownloadToCloudEnterpriseConnectorE, i64 0, i64 0), i8* getelementptr inbounds ([0 x i8], [0 x i8]* @_ZN21enterprise_connectors24kSendDownloadToCloudPrefE, i64 0, i64 0), %"class.policy::Schema"* nonnull %20) #11
  call void @_ZN6policy6SchemaD1Ev(%"class.policy::Schema"* nonnull %20) #11
  call void @llvm.lifetime.end.p0i8(i64 16, i8* nonnull %246)
  %249 = bitcast i8* %247 to %"class.policy::ConfigurationPolicyHandler"*
  call void @_ZN6policy30ConfigurationPolicyHandlerList10AddHandlerENSt3__110unique_ptrINS_26ConfigurationPolicyHandlerENS1_14default_deleteIS3_EEEE(%"class.policy::ConfigurationPolicyHandlerList"* nonnull %43, %"class.policy::ConfigurationPolicyHandler"* nonnull %249) #11
  %250 = bitcast %"class.policy::Schema"* %19 to i8*
  call void @llvm.lifetime.start.p0i8(i64 16, i8* nonnull %250)
  %251 = call i8* @_Znwm(i64 56) #10
  %252 = bitcast i8* %251 to %"class.enterprise_connectors::EnterpriseConnectorsPolicyHandler"*
  call void @_ZN6policy6SchemaC1ERKS0_(%"class.policy::Schema"* nonnull %19, %"class.policy::Schema"* dereferenceable(16) %0) #11
  call void @_ZN21enterprise_connectors33EnterpriseConnectorsPolicyHandlerC1EPKcS2_S2_N6policy6SchemaE(%"class.enterprise_connectors::EnterpriseConnectorsPolicyHandler"* nonnull %252, i8* getelementptr inbounds ([0 x i8], [0 x i8]* @_ZN6policy3key34kOnFileAttachedEnterpriseConnectorE, i64 0, i64 0), i8* getelementptr inbounds ([0 x i8], [0 x i8]* @_ZN21enterprise_connectors19kOnFileAttachedPrefE, i64 0, i64 0), i8* getelementptr inbounds ([0 x i8], [0 x i8]* @_ZN21enterprise_connectors24kOnFileAttachedScopePrefE, i64 0, i64 0), %"class.policy::Schema"* nonnull %19) #11
  call void @_ZN6policy6SchemaD1Ev(%"class.policy::Schema"* nonnull %19) #11
  call void @llvm.lifetime.end.p0i8(i64 16, i8* nonnull %250)
  %253 = bitcast i8* %251 to %"class.policy::ConfigurationPolicyHandler"*
  call void @_ZN6policy30ConfigurationPolicyHandlerList10AddHandlerENSt3__110unique_ptrINS_26ConfigurationPolicyHandlerENS1_14default_deleteIS3_EEEE(%"class.policy::ConfigurationPolicyHandlerList"* nonnull %43, %"class.policy::ConfigurationPolicyHandler"* nonnull %253) #11
  %254 = bitcast %"class.policy::Schema"* %18 to i8*
  call void @llvm.lifetime.start.p0i8(i64 16, i8* nonnull %254)
  %255 = call i8* @_Znwm(i64 56) #10
  %256 = bitcast i8* %255 to %"class.enterprise_connectors::EnterpriseConnectorsPolicyHandler"*
  call void @_ZN6policy6SchemaC1ERKS0_(%"class.policy::Schema"* nonnull %18, %"class.policy::Schema"* dereferenceable(16) %0) #11
  call void @_ZN21enterprise_connectors33EnterpriseConnectorsPolicyHandlerC1EPKcS2_S2_N6policy6SchemaE(%"class.enterprise_connectors::EnterpriseConnectorsPolicyHandler"* nonnull %256, i8* getelementptr inbounds ([0 x i8], [0 x i8]* @_ZN6policy3key36kOnFileDownloadedEnterpriseConnectorE, i64 0, i64 0), i8* getelementptr inbounds ([0 x i8], [0 x i8]* @_ZN21enterprise_connectors21kOnFileDownloadedPrefE, i64 0, i64 0), i8* getelementptr inbounds ([0 x i8], [0 x i8]* @_ZN21enterprise_connectors26kOnFileDownloadedScopePrefE, i64 0, i64 0), %"class.policy::Schema"* nonnull %18) #11
  call void @_ZN6policy6SchemaD1Ev(%"class.policy::Schema"* nonnull %18) #11
  call void @llvm.lifetime.end.p0i8(i64 16, i8* nonnull %254)
  %257 = bitcast i8* %255 to %"class.policy::ConfigurationPolicyHandler"*
  call void @_ZN6policy30ConfigurationPolicyHandlerList10AddHandlerENSt3__110unique_ptrINS_26ConfigurationPolicyHandlerENS1_14default_deleteIS3_EEEE(%"class.policy::ConfigurationPolicyHandlerList"* nonnull %43, %"class.policy::ConfigurationPolicyHandler"* nonnull %257) #11
  %258 = bitcast %"class.policy::Schema"* %17 to i8*
  call void @llvm.lifetime.start.p0i8(i64 16, i8* nonnull %258)
  %259 = call i8* @_Znwm(i64 56) #10
  %260 = bitcast i8* %259 to %"class.enterprise_connectors::EnterpriseConnectorsPolicyHandler"*
  call void @_ZN6policy6SchemaC1ERKS0_(%"class.policy::Schema"* nonnull %17, %"class.policy::Schema"* dereferenceable(16) %0) #11
  call void @_ZN21enterprise_connectors33EnterpriseConnectorsPolicyHandlerC1EPKcS2_S2_N6policy6SchemaE(%"class.enterprise_connectors::EnterpriseConnectorsPolicyHandler"* nonnull %260, i8* getelementptr inbounds ([0 x i8], [0 x i8]* @_ZN6policy3key35kOnBulkDataEntryEnterpriseConnectorE, i64 0, i64 0), i8* getelementptr inbounds ([0 x i8], [0 x i8]* @_ZN21enterprise_connectors20kOnBulkDataEntryPrefE, i64 0, i64 0), i8* getelementptr inbounds ([0 x i8], [0 x i8]* @_ZN21enterprise_connectors25kOnBulkDataEntryScopePrefE, i64 0, i64 0), %"class.policy::Schema"* nonnull %17) #11
  call void @_ZN6policy6SchemaD1Ev(%"class.policy::Schema"* nonnull %17) #11
  call void @llvm.lifetime.end.p0i8(i64 16, i8* nonnull %258)
  %261 = bitcast i8* %259 to %"class.policy::ConfigurationPolicyHandler"*
  call void @_ZN6policy30ConfigurationPolicyHandlerList10AddHandlerENSt3__110unique_ptrINS_26ConfigurationPolicyHandlerENS1_14default_deleteIS3_EEEE(%"class.policy::ConfigurationPolicyHandlerList"* nonnull %43, %"class.policy::ConfigurationPolicyHandler"* nonnull %261) #11
  %262 = bitcast %"class.policy::Schema"* %16 to i8*
  call void @llvm.lifetime.start.p0i8(i64 16, i8* nonnull %262)
  %263 = call i8* @_Znwm(i64 56) #10
  %264 = bitcast i8* %263 to %"class.enterprise_connectors::EnterpriseConnectorsPolicyHandler"*
  call void @_ZN6policy6SchemaC1ERKS0_(%"class.policy::Schema"* nonnull %16, %"class.policy::Schema"* dereferenceable(16) %0) #11
  call void @_ZN21enterprise_connectors33EnterpriseConnectorsPolicyHandlerC1EPKcS2_S2_N6policy6SchemaE(%"class.enterprise_connectors::EnterpriseConnectorsPolicyHandler"* nonnull %264, i8* getelementptr inbounds ([0 x i8], [0 x i8]* @_ZN6policy3key35kOnSecurityEventEnterpriseConnectorE, i64 0, i64 0), i8* getelementptr inbounds ([0 x i8], [0 x i8]* @_ZN21enterprise_connectors20kOnSecurityEventPrefE, i64 0, i64 0), i8* getelementptr inbounds ([0 x i8], [0 x i8]* @_ZN21enterprise_connectors25kOnSecurityEventScopePrefE, i64 0, i64 0), %"class.policy::Schema"* nonnull %16) #11
  call void @_ZN6policy6SchemaD1Ev(%"class.policy::Schema"* nonnull %16) #11
  call void @llvm.lifetime.end.p0i8(i64 16, i8* nonnull %262)
  %265 = bitcast i8* %263 to %"class.policy::ConfigurationPolicyHandler"*
  call void @_ZN6policy30ConfigurationPolicyHandlerList10AddHandlerENSt3__110unique_ptrINS_26ConfigurationPolicyHandlerENS1_14default_deleteIS3_EEEE(%"class.policy::ConfigurationPolicyHandlerList"* nonnull %43, %"class.policy::ConfigurationPolicyHandler"* nonnull %265) #11
  %266 = bitcast %"class.policy::Schema"* %15 to i8*
  call void @llvm.lifetime.start.p0i8(i64 16, i8* nonnull %266)
  %267 = call i8* @_Znwm(i64 56) #10
  %268 = bitcast i8* %267 to %"class.enterprise_connectors::EnterpriseConnectorsPolicyHandler"*
  call void @_ZN6policy6SchemaC1ERKS0_(%"class.policy::Schema"* nonnull %15, %"class.policy::Schema"* dereferenceable(16) %0) #11
  call void @_ZN21enterprise_connectors33EnterpriseConnectorsPolicyHandlerC1EPKcS2_S2_N6policy6SchemaE(%"class.enterprise_connectors::EnterpriseConnectorsPolicyHandler"* nonnull %268, i8* getelementptr inbounds ([0 x i8], [0 x i8]* @_ZN6policy3key31kEnterpriseRealTimeUrlCheckModeE, i64 0, i64 0), i8* getelementptr inbounds ([0 x i8], [0 x i8]* @_ZN5prefs43kSafeBrowsingEnterpriseRealTimeUrlCheckModeE, i64 0, i64 0), i8* getelementptr inbounds ([0 x i8], [0 x i8]* @_ZN5prefs44kSafeBrowsingEnterpriseRealTimeUrlCheckScopeE, i64 0, i64 0), %"class.policy::Schema"* nonnull %15) #11
  call void @_ZN6policy6SchemaD1Ev(%"class.policy::Schema"* nonnull %15) #11
  call void @llvm.lifetime.end.p0i8(i64 16, i8* nonnull %266)
  %269 = bitcast i8* %267 to %"class.policy::ConfigurationPolicyHandler"*
  call void @_ZN6policy30ConfigurationPolicyHandlerList10AddHandlerENSt3__110unique_ptrINS_26ConfigurationPolicyHandlerENS1_14default_deleteIS3_EEEE(%"class.policy::ConfigurationPolicyHandlerList"* nonnull %43, %"class.policy::ConfigurationPolicyHandler"* nonnull %269) #11
  %270 = bitcast %"class.policy::Schema"* %14 to i8*
  call void @llvm.lifetime.start.p0i8(i64 16, i8* nonnull %270)
  %271 = call i8* @_Znwm(i64 56) #10
  %272 = bitcast i8* %271 to %class.BrowsingDataLifetimePolicyHandler*
  call void @_ZN6policy6SchemaC1ERKS0_(%"class.policy::Schema"* nonnull %14, %"class.policy::Schema"* dereferenceable(16) %0) #11
  call void @_ZN33BrowsingDataLifetimePolicyHandlerC1EPKcS1_N6policy6SchemaE(%class.BrowsingDataLifetimePolicyHandler* nonnull %272, i8* getelementptr inbounds ([0 x i8], [0 x i8]* @_ZN6policy3key21kBrowsingDataLifetimeE, i64 0, i64 0), i8* getelementptr inbounds ([0 x i8], [0 x i8]* @_ZN13browsing_data5prefs21kBrowsingDataLifetimeE, i64 0, i64 0), %"class.policy::Schema"* nonnull %14) #11
  call void @_ZN6policy6SchemaD1Ev(%"class.policy::Schema"* nonnull %14) #11
  call void @llvm.lifetime.end.p0i8(i64 16, i8* nonnull %270)
  %273 = bitcast i8* %271 to %"class.policy::ConfigurationPolicyHandler"*
  call void @_ZN6policy30ConfigurationPolicyHandlerList10AddHandlerENSt3__110unique_ptrINS_26ConfigurationPolicyHandlerENS1_14default_deleteIS3_EEEE(%"class.policy::ConfigurationPolicyHandlerList"* nonnull %43, %"class.policy::ConfigurationPolicyHandler"* nonnull %273) #11
  %274 = bitcast %"class.policy::Schema"* %13 to i8*
  call void @llvm.lifetime.start.p0i8(i64 16, i8* nonnull %274)
  %275 = call i8* @_Znwm(i64 56) #10
  %276 = bitcast i8* %275 to %class.BrowsingDataLifetimePolicyHandler*
  call void @_ZN6policy6SchemaC1ERKS0_(%"class.policy::Schema"* nonnull %13, %"class.policy::Schema"* dereferenceable(16) %0) #11
  call void @_ZN33BrowsingDataLifetimePolicyHandlerC1EPKcS1_N6policy6SchemaE(%class.BrowsingDataLifetimePolicyHandler* nonnull %276, i8* getelementptr inbounds ([0 x i8], [0 x i8]* @_ZN6policy3key28kClearBrowsingDataOnExitListE, i64 0, i64 0), i8* getelementptr inbounds ([0 x i8], [0 x i8]* @_ZN13browsing_data5prefs28kClearBrowsingDataOnExitListE, i64 0, i64 0), %"class.policy::Schema"* nonnull %13) #11
  call void @_ZN6policy6SchemaD1Ev(%"class.policy::Schema"* nonnull %13) #11
  call void @llvm.lifetime.end.p0i8(i64 16, i8* nonnull %274)
  %277 = bitcast i8* %275 to %"class.policy::ConfigurationPolicyHandler"*
  call void @_ZN6policy30ConfigurationPolicyHandlerList10AddHandlerENSt3__110unique_ptrINS_26ConfigurationPolicyHandlerENS1_14default_deleteIS3_EEEE(%"class.policy::ConfigurationPolicyHandlerList"* nonnull %43, %"class.policy::ConfigurationPolicyHandler"* nonnull %277) #11
  %278 = bitcast %"class.policy::Schema"* %12 to i8*
  call void @llvm.lifetime.start.p0i8(i64 16, i8* nonnull %278)
  %279 = call i8* @_Znwm(i64 56) #10
  %280 = bitcast i8* %279 to %"class.policy::SimpleSchemaValidatingPolicyHandler"*
  call void @_ZN6policy6SchemaC1ERKS0_(%"class.policy::Schema"* nonnull %12, %"class.policy::Schema"* dereferenceable(16) %0) #11
  call void @_ZN6policy35SimpleSchemaValidatingPolicyHandlerC1EPKcS2_NS_6SchemaENS_21SchemaOnErrorStrategyENS0_21RecommendedPermissionENS0_19MandatoryPermissionE(%"class.policy::SimpleSchemaValidatingPolicyHandler"* nonnull %280, i8* getelementptr inbounds ([0 x i8], [0 x i8]* @_ZN6policy3key15kRelaunchWindowE, i64 0, i64 0), i8* getelementptr inbounds ([0 x i8], [0 x i8]* @_ZN5prefs15kRelaunchWindowE, i64 0, i64 0), %"class.policy::Schema"* nonnull %12, i32 1, i32 1, i32 0) #11
  call void @_ZN6policy6SchemaD1Ev(%"class.policy::Schema"* nonnull %12) #11
  call void @llvm.lifetime.end.p0i8(i64 16, i8* nonnull %278)
  %281 = bitcast i8* %279 to %"class.policy::ConfigurationPolicyHandler"*
  call void @_ZN6policy30ConfigurationPolicyHandlerList10AddHandlerENSt3__110unique_ptrINS_26ConfigurationPolicyHandlerENS1_14default_deleteIS3_EEEE(%"class.policy::ConfigurationPolicyHandlerList"* nonnull %43, %"class.policy::ConfigurationPolicyHandler"* nonnull %281) #11
  %282 = bitcast %"class.policy::Schema"* %11 to i8*
  call void @llvm.lifetime.start.p0i8(i64 16, i8* nonnull %282)
  %283 = call i8* @_Znwm(i64 56) #10
  %284 = bitcast i8* %283 to %"class.enterprise_connectors::EnterpriseConnectorsPolicyHandler"*
  call void @_ZN6policy6SchemaC1ERKS0_(%"class.policy::Schema"* nonnull %11, %"class.policy::Schema"* dereferenceable(16) %0) #11
  call void @_ZN21enterprise_connectors33EnterpriseConnectorsPolicyHandlerC1EPKcS2_N6policy6SchemaE(%"class.enterprise_connectors::EnterpriseConnectorsPolicyHandler"* nonnull %284, i8* getelementptr inbounds ([0 x i8], [0 x i8]* @_ZN6policy3key35kContextAwareAccessSignalsAllowlistE, i64 0, i64 0), i8* getelementptr inbounds ([0 x i8], [0 x i8]* @_ZN21enterprise_connectors39kContextAwareAccessSignalsAllowlistPrefE, i64 0, i64 0), %"class.policy::Schema"* nonnull %11) #11
  call void @_ZN6policy6SchemaD1Ev(%"class.policy::Schema"* nonnull %11) #11
  call void @llvm.lifetime.end.p0i8(i64 16, i8* nonnull %282)
  %285 = bitcast i8* %283 to %"class.policy::ConfigurationPolicyHandler"*
  call void @_ZN6policy30ConfigurationPolicyHandlerList10AddHandlerENSt3__110unique_ptrINS_26ConfigurationPolicyHandlerENS1_14default_deleteIS3_EEEE(%"class.policy::ConfigurationPolicyHandlerList"* nonnull %43, %"class.policy::ConfigurationPolicyHandler"* nonnull %285) #11
  %286 = bitcast %"class.std::__1::vector"* %36 to i8*
  call void @llvm.lifetime.start.p0i8(i64 24, i8* nonnull %286) #11
  %287 = getelementptr inbounds %"class.std::__1::vector", %"class.std::__1::vector"* %36, i64 0, i32 0, i32 0
  %288 = getelementptr inbounds %"class.std::__1::vector", %"class.std::__1::vector"* %36, i64 0, i32 0, i32 1
  %289 = getelementptr inbounds %"class.std::__1::vector", %"class.std::__1::vector"* %36, i64 0, i32 0, i32 2, i32 0, i32 0
  call void @llvm.memset.p0i8.i64(i8* nonnull align 16 %286, i8 0, i64 24, i1 false) #11
  %290 = bitcast %"class.std::__1::unique_ptr.3"* %37 to i8*
  call void @llvm.lifetime.start.p0i8(i64 8, i8* nonnull %290) #11
  %291 = call i8* @_Znwm(i64 32) #10
  %292 = bitcast i8* %291 to %"class.policy::SimplePolicyHandler"*
  call void @_ZN6policy19SimplePolicyHandlerC1EPKcS2_N4base5Value4TypeE(%"class.policy::SimplePolicyHandler"* nonnull %292, i8* getelementptr inbounds ([0 x i8], [0 x i8]* @_ZN6policy3key19kForceBrowserSigninE, i64 0, i64 0), i8* getelementptr inbounds ([0 x i8], [0 x i8]* @_ZN5prefs19kForceBrowserSigninE, i64 0, i64 0), i8 zeroext 1) #11
  %293 = ptrtoint i8* %291 to i64
  %294 = bitcast %"class.std::__1::unique_ptr.3"* %37 to i64*
  store i64 %293, i64* %294, align 8
  %295 = load %"class.std::__1::unique_ptr.3"*, %"class.std::__1::unique_ptr.3"** %288, align 8
  %296 = load %"class.std::__1::unique_ptr.3"*, %"class.std::__1::unique_ptr.3"** %289, align 16
  %297 = icmp ult %"class.std::__1::unique_ptr.3"* %295, %296
  br i1 %297, label %298, label %304

298:                                              ; preds = %66
  %299 = getelementptr inbounds %"class.std::__1::unique_ptr.3", %"class.std::__1::unique_ptr.3"* %37, i64 0, i32 0, i32 0, i32 0
  store %"class.policy::ConfigurationPolicyHandler"* null, %"class.policy::ConfigurationPolicyHandler"** %299, align 8
  %300 = bitcast %"class.std::__1::unique_ptr.3"* %295 to i64*
  store i64 %293, i64* %300, align 8
  %301 = getelementptr inbounds %"class.std::__1::unique_ptr.3", %"class.std::__1::unique_ptr.3"* %295, i64 1
  %302 = ptrtoint %"class.std::__1::unique_ptr.3"* %301 to i64
  %303 = bitcast %"class.std::__1::unique_ptr.3"** %288 to i64*
  store i64 %302, i64* %303, align 8
  br label %305

304:                                              ; preds = %66
  call void @_ZNSt3__16vectorINS_10unique_ptrIN6policy26ConfigurationPolicyHandlerENS_14default_deleteIS3_EEEENS_9allocatorIS6_EEE21__push_back_slow_pathIS6_EEvOT_(%"class.std::__1::vector"* nonnull %36, %"class.std::__1::unique_ptr.3"* nonnull dereferenceable(8) %37) #11
  br label %305

305:                                              ; preds = %298, %304
  %306 = getelementptr inbounds %"class.std::__1::unique_ptr.3", %"class.std::__1::unique_ptr.3"* %37, i64 0, i32 0, i32 0, i32 0
  %307 = load %"class.policy::ConfigurationPolicyHandler"*, %"class.policy::ConfigurationPolicyHandler"** %306, align 8
  store %"class.policy::ConfigurationPolicyHandler"* null, %"class.policy::ConfigurationPolicyHandler"** %306, align 8
  %308 = icmp eq %"class.policy::ConfigurationPolicyHandler"* %307, null
  br i1 %308, label %314, label %309

309:                                              ; preds = %305
  %310 = bitcast %"class.policy::ConfigurationPolicyHandler"* %307 to void (%"class.policy::ConfigurationPolicyHandler"*)***
  %311 = load void (%"class.policy::ConfigurationPolicyHandler"*)**, void (%"class.policy::ConfigurationPolicyHandler"*)*** %310, align 8
  %312 = getelementptr inbounds void (%"class.policy::ConfigurationPolicyHandler"*)*, void (%"class.policy::ConfigurationPolicyHandler"*)** %311, i64 1
  %313 = load void (%"class.policy::ConfigurationPolicyHandler"*)*, void (%"class.policy::ConfigurationPolicyHandler"*)** %312, align 8
  call void %313(%"class.policy::ConfigurationPolicyHandler"* nonnull %307) #11
  br label %314

314:                                              ; preds = %309, %305
  call void @llvm.lifetime.end.p0i8(i64 8, i8* nonnull %290) #11
  %315 = bitcast %"class.std::__1::unique_ptr.3"* %38 to i8*
  call void @llvm.lifetime.start.p0i8(i64 8, i8* nonnull %315) #11
  %316 = call i8* @_Znwm(i64 32) #10
  %317 = bitcast i8* %316 to %"class.policy::SimplePolicyHandler"*
  call void @_ZN6policy19SimplePolicyHandlerC1EPKcS2_N4base5Value4TypeE(%"class.policy::SimplePolicyHandler"* nonnull %317, i8* getelementptr inbounds ([0 x i8], [0 x i8]* @_ZN6policy3key14kSigninAllowedE, i64 0, i64 0), i8* getelementptr inbounds ([0 x i8], [0 x i8]* @_ZN5prefs27kSigninAllowedOnNextStartupE, i64 0, i64 0), i8 zeroext 1) #11
  %318 = ptrtoint i8* %316 to i64
  %319 = bitcast %"class.std::__1::unique_ptr.3"* %38 to i64*
  store i64 %318, i64* %319, align 8
  %320 = load %"class.std::__1::unique_ptr.3"*, %"class.std::__1::unique_ptr.3"** %288, align 8
  %321 = load %"class.std::__1::unique_ptr.3"*, %"class.std::__1::unique_ptr.3"** %289, align 16
  %322 = icmp ult %"class.std::__1::unique_ptr.3"* %320, %321
  br i1 %322, label %323, label %329

323:                                              ; preds = %314
  %324 = getelementptr inbounds %"class.std::__1::unique_ptr.3", %"class.std::__1::unique_ptr.3"* %38, i64 0, i32 0, i32 0, i32 0
  store %"class.policy::ConfigurationPolicyHandler"* null, %"class.policy::ConfigurationPolicyHandler"** %324, align 8
  %325 = bitcast %"class.std::__1::unique_ptr.3"* %320 to i64*
  store i64 %318, i64* %325, align 8
  %326 = getelementptr inbounds %"class.std::__1::unique_ptr.3", %"class.std::__1::unique_ptr.3"* %320, i64 1
  %327 = ptrtoint %"class.std::__1::unique_ptr.3"* %326 to i64
  %328 = bitcast %"class.std::__1::unique_ptr.3"** %288 to i64*
  store i64 %327, i64* %328, align 8
  br label %330

329:                                              ; preds = %314
  call void @_ZNSt3__16vectorINS_10unique_ptrIN6policy26ConfigurationPolicyHandlerENS_14default_deleteIS3_EEEENS_9allocatorIS6_EEE21__push_back_slow_pathIS6_EEvOT_(%"class.std::__1::vector"* nonnull %36, %"class.std::__1::unique_ptr.3"* nonnull dereferenceable(8) %38) #11
  br label %330

330:                                              ; preds = %323, %329
  %331 = getelementptr inbounds %"class.std::__1::unique_ptr.3", %"class.std::__1::unique_ptr.3"* %38, i64 0, i32 0, i32 0, i32 0
  %332 = load %"class.policy::ConfigurationPolicyHandler"*, %"class.policy::ConfigurationPolicyHandler"** %331, align 8
  store %"class.policy::ConfigurationPolicyHandler"* null, %"class.policy::ConfigurationPolicyHandler"** %331, align 8
  %333 = icmp eq %"class.policy::ConfigurationPolicyHandler"* %332, null
  br i1 %333, label %339, label %334

334:                                              ; preds = %330
  %335 = bitcast %"class.policy::ConfigurationPolicyHandler"* %332 to void (%"class.policy::ConfigurationPolicyHandler"*)***
  %336 = load void (%"class.policy::ConfigurationPolicyHandler"*)**, void (%"class.policy::ConfigurationPolicyHandler"*)*** %335, align 8
  %337 = getelementptr inbounds void (%"class.policy::ConfigurationPolicyHandler"*)*, void (%"class.policy::ConfigurationPolicyHandler"*)** %336, i64 1
  %338 = load void (%"class.policy::ConfigurationPolicyHandler"*)*, void (%"class.policy::ConfigurationPolicyHandler"*)** %337, align 8
  call void %338(%"class.policy::ConfigurationPolicyHandler"* nonnull %332) #11
  br label %339

339:                                              ; preds = %334, %330
  call void @llvm.lifetime.end.p0i8(i64 8, i8* nonnull %315) #11
  %340 = bitcast %"class.policy::Schema"* %10 to i8*
  call void @llvm.lifetime.start.p0i8(i64 16, i8* nonnull %340)
  %341 = call i8* @_Znwm(i64 40) #10
  %342 = bitcast i8* %341 to %"class.policy::BrowserSigninPolicyHandler"*
  call void @_ZN6policy6SchemaC1ERKS0_(%"class.policy::Schema"* nonnull %10, %"class.policy::Schema"* dereferenceable(16) %0) #11
  call void @_ZN6policy26BrowserSigninPolicyHandlerC1ENS_6SchemaE(%"class.policy::BrowserSigninPolicyHandler"* nonnull %342, %"class.policy::Schema"* nonnull %10) #11
  call void @_ZN6policy6SchemaD1Ev(%"class.policy::Schema"* nonnull %10) #11
  call void @llvm.lifetime.end.p0i8(i64 16, i8* nonnull %340)
  %343 = bitcast %"class.std::__1::vector"* %9 to i8*
  call void @llvm.lifetime.start.p0i8(i64 24, i8* nonnull %343)
  %344 = call i8* @_Znwm(i64 40) #10
  %345 = bitcast i8* %344 to %"class.policy::LegacyPoliciesDeprecatingPolicyHandler"*
  %346 = bitcast %"class.std::__1::vector"* %36 to <2 x i64>*
  %347 = load <2 x i64>, <2 x i64>* %346, align 16
  %348 = getelementptr inbounds %"class.std::__1::vector", %"class.std::__1::vector"* %9, i64 0, i32 0, i32 1
  %349 = bitcast %"class.std::__1::vector"* %9 to <2 x i64>*
  store <2 x i64> %347, <2 x i64>* %349, align 16
  %350 = bitcast %"class.std::__1::unique_ptr.3"** %289 to i64*
  %351 = load i64, i64* %350, align 16
  %352 = getelementptr inbounds %"class.std::__1::vector", %"class.std::__1::vector"* %9, i64 0, i32 0, i32 2, i32 0, i32 0
  %353 = bitcast %"class.std::__1::unique_ptr.3"** %352 to i64*
  store i64 %351, i64* %353, align 16
  call void @llvm.memset.p0i8.i64(i8* nonnull align 16 %286, i8 0, i64 24, i1 false) #11
  %354 = bitcast i8* %341 to %"class.policy::SchemaValidatingPolicyHandler"*
  call void @_ZN6policy38LegacyPoliciesDeprecatingPolicyHandlerC1ENSt3__16vectorINS1_10unique_ptrINS_26ConfigurationPolicyHandlerENS1_14default_deleteIS4_EEEENS1_9allocatorIS7_EEEENS3_INS_29SchemaValidatingPolicyHandlerENS5_ISB_EEEE(%"class.policy::LegacyPoliciesDeprecatingPolicyHandler"* nonnull %345, %"class.std::__1::vector"* nonnull %9, %"class.policy::SchemaValidatingPolicyHandler"* nonnull %354) #11
  %355 = getelementptr inbounds %"class.std::__1::vector", %"class.std::__1::vector"* %9, i64 0, i32 0, i32 0
  %356 = load %"class.std::__1::unique_ptr.3"*, %"class.std::__1::unique_ptr.3"** %355, align 16
  %357 = icmp eq %"class.std::__1::unique_ptr.3"* %356, null
  br i1 %357, label %380, label %358

358:                                              ; preds = %339
  %359 = bitcast %"class.std::__1::unique_ptr.3"* %356 to i8*
  %360 = load %"class.std::__1::unique_ptr.3"*, %"class.std::__1::unique_ptr.3"** %348, align 8
  %361 = icmp eq %"class.std::__1::unique_ptr.3"* %360, %356
  br i1 %361, label %378, label %362

362:                                              ; preds = %358, %373
  %363 = phi %"class.std::__1::unique_ptr.3"* [ %364, %373 ], [ %360, %358 ]
  %364 = getelementptr inbounds %"class.std::__1::unique_ptr.3", %"class.std::__1::unique_ptr.3"* %363, i64 -1
  %365 = getelementptr inbounds %"class.std::__1::unique_ptr.3", %"class.std::__1::unique_ptr.3"* %364, i64 0, i32 0, i32 0, i32 0
  %366 = load %"class.policy::ConfigurationPolicyHandler"*, %"class.policy::ConfigurationPolicyHandler"** %365, align 8
  store %"class.policy::ConfigurationPolicyHandler"* null, %"class.policy::ConfigurationPolicyHandler"** %365, align 8
  %367 = icmp eq %"class.policy::ConfigurationPolicyHandler"* %366, null
  br i1 %367, label %373, label %368

368:                                              ; preds = %362
  %369 = bitcast %"class.policy::ConfigurationPolicyHandler"* %366 to void (%"class.policy::ConfigurationPolicyHandler"*)***
  %370 = load void (%"class.policy::ConfigurationPolicyHandler"*)**, void (%"class.policy::ConfigurationPolicyHandler"*)*** %369, align 8
  %371 = getelementptr inbounds void (%"class.policy::ConfigurationPolicyHandler"*)*, void (%"class.policy::ConfigurationPolicyHandler"*)** %370, i64 1
  %372 = load void (%"class.policy::ConfigurationPolicyHandler"*)*, void (%"class.policy::ConfigurationPolicyHandler"*)** %371, align 8
  call void %372(%"class.policy::ConfigurationPolicyHandler"* nonnull %366) #11
  br label %373

373:                                              ; preds = %368, %362
  %374 = icmp eq %"class.std::__1::unique_ptr.3"* %364, %356
  br i1 %374, label %375, label %362

375:                                              ; preds = %373
  %376 = bitcast %"class.std::__1::vector"* %9 to i8**
  %377 = load i8*, i8** %376, align 16
  br label %378

378:                                              ; preds = %375, %358
  %379 = phi i8* [ %377, %375 ], [ %359, %358 ]
  store %"class.std::__1::unique_ptr.3"* %356, %"class.std::__1::unique_ptr.3"** %348, align 8
  call void @_ZdlPv(i8* %379) #10
  br label %380

380:                                              ; preds = %339, %378
  call void @llvm.lifetime.end.p0i8(i64 24, i8* nonnull %343)
  %381 = bitcast i8* %344 to %"class.policy::ConfigurationPolicyHandler"*
  call void @_ZN6policy30ConfigurationPolicyHandlerList10AddHandlerENSt3__110unique_ptrINS_26ConfigurationPolicyHandlerENS1_14default_deleteIS3_EEEE(%"class.policy::ConfigurationPolicyHandlerList"* nonnull %43, %"class.policy::ConfigurationPolicyHandler"* nonnull %381) #11
  %382 = bitcast %"class.std::__1::vector"* %39 to i8*
  call void @llvm.lifetime.start.p0i8(i64 24, i8* nonnull %382) #11
  %383 = getelementptr inbounds %"class.std::__1::vector", %"class.std::__1::vector"* %39, i64 0, i32 0, i32 0
  %384 = getelementptr inbounds %"class.std::__1::vector", %"class.std::__1::vector"* %39, i64 0, i32 0, i32 1
  %385 = getelementptr inbounds %"class.std::__1::vector", %"class.std::__1::vector"* %39, i64 0, i32 0, i32 2, i32 0, i32 0
  call void @llvm.memset.p0i8.i64(i8* nonnull align 16 %382, i8 0, i64 24, i1 false) #11
  %386 = bitcast %"class.std::__1::unique_ptr.3"* %40 to i8*
  call void @llvm.lifetime.start.p0i8(i64 8, i8* nonnull %386) #11
  %387 = bitcast %"class.policy::Schema"* %8 to i8*
  call void @llvm.lifetime.start.p0i8(i64 16, i8* nonnull %387)
  %388 = call i8* @_Znwm(i64 40) #10
  %389 = bitcast i8* %388 to %"class.policy::SecureOriginPolicyHandler"*
  call void @_ZN6policy6SchemaC1ERKS0_(%"class.policy::Schema"* nonnull %8, %"class.policy::Schema"* dereferenceable(16) %0) #11
  call void @_ZN6policy25SecureOriginPolicyHandlerC1EPKcNS_6SchemaE(%"class.policy::SecureOriginPolicyHandler"* nonnull %389, i8* getelementptr inbounds ([0 x i8], [0 x i8]* @_ZN6policy3key36kUnsafelyTreatInsecureOriginAsSecureE, i64 0, i64 0), %"class.policy::Schema"* nonnull %8) #11
  call void @_ZN6policy6SchemaD1Ev(%"class.policy::Schema"* nonnull %8) #11
  call void @llvm.lifetime.end.p0i8(i64 16, i8* nonnull %387)
  %390 = ptrtoint i8* %388 to i64
  %391 = bitcast %"class.std::__1::unique_ptr.3"* %40 to i64*
  store i64 %390, i64* %391, align 8
  call void @_ZNSt3__16vectorINS_10unique_ptrIN6policy26ConfigurationPolicyHandlerENS_14default_deleteIS3_EEEENS_9allocatorIS6_EEE21__push_back_slow_pathIS6_EEvOT_(%"class.std::__1::vector"* nonnull %39, %"class.std::__1::unique_ptr.3"* nonnull dereferenceable(8) %40) #11
  %392 = getelementptr inbounds %"class.std::__1::unique_ptr.3", %"class.std::__1::unique_ptr.3"* %40, i64 0, i32 0, i32 0, i32 0
  %393 = load %"class.policy::ConfigurationPolicyHandler"*, %"class.policy::ConfigurationPolicyHandler"** %392, align 8
  %394 = getelementptr inbounds %"class.std::__1::unique_ptr.3", %"class.std::__1::unique_ptr.3"* %40, i64 0, i32 0, i32 0, i32 0
  store %"class.policy::ConfigurationPolicyHandler"* null, %"class.policy::ConfigurationPolicyHandler"** %394, align 8
  %395 = icmp eq %"class.policy::ConfigurationPolicyHandler"* %393, null
  br i1 %395, label %401, label %396

396:                                              ; preds = %380
  %397 = bitcast %"class.policy::ConfigurationPolicyHandler"* %393 to void (%"class.policy::ConfigurationPolicyHandler"*)***
  %398 = load void (%"class.policy::ConfigurationPolicyHandler"*)**, void (%"class.policy::ConfigurationPolicyHandler"*)*** %397, align 8
  %399 = getelementptr inbounds void (%"class.policy::ConfigurationPolicyHandler"*)*, void (%"class.policy::ConfigurationPolicyHandler"*)** %398, i64 1
  %400 = load void (%"class.policy::ConfigurationPolicyHandler"*)*, void (%"class.policy::ConfigurationPolicyHandler"*)** %399, align 8
  call void %400(%"class.policy::ConfigurationPolicyHandler"* nonnull %393) #11
  br label %401

401:                                              ; preds = %396, %380
  call void @llvm.lifetime.end.p0i8(i64 8, i8* nonnull %386) #11
  %402 = bitcast %"class.policy::Schema"* %7 to i8*
  call void @llvm.lifetime.start.p0i8(i64 16, i8* nonnull %402)
  %403 = call i8* @_Znwm(i64 40) #10
  %404 = bitcast i8* %403 to %"class.policy::SecureOriginPolicyHandler"*
  call void @_ZN6policy6SchemaC1ERKS0_(%"class.policy::Schema"* nonnull %7, %"class.policy::Schema"* dereferenceable(16) %0) #11
  call void @_ZN6policy25SecureOriginPolicyHandlerC1EPKcNS_6SchemaE(%"class.policy::SecureOriginPolicyHandler"* nonnull %404, i8* getelementptr inbounds ([0 x i8], [0 x i8]* @_ZN6policy3key45kOverrideSecurityRestrictionsOnInsecureOriginE, i64 0, i64 0), %"class.policy::Schema"* nonnull %7) #11
  call void @_ZN6policy6SchemaD1Ev(%"class.policy::Schema"* nonnull %7) #11
  call void @llvm.lifetime.end.p0i8(i64 16, i8* nonnull %402)
  %405 = bitcast %"class.std::__1::vector"* %6 to i8*
  call void @llvm.lifetime.start.p0i8(i64 24, i8* nonnull %405)
  %406 = call i8* @_Znwm(i64 40) #10
  %407 = bitcast i8* %406 to %"class.policy::LegacyPoliciesDeprecatingPolicyHandler"*
  %408 = bitcast %"class.std::__1::vector"* %39 to <2 x i64>*
  %409 = load <2 x i64>, <2 x i64>* %408, align 16
  %410 = getelementptr inbounds %"class.std::__1::vector", %"class.std::__1::vector"* %6, i64 0, i32 0, i32 1
  %411 = bitcast %"class.std::__1::vector"* %6 to <2 x i64>*
  store <2 x i64> %409, <2 x i64>* %411, align 16
  %412 = bitcast %"class.std::__1::unique_ptr.3"** %385 to i64*
  %413 = load i64, i64* %412, align 16
  %414 = getelementptr inbounds %"class.std::__1::vector", %"class.std::__1::vector"* %6, i64 0, i32 0, i32 2, i32 0, i32 0
  %415 = bitcast %"class.std::__1::unique_ptr.3"** %414 to i64*
  store i64 %413, i64* %415, align 16
  call void @llvm.memset.p0i8.i64(i8* nonnull align 16 %382, i8 0, i64 24, i1 false) #11
  %416 = bitcast i8* %403 to %"class.policy::SchemaValidatingPolicyHandler"*
  call void @_ZN6policy38LegacyPoliciesDeprecatingPolicyHandlerC1ENSt3__16vectorINS1_10unique_ptrINS_26ConfigurationPolicyHandlerENS1_14default_deleteIS4_EEEENS1_9allocatorIS7_EEEENS3_INS_29SchemaValidatingPolicyHandlerENS5_ISB_EEEE(%"class.policy::LegacyPoliciesDeprecatingPolicyHandler"* nonnull %407, %"class.std::__1::vector"* nonnull %6, %"class.policy::SchemaValidatingPolicyHandler"* nonnull %416) #11
  %417 = getelementptr inbounds %"class.std::__1::vector", %"class.std::__1::vector"* %6, i64 0, i32 0, i32 0
  %418 = load %"class.std::__1::unique_ptr.3"*, %"class.std::__1::unique_ptr.3"** %417, align 16
  %419 = icmp eq %"class.std::__1::unique_ptr.3"* %418, null
  br i1 %419, label %442, label %420

420:                                              ; preds = %401
  %421 = bitcast %"class.std::__1::unique_ptr.3"* %418 to i8*
  %422 = load %"class.std::__1::unique_ptr.3"*, %"class.std::__1::unique_ptr.3"** %410, align 8
  %423 = icmp eq %"class.std::__1::unique_ptr.3"* %422, %418
  br i1 %423, label %440, label %424

424:                                              ; preds = %420, %435
  %425 = phi %"class.std::__1::unique_ptr.3"* [ %426, %435 ], [ %422, %420 ]
  %426 = getelementptr inbounds %"class.std::__1::unique_ptr.3", %"class.std::__1::unique_ptr.3"* %425, i64 -1
  %427 = getelementptr inbounds %"class.std::__1::unique_ptr.3", %"class.std::__1::unique_ptr.3"* %426, i64 0, i32 0, i32 0, i32 0
  %428 = load %"class.policy::ConfigurationPolicyHandler"*, %"class.policy::ConfigurationPolicyHandler"** %427, align 8
  store %"class.policy::ConfigurationPolicyHandler"* null, %"class.policy::ConfigurationPolicyHandler"** %427, align 8
  %429 = icmp eq %"class.policy::ConfigurationPolicyHandler"* %428, null
  br i1 %429, label %435, label %430

430:                                              ; preds = %424
  %431 = bitcast %"class.policy::ConfigurationPolicyHandler"* %428 to void (%"class.policy::ConfigurationPolicyHandler"*)***
  %432 = load void (%"class.policy::ConfigurationPolicyHandler"*)**, void (%"class.policy::ConfigurationPolicyHandler"*)*** %431, align 8
  %433 = getelementptr inbounds void (%"class.policy::ConfigurationPolicyHandler"*)*, void (%"class.policy::ConfigurationPolicyHandler"*)** %432, i64 1
  %434 = load void (%"class.policy::ConfigurationPolicyHandler"*)*, void (%"class.policy::ConfigurationPolicyHandler"*)** %433, align 8
  call void %434(%"class.policy::ConfigurationPolicyHandler"* nonnull %428) #11
  br label %435

435:                                              ; preds = %430, %424
  %436 = icmp eq %"class.std::__1::unique_ptr.3"* %426, %418
  br i1 %436, label %437, label %424

437:                                              ; preds = %435
  %438 = bitcast %"class.std::__1::vector"* %6 to i8**
  %439 = load i8*, i8** %438, align 16
  br label %440

440:                                              ; preds = %437, %420
  %441 = phi i8* [ %439, %437 ], [ %421, %420 ]
  store %"class.std::__1::unique_ptr.3"* %418, %"class.std::__1::unique_ptr.3"** %410, align 8
  call void @_ZdlPv(i8* %441) #10
  br label %442

442:                                              ; preds = %440, %401
  call void @llvm.lifetime.end.p0i8(i64 24, i8* nonnull %405)
  %443 = bitcast i8* %406 to %"class.policy::ConfigurationPolicyHandler"*
  call void @_ZN6policy30ConfigurationPolicyHandlerList10AddHandlerENSt3__110unique_ptrINS_26ConfigurationPolicyHandlerENS1_14default_deleteIS3_EEEE(%"class.policy::ConfigurationPolicyHandlerList"* nonnull %43, %"class.policy::ConfigurationPolicyHandler"* nonnull %443) #11
  %444 = call i8* @_Znwm(i64 24) #10
  %445 = bitcast i8* %444 to %"class.policy::DiskCacheDirPolicyHandler"*
  call void @_ZN6policy25DiskCacheDirPolicyHandlerC1Ev(%"class.policy::DiskCacheDirPolicyHandler"* nonnull %445) #11
  %446 = bitcast i8* %444 to %"class.policy::ConfigurationPolicyHandler"*
  call void @_ZN6policy30ConfigurationPolicyHandlerList10AddHandlerENSt3__110unique_ptrINS_26ConfigurationPolicyHandlerENS1_14default_deleteIS3_EEEE(%"class.policy::ConfigurationPolicyHandlerList"* nonnull %43, %"class.policy::ConfigurationPolicyHandler"* nonnull %446) #11
  %447 = call i8* @_Znwm(i64 40) #10
  %448 = bitcast i8* %447 to %"class.extensions::NativeMessagingHostListPolicyHandler"*
  call void @_ZN10extensions36NativeMessagingHostListPolicyHandlerC1EPKcS2_b(%"class.extensions::NativeMessagingHostListPolicyHandler"* nonnull %448, i8* getelementptr inbounds ([0 x i8], [0 x i8]* @_ZN6policy3key25kNativeMessagingAllowlistE, i64 0, i64 0), i8* getelementptr inbounds ([0 x i8], [0 x i8]* @_ZN10extensions10pref_names25kNativeMessagingAllowlistE, i64 0, i64 0), i1 zeroext false) #11
  %449 = bitcast i8* %447 to %"class.policy::ConfigurationPolicyHandler"*
  call void @_ZN6policy30ConfigurationPolicyHandlerList10AddHandlerENSt3__110unique_ptrINS_26ConfigurationPolicyHandlerENS1_14default_deleteIS3_EEEE(%"class.policy::ConfigurationPolicyHandlerList"* nonnull %43, %"class.policy::ConfigurationPolicyHandler"* nonnull %449) #11
  %450 = call i8* @_Znwm(i64 40) #10
  %451 = bitcast i8* %450 to %"class.extensions::NativeMessagingHostListPolicyHandler"*
  call void @_ZN10extensions36NativeMessagingHostListPolicyHandlerC1EPKcS2_b(%"class.extensions::NativeMessagingHostListPolicyHandler"* nonnull %451, i8* getelementptr inbounds ([0 x i8], [0 x i8]* @_ZN6policy3key25kNativeMessagingBlocklistE, i64 0, i64 0), i8* getelementptr inbounds ([0 x i8], [0 x i8]* @_ZN10extensions10pref_names25kNativeMessagingBlocklistE, i64 0, i64 0), i1 zeroext true) #11
  %452 = bitcast i8* %450 to %"class.policy::ConfigurationPolicyHandler"*
  call void @_ZN6policy30ConfigurationPolicyHandlerList10AddHandlerENSt3__110unique_ptrINS_26ConfigurationPolicyHandlerENS1_14default_deleteIS3_EEEE(%"class.policy::ConfigurationPolicyHandlerList"* nonnull %43, %"class.policy::ConfigurationPolicyHandler"* nonnull %452) #11
  %453 = call i8* @_Znwm(i64 40) #10
  %454 = bitcast i8* %453 to %"class.policy::AutoLaunchProtocolsPolicyHandler"*
  call void @_ZN6policy32AutoLaunchProtocolsPolicyHandlerC1ERKNS_6SchemaE(%"class.policy::AutoLaunchProtocolsPolicyHandler"* nonnull %454, %"class.policy::Schema"* dereferenceable(16) %0) #11
  %455 = bitcast i8* %453 to %"class.policy::ConfigurationPolicyHandler"*
  call void @_ZN6policy30ConfigurationPolicyHandlerList10AddHandlerENSt3__110unique_ptrINS_26ConfigurationPolicyHandlerENS1_14default_deleteIS3_EEEE(%"class.policy::ConfigurationPolicyHandlerList"* nonnull %43, %"class.policy::ConfigurationPolicyHandler"* nonnull %455) #11
  %456 = bitcast %"class.policy::Schema"* %5 to i8*
  call void @llvm.lifetime.start.p0i8(i64 16, i8* nonnull %456)
  %457 = call i8* @_Znwm(i64 56) #10
  %458 = bitcast i8* %457 to %"class.policy::SimpleSchemaValidatingPolicyHandler"*
  call void @_ZN6policy6SchemaC1ERKS0_(%"class.policy::Schema"* nonnull %5, %"class.policy::Schema"* dereferenceable(16) %0) #11
  call void @_ZN6policy35SimpleSchemaValidatingPolicyHandlerC1EPKcS2_NS_6SchemaENS_21SchemaOnErrorStrategyENS0_21RecommendedPermissionENS0_19MandatoryPermissionE(%"class.policy::SimpleSchemaValidatingPolicyHandler"* nonnull %458, i8* getelementptr inbounds ([0 x i8], [0 x i8]* @_ZN6policy3key35kProfilePickerOnStartupAvailabilityE, i64 0, i64 0), i8* getelementptr inbounds ([0 x i8], [0 x i8]* @_ZN5prefs42kBrowserProfilePickerAvailabilityOnStartupE, i64 0, i64 0), %"class.policy::Schema"* nonnull %5, i32 1, i32 1, i32 0) #11
  call void @_ZN6policy6SchemaD1Ev(%"class.policy::Schema"* nonnull %5) #11
  call void @llvm.lifetime.end.p0i8(i64 16, i8* nonnull %456)
  %459 = bitcast i8* %457 to %"class.policy::ConfigurationPolicyHandler"*
  call void @_ZN6policy30ConfigurationPolicyHandlerList10AddHandlerENSt3__110unique_ptrINS_26ConfigurationPolicyHandlerENS1_14default_deleteIS3_EEEE(%"class.policy::ConfigurationPolicyHandlerList"* nonnull %43, %"class.policy::ConfigurationPolicyHandler"* nonnull %459) #11
  %460 = call i8* @_Znwm(i64 40) #10
  %461 = bitcast i8* %460 to %"class.extensions::ExtensionListPolicyHandler"*
  call void @_ZN10extensions26ExtensionListPolicyHandlerC1EPKcS2_b(%"class.extensions::ExtensionListPolicyHandler"* nonnull %461, i8* getelementptr inbounds ([0 x i8], [0 x i8]* @_ZN6policy3key26kExtensionInstallAllowlistE, i64 0, i64 0), i8* getelementptr inbounds ([0 x i8], [0 x i8]* @_ZN10extensions10pref_names17kInstallAllowListE, i64 0, i64 0), i1 zeroext false) #11
  %462 = bitcast i8* %460 to %"class.policy::ConfigurationPolicyHandler"*
  call void @_ZN6policy30ConfigurationPolicyHandlerList10AddHandlerENSt3__110unique_ptrINS_26ConfigurationPolicyHandlerENS1_14default_deleteIS3_EEEE(%"class.policy::ConfigurationPolicyHandlerList"* nonnull %43, %"class.policy::ConfigurationPolicyHandler"* nonnull %462) #11
  %463 = call i8* @_Znwm(i64 40) #10
  %464 = bitcast i8* %463 to %"class.extensions::ExtensionListPolicyHandler"*
  call void @_ZN10extensions26ExtensionListPolicyHandlerC1EPKcS2_b(%"class.extensions::ExtensionListPolicyHandler"* nonnull %464, i8* getelementptr inbounds ([0 x i8], [0 x i8]* @_ZN6policy3key26kExtensionInstallBlocklistE, i64 0, i64 0), i8* getelementptr inbounds ([0 x i8], [0 x i8]* @_ZN10extensions10pref_names16kInstallDenyListE, i64 0, i64 0), i1 zeroext true) #11
  %465 = bitcast i8* %463 to %"class.policy::ConfigurationPolicyHandler"*
  call void @_ZN6policy30ConfigurationPolicyHandlerList10AddHandlerENSt3__110unique_ptrINS_26ConfigurationPolicyHandlerENS1_14default_deleteIS3_EEEE(%"class.policy::ConfigurationPolicyHandlerList"* nonnull %43, %"class.policy::ConfigurationPolicyHandler"* nonnull %465) #11
  %466 = call i8* @_Znwm(i64 24) #10
  %467 = bitcast i8* %466 to %"class.extensions::ExtensionInstallForceListPolicyHandler"*
  call void @_ZN10extensions38ExtensionInstallForceListPolicyHandlerC1Ev(%"class.extensions::ExtensionInstallForceListPolicyHandler"* nonnull %467) #11
  %468 = bitcast i8* %466 to %"class.policy::ConfigurationPolicyHandler"*
  call void @_ZN6policy30ConfigurationPolicyHandlerList10AddHandlerENSt3__110unique_ptrINS_26ConfigurationPolicyHandlerENS1_14default_deleteIS3_EEEE(%"class.policy::ConfigurationPolicyHandlerList"* nonnull %43, %"class.policy::ConfigurationPolicyHandler"* nonnull %468) #11
  %469 = call i8* @_Znwm(i64 32) #10
  %470 = bitcast i8* %469 to %"class.extensions::ExtensionURLPatternListPolicyHandler"*
  call void @_ZN10extensions36ExtensionURLPatternListPolicyHandlerC1EPKcS2_(%"class.extensions::ExtensionURLPatternListPolicyHandler"* nonnull %470, i8* getelementptr inbounds ([0 x i8], [0 x i8]* @_ZN6policy3key24kExtensionInstallSourcesE, i64 0, i64 0), i8* getelementptr inbounds ([0 x i8], [0 x i8]* @_ZN10extensions10pref_names20kAllowedInstallSitesE, i64 0, i64 0)) #11
  %471 = bitcast i8* %469 to %"class.policy::ConfigurationPolicyHandler"*
  call void @_ZN6policy30ConfigurationPolicyHandlerList10AddHandlerENSt3__110unique_ptrINS_26ConfigurationPolicyHandlerENS1_14default_deleteIS3_EEEE(%"class.policy::ConfigurationPolicyHandlerList"* nonnull %43, %"class.policy::ConfigurationPolicyHandler"* nonnull %471) #11
  %472 = bitcast %"class.base::RepeatingCallback.327"* %41 to i8*
  call void @llvm.lifetime.start.p0i8(i64 8, i8* nonnull %472) #11
  %473 = call i8* @_Znwm(i64 48) #10, !noalias !12
  %474 = bitcast i8* %473 to %"class.base::internal::BindStateBase"*
  call void @_ZN4base8internal13BindStateBaseC2EPFvvEPFvPKS1_E(%"class.base::internal::BindStateBase"* nonnull %474, void ()* bitcast (void (%"class.base::internal::BindStateBase"*, %"class.std::__1::vector.328"*)* @_ZN4base8internal7InvokerINS0_9BindStateIPFvPNSt3__16vectorINS3_10unique_ptrIN6policy30StringMappingListPolicyHandler12MappingEntryENS3_14default_deleteIS8_EEEENS3_9allocatorISB_EEEEEJEEESG_E3RunEPNS0_13BindStateBaseESF_ to void ()*), void (%"class.base::internal::BindStateBase"*)* nonnull @_ZN4base8internal9BindStateIPFvPNSt3__16vectorINS2_10unique_ptrIN6policy30StringMappingListPolicyHandler12MappingEntryENS2_14default_deleteIS7_EEEENS2_9allocatorISA_EEEEEJEE7DestroyEPKNS0_13BindStateBaseE) #11, !noalias !12
  %475 = getelementptr inbounds i8, i8* %473, i64 32
  %476 = bitcast i8* %475 to void (%"class.std::__1::vector.328"*)**
  store void (%"class.std::__1::vector.328"*)* @_ZN6policy12_GLOBAL__N_127GetExtensionAllowedTypesMapEPNSt3__16vectorINS1_10unique_ptrINS_30StringMappingListPolicyHandler12MappingEntryENS1_14default_deleteIS5_EEEENS1_9allocatorIS8_EEEE, void (%"class.std::__1::vector.328"*)** %476, align 8, !noalias !12
  %477 = bitcast %"class.base::RepeatingCallback.327"* %41 to i8**
  store i8* %473, i8** %477, align 8, !alias.scope !12
  %478 = call i8* @_Znwm(i64 64) #10
  %479 = bitcast i8* %478 to %"class.policy::StringMappingListPolicyHandler"*
  call void @_ZN6policy30StringMappingListPolicyHandlerC1EPKcS2_RKN4base17RepeatingCallbackIFvPNSt3__16vectorINS5_10unique_ptrINS0_12MappingEntryENS5_14default_deleteIS8_EEEENS5_9allocatorISB_EEEEEEE(%"class.policy::StringMappingListPolicyHandler"* nonnull %479, i8* getelementptr inbounds ([0 x i8], [0 x i8]* @_ZN6policy3key22kExtensionAllowedTypesE, i64 0, i64 0), i8* getelementptr inbounds ([0 x i8], [0 x i8]* @_ZN10extensions10pref_names13kAllowedTypesE, i64 0, i64 0), %"class.base::RepeatingCallback.327"* nonnull dereferenceable(8) %41) #11
  %480 = bitcast i8* %478 to %"class.policy::ConfigurationPolicyHandler"*
  call void @_ZN6policy30ConfigurationPolicyHandlerList10AddHandlerENSt3__110unique_ptrINS_26ConfigurationPolicyHandlerENS1_14default_deleteIS3_EEEE(%"class.policy::ConfigurationPolicyHandlerList"* nonnull %43, %"class.policy::ConfigurationPolicyHandler"* nonnull %480) #11
  %481 = getelementptr inbounds %"class.base::RepeatingCallback.327", %"class.base::RepeatingCallback.327"* %41, i64 0, i32 0, i32 0
  call void @_ZN4base8internal12CallbackBaseD2Ev(%"class.base::internal::CallbackBase"* nonnull %481) #11
  call void @llvm.lifetime.end.p0i8(i64 8, i8* nonnull %472) #11
  %482 = call i8* @_Znwm(i64 40) #10
  %483 = bitcast i8* %482 to %"class.extensions::ExtensionSettingsPolicyHandler"*
  call void @_ZN10extensions30ExtensionSettingsPolicyHandlerC1ERKN6policy6SchemaE(%"class.extensions::ExtensionSettingsPolicyHandler"* nonnull %483, %"class.policy::Schema"* dereferenceable(16) %0) #11
  %484 = bitcast i8* %482 to %"class.policy::ConfigurationPolicyHandler"*
  call void @_ZN6policy30ConfigurationPolicyHandlerList10AddHandlerENSt3__110unique_ptrINS_26ConfigurationPolicyHandlerENS1_14default_deleteIS3_EEEE(%"class.policy::ConfigurationPolicyHandlerList"* nonnull %43, %"class.policy::ConfigurationPolicyHandler"* nonnull %484) #11
  %485 = call i8* @_Znwm(i64 40) #10
  %486 = bitcast i8* %485 to %"class.policy::IntRangePolicyHandler"*
  call void @_ZN6policy21IntRangePolicyHandlerC1EPKcS2_iib(%"class.policy::IntRangePolicyHandler"* nonnull %486, i8* getelementptr inbounds ([0 x i8], [0 x i8]* @_ZN6policy3key23kDeviceChromeVariationsE, i64 0, i64 0), i8* null, i32 0, i32 2, i1 zeroext false) #11
  %487 = bitcast i8* %485 to %"class.policy::ConfigurationPolicyHandler"*
  call void @_ZN6policy30ConfigurationPolicyHandlerList10AddHandlerENSt3__110unique_ptrINS_26ConfigurationPolicyHandlerENS1_14default_deleteIS3_EEEE(%"class.policy::ConfigurationPolicyHandlerList"* nonnull %43, %"class.policy::ConfigurationPolicyHandler"* nonnull %487) #11
  %488 = bitcast %"class.policy::Schema"* %4 to i8*
  call void @llvm.lifetime.start.p0i8(i64 16, i8* nonnull %488)
  %489 = call i8* @_Znwm(i64 56) #10
  %490 = bitcast i8* %489 to %"class.policy::SimpleSchemaValidatingPolicyHandler"*
  call void @_ZN6policy6SchemaC1ERKS0_(%"class.policy::Schema"* nonnull %4, %"class.policy::Schema"* dereferenceable(16) %0) #11
  call void @_ZN6policy35SimpleSchemaValidatingPolicyHandlerC1EPKcS2_NS_6SchemaENS_21SchemaOnErrorStrategyENS0_21RecommendedPermissionENS0_19MandatoryPermissionE(%"class.policy::SimpleSchemaValidatingPolicyHandler"* nonnull %490, i8* getelementptr inbounds ([0 x i8], [0 x i8]* @_ZN6policy3key23kWebAppInstallForceListE, i64 0, i64 0), i8* getelementptr inbounds ([0 x i8], [0 x i8]* @_ZN5prefs23kWebAppInstallForceListE, i64 0, i64 0), %"class.policy::Schema"* nonnull %4, i32 1, i32 1, i32 0) #11
  call void @_ZN6policy6SchemaD1Ev(%"class.policy::Schema"* nonnull %4) #11
  call void @llvm.lifetime.end.p0i8(i64 16, i8* nonnull %488)
  %491 = bitcast i8* %489 to %"class.policy::ConfigurationPolicyHandler"*
  call void @_ZN6policy30ConfigurationPolicyHandlerList10AddHandlerENSt3__110unique_ptrINS_26ConfigurationPolicyHandlerENS1_14default_deleteIS3_EEEE(%"class.policy::ConfigurationPolicyHandlerList"* nonnull %43, %"class.policy::ConfigurationPolicyHandler"* nonnull %491) #11
  %492 = bitcast %"class.policy::Schema"* %3 to i8*
  call void @llvm.lifetime.start.p0i8(i64 16, i8* nonnull %492)
  %493 = call i8* @_Znwm(i64 56) #10
  %494 = bitcast i8* %493 to %"class.policy::SimpleSchemaValidatingPolicyHandler"*
  call void @_ZN6policy6SchemaC1ERKS0_(%"class.policy::Schema"* nonnull %3, %"class.policy::Schema"* dereferenceable(16) %0) #11
  call void @_ZN6policy35SimpleSchemaValidatingPolicyHandlerC1EPKcS2_NS_6SchemaENS_21SchemaOnErrorStrategyENS0_21RecommendedPermissionENS0_19MandatoryPermissionE(%"class.policy::SimpleSchemaValidatingPolicyHandler"* nonnull %494, i8* getelementptr inbounds ([0 x i8], [0 x i8]* @_ZN6policy3key30kManagedConfigurationPerOriginE, i64 0, i64 0), i8* getelementptr inbounds ([0 x i8], [0 x i8]* @_ZN5prefs30kManagedConfigurationPerOriginE, i64 0, i64 0), %"class.policy::Schema"* nonnull %3, i32 1, i32 1, i32 0) #11
  call void @_ZN6policy6SchemaD1Ev(%"class.policy::Schema"* nonnull %3) #11
  call void @llvm.lifetime.end.p0i8(i64 16, i8* nonnull %492)
  %495 = bitcast i8* %493 to %"class.policy::ConfigurationPolicyHandler"*
  call void @_ZN6policy30ConfigurationPolicyHandlerList10AddHandlerENSt3__110unique_ptrINS_26ConfigurationPolicyHandlerENS1_14default_deleteIS3_EEEE(%"class.policy::ConfigurationPolicyHandlerList"* nonnull %43, %"class.policy::ConfigurationPolicyHandler"* nonnull %495) #11
  %496 = bitcast %"class.policy::Schema"* %2 to i8*
  call void @llvm.lifetime.start.p0i8(i64 16, i8* nonnull %496)
  %497 = call i8* @_Znwm(i64 56) #10
  %498 = bitcast i8* %497 to %"class.policy::SimpleSchemaValidatingPolicyHandler"*
  call void @_ZN6policy6SchemaC1ERKS0_(%"class.policy::Schema"* nonnull %2, %"class.policy::Schema"* dereferenceable(16) %0) #11
  call void @_ZN6policy35SimpleSchemaValidatingPolicyHandlerC1EPKcS2_NS_6SchemaENS_21SchemaOnErrorStrategyENS0_21RecommendedPermissionENS0_19MandatoryPermissionE(%"class.policy::SimpleSchemaValidatingPolicyHandler"* nonnull %498, i8* getelementptr inbounds ([0 x i8], [0 x i8]* @_ZN6policy3key15kWebAppSettingsE, i64 0, i64 0), i8* getelementptr inbounds ([0 x i8], [0 x i8]* @_ZN5prefs15kWebAppSettingsE, i64 0, i64 0), %"class.policy::Schema"* nonnull %2, i32 1, i32 1, i32 0) #11
  call void @_ZN6policy6SchemaD1Ev(%"class.policy::Schema"* nonnull %2) #11
  call void @llvm.lifetime.end.p0i8(i64 16, i8* nonnull %496)
  %499 = bitcast i8* %497 to %"class.policy::ConfigurationPolicyHandler"*
  call void @_ZN6policy30ConfigurationPolicyHandlerList10AddHandlerENSt3__110unique_ptrINS_26ConfigurationPolicyHandlerENS1_14default_deleteIS3_EEEE(%"class.policy::ConfigurationPolicyHandlerList"* nonnull %43, %"class.policy::ConfigurationPolicyHandler"* nonnull %499) #11
  %500 = call i8* @_Znwm(i64 64) #10
  %501 = bitcast i8* %500 to %"class.policy::PrintingAllowedBackgroundGraphicsModesPolicyHandler"*
  call void @_ZN6policy51PrintingAllowedBackgroundGraphicsModesPolicyHandlerC1Ev(%"class.policy::PrintingAllowedBackgroundGraphicsModesPolicyHandler"* nonnull %501) #11
  %502 = bitcast i8* %500 to %"class.policy::ConfigurationPolicyHandler"*
  call void @_ZN6policy30ConfigurationPolicyHandlerList10AddHandlerENSt3__110unique_ptrINS_26ConfigurationPolicyHandlerENS1_14default_deleteIS3_EEEE(%"class.policy::ConfigurationPolicyHandlerList"* nonnull %43, %"class.policy::ConfigurationPolicyHandler"* nonnull %502) #11
  %503 = call i8* @_Znwm(i64 64) #10
  %504 = bitcast i8* %503 to %"class.policy::PrintingBackgroundGraphicsDefaultPolicyHandler"*
  call void @_ZN6policy46PrintingBackgroundGraphicsDefaultPolicyHandlerC1Ev(%"class.policy::PrintingBackgroundGraphicsDefaultPolicyHandler"* nonnull %504) #11
  %505 = bitcast i8* %503 to %"class.policy::ConfigurationPolicyHandler"*
  call void @_ZN6policy30ConfigurationPolicyHandlerList10AddHandlerENSt3__110unique_ptrINS_26ConfigurationPolicyHandlerENS1_14default_deleteIS3_EEEE(%"class.policy::ConfigurationPolicyHandlerList"* nonnull %43, %"class.policy::ConfigurationPolicyHandler"* nonnull %505) #11
  %506 = call i8* @_Znwm(i64 24) #10
  %507 = bitcast i8* %506 to %"class.policy::PrintingPaperSizeDefaultPolicyHandler"*
  call void @_ZN6policy37PrintingPaperSizeDefaultPolicyHandlerC1Ev(%"class.policy::PrintingPaperSizeDefaultPolicyHandler"* nonnull %507) #11
  %508 = bitcast i8* %506 to %"class.policy::ConfigurationPolicyHandler"*
  call void @_ZN6policy30ConfigurationPolicyHandlerList10AddHandlerENSt3__110unique_ptrINS_26ConfigurationPolicyHandlerENS1_14default_deleteIS3_EEEE(%"class.policy::ConfigurationPolicyHandlerList"* nonnull %43, %"class.policy::ConfigurationPolicyHandler"* nonnull %508) #11
  %509 = call i8* @_Znwm(i64 24) #10
  %510 = bitcast i8* %509 to %class.SpellcheckLanguagePolicyHandler*
  call void @_ZN31SpellcheckLanguagePolicyHandlerC1Ev(%class.SpellcheckLanguagePolicyHandler* nonnull %510) #11
  %511 = bitcast i8* %509 to %"class.policy::ConfigurationPolicyHandler"*
  call void @_ZN6policy30ConfigurationPolicyHandlerList10AddHandlerENSt3__110unique_ptrINS_26ConfigurationPolicyHandlerENS1_14default_deleteIS3_EEEE(%"class.policy::ConfigurationPolicyHandlerList"* nonnull %43, %"class.policy::ConfigurationPolicyHandler"* nonnull %511) #11
  %512 = call i8* @_Znwm(i64 24) #10
  %513 = bitcast i8* %512 to %class.SpellcheckLanguageBlocklistPolicyHandler*
  call void @_ZN40SpellcheckLanguageBlocklistPolicyHandlerC1EPKc(%class.SpellcheckLanguageBlocklistPolicyHandler* nonnull %513, i8* getelementptr inbounds ([0 x i8], [0 x i8]* @_ZN6policy3key28kSpellcheckLanguageBlocklistE, i64 0, i64 0)) #11
  %514 = bitcast i8* %512 to %"class.policy::ConfigurationPolicyHandler"*
  call void @_ZN6policy30ConfigurationPolicyHandlerList10AddHandlerENSt3__110unique_ptrINS_26ConfigurationPolicyHandlerENS1_14default_deleteIS3_EEEE(%"class.policy::ConfigurationPolicyHandlerList"* nonnull %43, %"class.policy::ConfigurationPolicyHandler"* nonnull %514) #11
  %515 = call i8* @_Znwm(i64 32) #10
  %516 = bitcast i8* %515 to %"class.policy::SimplePolicyHandler"*
  call void @_ZN6policy19SimplePolicyHandlerC1EPKcS2_N4base5Value4TypeE(%"class.policy::SimplePolicyHandler"* nonnull %516, i8* getelementptr inbounds ([0 x i8], [0 x i8]* @_ZN6policy3key25kAllowNativeNotificationsE, i64 0, i64 0), i8* getelementptr inbounds ([0 x i8], [0 x i8]* @_ZN5prefs25kAllowNativeNotificationsE, i64 0, i64 0), i8 zeroext 1) #11
  %517 = call i8* @_Znwm(i64 32) #10
  %518 = bitcast i8* %517 to %"class.policy::SimplePolicyHandler"*
  call void @_ZN6policy19SimplePolicyHandlerC1EPKcS2_N4base5Value4TypeE(%"class.policy::SimplePolicyHandler"* nonnull %518, i8* getelementptr inbounds ([0 x i8], [0 x i8]* @_ZN6policy3key25kAllowSystemNotificationsE, i64 0, i64 0), i8* getelementptr inbounds ([0 x i8], [0 x i8]* @_ZN5prefs25kAllowSystemNotificationsE, i64 0, i64 0), i8 zeroext 1) #11
  %519 = call i8* @_Znwm(i64 24) #10
  %520 = bitcast i8* %519 to %"class.policy::SimpleDeprecatingPolicyHandler"*
  %521 = bitcast i8* %515 to %"class.policy::NamedPolicyHandler"*
  %522 = bitcast i8* %517 to %"class.policy::NamedPolicyHandler"*
  call void @_ZN6policy30SimpleDeprecatingPolicyHandlerC1ENSt3__110unique_ptrINS_18NamedPolicyHandlerENS1_14default_deleteIS3_EEEES6_(%"class.policy::SimpleDeprecatingPolicyHandler"* nonnull %520, %"class.policy::NamedPolicyHandler"* nonnull %521, %"class.policy::NamedPolicyHandler"* nonnull %522) #11
  %523 = bitcast i8* %519 to %"class.policy::ConfigurationPolicyHandler"*
  call void @_ZN6policy30ConfigurationPolicyHandlerList10AddHandlerENSt3__110unique_ptrINS_26ConfigurationPolicyHandlerENS1_14default_deleteIS3_EEEE(%"class.policy::ConfigurationPolicyHandlerList"* nonnull %43, %"class.policy::ConfigurationPolicyHandler"* nonnull %523) #11
  %524 = load %"class.std::__1::unique_ptr.3"*, %"class.std::__1::unique_ptr.3"** %383, align 16
  %525 = icmp eq %"class.std::__1::unique_ptr.3"* %524, null
  br i1 %525, label %548, label %526

526:                                              ; preds = %442
  %527 = bitcast %"class.std::__1::unique_ptr.3"* %524 to i8*
  %528 = load %"class.std::__1::unique_ptr.3"*, %"class.std::__1::unique_ptr.3"** %384, align 8
  %529 = icmp eq %"class.std::__1::unique_ptr.3"* %528, %524
  br i1 %529, label %546, label %530

530:                                              ; preds = %526, %541
  %531 = phi %"class.std::__1::unique_ptr.3"* [ %532, %541 ], [ %528, %526 ]
  %532 = getelementptr inbounds %"class.std::__1::unique_ptr.3", %"class.std::__1::unique_ptr.3"* %531, i64 -1
  %533 = getelementptr inbounds %"class.std::__1::unique_ptr.3", %"class.std::__1::unique_ptr.3"* %532, i64 0, i32 0, i32 0, i32 0
  %534 = load %"class.policy::ConfigurationPolicyHandler"*, %"class.policy::ConfigurationPolicyHandler"** %533, align 8
  store %"class.policy::ConfigurationPolicyHandler"* null, %"class.policy::ConfigurationPolicyHandler"** %533, align 8
  %535 = icmp eq %"class.policy::ConfigurationPolicyHandler"* %534, null
  br i1 %535, label %541, label %536

536:                                              ; preds = %530
  %537 = bitcast %"class.policy::ConfigurationPolicyHandler"* %534 to void (%"class.policy::ConfigurationPolicyHandler"*)***
  %538 = load void (%"class.policy::ConfigurationPolicyHandler"*)**, void (%"class.policy::ConfigurationPolicyHandler"*)*** %537, align 8
  %539 = getelementptr inbounds void (%"class.policy::ConfigurationPolicyHandler"*)*, void (%"class.policy::ConfigurationPolicyHandler"*)** %538, i64 1
  %540 = load void (%"class.policy::ConfigurationPolicyHandler"*)*, void (%"class.policy::ConfigurationPolicyHandler"*)** %539, align 8
  call void %540(%"class.policy::ConfigurationPolicyHandler"* nonnull %534) #11
  br label %541

541:                                              ; preds = %536, %530
  %542 = icmp eq %"class.std::__1::unique_ptr.3"* %532, %524
  br i1 %542, label %543, label %530

543:                                              ; preds = %541
  %544 = bitcast %"class.std::__1::vector"* %39 to i8**
  %545 = load i8*, i8** %544, align 16
  br label %546

546:                                              ; preds = %543, %526
  %547 = phi i8* [ %545, %543 ], [ %527, %526 ]
  store %"class.std::__1::unique_ptr.3"* %524, %"class.std::__1::unique_ptr.3"** %384, align 8
  call void @_ZdlPv(i8* %547) #10
  br label %548

548:                                              ; preds = %442, %546
  call void @llvm.lifetime.end.p0i8(i64 24, i8* nonnull %382) #11
  %549 = load %"class.std::__1::unique_ptr.3"*, %"class.std::__1::unique_ptr.3"** %287, align 16
  %550 = icmp eq %"class.std::__1::unique_ptr.3"* %549, null
  br i1 %550, label %573, label %551

551:                                              ; preds = %548
  %552 = bitcast %"class.std::__1::unique_ptr.3"* %549 to i8*
  %553 = load %"class.std::__1::unique_ptr.3"*, %"class.std::__1::unique_ptr.3"** %288, align 8
  %554 = icmp eq %"class.std::__1::unique_ptr.3"* %553, %549
  br i1 %554, label %571, label %555

555:                                              ; preds = %551, %566
  %556 = phi %"class.std::__1::unique_ptr.3"* [ %557, %566 ], [ %553, %551 ]
  %557 = getelementptr inbounds %"class.std::__1::unique_ptr.3", %"class.std::__1::unique_ptr.3"* %556, i64 -1
  %558 = getelementptr inbounds %"class.std::__1::unique_ptr.3", %"class.std::__1::unique_ptr.3"* %557, i64 0, i32 0, i32 0, i32 0
  %559 = load %"class.policy::ConfigurationPolicyHandler"*, %"class.policy::ConfigurationPolicyHandler"** %558, align 8
  store %"class.policy::ConfigurationPolicyHandler"* null, %"class.policy::ConfigurationPolicyHandler"** %558, align 8
  %560 = icmp eq %"class.policy::ConfigurationPolicyHandler"* %559, null
  br i1 %560, label %566, label %561

561:                                              ; preds = %555
  %562 = bitcast %"class.policy::ConfigurationPolicyHandler"* %559 to void (%"class.policy::ConfigurationPolicyHandler"*)***
  %563 = load void (%"class.policy::ConfigurationPolicyHandler"*)**, void (%"class.policy::ConfigurationPolicyHandler"*)*** %562, align 8
  %564 = getelementptr inbounds void (%"class.policy::ConfigurationPolicyHandler"*)*, void (%"class.policy::ConfigurationPolicyHandler"*)** %563, i64 1
  %565 = load void (%"class.policy::ConfigurationPolicyHandler"*)*, void (%"class.policy::ConfigurationPolicyHandler"*)** %564, align 8
  call void %565(%"class.policy::ConfigurationPolicyHandler"* nonnull %559) #11
  br label %566

566:                                              ; preds = %561, %555
  %567 = icmp eq %"class.std::__1::unique_ptr.3"* %557, %549
  br i1 %567, label %568, label %555

568:                                              ; preds = %566
  %569 = bitcast %"class.std::__1::vector"* %36 to i8**
  %570 = load i8*, i8** %569, align 16
  br label %571

571:                                              ; preds = %568, %551
  %572 = phi i8* [ %570, %568 ], [ %552, %551 ]
  store %"class.std::__1::unique_ptr.3"* %549, %"class.std::__1::unique_ptr.3"** %288, align 8
  call void @_ZdlPv(i8* %572) #10
  br label %573

573:                                              ; preds = %548, %571
  call void @llvm.lifetime.end.p0i8(i64 24, i8* nonnull %286) #11
  ret %"class.policy::ConfigurationPolicyHandlerList"* %43

574:                                              ; preds = %574, %62
  %575 = phi i64 [ 0, %62 ], [ %585, %574 ]
  %576 = getelementptr inbounds [215 x %"struct.policy::PolicyToPreferenceMapEntry"], [215 x %"struct.policy::PolicyToPreferenceMapEntry"]* @_ZN6policy12_GLOBAL__N_116kSimplePolicyMapE, i64 0, i64 %575, i32 0
  %577 = getelementptr inbounds [215 x %"struct.policy::PolicyToPreferenceMapEntry"], [215 x %"struct.policy::PolicyToPreferenceMapEntry"]* @_ZN6policy12_GLOBAL__N_116kSimplePolicyMapE, i64 0, i64 %575, i32 1
  %578 = getelementptr inbounds [215 x %"struct.policy::PolicyToPreferenceMapEntry"], [215 x %"struct.policy::PolicyToPreferenceMapEntry"]* @_ZN6policy12_GLOBAL__N_116kSimplePolicyMapE, i64 0, i64 %575, i32 2
  %579 = call i8* @_Znwm(i64 32) #10
  %580 = bitcast i8* %579 to %"class.policy::SimplePolicyHandler"*
  %581 = load i8*, i8** %576, align 8
  %582 = load i8*, i8** %577, align 8
  %583 = load i8, i8* %578, align 8
  call void @_ZN6policy19SimplePolicyHandlerC1EPKcS2_N4base5Value4TypeE(%"class.policy::SimplePolicyHandler"* nonnull %580, i8* %581, i8* %582, i8 zeroext %583) #11
  %584 = bitcast i8* %579 to %"class.policy::ConfigurationPolicyHandler"*
  call void @_ZN6policy30ConfigurationPolicyHandlerList10AddHandlerENSt3__110unique_ptrINS_26ConfigurationPolicyHandlerENS1_14default_deleteIS3_EEEE(%"class.policy::ConfigurationPolicyHandlerList"* nonnull %43, %"class.policy::ConfigurationPolicyHandler"* nonnull %584) #11
  %585 = add nuw nsw i64 %575, 1
  %586 = icmp eq i64 %585, 215
  br i1 %586, label %66, label %574
}

; Function Attrs: nobuiltin nofree
declare noalias nonnull i8* @_Znwm(i64) local_unnamed_addr #2

; Function Attrs: argmemonly nounwind
declare void @llvm.lifetime.start.p0i8(i64 immarg, i8* nocapture) #3

declare %"struct.policy::PolicyDetails"* @_ZN6policy22GetChromePolicyDetailsERKNSt3__112basic_stringIcNS0_11char_traitsIcEENS0_9allocatorIcEEEE(%"class.std::__1::basic_string"* dereferenceable(24)) #4

declare void @_ZN6policy30ConfigurationPolicyHandlerListC1ERKN4base17RepeatingCallbackIFvPNS_23PolicyHandlerParametersEEEERKNS2_IFPKNS_13PolicyDetailsERKNSt3__112basic_stringIcNSC_11char_traitsIcEENSC_9allocatorIcEEEEEEEb(%"class.policy::ConfigurationPolicyHandlerList"*, %"class.base::RepeatingCallback"* dereferenceable(8), %"class.base::RepeatingCallback.13"* dereferenceable(8), i1 zeroext) unnamed_addr #4

; Function Attrs: argmemonly nounwind
declare void @llvm.lifetime.end.p0i8(i64 immarg, i8* nocapture) #3

declare void @_ZN6policy30ConfigurationPolicyHandlerList10AddHandlerENSt3__110unique_ptrINS_26ConfigurationPolicyHandlerENS1_14default_deleteIS3_EEEE(%"class.policy::ConfigurationPolicyHandlerList"*, %"class.policy::ConfigurationPolicyHandler"*) local_unnamed_addr #4

declare void @_ZNK6policy6Schema19GetValidationSchemaEv(%"class.policy::Schema"* sret, %"class.policy::Schema"*) local_unnamed_addr #4

; Function Attrs: nounwind
declare void @_ZN6policy6SchemaD1Ev(%"class.policy::Schema"*) unnamed_addr #5

; Function Attrs: nounwind ssp uwtable
define internal void @_ZN6policy12_GLOBAL__N_127GetExtensionAllowedTypesMapEPNSt3__16vectorINS1_10unique_ptrINS_30StringMappingListPolicyHandler12MappingEntryENS1_14default_deleteIS5_EEEENS1_9allocatorIS8_EEEE(%"class.std::__1::vector.328"*) #1 {
  %2 = alloca %"class.std::__1::unique_ptr.330", align 8
  %3 = load i64, i64* @_ZN10extensions16schema_constants20kAllowedTypesMapSizeE, align 8
  %4 = icmp eq i64 %3, 0
  br i1 %4, label %12, label %5

5:                                                ; preds = %1
  %6 = bitcast %"class.std::__1::unique_ptr.330"* %2 to i8*
  %7 = getelementptr inbounds %"class.std::__1::unique_ptr.330", %"class.std::__1::unique_ptr.330"* %2, i64 0, i32 0, i32 0, i32 0
  %8 = bitcast %"class.std::__1::unique_ptr.330"* %2 to i8**
  %9 = getelementptr inbounds %"class.std::__1::vector.328", %"class.std::__1::vector.328"* %0, i64 0, i32 0, i32 1
  %10 = getelementptr inbounds %"class.std::__1::vector.328", %"class.std::__1::vector.328"* %0, i64 0, i32 0, i32 2, i32 0, i32 0
  %11 = bitcast %"class.std::__1::unique_ptr.330"** %9 to i64*
  br label %13

12:                                               ; preds = %37, %1
  ret void

13:                                               ; preds = %5, %37
  %14 = phi i64 [ 0, %5 ], [ %38, %37 ]
  call void @llvm.lifetime.start.p0i8(i64 8, i8* nonnull %6) #11
  %15 = getelementptr inbounds [0 x %"struct.extensions::schema_constants::AllowedTypesMapEntry"], [0 x %"struct.extensions::schema_constants::AllowedTypesMapEntry"]* @_ZN10extensions16schema_constants16kAllowedTypesMapE, i64 0, i64 %14, i32 0
  %16 = getelementptr inbounds [0 x %"struct.extensions::schema_constants::AllowedTypesMapEntry"], [0 x %"struct.extensions::schema_constants::AllowedTypesMapEntry"]* @_ZN10extensions16schema_constants16kAllowedTypesMapE, i64 0, i64 %14, i32 1
  %17 = call i8* @_Znwm(i64 32) #10
  %18 = bitcast i8* %17 to %"class.base::Value"*
  %19 = load i32, i32* %16, align 8
  call void @_ZN4base5ValueC1Ei(%"class.base::Value"* nonnull %18, i32 %19) #11
  %20 = call i8* @_Znwm(i64 16) #10
  %21 = bitcast i8* %20 to %"class.policy::StringMappingListPolicyHandler::MappingEntry"*
  %22 = load i8*, i8** %15, align 8
  call void @_ZN6policy30StringMappingListPolicyHandler12MappingEntryC1EPKcNSt3__110unique_ptrIN4base5ValueENS4_14default_deleteIS7_EEEE(%"class.policy::StringMappingListPolicyHandler::MappingEntry"* nonnull %21, i8* %22, %"class.base::Value"* nonnull %18) #11
  store i8* %20, i8** %8, align 8
  %23 = load %"class.std::__1::unique_ptr.330"*, %"class.std::__1::unique_ptr.330"** %9, align 8
  %24 = load %"class.std::__1::unique_ptr.330"*, %"class.std::__1::unique_ptr.330"** %10, align 8
  %25 = icmp ult %"class.std::__1::unique_ptr.330"* %23, %24
  br i1 %25, label %26, label %31

26:                                               ; preds = %13
  %27 = ptrtoint i8* %20 to i64
  store %"class.policy::StringMappingListPolicyHandler::MappingEntry"* null, %"class.policy::StringMappingListPolicyHandler::MappingEntry"** %7, align 8
  %28 = bitcast %"class.std::__1::unique_ptr.330"* %23 to i64*
  store i64 %27, i64* %28, align 8
  %29 = getelementptr inbounds %"class.std::__1::unique_ptr.330", %"class.std::__1::unique_ptr.330"* %23, i64 1
  %30 = ptrtoint %"class.std::__1::unique_ptr.330"* %29 to i64
  store i64 %30, i64* %11, align 8
  br label %32

31:                                               ; preds = %13
  call void @_ZNSt3__16vectorINS_10unique_ptrIN6policy30StringMappingListPolicyHandler12MappingEntryENS_14default_deleteIS4_EEEENS_9allocatorIS7_EEE21__push_back_slow_pathIS7_EEvOT_(%"class.std::__1::vector.328"* %0, %"class.std::__1::unique_ptr.330"* nonnull dereferenceable(8) %2) #11
  br label %32

32:                                               ; preds = %26, %31
  %33 = load %"class.policy::StringMappingListPolicyHandler::MappingEntry"*, %"class.policy::StringMappingListPolicyHandler::MappingEntry"** %7, align 8
  store %"class.policy::StringMappingListPolicyHandler::MappingEntry"* null, %"class.policy::StringMappingListPolicyHandler::MappingEntry"** %7, align 8
  %34 = icmp eq %"class.policy::StringMappingListPolicyHandler::MappingEntry"* %33, null
  br i1 %34, label %37, label %35

35:                                               ; preds = %32
  call void @_ZN6policy30StringMappingListPolicyHandler12MappingEntryD1Ev(%"class.policy::StringMappingListPolicyHandler::MappingEntry"* nonnull %33) #11
  %36 = bitcast %"class.policy::StringMappingListPolicyHandler::MappingEntry"* %33 to i8*
  call void @_ZdlPv(i8* %36) #10
  br label %37

37:                                               ; preds = %35, %32
  call void @llvm.lifetime.end.p0i8(i64 8, i8* nonnull %6) #11
  %38 = add nuw i64 %14, 1
  %39 = icmp ult i64 %38, %3
  br i1 %39, label %13, label %12
}

; Function Attrs: nounwind
declare void @_ZN4base8internal12CallbackBaseD2Ev(%"class.base::internal::CallbackBase"*) unnamed_addr #5

declare %"class.base::CommandLine"* @_ZN4base11CommandLine17ForCurrentProcessEv() local_unnamed_addr #4

declare zeroext i1 @_ZNK4base11CommandLine9HasSwitchEPKc(%"class.base::CommandLine"*, i8*) local_unnamed_addr #4

declare i32 @_ZN6chrome10GetChannelEv() local_unnamed_addr #4

; Function Attrs: inlinehint nounwind ssp uwtable
define linkonce_odr hidden void @_ZNSt3__16vectorINS_10unique_ptrIN6policy30StringMappingListPolicyHandler12MappingEntryENS_14default_deleteIS4_EEEENS_9allocatorIS7_EEE21__push_back_slow_pathIS7_EEvOT_(%"class.std::__1::vector.328"*, %"class.std::__1::unique_ptr.330"* dereferenceable(8)) local_unnamed_addr #6 comdat align 2 {
  %3 = getelementptr inbounds %"class.std::__1::vector.328", %"class.std::__1::vector.328"* %0, i64 0, i32 0, i32 1
  %4 = bitcast %"class.std::__1::unique_ptr.330"** %3 to i64*
  %5 = load i64, i64* %4, align 8
  %6 = bitcast %"class.std::__1::vector.328"* %0 to i64*
  %7 = load i64, i64* %6, align 8
  %8 = sub i64 %5, %7
  %9 = ashr exact i64 %8, 3
  %10 = add nsw i64 %9, 1
  %11 = icmp ugt i64 %10, 2305843009213693951
  br i1 %11, label %12, label %14

12:                                               ; preds = %2
  %13 = bitcast %"class.std::__1::vector.328"* %0 to %"class.std::__1::__vector_base_common"*
  tail call void @_ZNKSt3__120__vector_base_commonILb1EE20__throw_length_errorEv(%"class.std::__1::__vector_base_common"* %13) #12
  unreachable

14:                                               ; preds = %2
  %15 = getelementptr inbounds %"class.std::__1::vector.328", %"class.std::__1::vector.328"* %0, i64 0, i32 0, i32 2, i32 0, i32 0
  %16 = bitcast %"class.std::__1::unique_ptr.330"** %15 to i64*
  %17 = load i64, i64* %16, align 8
  %18 = sub i64 %17, %7
  %19 = ashr exact i64 %18, 3
  %20 = icmp ult i64 %19, 1152921504606846975
  br i1 %20, label %21, label %29

21:                                               ; preds = %14
  %22 = ashr exact i64 %18, 2
  %23 = icmp ult i64 %22, %10
  %24 = select i1 %23, i64 %10, i64 %22
  %25 = icmp eq i64 %24, 0
  br i1 %25, label %34, label %26

26:                                               ; preds = %21
  %27 = icmp ugt i64 %24, 2305843009213693951
  br i1 %27, label %28, label %29

28:                                               ; preds = %26
  tail call void @abort() #12
  unreachable

29:                                               ; preds = %14, %26
  %30 = phi i64 [ %24, %26 ], [ 2305843009213693951, %14 ]
  %31 = shl i64 %30, 3
  %32 = tail call i8* @_Znwm(i64 %31) #10
  %33 = bitcast i8* %32 to %"class.std::__1::unique_ptr.330"*
  br label %34

34:                                               ; preds = %21, %29
  %35 = phi i64 [ %30, %29 ], [ 0, %21 ]
  %36 = phi %"class.std::__1::unique_ptr.330"* [ %33, %29 ], [ null, %21 ]
  %37 = getelementptr inbounds %"class.std::__1::unique_ptr.330", %"class.std::__1::unique_ptr.330"* %36, i64 %9
  %38 = getelementptr inbounds %"class.std::__1::unique_ptr.330", %"class.std::__1::unique_ptr.330"* %36, i64 %35
  %39 = ptrtoint %"class.std::__1::unique_ptr.330"* %38 to i64
  %40 = getelementptr inbounds %"class.std::__1::unique_ptr.330", %"class.std::__1::unique_ptr.330"* %1, i64 0, i32 0, i32 0, i32 0
  %41 = bitcast %"class.std::__1::unique_ptr.330"* %1 to i64*
  %42 = load i64, i64* %41, align 8
  store %"class.policy::StringMappingListPolicyHandler::MappingEntry"* null, %"class.policy::StringMappingListPolicyHandler::MappingEntry"** %40, align 8
  %43 = bitcast %"class.std::__1::unique_ptr.330"* %37 to i64*
  store i64 %42, i64* %43, align 8
  %44 = getelementptr inbounds %"class.std::__1::unique_ptr.330", %"class.std::__1::unique_ptr.330"* %37, i64 1
  %45 = ptrtoint %"class.std::__1::unique_ptr.330"* %44 to i64
  %46 = getelementptr inbounds %"class.std::__1::vector.328", %"class.std::__1::vector.328"* %0, i64 0, i32 0, i32 0
  %47 = load %"class.std::__1::unique_ptr.330"*, %"class.std::__1::unique_ptr.330"** %46, align 8
  %48 = ptrtoint %"class.std::__1::unique_ptr.330"* %47 to i64
  %49 = load %"class.std::__1::unique_ptr.330"*, %"class.std::__1::unique_ptr.330"** %3, align 8
  %50 = icmp eq %"class.std::__1::unique_ptr.330"* %49, %47
  br i1 %50, label %132, label %51

51:                                               ; preds = %34
  %52 = getelementptr %"class.std::__1::unique_ptr.330", %"class.std::__1::unique_ptr.330"* %49, i64 -1, i32 0, i32 0, i32 0
  %53 = ptrtoint %"class.policy::StringMappingListPolicyHandler::MappingEntry"** %52 to i64
  %54 = sub i64 %53, %48
  %55 = lshr i64 %54, 3
  %56 = add nuw nsw i64 %55, 1
  %57 = and i64 %56, 7
  %58 = icmp eq i64 %57, 0
  br i1 %58, label %71, label %59

59:                                               ; preds = %51, %59
  %60 = phi %"class.std::__1::unique_ptr.330"* [ %63, %59 ], [ %37, %51 ]
  %61 = phi %"class.std::__1::unique_ptr.330"* [ %64, %59 ], [ %49, %51 ]
  %62 = phi i64 [ %69, %59 ], [ %57, %51 ]
  %63 = getelementptr inbounds %"class.std::__1::unique_ptr.330", %"class.std::__1::unique_ptr.330"* %60, i64 -1
  %64 = getelementptr inbounds %"class.std::__1::unique_ptr.330", %"class.std::__1::unique_ptr.330"* %61, i64 -1
  %65 = getelementptr inbounds %"class.std::__1::unique_ptr.330", %"class.std::__1::unique_ptr.330"* %64, i64 0, i32 0, i32 0, i32 0
  %66 = bitcast %"class.std::__1::unique_ptr.330"* %64 to i64*
  %67 = load i64, i64* %66, align 8
  store %"class.policy::StringMappingListPolicyHandler::MappingEntry"* null, %"class.policy::StringMappingListPolicyHandler::MappingEntry"** %65, align 8
  %68 = bitcast %"class.std::__1::unique_ptr.330"* %63 to i64*
  store i64 %67, i64* %68, align 8
  %69 = add i64 %62, -1
  %70 = icmp eq i64 %69, 0
  br i1 %70, label %71, label %59, !llvm.loop !17

71:                                               ; preds = %59, %51
  %72 = phi %"class.std::__1::unique_ptr.330"* [ undef, %51 ], [ %63, %59 ]
  %73 = phi %"class.std::__1::unique_ptr.330"* [ %37, %51 ], [ %63, %59 ]
  %74 = phi %"class.std::__1::unique_ptr.330"* [ %49, %51 ], [ %64, %59 ]
  %75 = icmp ult i64 %54, 56
  br i1 %75, label %128, label %76

76:                                               ; preds = %71, %76
  %77 = phi %"class.std::__1::unique_ptr.330"* [ %121, %76 ], [ %73, %71 ]
  %78 = phi %"class.std::__1::unique_ptr.330"* [ %122, %76 ], [ %74, %71 ]
  %79 = getelementptr inbounds %"class.std::__1::unique_ptr.330", %"class.std::__1::unique_ptr.330"* %77, i64 -1
  %80 = getelementptr inbounds %"class.std::__1::unique_ptr.330", %"class.std::__1::unique_ptr.330"* %78, i64 -1
  %81 = getelementptr inbounds %"class.std::__1::unique_ptr.330", %"class.std::__1::unique_ptr.330"* %80, i64 0, i32 0, i32 0, i32 0
  %82 = bitcast %"class.std::__1::unique_ptr.330"* %80 to i64*
  %83 = load i64, i64* %82, align 8
  store %"class.policy::StringMappingListPolicyHandler::MappingEntry"* null, %"class.policy::StringMappingListPolicyHandler::MappingEntry"** %81, align 8
  %84 = bitcast %"class.std::__1::unique_ptr.330"* %79 to i64*
  store i64 %83, i64* %84, align 8
  %85 = getelementptr inbounds %"class.std::__1::unique_ptr.330", %"class.std::__1::unique_ptr.330"* %77, i64 -2
  %86 = getelementptr inbounds %"class.std::__1::unique_ptr.330", %"class.std::__1::unique_ptr.330"* %78, i64 -2
  %87 = getelementptr inbounds %"class.std::__1::unique_ptr.330", %"class.std::__1::unique_ptr.330"* %86, i64 0, i32 0, i32 0, i32 0
  %88 = bitcast %"class.std::__1::unique_ptr.330"* %86 to i64*
  %89 = load i64, i64* %88, align 8
  store %"class.policy::StringMappingListPolicyHandler::MappingEntry"* null, %"class.policy::StringMappingListPolicyHandler::MappingEntry"** %87, align 8
  %90 = bitcast %"class.std::__1::unique_ptr.330"* %85 to i64*
  store i64 %89, i64* %90, align 8
  %91 = getelementptr inbounds %"class.std::__1::unique_ptr.330", %"class.std::__1::unique_ptr.330"* %77, i64 -3
  %92 = getelementptr inbounds %"class.std::__1::unique_ptr.330", %"class.std::__1::unique_ptr.330"* %78, i64 -3
  %93 = getelementptr inbounds %"class.std::__1::unique_ptr.330", %"class.std::__1::unique_ptr.330"* %92, i64 0, i32 0, i32 0, i32 0
  %94 = bitcast %"class.std::__1::unique_ptr.330"* %92 to i64*
  %95 = load i64, i64* %94, align 8
  store %"class.policy::StringMappingListPolicyHandler::MappingEntry"* null, %"class.policy::StringMappingListPolicyHandler::MappingEntry"** %93, align 8
  %96 = bitcast %"class.std::__1::unique_ptr.330"* %91 to i64*
  store i64 %95, i64* %96, align 8
  %97 = getelementptr inbounds %"class.std::__1::unique_ptr.330", %"class.std::__1::unique_ptr.330"* %77, i64 -4
  %98 = getelementptr inbounds %"class.std::__1::unique_ptr.330", %"class.std::__1::unique_ptr.330"* %78, i64 -4
  %99 = getelementptr inbounds %"class.std::__1::unique_ptr.330", %"class.std::__1::unique_ptr.330"* %98, i64 0, i32 0, i32 0, i32 0
  %100 = bitcast %"class.std::__1::unique_ptr.330"* %98 to i64*
  %101 = load i64, i64* %100, align 8
  store %"class.policy::StringMappingListPolicyHandler::MappingEntry"* null, %"class.policy::StringMappingListPolicyHandler::MappingEntry"** %99, align 8
  %102 = bitcast %"class.std::__1::unique_ptr.330"* %97 to i64*
  store i64 %101, i64* %102, align 8
  %103 = getelementptr inbounds %"class.std::__1::unique_ptr.330", %"class.std::__1::unique_ptr.330"* %77, i64 -5
  %104 = getelementptr inbounds %"class.std::__1::unique_ptr.330", %"class.std::__1::unique_ptr.330"* %78, i64 -5
  %105 = getelementptr inbounds %"class.std::__1::unique_ptr.330", %"class.std::__1::unique_ptr.330"* %104, i64 0, i32 0, i32 0, i32 0
  %106 = bitcast %"class.std::__1::unique_ptr.330"* %104 to i64*
  %107 = load i64, i64* %106, align 8
  store %"class.policy::StringMappingListPolicyHandler::MappingEntry"* null, %"class.policy::StringMappingListPolicyHandler::MappingEntry"** %105, align 8
  %108 = bitcast %"class.std::__1::unique_ptr.330"* %103 to i64*
  store i64 %107, i64* %108, align 8
  %109 = getelementptr inbounds %"class.std::__1::unique_ptr.330", %"class.std::__1::unique_ptr.330"* %77, i64 -6
  %110 = getelementptr inbounds %"class.std::__1::unique_ptr.330", %"class.std::__1::unique_ptr.330"* %78, i64 -6
  %111 = getelementptr inbounds %"class.std::__1::unique_ptr.330", %"class.std::__1::unique_ptr.330"* %110, i64 0, i32 0, i32 0, i32 0
  %112 = bitcast %"class.std::__1::unique_ptr.330"* %110 to i64*
  %113 = load i64, i64* %112, align 8
  store %"class.policy::StringMappingListPolicyHandler::MappingEntry"* null, %"class.policy::StringMappingListPolicyHandler::MappingEntry"** %111, align 8
  %114 = bitcast %"class.std::__1::unique_ptr.330"* %109 to i64*
  store i64 %113, i64* %114, align 8
  %115 = getelementptr inbounds %"class.std::__1::unique_ptr.330", %"class.std::__1::unique_ptr.330"* %77, i64 -7
  %116 = getelementptr inbounds %"class.std::__1::unique_ptr.330", %"class.std::__1::unique_ptr.330"* %78, i64 -7
  %117 = getelementptr inbounds %"class.std::__1::unique_ptr.330", %"class.std::__1::unique_ptr.330"* %116, i64 0, i32 0, i32 0, i32 0
  %118 = bitcast %"class.std::__1::unique_ptr.330"* %116 to i64*
  %119 = load i64, i64* %118, align 8
  store %"class.policy::StringMappingListPolicyHandler::MappingEntry"* null, %"class.policy::StringMappingListPolicyHandler::MappingEntry"** %117, align 8
  %120 = bitcast %"class.std::__1::unique_ptr.330"* %115 to i64*
  store i64 %119, i64* %120, align 8
  %121 = getelementptr inbounds %"class.std::__1::unique_ptr.330", %"class.std::__1::unique_ptr.330"* %77, i64 -8
  %122 = getelementptr inbounds %"class.std::__1::unique_ptr.330", %"class.std::__1::unique_ptr.330"* %78, i64 -8
  %123 = getelementptr inbounds %"class.std::__1::unique_ptr.330", %"class.std::__1::unique_ptr.330"* %122, i64 0, i32 0, i32 0, i32 0
  %124 = bitcast %"class.std::__1::unique_ptr.330"* %122 to i64*
  %125 = load i64, i64* %124, align 8
  store %"class.policy::StringMappingListPolicyHandler::MappingEntry"* null, %"class.policy::StringMappingListPolicyHandler::MappingEntry"** %123, align 8
  %126 = bitcast %"class.std::__1::unique_ptr.330"* %121 to i64*
  store i64 %125, i64* %126, align 8
  %127 = icmp eq %"class.std::__1::unique_ptr.330"* %122, %47
  br i1 %127, label %128, label %76

128:                                              ; preds = %76, %71
  %129 = phi %"class.std::__1::unique_ptr.330"* [ %72, %71 ], [ %121, %76 ]
  %130 = load i64, i64* %6, align 8
  %131 = load %"class.std::__1::unique_ptr.330"*, %"class.std::__1::unique_ptr.330"** %3, align 8
  br label %132

132:                                              ; preds = %34, %128
  %133 = phi %"class.std::__1::unique_ptr.330"* [ %131, %128 ], [ %47, %34 ]
  %134 = phi %"class.std::__1::unique_ptr.330"* [ %129, %128 ], [ %37, %34 ]
  %135 = phi i64 [ %130, %128 ], [ %48, %34 ]
  %136 = ptrtoint %"class.std::__1::unique_ptr.330"* %134 to i64
  store i64 %136, i64* %6, align 8
  store i64 %45, i64* %4, align 8
  store i64 %39, i64* %16, align 8
  %137 = inttoptr i64 %135 to %"class.std::__1::unique_ptr.330"*
  %138 = icmp eq %"class.std::__1::unique_ptr.330"* %133, %137
  br i1 %138, label %149, label %139

139:                                              ; preds = %132, %147
  %140 = phi %"class.std::__1::unique_ptr.330"* [ %141, %147 ], [ %133, %132 ]
  %141 = getelementptr inbounds %"class.std::__1::unique_ptr.330", %"class.std::__1::unique_ptr.330"* %140, i64 -1
  %142 = getelementptr inbounds %"class.std::__1::unique_ptr.330", %"class.std::__1::unique_ptr.330"* %141, i64 0, i32 0, i32 0, i32 0
  %143 = load %"class.policy::StringMappingListPolicyHandler::MappingEntry"*, %"class.policy::StringMappingListPolicyHandler::MappingEntry"** %142, align 8
  store %"class.policy::StringMappingListPolicyHandler::MappingEntry"* null, %"class.policy::StringMappingListPolicyHandler::MappingEntry"** %142, align 8
  %144 = icmp eq %"class.policy::StringMappingListPolicyHandler::MappingEntry"* %143, null
  br i1 %144, label %147, label %145

145:                                              ; preds = %139
  tail call void @_ZN6policy30StringMappingListPolicyHandler12MappingEntryD1Ev(%"class.policy::StringMappingListPolicyHandler::MappingEntry"* nonnull %143) #11
  %146 = bitcast %"class.policy::StringMappingListPolicyHandler::MappingEntry"* %143 to i8*
  tail call void @_ZdlPv(i8* %146) #10
  br label %147

147:                                              ; preds = %145, %139
  %148 = icmp eq %"class.std::__1::unique_ptr.330"* %141, %137
  br i1 %148, label %149, label %139

149:                                              ; preds = %147, %132
  %150 = icmp eq i64 %135, 0
  br i1 %150, label %153, label %151

151:                                              ; preds = %149
  %152 = inttoptr i64 %135 to i8*
  tail call void @_ZdlPv(i8* %152) #10
  br label %153

153:                                              ; preds = %149, %151
  ret void
}

; Function Attrs: argmemonly nounwind
declare void @llvm.memset.p0i8.i64(i8* nocapture writeonly, i8, i64, i1 immarg) #3

; Function Attrs: noreturn
declare void @_ZNKSt3__120__vector_base_commonILb1EE20__throw_length_errorEv(%"class.std::__1::__vector_base_common"*) local_unnamed_addr #7

; Function Attrs: noreturn nounwind
declare void @abort() local_unnamed_addr #8

; Function Attrs: nobuiltin nounwind
declare void @_ZdlPv(i8*) local_unnamed_addr #9

declare void @_ZN6policy30StringMappingListPolicyHandler12MappingEntryC1EPKcNSt3__110unique_ptrIN4base5ValueENS4_14default_deleteIS7_EEEE(%"class.policy::StringMappingListPolicyHandler::MappingEntry"*, i8*, %"class.base::Value"*) unnamed_addr #4

declare void @_ZN4base5ValueC1Ei(%"class.base::Value"*, i32) unnamed_addr #4

; Function Attrs: nounwind
declare void @_ZN6policy30StringMappingListPolicyHandler12MappingEntryD1Ev(%"class.policy::StringMappingListPolicyHandler::MappingEntry"*) unnamed_addr #5

; Function Attrs: nounwind ssp uwtable
define linkonce_odr hidden void @_ZN4base8internal7InvokerINS0_9BindStateIPFvPN6policy23PolicyHandlerParametersEEJEEES6_E3RunEPNS0_13BindStateBaseES5_(%"class.base::internal::BindStateBase"*, %"struct.policy::PolicyHandlerParameters"*) #1 comdat align 2 {
  %3 = getelementptr inbounds %"class.base::internal::BindStateBase", %"class.base::internal::BindStateBase"* %0, i64 1
  %4 = bitcast %"class.base::internal::BindStateBase"* %3 to void (%"struct.policy::PolicyHandlerParameters"*)**
  %5 = load void (%"struct.policy::PolicyHandlerParameters"*)*, void (%"struct.policy::PolicyHandlerParameters"*)** %4, align 8
  tail call void %5(%"struct.policy::PolicyHandlerParameters"* %1) #11
  ret void
}

; Function Attrs: nounwind ssp uwtable
define linkonce_odr hidden void @_ZN4base8internal9BindStateIPFvPN6policy23PolicyHandlerParametersEEJEE7DestroyEPKNS0_13BindStateBaseE(%"class.base::internal::BindStateBase"*) #1 comdat align 2 {
  %2 = icmp eq %"class.base::internal::BindStateBase"* %0, null
  br i1 %2, label %5, label %3

3:                                                ; preds = %1
  %4 = bitcast %"class.base::internal::BindStateBase"* %0 to i8*
  tail call void @_ZdlPv(i8* %4) #10
  br label %5

5:                                                ; preds = %3, %1
  ret void
}

declare void @_ZN4base8internal13BindStateBaseC2EPFvvEPFvPKS1_E(%"class.base::internal::BindStateBase"*, void ()*, void (%"class.base::internal::BindStateBase"*)*) unnamed_addr #4

; Function Attrs: nounwind ssp uwtable
define linkonce_odr hidden %"struct.policy::PolicyDetails"* @_ZN4base8internal7InvokerINS0_9BindStateIPFPKN6policy13PolicyDetailsERKNSt3__112basic_stringIcNS7_11char_traitsIcEENS7_9allocatorIcEEEEEJEEESG_E3RunEPNS0_13BindStateBaseESF_(%"class.base::internal::BindStateBase"*, %"class.std::__1::basic_string"* dereferenceable(24)) #1 comdat align 2 {
  %3 = getelementptr inbounds %"class.base::internal::BindStateBase", %"class.base::internal::BindStateBase"* %0, i64 1
  %4 = bitcast %"class.base::internal::BindStateBase"* %3 to %"struct.policy::PolicyDetails"* (%"class.std::__1::basic_string"*)**
  %5 = load %"struct.policy::PolicyDetails"* (%"class.std::__1::basic_string"*)*, %"struct.policy::PolicyDetails"* (%"class.std::__1::basic_string"*)** %4, align 8
  %6 = tail call %"struct.policy::PolicyDetails"* %5(%"class.std::__1::basic_string"* dereferenceable(24) %1) #11
  ret %"struct.policy::PolicyDetails"* %6
}

; Function Attrs: nounwind ssp uwtable
define linkonce_odr hidden void @_ZN4base8internal9BindStateIPFPKN6policy13PolicyDetailsERKNSt3__112basic_stringIcNS6_11char_traitsIcEENS6_9allocatorIcEEEEEJEE7DestroyEPKNS0_13BindStateBaseE(%"class.base::internal::BindStateBase"*) #1 comdat align 2 {
  %2 = icmp eq %"class.base::internal::BindStateBase"* %0, null
  br i1 %2, label %5, label %3

3:                                                ; preds = %1
  %4 = bitcast %"class.base::internal::BindStateBase"* %0 to i8*
  tail call void @_ZdlPv(i8* %4) #10
  br label %5

5:                                                ; preds = %3, %1
  ret void
}

declare void @_ZN6policy19SimplePolicyHandlerC1EPKcS2_N4base5Value4TypeE(%"class.policy::SimplePolicyHandler"*, i8*, i8*, i8 zeroext) unnamed_addr #4

declare void @_ZN8autofill28AutofillAddressPolicyHandlerC1Ev(%"class.autofill::AutofillAddressPolicyHandler"*) unnamed_addr #4

declare void @_ZN8autofill31AutofillCreditCardPolicyHandlerC1Ev(%"class.autofill::AutofillCreditCardPolicyHandler"*) unnamed_addr #4

declare void @_ZN8autofill21AutofillPolicyHandlerC1Ev(%"class.autofill::AutofillPolicyHandler"*) unnamed_addr #4

declare void @_ZN16content_settings27CookieSettingsPolicyHandlerC1Ev(%"class.content_settings::CookieSettingsPolicyHandler"*) unnamed_addr #4

declare void @_ZN16content_settings35InsecurePrivateNetworkPolicyHandlerC1Ev(%"class.content_settings::InsecurePrivateNetworkPolicyHandler"*) unnamed_addr #4

declare void @_ZN6policy26DefaultSearchPolicyHandlerC1Ev(%"class.policy::DefaultSearchPolicyHandler"*) unnamed_addr #4

declare void @_ZN6policy28ForceSafeSearchPolicyHandlerC1Ev(%"class.policy::ForceSafeSearchPolicyHandler"*) unnamed_addr #4

declare void @_ZN6policy35ForceYouTubeSafetyModePolicyHandlerC1Ev(%"class.policy::ForceYouTubeSafetyModePolicyHandler"*) unnamed_addr #4

declare void @_ZN6policy26IncognitoModePolicyHandlerC1Ev(%"class.policy::IncognitoModePolicyHandler"*) unnamed_addr #4

declare void @_ZN6policy22GuestModePolicyHandlerC1Ev(%"class.policy::GuestModePolicyHandler"*) unnamed_addr #4

declare void @_ZN6policy6SchemaC1ERKS0_(%"class.policy::Schema"*, %"class.policy::Schema"* dereferenceable(16)) unnamed_addr #4

declare void @_ZN9bookmarks29ManagedBookmarksPolicyHandlerC1EN6policy6SchemaE(%"class.bookmarks::ManagedBookmarksPolicyHandler"*, %"class.policy::Schema"*) unnamed_addr #4

declare void @_ZN6policy29HomepageLocationPolicyHandlerC1Ev(%"class.policy::HomepageLocationPolicyHandler"*) unnamed_addr #4

declare void @_ZN6policy18ProxyPolicyHandlerC1Ev(%"class.policy::ProxyPolicyHandler"*) unnamed_addr #4

declare void @_ZN6policy22SecureDnsPolicyHandlerC1Ev(%"class.policy::SecureDnsPolicyHandler"*) unnamed_addr #4

declare void @_ZN6policy35SimpleSchemaValidatingPolicyHandlerC1EPKcS2_NS_6SchemaENS_21SchemaOnErrorStrategyENS0_21RecommendedPermissionENS0_19MandatoryPermissionE(%"class.policy::SimpleSchemaValidatingPolicyHandler"*, i8*, i8*, %"class.policy::Schema"*, i32, i32, i32) unnamed_addr #4

declare void @_ZN39ManagedAccountRestrictionsPolicyHandlerC1EN6policy6SchemaE(%class.ManagedAccountRestrictionsPolicyHandler*, %"class.policy::Schema"*) unnamed_addr #4

declare void @_ZN6policy38WebUsbAllowDevicesForUrlsPolicyHandlerC1ERKNS_6SchemaE(%"class.policy::WebUsbAllowDevicesForUrlsPolicyHandler"*, %"class.policy::Schema"* dereferenceable(16)) unnamed_addr #4

declare void @_ZN6policy27DeveloperToolsPolicyHandlerC1Ev(%"class.policy::DeveloperToolsPolicyHandler"*) unnamed_addr #4

declare void @_ZN6policy33FileSelectionDialogsPolicyHandlerC1Ev(%"class.policy::FileSelectionDialogsPolicyHandler"*) unnamed_addr #4

declare void @_ZN6policy23JavascriptPolicyHandlerC1Ev(%"class.policy::JavascriptPolicyHandler"*) unnamed_addr #4

declare void @_ZN6policy30NetworkPredictionPolicyHandlerC1Ev(%"class.policy::NetworkPredictionPolicyHandler"*) unnamed_addr #4

declare void @_ZN6policy29RestoreOnStartupPolicyHandlerC1Ev(%"class.policy::RestoreOnStartupPolicyHandler"*) unnamed_addr #4

declare void @_ZN6policy26ConfigurationPolicyHandlerC2Ev(%"class.policy::ConfigurationPolicyHandler"*) unnamed_addr #4

declare void @_ZN6policy30SimpleDeprecatingPolicyHandlerC1ENSt3__110unique_ptrINS_18NamedPolicyHandlerENS1_14default_deleteIS3_EEEES6_(%"class.policy::SimpleDeprecatingPolicyHandler"*, %"class.policy::NamedPolicyHandler"*, %"class.policy::NamedPolicyHandler"*) unnamed_addr #4

declare void @_ZN6syncer17SyncPolicyHandlerC1Ev(%"class.syncer::SyncPolicyHandler"*) unnamed_addr #4

declare void @_ZN6policy28BrowsingHistoryPolicyHandlerC1Ev(%"class.policy::BrowsingHistoryPolicyHandler"*) unnamed_addr #4

declare void @_ZN6policy25URLBlocklistPolicyHandlerC1EPKc(%"class.policy::URLBlocklistPolicyHandler"*, i8*) unnamed_addr #4

declare void @_ZN6policy42ExplicitlyAllowedNetworkPortsPolicyHandlerC1Ev(%"class.policy::ExplicitlyAllowedNetworkPortsPolicyHandler"*) unnamed_addr #4

declare void @_ZN39NtpCustomBackgroundEnabledPolicyHandlerC1Ev(%class.NtpCustomBackgroundEnabledPolicyHandler*) unnamed_addr #4

declare void @_ZN31DefaultDownloadDirPolicyHandlerC1Ev(%class.DefaultDownloadDirPolicyHandler*) unnamed_addr #4

declare void @_ZN29DownloadAutoOpenPolicyHandlerC1ERKN6policy6SchemaE(%class.DownloadAutoOpenPolicyHandler*, %"class.policy::Schema"* dereferenceable(16)) unnamed_addr #4

declare void @_ZN24DownloadDirPolicyHandlerC1Ev(%class.DownloadDirPolicyHandler*) unnamed_addr #4

declare void @_ZN6policy22LocalSyncPolicyHandlerC1Ev(%"class.policy::LocalSyncPolicyHandler"*) unnamed_addr #4

declare void @_ZN23ThemeColorPolicyHandlerC1Ev(%class.ThemeColorPolicyHandler*) unnamed_addr #4

declare void @_ZN6policy45SimpleJsonStringSchemaValidatingPolicyHandlerC1EPKcS2_NS_6SchemaENS_35SimpleSchemaValidatingPolicyHandler21RecommendedPermissionENS4_19MandatoryPermissionE(%"class.policy::SimpleJsonStringSchemaValidatingPolicyHandler"*, i8*, i8*, %"class.policy::Schema"*, i32, i32) unnamed_addr #4

declare void @_ZN20enterprise_reporting27CloudReportingPolicyHandlerC1Ev(%"class.enterprise_reporting::CloudReportingPolicyHandler"*) unnamed_addr #4

declare void @_ZN20enterprise_reporting29ExtensionRequestPolicyHandlerC1Ev(%"class.enterprise_reporting::ExtensionRequestPolicyHandler"*) unnamed_addr #4

declare void @_ZN21enterprise_connectors33EnterpriseConnectorsPolicyHandlerC1EPKcS2_N6policy6SchemaE(%"class.enterprise_connectors::EnterpriseConnectorsPolicyHandler"*, i8*, i8*, %"class.policy::Schema"*) unnamed_addr #4

declare void @_ZN21enterprise_connectors33EnterpriseConnectorsPolicyHandlerC1EPKcS2_S2_N6policy6SchemaE(%"class.enterprise_connectors::EnterpriseConnectorsPolicyHandler"*, i8*, i8*, i8*, %"class.policy::Schema"*) unnamed_addr #4

declare void @_ZN33BrowsingDataLifetimePolicyHandlerC1EPKcS1_N6policy6SchemaE(%class.BrowsingDataLifetimePolicyHandler*, i8*, i8*, %"class.policy::Schema"*) unnamed_addr #4

; Function Attrs: inlinehint nounwind ssp uwtable
define linkonce_odr hidden void @_ZNSt3__16vectorINS_10unique_ptrIN6policy26ConfigurationPolicyHandlerENS_14default_deleteIS3_EEEENS_9allocatorIS6_EEE21__push_back_slow_pathIS6_EEvOT_(%"class.std::__1::vector"*, %"class.std::__1::unique_ptr.3"* dereferenceable(8)) local_unnamed_addr #6 comdat align 2 {
  %3 = getelementptr inbounds %"class.std::__1::vector", %"class.std::__1::vector"* %0, i64 0, i32 0, i32 1
  %4 = bitcast %"class.std::__1::unique_ptr.3"** %3 to i64*
  %5 = load i64, i64* %4, align 8
  %6 = bitcast %"class.std::__1::vector"* %0 to i64*
  %7 = load i64, i64* %6, align 8
  %8 = sub i64 %5, %7
  %9 = ashr exact i64 %8, 3
  %10 = add nsw i64 %9, 1
  %11 = icmp ugt i64 %10, 2305843009213693951
  br i1 %11, label %12, label %14

12:                                               ; preds = %2
  %13 = bitcast %"class.std::__1::vector"* %0 to %"class.std::__1::__vector_base_common"*
  tail call void @_ZNKSt3__120__vector_base_commonILb1EE20__throw_length_errorEv(%"class.std::__1::__vector_base_common"* %13) #12
  unreachable

14:                                               ; preds = %2
  %15 = getelementptr inbounds %"class.std::__1::vector", %"class.std::__1::vector"* %0, i64 0, i32 0, i32 2, i32 0, i32 0
  %16 = bitcast %"class.std::__1::unique_ptr.3"** %15 to i64*
  %17 = load i64, i64* %16, align 8
  %18 = sub i64 %17, %7
  %19 = ashr exact i64 %18, 3
  %20 = icmp ult i64 %19, 1152921504606846975
  br i1 %20, label %21, label %29

21:                                               ; preds = %14
  %22 = ashr exact i64 %18, 2
  %23 = icmp ult i64 %22, %10
  %24 = select i1 %23, i64 %10, i64 %22
  %25 = icmp eq i64 %24, 0
  br i1 %25, label %34, label %26

26:                                               ; preds = %21
  %27 = icmp ugt i64 %24, 2305843009213693951
  br i1 %27, label %28, label %29

28:                                               ; preds = %26
  tail call void @abort() #12
  unreachable

29:                                               ; preds = %14, %26
  %30 = phi i64 [ %24, %26 ], [ 2305843009213693951, %14 ]
  %31 = shl i64 %30, 3
  %32 = tail call i8* @_Znwm(i64 %31) #10
  %33 = bitcast i8* %32 to %"class.std::__1::unique_ptr.3"*
  br label %34

34:                                               ; preds = %21, %29
  %35 = phi i64 [ %30, %29 ], [ 0, %21 ]
  %36 = phi %"class.std::__1::unique_ptr.3"* [ %33, %29 ], [ null, %21 ]
  %37 = getelementptr inbounds %"class.std::__1::unique_ptr.3", %"class.std::__1::unique_ptr.3"* %36, i64 %9
  %38 = getelementptr inbounds %"class.std::__1::unique_ptr.3", %"class.std::__1::unique_ptr.3"* %36, i64 %35
  %39 = ptrtoint %"class.std::__1::unique_ptr.3"* %38 to i64
  %40 = getelementptr inbounds %"class.std::__1::unique_ptr.3", %"class.std::__1::unique_ptr.3"* %1, i64 0, i32 0, i32 0, i32 0
  %41 = bitcast %"class.std::__1::unique_ptr.3"* %1 to i64*
  %42 = load i64, i64* %41, align 8
  store %"class.policy::ConfigurationPolicyHandler"* null, %"class.policy::ConfigurationPolicyHandler"** %40, align 8
  %43 = bitcast %"class.std::__1::unique_ptr.3"* %37 to i64*
  store i64 %42, i64* %43, align 8
  %44 = getelementptr inbounds %"class.std::__1::unique_ptr.3", %"class.std::__1::unique_ptr.3"* %37, i64 1
  %45 = ptrtoint %"class.std::__1::unique_ptr.3"* %44 to i64
  %46 = getelementptr inbounds %"class.std::__1::vector", %"class.std::__1::vector"* %0, i64 0, i32 0, i32 0
  %47 = load %"class.std::__1::unique_ptr.3"*, %"class.std::__1::unique_ptr.3"** %46, align 8
  %48 = ptrtoint %"class.std::__1::unique_ptr.3"* %47 to i64
  %49 = load %"class.std::__1::unique_ptr.3"*, %"class.std::__1::unique_ptr.3"** %3, align 8
  %50 = icmp eq %"class.std::__1::unique_ptr.3"* %49, %47
  br i1 %50, label %132, label %51

51:                                               ; preds = %34
  %52 = getelementptr %"class.std::__1::unique_ptr.3", %"class.std::__1::unique_ptr.3"* %49, i64 -1, i32 0, i32 0, i32 0
  %53 = ptrtoint %"class.policy::ConfigurationPolicyHandler"** %52 to i64
  %54 = sub i64 %53, %48
  %55 = lshr i64 %54, 3
  %56 = add nuw nsw i64 %55, 1
  %57 = and i64 %56, 7
  %58 = icmp eq i64 %57, 0
  br i1 %58, label %71, label %59

59:                                               ; preds = %51, %59
  %60 = phi %"class.std::__1::unique_ptr.3"* [ %63, %59 ], [ %37, %51 ]
  %61 = phi %"class.std::__1::unique_ptr.3"* [ %64, %59 ], [ %49, %51 ]
  %62 = phi i64 [ %69, %59 ], [ %57, %51 ]
  %63 = getelementptr inbounds %"class.std::__1::unique_ptr.3", %"class.std::__1::unique_ptr.3"* %60, i64 -1
  %64 = getelementptr inbounds %"class.std::__1::unique_ptr.3", %"class.std::__1::unique_ptr.3"* %61, i64 -1
  %65 = getelementptr inbounds %"class.std::__1::unique_ptr.3", %"class.std::__1::unique_ptr.3"* %64, i64 0, i32 0, i32 0, i32 0
  %66 = bitcast %"class.std::__1::unique_ptr.3"* %64 to i64*
  %67 = load i64, i64* %66, align 8
  store %"class.policy::ConfigurationPolicyHandler"* null, %"class.policy::ConfigurationPolicyHandler"** %65, align 8
  %68 = bitcast %"class.std::__1::unique_ptr.3"* %63 to i64*
  store i64 %67, i64* %68, align 8
  %69 = add i64 %62, -1
  %70 = icmp eq i64 %69, 0
  br i1 %70, label %71, label %59, !llvm.loop !19

71:                                               ; preds = %59, %51
  %72 = phi %"class.std::__1::unique_ptr.3"* [ undef, %51 ], [ %63, %59 ]
  %73 = phi %"class.std::__1::unique_ptr.3"* [ %37, %51 ], [ %63, %59 ]
  %74 = phi %"class.std::__1::unique_ptr.3"* [ %49, %51 ], [ %64, %59 ]
  %75 = icmp ult i64 %54, 56
  br i1 %75, label %128, label %76

76:                                               ; preds = %71, %76
  %77 = phi %"class.std::__1::unique_ptr.3"* [ %121, %76 ], [ %73, %71 ]
  %78 = phi %"class.std::__1::unique_ptr.3"* [ %122, %76 ], [ %74, %71 ]
  %79 = getelementptr inbounds %"class.std::__1::unique_ptr.3", %"class.std::__1::unique_ptr.3"* %77, i64 -1
  %80 = getelementptr inbounds %"class.std::__1::unique_ptr.3", %"class.std::__1::unique_ptr.3"* %78, i64 -1
  %81 = getelementptr inbounds %"class.std::__1::unique_ptr.3", %"class.std::__1::unique_ptr.3"* %80, i64 0, i32 0, i32 0, i32 0
  %82 = bitcast %"class.std::__1::unique_ptr.3"* %80 to i64*
  %83 = load i64, i64* %82, align 8
  store %"class.policy::ConfigurationPolicyHandler"* null, %"class.policy::ConfigurationPolicyHandler"** %81, align 8
  %84 = bitcast %"class.std::__1::unique_ptr.3"* %79 to i64*
  store i64 %83, i64* %84, align 8
  %85 = getelementptr inbounds %"class.std::__1::unique_ptr.3", %"class.std::__1::unique_ptr.3"* %77, i64 -2
  %86 = getelementptr inbounds %"class.std::__1::unique_ptr.3", %"class.std::__1::unique_ptr.3"* %78, i64 -2
  %87 = getelementptr inbounds %"class.std::__1::unique_ptr.3", %"class.std::__1::unique_ptr.3"* %86, i64 0, i32 0, i32 0, i32 0
  %88 = bitcast %"class.std::__1::unique_ptr.3"* %86 to i64*
  %89 = load i64, i64* %88, align 8
  store %"class.policy::ConfigurationPolicyHandler"* null, %"class.policy::ConfigurationPolicyHandler"** %87, align 8
  %90 = bitcast %"class.std::__1::unique_ptr.3"* %85 to i64*
  store i64 %89, i64* %90, align 8
  %91 = getelementptr inbounds %"class.std::__1::unique_ptr.3", %"class.std::__1::unique_ptr.3"* %77, i64 -3
  %92 = getelementptr inbounds %"class.std::__1::unique_ptr.3", %"class.std::__1::unique_ptr.3"* %78, i64 -3
  %93 = getelementptr inbounds %"class.std::__1::unique_ptr.3", %"class.std::__1::unique_ptr.3"* %92, i64 0, i32 0, i32 0, i32 0
  %94 = bitcast %"class.std::__1::unique_ptr.3"* %92 to i64*
  %95 = load i64, i64* %94, align 8
  store %"class.policy::ConfigurationPolicyHandler"* null, %"class.policy::ConfigurationPolicyHandler"** %93, align 8
  %96 = bitcast %"class.std::__1::unique_ptr.3"* %91 to i64*
  store i64 %95, i64* %96, align 8
  %97 = getelementptr inbounds %"class.std::__1::unique_ptr.3", %"class.std::__1::unique_ptr.3"* %77, i64 -4
  %98 = getelementptr inbounds %"class.std::__1::unique_ptr.3", %"class.std::__1::unique_ptr.3"* %78, i64 -4
  %99 = getelementptr inbounds %"class.std::__1::unique_ptr.3", %"class.std::__1::unique_ptr.3"* %98, i64 0, i32 0, i32 0, i32 0
  %100 = bitcast %"class.std::__1::unique_ptr.3"* %98 to i64*
  %101 = load i64, i64* %100, align 8
  store %"class.policy::ConfigurationPolicyHandler"* null, %"class.policy::ConfigurationPolicyHandler"** %99, align 8
  %102 = bitcast %"class.std::__1::unique_ptr.3"* %97 to i64*
  store i64 %101, i64* %102, align 8
  %103 = getelementptr inbounds %"class.std::__1::unique_ptr.3", %"class.std::__1::unique_ptr.3"* %77, i64 -5
  %104 = getelementptr inbounds %"class.std::__1::unique_ptr.3", %"class.std::__1::unique_ptr.3"* %78, i64 -5
  %105 = getelementptr inbounds %"class.std::__1::unique_ptr.3", %"class.std::__1::unique_ptr.3"* %104, i64 0, i32 0, i32 0, i32 0
  %106 = bitcast %"class.std::__1::unique_ptr.3"* %104 to i64*
  %107 = load i64, i64* %106, align 8
  store %"class.policy::ConfigurationPolicyHandler"* null, %"class.policy::ConfigurationPolicyHandler"** %105, align 8
  %108 = bitcast %"class.std::__1::unique_ptr.3"* %103 to i64*
  store i64 %107, i64* %108, align 8
  %109 = getelementptr inbounds %"class.std::__1::unique_ptr.3", %"class.std::__1::unique_ptr.3"* %77, i64 -6
  %110 = getelementptr inbounds %"class.std::__1::unique_ptr.3", %"class.std::__1::unique_ptr.3"* %78, i64 -6
  %111 = getelementptr inbounds %"class.std::__1::unique_ptr.3", %"class.std::__1::unique_ptr.3"* %110, i64 0, i32 0, i32 0, i32 0
  %112 = bitcast %"class.std::__1::unique_ptr.3"* %110 to i64*
  %113 = load i64, i64* %112, align 8
  store %"class.policy::ConfigurationPolicyHandler"* null, %"class.policy::ConfigurationPolicyHandler"** %111, align 8
  %114 = bitcast %"class.std::__1::unique_ptr.3"* %109 to i64*
  store i64 %113, i64* %114, align 8
  %115 = getelementptr inbounds %"class.std::__1::unique_ptr.3", %"class.std::__1::unique_ptr.3"* %77, i64 -7
  %116 = getelementptr inbounds %"class.std::__1::unique_ptr.3", %"class.std::__1::unique_ptr.3"* %78, i64 -7
  %117 = getelementptr inbounds %"class.std::__1::unique_ptr.3", %"class.std::__1::unique_ptr.3"* %116, i64 0, i32 0, i32 0, i32 0
  %118 = bitcast %"class.std::__1::unique_ptr.3"* %116 to i64*
  %119 = load i64, i64* %118, align 8
  store %"class.policy::ConfigurationPolicyHandler"* null, %"class.policy::ConfigurationPolicyHandler"** %117, align 8
  %120 = bitcast %"class.std::__1::unique_ptr.3"* %115 to i64*
  store i64 %119, i64* %120, align 8
  %121 = getelementptr inbounds %"class.std::__1::unique_ptr.3", %"class.std::__1::unique_ptr.3"* %77, i64 -8
  %122 = getelementptr inbounds %"class.std::__1::unique_ptr.3", %"class.std::__1::unique_ptr.3"* %78, i64 -8
  %123 = getelementptr inbounds %"class.std::__1::unique_ptr.3", %"class.std::__1::unique_ptr.3"* %122, i64 0, i32 0, i32 0, i32 0
  %124 = bitcast %"class.std::__1::unique_ptr.3"* %122 to i64*
  %125 = load i64, i64* %124, align 8
  store %"class.policy::ConfigurationPolicyHandler"* null, %"class.policy::ConfigurationPolicyHandler"** %123, align 8
  %126 = bitcast %"class.std::__1::unique_ptr.3"* %121 to i64*
  store i64 %125, i64* %126, align 8
  %127 = icmp eq %"class.std::__1::unique_ptr.3"* %122, %47
  br i1 %127, label %128, label %76

128:                                              ; preds = %76, %71
  %129 = phi %"class.std::__1::unique_ptr.3"* [ %72, %71 ], [ %121, %76 ]
  %130 = load i64, i64* %6, align 8
  %131 = load %"class.std::__1::unique_ptr.3"*, %"class.std::__1::unique_ptr.3"** %3, align 8
  br label %132

132:                                              ; preds = %34, %128
  %133 = phi %"class.std::__1::unique_ptr.3"* [ %131, %128 ], [ %47, %34 ]
  %134 = phi %"class.std::__1::unique_ptr.3"* [ %129, %128 ], [ %37, %34 ]
  %135 = phi i64 [ %130, %128 ], [ %48, %34 ]
  %136 = ptrtoint %"class.std::__1::unique_ptr.3"* %134 to i64
  store i64 %136, i64* %6, align 8
  store i64 %45, i64* %4, align 8
  store i64 %39, i64* %16, align 8
  %137 = inttoptr i64 %135 to %"class.std::__1::unique_ptr.3"*
  %138 = icmp eq %"class.std::__1::unique_ptr.3"* %133, %137
  br i1 %138, label %152, label %139

139:                                              ; preds = %132, %150
  %140 = phi %"class.std::__1::unique_ptr.3"* [ %141, %150 ], [ %133, %132 ]
  %141 = getelementptr inbounds %"class.std::__1::unique_ptr.3", %"class.std::__1::unique_ptr.3"* %140, i64 -1
  %142 = getelementptr inbounds %"class.std::__1::unique_ptr.3", %"class.std::__1::unique_ptr.3"* %141, i64 0, i32 0, i32 0, i32 0
  %143 = load %"class.policy::ConfigurationPolicyHandler"*, %"class.policy::ConfigurationPolicyHandler"** %142, align 8
  store %"class.policy::ConfigurationPolicyHandler"* null, %"class.policy::ConfigurationPolicyHandler"** %142, align 8
  %144 = icmp eq %"class.policy::ConfigurationPolicyHandler"* %143, null
  br i1 %144, label %150, label %145

145:                                              ; preds = %139
  %146 = bitcast %"class.policy::ConfigurationPolicyHandler"* %143 to void (%"class.policy::ConfigurationPolicyHandler"*)***
  %147 = load void (%"class.policy::ConfigurationPolicyHandler"*)**, void (%"class.policy::ConfigurationPolicyHandler"*)*** %146, align 8
  %148 = getelementptr inbounds void (%"class.policy::ConfigurationPolicyHandler"*)*, void (%"class.policy::ConfigurationPolicyHandler"*)** %147, i64 1
  %149 = load void (%"class.policy::ConfigurationPolicyHandler"*)*, void (%"class.policy::ConfigurationPolicyHandler"*)** %148, align 8
  tail call void %149(%"class.policy::ConfigurationPolicyHandler"* nonnull %143) #11
  br label %150

150:                                              ; preds = %145, %139
  %151 = icmp eq %"class.std::__1::unique_ptr.3"* %141, %137
  br i1 %151, label %152, label %139

152:                                              ; preds = %150, %132
  %153 = icmp eq i64 %135, 0
  br i1 %153, label %156, label %154

154:                                              ; preds = %152
  %155 = inttoptr i64 %135 to i8*
  tail call void @_ZdlPv(i8* %155) #10
  br label %156

156:                                              ; preds = %152, %154
  ret void
}

declare void @_ZN6policy26BrowserSigninPolicyHandlerC1ENS_6SchemaE(%"class.policy::BrowserSigninPolicyHandler"*, %"class.policy::Schema"*) unnamed_addr #4

declare void @_ZN6policy38LegacyPoliciesDeprecatingPolicyHandlerC1ENSt3__16vectorINS1_10unique_ptrINS_26ConfigurationPolicyHandlerENS1_14default_deleteIS4_EEEENS1_9allocatorIS7_EEEENS3_INS_29SchemaValidatingPolicyHandlerENS5_ISB_EEEE(%"class.policy::LegacyPoliciesDeprecatingPolicyHandler"*, %"class.std::__1::vector"*, %"class.policy::SchemaValidatingPolicyHandler"*) unnamed_addr #4

declare void @_ZN6policy25SecureOriginPolicyHandlerC1EPKcNS_6SchemaE(%"class.policy::SecureOriginPolicyHandler"*, i8*, %"class.policy::Schema"*) unnamed_addr #4

declare void @_ZN6policy25DiskCacheDirPolicyHandlerC1Ev(%"class.policy::DiskCacheDirPolicyHandler"*) unnamed_addr #4

declare void @_ZN10extensions36NativeMessagingHostListPolicyHandlerC1EPKcS2_b(%"class.extensions::NativeMessagingHostListPolicyHandler"*, i8*, i8*, i1 zeroext) unnamed_addr #4

declare void @_ZN6policy32AutoLaunchProtocolsPolicyHandlerC1ERKNS_6SchemaE(%"class.policy::AutoLaunchProtocolsPolicyHandler"*, %"class.policy::Schema"* dereferenceable(16)) unnamed_addr #4

declare void @_ZN10extensions26ExtensionListPolicyHandlerC1EPKcS2_b(%"class.extensions::ExtensionListPolicyHandler"*, i8*, i8*, i1 zeroext) unnamed_addr #4

declare void @_ZN10extensions38ExtensionInstallForceListPolicyHandlerC1Ev(%"class.extensions::ExtensionInstallForceListPolicyHandler"*) unnamed_addr #4

declare void @_ZN10extensions36ExtensionURLPatternListPolicyHandlerC1EPKcS2_(%"class.extensions::ExtensionURLPatternListPolicyHandler"*, i8*, i8*) unnamed_addr #4

; Function Attrs: nounwind ssp uwtable
define linkonce_odr hidden void @_ZN4base8internal7InvokerINS0_9BindStateIPFvPNSt3__16vectorINS3_10unique_ptrIN6policy30StringMappingListPolicyHandler12MappingEntryENS3_14default_deleteIS8_EEEENS3_9allocatorISB_EEEEEJEEESG_E3RunEPNS0_13BindStateBaseESF_(%"class.base::internal::BindStateBase"*, %"class.std::__1::vector.328"*) #1 comdat align 2 {
  %3 = getelementptr inbounds %"class.base::internal::BindStateBase", %"class.base::internal::BindStateBase"* %0, i64 1
  %4 = bitcast %"class.base::internal::BindStateBase"* %3 to void (%"class.std::__1::vector.328"*)**
  %5 = load void (%"class.std::__1::vector.328"*)*, void (%"class.std::__1::vector.328"*)** %4, align 8
  tail call void %5(%"class.std::__1::vector.328"* %1) #11
  ret void
}

; Function Attrs: nounwind ssp uwtable
define linkonce_odr hidden void @_ZN4base8internal9BindStateIPFvPNSt3__16vectorINS2_10unique_ptrIN6policy30StringMappingListPolicyHandler12MappingEntryENS2_14default_deleteIS7_EEEENS2_9allocatorISA_EEEEEJEE7DestroyEPKNS0_13BindStateBaseE(%"class.base::internal::BindStateBase"*) #1 comdat align 2 {
  %2 = icmp eq %"class.base::internal::BindStateBase"* %0, null
  br i1 %2, label %5, label %3

3:                                                ; preds = %1
  %4 = bitcast %"class.base::internal::BindStateBase"* %0 to i8*
  tail call void @_ZdlPv(i8* %4) #10
  br label %5

5:                                                ; preds = %3, %1
  ret void
}

declare void @_ZN6policy30StringMappingListPolicyHandlerC1EPKcS2_RKN4base17RepeatingCallbackIFvPNSt3__16vectorINS5_10unique_ptrINS0_12MappingEntryENS5_14default_deleteIS8_EEEENS5_9allocatorISB_EEEEEEE(%"class.policy::StringMappingListPolicyHandler"*, i8*, i8*, %"class.base::RepeatingCallback.327"* dereferenceable(8)) unnamed_addr #4

declare void @_ZN10extensions30ExtensionSettingsPolicyHandlerC1ERKN6policy6SchemaE(%"class.extensions::ExtensionSettingsPolicyHandler"*, %"class.policy::Schema"* dereferenceable(16)) unnamed_addr #4

declare void @_ZN6policy21IntRangePolicyHandlerC1EPKcS2_iib(%"class.policy::IntRangePolicyHandler"*, i8*, i8*, i32, i32, i1 zeroext) unnamed_addr #4

declare void @_ZN6policy51PrintingAllowedBackgroundGraphicsModesPolicyHandlerC1Ev(%"class.policy::PrintingAllowedBackgroundGraphicsModesPolicyHandler"*) unnamed_addr #4

declare void @_ZN6policy46PrintingBackgroundGraphicsDefaultPolicyHandlerC1Ev(%"class.policy::PrintingBackgroundGraphicsDefaultPolicyHandler"*) unnamed_addr #4

declare void @_ZN6policy37PrintingPaperSizeDefaultPolicyHandlerC1Ev(%"class.policy::PrintingPaperSizeDefaultPolicyHandler"*) unnamed_addr #4

declare void @_ZN31SpellcheckLanguagePolicyHandlerC1Ev(%class.SpellcheckLanguagePolicyHandler*) unnamed_addr #4

declare void @_ZN40SpellcheckLanguageBlocklistPolicyHandlerC1EPKc(%class.SpellcheckLanguageBlocklistPolicyHandler*, i8*) unnamed_addr #4

attributes #0 = { norecurse nounwind readnone ssp uwtable "correctly-rounded-divide-sqrt-fp-math"="false" "disable-tail-calls"="false" "less-precise-fpmad"="false" "min-legal-vector-width"="0" "no-frame-pointer-elim"="false" "no-frame-pointer-elim-non-leaf" "no-infs-fp-math"="false" "no-jump-tables"="false" "no-nans-fp-math"="false" "no-signed-zeros-fp-math"="false" "no-trapping-math"="false" "null-pointer-is-valid"="true" "stack-protector-buffer-size"="4" "target-cpu"="x86-64" "target-features"="+cx8,+fxsr,+mmx,+sse,+sse2,+sse3,+x87" "unsafe-fp-math"="false" "use-soft-float"="false" }
attributes #1 = { nounwind ssp uwtable "correctly-rounded-divide-sqrt-fp-math"="false" "disable-tail-calls"="false" "less-precise-fpmad"="false" "min-legal-vector-width"="0" "no-frame-pointer-elim"="false" "no-frame-pointer-elim-non-leaf" "no-infs-fp-math"="false" "no-jump-tables"="false" "no-nans-fp-math"="false" "no-signed-zeros-fp-math"="false" "no-trapping-math"="false" "null-pointer-is-valid"="true" "stack-protector-buffer-size"="4" "target-cpu"="x86-64" "target-features"="+cx8,+fxsr,+mmx,+sse,+sse2,+sse3,+x87" "unsafe-fp-math"="false" "use-soft-float"="false" }
attributes #2 = { nobuiltin nofree "correctly-rounded-divide-sqrt-fp-math"="false" "disable-tail-calls"="false" "less-precise-fpmad"="false" "no-frame-pointer-elim"="false" "no-frame-pointer-elim-non-leaf" "no-infs-fp-math"="false" "no-nans-fp-math"="false" "no-signed-zeros-fp-math"="false" "no-trapping-math"="false" "null-pointer-is-valid"="true" "stack-protector-buffer-size"="4" "target-cpu"="x86-64" "target-features"="+cx8,+fxsr,+mmx,+sse,+sse2,+sse3,+x87" "unsafe-fp-math"="false" "use-soft-float"="false" }
attributes #3 = { argmemonly nounwind }
attributes #4 = { "correctly-rounded-divide-sqrt-fp-math"="false" "disable-tail-calls"="false" "less-precise-fpmad"="false" "no-frame-pointer-elim"="false" "no-frame-pointer-elim-non-leaf" "no-infs-fp-math"="false" "no-nans-fp-math"="false" "no-signed-zeros-fp-math"="false" "no-trapping-math"="false" "null-pointer-is-valid"="true" "stack-protector-buffer-size"="4" "target-cpu"="x86-64" "target-features"="+cx8,+fxsr,+mmx,+sse,+sse2,+sse3,+x87" "unsafe-fp-math"="false" "use-soft-float"="false" }
attributes #5 = { nounwind "correctly-rounded-divide-sqrt-fp-math"="false" "disable-tail-calls"="false" "less-precise-fpmad"="false" "no-frame-pointer-elim"="false" "no-frame-pointer-elim-non-leaf" "no-infs-fp-math"="false" "no-nans-fp-math"="false" "no-signed-zeros-fp-math"="false" "no-trapping-math"="false" "null-pointer-is-valid"="true" "stack-protector-buffer-size"="4" "target-cpu"="x86-64" "target-features"="+cx8,+fxsr,+mmx,+sse,+sse2,+sse3,+x87" "unsafe-fp-math"="false" "use-soft-float"="false" }
attributes #6 = { inlinehint nounwind ssp uwtable "correctly-rounded-divide-sqrt-fp-math"="false" "disable-tail-calls"="false" "less-precise-fpmad"="false" "min-legal-vector-width"="0" "no-frame-pointer-elim"="false" "no-frame-pointer-elim-non-leaf" "no-infs-fp-math"="false" "no-jump-tables"="false" "no-nans-fp-math"="false" "no-signed-zeros-fp-math"="false" "no-trapping-math"="false" "null-pointer-is-valid"="true" "stack-protector-buffer-size"="4" "target-cpu"="x86-64" "target-features"="+cx8,+fxsr,+mmx,+sse,+sse2,+sse3,+x87" "unsafe-fp-math"="false" "use-soft-float"="false" }
attributes #7 = { noreturn "correctly-rounded-divide-sqrt-fp-math"="false" "disable-tail-calls"="false" "less-precise-fpmad"="false" "no-frame-pointer-elim"="false" "no-frame-pointer-elim-non-leaf" "no-infs-fp-math"="false" "no-nans-fp-math"="false" "no-signed-zeros-fp-math"="false" "no-trapping-math"="false" "null-pointer-is-valid"="true" "stack-protector-buffer-size"="4" "target-cpu"="x86-64" "target-features"="+cx8,+fxsr,+mmx,+sse,+sse2,+sse3,+x87" "unsafe-fp-math"="false" "use-soft-float"="false" }
attributes #8 = { noreturn nounwind "correctly-rounded-divide-sqrt-fp-math"="false" "disable-tail-calls"="false" "less-precise-fpmad"="false" "no-frame-pointer-elim"="false" "no-frame-pointer-elim-non-leaf" "no-infs-fp-math"="false" "no-nans-fp-math"="false" "no-signed-zeros-fp-math"="false" "no-trapping-math"="false" "null-pointer-is-valid"="true" "stack-protector-buffer-size"="4" "target-cpu"="x86-64" "target-features"="+cx8,+fxsr,+mmx,+sse,+sse2,+sse3,+x87" "unsafe-fp-math"="false" "use-soft-float"="false" }
attributes #9 = { nobuiltin nounwind "correctly-rounded-divide-sqrt-fp-math"="false" "disable-tail-calls"="false" "less-precise-fpmad"="false" "no-frame-pointer-elim"="false" "no-frame-pointer-elim-non-leaf" "no-infs-fp-math"="false" "no-nans-fp-math"="false" "no-signed-zeros-fp-math"="false" "no-trapping-math"="false" "null-pointer-is-valid"="true" "stack-protector-buffer-size"="4" "target-cpu"="x86-64" "target-features"="+cx8,+fxsr,+mmx,+sse,+sse2,+sse3,+x87" "unsafe-fp-math"="false" "use-soft-float"="false" }
attributes #10 = { builtin nounwind }
attributes #11 = { nounwind }
attributes #12 = { noreturn nounwind }

!llvm.module.flags = !{!0, !1}

!0 = !{i32 1, !"wchar_size", i32 4}
!1 = !{i32 7, !"PIC Level", i32 2}
!2 = !{!3, !5}
!3 = distinct !{!3, !4, !"_ZN4base8internal8BindImplINS_17RepeatingCallbackEPFvPN6policy23PolicyHandlerParametersEEJEEEDcOT0_DpOT1_: argument 0"}
!4 = distinct !{!4, !"_ZN4base8internal8BindImplINS_17RepeatingCallbackEPFvPN6policy23PolicyHandlerParametersEEJEEEDcOT0_DpOT1_"}
!5 = distinct !{!5, !6, !"_ZN4base13BindRepeatingIPFvPN6policy23PolicyHandlerParametersEEJEEENS_17RepeatingCallbackINS_8internal14BindTypeHelperIT_JDpT0_EE14UnboundRunTypeEEEOS9_DpOSA_: argument 0"}
!6 = distinct !{!6, !"_ZN4base13BindRepeatingIPFvPN6policy23PolicyHandlerParametersEEJEEENS_17RepeatingCallbackINS_8internal14BindTypeHelperIT_JDpT0_EE14UnboundRunTypeEEEOS9_DpOSA_"}
!7 = !{!8, !10}
!8 = distinct !{!8, !9, !"_ZN4base8internal8BindImplINS_17RepeatingCallbackEPFPKN6policy13PolicyDetailsERKNSt3__112basic_stringIcNS7_11char_traitsIcEENS7_9allocatorIcEEEEEJEEEDcOT0_DpOT1_: argument 0"}
!9 = distinct !{!9, !"_ZN4base8internal8BindImplINS_17RepeatingCallbackEPFPKN6policy13PolicyDetailsERKNSt3__112basic_stringIcNS7_11char_traitsIcEENS7_9allocatorIcEEEEEJEEEDcOT0_DpOT1_"}
!10 = distinct !{!10, !11, !"_ZN4base13BindRepeatingIPFPKN6policy13PolicyDetailsERKNSt3__112basic_stringIcNS5_11char_traitsIcEENS5_9allocatorIcEEEEEJEEENS_17RepeatingCallbackINS_8internal14BindTypeHelperIT_JDpT0_EE14UnboundRunTypeEEEOSJ_DpOSK_: argument 0"}
!11 = distinct !{!11, !"_ZN4base13BindRepeatingIPFPKN6policy13PolicyDetailsERKNSt3__112basic_stringIcNS5_11char_traitsIcEENS5_9allocatorIcEEEEEJEEENS_17RepeatingCallbackINS_8internal14BindTypeHelperIT_JDpT0_EE14UnboundRunTypeEEEOSJ_DpOSK_"}
!12 = !{!13, !15}
!13 = distinct !{!13, !14, !"_ZN4base8internal8BindImplINS_17RepeatingCallbackERFvPNSt3__16vectorINS3_10unique_ptrIN6policy30StringMappingListPolicyHandler12MappingEntryENS3_14default_deleteIS8_EEEENS3_9allocatorISB_EEEEEJEEEDcOT0_DpOT1_: argument 0"}
!14 = distinct !{!14, !"_ZN4base8internal8BindImplINS_17RepeatingCallbackERFvPNSt3__16vectorINS3_10unique_ptrIN6policy30StringMappingListPolicyHandler12MappingEntryENS3_14default_deleteIS8_EEEENS3_9allocatorISB_EEEEEJEEEDcOT0_DpOT1_"}
!15 = distinct !{!15, !16, !"_ZN4base13BindRepeatingIRFvPNSt3__16vectorINS1_10unique_ptrIN6policy30StringMappingListPolicyHandler12MappingEntryENS1_14default_deleteIS6_EEEENS1_9allocatorIS9_EEEEEJEEENS_17RepeatingCallbackINS_8internal14BindTypeHelperIT_JDpT0_EE14UnboundRunTypeEEEOSJ_DpOSK_: argument 0"}
!16 = distinct !{!16, !"_ZN4base13BindRepeatingIRFvPNSt3__16vectorINS1_10unique_ptrIN6policy30StringMappingListPolicyHandler12MappingEntryENS1_14default_deleteIS6_EEEENS1_9allocatorIS9_EEEEEJEEENS_17RepeatingCallbackINS_8internal14BindTypeHelperIT_JDpT0_EE14UnboundRunTypeEEEOSJ_DpOSK_"}
!17 = distinct !{!17, !18}
!18 = !{!"llvm.loop.unroll.disable"}
!19 = distinct !{!19, !18}
