; ModuleID = '../../mojo/public/cpp/bindings/connection_group.cc'
source_filename = "../../mojo/public/cpp/bindings/connection_group.cc"
target datalayout = "e-m:e-i64:64-f80:128-n8:16:32:64-S128"
target triple = "x86_64-unknown-linux-gnu"

module asm ".symver exp, exp@GLIBC_2.2.5"
module asm ".symver exp2, exp2@GLIBC_2.2.5"
module asm ".symver exp2f, exp2f@GLIBC_2.2.5"
module asm ".symver expf, expf@GLIBC_2.2.5"
module asm ".symver lgamma, lgamma@GLIBC_2.2.5"
module asm ".symver lgammaf, lgammaf@GLIBC_2.2.5"
module asm ".symver lgammal, lgammal@GLIBC_2.2.5"
module asm ".symver log, log@GLIBC_2.2.5"
module asm ".symver log2, log2@GLIBC_2.2.5"
module asm ".symver log2f, log2f@GLIBC_2.2.5"
module asm ".symver logf, logf@GLIBC_2.2.5"
module asm ".symver pow, pow@GLIBC_2.2.5"
module asm ".symver powf, powf@GLIBC_2.2.5"

%"class.mojo::ConnectionGroup::Ref" = type { i32, %class.scoped_refptr }
%class.scoped_refptr = type { %"class.mojo::ConnectionGroup"* }
%"class.mojo::ConnectionGroup" = type <{ i32 (...)**, %"class.base::RefCountedThreadSafe", [4 x i8], %"class.base::RepeatingCallback", %class.scoped_refptr.3, %"class.mojo::ConnectionGroup::Ref", %"struct.std::__1::atomic.5", [4 x i8] }>
%"class.base::RefCountedThreadSafe" = type { %"class.base::subtle::RefCountedThreadSafeBase" }
%"class.base::subtle::RefCountedThreadSafeBase" = type { %"class.base::AtomicRefCount" }
%"class.base::AtomicRefCount" = type { %"struct.std::__1::atomic" }
%"struct.std::__1::atomic" = type { %"struct.std::__1::__atomic_base" }
%"struct.std::__1::__atomic_base" = type { %"struct.std::__1::__atomic_base.0" }
%"struct.std::__1::__atomic_base.0" = type { %"struct.std::__1::__cxx_atomic_impl" }
%"struct.std::__1::__cxx_atomic_impl" = type { %"struct.std::__1::__cxx_atomic_base_impl" }
%"struct.std::__1::__cxx_atomic_base_impl" = type { i32 }
%"class.base::RepeatingCallback" = type { %"class.base::internal::CallbackBaseCopyable" }
%"class.base::internal::CallbackBaseCopyable" = type { %"class.base::internal::CallbackBase" }
%"class.base::internal::CallbackBase" = type { %class.scoped_refptr.1 }
%class.scoped_refptr.1 = type { %"class.base::internal::BindStateBase"* }
%"class.base::internal::BindStateBase" = type { %"class.base::RefCountedThreadSafe.2", void ()*, void (%"class.base::internal::BindStateBase"*)*, i1 (%"class.base::internal::BindStateBase"*, i32)* }
%"class.base::RefCountedThreadSafe.2" = type { %"class.base::subtle::RefCountedThreadSafeBase" }
%class.scoped_refptr.3 = type { %"class.base::SequencedTaskRunner"* }
%"class.base::SequencedTaskRunner" = type { %"class.base::TaskRunner.base", [4 x i8] }
%"class.base::TaskRunner.base" = type <{ i32 (...)**, %"class.base::RefCountedThreadSafe.4" }>
%"class.base::RefCountedThreadSafe.4" = type { %"class.base::subtle::RefCountedThreadSafeBase" }
%"struct.std::__1::atomic.5" = type { %"struct.std::__1::__atomic_base.6" }
%"struct.std::__1::__atomic_base.6" = type { %"struct.std::__1::__atomic_base.7" }
%"struct.std::__1::__atomic_base.7" = type { %"struct.std::__1::__cxx_atomic_impl.8" }
%"struct.std::__1::__cxx_atomic_impl.8" = type { %"struct.std::__1::__cxx_atomic_base_impl.9" }
%"struct.std::__1::__cxx_atomic_base_impl.9" = type { i32 }
%"class.logging::CheckError" = type { %"class.logging::LogMessage"* }
%"class.logging::LogMessage" = type opaque
%"class.base::Location" = type { i8*, i8*, i32, i8* }
%"class.base::OnceCallback" = type { %"class.base::internal::CallbackBase" }
%"class.base::TaskRunner" = type <{ i32 (...)**, %"class.base::RefCountedThreadSafe.4", [4 x i8] }>
%"class.std::__1::basic_ostream" = type { i32 (...)**, %"class.std::__1::basic_ios.base" }
%"class.std::__1::basic_ios.base" = type <{ %"class.std::__1::ios_base", %"class.std::__1::basic_ostream"*, i32 }>
%"class.std::__1::ios_base" = type { i32 (...)**, i32, i64, i64, i32, i32, i8*, i8*, void (i32, %"class.std::__1::ios_base"*, i32)**, i32*, i64, i64, i64*, i64, i64, i8**, i64, i64 }

$_ZN4base8internal7InvokerINS0_9BindStateIMN4mojo15ConnectionGroupEFvNS4_3RefEEJ13scoped_refptrIS4_ES5_EEEFvvEE7RunOnceEPNS0_13BindStateBaseE = comdat any

$_ZN4base8internal9BindStateIMN4mojo15ConnectionGroupEFvNS3_3RefEEJ13scoped_refptrIS3_ES4_EE7DestroyEPKNS0_13BindStateBaseE = comdat any

@.str = private unnamed_addr constant [15 x i8] c"SetParentGroup\00", align 1
@.str.1 = private unnamed_addr constant [51 x i8] c"../../mojo/public/cpp/bindings/connection_group.cc\00", align 1
@_ZTVN4mojo15ConnectionGroupE = hidden unnamed_addr constant { [4 x i8*] } { [4 x i8*] [i8* null, i8* null, i8* bitcast (void (%"class.mojo::ConnectionGroup"*)* @_ZN4mojo15ConnectionGroupD2Ev to i8*), i8* bitcast (void (%"class.mojo::ConnectionGroup"*)* @_ZN4mojo15ConnectionGroupD0Ev to i8*)] }, align 8
@.str.2 = private unnamed_addr constant [16 x i8] c"ReleaseGroupRef\00", align 1
@.str.3 = private unnamed_addr constant [18 x i8] c"../../base/bind.h\00", align 1
@.str.4 = private unnamed_addr constant [9 x i8] c"callback\00", align 1

@_ZN4mojo15ConnectionGroup3RefC1Ev = hidden unnamed_addr alias void (%"class.mojo::ConnectionGroup::Ref"*), void (%"class.mojo::ConnectionGroup::Ref"*)* @_ZN4mojo15ConnectionGroup3RefC2Ev
@_ZN4mojo15ConnectionGroup3RefC1ERKS1_ = hidden unnamed_addr alias void (%"class.mojo::ConnectionGroup::Ref"*, %"class.mojo::ConnectionGroup::Ref"*), void (%"class.mojo::ConnectionGroup::Ref"*, %"class.mojo::ConnectionGroup::Ref"*)* @_ZN4mojo15ConnectionGroup3RefC2ERKS1_
@_ZN4mojo15ConnectionGroup3RefC1EOS1_ = hidden unnamed_addr alias void (%"class.mojo::ConnectionGroup::Ref"*, %"class.mojo::ConnectionGroup::Ref"*), void (%"class.mojo::ConnectionGroup::Ref"*, %"class.mojo::ConnectionGroup::Ref"*)* @_ZN4mojo15ConnectionGroup3RefC2EOS1_
@_ZN4mojo15ConnectionGroup3RefD1Ev = hidden unnamed_addr alias void (%"class.mojo::ConnectionGroup::Ref"*), void (%"class.mojo::ConnectionGroup::Ref"*)* @_ZN4mojo15ConnectionGroup3RefD2Ev
@_ZN4mojo15ConnectionGroup3RefC1E13scoped_refptrIS0_E = hidden unnamed_addr alias void (%"class.mojo::ConnectionGroup::Ref"*, %"class.mojo::ConnectionGroup"*), void (%"class.mojo::ConnectionGroup::Ref"*, %"class.mojo::ConnectionGroup"*)* @_ZN4mojo15ConnectionGroup3RefC2E13scoped_refptrIS0_E
@_ZN4mojo15ConnectionGroupC1EN4base17RepeatingCallbackIFvvEEE13scoped_refptrINS1_19SequencedTaskRunnerEE = hidden unnamed_addr alias void (%"class.mojo::ConnectionGroup"*, %"class.base::RepeatingCallback"*, %"class.base::SequencedTaskRunner"*), void (%"class.mojo::ConnectionGroup"*, %"class.base::RepeatingCallback"*, %"class.base::SequencedTaskRunner"*)* @_ZN4mojo15ConnectionGroupC2EN4base17RepeatingCallbackIFvvEEE13scoped_refptrINS1_19SequencedTaskRunnerEE
@_ZN4mojo15ConnectionGroupD1Ev = hidden unnamed_addr alias void (%"class.mojo::ConnectionGroup"*), void (%"class.mojo::ConnectionGroup"*)* @_ZN4mojo15ConnectionGroupD2Ev

; Function Attrs: nofree norecurse nounwind ssp uwtable writeonly
define hidden void @_ZN4mojo15ConnectionGroup3RefC2Ev(%"class.mojo::ConnectionGroup::Ref"* nocapture) unnamed_addr #0 align 2 {
  %2 = getelementptr inbounds %"class.mojo::ConnectionGroup::Ref", %"class.mojo::ConnectionGroup::Ref"* %0, i64 0, i32 0
  store i32 0, i32* %2, align 8
  %3 = getelementptr inbounds %"class.mojo::ConnectionGroup::Ref", %"class.mojo::ConnectionGroup::Ref"* %0, i64 0, i32 1, i32 0
  store %"class.mojo::ConnectionGroup"* null, %"class.mojo::ConnectionGroup"** %3, align 8
  ret void
}

; Function Attrs: nounwind ssp uwtable
define hidden void @_ZN4mojo15ConnectionGroup3RefC2ERKS1_(%"class.mojo::ConnectionGroup::Ref"* nocapture, %"class.mojo::ConnectionGroup::Ref"* nocapture readonly dereferenceable(16)) unnamed_addr #1 align 2 {
  %3 = getelementptr inbounds %"class.mojo::ConnectionGroup::Ref", %"class.mojo::ConnectionGroup::Ref"* %0, i64 0, i32 0
  %4 = getelementptr inbounds %"class.mojo::ConnectionGroup::Ref", %"class.mojo::ConnectionGroup::Ref"* %0, i64 0, i32 1
  %5 = getelementptr inbounds %class.scoped_refptr, %class.scoped_refptr* %4, i64 0, i32 0
  %6 = bitcast %class.scoped_refptr* %4 to i64*
  store i64 0, i64* %6, align 8
  store i32 1, i32* %3, align 8
  %7 = getelementptr inbounds %"class.mojo::ConnectionGroup::Ref", %"class.mojo::ConnectionGroup::Ref"* %1, i64 0, i32 1, i32 0
  %8 = load %"class.mojo::ConnectionGroup"*, %"class.mojo::ConnectionGroup"** %7, align 8
  %9 = icmp eq %"class.mojo::ConnectionGroup"* %8, null
  br i1 %9, label %10, label %12

10:                                               ; preds = %2
  %11 = ptrtoint %"class.mojo::ConnectionGroup"* %8 to i64
  store i64 %11, i64* %6, align 8
  br label %30

12:                                               ; preds = %2
  %13 = getelementptr inbounds %"class.mojo::ConnectionGroup", %"class.mojo::ConnectionGroup"* %8, i64 0, i32 1, i32 0, i32 0, i32 0, i32 0, i32 0, i32 0, i32 0, i32 0
  %14 = atomicrmw add i32* %13, i32 1 monotonic
  %15 = load %"class.mojo::ConnectionGroup"*, %"class.mojo::ConnectionGroup"** %5, align 8
  %16 = ptrtoint %"class.mojo::ConnectionGroup"* %8 to i64
  store i64 %16, i64* %6, align 8
  %17 = icmp eq %"class.mojo::ConnectionGroup"* %15, null
  br i1 %17, label %30, label %18

18:                                               ; preds = %12
  %19 = getelementptr inbounds %"class.mojo::ConnectionGroup", %"class.mojo::ConnectionGroup"* %15, i64 0, i32 1
  %20 = getelementptr inbounds %"class.base::RefCountedThreadSafe", %"class.base::RefCountedThreadSafe"* %19, i64 0, i32 0, i32 0, i32 0, i32 0, i32 0, i32 0, i32 0, i32 0
  %21 = atomicrmw sub i32* %20, i32 1 acq_rel
  %22 = icmp eq i32 %21, 1
  br i1 %22, label %23, label %30

23:                                               ; preds = %18
  %24 = getelementptr inbounds %"class.base::RefCountedThreadSafe", %"class.base::RefCountedThreadSafe"* %19, i64 -2
  %25 = bitcast %"class.base::RefCountedThreadSafe"* %24 to %"class.mojo::ConnectionGroup"*
  %26 = bitcast %"class.base::RefCountedThreadSafe"* %24 to void (%"class.mojo::ConnectionGroup"*)***
  %27 = load void (%"class.mojo::ConnectionGroup"*)**, void (%"class.mojo::ConnectionGroup"*)*** %26, align 8
  %28 = getelementptr inbounds void (%"class.mojo::ConnectionGroup"*)*, void (%"class.mojo::ConnectionGroup"*)** %27, i64 1
  %29 = load void (%"class.mojo::ConnectionGroup"*)*, void (%"class.mojo::ConnectionGroup"*)** %28, align 8
  tail call void %29(%"class.mojo::ConnectionGroup"* nonnull %25) #8
  br label %30

30:                                               ; preds = %10, %12, %18, %23
  %31 = load %"class.mojo::ConnectionGroup"*, %"class.mojo::ConnectionGroup"** %5, align 8
  %32 = getelementptr inbounds %"class.mojo::ConnectionGroup", %"class.mojo::ConnectionGroup"* %31, i64 0, i32 6, i32 0, i32 0, i32 0, i32 0, i32 0
  %33 = atomicrmw add i32* %32, i32 1 seq_cst
  ret void
}

; Function Attrs: nounwind ssp uwtable
define hidden dereferenceable(16) %"class.mojo::ConnectionGroup::Ref"* @_ZN4mojo15ConnectionGroup3RefaSERKS1_(%"class.mojo::ConnectionGroup::Ref"* returned, %"class.mojo::ConnectionGroup::Ref"* nocapture readonly dereferenceable(16)) local_unnamed_addr #1 align 2 {
  %3 = getelementptr inbounds %"class.mojo::ConnectionGroup::Ref", %"class.mojo::ConnectionGroup::Ref"* %0, i64 0, i32 0
  %4 = load i32, i32* %3, align 8
  %5 = icmp eq i32 %4, 1
  br i1 %5, label %6, label %11

6:                                                ; preds = %2
  %7 = getelementptr inbounds %"class.mojo::ConnectionGroup::Ref", %"class.mojo::ConnectionGroup::Ref"* %0, i64 0, i32 1, i32 0
  %8 = load %"class.mojo::ConnectionGroup"*, %"class.mojo::ConnectionGroup"** %7, align 8
  %9 = icmp eq %"class.mojo::ConnectionGroup"* %8, null
  br i1 %9, label %11, label %10

10:                                               ; preds = %6
  tail call void @_ZN4mojo15ConnectionGroup15ReleaseGroupRefEv(%"class.mojo::ConnectionGroup"* nonnull %8) #8
  br label %11

11:                                               ; preds = %10, %6, %2
  store i32 0, i32* %3, align 8
  %12 = getelementptr inbounds %"class.mojo::ConnectionGroup::Ref", %"class.mojo::ConnectionGroup::Ref"* %0, i64 0, i32 1
  %13 = bitcast %class.scoped_refptr* %12 to i64*
  %14 = getelementptr inbounds %class.scoped_refptr, %class.scoped_refptr* %12, i64 0, i32 0
  %15 = load %"class.mojo::ConnectionGroup"*, %"class.mojo::ConnectionGroup"** %14, align 8
  store i64 0, i64* %13, align 8
  %16 = icmp eq %"class.mojo::ConnectionGroup"* %15, null
  br i1 %16, label %29, label %17

17:                                               ; preds = %11
  %18 = getelementptr inbounds %"class.mojo::ConnectionGroup", %"class.mojo::ConnectionGroup"* %15, i64 0, i32 1
  %19 = getelementptr inbounds %"class.base::RefCountedThreadSafe", %"class.base::RefCountedThreadSafe"* %18, i64 0, i32 0, i32 0, i32 0, i32 0, i32 0, i32 0, i32 0, i32 0
  %20 = atomicrmw sub i32* %19, i32 1 acq_rel
  %21 = icmp eq i32 %20, 1
  br i1 %21, label %22, label %29

22:                                               ; preds = %17
  %23 = getelementptr inbounds %"class.base::RefCountedThreadSafe", %"class.base::RefCountedThreadSafe"* %18, i64 -2
  %24 = bitcast %"class.base::RefCountedThreadSafe"* %23 to %"class.mojo::ConnectionGroup"*
  %25 = bitcast %"class.base::RefCountedThreadSafe"* %23 to void (%"class.mojo::ConnectionGroup"*)***
  %26 = load void (%"class.mojo::ConnectionGroup"*)**, void (%"class.mojo::ConnectionGroup"*)*** %25, align 8
  %27 = getelementptr inbounds void (%"class.mojo::ConnectionGroup"*)*, void (%"class.mojo::ConnectionGroup"*)** %26, i64 1
  %28 = load void (%"class.mojo::ConnectionGroup"*)*, void (%"class.mojo::ConnectionGroup"*)** %27, align 8
  tail call void %28(%"class.mojo::ConnectionGroup"* nonnull %24) #8
  br label %29

29:                                               ; preds = %11, %17, %22
  store i32 1, i32* %3, align 8
  %30 = getelementptr inbounds %"class.mojo::ConnectionGroup::Ref", %"class.mojo::ConnectionGroup::Ref"* %1, i64 0, i32 1, i32 0
  %31 = load %"class.mojo::ConnectionGroup"*, %"class.mojo::ConnectionGroup"** %30, align 8
  %32 = icmp eq %"class.mojo::ConnectionGroup"* %31, null
  br i1 %32, label %36, label %33

33:                                               ; preds = %29
  %34 = getelementptr inbounds %"class.mojo::ConnectionGroup", %"class.mojo::ConnectionGroup"* %31, i64 0, i32 1, i32 0, i32 0, i32 0, i32 0, i32 0, i32 0, i32 0, i32 0
  %35 = atomicrmw add i32* %34, i32 1 monotonic
  br label %36

36:                                               ; preds = %29, %33
  %37 = ptrtoint %"class.mojo::ConnectionGroup"* %31 to i64
  %38 = load %"class.mojo::ConnectionGroup"*, %"class.mojo::ConnectionGroup"** %14, align 8
  store i64 %37, i64* %13, align 8
  %39 = icmp eq %"class.mojo::ConnectionGroup"* %38, null
  br i1 %39, label %52, label %40

40:                                               ; preds = %36
  %41 = getelementptr inbounds %"class.mojo::ConnectionGroup", %"class.mojo::ConnectionGroup"* %38, i64 0, i32 1
  %42 = getelementptr inbounds %"class.base::RefCountedThreadSafe", %"class.base::RefCountedThreadSafe"* %41, i64 0, i32 0, i32 0, i32 0, i32 0, i32 0, i32 0, i32 0, i32 0
  %43 = atomicrmw sub i32* %42, i32 1 acq_rel
  %44 = icmp eq i32 %43, 1
  br i1 %44, label %45, label %52

45:                                               ; preds = %40
  %46 = getelementptr inbounds %"class.base::RefCountedThreadSafe", %"class.base::RefCountedThreadSafe"* %41, i64 -2
  %47 = bitcast %"class.base::RefCountedThreadSafe"* %46 to %"class.mojo::ConnectionGroup"*
  %48 = bitcast %"class.base::RefCountedThreadSafe"* %46 to void (%"class.mojo::ConnectionGroup"*)***
  %49 = load void (%"class.mojo::ConnectionGroup"*)**, void (%"class.mojo::ConnectionGroup"*)*** %48, align 8
  %50 = getelementptr inbounds void (%"class.mojo::ConnectionGroup"*)*, void (%"class.mojo::ConnectionGroup"*)** %49, i64 1
  %51 = load void (%"class.mojo::ConnectionGroup"*)*, void (%"class.mojo::ConnectionGroup"*)** %50, align 8
  tail call void %51(%"class.mojo::ConnectionGroup"* nonnull %47) #8
  br label %52

52:                                               ; preds = %36, %40, %45
  %53 = load %"class.mojo::ConnectionGroup"*, %"class.mojo::ConnectionGroup"** %14, align 8
  %54 = getelementptr inbounds %"class.mojo::ConnectionGroup", %"class.mojo::ConnectionGroup"* %53, i64 0, i32 6, i32 0, i32 0, i32 0, i32 0, i32 0
  %55 = atomicrmw add i32* %54, i32 1 seq_cst
  ret %"class.mojo::ConnectionGroup::Ref"* %0
}

; Function Attrs: nounwind ssp uwtable
define hidden void @_ZN4mojo15ConnectionGroup3RefC2EOS1_(%"class.mojo::ConnectionGroup::Ref"* nocapture, %"class.mojo::ConnectionGroup::Ref"* nocapture dereferenceable(16)) unnamed_addr #1 align 2 {
  %3 = getelementptr inbounds %"class.mojo::ConnectionGroup::Ref", %"class.mojo::ConnectionGroup::Ref"* %0, i64 0, i32 0
  %4 = getelementptr inbounds %"class.mojo::ConnectionGroup::Ref", %"class.mojo::ConnectionGroup::Ref"* %0, i64 0, i32 1
  store i32 0, i32* %3, align 8
  %5 = bitcast %class.scoped_refptr* %4 to i64*
  store i64 0, i64* %5, align 8
  %6 = getelementptr inbounds %"class.mojo::ConnectionGroup::Ref", %"class.mojo::ConnectionGroup::Ref"* %1, i64 0, i32 0
  %7 = load i32, i32* %6, align 8
  store i32 %7, i32* %3, align 8
  %8 = getelementptr inbounds %"class.mojo::ConnectionGroup::Ref", %"class.mojo::ConnectionGroup::Ref"* %1, i64 0, i32 1
  %9 = bitcast %class.scoped_refptr* %8 to i64*
  %10 = load i64, i64* %9, align 8
  store i64 %10, i64* %5, align 8
  store i64 0, i64* %9, align 8
  ret void
}

; Function Attrs: nounwind ssp uwtable
define hidden dereferenceable(16) %"class.mojo::ConnectionGroup::Ref"* @_ZN4mojo15ConnectionGroup3RefaSEOS1_(%"class.mojo::ConnectionGroup::Ref"* returned, %"class.mojo::ConnectionGroup::Ref"* nocapture dereferenceable(16)) local_unnamed_addr #1 align 2 {
  %3 = getelementptr inbounds %"class.mojo::ConnectionGroup::Ref", %"class.mojo::ConnectionGroup::Ref"* %0, i64 0, i32 0
  %4 = load i32, i32* %3, align 8
  %5 = icmp eq i32 %4, 1
  br i1 %5, label %6, label %11

6:                                                ; preds = %2
  %7 = getelementptr inbounds %"class.mojo::ConnectionGroup::Ref", %"class.mojo::ConnectionGroup::Ref"* %0, i64 0, i32 1, i32 0
  %8 = load %"class.mojo::ConnectionGroup"*, %"class.mojo::ConnectionGroup"** %7, align 8
  %9 = icmp eq %"class.mojo::ConnectionGroup"* %8, null
  br i1 %9, label %11, label %10

10:                                               ; preds = %6
  tail call void @_ZN4mojo15ConnectionGroup15ReleaseGroupRefEv(%"class.mojo::ConnectionGroup"* nonnull %8) #8
  br label %11

11:                                               ; preds = %10, %6, %2
  store i32 0, i32* %3, align 8
  %12 = getelementptr inbounds %"class.mojo::ConnectionGroup::Ref", %"class.mojo::ConnectionGroup::Ref"* %0, i64 0, i32 1
  %13 = bitcast %class.scoped_refptr* %12 to i64*
  %14 = getelementptr inbounds %class.scoped_refptr, %class.scoped_refptr* %12, i64 0, i32 0
  %15 = load %"class.mojo::ConnectionGroup"*, %"class.mojo::ConnectionGroup"** %14, align 8
  store i64 0, i64* %13, align 8
  %16 = icmp eq %"class.mojo::ConnectionGroup"* %15, null
  br i1 %16, label %29, label %17

17:                                               ; preds = %11
  %18 = getelementptr inbounds %"class.mojo::ConnectionGroup", %"class.mojo::ConnectionGroup"* %15, i64 0, i32 1
  %19 = getelementptr inbounds %"class.base::RefCountedThreadSafe", %"class.base::RefCountedThreadSafe"* %18, i64 0, i32 0, i32 0, i32 0, i32 0, i32 0, i32 0, i32 0, i32 0
  %20 = atomicrmw sub i32* %19, i32 1 acq_rel
  %21 = icmp eq i32 %20, 1
  br i1 %21, label %22, label %29

22:                                               ; preds = %17
  %23 = getelementptr inbounds %"class.base::RefCountedThreadSafe", %"class.base::RefCountedThreadSafe"* %18, i64 -2
  %24 = bitcast %"class.base::RefCountedThreadSafe"* %23 to %"class.mojo::ConnectionGroup"*
  %25 = bitcast %"class.base::RefCountedThreadSafe"* %23 to void (%"class.mojo::ConnectionGroup"*)***
  %26 = load void (%"class.mojo::ConnectionGroup"*)**, void (%"class.mojo::ConnectionGroup"*)*** %25, align 8
  %27 = getelementptr inbounds void (%"class.mojo::ConnectionGroup"*)*, void (%"class.mojo::ConnectionGroup"*)** %26, i64 1
  %28 = load void (%"class.mojo::ConnectionGroup"*)*, void (%"class.mojo::ConnectionGroup"*)** %27, align 8
  tail call void %28(%"class.mojo::ConnectionGroup"* nonnull %24) #8
  br label %29

29:                                               ; preds = %11, %17, %22
  %30 = getelementptr inbounds %"class.mojo::ConnectionGroup::Ref", %"class.mojo::ConnectionGroup::Ref"* %1, i64 0, i32 0
  %31 = load i32, i32* %30, align 8
  store i32 %31, i32* %3, align 8
  %32 = getelementptr inbounds %"class.mojo::ConnectionGroup::Ref", %"class.mojo::ConnectionGroup::Ref"* %1, i64 0, i32 1
  %33 = load i64, i64* %13, align 8
  %34 = bitcast %class.scoped_refptr* %32 to i64*
  %35 = load i64, i64* %34, align 8
  store i64 %35, i64* %13, align 8
  store i64 %33, i64* %34, align 8
  ret %"class.mojo::ConnectionGroup::Ref"* %0
}

; Function Attrs: nounwind ssp uwtable
define hidden void @_ZN4mojo15ConnectionGroup3RefD2Ev(%"class.mojo::ConnectionGroup::Ref"* nocapture) unnamed_addr #1 align 2 {
  %2 = getelementptr inbounds %"class.mojo::ConnectionGroup::Ref", %"class.mojo::ConnectionGroup::Ref"* %0, i64 0, i32 0
  %3 = load i32, i32* %2, align 8
  %4 = icmp eq i32 %3, 1
  br i1 %4, label %5, label %10

5:                                                ; preds = %1
  %6 = getelementptr inbounds %"class.mojo::ConnectionGroup::Ref", %"class.mojo::ConnectionGroup::Ref"* %0, i64 0, i32 1, i32 0
  %7 = load %"class.mojo::ConnectionGroup"*, %"class.mojo::ConnectionGroup"** %6, align 8
  %8 = icmp eq %"class.mojo::ConnectionGroup"* %7, null
  br i1 %8, label %10, label %9

9:                                                ; preds = %5
  tail call void @_ZN4mojo15ConnectionGroup15ReleaseGroupRefEv(%"class.mojo::ConnectionGroup"* nonnull %7) #8
  br label %10

10:                                               ; preds = %9, %5, %1
  store i32 0, i32* %2, align 8
  %11 = getelementptr inbounds %"class.mojo::ConnectionGroup::Ref", %"class.mojo::ConnectionGroup::Ref"* %0, i64 0, i32 1
  %12 = bitcast %class.scoped_refptr* %11 to i64*
  %13 = getelementptr inbounds %class.scoped_refptr, %class.scoped_refptr* %11, i64 0, i32 0
  %14 = load %"class.mojo::ConnectionGroup"*, %"class.mojo::ConnectionGroup"** %13, align 8
  store i64 0, i64* %12, align 8
  %15 = icmp eq %"class.mojo::ConnectionGroup"* %14, null
  br i1 %15, label %43, label %16

16:                                               ; preds = %10
  %17 = getelementptr inbounds %"class.mojo::ConnectionGroup", %"class.mojo::ConnectionGroup"* %14, i64 0, i32 1
  %18 = getelementptr inbounds %"class.base::RefCountedThreadSafe", %"class.base::RefCountedThreadSafe"* %17, i64 0, i32 0, i32 0, i32 0, i32 0, i32 0, i32 0, i32 0, i32 0
  %19 = atomicrmw sub i32* %18, i32 1 acq_rel
  %20 = icmp eq i32 %19, 1
  br i1 %20, label %21, label %28

21:                                               ; preds = %16
  %22 = getelementptr inbounds %"class.base::RefCountedThreadSafe", %"class.base::RefCountedThreadSafe"* %17, i64 -2
  %23 = bitcast %"class.base::RefCountedThreadSafe"* %22 to %"class.mojo::ConnectionGroup"*
  %24 = bitcast %"class.base::RefCountedThreadSafe"* %22 to void (%"class.mojo::ConnectionGroup"*)***
  %25 = load void (%"class.mojo::ConnectionGroup"*)**, void (%"class.mojo::ConnectionGroup"*)*** %24, align 8
  %26 = getelementptr inbounds void (%"class.mojo::ConnectionGroup"*)*, void (%"class.mojo::ConnectionGroup"*)** %25, i64 1
  %27 = load void (%"class.mojo::ConnectionGroup"*)*, void (%"class.mojo::ConnectionGroup"*)** %26, align 8
  tail call void %27(%"class.mojo::ConnectionGroup"* nonnull %23) #8
  br label %28

28:                                               ; preds = %16, %21
  %29 = load %"class.mojo::ConnectionGroup"*, %"class.mojo::ConnectionGroup"** %13, align 8
  %30 = icmp eq %"class.mojo::ConnectionGroup"* %29, null
  br i1 %30, label %43, label %31

31:                                               ; preds = %28
  %32 = getelementptr inbounds %"class.mojo::ConnectionGroup", %"class.mojo::ConnectionGroup"* %29, i64 0, i32 1
  %33 = getelementptr inbounds %"class.base::RefCountedThreadSafe", %"class.base::RefCountedThreadSafe"* %32, i64 0, i32 0, i32 0, i32 0, i32 0, i32 0, i32 0, i32 0, i32 0
  %34 = atomicrmw sub i32* %33, i32 1 acq_rel
  %35 = icmp eq i32 %34, 1
  br i1 %35, label %36, label %43

36:                                               ; preds = %31
  %37 = getelementptr inbounds %"class.base::RefCountedThreadSafe", %"class.base::RefCountedThreadSafe"* %32, i64 -2
  %38 = bitcast %"class.base::RefCountedThreadSafe"* %37 to %"class.mojo::ConnectionGroup"*
  %39 = bitcast %"class.base::RefCountedThreadSafe"* %37 to void (%"class.mojo::ConnectionGroup"*)***
  %40 = load void (%"class.mojo::ConnectionGroup"*)**, void (%"class.mojo::ConnectionGroup"*)*** %39, align 8
  %41 = getelementptr inbounds void (%"class.mojo::ConnectionGroup"*)*, void (%"class.mojo::ConnectionGroup"*)** %40, i64 1
  %42 = load void (%"class.mojo::ConnectionGroup"*)*, void (%"class.mojo::ConnectionGroup"*)** %41, align 8
  tail call void %42(%"class.mojo::ConnectionGroup"* nonnull %38) #8
  br label %43

43:                                               ; preds = %10, %28, %31, %36
  ret void
}

; Function Attrs: nounwind ssp uwtable
define hidden void @_ZN4mojo15ConnectionGroup3Ref5resetEv(%"class.mojo::ConnectionGroup::Ref"* nocapture) local_unnamed_addr #1 align 2 {
  %2 = getelementptr inbounds %"class.mojo::ConnectionGroup::Ref", %"class.mojo::ConnectionGroup::Ref"* %0, i64 0, i32 0
  %3 = load i32, i32* %2, align 8
  %4 = icmp eq i32 %3, 1
  br i1 %4, label %5, label %10

5:                                                ; preds = %1
  %6 = getelementptr inbounds %"class.mojo::ConnectionGroup::Ref", %"class.mojo::ConnectionGroup::Ref"* %0, i64 0, i32 1, i32 0
  %7 = load %"class.mojo::ConnectionGroup"*, %"class.mojo::ConnectionGroup"** %6, align 8
  %8 = icmp eq %"class.mojo::ConnectionGroup"* %7, null
  br i1 %8, label %10, label %9

9:                                                ; preds = %5
  tail call void @_ZN4mojo15ConnectionGroup15ReleaseGroupRefEv(%"class.mojo::ConnectionGroup"* nonnull %7)
  br label %10

10:                                               ; preds = %5, %9, %1
  store i32 0, i32* %2, align 8
  %11 = getelementptr inbounds %"class.mojo::ConnectionGroup::Ref", %"class.mojo::ConnectionGroup::Ref"* %0, i64 0, i32 1
  %12 = bitcast %class.scoped_refptr* %11 to i64*
  %13 = getelementptr inbounds %class.scoped_refptr, %class.scoped_refptr* %11, i64 0, i32 0
  %14 = load %"class.mojo::ConnectionGroup"*, %"class.mojo::ConnectionGroup"** %13, align 8
  store i64 0, i64* %12, align 8
  %15 = icmp eq %"class.mojo::ConnectionGroup"* %14, null
  br i1 %15, label %28, label %16

16:                                               ; preds = %10
  %17 = getelementptr inbounds %"class.mojo::ConnectionGroup", %"class.mojo::ConnectionGroup"* %14, i64 0, i32 1
  %18 = getelementptr inbounds %"class.base::RefCountedThreadSafe", %"class.base::RefCountedThreadSafe"* %17, i64 0, i32 0, i32 0, i32 0, i32 0, i32 0, i32 0, i32 0, i32 0
  %19 = atomicrmw sub i32* %18, i32 1 acq_rel
  %20 = icmp eq i32 %19, 1
  br i1 %20, label %21, label %28

21:                                               ; preds = %16
  %22 = getelementptr inbounds %"class.base::RefCountedThreadSafe", %"class.base::RefCountedThreadSafe"* %17, i64 -2
  %23 = bitcast %"class.base::RefCountedThreadSafe"* %22 to %"class.mojo::ConnectionGroup"*
  %24 = bitcast %"class.base::RefCountedThreadSafe"* %22 to void (%"class.mojo::ConnectionGroup"*)***
  %25 = load void (%"class.mojo::ConnectionGroup"*)**, void (%"class.mojo::ConnectionGroup"*)*** %24, align 8
  %26 = getelementptr inbounds void (%"class.mojo::ConnectionGroup"*)*, void (%"class.mojo::ConnectionGroup"*)** %25, i64 1
  %27 = load void (%"class.mojo::ConnectionGroup"*)*, void (%"class.mojo::ConnectionGroup"*)** %26, align 8
  tail call void %27(%"class.mojo::ConnectionGroup"* nonnull %23) #8
  br label %28

28:                                               ; preds = %10, %16, %21
  ret void
}

; Function Attrs: nofree norecurse nounwind ssp uwtable
define hidden void @_ZN4mojo15ConnectionGroup11AddGroupRefEv(%"class.mojo::ConnectionGroup"* nocapture) local_unnamed_addr #2 align 2 {
  %2 = getelementptr inbounds %"class.mojo::ConnectionGroup", %"class.mojo::ConnectionGroup"* %0, i64 0, i32 6, i32 0, i32 0, i32 0, i32 0, i32 0
  %3 = atomicrmw add i32* %2, i32 1 seq_cst
  ret void
}

; Function Attrs: nounwind ssp uwtable
define hidden void @_ZN4mojo15ConnectionGroup15ReleaseGroupRefEv(%"class.mojo::ConnectionGroup"*) local_unnamed_addr #1 align 2 {
  %2 = alloca %"class.logging::CheckError", align 8
  %3 = alloca %"class.base::RepeatingCallback", align 8
  %4 = alloca %"class.base::Location", align 8
  %5 = alloca %"class.base::OnceCallback", align 8
  %6 = alloca %"class.base::RepeatingCallback", align 8
  %7 = getelementptr inbounds %"class.mojo::ConnectionGroup", %"class.mojo::ConnectionGroup"* %0, i64 0, i32 6, i32 0, i32 0, i32 0, i32 0, i32 0
  %8 = atomicrmw sub i32* %7, i32 1 seq_cst
  %9 = load atomic i32, i32* %7 seq_cst, align 4
  %10 = icmp eq i32 %9, 0
  br i1 %10, label %11, label %33

11:                                               ; preds = %1
  %12 = getelementptr inbounds %"class.mojo::ConnectionGroup", %"class.mojo::ConnectionGroup"* %0, i64 0, i32 4, i32 0
  %13 = load %"class.base::SequencedTaskRunner"*, %"class.base::SequencedTaskRunner"** %12, align 8
  %14 = icmp eq %"class.base::SequencedTaskRunner"* %13, null
  br i1 %14, label %33, label %15

15:                                               ; preds = %11
  %16 = bitcast %"class.base::SequencedTaskRunner"* %13 to %"class.base::TaskRunner"*
  %17 = bitcast %"class.base::Location"* %4 to i8*
  call void @llvm.lifetime.start.p0i8(i64 32, i8* nonnull %17) #8
  call void @_ZN4base8Location7CurrentEPKcS2_i(%"class.base::Location"* nonnull sret %4, i8* getelementptr inbounds ([16 x i8], [16 x i8]* @.str.2, i64 0, i64 0), i8* getelementptr inbounds ([51 x i8], [51 x i8]* @.str.1, i64 0, i64 0), i32 95) #8
  %18 = getelementptr inbounds %"class.base::RepeatingCallback", %"class.base::RepeatingCallback"* %6, i64 0, i32 0
  %19 = getelementptr inbounds %"class.mojo::ConnectionGroup", %"class.mojo::ConnectionGroup"* %0, i64 0, i32 3, i32 0
  call void @_ZN4base8internal20CallbackBaseCopyableC2ERKS1_(%"class.base::internal::CallbackBaseCopyable"* nonnull %18, %"class.base::internal::CallbackBaseCopyable"* dereferenceable(8) %19) #8
  %20 = bitcast %"class.base::RepeatingCallback"* %3 to i8*
  call void @llvm.lifetime.start.p0i8(i64 8, i8* nonnull %20)
  %21 = getelementptr inbounds %"class.base::RepeatingCallback", %"class.base::RepeatingCallback"* %6, i64 0, i32 0, i32 0, i32 0, i32 0
  %22 = load %"class.base::internal::BindStateBase"*, %"class.base::internal::BindStateBase"** %21, align 8, !noalias !2
  %23 = icmp eq %"class.base::internal::BindStateBase"* %22, null
  br i1 %23, label %24, label %27

24:                                               ; preds = %15
  %25 = bitcast %"class.logging::CheckError"* %2 to i8*
  call void @llvm.lifetime.start.p0i8(i64 8, i8* nonnull %25) #8, !noalias !2
  call void @_ZN7logging10CheckError5CheckEPKciS2_(%"class.logging::CheckError"* nonnull sret %2, i8* getelementptr inbounds ([18 x i8], [18 x i8]* @.str.3, i64 0, i64 0), i32 103, i8* getelementptr inbounds ([9 x i8], [9 x i8]* @.str.4, i64 0, i64 0)) #8
  %26 = call dereferenceable(160) %"class.std::__1::basic_ostream"* @_ZN7logging10CheckError6streamEv(%"class.logging::CheckError"* nonnull %2) #8
  call void @_ZN7logging10CheckErrorD1Ev(%"class.logging::CheckError"* nonnull %2) #8
  call void @llvm.lifetime.end.p0i8(i64 8, i8* nonnull %25) #8, !noalias !2
  br label %27

27:                                               ; preds = %15, %24
  %28 = getelementptr inbounds %"class.base::RepeatingCallback", %"class.base::RepeatingCallback"* %3, i64 0, i32 0
  call void @_ZN4base8internal20CallbackBaseCopyableC2ERKS1_(%"class.base::internal::CallbackBaseCopyable"* nonnull %28, %"class.base::internal::CallbackBaseCopyable"* nonnull dereferenceable(8) %18) #8, !noalias !2
  %29 = getelementptr inbounds %"class.base::OnceCallback", %"class.base::OnceCallback"* %5, i64 0, i32 0
  call void @_ZN4base8internal12CallbackBaseC2EONS0_20CallbackBaseCopyableE(%"class.base::internal::CallbackBase"* nonnull %29, %"class.base::internal::CallbackBaseCopyable"* nonnull dereferenceable(8) %28) #8
  %30 = getelementptr inbounds %"class.base::RepeatingCallback", %"class.base::RepeatingCallback"* %3, i64 0, i32 0, i32 0
  call void @_ZN4base8internal12CallbackBaseD2Ev(%"class.base::internal::CallbackBase"* nonnull %30) #8
  call void @llvm.lifetime.end.p0i8(i64 8, i8* nonnull %20)
  %31 = call zeroext i1 @_ZN4base10TaskRunner8PostTaskERKNS_8LocationENS_12OnceCallbackIFvvEEE(%"class.base::TaskRunner"* nonnull %16, %"class.base::Location"* nonnull dereferenceable(32) %4, %"class.base::OnceCallback"* nonnull %5) #8
  call void @_ZN4base8internal12CallbackBaseD2Ev(%"class.base::internal::CallbackBase"* nonnull %29) #8
  %32 = getelementptr inbounds %"class.base::RepeatingCallback", %"class.base::RepeatingCallback"* %6, i64 0, i32 0, i32 0
  call void @_ZN4base8internal12CallbackBaseD2Ev(%"class.base::internal::CallbackBase"* nonnull %32) #8
  call void @llvm.lifetime.end.p0i8(i64 32, i8* nonnull %17) #8
  br label %33

33:                                               ; preds = %11, %27, %1
  ret void
}

; Function Attrs: nofree norecurse nounwind ssp uwtable
define hidden void @_ZNK4mojo15ConnectionGroup3Ref8WeakCopyEv(%"class.mojo::ConnectionGroup::Ref"* noalias nocapture sret, %"class.mojo::ConnectionGroup::Ref"* nocapture readonly) local_unnamed_addr #2 align 2 {
  %3 = getelementptr inbounds %"class.mojo::ConnectionGroup::Ref", %"class.mojo::ConnectionGroup::Ref"* %1, i64 0, i32 1, i32 0
  %4 = load %"class.mojo::ConnectionGroup"*, %"class.mojo::ConnectionGroup"** %3, align 8
  %5 = icmp eq %"class.mojo::ConnectionGroup"* %4, null
  br i1 %5, label %9, label %6

6:                                                ; preds = %2
  %7 = getelementptr inbounds %"class.mojo::ConnectionGroup", %"class.mojo::ConnectionGroup"* %4, i64 0, i32 1, i32 0, i32 0, i32 0, i32 0, i32 0, i32 0, i32 0, i32 0
  %8 = atomicrmw add i32* %7, i32 1 monotonic
  br label %9

9:                                                ; preds = %2, %6
  %10 = ptrtoint %"class.mojo::ConnectionGroup"* %4 to i64
  %11 = getelementptr inbounds %"class.mojo::ConnectionGroup::Ref", %"class.mojo::ConnectionGroup::Ref"* %0, i64 0, i32 0
  store i32 0, i32* %11, align 8
  %12 = getelementptr inbounds %"class.mojo::ConnectionGroup::Ref", %"class.mojo::ConnectionGroup::Ref"* %0, i64 0, i32 1
  %13 = bitcast %class.scoped_refptr* %12 to i64*
  store i64 %10, i64* %13, align 8
  ret void
}

; Function Attrs: nofree norecurse nounwind ssp uwtable
define hidden zeroext i1 @_ZNK4mojo15ConnectionGroup3Ref11HasZeroRefsEv(%"class.mojo::ConnectionGroup::Ref"* nocapture readonly) local_unnamed_addr #2 align 2 {
  %2 = getelementptr inbounds %"class.mojo::ConnectionGroup::Ref", %"class.mojo::ConnectionGroup::Ref"* %0, i64 0, i32 1, i32 0
  %3 = load %"class.mojo::ConnectionGroup"*, %"class.mojo::ConnectionGroup"** %2, align 8
  %4 = getelementptr inbounds %"class.mojo::ConnectionGroup", %"class.mojo::ConnectionGroup"* %3, i64 0, i32 6, i32 0, i32 0, i32 0, i32 0, i32 0
  %5 = load atomic i32, i32* %4 seq_cst, align 4
  %6 = icmp eq i32 %5, 0
  ret i1 %6
}

; Function Attrs: nounwind ssp uwtable
define hidden void @_ZN4mojo15ConnectionGroup3Ref14SetParentGroupES1_(%"class.mojo::ConnectionGroup::Ref"* nocapture readonly, %"class.mojo::ConnectionGroup::Ref"* nocapture) local_unnamed_addr #1 align 2 {
  %3 = alloca %"class.base::Location", align 8
  %4 = alloca %"class.base::OnceCallback", align 8
  %5 = getelementptr inbounds %"class.mojo::ConnectionGroup::Ref", %"class.mojo::ConnectionGroup::Ref"* %0, i64 0, i32 1, i32 0
  %6 = load %"class.mojo::ConnectionGroup"*, %"class.mojo::ConnectionGroup"** %5, align 8
  %7 = getelementptr inbounds %"class.mojo::ConnectionGroup", %"class.mojo::ConnectionGroup"* %6, i64 0, i32 4, i32 0
  %8 = bitcast %"class.base::SequencedTaskRunner"** %7 to %"class.base::TaskRunner"**
  %9 = load %"class.base::TaskRunner"*, %"class.base::TaskRunner"** %8, align 8
  %10 = bitcast %"class.base::Location"* %3 to i8*
  call void @llvm.lifetime.start.p0i8(i64 32, i8* nonnull %10) #8
  call void @_ZN4base8Location7CurrentEPKcS2_i(%"class.base::Location"* nonnull sret %3, i8* getelementptr inbounds ([15 x i8], [15 x i8]* @.str, i64 0, i64 0), i8* getelementptr inbounds ([51 x i8], [51 x i8]* @.str.1, i64 0, i64 0), i32 59) #8
  %11 = call i8* @_Znwm(i64 72) #9, !noalias !5
  %12 = bitcast i8* %11 to %"class.base::internal::BindStateBase"*
  call void @_ZN4base8internal13BindStateBaseC2EPFvvEPFvPKS1_E(%"class.base::internal::BindStateBase"* nonnull %12, void ()* bitcast (void (%"class.base::internal::BindStateBase"*)* @_ZN4base8internal7InvokerINS0_9BindStateIMN4mojo15ConnectionGroupEFvNS4_3RefEEJ13scoped_refptrIS4_ES5_EEEFvvEE7RunOnceEPNS0_13BindStateBaseE to void ()*), void (%"class.base::internal::BindStateBase"*)* nonnull @_ZN4base8internal9BindStateIMN4mojo15ConnectionGroupEFvNS3_3RefEEJ13scoped_refptrIS3_ES4_EE7DestroyEPKNS0_13BindStateBaseE) #8, !noalias !5
  %13 = getelementptr inbounds i8, i8* %11, i64 32
  %14 = bitcast i8* %13 to <2 x i64>*
  store <2 x i64> <i64 ptrtoint (void (%"class.mojo::ConnectionGroup"*, %"class.mojo::ConnectionGroup::Ref"*)* @_ZN4mojo15ConnectionGroup14SetParentGroupENS0_3RefE to i64), i64 0>, <2 x i64>* %14, align 8, !noalias !5
  %15 = load %"class.mojo::ConnectionGroup"*, %"class.mojo::ConnectionGroup"** %5, align 8, !noalias !5
  %16 = getelementptr inbounds i8, i8* %11, i64 48
  %17 = bitcast i8* %16 to %"class.mojo::ConnectionGroup"**
  store %"class.mojo::ConnectionGroup"* %15, %"class.mojo::ConnectionGroup"** %17, align 8, !noalias !5
  %18 = icmp eq %"class.mojo::ConnectionGroup"* %15, null
  br i1 %18, label %22, label %19

19:                                               ; preds = %2
  %20 = getelementptr inbounds %"class.mojo::ConnectionGroup", %"class.mojo::ConnectionGroup"* %15, i64 0, i32 1, i32 0, i32 0, i32 0, i32 0, i32 0, i32 0, i32 0, i32 0
  %21 = atomicrmw add i32* %20, i32 1 monotonic, !noalias !5
  br label %22

22:                                               ; preds = %2, %19
  %23 = getelementptr inbounds i8, i8* %11, i64 56
  %24 = bitcast i8* %23 to i32*
  %25 = getelementptr inbounds i8, i8* %11, i64 64
  %26 = bitcast i8* %25 to i64*
  %27 = getelementptr inbounds %"class.mojo::ConnectionGroup::Ref", %"class.mojo::ConnectionGroup::Ref"* %1, i64 0, i32 0
  %28 = load i32, i32* %27, align 8, !noalias !5
  store i32 %28, i32* %24, align 8, !noalias !5
  %29 = getelementptr inbounds %"class.mojo::ConnectionGroup::Ref", %"class.mojo::ConnectionGroup::Ref"* %1, i64 0, i32 1
  %30 = bitcast %class.scoped_refptr* %29 to i64*
  %31 = load i64, i64* %30, align 8, !noalias !5
  store i64 %31, i64* %26, align 8, !noalias !5
  store i64 0, i64* %30, align 8, !noalias !5
  %32 = bitcast %"class.base::OnceCallback"* %4 to i8**
  store i8* %11, i8** %32, align 8, !alias.scope !5
  %33 = call zeroext i1 @_ZN4base10TaskRunner8PostTaskERKNS_8LocationENS_12OnceCallbackIFvvEEE(%"class.base::TaskRunner"* %9, %"class.base::Location"* nonnull dereferenceable(32) %3, %"class.base::OnceCallback"* nonnull %4) #8
  %34 = getelementptr inbounds %"class.base::OnceCallback", %"class.base::OnceCallback"* %4, i64 0, i32 0
  call void @_ZN4base8internal12CallbackBaseD2Ev(%"class.base::internal::CallbackBase"* nonnull %34) #8
  call void @llvm.lifetime.end.p0i8(i64 32, i8* nonnull %10) #8
  ret void
}

declare zeroext i1 @_ZN4base10TaskRunner8PostTaskERKNS_8LocationENS_12OnceCallbackIFvvEEE(%"class.base::TaskRunner"*, %"class.base::Location"* dereferenceable(32), %"class.base::OnceCallback"*) local_unnamed_addr #3

; Function Attrs: argmemonly nounwind
declare void @llvm.lifetime.start.p0i8(i64 immarg, i8* nocapture) #4

declare void @_ZN4base8Location7CurrentEPKcS2_i(%"class.base::Location"* sret, i8*, i8*, i32) local_unnamed_addr #3

; Function Attrs: nounwind ssp uwtable
define hidden void @_ZN4mojo15ConnectionGroup14SetParentGroupENS0_3RefE(%"class.mojo::ConnectionGroup"* nocapture, %"class.mojo::ConnectionGroup::Ref"* nocapture) #1 align 2 {
  %3 = getelementptr inbounds %"class.mojo::ConnectionGroup", %"class.mojo::ConnectionGroup"* %0, i64 0, i32 5, i32 0
  %4 = load i32, i32* %3, align 8
  %5 = icmp eq i32 %4, 1
  br i1 %5, label %6, label %11

6:                                                ; preds = %2
  %7 = getelementptr inbounds %"class.mojo::ConnectionGroup", %"class.mojo::ConnectionGroup"* %0, i64 0, i32 5, i32 1, i32 0
  %8 = load %"class.mojo::ConnectionGroup"*, %"class.mojo::ConnectionGroup"** %7, align 8
  %9 = icmp eq %"class.mojo::ConnectionGroup"* %8, null
  br i1 %9, label %11, label %10

10:                                               ; preds = %6
  tail call void @_ZN4mojo15ConnectionGroup15ReleaseGroupRefEv(%"class.mojo::ConnectionGroup"* nonnull %8) #8
  br label %11

11:                                               ; preds = %10, %6, %2
  store i32 0, i32* %3, align 8
  %12 = getelementptr inbounds %"class.mojo::ConnectionGroup", %"class.mojo::ConnectionGroup"* %0, i64 0, i32 5, i32 1
  %13 = bitcast %class.scoped_refptr* %12 to i64*
  %14 = getelementptr inbounds %class.scoped_refptr, %class.scoped_refptr* %12, i64 0, i32 0
  %15 = load %"class.mojo::ConnectionGroup"*, %"class.mojo::ConnectionGroup"** %14, align 8
  store i64 0, i64* %13, align 8
  %16 = icmp eq %"class.mojo::ConnectionGroup"* %15, null
  br i1 %16, label %29, label %17

17:                                               ; preds = %11
  %18 = getelementptr inbounds %"class.mojo::ConnectionGroup", %"class.mojo::ConnectionGroup"* %15, i64 0, i32 1
  %19 = getelementptr inbounds %"class.base::RefCountedThreadSafe", %"class.base::RefCountedThreadSafe"* %18, i64 0, i32 0, i32 0, i32 0, i32 0, i32 0, i32 0, i32 0, i32 0
  %20 = atomicrmw sub i32* %19, i32 1 acq_rel
  %21 = icmp eq i32 %20, 1
  br i1 %21, label %22, label %29

22:                                               ; preds = %17
  %23 = getelementptr inbounds %"class.base::RefCountedThreadSafe", %"class.base::RefCountedThreadSafe"* %18, i64 -2
  %24 = bitcast %"class.base::RefCountedThreadSafe"* %23 to %"class.mojo::ConnectionGroup"*
  %25 = bitcast %"class.base::RefCountedThreadSafe"* %23 to void (%"class.mojo::ConnectionGroup"*)***
  %26 = load void (%"class.mojo::ConnectionGroup"*)**, void (%"class.mojo::ConnectionGroup"*)*** %25, align 8
  %27 = getelementptr inbounds void (%"class.mojo::ConnectionGroup"*)*, void (%"class.mojo::ConnectionGroup"*)** %26, i64 1
  %28 = load void (%"class.mojo::ConnectionGroup"*)*, void (%"class.mojo::ConnectionGroup"*)** %27, align 8
  tail call void %28(%"class.mojo::ConnectionGroup"* nonnull %24) #8
  br label %29

29:                                               ; preds = %11, %17, %22
  %30 = getelementptr inbounds %"class.mojo::ConnectionGroup::Ref", %"class.mojo::ConnectionGroup::Ref"* %1, i64 0, i32 0
  %31 = load i32, i32* %30, align 8
  store i32 %31, i32* %3, align 8
  %32 = getelementptr inbounds %"class.mojo::ConnectionGroup::Ref", %"class.mojo::ConnectionGroup::Ref"* %1, i64 0, i32 1
  %33 = load i64, i64* %13, align 8
  %34 = bitcast %class.scoped_refptr* %32 to i64*
  %35 = load i64, i64* %34, align 8
  store i64 %35, i64* %13, align 8
  store i64 %33, i64* %34, align 8
  ret void
}

; Function Attrs: argmemonly nounwind
declare void @llvm.lifetime.end.p0i8(i64 immarg, i8* nocapture) #4

; Function Attrs: nounwind ssp uwtable
define hidden void @_ZN4mojo15ConnectionGroup3RefC2E13scoped_refptrIS0_E(%"class.mojo::ConnectionGroup::Ref"* nocapture, %"class.mojo::ConnectionGroup"*) unnamed_addr #1 align 2 {
  %3 = ptrtoint %"class.mojo::ConnectionGroup"* %1 to i64
  %4 = getelementptr inbounds %"class.mojo::ConnectionGroup::Ref", %"class.mojo::ConnectionGroup::Ref"* %0, i64 0, i32 0
  store i32 0, i32* %4, align 8
  %5 = getelementptr inbounds %"class.mojo::ConnectionGroup::Ref", %"class.mojo::ConnectionGroup::Ref"* %0, i64 0, i32 1
  %6 = bitcast %class.scoped_refptr* %5 to i64*
  store i64 %3, i64* %6, align 8
  ret void
}

; Function Attrs: nounwind ssp uwtable
define hidden void @_ZN4mojo15ConnectionGroup6CreateEN4base17RepeatingCallbackIFvvEEE13scoped_refptrINS1_19SequencedTaskRunnerEE(%"class.mojo::ConnectionGroup::Ref"* noalias nocapture sret, %"class.base::RepeatingCallback"* nocapture, %"class.base::SequencedTaskRunner"*) local_unnamed_addr #1 align 2 {
  %4 = alloca %"class.base::RepeatingCallback", align 8
  %5 = ptrtoint %"class.base::SequencedTaskRunner"* %2 to i64
  %6 = tail call i8* @_Znwm(i64 56) #9
  %7 = getelementptr inbounds %"class.base::RepeatingCallback", %"class.base::RepeatingCallback"* %1, i64 0, i32 0, i32 0, i32 0, i32 0
  %8 = bitcast %"class.base::RepeatingCallback"* %1 to i64*
  %9 = load i64, i64* %8, align 8
  store %"class.base::internal::BindStateBase"* null, %"class.base::internal::BindStateBase"** %7, align 8
  %10 = getelementptr inbounds i8, i8* %6, i64 8
  %11 = bitcast i8* %10 to i32*
  store i32 0, i32* %11, align 4
  %12 = bitcast i8* %6 to i32 (...)***
  store i32 (...)** bitcast (i8** getelementptr inbounds ({ [4 x i8*] }, { [4 x i8*] }* @_ZTVN4mojo15ConnectionGroupE, i64 0, inrange i32 0, i64 2) to i32 (...)**), i32 (...)*** %12, align 8
  %13 = getelementptr inbounds i8, i8* %6, i64 16
  %14 = getelementptr inbounds %"class.base::RepeatingCallback", %"class.base::RepeatingCallback"* %4, i64 0, i32 0, i32 0, i32 0, i32 0
  %15 = bitcast i8* %13 to i64*
  store i64 %9, i64* %15, align 8
  store %"class.base::internal::BindStateBase"* null, %"class.base::internal::BindStateBase"** %14, align 8
  %16 = getelementptr inbounds i8, i8* %6, i64 24
  %17 = bitcast i8* %16 to i64*
  store i64 %5, i64* %17, align 8
  %18 = getelementptr inbounds i8, i8* %6, i64 32
  %19 = bitcast i8* %18 to i32*
  store i32 0, i32* %19, align 8
  %20 = getelementptr inbounds i8, i8* %6, i64 40
  %21 = bitcast i8* %20 to %"class.mojo::ConnectionGroup"**
  store %"class.mojo::ConnectionGroup"* null, %"class.mojo::ConnectionGroup"** %21, align 8
  %22 = getelementptr inbounds i8, i8* %6, i64 48
  %23 = bitcast i8* %22 to i32*
  store i32 0, i32* %23, align 4
  %24 = atomicrmw add i32* %11, i32 1 monotonic
  %25 = ptrtoint i8* %6 to i64
  %26 = getelementptr inbounds %"class.mojo::ConnectionGroup::Ref", %"class.mojo::ConnectionGroup::Ref"* %0, i64 0, i32 0
  store i32 0, i32* %26, align 8
  %27 = getelementptr inbounds %"class.mojo::ConnectionGroup::Ref", %"class.mojo::ConnectionGroup::Ref"* %0, i64 0, i32 1
  %28 = bitcast %class.scoped_refptr* %27 to i64*
  store i64 %25, i64* %28, align 8
  %29 = getelementptr inbounds %"class.base::RepeatingCallback", %"class.base::RepeatingCallback"* %4, i64 0, i32 0, i32 0
  call void @_ZN4base8internal12CallbackBaseD2Ev(%"class.base::internal::CallbackBase"* nonnull %29) #8
  ret void
}

; Function Attrs: nobuiltin nofree
declare noalias nonnull i8* @_Znwm(i64) local_unnamed_addr #5

; Function Attrs: nounwind
declare void @_ZN4base8internal12CallbackBaseD2Ev(%"class.base::internal::CallbackBase"*) unnamed_addr #6

; Function Attrs: nounwind ssp uwtable
define hidden void @_ZN4mojo15ConnectionGroupC2EN4base17RepeatingCallbackIFvvEEE13scoped_refptrINS1_19SequencedTaskRunnerEE(%"class.mojo::ConnectionGroup"* nocapture, %"class.base::RepeatingCallback"* nocapture, %"class.base::SequencedTaskRunner"*) unnamed_addr #1 align 2 {
  %4 = ptrtoint %"class.base::SequencedTaskRunner"* %2 to i64
  %5 = getelementptr inbounds %"class.mojo::ConnectionGroup", %"class.mojo::ConnectionGroup"* %0, i64 0, i32 1, i32 0, i32 0, i32 0, i32 0, i32 0, i32 0, i32 0, i32 0
  store i32 0, i32* %5, align 4
  %6 = getelementptr inbounds %"class.mojo::ConnectionGroup", %"class.mojo::ConnectionGroup"* %0, i64 0, i32 0
  store i32 (...)** bitcast (i8** getelementptr inbounds ({ [4 x i8*] }, { [4 x i8*] }* @_ZTVN4mojo15ConnectionGroupE, i64 0, inrange i32 0, i64 2) to i32 (...)**), i32 (...)*** %6, align 8
  %7 = getelementptr inbounds %"class.mojo::ConnectionGroup", %"class.mojo::ConnectionGroup"* %0, i64 0, i32 3
  %8 = getelementptr inbounds %"class.base::RepeatingCallback", %"class.base::RepeatingCallback"* %1, i64 0, i32 0, i32 0, i32 0, i32 0
  %9 = bitcast %"class.base::RepeatingCallback"* %1 to i64*
  %10 = load i64, i64* %9, align 8
  %11 = bitcast %"class.base::RepeatingCallback"* %7 to i64*
  store i64 %10, i64* %11, align 8
  store %"class.base::internal::BindStateBase"* null, %"class.base::internal::BindStateBase"** %8, align 8
  %12 = getelementptr inbounds %"class.mojo::ConnectionGroup", %"class.mojo::ConnectionGroup"* %0, i64 0, i32 4
  %13 = bitcast %class.scoped_refptr.3* %12 to i64*
  store i64 %4, i64* %13, align 8
  %14 = getelementptr inbounds %"class.mojo::ConnectionGroup", %"class.mojo::ConnectionGroup"* %0, i64 0, i32 5, i32 0
  store i32 0, i32* %14, align 8
  %15 = getelementptr inbounds %"class.mojo::ConnectionGroup", %"class.mojo::ConnectionGroup"* %0, i64 0, i32 5, i32 1, i32 0
  store %"class.mojo::ConnectionGroup"* null, %"class.mojo::ConnectionGroup"** %15, align 8
  %16 = getelementptr inbounds %"class.mojo::ConnectionGroup", %"class.mojo::ConnectionGroup"* %0, i64 0, i32 6, i32 0, i32 0, i32 0, i32 0, i32 0
  store i32 0, i32* %16, align 4
  ret void
}

; Function Attrs: nounwind ssp uwtable
define hidden void @_ZN4mojo15ConnectionGroupD2Ev(%"class.mojo::ConnectionGroup"*) unnamed_addr #1 align 2 {
  %2 = getelementptr inbounds %"class.mojo::ConnectionGroup", %"class.mojo::ConnectionGroup"* %0, i64 0, i32 0
  store i32 (...)** bitcast (i8** getelementptr inbounds ({ [4 x i8*] }, { [4 x i8*] }* @_ZTVN4mojo15ConnectionGroupE, i64 0, inrange i32 0, i64 2) to i32 (...)**), i32 (...)*** %2, align 8
  %3 = getelementptr inbounds %"class.mojo::ConnectionGroup", %"class.mojo::ConnectionGroup"* %0, i64 0, i32 5, i32 0
  %4 = load i32, i32* %3, align 8
  %5 = icmp eq i32 %4, 1
  br i1 %5, label %6, label %11

6:                                                ; preds = %1
  %7 = getelementptr inbounds %"class.mojo::ConnectionGroup", %"class.mojo::ConnectionGroup"* %0, i64 0, i32 5, i32 1, i32 0
  %8 = load %"class.mojo::ConnectionGroup"*, %"class.mojo::ConnectionGroup"** %7, align 8
  %9 = icmp eq %"class.mojo::ConnectionGroup"* %8, null
  br i1 %9, label %11, label %10

10:                                               ; preds = %6
  tail call void @_ZN4mojo15ConnectionGroup15ReleaseGroupRefEv(%"class.mojo::ConnectionGroup"* nonnull %8) #8
  br label %11

11:                                               ; preds = %10, %6, %1
  store i32 0, i32* %3, align 8
  %12 = getelementptr inbounds %"class.mojo::ConnectionGroup", %"class.mojo::ConnectionGroup"* %0, i64 0, i32 5, i32 1
  %13 = bitcast %class.scoped_refptr* %12 to i64*
  %14 = getelementptr inbounds %class.scoped_refptr, %class.scoped_refptr* %12, i64 0, i32 0
  %15 = load %"class.mojo::ConnectionGroup"*, %"class.mojo::ConnectionGroup"** %14, align 8
  store i64 0, i64* %13, align 8
  %16 = icmp eq %"class.mojo::ConnectionGroup"* %15, null
  br i1 %16, label %44, label %17

17:                                               ; preds = %11
  %18 = getelementptr inbounds %"class.mojo::ConnectionGroup", %"class.mojo::ConnectionGroup"* %15, i64 0, i32 1
  %19 = getelementptr inbounds %"class.base::RefCountedThreadSafe", %"class.base::RefCountedThreadSafe"* %18, i64 0, i32 0, i32 0, i32 0, i32 0, i32 0, i32 0, i32 0, i32 0
  %20 = atomicrmw sub i32* %19, i32 1 acq_rel
  %21 = icmp eq i32 %20, 1
  br i1 %21, label %22, label %29

22:                                               ; preds = %17
  %23 = getelementptr inbounds %"class.base::RefCountedThreadSafe", %"class.base::RefCountedThreadSafe"* %18, i64 -2
  %24 = bitcast %"class.base::RefCountedThreadSafe"* %23 to %"class.mojo::ConnectionGroup"*
  %25 = bitcast %"class.base::RefCountedThreadSafe"* %23 to void (%"class.mojo::ConnectionGroup"*)***
  %26 = load void (%"class.mojo::ConnectionGroup"*)**, void (%"class.mojo::ConnectionGroup"*)*** %25, align 8
  %27 = getelementptr inbounds void (%"class.mojo::ConnectionGroup"*)*, void (%"class.mojo::ConnectionGroup"*)** %26, i64 1
  %28 = load void (%"class.mojo::ConnectionGroup"*)*, void (%"class.mojo::ConnectionGroup"*)** %27, align 8
  tail call void %28(%"class.mojo::ConnectionGroup"* nonnull %24) #8
  br label %29

29:                                               ; preds = %22, %17
  %30 = load %"class.mojo::ConnectionGroup"*, %"class.mojo::ConnectionGroup"** %14, align 8
  %31 = icmp eq %"class.mojo::ConnectionGroup"* %30, null
  br i1 %31, label %44, label %32

32:                                               ; preds = %29
  %33 = getelementptr inbounds %"class.mojo::ConnectionGroup", %"class.mojo::ConnectionGroup"* %30, i64 0, i32 1
  %34 = getelementptr inbounds %"class.base::RefCountedThreadSafe", %"class.base::RefCountedThreadSafe"* %33, i64 0, i32 0, i32 0, i32 0, i32 0, i32 0, i32 0, i32 0, i32 0
  %35 = atomicrmw sub i32* %34, i32 1 acq_rel
  %36 = icmp eq i32 %35, 1
  br i1 %36, label %37, label %44

37:                                               ; preds = %32
  %38 = getelementptr inbounds %"class.base::RefCountedThreadSafe", %"class.base::RefCountedThreadSafe"* %33, i64 -2
  %39 = bitcast %"class.base::RefCountedThreadSafe"* %38 to %"class.mojo::ConnectionGroup"*
  %40 = bitcast %"class.base::RefCountedThreadSafe"* %38 to void (%"class.mojo::ConnectionGroup"*)***
  %41 = load void (%"class.mojo::ConnectionGroup"*)**, void (%"class.mojo::ConnectionGroup"*)*** %40, align 8
  %42 = getelementptr inbounds void (%"class.mojo::ConnectionGroup"*)*, void (%"class.mojo::ConnectionGroup"*)** %41, i64 1
  %43 = load void (%"class.mojo::ConnectionGroup"*)*, void (%"class.mojo::ConnectionGroup"*)** %42, align 8
  tail call void %43(%"class.mojo::ConnectionGroup"* nonnull %39) #8
  br label %44

44:                                               ; preds = %11, %29, %32, %37
  %45 = getelementptr inbounds %"class.mojo::ConnectionGroup", %"class.mojo::ConnectionGroup"* %0, i64 0, i32 4, i32 0
  %46 = load %"class.base::SequencedTaskRunner"*, %"class.base::SequencedTaskRunner"** %45, align 8
  %47 = icmp eq %"class.base::SequencedTaskRunner"* %46, null
  br i1 %47, label %56, label %48

48:                                               ; preds = %44
  %49 = getelementptr inbounds %"class.base::SequencedTaskRunner", %"class.base::SequencedTaskRunner"* %46, i64 0, i32 0, i32 1
  %50 = getelementptr inbounds %"class.base::RefCountedThreadSafe.4", %"class.base::RefCountedThreadSafe.4"* %49, i64 0, i32 0, i32 0, i32 0, i32 0, i32 0, i32 0, i32 0, i32 0
  %51 = atomicrmw sub i32* %50, i32 1 acq_rel
  %52 = icmp eq i32 %51, 1
  br i1 %52, label %53, label %56

53:                                               ; preds = %48
  %54 = getelementptr inbounds %"class.base::RefCountedThreadSafe.4", %"class.base::RefCountedThreadSafe.4"* %49, i64 -2
  %55 = bitcast %"class.base::RefCountedThreadSafe.4"* %54 to %"class.base::TaskRunner"*
  tail call void @_ZN4base16TaskRunnerTraits8DestructEPKNS_10TaskRunnerE(%"class.base::TaskRunner"* %55) #8
  br label %56

56:                                               ; preds = %44, %48, %53
  %57 = getelementptr inbounds %"class.mojo::ConnectionGroup", %"class.mojo::ConnectionGroup"* %0, i64 0, i32 3, i32 0, i32 0
  tail call void @_ZN4base8internal12CallbackBaseD2Ev(%"class.base::internal::CallbackBase"* %57) #8
  ret void
}

; Function Attrs: nounwind ssp uwtable
define hidden void @_ZN4mojo15ConnectionGroupD0Ev(%"class.mojo::ConnectionGroup"*) unnamed_addr #1 align 2 {
  tail call void @_ZN4mojo15ConnectionGroupD2Ev(%"class.mojo::ConnectionGroup"* %0) #8
  %2 = bitcast %"class.mojo::ConnectionGroup"* %0 to i8*
  tail call void @_ZdlPv(i8* %2) #9
  ret void
}

; Function Attrs: nobuiltin nounwind
declare void @_ZdlPv(i8*) local_unnamed_addr #7

declare void @_ZN4base8internal20CallbackBaseCopyableC2ERKS1_(%"class.base::internal::CallbackBaseCopyable"*, %"class.base::internal::CallbackBaseCopyable"* dereferenceable(8)) unnamed_addr #3

; Function Attrs: nounwind ssp uwtable
define linkonce_odr hidden void @_ZN4base8internal7InvokerINS0_9BindStateIMN4mojo15ConnectionGroupEFvNS4_3RefEEJ13scoped_refptrIS4_ES5_EEEFvvEE7RunOnceEPNS0_13BindStateBaseE(%"class.base::internal::BindStateBase"*) #1 comdat align 2 {
  %2 = alloca %"class.mojo::ConnectionGroup::Ref", align 8
  %3 = getelementptr inbounds %"class.base::internal::BindStateBase", %"class.base::internal::BindStateBase"* %0, i64 1
  %4 = getelementptr inbounds %"class.base::internal::BindStateBase", %"class.base::internal::BindStateBase"* %0, i64 1, i32 2
  %5 = bitcast %"class.base::internal::BindStateBase"* %3 to i64*
  %6 = load i64, i64* %5, align 8
  %7 = getelementptr inbounds %"class.base::internal::BindStateBase", %"class.base::internal::BindStateBase"* %0, i64 1, i32 1
  %8 = bitcast void ()** %7 to i64*
  %9 = load i64, i64* %8, align 8
  %10 = bitcast %"class.mojo::ConnectionGroup::Ref"* %2 to i8*
  call void @llvm.lifetime.start.p0i8(i64 16, i8* nonnull %10) #8
  %11 = bitcast void (%"class.base::internal::BindStateBase"*)** %4 to i8**
  %12 = load i8*, i8** %11, align 8
  %13 = getelementptr inbounds i8, i8* %12, i64 %9
  %14 = bitcast i8* %13 to %"class.mojo::ConnectionGroup"*
  %15 = and i64 %6, 1
  %16 = icmp eq i64 %15, 0
  br i1 %16, label %24, label %17

17:                                               ; preds = %1
  %18 = bitcast i8* %13 to i8**
  %19 = load i8*, i8** %18, align 8
  %20 = add i64 %6, -1
  %21 = getelementptr i8, i8* %19, i64 %20
  %22 = bitcast i8* %21 to void (%"class.mojo::ConnectionGroup"*, %"class.mojo::ConnectionGroup::Ref"*)**
  %23 = load void (%"class.mojo::ConnectionGroup"*, %"class.mojo::ConnectionGroup::Ref"*)*, void (%"class.mojo::ConnectionGroup"*, %"class.mojo::ConnectionGroup::Ref"*)** %22, align 8
  br label %26

24:                                               ; preds = %1
  %25 = inttoptr i64 %6 to void (%"class.mojo::ConnectionGroup"*, %"class.mojo::ConnectionGroup::Ref"*)*
  br label %26

26:                                               ; preds = %24, %17
  %27 = phi void (%"class.mojo::ConnectionGroup"*, %"class.mojo::ConnectionGroup::Ref"*)* [ %23, %17 ], [ %25, %24 ]
  %28 = getelementptr inbounds %"class.mojo::ConnectionGroup::Ref", %"class.mojo::ConnectionGroup::Ref"* %2, i64 0, i32 0
  %29 = getelementptr inbounds %"class.mojo::ConnectionGroup::Ref", %"class.mojo::ConnectionGroup::Ref"* %2, i64 0, i32 1
  %30 = bitcast %class.scoped_refptr* %29 to i64*
  %31 = getelementptr inbounds void (%"class.base::internal::BindStateBase"*)*, void (%"class.base::internal::BindStateBase"*)** %4, i64 1
  %32 = bitcast void (%"class.base::internal::BindStateBase"*)** %31 to i32*
  %33 = load i32, i32* %32, align 8
  store i32 %33, i32* %28, align 8
  %34 = getelementptr inbounds void (%"class.base::internal::BindStateBase"*)*, void (%"class.base::internal::BindStateBase"*)** %4, i64 2
  %35 = bitcast void (%"class.base::internal::BindStateBase"*)** %34 to i64*
  %36 = load i64, i64* %35, align 8
  store i64 %36, i64* %30, align 8
  store i64 0, i64* %35, align 8
  call void %27(%"class.mojo::ConnectionGroup"* %14, %"class.mojo::ConnectionGroup::Ref"* nonnull %2) #8
  %37 = load i32, i32* %28, align 8
  %38 = icmp eq i32 %37, 1
  br i1 %38, label %39, label %44

39:                                               ; preds = %26
  %40 = getelementptr inbounds %"class.mojo::ConnectionGroup::Ref", %"class.mojo::ConnectionGroup::Ref"* %2, i64 0, i32 1, i32 0
  %41 = load %"class.mojo::ConnectionGroup"*, %"class.mojo::ConnectionGroup"** %40, align 8
  %42 = icmp eq %"class.mojo::ConnectionGroup"* %41, null
  br i1 %42, label %44, label %43

43:                                               ; preds = %39
  call void @_ZN4mojo15ConnectionGroup15ReleaseGroupRefEv(%"class.mojo::ConnectionGroup"* nonnull %41) #8
  br label %44

44:                                               ; preds = %43, %39, %26
  store i32 0, i32* %28, align 8
  %45 = getelementptr inbounds %class.scoped_refptr, %class.scoped_refptr* %29, i64 0, i32 0
  %46 = load %"class.mojo::ConnectionGroup"*, %"class.mojo::ConnectionGroup"** %45, align 8
  store i64 0, i64* %30, align 8
  %47 = icmp eq %"class.mojo::ConnectionGroup"* %46, null
  br i1 %47, label %75, label %48

48:                                               ; preds = %44
  %49 = getelementptr inbounds %"class.mojo::ConnectionGroup", %"class.mojo::ConnectionGroup"* %46, i64 0, i32 1
  %50 = getelementptr inbounds %"class.base::RefCountedThreadSafe", %"class.base::RefCountedThreadSafe"* %49, i64 0, i32 0, i32 0, i32 0, i32 0, i32 0, i32 0, i32 0, i32 0
  %51 = atomicrmw sub i32* %50, i32 1 acq_rel
  %52 = icmp eq i32 %51, 1
  br i1 %52, label %53, label %60

53:                                               ; preds = %48
  %54 = getelementptr inbounds %"class.base::RefCountedThreadSafe", %"class.base::RefCountedThreadSafe"* %49, i64 -2
  %55 = bitcast %"class.base::RefCountedThreadSafe"* %54 to %"class.mojo::ConnectionGroup"*
  %56 = bitcast %"class.base::RefCountedThreadSafe"* %54 to void (%"class.mojo::ConnectionGroup"*)***
  %57 = load void (%"class.mojo::ConnectionGroup"*)**, void (%"class.mojo::ConnectionGroup"*)*** %56, align 8
  %58 = getelementptr inbounds void (%"class.mojo::ConnectionGroup"*)*, void (%"class.mojo::ConnectionGroup"*)** %57, i64 1
  %59 = load void (%"class.mojo::ConnectionGroup"*)*, void (%"class.mojo::ConnectionGroup"*)** %58, align 8
  call void %59(%"class.mojo::ConnectionGroup"* nonnull %55) #8
  br label %60

60:                                               ; preds = %53, %48
  %61 = load %"class.mojo::ConnectionGroup"*, %"class.mojo::ConnectionGroup"** %45, align 8
  %62 = icmp eq %"class.mojo::ConnectionGroup"* %61, null
  br i1 %62, label %75, label %63

63:                                               ; preds = %60
  %64 = getelementptr inbounds %"class.mojo::ConnectionGroup", %"class.mojo::ConnectionGroup"* %61, i64 0, i32 1
  %65 = getelementptr inbounds %"class.base::RefCountedThreadSafe", %"class.base::RefCountedThreadSafe"* %64, i64 0, i32 0, i32 0, i32 0, i32 0, i32 0, i32 0, i32 0, i32 0
  %66 = atomicrmw sub i32* %65, i32 1 acq_rel
  %67 = icmp eq i32 %66, 1
  br i1 %67, label %68, label %75

68:                                               ; preds = %63
  %69 = getelementptr inbounds %"class.base::RefCountedThreadSafe", %"class.base::RefCountedThreadSafe"* %64, i64 -2
  %70 = bitcast %"class.base::RefCountedThreadSafe"* %69 to %"class.mojo::ConnectionGroup"*
  %71 = bitcast %"class.base::RefCountedThreadSafe"* %69 to void (%"class.mojo::ConnectionGroup"*)***
  %72 = load void (%"class.mojo::ConnectionGroup"*)**, void (%"class.mojo::ConnectionGroup"*)*** %71, align 8
  %73 = getelementptr inbounds void (%"class.mojo::ConnectionGroup"*)*, void (%"class.mojo::ConnectionGroup"*)** %72, i64 1
  %74 = load void (%"class.mojo::ConnectionGroup"*)*, void (%"class.mojo::ConnectionGroup"*)** %73, align 8
  call void %74(%"class.mojo::ConnectionGroup"* nonnull %70) #8
  br label %75

75:                                               ; preds = %44, %60, %63, %68
  call void @llvm.lifetime.end.p0i8(i64 16, i8* nonnull %10) #8
  ret void
}

; Function Attrs: nounwind ssp uwtable
define linkonce_odr hidden void @_ZN4base8internal9BindStateIMN4mojo15ConnectionGroupEFvNS3_3RefEEJ13scoped_refptrIS3_ES4_EE7DestroyEPKNS0_13BindStateBaseE(%"class.base::internal::BindStateBase"*) #1 comdat align 2 {
  %2 = icmp eq %"class.base::internal::BindStateBase"* %0, null
  br i1 %2, label %66, label %3

3:                                                ; preds = %1
  %4 = getelementptr inbounds %"class.base::internal::BindStateBase", %"class.base::internal::BindStateBase"* %0, i64 1, i32 3
  %5 = bitcast i1 (%"class.base::internal::BindStateBase"*, i32)** %4 to i32*
  %6 = load i32, i32* %5, align 8
  %7 = icmp eq i32 %6, 1
  br i1 %7, label %8, label %14

8:                                                ; preds = %3
  %9 = getelementptr inbounds %"class.base::internal::BindStateBase", %"class.base::internal::BindStateBase"* %0, i64 2
  %10 = bitcast %"class.base::internal::BindStateBase"* %9 to %"class.mojo::ConnectionGroup"**
  %11 = load %"class.mojo::ConnectionGroup"*, %"class.mojo::ConnectionGroup"** %10, align 8
  %12 = icmp eq %"class.mojo::ConnectionGroup"* %11, null
  br i1 %12, label %14, label %13

13:                                               ; preds = %8
  tail call void @_ZN4mojo15ConnectionGroup15ReleaseGroupRefEv(%"class.mojo::ConnectionGroup"* nonnull %11) #8
  br label %14

14:                                               ; preds = %3, %13, %8
  store i32 0, i32* %5, align 8
  %15 = getelementptr inbounds %"class.base::internal::BindStateBase", %"class.base::internal::BindStateBase"* %0, i64 2
  %16 = bitcast %"class.base::internal::BindStateBase"* %15 to i64*
  %17 = bitcast %"class.base::internal::BindStateBase"* %15 to %"class.mojo::ConnectionGroup"**
  %18 = load %"class.mojo::ConnectionGroup"*, %"class.mojo::ConnectionGroup"** %17, align 8
  store i64 0, i64* %16, align 8
  %19 = icmp eq %"class.mojo::ConnectionGroup"* %18, null
  br i1 %19, label %47, label %20

20:                                               ; preds = %14
  %21 = getelementptr inbounds %"class.mojo::ConnectionGroup", %"class.mojo::ConnectionGroup"* %18, i64 0, i32 1
  %22 = getelementptr inbounds %"class.base::RefCountedThreadSafe", %"class.base::RefCountedThreadSafe"* %21, i64 0, i32 0, i32 0, i32 0, i32 0, i32 0, i32 0, i32 0, i32 0
  %23 = atomicrmw sub i32* %22, i32 1 acq_rel
  %24 = icmp eq i32 %23, 1
  br i1 %24, label %25, label %32

25:                                               ; preds = %20
  %26 = getelementptr inbounds %"class.base::RefCountedThreadSafe", %"class.base::RefCountedThreadSafe"* %21, i64 -2
  %27 = bitcast %"class.base::RefCountedThreadSafe"* %26 to %"class.mojo::ConnectionGroup"*
  %28 = bitcast %"class.base::RefCountedThreadSafe"* %26 to void (%"class.mojo::ConnectionGroup"*)***
  %29 = load void (%"class.mojo::ConnectionGroup"*)**, void (%"class.mojo::ConnectionGroup"*)*** %28, align 8
  %30 = getelementptr inbounds void (%"class.mojo::ConnectionGroup"*)*, void (%"class.mojo::ConnectionGroup"*)** %29, i64 1
  %31 = load void (%"class.mojo::ConnectionGroup"*)*, void (%"class.mojo::ConnectionGroup"*)** %30, align 8
  tail call void %31(%"class.mojo::ConnectionGroup"* nonnull %27) #8
  br label %32

32:                                               ; preds = %25, %20
  %33 = load %"class.mojo::ConnectionGroup"*, %"class.mojo::ConnectionGroup"** %17, align 8
  %34 = icmp eq %"class.mojo::ConnectionGroup"* %33, null
  br i1 %34, label %47, label %35

35:                                               ; preds = %32
  %36 = getelementptr inbounds %"class.mojo::ConnectionGroup", %"class.mojo::ConnectionGroup"* %33, i64 0, i32 1
  %37 = getelementptr inbounds %"class.base::RefCountedThreadSafe", %"class.base::RefCountedThreadSafe"* %36, i64 0, i32 0, i32 0, i32 0, i32 0, i32 0, i32 0, i32 0, i32 0
  %38 = atomicrmw sub i32* %37, i32 1 acq_rel
  %39 = icmp eq i32 %38, 1
  br i1 %39, label %40, label %47

40:                                               ; preds = %35
  %41 = getelementptr inbounds %"class.base::RefCountedThreadSafe", %"class.base::RefCountedThreadSafe"* %36, i64 -2
  %42 = bitcast %"class.base::RefCountedThreadSafe"* %41 to %"class.mojo::ConnectionGroup"*
  %43 = bitcast %"class.base::RefCountedThreadSafe"* %41 to void (%"class.mojo::ConnectionGroup"*)***
  %44 = load void (%"class.mojo::ConnectionGroup"*)**, void (%"class.mojo::ConnectionGroup"*)*** %43, align 8
  %45 = getelementptr inbounds void (%"class.mojo::ConnectionGroup"*)*, void (%"class.mojo::ConnectionGroup"*)** %44, i64 1
  %46 = load void (%"class.mojo::ConnectionGroup"*)*, void (%"class.mojo::ConnectionGroup"*)** %45, align 8
  tail call void %46(%"class.mojo::ConnectionGroup"* nonnull %42) #8
  br label %47

47:                                               ; preds = %40, %35, %32, %14
  %48 = getelementptr inbounds %"class.base::internal::BindStateBase", %"class.base::internal::BindStateBase"* %0, i64 1, i32 2
  %49 = bitcast void (%"class.base::internal::BindStateBase"*)** %48 to %"class.mojo::ConnectionGroup"**
  %50 = load %"class.mojo::ConnectionGroup"*, %"class.mojo::ConnectionGroup"** %49, align 8
  %51 = icmp eq %"class.mojo::ConnectionGroup"* %50, null
  br i1 %51, label %64, label %52

52:                                               ; preds = %47
  %53 = getelementptr inbounds %"class.mojo::ConnectionGroup", %"class.mojo::ConnectionGroup"* %50, i64 0, i32 1
  %54 = getelementptr inbounds %"class.base::RefCountedThreadSafe", %"class.base::RefCountedThreadSafe"* %53, i64 0, i32 0, i32 0, i32 0, i32 0, i32 0, i32 0, i32 0, i32 0
  %55 = atomicrmw sub i32* %54, i32 1 acq_rel
  %56 = icmp eq i32 %55, 1
  br i1 %56, label %57, label %64

57:                                               ; preds = %52
  %58 = getelementptr inbounds %"class.base::RefCountedThreadSafe", %"class.base::RefCountedThreadSafe"* %53, i64 -2
  %59 = bitcast %"class.base::RefCountedThreadSafe"* %58 to %"class.mojo::ConnectionGroup"*
  %60 = bitcast %"class.base::RefCountedThreadSafe"* %58 to void (%"class.mojo::ConnectionGroup"*)***
  %61 = load void (%"class.mojo::ConnectionGroup"*)**, void (%"class.mojo::ConnectionGroup"*)*** %60, align 8
  %62 = getelementptr inbounds void (%"class.mojo::ConnectionGroup"*)*, void (%"class.mojo::ConnectionGroup"*)** %61, i64 1
  %63 = load void (%"class.mojo::ConnectionGroup"*)*, void (%"class.mojo::ConnectionGroup"*)** %62, align 8
  tail call void %63(%"class.mojo::ConnectionGroup"* nonnull %59) #8
  br label %64

64:                                               ; preds = %47, %52, %57
  %65 = bitcast %"class.base::internal::BindStateBase"* %0 to i8*
  tail call void @_ZdlPv(i8* %65) #9
  br label %66

66:                                               ; preds = %64, %1
  ret void
}

declare void @_ZN4base8internal13BindStateBaseC2EPFvvEPFvPKS1_E(%"class.base::internal::BindStateBase"*, void ()*, void (%"class.base::internal::BindStateBase"*)*) unnamed_addr #3

declare void @_ZN4base16TaskRunnerTraits8DestructEPKNS_10TaskRunnerE(%"class.base::TaskRunner"*) local_unnamed_addr #3

declare void @_ZN7logging10CheckError5CheckEPKciS2_(%"class.logging::CheckError"* sret, i8*, i32, i8*) local_unnamed_addr #3

declare dereferenceable(160) %"class.std::__1::basic_ostream"* @_ZN7logging10CheckError6streamEv(%"class.logging::CheckError"*) local_unnamed_addr #3

; Function Attrs: nounwind
declare void @_ZN7logging10CheckErrorD1Ev(%"class.logging::CheckError"*) unnamed_addr #6

; Function Attrs: nounwind
declare void @_ZN4base8internal12CallbackBaseC2EONS0_20CallbackBaseCopyableE(%"class.base::internal::CallbackBase"*, %"class.base::internal::CallbackBaseCopyable"* dereferenceable(8)) unnamed_addr #6

attributes #0 = { nofree norecurse nounwind ssp uwtable writeonly "correctly-rounded-divide-sqrt-fp-math"="false" "disable-tail-calls"="false" "less-precise-fpmad"="false" "min-legal-vector-width"="0" "no-frame-pointer-elim"="false" "no-frame-pointer-elim-non-leaf" "no-infs-fp-math"="false" "no-jump-tables"="false" "no-nans-fp-math"="false" "no-signed-zeros-fp-math"="false" "no-trapping-math"="false" "null-pointer-is-valid"="true" "stack-protector-buffer-size"="4" "target-cpu"="x86-64" "target-features"="+cx8,+fxsr,+mmx,+sse,+sse2,+sse3,+x87" "unsafe-fp-math"="false" "use-soft-float"="false" }
attributes #1 = { nounwind ssp uwtable "correctly-rounded-divide-sqrt-fp-math"="false" "disable-tail-calls"="false" "less-precise-fpmad"="false" "min-legal-vector-width"="0" "no-frame-pointer-elim"="false" "no-frame-pointer-elim-non-leaf" "no-infs-fp-math"="false" "no-jump-tables"="false" "no-nans-fp-math"="false" "no-signed-zeros-fp-math"="false" "no-trapping-math"="false" "null-pointer-is-valid"="true" "stack-protector-buffer-size"="4" "target-cpu"="x86-64" "target-features"="+cx8,+fxsr,+mmx,+sse,+sse2,+sse3,+x87" "unsafe-fp-math"="false" "use-soft-float"="false" }
attributes #2 = { nofree norecurse nounwind ssp uwtable "correctly-rounded-divide-sqrt-fp-math"="false" "disable-tail-calls"="false" "less-precise-fpmad"="false" "min-legal-vector-width"="0" "no-frame-pointer-elim"="false" "no-frame-pointer-elim-non-leaf" "no-infs-fp-math"="false" "no-jump-tables"="false" "no-nans-fp-math"="false" "no-signed-zeros-fp-math"="false" "no-trapping-math"="false" "null-pointer-is-valid"="true" "stack-protector-buffer-size"="4" "target-cpu"="x86-64" "target-features"="+cx8,+fxsr,+mmx,+sse,+sse2,+sse3,+x87" "unsafe-fp-math"="false" "use-soft-float"="false" }
attributes #3 = { "correctly-rounded-divide-sqrt-fp-math"="false" "disable-tail-calls"="false" "less-precise-fpmad"="false" "no-frame-pointer-elim"="false" "no-frame-pointer-elim-non-leaf" "no-infs-fp-math"="false" "no-nans-fp-math"="false" "no-signed-zeros-fp-math"="false" "no-trapping-math"="false" "null-pointer-is-valid"="true" "stack-protector-buffer-size"="4" "target-cpu"="x86-64" "target-features"="+cx8,+fxsr,+mmx,+sse,+sse2,+sse3,+x87" "unsafe-fp-math"="false" "use-soft-float"="false" }
attributes #4 = { argmemonly nounwind }
attributes #5 = { nobuiltin nofree "correctly-rounded-divide-sqrt-fp-math"="false" "disable-tail-calls"="false" "less-precise-fpmad"="false" "no-frame-pointer-elim"="false" "no-frame-pointer-elim-non-leaf" "no-infs-fp-math"="false" "no-nans-fp-math"="false" "no-signed-zeros-fp-math"="false" "no-trapping-math"="false" "null-pointer-is-valid"="true" "stack-protector-buffer-size"="4" "target-cpu"="x86-64" "target-features"="+cx8,+fxsr,+mmx,+sse,+sse2,+sse3,+x87" "unsafe-fp-math"="false" "use-soft-float"="false" }
attributes #6 = { nounwind "correctly-rounded-divide-sqrt-fp-math"="false" "disable-tail-calls"="false" "less-precise-fpmad"="false" "no-frame-pointer-elim"="false" "no-frame-pointer-elim-non-leaf" "no-infs-fp-math"="false" "no-nans-fp-math"="false" "no-signed-zeros-fp-math"="false" "no-trapping-math"="false" "null-pointer-is-valid"="true" "stack-protector-buffer-size"="4" "target-cpu"="x86-64" "target-features"="+cx8,+fxsr,+mmx,+sse,+sse2,+sse3,+x87" "unsafe-fp-math"="false" "use-soft-float"="false" }
attributes #7 = { nobuiltin nounwind "correctly-rounded-divide-sqrt-fp-math"="false" "disable-tail-calls"="false" "less-precise-fpmad"="false" "no-frame-pointer-elim"="false" "no-frame-pointer-elim-non-leaf" "no-infs-fp-math"="false" "no-nans-fp-math"="false" "no-signed-zeros-fp-math"="false" "no-trapping-math"="false" "null-pointer-is-valid"="true" "stack-protector-buffer-size"="4" "target-cpu"="x86-64" "target-features"="+cx8,+fxsr,+mmx,+sse,+sse2,+sse3,+x87" "unsafe-fp-math"="false" "use-soft-float"="false" }
attributes #8 = { nounwind }
attributes #9 = { builtin nounwind }

!llvm.module.flags = !{!0, !1}

!0 = !{i32 1, !"wchar_size", i32 4}
!1 = !{i32 7, !"PIC Level", i32 2}
!2 = !{!3}
!3 = distinct !{!3, !4, !"_ZN4base8BindOnceIFvvEEENS_12OnceCallbackIT_EENS_17RepeatingCallbackIS3_EE: argument 0"}
!4 = distinct !{!4, !"_ZN4base8BindOnceIFvvEEENS_12OnceCallbackIT_EENS_17RepeatingCallbackIS3_EE"}
!5 = !{!6, !8}
!6 = distinct !{!6, !7, !"_ZN4base8internal8BindImplINS_12OnceCallbackEMN4mojo15ConnectionGroupEFvNS4_3RefEEJR13scoped_refptrIS4_ES5_EEEDcOT0_DpOT1_: argument 0"}
!7 = distinct !{!7, !"_ZN4base8internal8BindImplINS_12OnceCallbackEMN4mojo15ConnectionGroupEFvNS4_3RefEEJR13scoped_refptrIS4_ES5_EEEDcOT0_DpOT1_"}
!8 = distinct !{!8, !9, !"_ZN4base8BindOnceIMN4mojo15ConnectionGroupEFvNS2_3RefEEJR13scoped_refptrIS2_ES3_EEENS_12OnceCallbackINS_8internal14BindTypeHelperIT_JDpT0_EE14UnboundRunTypeEEEOSC_DpOSD_: argument 0"}
!9 = distinct !{!9, !"_ZN4base8BindOnceIMN4mojo15ConnectionGroupEFvNS2_3RefEEJR13scoped_refptrIS2_ES3_EEENS_12OnceCallbackINS_8internal14BindTypeHelperIT_JDpT0_EE14UnboundRunTypeEEEOSC_DpOSD_"}
