; ModuleID = '../../third_party/perfetto/src/tracing/ipc/consumer/consumer_ipc_client_impl.cc'
source_filename = "../../third_party/perfetto/src/tracing/ipc/consumer/consumer_ipc_client_impl.cc"
target datalayout = "e-m:e-i64:64-f80:128-n8:16:32:64-S128"
target triple = "x86_64-unknown-linux-gnu"

%"struct.std::__1::__function::__policy" = type { i8* (i8*)*, void (i8*)*, i8, %"class.std::type_info"* }
%"class.std::type_info" = type { i32 (...)**, i8* }
%"class.perfetto::ConsumerIPCClientImpl" = type { %"class.perfetto::ConsumerEndpoint", %"class.perfetto::ipc::ServiceProxy::EventListener", %"class.perfetto::Consumer"*, %"class.std::__1::unique_ptr.1", %"class.perfetto::protos::gen::ConsumerPortProxy", i8, %"class.std::__1::list", %"class.perfetto::TracePacket", %"class.perfetto::base::WeakPtrFactory.41" }
%"class.perfetto::ConsumerEndpoint" = type { i32 (...)** }
%"class.perfetto::ipc::ServiceProxy::EventListener" = type { i32 (...)** }
%"class.std::__1::unique_ptr.1" = type { %"class.std::__1::__compressed_pair.2" }
%"class.std::__1::__compressed_pair.2" = type { %"struct.std::__1::__compressed_pair_elem.3" }
%"struct.std::__1::__compressed_pair_elem.3" = type { %"class.perfetto::ipc::Client"* }
%"class.perfetto::ipc::Client" = type { i32 (...)** }
%"class.perfetto::protos::gen::ConsumerPortProxy" = type { %"class.perfetto::ipc::ServiceProxy" }
%"class.perfetto::ipc::ServiceProxy" = type { i32 (...)**, %"class.perfetto::base::WeakPtr", i32, %"class.std::__1::map", %"class.std::__1::map.13", %"class.perfetto::ipc::ServiceProxy::EventListener"*, %"class.perfetto::base::WeakPtrFactory" }
%"class.perfetto::base::WeakPtr" = type { %"class.std::__1::shared_ptr" }
%"class.std::__1::shared_ptr" = type { %"class.perfetto::ipc::Client"**, %"class.std::__1::__shared_weak_count"* }
%"class.std::__1::__shared_weak_count" = type { %"class.std::__1::__shared_count", i64 }
%"class.std::__1::__shared_count" = type { i32 (...)**, i64 }
%"class.std::__1::map" = type { %"class.std::__1::__tree" }
%"class.std::__1::__tree" = type { %"class.std::__1::__tree_end_node"*, %"class.std::__1::__compressed_pair.7", %"class.std::__1::__compressed_pair.10" }
%"class.std::__1::__tree_end_node" = type { %"class.std::__1::__tree_node_base"* }
%"class.std::__1::__tree_node_base" = type opaque
%"class.std::__1::__compressed_pair.7" = type { %"struct.std::__1::__compressed_pair_elem.8" }
%"struct.std::__1::__compressed_pair_elem.8" = type { %"class.std::__1::__tree_end_node" }
%"class.std::__1::__compressed_pair.10" = type { %"struct.std::__1::__compressed_pair_elem.11" }
%"struct.std::__1::__compressed_pair_elem.11" = type { i64 }
%"class.std::__1::map.13" = type { %"class.std::__1::__tree.14" }
%"class.std::__1::__tree.14" = type { %"class.std::__1::__tree_end_node"*, %"class.std::__1::__compressed_pair.15", %"class.std::__1::__compressed_pair.19" }
%"class.std::__1::__compressed_pair.15" = type { %"struct.std::__1::__compressed_pair_elem.8" }
%"class.std::__1::__compressed_pair.19" = type { %"struct.std::__1::__compressed_pair_elem.11" }
%"class.perfetto::base::WeakPtrFactory" = type { %"class.perfetto::base::WeakPtr.24" }
%"class.perfetto::base::WeakPtr.24" = type { %"class.std::__1::shared_ptr.25" }
%"class.std::__1::shared_ptr.25" = type { %"class.perfetto::ipc::ServiceProxy"**, %"class.std::__1::__shared_weak_count"* }
%"class.std::__1::list" = type { %"class.std::__1::__list_imp" }
%"class.std::__1::__list_imp" = type { %"struct.std::__1::__list_node_base", %"class.std::__1::__compressed_pair.26" }
%"struct.std::__1::__list_node_base" = type { %"struct.std::__1::__list_node_base"*, %"struct.std::__1::__list_node_base"* }
%"class.std::__1::__compressed_pair.26" = type { %"struct.std::__1::__compressed_pair_elem.11" }
%"class.perfetto::TracePacket" = type { %"class.std::__1::vector", i64, [8 x i8] }
%"class.std::__1::vector" = type { %"class.std::__1::__vector_base" }
%"class.std::__1::__vector_base" = type { %"struct.perfetto::Slice"*, %"struct.perfetto::Slice"*, %"class.std::__1::__compressed_pair.36" }
%"struct.perfetto::Slice" = type { i8*, i64, %"class.std::__1::unique_ptr.30" }
%"class.std::__1::unique_ptr.30" = type { %"class.std::__1::__compressed_pair.31" }
%"class.std::__1::__compressed_pair.31" = type { %"struct.std::__1::__compressed_pair_elem.32" }
%"struct.std::__1::__compressed_pair_elem.32" = type { i8* }
%"class.std::__1::__compressed_pair.36" = type { %"struct.std::__1::__compressed_pair_elem.37" }
%"struct.std::__1::__compressed_pair_elem.37" = type { %"struct.perfetto::Slice"* }
%"class.perfetto::base::WeakPtrFactory.41" = type { %"class.perfetto::base::WeakPtr.42" }
%"class.perfetto::base::WeakPtr.42" = type { %"class.std::__1::shared_ptr.43" }
%"class.std::__1::shared_ptr.43" = type { %"class.perfetto::ConsumerIPCClientImpl"**, %"class.std::__1::__shared_weak_count"* }
%"class.perfetto::Consumer" = type { i32 (...)** }
%"class.perfetto::base::TaskRunner" = type { i32 (...)** }
%"struct.perfetto::ipc::Client::ConnArgs" = type <{ %"class.perfetto::base::ScopedResource", [4 x i8], i8*, i8, [7 x i8] }>
%"class.perfetto::base::ScopedResource" = type { i32 }
%"class.perfetto::protos::gen::TraceConfig" = type { %"class.protozero::CppMessageObj", %"class.std::__1::vector.44", %"class.std::__1::vector.56", %"class.protozero::CopyablePtr.78", i32, i8, i32, %"class.std::__1::vector.87", %"class.protozero::CopyablePtr.94", i8, %"class.std::__1::basic_string", i32, i64, %"class.protozero::CopyablePtr.101", i8, i32, i32, i32, i8, i32, %"class.protozero::CopyablePtr.110", %"class.std::__1::vector.64", %"class.protozero::CopyablePtr.126", i8, %"class.std::__1::basic_string", i32, %"class.protozero::CopyablePtr.133", i32, i64, i64, %"class.protozero::CopyablePtr.140", %"class.std::__1::basic_string", %"class.std::__1::bitset.147" }
%"class.protozero::CppMessageObj" = type { i32 (...)** }
%"class.std::__1::vector.44" = type { %"class.std::__1::__vector_base.45" }
%"class.std::__1::__vector_base.45" = type { %"class.perfetto::protos::gen::TraceConfig_BufferConfig"*, %"class.perfetto::protos::gen::TraceConfig_BufferConfig"*, %"class.std::__1::__compressed_pair.51" }
%"class.perfetto::protos::gen::TraceConfig_BufferConfig" = type { %"class.protozero::CppMessageObj", i32, i32, %"class.std::__1::basic_string", %"class.std::__1::bitset" }
%"class.std::__1::bitset" = type { %"class.std::__1::__bitset" }
%"class.std::__1::__bitset" = type { i64 }
%"class.std::__1::__compressed_pair.51" = type { %"struct.std::__1::__compressed_pair_elem.52" }
%"struct.std::__1::__compressed_pair_elem.52" = type { %"class.perfetto::protos::gen::TraceConfig_BufferConfig"* }
%"class.std::__1::vector.56" = type { %"class.std::__1::__vector_base.57" }
%"class.std::__1::__vector_base.57" = type { %"class.perfetto::protos::gen::TraceConfig_DataSource"*, %"class.perfetto::protos::gen::TraceConfig_DataSource"*, %"class.std::__1::__compressed_pair.73" }
%"class.perfetto::protos::gen::TraceConfig_DataSource" = type { %"class.protozero::CppMessageObj", %"class.protozero::CopyablePtr", %"class.std::__1::vector.64", %"class.std::__1::vector.64", %"class.std::__1::basic_string", %"class.std::__1::bitset.71" }
%"class.protozero::CopyablePtr" = type { %"class.std::__1::unique_ptr.58" }
%"class.std::__1::unique_ptr.58" = type { %"class.std::__1::__compressed_pair.59" }
%"class.std::__1::__compressed_pair.59" = type { %"struct.std::__1::__compressed_pair_elem.60" }
%"struct.std::__1::__compressed_pair_elem.60" = type { %"class.perfetto::protos::gen::DataSourceConfig"* }
%"class.perfetto::protos::gen::DataSourceConfig" = type opaque
%"class.std::__1::bitset.71" = type { %"class.std::__1::__bitset.72" }
%"class.std::__1::__bitset.72" = type { i64 }
%"class.std::__1::__compressed_pair.73" = type { %"struct.std::__1::__compressed_pair_elem.74" }
%"struct.std::__1::__compressed_pair_elem.74" = type { %"class.perfetto::protos::gen::TraceConfig_DataSource"* }
%"class.protozero::CopyablePtr.78" = type { %"class.std::__1::unique_ptr.79" }
%"class.std::__1::unique_ptr.79" = type { %"class.std::__1::__compressed_pair.80" }
%"class.std::__1::__compressed_pair.80" = type { %"struct.std::__1::__compressed_pair_elem.81" }
%"struct.std::__1::__compressed_pair_elem.81" = type { %"class.perfetto::protos::gen::TraceConfig_BuiltinDataSource"* }
%"class.perfetto::protos::gen::TraceConfig_BuiltinDataSource" = type { %"class.protozero::CppMessageObj", i8, i8, i8, i8, i32, i32, i8, %"class.std::__1::basic_string", %"class.std::__1::bitset.82" }
%"class.std::__1::bitset.82" = type { %"class.std::__1::__bitset.83" }
%"class.std::__1::__bitset.83" = type { i64 }
%"class.std::__1::vector.87" = type { %"class.std::__1::__vector_base.88" }
%"class.std::__1::__vector_base.88" = type { %"class.perfetto::protos::gen::TraceConfig_ProducerConfig"*, %"class.perfetto::protos::gen::TraceConfig_ProducerConfig"*, %"class.std::__1::__compressed_pair.89" }
%"class.perfetto::protos::gen::TraceConfig_ProducerConfig" = type { %"class.protozero::CppMessageObj", %"class.std::__1::basic_string", i32, i32, %"class.std::__1::basic_string", %"class.std::__1::bitset.71" }
%"class.std::__1::__compressed_pair.89" = type { %"struct.std::__1::__compressed_pair_elem.90" }
%"struct.std::__1::__compressed_pair_elem.90" = type { %"class.perfetto::protos::gen::TraceConfig_ProducerConfig"* }
%"class.protozero::CopyablePtr.94" = type { %"class.std::__1::unique_ptr.95" }
%"class.std::__1::unique_ptr.95" = type { %"class.std::__1::__compressed_pair.96" }
%"class.std::__1::__compressed_pair.96" = type { %"struct.std::__1::__compressed_pair_elem.97" }
%"struct.std::__1::__compressed_pair_elem.97" = type { %"class.perfetto::protos::gen::TraceConfig_StatsdMetadata"* }
%"class.perfetto::protos::gen::TraceConfig_StatsdMetadata" = type { %"class.protozero::CppMessageObj", i64, i32, i64, i64, %"class.std::__1::basic_string", %"class.std::__1::bitset" }
%"class.protozero::CopyablePtr.101" = type { %"class.std::__1::unique_ptr.102" }
%"class.std::__1::unique_ptr.102" = type { %"class.std::__1::__compressed_pair.103" }
%"class.std::__1::__compressed_pair.103" = type { %"struct.std::__1::__compressed_pair_elem.104" }
%"struct.std::__1::__compressed_pair_elem.104" = type { %"class.perfetto::protos::gen::TraceConfig_GuardrailOverrides"* }
%"class.perfetto::protos::gen::TraceConfig_GuardrailOverrides" = type { %"class.protozero::CppMessageObj", i64, %"class.std::__1::basic_string", %"class.std::__1::bitset.105" }
%"class.std::__1::bitset.105" = type { %"class.std::__1::__bitset.106" }
%"class.std::__1::__bitset.106" = type { i64 }
%"class.protozero::CopyablePtr.110" = type { %"class.std::__1::unique_ptr.111" }
%"class.std::__1::unique_ptr.111" = type { %"class.std::__1::__compressed_pair.112" }
%"class.std::__1::__compressed_pair.112" = type { %"struct.std::__1::__compressed_pair_elem.113" }
%"struct.std::__1::__compressed_pair_elem.113" = type { %"class.perfetto::protos::gen::TraceConfig_TriggerConfig"* }
%"class.perfetto::protos::gen::TraceConfig_TriggerConfig" = type { %"class.protozero::CppMessageObj", i32, %"class.std::__1::vector.114", i32, %"class.std::__1::basic_string", %"class.std::__1::bitset.71" }
%"class.std::__1::vector.114" = type { %"class.std::__1::__vector_base.115" }
%"class.std::__1::__vector_base.115" = type { %"class.perfetto::protos::gen::TraceConfig_TriggerConfig_Trigger"*, %"class.perfetto::protos::gen::TraceConfig_TriggerConfig_Trigger"*, %"class.std::__1::__compressed_pair.118" }
%"class.perfetto::protos::gen::TraceConfig_TriggerConfig_Trigger" = type { %"class.protozero::CppMessageObj", %"class.std::__1::basic_string", %"class.std::__1::basic_string", i32, i32, double, %"class.std::__1::basic_string", %"class.std::__1::bitset.116" }
%"class.std::__1::bitset.116" = type { %"class.std::__1::__bitset.117" }
%"class.std::__1::__bitset.117" = type { i64 }
%"class.std::__1::__compressed_pair.118" = type { %"struct.std::__1::__compressed_pair_elem.119" }
%"struct.std::__1::__compressed_pair_elem.119" = type { %"class.perfetto::protos::gen::TraceConfig_TriggerConfig_Trigger"* }
%"class.std::__1::vector.64" = type { %"class.std::__1::__vector_base.65" }
%"class.std::__1::__vector_base.65" = type { %"class.std::__1::basic_string"*, %"class.std::__1::basic_string"*, %"class.std::__1::__compressed_pair.66" }
%"class.std::__1::__compressed_pair.66" = type { %"struct.std::__1::__compressed_pair_elem.67" }
%"struct.std::__1::__compressed_pair_elem.67" = type { %"class.std::__1::basic_string"* }
%"class.protozero::CopyablePtr.126" = type { %"class.std::__1::unique_ptr.127" }
%"class.std::__1::unique_ptr.127" = type { %"class.std::__1::__compressed_pair.128" }
%"class.std::__1::__compressed_pair.128" = type { %"struct.std::__1::__compressed_pair_elem.129" }
%"struct.std::__1::__compressed_pair_elem.129" = type { %"class.perfetto::protos::gen::TraceConfig_IncrementalStateConfig"* }
%"class.perfetto::protos::gen::TraceConfig_IncrementalStateConfig" = type { %"class.protozero::CppMessageObj", i32, %"class.std::__1::basic_string", %"class.std::__1::bitset.105" }
%"class.protozero::CopyablePtr.133" = type { %"class.std::__1::unique_ptr.134" }
%"class.std::__1::unique_ptr.134" = type { %"class.std::__1::__compressed_pair.135" }
%"class.std::__1::__compressed_pair.135" = type { %"struct.std::__1::__compressed_pair_elem.136" }
%"struct.std::__1::__compressed_pair_elem.136" = type { %"class.perfetto::protos::gen::TraceConfig_IncidentReportConfig"* }
%"class.perfetto::protos::gen::TraceConfig_IncidentReportConfig" = type { %"class.protozero::CppMessageObj", %"class.std::__1::basic_string", %"class.std::__1::basic_string", i32, i8, i8, %"class.std::__1::basic_string", %"class.std::__1::bitset.116" }
%"class.protozero::CopyablePtr.140" = type { %"class.std::__1::unique_ptr.141" }
%"class.std::__1::unique_ptr.141" = type { %"class.std::__1::__compressed_pair.142" }
%"class.std::__1::__compressed_pair.142" = type { %"struct.std::__1::__compressed_pair_elem.143" }
%"struct.std::__1::__compressed_pair_elem.143" = type { %"class.perfetto::protos::gen::TraceConfig_TraceFilter"* }
%"class.perfetto::protos::gen::TraceConfig_TraceFilter" = type { %"class.protozero::CppMessageObj", %"class.std::__1::basic_string", %"class.std::__1::basic_string", %"class.std::__1::bitset.105" }
%"class.std::__1::basic_string" = type { %"class.std::__1::__compressed_pair.46" }
%"class.std::__1::__compressed_pair.46" = type { %"struct.std::__1::__compressed_pair_elem.47" }
%"struct.std::__1::__compressed_pair_elem.47" = type { %"struct.std::__1::basic_string<char, std::__1::char_traits<char>, std::__1::allocator<char> >::__rep" }
%"struct.std::__1::basic_string<char, std::__1::char_traits<char>, std::__1::allocator<char> >::__rep" = type { %union.anon }
%union.anon = type { %"struct.std::__1::basic_string<char, std::__1::char_traits<char>, std::__1::allocator<char> >::__long" }
%"struct.std::__1::basic_string<char, std::__1::char_traits<char>, std::__1::allocator<char> >::__long" = type { i8*, i64, i64 }
%"class.std::__1::bitset.147" = type { %"class.std::__1::__bitset.148" }
%"class.std::__1::__bitset.148" = type { i64 }
%"class.std::__1::function" = type { %"class.std::__1::__function::__policy_func" }
%"class.std::__1::__function::__policy_func" = type { %"union.std::__1::__function::__policy_storage", %"struct.std::__1::__function::__policy_invoker", %"struct.std::__1::__function::__policy"* }
%"union.std::__1::__function::__policy_storage" = type { i8*, [8 x i8] }
%"struct.std::__1::__function::__policy_invoker" = type { void (%"union.std::__1::__function::__policy_storage"*, %"class.perfetto::ipc::AsyncResult"*)* }
%"class.perfetto::ipc::AsyncResult" = type { %"class.std::__1::unique_ptr.158", i8, i32 }
%"class.std::__1::unique_ptr.158" = type { %"class.std::__1::__compressed_pair.159" }
%"class.std::__1::__compressed_pair.159" = type { %"struct.std::__1::__compressed_pair_elem.160" }
%"struct.std::__1::__compressed_pair_elem.160" = type { %"class.protozero::CppMessageObj"* }
%"class.std::__1::function.164" = type { %"class.std::__1::__function::__policy_func.168" }
%"class.std::__1::__function::__policy_func.168" = type { %"union.std::__1::__function::__policy_storage", %"struct.std::__1::__function::__policy_invoker.169", %"struct.std::__1::__function::__policy"* }
%"struct.std::__1::__function::__policy_invoker.169" = type { void (%"union.std::__1::__function::__policy_storage"*, %"class.perfetto::ipc::AsyncResult.170"*)* }
%"class.perfetto::ipc::AsyncResult.170" = type { %"class.std::__1::unique_ptr.171", i8, i32 }
%"class.std::__1::unique_ptr.171" = type { %"class.std::__1::__compressed_pair.172" }
%"class.std::__1::__compressed_pair.172" = type { %"struct.std::__1::__compressed_pair_elem.173" }
%"struct.std::__1::__compressed_pair_elem.173" = type { %"class.perfetto::protos::gen::EnableTracingResponse"* }
%"class.perfetto::protos::gen::EnableTracingResponse" = type { %"class.protozero::CppMessageObj", i8, %"class.std::__1::basic_string", %"class.std::__1::basic_string", %"class.std::__1::bitset.71" }
%"class.perfetto::protos::gen::EnableTracingRequest" = type { %"class.protozero::CppMessageObj", %"class.protozero::CopyablePtr.149", i8, %"class.std::__1::basic_string", %"class.std::__1::bitset.156" }
%"class.protozero::CopyablePtr.149" = type { %"class.std::__1::unique_ptr.150" }
%"class.std::__1::unique_ptr.150" = type { %"class.std::__1::__compressed_pair.151" }
%"class.std::__1::__compressed_pair.151" = type { %"struct.std::__1::__compressed_pair_elem.152" }
%"struct.std::__1::__compressed_pair_elem.152" = type { %"class.perfetto::protos::gen::TraceConfig"* }
%"class.std::__1::bitset.156" = type { %"class.std::__1::__bitset.157" }
%"class.std::__1::__bitset.157" = type { i64 }
%"class.perfetto::ipc::Deferred" = type { %"class.perfetto::ipc::DeferredBase" }
%"class.perfetto::ipc::DeferredBase" = type { %"class.std::__1::function" }
%"class.std::__1::function.178" = type { %"class.std::__1::__function::__policy_func.182" }
%"class.std::__1::__function::__policy_func.182" = type { %"union.std::__1::__function::__policy_storage", %"struct.std::__1::__function::__policy_invoker.183", %"struct.std::__1::__function::__policy"* }
%"struct.std::__1::__function::__policy_invoker.183" = type { void (%"union.std::__1::__function::__policy_storage"*, %"class.perfetto::ipc::AsyncResult.184"*)* }
%"class.perfetto::ipc::AsyncResult.184" = type { %"class.std::__1::unique_ptr.185", i8, i32 }
%"class.std::__1::unique_ptr.185" = type { %"class.std::__1::__compressed_pair.186" }
%"class.std::__1::__compressed_pair.186" = type { %"struct.std::__1::__compressed_pair_elem.187" }
%"struct.std::__1::__compressed_pair_elem.187" = type { %"class.perfetto::protos::gen::ChangeTraceConfigResponse"* }
%"class.perfetto::protos::gen::ChangeTraceConfigResponse" = type { %"class.protozero::CppMessageObj", %"class.std::__1::basic_string", %"class.std::__1::bitset.105" }
%"class.perfetto::ipc::Deferred.177" = type { %"class.perfetto::ipc::DeferredBase" }
%"class.perfetto::protos::gen::ChangeTraceConfigRequest" = type { %"class.protozero::CppMessageObj", %"class.protozero::CopyablePtr.149", %"class.std::__1::basic_string", %"class.std::__1::bitset.105" }
%"class.std::__1::function.193" = type { %"class.std::__1::__function::__policy_func.197" }
%"class.std::__1::__function::__policy_func.197" = type { %"union.std::__1::__function::__policy_storage", %"struct.std::__1::__function::__policy_invoker.198", %"struct.std::__1::__function::__policy"* }
%"struct.std::__1::__function::__policy_invoker.198" = type { void (%"union.std::__1::__function::__policy_storage"*, %"class.perfetto::ipc::AsyncResult.199"*)* }
%"class.perfetto::ipc::AsyncResult.199" = type { %"class.std::__1::unique_ptr.200", i8, i32 }
%"class.std::__1::unique_ptr.200" = type { %"class.std::__1::__compressed_pair.201" }
%"class.std::__1::__compressed_pair.201" = type { %"struct.std::__1::__compressed_pair_elem.202" }
%"struct.std::__1::__compressed_pair_elem.202" = type { %"class.perfetto::protos::gen::StartTracingResponse"* }
%"class.perfetto::protos::gen::StartTracingResponse" = type { %"class.protozero::CppMessageObj", %"class.std::__1::basic_string", %"class.std::__1::bitset.105" }
%"class.perfetto::ipc::Deferred.192" = type { %"class.perfetto::ipc::DeferredBase" }
%"class.perfetto::protos::gen::StartTracingRequest" = type { %"class.protozero::CppMessageObj", %"class.std::__1::basic_string", %"class.std::__1::bitset.105" }
%"class.std::__1::function.209" = type { %"class.std::__1::__function::__policy_func.213" }
%"class.std::__1::__function::__policy_func.213" = type { %"union.std::__1::__function::__policy_storage", %"struct.std::__1::__function::__policy_invoker.214", %"struct.std::__1::__function::__policy"* }
%"struct.std::__1::__function::__policy_invoker.214" = type { void (%"union.std::__1::__function::__policy_storage"*, %"class.perfetto::ipc::AsyncResult.215"*)* }
%"class.perfetto::ipc::AsyncResult.215" = type { %"class.std::__1::unique_ptr.216", i8, i32 }
%"class.std::__1::unique_ptr.216" = type { %"class.std::__1::__compressed_pair.217" }
%"class.std::__1::__compressed_pair.217" = type { %"struct.std::__1::__compressed_pair_elem.218" }
%"struct.std::__1::__compressed_pair_elem.218" = type { %"class.perfetto::protos::gen::DisableTracingResponse"* }
%"class.perfetto::protos::gen::DisableTracingResponse" = type { %"class.protozero::CppMessageObj", %"class.std::__1::basic_string", %"class.std::__1::bitset.105" }
%"class.perfetto::ipc::Deferred.208" = type { %"class.perfetto::ipc::DeferredBase" }
%"class.perfetto::protos::gen::DisableTracingRequest" = type { %"class.protozero::CppMessageObj", %"class.std::__1::basic_string", %"class.std::__1::bitset.105" }
%"class.std::__1::function.225" = type { %"class.std::__1::__function::__policy_func.229" }
%"class.std::__1::__function::__policy_func.229" = type { %"union.std::__1::__function::__policy_storage", %"struct.std::__1::__function::__policy_invoker.230", %"struct.std::__1::__function::__policy"* }
%"struct.std::__1::__function::__policy_invoker.230" = type { void (%"union.std::__1::__function::__policy_storage"*, %"class.perfetto::ipc::AsyncResult.231"*)* }
%"class.perfetto::ipc::AsyncResult.231" = type { %"class.std::__1::unique_ptr.232", i8, i32 }
%"class.std::__1::unique_ptr.232" = type { %"class.std::__1::__compressed_pair.233" }
%"class.std::__1::__compressed_pair.233" = type { %"struct.std::__1::__compressed_pair_elem.234" }
%"struct.std::__1::__compressed_pair_elem.234" = type { %"class.perfetto::protos::gen::ReadBuffersResponse"* }
%"class.perfetto::protos::gen::ReadBuffersResponse" = type { %"class.protozero::CppMessageObj", %"class.std::__1::vector.235", %"class.std::__1::basic_string", %"class.std::__1::bitset.156" }
%"class.std::__1::vector.235" = type { %"class.std::__1::__vector_base.236" }
%"class.std::__1::__vector_base.236" = type { %"class.perfetto::protos::gen::ReadBuffersResponse_Slice"*, %"class.perfetto::protos::gen::ReadBuffersResponse_Slice"*, %"class.std::__1::__compressed_pair.237" }
%"class.perfetto::protos::gen::ReadBuffersResponse_Slice" = type { %"class.protozero::CppMessageObj", %"class.std::__1::basic_string", i8, %"class.std::__1::basic_string", %"class.std::__1::bitset.156" }
%"class.std::__1::__compressed_pair.237" = type { %"struct.std::__1::__compressed_pair_elem.238" }
%"struct.std::__1::__compressed_pair_elem.238" = type { %"class.perfetto::protos::gen::ReadBuffersResponse_Slice"* }
%"class.perfetto::ipc::Deferred.224" = type { %"class.perfetto::ipc::DeferredBase" }
%"class.perfetto::protos::gen::ReadBuffersRequest" = type { %"class.protozero::CppMessageObj", %"class.std::__1::basic_string", %"class.std::__1::bitset.105" }
%"class.std::__1::vector.246" = type { %"class.std::__1::__vector_base.247" }
%"class.std::__1::__vector_base.247" = type { %"class.perfetto::TracePacket"*, %"class.perfetto::TracePacket"*, %"class.std::__1::__compressed_pair.248" }
%"class.std::__1::__compressed_pair.248" = type { %"struct.std::__1::__compressed_pair_elem.249" }
%"struct.std::__1::__compressed_pair_elem.249" = type { %"class.perfetto::TracePacket"* }
%"struct.std::__1::basic_string<char, std::__1::char_traits<char>, std::__1::allocator<char> >::__short" = type { [23 x i8], %struct.anon }
%struct.anon = type { i8 }
%"class.std::__1::function.261" = type { %"class.std::__1::__function::__policy_func.265" }
%"class.std::__1::__function::__policy_func.265" = type { %"union.std::__1::__function::__policy_storage", %"struct.std::__1::__function::__policy_invoker.266", %"struct.std::__1::__function::__policy"* }
%"struct.std::__1::__function::__policy_invoker.266" = type { void (%"union.std::__1::__function::__policy_storage"*, %"class.perfetto::ipc::AsyncResult.267"*)* }
%"class.perfetto::ipc::AsyncResult.267" = type { %"class.std::__1::unique_ptr.268", i8, i32 }
%"class.std::__1::unique_ptr.268" = type { %"class.std::__1::__compressed_pair.269" }
%"class.std::__1::__compressed_pair.269" = type { %"struct.std::__1::__compressed_pair_elem.270" }
%"struct.std::__1::__compressed_pair_elem.270" = type { %"class.perfetto::protos::gen::FreeBuffersResponse"* }
%"class.perfetto::protos::gen::FreeBuffersResponse" = type { %"class.protozero::CppMessageObj", %"class.std::__1::basic_string", %"class.std::__1::bitset.105" }
%"class.perfetto::protos::gen::FreeBuffersRequest" = type { %"class.protozero::CppMessageObj", %"class.std::__1::vector.253", %"class.std::__1::basic_string", %"class.std::__1::bitset.105" }
%"class.std::__1::vector.253" = type { %"class.std::__1::__vector_base.254" }
%"class.std::__1::__vector_base.254" = type { i32*, i32*, %"class.std::__1::__compressed_pair.255" }
%"class.std::__1::__compressed_pair.255" = type { %"struct.std::__1::__compressed_pair_elem.256" }
%"struct.std::__1::__compressed_pair_elem.256" = type { i32* }
%"class.perfetto::ipc::Deferred.260" = type { %"class.perfetto::ipc::DeferredBase" }
%"class.std::__1::function.276" = type { %"class.std::__1::__function::__policy_func.280" }
%"class.std::__1::__function::__policy_func.280" = type { %"union.std::__1::__function::__policy_storage", %"struct.std::__1::__function::__policy_invoker.281", %"struct.std::__1::__function::__policy"* }
%"struct.std::__1::__function::__policy_invoker.281" = type { void (%"union.std::__1::__function::__policy_storage"*, i1)* }
%"class.std::__1::function.283" = type { %"class.std::__1::__function::__policy_func.287" }
%"class.std::__1::__function::__policy_func.287" = type { %"union.std::__1::__function::__policy_storage", %"struct.std::__1::__function::__policy_invoker.288", %"struct.std::__1::__function::__policy"* }
%"struct.std::__1::__function::__policy_invoker.288" = type { void (%"union.std::__1::__function::__policy_storage"*, %"class.perfetto::ipc::AsyncResult.289"*)* }
%"class.perfetto::ipc::AsyncResult.289" = type { %"class.std::__1::unique_ptr.290", i8, i32 }
%"class.std::__1::unique_ptr.290" = type { %"class.std::__1::__compressed_pair.291" }
%"class.std::__1::__compressed_pair.291" = type { %"struct.std::__1::__compressed_pair_elem.292" }
%"struct.std::__1::__compressed_pair_elem.292" = type { %"class.perfetto::protos::gen::FlushResponse"* }
%"class.perfetto::protos::gen::FlushResponse" = type { %"class.protozero::CppMessageObj", %"class.std::__1::basic_string", %"class.std::__1::bitset.105" }
%"class.perfetto::protos::gen::FlushRequest" = type { %"class.protozero::CppMessageObj", i32, %"class.std::__1::basic_string", %"class.std::__1::bitset.105" }
%"class.perfetto::ipc::Deferred.282" = type { %"class.perfetto::ipc::DeferredBase" }
%"class.std::__1::function.298" = type { %"class.std::__1::__function::__policy_func.302" }
%"class.std::__1::__function::__policy_func.302" = type { %"union.std::__1::__function::__policy_storage", %"struct.std::__1::__function::__policy_invoker.303", %"struct.std::__1::__function::__policy"* }
%"struct.std::__1::__function::__policy_invoker.303" = type { void (%"union.std::__1::__function::__policy_storage"*, %"class.perfetto::ipc::AsyncResult.304"*)* }
%"class.perfetto::ipc::AsyncResult.304" = type { %"class.std::__1::unique_ptr.305", i8, i32 }
%"class.std::__1::unique_ptr.305" = type { %"class.std::__1::__compressed_pair.306" }
%"class.std::__1::__compressed_pair.306" = type { %"struct.std::__1::__compressed_pair_elem.307" }
%"struct.std::__1::__compressed_pair_elem.307" = type { %"class.perfetto::protos::gen::DetachResponse"* }
%"class.perfetto::protos::gen::DetachResponse" = type { %"class.protozero::CppMessageObj", %"class.std::__1::basic_string", %"class.std::__1::bitset.105" }
%"class.perfetto::protos::gen::DetachRequest" = type { %"class.protozero::CppMessageObj", %"class.std::__1::basic_string", %"class.std::__1::basic_string", %"class.std::__1::bitset.105" }
%"class.perfetto::ipc::Deferred.297" = type { %"class.perfetto::ipc::DeferredBase" }
%"class.std::__1::function.313" = type { %"class.std::__1::__function::__policy_func.317" }
%"class.std::__1::__function::__policy_func.317" = type { %"union.std::__1::__function::__policy_storage", %"struct.std::__1::__function::__policy_invoker.318", %"struct.std::__1::__function::__policy"* }
%"struct.std::__1::__function::__policy_invoker.318" = type { void (%"union.std::__1::__function::__policy_storage"*, %"class.perfetto::ipc::AsyncResult.319"*)* }
%"class.perfetto::ipc::AsyncResult.319" = type { %"class.std::__1::unique_ptr.320", i8, i32 }
%"class.std::__1::unique_ptr.320" = type { %"class.std::__1::__compressed_pair.321" }
%"class.std::__1::__compressed_pair.321" = type { %"struct.std::__1::__compressed_pair_elem.322" }
%"struct.std::__1::__compressed_pair_elem.322" = type { %"class.perfetto::protos::gen::AttachResponse"* }
%"class.perfetto::protos::gen::AttachResponse" = type { %"class.protozero::CppMessageObj", %"class.protozero::CopyablePtr.149", %"class.std::__1::basic_string", %"class.std::__1::bitset.105" }
%"class.perfetto::protos::gen::AttachRequest" = type { %"class.protozero::CppMessageObj", %"class.std::__1::basic_string", %"class.std::__1::basic_string", %"class.std::__1::bitset.105" }
%"class.perfetto::ipc::Deferred.312" = type { %"class.perfetto::ipc::DeferredBase" }
%"class.std::__1::function.328" = type { %"class.std::__1::__function::__policy_func.332" }
%"class.std::__1::__function::__policy_func.332" = type { %"union.std::__1::__function::__policy_storage", %"struct.std::__1::__function::__policy_invoker.333", %"struct.std::__1::__function::__policy"* }
%"struct.std::__1::__function::__policy_invoker.333" = type { void (%"union.std::__1::__function::__policy_storage"*, %"class.perfetto::ipc::AsyncResult.334"*)* }
%"class.perfetto::ipc::AsyncResult.334" = type { %"class.std::__1::unique_ptr.335", i8, i32 }
%"class.std::__1::unique_ptr.335" = type { %"class.std::__1::__compressed_pair.336" }
%"class.std::__1::__compressed_pair.336" = type { %"struct.std::__1::__compressed_pair_elem.337" }
%"struct.std::__1::__compressed_pair_elem.337" = type { %"class.perfetto::protos::gen::GetTraceStatsResponse"* }
%"class.perfetto::protos::gen::GetTraceStatsResponse" = type { %"class.protozero::CppMessageObj", %"class.protozero::CopyablePtr.338", %"class.std::__1::basic_string", %"class.std::__1::bitset.105" }
%"class.protozero::CopyablePtr.338" = type { %"class.std::__1::unique_ptr.339" }
%"class.std::__1::unique_ptr.339" = type { %"class.std::__1::__compressed_pair.340" }
%"class.std::__1::__compressed_pair.340" = type { %"struct.std::__1::__compressed_pair_elem.341" }
%"struct.std::__1::__compressed_pair_elem.341" = type { %"class.perfetto::protos::gen::TraceStats"* }
%"class.perfetto::protos::gen::TraceStats" = type { %"class.protozero::CppMessageObj", %"class.std::__1::vector.342", i32, i64, i32, i64, i32, i32, i64, i64, i64, %"class.protozero::CopyablePtr.351", %"class.std::__1::basic_string", %"class.std::__1::bitset.358" }
%"class.std::__1::vector.342" = type { %"class.std::__1::__vector_base.343" }
%"class.std::__1::__vector_base.343" = type { %"class.perfetto::protos::gen::TraceStats_BufferStats"*, %"class.perfetto::protos::gen::TraceStats_BufferStats"*, %"class.std::__1::__compressed_pair.346" }
%"class.perfetto::protos::gen::TraceStats_BufferStats" = type { %"class.protozero::CppMessageObj", i64, i64, i64, i64, i64, i64, i64, i64, i64, i64, i64, i64, i64, i64, i64, i64, i64, i64, i64, %"class.std::__1::basic_string", %"class.std::__1::bitset.344" }
%"class.std::__1::bitset.344" = type { %"class.std::__1::__bitset.345" }
%"class.std::__1::__bitset.345" = type { i64 }
%"class.std::__1::__compressed_pair.346" = type { %"struct.std::__1::__compressed_pair_elem.347" }
%"struct.std::__1::__compressed_pair_elem.347" = type { %"class.perfetto::protos::gen::TraceStats_BufferStats"* }
%"class.protozero::CopyablePtr.351" = type { %"class.std::__1::unique_ptr.352" }
%"class.std::__1::unique_ptr.352" = type { %"class.std::__1::__compressed_pair.353" }
%"class.std::__1::__compressed_pair.353" = type { %"struct.std::__1::__compressed_pair_elem.354" }
%"struct.std::__1::__compressed_pair_elem.354" = type { %"class.perfetto::protos::gen::TraceStats_FilterStats"* }
%"class.perfetto::protos::gen::TraceStats_FilterStats" = type { %"class.protozero::CppMessageObj", i64, i64, i64, i64, %"class.std::__1::basic_string", %"class.std::__1::bitset" }
%"class.std::__1::bitset.358" = type { %"class.std::__1::__bitset.359" }
%"class.std::__1::__bitset.359" = type { i64 }
%"class.perfetto::protos::gen::GetTraceStatsRequest" = type { %"class.protozero::CppMessageObj", %"class.std::__1::basic_string", %"class.std::__1::bitset.105" }
%"class.perfetto::ipc::Deferred.327" = type { %"class.perfetto::ipc::DeferredBase" }
%"class.std::__1::function.375" = type { %"class.std::__1::__function::__policy_func.379" }
%"class.std::__1::__function::__policy_func.379" = type { %"union.std::__1::__function::__policy_storage", %"struct.std::__1::__function::__policy_invoker.380", %"struct.std::__1::__function::__policy"* }
%"struct.std::__1::__function::__policy_invoker.380" = type { void (%"union.std::__1::__function::__policy_storage"*, %"class.perfetto::ipc::AsyncResult.381"*)* }
%"class.perfetto::ipc::AsyncResult.381" = type { %"class.std::__1::unique_ptr.382", i8, i32 }
%"class.std::__1::unique_ptr.382" = type { %"class.std::__1::__compressed_pair.383" }
%"class.std::__1::__compressed_pair.383" = type { %"struct.std::__1::__compressed_pair_elem.384" }
%"struct.std::__1::__compressed_pair_elem.384" = type { %"class.perfetto::protos::gen::ObserveEventsResponse"* }
%"class.perfetto::protos::gen::ObserveEventsResponse" = type { %"class.protozero::CppMessageObj", %"class.protozero::CopyablePtr.385", %"class.std::__1::basic_string", %"class.std::__1::bitset.105" }
%"class.protozero::CopyablePtr.385" = type { %"class.std::__1::unique_ptr.386" }
%"class.std::__1::unique_ptr.386" = type { %"class.std::__1::__compressed_pair.387" }
%"class.std::__1::__compressed_pair.387" = type { %"struct.std::__1::__compressed_pair_elem.388" }
%"struct.std::__1::__compressed_pair_elem.388" = type { %"class.perfetto::protos::gen::ObservableEvents"* }
%"class.perfetto::protos::gen::ObservableEvents" = type { %"class.protozero::CppMessageObj", %"class.std::__1::vector.389", i8, %"class.std::__1::basic_string", %"class.std::__1::bitset.156" }
%"class.std::__1::vector.389" = type { %"class.std::__1::__vector_base.390" }
%"class.std::__1::__vector_base.390" = type { %"class.perfetto::protos::gen::ObservableEvents_DataSourceInstanceStateChange"*, %"class.perfetto::protos::gen::ObservableEvents_DataSourceInstanceStateChange"*, %"class.std::__1::__compressed_pair.391" }
%"class.perfetto::protos::gen::ObservableEvents_DataSourceInstanceStateChange" = type { %"class.protozero::CppMessageObj", %"class.std::__1::basic_string", %"class.std::__1::basic_string", i32, %"class.std::__1::basic_string", %"class.std::__1::bitset.71" }
%"class.std::__1::__compressed_pair.391" = type { %"struct.std::__1::__compressed_pair_elem.392" }
%"struct.std::__1::__compressed_pair_elem.392" = type { %"class.perfetto::protos::gen::ObservableEvents_DataSourceInstanceStateChange"* }
%"class.perfetto::protos::gen::ObserveEventsRequest" = type { %"class.protozero::CppMessageObj", %"class.std::__1::vector.367", %"class.std::__1::basic_string", %"class.std::__1::bitset.105" }
%"class.std::__1::vector.367" = type { %"class.std::__1::__vector_base.368" }
%"class.std::__1::__vector_base.368" = type { i32*, i32*, %"class.std::__1::__compressed_pair.369" }
%"class.std::__1::__compressed_pair.369" = type { %"struct.std::__1::__compressed_pair_elem.370" }
%"struct.std::__1::__compressed_pair_elem.370" = type { i32* }
%"class.perfetto::ipc::Deferred.374" = type { %"class.perfetto::ipc::DeferredBase" }
%"class.std::__1::__vector_base_common" = type { i8 }
%"class.std::__1::function.403" = type { %"class.std::__1::__function::__policy_func.407" }
%"class.std::__1::__function::__policy_func.407" = type { %"union.std::__1::__function::__policy_storage", %"struct.std::__1::__function::__policy_invoker.408", %"struct.std::__1::__function::__policy"* }
%"struct.std::__1::__function::__policy_invoker.408" = type { void (%"union.std::__1::__function::__policy_storage"*, i1, %"class.perfetto::protos::gen::TracingServiceState"*)* }
%"class.perfetto::protos::gen::TracingServiceState" = type { %"class.protozero::CppMessageObj", %"class.std::__1::vector.409", %"class.std::__1::vector.416", i32, i32, %"class.std::__1::basic_string", %"class.std::__1::basic_string", %"class.std::__1::bitset.116" }
%"class.std::__1::vector.409" = type { %"class.std::__1::__vector_base.410" }
%"class.std::__1::__vector_base.410" = type { %"class.perfetto::protos::gen::TracingServiceState_Producer"*, %"class.perfetto::protos::gen::TracingServiceState_Producer"*, %"class.std::__1::__compressed_pair.411" }
%"class.perfetto::protos::gen::TracingServiceState_Producer" = type { %"class.protozero::CppMessageObj", i32, %"class.std::__1::basic_string", i32, %"class.std::__1::basic_string", %"class.std::__1::basic_string", %"class.std::__1::bitset" }
%"class.std::__1::__compressed_pair.411" = type { %"struct.std::__1::__compressed_pair_elem.412" }
%"struct.std::__1::__compressed_pair_elem.412" = type { %"class.perfetto::protos::gen::TracingServiceState_Producer"* }
%"class.std::__1::vector.416" = type { %"class.std::__1::__vector_base.417" }
%"class.std::__1::__vector_base.417" = type { %"class.perfetto::protos::gen::TracingServiceState_DataSource"*, %"class.perfetto::protos::gen::TracingServiceState_DataSource"*, %"class.std::__1::__compressed_pair.425" }
%"class.perfetto::protos::gen::TracingServiceState_DataSource" = type { %"class.protozero::CppMessageObj", %"class.protozero::CopyablePtr.418", i32, %"class.std::__1::basic_string", %"class.std::__1::bitset.156" }
%"class.protozero::CopyablePtr.418" = type { %"class.std::__1::unique_ptr.419" }
%"class.std::__1::unique_ptr.419" = type { %"class.std::__1::__compressed_pair.420" }
%"class.std::__1::__compressed_pair.420" = type { %"struct.std::__1::__compressed_pair_elem.421" }
%"struct.std::__1::__compressed_pair_elem.421" = type { %"class.perfetto::protos::gen::DataSourceDescriptor"* }
%"class.perfetto::protos::gen::DataSourceDescriptor" = type opaque
%"class.std::__1::__compressed_pair.425" = type { %"struct.std::__1::__compressed_pair_elem.426" }
%"struct.std::__1::__compressed_pair_elem.426" = type { %"class.perfetto::protos::gen::TracingServiceState_DataSource"* }
%"class.std::__1::function.437" = type { %"class.std::__1::__function::__policy_func.441" }
%"class.std::__1::__function::__policy_func.441" = type { %"union.std::__1::__function::__policy_storage", %"struct.std::__1::__function::__policy_invoker.442", %"struct.std::__1::__function::__policy"* }
%"struct.std::__1::__function::__policy_invoker.442" = type { void (%"union.std::__1::__function::__policy_storage"*, %"class.perfetto::ipc::AsyncResult.443"*)* }
%"class.perfetto::ipc::AsyncResult.443" = type { %"class.std::__1::unique_ptr.444", i8, i32 }
%"class.std::__1::unique_ptr.444" = type { %"class.std::__1::__compressed_pair.445" }
%"class.std::__1::__compressed_pair.445" = type { %"struct.std::__1::__compressed_pair_elem.446" }
%"struct.std::__1::__compressed_pair_elem.446" = type { %"class.perfetto::protos::gen::QueryServiceStateResponse"* }
%"class.perfetto::protos::gen::QueryServiceStateResponse" = type { %"class.protozero::CppMessageObj", %"class.protozero::CopyablePtr.447", %"class.std::__1::basic_string", %"class.std::__1::bitset.105" }
%"class.protozero::CopyablePtr.447" = type { %"class.std::__1::unique_ptr.448" }
%"class.std::__1::unique_ptr.448" = type { %"class.std::__1::__compressed_pair.449" }
%"class.std::__1::__compressed_pair.449" = type { %"struct.std::__1::__compressed_pair_elem.450" }
%"struct.std::__1::__compressed_pair_elem.450" = type { %"class.perfetto::protos::gen::TracingServiceState"* }
%"class.perfetto::protos::gen::QueryServiceStateRequest" = type { %"class.protozero::CppMessageObj", %"class.std::__1::basic_string", %"class.std::__1::bitset.105" }
%"class.perfetto::ipc::Deferred.436" = type { %"class.perfetto::ipc::DeferredBase" }
%"class.std::__1::vector.430" = type { %"class.std::__1::__vector_base.431" }
%"class.std::__1::__vector_base.431" = type { i8*, i8*, %"class.std::__1::__compressed_pair.432" }
%"class.std::__1::__compressed_pair.432" = type { %"struct.std::__1::__compressed_pair_elem.32" }
%"class.std::__1::function.460" = type { %"class.std::__1::__function::__policy_func.464" }
%"class.std::__1::__function::__policy_func.464" = type { %"union.std::__1::__function::__policy_storage", %"struct.std::__1::__function::__policy_invoker.465", %"struct.std::__1::__function::__policy"* }
%"struct.std::__1::__function::__policy_invoker.465" = type { void (%"union.std::__1::__function::__policy_storage"*, %"class.perfetto::protos::gen::TracingServiceCapabilities"*)* }
%"class.perfetto::protos::gen::TracingServiceCapabilities" = type { %"class.protozero::CppMessageObj", i8, %"class.std::__1::vector.367", i8, %"class.std::__1::basic_string", %"class.std::__1::bitset.71" }
%"class.std::__1::function.467" = type { %"class.std::__1::__function::__policy_func.471" }
%"class.std::__1::__function::__policy_func.471" = type { %"union.std::__1::__function::__policy_storage", %"struct.std::__1::__function::__policy_invoker.472", %"struct.std::__1::__function::__policy"* }
%"struct.std::__1::__function::__policy_invoker.472" = type { void (%"union.std::__1::__function::__policy_storage"*, %"class.perfetto::ipc::AsyncResult.473"*)* }
%"class.perfetto::ipc::AsyncResult.473" = type { %"class.std::__1::unique_ptr.474", i8, i32 }
%"class.std::__1::unique_ptr.474" = type { %"class.std::__1::__compressed_pair.475" }
%"class.std::__1::__compressed_pair.475" = type { %"struct.std::__1::__compressed_pair_elem.476" }
%"struct.std::__1::__compressed_pair_elem.476" = type { %"class.perfetto::protos::gen::QueryCapabilitiesResponse"* }
%"class.perfetto::protos::gen::QueryCapabilitiesResponse" = type { %"class.protozero::CppMessageObj", %"class.protozero::CopyablePtr.477", %"class.std::__1::basic_string", %"class.std::__1::bitset.105" }
%"class.protozero::CopyablePtr.477" = type { %"class.std::__1::unique_ptr.478" }
%"class.std::__1::unique_ptr.478" = type { %"class.std::__1::__compressed_pair.479" }
%"class.std::__1::__compressed_pair.479" = type { %"struct.std::__1::__compressed_pair_elem.480" }
%"struct.std::__1::__compressed_pair_elem.480" = type { %"class.perfetto::protos::gen::TracingServiceCapabilities"* }
%"class.perfetto::protos::gen::QueryCapabilitiesRequest" = type { %"class.protozero::CppMessageObj", %"class.std::__1::basic_string", %"class.std::__1::bitset.105" }
%"class.perfetto::ipc::Deferred.466" = type { %"class.perfetto::ipc::DeferredBase" }
%"class.std::__1::function.488" = type { %"class.std::__1::__function::__policy_func.492" }
%"class.std::__1::__function::__policy_func.492" = type { %"union.std::__1::__function::__policy_storage", %"struct.std::__1::__function::__policy_invoker.493", %"struct.std::__1::__function::__policy"* }
%"struct.std::__1::__function::__policy_invoker.493" = type { void (%"union.std::__1::__function::__policy_storage"*, i1, %"class.std::__1::basic_string"*)* }
%"class.std::__1::function.495" = type { %"class.std::__1::__function::__policy_func.499" }
%"class.std::__1::__function::__policy_func.499" = type { %"union.std::__1::__function::__policy_storage", %"struct.std::__1::__function::__policy_invoker.500", %"struct.std::__1::__function::__policy"* }
%"struct.std::__1::__function::__policy_invoker.500" = type { void (%"union.std::__1::__function::__policy_storage"*, %"class.perfetto::ipc::AsyncResult.501"*)* }
%"class.perfetto::ipc::AsyncResult.501" = type { %"class.std::__1::unique_ptr.502", i8, i32 }
%"class.std::__1::unique_ptr.502" = type { %"class.std::__1::__compressed_pair.503" }
%"class.std::__1::__compressed_pair.503" = type { %"struct.std::__1::__compressed_pair_elem.504" }
%"struct.std::__1::__compressed_pair_elem.504" = type { %"class.perfetto::protos::gen::SaveTraceForBugreportResponse"* }
%"class.perfetto::protos::gen::SaveTraceForBugreportResponse" = type { %"class.protozero::CppMessageObj", i8, %"class.std::__1::basic_string", %"class.std::__1::basic_string", %"class.std::__1::bitset.156" }
%"class.perfetto::protos::gen::SaveTraceForBugreportRequest" = type { %"class.protozero::CppMessageObj", %"class.std::__1::basic_string", %"class.std::__1::bitset.105" }
%"class.perfetto::ipc::Deferred.494" = type { %"class.perfetto::ipc::DeferredBase" }
%"class.std::__1::__shared_ptr_pointer" = type { %"class.std::__1::__shared_weak_count", %"class.std::__1::__compressed_pair.518" }
%"class.std::__1::__compressed_pair.518" = type { %"struct.std::__1::__compressed_pair_elem.519" }
%"struct.std::__1::__compressed_pair_elem.519" = type { %"class.std::__1::__compressed_pair.520" }
%"class.std::__1::__compressed_pair.520" = type { %"struct.std::__1::__compressed_pair_elem.514" }
%"struct.std::__1::__compressed_pair_elem.514" = type { %"class.perfetto::ConsumerIPCClientImpl"** }
%"class.std::__1::__function::__default_alloc_func" = type { %class.anon.527 }
%class.anon.527 = type { %"class.std::__1::function.164" }
%"class.std::__1::__function::__default_alloc_func.532" = type { %class.anon }
%class.anon = type { %"class.perfetto::base::WeakPtr.42" }
%"class.std::__1::__function::__default_alloc_func.535" = type { %class.anon.534 }
%class.anon.534 = type { %"class.std::__1::function.178" }
%"class.std::__1::__function::__default_alloc_func.541" = type { %class.anon.540 }
%class.anon.540 = type { %"class.std::__1::function.193" }
%"class.std::__1::__function::__default_alloc_func.546" = type { %class.anon.545 }
%class.anon.545 = type { %"class.std::__1::function.209" }
%"class.std::__1::__function::__default_alloc_func.551" = type { %class.anon.550 }
%class.anon.550 = type { %"class.std::__1::function.225" }
%"class.std::__1::__function::__default_alloc_func.559" = type { %class.anon.558 }
%class.anon.558 = type { %"class.std::__1::function.261" }
%"class.std::__1::__function::__default_alloc_func.564" = type { %class.anon.563 }
%class.anon.563 = type { %"class.std::__1::function.283" }
%"class.std::__1::__function::__default_alloc_func.566" = type { %class.anon.296 }
%class.anon.296 = type { %"class.std::__1::function.276" }
%"class.std::__1::__function::__default_alloc_func.569" = type { %class.anon.568 }
%class.anon.568 = type { %"class.std::__1::function.298" }
%"class.std::__1::__function::__default_alloc_func.571" = type { %class.anon.311 }
%class.anon.311 = type { %"class.perfetto::base::WeakPtr.42" }
%"class.std::__1::__function::__default_alloc_func.574" = type { %class.anon.573 }
%class.anon.573 = type { %"class.std::__1::function.313" }
%"class.std::__1::__function::__default_alloc_func.576" = type { %class.anon.326 }
%class.anon.326 = type { %"class.perfetto::base::WeakPtr.42" }
%"class.std::__1::__function::__default_alloc_func.578" = type { %class.anon.577 }
%class.anon.577 = type { %"class.perfetto::base::WeakPtr.42" }
%"class.std::__1::__function::__default_alloc_func.582" = type { %class.anon.581 }
%class.anon.581 = type { %"class.std::__1::function.328" }
%"class.std::__1::__function::__default_alloc_func.587" = type { %class.anon.586 }
%class.anon.586 = type { %"class.std::__1::function.375" }
%"class.std::__1::__function::__default_alloc_func.596" = type { %class.anon.595 }
%class.anon.595 = type { %"class.std::__1::function.437" }
%"class.std::__1::__function::__default_alloc_func.598" = type { %class.anon.457 }
%class.anon.457 = type { %"class.perfetto::base::WeakPtr.42", %"class.std::__1::__list_iterator" }
%"class.std::__1::__list_iterator" = type { %"struct.std::__1::__list_node_base"* }
%"class.std::__1::__function::__default_alloc_func.604" = type { %class.anon.603 }
%class.anon.603 = type { %"class.std::__1::function.467" }
%"class.std::__1::__function::__default_alloc_func.606" = type { %class.anon.487 }
%class.anon.487 = type { %"class.std::__1::function.460" }
%"class.std::__1::__function::__default_alloc_func.609" = type { %class.anon.608 }
%class.anon.608 = type { %"class.std::__1::function.495" }
%"class.std::__1::__function::__default_alloc_func.611" = type { %class.anon.508 }
%class.anon.508 = type { %"class.std::__1::function.488" }

$_ZN8perfetto3ipc8DeferredINS_6protos3gen21EnableTracingResponseEE4BindENSt3__18functionIFvNS0_11AsyncResultIS4_EEEEE = comdat any

$_ZN8perfetto3ipc8DeferredINS_6protos3gen25ChangeTraceConfigResponseEE4BindENSt3__18functionIFvNS0_11AsyncResultIS4_EEEEE = comdat any

$_ZN8perfetto3ipc8DeferredINS_6protos3gen20StartTracingResponseEE4BindENSt3__18functionIFvNS0_11AsyncResultIS4_EEEEE = comdat any

$_ZN8perfetto3ipc8DeferredINS_6protos3gen22DisableTracingResponseEE4BindENSt3__18functionIFvNS0_11AsyncResultIS4_EEEEE = comdat any

$_ZN8perfetto3ipc8DeferredINS_6protos3gen19ReadBuffersResponseEE4BindENSt3__18functionIFvNS0_11AsyncResultIS4_EEEEE = comdat any

$_ZN8perfetto3ipc8DeferredINS_6protos3gen19FreeBuffersResponseEE4BindENSt3__18functionIFvNS0_11AsyncResultIS4_EEEEE = comdat any

$_ZN8perfetto3ipc8DeferredINS_6protos3gen13FlushResponseEE4BindENSt3__18functionIFvNS0_11AsyncResultIS4_EEEEE = comdat any

$_ZN8perfetto3ipc8DeferredINS_6protos3gen14DetachResponseEE4BindENSt3__18functionIFvNS0_11AsyncResultIS4_EEEEE = comdat any

$_ZN8perfetto3ipc8DeferredINS_6protos3gen14AttachResponseEE4BindENSt3__18functionIFvNS0_11AsyncResultIS4_EEEEE = comdat any

$_ZN8perfetto3ipc8DeferredINS_6protos3gen21GetTraceStatsResponseEE4BindENSt3__18functionIFvNS0_11AsyncResultIS4_EEEEE = comdat any

$_ZN8perfetto6protos3gen20ObserveEventsRequest21add_events_to_observeENS1_21ObservableEvents_TypeE = comdat any

$_ZN8perfetto3ipc8DeferredINS_6protos3gen21ObserveEventsResponseEE4BindENSt3__18functionIFvNS0_11AsyncResultIS4_EEEEE = comdat any

$_ZN8perfetto3ipc8DeferredINS_6protos3gen25QueryServiceStateResponseEE4BindENSt3__18functionIFvNS0_11AsyncResultIS4_EEEEE = comdat any

$_ZNSt3__16vectorIhNS_9allocatorIhEEE6insertINS_11__wrap_iterIPhEEEENS_9enable_ifIXaasr27__is_cpp17_forward_iteratorIT_EE5valuesr16is_constructibleIhNS_15iterator_traitsIS9_E9referenceEEE5valueES7_E4typeENS5_IPKhEES9_S9_ = comdat any

$_ZN8perfetto4base8BasenameEPKc = comdat any

$_ZN8perfetto3ipc8DeferredINS_6protos3gen25QueryCapabilitiesResponseEE4BindENSt3__18functionIFvNS0_11AsyncResultIS4_EEEEE = comdat any

$_ZN8perfetto3ipc8DeferredINS_6protos3gen29SaveTraceForBugreportResponseEE4BindENSt3__18functionIFvNS0_11AsyncResultIS4_EEEEE = comdat any

$_ZNSt3__120__shared_ptr_pointerIPPN8perfetto21ConsumerIPCClientImplENS_10shared_ptrIS3_E27__shared_ptr_default_deleteIS3_S3_EENS_9allocatorIS3_EEED0Ev = comdat any

$_ZNSt3__120__shared_ptr_pointerIPPN8perfetto21ConsumerIPCClientImplENS_10shared_ptrIS3_E27__shared_ptr_default_deleteIS3_S3_EENS_9allocatorIS3_EEE16__on_zero_sharedEv = comdat any

$_ZNSt3__120__shared_ptr_pointerIPPN8perfetto21ConsumerIPCClientImplENS_10shared_ptrIS3_E27__shared_ptr_default_deleteIS3_S3_EENS_9allocatorIS3_EEE21__on_zero_shared_weakEv = comdat any

$_ZNSt3__110__function16__policy_invokerIFvN8perfetto3ipc11AsyncResultINS2_6protos3gen21EnableTracingResponseEEEEE12__call_emptyEPKNS0_16__policy_storageEOS8_ = comdat any

$_ZNSt3__125__throw_bad_function_callEv = comdat any

$_ZNSt3__110__function16__policy_invokerIFvN8perfetto3ipc11AsyncResultIN9protozero13CppMessageObjEEEEE12__call_emptyEPKNS0_16__policy_storageEOS7_ = comdat any

$_ZNSt3__110__function16__policy_invokerIFvN8perfetto3ipc11AsyncResultIN9protozero13CppMessageObjEEEEE11__call_implINS0_20__default_alloc_funcIZNS3_8DeferredINS2_6protos3gen21EnableTracingResponseEE4BindENS_8functionIFvNS4_ISF_EEEEEEUlS7_E_S8_EEEEvPKNS0_16__policy_storageEOS7_ = comdat any

$_ZNSt3__110__function8__policy13__large_cloneINS0_20__default_alloc_funcIZN8perfetto3ipc8DeferredINS4_6protos3gen21EnableTracingResponseEE4BindENS_8functionIFvNS5_11AsyncResultIS9_EEEEEEUlNSC_IN9protozero13CppMessageObjEEEE_FvSI_EEEEEPvPKv = comdat any

$_ZNSt3__110__function8__policy15__large_destroyINS0_20__default_alloc_funcIZN8perfetto3ipc8DeferredINS4_6protos3gen21EnableTracingResponseEE4BindENS_8functionIFvNS5_11AsyncResultIS9_EEEEEEUlNSC_IN9protozero13CppMessageObjEEEE_FvSI_EEEEEvPv = comdat any

$_ZNSt3__110__function16__policy_invokerIFvN8perfetto3ipc11AsyncResultINS2_6protos3gen25ChangeTraceConfigResponseEEEEE12__call_emptyEPKNS0_16__policy_storageEOS8_ = comdat any

$_ZNSt3__110__function16__policy_invokerIFvN8perfetto3ipc11AsyncResultIN9protozero13CppMessageObjEEEEE11__call_implINS0_20__default_alloc_funcIZNS3_8DeferredINS2_6protos3gen25ChangeTraceConfigResponseEE4BindENS_8functionIFvNS4_ISF_EEEEEEUlS7_E_S8_EEEEvPKNS0_16__policy_storageEOS7_ = comdat any

$_ZNSt3__110__function8__policy13__large_cloneINS0_20__default_alloc_funcIZN8perfetto3ipc8DeferredINS4_6protos3gen25ChangeTraceConfigResponseEE4BindENS_8functionIFvNS5_11AsyncResultIS9_EEEEEEUlNSC_IN9protozero13CppMessageObjEEEE_FvSI_EEEEEPvPKv = comdat any

$_ZNSt3__110__function8__policy15__large_destroyINS0_20__default_alloc_funcIZN8perfetto3ipc8DeferredINS4_6protos3gen25ChangeTraceConfigResponseEE4BindENS_8functionIFvNS5_11AsyncResultIS9_EEEEEEUlNSC_IN9protozero13CppMessageObjEEEE_FvSI_EEEEEvPv = comdat any

$_ZNSt3__110__function16__policy_invokerIFvN8perfetto3ipc11AsyncResultINS2_6protos3gen20StartTracingResponseEEEEE12__call_emptyEPKNS0_16__policy_storageEOS8_ = comdat any

$_ZNSt3__110__function16__policy_invokerIFvN8perfetto3ipc11AsyncResultIN9protozero13CppMessageObjEEEEE11__call_implINS0_20__default_alloc_funcIZNS3_8DeferredINS2_6protos3gen20StartTracingResponseEE4BindENS_8functionIFvNS4_ISF_EEEEEEUlS7_E_S8_EEEEvPKNS0_16__policy_storageEOS7_ = comdat any

$_ZNSt3__110__function8__policy13__large_cloneINS0_20__default_alloc_funcIZN8perfetto3ipc8DeferredINS4_6protos3gen20StartTracingResponseEE4BindENS_8functionIFvNS5_11AsyncResultIS9_EEEEEEUlNSC_IN9protozero13CppMessageObjEEEE_FvSI_EEEEEPvPKv = comdat any

$_ZNSt3__110__function8__policy15__large_destroyINS0_20__default_alloc_funcIZN8perfetto3ipc8DeferredINS4_6protos3gen20StartTracingResponseEE4BindENS_8functionIFvNS5_11AsyncResultIS9_EEEEEEUlNSC_IN9protozero13CppMessageObjEEEE_FvSI_EEEEEvPv = comdat any

$_ZNSt3__110__function16__policy_invokerIFvN8perfetto3ipc11AsyncResultINS2_6protos3gen22DisableTracingResponseEEEEE12__call_emptyEPKNS0_16__policy_storageEOS8_ = comdat any

$_ZNSt3__110__function16__policy_invokerIFvN8perfetto3ipc11AsyncResultIN9protozero13CppMessageObjEEEEE11__call_implINS0_20__default_alloc_funcIZNS3_8DeferredINS2_6protos3gen22DisableTracingResponseEE4BindENS_8functionIFvNS4_ISF_EEEEEEUlS7_E_S8_EEEEvPKNS0_16__policy_storageEOS7_ = comdat any

$_ZNSt3__110__function8__policy13__large_cloneINS0_20__default_alloc_funcIZN8perfetto3ipc8DeferredINS4_6protos3gen22DisableTracingResponseEE4BindENS_8functionIFvNS5_11AsyncResultIS9_EEEEEEUlNSC_IN9protozero13CppMessageObjEEEE_FvSI_EEEEEPvPKv = comdat any

$_ZNSt3__110__function8__policy15__large_destroyINS0_20__default_alloc_funcIZN8perfetto3ipc8DeferredINS4_6protos3gen22DisableTracingResponseEE4BindENS_8functionIFvNS5_11AsyncResultIS9_EEEEEEUlNSC_IN9protozero13CppMessageObjEEEE_FvSI_EEEEEvPv = comdat any

$_ZNSt3__110__function16__policy_invokerIFvN8perfetto3ipc11AsyncResultINS2_6protos3gen19ReadBuffersResponseEEEEE12__call_emptyEPKNS0_16__policy_storageEOS8_ = comdat any

$_ZNSt3__110__function16__policy_invokerIFvN8perfetto3ipc11AsyncResultIN9protozero13CppMessageObjEEEEE11__call_implINS0_20__default_alloc_funcIZNS3_8DeferredINS2_6protos3gen19ReadBuffersResponseEE4BindENS_8functionIFvNS4_ISF_EEEEEEUlS7_E_S8_EEEEvPKNS0_16__policy_storageEOS7_ = comdat any

$_ZNSt3__110__function8__policy13__large_cloneINS0_20__default_alloc_funcIZN8perfetto3ipc8DeferredINS4_6protos3gen19ReadBuffersResponseEE4BindENS_8functionIFvNS5_11AsyncResultIS9_EEEEEEUlNSC_IN9protozero13CppMessageObjEEEE_FvSI_EEEEEPvPKv = comdat any

$_ZNSt3__110__function8__policy15__large_destroyINS0_20__default_alloc_funcIZN8perfetto3ipc8DeferredINS4_6protos3gen19ReadBuffersResponseEE4BindENS_8functionIFvNS5_11AsyncResultIS9_EEEEEEUlNSC_IN9protozero13CppMessageObjEEEE_FvSI_EEEEEvPv = comdat any

$_ZNSt3__16vectorIN8perfetto11TracePacketENS_9allocatorIS2_EEE24__emplace_back_slow_pathIJS2_EEEvDpOT_ = comdat any

$_ZNSt3__110__function16__policy_invokerIFvN8perfetto3ipc11AsyncResultINS2_6protos3gen19FreeBuffersResponseEEEEE12__call_emptyEPKNS0_16__policy_storageEOS8_ = comdat any

$_ZNSt3__110__function16__policy_invokerIFvN8perfetto3ipc11AsyncResultIN9protozero13CppMessageObjEEEEE11__call_implINS0_20__default_alloc_funcIZNS3_8DeferredINS2_6protos3gen19FreeBuffersResponseEE4BindENS_8functionIFvNS4_ISF_EEEEEEUlS7_E_S8_EEEEvPKNS0_16__policy_storageEOS7_ = comdat any

$_ZNSt3__110__function8__policy13__large_cloneINS0_20__default_alloc_funcIZN8perfetto3ipc8DeferredINS4_6protos3gen19FreeBuffersResponseEE4BindENS_8functionIFvNS5_11AsyncResultIS9_EEEEEEUlNSC_IN9protozero13CppMessageObjEEEE_FvSI_EEEEEPvPKv = comdat any

$_ZNSt3__110__function8__policy15__large_destroyINS0_20__default_alloc_funcIZN8perfetto3ipc8DeferredINS4_6protos3gen19FreeBuffersResponseEE4BindENS_8functionIFvNS5_11AsyncResultIS9_EEEEEEUlNSC_IN9protozero13CppMessageObjEEEE_FvSI_EEEEEvPv = comdat any

$_ZNSt3__110__function16__policy_invokerIFvN8perfetto3ipc11AsyncResultINS2_6protos3gen13FlushResponseEEEEE12__call_emptyEPKNS0_16__policy_storageEOS8_ = comdat any

$_ZNSt3__110__function16__policy_invokerIFvN8perfetto3ipc11AsyncResultIN9protozero13CppMessageObjEEEEE11__call_implINS0_20__default_alloc_funcIZNS3_8DeferredINS2_6protos3gen13FlushResponseEE4BindENS_8functionIFvNS4_ISF_EEEEEEUlS7_E_S8_EEEEvPKNS0_16__policy_storageEOS7_ = comdat any

$_ZNSt3__110__function8__policy13__large_cloneINS0_20__default_alloc_funcIZN8perfetto3ipc8DeferredINS4_6protos3gen13FlushResponseEE4BindENS_8functionIFvNS5_11AsyncResultIS9_EEEEEEUlNSC_IN9protozero13CppMessageObjEEEE_FvSI_EEEEEPvPKv = comdat any

$_ZNSt3__110__function8__policy15__large_destroyINS0_20__default_alloc_funcIZN8perfetto3ipc8DeferredINS4_6protos3gen13FlushResponseEE4BindENS_8functionIFvNS5_11AsyncResultIS9_EEEEEEUlNSC_IN9protozero13CppMessageObjEEEE_FvSI_EEEEEvPv = comdat any

$_ZNSt3__110__function16__policy_invokerIFvN8perfetto3ipc11AsyncResultINS2_6protos3gen14DetachResponseEEEEE12__call_emptyEPKNS0_16__policy_storageEOS8_ = comdat any

$_ZNSt3__110__function16__policy_invokerIFvN8perfetto3ipc11AsyncResultIN9protozero13CppMessageObjEEEEE11__call_implINS0_20__default_alloc_funcIZNS3_8DeferredINS2_6protos3gen14DetachResponseEE4BindENS_8functionIFvNS4_ISF_EEEEEEUlS7_E_S8_EEEEvPKNS0_16__policy_storageEOS7_ = comdat any

$_ZNSt3__110__function8__policy13__large_cloneINS0_20__default_alloc_funcIZN8perfetto3ipc8DeferredINS4_6protos3gen14DetachResponseEE4BindENS_8functionIFvNS5_11AsyncResultIS9_EEEEEEUlNSC_IN9protozero13CppMessageObjEEEE_FvSI_EEEEEPvPKv = comdat any

$_ZNSt3__110__function8__policy15__large_destroyINS0_20__default_alloc_funcIZN8perfetto3ipc8DeferredINS4_6protos3gen14DetachResponseEE4BindENS_8functionIFvNS5_11AsyncResultIS9_EEEEEEUlNSC_IN9protozero13CppMessageObjEEEE_FvSI_EEEEEvPv = comdat any

$_ZNSt3__110__function16__policy_invokerIFvN8perfetto3ipc11AsyncResultINS2_6protos3gen14AttachResponseEEEEE12__call_emptyEPKNS0_16__policy_storageEOS8_ = comdat any

$_ZNSt3__110__function16__policy_invokerIFvN8perfetto3ipc11AsyncResultIN9protozero13CppMessageObjEEEEE11__call_implINS0_20__default_alloc_funcIZNS3_8DeferredINS2_6protos3gen14AttachResponseEE4BindENS_8functionIFvNS4_ISF_EEEEEEUlS7_E_S8_EEEEvPKNS0_16__policy_storageEOS7_ = comdat any

$_ZNSt3__110__function8__policy13__large_cloneINS0_20__default_alloc_funcIZN8perfetto3ipc8DeferredINS4_6protos3gen14AttachResponseEE4BindENS_8functionIFvNS5_11AsyncResultIS9_EEEEEEUlNSC_IN9protozero13CppMessageObjEEEE_FvSI_EEEEEPvPKv = comdat any

$_ZNSt3__110__function8__policy15__large_destroyINS0_20__default_alloc_funcIZN8perfetto3ipc8DeferredINS4_6protos3gen14AttachResponseEE4BindENS_8functionIFvNS5_11AsyncResultIS9_EEEEEEUlNSC_IN9protozero13CppMessageObjEEEE_FvSI_EEEEEvPv = comdat any

$_ZNSt3__110__function16__policy_invokerIFvN8perfetto3ipc11AsyncResultINS2_6protos3gen21GetTraceStatsResponseEEEEE12__call_emptyEPKNS0_16__policy_storageEOS8_ = comdat any

$_ZNSt3__110__function16__policy_invokerIFvN8perfetto3ipc11AsyncResultIN9protozero13CppMessageObjEEEEE11__call_implINS0_20__default_alloc_funcIZNS3_8DeferredINS2_6protos3gen21GetTraceStatsResponseEE4BindENS_8functionIFvNS4_ISF_EEEEEEUlS7_E_S8_EEEEvPKNS0_16__policy_storageEOS7_ = comdat any

$_ZNSt3__110__function8__policy13__large_cloneINS0_20__default_alloc_funcIZN8perfetto3ipc8DeferredINS4_6protos3gen21GetTraceStatsResponseEE4BindENS_8functionIFvNS5_11AsyncResultIS9_EEEEEEUlNSC_IN9protozero13CppMessageObjEEEE_FvSI_EEEEEPvPKv = comdat any

$_ZNSt3__110__function8__policy15__large_destroyINS0_20__default_alloc_funcIZN8perfetto3ipc8DeferredINS4_6protos3gen21GetTraceStatsResponseEE4BindENS_8functionIFvNS5_11AsyncResultIS9_EEEEEEUlNSC_IN9protozero13CppMessageObjEEEE_FvSI_EEEEEvPv = comdat any

$_ZNSt3__110__function16__policy_invokerIFvN8perfetto3ipc11AsyncResultINS2_6protos3gen21ObserveEventsResponseEEEEE12__call_emptyEPKNS0_16__policy_storageEOS8_ = comdat any

$_ZNSt3__110__function16__policy_invokerIFvN8perfetto3ipc11AsyncResultIN9protozero13CppMessageObjEEEEE11__call_implINS0_20__default_alloc_funcIZNS3_8DeferredINS2_6protos3gen21ObserveEventsResponseEE4BindENS_8functionIFvNS4_ISF_EEEEEEUlS7_E_S8_EEEEvPKNS0_16__policy_storageEOS7_ = comdat any

$_ZNSt3__110__function8__policy13__large_cloneINS0_20__default_alloc_funcIZN8perfetto3ipc8DeferredINS4_6protos3gen21ObserveEventsResponseEE4BindENS_8functionIFvNS5_11AsyncResultIS9_EEEEEEUlNSC_IN9protozero13CppMessageObjEEEE_FvSI_EEEEEPvPKv = comdat any

$_ZNSt3__110__function8__policy15__large_destroyINS0_20__default_alloc_funcIZN8perfetto3ipc8DeferredINS4_6protos3gen21ObserveEventsResponseEE4BindENS_8functionIFvNS5_11AsyncResultIS9_EEEEEEUlNSC_IN9protozero13CppMessageObjEEEE_FvSI_EEEEEvPv = comdat any

$_ZNSt3__110__function16__policy_invokerIFvbRKN8perfetto6protos3gen19TracingServiceStateEEE12__call_emptyEPKNS0_16__policy_storageEbS7_ = comdat any

$_ZNSt3__110__function16__policy_invokerIFvN8perfetto3ipc11AsyncResultINS2_6protos3gen25QueryServiceStateResponseEEEEE12__call_emptyEPKNS0_16__policy_storageEOS8_ = comdat any

$_ZNSt3__110__function16__policy_invokerIFvN8perfetto3ipc11AsyncResultIN9protozero13CppMessageObjEEEEE11__call_implINS0_20__default_alloc_funcIZNS3_8DeferredINS2_6protos3gen25QueryServiceStateResponseEE4BindENS_8functionIFvNS4_ISF_EEEEEEUlS7_E_S8_EEEEvPKNS0_16__policy_storageEOS7_ = comdat any

$_ZNSt3__110__function8__policy13__large_cloneINS0_20__default_alloc_funcIZN8perfetto3ipc8DeferredINS4_6protos3gen25QueryServiceStateResponseEE4BindENS_8functionIFvNS5_11AsyncResultIS9_EEEEEEUlNSC_IN9protozero13CppMessageObjEEEE_FvSI_EEEEEPvPKv = comdat any

$_ZNSt3__110__function8__policy15__large_destroyINS0_20__default_alloc_funcIZN8perfetto3ipc8DeferredINS4_6protos3gen25QueryServiceStateResponseEE4BindENS_8functionIFvNS5_11AsyncResultIS9_EEEEEEUlNSC_IN9protozero13CppMessageObjEEEE_FvSI_EEEEEvPv = comdat any

$_ZNSt3__110__function16__policy_invokerIFvN8perfetto3ipc11AsyncResultINS2_6protos3gen25QueryCapabilitiesResponseEEEEE12__call_emptyEPKNS0_16__policy_storageEOS8_ = comdat any

$_ZNSt3__110__function16__policy_invokerIFvN8perfetto3ipc11AsyncResultIN9protozero13CppMessageObjEEEEE11__call_implINS0_20__default_alloc_funcIZNS3_8DeferredINS2_6protos3gen25QueryCapabilitiesResponseEE4BindENS_8functionIFvNS4_ISF_EEEEEEUlS7_E_S8_EEEEvPKNS0_16__policy_storageEOS7_ = comdat any

$_ZNSt3__110__function8__policy13__large_cloneINS0_20__default_alloc_funcIZN8perfetto3ipc8DeferredINS4_6protos3gen25QueryCapabilitiesResponseEE4BindENS_8functionIFvNS5_11AsyncResultIS9_EEEEEEUlNSC_IN9protozero13CppMessageObjEEEE_FvSI_EEEEEPvPKv = comdat any

$_ZNSt3__110__function8__policy15__large_destroyINS0_20__default_alloc_funcIZN8perfetto3ipc8DeferredINS4_6protos3gen25QueryCapabilitiesResponseEE4BindENS_8functionIFvNS5_11AsyncResultIS9_EEEEEEUlNSC_IN9protozero13CppMessageObjEEEE_FvSI_EEEEEvPv = comdat any

$_ZNSt3__110__function16__policy_invokerIFvN8perfetto3ipc11AsyncResultINS2_6protos3gen29SaveTraceForBugreportResponseEEEEE12__call_emptyEPKNS0_16__policy_storageEOS8_ = comdat any

$_ZNSt3__110__function16__policy_invokerIFvN8perfetto3ipc11AsyncResultIN9protozero13CppMessageObjEEEEE11__call_implINS0_20__default_alloc_funcIZNS3_8DeferredINS2_6protos3gen29SaveTraceForBugreportResponseEE4BindENS_8functionIFvNS4_ISF_EEEEEEUlS7_E_S8_EEEEvPKNS0_16__policy_storageEOS7_ = comdat any

$_ZNSt3__110__function8__policy13__large_cloneINS0_20__default_alloc_funcIZN8perfetto3ipc8DeferredINS4_6protos3gen29SaveTraceForBugreportResponseEE4BindENS_8functionIFvNS5_11AsyncResultIS9_EEEEEEUlNSC_IN9protozero13CppMessageObjEEEE_FvSI_EEEEEPvPKv = comdat any

$_ZNSt3__110__function8__policy15__large_destroyINS0_20__default_alloc_funcIZN8perfetto3ipc8DeferredINS4_6protos3gen29SaveTraceForBugreportResponseEE4BindENS_8functionIFvNS5_11AsyncResultIS9_EEEEEEUlNSC_IN9protozero13CppMessageObjEEEE_FvSI_EEEEEvPv = comdat any

$_ZTVNSt3__120__shared_ptr_pointerIPPN8perfetto21ConsumerIPCClientImplENS_10shared_ptrIS3_E27__shared_ptr_default_deleteIS3_S3_EENS_9allocatorIS3_EEEE = comdat any

$_ZZNSt3__110__function8__policy14__create_emptyEvE9__policy_ = comdat any

$_ZZNSt3__110__function8__policy15__choose_policyINS0_20__default_alloc_funcIZN8perfetto3ipc8DeferredINS4_6protos3gen21EnableTracingResponseEE4BindENS_8functionIFvNS5_11AsyncResultIS9_EEEEEEUlNSC_IN9protozero13CppMessageObjEEEE_FvSI_EEEEEPKS1_NS_17integral_constantIbLb0EEEE9__policy_ = comdat any

$_ZZNSt3__110__function8__policy15__choose_policyINS0_20__default_alloc_funcIZN8perfetto3ipc8DeferredINS4_6protos3gen25ChangeTraceConfigResponseEE4BindENS_8functionIFvNS5_11AsyncResultIS9_EEEEEEUlNSC_IN9protozero13CppMessageObjEEEE_FvSI_EEEEEPKS1_NS_17integral_constantIbLb0EEEE9__policy_ = comdat any

$_ZZNSt3__110__function8__policy15__choose_policyINS0_20__default_alloc_funcIZN8perfetto3ipc8DeferredINS4_6protos3gen20StartTracingResponseEE4BindENS_8functionIFvNS5_11AsyncResultIS9_EEEEEEUlNSC_IN9protozero13CppMessageObjEEEE_FvSI_EEEEEPKS1_NS_17integral_constantIbLb0EEEE9__policy_ = comdat any

$_ZZNSt3__110__function8__policy15__choose_policyINS0_20__default_alloc_funcIZN8perfetto3ipc8DeferredINS4_6protos3gen22DisableTracingResponseEE4BindENS_8functionIFvNS5_11AsyncResultIS9_EEEEEEUlNSC_IN9protozero13CppMessageObjEEEE_FvSI_EEEEEPKS1_NS_17integral_constantIbLb0EEEE9__policy_ = comdat any

$_ZZNSt3__110__function8__policy15__choose_policyINS0_20__default_alloc_funcIZN8perfetto3ipc8DeferredINS4_6protos3gen19ReadBuffersResponseEE4BindENS_8functionIFvNS5_11AsyncResultIS9_EEEEEEUlNSC_IN9protozero13CppMessageObjEEEE_FvSI_EEEEEPKS1_NS_17integral_constantIbLb0EEEE9__policy_ = comdat any

$_ZZNSt3__110__function8__policy15__choose_policyINS0_20__default_alloc_funcIZN8perfetto3ipc8DeferredINS4_6protos3gen19FreeBuffersResponseEE4BindENS_8functionIFvNS5_11AsyncResultIS9_EEEEEEUlNSC_IN9protozero13CppMessageObjEEEE_FvSI_EEEEEPKS1_NS_17integral_constantIbLb0EEEE9__policy_ = comdat any

$_ZZNSt3__110__function8__policy15__choose_policyINS0_20__default_alloc_funcIZN8perfetto3ipc8DeferredINS4_6protos3gen13FlushResponseEE4BindENS_8functionIFvNS5_11AsyncResultIS9_EEEEEEUlNSC_IN9protozero13CppMessageObjEEEE_FvSI_EEEEEPKS1_NS_17integral_constantIbLb0EEEE9__policy_ = comdat any

$_ZZNSt3__110__function8__policy15__choose_policyINS0_20__default_alloc_funcIZN8perfetto3ipc8DeferredINS4_6protos3gen14DetachResponseEE4BindENS_8functionIFvNS5_11AsyncResultIS9_EEEEEEUlNSC_IN9protozero13CppMessageObjEEEE_FvSI_EEEEEPKS1_NS_17integral_constantIbLb0EEEE9__policy_ = comdat any

$_ZZNSt3__110__function8__policy15__choose_policyINS0_20__default_alloc_funcIZN8perfetto3ipc8DeferredINS4_6protos3gen14AttachResponseEE4BindENS_8functionIFvNS5_11AsyncResultIS9_EEEEEEUlNSC_IN9protozero13CppMessageObjEEEE_FvSI_EEEEEPKS1_NS_17integral_constantIbLb0EEEE9__policy_ = comdat any

$_ZZNSt3__110__function8__policy15__choose_policyINS0_20__default_alloc_funcIZN8perfetto3ipc8DeferredINS4_6protos3gen21GetTraceStatsResponseEE4BindENS_8functionIFvNS5_11AsyncResultIS9_EEEEEEUlNSC_IN9protozero13CppMessageObjEEEE_FvSI_EEEEEPKS1_NS_17integral_constantIbLb0EEEE9__policy_ = comdat any

$_ZZNSt3__110__function8__policy15__choose_policyINS0_20__default_alloc_funcIZN8perfetto3ipc8DeferredINS4_6protos3gen21ObserveEventsResponseEE4BindENS_8functionIFvNS5_11AsyncResultIS9_EEEEEEUlNSC_IN9protozero13CppMessageObjEEEE_FvSI_EEEEEPKS1_NS_17integral_constantIbLb0EEEE9__policy_ = comdat any

$_ZZNSt3__110__function8__policy15__choose_policyINS0_20__default_alloc_funcIZN8perfetto3ipc8DeferredINS4_6protos3gen25QueryServiceStateResponseEE4BindENS_8functionIFvNS5_11AsyncResultIS9_EEEEEEUlNSC_IN9protozero13CppMessageObjEEEE_FvSI_EEEEEPKS1_NS_17integral_constantIbLb0EEEE9__policy_ = comdat any

$_ZZNSt3__110__function8__policy15__choose_policyINS0_20__default_alloc_funcIZN8perfetto3ipc8DeferredINS4_6protos3gen25QueryCapabilitiesResponseEE4BindENS_8functionIFvNS5_11AsyncResultIS9_EEEEEEUlNSC_IN9protozero13CppMessageObjEEEE_FvSI_EEEEEPKS1_NS_17integral_constantIbLb0EEEE9__policy_ = comdat any

$_ZZNSt3__110__function8__policy15__choose_policyINS0_20__default_alloc_funcIZN8perfetto3ipc8DeferredINS4_6protos3gen29SaveTraceForBugreportResponseEE4BindENS_8functionIFvNS5_11AsyncResultIS9_EEEEEEUlNSC_IN9protozero13CppMessageObjEEEE_FvSI_EEEEEPKS1_NS_17integral_constantIbLb0EEEE9__policy_ = comdat any

@_ZTVN8perfetto21ConsumerIPCClientImplE = hidden unnamed_addr constant { [20 x i8*], [6 x i8*] } { [20 x i8*] [i8* null, i8* null, i8* bitcast (void (%"class.perfetto::ConsumerIPCClientImpl"*)* @_ZN8perfetto21ConsumerIPCClientImplD2Ev to i8*), i8* bitcast (void (%"class.perfetto::ConsumerIPCClientImpl"*)* @_ZN8perfetto21ConsumerIPCClientImplD0Ev to i8*), i8* bitcast (void (%"class.perfetto::ConsumerIPCClientImpl"*, %"class.perfetto::protos::gen::TraceConfig"*, %"class.perfetto::base::ScopedResource"*)* @_ZN8perfetto21ConsumerIPCClientImpl13EnableTracingERKNS_6protos3gen11TraceConfigENS_4base14ScopedResourceIiXadL_ZNS6_9CloseFileEiEELin1ELb1ENS6_8internal22DefaultValidityCheckerIiLin1EEEEE to i8*), i8* bitcast (void (%"class.perfetto::ConsumerIPCClientImpl"*, %"class.perfetto::protos::gen::TraceConfig"*)* @_ZN8perfetto21ConsumerIPCClientImpl17ChangeTraceConfigERKNS_6protos3gen11TraceConfigE to i8*), i8* bitcast (void (%"class.perfetto::ConsumerIPCClientImpl"*)* @_ZN8perfetto21ConsumerIPCClientImpl12StartTracingEv to i8*), i8* bitcast (void (%"class.perfetto::ConsumerIPCClientImpl"*)* @_ZN8perfetto21ConsumerIPCClientImpl14DisableTracingEv to i8*), i8* bitcast (void (%"class.perfetto::ConsumerIPCClientImpl"*, i32, %"class.std::__1::function.276"*)* @_ZN8perfetto21ConsumerIPCClientImpl5FlushEjNSt3__18functionIFvbEEE to i8*), i8* bitcast (void (%"class.perfetto::ConsumerIPCClientImpl"*)* @_ZN8perfetto21ConsumerIPCClientImpl11ReadBuffersEv to i8*), i8* bitcast (void (%"class.perfetto::ConsumerIPCClientImpl"*)* @_ZN8perfetto21ConsumerIPCClientImpl11FreeBuffersEv to i8*), i8* bitcast (void (%"class.perfetto::ConsumerIPCClientImpl"*, %"class.std::__1::basic_string"*)* @_ZN8perfetto21ConsumerIPCClientImpl6DetachERKNSt3__112basic_stringIcNS1_11char_traitsIcEENS1_9allocatorIcEEEE to i8*), i8* bitcast (void (%"class.perfetto::ConsumerIPCClientImpl"*, %"class.std::__1::basic_string"*)* @_ZN8perfetto21ConsumerIPCClientImpl6AttachERKNSt3__112basic_stringIcNS1_11char_traitsIcEENS1_9allocatorIcEEEE to i8*), i8* bitcast (void (%"class.perfetto::ConsumerIPCClientImpl"*)* @_ZN8perfetto21ConsumerIPCClientImpl13GetTraceStatsEv to i8*), i8* bitcast (void (%"class.perfetto::ConsumerIPCClientImpl"*, i32)* @_ZN8perfetto21ConsumerIPCClientImpl13ObserveEventsEj to i8*), i8* bitcast (void (%"class.perfetto::ConsumerIPCClientImpl"*, %"class.std::__1::function.403"*)* @_ZN8perfetto21ConsumerIPCClientImpl17QueryServiceStateENSt3__18functionIFvbRKNS_6protos3gen19TracingServiceStateEEEE to i8*), i8* bitcast (void (%"class.perfetto::ConsumerIPCClientImpl"*, %"class.std::__1::function.460"*)* @_ZN8perfetto21ConsumerIPCClientImpl17QueryCapabilitiesENSt3__18functionIFvRKNS_6protos3gen26TracingServiceCapabilitiesEEEE to i8*), i8* bitcast (void (%"class.perfetto::ConsumerIPCClientImpl"*, %"class.std::__1::function.488"*)* @_ZN8perfetto21ConsumerIPCClientImpl21SaveTraceForBugreportENSt3__18functionIFvbRKNS1_12basic_stringIcNS1_11char_traitsIcEENS1_9allocatorIcEEEEEEE to i8*), i8* bitcast (void (%"class.perfetto::ConsumerIPCClientImpl"*)* @_ZN8perfetto21ConsumerIPCClientImpl9OnConnectEv to i8*), i8* bitcast (void (%"class.perfetto::ConsumerIPCClientImpl"*)* @_ZN8perfetto21ConsumerIPCClientImpl12OnDisconnectEv to i8*)], [6 x i8*] [i8* inttoptr (i64 -8 to i8*), i8* null, i8* bitcast (void (%"class.perfetto::ConsumerIPCClientImpl"*)* @_ZThn8_N8perfetto21ConsumerIPCClientImplD1Ev to i8*), i8* bitcast (void (%"class.perfetto::ConsumerIPCClientImpl"*)* @_ZThn8_N8perfetto21ConsumerIPCClientImplD0Ev to i8*), i8* bitcast (void (%"class.perfetto::ConsumerIPCClientImpl"*)* @_ZThn8_N8perfetto21ConsumerIPCClientImpl9OnConnectEv to i8*), i8* bitcast (void (%"class.perfetto::ConsumerIPCClientImpl"*)* @_ZThn8_N8perfetto21ConsumerIPCClientImpl12OnDisconnectEv to i8*)] }, align 8
@.str.7 = private unnamed_addr constant [90 x i8] c"EnableTracing IPC request rejected. This is likely due to a loss of the traced connection\00", align 1
@.str.15 = private unnamed_addr constant [80 x i8] c"../../third_party/perfetto/src/tracing/ipc/consumer/consumer_ipc_client_impl.cc\00", align 1
@.str.16 = private unnamed_addr constant [50 x i8] c"Failed to decode merged QueryServiceStateResponse\00", align 1
@.str.19 = private unnamed_addr constant [67 x i8] c"../../third_party/perfetto/include/perfetto/ext/base/scoped_file.h\00", align 1
@.str.20 = private unnamed_addr constant [19 x i8] c"%s (errno: %d, %s)\00", align 1
@.str.21 = private unnamed_addr constant [25 x i8] c"PERFETTO_CHECK(res == 0)\00", align 1
@_ZTVNSt3__120__shared_ptr_pointerIPPN8perfetto21ConsumerIPCClientImplENS_10shared_ptrIS3_E27__shared_ptr_default_deleteIS3_S3_EENS_9allocatorIS3_EEEE = linkonce_odr hidden unnamed_addr constant { [7 x i8*] } { [7 x i8*] [i8* null, i8* null, i8* bitcast (void (%"class.std::__1::__shared_weak_count"*)* @_ZNSt3__119__shared_weak_countD2Ev to i8*), i8* bitcast (void (%"class.std::__1::__shared_ptr_pointer"*)* @_ZNSt3__120__shared_ptr_pointerIPPN8perfetto21ConsumerIPCClientImplENS_10shared_ptrIS3_E27__shared_ptr_default_deleteIS3_S3_EENS_9allocatorIS3_EEED0Ev to i8*), i8* bitcast (void (%"class.std::__1::__shared_ptr_pointer"*)* @_ZNSt3__120__shared_ptr_pointerIPPN8perfetto21ConsumerIPCClientImplENS_10shared_ptrIS3_E27__shared_ptr_default_deleteIS3_S3_EENS_9allocatorIS3_EEE16__on_zero_sharedEv to i8*), i8* bitcast (i8* (%"class.std::__1::__shared_weak_count"*, %"class.std::type_info"*)* @_ZNKSt3__119__shared_weak_count13__get_deleterERKSt9type_info to i8*), i8* bitcast (void (%"class.std::__1::__shared_ptr_pointer"*)* @_ZNSt3__120__shared_ptr_pointerIPPN8perfetto21ConsumerIPCClientImplENS_10shared_ptrIS3_E27__shared_ptr_default_deleteIS3_S3_EENS_9allocatorIS3_EEE21__on_zero_shared_weakEv to i8*)] }, comdat, align 8
@_ZZNSt3__110__function8__policy14__create_emptyEvE9__policy_ = linkonce_odr hidden constant %"struct.std::__1::__function::__policy" { i8* (i8*)* null, void (i8*)* null, i8 1, %"class.std::type_info"* null }, comdat, align 8
@_ZZNSt3__110__function8__policy15__choose_policyINS0_20__default_alloc_funcIZN8perfetto3ipc8DeferredINS4_6protos3gen21EnableTracingResponseEE4BindENS_8functionIFvNS5_11AsyncResultIS9_EEEEEEUlNSC_IN9protozero13CppMessageObjEEEE_FvSI_EEEEEPKS1_NS_17integral_constantIbLb0EEEE9__policy_ = linkonce_odr hidden constant %"struct.std::__1::__function::__policy" { i8* (i8*)* @_ZNSt3__110__function8__policy13__large_cloneINS0_20__default_alloc_funcIZN8perfetto3ipc8DeferredINS4_6protos3gen21EnableTracingResponseEE4BindENS_8functionIFvNS5_11AsyncResultIS9_EEEEEEUlNSC_IN9protozero13CppMessageObjEEEE_FvSI_EEEEEPvPKv, void (i8*)* @_ZNSt3__110__function8__policy15__large_destroyINS0_20__default_alloc_funcIZN8perfetto3ipc8DeferredINS4_6protos3gen21EnableTracingResponseEE4BindENS_8functionIFvNS5_11AsyncResultIS9_EEEEEEUlNSC_IN9protozero13CppMessageObjEEEE_FvSI_EEEEEvPv, i8 0, %"class.std::type_info"* null }, comdat, align 8
@"_ZZNSt3__110__function8__policy15__choose_policyINS0_20__default_alloc_funcIZN8perfetto21ConsumerIPCClientImpl13EnableTracingERKNS4_6protos3gen11TraceConfigENS4_4base14ScopedResourceIiXadL_ZNSB_9CloseFileEiEELin1ELb1ENSB_8internal22DefaultValidityCheckerIiLin1EEEEEE3$_0FvNS4_3ipc11AsyncResultINS7_21EnableTracingResponseEEEEEEEEPKS1_NS_17integral_constantIbLb0EEEE9__policy_" = internal constant %"struct.std::__1::__function::__policy" { i8* (i8*)* @"_ZNSt3__110__function8__policy13__large_cloneINS0_20__default_alloc_funcIZN8perfetto21ConsumerIPCClientImpl13EnableTracingERKNS4_6protos3gen11TraceConfigENS4_4base14ScopedResourceIiXadL_ZNSB_9CloseFileEiEELin1ELb1ENSB_8internal22DefaultValidityCheckerIiLin1EEEEEE3$_0FvNS4_3ipc11AsyncResultINS7_21EnableTracingResponseEEEEEEEEPvPKv", void (i8*)* @"_ZNSt3__110__function8__policy15__large_destroyINS0_20__default_alloc_funcIZN8perfetto21ConsumerIPCClientImpl13EnableTracingERKNS4_6protos3gen11TraceConfigENS4_4base14ScopedResourceIiXadL_ZNSB_9CloseFileEiEELin1ELb1ENSB_8internal22DefaultValidityCheckerIiLin1EEEEEE3$_0FvNS4_3ipc11AsyncResultINS7_21EnableTracingResponseEEEEEEEEvPv", i8 0, %"class.std::type_info"* null }, align 8
@_ZZNSt3__110__function8__policy15__choose_policyINS0_20__default_alloc_funcIZN8perfetto3ipc8DeferredINS4_6protos3gen25ChangeTraceConfigResponseEE4BindENS_8functionIFvNS5_11AsyncResultIS9_EEEEEEUlNSC_IN9protozero13CppMessageObjEEEE_FvSI_EEEEEPKS1_NS_17integral_constantIbLb0EEEE9__policy_ = linkonce_odr hidden constant %"struct.std::__1::__function::__policy" { i8* (i8*)* @_ZNSt3__110__function8__policy13__large_cloneINS0_20__default_alloc_funcIZN8perfetto3ipc8DeferredINS4_6protos3gen25ChangeTraceConfigResponseEE4BindENS_8functionIFvNS5_11AsyncResultIS9_EEEEEEUlNSC_IN9protozero13CppMessageObjEEEE_FvSI_EEEEEPvPKv, void (i8*)* @_ZNSt3__110__function8__policy15__large_destroyINS0_20__default_alloc_funcIZN8perfetto3ipc8DeferredINS4_6protos3gen25ChangeTraceConfigResponseEE4BindENS_8functionIFvNS5_11AsyncResultIS9_EEEEEEUlNSC_IN9protozero13CppMessageObjEEEE_FvSI_EEEEEvPv, i8 0, %"class.std::type_info"* null }, comdat, align 8
@"_ZZNSt3__110__function8__policy15__choose_policyINS0_20__default_alloc_funcIZN8perfetto21ConsumerIPCClientImpl17ChangeTraceConfigERKNS4_6protos3gen11TraceConfigEE3$_1FvNS4_3ipc11AsyncResultINS7_25ChangeTraceConfigResponseEEEEEEEEPKS1_NS_17integral_constantIbLb1EEEE9__policy_" = internal constant %"struct.std::__1::__function::__policy" zeroinitializer, align 8
@_ZZNSt3__110__function8__policy15__choose_policyINS0_20__default_alloc_funcIZN8perfetto3ipc8DeferredINS4_6protos3gen20StartTracingResponseEE4BindENS_8functionIFvNS5_11AsyncResultIS9_EEEEEEUlNSC_IN9protozero13CppMessageObjEEEE_FvSI_EEEEEPKS1_NS_17integral_constantIbLb0EEEE9__policy_ = linkonce_odr hidden constant %"struct.std::__1::__function::__policy" { i8* (i8*)* @_ZNSt3__110__function8__policy13__large_cloneINS0_20__default_alloc_funcIZN8perfetto3ipc8DeferredINS4_6protos3gen20StartTracingResponseEE4BindENS_8functionIFvNS5_11AsyncResultIS9_EEEEEEUlNSC_IN9protozero13CppMessageObjEEEE_FvSI_EEEEEPvPKv, void (i8*)* @_ZNSt3__110__function8__policy15__large_destroyINS0_20__default_alloc_funcIZN8perfetto3ipc8DeferredINS4_6protos3gen20StartTracingResponseEE4BindENS_8functionIFvNS5_11AsyncResultIS9_EEEEEEUlNSC_IN9protozero13CppMessageObjEEEE_FvSI_EEEEEvPv, i8 0, %"class.std::type_info"* null }, comdat, align 8
@"_ZZNSt3__110__function8__policy15__choose_policyINS0_20__default_alloc_funcIZN8perfetto21ConsumerIPCClientImpl12StartTracingEvE3$_2FvNS4_3ipc11AsyncResultINS4_6protos3gen20StartTracingResponseEEEEEEEEPKS1_NS_17integral_constantIbLb1EEEE9__policy_" = internal constant %"struct.std::__1::__function::__policy" zeroinitializer, align 8
@_ZZNSt3__110__function8__policy15__choose_policyINS0_20__default_alloc_funcIZN8perfetto3ipc8DeferredINS4_6protos3gen22DisableTracingResponseEE4BindENS_8functionIFvNS5_11AsyncResultIS9_EEEEEEUlNSC_IN9protozero13CppMessageObjEEEE_FvSI_EEEEEPKS1_NS_17integral_constantIbLb0EEEE9__policy_ = linkonce_odr hidden constant %"struct.std::__1::__function::__policy" { i8* (i8*)* @_ZNSt3__110__function8__policy13__large_cloneINS0_20__default_alloc_funcIZN8perfetto3ipc8DeferredINS4_6protos3gen22DisableTracingResponseEE4BindENS_8functionIFvNS5_11AsyncResultIS9_EEEEEEUlNSC_IN9protozero13CppMessageObjEEEE_FvSI_EEEEEPvPKv, void (i8*)* @_ZNSt3__110__function8__policy15__large_destroyINS0_20__default_alloc_funcIZN8perfetto3ipc8DeferredINS4_6protos3gen22DisableTracingResponseEE4BindENS_8functionIFvNS5_11AsyncResultIS9_EEEEEEUlNSC_IN9protozero13CppMessageObjEEEE_FvSI_EEEEEvPv, i8 0, %"class.std::type_info"* null }, comdat, align 8
@"_ZZNSt3__110__function8__policy15__choose_policyINS0_20__default_alloc_funcIZN8perfetto21ConsumerIPCClientImpl14DisableTracingEvE3$_3FvNS4_3ipc11AsyncResultINS4_6protos3gen22DisableTracingResponseEEEEEEEEPKS1_NS_17integral_constantIbLb1EEEE9__policy_" = internal constant %"struct.std::__1::__function::__policy" zeroinitializer, align 8
@_ZZNSt3__110__function8__policy15__choose_policyINS0_20__default_alloc_funcIZN8perfetto3ipc8DeferredINS4_6protos3gen19ReadBuffersResponseEE4BindENS_8functionIFvNS5_11AsyncResultIS9_EEEEEEUlNSC_IN9protozero13CppMessageObjEEEE_FvSI_EEEEEPKS1_NS_17integral_constantIbLb0EEEE9__policy_ = linkonce_odr hidden constant %"struct.std::__1::__function::__policy" { i8* (i8*)* @_ZNSt3__110__function8__policy13__large_cloneINS0_20__default_alloc_funcIZN8perfetto3ipc8DeferredINS4_6protos3gen19ReadBuffersResponseEE4BindENS_8functionIFvNS5_11AsyncResultIS9_EEEEEEUlNSC_IN9protozero13CppMessageObjEEEE_FvSI_EEEEEPvPKv, void (i8*)* @_ZNSt3__110__function8__policy15__large_destroyINS0_20__default_alloc_funcIZN8perfetto3ipc8DeferredINS4_6protos3gen19ReadBuffersResponseEE4BindENS_8functionIFvNS5_11AsyncResultIS9_EEEEEEUlNSC_IN9protozero13CppMessageObjEEEE_FvSI_EEEEEvPv, i8 0, %"class.std::type_info"* null }, comdat, align 8
@"_ZZNSt3__110__function8__policy15__choose_policyINS0_20__default_alloc_funcIZN8perfetto21ConsumerIPCClientImpl11ReadBuffersEvE3$_4FvNS4_3ipc11AsyncResultINS4_6protos3gen19ReadBuffersResponseEEEEEEEEPKS1_NS_17integral_constantIbLb1EEEE9__policy_" = internal constant %"struct.std::__1::__function::__policy" zeroinitializer, align 8
@_ZZNSt3__110__function8__policy15__choose_policyINS0_20__default_alloc_funcIZN8perfetto3ipc8DeferredINS4_6protos3gen19FreeBuffersResponseEE4BindENS_8functionIFvNS5_11AsyncResultIS9_EEEEEEUlNSC_IN9protozero13CppMessageObjEEEE_FvSI_EEEEEPKS1_NS_17integral_constantIbLb0EEEE9__policy_ = linkonce_odr hidden constant %"struct.std::__1::__function::__policy" { i8* (i8*)* @_ZNSt3__110__function8__policy13__large_cloneINS0_20__default_alloc_funcIZN8perfetto3ipc8DeferredINS4_6protos3gen19FreeBuffersResponseEE4BindENS_8functionIFvNS5_11AsyncResultIS9_EEEEEEUlNSC_IN9protozero13CppMessageObjEEEE_FvSI_EEEEEPvPKv, void (i8*)* @_ZNSt3__110__function8__policy15__large_destroyINS0_20__default_alloc_funcIZN8perfetto3ipc8DeferredINS4_6protos3gen19FreeBuffersResponseEE4BindENS_8functionIFvNS5_11AsyncResultIS9_EEEEEEUlNSC_IN9protozero13CppMessageObjEEEE_FvSI_EEEEEvPv, i8 0, %"class.std::type_info"* null }, comdat, align 8
@"_ZZNSt3__110__function8__policy15__choose_policyINS0_20__default_alloc_funcIZN8perfetto21ConsumerIPCClientImpl11FreeBuffersEvE3$_5FvNS4_3ipc11AsyncResultINS4_6protos3gen19FreeBuffersResponseEEEEEEEEPKS1_NS_17integral_constantIbLb1EEEE9__policy_" = internal constant %"struct.std::__1::__function::__policy" zeroinitializer, align 8
@_ZZNSt3__110__function8__policy15__choose_policyINS0_20__default_alloc_funcIZN8perfetto3ipc8DeferredINS4_6protos3gen13FlushResponseEE4BindENS_8functionIFvNS5_11AsyncResultIS9_EEEEEEUlNSC_IN9protozero13CppMessageObjEEEE_FvSI_EEEEEPKS1_NS_17integral_constantIbLb0EEEE9__policy_ = linkonce_odr hidden constant %"struct.std::__1::__function::__policy" { i8* (i8*)* @_ZNSt3__110__function8__policy13__large_cloneINS0_20__default_alloc_funcIZN8perfetto3ipc8DeferredINS4_6protos3gen13FlushResponseEE4BindENS_8functionIFvNS5_11AsyncResultIS9_EEEEEEUlNSC_IN9protozero13CppMessageObjEEEE_FvSI_EEEEEPvPKv, void (i8*)* @_ZNSt3__110__function8__policy15__large_destroyINS0_20__default_alloc_funcIZN8perfetto3ipc8DeferredINS4_6protos3gen13FlushResponseEE4BindENS_8functionIFvNS5_11AsyncResultIS9_EEEEEEUlNSC_IN9protozero13CppMessageObjEEEE_FvSI_EEEEEvPv, i8 0, %"class.std::type_info"* null }, comdat, align 8
@"_ZZNSt3__110__function8__policy15__choose_policyINS0_20__default_alloc_funcIZN8perfetto21ConsumerIPCClientImpl5FlushEjNS_8functionIFvbEEEE3$_6FvNS4_3ipc11AsyncResultINS4_6protos3gen13FlushResponseEEEEEEEEPKS1_NS_17integral_constantIbLb0EEEE9__policy_" = internal constant %"struct.std::__1::__function::__policy" { i8* (i8*)* @"_ZNSt3__110__function8__policy13__large_cloneINS0_20__default_alloc_funcIZN8perfetto21ConsumerIPCClientImpl5FlushEjNS_8functionIFvbEEEE3$_6FvNS4_3ipc11AsyncResultINS4_6protos3gen13FlushResponseEEEEEEEEPvPKv", void (i8*)* @"_ZNSt3__110__function8__policy15__large_destroyINS0_20__default_alloc_funcIZN8perfetto21ConsumerIPCClientImpl5FlushEjNS_8functionIFvbEEEE3$_6FvNS4_3ipc11AsyncResultINS4_6protos3gen13FlushResponseEEEEEEEEvPv", i8 0, %"class.std::type_info"* null }, align 8
@_ZZNSt3__110__function8__policy15__choose_policyINS0_20__default_alloc_funcIZN8perfetto3ipc8DeferredINS4_6protos3gen14DetachResponseEE4BindENS_8functionIFvNS5_11AsyncResultIS9_EEEEEEUlNSC_IN9protozero13CppMessageObjEEEE_FvSI_EEEEEPKS1_NS_17integral_constantIbLb0EEEE9__policy_ = linkonce_odr hidden constant %"struct.std::__1::__function::__policy" { i8* (i8*)* @_ZNSt3__110__function8__policy13__large_cloneINS0_20__default_alloc_funcIZN8perfetto3ipc8DeferredINS4_6protos3gen14DetachResponseEE4BindENS_8functionIFvNS5_11AsyncResultIS9_EEEEEEUlNSC_IN9protozero13CppMessageObjEEEE_FvSI_EEEEEPvPKv, void (i8*)* @_ZNSt3__110__function8__policy15__large_destroyINS0_20__default_alloc_funcIZN8perfetto3ipc8DeferredINS4_6protos3gen14DetachResponseEE4BindENS_8functionIFvNS5_11AsyncResultIS9_EEEEEEUlNSC_IN9protozero13CppMessageObjEEEE_FvSI_EEEEEvPv, i8 0, %"class.std::type_info"* null }, comdat, align 8
@"_ZZNSt3__110__function8__policy15__choose_policyINS0_20__default_alloc_funcIZN8perfetto21ConsumerIPCClientImpl6DetachERKNS_12basic_stringIcNS_11char_traitsIcEENS_9allocatorIcEEEEE3$_7FvNS4_3ipc11AsyncResultINS4_6protos3gen14DetachResponseEEEEEEEEPKS1_NS_17integral_constantIbLb0EEEE9__policy_" = internal constant %"struct.std::__1::__function::__policy" { i8* (i8*)* @"_ZNSt3__110__function8__policy13__large_cloneINS0_20__default_alloc_funcIZN8perfetto21ConsumerIPCClientImpl6DetachERKNS_12basic_stringIcNS_11char_traitsIcEENS_9allocatorIcEEEEE3$_7FvNS4_3ipc11AsyncResultINS4_6protos3gen14DetachResponseEEEEEEEEPvPKv", void (i8*)* @"_ZNSt3__110__function8__policy15__large_destroyINS0_20__default_alloc_funcIZN8perfetto21ConsumerIPCClientImpl6DetachERKNS_12basic_stringIcNS_11char_traitsIcEENS_9allocatorIcEEEEE3$_7FvNS4_3ipc11AsyncResultINS4_6protos3gen14DetachResponseEEEEEEEEvPv", i8 0, %"class.std::type_info"* null }, align 8
@_ZZNSt3__110__function8__policy15__choose_policyINS0_20__default_alloc_funcIZN8perfetto3ipc8DeferredINS4_6protos3gen14AttachResponseEE4BindENS_8functionIFvNS5_11AsyncResultIS9_EEEEEEUlNSC_IN9protozero13CppMessageObjEEEE_FvSI_EEEEEPKS1_NS_17integral_constantIbLb0EEEE9__policy_ = linkonce_odr hidden constant %"struct.std::__1::__function::__policy" { i8* (i8*)* @_ZNSt3__110__function8__policy13__large_cloneINS0_20__default_alloc_funcIZN8perfetto3ipc8DeferredINS4_6protos3gen14AttachResponseEE4BindENS_8functionIFvNS5_11AsyncResultIS9_EEEEEEUlNSC_IN9protozero13CppMessageObjEEEE_FvSI_EEEEEPvPKv, void (i8*)* @_ZNSt3__110__function8__policy15__large_destroyINS0_20__default_alloc_funcIZN8perfetto3ipc8DeferredINS4_6protos3gen14AttachResponseEE4BindENS_8functionIFvNS5_11AsyncResultIS9_EEEEEEUlNSC_IN9protozero13CppMessageObjEEEE_FvSI_EEEEEvPv, i8 0, %"class.std::type_info"* null }, comdat, align 8
@"_ZZNSt3__110__function8__policy15__choose_policyINS0_20__default_alloc_funcIZZN8perfetto21ConsumerIPCClientImpl6AttachERKNS_12basic_stringIcNS_11char_traitsIcEENS_9allocatorIcEEEEENK3$_8clENS4_3ipc11AsyncResultINS4_6protos3gen14AttachResponseEEEEUlNSG_INSI_21EnableTracingResponseEEEE_FvSM_EEEEEPKS1_NS_17integral_constantIbLb0EEEE9__policy_" = internal constant %"struct.std::__1::__function::__policy" { i8* (i8*)* @"_ZNSt3__110__function8__policy13__large_cloneINS0_20__default_alloc_funcIZZN8perfetto21ConsumerIPCClientImpl6AttachERKNS_12basic_stringIcNS_11char_traitsIcEENS_9allocatorIcEEEEENK3$_8clENS4_3ipc11AsyncResultINS4_6protos3gen14AttachResponseEEEEUlNSG_INSI_21EnableTracingResponseEEEE_FvSM_EEEEEPvPKv", void (i8*)* @"_ZNSt3__110__function8__policy15__large_destroyINS0_20__default_alloc_funcIZZN8perfetto21ConsumerIPCClientImpl6AttachERKNS_12basic_stringIcNS_11char_traitsIcEENS_9allocatorIcEEEEENK3$_8clENS4_3ipc11AsyncResultINS4_6protos3gen14AttachResponseEEEEUlNSG_INSI_21EnableTracingResponseEEEE_FvSM_EEEEEvPv", i8 0, %"class.std::type_info"* null }, align 8
@"_ZZNSt3__110__function8__policy15__choose_policyINS0_20__default_alloc_funcIZN8perfetto21ConsumerIPCClientImpl6AttachERKNS_12basic_stringIcNS_11char_traitsIcEENS_9allocatorIcEEEEE3$_8FvNS4_3ipc11AsyncResultINS4_6protos3gen14AttachResponseEEEEEEEEPKS1_NS_17integral_constantIbLb0EEEE9__policy_" = internal constant %"struct.std::__1::__function::__policy" { i8* (i8*)* @"_ZNSt3__110__function8__policy13__large_cloneINS0_20__default_alloc_funcIZN8perfetto21ConsumerIPCClientImpl6AttachERKNS_12basic_stringIcNS_11char_traitsIcEENS_9allocatorIcEEEEE3$_8FvNS4_3ipc11AsyncResultINS4_6protos3gen14AttachResponseEEEEEEEEPvPKv", void (i8*)* @"_ZNSt3__110__function8__policy15__large_destroyINS0_20__default_alloc_funcIZN8perfetto21ConsumerIPCClientImpl6AttachERKNS_12basic_stringIcNS_11char_traitsIcEENS_9allocatorIcEEEEE3$_8FvNS4_3ipc11AsyncResultINS4_6protos3gen14AttachResponseEEEEEEEEvPv", i8 0, %"class.std::type_info"* null }, align 8
@_ZZNSt3__110__function8__policy15__choose_policyINS0_20__default_alloc_funcIZN8perfetto3ipc8DeferredINS4_6protos3gen21GetTraceStatsResponseEE4BindENS_8functionIFvNS5_11AsyncResultIS9_EEEEEEUlNSC_IN9protozero13CppMessageObjEEEE_FvSI_EEEEEPKS1_NS_17integral_constantIbLb0EEEE9__policy_ = linkonce_odr hidden constant %"struct.std::__1::__function::__policy" { i8* (i8*)* @_ZNSt3__110__function8__policy13__large_cloneINS0_20__default_alloc_funcIZN8perfetto3ipc8DeferredINS4_6protos3gen21GetTraceStatsResponseEE4BindENS_8functionIFvNS5_11AsyncResultIS9_EEEEEEUlNSC_IN9protozero13CppMessageObjEEEE_FvSI_EEEEEPvPKv, void (i8*)* @_ZNSt3__110__function8__policy15__large_destroyINS0_20__default_alloc_funcIZN8perfetto3ipc8DeferredINS4_6protos3gen21GetTraceStatsResponseEE4BindENS_8functionIFvNS5_11AsyncResultIS9_EEEEEEUlNSC_IN9protozero13CppMessageObjEEEE_FvSI_EEEEEvPv, i8 0, %"class.std::type_info"* null }, comdat, align 8
@"_ZZNSt3__110__function8__policy15__choose_policyINS0_20__default_alloc_funcIZN8perfetto21ConsumerIPCClientImpl13GetTraceStatsEvE3$_9FvNS4_3ipc11AsyncResultINS4_6protos3gen21GetTraceStatsResponseEEEEEEEEPKS1_NS_17integral_constantIbLb1EEEE9__policy_" = internal constant %"struct.std::__1::__function::__policy" zeroinitializer, align 8
@_ZZNSt3__110__function8__policy15__choose_policyINS0_20__default_alloc_funcIZN8perfetto3ipc8DeferredINS4_6protos3gen21ObserveEventsResponseEE4BindENS_8functionIFvNS5_11AsyncResultIS9_EEEEEEUlNSC_IN9protozero13CppMessageObjEEEE_FvSI_EEEEEPKS1_NS_17integral_constantIbLb0EEEE9__policy_ = linkonce_odr hidden constant %"struct.std::__1::__function::__policy" { i8* (i8*)* @_ZNSt3__110__function8__policy13__large_cloneINS0_20__default_alloc_funcIZN8perfetto3ipc8DeferredINS4_6protos3gen21ObserveEventsResponseEE4BindENS_8functionIFvNS5_11AsyncResultIS9_EEEEEEUlNSC_IN9protozero13CppMessageObjEEEE_FvSI_EEEEEPvPKv, void (i8*)* @_ZNSt3__110__function8__policy15__large_destroyINS0_20__default_alloc_funcIZN8perfetto3ipc8DeferredINS4_6protos3gen21ObserveEventsResponseEE4BindENS_8functionIFvNS5_11AsyncResultIS9_EEEEEEUlNSC_IN9protozero13CppMessageObjEEEE_FvSI_EEEEEvPv, i8 0, %"class.std::type_info"* null }, comdat, align 8
@"_ZZNSt3__110__function8__policy15__choose_policyINS0_20__default_alloc_funcIZN8perfetto21ConsumerIPCClientImpl13ObserveEventsEjE4$_10FvNS4_3ipc11AsyncResultINS4_6protos3gen21ObserveEventsResponseEEEEEEEEPKS1_NS_17integral_constantIbLb1EEEE9__policy_" = internal constant %"struct.std::__1::__function::__policy" zeroinitializer, align 8
@_ZZNSt3__110__function8__policy15__choose_policyINS0_20__default_alloc_funcIZN8perfetto3ipc8DeferredINS4_6protos3gen25QueryServiceStateResponseEE4BindENS_8functionIFvNS5_11AsyncResultIS9_EEEEEEUlNSC_IN9protozero13CppMessageObjEEEE_FvSI_EEEEEPKS1_NS_17integral_constantIbLb0EEEE9__policy_ = linkonce_odr hidden constant %"struct.std::__1::__function::__policy" { i8* (i8*)* @_ZNSt3__110__function8__policy13__large_cloneINS0_20__default_alloc_funcIZN8perfetto3ipc8DeferredINS4_6protos3gen25QueryServiceStateResponseEE4BindENS_8functionIFvNS5_11AsyncResultIS9_EEEEEEUlNSC_IN9protozero13CppMessageObjEEEE_FvSI_EEEEEPvPKv, void (i8*)* @_ZNSt3__110__function8__policy15__large_destroyINS0_20__default_alloc_funcIZN8perfetto3ipc8DeferredINS4_6protos3gen25QueryServiceStateResponseEE4BindENS_8functionIFvNS5_11AsyncResultIS9_EEEEEEUlNSC_IN9protozero13CppMessageObjEEEE_FvSI_EEEEEvPv, i8 0, %"class.std::type_info"* null }, comdat, align 8
@"_ZZNSt3__110__function8__policy15__choose_policyINS0_20__default_alloc_funcIZN8perfetto21ConsumerIPCClientImpl17QueryServiceStateENS_8functionIFvbRKNS4_6protos3gen19TracingServiceStateEEEEE4$_11FvNS4_3ipc11AsyncResultINS8_25QueryServiceStateResponseEEEEEEEEPKS1_NS_17integral_constantIbLb0EEEE9__policy_" = internal constant %"struct.std::__1::__function::__policy" { i8* (i8*)* @"_ZNSt3__110__function8__policy13__large_cloneINS0_20__default_alloc_funcIZN8perfetto21ConsumerIPCClientImpl17QueryServiceStateENS_8functionIFvbRKNS4_6protos3gen19TracingServiceStateEEEEE4$_11FvNS4_3ipc11AsyncResultINS8_25QueryServiceStateResponseEEEEEEEEPvPKv", void (i8*)* @"_ZNSt3__110__function8__policy15__large_destroyINS0_20__default_alloc_funcIZN8perfetto21ConsumerIPCClientImpl17QueryServiceStateENS_8functionIFvbRKNS4_6protos3gen19TracingServiceStateEEEEE4$_11FvNS4_3ipc11AsyncResultINS8_25QueryServiceStateResponseEEEEEEEEvPv", i8 0, %"class.std::type_info"* null }, align 8
@_ZZNSt3__110__function8__policy15__choose_policyINS0_20__default_alloc_funcIZN8perfetto3ipc8DeferredINS4_6protos3gen25QueryCapabilitiesResponseEE4BindENS_8functionIFvNS5_11AsyncResultIS9_EEEEEEUlNSC_IN9protozero13CppMessageObjEEEE_FvSI_EEEEEPKS1_NS_17integral_constantIbLb0EEEE9__policy_ = linkonce_odr hidden constant %"struct.std::__1::__function::__policy" { i8* (i8*)* @_ZNSt3__110__function8__policy13__large_cloneINS0_20__default_alloc_funcIZN8perfetto3ipc8DeferredINS4_6protos3gen25QueryCapabilitiesResponseEE4BindENS_8functionIFvNS5_11AsyncResultIS9_EEEEEEUlNSC_IN9protozero13CppMessageObjEEEE_FvSI_EEEEEPvPKv, void (i8*)* @_ZNSt3__110__function8__policy15__large_destroyINS0_20__default_alloc_funcIZN8perfetto3ipc8DeferredINS4_6protos3gen25QueryCapabilitiesResponseEE4BindENS_8functionIFvNS5_11AsyncResultIS9_EEEEEEUlNSC_IN9protozero13CppMessageObjEEEE_FvSI_EEEEEvPv, i8 0, %"class.std::type_info"* null }, comdat, align 8
@"_ZZNSt3__110__function8__policy15__choose_policyINS0_20__default_alloc_funcIZN8perfetto21ConsumerIPCClientImpl17QueryCapabilitiesENS_8functionIFvRKNS4_6protos3gen26TracingServiceCapabilitiesEEEEE4$_12FvNS4_3ipc11AsyncResultINS8_25QueryCapabilitiesResponseEEEEEEEEPKS1_NS_17integral_constantIbLb0EEEE9__policy_" = internal constant %"struct.std::__1::__function::__policy" { i8* (i8*)* @"_ZNSt3__110__function8__policy13__large_cloneINS0_20__default_alloc_funcIZN8perfetto21ConsumerIPCClientImpl17QueryCapabilitiesENS_8functionIFvRKNS4_6protos3gen26TracingServiceCapabilitiesEEEEE4$_12FvNS4_3ipc11AsyncResultINS8_25QueryCapabilitiesResponseEEEEEEEEPvPKv", void (i8*)* @"_ZNSt3__110__function8__policy15__large_destroyINS0_20__default_alloc_funcIZN8perfetto21ConsumerIPCClientImpl17QueryCapabilitiesENS_8functionIFvRKNS4_6protos3gen26TracingServiceCapabilitiesEEEEE4$_12FvNS4_3ipc11AsyncResultINS8_25QueryCapabilitiesResponseEEEEEEEEvPv", i8 0, %"class.std::type_info"* null }, align 8
@_ZZNSt3__110__function8__policy15__choose_policyINS0_20__default_alloc_funcIZN8perfetto3ipc8DeferredINS4_6protos3gen29SaveTraceForBugreportResponseEE4BindENS_8functionIFvNS5_11AsyncResultIS9_EEEEEEUlNSC_IN9protozero13CppMessageObjEEEE_FvSI_EEEEEPKS1_NS_17integral_constantIbLb0EEEE9__policy_ = linkonce_odr hidden constant %"struct.std::__1::__function::__policy" { i8* (i8*)* @_ZNSt3__110__function8__policy13__large_cloneINS0_20__default_alloc_funcIZN8perfetto3ipc8DeferredINS4_6protos3gen29SaveTraceForBugreportResponseEE4BindENS_8functionIFvNS5_11AsyncResultIS9_EEEEEEUlNSC_IN9protozero13CppMessageObjEEEE_FvSI_EEEEEPvPKv, void (i8*)* @_ZNSt3__110__function8__policy15__large_destroyINS0_20__default_alloc_funcIZN8perfetto3ipc8DeferredINS4_6protos3gen29SaveTraceForBugreportResponseEE4BindENS_8functionIFvNS5_11AsyncResultIS9_EEEEEEUlNSC_IN9protozero13CppMessageObjEEEE_FvSI_EEEEEvPv, i8 0, %"class.std::type_info"* null }, comdat, align 8
@.str.28 = private unnamed_addr constant [60 x i8] c"The tracing service doesn't support SaveTraceForBugreport()\00", align 1
@"_ZZNSt3__110__function8__policy15__choose_policyINS0_20__default_alloc_funcIZN8perfetto21ConsumerIPCClientImpl21SaveTraceForBugreportENS_8functionIFvbRKNS_12basic_stringIcNS_11char_traitsIcEENS_9allocatorIcEEEEEEEE4$_13FvNS4_3ipc11AsyncResultINS4_6protos3gen29SaveTraceForBugreportResponseEEEEEEEEPKS1_NS_17integral_constantIbLb0EEEE9__policy_" = internal constant %"struct.std::__1::__function::__policy" { i8* (i8*)* @"_ZNSt3__110__function8__policy13__large_cloneINS0_20__default_alloc_funcIZN8perfetto21ConsumerIPCClientImpl21SaveTraceForBugreportENS_8functionIFvbRKNS_12basic_stringIcNS_11char_traitsIcEENS_9allocatorIcEEEEEEEE4$_13FvNS4_3ipc11AsyncResultINS4_6protos3gen29SaveTraceForBugreportResponseEEEEEEEEPvPKv", void (i8*)* @"_ZNSt3__110__function8__policy15__large_destroyINS0_20__default_alloc_funcIZN8perfetto21ConsumerIPCClientImpl21SaveTraceForBugreportENS_8functionIFvbRKNS_12basic_stringIcNS_11char_traitsIcEENS_9allocatorIcEEEEEEEE4$_13FvNS4_3ipc11AsyncResultINS4_6protos3gen29SaveTraceForBugreportResponseEEEEEEEEvPv", i8 0, %"class.std::type_info"* null }, align 8

@_ZN8perfetto21ConsumerIPCClientImplC1EPKcPNS_8ConsumerEPNS_4base10TaskRunnerE = hidden unnamed_addr alias void (%"class.perfetto::ConsumerIPCClientImpl"*, i8*, %"class.perfetto::Consumer"*, %"class.perfetto::base::TaskRunner"*), void (%"class.perfetto::ConsumerIPCClientImpl"*, i8*, %"class.perfetto::Consumer"*, %"class.perfetto::base::TaskRunner"*)* @_ZN8perfetto21ConsumerIPCClientImplC2EPKcPNS_8ConsumerEPNS_4base10TaskRunnerE
@_ZN8perfetto21ConsumerIPCClientImplD1Ev = hidden unnamed_addr alias void (%"class.perfetto::ConsumerIPCClientImpl"*), void (%"class.perfetto::ConsumerIPCClientImpl"*)* @_ZN8perfetto21ConsumerIPCClientImplD2Ev

; Function Attrs: nounwind ssp uwtable
define hidden %"class.perfetto::ConsumerEndpoint"* @_ZN8perfetto17ConsumerIPCClient7ConnectEPKcPNS_8ConsumerEPNS_4base10TaskRunnerE(i8*, %"class.perfetto::Consumer"*, %"class.perfetto::base::TaskRunner"*) local_unnamed_addr #0 align 2 {
  %4 = tail call i8* @_Znwm(i64 224) #13
  %5 = bitcast i8* %4 to %"class.perfetto::ConsumerIPCClientImpl"*
  tail call void @_ZN8perfetto21ConsumerIPCClientImplC2EPKcPNS_8ConsumerEPNS_4base10TaskRunnerE(%"class.perfetto::ConsumerIPCClientImpl"* nonnull %5, i8* %0, %"class.perfetto::Consumer"* %1, %"class.perfetto::base::TaskRunner"* %2)
  %6 = bitcast i8* %4 to %"class.perfetto::ConsumerEndpoint"*
  ret %"class.perfetto::ConsumerEndpoint"* %6
}

; Function Attrs: nobuiltin nofree
declare noalias nonnull i8* @_Znwm(i64) local_unnamed_addr #1

; Function Attrs: nounwind ssp uwtable
define hidden void @_ZN8perfetto21ConsumerIPCClientImplC2EPKcPNS_8ConsumerEPNS_4base10TaskRunnerE(%"class.perfetto::ConsumerIPCClientImpl"*, i8*, %"class.perfetto::Consumer"*, %"class.perfetto::base::TaskRunner"*) unnamed_addr #0 align 2 {
  %5 = alloca %"struct.perfetto::ipc::Client::ConnArgs", align 8
  %6 = getelementptr inbounds %"class.perfetto::ConsumerIPCClientImpl", %"class.perfetto::ConsumerIPCClientImpl"* %0, i64 0, i32 1
  %7 = bitcast %"class.perfetto::ConsumerIPCClientImpl"* %0 to <2 x i32 (...)**>*
  store <2 x i32 (...)**> <i32 (...)** bitcast (i8** getelementptr inbounds ({ [20 x i8*], [6 x i8*] }, { [20 x i8*], [6 x i8*] }* @_ZTVN8perfetto21ConsumerIPCClientImplE, i64 0, inrange i32 0, i64 2) to i32 (...)**), i32 (...)** bitcast (i8** getelementptr inbounds ({ [20 x i8*], [6 x i8*] }, { [20 x i8*], [6 x i8*] }* @_ZTVN8perfetto21ConsumerIPCClientImplE, i64 0, inrange i32 1, i64 2) to i32 (...)**)>, <2 x i32 (...)**>* %7, align 8
  %8 = getelementptr inbounds %"class.perfetto::ConsumerIPCClientImpl", %"class.perfetto::ConsumerIPCClientImpl"* %0, i64 0, i32 2
  store %"class.perfetto::Consumer"* %2, %"class.perfetto::Consumer"** %8, align 8
  %9 = getelementptr inbounds %"struct.perfetto::ipc::Client::ConnArgs", %"struct.perfetto::ipc::Client::ConnArgs"* %5, i64 0, i32 0, i32 0
  store i32 -1, i32* %9, align 8
  %10 = getelementptr inbounds %"struct.perfetto::ipc::Client::ConnArgs", %"struct.perfetto::ipc::Client::ConnArgs"* %5, i64 0, i32 2
  store i8* %1, i8** %10, align 8
  %11 = getelementptr inbounds %"struct.perfetto::ipc::Client::ConnArgs", %"struct.perfetto::ipc::Client::ConnArgs"* %5, i64 0, i32 3
  store i8 0, i8* %11, align 8
  %12 = call %"class.perfetto::ipc::Client"* @_ZN8perfetto3ipc6Client14CreateInstanceENS1_8ConnArgsEPNS_4base10TaskRunnerE(%"struct.perfetto::ipc::Client::ConnArgs"* nonnull %5, %"class.perfetto::base::TaskRunner"* %3) #14
  %13 = getelementptr inbounds %"class.perfetto::ConsumerIPCClientImpl", %"class.perfetto::ConsumerIPCClientImpl"* %0, i64 0, i32 3, i32 0, i32 0, i32 0
  store %"class.perfetto::ipc::Client"* %12, %"class.perfetto::ipc::Client"** %13, align 8
  %14 = load i32, i32* %9, align 8
  %15 = icmp eq i32 %14, -1
  br i1 %15, label %24, label %16

16:                                               ; preds = %4
  %17 = call i32 @_ZN8perfetto4base9CloseFileEi(i32 %14) #14
  %18 = icmp eq i32 %17, 0
  br i1 %18, label %24, label %19, !prof !2

19:                                               ; preds = %16
  %20 = call i8* @_ZN8perfetto4base8BasenameEPKc(i8* getelementptr inbounds ([67 x i8], [67 x i8]* @.str.19, i64 0, i64 0)) #14
  %21 = tail call i32* @__errno_location() #15
  %22 = load i32, i32* %21, align 4
  %23 = call i8* @strerror(i32 %22) #14
  call void (i32, i8*, i32, i8*, ...) @_ZN8perfetto4base10LogMessageENS0_6LogLevEPKciS3_z(i32 3, i8* %20, i32 76, i8* getelementptr inbounds ([19 x i8], [19 x i8]* @.str.20, i64 0, i64 0), i8* getelementptr inbounds ([25 x i8], [25 x i8]* @.str.21, i64 0, i64 0), i32 %22, i8* %23) #14
  call void @llvm.trap() #14
  unreachable

24:                                               ; preds = %4, %16
  store i32 -1, i32* %9, align 8
  %25 = getelementptr inbounds %"class.perfetto::ConsumerIPCClientImpl", %"class.perfetto::ConsumerIPCClientImpl"* %0, i64 0, i32 4
  call void @_ZN8perfetto6protos3gen17ConsumerPortProxyC1EPNS_3ipc12ServiceProxy13EventListenerE(%"class.perfetto::protos::gen::ConsumerPortProxy"* %25, %"class.perfetto::ipc::ServiceProxy::EventListener"* %6) #14
  %26 = getelementptr inbounds %"class.perfetto::ConsumerIPCClientImpl", %"class.perfetto::ConsumerIPCClientImpl"* %0, i64 0, i32 5
  store i8 0, i8* %26, align 8
  %27 = getelementptr inbounds %"class.perfetto::ConsumerIPCClientImpl", %"class.perfetto::ConsumerIPCClientImpl"* %0, i64 0, i32 6
  %28 = getelementptr inbounds %"class.std::__1::list", %"class.std::__1::list"* %27, i64 0, i32 0, i32 0
  %29 = getelementptr inbounds %"class.std::__1::list", %"class.std::__1::list"* %27, i64 0, i32 0, i32 0, i32 0
  store %"struct.std::__1::__list_node_base"* %28, %"struct.std::__1::__list_node_base"** %29, align 8
  %30 = getelementptr inbounds %"class.perfetto::ConsumerIPCClientImpl", %"class.perfetto::ConsumerIPCClientImpl"* %0, i64 0, i32 6, i32 0, i32 0, i32 1
  store %"struct.std::__1::__list_node_base"* %28, %"struct.std::__1::__list_node_base"** %30, align 8
  %31 = getelementptr inbounds %"class.perfetto::ConsumerIPCClientImpl", %"class.perfetto::ConsumerIPCClientImpl"* %0, i64 0, i32 6, i32 0, i32 1, i32 0, i32 0
  store i64 0, i64* %31, align 8
  %32 = getelementptr inbounds %"class.perfetto::ConsumerIPCClientImpl", %"class.perfetto::ConsumerIPCClientImpl"* %0, i64 0, i32 7
  call void @_ZN8perfetto11TracePacketC1Ev(%"class.perfetto::TracePacket"* %32) #14
  %33 = getelementptr inbounds %"class.perfetto::ConsumerIPCClientImpl", %"class.perfetto::ConsumerIPCClientImpl"* %0, i64 0, i32 8
  %34 = call i8* @_Znwm(i64 8) #13
  %35 = bitcast i8* %34 to %"class.perfetto::ConsumerIPCClientImpl"**
  store %"class.perfetto::ConsumerIPCClientImpl"* %0, %"class.perfetto::ConsumerIPCClientImpl"** %35, align 8
  %36 = ptrtoint i8* %34 to i64
  %37 = call i8* @_Znwm(i64 32) #13
  %38 = bitcast i8* %37 to i32 (...)***
  %39 = getelementptr inbounds i8, i8* %37, i64 8
  call void @llvm.memset.p0i8.i64(i8* align 8 %39, i8 0, i64 16, i1 false) #14
  store i32 (...)** bitcast (i8** getelementptr inbounds ({ [7 x i8*] }, { [7 x i8*] }* @_ZTVNSt3__120__shared_ptr_pointerIPPN8perfetto21ConsumerIPCClientImplENS_10shared_ptrIS3_E27__shared_ptr_default_deleteIS3_S3_EENS_9allocatorIS3_EEEE, i64 0, inrange i32 0, i64 2) to i32 (...)**), i32 (...)*** %38, align 8
  %40 = getelementptr inbounds i8, i8* %37, i64 24
  %41 = bitcast i8* %40 to i64*
  store i64 %36, i64* %41, align 8
  %42 = bitcast %"class.perfetto::base::WeakPtrFactory.41"* %33 to i64*
  store i64 %36, i64* %42, align 8
  %43 = getelementptr inbounds %"class.perfetto::ConsumerIPCClientImpl", %"class.perfetto::ConsumerIPCClientImpl"* %0, i64 0, i32 8, i32 0, i32 0, i32 1
  %44 = bitcast %"class.std::__1::__shared_weak_count"** %43 to i8**
  store i8* %37, i8** %44, align 8
  %45 = bitcast i8* %39 to i64*
  %46 = atomicrmw add i64* %45, i64 1 monotonic
  %47 = atomicrmw add i64* %45, i64 -1 acq_rel
  %48 = icmp eq i64 %47, 0
  br i1 %48, label %49, label %56

49:                                               ; preds = %24
  %50 = bitcast i8* %37 to %"class.std::__1::__shared_weak_count"*
  %51 = bitcast i8* %37 to %"class.std::__1::__shared_count"*
  %52 = bitcast i8* %37 to void (%"class.std::__1::__shared_count"*)***
  %53 = load void (%"class.std::__1::__shared_count"*)**, void (%"class.std::__1::__shared_count"*)*** %52, align 8
  %54 = getelementptr inbounds void (%"class.std::__1::__shared_count"*)*, void (%"class.std::__1::__shared_count"*)** %53, i64 2
  %55 = load void (%"class.std::__1::__shared_count"*)*, void (%"class.std::__1::__shared_count"*)** %54, align 8
  call void %55(%"class.std::__1::__shared_count"* nonnull %51) #14
  call void @_ZNSt3__119__shared_weak_count14__release_weakEv(%"class.std::__1::__shared_weak_count"* nonnull %50) #14
  br label %56

56:                                               ; preds = %24, %49
  %57 = load %"class.perfetto::ipc::Client"*, %"class.perfetto::ipc::Client"** %13, align 8
  %58 = getelementptr inbounds %"class.perfetto::protos::gen::ConsumerPortProxy", %"class.perfetto::protos::gen::ConsumerPortProxy"* %25, i64 0, i32 0
  %59 = call { %"class.perfetto::ipc::ServiceProxy"**, %"class.std::__1::__shared_weak_count"* } @_ZNK8perfetto3ipc12ServiceProxy10GetWeakPtrEv(%"class.perfetto::ipc::ServiceProxy"* %58) #14
  %60 = extractvalue { %"class.perfetto::ipc::ServiceProxy"**, %"class.std::__1::__shared_weak_count"* } %59, 0
  %61 = extractvalue { %"class.perfetto::ipc::ServiceProxy"**, %"class.std::__1::__shared_weak_count"* } %59, 1
  %62 = bitcast %"class.perfetto::ipc::Client"* %57 to void (%"class.perfetto::ipc::Client"*, %"class.perfetto::ipc::ServiceProxy"**, %"class.std::__1::__shared_weak_count"*)***
  %63 = load void (%"class.perfetto::ipc::Client"*, %"class.perfetto::ipc::ServiceProxy"**, %"class.std::__1::__shared_weak_count"*)**, void (%"class.perfetto::ipc::Client"*, %"class.perfetto::ipc::ServiceProxy"**, %"class.std::__1::__shared_weak_count"*)*** %62, align 8
  %64 = getelementptr inbounds void (%"class.perfetto::ipc::Client"*, %"class.perfetto::ipc::ServiceProxy"**, %"class.std::__1::__shared_weak_count"*)*, void (%"class.perfetto::ipc::Client"*, %"class.perfetto::ipc::ServiceProxy"**, %"class.std::__1::__shared_weak_count"*)** %63, i64 2
  %65 = load void (%"class.perfetto::ipc::Client"*, %"class.perfetto::ipc::ServiceProxy"**, %"class.std::__1::__shared_weak_count"*)*, void (%"class.perfetto::ipc::Client"*, %"class.perfetto::ipc::ServiceProxy"**, %"class.std::__1::__shared_weak_count"*)** %64, align 8
  call void %65(%"class.perfetto::ipc::Client"* %57, %"class.perfetto::ipc::ServiceProxy"** %60, %"class.std::__1::__shared_weak_count"* %61) #14
  ret void
}

declare %"class.perfetto::ipc::Client"* @_ZN8perfetto3ipc6Client14CreateInstanceENS1_8ConnArgsEPNS_4base10TaskRunnerE(%"struct.perfetto::ipc::Client::ConnArgs"*, %"class.perfetto::base::TaskRunner"*) local_unnamed_addr #2

declare void @_ZN8perfetto6protos3gen17ConsumerPortProxyC1EPNS_3ipc12ServiceProxy13EventListenerE(%"class.perfetto::protos::gen::ConsumerPortProxy"*, %"class.perfetto::ipc::ServiceProxy::EventListener"*) unnamed_addr #2

declare void @_ZN8perfetto11TracePacketC1Ev(%"class.perfetto::TracePacket"*) unnamed_addr #2

declare { %"class.perfetto::ipc::ServiceProxy"**, %"class.std::__1::__shared_weak_count"* } @_ZNK8perfetto3ipc12ServiceProxy10GetWeakPtrEv(%"class.perfetto::ipc::ServiceProxy"*) local_unnamed_addr #2

; Function Attrs: nounwind ssp uwtable
define hidden void @_ZN8perfetto21ConsumerIPCClientImplD2Ev(%"class.perfetto::ConsumerIPCClientImpl"*) unnamed_addr #0 align 2 {
  %2 = getelementptr inbounds %"class.perfetto::ConsumerIPCClientImpl", %"class.perfetto::ConsumerIPCClientImpl"* %0, i64 0, i32 1
  %3 = bitcast %"class.perfetto::ConsumerIPCClientImpl"* %0 to <2 x i32 (...)**>*
  store <2 x i32 (...)**> <i32 (...)** bitcast (i8** getelementptr inbounds ({ [20 x i8*], [6 x i8*] }, { [20 x i8*], [6 x i8*] }* @_ZTVN8perfetto21ConsumerIPCClientImplE, i64 0, inrange i32 0, i64 2) to i32 (...)**), i32 (...)** bitcast (i8** getelementptr inbounds ({ [20 x i8*], [6 x i8*] }, { [20 x i8*], [6 x i8*] }* @_ZTVN8perfetto21ConsumerIPCClientImplE, i64 0, inrange i32 1, i64 2) to i32 (...)**)>, <2 x i32 (...)**>* %3, align 8
  %4 = getelementptr inbounds %"class.perfetto::ConsumerIPCClientImpl", %"class.perfetto::ConsumerIPCClientImpl"* %0, i64 0, i32 8, i32 0, i32 0, i32 0
  %5 = load %"class.perfetto::ConsumerIPCClientImpl"**, %"class.perfetto::ConsumerIPCClientImpl"*** %4, align 8
  store %"class.perfetto::ConsumerIPCClientImpl"* null, %"class.perfetto::ConsumerIPCClientImpl"** %5, align 8
  %6 = getelementptr inbounds %"class.perfetto::ConsumerIPCClientImpl", %"class.perfetto::ConsumerIPCClientImpl"* %0, i64 0, i32 8, i32 0, i32 0, i32 1
  %7 = load %"class.std::__1::__shared_weak_count"*, %"class.std::__1::__shared_weak_count"** %6, align 8
  %8 = icmp eq %"class.std::__1::__shared_weak_count"* %7, null
  br i1 %8, label %19, label %9

9:                                                ; preds = %1
  %10 = getelementptr inbounds %"class.std::__1::__shared_weak_count", %"class.std::__1::__shared_weak_count"* %7, i64 0, i32 0, i32 1
  %11 = atomicrmw add i64* %10, i64 -1 acq_rel
  %12 = icmp eq i64 %11, 0
  br i1 %12, label %13, label %19

13:                                               ; preds = %9
  %14 = getelementptr inbounds %"class.std::__1::__shared_weak_count", %"class.std::__1::__shared_weak_count"* %7, i64 0, i32 0
  %15 = bitcast %"class.std::__1::__shared_weak_count"* %7 to void (%"class.std::__1::__shared_count"*)***
  %16 = load void (%"class.std::__1::__shared_count"*)**, void (%"class.std::__1::__shared_count"*)*** %15, align 8
  %17 = getelementptr inbounds void (%"class.std::__1::__shared_count"*)*, void (%"class.std::__1::__shared_count"*)** %16, i64 2
  %18 = load void (%"class.std::__1::__shared_count"*)*, void (%"class.std::__1::__shared_count"*)** %17, align 8
  tail call void %18(%"class.std::__1::__shared_count"* %14) #14
  tail call void @_ZNSt3__119__shared_weak_count14__release_weakEv(%"class.std::__1::__shared_weak_count"* nonnull %7) #14
  br label %19

19:                                               ; preds = %1, %9, %13
  %20 = getelementptr inbounds %"class.perfetto::ConsumerIPCClientImpl", %"class.perfetto::ConsumerIPCClientImpl"* %0, i64 0, i32 7
  tail call void @_ZN8perfetto11TracePacketD1Ev(%"class.perfetto::TracePacket"* %20) #14
  %21 = getelementptr inbounds %"class.perfetto::ConsumerIPCClientImpl", %"class.perfetto::ConsumerIPCClientImpl"* %0, i64 0, i32 6, i32 0
  %22 = getelementptr inbounds %"class.perfetto::ConsumerIPCClientImpl", %"class.perfetto::ConsumerIPCClientImpl"* %0, i64 0, i32 6, i32 0, i32 1, i32 0, i32 0
  %23 = load i64, i64* %22, align 8
  %24 = icmp eq i64 %23, 0
  br i1 %24, label %69, label %25

25:                                               ; preds = %19
  %26 = getelementptr inbounds %"class.perfetto::ConsumerIPCClientImpl", %"class.perfetto::ConsumerIPCClientImpl"* %0, i64 0, i32 6, i32 0, i32 0, i32 1
  %27 = load %"struct.std::__1::__list_node_base"*, %"struct.std::__1::__list_node_base"** %26, align 8
  %28 = getelementptr inbounds %"class.std::__1::__list_imp", %"class.std::__1::__list_imp"* %21, i64 0, i32 0
  %29 = getelementptr inbounds %"class.std::__1::__list_imp", %"class.std::__1::__list_imp"* %21, i64 0, i32 0, i32 0
  %30 = load %"struct.std::__1::__list_node_base"*, %"struct.std::__1::__list_node_base"** %29, align 8
  %31 = getelementptr inbounds %"struct.std::__1::__list_node_base", %"struct.std::__1::__list_node_base"* %30, i64 0, i32 1
  %32 = bitcast %"struct.std::__1::__list_node_base"** %31 to i64*
  %33 = load i64, i64* %32, align 8
  %34 = getelementptr inbounds %"struct.std::__1::__list_node_base", %"struct.std::__1::__list_node_base"* %27, i64 0, i32 0
  %35 = load %"struct.std::__1::__list_node_base"*, %"struct.std::__1::__list_node_base"** %34, align 8
  %36 = getelementptr inbounds %"struct.std::__1::__list_node_base", %"struct.std::__1::__list_node_base"* %35, i64 0, i32 1
  %37 = bitcast %"struct.std::__1::__list_node_base"** %36 to i64*
  store i64 %33, i64* %37, align 8
  %38 = bitcast %"struct.std::__1::__list_node_base"* %27 to i64*
  %39 = load i64, i64* %38, align 8
  %40 = bitcast %"struct.std::__1::__list_node_base"** %31 to i64**
  %41 = load i64*, i64** %40, align 8
  store i64 %39, i64* %41, align 8
  store i64 0, i64* %22, align 8
  %42 = icmp eq %"struct.std::__1::__list_node_base"* %27, %28
  br i1 %42, label %69, label %43

43:                                               ; preds = %25, %66
  %44 = phi %"struct.std::__1::__list_node_base"* [ %46, %66 ], [ %27, %25 ]
  %45 = getelementptr inbounds %"struct.std::__1::__list_node_base", %"struct.std::__1::__list_node_base"* %44, i64 0, i32 1
  %46 = load %"struct.std::__1::__list_node_base"*, %"struct.std::__1::__list_node_base"** %45, align 8
  %47 = getelementptr inbounds %"struct.std::__1::__list_node_base", %"struct.std::__1::__list_node_base"* %44, i64 1
  %48 = getelementptr inbounds %"struct.std::__1::__list_node_base", %"struct.std::__1::__list_node_base"* %44, i64 3
  %49 = bitcast %"struct.std::__1::__list_node_base"* %48 to i8**
  %50 = load i8*, i8** %49, align 8
  %51 = icmp eq i8* %50, null
  br i1 %51, label %56, label %52

52:                                               ; preds = %43
  %53 = ptrtoint i8* %50 to i64
  %54 = getelementptr inbounds %"struct.std::__1::__list_node_base", %"struct.std::__1::__list_node_base"* %44, i64 3, i32 1
  %55 = bitcast %"struct.std::__1::__list_node_base"** %54 to i64*
  store i64 %53, i64* %55, align 8
  tail call void @_ZdlPv(i8* nonnull %50) #13
  br label %56

56:                                               ; preds = %52, %43
  %57 = getelementptr inbounds %"struct.std::__1::__list_node_base", %"struct.std::__1::__list_node_base"* %44, i64 2, i32 1
  %58 = bitcast %"struct.std::__1::__list_node_base"** %57 to %"struct.std::__1::__function::__policy"**
  %59 = load %"struct.std::__1::__function::__policy"*, %"struct.std::__1::__function::__policy"** %58, align 8
  %60 = getelementptr inbounds %"struct.std::__1::__function::__policy", %"struct.std::__1::__function::__policy"* %59, i64 0, i32 1
  %61 = load void (i8*)*, void (i8*)** %60, align 8
  %62 = icmp eq void (i8*)* %61, null
  br i1 %62, label %66, label %63

63:                                               ; preds = %56
  %64 = bitcast %"struct.std::__1::__list_node_base"* %47 to i8**
  %65 = load i8*, i8** %64, align 8
  tail call void %61(i8* %65) #14
  br label %66

66:                                               ; preds = %63, %56
  %67 = bitcast %"struct.std::__1::__list_node_base"* %44 to i8*
  tail call void @_ZdlPv(i8* %67) #13
  %68 = icmp eq %"struct.std::__1::__list_node_base"* %46, %28
  br i1 %68, label %69, label %43

69:                                               ; preds = %66, %19, %25
  %70 = getelementptr inbounds %"class.perfetto::ConsumerIPCClientImpl", %"class.perfetto::ConsumerIPCClientImpl"* %0, i64 0, i32 4
  tail call void @_ZN8perfetto6protos3gen17ConsumerPortProxyD1Ev(%"class.perfetto::protos::gen::ConsumerPortProxy"* %70) #14
  %71 = getelementptr inbounds %"class.perfetto::ConsumerIPCClientImpl", %"class.perfetto::ConsumerIPCClientImpl"* %0, i64 0, i32 3, i32 0, i32 0, i32 0
  %72 = load %"class.perfetto::ipc::Client"*, %"class.perfetto::ipc::Client"** %71, align 8
  store %"class.perfetto::ipc::Client"* null, %"class.perfetto::ipc::Client"** %71, align 8
  %73 = icmp eq %"class.perfetto::ipc::Client"* %72, null
  br i1 %73, label %79, label %74

74:                                               ; preds = %69
  %75 = bitcast %"class.perfetto::ipc::Client"* %72 to void (%"class.perfetto::ipc::Client"*)***
  %76 = load void (%"class.perfetto::ipc::Client"*)**, void (%"class.perfetto::ipc::Client"*)*** %75, align 8
  %77 = getelementptr inbounds void (%"class.perfetto::ipc::Client"*)*, void (%"class.perfetto::ipc::Client"*)** %76, i64 1
  %78 = load void (%"class.perfetto::ipc::Client"*)*, void (%"class.perfetto::ipc::Client"*)** %77, align 8
  tail call void %78(%"class.perfetto::ipc::Client"* nonnull %72) #14
  br label %79

79:                                               ; preds = %69, %74
  tail call void @_ZN8perfetto3ipc12ServiceProxy13EventListenerD2Ev(%"class.perfetto::ipc::ServiceProxy::EventListener"* %2) #14
  %80 = getelementptr inbounds %"class.perfetto::ConsumerIPCClientImpl", %"class.perfetto::ConsumerIPCClientImpl"* %0, i64 0, i32 0
  tail call void @_ZN8perfetto16ConsumerEndpointD2Ev(%"class.perfetto::ConsumerEndpoint"* %80) #14
  ret void
}

; Function Attrs: nounwind
declare void @_ZN8perfetto11TracePacketD1Ev(%"class.perfetto::TracePacket"*) unnamed_addr #3

; Function Attrs: nounwind
declare void @_ZN8perfetto6protos3gen17ConsumerPortProxyD1Ev(%"class.perfetto::protos::gen::ConsumerPortProxy"*) unnamed_addr #3

; Function Attrs: nounwind
declare void @_ZN8perfetto3ipc12ServiceProxy13EventListenerD2Ev(%"class.perfetto::ipc::ServiceProxy::EventListener"*) unnamed_addr #3

; Function Attrs: nounwind
declare void @_ZN8perfetto16ConsumerEndpointD2Ev(%"class.perfetto::ConsumerEndpoint"*) unnamed_addr #3

; Function Attrs: nounwind ssp uwtable
define hidden void @_ZThn8_N8perfetto21ConsumerIPCClientImplD1Ev(%"class.perfetto::ConsumerIPCClientImpl"*) unnamed_addr #0 align 2 {
  %2 = getelementptr inbounds %"class.perfetto::ConsumerIPCClientImpl", %"class.perfetto::ConsumerIPCClientImpl"* %0, i64 -1, i32 8, i32 0, i32 0, i32 1
  %3 = bitcast %"class.std::__1::__shared_weak_count"** %2 to %"class.perfetto::ConsumerIPCClientImpl"*
  tail call void @_ZN8perfetto21ConsumerIPCClientImplD2Ev(%"class.perfetto::ConsumerIPCClientImpl"* %3) #14
  ret void
}

; Function Attrs: nounwind ssp uwtable
define hidden void @_ZN8perfetto21ConsumerIPCClientImplD0Ev(%"class.perfetto::ConsumerIPCClientImpl"*) unnamed_addr #0 align 2 {
  tail call void @_ZN8perfetto21ConsumerIPCClientImplD2Ev(%"class.perfetto::ConsumerIPCClientImpl"* %0) #14
  %2 = bitcast %"class.perfetto::ConsumerIPCClientImpl"* %0 to i8*
  tail call void @_ZdlPv(i8* %2) #13
  ret void
}

; Function Attrs: nobuiltin nounwind
declare void @_ZdlPv(i8*) local_unnamed_addr #4

; Function Attrs: nounwind ssp uwtable
define hidden void @_ZThn8_N8perfetto21ConsumerIPCClientImplD0Ev(%"class.perfetto::ConsumerIPCClientImpl"*) unnamed_addr #0 align 2 {
  %2 = getelementptr inbounds %"class.perfetto::ConsumerIPCClientImpl", %"class.perfetto::ConsumerIPCClientImpl"* %0, i64 -1, i32 8, i32 0, i32 0, i32 1
  %3 = bitcast %"class.std::__1::__shared_weak_count"** %2 to %"class.perfetto::ConsumerIPCClientImpl"*
  tail call void @_ZN8perfetto21ConsumerIPCClientImplD2Ev(%"class.perfetto::ConsumerIPCClientImpl"* %3) #14
  %4 = bitcast %"class.std::__1::__shared_weak_count"** %2 to i8*
  tail call void @_ZdlPv(i8* %4) #13
  ret void
}

; Function Attrs: nounwind ssp uwtable
define hidden void @_ZN8perfetto21ConsumerIPCClientImpl9OnConnectEv(%"class.perfetto::ConsumerIPCClientImpl"* nocapture) unnamed_addr #0 align 2 {
  %2 = getelementptr inbounds %"class.perfetto::ConsumerIPCClientImpl", %"class.perfetto::ConsumerIPCClientImpl"* %0, i64 0, i32 5
  store i8 1, i8* %2, align 8
  %3 = getelementptr inbounds %"class.perfetto::ConsumerIPCClientImpl", %"class.perfetto::ConsumerIPCClientImpl"* %0, i64 0, i32 2
  %4 = load %"class.perfetto::Consumer"*, %"class.perfetto::Consumer"** %3, align 8
  %5 = bitcast %"class.perfetto::Consumer"* %4 to void (%"class.perfetto::Consumer"*)***
  %6 = load void (%"class.perfetto::Consumer"*)**, void (%"class.perfetto::Consumer"*)*** %5, align 8
  %7 = getelementptr inbounds void (%"class.perfetto::Consumer"*)*, void (%"class.perfetto::Consumer"*)** %6, i64 2
  %8 = load void (%"class.perfetto::Consumer"*)*, void (%"class.perfetto::Consumer"*)** %7, align 8
  tail call void %8(%"class.perfetto::Consumer"* %4) #14
  ret void
}

; Function Attrs: nounwind ssp uwtable
define hidden void @_ZThn8_N8perfetto21ConsumerIPCClientImpl9OnConnectEv(%"class.perfetto::ConsumerIPCClientImpl"* nocapture) unnamed_addr #0 align 2 {
  %2 = getelementptr inbounds %"class.perfetto::ConsumerIPCClientImpl", %"class.perfetto::ConsumerIPCClientImpl"* %0, i64 -1, i32 8, i32 0, i32 0, i32 1
  %3 = getelementptr inbounds %"class.std::__1::__shared_weak_count"*, %"class.std::__1::__shared_weak_count"** %2, i64 17
  %4 = bitcast %"class.std::__1::__shared_weak_count"** %3 to i8*
  store i8 1, i8* %4, align 8
  %5 = getelementptr inbounds %"class.std::__1::__shared_weak_count"*, %"class.std::__1::__shared_weak_count"** %2, i64 2
  %6 = bitcast %"class.std::__1::__shared_weak_count"** %5 to %"class.perfetto::Consumer"**
  %7 = load %"class.perfetto::Consumer"*, %"class.perfetto::Consumer"** %6, align 8
  %8 = bitcast %"class.perfetto::Consumer"* %7 to void (%"class.perfetto::Consumer"*)***
  %9 = load void (%"class.perfetto::Consumer"*)**, void (%"class.perfetto::Consumer"*)*** %8, align 8
  %10 = getelementptr inbounds void (%"class.perfetto::Consumer"*)*, void (%"class.perfetto::Consumer"*)** %9, i64 2
  %11 = load void (%"class.perfetto::Consumer"*)*, void (%"class.perfetto::Consumer"*)** %10, align 8
  tail call void %11(%"class.perfetto::Consumer"* %7) #14
  ret void
}

; Function Attrs: nounwind ssp uwtable
define hidden void @_ZN8perfetto21ConsumerIPCClientImpl12OnDisconnectEv(%"class.perfetto::ConsumerIPCClientImpl"* nocapture) unnamed_addr #0 align 2 {
  %2 = getelementptr inbounds %"class.perfetto::ConsumerIPCClientImpl", %"class.perfetto::ConsumerIPCClientImpl"* %0, i64 0, i32 5
  store i8 0, i8* %2, align 8
  %3 = getelementptr inbounds %"class.perfetto::ConsumerIPCClientImpl", %"class.perfetto::ConsumerIPCClientImpl"* %0, i64 0, i32 2
  %4 = load %"class.perfetto::Consumer"*, %"class.perfetto::Consumer"** %3, align 8
  %5 = bitcast %"class.perfetto::Consumer"* %4 to void (%"class.perfetto::Consumer"*)***
  %6 = load void (%"class.perfetto::Consumer"*)**, void (%"class.perfetto::Consumer"*)*** %5, align 8
  %7 = getelementptr inbounds void (%"class.perfetto::Consumer"*)*, void (%"class.perfetto::Consumer"*)** %6, i64 3
  %8 = load void (%"class.perfetto::Consumer"*)*, void (%"class.perfetto::Consumer"*)** %7, align 8
  tail call void %8(%"class.perfetto::Consumer"* %4) #14
  ret void
}

; Function Attrs: nounwind ssp uwtable
define hidden void @_ZThn8_N8perfetto21ConsumerIPCClientImpl12OnDisconnectEv(%"class.perfetto::ConsumerIPCClientImpl"* nocapture) unnamed_addr #0 align 2 {
  %2 = getelementptr inbounds %"class.perfetto::ConsumerIPCClientImpl", %"class.perfetto::ConsumerIPCClientImpl"* %0, i64 -1, i32 8, i32 0, i32 0, i32 1
  %3 = getelementptr inbounds %"class.std::__1::__shared_weak_count"*, %"class.std::__1::__shared_weak_count"** %2, i64 17
  %4 = bitcast %"class.std::__1::__shared_weak_count"** %3 to i8*
  store i8 0, i8* %4, align 8
  %5 = getelementptr inbounds %"class.std::__1::__shared_weak_count"*, %"class.std::__1::__shared_weak_count"** %2, i64 2
  %6 = bitcast %"class.std::__1::__shared_weak_count"** %5 to %"class.perfetto::Consumer"**
  %7 = load %"class.perfetto::Consumer"*, %"class.perfetto::Consumer"** %6, align 8
  %8 = bitcast %"class.perfetto::Consumer"* %7 to void (%"class.perfetto::Consumer"*)***
  %9 = load void (%"class.perfetto::Consumer"*)**, void (%"class.perfetto::Consumer"*)*** %8, align 8
  %10 = getelementptr inbounds void (%"class.perfetto::Consumer"*)*, void (%"class.perfetto::Consumer"*)** %9, i64 3
  %11 = load void (%"class.perfetto::Consumer"*)*, void (%"class.perfetto::Consumer"*)** %10, align 8
  tail call void %11(%"class.perfetto::Consumer"* %7) #14
  ret void
}

; Function Attrs: nounwind ssp uwtable
define hidden void @_ZN8perfetto21ConsumerIPCClientImpl13EnableTracingERKNS_6protos3gen11TraceConfigENS_4base14ScopedResourceIiXadL_ZNS6_9CloseFileEiEELin1ELb1ENS6_8internal22DefaultValidityCheckerIiLin1EEEEE(%"class.perfetto::ConsumerIPCClientImpl"*, %"class.perfetto::protos::gen::TraceConfig"* dereferenceable(344), %"class.perfetto::base::ScopedResource"* nocapture readonly) unnamed_addr #0 align 2 {
  %4 = alloca %"class.std::__1::function", align 8
  %5 = alloca %"class.std::__1::function.164", align 8
  %6 = alloca %"class.perfetto::protos::gen::EnableTracingRequest", align 8
  %7 = alloca %"class.perfetto::ipc::Deferred", align 8
  %8 = alloca %"class.std::__1::function.164", align 8
  %9 = alloca %"class.perfetto::ipc::Deferred", align 8
  %10 = getelementptr inbounds %"class.perfetto::ConsumerIPCClientImpl", %"class.perfetto::ConsumerIPCClientImpl"* %0, i64 0, i32 5
  %11 = load i8, i8* %10, align 8, !range !3
  %12 = icmp eq i8 %11, 0
  br i1 %12, label %88, label %13

13:                                               ; preds = %3
  %14 = bitcast %"class.perfetto::protos::gen::EnableTracingRequest"* %6 to i8*
  call void @llvm.lifetime.start.p0i8(i64 56, i8* nonnull %14) #14
  call void @llvm.memset.p0i8.i64(i8* nonnull align 8 %14, i8 -86, i64 56, i1 false)
  call void @_ZN8perfetto6protos3gen20EnableTracingRequestC1Ev(%"class.perfetto::protos::gen::EnableTracingRequest"* nonnull %6) #14
  %15 = getelementptr inbounds %"class.perfetto::protos::gen::EnableTracingRequest", %"class.perfetto::protos::gen::EnableTracingRequest"* %6, i64 0, i32 4, i32 0, i32 0
  %16 = load i64, i64* %15, align 8
  %17 = or i64 %16, 2
  store i64 %17, i64* %15, align 8
  %18 = getelementptr inbounds %"class.perfetto::protos::gen::EnableTracingRequest", %"class.perfetto::protos::gen::EnableTracingRequest"* %6, i64 0, i32 1, i32 0, i32 0, i32 0, i32 0
  %19 = load %"class.perfetto::protos::gen::TraceConfig"*, %"class.perfetto::protos::gen::TraceConfig"** %18, align 8
  %20 = call dereferenceable(344) %"class.perfetto::protos::gen::TraceConfig"* @_ZN8perfetto6protos3gen11TraceConfigaSERKS2_(%"class.perfetto::protos::gen::TraceConfig"* %19, %"class.perfetto::protos::gen::TraceConfig"* dereferenceable(344) %1) #14
  %21 = bitcast %"class.perfetto::ipc::Deferred"* %7 to i8*
  call void @llvm.lifetime.start.p0i8(i64 32, i8* nonnull %21) #14
  %22 = bitcast %"class.std::__1::function"* %4 to i8*
  %23 = bitcast %"class.perfetto::ipc::Deferred"* %7 to i8*
  call void @llvm.memset.p0i8.i64(i8* nonnull align 8 %23, i8 -86, i64 32, i1 false)
  call void @llvm.lifetime.start.p0i8(i64 32, i8* nonnull %22)
  %24 = bitcast %"class.std::__1::function.164"* %5 to i8*
  call void @llvm.lifetime.start.p0i8(i64 32, i8* nonnull %24)
  %25 = getelementptr inbounds %"class.perfetto::ipc::Deferred", %"class.perfetto::ipc::Deferred"* %7, i64 0, i32 0
  %26 = getelementptr inbounds %"class.std::__1::function", %"class.std::__1::function"* %4, i64 0, i32 0, i32 1, i32 0
  store void (%"union.std::__1::__function::__policy_storage"*, %"class.perfetto::ipc::AsyncResult"*)* @_ZNSt3__110__function16__policy_invokerIFvN8perfetto3ipc11AsyncResultIN9protozero13CppMessageObjEEEEE12__call_emptyEPKNS0_16__policy_storageEOS7_, void (%"union.std::__1::__function::__policy_storage"*, %"class.perfetto::ipc::AsyncResult"*)** %26, align 8
  %27 = getelementptr inbounds %"class.std::__1::function", %"class.std::__1::function"* %4, i64 0, i32 0, i32 2
  store %"struct.std::__1::__function::__policy"* @_ZZNSt3__110__function8__policy14__create_emptyEvE9__policy_, %"struct.std::__1::__function::__policy"** %27, align 8
  call void @_ZN8perfetto3ipc12DeferredBaseC2ENSt3__18functionIFvNS0_11AsyncResultIN9protozero13CppMessageObjEEEEEE(%"class.perfetto::ipc::DeferredBase"* nonnull %25, %"class.std::__1::function"* nonnull %4) #14
  %28 = load %"struct.std::__1::__function::__policy"*, %"struct.std::__1::__function::__policy"** %27, align 8
  %29 = getelementptr inbounds %"struct.std::__1::__function::__policy", %"struct.std::__1::__function::__policy"* %28, i64 0, i32 1
  %30 = load void (i8*)*, void (i8*)** %29, align 8
  %31 = icmp eq void (i8*)* %30, null
  br i1 %31, label %35, label %32

32:                                               ; preds = %13
  %33 = getelementptr inbounds %"class.std::__1::function", %"class.std::__1::function"* %4, i64 0, i32 0, i32 0, i32 0
  %34 = load i8*, i8** %33, align 8
  call void %30(i8* %34) #14
  br label %35

35:                                               ; preds = %13, %32
  %36 = getelementptr inbounds %"class.std::__1::function.164", %"class.std::__1::function.164"* %5, i64 0, i32 0, i32 1
  %37 = bitcast %"struct.std::__1::__function::__policy_invoker.169"* %36 to i64*
  store i64 ptrtoint (void (%"union.std::__1::__function::__policy_storage"*, %"class.perfetto::ipc::AsyncResult.170"*)* @_ZNSt3__110__function16__policy_invokerIFvN8perfetto3ipc11AsyncResultINS2_6protos3gen21EnableTracingResponseEEEEE12__call_emptyEPKNS0_16__policy_storageEOS8_ to i64), i64* %37, align 8
  %38 = getelementptr inbounds %"class.std::__1::function.164", %"class.std::__1::function.164"* %5, i64 0, i32 0, i32 2
  store %"struct.std::__1::__function::__policy"* @_ZZNSt3__110__function8__policy14__create_emptyEvE9__policy_, %"struct.std::__1::__function::__policy"** %38, align 8
  call void @_ZN8perfetto3ipc8DeferredINS_6protos3gen21EnableTracingResponseEE4BindENSt3__18functionIFvNS0_11AsyncResultIS4_EEEEE(%"class.perfetto::ipc::Deferred"* nonnull %7, %"class.std::__1::function.164"* nonnull %5) #14
  %39 = load %"struct.std::__1::__function::__policy"*, %"struct.std::__1::__function::__policy"** %38, align 8
  %40 = getelementptr inbounds %"struct.std::__1::__function::__policy", %"struct.std::__1::__function::__policy"* %39, i64 0, i32 1
  %41 = load void (i8*)*, void (i8*)** %40, align 8
  %42 = icmp eq void (i8*)* %41, null
  br i1 %42, label %46, label %43

43:                                               ; preds = %35
  %44 = getelementptr inbounds %"class.std::__1::function.164", %"class.std::__1::function.164"* %5, i64 0, i32 0, i32 0, i32 0
  %45 = load i8*, i8** %44, align 8
  call void %41(i8* %45) #14
  br label %46

46:                                               ; preds = %43, %35
  call void @llvm.lifetime.end.p0i8(i64 32, i8* nonnull %22)
  call void @llvm.lifetime.end.p0i8(i64 32, i8* nonnull %24)
  %47 = getelementptr inbounds %"class.perfetto::ConsumerIPCClientImpl", %"class.perfetto::ConsumerIPCClientImpl"* %0, i64 0, i32 8, i32 0, i32 0, i32 0
  %48 = bitcast %"class.perfetto::ConsumerIPCClientImpl"*** %47 to i64*
  %49 = load i64, i64* %48, align 8
  %50 = getelementptr inbounds %"class.perfetto::ConsumerIPCClientImpl", %"class.perfetto::ConsumerIPCClientImpl"* %0, i64 0, i32 8, i32 0, i32 0, i32 1
  %51 = load %"class.std::__1::__shared_weak_count"*, %"class.std::__1::__shared_weak_count"** %50, align 8
  %52 = icmp eq %"class.std::__1::__shared_weak_count"* %51, null
  br i1 %52, label %57, label %53

53:                                               ; preds = %46
  %54 = getelementptr inbounds %"class.std::__1::__shared_weak_count", %"class.std::__1::__shared_weak_count"* %51, i64 0, i32 0, i32 1
  %55 = atomicrmw add i64* %54, i64 1 monotonic
  %56 = atomicrmw add i64* %54, i64 1 monotonic
  br label %57

57:                                               ; preds = %46, %53
  %58 = ptrtoint %"class.std::__1::__shared_weak_count"* %51 to i64
  %59 = getelementptr inbounds %"class.std::__1::function.164", %"class.std::__1::function.164"* %8, i64 0, i32 0, i32 1, i32 0
  %60 = getelementptr inbounds %"class.std::__1::function.164", %"class.std::__1::function.164"* %8, i64 0, i32 0, i32 2
  store void (%"union.std::__1::__function::__policy_storage"*, %"class.perfetto::ipc::AsyncResult.170"*)* @"_ZNSt3__110__function16__policy_invokerIFvN8perfetto3ipc11AsyncResultINS2_6protos3gen21EnableTracingResponseEEEEE11__call_implINS0_20__default_alloc_funcIZNS2_21ConsumerIPCClientImpl13EnableTracingERKNS6_11TraceConfigENS2_4base14ScopedResourceIiXadL_ZNSH_9CloseFileEiEELin1ELb1ENSH_8internal22DefaultValidityCheckerIiLin1EEEEEE3$_0S9_EEEEvPKNS0_16__policy_storageEOS8_", void (%"union.std::__1::__function::__policy_storage"*, %"class.perfetto::ipc::AsyncResult.170"*)** %59, align 8
  store %"struct.std::__1::__function::__policy"* @"_ZZNSt3__110__function8__policy15__choose_policyINS0_20__default_alloc_funcIZN8perfetto21ConsumerIPCClientImpl13EnableTracingERKNS4_6protos3gen11TraceConfigENS4_4base14ScopedResourceIiXadL_ZNSB_9CloseFileEiEELin1ELb1ENSB_8internal22DefaultValidityCheckerIiLin1EEEEEE3$_0FvNS4_3ipc11AsyncResultINS7_21EnableTracingResponseEEEEEEEEPKS1_NS_17integral_constantIbLb0EEEE9__policy_", %"struct.std::__1::__function::__policy"** %60, align 8
  %61 = call i8* @_Znwm(i64 16) #13, !noalias !4
  %62 = bitcast i8* %61 to i64*
  store i64 %49, i64* %62, align 8
  %63 = getelementptr inbounds i8, i8* %61, i64 8
  %64 = bitcast i8* %63 to i64*
  store i64 %58, i64* %64, align 8
  %65 = getelementptr inbounds %"class.std::__1::function.164", %"class.std::__1::function.164"* %8, i64 0, i32 0, i32 0, i32 0
  store i8* %61, i8** %65, align 8
  call void @_ZN8perfetto3ipc8DeferredINS_6protos3gen21EnableTracingResponseEE4BindENSt3__18functionIFvNS0_11AsyncResultIS4_EEEEE(%"class.perfetto::ipc::Deferred"* nonnull %7, %"class.std::__1::function.164"* nonnull %8)
  %66 = load %"struct.std::__1::__function::__policy"*, %"struct.std::__1::__function::__policy"** %60, align 8
  %67 = getelementptr inbounds %"struct.std::__1::__function::__policy", %"struct.std::__1::__function::__policy"* %66, i64 0, i32 1
  %68 = load void (i8*)*, void (i8*)** %67, align 8
  %69 = icmp eq void (i8*)* %68, null
  br i1 %69, label %72, label %70

70:                                               ; preds = %57
  %71 = load i8*, i8** %65, align 8
  call void %68(i8* %71) #14
  br label %72

72:                                               ; preds = %57, %70
  %73 = getelementptr inbounds %"class.perfetto::ConsumerIPCClientImpl", %"class.perfetto::ConsumerIPCClientImpl"* %0, i64 0, i32 4
  %74 = getelementptr inbounds %"class.perfetto::ipc::Deferred", %"class.perfetto::ipc::Deferred"* %9, i64 0, i32 0
  call void @_ZN8perfetto3ipc12DeferredBaseC2EOS1_(%"class.perfetto::ipc::DeferredBase"* nonnull %74, %"class.perfetto::ipc::DeferredBase"* nonnull dereferenceable(32) %25) #14
  %75 = getelementptr inbounds %"class.perfetto::base::ScopedResource", %"class.perfetto::base::ScopedResource"* %2, i64 0, i32 0
  %76 = load i32, i32* %75, align 4
  call void @_ZN8perfetto6protos3gen17ConsumerPortProxy13EnableTracingERKNS1_20EnableTracingRequestENS_3ipc8DeferredINS1_21EnableTracingResponseEEEi(%"class.perfetto::protos::gen::ConsumerPortProxy"* %73, %"class.perfetto::protos::gen::EnableTracingRequest"* nonnull dereferenceable(56) %6, %"class.perfetto::ipc::Deferred"* nonnull %9, i32 %76) #14
  call void @_ZN8perfetto3ipc12DeferredBaseD2Ev(%"class.perfetto::ipc::DeferredBase"* nonnull %74) #14
  br i1 %52, label %87, label %77

77:                                               ; preds = %72
  %78 = getelementptr inbounds %"class.std::__1::__shared_weak_count", %"class.std::__1::__shared_weak_count"* %51, i64 0, i32 0, i32 1
  %79 = atomicrmw add i64* %78, i64 -1 acq_rel
  %80 = icmp eq i64 %79, 0
  br i1 %80, label %81, label %87

81:                                               ; preds = %77
  %82 = getelementptr inbounds %"class.std::__1::__shared_weak_count", %"class.std::__1::__shared_weak_count"* %51, i64 0, i32 0
  %83 = bitcast %"class.std::__1::__shared_weak_count"* %51 to void (%"class.std::__1::__shared_count"*)***
  %84 = load void (%"class.std::__1::__shared_count"*)**, void (%"class.std::__1::__shared_count"*)*** %83, align 8
  %85 = getelementptr inbounds void (%"class.std::__1::__shared_count"*)*, void (%"class.std::__1::__shared_count"*)** %84, i64 2
  %86 = load void (%"class.std::__1::__shared_count"*)*, void (%"class.std::__1::__shared_count"*)** %85, align 8
  call void %86(%"class.std::__1::__shared_count"* %82) #14
  call void @_ZNSt3__119__shared_weak_count14__release_weakEv(%"class.std::__1::__shared_weak_count"* nonnull %51) #14
  br label %87

87:                                               ; preds = %72, %77, %81
  call void @_ZN8perfetto3ipc12DeferredBaseD2Ev(%"class.perfetto::ipc::DeferredBase"* nonnull %25) #14
  call void @llvm.lifetime.end.p0i8(i64 32, i8* nonnull %21) #14
  call void @_ZN8perfetto6protos3gen20EnableTracingRequestD1Ev(%"class.perfetto::protos::gen::EnableTracingRequest"* nonnull %6) #14
  call void @llvm.lifetime.end.p0i8(i64 56, i8* nonnull %14) #14
  br label %88

88:                                               ; preds = %3, %87
  ret void
}

; Function Attrs: argmemonly nounwind
declare void @llvm.lifetime.start.p0i8(i64 immarg, i8* nocapture) #5

; Function Attrs: argmemonly nounwind
declare void @llvm.memset.p0i8.i64(i8* nocapture writeonly, i8, i64, i1 immarg) #5

declare void @_ZN8perfetto6protos3gen20EnableTracingRequestC1Ev(%"class.perfetto::protos::gen::EnableTracingRequest"*) unnamed_addr #2

declare dereferenceable(344) %"class.perfetto::protos::gen::TraceConfig"* @_ZN8perfetto6protos3gen11TraceConfigaSERKS2_(%"class.perfetto::protos::gen::TraceConfig"*, %"class.perfetto::protos::gen::TraceConfig"* dereferenceable(344)) local_unnamed_addr #2

; Function Attrs: nounwind ssp uwtable
define linkonce_odr hidden void @_ZN8perfetto3ipc8DeferredINS_6protos3gen21EnableTracingResponseEE4BindENSt3__18functionIFvNS0_11AsyncResultIS4_EEEEE(%"class.perfetto::ipc::Deferred"*, %"class.std::__1::function.164"*) local_unnamed_addr #0 comdat align 2 {
  %3 = alloca %"class.std::__1::function", align 8
  %4 = getelementptr inbounds %"class.std::__1::function.164", %"class.std::__1::function.164"* %1, i64 0, i32 0, i32 2
  %5 = load %"struct.std::__1::__function::__policy"*, %"struct.std::__1::__function::__policy"** %4, align 8
  %6 = getelementptr inbounds %"struct.std::__1::__function::__policy", %"struct.std::__1::__function::__policy"* %5, i64 0, i32 2
  %7 = load i8, i8* %6, align 8, !range !3
  %8 = icmp eq i8 %7, 0
  br i1 %8, label %9, label %59

9:                                                ; preds = %2
  %10 = getelementptr inbounds %"class.std::__1::function.164", %"class.std::__1::function.164"* %1, i64 0, i32 0, i32 0, i32 0
  %11 = load i8*, i8** %10, align 8
  %12 = getelementptr inbounds %"class.std::__1::function.164", %"class.std::__1::function.164"* %1, i64 0, i32 0, i32 0, i32 1
  %13 = bitcast [8 x i8]* %12 to <2 x i64>*
  %14 = load <2 x i64>, <2 x i64>* %13, align 8
  %15 = getelementptr inbounds %"struct.std::__1::__function::__policy", %"struct.std::__1::__function::__policy"* %5, i64 0, i32 0
  %16 = load i8* (i8*)*, i8* (i8*)** %15, align 8
  %17 = icmp eq i8* (i8*)* %16, null
  br i1 %17, label %18, label %20

18:                                               ; preds = %9
  %19 = getelementptr inbounds %"class.perfetto::ipc::Deferred", %"class.perfetto::ipc::Deferred"* %0, i64 0, i32 0
  br label %27

20:                                               ; preds = %9
  %21 = tail call i8* %16(i8* %11) #14
  %22 = load i8* (i8*)*, i8* (i8*)** %15, align 8
  %23 = getelementptr inbounds %"class.perfetto::ipc::Deferred", %"class.perfetto::ipc::Deferred"* %0, i64 0, i32 0
  %24 = icmp eq i8* (i8*)* %22, null
  br i1 %24, label %27, label %25

25:                                               ; preds = %20
  %26 = tail call i8* %22(i8* %21) #14
  br label %27

27:                                               ; preds = %18, %20, %25
  %28 = phi %"class.perfetto::ipc::DeferredBase"* [ %23, %20 ], [ %23, %25 ], [ %19, %18 ]
  %29 = phi i8* [ %21, %20 ], [ %21, %25 ], [ %11, %18 ]
  %30 = phi i8* [ %21, %20 ], [ %26, %25 ], [ %11, %18 ]
  %31 = getelementptr inbounds %"class.std::__1::function", %"class.std::__1::function"* %3, i64 0, i32 0, i32 1, i32 0
  %32 = getelementptr inbounds %"class.std::__1::function", %"class.std::__1::function"* %3, i64 0, i32 0, i32 2
  store void (%"union.std::__1::__function::__policy_storage"*, %"class.perfetto::ipc::AsyncResult"*)* @_ZNSt3__110__function16__policy_invokerIFvN8perfetto3ipc11AsyncResultIN9protozero13CppMessageObjEEEEE11__call_implINS0_20__default_alloc_funcIZNS3_8DeferredINS2_6protos3gen21EnableTracingResponseEE4BindENS_8functionIFvNS4_ISF_EEEEEEUlS7_E_S8_EEEEvPKNS0_16__policy_storageEOS7_, void (%"union.std::__1::__function::__policy_storage"*, %"class.perfetto::ipc::AsyncResult"*)** %31, align 8
  store %"struct.std::__1::__function::__policy"* @_ZZNSt3__110__function8__policy15__choose_policyINS0_20__default_alloc_funcIZN8perfetto3ipc8DeferredINS4_6protos3gen21EnableTracingResponseEE4BindENS_8functionIFvNS5_11AsyncResultIS9_EEEEEEUlNSC_IN9protozero13CppMessageObjEEEE_FvSI_EEEEEPKS1_NS_17integral_constantIbLb0EEEE9__policy_, %"struct.std::__1::__function::__policy"** %32, align 8
  %33 = tail call i8* @_Znwm(i64 32) #13, !noalias !9
  %34 = bitcast i8* %33 to i8**
  store i8* %30, i8** %34, align 8
  %35 = getelementptr inbounds i8, i8* %33, i64 8
  %36 = bitcast i8* %35 to <2 x i64>*
  store <2 x i64> %14, <2 x i64>* %36, align 8
  %37 = getelementptr inbounds i8, i8* %33, i64 24
  %38 = bitcast i8* %37 to %"struct.std::__1::__function::__policy"**
  store %"struct.std::__1::__function::__policy"* %5, %"struct.std::__1::__function::__policy"** %38, align 8
  %39 = getelementptr inbounds %"struct.std::__1::__function::__policy", %"struct.std::__1::__function::__policy"* %5, i64 0, i32 1
  %40 = load void (i8*)*, void (i8*)** %39, align 8
  %41 = icmp eq void (i8*)* %40, null
  %42 = select i1 %41, %"struct.std::__1::__function::__policy"* %5, %"struct.std::__1::__function::__policy"* @_ZZNSt3__110__function8__policy14__create_emptyEvE9__policy_
  %43 = getelementptr inbounds %"class.std::__1::function", %"class.std::__1::function"* %3, i64 0, i32 0, i32 0, i32 0
  store i8* %33, i8** %43, align 8
  call void @_ZN8perfetto3ipc12DeferredBase4BindENSt3__18functionIFvNS0_11AsyncResultIN9protozero13CppMessageObjEEEEEE(%"class.perfetto::ipc::DeferredBase"* %28, %"class.std::__1::function"* nonnull %3) #14
  %44 = load %"struct.std::__1::__function::__policy"*, %"struct.std::__1::__function::__policy"** %32, align 8
  %45 = getelementptr inbounds %"struct.std::__1::__function::__policy", %"struct.std::__1::__function::__policy"* %44, i64 0, i32 1
  %46 = load void (i8*)*, void (i8*)** %45, align 8
  %47 = icmp eq void (i8*)* %46, null
  br i1 %47, label %50, label %48

48:                                               ; preds = %27
  %49 = load i8*, i8** %43, align 8
  call void %46(i8* %49) #14
  br label %50

50:                                               ; preds = %27, %48
  %51 = getelementptr inbounds %"struct.std::__1::__function::__policy", %"struct.std::__1::__function::__policy"* %42, i64 0, i32 1
  %52 = load void (i8*)*, void (i8*)** %51, align 8
  %53 = icmp eq void (i8*)* %52, null
  br i1 %53, label %55, label %54

54:                                               ; preds = %50
  call void %52(i8* %30) #14
  br label %55

55:                                               ; preds = %50, %54
  %56 = load void (i8*)*, void (i8*)** %39, align 8
  %57 = icmp eq void (i8*)* %56, null
  br i1 %57, label %59, label %58

58:                                               ; preds = %55
  call void %56(i8* %29) #14
  br label %59

59:                                               ; preds = %58, %55, %2
  ret void
}

declare void @_ZN8perfetto6protos3gen17ConsumerPortProxy13EnableTracingERKNS1_20EnableTracingRequestENS_3ipc8DeferredINS1_21EnableTracingResponseEEEi(%"class.perfetto::protos::gen::ConsumerPortProxy"*, %"class.perfetto::protos::gen::EnableTracingRequest"* dereferenceable(56), %"class.perfetto::ipc::Deferred"*, i32) local_unnamed_addr #2

; Function Attrs: argmemonly nounwind
declare void @llvm.lifetime.end.p0i8(i64 immarg, i8* nocapture) #5

; Function Attrs: nounwind
declare void @_ZN8perfetto6protos3gen20EnableTracingRequestD1Ev(%"class.perfetto::protos::gen::EnableTracingRequest"*) unnamed_addr #3

; Function Attrs: nounwind ssp uwtable
define hidden void @_ZN8perfetto21ConsumerIPCClientImpl17ChangeTraceConfigERKNS_6protos3gen11TraceConfigE(%"class.perfetto::ConsumerIPCClientImpl"*, %"class.perfetto::protos::gen::TraceConfig"* dereferenceable(344)) unnamed_addr #0 align 2 {
  %3 = alloca %"class.std::__1::function", align 8
  %4 = alloca %"class.std::__1::function.178", align 8
  %5 = alloca %"class.perfetto::ipc::Deferred.177", align 8
  %6 = alloca %"class.std::__1::function.178", align 8
  %7 = alloca %"class.perfetto::protos::gen::ChangeTraceConfigRequest", align 8
  %8 = alloca %"class.perfetto::ipc::Deferred.177", align 8
  %9 = getelementptr inbounds %"class.perfetto::ConsumerIPCClientImpl", %"class.perfetto::ConsumerIPCClientImpl"* %0, i64 0, i32 5
  %10 = load i8, i8* %9, align 8, !range !3
  %11 = icmp eq i8 %10, 0
  br i1 %11, label %59, label %12

12:                                               ; preds = %2
  %13 = bitcast %"class.perfetto::ipc::Deferred.177"* %5 to i8*
  call void @llvm.lifetime.start.p0i8(i64 32, i8* nonnull %13) #14
  %14 = bitcast %"class.std::__1::function"* %3 to i8*
  %15 = bitcast %"class.perfetto::ipc::Deferred.177"* %5 to i8*
  call void @llvm.memset.p0i8.i64(i8* nonnull align 8 %15, i8 -86, i64 32, i1 false)
  call void @llvm.lifetime.start.p0i8(i64 32, i8* nonnull %14)
  %16 = bitcast %"class.std::__1::function.178"* %4 to i8*
  call void @llvm.lifetime.start.p0i8(i64 32, i8* nonnull %16)
  %17 = getelementptr inbounds %"class.perfetto::ipc::Deferred.177", %"class.perfetto::ipc::Deferred.177"* %5, i64 0, i32 0
  %18 = getelementptr inbounds %"class.std::__1::function", %"class.std::__1::function"* %3, i64 0, i32 0, i32 1, i32 0
  store void (%"union.std::__1::__function::__policy_storage"*, %"class.perfetto::ipc::AsyncResult"*)* @_ZNSt3__110__function16__policy_invokerIFvN8perfetto3ipc11AsyncResultIN9protozero13CppMessageObjEEEEE12__call_emptyEPKNS0_16__policy_storageEOS7_, void (%"union.std::__1::__function::__policy_storage"*, %"class.perfetto::ipc::AsyncResult"*)** %18, align 8
  %19 = getelementptr inbounds %"class.std::__1::function", %"class.std::__1::function"* %3, i64 0, i32 0, i32 2
  store %"struct.std::__1::__function::__policy"* @_ZZNSt3__110__function8__policy14__create_emptyEvE9__policy_, %"struct.std::__1::__function::__policy"** %19, align 8
  call void @_ZN8perfetto3ipc12DeferredBaseC2ENSt3__18functionIFvNS0_11AsyncResultIN9protozero13CppMessageObjEEEEEE(%"class.perfetto::ipc::DeferredBase"* nonnull %17, %"class.std::__1::function"* nonnull %3) #14
  %20 = load %"struct.std::__1::__function::__policy"*, %"struct.std::__1::__function::__policy"** %19, align 8
  %21 = getelementptr inbounds %"struct.std::__1::__function::__policy", %"struct.std::__1::__function::__policy"* %20, i64 0, i32 1
  %22 = load void (i8*)*, void (i8*)** %21, align 8
  %23 = icmp eq void (i8*)* %22, null
  br i1 %23, label %27, label %24

24:                                               ; preds = %12
  %25 = getelementptr inbounds %"class.std::__1::function", %"class.std::__1::function"* %3, i64 0, i32 0, i32 0, i32 0
  %26 = load i8*, i8** %25, align 8
  call void %22(i8* %26) #14
  br label %27

27:                                               ; preds = %12, %24
  %28 = getelementptr inbounds %"class.std::__1::function.178", %"class.std::__1::function.178"* %4, i64 0, i32 0, i32 1
  %29 = bitcast %"struct.std::__1::__function::__policy_invoker.183"* %28 to i64*
  store i64 ptrtoint (void (%"union.std::__1::__function::__policy_storage"*, %"class.perfetto::ipc::AsyncResult.184"*)* @_ZNSt3__110__function16__policy_invokerIFvN8perfetto3ipc11AsyncResultINS2_6protos3gen25ChangeTraceConfigResponseEEEEE12__call_emptyEPKNS0_16__policy_storageEOS8_ to i64), i64* %29, align 8
  %30 = getelementptr inbounds %"class.std::__1::function.178", %"class.std::__1::function.178"* %4, i64 0, i32 0, i32 2
  store %"struct.std::__1::__function::__policy"* @_ZZNSt3__110__function8__policy14__create_emptyEvE9__policy_, %"struct.std::__1::__function::__policy"** %30, align 8
  call void @_ZN8perfetto3ipc8DeferredINS_6protos3gen25ChangeTraceConfigResponseEE4BindENSt3__18functionIFvNS0_11AsyncResultIS4_EEEEE(%"class.perfetto::ipc::Deferred.177"* nonnull %5, %"class.std::__1::function.178"* nonnull %4) #14
  %31 = load %"struct.std::__1::__function::__policy"*, %"struct.std::__1::__function::__policy"** %30, align 8
  %32 = getelementptr inbounds %"struct.std::__1::__function::__policy", %"struct.std::__1::__function::__policy"* %31, i64 0, i32 1
  %33 = load void (i8*)*, void (i8*)** %32, align 8
  %34 = icmp eq void (i8*)* %33, null
  br i1 %34, label %38, label %35

35:                                               ; preds = %27
  %36 = getelementptr inbounds %"class.std::__1::function.178", %"class.std::__1::function.178"* %4, i64 0, i32 0, i32 0, i32 0
  %37 = load i8*, i8** %36, align 8
  call void %33(i8* %37) #14
  br label %38

38:                                               ; preds = %35, %27
  call void @llvm.lifetime.end.p0i8(i64 32, i8* nonnull %14)
  call void @llvm.lifetime.end.p0i8(i64 32, i8* nonnull %16)
  %39 = getelementptr inbounds %"class.std::__1::function.178", %"class.std::__1::function.178"* %6, i64 0, i32 0, i32 1, i32 0
  %40 = getelementptr inbounds %"class.std::__1::function.178", %"class.std::__1::function.178"* %6, i64 0, i32 0, i32 2
  store void (%"union.std::__1::__function::__policy_storage"*, %"class.perfetto::ipc::AsyncResult.184"*)* @"_ZNSt3__110__function16__policy_invokerIFvN8perfetto3ipc11AsyncResultINS2_6protos3gen25ChangeTraceConfigResponseEEEEE11__call_implINS0_20__default_alloc_funcIZNS2_21ConsumerIPCClientImpl17ChangeTraceConfigERKNS6_11TraceConfigEE3$_1S9_EEEEvPKNS0_16__policy_storageEOS8_", void (%"union.std::__1::__function::__policy_storage"*, %"class.perfetto::ipc::AsyncResult.184"*)** %39, align 8
  store %"struct.std::__1::__function::__policy"* @"_ZZNSt3__110__function8__policy15__choose_policyINS0_20__default_alloc_funcIZN8perfetto21ConsumerIPCClientImpl17ChangeTraceConfigERKNS4_6protos3gen11TraceConfigEE3$_1FvNS4_3ipc11AsyncResultINS7_25ChangeTraceConfigResponseEEEEEEEEPKS1_NS_17integral_constantIbLb1EEEE9__policy_", %"struct.std::__1::__function::__policy"** %40, align 8
  call void @_ZN8perfetto3ipc8DeferredINS_6protos3gen25ChangeTraceConfigResponseEE4BindENSt3__18functionIFvNS0_11AsyncResultIS4_EEEEE(%"class.perfetto::ipc::Deferred.177"* nonnull %5, %"class.std::__1::function.178"* nonnull %6)
  %41 = load %"struct.std::__1::__function::__policy"*, %"struct.std::__1::__function::__policy"** %40, align 8
  %42 = getelementptr inbounds %"struct.std::__1::__function::__policy", %"struct.std::__1::__function::__policy"* %41, i64 0, i32 1
  %43 = load void (i8*)*, void (i8*)** %42, align 8
  %44 = icmp eq void (i8*)* %43, null
  br i1 %44, label %48, label %45

45:                                               ; preds = %38
  %46 = getelementptr inbounds %"class.std::__1::function.178", %"class.std::__1::function.178"* %6, i64 0, i32 0, i32 0, i32 0
  %47 = load i8*, i8** %46, align 8
  call void %43(i8* %47) #14
  br label %48

48:                                               ; preds = %38, %45
  %49 = bitcast %"class.perfetto::protos::gen::ChangeTraceConfigRequest"* %7 to i8*
  call void @llvm.lifetime.start.p0i8(i64 48, i8* nonnull %49) #14
  %50 = getelementptr inbounds %"class.perfetto::protos::gen::ChangeTraceConfigRequest", %"class.perfetto::protos::gen::ChangeTraceConfigRequest"* %7, i64 0, i32 1, i32 0, i32 0, i32 0, i32 0
  %51 = getelementptr inbounds %"class.perfetto::protos::gen::ChangeTraceConfigRequest", %"class.perfetto::protos::gen::ChangeTraceConfigRequest"* %7, i64 0, i32 3, i32 0, i32 0
  %52 = bitcast %"class.perfetto::protos::gen::ChangeTraceConfigRequest"* %7 to i8*
  call void @llvm.memset.p0i8.i64(i8* nonnull align 8 %52, i8 -86, i64 48, i1 false)
  call void @_ZN8perfetto6protos3gen24ChangeTraceConfigRequestC1Ev(%"class.perfetto::protos::gen::ChangeTraceConfigRequest"* nonnull %7) #14
  %53 = load i64, i64* %51, align 8
  %54 = or i64 %53, 2
  store i64 %54, i64* %51, align 8
  %55 = load %"class.perfetto::protos::gen::TraceConfig"*, %"class.perfetto::protos::gen::TraceConfig"** %50, align 8
  %56 = call dereferenceable(344) %"class.perfetto::protos::gen::TraceConfig"* @_ZN8perfetto6protos3gen11TraceConfigaSERKS2_(%"class.perfetto::protos::gen::TraceConfig"* %55, %"class.perfetto::protos::gen::TraceConfig"* dereferenceable(344) %1) #14
  %57 = getelementptr inbounds %"class.perfetto::ConsumerIPCClientImpl", %"class.perfetto::ConsumerIPCClientImpl"* %0, i64 0, i32 4
  %58 = getelementptr inbounds %"class.perfetto::ipc::Deferred.177", %"class.perfetto::ipc::Deferred.177"* %8, i64 0, i32 0
  call void @_ZN8perfetto3ipc12DeferredBaseC2EOS1_(%"class.perfetto::ipc::DeferredBase"* nonnull %58, %"class.perfetto::ipc::DeferredBase"* nonnull dereferenceable(32) %17) #14
  call void @_ZN8perfetto6protos3gen17ConsumerPortProxy17ChangeTraceConfigERKNS1_24ChangeTraceConfigRequestENS_3ipc8DeferredINS1_25ChangeTraceConfigResponseEEEi(%"class.perfetto::protos::gen::ConsumerPortProxy"* %57, %"class.perfetto::protos::gen::ChangeTraceConfigRequest"* nonnull dereferenceable(48) %7, %"class.perfetto::ipc::Deferred.177"* nonnull %8, i32 -1) #14
  call void @_ZN8perfetto3ipc12DeferredBaseD2Ev(%"class.perfetto::ipc::DeferredBase"* nonnull %58) #14
  call void @_ZN8perfetto6protos3gen24ChangeTraceConfigRequestD1Ev(%"class.perfetto::protos::gen::ChangeTraceConfigRequest"* nonnull %7) #14
  call void @llvm.lifetime.end.p0i8(i64 48, i8* nonnull %49) #14
  call void @_ZN8perfetto3ipc12DeferredBaseD2Ev(%"class.perfetto::ipc::DeferredBase"* nonnull %17) #14
  call void @llvm.lifetime.end.p0i8(i64 32, i8* nonnull %13) #14
  br label %59

59:                                               ; preds = %2, %48
  ret void
}

; Function Attrs: nounwind ssp uwtable
define linkonce_odr hidden void @_ZN8perfetto3ipc8DeferredINS_6protos3gen25ChangeTraceConfigResponseEE4BindENSt3__18functionIFvNS0_11AsyncResultIS4_EEEEE(%"class.perfetto::ipc::Deferred.177"*, %"class.std::__1::function.178"*) local_unnamed_addr #0 comdat align 2 {
  %3 = alloca %"class.std::__1::function", align 8
  %4 = getelementptr inbounds %"class.std::__1::function.178", %"class.std::__1::function.178"* %1, i64 0, i32 0, i32 2
  %5 = load %"struct.std::__1::__function::__policy"*, %"struct.std::__1::__function::__policy"** %4, align 8
  %6 = getelementptr inbounds %"struct.std::__1::__function::__policy", %"struct.std::__1::__function::__policy"* %5, i64 0, i32 2
  %7 = load i8, i8* %6, align 8, !range !3
  %8 = icmp eq i8 %7, 0
  br i1 %8, label %9, label %59

9:                                                ; preds = %2
  %10 = getelementptr inbounds %"class.std::__1::function.178", %"class.std::__1::function.178"* %1, i64 0, i32 0, i32 0, i32 0
  %11 = load i8*, i8** %10, align 8
  %12 = getelementptr inbounds %"class.std::__1::function.178", %"class.std::__1::function.178"* %1, i64 0, i32 0, i32 0, i32 1
  %13 = bitcast [8 x i8]* %12 to <2 x i64>*
  %14 = load <2 x i64>, <2 x i64>* %13, align 8
  %15 = getelementptr inbounds %"struct.std::__1::__function::__policy", %"struct.std::__1::__function::__policy"* %5, i64 0, i32 0
  %16 = load i8* (i8*)*, i8* (i8*)** %15, align 8
  %17 = icmp eq i8* (i8*)* %16, null
  br i1 %17, label %18, label %20

18:                                               ; preds = %9
  %19 = getelementptr inbounds %"class.perfetto::ipc::Deferred.177", %"class.perfetto::ipc::Deferred.177"* %0, i64 0, i32 0
  br label %27

20:                                               ; preds = %9
  %21 = tail call i8* %16(i8* %11) #14
  %22 = load i8* (i8*)*, i8* (i8*)** %15, align 8
  %23 = getelementptr inbounds %"class.perfetto::ipc::Deferred.177", %"class.perfetto::ipc::Deferred.177"* %0, i64 0, i32 0
  %24 = icmp eq i8* (i8*)* %22, null
  br i1 %24, label %27, label %25

25:                                               ; preds = %20
  %26 = tail call i8* %22(i8* %21) #14
  br label %27

27:                                               ; preds = %18, %20, %25
  %28 = phi %"class.perfetto::ipc::DeferredBase"* [ %23, %20 ], [ %23, %25 ], [ %19, %18 ]
  %29 = phi i8* [ %21, %20 ], [ %21, %25 ], [ %11, %18 ]
  %30 = phi i8* [ %21, %20 ], [ %26, %25 ], [ %11, %18 ]
  %31 = getelementptr inbounds %"class.std::__1::function", %"class.std::__1::function"* %3, i64 0, i32 0, i32 1, i32 0
  %32 = getelementptr inbounds %"class.std::__1::function", %"class.std::__1::function"* %3, i64 0, i32 0, i32 2
  store void (%"union.std::__1::__function::__policy_storage"*, %"class.perfetto::ipc::AsyncResult"*)* @_ZNSt3__110__function16__policy_invokerIFvN8perfetto3ipc11AsyncResultIN9protozero13CppMessageObjEEEEE11__call_implINS0_20__default_alloc_funcIZNS3_8DeferredINS2_6protos3gen25ChangeTraceConfigResponseEE4BindENS_8functionIFvNS4_ISF_EEEEEEUlS7_E_S8_EEEEvPKNS0_16__policy_storageEOS7_, void (%"union.std::__1::__function::__policy_storage"*, %"class.perfetto::ipc::AsyncResult"*)** %31, align 8
  store %"struct.std::__1::__function::__policy"* @_ZZNSt3__110__function8__policy15__choose_policyINS0_20__default_alloc_funcIZN8perfetto3ipc8DeferredINS4_6protos3gen25ChangeTraceConfigResponseEE4BindENS_8functionIFvNS5_11AsyncResultIS9_EEEEEEUlNSC_IN9protozero13CppMessageObjEEEE_FvSI_EEEEEPKS1_NS_17integral_constantIbLb0EEEE9__policy_, %"struct.std::__1::__function::__policy"** %32, align 8
  %33 = tail call i8* @_Znwm(i64 32) #13, !noalias !14
  %34 = bitcast i8* %33 to i8**
  store i8* %30, i8** %34, align 8
  %35 = getelementptr inbounds i8, i8* %33, i64 8
  %36 = bitcast i8* %35 to <2 x i64>*
  store <2 x i64> %14, <2 x i64>* %36, align 8
  %37 = getelementptr inbounds i8, i8* %33, i64 24
  %38 = bitcast i8* %37 to %"struct.std::__1::__function::__policy"**
  store %"struct.std::__1::__function::__policy"* %5, %"struct.std::__1::__function::__policy"** %38, align 8
  %39 = getelementptr inbounds %"struct.std::__1::__function::__policy", %"struct.std::__1::__function::__policy"* %5, i64 0, i32 1
  %40 = load void (i8*)*, void (i8*)** %39, align 8
  %41 = icmp eq void (i8*)* %40, null
  %42 = select i1 %41, %"struct.std::__1::__function::__policy"* %5, %"struct.std::__1::__function::__policy"* @_ZZNSt3__110__function8__policy14__create_emptyEvE9__policy_
  %43 = getelementptr inbounds %"class.std::__1::function", %"class.std::__1::function"* %3, i64 0, i32 0, i32 0, i32 0
  store i8* %33, i8** %43, align 8
  call void @_ZN8perfetto3ipc12DeferredBase4BindENSt3__18functionIFvNS0_11AsyncResultIN9protozero13CppMessageObjEEEEEE(%"class.perfetto::ipc::DeferredBase"* %28, %"class.std::__1::function"* nonnull %3) #14
  %44 = load %"struct.std::__1::__function::__policy"*, %"struct.std::__1::__function::__policy"** %32, align 8
  %45 = getelementptr inbounds %"struct.std::__1::__function::__policy", %"struct.std::__1::__function::__policy"* %44, i64 0, i32 1
  %46 = load void (i8*)*, void (i8*)** %45, align 8
  %47 = icmp eq void (i8*)* %46, null
  br i1 %47, label %50, label %48

48:                                               ; preds = %27
  %49 = load i8*, i8** %43, align 8
  call void %46(i8* %49) #14
  br label %50

50:                                               ; preds = %27, %48
  %51 = getelementptr inbounds %"struct.std::__1::__function::__policy", %"struct.std::__1::__function::__policy"* %42, i64 0, i32 1
  %52 = load void (i8*)*, void (i8*)** %51, align 8
  %53 = icmp eq void (i8*)* %52, null
  br i1 %53, label %55, label %54

54:                                               ; preds = %50
  call void %52(i8* %30) #14
  br label %55

55:                                               ; preds = %50, %54
  %56 = load void (i8*)*, void (i8*)** %39, align 8
  %57 = icmp eq void (i8*)* %56, null
  br i1 %57, label %59, label %58

58:                                               ; preds = %55
  call void %56(i8* %29) #14
  br label %59

59:                                               ; preds = %58, %55, %2
  ret void
}

declare void @_ZN8perfetto6protos3gen24ChangeTraceConfigRequestC1Ev(%"class.perfetto::protos::gen::ChangeTraceConfigRequest"*) unnamed_addr #2

declare void @_ZN8perfetto6protos3gen17ConsumerPortProxy17ChangeTraceConfigERKNS1_24ChangeTraceConfigRequestENS_3ipc8DeferredINS1_25ChangeTraceConfigResponseEEEi(%"class.perfetto::protos::gen::ConsumerPortProxy"*, %"class.perfetto::protos::gen::ChangeTraceConfigRequest"* dereferenceable(48), %"class.perfetto::ipc::Deferred.177"*, i32) local_unnamed_addr #2

; Function Attrs: nounwind
declare void @_ZN8perfetto6protos3gen24ChangeTraceConfigRequestD1Ev(%"class.perfetto::protos::gen::ChangeTraceConfigRequest"*) unnamed_addr #3

; Function Attrs: nounwind ssp uwtable
define hidden void @_ZN8perfetto21ConsumerIPCClientImpl12StartTracingEv(%"class.perfetto::ConsumerIPCClientImpl"*) unnamed_addr #0 align 2 {
  %2 = alloca %"class.std::__1::function", align 8
  %3 = alloca %"class.std::__1::function.193", align 8
  %4 = alloca %"class.perfetto::ipc::Deferred.192", align 8
  %5 = alloca %"class.std::__1::function.193", align 8
  %6 = alloca %"class.perfetto::protos::gen::StartTracingRequest", align 8
  %7 = alloca %"class.perfetto::ipc::Deferred.192", align 8
  %8 = getelementptr inbounds %"class.perfetto::ConsumerIPCClientImpl", %"class.perfetto::ConsumerIPCClientImpl"* %0, i64 0, i32 5
  %9 = load i8, i8* %8, align 8, !range !3
  %10 = icmp eq i8 %9, 0
  br i1 %10, label %52, label %11

11:                                               ; preds = %1
  %12 = bitcast %"class.perfetto::ipc::Deferred.192"* %4 to i8*
  call void @llvm.lifetime.start.p0i8(i64 32, i8* nonnull %12) #14
  %13 = bitcast %"class.std::__1::function"* %2 to i8*
  %14 = bitcast %"class.perfetto::ipc::Deferred.192"* %4 to i8*
  call void @llvm.memset.p0i8.i64(i8* nonnull align 8 %14, i8 -86, i64 32, i1 false)
  call void @llvm.lifetime.start.p0i8(i64 32, i8* nonnull %13)
  %15 = bitcast %"class.std::__1::function.193"* %3 to i8*
  call void @llvm.lifetime.start.p0i8(i64 32, i8* nonnull %15)
  %16 = getelementptr inbounds %"class.perfetto::ipc::Deferred.192", %"class.perfetto::ipc::Deferred.192"* %4, i64 0, i32 0
  %17 = getelementptr inbounds %"class.std::__1::function", %"class.std::__1::function"* %2, i64 0, i32 0, i32 1, i32 0
  store void (%"union.std::__1::__function::__policy_storage"*, %"class.perfetto::ipc::AsyncResult"*)* @_ZNSt3__110__function16__policy_invokerIFvN8perfetto3ipc11AsyncResultIN9protozero13CppMessageObjEEEEE12__call_emptyEPKNS0_16__policy_storageEOS7_, void (%"union.std::__1::__function::__policy_storage"*, %"class.perfetto::ipc::AsyncResult"*)** %17, align 8
  %18 = getelementptr inbounds %"class.std::__1::function", %"class.std::__1::function"* %2, i64 0, i32 0, i32 2
  store %"struct.std::__1::__function::__policy"* @_ZZNSt3__110__function8__policy14__create_emptyEvE9__policy_, %"struct.std::__1::__function::__policy"** %18, align 8
  call void @_ZN8perfetto3ipc12DeferredBaseC2ENSt3__18functionIFvNS0_11AsyncResultIN9protozero13CppMessageObjEEEEEE(%"class.perfetto::ipc::DeferredBase"* nonnull %16, %"class.std::__1::function"* nonnull %2) #14
  %19 = load %"struct.std::__1::__function::__policy"*, %"struct.std::__1::__function::__policy"** %18, align 8
  %20 = getelementptr inbounds %"struct.std::__1::__function::__policy", %"struct.std::__1::__function::__policy"* %19, i64 0, i32 1
  %21 = load void (i8*)*, void (i8*)** %20, align 8
  %22 = icmp eq void (i8*)* %21, null
  br i1 %22, label %26, label %23

23:                                               ; preds = %11
  %24 = getelementptr inbounds %"class.std::__1::function", %"class.std::__1::function"* %2, i64 0, i32 0, i32 0, i32 0
  %25 = load i8*, i8** %24, align 8
  call void %21(i8* %25) #14
  br label %26

26:                                               ; preds = %11, %23
  %27 = getelementptr inbounds %"class.std::__1::function.193", %"class.std::__1::function.193"* %3, i64 0, i32 0, i32 1
  %28 = bitcast %"struct.std::__1::__function::__policy_invoker.198"* %27 to i64*
  store i64 ptrtoint (void (%"union.std::__1::__function::__policy_storage"*, %"class.perfetto::ipc::AsyncResult.199"*)* @_ZNSt3__110__function16__policy_invokerIFvN8perfetto3ipc11AsyncResultINS2_6protos3gen20StartTracingResponseEEEEE12__call_emptyEPKNS0_16__policy_storageEOS8_ to i64), i64* %28, align 8
  %29 = getelementptr inbounds %"class.std::__1::function.193", %"class.std::__1::function.193"* %3, i64 0, i32 0, i32 2
  store %"struct.std::__1::__function::__policy"* @_ZZNSt3__110__function8__policy14__create_emptyEvE9__policy_, %"struct.std::__1::__function::__policy"** %29, align 8
  call void @_ZN8perfetto3ipc8DeferredINS_6protos3gen20StartTracingResponseEE4BindENSt3__18functionIFvNS0_11AsyncResultIS4_EEEEE(%"class.perfetto::ipc::Deferred.192"* nonnull %4, %"class.std::__1::function.193"* nonnull %3) #14
  %30 = load %"struct.std::__1::__function::__policy"*, %"struct.std::__1::__function::__policy"** %29, align 8
  %31 = getelementptr inbounds %"struct.std::__1::__function::__policy", %"struct.std::__1::__function::__policy"* %30, i64 0, i32 1
  %32 = load void (i8*)*, void (i8*)** %31, align 8
  %33 = icmp eq void (i8*)* %32, null
  br i1 %33, label %37, label %34

34:                                               ; preds = %26
  %35 = getelementptr inbounds %"class.std::__1::function.193", %"class.std::__1::function.193"* %3, i64 0, i32 0, i32 0, i32 0
  %36 = load i8*, i8** %35, align 8
  call void %32(i8* %36) #14
  br label %37

37:                                               ; preds = %34, %26
  call void @llvm.lifetime.end.p0i8(i64 32, i8* nonnull %13)
  call void @llvm.lifetime.end.p0i8(i64 32, i8* nonnull %15)
  %38 = getelementptr inbounds %"class.std::__1::function.193", %"class.std::__1::function.193"* %5, i64 0, i32 0, i32 1, i32 0
  %39 = getelementptr inbounds %"class.std::__1::function.193", %"class.std::__1::function.193"* %5, i64 0, i32 0, i32 2
  store void (%"union.std::__1::__function::__policy_storage"*, %"class.perfetto::ipc::AsyncResult.199"*)* @"_ZNSt3__110__function16__policy_invokerIFvN8perfetto3ipc11AsyncResultINS2_6protos3gen20StartTracingResponseEEEEE11__call_implINS0_20__default_alloc_funcIZNS2_21ConsumerIPCClientImpl12StartTracingEvE3$_2S9_EEEEvPKNS0_16__policy_storageEOS8_", void (%"union.std::__1::__function::__policy_storage"*, %"class.perfetto::ipc::AsyncResult.199"*)** %38, align 8
  store %"struct.std::__1::__function::__policy"* @"_ZZNSt3__110__function8__policy15__choose_policyINS0_20__default_alloc_funcIZN8perfetto21ConsumerIPCClientImpl12StartTracingEvE3$_2FvNS4_3ipc11AsyncResultINS4_6protos3gen20StartTracingResponseEEEEEEEEPKS1_NS_17integral_constantIbLb1EEEE9__policy_", %"struct.std::__1::__function::__policy"** %39, align 8
  call void @_ZN8perfetto3ipc8DeferredINS_6protos3gen20StartTracingResponseEE4BindENSt3__18functionIFvNS0_11AsyncResultIS4_EEEEE(%"class.perfetto::ipc::Deferred.192"* nonnull %4, %"class.std::__1::function.193"* nonnull %5)
  %40 = load %"struct.std::__1::__function::__policy"*, %"struct.std::__1::__function::__policy"** %39, align 8
  %41 = getelementptr inbounds %"struct.std::__1::__function::__policy", %"struct.std::__1::__function::__policy"* %40, i64 0, i32 1
  %42 = load void (i8*)*, void (i8*)** %41, align 8
  %43 = icmp eq void (i8*)* %42, null
  br i1 %43, label %47, label %44

44:                                               ; preds = %37
  %45 = getelementptr inbounds %"class.std::__1::function.193", %"class.std::__1::function.193"* %5, i64 0, i32 0, i32 0, i32 0
  %46 = load i8*, i8** %45, align 8
  call void %42(i8* %46) #14
  br label %47

47:                                               ; preds = %37, %44
  %48 = bitcast %"class.perfetto::protos::gen::StartTracingRequest"* %6 to i8*
  call void @llvm.lifetime.start.p0i8(i64 40, i8* nonnull %48) #14
  %49 = bitcast %"class.perfetto::protos::gen::StartTracingRequest"* %6 to i8*
  call void @llvm.memset.p0i8.i64(i8* nonnull align 8 %49, i8 -86, i64 40, i1 false)
  call void @_ZN8perfetto6protos3gen19StartTracingRequestC1Ev(%"class.perfetto::protos::gen::StartTracingRequest"* nonnull %6) #14
  %50 = getelementptr inbounds %"class.perfetto::ConsumerIPCClientImpl", %"class.perfetto::ConsumerIPCClientImpl"* %0, i64 0, i32 4
  %51 = getelementptr inbounds %"class.perfetto::ipc::Deferred.192", %"class.perfetto::ipc::Deferred.192"* %7, i64 0, i32 0
  call void @_ZN8perfetto3ipc12DeferredBaseC2EOS1_(%"class.perfetto::ipc::DeferredBase"* nonnull %51, %"class.perfetto::ipc::DeferredBase"* nonnull dereferenceable(32) %16) #14
  call void @_ZN8perfetto6protos3gen17ConsumerPortProxy12StartTracingERKNS1_19StartTracingRequestENS_3ipc8DeferredINS1_20StartTracingResponseEEEi(%"class.perfetto::protos::gen::ConsumerPortProxy"* %50, %"class.perfetto::protos::gen::StartTracingRequest"* nonnull dereferenceable(40) %6, %"class.perfetto::ipc::Deferred.192"* nonnull %7, i32 -1) #14
  call void @_ZN8perfetto3ipc12DeferredBaseD2Ev(%"class.perfetto::ipc::DeferredBase"* nonnull %51) #14
  call void @_ZN8perfetto6protos3gen19StartTracingRequestD1Ev(%"class.perfetto::protos::gen::StartTracingRequest"* nonnull %6) #14
  call void @llvm.lifetime.end.p0i8(i64 40, i8* nonnull %48) #14
  call void @_ZN8perfetto3ipc12DeferredBaseD2Ev(%"class.perfetto::ipc::DeferredBase"* nonnull %16) #14
  call void @llvm.lifetime.end.p0i8(i64 32, i8* nonnull %12) #14
  br label %52

52:                                               ; preds = %1, %47
  ret void
}

; Function Attrs: nounwind ssp uwtable
define linkonce_odr hidden void @_ZN8perfetto3ipc8DeferredINS_6protos3gen20StartTracingResponseEE4BindENSt3__18functionIFvNS0_11AsyncResultIS4_EEEEE(%"class.perfetto::ipc::Deferred.192"*, %"class.std::__1::function.193"*) local_unnamed_addr #0 comdat align 2 {
  %3 = alloca %"class.std::__1::function", align 8
  %4 = getelementptr inbounds %"class.std::__1::function.193", %"class.std::__1::function.193"* %1, i64 0, i32 0, i32 2
  %5 = load %"struct.std::__1::__function::__policy"*, %"struct.std::__1::__function::__policy"** %4, align 8
  %6 = getelementptr inbounds %"struct.std::__1::__function::__policy", %"struct.std::__1::__function::__policy"* %5, i64 0, i32 2
  %7 = load i8, i8* %6, align 8, !range !3
  %8 = icmp eq i8 %7, 0
  br i1 %8, label %9, label %59

9:                                                ; preds = %2
  %10 = getelementptr inbounds %"class.std::__1::function.193", %"class.std::__1::function.193"* %1, i64 0, i32 0, i32 0, i32 0
  %11 = load i8*, i8** %10, align 8
  %12 = getelementptr inbounds %"class.std::__1::function.193", %"class.std::__1::function.193"* %1, i64 0, i32 0, i32 0, i32 1
  %13 = bitcast [8 x i8]* %12 to <2 x i64>*
  %14 = load <2 x i64>, <2 x i64>* %13, align 8
  %15 = getelementptr inbounds %"struct.std::__1::__function::__policy", %"struct.std::__1::__function::__policy"* %5, i64 0, i32 0
  %16 = load i8* (i8*)*, i8* (i8*)** %15, align 8
  %17 = icmp eq i8* (i8*)* %16, null
  br i1 %17, label %18, label %20

18:                                               ; preds = %9
  %19 = getelementptr inbounds %"class.perfetto::ipc::Deferred.192", %"class.perfetto::ipc::Deferred.192"* %0, i64 0, i32 0
  br label %27

20:                                               ; preds = %9
  %21 = tail call i8* %16(i8* %11) #14
  %22 = load i8* (i8*)*, i8* (i8*)** %15, align 8
  %23 = getelementptr inbounds %"class.perfetto::ipc::Deferred.192", %"class.perfetto::ipc::Deferred.192"* %0, i64 0, i32 0
  %24 = icmp eq i8* (i8*)* %22, null
  br i1 %24, label %27, label %25

25:                                               ; preds = %20
  %26 = tail call i8* %22(i8* %21) #14
  br label %27

27:                                               ; preds = %18, %20, %25
  %28 = phi %"class.perfetto::ipc::DeferredBase"* [ %23, %20 ], [ %23, %25 ], [ %19, %18 ]
  %29 = phi i8* [ %21, %20 ], [ %21, %25 ], [ %11, %18 ]
  %30 = phi i8* [ %21, %20 ], [ %26, %25 ], [ %11, %18 ]
  %31 = getelementptr inbounds %"class.std::__1::function", %"class.std::__1::function"* %3, i64 0, i32 0, i32 1, i32 0
  %32 = getelementptr inbounds %"class.std::__1::function", %"class.std::__1::function"* %3, i64 0, i32 0, i32 2
  store void (%"union.std::__1::__function::__policy_storage"*, %"class.perfetto::ipc::AsyncResult"*)* @_ZNSt3__110__function16__policy_invokerIFvN8perfetto3ipc11AsyncResultIN9protozero13CppMessageObjEEEEE11__call_implINS0_20__default_alloc_funcIZNS3_8DeferredINS2_6protos3gen20StartTracingResponseEE4BindENS_8functionIFvNS4_ISF_EEEEEEUlS7_E_S8_EEEEvPKNS0_16__policy_storageEOS7_, void (%"union.std::__1::__function::__policy_storage"*, %"class.perfetto::ipc::AsyncResult"*)** %31, align 8
  store %"struct.std::__1::__function::__policy"* @_ZZNSt3__110__function8__policy15__choose_policyINS0_20__default_alloc_funcIZN8perfetto3ipc8DeferredINS4_6protos3gen20StartTracingResponseEE4BindENS_8functionIFvNS5_11AsyncResultIS9_EEEEEEUlNSC_IN9protozero13CppMessageObjEEEE_FvSI_EEEEEPKS1_NS_17integral_constantIbLb0EEEE9__policy_, %"struct.std::__1::__function::__policy"** %32, align 8
  %33 = tail call i8* @_Znwm(i64 32) #13, !noalias !19
  %34 = bitcast i8* %33 to i8**
  store i8* %30, i8** %34, align 8
  %35 = getelementptr inbounds i8, i8* %33, i64 8
  %36 = bitcast i8* %35 to <2 x i64>*
  store <2 x i64> %14, <2 x i64>* %36, align 8
  %37 = getelementptr inbounds i8, i8* %33, i64 24
  %38 = bitcast i8* %37 to %"struct.std::__1::__function::__policy"**
  store %"struct.std::__1::__function::__policy"* %5, %"struct.std::__1::__function::__policy"** %38, align 8
  %39 = getelementptr inbounds %"struct.std::__1::__function::__policy", %"struct.std::__1::__function::__policy"* %5, i64 0, i32 1
  %40 = load void (i8*)*, void (i8*)** %39, align 8
  %41 = icmp eq void (i8*)* %40, null
  %42 = select i1 %41, %"struct.std::__1::__function::__policy"* %5, %"struct.std::__1::__function::__policy"* @_ZZNSt3__110__function8__policy14__create_emptyEvE9__policy_
  %43 = getelementptr inbounds %"class.std::__1::function", %"class.std::__1::function"* %3, i64 0, i32 0, i32 0, i32 0
  store i8* %33, i8** %43, align 8
  call void @_ZN8perfetto3ipc12DeferredBase4BindENSt3__18functionIFvNS0_11AsyncResultIN9protozero13CppMessageObjEEEEEE(%"class.perfetto::ipc::DeferredBase"* %28, %"class.std::__1::function"* nonnull %3) #14
  %44 = load %"struct.std::__1::__function::__policy"*, %"struct.std::__1::__function::__policy"** %32, align 8
  %45 = getelementptr inbounds %"struct.std::__1::__function::__policy", %"struct.std::__1::__function::__policy"* %44, i64 0, i32 1
  %46 = load void (i8*)*, void (i8*)** %45, align 8
  %47 = icmp eq void (i8*)* %46, null
  br i1 %47, label %50, label %48

48:                                               ; preds = %27
  %49 = load i8*, i8** %43, align 8
  call void %46(i8* %49) #14
  br label %50

50:                                               ; preds = %27, %48
  %51 = getelementptr inbounds %"struct.std::__1::__function::__policy", %"struct.std::__1::__function::__policy"* %42, i64 0, i32 1
  %52 = load void (i8*)*, void (i8*)** %51, align 8
  %53 = icmp eq void (i8*)* %52, null
  br i1 %53, label %55, label %54

54:                                               ; preds = %50
  call void %52(i8* %30) #14
  br label %55

55:                                               ; preds = %50, %54
  %56 = load void (i8*)*, void (i8*)** %39, align 8
  %57 = icmp eq void (i8*)* %56, null
  br i1 %57, label %59, label %58

58:                                               ; preds = %55
  call void %56(i8* %29) #14
  br label %59

59:                                               ; preds = %58, %55, %2
  ret void
}

declare void @_ZN8perfetto6protos3gen19StartTracingRequestC1Ev(%"class.perfetto::protos::gen::StartTracingRequest"*) unnamed_addr #2

declare void @_ZN8perfetto6protos3gen17ConsumerPortProxy12StartTracingERKNS1_19StartTracingRequestENS_3ipc8DeferredINS1_20StartTracingResponseEEEi(%"class.perfetto::protos::gen::ConsumerPortProxy"*, %"class.perfetto::protos::gen::StartTracingRequest"* dereferenceable(40), %"class.perfetto::ipc::Deferred.192"*, i32) local_unnamed_addr #2

; Function Attrs: nounwind
declare void @_ZN8perfetto6protos3gen19StartTracingRequestD1Ev(%"class.perfetto::protos::gen::StartTracingRequest"*) unnamed_addr #3

; Function Attrs: nounwind ssp uwtable
define hidden void @_ZN8perfetto21ConsumerIPCClientImpl14DisableTracingEv(%"class.perfetto::ConsumerIPCClientImpl"*) unnamed_addr #0 align 2 {
  %2 = alloca %"class.std::__1::function", align 8
  %3 = alloca %"class.std::__1::function.209", align 8
  %4 = alloca %"class.perfetto::ipc::Deferred.208", align 8
  %5 = alloca %"class.std::__1::function.209", align 8
  %6 = alloca %"class.perfetto::protos::gen::DisableTracingRequest", align 8
  %7 = alloca %"class.perfetto::ipc::Deferred.208", align 8
  %8 = getelementptr inbounds %"class.perfetto::ConsumerIPCClientImpl", %"class.perfetto::ConsumerIPCClientImpl"* %0, i64 0, i32 5
  %9 = load i8, i8* %8, align 8, !range !3
  %10 = icmp eq i8 %9, 0
  br i1 %10, label %51, label %11

11:                                               ; preds = %1
  %12 = bitcast %"class.perfetto::ipc::Deferred.208"* %4 to i8*
  call void @llvm.lifetime.start.p0i8(i64 32, i8* nonnull %12) #14
  %13 = bitcast %"class.std::__1::function"* %2 to i8*
  %14 = bitcast %"class.perfetto::ipc::Deferred.208"* %4 to i8*
  call void @llvm.memset.p0i8.i64(i8* nonnull align 8 %14, i8 -86, i64 32, i1 false)
  call void @llvm.lifetime.start.p0i8(i64 32, i8* nonnull %13)
  %15 = bitcast %"class.std::__1::function.209"* %3 to i8*
  call void @llvm.lifetime.start.p0i8(i64 32, i8* nonnull %15)
  %16 = getelementptr inbounds %"class.perfetto::ipc::Deferred.208", %"class.perfetto::ipc::Deferred.208"* %4, i64 0, i32 0
  %17 = getelementptr inbounds %"class.std::__1::function", %"class.std::__1::function"* %2, i64 0, i32 0, i32 1, i32 0
  store void (%"union.std::__1::__function::__policy_storage"*, %"class.perfetto::ipc::AsyncResult"*)* @_ZNSt3__110__function16__policy_invokerIFvN8perfetto3ipc11AsyncResultIN9protozero13CppMessageObjEEEEE12__call_emptyEPKNS0_16__policy_storageEOS7_, void (%"union.std::__1::__function::__policy_storage"*, %"class.perfetto::ipc::AsyncResult"*)** %17, align 8
  %18 = getelementptr inbounds %"class.std::__1::function", %"class.std::__1::function"* %2, i64 0, i32 0, i32 2
  store %"struct.std::__1::__function::__policy"* @_ZZNSt3__110__function8__policy14__create_emptyEvE9__policy_, %"struct.std::__1::__function::__policy"** %18, align 8
  call void @_ZN8perfetto3ipc12DeferredBaseC2ENSt3__18functionIFvNS0_11AsyncResultIN9protozero13CppMessageObjEEEEEE(%"class.perfetto::ipc::DeferredBase"* nonnull %16, %"class.std::__1::function"* nonnull %2) #14
  %19 = load %"struct.std::__1::__function::__policy"*, %"struct.std::__1::__function::__policy"** %18, align 8
  %20 = getelementptr inbounds %"struct.std::__1::__function::__policy", %"struct.std::__1::__function::__policy"* %19, i64 0, i32 1
  %21 = load void (i8*)*, void (i8*)** %20, align 8
  %22 = icmp eq void (i8*)* %21, null
  br i1 %22, label %26, label %23

23:                                               ; preds = %11
  %24 = getelementptr inbounds %"class.std::__1::function", %"class.std::__1::function"* %2, i64 0, i32 0, i32 0, i32 0
  %25 = load i8*, i8** %24, align 8
  call void %21(i8* %25) #14
  br label %26

26:                                               ; preds = %11, %23
  %27 = getelementptr inbounds %"class.std::__1::function.209", %"class.std::__1::function.209"* %3, i64 0, i32 0, i32 1
  %28 = bitcast %"struct.std::__1::__function::__policy_invoker.214"* %27 to i64*
  store i64 ptrtoint (void (%"union.std::__1::__function::__policy_storage"*, %"class.perfetto::ipc::AsyncResult.215"*)* @_ZNSt3__110__function16__policy_invokerIFvN8perfetto3ipc11AsyncResultINS2_6protos3gen22DisableTracingResponseEEEEE12__call_emptyEPKNS0_16__policy_storageEOS8_ to i64), i64* %28, align 8
  %29 = getelementptr inbounds %"class.std::__1::function.209", %"class.std::__1::function.209"* %3, i64 0, i32 0, i32 2
  store %"struct.std::__1::__function::__policy"* @_ZZNSt3__110__function8__policy14__create_emptyEvE9__policy_, %"struct.std::__1::__function::__policy"** %29, align 8
  call void @_ZN8perfetto3ipc8DeferredINS_6protos3gen22DisableTracingResponseEE4BindENSt3__18functionIFvNS0_11AsyncResultIS4_EEEEE(%"class.perfetto::ipc::Deferred.208"* nonnull %4, %"class.std::__1::function.209"* nonnull %3) #14
  %30 = load %"struct.std::__1::__function::__policy"*, %"struct.std::__1::__function::__policy"** %29, align 8
  %31 = getelementptr inbounds %"struct.std::__1::__function::__policy", %"struct.std::__1::__function::__policy"* %30, i64 0, i32 1
  %32 = load void (i8*)*, void (i8*)** %31, align 8
  %33 = icmp eq void (i8*)* %32, null
  br i1 %33, label %37, label %34

34:                                               ; preds = %26
  %35 = getelementptr inbounds %"class.std::__1::function.209", %"class.std::__1::function.209"* %3, i64 0, i32 0, i32 0, i32 0
  %36 = load i8*, i8** %35, align 8
  call void %32(i8* %36) #14
  br label %37

37:                                               ; preds = %34, %26
  call void @llvm.lifetime.end.p0i8(i64 32, i8* nonnull %13)
  call void @llvm.lifetime.end.p0i8(i64 32, i8* nonnull %15)
  %38 = getelementptr inbounds %"class.std::__1::function.209", %"class.std::__1::function.209"* %5, i64 0, i32 0, i32 1, i32 0
  %39 = getelementptr inbounds %"class.std::__1::function.209", %"class.std::__1::function.209"* %5, i64 0, i32 0, i32 2
  store void (%"union.std::__1::__function::__policy_storage"*, %"class.perfetto::ipc::AsyncResult.215"*)* @"_ZNSt3__110__function16__policy_invokerIFvN8perfetto3ipc11AsyncResultINS2_6protos3gen22DisableTracingResponseEEEEE11__call_implINS0_20__default_alloc_funcIZNS2_21ConsumerIPCClientImpl14DisableTracingEvE3$_3S9_EEEEvPKNS0_16__policy_storageEOS8_", void (%"union.std::__1::__function::__policy_storage"*, %"class.perfetto::ipc::AsyncResult.215"*)** %38, align 8
  store %"struct.std::__1::__function::__policy"* @"_ZZNSt3__110__function8__policy15__choose_policyINS0_20__default_alloc_funcIZN8perfetto21ConsumerIPCClientImpl14DisableTracingEvE3$_3FvNS4_3ipc11AsyncResultINS4_6protos3gen22DisableTracingResponseEEEEEEEEPKS1_NS_17integral_constantIbLb1EEEE9__policy_", %"struct.std::__1::__function::__policy"** %39, align 8
  call void @_ZN8perfetto3ipc8DeferredINS_6protos3gen22DisableTracingResponseEE4BindENSt3__18functionIFvNS0_11AsyncResultIS4_EEEEE(%"class.perfetto::ipc::Deferred.208"* nonnull %4, %"class.std::__1::function.209"* nonnull %5)
  %40 = load %"struct.std::__1::__function::__policy"*, %"struct.std::__1::__function::__policy"** %39, align 8
  %41 = getelementptr inbounds %"struct.std::__1::__function::__policy", %"struct.std::__1::__function::__policy"* %40, i64 0, i32 1
  %42 = load void (i8*)*, void (i8*)** %41, align 8
  %43 = icmp eq void (i8*)* %42, null
  br i1 %43, label %47, label %44

44:                                               ; preds = %37
  %45 = getelementptr inbounds %"class.std::__1::function.209", %"class.std::__1::function.209"* %5, i64 0, i32 0, i32 0, i32 0
  %46 = load i8*, i8** %45, align 8
  call void %42(i8* %46) #14
  br label %47

47:                                               ; preds = %37, %44
  %48 = getelementptr inbounds %"class.perfetto::ConsumerIPCClientImpl", %"class.perfetto::ConsumerIPCClientImpl"* %0, i64 0, i32 4
  %49 = bitcast %"class.perfetto::protos::gen::DisableTracingRequest"* %6 to i8*
  call void @llvm.lifetime.start.p0i8(i64 40, i8* nonnull %49) #14
  call void @_ZN8perfetto6protos3gen21DisableTracingRequestC1Ev(%"class.perfetto::protos::gen::DisableTracingRequest"* nonnull %6) #14
  %50 = getelementptr inbounds %"class.perfetto::ipc::Deferred.208", %"class.perfetto::ipc::Deferred.208"* %7, i64 0, i32 0
  call void @_ZN8perfetto3ipc12DeferredBaseC2EOS1_(%"class.perfetto::ipc::DeferredBase"* nonnull %50, %"class.perfetto::ipc::DeferredBase"* nonnull dereferenceable(32) %16) #14
  call void @_ZN8perfetto6protos3gen17ConsumerPortProxy14DisableTracingERKNS1_21DisableTracingRequestENS_3ipc8DeferredINS1_22DisableTracingResponseEEEi(%"class.perfetto::protos::gen::ConsumerPortProxy"* %48, %"class.perfetto::protos::gen::DisableTracingRequest"* nonnull dereferenceable(40) %6, %"class.perfetto::ipc::Deferred.208"* nonnull %7, i32 -1) #14
  call void @_ZN8perfetto3ipc12DeferredBaseD2Ev(%"class.perfetto::ipc::DeferredBase"* nonnull %50) #14
  call void @_ZN8perfetto6protos3gen21DisableTracingRequestD1Ev(%"class.perfetto::protos::gen::DisableTracingRequest"* nonnull %6) #14
  call void @llvm.lifetime.end.p0i8(i64 40, i8* nonnull %49) #14
  call void @_ZN8perfetto3ipc12DeferredBaseD2Ev(%"class.perfetto::ipc::DeferredBase"* nonnull %16) #14
  call void @llvm.lifetime.end.p0i8(i64 32, i8* nonnull %12) #14
  br label %51

51:                                               ; preds = %1, %47
  ret void
}

; Function Attrs: nounwind ssp uwtable
define linkonce_odr hidden void @_ZN8perfetto3ipc8DeferredINS_6protos3gen22DisableTracingResponseEE4BindENSt3__18functionIFvNS0_11AsyncResultIS4_EEEEE(%"class.perfetto::ipc::Deferred.208"*, %"class.std::__1::function.209"*) local_unnamed_addr #0 comdat align 2 {
  %3 = alloca %"class.std::__1::function", align 8
  %4 = getelementptr inbounds %"class.std::__1::function.209", %"class.std::__1::function.209"* %1, i64 0, i32 0, i32 2
  %5 = load %"struct.std::__1::__function::__policy"*, %"struct.std::__1::__function::__policy"** %4, align 8
  %6 = getelementptr inbounds %"struct.std::__1::__function::__policy", %"struct.std::__1::__function::__policy"* %5, i64 0, i32 2
  %7 = load i8, i8* %6, align 8, !range !3
  %8 = icmp eq i8 %7, 0
  br i1 %8, label %9, label %59

9:                                                ; preds = %2
  %10 = getelementptr inbounds %"class.std::__1::function.209", %"class.std::__1::function.209"* %1, i64 0, i32 0, i32 0, i32 0
  %11 = load i8*, i8** %10, align 8
  %12 = getelementptr inbounds %"class.std::__1::function.209", %"class.std::__1::function.209"* %1, i64 0, i32 0, i32 0, i32 1
  %13 = bitcast [8 x i8]* %12 to <2 x i64>*
  %14 = load <2 x i64>, <2 x i64>* %13, align 8
  %15 = getelementptr inbounds %"struct.std::__1::__function::__policy", %"struct.std::__1::__function::__policy"* %5, i64 0, i32 0
  %16 = load i8* (i8*)*, i8* (i8*)** %15, align 8
  %17 = icmp eq i8* (i8*)* %16, null
  br i1 %17, label %18, label %20

18:                                               ; preds = %9
  %19 = getelementptr inbounds %"class.perfetto::ipc::Deferred.208", %"class.perfetto::ipc::Deferred.208"* %0, i64 0, i32 0
  br label %27

20:                                               ; preds = %9
  %21 = tail call i8* %16(i8* %11) #14
  %22 = load i8* (i8*)*, i8* (i8*)** %15, align 8
  %23 = getelementptr inbounds %"class.perfetto::ipc::Deferred.208", %"class.perfetto::ipc::Deferred.208"* %0, i64 0, i32 0
  %24 = icmp eq i8* (i8*)* %22, null
  br i1 %24, label %27, label %25

25:                                               ; preds = %20
  %26 = tail call i8* %22(i8* %21) #14
  br label %27

27:                                               ; preds = %18, %20, %25
  %28 = phi %"class.perfetto::ipc::DeferredBase"* [ %23, %20 ], [ %23, %25 ], [ %19, %18 ]
  %29 = phi i8* [ %21, %20 ], [ %21, %25 ], [ %11, %18 ]
  %30 = phi i8* [ %21, %20 ], [ %26, %25 ], [ %11, %18 ]
  %31 = getelementptr inbounds %"class.std::__1::function", %"class.std::__1::function"* %3, i64 0, i32 0, i32 1, i32 0
  %32 = getelementptr inbounds %"class.std::__1::function", %"class.std::__1::function"* %3, i64 0, i32 0, i32 2
  store void (%"union.std::__1::__function::__policy_storage"*, %"class.perfetto::ipc::AsyncResult"*)* @_ZNSt3__110__function16__policy_invokerIFvN8perfetto3ipc11AsyncResultIN9protozero13CppMessageObjEEEEE11__call_implINS0_20__default_alloc_funcIZNS3_8DeferredINS2_6protos3gen22DisableTracingResponseEE4BindENS_8functionIFvNS4_ISF_EEEEEEUlS7_E_S8_EEEEvPKNS0_16__policy_storageEOS7_, void (%"union.std::__1::__function::__policy_storage"*, %"class.perfetto::ipc::AsyncResult"*)** %31, align 8
  store %"struct.std::__1::__function::__policy"* @_ZZNSt3__110__function8__policy15__choose_policyINS0_20__default_alloc_funcIZN8perfetto3ipc8DeferredINS4_6protos3gen22DisableTracingResponseEE4BindENS_8functionIFvNS5_11AsyncResultIS9_EEEEEEUlNSC_IN9protozero13CppMessageObjEEEE_FvSI_EEEEEPKS1_NS_17integral_constantIbLb0EEEE9__policy_, %"struct.std::__1::__function::__policy"** %32, align 8
  %33 = tail call i8* @_Znwm(i64 32) #13, !noalias !24
  %34 = bitcast i8* %33 to i8**
  store i8* %30, i8** %34, align 8
  %35 = getelementptr inbounds i8, i8* %33, i64 8
  %36 = bitcast i8* %35 to <2 x i64>*
  store <2 x i64> %14, <2 x i64>* %36, align 8
  %37 = getelementptr inbounds i8, i8* %33, i64 24
  %38 = bitcast i8* %37 to %"struct.std::__1::__function::__policy"**
  store %"struct.std::__1::__function::__policy"* %5, %"struct.std::__1::__function::__policy"** %38, align 8
  %39 = getelementptr inbounds %"struct.std::__1::__function::__policy", %"struct.std::__1::__function::__policy"* %5, i64 0, i32 1
  %40 = load void (i8*)*, void (i8*)** %39, align 8
  %41 = icmp eq void (i8*)* %40, null
  %42 = select i1 %41, %"struct.std::__1::__function::__policy"* %5, %"struct.std::__1::__function::__policy"* @_ZZNSt3__110__function8__policy14__create_emptyEvE9__policy_
  %43 = getelementptr inbounds %"class.std::__1::function", %"class.std::__1::function"* %3, i64 0, i32 0, i32 0, i32 0
  store i8* %33, i8** %43, align 8
  call void @_ZN8perfetto3ipc12DeferredBase4BindENSt3__18functionIFvNS0_11AsyncResultIN9protozero13CppMessageObjEEEEEE(%"class.perfetto::ipc::DeferredBase"* %28, %"class.std::__1::function"* nonnull %3) #14
  %44 = load %"struct.std::__1::__function::__policy"*, %"struct.std::__1::__function::__policy"** %32, align 8
  %45 = getelementptr inbounds %"struct.std::__1::__function::__policy", %"struct.std::__1::__function::__policy"* %44, i64 0, i32 1
  %46 = load void (i8*)*, void (i8*)** %45, align 8
  %47 = icmp eq void (i8*)* %46, null
  br i1 %47, label %50, label %48

48:                                               ; preds = %27
  %49 = load i8*, i8** %43, align 8
  call void %46(i8* %49) #14
  br label %50

50:                                               ; preds = %27, %48
  %51 = getelementptr inbounds %"struct.std::__1::__function::__policy", %"struct.std::__1::__function::__policy"* %42, i64 0, i32 1
  %52 = load void (i8*)*, void (i8*)** %51, align 8
  %53 = icmp eq void (i8*)* %52, null
  br i1 %53, label %55, label %54

54:                                               ; preds = %50
  call void %52(i8* %30) #14
  br label %55

55:                                               ; preds = %50, %54
  %56 = load void (i8*)*, void (i8*)** %39, align 8
  %57 = icmp eq void (i8*)* %56, null
  br i1 %57, label %59, label %58

58:                                               ; preds = %55
  call void %56(i8* %29) #14
  br label %59

59:                                               ; preds = %58, %55, %2
  ret void
}

declare void @_ZN8perfetto6protos3gen17ConsumerPortProxy14DisableTracingERKNS1_21DisableTracingRequestENS_3ipc8DeferredINS1_22DisableTracingResponseEEEi(%"class.perfetto::protos::gen::ConsumerPortProxy"*, %"class.perfetto::protos::gen::DisableTracingRequest"* dereferenceable(40), %"class.perfetto::ipc::Deferred.208"*, i32) local_unnamed_addr #2

declare void @_ZN8perfetto6protos3gen21DisableTracingRequestC1Ev(%"class.perfetto::protos::gen::DisableTracingRequest"*) unnamed_addr #2

; Function Attrs: nounwind
declare void @_ZN8perfetto6protos3gen21DisableTracingRequestD1Ev(%"class.perfetto::protos::gen::DisableTracingRequest"*) unnamed_addr #3

; Function Attrs: nounwind ssp uwtable
define hidden void @_ZN8perfetto21ConsumerIPCClientImpl11ReadBuffersEv(%"class.perfetto::ConsumerIPCClientImpl"*) unnamed_addr #0 align 2 {
  %2 = alloca %"class.std::__1::function", align 8
  %3 = alloca %"class.std::__1::function.225", align 8
  %4 = alloca %"class.perfetto::ipc::Deferred.224", align 8
  %5 = alloca %"class.std::__1::function.225", align 8
  %6 = alloca %"class.perfetto::protos::gen::ReadBuffersRequest", align 8
  %7 = alloca %"class.perfetto::ipc::Deferred.224", align 8
  %8 = getelementptr inbounds %"class.perfetto::ConsumerIPCClientImpl", %"class.perfetto::ConsumerIPCClientImpl"* %0, i64 0, i32 5
  %9 = load i8, i8* %8, align 8, !range !3
  %10 = icmp eq i8 %9, 0
  br i1 %10, label %53, label %11

11:                                               ; preds = %1
  %12 = bitcast %"class.perfetto::ipc::Deferred.224"* %4 to i8*
  call void @llvm.lifetime.start.p0i8(i64 32, i8* nonnull %12) #14
  %13 = bitcast %"class.std::__1::function"* %2 to i8*
  %14 = bitcast %"class.perfetto::ipc::Deferred.224"* %4 to i8*
  call void @llvm.memset.p0i8.i64(i8* nonnull align 8 %14, i8 -86, i64 32, i1 false)
  call void @llvm.lifetime.start.p0i8(i64 32, i8* nonnull %13)
  %15 = bitcast %"class.std::__1::function.225"* %3 to i8*
  call void @llvm.lifetime.start.p0i8(i64 32, i8* nonnull %15)
  %16 = getelementptr inbounds %"class.perfetto::ipc::Deferred.224", %"class.perfetto::ipc::Deferred.224"* %4, i64 0, i32 0
  %17 = getelementptr inbounds %"class.std::__1::function", %"class.std::__1::function"* %2, i64 0, i32 0, i32 1, i32 0
  store void (%"union.std::__1::__function::__policy_storage"*, %"class.perfetto::ipc::AsyncResult"*)* @_ZNSt3__110__function16__policy_invokerIFvN8perfetto3ipc11AsyncResultIN9protozero13CppMessageObjEEEEE12__call_emptyEPKNS0_16__policy_storageEOS7_, void (%"union.std::__1::__function::__policy_storage"*, %"class.perfetto::ipc::AsyncResult"*)** %17, align 8
  %18 = getelementptr inbounds %"class.std::__1::function", %"class.std::__1::function"* %2, i64 0, i32 0, i32 2
  store %"struct.std::__1::__function::__policy"* @_ZZNSt3__110__function8__policy14__create_emptyEvE9__policy_, %"struct.std::__1::__function::__policy"** %18, align 8
  call void @_ZN8perfetto3ipc12DeferredBaseC2ENSt3__18functionIFvNS0_11AsyncResultIN9protozero13CppMessageObjEEEEEE(%"class.perfetto::ipc::DeferredBase"* nonnull %16, %"class.std::__1::function"* nonnull %2) #14
  %19 = load %"struct.std::__1::__function::__policy"*, %"struct.std::__1::__function::__policy"** %18, align 8
  %20 = getelementptr inbounds %"struct.std::__1::__function::__policy", %"struct.std::__1::__function::__policy"* %19, i64 0, i32 1
  %21 = load void (i8*)*, void (i8*)** %20, align 8
  %22 = icmp eq void (i8*)* %21, null
  br i1 %22, label %26, label %23

23:                                               ; preds = %11
  %24 = getelementptr inbounds %"class.std::__1::function", %"class.std::__1::function"* %2, i64 0, i32 0, i32 0, i32 0
  %25 = load i8*, i8** %24, align 8
  call void %21(i8* %25) #14
  br label %26

26:                                               ; preds = %11, %23
  %27 = getelementptr inbounds %"class.std::__1::function.225", %"class.std::__1::function.225"* %3, i64 0, i32 0, i32 1
  %28 = bitcast %"struct.std::__1::__function::__policy_invoker.230"* %27 to i64*
  store i64 ptrtoint (void (%"union.std::__1::__function::__policy_storage"*, %"class.perfetto::ipc::AsyncResult.231"*)* @_ZNSt3__110__function16__policy_invokerIFvN8perfetto3ipc11AsyncResultINS2_6protos3gen19ReadBuffersResponseEEEEE12__call_emptyEPKNS0_16__policy_storageEOS8_ to i64), i64* %28, align 8
  %29 = getelementptr inbounds %"class.std::__1::function.225", %"class.std::__1::function.225"* %3, i64 0, i32 0, i32 2
  store %"struct.std::__1::__function::__policy"* @_ZZNSt3__110__function8__policy14__create_emptyEvE9__policy_, %"struct.std::__1::__function::__policy"** %29, align 8
  call void @_ZN8perfetto3ipc8DeferredINS_6protos3gen19ReadBuffersResponseEE4BindENSt3__18functionIFvNS0_11AsyncResultIS4_EEEEE(%"class.perfetto::ipc::Deferred.224"* nonnull %4, %"class.std::__1::function.225"* nonnull %3) #14
  %30 = load %"struct.std::__1::__function::__policy"*, %"struct.std::__1::__function::__policy"** %29, align 8
  %31 = getelementptr inbounds %"struct.std::__1::__function::__policy", %"struct.std::__1::__function::__policy"* %30, i64 0, i32 1
  %32 = load void (i8*)*, void (i8*)** %31, align 8
  %33 = icmp eq void (i8*)* %32, null
  br i1 %33, label %37, label %34

34:                                               ; preds = %26
  %35 = getelementptr inbounds %"class.std::__1::function.225", %"class.std::__1::function.225"* %3, i64 0, i32 0, i32 0, i32 0
  %36 = load i8*, i8** %35, align 8
  call void %32(i8* %36) #14
  br label %37

37:                                               ; preds = %34, %26
  call void @llvm.lifetime.end.p0i8(i64 32, i8* nonnull %13)
  call void @llvm.lifetime.end.p0i8(i64 32, i8* nonnull %15)
  %38 = ptrtoint %"class.perfetto::ConsumerIPCClientImpl"* %0 to i64
  %39 = getelementptr inbounds %"class.std::__1::function.225", %"class.std::__1::function.225"* %5, i64 0, i32 0, i32 1, i32 0
  %40 = getelementptr inbounds %"class.std::__1::function.225", %"class.std::__1::function.225"* %5, i64 0, i32 0, i32 2
  store void (%"union.std::__1::__function::__policy_storage"*, %"class.perfetto::ipc::AsyncResult.231"*)* @"_ZNSt3__110__function16__policy_invokerIFvN8perfetto3ipc11AsyncResultINS2_6protos3gen19ReadBuffersResponseEEEEE11__call_implINS0_20__default_alloc_funcIZNS2_21ConsumerIPCClientImpl11ReadBuffersEvE3$_4S9_EEEEvPKNS0_16__policy_storageEOS8_", void (%"union.std::__1::__function::__policy_storage"*, %"class.perfetto::ipc::AsyncResult.231"*)** %39, align 8
  store %"struct.std::__1::__function::__policy"* @"_ZZNSt3__110__function8__policy15__choose_policyINS0_20__default_alloc_funcIZN8perfetto21ConsumerIPCClientImpl11ReadBuffersEvE3$_4FvNS4_3ipc11AsyncResultINS4_6protos3gen19ReadBuffersResponseEEEEEEEEPKS1_NS_17integral_constantIbLb1EEEE9__policy_", %"struct.std::__1::__function::__policy"** %40, align 8
  %41 = bitcast %"class.std::__1::function.225"* %5 to i64*
  store i64 %38, i64* %41, align 8
  call void @_ZN8perfetto3ipc8DeferredINS_6protos3gen19ReadBuffersResponseEE4BindENSt3__18functionIFvNS0_11AsyncResultIS4_EEEEE(%"class.perfetto::ipc::Deferred.224"* nonnull %4, %"class.std::__1::function.225"* nonnull %5)
  %42 = load %"struct.std::__1::__function::__policy"*, %"struct.std::__1::__function::__policy"** %40, align 8
  %43 = getelementptr inbounds %"struct.std::__1::__function::__policy", %"struct.std::__1::__function::__policy"* %42, i64 0, i32 1
  %44 = load void (i8*)*, void (i8*)** %43, align 8
  %45 = icmp eq void (i8*)* %44, null
  br i1 %45, label %49, label %46

46:                                               ; preds = %37
  %47 = getelementptr inbounds %"class.std::__1::function.225", %"class.std::__1::function.225"* %5, i64 0, i32 0, i32 0, i32 0
  %48 = load i8*, i8** %47, align 8
  call void %44(i8* %48) #14
  br label %49

49:                                               ; preds = %37, %46
  %50 = getelementptr inbounds %"class.perfetto::ConsumerIPCClientImpl", %"class.perfetto::ConsumerIPCClientImpl"* %0, i64 0, i32 4
  %51 = bitcast %"class.perfetto::protos::gen::ReadBuffersRequest"* %6 to i8*
  call void @llvm.lifetime.start.p0i8(i64 40, i8* nonnull %51) #14
  call void @_ZN8perfetto6protos3gen18ReadBuffersRequestC1Ev(%"class.perfetto::protos::gen::ReadBuffersRequest"* nonnull %6) #14
  %52 = getelementptr inbounds %"class.perfetto::ipc::Deferred.224", %"class.perfetto::ipc::Deferred.224"* %7, i64 0, i32 0
  call void @_ZN8perfetto3ipc12DeferredBaseC2EOS1_(%"class.perfetto::ipc::DeferredBase"* nonnull %52, %"class.perfetto::ipc::DeferredBase"* nonnull dereferenceable(32) %16) #14
  call void @_ZN8perfetto6protos3gen17ConsumerPortProxy11ReadBuffersERKNS1_18ReadBuffersRequestENS_3ipc8DeferredINS1_19ReadBuffersResponseEEEi(%"class.perfetto::protos::gen::ConsumerPortProxy"* %50, %"class.perfetto::protos::gen::ReadBuffersRequest"* nonnull dereferenceable(40) %6, %"class.perfetto::ipc::Deferred.224"* nonnull %7, i32 -1) #14
  call void @_ZN8perfetto3ipc12DeferredBaseD2Ev(%"class.perfetto::ipc::DeferredBase"* nonnull %52) #14
  call void @_ZN8perfetto6protos3gen18ReadBuffersRequestD1Ev(%"class.perfetto::protos::gen::ReadBuffersRequest"* nonnull %6) #14
  call void @llvm.lifetime.end.p0i8(i64 40, i8* nonnull %51) #14
  call void @_ZN8perfetto3ipc12DeferredBaseD2Ev(%"class.perfetto::ipc::DeferredBase"* nonnull %16) #14
  call void @llvm.lifetime.end.p0i8(i64 32, i8* nonnull %12) #14
  br label %53

53:                                               ; preds = %1, %49
  ret void
}

; Function Attrs: nounwind ssp uwtable
define linkonce_odr hidden void @_ZN8perfetto3ipc8DeferredINS_6protos3gen19ReadBuffersResponseEE4BindENSt3__18functionIFvNS0_11AsyncResultIS4_EEEEE(%"class.perfetto::ipc::Deferred.224"*, %"class.std::__1::function.225"*) local_unnamed_addr #0 comdat align 2 {
  %3 = alloca %"class.std::__1::function", align 8
  %4 = getelementptr inbounds %"class.std::__1::function.225", %"class.std::__1::function.225"* %1, i64 0, i32 0, i32 2
  %5 = load %"struct.std::__1::__function::__policy"*, %"struct.std::__1::__function::__policy"** %4, align 8
  %6 = getelementptr inbounds %"struct.std::__1::__function::__policy", %"struct.std::__1::__function::__policy"* %5, i64 0, i32 2
  %7 = load i8, i8* %6, align 8, !range !3
  %8 = icmp eq i8 %7, 0
  br i1 %8, label %9, label %59

9:                                                ; preds = %2
  %10 = getelementptr inbounds %"class.std::__1::function.225", %"class.std::__1::function.225"* %1, i64 0, i32 0, i32 0, i32 0
  %11 = load i8*, i8** %10, align 8
  %12 = getelementptr inbounds %"class.std::__1::function.225", %"class.std::__1::function.225"* %1, i64 0, i32 0, i32 0, i32 1
  %13 = bitcast [8 x i8]* %12 to <2 x i64>*
  %14 = load <2 x i64>, <2 x i64>* %13, align 8
  %15 = getelementptr inbounds %"struct.std::__1::__function::__policy", %"struct.std::__1::__function::__policy"* %5, i64 0, i32 0
  %16 = load i8* (i8*)*, i8* (i8*)** %15, align 8
  %17 = icmp eq i8* (i8*)* %16, null
  br i1 %17, label %18, label %20

18:                                               ; preds = %9
  %19 = getelementptr inbounds %"class.perfetto::ipc::Deferred.224", %"class.perfetto::ipc::Deferred.224"* %0, i64 0, i32 0
  br label %27

20:                                               ; preds = %9
  %21 = tail call i8* %16(i8* %11) #14
  %22 = load i8* (i8*)*, i8* (i8*)** %15, align 8
  %23 = getelementptr inbounds %"class.perfetto::ipc::Deferred.224", %"class.perfetto::ipc::Deferred.224"* %0, i64 0, i32 0
  %24 = icmp eq i8* (i8*)* %22, null
  br i1 %24, label %27, label %25

25:                                               ; preds = %20
  %26 = tail call i8* %22(i8* %21) #14
  br label %27

27:                                               ; preds = %18, %20, %25
  %28 = phi %"class.perfetto::ipc::DeferredBase"* [ %23, %20 ], [ %23, %25 ], [ %19, %18 ]
  %29 = phi i8* [ %21, %20 ], [ %21, %25 ], [ %11, %18 ]
  %30 = phi i8* [ %21, %20 ], [ %26, %25 ], [ %11, %18 ]
  %31 = getelementptr inbounds %"class.std::__1::function", %"class.std::__1::function"* %3, i64 0, i32 0, i32 1, i32 0
  %32 = getelementptr inbounds %"class.std::__1::function", %"class.std::__1::function"* %3, i64 0, i32 0, i32 2
  store void (%"union.std::__1::__function::__policy_storage"*, %"class.perfetto::ipc::AsyncResult"*)* @_ZNSt3__110__function16__policy_invokerIFvN8perfetto3ipc11AsyncResultIN9protozero13CppMessageObjEEEEE11__call_implINS0_20__default_alloc_funcIZNS3_8DeferredINS2_6protos3gen19ReadBuffersResponseEE4BindENS_8functionIFvNS4_ISF_EEEEEEUlS7_E_S8_EEEEvPKNS0_16__policy_storageEOS7_, void (%"union.std::__1::__function::__policy_storage"*, %"class.perfetto::ipc::AsyncResult"*)** %31, align 8
  store %"struct.std::__1::__function::__policy"* @_ZZNSt3__110__function8__policy15__choose_policyINS0_20__default_alloc_funcIZN8perfetto3ipc8DeferredINS4_6protos3gen19ReadBuffersResponseEE4BindENS_8functionIFvNS5_11AsyncResultIS9_EEEEEEUlNSC_IN9protozero13CppMessageObjEEEE_FvSI_EEEEEPKS1_NS_17integral_constantIbLb0EEEE9__policy_, %"struct.std::__1::__function::__policy"** %32, align 8
  %33 = tail call i8* @_Znwm(i64 32) #13, !noalias !29
  %34 = bitcast i8* %33 to i8**
  store i8* %30, i8** %34, align 8
  %35 = getelementptr inbounds i8, i8* %33, i64 8
  %36 = bitcast i8* %35 to <2 x i64>*
  store <2 x i64> %14, <2 x i64>* %36, align 8
  %37 = getelementptr inbounds i8, i8* %33, i64 24
  %38 = bitcast i8* %37 to %"struct.std::__1::__function::__policy"**
  store %"struct.std::__1::__function::__policy"* %5, %"struct.std::__1::__function::__policy"** %38, align 8
  %39 = getelementptr inbounds %"struct.std::__1::__function::__policy", %"struct.std::__1::__function::__policy"* %5, i64 0, i32 1
  %40 = load void (i8*)*, void (i8*)** %39, align 8
  %41 = icmp eq void (i8*)* %40, null
  %42 = select i1 %41, %"struct.std::__1::__function::__policy"* %5, %"struct.std::__1::__function::__policy"* @_ZZNSt3__110__function8__policy14__create_emptyEvE9__policy_
  %43 = getelementptr inbounds %"class.std::__1::function", %"class.std::__1::function"* %3, i64 0, i32 0, i32 0, i32 0
  store i8* %33, i8** %43, align 8
  call void @_ZN8perfetto3ipc12DeferredBase4BindENSt3__18functionIFvNS0_11AsyncResultIN9protozero13CppMessageObjEEEEEE(%"class.perfetto::ipc::DeferredBase"* %28, %"class.std::__1::function"* nonnull %3) #14
  %44 = load %"struct.std::__1::__function::__policy"*, %"struct.std::__1::__function::__policy"** %32, align 8
  %45 = getelementptr inbounds %"struct.std::__1::__function::__policy", %"struct.std::__1::__function::__policy"* %44, i64 0, i32 1
  %46 = load void (i8*)*, void (i8*)** %45, align 8
  %47 = icmp eq void (i8*)* %46, null
  br i1 %47, label %50, label %48

48:                                               ; preds = %27
  %49 = load i8*, i8** %43, align 8
  call void %46(i8* %49) #14
  br label %50

50:                                               ; preds = %27, %48
  %51 = getelementptr inbounds %"struct.std::__1::__function::__policy", %"struct.std::__1::__function::__policy"* %42, i64 0, i32 1
  %52 = load void (i8*)*, void (i8*)** %51, align 8
  %53 = icmp eq void (i8*)* %52, null
  br i1 %53, label %55, label %54

54:                                               ; preds = %50
  call void %52(i8* %30) #14
  br label %55

55:                                               ; preds = %50, %54
  %56 = load void (i8*)*, void (i8*)** %39, align 8
  %57 = icmp eq void (i8*)* %56, null
  br i1 %57, label %59, label %58

58:                                               ; preds = %55
  call void %56(i8* %29) #14
  br label %59

59:                                               ; preds = %58, %55, %2
  ret void
}

declare void @_ZN8perfetto6protos3gen17ConsumerPortProxy11ReadBuffersERKNS1_18ReadBuffersRequestENS_3ipc8DeferredINS1_19ReadBuffersResponseEEEi(%"class.perfetto::protos::gen::ConsumerPortProxy"*, %"class.perfetto::protos::gen::ReadBuffersRequest"* dereferenceable(40), %"class.perfetto::ipc::Deferred.224"*, i32) local_unnamed_addr #2

declare void @_ZN8perfetto6protos3gen18ReadBuffersRequestC1Ev(%"class.perfetto::protos::gen::ReadBuffersRequest"*) unnamed_addr #2

; Function Attrs: nounwind
declare void @_ZN8perfetto6protos3gen18ReadBuffersRequestD1Ev(%"class.perfetto::protos::gen::ReadBuffersRequest"*) unnamed_addr #3

; Function Attrs: nounwind ssp uwtable
define hidden void @_ZN8perfetto21ConsumerIPCClientImpl21OnReadBuffersResponseENS_3ipc11AsyncResultINS_6protos3gen19ReadBuffersResponseEEE(%"class.perfetto::ConsumerIPCClientImpl"*, %"class.perfetto::protos::gen::ReadBuffersResponse"*, i64) local_unnamed_addr #0 align 2 {
  %4 = alloca %"class.std::__1::vector.246", align 8
  %5 = alloca %"struct.perfetto::Slice", align 8
  %6 = alloca %"class.std::__1::vector.246", align 8
  %7 = trunc i64 %2 to i8
  %8 = icmp eq %"class.perfetto::protos::gen::ReadBuffersResponse"* %1, null
  br i1 %8, label %131, label %9

9:                                                ; preds = %3
  %10 = bitcast %"class.std::__1::vector.246"* %4 to i8*
  call void @llvm.lifetime.start.p0i8(i64 24, i8* nonnull %10) #14
  %11 = getelementptr inbounds %"class.std::__1::vector.246", %"class.std::__1::vector.246"* %4, i64 0, i32 0, i32 0
  %12 = getelementptr inbounds %"class.std::__1::vector.246", %"class.std::__1::vector.246"* %4, i64 0, i32 0, i32 1
  %13 = getelementptr inbounds %"class.std::__1::vector.246", %"class.std::__1::vector.246"* %4, i64 0, i32 0, i32 2, i32 0, i32 0
  call void @llvm.memset.p0i8.i64(i8* nonnull align 8 %10, i8 0, i64 24, i1 false) #14
  %14 = getelementptr inbounds %"class.perfetto::protos::gen::ReadBuffersResponse", %"class.perfetto::protos::gen::ReadBuffersResponse"* %1, i64 0, i32 1, i32 0, i32 0
  %15 = load %"class.perfetto::protos::gen::ReadBuffersResponse_Slice"*, %"class.perfetto::protos::gen::ReadBuffersResponse_Slice"** %14, align 8
  %16 = getelementptr inbounds %"class.perfetto::protos::gen::ReadBuffersResponse", %"class.perfetto::protos::gen::ReadBuffersResponse"* %1, i64 0, i32 1, i32 0, i32 1
  %17 = load %"class.perfetto::protos::gen::ReadBuffersResponse_Slice"*, %"class.perfetto::protos::gen::ReadBuffersResponse_Slice"** %16, align 8
  %18 = icmp eq %"class.perfetto::protos::gen::ReadBuffersResponse_Slice"* %15, %17
  br i1 %18, label %31, label %19

19:                                               ; preds = %9
  %20 = getelementptr inbounds %"class.perfetto::ConsumerIPCClientImpl", %"class.perfetto::ConsumerIPCClientImpl"* %0, i64 0, i32 7
  %21 = getelementptr inbounds %"struct.perfetto::Slice", %"struct.perfetto::Slice"* %5, i64 0, i32 0
  %22 = getelementptr inbounds %"struct.perfetto::Slice", %"struct.perfetto::Slice"* %5, i64 0, i32 1
  %23 = getelementptr inbounds %"struct.perfetto::Slice", %"struct.perfetto::Slice"* %5, i64 0, i32 2
  %24 = bitcast %"class.std::__1::unique_ptr.30"* %23 to i64*
  %25 = bitcast %"class.perfetto::TracePacket"** %12 to i64*
  br label %39

26:                                               ; preds = %75
  %27 = load %"class.perfetto::TracePacket"*, %"class.perfetto::TracePacket"** %11, align 8
  %28 = load %"class.perfetto::TracePacket"*, %"class.perfetto::TracePacket"** %12, align 8
  %29 = ptrtoint %"class.perfetto::TracePacket"* %27 to i64
  %30 = ptrtoint %"class.perfetto::TracePacket"* %28 to i64
  br label %31

31:                                               ; preds = %26, %9
  %32 = phi i64 [ %30, %26 ], [ 0, %9 ]
  %33 = phi i64 [ %29, %26 ], [ 0, %9 ]
  %34 = phi %"class.perfetto::TracePacket"* [ %28, %26 ], [ null, %9 ]
  %35 = phi %"class.perfetto::TracePacket"* [ %27, %26 ], [ null, %9 ]
  %36 = icmp eq %"class.perfetto::TracePacket"* %35, %34
  %37 = icmp ne i8 %7, 0
  %38 = and i1 %37, %36
  br i1 %38, label %110, label %78

39:                                               ; preds = %19, %75
  %40 = phi %"class.perfetto::protos::gen::ReadBuffersResponse_Slice"* [ %15, %19 ], [ %76, %75 ]
  %41 = getelementptr inbounds %"class.perfetto::protos::gen::ReadBuffersResponse_Slice", %"class.perfetto::protos::gen::ReadBuffersResponse_Slice"* %40, i64 0, i32 1
  %42 = bitcast %"class.std::__1::basic_string"* %41 to %"struct.std::__1::basic_string<char, std::__1::char_traits<char>, std::__1::allocator<char> >::__short"*
  %43 = getelementptr inbounds %"struct.std::__1::basic_string<char, std::__1::char_traits<char>, std::__1::allocator<char> >::__short", %"struct.std::__1::basic_string<char, std::__1::char_traits<char>, std::__1::allocator<char> >::__short"* %42, i64 0, i32 1, i32 0
  %44 = load i8, i8* %43, align 1
  %45 = icmp slt i8 %44, 0
  br i1 %45, label %46, label %49

46:                                               ; preds = %39
  %47 = getelementptr inbounds %"class.perfetto::protos::gen::ReadBuffersResponse_Slice", %"class.perfetto::protos::gen::ReadBuffersResponse_Slice"* %40, i64 0, i32 1, i32 0, i32 0, i32 0, i32 0, i32 0, i32 1
  %48 = load i64, i64* %47, align 8
  br label %51

49:                                               ; preds = %39
  %50 = zext i8 %44 to i64
  br label %51

51:                                               ; preds = %46, %49
  %52 = phi i64 [ %48, %46 ], [ %50, %49 ]
  %53 = call i8* @_Znam(i64 %52) #13, !noalias !34
  %54 = ptrtoint i8* %53 to i64
  %55 = load i8, i8* %43, align 1
  %56 = icmp slt i8 %55, 0
  br i1 %56, label %57, label %60

57:                                               ; preds = %51
  %58 = getelementptr inbounds %"class.std::__1::basic_string", %"class.std::__1::basic_string"* %41, i64 0, i32 0, i32 0, i32 0, i32 0, i32 0, i32 0
  %59 = load i8*, i8** %58, align 8
  br label %62

60:                                               ; preds = %51
  %61 = bitcast %"class.std::__1::basic_string"* %41 to i8*
  br label %62

62:                                               ; preds = %57, %60
  %63 = phi i8* [ %59, %57 ], [ %61, %60 ]
  call void @llvm.memcpy.p0i8.p0i8.i64(i8* nonnull align 1 %53, i8* align 1 %63, i64 %52, i1 false)
  store i8* %53, i8** %21, align 8
  store i64 %52, i64* %22, align 8
  store i64 %54, i64* %24, align 8
  call void @_ZN8perfetto11TracePacket8AddSliceENS_5SliceE(%"class.perfetto::TracePacket"* %20, %"struct.perfetto::Slice"* nonnull byval(%"struct.perfetto::Slice") align 8 %5) #14
  %64 = getelementptr inbounds %"class.perfetto::protos::gen::ReadBuffersResponse_Slice", %"class.perfetto::protos::gen::ReadBuffersResponse_Slice"* %40, i64 0, i32 2
  %65 = load i8, i8* %64, align 8, !range !3
  %66 = icmp eq i8 %65, 0
  br i1 %66, label %75, label %67

67:                                               ; preds = %62
  %68 = load %"class.perfetto::TracePacket"*, %"class.perfetto::TracePacket"** %12, align 8
  %69 = load %"class.perfetto::TracePacket"*, %"class.perfetto::TracePacket"** %13, align 8
  %70 = icmp ult %"class.perfetto::TracePacket"* %68, %69
  br i1 %70, label %71, label %74

71:                                               ; preds = %67
  call void @_ZN8perfetto11TracePacketC1EOS0_(%"class.perfetto::TracePacket"* %68, %"class.perfetto::TracePacket"* dereferenceable(40) %20) #14
  %72 = getelementptr inbounds %"class.perfetto::TracePacket", %"class.perfetto::TracePacket"* %68, i64 1
  %73 = ptrtoint %"class.perfetto::TracePacket"* %72 to i64
  store i64 %73, i64* %25, align 8
  br label %75

74:                                               ; preds = %67
  call void @_ZNSt3__16vectorIN8perfetto11TracePacketENS_9allocatorIS2_EEE24__emplace_back_slow_pathIJS2_EEEvDpOT_(%"class.std::__1::vector.246"* nonnull %4, %"class.perfetto::TracePacket"* dereferenceable(40) %20) #14
  br label %75

75:                                               ; preds = %62, %71, %74
  %76 = getelementptr inbounds %"class.perfetto::protos::gen::ReadBuffersResponse_Slice", %"class.perfetto::protos::gen::ReadBuffersResponse_Slice"* %40, i64 1
  %77 = icmp eq %"class.perfetto::protos::gen::ReadBuffersResponse_Slice"* %76, %17
  br i1 %77, label %26, label %39

78:                                               ; preds = %31
  %79 = getelementptr inbounds %"class.perfetto::ConsumerIPCClientImpl", %"class.perfetto::ConsumerIPCClientImpl"* %0, i64 0, i32 2
  %80 = load %"class.perfetto::Consumer"*, %"class.perfetto::Consumer"** %79, align 8
  %81 = bitcast %"class.std::__1::vector.246"* %6 to i64*
  store i64 %33, i64* %81, align 8
  %82 = getelementptr inbounds %"class.std::__1::vector.246", %"class.std::__1::vector.246"* %6, i64 0, i32 0, i32 1
  %83 = bitcast %"class.perfetto::TracePacket"** %82 to i64*
  store i64 %32, i64* %83, align 8
  %84 = bitcast %"class.perfetto::TracePacket"** %13 to i64*
  %85 = load i64, i64* %84, align 8
  %86 = getelementptr inbounds %"class.std::__1::vector.246", %"class.std::__1::vector.246"* %6, i64 0, i32 0, i32 2, i32 0, i32 0
  %87 = bitcast %"class.perfetto::TracePacket"** %86 to i64*
  store i64 %85, i64* %87, align 8
  call void @llvm.memset.p0i8.i64(i8* nonnull align 8 %10, i8 0, i64 24, i1 false) #14
  %88 = bitcast %"class.perfetto::Consumer"* %80 to void (%"class.perfetto::Consumer"*, %"class.std::__1::vector.246"*, i1)***
  %89 = load void (%"class.perfetto::Consumer"*, %"class.std::__1::vector.246"*, i1)**, void (%"class.perfetto::Consumer"*, %"class.std::__1::vector.246"*, i1)*** %88, align 8
  %90 = getelementptr inbounds void (%"class.perfetto::Consumer"*, %"class.std::__1::vector.246"*, i1)*, void (%"class.perfetto::Consumer"*, %"class.std::__1::vector.246"*, i1)** %89, i64 5
  %91 = load void (%"class.perfetto::Consumer"*, %"class.std::__1::vector.246"*, i1)*, void (%"class.perfetto::Consumer"*, %"class.std::__1::vector.246"*, i1)** %90, align 8
  call void %91(%"class.perfetto::Consumer"* %80, %"class.std::__1::vector.246"* nonnull %6, i1 zeroext %37) #14
  %92 = getelementptr inbounds %"class.std::__1::vector.246", %"class.std::__1::vector.246"* %6, i64 0, i32 0, i32 0
  %93 = load %"class.perfetto::TracePacket"*, %"class.perfetto::TracePacket"** %92, align 8
  %94 = icmp eq %"class.perfetto::TracePacket"* %93, null
  br i1 %94, label %108, label %95

95:                                               ; preds = %78
  %96 = bitcast %"class.perfetto::TracePacket"* %93 to i8*
  %97 = load %"class.perfetto::TracePacket"*, %"class.perfetto::TracePacket"** %82, align 8
  %98 = icmp eq %"class.perfetto::TracePacket"* %97, %93
  br i1 %98, label %106, label %99

99:                                               ; preds = %95, %99
  %100 = phi %"class.perfetto::TracePacket"* [ %101, %99 ], [ %97, %95 ]
  %101 = getelementptr inbounds %"class.perfetto::TracePacket", %"class.perfetto::TracePacket"* %100, i64 -1
  call void @_ZN8perfetto11TracePacketD1Ev(%"class.perfetto::TracePacket"* %101) #14
  %102 = icmp eq %"class.perfetto::TracePacket"* %101, %93
  br i1 %102, label %103, label %99

103:                                              ; preds = %99
  %104 = bitcast %"class.std::__1::vector.246"* %6 to i8**
  %105 = load i8*, i8** %104, align 8
  br label %106

106:                                              ; preds = %103, %95
  %107 = phi i8* [ %105, %103 ], [ %96, %95 ]
  store %"class.perfetto::TracePacket"* %93, %"class.perfetto::TracePacket"** %82, align 8
  call void @_ZdlPv(i8* %107) #13
  br label %108

108:                                              ; preds = %78, %106
  %109 = load %"class.perfetto::TracePacket"*, %"class.perfetto::TracePacket"** %11, align 8
  br label %110

110:                                              ; preds = %31, %108
  %111 = phi %"class.perfetto::TracePacket"* [ %109, %108 ], [ %34, %31 ]
  %112 = icmp eq %"class.perfetto::TracePacket"* %111, null
  br i1 %112, label %126, label %113

113:                                              ; preds = %110
  %114 = bitcast %"class.perfetto::TracePacket"* %111 to i8*
  %115 = load %"class.perfetto::TracePacket"*, %"class.perfetto::TracePacket"** %12, align 8
  %116 = icmp eq %"class.perfetto::TracePacket"* %115, %111
  br i1 %116, label %124, label %117

117:                                              ; preds = %113, %117
  %118 = phi %"class.perfetto::TracePacket"* [ %119, %117 ], [ %115, %113 ]
  %119 = getelementptr inbounds %"class.perfetto::TracePacket", %"class.perfetto::TracePacket"* %118, i64 -1
  call void @_ZN8perfetto11TracePacketD1Ev(%"class.perfetto::TracePacket"* %119) #14
  %120 = icmp eq %"class.perfetto::TracePacket"* %119, %111
  br i1 %120, label %121, label %117

121:                                              ; preds = %117
  %122 = bitcast %"class.std::__1::vector.246"* %4 to i8**
  %123 = load i8*, i8** %122, align 8
  br label %124

124:                                              ; preds = %121, %113
  %125 = phi i8* [ %123, %121 ], [ %114, %113 ]
  store %"class.perfetto::TracePacket"* %111, %"class.perfetto::TracePacket"** %12, align 8
  call void @_ZdlPv(i8* %125) #13
  br label %126

126:                                              ; preds = %124, %110
  call void @llvm.lifetime.end.p0i8(i64 24, i8* nonnull %10) #14
  %127 = bitcast %"class.perfetto::protos::gen::ReadBuffersResponse"* %1 to void (%"class.perfetto::protos::gen::ReadBuffersResponse"*)***
  %128 = load void (%"class.perfetto::protos::gen::ReadBuffersResponse"*)**, void (%"class.perfetto::protos::gen::ReadBuffersResponse"*)*** %127, align 8
  %129 = getelementptr inbounds void (%"class.perfetto::protos::gen::ReadBuffersResponse"*)*, void (%"class.perfetto::protos::gen::ReadBuffersResponse"*)** %128, i64 1
  %130 = load void (%"class.perfetto::protos::gen::ReadBuffersResponse"*)*, void (%"class.perfetto::protos::gen::ReadBuffersResponse"*)** %129, align 8
  call void %130(%"class.perfetto::protos::gen::ReadBuffersResponse"* nonnull %1) #14
  br label %131

131:                                              ; preds = %3, %126
  ret void
}

; Function Attrs: argmemonly nounwind
declare void @llvm.memcpy.p0i8.p0i8.i64(i8* nocapture writeonly, i8* nocapture readonly, i64, i1 immarg) #5

declare void @_ZN8perfetto11TracePacket8AddSliceENS_5SliceE(%"class.perfetto::TracePacket"*, %"struct.perfetto::Slice"* byval(%"struct.perfetto::Slice") align 8) local_unnamed_addr #2

; Function Attrs: nounwind ssp uwtable
define hidden void @_ZN8perfetto21ConsumerIPCClientImpl23OnEnableTracingResponseENS_3ipc11AsyncResultINS_6protos3gen21EnableTracingResponseEEE(%"class.perfetto::ConsumerIPCClientImpl"* nocapture readonly, %"class.perfetto::protos::gen::EnableTracingResponse"*, i64) local_unnamed_addr #0 align 2 {
  %4 = alloca %"class.std::__1::basic_string", align 8
  %5 = bitcast %"class.std::__1::basic_string"* %4 to i8*
  call void @llvm.lifetime.start.p0i8(i64 24, i8* nonnull %5) #14
  %6 = getelementptr inbounds %"class.std::__1::basic_string", %"class.std::__1::basic_string"* %4, i64 0, i32 0, i32 0, i32 0, i32 0, i32 0, i32 0
  call void @llvm.memset.p0i8.i64(i8* nonnull align 8 %5, i8 0, i64 24, i1 false) #14
  %7 = icmp eq %"class.perfetto::protos::gen::EnableTracingResponse"* %1, null
  br i1 %7, label %8, label %10

8:                                                ; preds = %3
  %9 = call dereferenceable(24) %"class.std::__1::basic_string"* @_ZNSt3__112basic_stringIcNS_11char_traitsIcEENS_9allocatorIcEEE17__assign_externalEPKcm(%"class.std::__1::basic_string"* nonnull %4, i8* getelementptr inbounds ([90 x i8], [90 x i8]* @.str.7, i64 0, i64 0), i64 89) #14
  br label %30

10:                                               ; preds = %3
  %11 = getelementptr inbounds %"class.perfetto::protos::gen::EnableTracingResponse", %"class.perfetto::protos::gen::EnableTracingResponse"* %1, i64 0, i32 2
  %12 = icmp eq %"class.std::__1::basic_string"* %4, %11
  br i1 %12, label %26, label %13

13:                                               ; preds = %10
  %14 = bitcast %"class.std::__1::basic_string"* %11 to %"struct.std::__1::basic_string<char, std::__1::char_traits<char>, std::__1::allocator<char> >::__short"*
  %15 = getelementptr inbounds %"struct.std::__1::basic_string<char, std::__1::char_traits<char>, std::__1::allocator<char> >::__short", %"struct.std::__1::basic_string<char, std::__1::char_traits<char>, std::__1::allocator<char> >::__short"* %14, i64 0, i32 1, i32 0
  %16 = load i8, i8* %15, align 1
  %17 = icmp slt i8 %16, 0
  br i1 %17, label %20, label %18

18:                                               ; preds = %13
  %19 = bitcast %"class.std::__1::basic_string"* %11 to i8*
  call void @llvm.memcpy.p0i8.p0i8.i64(i8* nonnull align 8 %5, i8* align 8 %19, i64 24, i1 false) #14
  br label %26

20:                                               ; preds = %13
  %21 = getelementptr inbounds %"class.std::__1::basic_string", %"class.std::__1::basic_string"* %11, i64 0, i32 0, i32 0, i32 0, i32 0, i32 0, i32 0
  %22 = load i8*, i8** %21, align 8
  %23 = getelementptr inbounds %"class.perfetto::protos::gen::EnableTracingResponse", %"class.perfetto::protos::gen::EnableTracingResponse"* %1, i64 0, i32 2, i32 0, i32 0, i32 0, i32 0, i32 0, i32 1
  %24 = load i64, i64* %23, align 8
  %25 = call dereferenceable(24) %"class.std::__1::basic_string"* @_ZNSt3__112basic_stringIcNS_11char_traitsIcEENS_9allocatorIcEEE17__assign_no_aliasILb1EEERS5_PKcm(%"class.std::__1::basic_string"* nonnull %4, i8* %22, i64 %24) #14
  br label %26

26:                                               ; preds = %20, %18, %10
  %27 = getelementptr inbounds %"class.perfetto::protos::gen::EnableTracingResponse", %"class.perfetto::protos::gen::EnableTracingResponse"* %1, i64 0, i32 1
  %28 = load i8, i8* %27, align 8, !range !3
  %29 = icmp eq i8 %28, 0
  br i1 %29, label %37, label %30

30:                                               ; preds = %26, %8
  %31 = getelementptr inbounds %"class.perfetto::ConsumerIPCClientImpl", %"class.perfetto::ConsumerIPCClientImpl"* %0, i64 0, i32 2
  %32 = load %"class.perfetto::Consumer"*, %"class.perfetto::Consumer"** %31, align 8
  %33 = bitcast %"class.perfetto::Consumer"* %32 to void (%"class.perfetto::Consumer"*, %"class.std::__1::basic_string"*)***
  %34 = load void (%"class.perfetto::Consumer"*, %"class.std::__1::basic_string"*)**, void (%"class.perfetto::Consumer"*, %"class.std::__1::basic_string"*)*** %33, align 8
  %35 = getelementptr inbounds void (%"class.perfetto::Consumer"*, %"class.std::__1::basic_string"*)*, void (%"class.perfetto::Consumer"*, %"class.std::__1::basic_string"*)** %34, i64 4
  %36 = load void (%"class.perfetto::Consumer"*, %"class.std::__1::basic_string"*)*, void (%"class.perfetto::Consumer"*, %"class.std::__1::basic_string"*)** %35, align 8
  call void %36(%"class.perfetto::Consumer"* %32, %"class.std::__1::basic_string"* nonnull dereferenceable(24) %4) #14
  br label %37

37:                                               ; preds = %26, %30
  %38 = bitcast %"class.std::__1::basic_string"* %4 to %"struct.std::__1::basic_string<char, std::__1::char_traits<char>, std::__1::allocator<char> >::__short"*
  %39 = getelementptr inbounds %"struct.std::__1::basic_string<char, std::__1::char_traits<char>, std::__1::allocator<char> >::__short", %"struct.std::__1::basic_string<char, std::__1::char_traits<char>, std::__1::allocator<char> >::__short"* %38, i64 0, i32 1, i32 0
  %40 = load i8, i8* %39, align 1
  %41 = icmp slt i8 %40, 0
  br i1 %41, label %42, label %44

42:                                               ; preds = %37
  %43 = load i8*, i8** %6, align 8
  call void @_ZdlPv(i8* %43) #13
  br label %44

44:                                               ; preds = %37, %42
  call void @llvm.lifetime.end.p0i8(i64 24, i8* nonnull %5) #14
  br i1 %7, label %50, label %45

45:                                               ; preds = %44
  %46 = bitcast %"class.perfetto::protos::gen::EnableTracingResponse"* %1 to void (%"class.perfetto::protos::gen::EnableTracingResponse"*)***
  %47 = load void (%"class.perfetto::protos::gen::EnableTracingResponse"*)**, void (%"class.perfetto::protos::gen::EnableTracingResponse"*)*** %46, align 8
  %48 = getelementptr inbounds void (%"class.perfetto::protos::gen::EnableTracingResponse"*)*, void (%"class.perfetto::protos::gen::EnableTracingResponse"*)** %47, i64 1
  %49 = load void (%"class.perfetto::protos::gen::EnableTracingResponse"*)*, void (%"class.perfetto::protos::gen::EnableTracingResponse"*)** %48, align 8
  call void %49(%"class.perfetto::protos::gen::EnableTracingResponse"* nonnull %1) #14
  br label %50

50:                                               ; preds = %44, %45
  ret void
}

; Function Attrs: nounwind ssp uwtable
define hidden void @_ZN8perfetto21ConsumerIPCClientImpl11FreeBuffersEv(%"class.perfetto::ConsumerIPCClientImpl"*) unnamed_addr #0 align 2 {
  %2 = alloca %"class.std::__1::function", align 8
  %3 = alloca %"class.std::__1::function.261", align 8
  %4 = alloca %"class.perfetto::protos::gen::FreeBuffersRequest", align 8
  %5 = alloca %"class.perfetto::ipc::Deferred.260", align 8
  %6 = alloca %"class.std::__1::function.261", align 8
  %7 = alloca %"class.perfetto::ipc::Deferred.260", align 8
  %8 = getelementptr inbounds %"class.perfetto::ConsumerIPCClientImpl", %"class.perfetto::ConsumerIPCClientImpl"* %0, i64 0, i32 5
  %9 = load i8, i8* %8, align 8, !range !3
  %10 = icmp eq i8 %9, 0
  br i1 %10, label %51, label %11

11:                                               ; preds = %1
  %12 = bitcast %"class.perfetto::protos::gen::FreeBuffersRequest"* %4 to i8*
  call void @llvm.lifetime.start.p0i8(i64 64, i8* nonnull %12) #14
  call void @llvm.memset.p0i8.i64(i8* nonnull align 8 %12, i8 -86, i64 64, i1 false)
  call void @_ZN8perfetto6protos3gen18FreeBuffersRequestC1Ev(%"class.perfetto::protos::gen::FreeBuffersRequest"* nonnull %4) #14
  %13 = bitcast %"class.perfetto::ipc::Deferred.260"* %5 to i8*
  call void @llvm.lifetime.start.p0i8(i64 32, i8* nonnull %13) #14
  %14 = bitcast %"class.std::__1::function"* %2 to i8*
  %15 = bitcast %"class.perfetto::ipc::Deferred.260"* %5 to i8*
  call void @llvm.memset.p0i8.i64(i8* nonnull align 8 %15, i8 -86, i64 32, i1 false)
  call void @llvm.lifetime.start.p0i8(i64 32, i8* nonnull %14)
  %16 = bitcast %"class.std::__1::function.261"* %3 to i8*
  call void @llvm.lifetime.start.p0i8(i64 32, i8* nonnull %16)
  %17 = getelementptr inbounds %"class.perfetto::ipc::Deferred.260", %"class.perfetto::ipc::Deferred.260"* %5, i64 0, i32 0
  %18 = getelementptr inbounds %"class.std::__1::function", %"class.std::__1::function"* %2, i64 0, i32 0, i32 1, i32 0
  store void (%"union.std::__1::__function::__policy_storage"*, %"class.perfetto::ipc::AsyncResult"*)* @_ZNSt3__110__function16__policy_invokerIFvN8perfetto3ipc11AsyncResultIN9protozero13CppMessageObjEEEEE12__call_emptyEPKNS0_16__policy_storageEOS7_, void (%"union.std::__1::__function::__policy_storage"*, %"class.perfetto::ipc::AsyncResult"*)** %18, align 8
  %19 = getelementptr inbounds %"class.std::__1::function", %"class.std::__1::function"* %2, i64 0, i32 0, i32 2
  store %"struct.std::__1::__function::__policy"* @_ZZNSt3__110__function8__policy14__create_emptyEvE9__policy_, %"struct.std::__1::__function::__policy"** %19, align 8
  call void @_ZN8perfetto3ipc12DeferredBaseC2ENSt3__18functionIFvNS0_11AsyncResultIN9protozero13CppMessageObjEEEEEE(%"class.perfetto::ipc::DeferredBase"* nonnull %17, %"class.std::__1::function"* nonnull %2) #14
  %20 = load %"struct.std::__1::__function::__policy"*, %"struct.std::__1::__function::__policy"** %19, align 8
  %21 = getelementptr inbounds %"struct.std::__1::__function::__policy", %"struct.std::__1::__function::__policy"* %20, i64 0, i32 1
  %22 = load void (i8*)*, void (i8*)** %21, align 8
  %23 = icmp eq void (i8*)* %22, null
  br i1 %23, label %27, label %24

24:                                               ; preds = %11
  %25 = getelementptr inbounds %"class.std::__1::function", %"class.std::__1::function"* %2, i64 0, i32 0, i32 0, i32 0
  %26 = load i8*, i8** %25, align 8
  call void %22(i8* %26) #14
  br label %27

27:                                               ; preds = %11, %24
  %28 = getelementptr inbounds %"class.std::__1::function.261", %"class.std::__1::function.261"* %3, i64 0, i32 0, i32 1
  %29 = bitcast %"struct.std::__1::__function::__policy_invoker.266"* %28 to i64*
  store i64 ptrtoint (void (%"union.std::__1::__function::__policy_storage"*, %"class.perfetto::ipc::AsyncResult.267"*)* @_ZNSt3__110__function16__policy_invokerIFvN8perfetto3ipc11AsyncResultINS2_6protos3gen19FreeBuffersResponseEEEEE12__call_emptyEPKNS0_16__policy_storageEOS8_ to i64), i64* %29, align 8
  %30 = getelementptr inbounds %"class.std::__1::function.261", %"class.std::__1::function.261"* %3, i64 0, i32 0, i32 2
  store %"struct.std::__1::__function::__policy"* @_ZZNSt3__110__function8__policy14__create_emptyEvE9__policy_, %"struct.std::__1::__function::__policy"** %30, align 8
  call void @_ZN8perfetto3ipc8DeferredINS_6protos3gen19FreeBuffersResponseEE4BindENSt3__18functionIFvNS0_11AsyncResultIS4_EEEEE(%"class.perfetto::ipc::Deferred.260"* nonnull %5, %"class.std::__1::function.261"* nonnull %3) #14
  %31 = load %"struct.std::__1::__function::__policy"*, %"struct.std::__1::__function::__policy"** %30, align 8
  %32 = getelementptr inbounds %"struct.std::__1::__function::__policy", %"struct.std::__1::__function::__policy"* %31, i64 0, i32 1
  %33 = load void (i8*)*, void (i8*)** %32, align 8
  %34 = icmp eq void (i8*)* %33, null
  br i1 %34, label %38, label %35

35:                                               ; preds = %27
  %36 = getelementptr inbounds %"class.std::__1::function.261", %"class.std::__1::function.261"* %3, i64 0, i32 0, i32 0, i32 0
  %37 = load i8*, i8** %36, align 8
  call void %33(i8* %37) #14
  br label %38

38:                                               ; preds = %35, %27
  call void @llvm.lifetime.end.p0i8(i64 32, i8* nonnull %14)
  call void @llvm.lifetime.end.p0i8(i64 32, i8* nonnull %16)
  %39 = getelementptr inbounds %"class.std::__1::function.261", %"class.std::__1::function.261"* %6, i64 0, i32 0, i32 1, i32 0
  %40 = getelementptr inbounds %"class.std::__1::function.261", %"class.std::__1::function.261"* %6, i64 0, i32 0, i32 2
  store void (%"union.std::__1::__function::__policy_storage"*, %"class.perfetto::ipc::AsyncResult.267"*)* @"_ZNSt3__110__function16__policy_invokerIFvN8perfetto3ipc11AsyncResultINS2_6protos3gen19FreeBuffersResponseEEEEE11__call_implINS0_20__default_alloc_funcIZNS2_21ConsumerIPCClientImpl11FreeBuffersEvE3$_5S9_EEEEvPKNS0_16__policy_storageEOS8_", void (%"union.std::__1::__function::__policy_storage"*, %"class.perfetto::ipc::AsyncResult.267"*)** %39, align 8
  store %"struct.std::__1::__function::__policy"* @"_ZZNSt3__110__function8__policy15__choose_policyINS0_20__default_alloc_funcIZN8perfetto21ConsumerIPCClientImpl11FreeBuffersEvE3$_5FvNS4_3ipc11AsyncResultINS4_6protos3gen19FreeBuffersResponseEEEEEEEEPKS1_NS_17integral_constantIbLb1EEEE9__policy_", %"struct.std::__1::__function::__policy"** %40, align 8
  call void @_ZN8perfetto3ipc8DeferredINS_6protos3gen19FreeBuffersResponseEE4BindENSt3__18functionIFvNS0_11AsyncResultIS4_EEEEE(%"class.perfetto::ipc::Deferred.260"* nonnull %5, %"class.std::__1::function.261"* nonnull %6)
  %41 = load %"struct.std::__1::__function::__policy"*, %"struct.std::__1::__function::__policy"** %40, align 8
  %42 = getelementptr inbounds %"struct.std::__1::__function::__policy", %"struct.std::__1::__function::__policy"* %41, i64 0, i32 1
  %43 = load void (i8*)*, void (i8*)** %42, align 8
  %44 = icmp eq void (i8*)* %43, null
  br i1 %44, label %48, label %45

45:                                               ; preds = %38
  %46 = getelementptr inbounds %"class.std::__1::function.261", %"class.std::__1::function.261"* %6, i64 0, i32 0, i32 0, i32 0
  %47 = load i8*, i8** %46, align 8
  call void %43(i8* %47) #14
  br label %48

48:                                               ; preds = %38, %45
  %49 = getelementptr inbounds %"class.perfetto::ConsumerIPCClientImpl", %"class.perfetto::ConsumerIPCClientImpl"* %0, i64 0, i32 4
  %50 = getelementptr inbounds %"class.perfetto::ipc::Deferred.260", %"class.perfetto::ipc::Deferred.260"* %7, i64 0, i32 0
  call void @_ZN8perfetto3ipc12DeferredBaseC2EOS1_(%"class.perfetto::ipc::DeferredBase"* nonnull %50, %"class.perfetto::ipc::DeferredBase"* nonnull dereferenceable(32) %17) #14
  call void @_ZN8perfetto6protos3gen17ConsumerPortProxy11FreeBuffersERKNS1_18FreeBuffersRequestENS_3ipc8DeferredINS1_19FreeBuffersResponseEEEi(%"class.perfetto::protos::gen::ConsumerPortProxy"* %49, %"class.perfetto::protos::gen::FreeBuffersRequest"* nonnull dereferenceable(64) %4, %"class.perfetto::ipc::Deferred.260"* nonnull %7, i32 -1) #14
  call void @_ZN8perfetto3ipc12DeferredBaseD2Ev(%"class.perfetto::ipc::DeferredBase"* nonnull %50) #14
  call void @_ZN8perfetto3ipc12DeferredBaseD2Ev(%"class.perfetto::ipc::DeferredBase"* nonnull %17) #14
  call void @llvm.lifetime.end.p0i8(i64 32, i8* nonnull %13) #14
  call void @_ZN8perfetto6protos3gen18FreeBuffersRequestD1Ev(%"class.perfetto::protos::gen::FreeBuffersRequest"* nonnull %4) #14
  call void @llvm.lifetime.end.p0i8(i64 64, i8* nonnull %12) #14
  br label %51

51:                                               ; preds = %1, %48
  ret void
}

declare void @_ZN8perfetto6protos3gen18FreeBuffersRequestC1Ev(%"class.perfetto::protos::gen::FreeBuffersRequest"*) unnamed_addr #2

; Function Attrs: nounwind ssp uwtable
define linkonce_odr hidden void @_ZN8perfetto3ipc8DeferredINS_6protos3gen19FreeBuffersResponseEE4BindENSt3__18functionIFvNS0_11AsyncResultIS4_EEEEE(%"class.perfetto::ipc::Deferred.260"*, %"class.std::__1::function.261"*) local_unnamed_addr #0 comdat align 2 {
  %3 = alloca %"class.std::__1::function", align 8
  %4 = getelementptr inbounds %"class.std::__1::function.261", %"class.std::__1::function.261"* %1, i64 0, i32 0, i32 2
  %5 = load %"struct.std::__1::__function::__policy"*, %"struct.std::__1::__function::__policy"** %4, align 8
  %6 = getelementptr inbounds %"struct.std::__1::__function::__policy", %"struct.std::__1::__function::__policy"* %5, i64 0, i32 2
  %7 = load i8, i8* %6, align 8, !range !3
  %8 = icmp eq i8 %7, 0
  br i1 %8, label %9, label %59

9:                                                ; preds = %2
  %10 = getelementptr inbounds %"class.std::__1::function.261", %"class.std::__1::function.261"* %1, i64 0, i32 0, i32 0, i32 0
  %11 = load i8*, i8** %10, align 8
  %12 = getelementptr inbounds %"class.std::__1::function.261", %"class.std::__1::function.261"* %1, i64 0, i32 0, i32 0, i32 1
  %13 = bitcast [8 x i8]* %12 to <2 x i64>*
  %14 = load <2 x i64>, <2 x i64>* %13, align 8
  %15 = getelementptr inbounds %"struct.std::__1::__function::__policy", %"struct.std::__1::__function::__policy"* %5, i64 0, i32 0
  %16 = load i8* (i8*)*, i8* (i8*)** %15, align 8
  %17 = icmp eq i8* (i8*)* %16, null
  br i1 %17, label %18, label %20

18:                                               ; preds = %9
  %19 = getelementptr inbounds %"class.perfetto::ipc::Deferred.260", %"class.perfetto::ipc::Deferred.260"* %0, i64 0, i32 0
  br label %27

20:                                               ; preds = %9
  %21 = tail call i8* %16(i8* %11) #14
  %22 = load i8* (i8*)*, i8* (i8*)** %15, align 8
  %23 = getelementptr inbounds %"class.perfetto::ipc::Deferred.260", %"class.perfetto::ipc::Deferred.260"* %0, i64 0, i32 0
  %24 = icmp eq i8* (i8*)* %22, null
  br i1 %24, label %27, label %25

25:                                               ; preds = %20
  %26 = tail call i8* %22(i8* %21) #14
  br label %27

27:                                               ; preds = %18, %20, %25
  %28 = phi %"class.perfetto::ipc::DeferredBase"* [ %23, %20 ], [ %23, %25 ], [ %19, %18 ]
  %29 = phi i8* [ %21, %20 ], [ %21, %25 ], [ %11, %18 ]
  %30 = phi i8* [ %21, %20 ], [ %26, %25 ], [ %11, %18 ]
  %31 = getelementptr inbounds %"class.std::__1::function", %"class.std::__1::function"* %3, i64 0, i32 0, i32 1, i32 0
  %32 = getelementptr inbounds %"class.std::__1::function", %"class.std::__1::function"* %3, i64 0, i32 0, i32 2
  store void (%"union.std::__1::__function::__policy_storage"*, %"class.perfetto::ipc::AsyncResult"*)* @_ZNSt3__110__function16__policy_invokerIFvN8perfetto3ipc11AsyncResultIN9protozero13CppMessageObjEEEEE11__call_implINS0_20__default_alloc_funcIZNS3_8DeferredINS2_6protos3gen19FreeBuffersResponseEE4BindENS_8functionIFvNS4_ISF_EEEEEEUlS7_E_S8_EEEEvPKNS0_16__policy_storageEOS7_, void (%"union.std::__1::__function::__policy_storage"*, %"class.perfetto::ipc::AsyncResult"*)** %31, align 8
  store %"struct.std::__1::__function::__policy"* @_ZZNSt3__110__function8__policy15__choose_policyINS0_20__default_alloc_funcIZN8perfetto3ipc8DeferredINS4_6protos3gen19FreeBuffersResponseEE4BindENS_8functionIFvNS5_11AsyncResultIS9_EEEEEEUlNSC_IN9protozero13CppMessageObjEEEE_FvSI_EEEEEPKS1_NS_17integral_constantIbLb0EEEE9__policy_, %"struct.std::__1::__function::__policy"** %32, align 8
  %33 = tail call i8* @_Znwm(i64 32) #13, !noalias !37
  %34 = bitcast i8* %33 to i8**
  store i8* %30, i8** %34, align 8
  %35 = getelementptr inbounds i8, i8* %33, i64 8
  %36 = bitcast i8* %35 to <2 x i64>*
  store <2 x i64> %14, <2 x i64>* %36, align 8
  %37 = getelementptr inbounds i8, i8* %33, i64 24
  %38 = bitcast i8* %37 to %"struct.std::__1::__function::__policy"**
  store %"struct.std::__1::__function::__policy"* %5, %"struct.std::__1::__function::__policy"** %38, align 8
  %39 = getelementptr inbounds %"struct.std::__1::__function::__policy", %"struct.std::__1::__function::__policy"* %5, i64 0, i32 1
  %40 = load void (i8*)*, void (i8*)** %39, align 8
  %41 = icmp eq void (i8*)* %40, null
  %42 = select i1 %41, %"struct.std::__1::__function::__policy"* %5, %"struct.std::__1::__function::__policy"* @_ZZNSt3__110__function8__policy14__create_emptyEvE9__policy_
  %43 = getelementptr inbounds %"class.std::__1::function", %"class.std::__1::function"* %3, i64 0, i32 0, i32 0, i32 0
  store i8* %33, i8** %43, align 8
  call void @_ZN8perfetto3ipc12DeferredBase4BindENSt3__18functionIFvNS0_11AsyncResultIN9protozero13CppMessageObjEEEEEE(%"class.perfetto::ipc::DeferredBase"* %28, %"class.std::__1::function"* nonnull %3) #14
  %44 = load %"struct.std::__1::__function::__policy"*, %"struct.std::__1::__function::__policy"** %32, align 8
  %45 = getelementptr inbounds %"struct.std::__1::__function::__policy", %"struct.std::__1::__function::__policy"* %44, i64 0, i32 1
  %46 = load void (i8*)*, void (i8*)** %45, align 8
  %47 = icmp eq void (i8*)* %46, null
  br i1 %47, label %50, label %48

48:                                               ; preds = %27
  %49 = load i8*, i8** %43, align 8
  call void %46(i8* %49) #14
  br label %50

50:                                               ; preds = %27, %48
  %51 = getelementptr inbounds %"struct.std::__1::__function::__policy", %"struct.std::__1::__function::__policy"* %42, i64 0, i32 1
  %52 = load void (i8*)*, void (i8*)** %51, align 8
  %53 = icmp eq void (i8*)* %52, null
  br i1 %53, label %55, label %54

54:                                               ; preds = %50
  call void %52(i8* %30) #14
  br label %55

55:                                               ; preds = %50, %54
  %56 = load void (i8*)*, void (i8*)** %39, align 8
  %57 = icmp eq void (i8*)* %56, null
  br i1 %57, label %59, label %58

58:                                               ; preds = %55
  call void %56(i8* %29) #14
  br label %59

59:                                               ; preds = %58, %55, %2
  ret void
}

declare void @_ZN8perfetto6protos3gen17ConsumerPortProxy11FreeBuffersERKNS1_18FreeBuffersRequestENS_3ipc8DeferredINS1_19FreeBuffersResponseEEEi(%"class.perfetto::protos::gen::ConsumerPortProxy"*, %"class.perfetto::protos::gen::FreeBuffersRequest"* dereferenceable(64), %"class.perfetto::ipc::Deferred.260"*, i32) local_unnamed_addr #2

; Function Attrs: nounwind
declare void @_ZN8perfetto3ipc12DeferredBaseD2Ev(%"class.perfetto::ipc::DeferredBase"*) unnamed_addr #3

; Function Attrs: nounwind
declare void @_ZN8perfetto6protos3gen18FreeBuffersRequestD1Ev(%"class.perfetto::protos::gen::FreeBuffersRequest"*) unnamed_addr #3

; Function Attrs: nounwind ssp uwtable
define hidden void @_ZN8perfetto21ConsumerIPCClientImpl5FlushEjNSt3__18functionIFvbEEE(%"class.perfetto::ConsumerIPCClientImpl"*, i32, %"class.std::__1::function.276"*) unnamed_addr #0 align 2 {
  %4 = alloca %"class.std::__1::function", align 8
  %5 = alloca %"class.std::__1::function.283", align 8
  %6 = alloca %"class.perfetto::protos::gen::FlushRequest", align 8
  %7 = alloca %"class.perfetto::ipc::Deferred.282", align 8
  %8 = alloca %"class.std::__1::function.283", align 8
  %9 = alloca %"class.perfetto::ipc::Deferred.282", align 8
  %10 = getelementptr inbounds %"class.perfetto::ConsumerIPCClientImpl", %"class.perfetto::ConsumerIPCClientImpl"* %0, i64 0, i32 5
  %11 = load i8, i8* %10, align 8, !range !3
  %12 = icmp eq i8 %11, 0
  br i1 %12, label %13, label %17

13:                                               ; preds = %3
  %14 = getelementptr inbounds %"class.std::__1::function.276", %"class.std::__1::function.276"* %2, i64 0, i32 0, i32 1, i32 0
  %15 = load void (%"union.std::__1::__function::__policy_storage"*, i1)*, void (%"union.std::__1::__function::__policy_storage"*, i1)** %14, align 8
  %16 = getelementptr inbounds %"class.std::__1::function.276", %"class.std::__1::function.276"* %2, i64 0, i32 0, i32 0
  tail call void %15(%"union.std::__1::__function::__policy_storage"* %16, i1 zeroext false) #14
  br label %90

17:                                               ; preds = %3
  %18 = bitcast %"class.perfetto::protos::gen::FlushRequest"* %6 to i8*
  call void @llvm.lifetime.start.p0i8(i64 48, i8* nonnull %18) #14
  call void @llvm.memset.p0i8.i64(i8* nonnull align 8 %18, i8 -86, i64 48, i1 false)
  call void @_ZN8perfetto6protos3gen12FlushRequestC1Ev(%"class.perfetto::protos::gen::FlushRequest"* nonnull %6) #14
  %19 = getelementptr inbounds %"class.perfetto::protos::gen::FlushRequest", %"class.perfetto::protos::gen::FlushRequest"* %6, i64 0, i32 1
  store i32 %1, i32* %19, align 8
  %20 = getelementptr inbounds %"class.perfetto::protos::gen::FlushRequest", %"class.perfetto::protos::gen::FlushRequest"* %6, i64 0, i32 3, i32 0, i32 0
  %21 = load i64, i64* %20, align 8
  %22 = or i64 %21, 2
  store i64 %22, i64* %20, align 8
  %23 = bitcast %"class.perfetto::ipc::Deferred.282"* %7 to i8*
  call void @llvm.lifetime.start.p0i8(i64 32, i8* nonnull %23) #14
  %24 = bitcast %"class.std::__1::function"* %4 to i8*
  %25 = bitcast %"class.perfetto::ipc::Deferred.282"* %7 to i8*
  call void @llvm.memset.p0i8.i64(i8* nonnull align 8 %25, i8 -86, i64 32, i1 false)
  call void @llvm.lifetime.start.p0i8(i64 32, i8* nonnull %24)
  %26 = bitcast %"class.std::__1::function.283"* %5 to i8*
  call void @llvm.lifetime.start.p0i8(i64 32, i8* nonnull %26)
  %27 = getelementptr inbounds %"class.perfetto::ipc::Deferred.282", %"class.perfetto::ipc::Deferred.282"* %7, i64 0, i32 0
  %28 = getelementptr inbounds %"class.std::__1::function", %"class.std::__1::function"* %4, i64 0, i32 0, i32 1, i32 0
  store void (%"union.std::__1::__function::__policy_storage"*, %"class.perfetto::ipc::AsyncResult"*)* @_ZNSt3__110__function16__policy_invokerIFvN8perfetto3ipc11AsyncResultIN9protozero13CppMessageObjEEEEE12__call_emptyEPKNS0_16__policy_storageEOS7_, void (%"union.std::__1::__function::__policy_storage"*, %"class.perfetto::ipc::AsyncResult"*)** %28, align 8
  %29 = getelementptr inbounds %"class.std::__1::function", %"class.std::__1::function"* %4, i64 0, i32 0, i32 2
  store %"struct.std::__1::__function::__policy"* @_ZZNSt3__110__function8__policy14__create_emptyEvE9__policy_, %"struct.std::__1::__function::__policy"** %29, align 8
  call void @_ZN8perfetto3ipc12DeferredBaseC2ENSt3__18functionIFvNS0_11AsyncResultIN9protozero13CppMessageObjEEEEEE(%"class.perfetto::ipc::DeferredBase"* nonnull %27, %"class.std::__1::function"* nonnull %4) #14
  %30 = load %"struct.std::__1::__function::__policy"*, %"struct.std::__1::__function::__policy"** %29, align 8
  %31 = getelementptr inbounds %"struct.std::__1::__function::__policy", %"struct.std::__1::__function::__policy"* %30, i64 0, i32 1
  %32 = load void (i8*)*, void (i8*)** %31, align 8
  %33 = icmp eq void (i8*)* %32, null
  br i1 %33, label %37, label %34

34:                                               ; preds = %17
  %35 = getelementptr inbounds %"class.std::__1::function", %"class.std::__1::function"* %4, i64 0, i32 0, i32 0, i32 0
  %36 = load i8*, i8** %35, align 8
  call void %32(i8* %36) #14
  br label %37

37:                                               ; preds = %17, %34
  %38 = getelementptr inbounds %"class.std::__1::function.283", %"class.std::__1::function.283"* %5, i64 0, i32 0, i32 1
  %39 = bitcast %"struct.std::__1::__function::__policy_invoker.288"* %38 to i64*
  store i64 ptrtoint (void (%"union.std::__1::__function::__policy_storage"*, %"class.perfetto::ipc::AsyncResult.289"*)* @_ZNSt3__110__function16__policy_invokerIFvN8perfetto3ipc11AsyncResultINS2_6protos3gen13FlushResponseEEEEE12__call_emptyEPKNS0_16__policy_storageEOS8_ to i64), i64* %39, align 8
  %40 = getelementptr inbounds %"class.std::__1::function.283", %"class.std::__1::function.283"* %5, i64 0, i32 0, i32 2
  store %"struct.std::__1::__function::__policy"* @_ZZNSt3__110__function8__policy14__create_emptyEvE9__policy_, %"struct.std::__1::__function::__policy"** %40, align 8
  call void @_ZN8perfetto3ipc8DeferredINS_6protos3gen13FlushResponseEE4BindENSt3__18functionIFvNS0_11AsyncResultIS4_EEEEE(%"class.perfetto::ipc::Deferred.282"* nonnull %7, %"class.std::__1::function.283"* nonnull %5) #14
  %41 = load %"struct.std::__1::__function::__policy"*, %"struct.std::__1::__function::__policy"** %40, align 8
  %42 = getelementptr inbounds %"struct.std::__1::__function::__policy", %"struct.std::__1::__function::__policy"* %41, i64 0, i32 1
  %43 = load void (i8*)*, void (i8*)** %42, align 8
  %44 = icmp eq void (i8*)* %43, null
  br i1 %44, label %48, label %45

45:                                               ; preds = %37
  %46 = getelementptr inbounds %"class.std::__1::function.283", %"class.std::__1::function.283"* %5, i64 0, i32 0, i32 0, i32 0
  %47 = load i8*, i8** %46, align 8
  call void %43(i8* %47) #14
  br label %48

48:                                               ; preds = %45, %37
  call void @llvm.lifetime.end.p0i8(i64 32, i8* nonnull %24)
  call void @llvm.lifetime.end.p0i8(i64 32, i8* nonnull %26)
  %49 = getelementptr inbounds %"class.std::__1::function.276", %"class.std::__1::function.276"* %2, i64 0, i32 0, i32 0, i32 0
  %50 = load i8*, i8** %49, align 8
  %51 = getelementptr inbounds %"class.std::__1::function.276", %"class.std::__1::function.276"* %2, i64 0, i32 0, i32 0, i32 1
  %52 = bitcast [8 x i8]* %51 to <2 x i64>*
  %53 = load <2 x i64>, <2 x i64>* %52, align 8
  %54 = getelementptr inbounds %"class.std::__1::function.276", %"class.std::__1::function.276"* %2, i64 0, i32 0, i32 2
  %55 = load %"struct.std::__1::__function::__policy"*, %"struct.std::__1::__function::__policy"** %54, align 8
  %56 = getelementptr inbounds %"struct.std::__1::__function::__policy", %"struct.std::__1::__function::__policy"* %55, i64 0, i32 0
  %57 = load i8* (i8*)*, i8* (i8*)** %56, align 8
  %58 = icmp eq i8* (i8*)* %57, null
  br i1 %58, label %61, label %59

59:                                               ; preds = %48
  %60 = call i8* %57(i8* %50) #14
  br label %61

61:                                               ; preds = %48, %59
  %62 = phi i8* [ %50, %48 ], [ %60, %59 ]
  %63 = getelementptr inbounds %"class.std::__1::function.283", %"class.std::__1::function.283"* %8, i64 0, i32 0, i32 1, i32 0
  %64 = getelementptr inbounds %"class.std::__1::function.283", %"class.std::__1::function.283"* %8, i64 0, i32 0, i32 2
  store void (%"union.std::__1::__function::__policy_storage"*, %"class.perfetto::ipc::AsyncResult.289"*)* @"_ZNSt3__110__function16__policy_invokerIFvN8perfetto3ipc11AsyncResultINS2_6protos3gen13FlushResponseEEEEE11__call_implINS0_20__default_alloc_funcIZNS2_21ConsumerIPCClientImpl5FlushEjNS_8functionIFvbEEEE3$_6S9_EEEEvPKNS0_16__policy_storageEOS8_", void (%"union.std::__1::__function::__policy_storage"*, %"class.perfetto::ipc::AsyncResult.289"*)** %63, align 8
  store %"struct.std::__1::__function::__policy"* @"_ZZNSt3__110__function8__policy15__choose_policyINS0_20__default_alloc_funcIZN8perfetto21ConsumerIPCClientImpl5FlushEjNS_8functionIFvbEEEE3$_6FvNS4_3ipc11AsyncResultINS4_6protos3gen13FlushResponseEEEEEEEEPKS1_NS_17integral_constantIbLb0EEEE9__policy_", %"struct.std::__1::__function::__policy"** %64, align 8
  %65 = call i8* @_Znwm(i64 32) #13, !noalias !42
  %66 = bitcast i8* %65 to i8**
  store i8* %62, i8** %66, align 8
  %67 = getelementptr inbounds i8, i8* %65, i64 8
  %68 = bitcast i8* %67 to <2 x i64>*
  store <2 x i64> %53, <2 x i64>* %68, align 8
  %69 = getelementptr inbounds i8, i8* %65, i64 24
  %70 = bitcast i8* %69 to %"struct.std::__1::__function::__policy"**
  store %"struct.std::__1::__function::__policy"* %55, %"struct.std::__1::__function::__policy"** %70, align 8
  %71 = getelementptr inbounds %"struct.std::__1::__function::__policy", %"struct.std::__1::__function::__policy"* %55, i64 0, i32 1
  %72 = load void (i8*)*, void (i8*)** %71, align 8
  %73 = icmp eq void (i8*)* %72, null
  %74 = select i1 %73, %"struct.std::__1::__function::__policy"* %55, %"struct.std::__1::__function::__policy"* @_ZZNSt3__110__function8__policy14__create_emptyEvE9__policy_
  %75 = getelementptr inbounds %"class.std::__1::function.283", %"class.std::__1::function.283"* %8, i64 0, i32 0, i32 0, i32 0
  store i8* %65, i8** %75, align 8
  call void @_ZN8perfetto3ipc8DeferredINS_6protos3gen13FlushResponseEE4BindENSt3__18functionIFvNS0_11AsyncResultIS4_EEEEE(%"class.perfetto::ipc::Deferred.282"* nonnull %7, %"class.std::__1::function.283"* nonnull %8)
  %76 = load %"struct.std::__1::__function::__policy"*, %"struct.std::__1::__function::__policy"** %64, align 8
  %77 = getelementptr inbounds %"struct.std::__1::__function::__policy", %"struct.std::__1::__function::__policy"* %76, i64 0, i32 1
  %78 = load void (i8*)*, void (i8*)** %77, align 8
  %79 = icmp eq void (i8*)* %78, null
  br i1 %79, label %82, label %80

80:                                               ; preds = %61
  %81 = load i8*, i8** %75, align 8
  call void %78(i8* %81) #14
  br label %82

82:                                               ; preds = %61, %80
  %83 = getelementptr inbounds %"struct.std::__1::__function::__policy", %"struct.std::__1::__function::__policy"* %74, i64 0, i32 1
  %84 = load void (i8*)*, void (i8*)** %83, align 8
  %85 = icmp eq void (i8*)* %84, null
  br i1 %85, label %87, label %86

86:                                               ; preds = %82
  call void %84(i8* %62) #14
  br label %87

87:                                               ; preds = %82, %86
  %88 = getelementptr inbounds %"class.perfetto::ConsumerIPCClientImpl", %"class.perfetto::ConsumerIPCClientImpl"* %0, i64 0, i32 4
  %89 = getelementptr inbounds %"class.perfetto::ipc::Deferred.282", %"class.perfetto::ipc::Deferred.282"* %9, i64 0, i32 0
  call void @_ZN8perfetto3ipc12DeferredBaseC2EOS1_(%"class.perfetto::ipc::DeferredBase"* nonnull %89, %"class.perfetto::ipc::DeferredBase"* nonnull dereferenceable(32) %27) #14
  call void @_ZN8perfetto6protos3gen17ConsumerPortProxy5FlushERKNS1_12FlushRequestENS_3ipc8DeferredINS1_13FlushResponseEEEi(%"class.perfetto::protos::gen::ConsumerPortProxy"* %88, %"class.perfetto::protos::gen::FlushRequest"* nonnull dereferenceable(48) %6, %"class.perfetto::ipc::Deferred.282"* nonnull %9, i32 -1) #14
  call void @_ZN8perfetto3ipc12DeferredBaseD2Ev(%"class.perfetto::ipc::DeferredBase"* nonnull %89) #14
  call void @_ZN8perfetto3ipc12DeferredBaseD2Ev(%"class.perfetto::ipc::DeferredBase"* nonnull %27) #14
  call void @llvm.lifetime.end.p0i8(i64 32, i8* nonnull %23) #14
  call void @_ZN8perfetto6protos3gen12FlushRequestD1Ev(%"class.perfetto::protos::gen::FlushRequest"* nonnull %6) #14
  call void @llvm.lifetime.end.p0i8(i64 48, i8* nonnull %18) #14
  br label %90

90:                                               ; preds = %87, %13
  ret void
}

declare void @_ZN8perfetto6protos3gen12FlushRequestC1Ev(%"class.perfetto::protos::gen::FlushRequest"*) unnamed_addr #2

; Function Attrs: nounwind ssp uwtable
define linkonce_odr hidden void @_ZN8perfetto3ipc8DeferredINS_6protos3gen13FlushResponseEE4BindENSt3__18functionIFvNS0_11AsyncResultIS4_EEEEE(%"class.perfetto::ipc::Deferred.282"*, %"class.std::__1::function.283"*) local_unnamed_addr #0 comdat align 2 {
  %3 = alloca %"class.std::__1::function", align 8
  %4 = getelementptr inbounds %"class.std::__1::function.283", %"class.std::__1::function.283"* %1, i64 0, i32 0, i32 2
  %5 = load %"struct.std::__1::__function::__policy"*, %"struct.std::__1::__function::__policy"** %4, align 8
  %6 = getelementptr inbounds %"struct.std::__1::__function::__policy", %"struct.std::__1::__function::__policy"* %5, i64 0, i32 2
  %7 = load i8, i8* %6, align 8, !range !3
  %8 = icmp eq i8 %7, 0
  br i1 %8, label %9, label %59

9:                                                ; preds = %2
  %10 = getelementptr inbounds %"class.std::__1::function.283", %"class.std::__1::function.283"* %1, i64 0, i32 0, i32 0, i32 0
  %11 = load i8*, i8** %10, align 8
  %12 = getelementptr inbounds %"class.std::__1::function.283", %"class.std::__1::function.283"* %1, i64 0, i32 0, i32 0, i32 1
  %13 = bitcast [8 x i8]* %12 to <2 x i64>*
  %14 = load <2 x i64>, <2 x i64>* %13, align 8
  %15 = getelementptr inbounds %"struct.std::__1::__function::__policy", %"struct.std::__1::__function::__policy"* %5, i64 0, i32 0
  %16 = load i8* (i8*)*, i8* (i8*)** %15, align 8
  %17 = icmp eq i8* (i8*)* %16, null
  br i1 %17, label %18, label %20

18:                                               ; preds = %9
  %19 = getelementptr inbounds %"class.perfetto::ipc::Deferred.282", %"class.perfetto::ipc::Deferred.282"* %0, i64 0, i32 0
  br label %27

20:                                               ; preds = %9
  %21 = tail call i8* %16(i8* %11) #14
  %22 = load i8* (i8*)*, i8* (i8*)** %15, align 8
  %23 = getelementptr inbounds %"class.perfetto::ipc::Deferred.282", %"class.perfetto::ipc::Deferred.282"* %0, i64 0, i32 0
  %24 = icmp eq i8* (i8*)* %22, null
  br i1 %24, label %27, label %25

25:                                               ; preds = %20
  %26 = tail call i8* %22(i8* %21) #14
  br label %27

27:                                               ; preds = %18, %20, %25
  %28 = phi %"class.perfetto::ipc::DeferredBase"* [ %23, %20 ], [ %23, %25 ], [ %19, %18 ]
  %29 = phi i8* [ %21, %20 ], [ %21, %25 ], [ %11, %18 ]
  %30 = phi i8* [ %21, %20 ], [ %26, %25 ], [ %11, %18 ]
  %31 = getelementptr inbounds %"class.std::__1::function", %"class.std::__1::function"* %3, i64 0, i32 0, i32 1, i32 0
  %32 = getelementptr inbounds %"class.std::__1::function", %"class.std::__1::function"* %3, i64 0, i32 0, i32 2
  store void (%"union.std::__1::__function::__policy_storage"*, %"class.perfetto::ipc::AsyncResult"*)* @_ZNSt3__110__function16__policy_invokerIFvN8perfetto3ipc11AsyncResultIN9protozero13CppMessageObjEEEEE11__call_implINS0_20__default_alloc_funcIZNS3_8DeferredINS2_6protos3gen13FlushResponseEE4BindENS_8functionIFvNS4_ISF_EEEEEEUlS7_E_S8_EEEEvPKNS0_16__policy_storageEOS7_, void (%"union.std::__1::__function::__policy_storage"*, %"class.perfetto::ipc::AsyncResult"*)** %31, align 8
  store %"struct.std::__1::__function::__policy"* @_ZZNSt3__110__function8__policy15__choose_policyINS0_20__default_alloc_funcIZN8perfetto3ipc8DeferredINS4_6protos3gen13FlushResponseEE4BindENS_8functionIFvNS5_11AsyncResultIS9_EEEEEEUlNSC_IN9protozero13CppMessageObjEEEE_FvSI_EEEEEPKS1_NS_17integral_constantIbLb0EEEE9__policy_, %"struct.std::__1::__function::__policy"** %32, align 8
  %33 = tail call i8* @_Znwm(i64 32) #13, !noalias !47
  %34 = bitcast i8* %33 to i8**
  store i8* %30, i8** %34, align 8
  %35 = getelementptr inbounds i8, i8* %33, i64 8
  %36 = bitcast i8* %35 to <2 x i64>*
  store <2 x i64> %14, <2 x i64>* %36, align 8
  %37 = getelementptr inbounds i8, i8* %33, i64 24
  %38 = bitcast i8* %37 to %"struct.std::__1::__function::__policy"**
  store %"struct.std::__1::__function::__policy"* %5, %"struct.std::__1::__function::__policy"** %38, align 8
  %39 = getelementptr inbounds %"struct.std::__1::__function::__policy", %"struct.std::__1::__function::__policy"* %5, i64 0, i32 1
  %40 = load void (i8*)*, void (i8*)** %39, align 8
  %41 = icmp eq void (i8*)* %40, null
  %42 = select i1 %41, %"struct.std::__1::__function::__policy"* %5, %"struct.std::__1::__function::__policy"* @_ZZNSt3__110__function8__policy14__create_emptyEvE9__policy_
  %43 = getelementptr inbounds %"class.std::__1::function", %"class.std::__1::function"* %3, i64 0, i32 0, i32 0, i32 0
  store i8* %33, i8** %43, align 8
  call void @_ZN8perfetto3ipc12DeferredBase4BindENSt3__18functionIFvNS0_11AsyncResultIN9protozero13CppMessageObjEEEEEE(%"class.perfetto::ipc::DeferredBase"* %28, %"class.std::__1::function"* nonnull %3) #14
  %44 = load %"struct.std::__1::__function::__policy"*, %"struct.std::__1::__function::__policy"** %32, align 8
  %45 = getelementptr inbounds %"struct.std::__1::__function::__policy", %"struct.std::__1::__function::__policy"* %44, i64 0, i32 1
  %46 = load void (i8*)*, void (i8*)** %45, align 8
  %47 = icmp eq void (i8*)* %46, null
  br i1 %47, label %50, label %48

48:                                               ; preds = %27
  %49 = load i8*, i8** %43, align 8
  call void %46(i8* %49) #14
  br label %50

50:                                               ; preds = %27, %48
  %51 = getelementptr inbounds %"struct.std::__1::__function::__policy", %"struct.std::__1::__function::__policy"* %42, i64 0, i32 1
  %52 = load void (i8*)*, void (i8*)** %51, align 8
  %53 = icmp eq void (i8*)* %52, null
  br i1 %53, label %55, label %54

54:                                               ; preds = %50
  call void %52(i8* %30) #14
  br label %55

55:                                               ; preds = %50, %54
  %56 = load void (i8*)*, void (i8*)** %39, align 8
  %57 = icmp eq void (i8*)* %56, null
  br i1 %57, label %59, label %58

58:                                               ; preds = %55
  call void %56(i8* %29) #14
  br label %59

59:                                               ; preds = %58, %55, %2
  ret void
}

declare void @_ZN8perfetto6protos3gen17ConsumerPortProxy5FlushERKNS1_12FlushRequestENS_3ipc8DeferredINS1_13FlushResponseEEEi(%"class.perfetto::protos::gen::ConsumerPortProxy"*, %"class.perfetto::protos::gen::FlushRequest"* dereferenceable(48), %"class.perfetto::ipc::Deferred.282"*, i32) local_unnamed_addr #2

; Function Attrs: nounwind
declare void @_ZN8perfetto6protos3gen12FlushRequestD1Ev(%"class.perfetto::protos::gen::FlushRequest"*) unnamed_addr #3

; Function Attrs: nounwind ssp uwtable
define hidden void @_ZN8perfetto21ConsumerIPCClientImpl6DetachERKNSt3__112basic_stringIcNS1_11char_traitsIcEENS1_9allocatorIcEEEE(%"class.perfetto::ConsumerIPCClientImpl"*, %"class.std::__1::basic_string"* dereferenceable(24)) unnamed_addr #0 align 2 {
  %3 = alloca %"class.std::__1::function", align 8
  %4 = alloca %"class.std::__1::function.298", align 8
  %5 = alloca %"class.perfetto::protos::gen::DetachRequest", align 8
  %6 = alloca %"class.perfetto::ipc::Deferred.297", align 8
  %7 = alloca %"class.std::__1::function.298", align 8
  %8 = alloca %"class.perfetto::ipc::Deferred.297", align 8
  %9 = getelementptr inbounds %"class.perfetto::ConsumerIPCClientImpl", %"class.perfetto::ConsumerIPCClientImpl"* %0, i64 0, i32 5
  %10 = load i8, i8* %9, align 8, !range !3
  %11 = icmp eq i8 %10, 0
  br i1 %11, label %114, label %12

12:                                               ; preds = %2
  %13 = bitcast %"class.perfetto::protos::gen::DetachRequest"* %5 to i8*
  call void @llvm.lifetime.start.p0i8(i64 64, i8* nonnull %13) #14
  call void @llvm.memset.p0i8.i64(i8* nonnull align 8 %13, i8 -86, i64 64, i1 false)
  call void @_ZN8perfetto6protos3gen13DetachRequestC1Ev(%"class.perfetto::protos::gen::DetachRequest"* nonnull %5) #14
  %14 = getelementptr inbounds %"class.perfetto::protos::gen::DetachRequest", %"class.perfetto::protos::gen::DetachRequest"* %5, i64 0, i32 1
  %15 = icmp eq %"class.std::__1::basic_string"* %14, %1
  br i1 %15, label %45, label %16

16:                                               ; preds = %12
  %17 = bitcast %"class.std::__1::basic_string"* %14 to %"struct.std::__1::basic_string<char, std::__1::char_traits<char>, std::__1::allocator<char> >::__short"*
  %18 = getelementptr inbounds %"struct.std::__1::basic_string<char, std::__1::char_traits<char>, std::__1::allocator<char> >::__short", %"struct.std::__1::basic_string<char, std::__1::char_traits<char>, std::__1::allocator<char> >::__short"* %17, i64 0, i32 1, i32 0
  %19 = load i8, i8* %18, align 1
  %20 = icmp slt i8 %19, 0
  %21 = bitcast %"class.std::__1::basic_string"* %1 to %"struct.std::__1::basic_string<char, std::__1::char_traits<char>, std::__1::allocator<char> >::__short"*
  %22 = getelementptr inbounds %"struct.std::__1::basic_string<char, std::__1::char_traits<char>, std::__1::allocator<char> >::__short", %"struct.std::__1::basic_string<char, std::__1::char_traits<char>, std::__1::allocator<char> >::__short"* %21, i64 0, i32 1, i32 0
  %23 = load i8, i8* %22, align 1
  %24 = icmp slt i8 %23, 0
  br i1 %20, label %35, label %25

25:                                               ; preds = %16
  br i1 %24, label %29, label %26

26:                                               ; preds = %25
  %27 = bitcast %"class.std::__1::basic_string"* %14 to i8*
  %28 = bitcast %"class.std::__1::basic_string"* %1 to i8*
  call void @llvm.memcpy.p0i8.p0i8.i64(i8* align 8 %27, i8* align 8 %28, i64 24, i1 false) #14
  br label %45

29:                                               ; preds = %25
  %30 = getelementptr inbounds %"class.std::__1::basic_string", %"class.std::__1::basic_string"* %1, i64 0, i32 0, i32 0, i32 0, i32 0, i32 0, i32 0
  %31 = load i8*, i8** %30, align 8
  %32 = getelementptr inbounds %"class.std::__1::basic_string", %"class.std::__1::basic_string"* %1, i64 0, i32 0, i32 0, i32 0, i32 0, i32 0, i32 1
  %33 = load i64, i64* %32, align 8
  %34 = call dereferenceable(24) %"class.std::__1::basic_string"* @_ZNSt3__112basic_stringIcNS_11char_traitsIcEENS_9allocatorIcEEE17__assign_no_aliasILb1EEERS5_PKcm(%"class.std::__1::basic_string"* %14, i8* %31, i64 %33) #14
  br label %45

35:                                               ; preds = %16
  %36 = getelementptr inbounds %"class.std::__1::basic_string", %"class.std::__1::basic_string"* %1, i64 0, i32 0, i32 0, i32 0, i32 0, i32 0, i32 0
  %37 = load i8*, i8** %36, align 8
  %38 = getelementptr inbounds %"class.std::__1::basic_string", %"class.std::__1::basic_string"* %1, i64 0, i32 0, i32 0, i32 0, i32 0, i32 0, i32 1
  %39 = load i64, i64* %38, align 8
  %40 = bitcast %"class.std::__1::basic_string"* %1 to i8*
  %41 = zext i8 %23 to i64
  %42 = select i1 %24, i8* %37, i8* %40
  %43 = select i1 %24, i64 %39, i64 %41
  %44 = call dereferenceable(24) %"class.std::__1::basic_string"* @_ZNSt3__112basic_stringIcNS_11char_traitsIcEENS_9allocatorIcEEE17__assign_no_aliasILb0EEERS5_PKcm(%"class.std::__1::basic_string"* %14, i8* %42, i64 %43) #14
  br label %45

45:                                               ; preds = %12, %26, %29, %35
  %46 = getelementptr inbounds %"class.perfetto::protos::gen::DetachRequest", %"class.perfetto::protos::gen::DetachRequest"* %5, i64 0, i32 3, i32 0, i32 0
  %47 = load i64, i64* %46, align 8
  %48 = or i64 %47, 2
  store i64 %48, i64* %46, align 8
  %49 = bitcast %"class.perfetto::ipc::Deferred.297"* %6 to i8*
  call void @llvm.lifetime.start.p0i8(i64 32, i8* nonnull %49) #14
  %50 = bitcast %"class.std::__1::function"* %3 to i8*
  %51 = bitcast %"class.perfetto::ipc::Deferred.297"* %6 to i8*
  call void @llvm.memset.p0i8.i64(i8* nonnull align 8 %51, i8 -86, i64 32, i1 false)
  call void @llvm.lifetime.start.p0i8(i64 32, i8* nonnull %50)
  %52 = bitcast %"class.std::__1::function.298"* %4 to i8*
  call void @llvm.lifetime.start.p0i8(i64 32, i8* nonnull %52)
  %53 = getelementptr inbounds %"class.perfetto::ipc::Deferred.297", %"class.perfetto::ipc::Deferred.297"* %6, i64 0, i32 0
  %54 = getelementptr inbounds %"class.std::__1::function", %"class.std::__1::function"* %3, i64 0, i32 0, i32 1, i32 0
  store void (%"union.std::__1::__function::__policy_storage"*, %"class.perfetto::ipc::AsyncResult"*)* @_ZNSt3__110__function16__policy_invokerIFvN8perfetto3ipc11AsyncResultIN9protozero13CppMessageObjEEEEE12__call_emptyEPKNS0_16__policy_storageEOS7_, void (%"union.std::__1::__function::__policy_storage"*, %"class.perfetto::ipc::AsyncResult"*)** %54, align 8
  %55 = getelementptr inbounds %"class.std::__1::function", %"class.std::__1::function"* %3, i64 0, i32 0, i32 2
  store %"struct.std::__1::__function::__policy"* @_ZZNSt3__110__function8__policy14__create_emptyEvE9__policy_, %"struct.std::__1::__function::__policy"** %55, align 8
  call void @_ZN8perfetto3ipc12DeferredBaseC2ENSt3__18functionIFvNS0_11AsyncResultIN9protozero13CppMessageObjEEEEEE(%"class.perfetto::ipc::DeferredBase"* nonnull %53, %"class.std::__1::function"* nonnull %3) #14
  %56 = load %"struct.std::__1::__function::__policy"*, %"struct.std::__1::__function::__policy"** %55, align 8
  %57 = getelementptr inbounds %"struct.std::__1::__function::__policy", %"struct.std::__1::__function::__policy"* %56, i64 0, i32 1
  %58 = load void (i8*)*, void (i8*)** %57, align 8
  %59 = icmp eq void (i8*)* %58, null
  br i1 %59, label %63, label %60

60:                                               ; preds = %45
  %61 = getelementptr inbounds %"class.std::__1::function", %"class.std::__1::function"* %3, i64 0, i32 0, i32 0, i32 0
  %62 = load i8*, i8** %61, align 8
  call void %58(i8* %62) #14
  br label %63

63:                                               ; preds = %45, %60
  %64 = getelementptr inbounds %"class.std::__1::function.298", %"class.std::__1::function.298"* %4, i64 0, i32 0, i32 1
  %65 = bitcast %"struct.std::__1::__function::__policy_invoker.303"* %64 to i64*
  store i64 ptrtoint (void (%"union.std::__1::__function::__policy_storage"*, %"class.perfetto::ipc::AsyncResult.304"*)* @_ZNSt3__110__function16__policy_invokerIFvN8perfetto3ipc11AsyncResultINS2_6protos3gen14DetachResponseEEEEE12__call_emptyEPKNS0_16__policy_storageEOS8_ to i64), i64* %65, align 8
  %66 = getelementptr inbounds %"class.std::__1::function.298", %"class.std::__1::function.298"* %4, i64 0, i32 0, i32 2
  store %"struct.std::__1::__function::__policy"* @_ZZNSt3__110__function8__policy14__create_emptyEvE9__policy_, %"struct.std::__1::__function::__policy"** %66, align 8
  call void @_ZN8perfetto3ipc8DeferredINS_6protos3gen14DetachResponseEE4BindENSt3__18functionIFvNS0_11AsyncResultIS4_EEEEE(%"class.perfetto::ipc::Deferred.297"* nonnull %6, %"class.std::__1::function.298"* nonnull %4) #14
  %67 = load %"struct.std::__1::__function::__policy"*, %"struct.std::__1::__function::__policy"** %66, align 8
  %68 = getelementptr inbounds %"struct.std::__1::__function::__policy", %"struct.std::__1::__function::__policy"* %67, i64 0, i32 1
  %69 = load void (i8*)*, void (i8*)** %68, align 8
  %70 = icmp eq void (i8*)* %69, null
  br i1 %70, label %74, label %71

71:                                               ; preds = %63
  %72 = getelementptr inbounds %"class.std::__1::function.298", %"class.std::__1::function.298"* %4, i64 0, i32 0, i32 0, i32 0
  %73 = load i8*, i8** %72, align 8
  call void %69(i8* %73) #14
  br label %74

74:                                               ; preds = %71, %63
  call void @llvm.lifetime.end.p0i8(i64 32, i8* nonnull %50)
  call void @llvm.lifetime.end.p0i8(i64 32, i8* nonnull %52)
  %75 = getelementptr inbounds %"class.perfetto::ConsumerIPCClientImpl", %"class.perfetto::ConsumerIPCClientImpl"* %0, i64 0, i32 8, i32 0, i32 0, i32 0
  %76 = bitcast %"class.perfetto::ConsumerIPCClientImpl"*** %75 to i64*
  %77 = load i64, i64* %76, align 8
  %78 = getelementptr inbounds %"class.perfetto::ConsumerIPCClientImpl", %"class.perfetto::ConsumerIPCClientImpl"* %0, i64 0, i32 8, i32 0, i32 0, i32 1
  %79 = load %"class.std::__1::__shared_weak_count"*, %"class.std::__1::__shared_weak_count"** %78, align 8
  %80 = icmp eq %"class.std::__1::__shared_weak_count"* %79, null
  br i1 %80, label %85, label %81

81:                                               ; preds = %74
  %82 = getelementptr inbounds %"class.std::__1::__shared_weak_count", %"class.std::__1::__shared_weak_count"* %79, i64 0, i32 0, i32 1
  %83 = atomicrmw add i64* %82, i64 1 monotonic
  %84 = atomicrmw add i64* %82, i64 1 monotonic
  br label %85

85:                                               ; preds = %74, %81
  %86 = ptrtoint %"class.std::__1::__shared_weak_count"* %79 to i64
  %87 = getelementptr inbounds %"class.std::__1::function.298", %"class.std::__1::function.298"* %7, i64 0, i32 0, i32 1, i32 0
  %88 = getelementptr inbounds %"class.std::__1::function.298", %"class.std::__1::function.298"* %7, i64 0, i32 0, i32 2
  store void (%"union.std::__1::__function::__policy_storage"*, %"class.perfetto::ipc::AsyncResult.304"*)* @"_ZNSt3__110__function16__policy_invokerIFvN8perfetto3ipc11AsyncResultINS2_6protos3gen14DetachResponseEEEEE11__call_implINS0_20__default_alloc_funcIZNS2_21ConsumerIPCClientImpl6DetachERKNS_12basic_stringIcNS_11char_traitsIcEENS_9allocatorIcEEEEE3$_7S9_EEEEvPKNS0_16__policy_storageEOS8_", void (%"union.std::__1::__function::__policy_storage"*, %"class.perfetto::ipc::AsyncResult.304"*)** %87, align 8
  store %"struct.std::__1::__function::__policy"* @"_ZZNSt3__110__function8__policy15__choose_policyINS0_20__default_alloc_funcIZN8perfetto21ConsumerIPCClientImpl6DetachERKNS_12basic_stringIcNS_11char_traitsIcEENS_9allocatorIcEEEEE3$_7FvNS4_3ipc11AsyncResultINS4_6protos3gen14DetachResponseEEEEEEEEPKS1_NS_17integral_constantIbLb0EEEE9__policy_", %"struct.std::__1::__function::__policy"** %88, align 8
  %89 = call i8* @_Znwm(i64 16) #13, !noalias !52
  %90 = bitcast i8* %89 to i64*
  store i64 %77, i64* %90, align 8
  %91 = getelementptr inbounds i8, i8* %89, i64 8
  %92 = bitcast i8* %91 to i64*
  store i64 %86, i64* %92, align 8
  %93 = getelementptr inbounds %"class.std::__1::function.298", %"class.std::__1::function.298"* %7, i64 0, i32 0, i32 0, i32 0
  store i8* %89, i8** %93, align 8
  call void @_ZN8perfetto3ipc8DeferredINS_6protos3gen14DetachResponseEE4BindENSt3__18functionIFvNS0_11AsyncResultIS4_EEEEE(%"class.perfetto::ipc::Deferred.297"* nonnull %6, %"class.std::__1::function.298"* nonnull %7)
  %94 = load %"struct.std::__1::__function::__policy"*, %"struct.std::__1::__function::__policy"** %88, align 8
  %95 = getelementptr inbounds %"struct.std::__1::__function::__policy", %"struct.std::__1::__function::__policy"* %94, i64 0, i32 1
  %96 = load void (i8*)*, void (i8*)** %95, align 8
  %97 = icmp eq void (i8*)* %96, null
  br i1 %97, label %100, label %98

98:                                               ; preds = %85
  %99 = load i8*, i8** %93, align 8
  call void %96(i8* %99) #14
  br label %100

100:                                              ; preds = %85, %98
  %101 = getelementptr inbounds %"class.perfetto::ConsumerIPCClientImpl", %"class.perfetto::ConsumerIPCClientImpl"* %0, i64 0, i32 4
  %102 = getelementptr inbounds %"class.perfetto::ipc::Deferred.297", %"class.perfetto::ipc::Deferred.297"* %8, i64 0, i32 0
  call void @_ZN8perfetto3ipc12DeferredBaseC2EOS1_(%"class.perfetto::ipc::DeferredBase"* nonnull %102, %"class.perfetto::ipc::DeferredBase"* nonnull dereferenceable(32) %53) #14
  call void @_ZN8perfetto6protos3gen17ConsumerPortProxy6DetachERKNS1_13DetachRequestENS_3ipc8DeferredINS1_14DetachResponseEEEi(%"class.perfetto::protos::gen::ConsumerPortProxy"* %101, %"class.perfetto::protos::gen::DetachRequest"* nonnull dereferenceable(64) %5, %"class.perfetto::ipc::Deferred.297"* nonnull %8, i32 -1) #14
  call void @_ZN8perfetto3ipc12DeferredBaseD2Ev(%"class.perfetto::ipc::DeferredBase"* nonnull %102) #14
  br i1 %80, label %113, label %103

103:                                              ; preds = %100
  %104 = getelementptr inbounds %"class.std::__1::__shared_weak_count", %"class.std::__1::__shared_weak_count"* %79, i64 0, i32 0, i32 1
  %105 = atomicrmw add i64* %104, i64 -1 acq_rel
  %106 = icmp eq i64 %105, 0
  br i1 %106, label %107, label %113

107:                                              ; preds = %103
  %108 = getelementptr inbounds %"class.std::__1::__shared_weak_count", %"class.std::__1::__shared_weak_count"* %79, i64 0, i32 0
  %109 = bitcast %"class.std::__1::__shared_weak_count"* %79 to void (%"class.std::__1::__shared_count"*)***
  %110 = load void (%"class.std::__1::__shared_count"*)**, void (%"class.std::__1::__shared_count"*)*** %109, align 8
  %111 = getelementptr inbounds void (%"class.std::__1::__shared_count"*)*, void (%"class.std::__1::__shared_count"*)** %110, i64 2
  %112 = load void (%"class.std::__1::__shared_count"*)*, void (%"class.std::__1::__shared_count"*)** %111, align 8
  call void %112(%"class.std::__1::__shared_count"* %108) #14
  call void @_ZNSt3__119__shared_weak_count14__release_weakEv(%"class.std::__1::__shared_weak_count"* nonnull %79) #14
  br label %113

113:                                              ; preds = %100, %103, %107
  call void @_ZN8perfetto3ipc12DeferredBaseD2Ev(%"class.perfetto::ipc::DeferredBase"* nonnull %53) #14
  call void @llvm.lifetime.end.p0i8(i64 32, i8* nonnull %49) #14
  call void @_ZN8perfetto6protos3gen13DetachRequestD1Ev(%"class.perfetto::protos::gen::DetachRequest"* nonnull %5) #14
  call void @llvm.lifetime.end.p0i8(i64 64, i8* nonnull %13) #14
  br label %114

114:                                              ; preds = %2, %113
  ret void
}

declare void @_ZN8perfetto6protos3gen13DetachRequestC1Ev(%"class.perfetto::protos::gen::DetachRequest"*) unnamed_addr #2

; Function Attrs: nounwind ssp uwtable
define linkonce_odr hidden void @_ZN8perfetto3ipc8DeferredINS_6protos3gen14DetachResponseEE4BindENSt3__18functionIFvNS0_11AsyncResultIS4_EEEEE(%"class.perfetto::ipc::Deferred.297"*, %"class.std::__1::function.298"*) local_unnamed_addr #0 comdat align 2 {
  %3 = alloca %"class.std::__1::function", align 8
  %4 = getelementptr inbounds %"class.std::__1::function.298", %"class.std::__1::function.298"* %1, i64 0, i32 0, i32 2
  %5 = load %"struct.std::__1::__function::__policy"*, %"struct.std::__1::__function::__policy"** %4, align 8
  %6 = getelementptr inbounds %"struct.std::__1::__function::__policy", %"struct.std::__1::__function::__policy"* %5, i64 0, i32 2
  %7 = load i8, i8* %6, align 8, !range !3
  %8 = icmp eq i8 %7, 0
  br i1 %8, label %9, label %59

9:                                                ; preds = %2
  %10 = getelementptr inbounds %"class.std::__1::function.298", %"class.std::__1::function.298"* %1, i64 0, i32 0, i32 0, i32 0
  %11 = load i8*, i8** %10, align 8
  %12 = getelementptr inbounds %"class.std::__1::function.298", %"class.std::__1::function.298"* %1, i64 0, i32 0, i32 0, i32 1
  %13 = bitcast [8 x i8]* %12 to <2 x i64>*
  %14 = load <2 x i64>, <2 x i64>* %13, align 8
  %15 = getelementptr inbounds %"struct.std::__1::__function::__policy", %"struct.std::__1::__function::__policy"* %5, i64 0, i32 0
  %16 = load i8* (i8*)*, i8* (i8*)** %15, align 8
  %17 = icmp eq i8* (i8*)* %16, null
  br i1 %17, label %18, label %20

18:                                               ; preds = %9
  %19 = getelementptr inbounds %"class.perfetto::ipc::Deferred.297", %"class.perfetto::ipc::Deferred.297"* %0, i64 0, i32 0
  br label %27

20:                                               ; preds = %9
  %21 = tail call i8* %16(i8* %11) #14
  %22 = load i8* (i8*)*, i8* (i8*)** %15, align 8
  %23 = getelementptr inbounds %"class.perfetto::ipc::Deferred.297", %"class.perfetto::ipc::Deferred.297"* %0, i64 0, i32 0
  %24 = icmp eq i8* (i8*)* %22, null
  br i1 %24, label %27, label %25

25:                                               ; preds = %20
  %26 = tail call i8* %22(i8* %21) #14
  br label %27

27:                                               ; preds = %18, %20, %25
  %28 = phi %"class.perfetto::ipc::DeferredBase"* [ %23, %20 ], [ %23, %25 ], [ %19, %18 ]
  %29 = phi i8* [ %21, %20 ], [ %21, %25 ], [ %11, %18 ]
  %30 = phi i8* [ %21, %20 ], [ %26, %25 ], [ %11, %18 ]
  %31 = getelementptr inbounds %"class.std::__1::function", %"class.std::__1::function"* %3, i64 0, i32 0, i32 1, i32 0
  %32 = getelementptr inbounds %"class.std::__1::function", %"class.std::__1::function"* %3, i64 0, i32 0, i32 2
  store void (%"union.std::__1::__function::__policy_storage"*, %"class.perfetto::ipc::AsyncResult"*)* @_ZNSt3__110__function16__policy_invokerIFvN8perfetto3ipc11AsyncResultIN9protozero13CppMessageObjEEEEE11__call_implINS0_20__default_alloc_funcIZNS3_8DeferredINS2_6protos3gen14DetachResponseEE4BindENS_8functionIFvNS4_ISF_EEEEEEUlS7_E_S8_EEEEvPKNS0_16__policy_storageEOS7_, void (%"union.std::__1::__function::__policy_storage"*, %"class.perfetto::ipc::AsyncResult"*)** %31, align 8
  store %"struct.std::__1::__function::__policy"* @_ZZNSt3__110__function8__policy15__choose_policyINS0_20__default_alloc_funcIZN8perfetto3ipc8DeferredINS4_6protos3gen14DetachResponseEE4BindENS_8functionIFvNS5_11AsyncResultIS9_EEEEEEUlNSC_IN9protozero13CppMessageObjEEEE_FvSI_EEEEEPKS1_NS_17integral_constantIbLb0EEEE9__policy_, %"struct.std::__1::__function::__policy"** %32, align 8
  %33 = tail call i8* @_Znwm(i64 32) #13, !noalias !57
  %34 = bitcast i8* %33 to i8**
  store i8* %30, i8** %34, align 8
  %35 = getelementptr inbounds i8, i8* %33, i64 8
  %36 = bitcast i8* %35 to <2 x i64>*
  store <2 x i64> %14, <2 x i64>* %36, align 8
  %37 = getelementptr inbounds i8, i8* %33, i64 24
  %38 = bitcast i8* %37 to %"struct.std::__1::__function::__policy"**
  store %"struct.std::__1::__function::__policy"* %5, %"struct.std::__1::__function::__policy"** %38, align 8
  %39 = getelementptr inbounds %"struct.std::__1::__function::__policy", %"struct.std::__1::__function::__policy"* %5, i64 0, i32 1
  %40 = load void (i8*)*, void (i8*)** %39, align 8
  %41 = icmp eq void (i8*)* %40, null
  %42 = select i1 %41, %"struct.std::__1::__function::__policy"* %5, %"struct.std::__1::__function::__policy"* @_ZZNSt3__110__function8__policy14__create_emptyEvE9__policy_
  %43 = getelementptr inbounds %"class.std::__1::function", %"class.std::__1::function"* %3, i64 0, i32 0, i32 0, i32 0
  store i8* %33, i8** %43, align 8
  call void @_ZN8perfetto3ipc12DeferredBase4BindENSt3__18functionIFvNS0_11AsyncResultIN9protozero13CppMessageObjEEEEEE(%"class.perfetto::ipc::DeferredBase"* %28, %"class.std::__1::function"* nonnull %3) #14
  %44 = load %"struct.std::__1::__function::__policy"*, %"struct.std::__1::__function::__policy"** %32, align 8
  %45 = getelementptr inbounds %"struct.std::__1::__function::__policy", %"struct.std::__1::__function::__policy"* %44, i64 0, i32 1
  %46 = load void (i8*)*, void (i8*)** %45, align 8
  %47 = icmp eq void (i8*)* %46, null
  br i1 %47, label %50, label %48

48:                                               ; preds = %27
  %49 = load i8*, i8** %43, align 8
  call void %46(i8* %49) #14
  br label %50

50:                                               ; preds = %27, %48
  %51 = getelementptr inbounds %"struct.std::__1::__function::__policy", %"struct.std::__1::__function::__policy"* %42, i64 0, i32 1
  %52 = load void (i8*)*, void (i8*)** %51, align 8
  %53 = icmp eq void (i8*)* %52, null
  br i1 %53, label %55, label %54

54:                                               ; preds = %50
  call void %52(i8* %30) #14
  br label %55

55:                                               ; preds = %50, %54
  %56 = load void (i8*)*, void (i8*)** %39, align 8
  %57 = icmp eq void (i8*)* %56, null
  br i1 %57, label %59, label %58

58:                                               ; preds = %55
  call void %56(i8* %29) #14
  br label %59

59:                                               ; preds = %58, %55, %2
  ret void
}

declare void @_ZN8perfetto6protos3gen17ConsumerPortProxy6DetachERKNS1_13DetachRequestENS_3ipc8DeferredINS1_14DetachResponseEEEi(%"class.perfetto::protos::gen::ConsumerPortProxy"*, %"class.perfetto::protos::gen::DetachRequest"* dereferenceable(64), %"class.perfetto::ipc::Deferred.297"*, i32) local_unnamed_addr #2

; Function Attrs: nounwind
declare void @_ZN8perfetto6protos3gen13DetachRequestD1Ev(%"class.perfetto::protos::gen::DetachRequest"*) unnamed_addr #3

; Function Attrs: nounwind ssp uwtable
define hidden void @_ZN8perfetto21ConsumerIPCClientImpl6AttachERKNSt3__112basic_stringIcNS1_11char_traitsIcEENS1_9allocatorIcEEEE(%"class.perfetto::ConsumerIPCClientImpl"*, %"class.std::__1::basic_string"* dereferenceable(24)) unnamed_addr #0 align 2 {
  %3 = alloca %"class.std::__1::function", align 8
  %4 = alloca %"class.std::__1::function.313", align 8
  %5 = alloca %"class.perfetto::protos::gen::AttachRequest", align 8
  %6 = alloca %"class.perfetto::ipc::Deferred.312", align 8
  %7 = alloca %"class.std::__1::function.313", align 8
  %8 = alloca %"class.perfetto::ipc::Deferred.312", align 8
  %9 = getelementptr inbounds %"class.perfetto::ConsumerIPCClientImpl", %"class.perfetto::ConsumerIPCClientImpl"* %0, i64 0, i32 5
  %10 = load i8, i8* %9, align 8, !range !3
  %11 = icmp eq i8 %10, 0
  br i1 %11, label %114, label %12

12:                                               ; preds = %2
  %13 = bitcast %"class.perfetto::protos::gen::AttachRequest"* %5 to i8*
  call void @llvm.lifetime.start.p0i8(i64 64, i8* nonnull %13) #14
  call void @llvm.memset.p0i8.i64(i8* nonnull align 8 %13, i8 -86, i64 64, i1 false)
  call void @_ZN8perfetto6protos3gen13AttachRequestC1Ev(%"class.perfetto::protos::gen::AttachRequest"* nonnull %5) #14
  %14 = getelementptr inbounds %"class.perfetto::protos::gen::AttachRequest", %"class.perfetto::protos::gen::AttachRequest"* %5, i64 0, i32 1
  %15 = icmp eq %"class.std::__1::basic_string"* %14, %1
  br i1 %15, label %45, label %16

16:                                               ; preds = %12
  %17 = bitcast %"class.std::__1::basic_string"* %14 to %"struct.std::__1::basic_string<char, std::__1::char_traits<char>, std::__1::allocator<char> >::__short"*
  %18 = getelementptr inbounds %"struct.std::__1::basic_string<char, std::__1::char_traits<char>, std::__1::allocator<char> >::__short", %"struct.std::__1::basic_string<char, std::__1::char_traits<char>, std::__1::allocator<char> >::__short"* %17, i64 0, i32 1, i32 0
  %19 = load i8, i8* %18, align 1
  %20 = icmp slt i8 %19, 0
  %21 = bitcast %"class.std::__1::basic_string"* %1 to %"struct.std::__1::basic_string<char, std::__1::char_traits<char>, std::__1::allocator<char> >::__short"*
  %22 = getelementptr inbounds %"struct.std::__1::basic_string<char, std::__1::char_traits<char>, std::__1::allocator<char> >::__short", %"struct.std::__1::basic_string<char, std::__1::char_traits<char>, std::__1::allocator<char> >::__short"* %21, i64 0, i32 1, i32 0
  %23 = load i8, i8* %22, align 1
  %24 = icmp slt i8 %23, 0
  br i1 %20, label %35, label %25

25:                                               ; preds = %16
  br i1 %24, label %29, label %26

26:                                               ; preds = %25
  %27 = bitcast %"class.std::__1::basic_string"* %14 to i8*
  %28 = bitcast %"class.std::__1::basic_string"* %1 to i8*
  call void @llvm.memcpy.p0i8.p0i8.i64(i8* align 8 %27, i8* align 8 %28, i64 24, i1 false) #14
  br label %45

29:                                               ; preds = %25
  %30 = getelementptr inbounds %"class.std::__1::basic_string", %"class.std::__1::basic_string"* %1, i64 0, i32 0, i32 0, i32 0, i32 0, i32 0, i32 0
  %31 = load i8*, i8** %30, align 8
  %32 = getelementptr inbounds %"class.std::__1::basic_string", %"class.std::__1::basic_string"* %1, i64 0, i32 0, i32 0, i32 0, i32 0, i32 0, i32 1
  %33 = load i64, i64* %32, align 8
  %34 = call dereferenceable(24) %"class.std::__1::basic_string"* @_ZNSt3__112basic_stringIcNS_11char_traitsIcEENS_9allocatorIcEEE17__assign_no_aliasILb1EEERS5_PKcm(%"class.std::__1::basic_string"* %14, i8* %31, i64 %33) #14
  br label %45

35:                                               ; preds = %16
  %36 = getelementptr inbounds %"class.std::__1::basic_string", %"class.std::__1::basic_string"* %1, i64 0, i32 0, i32 0, i32 0, i32 0, i32 0, i32 0
  %37 = load i8*, i8** %36, align 8
  %38 = getelementptr inbounds %"class.std::__1::basic_string", %"class.std::__1::basic_string"* %1, i64 0, i32 0, i32 0, i32 0, i32 0, i32 0, i32 1
  %39 = load i64, i64* %38, align 8
  %40 = bitcast %"class.std::__1::basic_string"* %1 to i8*
  %41 = zext i8 %23 to i64
  %42 = select i1 %24, i8* %37, i8* %40
  %43 = select i1 %24, i64 %39, i64 %41
  %44 = call dereferenceable(24) %"class.std::__1::basic_string"* @_ZNSt3__112basic_stringIcNS_11char_traitsIcEENS_9allocatorIcEEE17__assign_no_aliasILb0EEERS5_PKcm(%"class.std::__1::basic_string"* %14, i8* %42, i64 %43) #14
  br label %45

45:                                               ; preds = %12, %26, %29, %35
  %46 = getelementptr inbounds %"class.perfetto::protos::gen::AttachRequest", %"class.perfetto::protos::gen::AttachRequest"* %5, i64 0, i32 3, i32 0, i32 0
  %47 = load i64, i64* %46, align 8
  %48 = or i64 %47, 2
  store i64 %48, i64* %46, align 8
  %49 = bitcast %"class.perfetto::ipc::Deferred.312"* %6 to i8*
  call void @llvm.lifetime.start.p0i8(i64 32, i8* nonnull %49) #14
  %50 = bitcast %"class.std::__1::function"* %3 to i8*
  %51 = bitcast %"class.perfetto::ipc::Deferred.312"* %6 to i8*
  call void @llvm.memset.p0i8.i64(i8* nonnull align 8 %51, i8 -86, i64 32, i1 false)
  call void @llvm.lifetime.start.p0i8(i64 32, i8* nonnull %50)
  %52 = bitcast %"class.std::__1::function.313"* %4 to i8*
  call void @llvm.lifetime.start.p0i8(i64 32, i8* nonnull %52)
  %53 = getelementptr inbounds %"class.perfetto::ipc::Deferred.312", %"class.perfetto::ipc::Deferred.312"* %6, i64 0, i32 0
  %54 = getelementptr inbounds %"class.std::__1::function", %"class.std::__1::function"* %3, i64 0, i32 0, i32 1, i32 0
  store void (%"union.std::__1::__function::__policy_storage"*, %"class.perfetto::ipc::AsyncResult"*)* @_ZNSt3__110__function16__policy_invokerIFvN8perfetto3ipc11AsyncResultIN9protozero13CppMessageObjEEEEE12__call_emptyEPKNS0_16__policy_storageEOS7_, void (%"union.std::__1::__function::__policy_storage"*, %"class.perfetto::ipc::AsyncResult"*)** %54, align 8
  %55 = getelementptr inbounds %"class.std::__1::function", %"class.std::__1::function"* %3, i64 0, i32 0, i32 2
  store %"struct.std::__1::__function::__policy"* @_ZZNSt3__110__function8__policy14__create_emptyEvE9__policy_, %"struct.std::__1::__function::__policy"** %55, align 8
  call void @_ZN8perfetto3ipc12DeferredBaseC2ENSt3__18functionIFvNS0_11AsyncResultIN9protozero13CppMessageObjEEEEEE(%"class.perfetto::ipc::DeferredBase"* nonnull %53, %"class.std::__1::function"* nonnull %3) #14
  %56 = load %"struct.std::__1::__function::__policy"*, %"struct.std::__1::__function::__policy"** %55, align 8
  %57 = getelementptr inbounds %"struct.std::__1::__function::__policy", %"struct.std::__1::__function::__policy"* %56, i64 0, i32 1
  %58 = load void (i8*)*, void (i8*)** %57, align 8
  %59 = icmp eq void (i8*)* %58, null
  br i1 %59, label %63, label %60

60:                                               ; preds = %45
  %61 = getelementptr inbounds %"class.std::__1::function", %"class.std::__1::function"* %3, i64 0, i32 0, i32 0, i32 0
  %62 = load i8*, i8** %61, align 8
  call void %58(i8* %62) #14
  br label %63

63:                                               ; preds = %45, %60
  %64 = getelementptr inbounds %"class.std::__1::function.313", %"class.std::__1::function.313"* %4, i64 0, i32 0, i32 1
  %65 = bitcast %"struct.std::__1::__function::__policy_invoker.318"* %64 to i64*
  store i64 ptrtoint (void (%"union.std::__1::__function::__policy_storage"*, %"class.perfetto::ipc::AsyncResult.319"*)* @_ZNSt3__110__function16__policy_invokerIFvN8perfetto3ipc11AsyncResultINS2_6protos3gen14AttachResponseEEEEE12__call_emptyEPKNS0_16__policy_storageEOS8_ to i64), i64* %65, align 8
  %66 = getelementptr inbounds %"class.std::__1::function.313", %"class.std::__1::function.313"* %4, i64 0, i32 0, i32 2
  store %"struct.std::__1::__function::__policy"* @_ZZNSt3__110__function8__policy14__create_emptyEvE9__policy_, %"struct.std::__1::__function::__policy"** %66, align 8
  call void @_ZN8perfetto3ipc8DeferredINS_6protos3gen14AttachResponseEE4BindENSt3__18functionIFvNS0_11AsyncResultIS4_EEEEE(%"class.perfetto::ipc::Deferred.312"* nonnull %6, %"class.std::__1::function.313"* nonnull %4) #14
  %67 = load %"struct.std::__1::__function::__policy"*, %"struct.std::__1::__function::__policy"** %66, align 8
  %68 = getelementptr inbounds %"struct.std::__1::__function::__policy", %"struct.std::__1::__function::__policy"* %67, i64 0, i32 1
  %69 = load void (i8*)*, void (i8*)** %68, align 8
  %70 = icmp eq void (i8*)* %69, null
  br i1 %70, label %74, label %71

71:                                               ; preds = %63
  %72 = getelementptr inbounds %"class.std::__1::function.313", %"class.std::__1::function.313"* %4, i64 0, i32 0, i32 0, i32 0
  %73 = load i8*, i8** %72, align 8
  call void %69(i8* %73) #14
  br label %74

74:                                               ; preds = %71, %63
  call void @llvm.lifetime.end.p0i8(i64 32, i8* nonnull %50)
  call void @llvm.lifetime.end.p0i8(i64 32, i8* nonnull %52)
  %75 = getelementptr inbounds %"class.perfetto::ConsumerIPCClientImpl", %"class.perfetto::ConsumerIPCClientImpl"* %0, i64 0, i32 8, i32 0, i32 0, i32 0
  %76 = bitcast %"class.perfetto::ConsumerIPCClientImpl"*** %75 to i64*
  %77 = load i64, i64* %76, align 8
  %78 = getelementptr inbounds %"class.perfetto::ConsumerIPCClientImpl", %"class.perfetto::ConsumerIPCClientImpl"* %0, i64 0, i32 8, i32 0, i32 0, i32 1
  %79 = load %"class.std::__1::__shared_weak_count"*, %"class.std::__1::__shared_weak_count"** %78, align 8
  %80 = icmp eq %"class.std::__1::__shared_weak_count"* %79, null
  br i1 %80, label %85, label %81

81:                                               ; preds = %74
  %82 = getelementptr inbounds %"class.std::__1::__shared_weak_count", %"class.std::__1::__shared_weak_count"* %79, i64 0, i32 0, i32 1
  %83 = atomicrmw add i64* %82, i64 1 monotonic
  %84 = atomicrmw add i64* %82, i64 1 monotonic
  br label %85

85:                                               ; preds = %74, %81
  %86 = ptrtoint %"class.std::__1::__shared_weak_count"* %79 to i64
  %87 = getelementptr inbounds %"class.std::__1::function.313", %"class.std::__1::function.313"* %7, i64 0, i32 0, i32 1, i32 0
  %88 = getelementptr inbounds %"class.std::__1::function.313", %"class.std::__1::function.313"* %7, i64 0, i32 0, i32 2
  store void (%"union.std::__1::__function::__policy_storage"*, %"class.perfetto::ipc::AsyncResult.319"*)* @"_ZNSt3__110__function16__policy_invokerIFvN8perfetto3ipc11AsyncResultINS2_6protos3gen14AttachResponseEEEEE11__call_implINS0_20__default_alloc_funcIZNS2_21ConsumerIPCClientImpl6AttachERKNS_12basic_stringIcNS_11char_traitsIcEENS_9allocatorIcEEEEE3$_8S9_EEEEvPKNS0_16__policy_storageEOS8_", void (%"union.std::__1::__function::__policy_storage"*, %"class.perfetto::ipc::AsyncResult.319"*)** %87, align 8
  store %"struct.std::__1::__function::__policy"* @"_ZZNSt3__110__function8__policy15__choose_policyINS0_20__default_alloc_funcIZN8perfetto21ConsumerIPCClientImpl6AttachERKNS_12basic_stringIcNS_11char_traitsIcEENS_9allocatorIcEEEEE3$_8FvNS4_3ipc11AsyncResultINS4_6protos3gen14AttachResponseEEEEEEEEPKS1_NS_17integral_constantIbLb0EEEE9__policy_", %"struct.std::__1::__function::__policy"** %88, align 8
  %89 = call i8* @_Znwm(i64 16) #13, !noalias !62
  %90 = bitcast i8* %89 to i64*
  store i64 %77, i64* %90, align 8
  %91 = getelementptr inbounds i8, i8* %89, i64 8
  %92 = bitcast i8* %91 to i64*
  store i64 %86, i64* %92, align 8
  %93 = getelementptr inbounds %"class.std::__1::function.313", %"class.std::__1::function.313"* %7, i64 0, i32 0, i32 0, i32 0
  store i8* %89, i8** %93, align 8
  call void @_ZN8perfetto3ipc8DeferredINS_6protos3gen14AttachResponseEE4BindENSt3__18functionIFvNS0_11AsyncResultIS4_EEEEE(%"class.perfetto::ipc::Deferred.312"* nonnull %6, %"class.std::__1::function.313"* nonnull %7)
  %94 = load %"struct.std::__1::__function::__policy"*, %"struct.std::__1::__function::__policy"** %88, align 8
  %95 = getelementptr inbounds %"struct.std::__1::__function::__policy", %"struct.std::__1::__function::__policy"* %94, i64 0, i32 1
  %96 = load void (i8*)*, void (i8*)** %95, align 8
  %97 = icmp eq void (i8*)* %96, null
  br i1 %97, label %100, label %98

98:                                               ; preds = %85
  %99 = load i8*, i8** %93, align 8
  call void %96(i8* %99) #14
  br label %100

100:                                              ; preds = %85, %98
  %101 = getelementptr inbounds %"class.perfetto::ConsumerIPCClientImpl", %"class.perfetto::ConsumerIPCClientImpl"* %0, i64 0, i32 4
  %102 = getelementptr inbounds %"class.perfetto::ipc::Deferred.312", %"class.perfetto::ipc::Deferred.312"* %8, i64 0, i32 0
  call void @_ZN8perfetto3ipc12DeferredBaseC2EOS1_(%"class.perfetto::ipc::DeferredBase"* nonnull %102, %"class.perfetto::ipc::DeferredBase"* nonnull dereferenceable(32) %53) #14
  call void @_ZN8perfetto6protos3gen17ConsumerPortProxy6AttachERKNS1_13AttachRequestENS_3ipc8DeferredINS1_14AttachResponseEEEi(%"class.perfetto::protos::gen::ConsumerPortProxy"* %101, %"class.perfetto::protos::gen::AttachRequest"* nonnull dereferenceable(64) %5, %"class.perfetto::ipc::Deferred.312"* nonnull %8, i32 -1) #14
  call void @_ZN8perfetto3ipc12DeferredBaseD2Ev(%"class.perfetto::ipc::DeferredBase"* nonnull %102) #14
  br i1 %80, label %113, label %103

103:                                              ; preds = %100
  %104 = getelementptr inbounds %"class.std::__1::__shared_weak_count", %"class.std::__1::__shared_weak_count"* %79, i64 0, i32 0, i32 1
  %105 = atomicrmw add i64* %104, i64 -1 acq_rel
  %106 = icmp eq i64 %105, 0
  br i1 %106, label %107, label %113

107:                                              ; preds = %103
  %108 = getelementptr inbounds %"class.std::__1::__shared_weak_count", %"class.std::__1::__shared_weak_count"* %79, i64 0, i32 0
  %109 = bitcast %"class.std::__1::__shared_weak_count"* %79 to void (%"class.std::__1::__shared_count"*)***
  %110 = load void (%"class.std::__1::__shared_count"*)**, void (%"class.std::__1::__shared_count"*)*** %109, align 8
  %111 = getelementptr inbounds void (%"class.std::__1::__shared_count"*)*, void (%"class.std::__1::__shared_count"*)** %110, i64 2
  %112 = load void (%"class.std::__1::__shared_count"*)*, void (%"class.std::__1::__shared_count"*)** %111, align 8
  call void %112(%"class.std::__1::__shared_count"* %108) #14
  call void @_ZNSt3__119__shared_weak_count14__release_weakEv(%"class.std::__1::__shared_weak_count"* nonnull %79) #14
  br label %113

113:                                              ; preds = %100, %103, %107
  call void @_ZN8perfetto3ipc12DeferredBaseD2Ev(%"class.perfetto::ipc::DeferredBase"* nonnull %53) #14
  call void @llvm.lifetime.end.p0i8(i64 32, i8* nonnull %49) #14
  call void @_ZN8perfetto6protos3gen13AttachRequestD1Ev(%"class.perfetto::protos::gen::AttachRequest"* nonnull %5) #14
  call void @llvm.lifetime.end.p0i8(i64 64, i8* nonnull %13) #14
  br label %114

114:                                              ; preds = %2, %113
  ret void
}

declare void @_ZN8perfetto6protos3gen13AttachRequestC1Ev(%"class.perfetto::protos::gen::AttachRequest"*) unnamed_addr #2

; Function Attrs: nounwind ssp uwtable
define linkonce_odr hidden void @_ZN8perfetto3ipc8DeferredINS_6protos3gen14AttachResponseEE4BindENSt3__18functionIFvNS0_11AsyncResultIS4_EEEEE(%"class.perfetto::ipc::Deferred.312"*, %"class.std::__1::function.313"*) local_unnamed_addr #0 comdat align 2 {
  %3 = alloca %"class.std::__1::function", align 8
  %4 = getelementptr inbounds %"class.std::__1::function.313", %"class.std::__1::function.313"* %1, i64 0, i32 0, i32 2
  %5 = load %"struct.std::__1::__function::__policy"*, %"struct.std::__1::__function::__policy"** %4, align 8
  %6 = getelementptr inbounds %"struct.std::__1::__function::__policy", %"struct.std::__1::__function::__policy"* %5, i64 0, i32 2
  %7 = load i8, i8* %6, align 8, !range !3
  %8 = icmp eq i8 %7, 0
  br i1 %8, label %9, label %59

9:                                                ; preds = %2
  %10 = getelementptr inbounds %"class.std::__1::function.313", %"class.std::__1::function.313"* %1, i64 0, i32 0, i32 0, i32 0
  %11 = load i8*, i8** %10, align 8
  %12 = getelementptr inbounds %"class.std::__1::function.313", %"class.std::__1::function.313"* %1, i64 0, i32 0, i32 0, i32 1
  %13 = bitcast [8 x i8]* %12 to <2 x i64>*
  %14 = load <2 x i64>, <2 x i64>* %13, align 8
  %15 = getelementptr inbounds %"struct.std::__1::__function::__policy", %"struct.std::__1::__function::__policy"* %5, i64 0, i32 0
  %16 = load i8* (i8*)*, i8* (i8*)** %15, align 8
  %17 = icmp eq i8* (i8*)* %16, null
  br i1 %17, label %18, label %20

18:                                               ; preds = %9
  %19 = getelementptr inbounds %"class.perfetto::ipc::Deferred.312", %"class.perfetto::ipc::Deferred.312"* %0, i64 0, i32 0
  br label %27

20:                                               ; preds = %9
  %21 = tail call i8* %16(i8* %11) #14
  %22 = load i8* (i8*)*, i8* (i8*)** %15, align 8
  %23 = getelementptr inbounds %"class.perfetto::ipc::Deferred.312", %"class.perfetto::ipc::Deferred.312"* %0, i64 0, i32 0
  %24 = icmp eq i8* (i8*)* %22, null
  br i1 %24, label %27, label %25

25:                                               ; preds = %20
  %26 = tail call i8* %22(i8* %21) #14
  br label %27

27:                                               ; preds = %18, %20, %25
  %28 = phi %"class.perfetto::ipc::DeferredBase"* [ %23, %20 ], [ %23, %25 ], [ %19, %18 ]
  %29 = phi i8* [ %21, %20 ], [ %21, %25 ], [ %11, %18 ]
  %30 = phi i8* [ %21, %20 ], [ %26, %25 ], [ %11, %18 ]
  %31 = getelementptr inbounds %"class.std::__1::function", %"class.std::__1::function"* %3, i64 0, i32 0, i32 1, i32 0
  %32 = getelementptr inbounds %"class.std::__1::function", %"class.std::__1::function"* %3, i64 0, i32 0, i32 2
  store void (%"union.std::__1::__function::__policy_storage"*, %"class.perfetto::ipc::AsyncResult"*)* @_ZNSt3__110__function16__policy_invokerIFvN8perfetto3ipc11AsyncResultIN9protozero13CppMessageObjEEEEE11__call_implINS0_20__default_alloc_funcIZNS3_8DeferredINS2_6protos3gen14AttachResponseEE4BindENS_8functionIFvNS4_ISF_EEEEEEUlS7_E_S8_EEEEvPKNS0_16__policy_storageEOS7_, void (%"union.std::__1::__function::__policy_storage"*, %"class.perfetto::ipc::AsyncResult"*)** %31, align 8
  store %"struct.std::__1::__function::__policy"* @_ZZNSt3__110__function8__policy15__choose_policyINS0_20__default_alloc_funcIZN8perfetto3ipc8DeferredINS4_6protos3gen14AttachResponseEE4BindENS_8functionIFvNS5_11AsyncResultIS9_EEEEEEUlNSC_IN9protozero13CppMessageObjEEEE_FvSI_EEEEEPKS1_NS_17integral_constantIbLb0EEEE9__policy_, %"struct.std::__1::__function::__policy"** %32, align 8
  %33 = tail call i8* @_Znwm(i64 32) #13, !noalias !67
  %34 = bitcast i8* %33 to i8**
  store i8* %30, i8** %34, align 8
  %35 = getelementptr inbounds i8, i8* %33, i64 8
  %36 = bitcast i8* %35 to <2 x i64>*
  store <2 x i64> %14, <2 x i64>* %36, align 8
  %37 = getelementptr inbounds i8, i8* %33, i64 24
  %38 = bitcast i8* %37 to %"struct.std::__1::__function::__policy"**
  store %"struct.std::__1::__function::__policy"* %5, %"struct.std::__1::__function::__policy"** %38, align 8
  %39 = getelementptr inbounds %"struct.std::__1::__function::__policy", %"struct.std::__1::__function::__policy"* %5, i64 0, i32 1
  %40 = load void (i8*)*, void (i8*)** %39, align 8
  %41 = icmp eq void (i8*)* %40, null
  %42 = select i1 %41, %"struct.std::__1::__function::__policy"* %5, %"struct.std::__1::__function::__policy"* @_ZZNSt3__110__function8__policy14__create_emptyEvE9__policy_
  %43 = getelementptr inbounds %"class.std::__1::function", %"class.std::__1::function"* %3, i64 0, i32 0, i32 0, i32 0
  store i8* %33, i8** %43, align 8
  call void @_ZN8perfetto3ipc12DeferredBase4BindENSt3__18functionIFvNS0_11AsyncResultIN9protozero13CppMessageObjEEEEEE(%"class.perfetto::ipc::DeferredBase"* %28, %"class.std::__1::function"* nonnull %3) #14
  %44 = load %"struct.std::__1::__function::__policy"*, %"struct.std::__1::__function::__policy"** %32, align 8
  %45 = getelementptr inbounds %"struct.std::__1::__function::__policy", %"struct.std::__1::__function::__policy"* %44, i64 0, i32 1
  %46 = load void (i8*)*, void (i8*)** %45, align 8
  %47 = icmp eq void (i8*)* %46, null
  br i1 %47, label %50, label %48

48:                                               ; preds = %27
  %49 = load i8*, i8** %43, align 8
  call void %46(i8* %49) #14
  br label %50

50:                                               ; preds = %27, %48
  %51 = getelementptr inbounds %"struct.std::__1::__function::__policy", %"struct.std::__1::__function::__policy"* %42, i64 0, i32 1
  %52 = load void (i8*)*, void (i8*)** %51, align 8
  %53 = icmp eq void (i8*)* %52, null
  br i1 %53, label %55, label %54

54:                                               ; preds = %50
  call void %52(i8* %30) #14
  br label %55

55:                                               ; preds = %50, %54
  %56 = load void (i8*)*, void (i8*)** %39, align 8
  %57 = icmp eq void (i8*)* %56, null
  br i1 %57, label %59, label %58

58:                                               ; preds = %55
  call void %56(i8* %29) #14
  br label %59

59:                                               ; preds = %58, %55, %2
  ret void
}

declare void @_ZN8perfetto6protos3gen17ConsumerPortProxy6AttachERKNS1_13AttachRequestENS_3ipc8DeferredINS1_14AttachResponseEEEi(%"class.perfetto::protos::gen::ConsumerPortProxy"*, %"class.perfetto::protos::gen::AttachRequest"* dereferenceable(64), %"class.perfetto::ipc::Deferred.312"*, i32) local_unnamed_addr #2

; Function Attrs: nounwind
declare void @_ZN8perfetto6protos3gen13AttachRequestD1Ev(%"class.perfetto::protos::gen::AttachRequest"*) unnamed_addr #3

; Function Attrs: nounwind ssp uwtable
define hidden void @_ZN8perfetto21ConsumerIPCClientImpl13GetTraceStatsEv(%"class.perfetto::ConsumerIPCClientImpl"*) unnamed_addr #0 align 2 {
  %2 = alloca %"class.std::__1::function", align 8
  %3 = alloca %"class.std::__1::function.328", align 8
  %4 = alloca %"class.perfetto::protos::gen::GetTraceStatsRequest", align 8
  %5 = alloca %"class.perfetto::ipc::Deferred.327", align 8
  %6 = alloca %"class.std::__1::function.328", align 8
  %7 = alloca %"class.perfetto::ipc::Deferred.327", align 8
  %8 = getelementptr inbounds %"class.perfetto::ConsumerIPCClientImpl", %"class.perfetto::ConsumerIPCClientImpl"* %0, i64 0, i32 5
  %9 = load i8, i8* %8, align 8, !range !3
  %10 = icmp eq i8 %9, 0
  br i1 %10, label %54, label %11

11:                                               ; preds = %1
  %12 = bitcast %"class.perfetto::protos::gen::GetTraceStatsRequest"* %4 to i8*
  call void @llvm.lifetime.start.p0i8(i64 40, i8* nonnull %12) #14
  %13 = bitcast %"class.perfetto::protos::gen::GetTraceStatsRequest"* %4 to i8*
  call void @llvm.memset.p0i8.i64(i8* nonnull align 8 %13, i8 -86, i64 40, i1 false)
  call void @_ZN8perfetto6protos3gen20GetTraceStatsRequestC1Ev(%"class.perfetto::protos::gen::GetTraceStatsRequest"* nonnull %4) #14
  %14 = bitcast %"class.perfetto::ipc::Deferred.327"* %5 to i8*
  call void @llvm.lifetime.start.p0i8(i64 32, i8* nonnull %14) #14
  %15 = bitcast %"class.std::__1::function"* %2 to i8*
  %16 = bitcast %"class.perfetto::ipc::Deferred.327"* %5 to i8*
  call void @llvm.memset.p0i8.i64(i8* nonnull align 8 %16, i8 -86, i64 32, i1 false)
  call void @llvm.lifetime.start.p0i8(i64 32, i8* nonnull %15)
  %17 = bitcast %"class.std::__1::function.328"* %3 to i8*
  call void @llvm.lifetime.start.p0i8(i64 32, i8* nonnull %17)
  %18 = getelementptr inbounds %"class.perfetto::ipc::Deferred.327", %"class.perfetto::ipc::Deferred.327"* %5, i64 0, i32 0
  %19 = getelementptr inbounds %"class.std::__1::function", %"class.std::__1::function"* %2, i64 0, i32 0, i32 1, i32 0
  store void (%"union.std::__1::__function::__policy_storage"*, %"class.perfetto::ipc::AsyncResult"*)* @_ZNSt3__110__function16__policy_invokerIFvN8perfetto3ipc11AsyncResultIN9protozero13CppMessageObjEEEEE12__call_emptyEPKNS0_16__policy_storageEOS7_, void (%"union.std::__1::__function::__policy_storage"*, %"class.perfetto::ipc::AsyncResult"*)** %19, align 8
  %20 = getelementptr inbounds %"class.std::__1::function", %"class.std::__1::function"* %2, i64 0, i32 0, i32 2
  store %"struct.std::__1::__function::__policy"* @_ZZNSt3__110__function8__policy14__create_emptyEvE9__policy_, %"struct.std::__1::__function::__policy"** %20, align 8
  call void @_ZN8perfetto3ipc12DeferredBaseC2ENSt3__18functionIFvNS0_11AsyncResultIN9protozero13CppMessageObjEEEEEE(%"class.perfetto::ipc::DeferredBase"* nonnull %18, %"class.std::__1::function"* nonnull %2) #14
  %21 = load %"struct.std::__1::__function::__policy"*, %"struct.std::__1::__function::__policy"** %20, align 8
  %22 = getelementptr inbounds %"struct.std::__1::__function::__policy", %"struct.std::__1::__function::__policy"* %21, i64 0, i32 1
  %23 = load void (i8*)*, void (i8*)** %22, align 8
  %24 = icmp eq void (i8*)* %23, null
  br i1 %24, label %28, label %25

25:                                               ; preds = %11
  %26 = getelementptr inbounds %"class.std::__1::function", %"class.std::__1::function"* %2, i64 0, i32 0, i32 0, i32 0
  %27 = load i8*, i8** %26, align 8
  call void %23(i8* %27) #14
  br label %28

28:                                               ; preds = %11, %25
  %29 = getelementptr inbounds %"class.std::__1::function.328", %"class.std::__1::function.328"* %3, i64 0, i32 0, i32 1
  %30 = bitcast %"struct.std::__1::__function::__policy_invoker.333"* %29 to i64*
  store i64 ptrtoint (void (%"union.std::__1::__function::__policy_storage"*, %"class.perfetto::ipc::AsyncResult.334"*)* @_ZNSt3__110__function16__policy_invokerIFvN8perfetto3ipc11AsyncResultINS2_6protos3gen21GetTraceStatsResponseEEEEE12__call_emptyEPKNS0_16__policy_storageEOS8_ to i64), i64* %30, align 8
  %31 = getelementptr inbounds %"class.std::__1::function.328", %"class.std::__1::function.328"* %3, i64 0, i32 0, i32 2
  store %"struct.std::__1::__function::__policy"* @_ZZNSt3__110__function8__policy14__create_emptyEvE9__policy_, %"struct.std::__1::__function::__policy"** %31, align 8
  call void @_ZN8perfetto3ipc8DeferredINS_6protos3gen21GetTraceStatsResponseEE4BindENSt3__18functionIFvNS0_11AsyncResultIS4_EEEEE(%"class.perfetto::ipc::Deferred.327"* nonnull %5, %"class.std::__1::function.328"* nonnull %3) #14
  %32 = load %"struct.std::__1::__function::__policy"*, %"struct.std::__1::__function::__policy"** %31, align 8
  %33 = getelementptr inbounds %"struct.std::__1::__function::__policy", %"struct.std::__1::__function::__policy"* %32, i64 0, i32 1
  %34 = load void (i8*)*, void (i8*)** %33, align 8
  %35 = icmp eq void (i8*)* %34, null
  br i1 %35, label %39, label %36

36:                                               ; preds = %28
  %37 = getelementptr inbounds %"class.std::__1::function.328", %"class.std::__1::function.328"* %3, i64 0, i32 0, i32 0, i32 0
  %38 = load i8*, i8** %37, align 8
  call void %34(i8* %38) #14
  br label %39

39:                                               ; preds = %36, %28
  call void @llvm.lifetime.end.p0i8(i64 32, i8* nonnull %15)
  call void @llvm.lifetime.end.p0i8(i64 32, i8* nonnull %17)
  %40 = ptrtoint %"class.perfetto::ConsumerIPCClientImpl"* %0 to i64
  %41 = getelementptr inbounds %"class.std::__1::function.328", %"class.std::__1::function.328"* %6, i64 0, i32 0, i32 1, i32 0
  %42 = getelementptr inbounds %"class.std::__1::function.328", %"class.std::__1::function.328"* %6, i64 0, i32 0, i32 2
  store void (%"union.std::__1::__function::__policy_storage"*, %"class.perfetto::ipc::AsyncResult.334"*)* @"_ZNSt3__110__function16__policy_invokerIFvN8perfetto3ipc11AsyncResultINS2_6protos3gen21GetTraceStatsResponseEEEEE11__call_implINS0_20__default_alloc_funcIZNS2_21ConsumerIPCClientImpl13GetTraceStatsEvE3$_9S9_EEEEvPKNS0_16__policy_storageEOS8_", void (%"union.std::__1::__function::__policy_storage"*, %"class.perfetto::ipc::AsyncResult.334"*)** %41, align 8
  store %"struct.std::__1::__function::__policy"* @"_ZZNSt3__110__function8__policy15__choose_policyINS0_20__default_alloc_funcIZN8perfetto21ConsumerIPCClientImpl13GetTraceStatsEvE3$_9FvNS4_3ipc11AsyncResultINS4_6protos3gen21GetTraceStatsResponseEEEEEEEEPKS1_NS_17integral_constantIbLb1EEEE9__policy_", %"struct.std::__1::__function::__policy"** %42, align 8
  %43 = bitcast %"class.std::__1::function.328"* %6 to i64*
  store i64 %40, i64* %43, align 8
  call void @_ZN8perfetto3ipc8DeferredINS_6protos3gen21GetTraceStatsResponseEE4BindENSt3__18functionIFvNS0_11AsyncResultIS4_EEEEE(%"class.perfetto::ipc::Deferred.327"* nonnull %5, %"class.std::__1::function.328"* nonnull %6)
  %44 = load %"struct.std::__1::__function::__policy"*, %"struct.std::__1::__function::__policy"** %42, align 8
  %45 = getelementptr inbounds %"struct.std::__1::__function::__policy", %"struct.std::__1::__function::__policy"* %44, i64 0, i32 1
  %46 = load void (i8*)*, void (i8*)** %45, align 8
  %47 = icmp eq void (i8*)* %46, null
  br i1 %47, label %51, label %48

48:                                               ; preds = %39
  %49 = getelementptr inbounds %"class.std::__1::function.328", %"class.std::__1::function.328"* %6, i64 0, i32 0, i32 0, i32 0
  %50 = load i8*, i8** %49, align 8
  call void %46(i8* %50) #14
  br label %51

51:                                               ; preds = %39, %48
  %52 = getelementptr inbounds %"class.perfetto::ConsumerIPCClientImpl", %"class.perfetto::ConsumerIPCClientImpl"* %0, i64 0, i32 4
  %53 = getelementptr inbounds %"class.perfetto::ipc::Deferred.327", %"class.perfetto::ipc::Deferred.327"* %7, i64 0, i32 0
  call void @_ZN8perfetto3ipc12DeferredBaseC2EOS1_(%"class.perfetto::ipc::DeferredBase"* nonnull %53, %"class.perfetto::ipc::DeferredBase"* nonnull dereferenceable(32) %18) #14
  call void @_ZN8perfetto6protos3gen17ConsumerPortProxy13GetTraceStatsERKNS1_20GetTraceStatsRequestENS_3ipc8DeferredINS1_21GetTraceStatsResponseEEEi(%"class.perfetto::protos::gen::ConsumerPortProxy"* %52, %"class.perfetto::protos::gen::GetTraceStatsRequest"* nonnull dereferenceable(40) %4, %"class.perfetto::ipc::Deferred.327"* nonnull %7, i32 -1) #14
  call void @_ZN8perfetto3ipc12DeferredBaseD2Ev(%"class.perfetto::ipc::DeferredBase"* nonnull %53) #14
  call void @_ZN8perfetto3ipc12DeferredBaseD2Ev(%"class.perfetto::ipc::DeferredBase"* nonnull %18) #14
  call void @llvm.lifetime.end.p0i8(i64 32, i8* nonnull %14) #14
  call void @_ZN8perfetto6protos3gen20GetTraceStatsRequestD1Ev(%"class.perfetto::protos::gen::GetTraceStatsRequest"* nonnull %4) #14
  call void @llvm.lifetime.end.p0i8(i64 40, i8* nonnull %12) #14
  br label %54

54:                                               ; preds = %1, %51
  ret void
}

declare void @_ZN8perfetto6protos3gen20GetTraceStatsRequestC1Ev(%"class.perfetto::protos::gen::GetTraceStatsRequest"*) unnamed_addr #2

; Function Attrs: nounwind ssp uwtable
define linkonce_odr hidden void @_ZN8perfetto3ipc8DeferredINS_6protos3gen21GetTraceStatsResponseEE4BindENSt3__18functionIFvNS0_11AsyncResultIS4_EEEEE(%"class.perfetto::ipc::Deferred.327"*, %"class.std::__1::function.328"*) local_unnamed_addr #0 comdat align 2 {
  %3 = alloca %"class.std::__1::function", align 8
  %4 = getelementptr inbounds %"class.std::__1::function.328", %"class.std::__1::function.328"* %1, i64 0, i32 0, i32 2
  %5 = load %"struct.std::__1::__function::__policy"*, %"struct.std::__1::__function::__policy"** %4, align 8
  %6 = getelementptr inbounds %"struct.std::__1::__function::__policy", %"struct.std::__1::__function::__policy"* %5, i64 0, i32 2
  %7 = load i8, i8* %6, align 8, !range !3
  %8 = icmp eq i8 %7, 0
  br i1 %8, label %9, label %59

9:                                                ; preds = %2
  %10 = getelementptr inbounds %"class.std::__1::function.328", %"class.std::__1::function.328"* %1, i64 0, i32 0, i32 0, i32 0
  %11 = load i8*, i8** %10, align 8
  %12 = getelementptr inbounds %"class.std::__1::function.328", %"class.std::__1::function.328"* %1, i64 0, i32 0, i32 0, i32 1
  %13 = bitcast [8 x i8]* %12 to <2 x i64>*
  %14 = load <2 x i64>, <2 x i64>* %13, align 8
  %15 = getelementptr inbounds %"struct.std::__1::__function::__policy", %"struct.std::__1::__function::__policy"* %5, i64 0, i32 0
  %16 = load i8* (i8*)*, i8* (i8*)** %15, align 8
  %17 = icmp eq i8* (i8*)* %16, null
  br i1 %17, label %18, label %20

18:                                               ; preds = %9
  %19 = getelementptr inbounds %"class.perfetto::ipc::Deferred.327", %"class.perfetto::ipc::Deferred.327"* %0, i64 0, i32 0
  br label %27

20:                                               ; preds = %9
  %21 = tail call i8* %16(i8* %11) #14
  %22 = load i8* (i8*)*, i8* (i8*)** %15, align 8
  %23 = getelementptr inbounds %"class.perfetto::ipc::Deferred.327", %"class.perfetto::ipc::Deferred.327"* %0, i64 0, i32 0
  %24 = icmp eq i8* (i8*)* %22, null
  br i1 %24, label %27, label %25

25:                                               ; preds = %20
  %26 = tail call i8* %22(i8* %21) #14
  br label %27

27:                                               ; preds = %18, %20, %25
  %28 = phi %"class.perfetto::ipc::DeferredBase"* [ %23, %20 ], [ %23, %25 ], [ %19, %18 ]
  %29 = phi i8* [ %21, %20 ], [ %21, %25 ], [ %11, %18 ]
  %30 = phi i8* [ %21, %20 ], [ %26, %25 ], [ %11, %18 ]
  %31 = getelementptr inbounds %"class.std::__1::function", %"class.std::__1::function"* %3, i64 0, i32 0, i32 1, i32 0
  %32 = getelementptr inbounds %"class.std::__1::function", %"class.std::__1::function"* %3, i64 0, i32 0, i32 2
  store void (%"union.std::__1::__function::__policy_storage"*, %"class.perfetto::ipc::AsyncResult"*)* @_ZNSt3__110__function16__policy_invokerIFvN8perfetto3ipc11AsyncResultIN9protozero13CppMessageObjEEEEE11__call_implINS0_20__default_alloc_funcIZNS3_8DeferredINS2_6protos3gen21GetTraceStatsResponseEE4BindENS_8functionIFvNS4_ISF_EEEEEEUlS7_E_S8_EEEEvPKNS0_16__policy_storageEOS7_, void (%"union.std::__1::__function::__policy_storage"*, %"class.perfetto::ipc::AsyncResult"*)** %31, align 8
  store %"struct.std::__1::__function::__policy"* @_ZZNSt3__110__function8__policy15__choose_policyINS0_20__default_alloc_funcIZN8perfetto3ipc8DeferredINS4_6protos3gen21GetTraceStatsResponseEE4BindENS_8functionIFvNS5_11AsyncResultIS9_EEEEEEUlNSC_IN9protozero13CppMessageObjEEEE_FvSI_EEEEEPKS1_NS_17integral_constantIbLb0EEEE9__policy_, %"struct.std::__1::__function::__policy"** %32, align 8
  %33 = tail call i8* @_Znwm(i64 32) #13, !noalias !72
  %34 = bitcast i8* %33 to i8**
  store i8* %30, i8** %34, align 8
  %35 = getelementptr inbounds i8, i8* %33, i64 8
  %36 = bitcast i8* %35 to <2 x i64>*
  store <2 x i64> %14, <2 x i64>* %36, align 8
  %37 = getelementptr inbounds i8, i8* %33, i64 24
  %38 = bitcast i8* %37 to %"struct.std::__1::__function::__policy"**
  store %"struct.std::__1::__function::__policy"* %5, %"struct.std::__1::__function::__policy"** %38, align 8
  %39 = getelementptr inbounds %"struct.std::__1::__function::__policy", %"struct.std::__1::__function::__policy"* %5, i64 0, i32 1
  %40 = load void (i8*)*, void (i8*)** %39, align 8
  %41 = icmp eq void (i8*)* %40, null
  %42 = select i1 %41, %"struct.std::__1::__function::__policy"* %5, %"struct.std::__1::__function::__policy"* @_ZZNSt3__110__function8__policy14__create_emptyEvE9__policy_
  %43 = getelementptr inbounds %"class.std::__1::function", %"class.std::__1::function"* %3, i64 0, i32 0, i32 0, i32 0
  store i8* %33, i8** %43, align 8
  call void @_ZN8perfetto3ipc12DeferredBase4BindENSt3__18functionIFvNS0_11AsyncResultIN9protozero13CppMessageObjEEEEEE(%"class.perfetto::ipc::DeferredBase"* %28, %"class.std::__1::function"* nonnull %3) #14
  %44 = load %"struct.std::__1::__function::__policy"*, %"struct.std::__1::__function::__policy"** %32, align 8
  %45 = getelementptr inbounds %"struct.std::__1::__function::__policy", %"struct.std::__1::__function::__policy"* %44, i64 0, i32 1
  %46 = load void (i8*)*, void (i8*)** %45, align 8
  %47 = icmp eq void (i8*)* %46, null
  br i1 %47, label %50, label %48

48:                                               ; preds = %27
  %49 = load i8*, i8** %43, align 8
  call void %46(i8* %49) #14
  br label %50

50:                                               ; preds = %27, %48
  %51 = getelementptr inbounds %"struct.std::__1::__function::__policy", %"struct.std::__1::__function::__policy"* %42, i64 0, i32 1
  %52 = load void (i8*)*, void (i8*)** %51, align 8
  %53 = icmp eq void (i8*)* %52, null
  br i1 %53, label %55, label %54

54:                                               ; preds = %50
  call void %52(i8* %30) #14
  br label %55

55:                                               ; preds = %50, %54
  %56 = load void (i8*)*, void (i8*)** %39, align 8
  %57 = icmp eq void (i8*)* %56, null
  br i1 %57, label %59, label %58

58:                                               ; preds = %55
  call void %56(i8* %29) #14
  br label %59

59:                                               ; preds = %58, %55, %2
  ret void
}

declare void @_ZN8perfetto6protos3gen17ConsumerPortProxy13GetTraceStatsERKNS1_20GetTraceStatsRequestENS_3ipc8DeferredINS1_21GetTraceStatsResponseEEEi(%"class.perfetto::protos::gen::ConsumerPortProxy"*, %"class.perfetto::protos::gen::GetTraceStatsRequest"* dereferenceable(40), %"class.perfetto::ipc::Deferred.327"*, i32) local_unnamed_addr #2

; Function Attrs: nounwind
declare void @_ZN8perfetto6protos3gen20GetTraceStatsRequestD1Ev(%"class.perfetto::protos::gen::GetTraceStatsRequest"*) unnamed_addr #3

; Function Attrs: nounwind ssp uwtable
define hidden void @_ZN8perfetto21ConsumerIPCClientImpl13ObserveEventsEj(%"class.perfetto::ConsumerIPCClientImpl"*, i32) unnamed_addr #0 align 2 {
  %3 = alloca %"class.std::__1::function", align 8
  %4 = alloca %"class.std::__1::function.375", align 8
  %5 = alloca %"class.perfetto::protos::gen::ObserveEventsRequest", align 8
  %6 = alloca %"class.perfetto::ipc::Deferred.374", align 8
  %7 = alloca %"class.std::__1::function.375", align 8
  %8 = alloca %"class.perfetto::ipc::Deferred.374", align 8
  %9 = getelementptr inbounds %"class.perfetto::ConsumerIPCClientImpl", %"class.perfetto::ConsumerIPCClientImpl"* %0, i64 0, i32 5
  %10 = load i8, i8* %9, align 8, !range !3
  %11 = icmp eq i8 %10, 0
  br i1 %11, label %64, label %12

12:                                               ; preds = %2
  %13 = bitcast %"class.perfetto::protos::gen::ObserveEventsRequest"* %5 to i8*
  call void @llvm.lifetime.start.p0i8(i64 64, i8* nonnull %13) #14
  call void @llvm.memset.p0i8.i64(i8* nonnull align 8 %13, i8 -86, i64 64, i1 false)
  call void @_ZN8perfetto6protos3gen20ObserveEventsRequestC1Ev(%"class.perfetto::protos::gen::ObserveEventsRequest"* nonnull %5) #14
  br label %55

14:                                               ; preds = %61
  %15 = bitcast %"class.perfetto::ipc::Deferred.374"* %6 to i8*
  call void @llvm.lifetime.start.p0i8(i64 32, i8* nonnull %15) #14
  %16 = bitcast %"class.std::__1::function"* %3 to i8*
  %17 = bitcast %"class.perfetto::ipc::Deferred.374"* %6 to i8*
  call void @llvm.memset.p0i8.i64(i8* nonnull align 8 %17, i8 -86, i64 32, i1 false)
  call void @llvm.lifetime.start.p0i8(i64 32, i8* nonnull %16)
  %18 = bitcast %"class.std::__1::function.375"* %4 to i8*
  call void @llvm.lifetime.start.p0i8(i64 32, i8* nonnull %18)
  %19 = getelementptr inbounds %"class.perfetto::ipc::Deferred.374", %"class.perfetto::ipc::Deferred.374"* %6, i64 0, i32 0
  %20 = getelementptr inbounds %"class.std::__1::function", %"class.std::__1::function"* %3, i64 0, i32 0, i32 1, i32 0
  store void (%"union.std::__1::__function::__policy_storage"*, %"class.perfetto::ipc::AsyncResult"*)* @_ZNSt3__110__function16__policy_invokerIFvN8perfetto3ipc11AsyncResultIN9protozero13CppMessageObjEEEEE12__call_emptyEPKNS0_16__policy_storageEOS7_, void (%"union.std::__1::__function::__policy_storage"*, %"class.perfetto::ipc::AsyncResult"*)** %20, align 8
  %21 = getelementptr inbounds %"class.std::__1::function", %"class.std::__1::function"* %3, i64 0, i32 0, i32 2
  store %"struct.std::__1::__function::__policy"* @_ZZNSt3__110__function8__policy14__create_emptyEvE9__policy_, %"struct.std::__1::__function::__policy"** %21, align 8
  call void @_ZN8perfetto3ipc12DeferredBaseC2ENSt3__18functionIFvNS0_11AsyncResultIN9protozero13CppMessageObjEEEEEE(%"class.perfetto::ipc::DeferredBase"* nonnull %19, %"class.std::__1::function"* nonnull %3) #14
  %22 = load %"struct.std::__1::__function::__policy"*, %"struct.std::__1::__function::__policy"** %21, align 8
  %23 = getelementptr inbounds %"struct.std::__1::__function::__policy", %"struct.std::__1::__function::__policy"* %22, i64 0, i32 1
  %24 = load void (i8*)*, void (i8*)** %23, align 8
  %25 = icmp eq void (i8*)* %24, null
  br i1 %25, label %29, label %26

26:                                               ; preds = %14
  %27 = getelementptr inbounds %"class.std::__1::function", %"class.std::__1::function"* %3, i64 0, i32 0, i32 0, i32 0
  %28 = load i8*, i8** %27, align 8
  call void %24(i8* %28) #14
  br label %29

29:                                               ; preds = %14, %26
  %30 = getelementptr inbounds %"class.std::__1::function.375", %"class.std::__1::function.375"* %4, i64 0, i32 0, i32 1
  %31 = bitcast %"struct.std::__1::__function::__policy_invoker.380"* %30 to i64*
  store i64 ptrtoint (void (%"union.std::__1::__function::__policy_storage"*, %"class.perfetto::ipc::AsyncResult.381"*)* @_ZNSt3__110__function16__policy_invokerIFvN8perfetto3ipc11AsyncResultINS2_6protos3gen21ObserveEventsResponseEEEEE12__call_emptyEPKNS0_16__policy_storageEOS8_ to i64), i64* %31, align 8
  %32 = getelementptr inbounds %"class.std::__1::function.375", %"class.std::__1::function.375"* %4, i64 0, i32 0, i32 2
  store %"struct.std::__1::__function::__policy"* @_ZZNSt3__110__function8__policy14__create_emptyEvE9__policy_, %"struct.std::__1::__function::__policy"** %32, align 8
  call void @_ZN8perfetto3ipc8DeferredINS_6protos3gen21ObserveEventsResponseEE4BindENSt3__18functionIFvNS0_11AsyncResultIS4_EEEEE(%"class.perfetto::ipc::Deferred.374"* nonnull %6, %"class.std::__1::function.375"* nonnull %4) #14
  %33 = load %"struct.std::__1::__function::__policy"*, %"struct.std::__1::__function::__policy"** %32, align 8
  %34 = getelementptr inbounds %"struct.std::__1::__function::__policy", %"struct.std::__1::__function::__policy"* %33, i64 0, i32 1
  %35 = load void (i8*)*, void (i8*)** %34, align 8
  %36 = icmp eq void (i8*)* %35, null
  br i1 %36, label %40, label %37

37:                                               ; preds = %29
  %38 = getelementptr inbounds %"class.std::__1::function.375", %"class.std::__1::function.375"* %4, i64 0, i32 0, i32 0, i32 0
  %39 = load i8*, i8** %38, align 8
  call void %35(i8* %39) #14
  br label %40

40:                                               ; preds = %37, %29
  call void @llvm.lifetime.end.p0i8(i64 32, i8* nonnull %16)
  call void @llvm.lifetime.end.p0i8(i64 32, i8* nonnull %18)
  %41 = ptrtoint %"class.perfetto::ConsumerIPCClientImpl"* %0 to i64
  %42 = getelementptr inbounds %"class.std::__1::function.375", %"class.std::__1::function.375"* %7, i64 0, i32 0, i32 1, i32 0
  %43 = getelementptr inbounds %"class.std::__1::function.375", %"class.std::__1::function.375"* %7, i64 0, i32 0, i32 2
  store void (%"union.std::__1::__function::__policy_storage"*, %"class.perfetto::ipc::AsyncResult.381"*)* @"_ZNSt3__110__function16__policy_invokerIFvN8perfetto3ipc11AsyncResultINS2_6protos3gen21ObserveEventsResponseEEEEE11__call_implINS0_20__default_alloc_funcIZNS2_21ConsumerIPCClientImpl13ObserveEventsEjE4$_10S9_EEEEvPKNS0_16__policy_storageEOS8_", void (%"union.std::__1::__function::__policy_storage"*, %"class.perfetto::ipc::AsyncResult.381"*)** %42, align 8
  store %"struct.std::__1::__function::__policy"* @"_ZZNSt3__110__function8__policy15__choose_policyINS0_20__default_alloc_funcIZN8perfetto21ConsumerIPCClientImpl13ObserveEventsEjE4$_10FvNS4_3ipc11AsyncResultINS4_6protos3gen21ObserveEventsResponseEEEEEEEEPKS1_NS_17integral_constantIbLb1EEEE9__policy_", %"struct.std::__1::__function::__policy"** %43, align 8
  %44 = bitcast %"class.std::__1::function.375"* %7 to i64*
  store i64 %41, i64* %44, align 8
  call void @_ZN8perfetto3ipc8DeferredINS_6protos3gen21ObserveEventsResponseEE4BindENSt3__18functionIFvNS0_11AsyncResultIS4_EEEEE(%"class.perfetto::ipc::Deferred.374"* nonnull %6, %"class.std::__1::function.375"* nonnull %7)
  %45 = load %"struct.std::__1::__function::__policy"*, %"struct.std::__1::__function::__policy"** %43, align 8
  %46 = getelementptr inbounds %"struct.std::__1::__function::__policy", %"struct.std::__1::__function::__policy"* %45, i64 0, i32 1
  %47 = load void (i8*)*, void (i8*)** %46, align 8
  %48 = icmp eq void (i8*)* %47, null
  br i1 %48, label %52, label %49

49:                                               ; preds = %40
  %50 = getelementptr inbounds %"class.std::__1::function.375", %"class.std::__1::function.375"* %7, i64 0, i32 0, i32 0, i32 0
  %51 = load i8*, i8** %50, align 8
  call void %47(i8* %51) #14
  br label %52

52:                                               ; preds = %40, %49
  %53 = getelementptr inbounds %"class.perfetto::ConsumerIPCClientImpl", %"class.perfetto::ConsumerIPCClientImpl"* %0, i64 0, i32 4
  %54 = getelementptr inbounds %"class.perfetto::ipc::Deferred.374", %"class.perfetto::ipc::Deferred.374"* %8, i64 0, i32 0
  call void @_ZN8perfetto3ipc12DeferredBaseC2EOS1_(%"class.perfetto::ipc::DeferredBase"* nonnull %54, %"class.perfetto::ipc::DeferredBase"* nonnull dereferenceable(32) %19) #14
  call void @_ZN8perfetto6protos3gen17ConsumerPortProxy13ObserveEventsERKNS1_20ObserveEventsRequestENS_3ipc8DeferredINS1_21ObserveEventsResponseEEEi(%"class.perfetto::protos::gen::ConsumerPortProxy"* %53, %"class.perfetto::protos::gen::ObserveEventsRequest"* nonnull dereferenceable(64) %5, %"class.perfetto::ipc::Deferred.374"* nonnull %8, i32 -1) #14
  call void @_ZN8perfetto3ipc12DeferredBaseD2Ev(%"class.perfetto::ipc::DeferredBase"* nonnull %54) #14
  call void @_ZN8perfetto3ipc12DeferredBaseD2Ev(%"class.perfetto::ipc::DeferredBase"* nonnull %19) #14
  call void @llvm.lifetime.end.p0i8(i64 32, i8* nonnull %15) #14
  call void @_ZN8perfetto6protos3gen20ObserveEventsRequestD1Ev(%"class.perfetto::protos::gen::ObserveEventsRequest"* nonnull %5) #14
  call void @llvm.lifetime.end.p0i8(i64 64, i8* nonnull %13) #14
  br label %64

55:                                               ; preds = %61, %12
  %56 = phi i32 [ 0, %12 ], [ %62, %61 ]
  %57 = shl i32 1, %56
  %58 = and i32 %57, %1
  %59 = icmp eq i32 %58, 0
  br i1 %59, label %61, label %60

60:                                               ; preds = %55
  call void @_ZN8perfetto6protos3gen20ObserveEventsRequest21add_events_to_observeENS1_21ObservableEvents_TypeE(%"class.perfetto::protos::gen::ObserveEventsRequest"* nonnull %5, i32 %57)
  br label %61

61:                                               ; preds = %55, %60
  %62 = add nuw nsw i32 %56, 1
  %63 = icmp eq i32 %62, 32
  br i1 %63, label %14, label %55

64:                                               ; preds = %2, %52
  ret void
}

declare void @_ZN8perfetto6protos3gen20ObserveEventsRequestC1Ev(%"class.perfetto::protos::gen::ObserveEventsRequest"*) unnamed_addr #2

; Function Attrs: nounwind ssp uwtable
define linkonce_odr hidden void @_ZN8perfetto6protos3gen20ObserveEventsRequest21add_events_to_observeENS1_21ObservableEvents_TypeE(%"class.perfetto::protos::gen::ObserveEventsRequest"*, i32) local_unnamed_addr #0 comdat align 2 {
  %3 = getelementptr inbounds %"class.perfetto::protos::gen::ObserveEventsRequest", %"class.perfetto::protos::gen::ObserveEventsRequest"* %0, i64 0, i32 1
  %4 = getelementptr inbounds %"class.perfetto::protos::gen::ObserveEventsRequest", %"class.perfetto::protos::gen::ObserveEventsRequest"* %0, i64 0, i32 1, i32 0, i32 1
  %5 = load i32*, i32** %4, align 8
  %6 = getelementptr inbounds %"class.perfetto::protos::gen::ObserveEventsRequest", %"class.perfetto::protos::gen::ObserveEventsRequest"* %0, i64 0, i32 1, i32 0, i32 2, i32 0, i32 0
  %7 = load i32*, i32** %6, align 8
  %8 = icmp ult i32* %5, %7
  %9 = ptrtoint i32* %7 to i64
  br i1 %8, label %10, label %14

10:                                               ; preds = %2
  store i32 %1, i32* %5, align 4
  %11 = getelementptr inbounds i32, i32* %5, i64 1
  %12 = ptrtoint i32* %11 to i64
  %13 = bitcast i32** %4 to i64*
  store i64 %12, i64* %13, align 8
  br label %70

14:                                               ; preds = %2
  %15 = ptrtoint i32* %5 to i64
  %16 = bitcast i32** %4 to i64*
  %17 = bitcast %"class.std::__1::vector.367"* %3 to i64*
  %18 = load i64, i64* %17, align 8
  %19 = sub i64 %15, %18
  %20 = ashr exact i64 %19, 2
  %21 = add nsw i64 %20, 1
  %22 = icmp ugt i64 %21, 4611686018427387903
  br i1 %22, label %23, label %25

23:                                               ; preds = %14
  %24 = bitcast %"class.std::__1::vector.367"* %3 to %"class.std::__1::__vector_base_common"*
  tail call void @_ZNKSt3__120__vector_base_commonILb1EE20__throw_length_errorEv(%"class.std::__1::__vector_base_common"* %24) #16
  unreachable

25:                                               ; preds = %14
  %26 = bitcast i32** %6 to i64*
  %27 = sub i64 %9, %18
  %28 = ashr exact i64 %27, 2
  %29 = icmp ult i64 %28, 2305843009213693951
  br i1 %29, label %30, label %38

30:                                               ; preds = %25
  %31 = ashr exact i64 %27, 1
  %32 = icmp ult i64 %31, %21
  %33 = select i1 %32, i64 %21, i64 %31
  %34 = icmp eq i64 %33, 0
  br i1 %34, label %43, label %35

35:                                               ; preds = %30
  %36 = icmp ugt i64 %33, 4611686018427387903
  br i1 %36, label %37, label %38

37:                                               ; preds = %35
  tail call void @abort() #16
  unreachable

38:                                               ; preds = %35, %25
  %39 = phi i64 [ %33, %35 ], [ 4611686018427387903, %25 ]
  %40 = shl i64 %39, 2
  %41 = tail call i8* @_Znwm(i64 %40) #13
  %42 = bitcast i8* %41 to i32*
  br label %43

43:                                               ; preds = %38, %30
  %44 = phi i64 [ %39, %38 ], [ 0, %30 ]
  %45 = phi i32* [ %42, %38 ], [ null, %30 ]
  %46 = getelementptr inbounds i32, i32* %45, i64 %20
  %47 = getelementptr inbounds i32, i32* %45, i64 %44
  %48 = ptrtoint i32* %47 to i64
  store i32 %1, i32* %46, align 4
  %49 = getelementptr inbounds i32, i32* %46, i64 1
  %50 = ptrtoint i32* %49 to i64
  %51 = getelementptr inbounds %"class.std::__1::vector.367", %"class.std::__1::vector.367"* %3, i64 0, i32 0, i32 0
  %52 = load i32*, i32** %51, align 8
  %53 = load i64, i64* %16, align 8
  %54 = ptrtoint i32* %52 to i64
  %55 = sub i64 %53, %54
  %56 = ashr exact i64 %55, 2
  %57 = sub nsw i64 0, %56
  %58 = getelementptr inbounds i32, i32* %46, i64 %57
  %59 = ptrtoint i32* %58 to i64
  %60 = icmp sgt i64 %55, 0
  br i1 %60, label %61, label %65

61:                                               ; preds = %43
  %62 = bitcast i32* %58 to i8*
  %63 = bitcast i32* %52 to i8*
  tail call void @llvm.memcpy.p0i8.p0i8.i64(i8* align 4 %62, i8* align 4 %63, i64 %55, i1 false) #14
  %64 = load i32*, i32** %51, align 8
  br label %65

65:                                               ; preds = %61, %43
  %66 = phi i32* [ %52, %43 ], [ %64, %61 ]
  store i64 %59, i64* %17, align 8
  store i64 %50, i64* %16, align 8
  store i64 %48, i64* %26, align 8
  %67 = icmp eq i32* %66, null
  br i1 %67, label %70, label %68

68:                                               ; preds = %65
  %69 = bitcast i32* %66 to i8*
  tail call void @_ZdlPv(i8* %69) #13
  br label %70

70:                                               ; preds = %10, %65, %68
  ret void
}

; Function Attrs: nounwind ssp uwtable
define linkonce_odr hidden void @_ZN8perfetto3ipc8DeferredINS_6protos3gen21ObserveEventsResponseEE4BindENSt3__18functionIFvNS0_11AsyncResultIS4_EEEEE(%"class.perfetto::ipc::Deferred.374"*, %"class.std::__1::function.375"*) local_unnamed_addr #0 comdat align 2 {
  %3 = alloca %"class.std::__1::function", align 8
  %4 = getelementptr inbounds %"class.std::__1::function.375", %"class.std::__1::function.375"* %1, i64 0, i32 0, i32 2
  %5 = load %"struct.std::__1::__function::__policy"*, %"struct.std::__1::__function::__policy"** %4, align 8
  %6 = getelementptr inbounds %"struct.std::__1::__function::__policy", %"struct.std::__1::__function::__policy"* %5, i64 0, i32 2
  %7 = load i8, i8* %6, align 8, !range !3
  %8 = icmp eq i8 %7, 0
  br i1 %8, label %9, label %59

9:                                                ; preds = %2
  %10 = getelementptr inbounds %"class.std::__1::function.375", %"class.std::__1::function.375"* %1, i64 0, i32 0, i32 0, i32 0
  %11 = load i8*, i8** %10, align 8
  %12 = getelementptr inbounds %"class.std::__1::function.375", %"class.std::__1::function.375"* %1, i64 0, i32 0, i32 0, i32 1
  %13 = bitcast [8 x i8]* %12 to <2 x i64>*
  %14 = load <2 x i64>, <2 x i64>* %13, align 8
  %15 = getelementptr inbounds %"struct.std::__1::__function::__policy", %"struct.std::__1::__function::__policy"* %5, i64 0, i32 0
  %16 = load i8* (i8*)*, i8* (i8*)** %15, align 8
  %17 = icmp eq i8* (i8*)* %16, null
  br i1 %17, label %18, label %20

18:                                               ; preds = %9
  %19 = getelementptr inbounds %"class.perfetto::ipc::Deferred.374", %"class.perfetto::ipc::Deferred.374"* %0, i64 0, i32 0
  br label %27

20:                                               ; preds = %9
  %21 = tail call i8* %16(i8* %11) #14
  %22 = load i8* (i8*)*, i8* (i8*)** %15, align 8
  %23 = getelementptr inbounds %"class.perfetto::ipc::Deferred.374", %"class.perfetto::ipc::Deferred.374"* %0, i64 0, i32 0
  %24 = icmp eq i8* (i8*)* %22, null
  br i1 %24, label %27, label %25

25:                                               ; preds = %20
  %26 = tail call i8* %22(i8* %21) #14
  br label %27

27:                                               ; preds = %18, %20, %25
  %28 = phi %"class.perfetto::ipc::DeferredBase"* [ %23, %20 ], [ %23, %25 ], [ %19, %18 ]
  %29 = phi i8* [ %21, %20 ], [ %21, %25 ], [ %11, %18 ]
  %30 = phi i8* [ %21, %20 ], [ %26, %25 ], [ %11, %18 ]
  %31 = getelementptr inbounds %"class.std::__1::function", %"class.std::__1::function"* %3, i64 0, i32 0, i32 1, i32 0
  %32 = getelementptr inbounds %"class.std::__1::function", %"class.std::__1::function"* %3, i64 0, i32 0, i32 2
  store void (%"union.std::__1::__function::__policy_storage"*, %"class.perfetto::ipc::AsyncResult"*)* @_ZNSt3__110__function16__policy_invokerIFvN8perfetto3ipc11AsyncResultIN9protozero13CppMessageObjEEEEE11__call_implINS0_20__default_alloc_funcIZNS3_8DeferredINS2_6protos3gen21ObserveEventsResponseEE4BindENS_8functionIFvNS4_ISF_EEEEEEUlS7_E_S8_EEEEvPKNS0_16__policy_storageEOS7_, void (%"union.std::__1::__function::__policy_storage"*, %"class.perfetto::ipc::AsyncResult"*)** %31, align 8
  store %"struct.std::__1::__function::__policy"* @_ZZNSt3__110__function8__policy15__choose_policyINS0_20__default_alloc_funcIZN8perfetto3ipc8DeferredINS4_6protos3gen21ObserveEventsResponseEE4BindENS_8functionIFvNS5_11AsyncResultIS9_EEEEEEUlNSC_IN9protozero13CppMessageObjEEEE_FvSI_EEEEEPKS1_NS_17integral_constantIbLb0EEEE9__policy_, %"struct.std::__1::__function::__policy"** %32, align 8
  %33 = tail call i8* @_Znwm(i64 32) #13, !noalias !77
  %34 = bitcast i8* %33 to i8**
  store i8* %30, i8** %34, align 8
  %35 = getelementptr inbounds i8, i8* %33, i64 8
  %36 = bitcast i8* %35 to <2 x i64>*
  store <2 x i64> %14, <2 x i64>* %36, align 8
  %37 = getelementptr inbounds i8, i8* %33, i64 24
  %38 = bitcast i8* %37 to %"struct.std::__1::__function::__policy"**
  store %"struct.std::__1::__function::__policy"* %5, %"struct.std::__1::__function::__policy"** %38, align 8
  %39 = getelementptr inbounds %"struct.std::__1::__function::__policy", %"struct.std::__1::__function::__policy"* %5, i64 0, i32 1
  %40 = load void (i8*)*, void (i8*)** %39, align 8
  %41 = icmp eq void (i8*)* %40, null
  %42 = select i1 %41, %"struct.std::__1::__function::__policy"* %5, %"struct.std::__1::__function::__policy"* @_ZZNSt3__110__function8__policy14__create_emptyEvE9__policy_
  %43 = getelementptr inbounds %"class.std::__1::function", %"class.std::__1::function"* %3, i64 0, i32 0, i32 0, i32 0
  store i8* %33, i8** %43, align 8
  call void @_ZN8perfetto3ipc12DeferredBase4BindENSt3__18functionIFvNS0_11AsyncResultIN9protozero13CppMessageObjEEEEEE(%"class.perfetto::ipc::DeferredBase"* %28, %"class.std::__1::function"* nonnull %3) #14
  %44 = load %"struct.std::__1::__function::__policy"*, %"struct.std::__1::__function::__policy"** %32, align 8
  %45 = getelementptr inbounds %"struct.std::__1::__function::__policy", %"struct.std::__1::__function::__policy"* %44, i64 0, i32 1
  %46 = load void (i8*)*, void (i8*)** %45, align 8
  %47 = icmp eq void (i8*)* %46, null
  br i1 %47, label %50, label %48

48:                                               ; preds = %27
  %49 = load i8*, i8** %43, align 8
  call void %46(i8* %49) #14
  br label %50

50:                                               ; preds = %27, %48
  %51 = getelementptr inbounds %"struct.std::__1::__function::__policy", %"struct.std::__1::__function::__policy"* %42, i64 0, i32 1
  %52 = load void (i8*)*, void (i8*)** %51, align 8
  %53 = icmp eq void (i8*)* %52, null
  br i1 %53, label %55, label %54

54:                                               ; preds = %50
  call void %52(i8* %30) #14
  br label %55

55:                                               ; preds = %50, %54
  %56 = load void (i8*)*, void (i8*)** %39, align 8
  %57 = icmp eq void (i8*)* %56, null
  br i1 %57, label %59, label %58

58:                                               ; preds = %55
  call void %56(i8* %29) #14
  br label %59

59:                                               ; preds = %58, %55, %2
  ret void
}

declare void @_ZN8perfetto6protos3gen17ConsumerPortProxy13ObserveEventsERKNS1_20ObserveEventsRequestENS_3ipc8DeferredINS1_21ObserveEventsResponseEEEi(%"class.perfetto::protos::gen::ConsumerPortProxy"*, %"class.perfetto::protos::gen::ObserveEventsRequest"* dereferenceable(64), %"class.perfetto::ipc::Deferred.374"*, i32) local_unnamed_addr #2

; Function Attrs: nounwind
declare void @_ZN8perfetto6protos3gen20ObserveEventsRequestD1Ev(%"class.perfetto::protos::gen::ObserveEventsRequest"*) unnamed_addr #3

; Function Attrs: nounwind ssp uwtable
define hidden void @_ZN8perfetto21ConsumerIPCClientImpl17QueryServiceStateENSt3__18functionIFvbRKNS_6protos3gen19TracingServiceStateEEEE(%"class.perfetto::ConsumerIPCClientImpl"*, %"class.std::__1::function.403"* nocapture) unnamed_addr #0 align 2 {
  %3 = alloca %"class.std::__1::function", align 8
  %4 = alloca %"class.std::__1::function.437", align 8
  %5 = alloca %"class.perfetto::protos::gen::QueryServiceStateRequest", align 8
  %6 = alloca %"class.perfetto::ipc::Deferred.436", align 8
  %7 = alloca %"class.std::__1::function.437", align 8
  %8 = alloca %"class.perfetto::ipc::Deferred.436", align 8
  %9 = getelementptr inbounds %"class.perfetto::ConsumerIPCClientImpl", %"class.perfetto::ConsumerIPCClientImpl"* %0, i64 0, i32 5
  %10 = load i8, i8* %9, align 8, !range !3
  %11 = icmp eq i8 %10, 0
  br i1 %11, label %129, label %12

12:                                               ; preds = %2
  %13 = getelementptr inbounds %"class.perfetto::ConsumerIPCClientImpl", %"class.perfetto::ConsumerIPCClientImpl"* %0, i64 0, i32 6
  %14 = getelementptr inbounds %"class.std::__1::list", %"class.std::__1::list"* %13, i64 0, i32 0, i32 0
  %15 = getelementptr inbounds %"class.std::__1::function.403", %"class.std::__1::function.403"* %1, i64 0, i32 0, i32 0, i32 0
  %16 = load i8*, i8** %15, align 8
  %17 = getelementptr inbounds %"class.std::__1::function.403", %"class.std::__1::function.403"* %1, i64 0, i32 0, i32 0, i32 1
  %18 = bitcast [8 x i8]* %17 to <2 x i64>*
  %19 = load <2 x i64>, <2 x i64>* %18, align 8
  %20 = getelementptr inbounds %"class.std::__1::function.403", %"class.std::__1::function.403"* %1, i64 0, i32 0, i32 2
  %21 = load %"struct.std::__1::__function::__policy"*, %"struct.std::__1::__function::__policy"** %20, align 8
  %22 = getelementptr inbounds %"struct.std::__1::__function::__policy", %"struct.std::__1::__function::__policy"* %21, i64 0, i32 1
  %23 = load void (i8*)*, void (i8*)** %22, align 8
  %24 = icmp eq void (i8*)* %23, null
  br i1 %24, label %28, label %25

25:                                               ; preds = %12
  %26 = getelementptr inbounds %"class.std::__1::function.403", %"class.std::__1::function.403"* %1, i64 0, i32 0, i32 1
  %27 = bitcast %"struct.std::__1::__function::__policy_invoker.408"* %26 to i64*
  store %"struct.std::__1::__function::__policy"* @_ZZNSt3__110__function8__policy14__create_emptyEvE9__policy_, %"struct.std::__1::__function::__policy"** %20, align 8
  store i64 ptrtoint (void (%"union.std::__1::__function::__policy_storage"*, i1, %"class.perfetto::protos::gen::TracingServiceState"*)* @_ZNSt3__110__function16__policy_invokerIFvbRKN8perfetto6protos3gen19TracingServiceStateEEE12__call_emptyEPKNS0_16__policy_storageEbS7_ to i64), i64* %27, align 8
  br label %28

28:                                               ; preds = %12, %25
  %29 = tail call i8* @_Znwm(i64 72) #13, !noalias !82
  %30 = bitcast i8* %29 to %"struct.std::__1::__list_node_base"**
  store %"struct.std::__1::__list_node_base"* null, %"struct.std::__1::__list_node_base"** %30, align 8, !noalias !82
  %31 = getelementptr inbounds i8, i8* %29, i64 16
  %32 = bitcast i8* %31 to i8**
  store i8* %16, i8** %32, align 8
  %33 = getelementptr inbounds i8, i8* %29, i64 24
  %34 = bitcast i8* %33 to <2 x i64>*
  store <2 x i64> %19, <2 x i64>* %34, align 8
  %35 = getelementptr inbounds i8, i8* %29, i64 40
  %36 = bitcast i8* %35 to %"struct.std::__1::__function::__policy"**
  store %"struct.std::__1::__function::__policy"* %21, %"struct.std::__1::__function::__policy"** %36, align 8
  %37 = load void (i8*)*, void (i8*)** %22, align 8
  %38 = icmp eq void (i8*)* %37, null
  %39 = select i1 %38, %"struct.std::__1::__function::__policy"* %21, %"struct.std::__1::__function::__policy"* @_ZZNSt3__110__function8__policy14__create_emptyEvE9__policy_
  %40 = getelementptr inbounds i8, i8* %29, i64 48
  %41 = getelementptr inbounds %"class.std::__1::list", %"class.std::__1::list"* %13, i64 0, i32 0, i32 0, i32 0
  call void @llvm.memset.p0i8.i64(i8* align 8 %40, i8 0, i64 24, i1 false)
  %42 = load %"struct.std::__1::__list_node_base"*, %"struct.std::__1::__list_node_base"** %41, align 8
  %43 = getelementptr inbounds %"struct.std::__1::__list_node_base", %"struct.std::__1::__list_node_base"* %42, i64 0, i32 1
  %44 = bitcast %"struct.std::__1::__list_node_base"** %43 to i8**
  store i8* %29, i8** %44, align 8
  %45 = bitcast %"class.std::__1::list"* %13 to i64*
  %46 = load i64, i64* %45, align 8
  %47 = bitcast i8* %29 to i64*
  store i64 %46, i64* %47, align 8
  %48 = bitcast %"class.std::__1::list"* %13 to i8**
  store i8* %29, i8** %48, align 8
  %49 = getelementptr inbounds i8, i8* %29, i64 8
  %50 = bitcast i8* %49 to %"struct.std::__1::__list_node_base"**
  store %"struct.std::__1::__list_node_base"* %14, %"struct.std::__1::__list_node_base"** %50, align 8
  %51 = getelementptr inbounds %"class.perfetto::ConsumerIPCClientImpl", %"class.perfetto::ConsumerIPCClientImpl"* %0, i64 0, i32 6, i32 0, i32 1, i32 0, i32 0
  %52 = load i64, i64* %51, align 8
  %53 = add i64 %52, 1
  store i64 %53, i64* %51, align 8
  %54 = getelementptr inbounds %"struct.std::__1::__function::__policy", %"struct.std::__1::__function::__policy"* %39, i64 0, i32 1
  %55 = load void (i8*)*, void (i8*)** %54, align 8
  %56 = icmp eq void (i8*)* %55, null
  br i1 %56, label %58, label %57

57:                                               ; preds = %28
  tail call void %55(i8* %16) #14
  br label %58

58:                                               ; preds = %28, %57
  %59 = bitcast %"class.perfetto::protos::gen::QueryServiceStateRequest"* %5 to i8*
  call void @llvm.lifetime.start.p0i8(i64 40, i8* nonnull %59) #14
  %60 = bitcast %"class.perfetto::protos::gen::QueryServiceStateRequest"* %5 to i8*
  call void @llvm.memset.p0i8.i64(i8* nonnull align 8 %60, i8 -86, i64 40, i1 false)
  call void @_ZN8perfetto6protos3gen24QueryServiceStateRequestC1Ev(%"class.perfetto::protos::gen::QueryServiceStateRequest"* nonnull %5) #14
  %61 = bitcast %"class.perfetto::ipc::Deferred.436"* %6 to i8*
  call void @llvm.lifetime.start.p0i8(i64 32, i8* nonnull %61) #14
  %62 = bitcast %"class.std::__1::function"* %3 to i8*
  %63 = bitcast %"class.perfetto::ipc::Deferred.436"* %6 to i8*
  call void @llvm.memset.p0i8.i64(i8* nonnull align 8 %63, i8 -86, i64 32, i1 false)
  call void @llvm.lifetime.start.p0i8(i64 32, i8* nonnull %62)
  %64 = bitcast %"class.std::__1::function.437"* %4 to i8*
  call void @llvm.lifetime.start.p0i8(i64 32, i8* nonnull %64)
  %65 = getelementptr inbounds %"class.perfetto::ipc::Deferred.436", %"class.perfetto::ipc::Deferred.436"* %6, i64 0, i32 0
  %66 = getelementptr inbounds %"class.std::__1::function", %"class.std::__1::function"* %3, i64 0, i32 0, i32 1, i32 0
  store void (%"union.std::__1::__function::__policy_storage"*, %"class.perfetto::ipc::AsyncResult"*)* @_ZNSt3__110__function16__policy_invokerIFvN8perfetto3ipc11AsyncResultIN9protozero13CppMessageObjEEEEE12__call_emptyEPKNS0_16__policy_storageEOS7_, void (%"union.std::__1::__function::__policy_storage"*, %"class.perfetto::ipc::AsyncResult"*)** %66, align 8
  %67 = getelementptr inbounds %"class.std::__1::function", %"class.std::__1::function"* %3, i64 0, i32 0, i32 2
  store %"struct.std::__1::__function::__policy"* @_ZZNSt3__110__function8__policy14__create_emptyEvE9__policy_, %"struct.std::__1::__function::__policy"** %67, align 8
  call void @_ZN8perfetto3ipc12DeferredBaseC2ENSt3__18functionIFvNS0_11AsyncResultIN9protozero13CppMessageObjEEEEEE(%"class.perfetto::ipc::DeferredBase"* nonnull %65, %"class.std::__1::function"* nonnull %3) #14
  %68 = load %"struct.std::__1::__function::__policy"*, %"struct.std::__1::__function::__policy"** %67, align 8
  %69 = getelementptr inbounds %"struct.std::__1::__function::__policy", %"struct.std::__1::__function::__policy"* %68, i64 0, i32 1
  %70 = load void (i8*)*, void (i8*)** %69, align 8
  %71 = icmp eq void (i8*)* %70, null
  br i1 %71, label %75, label %72

72:                                               ; preds = %58
  %73 = getelementptr inbounds %"class.std::__1::function", %"class.std::__1::function"* %3, i64 0, i32 0, i32 0, i32 0
  %74 = load i8*, i8** %73, align 8
  call void %70(i8* %74) #14
  br label %75

75:                                               ; preds = %58, %72
  %76 = getelementptr inbounds %"class.std::__1::function.437", %"class.std::__1::function.437"* %4, i64 0, i32 0, i32 1
  %77 = bitcast %"struct.std::__1::__function::__policy_invoker.442"* %76 to i64*
  store i64 ptrtoint (void (%"union.std::__1::__function::__policy_storage"*, %"class.perfetto::ipc::AsyncResult.443"*)* @_ZNSt3__110__function16__policy_invokerIFvN8perfetto3ipc11AsyncResultINS2_6protos3gen25QueryServiceStateResponseEEEEE12__call_emptyEPKNS0_16__policy_storageEOS8_ to i64), i64* %77, align 8
  %78 = getelementptr inbounds %"class.std::__1::function.437", %"class.std::__1::function.437"* %4, i64 0, i32 0, i32 2
  store %"struct.std::__1::__function::__policy"* @_ZZNSt3__110__function8__policy14__create_emptyEvE9__policy_, %"struct.std::__1::__function::__policy"** %78, align 8
  call void @_ZN8perfetto3ipc8DeferredINS_6protos3gen25QueryServiceStateResponseEE4BindENSt3__18functionIFvNS0_11AsyncResultIS4_EEEEE(%"class.perfetto::ipc::Deferred.436"* nonnull %6, %"class.std::__1::function.437"* nonnull %4) #14
  %79 = load %"struct.std::__1::__function::__policy"*, %"struct.std::__1::__function::__policy"** %78, align 8
  %80 = getelementptr inbounds %"struct.std::__1::__function::__policy", %"struct.std::__1::__function::__policy"* %79, i64 0, i32 1
  %81 = load void (i8*)*, void (i8*)** %80, align 8
  %82 = icmp eq void (i8*)* %81, null
  br i1 %82, label %86, label %83

83:                                               ; preds = %75
  %84 = getelementptr inbounds %"class.std::__1::function.437", %"class.std::__1::function.437"* %4, i64 0, i32 0, i32 0, i32 0
  %85 = load i8*, i8** %84, align 8
  call void %81(i8* %85) #14
  br label %86

86:                                               ; preds = %83, %75
  call void @llvm.lifetime.end.p0i8(i64 32, i8* nonnull %62)
  call void @llvm.lifetime.end.p0i8(i64 32, i8* nonnull %64)
  %87 = getelementptr inbounds %"class.perfetto::ConsumerIPCClientImpl", %"class.perfetto::ConsumerIPCClientImpl"* %0, i64 0, i32 8, i32 0, i32 0, i32 0
  %88 = bitcast %"class.perfetto::ConsumerIPCClientImpl"*** %87 to i64*
  %89 = load i64, i64* %88, align 8
  %90 = getelementptr inbounds %"class.perfetto::ConsumerIPCClientImpl", %"class.perfetto::ConsumerIPCClientImpl"* %0, i64 0, i32 8, i32 0, i32 0, i32 1
  %91 = load %"class.std::__1::__shared_weak_count"*, %"class.std::__1::__shared_weak_count"** %90, align 8
  %92 = icmp eq %"class.std::__1::__shared_weak_count"* %91, null
  br i1 %92, label %97, label %93

93:                                               ; preds = %86
  %94 = getelementptr inbounds %"class.std::__1::__shared_weak_count", %"class.std::__1::__shared_weak_count"* %91, i64 0, i32 0, i32 1
  %95 = atomicrmw add i64* %94, i64 1 monotonic
  %96 = atomicrmw add i64* %94, i64 1 monotonic
  br label %97

97:                                               ; preds = %86, %93
  %98 = ptrtoint %"class.std::__1::__shared_weak_count"* %91 to i64
  %99 = ptrtoint i8* %29 to i64
  %100 = getelementptr inbounds %"class.std::__1::function.437", %"class.std::__1::function.437"* %7, i64 0, i32 0, i32 1, i32 0
  %101 = getelementptr inbounds %"class.std::__1::function.437", %"class.std::__1::function.437"* %7, i64 0, i32 0, i32 2
  store void (%"union.std::__1::__function::__policy_storage"*, %"class.perfetto::ipc::AsyncResult.443"*)* @"_ZNSt3__110__function16__policy_invokerIFvN8perfetto3ipc11AsyncResultINS2_6protos3gen25QueryServiceStateResponseEEEEE11__call_implINS0_20__default_alloc_funcIZNS2_21ConsumerIPCClientImpl17QueryServiceStateENS_8functionIFvbRKNS6_19TracingServiceStateEEEEE4$_11S9_EEEEvPKNS0_16__policy_storageEOS8_", void (%"union.std::__1::__function::__policy_storage"*, %"class.perfetto::ipc::AsyncResult.443"*)** %100, align 8
  store %"struct.std::__1::__function::__policy"* @"_ZZNSt3__110__function8__policy15__choose_policyINS0_20__default_alloc_funcIZN8perfetto21ConsumerIPCClientImpl17QueryServiceStateENS_8functionIFvbRKNS4_6protos3gen19TracingServiceStateEEEEE4$_11FvNS4_3ipc11AsyncResultINS8_25QueryServiceStateResponseEEEEEEEEPKS1_NS_17integral_constantIbLb0EEEE9__policy_", %"struct.std::__1::__function::__policy"** %101, align 8
  %102 = call i8* @_Znwm(i64 24) #13, !noalias !85
  %103 = bitcast i8* %102 to i64*
  store i64 %89, i64* %103, align 8
  %104 = getelementptr inbounds i8, i8* %102, i64 8
  %105 = bitcast i8* %104 to i64*
  store i64 %98, i64* %105, align 8
  %106 = getelementptr inbounds i8, i8* %102, i64 16
  %107 = bitcast i8* %106 to i64*
  store i64 %99, i64* %107, align 8
  %108 = getelementptr inbounds %"class.std::__1::function.437", %"class.std::__1::function.437"* %7, i64 0, i32 0, i32 0, i32 0
  store i8* %102, i8** %108, align 8
  call void @_ZN8perfetto3ipc8DeferredINS_6protos3gen25QueryServiceStateResponseEE4BindENSt3__18functionIFvNS0_11AsyncResultIS4_EEEEE(%"class.perfetto::ipc::Deferred.436"* nonnull %6, %"class.std::__1::function.437"* nonnull %7)
  %109 = load %"struct.std::__1::__function::__policy"*, %"struct.std::__1::__function::__policy"** %101, align 8
  %110 = getelementptr inbounds %"struct.std::__1::__function::__policy", %"struct.std::__1::__function::__policy"* %109, i64 0, i32 1
  %111 = load void (i8*)*, void (i8*)** %110, align 8
  %112 = icmp eq void (i8*)* %111, null
  br i1 %112, label %115, label %113

113:                                              ; preds = %97
  %114 = load i8*, i8** %108, align 8
  call void %111(i8* %114) #14
  br label %115

115:                                              ; preds = %97, %113
  %116 = getelementptr inbounds %"class.perfetto::ConsumerIPCClientImpl", %"class.perfetto::ConsumerIPCClientImpl"* %0, i64 0, i32 4
  %117 = getelementptr inbounds %"class.perfetto::ipc::Deferred.436", %"class.perfetto::ipc::Deferred.436"* %8, i64 0, i32 0
  call void @_ZN8perfetto3ipc12DeferredBaseC2EOS1_(%"class.perfetto::ipc::DeferredBase"* nonnull %117, %"class.perfetto::ipc::DeferredBase"* nonnull dereferenceable(32) %65) #14
  call void @_ZN8perfetto6protos3gen17ConsumerPortProxy17QueryServiceStateERKNS1_24QueryServiceStateRequestENS_3ipc8DeferredINS1_25QueryServiceStateResponseEEEi(%"class.perfetto::protos::gen::ConsumerPortProxy"* %116, %"class.perfetto::protos::gen::QueryServiceStateRequest"* nonnull dereferenceable(40) %5, %"class.perfetto::ipc::Deferred.436"* nonnull %8, i32 -1) #14
  call void @_ZN8perfetto3ipc12DeferredBaseD2Ev(%"class.perfetto::ipc::DeferredBase"* nonnull %117) #14
  br i1 %92, label %128, label %118

118:                                              ; preds = %115
  %119 = getelementptr inbounds %"class.std::__1::__shared_weak_count", %"class.std::__1::__shared_weak_count"* %91, i64 0, i32 0, i32 1
  %120 = atomicrmw add i64* %119, i64 -1 acq_rel
  %121 = icmp eq i64 %120, 0
  br i1 %121, label %122, label %128

122:                                              ; preds = %118
  %123 = getelementptr inbounds %"class.std::__1::__shared_weak_count", %"class.std::__1::__shared_weak_count"* %91, i64 0, i32 0
  %124 = bitcast %"class.std::__1::__shared_weak_count"* %91 to void (%"class.std::__1::__shared_count"*)***
  %125 = load void (%"class.std::__1::__shared_count"*)**, void (%"class.std::__1::__shared_count"*)*** %124, align 8
  %126 = getelementptr inbounds void (%"class.std::__1::__shared_count"*)*, void (%"class.std::__1::__shared_count"*)** %125, i64 2
  %127 = load void (%"class.std::__1::__shared_count"*)*, void (%"class.std::__1::__shared_count"*)** %126, align 8
  call void %127(%"class.std::__1::__shared_count"* %123) #14
  call void @_ZNSt3__119__shared_weak_count14__release_weakEv(%"class.std::__1::__shared_weak_count"* nonnull %91) #14
  br label %128

128:                                              ; preds = %115, %118, %122
  call void @_ZN8perfetto3ipc12DeferredBaseD2Ev(%"class.perfetto::ipc::DeferredBase"* nonnull %65) #14
  call void @llvm.lifetime.end.p0i8(i64 32, i8* nonnull %61) #14
  call void @_ZN8perfetto6protos3gen24QueryServiceStateRequestD1Ev(%"class.perfetto::protos::gen::QueryServiceStateRequest"* nonnull %5) #14
  call void @llvm.lifetime.end.p0i8(i64 40, i8* nonnull %59) #14
  br label %129

129:                                              ; preds = %2, %128
  ret void
}

declare void @_ZN8perfetto6protos3gen24QueryServiceStateRequestC1Ev(%"class.perfetto::protos::gen::QueryServiceStateRequest"*) unnamed_addr #2

; Function Attrs: nounwind ssp uwtable
define linkonce_odr hidden void @_ZN8perfetto3ipc8DeferredINS_6protos3gen25QueryServiceStateResponseEE4BindENSt3__18functionIFvNS0_11AsyncResultIS4_EEEEE(%"class.perfetto::ipc::Deferred.436"*, %"class.std::__1::function.437"*) local_unnamed_addr #0 comdat align 2 {
  %3 = alloca %"class.std::__1::function", align 8
  %4 = getelementptr inbounds %"class.std::__1::function.437", %"class.std::__1::function.437"* %1, i64 0, i32 0, i32 2
  %5 = load %"struct.std::__1::__function::__policy"*, %"struct.std::__1::__function::__policy"** %4, align 8
  %6 = getelementptr inbounds %"struct.std::__1::__function::__policy", %"struct.std::__1::__function::__policy"* %5, i64 0, i32 2
  %7 = load i8, i8* %6, align 8, !range !3
  %8 = icmp eq i8 %7, 0
  br i1 %8, label %9, label %59

9:                                                ; preds = %2
  %10 = getelementptr inbounds %"class.std::__1::function.437", %"class.std::__1::function.437"* %1, i64 0, i32 0, i32 0, i32 0
  %11 = load i8*, i8** %10, align 8
  %12 = getelementptr inbounds %"class.std::__1::function.437", %"class.std::__1::function.437"* %1, i64 0, i32 0, i32 0, i32 1
  %13 = bitcast [8 x i8]* %12 to <2 x i64>*
  %14 = load <2 x i64>, <2 x i64>* %13, align 8
  %15 = getelementptr inbounds %"struct.std::__1::__function::__policy", %"struct.std::__1::__function::__policy"* %5, i64 0, i32 0
  %16 = load i8* (i8*)*, i8* (i8*)** %15, align 8
  %17 = icmp eq i8* (i8*)* %16, null
  br i1 %17, label %18, label %20

18:                                               ; preds = %9
  %19 = getelementptr inbounds %"class.perfetto::ipc::Deferred.436", %"class.perfetto::ipc::Deferred.436"* %0, i64 0, i32 0
  br label %27

20:                                               ; preds = %9
  %21 = tail call i8* %16(i8* %11) #14
  %22 = load i8* (i8*)*, i8* (i8*)** %15, align 8
  %23 = getelementptr inbounds %"class.perfetto::ipc::Deferred.436", %"class.perfetto::ipc::Deferred.436"* %0, i64 0, i32 0
  %24 = icmp eq i8* (i8*)* %22, null
  br i1 %24, label %27, label %25

25:                                               ; preds = %20
  %26 = tail call i8* %22(i8* %21) #14
  br label %27

27:                                               ; preds = %18, %20, %25
  %28 = phi %"class.perfetto::ipc::DeferredBase"* [ %23, %20 ], [ %23, %25 ], [ %19, %18 ]
  %29 = phi i8* [ %21, %20 ], [ %21, %25 ], [ %11, %18 ]
  %30 = phi i8* [ %21, %20 ], [ %26, %25 ], [ %11, %18 ]
  %31 = getelementptr inbounds %"class.std::__1::function", %"class.std::__1::function"* %3, i64 0, i32 0, i32 1, i32 0
  %32 = getelementptr inbounds %"class.std::__1::function", %"class.std::__1::function"* %3, i64 0, i32 0, i32 2
  store void (%"union.std::__1::__function::__policy_storage"*, %"class.perfetto::ipc::AsyncResult"*)* @_ZNSt3__110__function16__policy_invokerIFvN8perfetto3ipc11AsyncResultIN9protozero13CppMessageObjEEEEE11__call_implINS0_20__default_alloc_funcIZNS3_8DeferredINS2_6protos3gen25QueryServiceStateResponseEE4BindENS_8functionIFvNS4_ISF_EEEEEEUlS7_E_S8_EEEEvPKNS0_16__policy_storageEOS7_, void (%"union.std::__1::__function::__policy_storage"*, %"class.perfetto::ipc::AsyncResult"*)** %31, align 8
  store %"struct.std::__1::__function::__policy"* @_ZZNSt3__110__function8__policy15__choose_policyINS0_20__default_alloc_funcIZN8perfetto3ipc8DeferredINS4_6protos3gen25QueryServiceStateResponseEE4BindENS_8functionIFvNS5_11AsyncResultIS9_EEEEEEUlNSC_IN9protozero13CppMessageObjEEEE_FvSI_EEEEEPKS1_NS_17integral_constantIbLb0EEEE9__policy_, %"struct.std::__1::__function::__policy"** %32, align 8
  %33 = tail call i8* @_Znwm(i64 32) #13, !noalias !90
  %34 = bitcast i8* %33 to i8**
  store i8* %30, i8** %34, align 8
  %35 = getelementptr inbounds i8, i8* %33, i64 8
  %36 = bitcast i8* %35 to <2 x i64>*
  store <2 x i64> %14, <2 x i64>* %36, align 8
  %37 = getelementptr inbounds i8, i8* %33, i64 24
  %38 = bitcast i8* %37 to %"struct.std::__1::__function::__policy"**
  store %"struct.std::__1::__function::__policy"* %5, %"struct.std::__1::__function::__policy"** %38, align 8
  %39 = getelementptr inbounds %"struct.std::__1::__function::__policy", %"struct.std::__1::__function::__policy"* %5, i64 0, i32 1
  %40 = load void (i8*)*, void (i8*)** %39, align 8
  %41 = icmp eq void (i8*)* %40, null
  %42 = select i1 %41, %"struct.std::__1::__function::__policy"* %5, %"struct.std::__1::__function::__policy"* @_ZZNSt3__110__function8__policy14__create_emptyEvE9__policy_
  %43 = getelementptr inbounds %"class.std::__1::function", %"class.std::__1::function"* %3, i64 0, i32 0, i32 0, i32 0
  store i8* %33, i8** %43, align 8
  call void @_ZN8perfetto3ipc12DeferredBase4BindENSt3__18functionIFvNS0_11AsyncResultIN9protozero13CppMessageObjEEEEEE(%"class.perfetto::ipc::DeferredBase"* %28, %"class.std::__1::function"* nonnull %3) #14
  %44 = load %"struct.std::__1::__function::__policy"*, %"struct.std::__1::__function::__policy"** %32, align 8
  %45 = getelementptr inbounds %"struct.std::__1::__function::__policy", %"struct.std::__1::__function::__policy"* %44, i64 0, i32 1
  %46 = load void (i8*)*, void (i8*)** %45, align 8
  %47 = icmp eq void (i8*)* %46, null
  br i1 %47, label %50, label %48

48:                                               ; preds = %27
  %49 = load i8*, i8** %43, align 8
  call void %46(i8* %49) #14
  br label %50

50:                                               ; preds = %27, %48
  %51 = getelementptr inbounds %"struct.std::__1::__function::__policy", %"struct.std::__1::__function::__policy"* %42, i64 0, i32 1
  %52 = load void (i8*)*, void (i8*)** %51, align 8
  %53 = icmp eq void (i8*)* %52, null
  br i1 %53, label %55, label %54

54:                                               ; preds = %50
  call void %52(i8* %30) #14
  br label %55

55:                                               ; preds = %50, %54
  %56 = load void (i8*)*, void (i8*)** %39, align 8
  %57 = icmp eq void (i8*)* %56, null
  br i1 %57, label %59, label %58

58:                                               ; preds = %55
  call void %56(i8* %29) #14
  br label %59

59:                                               ; preds = %58, %55, %2
  ret void
}

declare void @_ZN8perfetto6protos3gen17ConsumerPortProxy17QueryServiceStateERKNS1_24QueryServiceStateRequestENS_3ipc8DeferredINS1_25QueryServiceStateResponseEEEi(%"class.perfetto::protos::gen::ConsumerPortProxy"*, %"class.perfetto::protos::gen::QueryServiceStateRequest"* dereferenceable(40), %"class.perfetto::ipc::Deferred.436"*, i32) local_unnamed_addr #2

; Function Attrs: nounwind
declare void @_ZN8perfetto6protos3gen24QueryServiceStateRequestD1Ev(%"class.perfetto::protos::gen::QueryServiceStateRequest"*) unnamed_addr #3

; Function Attrs: nounwind ssp uwtable
define hidden void @_ZN8perfetto21ConsumerIPCClientImpl27OnQueryServiceStateResponseENS_3ipc11AsyncResultINS_6protos3gen25QueryServiceStateResponseEEENSt3__115__list_iteratorINS0_26PendingQueryServiceRequestEPvEE(%"class.perfetto::ConsumerIPCClientImpl"* nocapture, %"class.perfetto::protos::gen::QueryServiceStateResponse"*, i64, %"struct.std::__1::__list_node_base"*) local_unnamed_addr #0 align 2 {
  %5 = alloca %"class.std::__1::function.403", align 8
  %6 = alloca %"class.perfetto::protos::gen::TracingServiceState", align 8
  %7 = alloca %"class.std::__1::vector.430", align 8
  %8 = alloca %"class.perfetto::protos::gen::TracingServiceState", align 8
  %9 = alloca %"class.std::__1::function.403", align 8
  %10 = icmp eq %"class.perfetto::protos::gen::QueryServiceStateResponse"* %1, null
  br i1 %10, label %11, label %73

11:                                               ; preds = %4
  %12 = bitcast %"class.std::__1::function.403"* %5 to i8*
  call void @llvm.lifetime.start.p0i8(i64 32, i8* nonnull %12) #14
  %13 = getelementptr inbounds %"class.std::__1::function.403", %"class.std::__1::function.403"* %5, i64 0, i32 0, i32 0, i32 0
  %14 = getelementptr inbounds %"class.std::__1::function.403", %"class.std::__1::function.403"* %5, i64 0, i32 0, i32 1, i32 0
  %15 = getelementptr inbounds %"class.std::__1::function.403", %"class.std::__1::function.403"* %5, i64 0, i32 0, i32 2
  %16 = getelementptr inbounds %"struct.std::__1::__list_node_base", %"struct.std::__1::__list_node_base"* %3, i64 1
  %17 = bitcast %"struct.std::__1::__list_node_base"* %16 to i8*
  call void @llvm.memcpy.p0i8.p0i8.i64(i8* nonnull align 8 %12, i8* align 8 %17, i64 16, i1 false) #14
  %18 = getelementptr inbounds %"class.std::__1::function.403", %"class.std::__1::function.403"* %5, i64 0, i32 0, i32 1
  %19 = getelementptr inbounds %"struct.std::__1::__list_node_base", %"struct.std::__1::__list_node_base"* %3, i64 2
  %20 = bitcast %"struct.std::__1::__list_node_base"* %19 to i64*
  %21 = bitcast %"struct.std::__1::__function::__policy_invoker.408"* %18 to i64*
  %22 = load i64, i64* %20, align 8
  store i64 %22, i64* %21, align 8
  %23 = getelementptr inbounds %"struct.std::__1::__list_node_base", %"struct.std::__1::__list_node_base"* %3, i64 2, i32 1
  %24 = bitcast %"struct.std::__1::__list_node_base"** %23 to %"struct.std::__1::__function::__policy"**
  %25 = load %"struct.std::__1::__function::__policy"*, %"struct.std::__1::__function::__policy"** %24, align 8
  store %"struct.std::__1::__function::__policy"* %25, %"struct.std::__1::__function::__policy"** %15, align 8
  %26 = getelementptr inbounds %"struct.std::__1::__function::__policy", %"struct.std::__1::__function::__policy"* %25, i64 0, i32 1
  %27 = load void (i8*)*, void (i8*)** %26, align 8
  %28 = icmp eq void (i8*)* %27, null
  br i1 %28, label %30, label %29

29:                                               ; preds = %11
  store %"struct.std::__1::__function::__policy"* @_ZZNSt3__110__function8__policy14__create_emptyEvE9__policy_, %"struct.std::__1::__function::__policy"** %24, align 8
  store i64 ptrtoint (void (%"union.std::__1::__function::__policy_storage"*, i1, %"class.perfetto::protos::gen::TracingServiceState"*)* @_ZNSt3__110__function16__policy_invokerIFvbRKN8perfetto6protos3gen19TracingServiceStateEEE12__call_emptyEPKNS0_16__policy_storageEbS7_ to i64), i64* %20, align 8
  br label %30

30:                                               ; preds = %11, %29
  %31 = getelementptr inbounds %"struct.std::__1::__list_node_base", %"struct.std::__1::__list_node_base"* %3, i64 0, i32 1
  %32 = bitcast %"struct.std::__1::__list_node_base"** %31 to i64*
  %33 = load i64, i64* %32, align 8
  %34 = getelementptr inbounds %"struct.std::__1::__list_node_base", %"struct.std::__1::__list_node_base"* %3, i64 0, i32 0
  %35 = load %"struct.std::__1::__list_node_base"*, %"struct.std::__1::__list_node_base"** %34, align 8
  %36 = getelementptr inbounds %"struct.std::__1::__list_node_base", %"struct.std::__1::__list_node_base"* %35, i64 0, i32 1
  %37 = bitcast %"struct.std::__1::__list_node_base"** %36 to i64*
  store i64 %33, i64* %37, align 8
  %38 = bitcast %"struct.std::__1::__list_node_base"* %3 to i64*
  %39 = load i64, i64* %38, align 8
  %40 = bitcast %"struct.std::__1::__list_node_base"** %31 to i64**
  %41 = load i64*, i64** %40, align 8
  store i64 %39, i64* %41, align 8
  %42 = getelementptr inbounds %"class.perfetto::ConsumerIPCClientImpl", %"class.perfetto::ConsumerIPCClientImpl"* %0, i64 0, i32 6, i32 0, i32 1, i32 0, i32 0
  %43 = load i64, i64* %42, align 8
  %44 = add i64 %43, -1
  store i64 %44, i64* %42, align 8
  %45 = getelementptr inbounds %"struct.std::__1::__list_node_base", %"struct.std::__1::__list_node_base"* %3, i64 3
  %46 = bitcast %"struct.std::__1::__list_node_base"* %45 to i8**
  %47 = load i8*, i8** %46, align 8
  %48 = icmp eq i8* %47, null
  br i1 %48, label %53, label %49

49:                                               ; preds = %30
  %50 = ptrtoint i8* %47 to i64
  %51 = getelementptr inbounds %"struct.std::__1::__list_node_base", %"struct.std::__1::__list_node_base"* %3, i64 3, i32 1
  %52 = bitcast %"struct.std::__1::__list_node_base"** %51 to i64*
  store i64 %50, i64* %52, align 8
  tail call void @_ZdlPv(i8* nonnull %47) #13
  br label %53

53:                                               ; preds = %49, %30
  %54 = load %"struct.std::__1::__function::__policy"*, %"struct.std::__1::__function::__policy"** %24, align 8
  %55 = getelementptr inbounds %"struct.std::__1::__function::__policy", %"struct.std::__1::__function::__policy"* %54, i64 0, i32 1
  %56 = load void (i8*)*, void (i8*)** %55, align 8
  %57 = icmp eq void (i8*)* %56, null
  br i1 %57, label %61, label %58

58:                                               ; preds = %53
  %59 = bitcast %"struct.std::__1::__list_node_base"* %16 to i8**
  %60 = load i8*, i8** %59, align 8
  tail call void %56(i8* %60) #14
  br label %61

61:                                               ; preds = %53, %58
  %62 = bitcast %"struct.std::__1::__list_node_base"* %3 to i8*
  tail call void @_ZdlPv(i8* %62) #13
  %63 = bitcast %"class.perfetto::protos::gen::TracingServiceState"* %6 to i8*
  call void @llvm.lifetime.start.p0i8(i64 120, i8* nonnull %63) #14
  call void @_ZN8perfetto6protos3gen19TracingServiceStateC1Ev(%"class.perfetto::protos::gen::TracingServiceState"* nonnull %6) #14
  %64 = load void (%"union.std::__1::__function::__policy_storage"*, i1, %"class.perfetto::protos::gen::TracingServiceState"*)*, void (%"union.std::__1::__function::__policy_storage"*, i1, %"class.perfetto::protos::gen::TracingServiceState"*)** %14, align 8
  %65 = getelementptr inbounds %"class.std::__1::function.403", %"class.std::__1::function.403"* %5, i64 0, i32 0, i32 0
  call void %64(%"union.std::__1::__function::__policy_storage"* nonnull %65, i1 zeroext false, %"class.perfetto::protos::gen::TracingServiceState"* nonnull dereferenceable(120) %6) #14
  call void @_ZN8perfetto6protos3gen19TracingServiceStateD1Ev(%"class.perfetto::protos::gen::TracingServiceState"* nonnull %6) #14
  call void @llvm.lifetime.end.p0i8(i64 120, i8* nonnull %63) #14
  %66 = load %"struct.std::__1::__function::__policy"*, %"struct.std::__1::__function::__policy"** %15, align 8
  %67 = getelementptr inbounds %"struct.std::__1::__function::__policy", %"struct.std::__1::__function::__policy"* %66, i64 0, i32 1
  %68 = load void (i8*)*, void (i8*)** %67, align 8
  %69 = icmp eq void (i8*)* %68, null
  br i1 %69, label %72, label %70

70:                                               ; preds = %61
  %71 = load i8*, i8** %13, align 8
  call void %68(i8* %71) #14
  br label %72

72:                                               ; preds = %70, %61
  call void @llvm.lifetime.end.p0i8(i64 32, i8* nonnull %12) #14
  br label %183

73:                                               ; preds = %4
  %74 = trunc i64 %2 to i8
  %75 = getelementptr inbounds %"struct.std::__1::__list_node_base", %"struct.std::__1::__list_node_base"* %3, i64 1
  %76 = getelementptr inbounds %"struct.std::__1::__list_node_base", %"struct.std::__1::__list_node_base"* %3, i64 3
  %77 = bitcast %"struct.std::__1::__list_node_base"* %76 to %"class.std::__1::vector.430"*
  %78 = bitcast %"class.std::__1::vector.430"* %7 to i8*
  call void @llvm.lifetime.start.p0i8(i64 24, i8* nonnull %78) #14
  %79 = getelementptr inbounds %"class.std::__1::vector.430", %"class.std::__1::vector.430"* %7, i64 0, i32 0, i32 0
  %80 = getelementptr inbounds %"class.std::__1::vector.430", %"class.std::__1::vector.430"* %7, i64 0, i32 0, i32 1
  %81 = getelementptr inbounds %"class.perfetto::protos::gen::QueryServiceStateResponse", %"class.perfetto::protos::gen::QueryServiceStateResponse"* %1, i64 0, i32 1, i32 0, i32 0, i32 0, i32 0
  %82 = bitcast %"class.std::__1::vector.430"* %7 to i8*
  call void @llvm.memset.p0i8.i64(i8* nonnull align 8 %82, i8 -86, i64 24, i1 false)
  %83 = load %"class.perfetto::protos::gen::TracingServiceState"*, %"class.perfetto::protos::gen::TracingServiceState"** %81, align 8
  %84 = bitcast %"class.perfetto::protos::gen::TracingServiceState"* %83 to void (%"class.std::__1::vector.430"*, %"class.perfetto::protos::gen::TracingServiceState"*)***
  %85 = load void (%"class.std::__1::vector.430"*, %"class.perfetto::protos::gen::TracingServiceState"*)**, void (%"class.std::__1::vector.430"*, %"class.perfetto::protos::gen::TracingServiceState"*)*** %84, align 8
  %86 = getelementptr inbounds void (%"class.std::__1::vector.430"*, %"class.perfetto::protos::gen::TracingServiceState"*)*, void (%"class.std::__1::vector.430"*, %"class.perfetto::protos::gen::TracingServiceState"*)** %85, i64 3
  %87 = load void (%"class.std::__1::vector.430"*, %"class.perfetto::protos::gen::TracingServiceState"*)*, void (%"class.std::__1::vector.430"*, %"class.perfetto::protos::gen::TracingServiceState"*)** %86, align 8
  call void %87(%"class.std::__1::vector.430"* nonnull sret %7, %"class.perfetto::protos::gen::TracingServiceState"* %83) #14
  %88 = getelementptr inbounds %"struct.std::__1::__list_node_base", %"struct.std::__1::__list_node_base"* %3, i64 3, i32 1
  %89 = bitcast %"struct.std::__1::__list_node_base"** %88 to i8**
  %90 = load i8*, i8** %89, align 8
  %91 = load i8*, i8** %79, align 8
  %92 = load i8*, i8** %80, align 8
  %93 = call i8* @_ZNSt3__16vectorIhNS_9allocatorIhEEE6insertINS_11__wrap_iterIPhEEEENS_9enable_ifIXaasr27__is_cpp17_forward_iteratorIT_EE5valuesr16is_constructibleIhNS_15iterator_traitsIS9_E9referenceEEE5valueES7_E4typeENS5_IPKhEES9_S9_(%"class.std::__1::vector.430"* %77, i8* %90, i8* %91, i8* %92)
  %94 = icmp eq i8 %74, 0
  br i1 %94, label %95, label %172

95:                                               ; preds = %73
  %96 = bitcast %"class.perfetto::protos::gen::TracingServiceState"* %8 to i8*
  call void @llvm.lifetime.start.p0i8(i64 120, i8* nonnull %96) #14
  call void @llvm.memset.p0i8.i64(i8* nonnull align 8 %96, i8 -86, i64 120, i1 false)
  call void @_ZN8perfetto6protos3gen19TracingServiceStateC1Ev(%"class.perfetto::protos::gen::TracingServiceState"* nonnull %8) #14
  %97 = bitcast %"struct.std::__1::__list_node_base"* %76 to i8**
  %98 = load i8*, i8** %97, align 8
  %99 = bitcast %"struct.std::__1::__list_node_base"** %88 to i64*
  %100 = load i64, i64* %99, align 8
  %101 = ptrtoint i8* %98 to i64
  %102 = sub i64 %100, %101
  %103 = call zeroext i1 @_ZN8perfetto6protos3gen19TracingServiceState14ParseFromArrayEPKvm(%"class.perfetto::protos::gen::TracingServiceState"* nonnull %8, i8* %98, i64 %102) #14
  br i1 %103, label %116, label %104

104:                                              ; preds = %95, %107
  %105 = phi i64 [ %108, %107 ], [ 79, %95 ]
  %106 = icmp eq i64 %105, 0
  br i1 %106, label %114, label %107

107:                                              ; preds = %104
  %108 = add nsw i64 %105, -1
  %109 = getelementptr inbounds [80 x i8], [80 x i8]* @.str.15, i64 0, i64 %108
  %110 = load i8, i8* %109, align 1
  %111 = icmp eq i8 %110, 47
  %112 = icmp slt i64 %105, 80
  %113 = and i1 %112, %111
  br i1 %113, label %114, label %104

114:                                              ; preds = %104, %107
  %115 = getelementptr inbounds [80 x i8], [80 x i8]* @.str.15, i64 0, i64 %105
  call void (i32, i8*, i32, i8*, ...) @_ZN8perfetto4base10LogMessageENS0_6LogLevEPKciS3_z(i32 3, i8* %115, i32 404, i8* getelementptr inbounds ([50 x i8], [50 x i8]* @.str.16, i64 0, i64 0)) #14
  br label %116

116:                                              ; preds = %114, %95
  %117 = bitcast %"class.std::__1::function.403"* %9 to i8*
  call void @llvm.lifetime.start.p0i8(i64 32, i8* nonnull %117) #14
  %118 = getelementptr inbounds %"class.std::__1::function.403", %"class.std::__1::function.403"* %9, i64 0, i32 0, i32 0, i32 0
  %119 = getelementptr inbounds %"class.std::__1::function.403", %"class.std::__1::function.403"* %9, i64 0, i32 0, i32 1, i32 0
  %120 = getelementptr inbounds %"class.std::__1::function.403", %"class.std::__1::function.403"* %9, i64 0, i32 0, i32 2
  %121 = bitcast %"struct.std::__1::__list_node_base"* %75 to i8*
  call void @llvm.memcpy.p0i8.p0i8.i64(i8* nonnull align 8 %117, i8* align 8 %121, i64 16, i1 false) #14
  %122 = getelementptr inbounds %"class.std::__1::function.403", %"class.std::__1::function.403"* %9, i64 0, i32 0, i32 1
  %123 = getelementptr inbounds %"struct.std::__1::__list_node_base", %"struct.std::__1::__list_node_base"* %3, i64 2
  %124 = bitcast %"struct.std::__1::__list_node_base"* %123 to i64*
  %125 = bitcast %"struct.std::__1::__function::__policy_invoker.408"* %122 to i64*
  %126 = load i64, i64* %124, align 8
  store i64 %126, i64* %125, align 8
  %127 = getelementptr inbounds %"struct.std::__1::__list_node_base", %"struct.std::__1::__list_node_base"* %3, i64 2, i32 1
  %128 = bitcast %"struct.std::__1::__list_node_base"** %127 to %"struct.std::__1::__function::__policy"**
  %129 = load %"struct.std::__1::__function::__policy"*, %"struct.std::__1::__function::__policy"** %128, align 8
  store %"struct.std::__1::__function::__policy"* %129, %"struct.std::__1::__function::__policy"** %120, align 8
  %130 = getelementptr inbounds %"struct.std::__1::__function::__policy", %"struct.std::__1::__function::__policy"* %129, i64 0, i32 1
  %131 = load void (i8*)*, void (i8*)** %130, align 8
  %132 = icmp eq void (i8*)* %131, null
  br i1 %132, label %134, label %133

133:                                              ; preds = %116
  store %"struct.std::__1::__function::__policy"* @_ZZNSt3__110__function8__policy14__create_emptyEvE9__policy_, %"struct.std::__1::__function::__policy"** %128, align 8
  store i64 ptrtoint (void (%"union.std::__1::__function::__policy_storage"*, i1, %"class.perfetto::protos::gen::TracingServiceState"*)* @_ZNSt3__110__function16__policy_invokerIFvbRKN8perfetto6protos3gen19TracingServiceStateEEE12__call_emptyEPKNS0_16__policy_storageEbS7_ to i64), i64* %124, align 8
  br label %134

134:                                              ; preds = %116, %133
  %135 = getelementptr inbounds %"struct.std::__1::__list_node_base", %"struct.std::__1::__list_node_base"* %3, i64 0, i32 1
  %136 = bitcast %"struct.std::__1::__list_node_base"** %135 to i64*
  %137 = load i64, i64* %136, align 8
  %138 = getelementptr inbounds %"struct.std::__1::__list_node_base", %"struct.std::__1::__list_node_base"* %3, i64 0, i32 0
  %139 = load %"struct.std::__1::__list_node_base"*, %"struct.std::__1::__list_node_base"** %138, align 8
  %140 = getelementptr inbounds %"struct.std::__1::__list_node_base", %"struct.std::__1::__list_node_base"* %139, i64 0, i32 1
  %141 = bitcast %"struct.std::__1::__list_node_base"** %140 to i64*
  store i64 %137, i64* %141, align 8
  %142 = bitcast %"struct.std::__1::__list_node_base"* %3 to i64*
  %143 = load i64, i64* %142, align 8
  %144 = bitcast %"struct.std::__1::__list_node_base"** %135 to i64**
  %145 = load i64*, i64** %144, align 8
  store i64 %143, i64* %145, align 8
  %146 = getelementptr inbounds %"class.perfetto::ConsumerIPCClientImpl", %"class.perfetto::ConsumerIPCClientImpl"* %0, i64 0, i32 6, i32 0, i32 1, i32 0, i32 0
  %147 = load i64, i64* %146, align 8
  %148 = add i64 %147, -1
  store i64 %148, i64* %146, align 8
  %149 = load i8*, i8** %97, align 8
  %150 = icmp eq i8* %149, null
  br i1 %150, label %153, label %151

151:                                              ; preds = %134
  %152 = ptrtoint i8* %149 to i64
  store i64 %152, i64* %99, align 8
  call void @_ZdlPv(i8* nonnull %149) #13
  br label %153

153:                                              ; preds = %151, %134
  %154 = load %"struct.std::__1::__function::__policy"*, %"struct.std::__1::__function::__policy"** %128, align 8
  %155 = getelementptr inbounds %"struct.std::__1::__function::__policy", %"struct.std::__1::__function::__policy"* %154, i64 0, i32 1
  %156 = load void (i8*)*, void (i8*)** %155, align 8
  %157 = icmp eq void (i8*)* %156, null
  br i1 %157, label %161, label %158

158:                                              ; preds = %153
  %159 = bitcast %"struct.std::__1::__list_node_base"* %75 to i8**
  %160 = load i8*, i8** %159, align 8
  call void %156(i8* %160) #14
  br label %161

161:                                              ; preds = %153, %158
  %162 = bitcast %"struct.std::__1::__list_node_base"* %3 to i8*
  call void @_ZdlPv(i8* %162) #13
  %163 = load void (%"union.std::__1::__function::__policy_storage"*, i1, %"class.perfetto::protos::gen::TracingServiceState"*)*, void (%"union.std::__1::__function::__policy_storage"*, i1, %"class.perfetto::protos::gen::TracingServiceState"*)** %119, align 8
  %164 = getelementptr inbounds %"class.std::__1::function.403", %"class.std::__1::function.403"* %9, i64 0, i32 0, i32 0
  call void %163(%"union.std::__1::__function::__policy_storage"* nonnull %164, i1 zeroext %103, %"class.perfetto::protos::gen::TracingServiceState"* nonnull dereferenceable(120) %8) #14
  %165 = load %"struct.std::__1::__function::__policy"*, %"struct.std::__1::__function::__policy"** %120, align 8
  %166 = getelementptr inbounds %"struct.std::__1::__function::__policy", %"struct.std::__1::__function::__policy"* %165, i64 0, i32 1
  %167 = load void (i8*)*, void (i8*)** %166, align 8
  %168 = icmp eq void (i8*)* %167, null
  br i1 %168, label %171, label %169

169:                                              ; preds = %161
  %170 = load i8*, i8** %118, align 8
  call void %167(i8* %170) #14
  br label %171

171:                                              ; preds = %161, %169
  call void @llvm.lifetime.end.p0i8(i64 32, i8* nonnull %117) #14
  call void @_ZN8perfetto6protos3gen19TracingServiceStateD1Ev(%"class.perfetto::protos::gen::TracingServiceState"* nonnull %8) #14
  call void @llvm.lifetime.end.p0i8(i64 120, i8* nonnull %96) #14
  br label %172

172:                                              ; preds = %73, %171
  %173 = load i8*, i8** %79, align 8
  %174 = icmp eq i8* %173, null
  br i1 %174, label %178, label %175

175:                                              ; preds = %172
  %176 = ptrtoint i8* %173 to i64
  %177 = bitcast i8** %80 to i64*
  store i64 %176, i64* %177, align 8
  call void @_ZdlPv(i8* nonnull %173) #13
  br label %178

178:                                              ; preds = %175, %172
  call void @llvm.lifetime.end.p0i8(i64 24, i8* nonnull %78) #14
  %179 = bitcast %"class.perfetto::protos::gen::QueryServiceStateResponse"* %1 to void (%"class.perfetto::protos::gen::QueryServiceStateResponse"*)***
  %180 = load void (%"class.perfetto::protos::gen::QueryServiceStateResponse"*)**, void (%"class.perfetto::protos::gen::QueryServiceStateResponse"*)*** %179, align 8
  %181 = getelementptr inbounds void (%"class.perfetto::protos::gen::QueryServiceStateResponse"*)*, void (%"class.perfetto::protos::gen::QueryServiceStateResponse"*)** %180, i64 1
  %182 = load void (%"class.perfetto::protos::gen::QueryServiceStateResponse"*)*, void (%"class.perfetto::protos::gen::QueryServiceStateResponse"*)** %181, align 8
  call void %182(%"class.perfetto::protos::gen::QueryServiceStateResponse"* nonnull %1) #14
  br label %183

183:                                              ; preds = %72, %178
  ret void
}

declare void @_ZN8perfetto6protos3gen19TracingServiceStateC1Ev(%"class.perfetto::protos::gen::TracingServiceState"*) unnamed_addr #2

; Function Attrs: nounwind
declare void @_ZN8perfetto6protos3gen19TracingServiceStateD1Ev(%"class.perfetto::protos::gen::TracingServiceState"*) unnamed_addr #3

; Function Attrs: nounwind ssp uwtable
define linkonce_odr hidden i8* @_ZNSt3__16vectorIhNS_9allocatorIhEEE6insertINS_11__wrap_iterIPhEEEENS_9enable_ifIXaasr27__is_cpp17_forward_iteratorIT_EE5valuesr16is_constructibleIhNS_15iterator_traitsIS9_E9referenceEEE5valueES7_E4typeENS5_IPKhEES9_S9_(%"class.std::__1::vector.430"*, i8*, i8*, i8*) local_unnamed_addr #0 comdat align 2 {
  %5 = ptrtoint i8* %1 to i64
  %6 = ptrtoint i8* %2 to i64
  %7 = getelementptr inbounds %"class.std::__1::vector.430", %"class.std::__1::vector.430"* %0, i64 0, i32 0, i32 0
  %8 = ptrtoint i8* %3 to i64
  %9 = sub i64 %8, %6
  %10 = icmp sgt i64 %9, 0
  br i1 %10, label %11, label %518

11:                                               ; preds = %4
  %12 = getelementptr inbounds %"class.std::__1::vector.430", %"class.std::__1::vector.430"* %0, i64 0, i32 0, i32 2, i32 0, i32 0
  %13 = bitcast i8** %12 to i64*
  %14 = load i64, i64* %13, align 8
  %15 = getelementptr inbounds %"class.std::__1::vector.430", %"class.std::__1::vector.430"* %0, i64 0, i32 0, i32 1
  %16 = load i8*, i8** %15, align 8
  %17 = ptrtoint i8* %16 to i64
  %18 = sub i64 %14, %17
  %19 = icmp sgt i64 %9, %18
  %20 = bitcast i8** %15 to i64*
  br i1 %19, label %268, label %21

21:                                               ; preds = %11
  %22 = sub i64 %17, %5
  %23 = icmp sgt i64 %9, %22
  br i1 %23, label %24, label %141

24:                                               ; preds = %21
  %25 = getelementptr inbounds i8, i8* %2, i64 %22
  %26 = icmp eq i8* %25, %3
  br i1 %26, label %136, label %27

27:                                               ; preds = %24
  %28 = sub i64 %5, %6
  %29 = sub i64 %28, %17
  %30 = getelementptr i8, i8* %3, i64 %29
  %31 = ptrtoint i8* %30 to i64
  %32 = icmp ult i8* %30, inttoptr (i64 32 to i8*)
  br i1 %32, label %123, label %33

33:                                               ; preds = %27
  %34 = sub i64 %5, %6
  %35 = sub i64 %34, %17
  %36 = getelementptr i8, i8* %3, i64 %35
  %37 = ptrtoint i8* %36 to i64
  %38 = getelementptr i8, i8* %16, i64 %37
  %39 = icmp ult i8* %16, %3
  %40 = icmp ult i8* %25, %38
  %41 = and i1 %39, %40
  br i1 %41, label %123, label %42

42:                                               ; preds = %33
  %43 = and i64 %31, -32
  %44 = getelementptr i8, i8* %16, i64 %43
  %45 = getelementptr i8, i8* %25, i64 %43
  %46 = add i64 %43, -32
  %47 = lshr exact i64 %46, 5
  %48 = add nuw nsw i64 %47, 1
  %49 = and i64 %48, 3
  %50 = icmp ult i64 %46, 96
  br i1 %50, label %102, label %51

51:                                               ; preds = %42
  %52 = sub nsw i64 %48, %49
  br label %53

53:                                               ; preds = %53, %51
  %54 = phi i64 [ 0, %51 ], [ %99, %53 ]
  %55 = phi i64 [ %52, %51 ], [ %100, %53 ]
  %56 = getelementptr i8, i8* %16, i64 %54
  %57 = getelementptr i8, i8* %25, i64 %54
  %58 = bitcast i8* %57 to <16 x i8>*
  %59 = load <16 x i8>, <16 x i8>* %58, align 1, !alias.scope !95
  %60 = getelementptr i8, i8* %57, i64 16
  %61 = bitcast i8* %60 to <16 x i8>*
  %62 = load <16 x i8>, <16 x i8>* %61, align 1, !alias.scope !95
  %63 = bitcast i8* %56 to <16 x i8>*
  store <16 x i8> %59, <16 x i8>* %63, align 1, !alias.scope !98, !noalias !95
  %64 = getelementptr i8, i8* %56, i64 16
  %65 = bitcast i8* %64 to <16 x i8>*
  store <16 x i8> %62, <16 x i8>* %65, align 1, !alias.scope !98, !noalias !95
  %66 = or i64 %54, 32
  %67 = getelementptr i8, i8* %16, i64 %66
  %68 = getelementptr i8, i8* %25, i64 %66
  %69 = bitcast i8* %68 to <16 x i8>*
  %70 = load <16 x i8>, <16 x i8>* %69, align 1, !alias.scope !95
  %71 = getelementptr i8, i8* %68, i64 16
  %72 = bitcast i8* %71 to <16 x i8>*
  %73 = load <16 x i8>, <16 x i8>* %72, align 1, !alias.scope !95
  %74 = bitcast i8* %67 to <16 x i8>*
  store <16 x i8> %70, <16 x i8>* %74, align 1, !alias.scope !98, !noalias !95
  %75 = getelementptr i8, i8* %67, i64 16
  %76 = bitcast i8* %75 to <16 x i8>*
  store <16 x i8> %73, <16 x i8>* %76, align 1, !alias.scope !98, !noalias !95
  %77 = or i64 %54, 64
  %78 = getelementptr i8, i8* %16, i64 %77
  %79 = getelementptr i8, i8* %25, i64 %77
  %80 = bitcast i8* %79 to <16 x i8>*
  %81 = load <16 x i8>, <16 x i8>* %80, align 1, !alias.scope !95
  %82 = getelementptr i8, i8* %79, i64 16
  %83 = bitcast i8* %82 to <16 x i8>*
  %84 = load <16 x i8>, <16 x i8>* %83, align 1, !alias.scope !95
  %85 = bitcast i8* %78 to <16 x i8>*
  store <16 x i8> %81, <16 x i8>* %85, align 1, !alias.scope !98, !noalias !95
  %86 = getelementptr i8, i8* %78, i64 16
  %87 = bitcast i8* %86 to <16 x i8>*
  store <16 x i8> %84, <16 x i8>* %87, align 1, !alias.scope !98, !noalias !95
  %88 = or i64 %54, 96
  %89 = getelementptr i8, i8* %16, i64 %88
  %90 = getelementptr i8, i8* %25, i64 %88
  %91 = bitcast i8* %90 to <16 x i8>*
  %92 = load <16 x i8>, <16 x i8>* %91, align 1, !alias.scope !95
  %93 = getelementptr i8, i8* %90, i64 16
  %94 = bitcast i8* %93 to <16 x i8>*
  %95 = load <16 x i8>, <16 x i8>* %94, align 1, !alias.scope !95
  %96 = bitcast i8* %89 to <16 x i8>*
  store <16 x i8> %92, <16 x i8>* %96, align 1, !alias.scope !98, !noalias !95
  %97 = getelementptr i8, i8* %89, i64 16
  %98 = bitcast i8* %97 to <16 x i8>*
  store <16 x i8> %95, <16 x i8>* %98, align 1, !alias.scope !98, !noalias !95
  %99 = add i64 %54, 128
  %100 = add i64 %55, -4
  %101 = icmp eq i64 %100, 0
  br i1 %101, label %102, label %53, !llvm.loop !100

102:                                              ; preds = %53, %42
  %103 = phi i64 [ 0, %42 ], [ %99, %53 ]
  %104 = icmp eq i64 %49, 0
  br i1 %104, label %121, label %105

105:                                              ; preds = %102, %105
  %106 = phi i64 [ %118, %105 ], [ %103, %102 ]
  %107 = phi i64 [ %119, %105 ], [ %49, %102 ]
  %108 = getelementptr i8, i8* %16, i64 %106
  %109 = getelementptr i8, i8* %25, i64 %106
  %110 = bitcast i8* %109 to <16 x i8>*
  %111 = load <16 x i8>, <16 x i8>* %110, align 1, !alias.scope !95
  %112 = getelementptr i8, i8* %109, i64 16
  %113 = bitcast i8* %112 to <16 x i8>*
  %114 = load <16 x i8>, <16 x i8>* %113, align 1, !alias.scope !95
  %115 = bitcast i8* %108 to <16 x i8>*
  store <16 x i8> %111, <16 x i8>* %115, align 1, !alias.scope !98, !noalias !95
  %116 = getelementptr i8, i8* %108, i64 16
  %117 = bitcast i8* %116 to <16 x i8>*
  store <16 x i8> %114, <16 x i8>* %117, align 1, !alias.scope !98, !noalias !95
  %118 = add i64 %106, 32
  %119 = add i64 %107, -1
  %120 = icmp eq i64 %119, 0
  br i1 %120, label %121, label %105, !llvm.loop !102

121:                                              ; preds = %105, %102
  %122 = icmp eq i64 %43, %31
  br i1 %122, label %133, label %123

123:                                              ; preds = %121, %33, %27
  %124 = phi i8* [ %16, %33 ], [ %16, %27 ], [ %44, %121 ]
  %125 = phi i8* [ %25, %33 ], [ %25, %27 ], [ %45, %121 ]
  br label %126

126:                                              ; preds = %123, %126
  %127 = phi i8* [ %131, %126 ], [ %124, %123 ]
  %128 = phi i8* [ %130, %126 ], [ %125, %123 ]
  %129 = load i8, i8* %128, align 1
  store i8 %129, i8* %127, align 1
  %130 = getelementptr inbounds i8, i8* %128, i64 1
  %131 = getelementptr inbounds i8, i8* %127, i64 1
  %132 = icmp eq i8* %130, %3
  br i1 %132, label %133, label %126, !llvm.loop !104

133:                                              ; preds = %126, %121
  %134 = phi i8* [ %44, %121 ], [ %131, %126 ]
  %135 = ptrtoint i8* %134 to i64
  br label %136

136:                                              ; preds = %133, %24
  %137 = phi i64 [ %17, %24 ], [ %135, %133 ]
  store i64 %137, i64* %20, align 8
  %138 = icmp sgt i64 %22, 0
  br i1 %138, label %139, label %518

139:                                              ; preds = %136
  %140 = inttoptr i64 %137 to i8*
  br label %141

141:                                              ; preds = %139, %21
  %142 = phi i64 [ %137, %139 ], [ %17, %21 ]
  %143 = phi i8* [ %140, %139 ], [ %16, %21 ]
  %144 = phi i8* [ %25, %139 ], [ %3, %21 ]
  %145 = getelementptr inbounds i8, i8* %1, i64 %9
  %146 = ptrtoint i8* %145 to i64
  %147 = sub i64 %142, %146
  %148 = getelementptr inbounds i8, i8* %1, i64 %147
  %149 = icmp ult i8* %148, %16
  br i1 %149, label %150, label %250

150:                                              ; preds = %141
  %151 = sub i64 %9, %142
  %152 = getelementptr i8, i8* %16, i64 %151
  %153 = ptrtoint i8* %152 to i64
  %154 = icmp ult i8* %152, inttoptr (i64 32 to i8*)
  br i1 %154, label %155, label %158

155:                                              ; preds = %245, %158, %150
  %156 = phi i8* [ %148, %158 ], [ %148, %150 ], [ %168, %245 ]
  %157 = phi i8* [ %143, %158 ], [ %143, %150 ], [ %169, %245 ]
  br label %256

158:                                              ; preds = %150
  %159 = sub i64 %9, %142
  %160 = getelementptr i8, i8* %16, i64 %159
  %161 = ptrtoint i8* %160 to i64
  %162 = getelementptr i8, i8* %143, i64 %161
  %163 = icmp ult i8* %143, %16
  %164 = icmp ult i8* %148, %162
  %165 = and i1 %163, %164
  br i1 %165, label %155, label %166

166:                                              ; preds = %158
  %167 = and i64 %153, -32
  %168 = getelementptr i8, i8* %148, i64 %167
  %169 = getelementptr i8, i8* %143, i64 %167
  %170 = add i64 %167, -32
  %171 = lshr exact i64 %170, 5
  %172 = add nuw nsw i64 %171, 1
  %173 = and i64 %172, 3
  %174 = icmp ult i64 %170, 96
  br i1 %174, label %226, label %175

175:                                              ; preds = %166
  %176 = sub nsw i64 %172, %173
  br label %177

177:                                              ; preds = %177, %175
  %178 = phi i64 [ 0, %175 ], [ %223, %177 ]
  %179 = phi i64 [ %176, %175 ], [ %224, %177 ]
  %180 = getelementptr i8, i8* %148, i64 %178
  %181 = getelementptr i8, i8* %143, i64 %178
  %182 = bitcast i8* %180 to <16 x i8>*
  %183 = load <16 x i8>, <16 x i8>* %182, align 1, !alias.scope !105
  %184 = getelementptr i8, i8* %180, i64 16
  %185 = bitcast i8* %184 to <16 x i8>*
  %186 = load <16 x i8>, <16 x i8>* %185, align 1, !alias.scope !105
  %187 = bitcast i8* %181 to <16 x i8>*
  store <16 x i8> %183, <16 x i8>* %187, align 1, !alias.scope !108, !noalias !105
  %188 = getelementptr i8, i8* %181, i64 16
  %189 = bitcast i8* %188 to <16 x i8>*
  store <16 x i8> %186, <16 x i8>* %189, align 1, !alias.scope !108, !noalias !105
  %190 = or i64 %178, 32
  %191 = getelementptr i8, i8* %148, i64 %190
  %192 = getelementptr i8, i8* %143, i64 %190
  %193 = bitcast i8* %191 to <16 x i8>*
  %194 = load <16 x i8>, <16 x i8>* %193, align 1, !alias.scope !105
  %195 = getelementptr i8, i8* %191, i64 16
  %196 = bitcast i8* %195 to <16 x i8>*
  %197 = load <16 x i8>, <16 x i8>* %196, align 1, !alias.scope !105
  %198 = bitcast i8* %192 to <16 x i8>*
  store <16 x i8> %194, <16 x i8>* %198, align 1, !alias.scope !108, !noalias !105
  %199 = getelementptr i8, i8* %192, i64 16
  %200 = bitcast i8* %199 to <16 x i8>*
  store <16 x i8> %197, <16 x i8>* %200, align 1, !alias.scope !108, !noalias !105
  %201 = or i64 %178, 64
  %202 = getelementptr i8, i8* %148, i64 %201
  %203 = getelementptr i8, i8* %143, i64 %201
  %204 = bitcast i8* %202 to <16 x i8>*
  %205 = load <16 x i8>, <16 x i8>* %204, align 1, !alias.scope !105
  %206 = getelementptr i8, i8* %202, i64 16
  %207 = bitcast i8* %206 to <16 x i8>*
  %208 = load <16 x i8>, <16 x i8>* %207, align 1, !alias.scope !105
  %209 = bitcast i8* %203 to <16 x i8>*
  store <16 x i8> %205, <16 x i8>* %209, align 1, !alias.scope !108, !noalias !105
  %210 = getelementptr i8, i8* %203, i64 16
  %211 = bitcast i8* %210 to <16 x i8>*
  store <16 x i8> %208, <16 x i8>* %211, align 1, !alias.scope !108, !noalias !105
  %212 = or i64 %178, 96
  %213 = getelementptr i8, i8* %148, i64 %212
  %214 = getelementptr i8, i8* %143, i64 %212
  %215 = bitcast i8* %213 to <16 x i8>*
  %216 = load <16 x i8>, <16 x i8>* %215, align 1, !alias.scope !105
  %217 = getelementptr i8, i8* %213, i64 16
  %218 = bitcast i8* %217 to <16 x i8>*
  %219 = load <16 x i8>, <16 x i8>* %218, align 1, !alias.scope !105
  %220 = bitcast i8* %214 to <16 x i8>*
  store <16 x i8> %216, <16 x i8>* %220, align 1, !alias.scope !108, !noalias !105
  %221 = getelementptr i8, i8* %214, i64 16
  %222 = bitcast i8* %221 to <16 x i8>*
  store <16 x i8> %219, <16 x i8>* %222, align 1, !alias.scope !108, !noalias !105
  %223 = add i64 %178, 128
  %224 = add i64 %179, -4
  %225 = icmp eq i64 %224, 0
  br i1 %225, label %226, label %177, !llvm.loop !110

226:                                              ; preds = %177, %166
  %227 = phi i64 [ 0, %166 ], [ %223, %177 ]
  %228 = icmp eq i64 %173, 0
  br i1 %228, label %245, label %229

229:                                              ; preds = %226, %229
  %230 = phi i64 [ %242, %229 ], [ %227, %226 ]
  %231 = phi i64 [ %243, %229 ], [ %173, %226 ]
  %232 = getelementptr i8, i8* %148, i64 %230
  %233 = getelementptr i8, i8* %143, i64 %230
  %234 = bitcast i8* %232 to <16 x i8>*
  %235 = load <16 x i8>, <16 x i8>* %234, align 1, !alias.scope !105
  %236 = getelementptr i8, i8* %232, i64 16
  %237 = bitcast i8* %236 to <16 x i8>*
  %238 = load <16 x i8>, <16 x i8>* %237, align 1, !alias.scope !105
  %239 = bitcast i8* %233 to <16 x i8>*
  store <16 x i8> %235, <16 x i8>* %239, align 1, !alias.scope !108, !noalias !105
  %240 = getelementptr i8, i8* %233, i64 16
  %241 = bitcast i8* %240 to <16 x i8>*
  store <16 x i8> %238, <16 x i8>* %241, align 1, !alias.scope !108, !noalias !105
  %242 = add i64 %230, 32
  %243 = add i64 %231, -1
  %244 = icmp eq i64 %243, 0
  br i1 %244, label %245, label %229, !llvm.loop !111

245:                                              ; preds = %229, %226
  %246 = icmp eq i64 %167, %153
  br i1 %246, label %247, label %155

247:                                              ; preds = %256, %245
  %248 = phi i8* [ %169, %245 ], [ %261, %256 ]
  %249 = ptrtoint i8* %248 to i64
  br label %250

250:                                              ; preds = %247, %141
  %251 = phi i64 [ %249, %247 ], [ %142, %141 ]
  store i64 %251, i64* %20, align 8
  %252 = icmp eq i64 %147, 0
  br i1 %252, label %263, label %253

253:                                              ; preds = %250
  %254 = sub i64 0, %147
  %255 = getelementptr inbounds i8, i8* %143, i64 %254
  tail call void @llvm.memmove.p0i8.p0i8.i64(i8* align 1 %255, i8* align 1 %1, i64 %147, i1 false) #14
  br label %263

256:                                              ; preds = %155, %256
  %257 = phi i8* [ %260, %256 ], [ %156, %155 ]
  %258 = phi i8* [ %261, %256 ], [ %157, %155 ]
  %259 = load i8, i8* %257, align 1
  store i8 %259, i8* %258, align 1
  %260 = getelementptr inbounds i8, i8* %257, i64 1
  %261 = getelementptr inbounds i8, i8* %258, i64 1
  %262 = icmp eq i8* %260, %16
  br i1 %262, label %247, label %256, !llvm.loop !112

263:                                              ; preds = %250, %253
  %264 = ptrtoint i8* %144 to i64
  %265 = sub i64 %264, %6
  %266 = icmp eq i64 %265, 0
  br i1 %266, label %518, label %267

267:                                              ; preds = %263
  tail call void @llvm.memmove.p0i8.p0i8.i64(i8* align 1 %1, i8* align 1 %2, i64 %265, i1 false) #14
  br label %518

268:                                              ; preds = %11
  %269 = bitcast %"class.std::__1::vector.430"* %0 to i64*
  %270 = load i64, i64* %269, align 8
  %271 = sub i64 %17, %270
  %272 = add i64 %271, %9
  %273 = icmp slt i64 %272, 0
  br i1 %273, label %274, label %276

274:                                              ; preds = %268
  %275 = bitcast %"class.std::__1::vector.430"* %0 to %"class.std::__1::__vector_base_common"*
  tail call void @_ZNKSt3__120__vector_base_commonILb1EE20__throw_length_errorEv(%"class.std::__1::__vector_base_common"* %275) #16
  unreachable

276:                                              ; preds = %268
  %277 = sub i64 %14, %270
  %278 = icmp ult i64 %277, 4611686018427387903
  br i1 %278, label %281, label %279

279:                                              ; preds = %276
  %280 = sub i64 %5, %270
  br label %287

281:                                              ; preds = %276
  %282 = shl i64 %277, 1
  %283 = icmp ult i64 %282, %272
  %284 = select i1 %283, i64 %272, i64 %282
  %285 = sub i64 %5, %270
  %286 = icmp eq i64 %284, 0
  br i1 %286, label %291, label %287

287:                                              ; preds = %279, %281
  %288 = phi i64 [ %280, %279 ], [ %285, %281 ]
  %289 = phi i64 [ 9223372036854775807, %279 ], [ %284, %281 ]
  %290 = tail call i8* @_Znwm(i64 %289) #13
  br label %291

291:                                              ; preds = %281, %287
  %292 = phi i64 [ %288, %287 ], [ %285, %281 ]
  %293 = phi i64 [ %289, %287 ], [ 0, %281 ]
  %294 = phi i8* [ %290, %287 ], [ null, %281 ]
  %295 = getelementptr inbounds i8, i8* %294, i64 %292
  %296 = getelementptr inbounds i8, i8* %294, i64 %293
  %297 = getelementptr inbounds i8, i8* %295, i64 %9
  %298 = icmp ult i64 %9, 32
  br i1 %298, label %384, label %299

299:                                              ; preds = %291
  %300 = icmp ult i8* %295, %3
  %301 = icmp ugt i8* %297, %2
  %302 = and i1 %300, %301
  br i1 %302, label %384, label %303

303:                                              ; preds = %299
  %304 = and i64 %9, -32
  %305 = getelementptr i8, i8* %295, i64 %304
  %306 = getelementptr i8, i8* %2, i64 %304
  %307 = add i64 %304, -32
  %308 = lshr exact i64 %307, 5
  %309 = add nuw nsw i64 %308, 1
  %310 = and i64 %309, 3
  %311 = icmp ult i64 %307, 96
  br i1 %311, label %363, label %312

312:                                              ; preds = %303
  %313 = sub nsw i64 %309, %310
  br label %314

314:                                              ; preds = %314, %312
  %315 = phi i64 [ 0, %312 ], [ %360, %314 ]
  %316 = phi i64 [ %313, %312 ], [ %361, %314 ]
  %317 = getelementptr i8, i8* %295, i64 %315
  %318 = getelementptr i8, i8* %2, i64 %315
  %319 = bitcast i8* %318 to <16 x i8>*
  %320 = load <16 x i8>, <16 x i8>* %319, align 1, !alias.scope !113
  %321 = getelementptr i8, i8* %318, i64 16
  %322 = bitcast i8* %321 to <16 x i8>*
  %323 = load <16 x i8>, <16 x i8>* %322, align 1, !alias.scope !113
  %324 = bitcast i8* %317 to <16 x i8>*
  store <16 x i8> %320, <16 x i8>* %324, align 1, !alias.scope !116, !noalias !113
  %325 = getelementptr i8, i8* %317, i64 16
  %326 = bitcast i8* %325 to <16 x i8>*
  store <16 x i8> %323, <16 x i8>* %326, align 1, !alias.scope !116, !noalias !113
  %327 = or i64 %315, 32
  %328 = getelementptr i8, i8* %295, i64 %327
  %329 = getelementptr i8, i8* %2, i64 %327
  %330 = bitcast i8* %329 to <16 x i8>*
  %331 = load <16 x i8>, <16 x i8>* %330, align 1, !alias.scope !113
  %332 = getelementptr i8, i8* %329, i64 16
  %333 = bitcast i8* %332 to <16 x i8>*
  %334 = load <16 x i8>, <16 x i8>* %333, align 1, !alias.scope !113
  %335 = bitcast i8* %328 to <16 x i8>*
  store <16 x i8> %331, <16 x i8>* %335, align 1, !alias.scope !116, !noalias !113
  %336 = getelementptr i8, i8* %328, i64 16
  %337 = bitcast i8* %336 to <16 x i8>*
  store <16 x i8> %334, <16 x i8>* %337, align 1, !alias.scope !116, !noalias !113
  %338 = or i64 %315, 64
  %339 = getelementptr i8, i8* %295, i64 %338
  %340 = getelementptr i8, i8* %2, i64 %338
  %341 = bitcast i8* %340 to <16 x i8>*
  %342 = load <16 x i8>, <16 x i8>* %341, align 1, !alias.scope !113
  %343 = getelementptr i8, i8* %340, i64 16
  %344 = bitcast i8* %343 to <16 x i8>*
  %345 = load <16 x i8>, <16 x i8>* %344, align 1, !alias.scope !113
  %346 = bitcast i8* %339 to <16 x i8>*
  store <16 x i8> %342, <16 x i8>* %346, align 1, !alias.scope !116, !noalias !113
  %347 = getelementptr i8, i8* %339, i64 16
  %348 = bitcast i8* %347 to <16 x i8>*
  store <16 x i8> %345, <16 x i8>* %348, align 1, !alias.scope !116, !noalias !113
  %349 = or i64 %315, 96
  %350 = getelementptr i8, i8* %295, i64 %349
  %351 = getelementptr i8, i8* %2, i64 %349
  %352 = bitcast i8* %351 to <16 x i8>*
  %353 = load <16 x i8>, <16 x i8>* %352, align 1, !alias.scope !113
  %354 = getelementptr i8, i8* %351, i64 16
  %355 = bitcast i8* %354 to <16 x i8>*
  %356 = load <16 x i8>, <16 x i8>* %355, align 1, !alias.scope !113
  %357 = bitcast i8* %350 to <16 x i8>*
  store <16 x i8> %353, <16 x i8>* %357, align 1, !alias.scope !116, !noalias !113
  %358 = getelementptr i8, i8* %350, i64 16
  %359 = bitcast i8* %358 to <16 x i8>*
  store <16 x i8> %356, <16 x i8>* %359, align 1, !alias.scope !116, !noalias !113
  %360 = add i64 %315, 128
  %361 = add i64 %316, -4
  %362 = icmp eq i64 %361, 0
  br i1 %362, label %363, label %314, !llvm.loop !118

363:                                              ; preds = %314, %303
  %364 = phi i64 [ 0, %303 ], [ %360, %314 ]
  %365 = icmp eq i64 %310, 0
  br i1 %365, label %382, label %366

366:                                              ; preds = %363, %366
  %367 = phi i64 [ %379, %366 ], [ %364, %363 ]
  %368 = phi i64 [ %380, %366 ], [ %310, %363 ]
  %369 = getelementptr i8, i8* %295, i64 %367
  %370 = getelementptr i8, i8* %2, i64 %367
  %371 = bitcast i8* %370 to <16 x i8>*
  %372 = load <16 x i8>, <16 x i8>* %371, align 1, !alias.scope !113
  %373 = getelementptr i8, i8* %370, i64 16
  %374 = bitcast i8* %373 to <16 x i8>*
  %375 = load <16 x i8>, <16 x i8>* %374, align 1, !alias.scope !113
  %376 = bitcast i8* %369 to <16 x i8>*
  store <16 x i8> %372, <16 x i8>* %376, align 1, !alias.scope !116, !noalias !113
  %377 = getelementptr i8, i8* %369, i64 16
  %378 = bitcast i8* %377 to <16 x i8>*
  store <16 x i8> %375, <16 x i8>* %378, align 1, !alias.scope !116, !noalias !113
  %379 = add i64 %367, 32
  %380 = add i64 %368, -1
  %381 = icmp eq i64 %380, 0
  br i1 %381, label %382, label %366, !llvm.loop !119

382:                                              ; preds = %366, %363
  %383 = icmp eq i64 %9, %304
  br i1 %383, label %394, label %384

384:                                              ; preds = %382, %299, %291
  %385 = phi i8* [ %295, %299 ], [ %295, %291 ], [ %305, %382 ]
  %386 = phi i8* [ %2, %299 ], [ %2, %291 ], [ %306, %382 ]
  br label %387

387:                                              ; preds = %384, %387
  %388 = phi i8* [ %391, %387 ], [ %385, %384 ]
  %389 = phi i8* [ %392, %387 ], [ %386, %384 ]
  %390 = load i8, i8* %389, align 1
  store i8 %390, i8* %388, align 1
  %391 = getelementptr inbounds i8, i8* %388, i64 1
  %392 = getelementptr inbounds i8, i8* %389, i64 1
  %393 = icmp eq i8* %297, %391
  br i1 %393, label %394, label %387, !llvm.loop !120

394:                                              ; preds = %387, %382
  %395 = ptrtoint i8* %296 to i64
  %396 = load i8*, i8** %7, align 8
  %397 = ptrtoint i8* %396 to i64
  %398 = sub i64 %5, %397
  %399 = sub i64 0, %398
  %400 = getelementptr inbounds i8, i8* %295, i64 %399
  %401 = ptrtoint i8* %400 to i64
  %402 = icmp sgt i64 %398, 0
  br i1 %402, label %403, label %404

403:                                              ; preds = %394
  tail call void @llvm.memcpy.p0i8.p0i8.i64(i8* align 1 %400, i8* align 1 %396, i64 %398, i1 false) #14
  br label %404

404:                                              ; preds = %403, %394
  %405 = load i8*, i8** %15, align 8
  %406 = icmp eq i8* %405, %1
  br i1 %406, label %512, label %407

407:                                              ; preds = %404
  %408 = ptrtoint i8* %405 to i64
  %409 = sub i64 %408, %5
  %410 = icmp ult i64 %409, 32
  br i1 %410, label %502, label %411

411:                                              ; preds = %407
  %412 = add i64 %292, %8
  %413 = sub i64 %412, %5
  %414 = sub i64 %413, %6
  %415 = getelementptr i8, i8* %405, i64 %414
  %416 = ptrtoint i8* %415 to i64
  %417 = getelementptr i8, i8* %294, i64 %416
  %418 = icmp ult i8* %297, %405
  %419 = icmp ugt i8* %417, %1
  %420 = and i1 %418, %419
  br i1 %420, label %502, label %421

421:                                              ; preds = %411
  %422 = and i64 %409, -32
  %423 = getelementptr i8, i8* %297, i64 %422
  %424 = getelementptr i8, i8* %1, i64 %422
  %425 = add i64 %422, -32
  %426 = lshr exact i64 %425, 5
  %427 = add nuw nsw i64 %426, 1
  %428 = and i64 %427, 3
  %429 = icmp ult i64 %425, 96
  br i1 %429, label %481, label %430

430:                                              ; preds = %421
  %431 = sub nsw i64 %427, %428
  br label %432

432:                                              ; preds = %432, %430
  %433 = phi i64 [ 0, %430 ], [ %478, %432 ]
  %434 = phi i64 [ %431, %430 ], [ %479, %432 ]
  %435 = getelementptr i8, i8* %297, i64 %433
  %436 = getelementptr i8, i8* %1, i64 %433
  %437 = bitcast i8* %436 to <16 x i8>*
  %438 = load <16 x i8>, <16 x i8>* %437, align 1, !alias.scope !121
  %439 = getelementptr i8, i8* %436, i64 16
  %440 = bitcast i8* %439 to <16 x i8>*
  %441 = load <16 x i8>, <16 x i8>* %440, align 1, !alias.scope !121
  %442 = bitcast i8* %435 to <16 x i8>*
  store <16 x i8> %438, <16 x i8>* %442, align 1, !alias.scope !124, !noalias !121
  %443 = getelementptr i8, i8* %435, i64 16
  %444 = bitcast i8* %443 to <16 x i8>*
  store <16 x i8> %441, <16 x i8>* %444, align 1, !alias.scope !124, !noalias !121
  %445 = or i64 %433, 32
  %446 = getelementptr i8, i8* %297, i64 %445
  %447 = getelementptr i8, i8* %1, i64 %445
  %448 = bitcast i8* %447 to <16 x i8>*
  %449 = load <16 x i8>, <16 x i8>* %448, align 1, !alias.scope !121
  %450 = getelementptr i8, i8* %447, i64 16
  %451 = bitcast i8* %450 to <16 x i8>*
  %452 = load <16 x i8>, <16 x i8>* %451, align 1, !alias.scope !121
  %453 = bitcast i8* %446 to <16 x i8>*
  store <16 x i8> %449, <16 x i8>* %453, align 1, !alias.scope !124, !noalias !121
  %454 = getelementptr i8, i8* %446, i64 16
  %455 = bitcast i8* %454 to <16 x i8>*
  store <16 x i8> %452, <16 x i8>* %455, align 1, !alias.scope !124, !noalias !121
  %456 = or i64 %433, 64
  %457 = getelementptr i8, i8* %297, i64 %456
  %458 = getelementptr i8, i8* %1, i64 %456
  %459 = bitcast i8* %458 to <16 x i8>*
  %460 = load <16 x i8>, <16 x i8>* %459, align 1, !alias.scope !121
  %461 = getelementptr i8, i8* %458, i64 16
  %462 = bitcast i8* %461 to <16 x i8>*
  %463 = load <16 x i8>, <16 x i8>* %462, align 1, !alias.scope !121
  %464 = bitcast i8* %457 to <16 x i8>*
  store <16 x i8> %460, <16 x i8>* %464, align 1, !alias.scope !124, !noalias !121
  %465 = getelementptr i8, i8* %457, i64 16
  %466 = bitcast i8* %465 to <16 x i8>*
  store <16 x i8> %463, <16 x i8>* %466, align 1, !alias.scope !124, !noalias !121
  %467 = or i64 %433, 96
  %468 = getelementptr i8, i8* %297, i64 %467
  %469 = getelementptr i8, i8* %1, i64 %467
  %470 = bitcast i8* %469 to <16 x i8>*
  %471 = load <16 x i8>, <16 x i8>* %470, align 1, !alias.scope !121
  %472 = getelementptr i8, i8* %469, i64 16
  %473 = bitcast i8* %472 to <16 x i8>*
  %474 = load <16 x i8>, <16 x i8>* %473, align 1, !alias.scope !121
  %475 = bitcast i8* %468 to <16 x i8>*
  store <16 x i8> %471, <16 x i8>* %475, align 1, !alias.scope !124, !noalias !121
  %476 = getelementptr i8, i8* %468, i64 16
  %477 = bitcast i8* %476 to <16 x i8>*
  store <16 x i8> %474, <16 x i8>* %477, align 1, !alias.scope !124, !noalias !121
  %478 = add i64 %433, 128
  %479 = add i64 %434, -4
  %480 = icmp eq i64 %479, 0
  br i1 %480, label %481, label %432, !llvm.loop !126

481:                                              ; preds = %432, %421
  %482 = phi i64 [ 0, %421 ], [ %478, %432 ]
  %483 = icmp eq i64 %428, 0
  br i1 %483, label %500, label %484

484:                                              ; preds = %481, %484
  %485 = phi i64 [ %497, %484 ], [ %482, %481 ]
  %486 = phi i64 [ %498, %484 ], [ %428, %481 ]
  %487 = getelementptr i8, i8* %297, i64 %485
  %488 = getelementptr i8, i8* %1, i64 %485
  %489 = bitcast i8* %488 to <16 x i8>*
  %490 = load <16 x i8>, <16 x i8>* %489, align 1, !alias.scope !121
  %491 = getelementptr i8, i8* %488, i64 16
  %492 = bitcast i8* %491 to <16 x i8>*
  %493 = load <16 x i8>, <16 x i8>* %492, align 1, !alias.scope !121
  %494 = bitcast i8* %487 to <16 x i8>*
  store <16 x i8> %490, <16 x i8>* %494, align 1, !alias.scope !124, !noalias !121
  %495 = getelementptr i8, i8* %487, i64 16
  %496 = bitcast i8* %495 to <16 x i8>*
  store <16 x i8> %493, <16 x i8>* %496, align 1, !alias.scope !124, !noalias !121
  %497 = add i64 %485, 32
  %498 = add i64 %486, -1
  %499 = icmp eq i64 %498, 0
  br i1 %499, label %500, label %484, !llvm.loop !127

500:                                              ; preds = %484, %481
  %501 = icmp eq i64 %409, %422
  br i1 %501, label %512, label %502

502:                                              ; preds = %500, %411, %407
  %503 = phi i8* [ %297, %411 ], [ %297, %407 ], [ %423, %500 ]
  %504 = phi i8* [ %1, %411 ], [ %1, %407 ], [ %424, %500 ]
  br label %505

505:                                              ; preds = %502, %505
  %506 = phi i8* [ %510, %505 ], [ %503, %502 ]
  %507 = phi i8* [ %509, %505 ], [ %504, %502 ]
  %508 = load i8, i8* %507, align 1
  store i8 %508, i8* %506, align 1
  %509 = getelementptr inbounds i8, i8* %507, i64 1
  %510 = getelementptr inbounds i8, i8* %506, i64 1
  %511 = icmp eq i8* %509, %405
  br i1 %511, label %512, label %505, !llvm.loop !128

512:                                              ; preds = %505, %500, %404
  %513 = phi i8* [ %297, %404 ], [ %423, %500 ], [ %510, %505 ]
  %514 = ptrtoint i8* %513 to i64
  %515 = load i8*, i8** %7, align 8
  store i64 %401, i64* %269, align 8
  store i64 %514, i64* %20, align 8
  store i64 %395, i64* %13, align 8
  %516 = icmp eq i8* %515, null
  br i1 %516, label %518, label %517

517:                                              ; preds = %512
  tail call void @_ZdlPv(i8* nonnull %515) #13
  br label %518

518:                                              ; preds = %517, %512, %136, %263, %267, %4
  %519 = phi i8* [ %1, %4 ], [ %1, %267 ], [ %1, %263 ], [ %1, %136 ], [ %295, %512 ], [ %295, %517 ]
  ret i8* %519
}

declare zeroext i1 @_ZN8perfetto6protos3gen19TracingServiceState14ParseFromArrayEPKvm(%"class.perfetto::protos::gen::TracingServiceState"*, i8*, i64) unnamed_addr #2

declare void @_ZN8perfetto4base10LogMessageENS0_6LogLevEPKciS3_z(i32, i8*, i32, i8*, ...) local_unnamed_addr #2

; Function Attrs: nounwind ssp uwtable
define linkonce_odr hidden i8* @_ZN8perfetto4base8BasenameEPKc(i8*) local_unnamed_addr #0 comdat {
  br label %2

2:                                                ; preds = %2, %1
  %3 = phi i8* [ %0, %1 ], [ %6, %2 ]
  %4 = load i8, i8* %3, align 1
  %5 = icmp eq i8 %4, 0
  %6 = getelementptr inbounds i8, i8* %3, i64 1
  br i1 %5, label %7, label %2

7:                                                ; preds = %2, %7
  %8 = phi i8* [ %11, %7 ], [ %0, %2 ]
  %9 = load i8, i8* %8, align 1
  %10 = icmp eq i8 %9, 0
  %11 = getelementptr inbounds i8, i8* %8, i64 1
  br i1 %10, label %12, label %7

12:                                               ; preds = %7, %15
  %13 = phi i8* [ %16, %15 ], [ %3, %7 ]
  %14 = icmp ugt i8* %13, %0
  br i1 %14, label %15, label %21

15:                                               ; preds = %12
  %16 = getelementptr inbounds i8, i8* %13, i64 -1
  %17 = load i8, i8* %16, align 1
  %18 = icmp eq i8 %17, 47
  %19 = icmp ult i8* %16, %8
  %20 = and i1 %19, %18
  br i1 %20, label %21, label %12

21:                                               ; preds = %12, %15
  ret i8* %13
}

; Function Attrs: nounwind ssp uwtable
define hidden void @_ZN8perfetto21ConsumerIPCClientImpl17QueryCapabilitiesENSt3__18functionIFvRKNS_6protos3gen26TracingServiceCapabilitiesEEEE(%"class.perfetto::ConsumerIPCClientImpl"*, %"class.std::__1::function.460"* nocapture readonly) unnamed_addr #0 align 2 {
  %3 = alloca %"class.std::__1::function", align 8
  %4 = alloca %"class.std::__1::function.467", align 8
  %5 = alloca %"class.perfetto::protos::gen::QueryCapabilitiesRequest", align 8
  %6 = alloca %"class.perfetto::ipc::Deferred.466", align 8
  %7 = alloca %"class.std::__1::function.467", align 8
  %8 = alloca %"class.perfetto::ipc::Deferred.466", align 8
  %9 = getelementptr inbounds %"class.perfetto::ConsumerIPCClientImpl", %"class.perfetto::ConsumerIPCClientImpl"* %0, i64 0, i32 5
  %10 = load i8, i8* %9, align 8, !range !3
  %11 = icmp eq i8 %10, 0
  br i1 %11, label %82, label %12

12:                                               ; preds = %2
  %13 = bitcast %"class.perfetto::protos::gen::QueryCapabilitiesRequest"* %5 to i8*
  call void @llvm.lifetime.start.p0i8(i64 40, i8* nonnull %13) #14
  %14 = bitcast %"class.perfetto::protos::gen::QueryCapabilitiesRequest"* %5 to i8*
  call void @llvm.memset.p0i8.i64(i8* nonnull align 8 %14, i8 -86, i64 40, i1 false)
  call void @_ZN8perfetto6protos3gen24QueryCapabilitiesRequestC1Ev(%"class.perfetto::protos::gen::QueryCapabilitiesRequest"* nonnull %5) #14
  %15 = bitcast %"class.perfetto::ipc::Deferred.466"* %6 to i8*
  call void @llvm.lifetime.start.p0i8(i64 32, i8* nonnull %15) #14
  %16 = bitcast %"class.std::__1::function"* %3 to i8*
  %17 = bitcast %"class.perfetto::ipc::Deferred.466"* %6 to i8*
  call void @llvm.memset.p0i8.i64(i8* nonnull align 8 %17, i8 -86, i64 32, i1 false)
  call void @llvm.lifetime.start.p0i8(i64 32, i8* nonnull %16)
  %18 = bitcast %"class.std::__1::function.467"* %4 to i8*
  call void @llvm.lifetime.start.p0i8(i64 32, i8* nonnull %18)
  %19 = getelementptr inbounds %"class.perfetto::ipc::Deferred.466", %"class.perfetto::ipc::Deferred.466"* %6, i64 0, i32 0
  %20 = getelementptr inbounds %"class.std::__1::function", %"class.std::__1::function"* %3, i64 0, i32 0, i32 1, i32 0
  store void (%"union.std::__1::__function::__policy_storage"*, %"class.perfetto::ipc::AsyncResult"*)* @_ZNSt3__110__function16__policy_invokerIFvN8perfetto3ipc11AsyncResultIN9protozero13CppMessageObjEEEEE12__call_emptyEPKNS0_16__policy_storageEOS7_, void (%"union.std::__1::__function::__policy_storage"*, %"class.perfetto::ipc::AsyncResult"*)** %20, align 8
  %21 = getelementptr inbounds %"class.std::__1::function", %"class.std::__1::function"* %3, i64 0, i32 0, i32 2
  store %"struct.std::__1::__function::__policy"* @_ZZNSt3__110__function8__policy14__create_emptyEvE9__policy_, %"struct.std::__1::__function::__policy"** %21, align 8
  call void @_ZN8perfetto3ipc12DeferredBaseC2ENSt3__18functionIFvNS0_11AsyncResultIN9protozero13CppMessageObjEEEEEE(%"class.perfetto::ipc::DeferredBase"* nonnull %19, %"class.std::__1::function"* nonnull %3) #14
  %22 = load %"struct.std::__1::__function::__policy"*, %"struct.std::__1::__function::__policy"** %21, align 8
  %23 = getelementptr inbounds %"struct.std::__1::__function::__policy", %"struct.std::__1::__function::__policy"* %22, i64 0, i32 1
  %24 = load void (i8*)*, void (i8*)** %23, align 8
  %25 = icmp eq void (i8*)* %24, null
  br i1 %25, label %29, label %26

26:                                               ; preds = %12
  %27 = getelementptr inbounds %"class.std::__1::function", %"class.std::__1::function"* %3, i64 0, i32 0, i32 0, i32 0
  %28 = load i8*, i8** %27, align 8
  call void %24(i8* %28) #14
  br label %29

29:                                               ; preds = %12, %26
  %30 = getelementptr inbounds %"class.std::__1::function.467", %"class.std::__1::function.467"* %4, i64 0, i32 0, i32 1
  %31 = bitcast %"struct.std::__1::__function::__policy_invoker.472"* %30 to i64*
  store i64 ptrtoint (void (%"union.std::__1::__function::__policy_storage"*, %"class.perfetto::ipc::AsyncResult.473"*)* @_ZNSt3__110__function16__policy_invokerIFvN8perfetto3ipc11AsyncResultINS2_6protos3gen25QueryCapabilitiesResponseEEEEE12__call_emptyEPKNS0_16__policy_storageEOS8_ to i64), i64* %31, align 8
  %32 = getelementptr inbounds %"class.std::__1::function.467", %"class.std::__1::function.467"* %4, i64 0, i32 0, i32 2
  store %"struct.std::__1::__function::__policy"* @_ZZNSt3__110__function8__policy14__create_emptyEvE9__policy_, %"struct.std::__1::__function::__policy"** %32, align 8
  call void @_ZN8perfetto3ipc8DeferredINS_6protos3gen25QueryCapabilitiesResponseEE4BindENSt3__18functionIFvNS0_11AsyncResultIS4_EEEEE(%"class.perfetto::ipc::Deferred.466"* nonnull %6, %"class.std::__1::function.467"* nonnull %4) #14
  %33 = load %"struct.std::__1::__function::__policy"*, %"struct.std::__1::__function::__policy"** %32, align 8
  %34 = getelementptr inbounds %"struct.std::__1::__function::__policy", %"struct.std::__1::__function::__policy"* %33, i64 0, i32 1
  %35 = load void (i8*)*, void (i8*)** %34, align 8
  %36 = icmp eq void (i8*)* %35, null
  br i1 %36, label %40, label %37

37:                                               ; preds = %29
  %38 = getelementptr inbounds %"class.std::__1::function.467", %"class.std::__1::function.467"* %4, i64 0, i32 0, i32 0, i32 0
  %39 = load i8*, i8** %38, align 8
  call void %35(i8* %39) #14
  br label %40

40:                                               ; preds = %37, %29
  call void @llvm.lifetime.end.p0i8(i64 32, i8* nonnull %16)
  call void @llvm.lifetime.end.p0i8(i64 32, i8* nonnull %18)
  %41 = getelementptr inbounds %"class.std::__1::function.460", %"class.std::__1::function.460"* %1, i64 0, i32 0, i32 0, i32 0
  %42 = load i8*, i8** %41, align 8
  %43 = getelementptr inbounds %"class.std::__1::function.460", %"class.std::__1::function.460"* %1, i64 0, i32 0, i32 0, i32 1
  %44 = bitcast [8 x i8]* %43 to <2 x i64>*
  %45 = load <2 x i64>, <2 x i64>* %44, align 8
  %46 = getelementptr inbounds %"class.std::__1::function.460", %"class.std::__1::function.460"* %1, i64 0, i32 0, i32 2
  %47 = load %"struct.std::__1::__function::__policy"*, %"struct.std::__1::__function::__policy"** %46, align 8
  %48 = getelementptr inbounds %"struct.std::__1::__function::__policy", %"struct.std::__1::__function::__policy"* %47, i64 0, i32 0
  %49 = load i8* (i8*)*, i8* (i8*)** %48, align 8
  %50 = icmp eq i8* (i8*)* %49, null
  br i1 %50, label %53, label %51

51:                                               ; preds = %40
  %52 = call i8* %49(i8* %42) #14
  br label %53

53:                                               ; preds = %40, %51
  %54 = phi i8* [ %42, %40 ], [ %52, %51 ]
  %55 = getelementptr inbounds %"class.std::__1::function.467", %"class.std::__1::function.467"* %7, i64 0, i32 0, i32 1, i32 0
  %56 = getelementptr inbounds %"class.std::__1::function.467", %"class.std::__1::function.467"* %7, i64 0, i32 0, i32 2
  store void (%"union.std::__1::__function::__policy_storage"*, %"class.perfetto::ipc::AsyncResult.473"*)* @"_ZNSt3__110__function16__policy_invokerIFvN8perfetto3ipc11AsyncResultINS2_6protos3gen25QueryCapabilitiesResponseEEEEE11__call_implINS0_20__default_alloc_funcIZNS2_21ConsumerIPCClientImpl17QueryCapabilitiesENS_8functionIFvRKNS6_26TracingServiceCapabilitiesEEEEE4$_12S9_EEEEvPKNS0_16__policy_storageEOS8_", void (%"union.std::__1::__function::__policy_storage"*, %"class.perfetto::ipc::AsyncResult.473"*)** %55, align 8
  store %"struct.std::__1::__function::__policy"* @"_ZZNSt3__110__function8__policy15__choose_policyINS0_20__default_alloc_funcIZN8perfetto21ConsumerIPCClientImpl17QueryCapabilitiesENS_8functionIFvRKNS4_6protos3gen26TracingServiceCapabilitiesEEEEE4$_12FvNS4_3ipc11AsyncResultINS8_25QueryCapabilitiesResponseEEEEEEEEPKS1_NS_17integral_constantIbLb0EEEE9__policy_", %"struct.std::__1::__function::__policy"** %56, align 8
  %57 = call i8* @_Znwm(i64 32) #13, !noalias !129
  %58 = bitcast i8* %57 to i8**
  store i8* %54, i8** %58, align 8
  %59 = getelementptr inbounds i8, i8* %57, i64 8
  %60 = bitcast i8* %59 to <2 x i64>*
  store <2 x i64> %45, <2 x i64>* %60, align 8
  %61 = getelementptr inbounds i8, i8* %57, i64 24
  %62 = bitcast i8* %61 to %"struct.std::__1::__function::__policy"**
  store %"struct.std::__1::__function::__policy"* %47, %"struct.std::__1::__function::__policy"** %62, align 8
  %63 = getelementptr inbounds %"struct.std::__1::__function::__policy", %"struct.std::__1::__function::__policy"* %47, i64 0, i32 1
  %64 = load void (i8*)*, void (i8*)** %63, align 8
  %65 = icmp eq void (i8*)* %64, null
  %66 = select i1 %65, %"struct.std::__1::__function::__policy"* %47, %"struct.std::__1::__function::__policy"* @_ZZNSt3__110__function8__policy14__create_emptyEvE9__policy_
  %67 = getelementptr inbounds %"class.std::__1::function.467", %"class.std::__1::function.467"* %7, i64 0, i32 0, i32 0, i32 0
  store i8* %57, i8** %67, align 8
  call void @_ZN8perfetto3ipc8DeferredINS_6protos3gen25QueryCapabilitiesResponseEE4BindENSt3__18functionIFvNS0_11AsyncResultIS4_EEEEE(%"class.perfetto::ipc::Deferred.466"* nonnull %6, %"class.std::__1::function.467"* nonnull %7)
  %68 = load %"struct.std::__1::__function::__policy"*, %"struct.std::__1::__function::__policy"** %56, align 8
  %69 = getelementptr inbounds %"struct.std::__1::__function::__policy", %"struct.std::__1::__function::__policy"* %68, i64 0, i32 1
  %70 = load void (i8*)*, void (i8*)** %69, align 8
  %71 = icmp eq void (i8*)* %70, null
  br i1 %71, label %74, label %72

72:                                               ; preds = %53
  %73 = load i8*, i8** %67, align 8
  call void %70(i8* %73) #14
  br label %74

74:                                               ; preds = %53, %72
  %75 = getelementptr inbounds %"struct.std::__1::__function::__policy", %"struct.std::__1::__function::__policy"* %66, i64 0, i32 1
  %76 = load void (i8*)*, void (i8*)** %75, align 8
  %77 = icmp eq void (i8*)* %76, null
  br i1 %77, label %79, label %78

78:                                               ; preds = %74
  call void %76(i8* %54) #14
  br label %79

79:                                               ; preds = %74, %78
  %80 = getelementptr inbounds %"class.perfetto::ConsumerIPCClientImpl", %"class.perfetto::ConsumerIPCClientImpl"* %0, i64 0, i32 4
  %81 = getelementptr inbounds %"class.perfetto::ipc::Deferred.466", %"class.perfetto::ipc::Deferred.466"* %8, i64 0, i32 0
  call void @_ZN8perfetto3ipc12DeferredBaseC2EOS1_(%"class.perfetto::ipc::DeferredBase"* nonnull %81, %"class.perfetto::ipc::DeferredBase"* nonnull dereferenceable(32) %19) #14
  call void @_ZN8perfetto6protos3gen17ConsumerPortProxy17QueryCapabilitiesERKNS1_24QueryCapabilitiesRequestENS_3ipc8DeferredINS1_25QueryCapabilitiesResponseEEEi(%"class.perfetto::protos::gen::ConsumerPortProxy"* %80, %"class.perfetto::protos::gen::QueryCapabilitiesRequest"* nonnull dereferenceable(40) %5, %"class.perfetto::ipc::Deferred.466"* nonnull %8, i32 -1) #14
  call void @_ZN8perfetto3ipc12DeferredBaseD2Ev(%"class.perfetto::ipc::DeferredBase"* nonnull %81) #14
  call void @_ZN8perfetto3ipc12DeferredBaseD2Ev(%"class.perfetto::ipc::DeferredBase"* nonnull %19) #14
  call void @llvm.lifetime.end.p0i8(i64 32, i8* nonnull %15) #14
  call void @_ZN8perfetto6protos3gen24QueryCapabilitiesRequestD1Ev(%"class.perfetto::protos::gen::QueryCapabilitiesRequest"* nonnull %5) #14
  call void @llvm.lifetime.end.p0i8(i64 40, i8* nonnull %13) #14
  br label %82

82:                                               ; preds = %2, %79
  ret void
}

declare void @_ZN8perfetto6protos3gen24QueryCapabilitiesRequestC1Ev(%"class.perfetto::protos::gen::QueryCapabilitiesRequest"*) unnamed_addr #2

; Function Attrs: nounwind ssp uwtable
define linkonce_odr hidden void @_ZN8perfetto3ipc8DeferredINS_6protos3gen25QueryCapabilitiesResponseEE4BindENSt3__18functionIFvNS0_11AsyncResultIS4_EEEEE(%"class.perfetto::ipc::Deferred.466"*, %"class.std::__1::function.467"*) local_unnamed_addr #0 comdat align 2 {
  %3 = alloca %"class.std::__1::function", align 8
  %4 = getelementptr inbounds %"class.std::__1::function.467", %"class.std::__1::function.467"* %1, i64 0, i32 0, i32 2
  %5 = load %"struct.std::__1::__function::__policy"*, %"struct.std::__1::__function::__policy"** %4, align 8
  %6 = getelementptr inbounds %"struct.std::__1::__function::__policy", %"struct.std::__1::__function::__policy"* %5, i64 0, i32 2
  %7 = load i8, i8* %6, align 8, !range !3
  %8 = icmp eq i8 %7, 0
  br i1 %8, label %9, label %59

9:                                                ; preds = %2
  %10 = getelementptr inbounds %"class.std::__1::function.467", %"class.std::__1::function.467"* %1, i64 0, i32 0, i32 0, i32 0
  %11 = load i8*, i8** %10, align 8
  %12 = getelementptr inbounds %"class.std::__1::function.467", %"class.std::__1::function.467"* %1, i64 0, i32 0, i32 0, i32 1
  %13 = bitcast [8 x i8]* %12 to <2 x i64>*
  %14 = load <2 x i64>, <2 x i64>* %13, align 8
  %15 = getelementptr inbounds %"struct.std::__1::__function::__policy", %"struct.std::__1::__function::__policy"* %5, i64 0, i32 0
  %16 = load i8* (i8*)*, i8* (i8*)** %15, align 8
  %17 = icmp eq i8* (i8*)* %16, null
  br i1 %17, label %18, label %20

18:                                               ; preds = %9
  %19 = getelementptr inbounds %"class.perfetto::ipc::Deferred.466", %"class.perfetto::ipc::Deferred.466"* %0, i64 0, i32 0
  br label %27

20:                                               ; preds = %9
  %21 = tail call i8* %16(i8* %11) #14
  %22 = load i8* (i8*)*, i8* (i8*)** %15, align 8
  %23 = getelementptr inbounds %"class.perfetto::ipc::Deferred.466", %"class.perfetto::ipc::Deferred.466"* %0, i64 0, i32 0
  %24 = icmp eq i8* (i8*)* %22, null
  br i1 %24, label %27, label %25

25:                                               ; preds = %20
  %26 = tail call i8* %22(i8* %21) #14
  br label %27

27:                                               ; preds = %18, %20, %25
  %28 = phi %"class.perfetto::ipc::DeferredBase"* [ %23, %20 ], [ %23, %25 ], [ %19, %18 ]
  %29 = phi i8* [ %21, %20 ], [ %21, %25 ], [ %11, %18 ]
  %30 = phi i8* [ %21, %20 ], [ %26, %25 ], [ %11, %18 ]
  %31 = getelementptr inbounds %"class.std::__1::function", %"class.std::__1::function"* %3, i64 0, i32 0, i32 1, i32 0
  %32 = getelementptr inbounds %"class.std::__1::function", %"class.std::__1::function"* %3, i64 0, i32 0, i32 2
  store void (%"union.std::__1::__function::__policy_storage"*, %"class.perfetto::ipc::AsyncResult"*)* @_ZNSt3__110__function16__policy_invokerIFvN8perfetto3ipc11AsyncResultIN9protozero13CppMessageObjEEEEE11__call_implINS0_20__default_alloc_funcIZNS3_8DeferredINS2_6protos3gen25QueryCapabilitiesResponseEE4BindENS_8functionIFvNS4_ISF_EEEEEEUlS7_E_S8_EEEEvPKNS0_16__policy_storageEOS7_, void (%"union.std::__1::__function::__policy_storage"*, %"class.perfetto::ipc::AsyncResult"*)** %31, align 8
  store %"struct.std::__1::__function::__policy"* @_ZZNSt3__110__function8__policy15__choose_policyINS0_20__default_alloc_funcIZN8perfetto3ipc8DeferredINS4_6protos3gen25QueryCapabilitiesResponseEE4BindENS_8functionIFvNS5_11AsyncResultIS9_EEEEEEUlNSC_IN9protozero13CppMessageObjEEEE_FvSI_EEEEEPKS1_NS_17integral_constantIbLb0EEEE9__policy_, %"struct.std::__1::__function::__policy"** %32, align 8
  %33 = tail call i8* @_Znwm(i64 32) #13, !noalias !134
  %34 = bitcast i8* %33 to i8**
  store i8* %30, i8** %34, align 8
  %35 = getelementptr inbounds i8, i8* %33, i64 8
  %36 = bitcast i8* %35 to <2 x i64>*
  store <2 x i64> %14, <2 x i64>* %36, align 8
  %37 = getelementptr inbounds i8, i8* %33, i64 24
  %38 = bitcast i8* %37 to %"struct.std::__1::__function::__policy"**
  store %"struct.std::__1::__function::__policy"* %5, %"struct.std::__1::__function::__policy"** %38, align 8
  %39 = getelementptr inbounds %"struct.std::__1::__function::__policy", %"struct.std::__1::__function::__policy"* %5, i64 0, i32 1
  %40 = load void (i8*)*, void (i8*)** %39, align 8
  %41 = icmp eq void (i8*)* %40, null
  %42 = select i1 %41, %"struct.std::__1::__function::__policy"* %5, %"struct.std::__1::__function::__policy"* @_ZZNSt3__110__function8__policy14__create_emptyEvE9__policy_
  %43 = getelementptr inbounds %"class.std::__1::function", %"class.std::__1::function"* %3, i64 0, i32 0, i32 0, i32 0
  store i8* %33, i8** %43, align 8
  call void @_ZN8perfetto3ipc12DeferredBase4BindENSt3__18functionIFvNS0_11AsyncResultIN9protozero13CppMessageObjEEEEEE(%"class.perfetto::ipc::DeferredBase"* %28, %"class.std::__1::function"* nonnull %3) #14
  %44 = load %"struct.std::__1::__function::__policy"*, %"struct.std::__1::__function::__policy"** %32, align 8
  %45 = getelementptr inbounds %"struct.std::__1::__function::__policy", %"struct.std::__1::__function::__policy"* %44, i64 0, i32 1
  %46 = load void (i8*)*, void (i8*)** %45, align 8
  %47 = icmp eq void (i8*)* %46, null
  br i1 %47, label %50, label %48

48:                                               ; preds = %27
  %49 = load i8*, i8** %43, align 8
  call void %46(i8* %49) #14
  br label %50

50:                                               ; preds = %27, %48
  %51 = getelementptr inbounds %"struct.std::__1::__function::__policy", %"struct.std::__1::__function::__policy"* %42, i64 0, i32 1
  %52 = load void (i8*)*, void (i8*)** %51, align 8
  %53 = icmp eq void (i8*)* %52, null
  br i1 %53, label %55, label %54

54:                                               ; preds = %50
  call void %52(i8* %30) #14
  br label %55

55:                                               ; preds = %50, %54
  %56 = load void (i8*)*, void (i8*)** %39, align 8
  %57 = icmp eq void (i8*)* %56, null
  br i1 %57, label %59, label %58

58:                                               ; preds = %55
  call void %56(i8* %29) #14
  br label %59

59:                                               ; preds = %58, %55, %2
  ret void
}

declare void @_ZN8perfetto6protos3gen17ConsumerPortProxy17QueryCapabilitiesERKNS1_24QueryCapabilitiesRequestENS_3ipc8DeferredINS1_25QueryCapabilitiesResponseEEEi(%"class.perfetto::protos::gen::ConsumerPortProxy"*, %"class.perfetto::protos::gen::QueryCapabilitiesRequest"* dereferenceable(40), %"class.perfetto::ipc::Deferred.466"*, i32) local_unnamed_addr #2

; Function Attrs: nounwind
declare void @_ZN8perfetto6protos3gen24QueryCapabilitiesRequestD1Ev(%"class.perfetto::protos::gen::QueryCapabilitiesRequest"*) unnamed_addr #3

; Function Attrs: nounwind ssp uwtable
define hidden void @_ZN8perfetto21ConsumerIPCClientImpl21SaveTraceForBugreportENSt3__18functionIFvbRKNS1_12basic_stringIcNS1_11char_traitsIcEENS1_9allocatorIcEEEEEEE(%"class.perfetto::ConsumerIPCClientImpl"*, %"class.std::__1::function.488"* nocapture readonly) unnamed_addr #0 align 2 {
  %3 = alloca %"class.std::__1::function", align 8
  %4 = alloca %"class.std::__1::function.495", align 8
  %5 = alloca %"class.perfetto::protos::gen::SaveTraceForBugreportRequest", align 8
  %6 = alloca %"class.perfetto::ipc::Deferred.494", align 8
  %7 = alloca %"class.std::__1::function.495", align 8
  %8 = alloca %"class.perfetto::ipc::Deferred.494", align 8
  %9 = getelementptr inbounds %"class.perfetto::ConsumerIPCClientImpl", %"class.perfetto::ConsumerIPCClientImpl"* %0, i64 0, i32 5
  %10 = load i8, i8* %9, align 8, !range !3
  %11 = icmp eq i8 %10, 0
  br i1 %11, label %82, label %12

12:                                               ; preds = %2
  %13 = bitcast %"class.perfetto::protos::gen::SaveTraceForBugreportRequest"* %5 to i8*
  call void @llvm.lifetime.start.p0i8(i64 40, i8* nonnull %13) #14
  %14 = bitcast %"class.perfetto::protos::gen::SaveTraceForBugreportRequest"* %5 to i8*
  call void @llvm.memset.p0i8.i64(i8* nonnull align 8 %14, i8 -86, i64 40, i1 false)
  call void @_ZN8perfetto6protos3gen28SaveTraceForBugreportRequestC1Ev(%"class.perfetto::protos::gen::SaveTraceForBugreportRequest"* nonnull %5) #14
  %15 = bitcast %"class.perfetto::ipc::Deferred.494"* %6 to i8*
  call void @llvm.lifetime.start.p0i8(i64 32, i8* nonnull %15) #14
  %16 = bitcast %"class.std::__1::function"* %3 to i8*
  %17 = bitcast %"class.perfetto::ipc::Deferred.494"* %6 to i8*
  call void @llvm.memset.p0i8.i64(i8* nonnull align 8 %17, i8 -86, i64 32, i1 false)
  call void @llvm.lifetime.start.p0i8(i64 32, i8* nonnull %16)
  %18 = bitcast %"class.std::__1::function.495"* %4 to i8*
  call void @llvm.lifetime.start.p0i8(i64 32, i8* nonnull %18)
  %19 = getelementptr inbounds %"class.perfetto::ipc::Deferred.494", %"class.perfetto::ipc::Deferred.494"* %6, i64 0, i32 0
  %20 = getelementptr inbounds %"class.std::__1::function", %"class.std::__1::function"* %3, i64 0, i32 0, i32 1, i32 0
  store void (%"union.std::__1::__function::__policy_storage"*, %"class.perfetto::ipc::AsyncResult"*)* @_ZNSt3__110__function16__policy_invokerIFvN8perfetto3ipc11AsyncResultIN9protozero13CppMessageObjEEEEE12__call_emptyEPKNS0_16__policy_storageEOS7_, void (%"union.std::__1::__function::__policy_storage"*, %"class.perfetto::ipc::AsyncResult"*)** %20, align 8
  %21 = getelementptr inbounds %"class.std::__1::function", %"class.std::__1::function"* %3, i64 0, i32 0, i32 2
  store %"struct.std::__1::__function::__policy"* @_ZZNSt3__110__function8__policy14__create_emptyEvE9__policy_, %"struct.std::__1::__function::__policy"** %21, align 8
  call void @_ZN8perfetto3ipc12DeferredBaseC2ENSt3__18functionIFvNS0_11AsyncResultIN9protozero13CppMessageObjEEEEEE(%"class.perfetto::ipc::DeferredBase"* nonnull %19, %"class.std::__1::function"* nonnull %3) #14
  %22 = load %"struct.std::__1::__function::__policy"*, %"struct.std::__1::__function::__policy"** %21, align 8
  %23 = getelementptr inbounds %"struct.std::__1::__function::__policy", %"struct.std::__1::__function::__policy"* %22, i64 0, i32 1
  %24 = load void (i8*)*, void (i8*)** %23, align 8
  %25 = icmp eq void (i8*)* %24, null
  br i1 %25, label %29, label %26

26:                                               ; preds = %12
  %27 = getelementptr inbounds %"class.std::__1::function", %"class.std::__1::function"* %3, i64 0, i32 0, i32 0, i32 0
  %28 = load i8*, i8** %27, align 8
  call void %24(i8* %28) #14
  br label %29

29:                                               ; preds = %12, %26
  %30 = getelementptr inbounds %"class.std::__1::function.495", %"class.std::__1::function.495"* %4, i64 0, i32 0, i32 1
  %31 = bitcast %"struct.std::__1::__function::__policy_invoker.500"* %30 to i64*
  store i64 ptrtoint (void (%"union.std::__1::__function::__policy_storage"*, %"class.perfetto::ipc::AsyncResult.501"*)* @_ZNSt3__110__function16__policy_invokerIFvN8perfetto3ipc11AsyncResultINS2_6protos3gen29SaveTraceForBugreportResponseEEEEE12__call_emptyEPKNS0_16__policy_storageEOS8_ to i64), i64* %31, align 8
  %32 = getelementptr inbounds %"class.std::__1::function.495", %"class.std::__1::function.495"* %4, i64 0, i32 0, i32 2
  store %"struct.std::__1::__function::__policy"* @_ZZNSt3__110__function8__policy14__create_emptyEvE9__policy_, %"struct.std::__1::__function::__policy"** %32, align 8
  call void @_ZN8perfetto3ipc8DeferredINS_6protos3gen29SaveTraceForBugreportResponseEE4BindENSt3__18functionIFvNS0_11AsyncResultIS4_EEEEE(%"class.perfetto::ipc::Deferred.494"* nonnull %6, %"class.std::__1::function.495"* nonnull %4) #14
  %33 = load %"struct.std::__1::__function::__policy"*, %"struct.std::__1::__function::__policy"** %32, align 8
  %34 = getelementptr inbounds %"struct.std::__1::__function::__policy", %"struct.std::__1::__function::__policy"* %33, i64 0, i32 1
  %35 = load void (i8*)*, void (i8*)** %34, align 8
  %36 = icmp eq void (i8*)* %35, null
  br i1 %36, label %40, label %37

37:                                               ; preds = %29
  %38 = getelementptr inbounds %"class.std::__1::function.495", %"class.std::__1::function.495"* %4, i64 0, i32 0, i32 0, i32 0
  %39 = load i8*, i8** %38, align 8
  call void %35(i8* %39) #14
  br label %40

40:                                               ; preds = %37, %29
  call void @llvm.lifetime.end.p0i8(i64 32, i8* nonnull %16)
  call void @llvm.lifetime.end.p0i8(i64 32, i8* nonnull %18)
  %41 = getelementptr inbounds %"class.std::__1::function.488", %"class.std::__1::function.488"* %1, i64 0, i32 0, i32 0, i32 0
  %42 = load i8*, i8** %41, align 8
  %43 = getelementptr inbounds %"class.std::__1::function.488", %"class.std::__1::function.488"* %1, i64 0, i32 0, i32 0, i32 1
  %44 = bitcast [8 x i8]* %43 to <2 x i64>*
  %45 = load <2 x i64>, <2 x i64>* %44, align 8
  %46 = getelementptr inbounds %"class.std::__1::function.488", %"class.std::__1::function.488"* %1, i64 0, i32 0, i32 2
  %47 = load %"struct.std::__1::__function::__policy"*, %"struct.std::__1::__function::__policy"** %46, align 8
  %48 = getelementptr inbounds %"struct.std::__1::__function::__policy", %"struct.std::__1::__function::__policy"* %47, i64 0, i32 0
  %49 = load i8* (i8*)*, i8* (i8*)** %48, align 8
  %50 = icmp eq i8* (i8*)* %49, null
  br i1 %50, label %53, label %51

51:                                               ; preds = %40
  %52 = call i8* %49(i8* %42) #14
  br label %53

53:                                               ; preds = %40, %51
  %54 = phi i8* [ %42, %40 ], [ %52, %51 ]
  %55 = getelementptr inbounds %"class.std::__1::function.495", %"class.std::__1::function.495"* %7, i64 0, i32 0, i32 1, i32 0
  %56 = getelementptr inbounds %"class.std::__1::function.495", %"class.std::__1::function.495"* %7, i64 0, i32 0, i32 2
  store void (%"union.std::__1::__function::__policy_storage"*, %"class.perfetto::ipc::AsyncResult.501"*)* @"_ZNSt3__110__function16__policy_invokerIFvN8perfetto3ipc11AsyncResultINS2_6protos3gen29SaveTraceForBugreportResponseEEEEE11__call_implINS0_20__default_alloc_funcIZNS2_21ConsumerIPCClientImpl21SaveTraceForBugreportENS_8functionIFvbRKNS_12basic_stringIcNS_11char_traitsIcEENS_9allocatorIcEEEEEEEE4$_13S9_EEEEvPKNS0_16__policy_storageEOS8_", void (%"union.std::__1::__function::__policy_storage"*, %"class.perfetto::ipc::AsyncResult.501"*)** %55, align 8
  store %"struct.std::__1::__function::__policy"* @"_ZZNSt3__110__function8__policy15__choose_policyINS0_20__default_alloc_funcIZN8perfetto21ConsumerIPCClientImpl21SaveTraceForBugreportENS_8functionIFvbRKNS_12basic_stringIcNS_11char_traitsIcEENS_9allocatorIcEEEEEEEE4$_13FvNS4_3ipc11AsyncResultINS4_6protos3gen29SaveTraceForBugreportResponseEEEEEEEEPKS1_NS_17integral_constantIbLb0EEEE9__policy_", %"struct.std::__1::__function::__policy"** %56, align 8
  %57 = call i8* @_Znwm(i64 32) #13, !noalias !139
  %58 = bitcast i8* %57 to i8**
  store i8* %54, i8** %58, align 8
  %59 = getelementptr inbounds i8, i8* %57, i64 8
  %60 = bitcast i8* %59 to <2 x i64>*
  store <2 x i64> %45, <2 x i64>* %60, align 8
  %61 = getelementptr inbounds i8, i8* %57, i64 24
  %62 = bitcast i8* %61 to %"struct.std::__1::__function::__policy"**
  store %"struct.std::__1::__function::__policy"* %47, %"struct.std::__1::__function::__policy"** %62, align 8
  %63 = getelementptr inbounds %"struct.std::__1::__function::__policy", %"struct.std::__1::__function::__policy"* %47, i64 0, i32 1
  %64 = load void (i8*)*, void (i8*)** %63, align 8
  %65 = icmp eq void (i8*)* %64, null
  %66 = select i1 %65, %"struct.std::__1::__function::__policy"* %47, %"struct.std::__1::__function::__policy"* @_ZZNSt3__110__function8__policy14__create_emptyEvE9__policy_
  %67 = getelementptr inbounds %"class.std::__1::function.495", %"class.std::__1::function.495"* %7, i64 0, i32 0, i32 0, i32 0
  store i8* %57, i8** %67, align 8
  call void @_ZN8perfetto3ipc8DeferredINS_6protos3gen29SaveTraceForBugreportResponseEE4BindENSt3__18functionIFvNS0_11AsyncResultIS4_EEEEE(%"class.perfetto::ipc::Deferred.494"* nonnull %6, %"class.std::__1::function.495"* nonnull %7)
  %68 = load %"struct.std::__1::__function::__policy"*, %"struct.std::__1::__function::__policy"** %56, align 8
  %69 = getelementptr inbounds %"struct.std::__1::__function::__policy", %"struct.std::__1::__function::__policy"* %68, i64 0, i32 1
  %70 = load void (i8*)*, void (i8*)** %69, align 8
  %71 = icmp eq void (i8*)* %70, null
  br i1 %71, label %74, label %72

72:                                               ; preds = %53
  %73 = load i8*, i8** %67, align 8
  call void %70(i8* %73) #14
  br label %74

74:                                               ; preds = %53, %72
  %75 = getelementptr inbounds %"struct.std::__1::__function::__policy", %"struct.std::__1::__function::__policy"* %66, i64 0, i32 1
  %76 = load void (i8*)*, void (i8*)** %75, align 8
  %77 = icmp eq void (i8*)* %76, null
  br i1 %77, label %79, label %78

78:                                               ; preds = %74
  call void %76(i8* %54) #14
  br label %79

79:                                               ; preds = %74, %78
  %80 = getelementptr inbounds %"class.perfetto::ConsumerIPCClientImpl", %"class.perfetto::ConsumerIPCClientImpl"* %0, i64 0, i32 4
  %81 = getelementptr inbounds %"class.perfetto::ipc::Deferred.494", %"class.perfetto::ipc::Deferred.494"* %8, i64 0, i32 0
  call void @_ZN8perfetto3ipc12DeferredBaseC2EOS1_(%"class.perfetto::ipc::DeferredBase"* nonnull %81, %"class.perfetto::ipc::DeferredBase"* nonnull dereferenceable(32) %19) #14
  call void @_ZN8perfetto6protos3gen17ConsumerPortProxy21SaveTraceForBugreportERKNS1_28SaveTraceForBugreportRequestENS_3ipc8DeferredINS1_29SaveTraceForBugreportResponseEEEi(%"class.perfetto::protos::gen::ConsumerPortProxy"* %80, %"class.perfetto::protos::gen::SaveTraceForBugreportRequest"* nonnull dereferenceable(40) %5, %"class.perfetto::ipc::Deferred.494"* nonnull %8, i32 -1) #14
  call void @_ZN8perfetto3ipc12DeferredBaseD2Ev(%"class.perfetto::ipc::DeferredBase"* nonnull %81) #14
  call void @_ZN8perfetto3ipc12DeferredBaseD2Ev(%"class.perfetto::ipc::DeferredBase"* nonnull %19) #14
  call void @llvm.lifetime.end.p0i8(i64 32, i8* nonnull %15) #14
  call void @_ZN8perfetto6protos3gen28SaveTraceForBugreportRequestD1Ev(%"class.perfetto::protos::gen::SaveTraceForBugreportRequest"* nonnull %5) #14
  call void @llvm.lifetime.end.p0i8(i64 40, i8* nonnull %13) #14
  br label %82

82:                                               ; preds = %2, %79
  ret void
}

declare void @_ZN8perfetto6protos3gen28SaveTraceForBugreportRequestC1Ev(%"class.perfetto::protos::gen::SaveTraceForBugreportRequest"*) unnamed_addr #2

; Function Attrs: nounwind ssp uwtable
define linkonce_odr hidden void @_ZN8perfetto3ipc8DeferredINS_6protos3gen29SaveTraceForBugreportResponseEE4BindENSt3__18functionIFvNS0_11AsyncResultIS4_EEEEE(%"class.perfetto::ipc::Deferred.494"*, %"class.std::__1::function.495"*) local_unnamed_addr #0 comdat align 2 {
  %3 = alloca %"class.std::__1::function", align 8
  %4 = getelementptr inbounds %"class.std::__1::function.495", %"class.std::__1::function.495"* %1, i64 0, i32 0, i32 2
  %5 = load %"struct.std::__1::__function::__policy"*, %"struct.std::__1::__function::__policy"** %4, align 8
  %6 = getelementptr inbounds %"struct.std::__1::__function::__policy", %"struct.std::__1::__function::__policy"* %5, i64 0, i32 2
  %7 = load i8, i8* %6, align 8, !range !3
  %8 = icmp eq i8 %7, 0
  br i1 %8, label %9, label %59

9:                                                ; preds = %2
  %10 = getelementptr inbounds %"class.std::__1::function.495", %"class.std::__1::function.495"* %1, i64 0, i32 0, i32 0, i32 0
  %11 = load i8*, i8** %10, align 8
  %12 = getelementptr inbounds %"class.std::__1::function.495", %"class.std::__1::function.495"* %1, i64 0, i32 0, i32 0, i32 1
  %13 = bitcast [8 x i8]* %12 to <2 x i64>*
  %14 = load <2 x i64>, <2 x i64>* %13, align 8
  %15 = getelementptr inbounds %"struct.std::__1::__function::__policy", %"struct.std::__1::__function::__policy"* %5, i64 0, i32 0
  %16 = load i8* (i8*)*, i8* (i8*)** %15, align 8
  %17 = icmp eq i8* (i8*)* %16, null
  br i1 %17, label %18, label %20

18:                                               ; preds = %9
  %19 = getelementptr inbounds %"class.perfetto::ipc::Deferred.494", %"class.perfetto::ipc::Deferred.494"* %0, i64 0, i32 0
  br label %27

20:                                               ; preds = %9
  %21 = tail call i8* %16(i8* %11) #14
  %22 = load i8* (i8*)*, i8* (i8*)** %15, align 8
  %23 = getelementptr inbounds %"class.perfetto::ipc::Deferred.494", %"class.perfetto::ipc::Deferred.494"* %0, i64 0, i32 0
  %24 = icmp eq i8* (i8*)* %22, null
  br i1 %24, label %27, label %25

25:                                               ; preds = %20
  %26 = tail call i8* %22(i8* %21) #14
  br label %27

27:                                               ; preds = %18, %20, %25
  %28 = phi %"class.perfetto::ipc::DeferredBase"* [ %23, %20 ], [ %23, %25 ], [ %19, %18 ]
  %29 = phi i8* [ %21, %20 ], [ %21, %25 ], [ %11, %18 ]
  %30 = phi i8* [ %21, %20 ], [ %26, %25 ], [ %11, %18 ]
  %31 = getelementptr inbounds %"class.std::__1::function", %"class.std::__1::function"* %3, i64 0, i32 0, i32 1, i32 0
  %32 = getelementptr inbounds %"class.std::__1::function", %"class.std::__1::function"* %3, i64 0, i32 0, i32 2
  store void (%"union.std::__1::__function::__policy_storage"*, %"class.perfetto::ipc::AsyncResult"*)* @_ZNSt3__110__function16__policy_invokerIFvN8perfetto3ipc11AsyncResultIN9protozero13CppMessageObjEEEEE11__call_implINS0_20__default_alloc_funcIZNS3_8DeferredINS2_6protos3gen29SaveTraceForBugreportResponseEE4BindENS_8functionIFvNS4_ISF_EEEEEEUlS7_E_S8_EEEEvPKNS0_16__policy_storageEOS7_, void (%"union.std::__1::__function::__policy_storage"*, %"class.perfetto::ipc::AsyncResult"*)** %31, align 8
  store %"struct.std::__1::__function::__policy"* @_ZZNSt3__110__function8__policy15__choose_policyINS0_20__default_alloc_funcIZN8perfetto3ipc8DeferredINS4_6protos3gen29SaveTraceForBugreportResponseEE4BindENS_8functionIFvNS5_11AsyncResultIS9_EEEEEEUlNSC_IN9protozero13CppMessageObjEEEE_FvSI_EEEEEPKS1_NS_17integral_constantIbLb0EEEE9__policy_, %"struct.std::__1::__function::__policy"** %32, align 8
  %33 = tail call i8* @_Znwm(i64 32) #13, !noalias !144
  %34 = bitcast i8* %33 to i8**
  store i8* %30, i8** %34, align 8
  %35 = getelementptr inbounds i8, i8* %33, i64 8
  %36 = bitcast i8* %35 to <2 x i64>*
  store <2 x i64> %14, <2 x i64>* %36, align 8
  %37 = getelementptr inbounds i8, i8* %33, i64 24
  %38 = bitcast i8* %37 to %"struct.std::__1::__function::__policy"**
  store %"struct.std::__1::__function::__policy"* %5, %"struct.std::__1::__function::__policy"** %38, align 8
  %39 = getelementptr inbounds %"struct.std::__1::__function::__policy", %"struct.std::__1::__function::__policy"* %5, i64 0, i32 1
  %40 = load void (i8*)*, void (i8*)** %39, align 8
  %41 = icmp eq void (i8*)* %40, null
  %42 = select i1 %41, %"struct.std::__1::__function::__policy"* %5, %"struct.std::__1::__function::__policy"* @_ZZNSt3__110__function8__policy14__create_emptyEvE9__policy_
  %43 = getelementptr inbounds %"class.std::__1::function", %"class.std::__1::function"* %3, i64 0, i32 0, i32 0, i32 0
  store i8* %33, i8** %43, align 8
  call void @_ZN8perfetto3ipc12DeferredBase4BindENSt3__18functionIFvNS0_11AsyncResultIN9protozero13CppMessageObjEEEEEE(%"class.perfetto::ipc::DeferredBase"* %28, %"class.std::__1::function"* nonnull %3) #14
  %44 = load %"struct.std::__1::__function::__policy"*, %"struct.std::__1::__function::__policy"** %32, align 8
  %45 = getelementptr inbounds %"struct.std::__1::__function::__policy", %"struct.std::__1::__function::__policy"* %44, i64 0, i32 1
  %46 = load void (i8*)*, void (i8*)** %45, align 8
  %47 = icmp eq void (i8*)* %46, null
  br i1 %47, label %50, label %48

48:                                               ; preds = %27
  %49 = load i8*, i8** %43, align 8
  call void %46(i8* %49) #14
  br label %50

50:                                               ; preds = %27, %48
  %51 = getelementptr inbounds %"struct.std::__1::__function::__policy", %"struct.std::__1::__function::__policy"* %42, i64 0, i32 1
  %52 = load void (i8*)*, void (i8*)** %51, align 8
  %53 = icmp eq void (i8*)* %52, null
  br i1 %53, label %55, label %54

54:                                               ; preds = %50
  call void %52(i8* %30) #14
  br label %55

55:                                               ; preds = %50, %54
  %56 = load void (i8*)*, void (i8*)** %39, align 8
  %57 = icmp eq void (i8*)* %56, null
  br i1 %57, label %59, label %58

58:                                               ; preds = %55
  call void %56(i8* %29) #14
  br label %59

59:                                               ; preds = %58, %55, %2
  ret void
}

declare void @_ZN8perfetto6protos3gen17ConsumerPortProxy21SaveTraceForBugreportERKNS1_28SaveTraceForBugreportRequestENS_3ipc8DeferredINS1_29SaveTraceForBugreportResponseEEEi(%"class.perfetto::protos::gen::ConsumerPortProxy"*, %"class.perfetto::protos::gen::SaveTraceForBugreportRequest"* dereferenceable(40), %"class.perfetto::ipc::Deferred.494"*, i32) local_unnamed_addr #2

; Function Attrs: nounwind
declare void @_ZN8perfetto6protos3gen28SaveTraceForBugreportRequestD1Ev(%"class.perfetto::protos::gen::SaveTraceForBugreportRequest"*) unnamed_addr #3

declare i32 @_ZN8perfetto4base9CloseFileEi(i32) local_unnamed_addr #2

; Function Attrs: nounwind readnone
declare i32* @__errno_location() local_unnamed_addr #6

; Function Attrs: nounwind
declare i8* @strerror(i32) local_unnamed_addr #3

; Function Attrs: cold noreturn nounwind
declare void @llvm.trap() #7

; Function Attrs: noreturn nounwind
declare void @abort() local_unnamed_addr #8

; Function Attrs: nounwind
declare void @_ZN8perfetto3ipc12DeferredBaseC2EOS1_(%"class.perfetto::ipc::DeferredBase"*, %"class.perfetto::ipc::DeferredBase"* dereferenceable(32)) unnamed_addr #3

; Function Attrs: nounwind
declare void @_ZNSt3__119__shared_weak_count14__release_weakEv(%"class.std::__1::__shared_weak_count"*) local_unnamed_addr #3

; Function Attrs: nobuiltin nofree
declare noalias nonnull i8* @_Znam(i64) local_unnamed_addr #1

; Function Attrs: noreturn
declare void @_ZNKSt3__120__vector_base_commonILb1EE20__throw_length_errorEv(%"class.std::__1::__vector_base_common"*) local_unnamed_addr #9

declare dereferenceable(24) %"class.std::__1::basic_string"* @_ZNSt3__112basic_stringIcNS_11char_traitsIcEENS_9allocatorIcEEE17__assign_no_aliasILb1EEERS5_PKcm(%"class.std::__1::basic_string"*, i8*, i64) local_unnamed_addr #2

declare dereferenceable(24) %"class.std::__1::basic_string"* @_ZNSt3__112basic_stringIcNS_11char_traitsIcEENS_9allocatorIcEEE17__assign_no_aliasILb0EEERS5_PKcm(%"class.std::__1::basic_string"*, i8*, i64) local_unnamed_addr #2

; Function Attrs: nounwind
declare void @_ZNSt3__119__shared_weak_countD2Ev(%"class.std::__1::__shared_weak_count"*) unnamed_addr #3

; Function Attrs: inlinehint nounwind ssp uwtable
define linkonce_odr hidden void @_ZNSt3__120__shared_ptr_pointerIPPN8perfetto21ConsumerIPCClientImplENS_10shared_ptrIS3_E27__shared_ptr_default_deleteIS3_S3_EENS_9allocatorIS3_EEED0Ev(%"class.std::__1::__shared_ptr_pointer"*) unnamed_addr #10 comdat align 2 {
  %2 = getelementptr inbounds %"class.std::__1::__shared_ptr_pointer", %"class.std::__1::__shared_ptr_pointer"* %0, i64 0, i32 0
  tail call void @_ZNSt3__119__shared_weak_countD2Ev(%"class.std::__1::__shared_weak_count"* %2) #14
  %3 = bitcast %"class.std::__1::__shared_ptr_pointer"* %0 to i8*
  tail call void @_ZdlPv(i8* %3) #13
  ret void
}

; Function Attrs: nounwind ssp uwtable
define linkonce_odr hidden void @_ZNSt3__120__shared_ptr_pointerIPPN8perfetto21ConsumerIPCClientImplENS_10shared_ptrIS3_E27__shared_ptr_default_deleteIS3_S3_EENS_9allocatorIS3_EEE16__on_zero_sharedEv(%"class.std::__1::__shared_ptr_pointer"*) unnamed_addr #0 comdat align 2 {
  %2 = getelementptr inbounds %"class.std::__1::__shared_ptr_pointer", %"class.std::__1::__shared_ptr_pointer"* %0, i64 0, i32 1, i32 0, i32 0, i32 0, i32 0
  %3 = load %"class.perfetto::ConsumerIPCClientImpl"**, %"class.perfetto::ConsumerIPCClientImpl"*** %2, align 8
  %4 = icmp eq %"class.perfetto::ConsumerIPCClientImpl"** %3, null
  br i1 %4, label %7, label %5

5:                                                ; preds = %1
  %6 = bitcast %"class.perfetto::ConsumerIPCClientImpl"** %3 to i8*
  tail call void @_ZdlPv(i8* %6) #13
  br label %7

7:                                                ; preds = %1, %5
  ret void
}

; Function Attrs: nounwind
declare i8* @_ZNKSt3__119__shared_weak_count13__get_deleterERKSt9type_info(%"class.std::__1::__shared_weak_count"*, %"class.std::type_info"* dereferenceable(16)) unnamed_addr #3

; Function Attrs: nounwind ssp uwtable
define linkonce_odr hidden void @_ZNSt3__120__shared_ptr_pointerIPPN8perfetto21ConsumerIPCClientImplENS_10shared_ptrIS3_E27__shared_ptr_default_deleteIS3_S3_EENS_9allocatorIS3_EEE21__on_zero_shared_weakEv(%"class.std::__1::__shared_ptr_pointer"*) unnamed_addr #0 comdat align 2 {
  %2 = bitcast %"class.std::__1::__shared_ptr_pointer"* %0 to i8*
  tail call void @_ZdlPv(i8* %2) #13
  ret void
}

; Function Attrs: nounwind ssp uwtable
define linkonce_odr hidden void @_ZNSt3__110__function16__policy_invokerIFvN8perfetto3ipc11AsyncResultINS2_6protos3gen21EnableTracingResponseEEEEE12__call_emptyEPKNS0_16__policy_storageEOS8_(%"union.std::__1::__function::__policy_storage"*, %"class.perfetto::ipc::AsyncResult.170"* dereferenceable(16)) #0 comdat align 2 {
  tail call void @_ZNSt3__125__throw_bad_function_callEv() #17
  unreachable
}

; Function Attrs: inlinehint noreturn nounwind ssp uwtable
define linkonce_odr hidden void @_ZNSt3__125__throw_bad_function_callEv() local_unnamed_addr #11 comdat {
  tail call void @abort() #16
  unreachable
}

declare void @_ZN8perfetto3ipc12DeferredBaseC2ENSt3__18functionIFvNS0_11AsyncResultIN9protozero13CppMessageObjEEEEEE(%"class.perfetto::ipc::DeferredBase"*, %"class.std::__1::function"*) unnamed_addr #2

; Function Attrs: nounwind ssp uwtable
define linkonce_odr hidden void @_ZNSt3__110__function16__policy_invokerIFvN8perfetto3ipc11AsyncResultIN9protozero13CppMessageObjEEEEE12__call_emptyEPKNS0_16__policy_storageEOS7_(%"union.std::__1::__function::__policy_storage"*, %"class.perfetto::ipc::AsyncResult"* dereferenceable(16)) #0 comdat align 2 {
  tail call void @_ZNSt3__125__throw_bad_function_callEv() #17
  unreachable
}

declare void @_ZN8perfetto3ipc12DeferredBase4BindENSt3__18functionIFvNS0_11AsyncResultIN9protozero13CppMessageObjEEEEEE(%"class.perfetto::ipc::DeferredBase"*, %"class.std::__1::function"*) local_unnamed_addr #2

; Function Attrs: nounwind ssp uwtable
define linkonce_odr hidden void @_ZNSt3__110__function16__policy_invokerIFvN8perfetto3ipc11AsyncResultIN9protozero13CppMessageObjEEEEE11__call_implINS0_20__default_alloc_funcIZNS3_8DeferredINS2_6protos3gen21EnableTracingResponseEE4BindENS_8functionIFvNS4_ISF_EEEEEEUlS7_E_S8_EEEEvPKNS0_16__policy_storageEOS7_(%"union.std::__1::__function::__policy_storage"*, %"class.perfetto::ipc::AsyncResult"* dereferenceable(16)) #0 comdat align 2 {
  %3 = alloca %"class.perfetto::ipc::AsyncResult.170", align 8
  %4 = bitcast %"union.std::__1::__function::__policy_storage"* %0 to %"class.std::__1::__function::__default_alloc_func"**
  %5 = load %"class.std::__1::__function::__default_alloc_func"*, %"class.std::__1::__function::__default_alloc_func"** %4, align 8
  %6 = getelementptr inbounds %"class.perfetto::ipc::AsyncResult", %"class.perfetto::ipc::AsyncResult"* %1, i64 0, i32 0, i32 0, i32 0, i32 0
  %7 = bitcast %"class.perfetto::ipc::AsyncResult"* %1 to i64*
  %8 = load i64, i64* %7, align 8
  store %"class.protozero::CppMessageObj"* null, %"class.protozero::CppMessageObj"** %6, align 8
  %9 = getelementptr inbounds %"class.perfetto::ipc::AsyncResult", %"class.perfetto::ipc::AsyncResult"* %1, i64 0, i32 1
  %10 = bitcast i8* %9 to i64*
  %11 = load i64, i64* %10, align 8
  %12 = trunc i64 %11 to i8
  %13 = and i64 %11, -4294967296
  %14 = icmp ne i8 %12, 0
  %15 = zext i1 %14 to i64
  %16 = or i64 %13, %15
  %17 = or i64 %16, 2863311360
  %18 = bitcast %"class.perfetto::ipc::AsyncResult.170"* %3 to i8*
  call void @llvm.lifetime.start.p0i8(i64 16, i8* nonnull %18) #14
  %19 = getelementptr inbounds %"class.perfetto::ipc::AsyncResult.170", %"class.perfetto::ipc::AsyncResult.170"* %3, i64 0, i32 0, i32 0, i32 0, i32 0
  %20 = bitcast %"class.perfetto::ipc::AsyncResult.170"* %3 to i64*
  store i64 %8, i64* %20, align 8
  %21 = getelementptr inbounds %"class.perfetto::ipc::AsyncResult.170", %"class.perfetto::ipc::AsyncResult.170"* %3, i64 0, i32 1
  %22 = bitcast i8* %21 to i64*
  store i64 %17, i64* %22, align 8
  %23 = getelementptr inbounds %"class.std::__1::__function::__default_alloc_func", %"class.std::__1::__function::__default_alloc_func"* %5, i64 0, i32 0, i32 0, i32 0, i32 1, i32 0
  %24 = load void (%"union.std::__1::__function::__policy_storage"*, %"class.perfetto::ipc::AsyncResult.170"*)*, void (%"union.std::__1::__function::__policy_storage"*, %"class.perfetto::ipc::AsyncResult.170"*)** %23, align 8
  %25 = getelementptr inbounds %"class.std::__1::__function::__default_alloc_func", %"class.std::__1::__function::__default_alloc_func"* %5, i64 0, i32 0, i32 0, i32 0, i32 0
  call void %24(%"union.std::__1::__function::__policy_storage"* %25, %"class.perfetto::ipc::AsyncResult.170"* nonnull dereferenceable(16) %3) #14
  %26 = load %"class.perfetto::protos::gen::EnableTracingResponse"*, %"class.perfetto::protos::gen::EnableTracingResponse"** %19, align 8
  store %"class.perfetto::protos::gen::EnableTracingResponse"* null, %"class.perfetto::protos::gen::EnableTracingResponse"** %19, align 8
  %27 = icmp eq %"class.perfetto::protos::gen::EnableTracingResponse"* %26, null
  br i1 %27, label %33, label %28

28:                                               ; preds = %2
  %29 = bitcast %"class.perfetto::protos::gen::EnableTracingResponse"* %26 to void (%"class.perfetto::protos::gen::EnableTracingResponse"*)***
  %30 = load void (%"class.perfetto::protos::gen::EnableTracingResponse"*)**, void (%"class.perfetto::protos::gen::EnableTracingResponse"*)*** %29, align 8
  %31 = getelementptr inbounds void (%"class.perfetto::protos::gen::EnableTracingResponse"*)*, void (%"class.perfetto::protos::gen::EnableTracingResponse"*)** %30, i64 1
  %32 = load void (%"class.perfetto::protos::gen::EnableTracingResponse"*)*, void (%"class.perfetto::protos::gen::EnableTracingResponse"*)** %31, align 8
  call void %32(%"class.perfetto::protos::gen::EnableTracingResponse"* nonnull %26) #14
  br label %33

33:                                               ; preds = %2, %28
  call void @llvm.lifetime.end.p0i8(i64 16, i8* nonnull %18) #14
  ret void
}

; Function Attrs: nounwind ssp uwtable
define linkonce_odr hidden i8* @_ZNSt3__110__function8__policy13__large_cloneINS0_20__default_alloc_funcIZN8perfetto3ipc8DeferredINS4_6protos3gen21EnableTracingResponseEE4BindENS_8functionIFvNS5_11AsyncResultIS9_EEEEEEUlNSC_IN9protozero13CppMessageObjEEEE_FvSI_EEEEEPvPKv(i8*) #0 comdat align 2 {
  %2 = tail call i8* @_Znwm(i64 32) #13, !noalias !149
  tail call void @llvm.memcpy.p0i8.p0i8.i64(i8* nonnull align 8 %2, i8* align 8 %0, i64 16, i1 false) #14
  %3 = getelementptr inbounds i8, i8* %2, i64 16
  %4 = getelementptr inbounds i8, i8* %0, i64 16
  %5 = bitcast i8* %4 to i64*
  %6 = bitcast i8* %3 to i64*
  %7 = load i64, i64* %5, align 8
  store i64 %7, i64* %6, align 8
  %8 = getelementptr inbounds i8, i8* %2, i64 24
  %9 = bitcast i8* %8 to %"struct.std::__1::__function::__policy"**
  %10 = getelementptr inbounds i8, i8* %0, i64 24
  %11 = bitcast i8* %10 to %"struct.std::__1::__function::__policy"**
  %12 = load %"struct.std::__1::__function::__policy"*, %"struct.std::__1::__function::__policy"** %11, align 8
  store %"struct.std::__1::__function::__policy"* %12, %"struct.std::__1::__function::__policy"** %9, align 8
  %13 = getelementptr inbounds %"struct.std::__1::__function::__policy", %"struct.std::__1::__function::__policy"* %12, i64 0, i32 0
  %14 = load i8* (i8*)*, i8* (i8*)** %13, align 8
  %15 = icmp eq i8* (i8*)* %14, null
  br i1 %15, label %21, label %16

16:                                               ; preds = %1
  %17 = bitcast i8* %0 to i8**
  %18 = load i8*, i8** %17, align 8
  %19 = tail call i8* %14(i8* %18) #14
  %20 = bitcast i8* %2 to i8**
  store i8* %19, i8** %20, align 8
  br label %21

21:                                               ; preds = %1, %16
  ret i8* %2
}

; Function Attrs: nounwind ssp uwtable
define linkonce_odr hidden void @_ZNSt3__110__function8__policy15__large_destroyINS0_20__default_alloc_funcIZN8perfetto3ipc8DeferredINS4_6protos3gen21EnableTracingResponseEE4BindENS_8functionIFvNS5_11AsyncResultIS9_EEEEEEUlNSC_IN9protozero13CppMessageObjEEEE_FvSI_EEEEEvPv(i8*) #0 comdat align 2 {
  %2 = getelementptr inbounds i8, i8* %0, i64 24
  %3 = bitcast i8* %2 to %"struct.std::__1::__function::__policy"**
  %4 = load %"struct.std::__1::__function::__policy"*, %"struct.std::__1::__function::__policy"** %3, align 8
  %5 = getelementptr inbounds %"struct.std::__1::__function::__policy", %"struct.std::__1::__function::__policy"* %4, i64 0, i32 1
  %6 = load void (i8*)*, void (i8*)** %5, align 8
  %7 = icmp eq void (i8*)* %6, null
  br i1 %7, label %11, label %8

8:                                                ; preds = %1
  %9 = bitcast i8* %0 to i8**
  %10 = load i8*, i8** %9, align 8
  tail call void %6(i8* %10) #14
  br label %11

11:                                               ; preds = %1, %8
  tail call void @_ZdlPv(i8* %0) #13
  ret void
}

; Function Attrs: nounwind ssp uwtable
define internal void @"_ZNSt3__110__function16__policy_invokerIFvN8perfetto3ipc11AsyncResultINS2_6protos3gen21EnableTracingResponseEEEEE11__call_implINS0_20__default_alloc_funcIZNS2_21ConsumerIPCClientImpl13EnableTracingERKNS6_11TraceConfigENS2_4base14ScopedResourceIiXadL_ZNSH_9CloseFileEiEELin1ELb1ENSH_8internal22DefaultValidityCheckerIiLin1EEEEEE3$_0S9_EEEEvPKNS0_16__policy_storageEOS8_"(%"union.std::__1::__function::__policy_storage"* nocapture readonly, %"class.perfetto::ipc::AsyncResult.170"* nocapture dereferenceable(16)) #0 align 2 {
  %3 = bitcast %"union.std::__1::__function::__policy_storage"* %0 to %"class.std::__1::__function::__default_alloc_func.532"**
  %4 = load %"class.std::__1::__function::__default_alloc_func.532"*, %"class.std::__1::__function::__default_alloc_func.532"** %3, align 8
  %5 = getelementptr inbounds %"class.perfetto::ipc::AsyncResult.170", %"class.perfetto::ipc::AsyncResult.170"* %1, i64 0, i32 0, i32 0, i32 0, i32 0
  %6 = load %"class.perfetto::protos::gen::EnableTracingResponse"*, %"class.perfetto::protos::gen::EnableTracingResponse"** %5, align 8
  store %"class.perfetto::protos::gen::EnableTracingResponse"* null, %"class.perfetto::protos::gen::EnableTracingResponse"** %5, align 8
  %7 = getelementptr inbounds %"class.perfetto::ipc::AsyncResult.170", %"class.perfetto::ipc::AsyncResult.170"* %1, i64 0, i32 1
  %8 = bitcast i8* %7 to i64*
  %9 = load i64, i64* %8, align 8
  %10 = getelementptr inbounds %"class.std::__1::__function::__default_alloc_func.532", %"class.std::__1::__function::__default_alloc_func.532"* %4, i64 0, i32 0, i32 0, i32 0, i32 0
  %11 = load %"class.perfetto::ConsumerIPCClientImpl"**, %"class.perfetto::ConsumerIPCClientImpl"*** %10, align 8
  %12 = icmp eq %"class.perfetto::ConsumerIPCClientImpl"** %11, null
  br i1 %12, label %17, label %13

13:                                               ; preds = %2
  %14 = load %"class.perfetto::ConsumerIPCClientImpl"*, %"class.perfetto::ConsumerIPCClientImpl"** %11, align 8
  %15 = icmp eq %"class.perfetto::ConsumerIPCClientImpl"* %14, null
  br i1 %15, label %17, label %16

16:                                               ; preds = %13
  tail call void @_ZN8perfetto21ConsumerIPCClientImpl23OnEnableTracingResponseENS_3ipc11AsyncResultINS_6protos3gen21EnableTracingResponseEEE(%"class.perfetto::ConsumerIPCClientImpl"* nonnull %14, %"class.perfetto::protos::gen::EnableTracingResponse"* %6, i64 %9) #14
  br label %24

17:                                               ; preds = %13, %2
  %18 = icmp eq %"class.perfetto::protos::gen::EnableTracingResponse"* %6, null
  br i1 %18, label %24, label %19

19:                                               ; preds = %17
  %20 = bitcast %"class.perfetto::protos::gen::EnableTracingResponse"* %6 to void (%"class.perfetto::protos::gen::EnableTracingResponse"*)***
  %21 = load void (%"class.perfetto::protos::gen::EnableTracingResponse"*)**, void (%"class.perfetto::protos::gen::EnableTracingResponse"*)*** %20, align 8
  %22 = getelementptr inbounds void (%"class.perfetto::protos::gen::EnableTracingResponse"*)*, void (%"class.perfetto::protos::gen::EnableTracingResponse"*)** %21, i64 1
  %23 = load void (%"class.perfetto::protos::gen::EnableTracingResponse"*)*, void (%"class.perfetto::protos::gen::EnableTracingResponse"*)** %22, align 8
  tail call void %23(%"class.perfetto::protos::gen::EnableTracingResponse"* nonnull %6) #14
  br label %24

24:                                               ; preds = %16, %17, %19
  ret void
}

; Function Attrs: nofree nounwind ssp uwtable
define internal noalias nonnull i8* @"_ZNSt3__110__function8__policy13__large_cloneINS0_20__default_alloc_funcIZN8perfetto21ConsumerIPCClientImpl13EnableTracingERKNS4_6protos3gen11TraceConfigENS4_4base14ScopedResourceIiXadL_ZNSB_9CloseFileEiEELin1ELb1ENSB_8internal22DefaultValidityCheckerIiLin1EEEEEE3$_0FvNS4_3ipc11AsyncResultINS7_21EnableTracingResponseEEEEEEEEPvPKv"(i8* nocapture readonly) #12 align 2 {
  %2 = tail call i8* @_Znwm(i64 16) #13, !noalias !154
  %3 = bitcast i8* %0 to i64*
  %4 = load i64, i64* %3, align 8
  %5 = bitcast i8* %2 to i64*
  store i64 %4, i64* %5, align 8
  %6 = getelementptr inbounds i8, i8* %2, i64 8
  %7 = bitcast i8* %6 to %"class.std::__1::__shared_weak_count"**
  %8 = getelementptr inbounds i8, i8* %0, i64 8
  %9 = bitcast i8* %8 to %"class.std::__1::__shared_weak_count"**
  %10 = load %"class.std::__1::__shared_weak_count"*, %"class.std::__1::__shared_weak_count"** %9, align 8
  store %"class.std::__1::__shared_weak_count"* %10, %"class.std::__1::__shared_weak_count"** %7, align 8
  %11 = icmp eq %"class.std::__1::__shared_weak_count"* %10, null
  br i1 %11, label %15, label %12

12:                                               ; preds = %1
  %13 = getelementptr inbounds %"class.std::__1::__shared_weak_count", %"class.std::__1::__shared_weak_count"* %10, i64 0, i32 0, i32 1
  %14 = atomicrmw add i64* %13, i64 1 monotonic
  br label %15

15:                                               ; preds = %1, %12
  ret i8* %2
}

; Function Attrs: nounwind ssp uwtable
define internal void @"_ZNSt3__110__function8__policy15__large_destroyINS0_20__default_alloc_funcIZN8perfetto21ConsumerIPCClientImpl13EnableTracingERKNS4_6protos3gen11TraceConfigENS4_4base14ScopedResourceIiXadL_ZNSB_9CloseFileEiEELin1ELb1ENSB_8internal22DefaultValidityCheckerIiLin1EEEEEE3$_0FvNS4_3ipc11AsyncResultINS7_21EnableTracingResponseEEEEEEEEvPv"(i8*) #0 align 2 {
  %2 = getelementptr inbounds i8, i8* %0, i64 8
  %3 = bitcast i8* %2 to %"class.std::__1::__shared_weak_count"**
  %4 = load %"class.std::__1::__shared_weak_count"*, %"class.std::__1::__shared_weak_count"** %3, align 8
  %5 = icmp eq %"class.std::__1::__shared_weak_count"* %4, null
  br i1 %5, label %16, label %6

6:                                                ; preds = %1
  %7 = getelementptr inbounds %"class.std::__1::__shared_weak_count", %"class.std::__1::__shared_weak_count"* %4, i64 0, i32 0, i32 1
  %8 = atomicrmw add i64* %7, i64 -1 acq_rel
  %9 = icmp eq i64 %8, 0
  br i1 %9, label %10, label %16

10:                                               ; preds = %6
  %11 = getelementptr inbounds %"class.std::__1::__shared_weak_count", %"class.std::__1::__shared_weak_count"* %4, i64 0, i32 0
  %12 = bitcast %"class.std::__1::__shared_weak_count"* %4 to void (%"class.std::__1::__shared_count"*)***
  %13 = load void (%"class.std::__1::__shared_count"*)**, void (%"class.std::__1::__shared_count"*)*** %12, align 8
  %14 = getelementptr inbounds void (%"class.std::__1::__shared_count"*)*, void (%"class.std::__1::__shared_count"*)** %13, i64 2
  %15 = load void (%"class.std::__1::__shared_count"*)*, void (%"class.std::__1::__shared_count"*)** %14, align 8
  tail call void %15(%"class.std::__1::__shared_count"* %11) #14
  tail call void @_ZNSt3__119__shared_weak_count14__release_weakEv(%"class.std::__1::__shared_weak_count"* nonnull %4) #14
  br label %16

16:                                               ; preds = %1, %6, %10
  tail call void @_ZdlPv(i8* %0) #13
  ret void
}

; Function Attrs: nounwind ssp uwtable
define linkonce_odr hidden void @_ZNSt3__110__function16__policy_invokerIFvN8perfetto3ipc11AsyncResultINS2_6protos3gen25ChangeTraceConfigResponseEEEEE12__call_emptyEPKNS0_16__policy_storageEOS8_(%"union.std::__1::__function::__policy_storage"*, %"class.perfetto::ipc::AsyncResult.184"* dereferenceable(16)) #0 comdat align 2 {
  tail call void @_ZNSt3__125__throw_bad_function_callEv() #17
  unreachable
}

; Function Attrs: nounwind ssp uwtable
define linkonce_odr hidden void @_ZNSt3__110__function16__policy_invokerIFvN8perfetto3ipc11AsyncResultIN9protozero13CppMessageObjEEEEE11__call_implINS0_20__default_alloc_funcIZNS3_8DeferredINS2_6protos3gen25ChangeTraceConfigResponseEE4BindENS_8functionIFvNS4_ISF_EEEEEEUlS7_E_S8_EEEEvPKNS0_16__policy_storageEOS7_(%"union.std::__1::__function::__policy_storage"*, %"class.perfetto::ipc::AsyncResult"* dereferenceable(16)) #0 comdat align 2 {
  %3 = alloca %"class.perfetto::ipc::AsyncResult.184", align 8
  %4 = bitcast %"union.std::__1::__function::__policy_storage"* %0 to %"class.std::__1::__function::__default_alloc_func.535"**
  %5 = load %"class.std::__1::__function::__default_alloc_func.535"*, %"class.std::__1::__function::__default_alloc_func.535"** %4, align 8
  %6 = getelementptr inbounds %"class.perfetto::ipc::AsyncResult", %"class.perfetto::ipc::AsyncResult"* %1, i64 0, i32 0, i32 0, i32 0, i32 0
  %7 = bitcast %"class.perfetto::ipc::AsyncResult"* %1 to i64*
  %8 = load i64, i64* %7, align 8
  store %"class.protozero::CppMessageObj"* null, %"class.protozero::CppMessageObj"** %6, align 8
  %9 = getelementptr inbounds %"class.perfetto::ipc::AsyncResult", %"class.perfetto::ipc::AsyncResult"* %1, i64 0, i32 1
  %10 = bitcast i8* %9 to i64*
  %11 = load i64, i64* %10, align 8
  %12 = trunc i64 %11 to i8
  %13 = and i64 %11, -4294967296
  %14 = icmp ne i8 %12, 0
  %15 = zext i1 %14 to i64
  %16 = or i64 %13, %15
  %17 = or i64 %16, 2863311360
  %18 = bitcast %"class.perfetto::ipc::AsyncResult.184"* %3 to i8*
  call void @llvm.lifetime.start.p0i8(i64 16, i8* nonnull %18) #14
  %19 = getelementptr inbounds %"class.perfetto::ipc::AsyncResult.184", %"class.perfetto::ipc::AsyncResult.184"* %3, i64 0, i32 0, i32 0, i32 0, i32 0
  %20 = bitcast %"class.perfetto::ipc::AsyncResult.184"* %3 to i64*
  store i64 %8, i64* %20, align 8
  %21 = getelementptr inbounds %"class.perfetto::ipc::AsyncResult.184", %"class.perfetto::ipc::AsyncResult.184"* %3, i64 0, i32 1
  %22 = bitcast i8* %21 to i64*
  store i64 %17, i64* %22, align 8
  %23 = getelementptr inbounds %"class.std::__1::__function::__default_alloc_func.535", %"class.std::__1::__function::__default_alloc_func.535"* %5, i64 0, i32 0, i32 0, i32 0, i32 1, i32 0
  %24 = load void (%"union.std::__1::__function::__policy_storage"*, %"class.perfetto::ipc::AsyncResult.184"*)*, void (%"union.std::__1::__function::__policy_storage"*, %"class.perfetto::ipc::AsyncResult.184"*)** %23, align 8
  %25 = getelementptr inbounds %"class.std::__1::__function::__default_alloc_func.535", %"class.std::__1::__function::__default_alloc_func.535"* %5, i64 0, i32 0, i32 0, i32 0, i32 0
  call void %24(%"union.std::__1::__function::__policy_storage"* %25, %"class.perfetto::ipc::AsyncResult.184"* nonnull dereferenceable(16) %3) #14
  %26 = load %"class.perfetto::protos::gen::ChangeTraceConfigResponse"*, %"class.perfetto::protos::gen::ChangeTraceConfigResponse"** %19, align 8
  store %"class.perfetto::protos::gen::ChangeTraceConfigResponse"* null, %"class.perfetto::protos::gen::ChangeTraceConfigResponse"** %19, align 8
  %27 = icmp eq %"class.perfetto::protos::gen::ChangeTraceConfigResponse"* %26, null
  br i1 %27, label %33, label %28

28:                                               ; preds = %2
  %29 = bitcast %"class.perfetto::protos::gen::ChangeTraceConfigResponse"* %26 to void (%"class.perfetto::protos::gen::ChangeTraceConfigResponse"*)***
  %30 = load void (%"class.perfetto::protos::gen::ChangeTraceConfigResponse"*)**, void (%"class.perfetto::protos::gen::ChangeTraceConfigResponse"*)*** %29, align 8
  %31 = getelementptr inbounds void (%"class.perfetto::protos::gen::ChangeTraceConfigResponse"*)*, void (%"class.perfetto::protos::gen::ChangeTraceConfigResponse"*)** %30, i64 1
  %32 = load void (%"class.perfetto::protos::gen::ChangeTraceConfigResponse"*)*, void (%"class.perfetto::protos::gen::ChangeTraceConfigResponse"*)** %31, align 8
  call void %32(%"class.perfetto::protos::gen::ChangeTraceConfigResponse"* nonnull %26) #14
  br label %33

33:                                               ; preds = %2, %28
  call void @llvm.lifetime.end.p0i8(i64 16, i8* nonnull %18) #14
  ret void
}

; Function Attrs: nounwind ssp uwtable
define linkonce_odr hidden i8* @_ZNSt3__110__function8__policy13__large_cloneINS0_20__default_alloc_funcIZN8perfetto3ipc8DeferredINS4_6protos3gen25ChangeTraceConfigResponseEE4BindENS_8functionIFvNS5_11AsyncResultIS9_EEEEEEUlNSC_IN9protozero13CppMessageObjEEEE_FvSI_EEEEEPvPKv(i8*) #0 comdat align 2 {
  %2 = tail call i8* @_Znwm(i64 32) #13, !noalias !159
  tail call void @llvm.memcpy.p0i8.p0i8.i64(i8* nonnull align 8 %2, i8* align 8 %0, i64 16, i1 false) #14
  %3 = getelementptr inbounds i8, i8* %2, i64 16
  %4 = getelementptr inbounds i8, i8* %0, i64 16
  %5 = bitcast i8* %4 to i64*
  %6 = bitcast i8* %3 to i64*
  %7 = load i64, i64* %5, align 8
  store i64 %7, i64* %6, align 8
  %8 = getelementptr inbounds i8, i8* %2, i64 24
  %9 = bitcast i8* %8 to %"struct.std::__1::__function::__policy"**
  %10 = getelementptr inbounds i8, i8* %0, i64 24
  %11 = bitcast i8* %10 to %"struct.std::__1::__function::__policy"**
  %12 = load %"struct.std::__1::__function::__policy"*, %"struct.std::__1::__function::__policy"** %11, align 8
  store %"struct.std::__1::__function::__policy"* %12, %"struct.std::__1::__function::__policy"** %9, align 8
  %13 = getelementptr inbounds %"struct.std::__1::__function::__policy", %"struct.std::__1::__function::__policy"* %12, i64 0, i32 0
  %14 = load i8* (i8*)*, i8* (i8*)** %13, align 8
  %15 = icmp eq i8* (i8*)* %14, null
  br i1 %15, label %21, label %16

16:                                               ; preds = %1
  %17 = bitcast i8* %0 to i8**
  %18 = load i8*, i8** %17, align 8
  %19 = tail call i8* %14(i8* %18) #14
  %20 = bitcast i8* %2 to i8**
  store i8* %19, i8** %20, align 8
  br label %21

21:                                               ; preds = %1, %16
  ret i8* %2
}

; Function Attrs: nounwind ssp uwtable
define linkonce_odr hidden void @_ZNSt3__110__function8__policy15__large_destroyINS0_20__default_alloc_funcIZN8perfetto3ipc8DeferredINS4_6protos3gen25ChangeTraceConfigResponseEE4BindENS_8functionIFvNS5_11AsyncResultIS9_EEEEEEUlNSC_IN9protozero13CppMessageObjEEEE_FvSI_EEEEEvPv(i8*) #0 comdat align 2 {
  %2 = getelementptr inbounds i8, i8* %0, i64 24
  %3 = bitcast i8* %2 to %"struct.std::__1::__function::__policy"**
  %4 = load %"struct.std::__1::__function::__policy"*, %"struct.std::__1::__function::__policy"** %3, align 8
  %5 = getelementptr inbounds %"struct.std::__1::__function::__policy", %"struct.std::__1::__function::__policy"* %4, i64 0, i32 1
  %6 = load void (i8*)*, void (i8*)** %5, align 8
  %7 = icmp eq void (i8*)* %6, null
  br i1 %7, label %11, label %8

8:                                                ; preds = %1
  %9 = bitcast i8* %0 to i8**
  %10 = load i8*, i8** %9, align 8
  tail call void %6(i8* %10) #14
  br label %11

11:                                               ; preds = %1, %8
  tail call void @_ZdlPv(i8* %0) #13
  ret void
}

; Function Attrs: nounwind ssp uwtable
define internal void @"_ZNSt3__110__function16__policy_invokerIFvN8perfetto3ipc11AsyncResultINS2_6protos3gen25ChangeTraceConfigResponseEEEEE11__call_implINS0_20__default_alloc_funcIZNS2_21ConsumerIPCClientImpl17ChangeTraceConfigERKNS6_11TraceConfigEE3$_1S9_EEEEvPKNS0_16__policy_storageEOS8_"(%"union.std::__1::__function::__policy_storage"* nocapture readnone, %"class.perfetto::ipc::AsyncResult.184"* nocapture dereferenceable(16)) #0 align 2 {
  %3 = getelementptr inbounds %"class.perfetto::ipc::AsyncResult.184", %"class.perfetto::ipc::AsyncResult.184"* %1, i64 0, i32 0, i32 0, i32 0, i32 0
  %4 = load %"class.perfetto::protos::gen::ChangeTraceConfigResponse"*, %"class.perfetto::protos::gen::ChangeTraceConfigResponse"** %3, align 8
  store %"class.perfetto::protos::gen::ChangeTraceConfigResponse"* null, %"class.perfetto::protos::gen::ChangeTraceConfigResponse"** %3, align 8
  %5 = icmp eq %"class.perfetto::protos::gen::ChangeTraceConfigResponse"* %4, null
  br i1 %5, label %11, label %6

6:                                                ; preds = %2
  %7 = bitcast %"class.perfetto::protos::gen::ChangeTraceConfigResponse"* %4 to void (%"class.perfetto::protos::gen::ChangeTraceConfigResponse"*)***
  %8 = load void (%"class.perfetto::protos::gen::ChangeTraceConfigResponse"*)**, void (%"class.perfetto::protos::gen::ChangeTraceConfigResponse"*)*** %7, align 8
  %9 = getelementptr inbounds void (%"class.perfetto::protos::gen::ChangeTraceConfigResponse"*)*, void (%"class.perfetto::protos::gen::ChangeTraceConfigResponse"*)** %8, i64 1
  %10 = load void (%"class.perfetto::protos::gen::ChangeTraceConfigResponse"*)*, void (%"class.perfetto::protos::gen::ChangeTraceConfigResponse"*)** %9, align 8
  tail call void %10(%"class.perfetto::protos::gen::ChangeTraceConfigResponse"* nonnull %4) #14
  br label %11

11:                                               ; preds = %2, %6
  ret void
}

; Function Attrs: nounwind ssp uwtable
define linkonce_odr hidden void @_ZNSt3__110__function16__policy_invokerIFvN8perfetto3ipc11AsyncResultINS2_6protos3gen20StartTracingResponseEEEEE12__call_emptyEPKNS0_16__policy_storageEOS8_(%"union.std::__1::__function::__policy_storage"*, %"class.perfetto::ipc::AsyncResult.199"* dereferenceable(16)) #0 comdat align 2 {
  tail call void @_ZNSt3__125__throw_bad_function_callEv() #17
  unreachable
}

; Function Attrs: nounwind ssp uwtable
define linkonce_odr hidden void @_ZNSt3__110__function16__policy_invokerIFvN8perfetto3ipc11AsyncResultIN9protozero13CppMessageObjEEEEE11__call_implINS0_20__default_alloc_funcIZNS3_8DeferredINS2_6protos3gen20StartTracingResponseEE4BindENS_8functionIFvNS4_ISF_EEEEEEUlS7_E_S8_EEEEvPKNS0_16__policy_storageEOS7_(%"union.std::__1::__function::__policy_storage"*, %"class.perfetto::ipc::AsyncResult"* dereferenceable(16)) #0 comdat align 2 {
  %3 = alloca %"class.perfetto::ipc::AsyncResult.199", align 8
  %4 = bitcast %"union.std::__1::__function::__policy_storage"* %0 to %"class.std::__1::__function::__default_alloc_func.541"**
  %5 = load %"class.std::__1::__function::__default_alloc_func.541"*, %"class.std::__1::__function::__default_alloc_func.541"** %4, align 8
  %6 = getelementptr inbounds %"class.perfetto::ipc::AsyncResult", %"class.perfetto::ipc::AsyncResult"* %1, i64 0, i32 0, i32 0, i32 0, i32 0
  %7 = bitcast %"class.perfetto::ipc::AsyncResult"* %1 to i64*
  %8 = load i64, i64* %7, align 8
  store %"class.protozero::CppMessageObj"* null, %"class.protozero::CppMessageObj"** %6, align 8
  %9 = getelementptr inbounds %"class.perfetto::ipc::AsyncResult", %"class.perfetto::ipc::AsyncResult"* %1, i64 0, i32 1
  %10 = bitcast i8* %9 to i64*
  %11 = load i64, i64* %10, align 8
  %12 = trunc i64 %11 to i8
  %13 = and i64 %11, -4294967296
  %14 = icmp ne i8 %12, 0
  %15 = zext i1 %14 to i64
  %16 = or i64 %13, %15
  %17 = or i64 %16, 2863311360
  %18 = bitcast %"class.perfetto::ipc::AsyncResult.199"* %3 to i8*
  call void @llvm.lifetime.start.p0i8(i64 16, i8* nonnull %18) #14
  %19 = getelementptr inbounds %"class.perfetto::ipc::AsyncResult.199", %"class.perfetto::ipc::AsyncResult.199"* %3, i64 0, i32 0, i32 0, i32 0, i32 0
  %20 = bitcast %"class.perfetto::ipc::AsyncResult.199"* %3 to i64*
  store i64 %8, i64* %20, align 8
  %21 = getelementptr inbounds %"class.perfetto::ipc::AsyncResult.199", %"class.perfetto::ipc::AsyncResult.199"* %3, i64 0, i32 1
  %22 = bitcast i8* %21 to i64*
  store i64 %17, i64* %22, align 8
  %23 = getelementptr inbounds %"class.std::__1::__function::__default_alloc_func.541", %"class.std::__1::__function::__default_alloc_func.541"* %5, i64 0, i32 0, i32 0, i32 0, i32 1, i32 0
  %24 = load void (%"union.std::__1::__function::__policy_storage"*, %"class.perfetto::ipc::AsyncResult.199"*)*, void (%"union.std::__1::__function::__policy_storage"*, %"class.perfetto::ipc::AsyncResult.199"*)** %23, align 8
  %25 = getelementptr inbounds %"class.std::__1::__function::__default_alloc_func.541", %"class.std::__1::__function::__default_alloc_func.541"* %5, i64 0, i32 0, i32 0, i32 0, i32 0
  call void %24(%"union.std::__1::__function::__policy_storage"* %25, %"class.perfetto::ipc::AsyncResult.199"* nonnull dereferenceable(16) %3) #14
  %26 = load %"class.perfetto::protos::gen::StartTracingResponse"*, %"class.perfetto::protos::gen::StartTracingResponse"** %19, align 8
  store %"class.perfetto::protos::gen::StartTracingResponse"* null, %"class.perfetto::protos::gen::StartTracingResponse"** %19, align 8
  %27 = icmp eq %"class.perfetto::protos::gen::StartTracingResponse"* %26, null
  br i1 %27, label %33, label %28

28:                                               ; preds = %2
  %29 = bitcast %"class.perfetto::protos::gen::StartTracingResponse"* %26 to void (%"class.perfetto::protos::gen::StartTracingResponse"*)***
  %30 = load void (%"class.perfetto::protos::gen::StartTracingResponse"*)**, void (%"class.perfetto::protos::gen::StartTracingResponse"*)*** %29, align 8
  %31 = getelementptr inbounds void (%"class.perfetto::protos::gen::StartTracingResponse"*)*, void (%"class.perfetto::protos::gen::StartTracingResponse"*)** %30, i64 1
  %32 = load void (%"class.perfetto::protos::gen::StartTracingResponse"*)*, void (%"class.perfetto::protos::gen::StartTracingResponse"*)** %31, align 8
  call void %32(%"class.perfetto::protos::gen::StartTracingResponse"* nonnull %26) #14
  br label %33

33:                                               ; preds = %2, %28
  call void @llvm.lifetime.end.p0i8(i64 16, i8* nonnull %18) #14
  ret void
}

; Function Attrs: nounwind ssp uwtable
define linkonce_odr hidden i8* @_ZNSt3__110__function8__policy13__large_cloneINS0_20__default_alloc_funcIZN8perfetto3ipc8DeferredINS4_6protos3gen20StartTracingResponseEE4BindENS_8functionIFvNS5_11AsyncResultIS9_EEEEEEUlNSC_IN9protozero13CppMessageObjEEEE_FvSI_EEEEEPvPKv(i8*) #0 comdat align 2 {
  %2 = tail call i8* @_Znwm(i64 32) #13, !noalias !164
  tail call void @llvm.memcpy.p0i8.p0i8.i64(i8* nonnull align 8 %2, i8* align 8 %0, i64 16, i1 false) #14
  %3 = getelementptr inbounds i8, i8* %2, i64 16
  %4 = getelementptr inbounds i8, i8* %0, i64 16
  %5 = bitcast i8* %4 to i64*
  %6 = bitcast i8* %3 to i64*
  %7 = load i64, i64* %5, align 8
  store i64 %7, i64* %6, align 8
  %8 = getelementptr inbounds i8, i8* %2, i64 24
  %9 = bitcast i8* %8 to %"struct.std::__1::__function::__policy"**
  %10 = getelementptr inbounds i8, i8* %0, i64 24
  %11 = bitcast i8* %10 to %"struct.std::__1::__function::__policy"**
  %12 = load %"struct.std::__1::__function::__policy"*, %"struct.std::__1::__function::__policy"** %11, align 8
  store %"struct.std::__1::__function::__policy"* %12, %"struct.std::__1::__function::__policy"** %9, align 8
  %13 = getelementptr inbounds %"struct.std::__1::__function::__policy", %"struct.std::__1::__function::__policy"* %12, i64 0, i32 0
  %14 = load i8* (i8*)*, i8* (i8*)** %13, align 8
  %15 = icmp eq i8* (i8*)* %14, null
  br i1 %15, label %21, label %16

16:                                               ; preds = %1
  %17 = bitcast i8* %0 to i8**
  %18 = load i8*, i8** %17, align 8
  %19 = tail call i8* %14(i8* %18) #14
  %20 = bitcast i8* %2 to i8**
  store i8* %19, i8** %20, align 8
  br label %21

21:                                               ; preds = %1, %16
  ret i8* %2
}

; Function Attrs: nounwind ssp uwtable
define linkonce_odr hidden void @_ZNSt3__110__function8__policy15__large_destroyINS0_20__default_alloc_funcIZN8perfetto3ipc8DeferredINS4_6protos3gen20StartTracingResponseEE4BindENS_8functionIFvNS5_11AsyncResultIS9_EEEEEEUlNSC_IN9protozero13CppMessageObjEEEE_FvSI_EEEEEvPv(i8*) #0 comdat align 2 {
  %2 = getelementptr inbounds i8, i8* %0, i64 24
  %3 = bitcast i8* %2 to %"struct.std::__1::__function::__policy"**
  %4 = load %"struct.std::__1::__function::__policy"*, %"struct.std::__1::__function::__policy"** %3, align 8
  %5 = getelementptr inbounds %"struct.std::__1::__function::__policy", %"struct.std::__1::__function::__policy"* %4, i64 0, i32 1
  %6 = load void (i8*)*, void (i8*)** %5, align 8
  %7 = icmp eq void (i8*)* %6, null
  br i1 %7, label %11, label %8

8:                                                ; preds = %1
  %9 = bitcast i8* %0 to i8**
  %10 = load i8*, i8** %9, align 8
  tail call void %6(i8* %10) #14
  br label %11

11:                                               ; preds = %1, %8
  tail call void @_ZdlPv(i8* %0) #13
  ret void
}

; Function Attrs: nounwind ssp uwtable
define internal void @"_ZNSt3__110__function16__policy_invokerIFvN8perfetto3ipc11AsyncResultINS2_6protos3gen20StartTracingResponseEEEEE11__call_implINS0_20__default_alloc_funcIZNS2_21ConsumerIPCClientImpl12StartTracingEvE3$_2S9_EEEEvPKNS0_16__policy_storageEOS8_"(%"union.std::__1::__function::__policy_storage"* nocapture readnone, %"class.perfetto::ipc::AsyncResult.199"* nocapture dereferenceable(16)) #0 align 2 {
  %3 = getelementptr inbounds %"class.perfetto::ipc::AsyncResult.199", %"class.perfetto::ipc::AsyncResult.199"* %1, i64 0, i32 0, i32 0, i32 0, i32 0
  %4 = load %"class.perfetto::protos::gen::StartTracingResponse"*, %"class.perfetto::protos::gen::StartTracingResponse"** %3, align 8
  store %"class.perfetto::protos::gen::StartTracingResponse"* null, %"class.perfetto::protos::gen::StartTracingResponse"** %3, align 8
  %5 = icmp eq %"class.perfetto::protos::gen::StartTracingResponse"* %4, null
  br i1 %5, label %11, label %6

6:                                                ; preds = %2
  %7 = bitcast %"class.perfetto::protos::gen::StartTracingResponse"* %4 to void (%"class.perfetto::protos::gen::StartTracingResponse"*)***
  %8 = load void (%"class.perfetto::protos::gen::StartTracingResponse"*)**, void (%"class.perfetto::protos::gen::StartTracingResponse"*)*** %7, align 8
  %9 = getelementptr inbounds void (%"class.perfetto::protos::gen::StartTracingResponse"*)*, void (%"class.perfetto::protos::gen::StartTracingResponse"*)** %8, i64 1
  %10 = load void (%"class.perfetto::protos::gen::StartTracingResponse"*)*, void (%"class.perfetto::protos::gen::StartTracingResponse"*)** %9, align 8
  tail call void %10(%"class.perfetto::protos::gen::StartTracingResponse"* nonnull %4) #14
  br label %11

11:                                               ; preds = %2, %6
  ret void
}

; Function Attrs: nounwind ssp uwtable
define linkonce_odr hidden void @_ZNSt3__110__function16__policy_invokerIFvN8perfetto3ipc11AsyncResultINS2_6protos3gen22DisableTracingResponseEEEEE12__call_emptyEPKNS0_16__policy_storageEOS8_(%"union.std::__1::__function::__policy_storage"*, %"class.perfetto::ipc::AsyncResult.215"* dereferenceable(16)) #0 comdat align 2 {
  tail call void @_ZNSt3__125__throw_bad_function_callEv() #17
  unreachable
}

; Function Attrs: nounwind ssp uwtable
define linkonce_odr hidden void @_ZNSt3__110__function16__policy_invokerIFvN8perfetto3ipc11AsyncResultIN9protozero13CppMessageObjEEEEE11__call_implINS0_20__default_alloc_funcIZNS3_8DeferredINS2_6protos3gen22DisableTracingResponseEE4BindENS_8functionIFvNS4_ISF_EEEEEEUlS7_E_S8_EEEEvPKNS0_16__policy_storageEOS7_(%"union.std::__1::__function::__policy_storage"*, %"class.perfetto::ipc::AsyncResult"* dereferenceable(16)) #0 comdat align 2 {
  %3 = alloca %"class.perfetto::ipc::AsyncResult.215", align 8
  %4 = bitcast %"union.std::__1::__function::__policy_storage"* %0 to %"class.std::__1::__function::__default_alloc_func.546"**
  %5 = load %"class.std::__1::__function::__default_alloc_func.546"*, %"class.std::__1::__function::__default_alloc_func.546"** %4, align 8
  %6 = getelementptr inbounds %"class.perfetto::ipc::AsyncResult", %"class.perfetto::ipc::AsyncResult"* %1, i64 0, i32 0, i32 0, i32 0, i32 0
  %7 = bitcast %"class.perfetto::ipc::AsyncResult"* %1 to i64*
  %8 = load i64, i64* %7, align 8
  store %"class.protozero::CppMessageObj"* null, %"class.protozero::CppMessageObj"** %6, align 8
  %9 = getelementptr inbounds %"class.perfetto::ipc::AsyncResult", %"class.perfetto::ipc::AsyncResult"* %1, i64 0, i32 1
  %10 = bitcast i8* %9 to i64*
  %11 = load i64, i64* %10, align 8
  %12 = trunc i64 %11 to i8
  %13 = and i64 %11, -4294967296
  %14 = icmp ne i8 %12, 0
  %15 = zext i1 %14 to i64
  %16 = or i64 %13, %15
  %17 = or i64 %16, 2863311360
  %18 = bitcast %"class.perfetto::ipc::AsyncResult.215"* %3 to i8*
  call void @llvm.lifetime.start.p0i8(i64 16, i8* nonnull %18) #14
  %19 = getelementptr inbounds %"class.perfetto::ipc::AsyncResult.215", %"class.perfetto::ipc::AsyncResult.215"* %3, i64 0, i32 0, i32 0, i32 0, i32 0
  %20 = bitcast %"class.perfetto::ipc::AsyncResult.215"* %3 to i64*
  store i64 %8, i64* %20, align 8
  %21 = getelementptr inbounds %"class.perfetto::ipc::AsyncResult.215", %"class.perfetto::ipc::AsyncResult.215"* %3, i64 0, i32 1
  %22 = bitcast i8* %21 to i64*
  store i64 %17, i64* %22, align 8
  %23 = getelementptr inbounds %"class.std::__1::__function::__default_alloc_func.546", %"class.std::__1::__function::__default_alloc_func.546"* %5, i64 0, i32 0, i32 0, i32 0, i32 1, i32 0
  %24 = load void (%"union.std::__1::__function::__policy_storage"*, %"class.perfetto::ipc::AsyncResult.215"*)*, void (%"union.std::__1::__function::__policy_storage"*, %"class.perfetto::ipc::AsyncResult.215"*)** %23, align 8
