; ModuleID = 'gen/services/network/public/mojom/cookie_manager.mojom-blink.cc'
source_filename = "gen/services/network/public/mojom/cookie_manager.mojom-blink.cc"
target datalayout = "e-m:e-i64:64-f80:128-n8:16:32:64-S128"
target triple = "x86_64-unknown-linux-gnu"

module asm ".symver exp, exp@GLIBC_2.2.5"
module asm ".symver exp2, exp2@GLIBC_2.2.5"
module asm ".symver exp2f, exp2f@GLIBC_2.2.5"
module asm ".symver expf, expf@GLIBC_2.2.5"
module asm ".symver lgamma, lgamma@GLIBC_2.2.5"
module asm ".symver lgammaf, lgammaf@GLIBC_2.2.5"
module asm ".symver lgammal, lgammal@GLIBC_2.2.5"
module asm ".symver log, log@GLIBC_2.2.5"
module asm ".symver log2, log2@GLIBC_2.2.5"
module asm ".symver log2f, log2f@GLIBC_2.2.5"
module asm ".symver logf, logf@GLIBC_2.2.5"
module asm ".symver pow, pow@GLIBC_2.2.5"
module asm ".symver powf, powf@GLIBC_2.2.5"

%"struct.std::__1::pair.135" = type { i32, %"struct.mojo::internal::GenericValidationInfo" }
%"struct.mojo::internal::GenericValidationInfo" = type { i1 (i8*, %"class.mojo::internal::ValidationContext"*)*, i1 (i8*, %"class.mojo::internal::ValidationContext"*)* }
%"class.mojo::internal::ValidationContext" = type <{ %"class.mojo::Message"*, i8*, i32, [4 x i8], i64, i64, i32, i32, i32, i32, i32, [4 x i8] }>
%"class.mojo::Message" = type { %"class.mojo::ScopedHandleBase", %"class.mojo::internal::Buffer", %"class.std::__1::vector.56", %"class.std::__1::vector.64", %"class.mojo::ConnectionGroup::Ref"*, i8, i8, i8* }
%"class.mojo::ScopedHandleBase" = type { %"class.mojo::MessageHandle" }
%"class.mojo::MessageHandle" = type { i64 }
%"class.mojo::internal::Buffer" = type { %"class.mojo::MessageHandle", i64, i8*, i64, i64 }
%"class.std::__1::vector.56" = type { %"class.std::__1::__vector_base.57" }
%"class.std::__1::__vector_base.57" = type { %"class.mojo::ScopedHandleBase.58"*, %"class.mojo::ScopedHandleBase.58"*, %"class.std::__1::__compressed_pair.59" }
%"class.mojo::ScopedHandleBase.58" = type { %"class.mojo::Handle" }
%"class.mojo::Handle" = type { i32 }
%"class.std::__1::__compressed_pair.59" = type { %"struct.std::__1::__compressed_pair_elem.60" }
%"struct.std::__1::__compressed_pair_elem.60" = type { %"class.mojo::ScopedHandleBase.58"* }
%"class.std::__1::vector.64" = type { %"class.std::__1::__vector_base.65" }
%"class.std::__1::__vector_base.65" = type { %"class.mojo::ScopedInterfaceEndpointHandle"*, %"class.mojo::ScopedInterfaceEndpointHandle"*, %"class.std::__1::__compressed_pair.67" }
%"class.mojo::ScopedInterfaceEndpointHandle" = type { %class.scoped_refptr.66 }
%class.scoped_refptr.66 = type { %"class.mojo::ScopedInterfaceEndpointHandle::State"* }
%"class.mojo::ScopedInterfaceEndpointHandle::State" = type opaque
%"class.std::__1::__compressed_pair.67" = type { %"struct.std::__1::__compressed_pair_elem.68" }
%"struct.std::__1::__compressed_pair_elem.68" = type { %"class.mojo::ScopedInterfaceEndpointHandle"* }
%"class.mojo::ConnectionGroup::Ref" = type { i32, %class.scoped_refptr.72 }
%class.scoped_refptr.72 = type { %"class.mojo::ConnectionGroup"* }
%"class.mojo::ConnectionGroup" = type <{ i32 (...)**, %"class.base::RefCountedThreadSafe", [4 x i8], %"class.base::RepeatingCallback", %class.scoped_refptr.80, %"class.mojo::ConnectionGroup::Ref", %"struct.std::__1::atomic", [4 x i8] }>
%"class.base::RefCountedThreadSafe" = type { %"class.base::subtle::RefCountedThreadSafeBase" }
%"class.base::subtle::RefCountedThreadSafeBase" = type { %"class.base::AtomicRefCount" }
%"class.base::AtomicRefCount" = type { %"struct.std::__1::atomic.73" }
%"struct.std::__1::atomic.73" = type { %"struct.std::__1::__atomic_base.74" }
%"struct.std::__1::__atomic_base.74" = type { %"struct.std::__1::__atomic_base.75" }
%"struct.std::__1::__atomic_base.75" = type { %"struct.std::__1::__cxx_atomic_impl.76" }
%"struct.std::__1::__cxx_atomic_impl.76" = type { %"struct.std::__1::__cxx_atomic_base_impl.77" }
%"struct.std::__1::__cxx_atomic_base_impl.77" = type { i32 }
%"class.base::RepeatingCallback" = type { %"class.base::internal::CallbackBaseCopyable" }
%"class.base::internal::CallbackBaseCopyable" = type { %"class.base::internal::CallbackBase" }
%"class.base::internal::CallbackBase" = type { %class.scoped_refptr.78 }
%class.scoped_refptr.78 = type { %"class.base::internal::BindStateBase"* }
%"class.base::internal::BindStateBase" = type { %"class.base::RefCountedThreadSafe.79", void ()*, void (%"class.base::internal::BindStateBase"*)*, i1 (%"class.base::internal::BindStateBase"*, i32)* }
%"class.base::RefCountedThreadSafe.79" = type { %"class.base::subtle::RefCountedThreadSafeBase" }
%class.scoped_refptr.80 = type { %"class.base::SequencedTaskRunner"* }
%"class.base::SequencedTaskRunner" = type { %"class.base::TaskRunner.base", [4 x i8] }
%"class.base::TaskRunner.base" = type <{ i32 (...)**, %"class.base::RefCountedThreadSafe.81" }>
%"class.base::RefCountedThreadSafe.81" = type { %"class.base::subtle::RefCountedThreadSafeBase" }
%"struct.std::__1::atomic" = type { %"struct.std::__1::__atomic_base" }
%"struct.std::__1::__atomic_base" = type { %"struct.std::__1::__atomic_base.8" }
%"struct.std::__1::__atomic_base.8" = type { %"struct.std::__1::__cxx_atomic_impl" }
%"struct.std::__1::__cxx_atomic_impl" = type { %"struct.std::__1::__cxx_atomic_base_impl" }
%"struct.std::__1::__cxx_atomic_base_impl" = type { i32 }
%"class.WTF::String" = type { %class.scoped_refptr }
%class.scoped_refptr = type { %"class.WTF::StringImpl"* }
%"class.WTF::StringImpl" = type { i32, i32, %"struct.std::__1::atomic" }
%"class.network::mojom::blink::CookieManagerParams" = type <{ i8, [7 x i8], %"class.WTF::Vector", %"class.WTF::Vector.46", %"class.WTF::Vector.46", %"class.WTF::Vector.46", i8, [7 x i8], %"class.WTF::Vector", %"class.WTF::Vector", i32, [4 x i8] }>
%"class.WTF::Vector.46" = type { %"class.WTF::VectorBuffer.47" }
%"class.WTF::VectorBuffer.47" = type { %"class.WTF::VectorBufferBase.48" }
%"class.WTF::VectorBufferBase.48" = type { %"class.WTF::String"*, i32, i32 }
%"class.WTF::Vector" = type { %"class.WTF::VectorBuffer" }
%"class.WTF::VectorBuffer" = type { %"class.WTF::VectorBufferBase" }
%"class.WTF::VectorBufferBase" = type { %"class.mojo::StructPtr"*, i32, i32 }
%"class.mojo::StructPtr" = type { %"class.std::__1::unique_ptr" }
%"class.std::__1::unique_ptr" = type { %"class.std::__1::__compressed_pair" }
%"class.std::__1::__compressed_pair" = type { %"struct.std::__1::__compressed_pair_elem" }
%"struct.std::__1::__compressed_pair_elem" = type { %"class.content_settings::mojom::blink::ContentSettingPatternSource"* }
%"class.content_settings::mojom::blink::ContentSettingPatternSource" = type <{ %"class.mojo::StructPtr.0", %"class.mojo::StructPtr.0", %"class.base::Value", %"class.base::Time", %"class.WTF::String", i8, [7 x i8] }>
%"class.mojo::StructPtr.0" = type { %"class.std::__1::unique_ptr.1" }
%"class.std::__1::unique_ptr.1" = type { %"class.std::__1::__compressed_pair.2" }
%"class.std::__1::__compressed_pair.2" = type { %"struct.std::__1::__compressed_pair_elem.3" }
%"struct.std::__1::__compressed_pair_elem.3" = type { %"class.content_settings::mojom::blink::ContentSettingsPattern"* }
%"class.content_settings::mojom::blink::ContentSettingsPattern" = type <{ %"class.mojo::StructPtr.4", i8, [7 x i8] }>
%"class.mojo::StructPtr.4" = type { %"class.std::__1::unique_ptr.5" }
%"class.std::__1::unique_ptr.5" = type { %"class.std::__1::__compressed_pair.6" }
%"class.std::__1::__compressed_pair.6" = type { %"struct.std::__1::__compressed_pair_elem.7" }
%"struct.std::__1::__compressed_pair_elem.7" = type { %"class.content_settings::mojom::blink::PatternParts"* }
%"class.content_settings::mojom::blink::PatternParts" = type <{ %"class.WTF::String", i8, [7 x i8], %"class.WTF::String", i8, [7 x i8], %"class.WTF::String", i8, [7 x i8], %"class.WTF::String", i8, [7 x i8] }>
%"class.base::Value" = type { %"class.absl::variant" }
%"class.absl::variant" = type { %"class.absl::variant_internal::VariantCopyAssignBaseNontrivial" }
%"class.absl::variant_internal::VariantCopyAssignBaseNontrivial" = type { %"class.absl::variant_internal::VariantMoveAssignBaseNontrivial" }
%"class.absl::variant_internal::VariantMoveAssignBaseNontrivial" = type { %"class.absl::variant_internal::VariantCopyBaseNontrivial" }
%"class.absl::variant_internal::VariantCopyBaseNontrivial" = type { %"class.absl::variant_internal::VariantMoveBaseNontrivial" }
%"class.absl::variant_internal::VariantMoveBaseNontrivial" = type { %"class.absl::variant_internal::VariantStateBaseDestructorNontrivial" }
%"class.absl::variant_internal::VariantStateBaseDestructorNontrivial" = type { %"class.absl::variant_internal::VariantStateBase" }
%"class.absl::variant_internal::VariantStateBase" = type { %"union.absl::variant_internal::DestructibleUnionImpl", i64 }
%"union.absl::variant_internal::DestructibleUnionImpl" = type { %"union.absl::variant_internal::DestructibleUnionImpl.13" }
%"union.absl::variant_internal::DestructibleUnionImpl.13" = type { %"union.absl::variant_internal::DestructibleUnionImpl.14" }
%"union.absl::variant_internal::DestructibleUnionImpl.14" = type { %"union.absl::variant_internal::DestructibleUnionImpl.15" }
%"union.absl::variant_internal::DestructibleUnionImpl.15" = type { %"union.absl::variant_internal::DestructibleUnionImpl.16" }
%"union.absl::variant_internal::DestructibleUnionImpl.16" = type { %"class.std::__1::basic_string" }
%"class.std::__1::basic_string" = type { %"class.std::__1::__compressed_pair.17" }
%"class.std::__1::__compressed_pair.17" = type { %"struct.std::__1::__compressed_pair_elem.18" }
%"struct.std::__1::__compressed_pair_elem.18" = type { %"struct.std::__1::basic_string<char, std::__1::char_traits<char>, std::__1::allocator<char> >::__rep" }
%"struct.std::__1::basic_string<char, std::__1::char_traits<char>, std::__1::allocator<char> >::__rep" = type { %union.anon }
%union.anon = type { %"struct.std::__1::basic_string<char, std::__1::char_traits<char>, std::__1::allocator<char> >::__long" }
%"struct.std::__1::basic_string<char, std::__1::char_traits<char>, std::__1::allocator<char> >::__long" = type { i8*, i64, i64 }
%"class.base::Time" = type { %"class.base::time_internal::TimeBase" }
%"class.base::time_internal::TimeBase" = type { i64 }
%"class.network::mojom::blink::CookieSameSiteContext" = type { i32, i32 }
%"class.network::mojom::blink::CookieOptions" = type <{ i8, [3 x i8], %"class.mojo::InlinedStructPtr", i8, i8, [2 x i8], i32, i32, i8, [3 x i8] }>
%"class.mojo::InlinedStructPtr" = type { %"class.network::mojom::blink::CookieSameSiteContext", i32 }
%"class.network::mojom::blink::CanonicalCookie" = type { %"class.WTF::String", %"class.WTF::String", %"class.WTF::String", %"class.WTF::String", %"class.base::Time", %"class.base::Time", %"class.base::Time", i8, i8, i32, i32, i32, i8, i32 }
%"class.network::mojom::blink::CookieInclusionStatus" = type { i32, i32 }
%"class.network::mojom::blink::CookieAndLineWithAccessResult" = type { %"class.absl::optional", %"class.WTF::String", %"class.mojo::StructPtr.83" }
%"class.absl::optional" = type { %"class.absl::optional_internal::optional_data" }
%"class.absl::optional_internal::optional_data" = type { %"class.absl::optional_internal::optional_data_base" }
%"class.absl::optional_internal::optional_data_base" = type { %"class.absl::optional_internal::optional_data_dtor_base" }
%"class.absl::optional_internal::optional_data_dtor_base" = type { i8, %union.anon.82 }
%union.anon.82 = type { %"class.net::CanonicalCookie" }
%"class.net::CanonicalCookie" = type { %"class.std::__1::basic_string", %"class.std::__1::basic_string", %"class.std::__1::basic_string", %"class.std::__1::basic_string", %"class.base::Time", %"class.base::Time", %"class.base::Time", i8, i8, i32, i32, i8, i32, i32 }
%"class.mojo::StructPtr.83" = type { %"class.std::__1::unique_ptr.84" }
%"class.std::__1::unique_ptr.84" = type { %"class.std::__1::__compressed_pair.85" }
%"class.std::__1::__compressed_pair.85" = type { %"struct.std::__1::__compressed_pair_elem.86" }
%"struct.std::__1::__compressed_pair_elem.86" = type { %"class.network::mojom::blink::CookieAccessResult"* }
%"class.network::mojom::blink::CookieAccessResult" = type <{ i32, i32, %"class.mojo::InlinedStructPtr.87", i8, [3 x i8] }>
%"class.mojo::InlinedStructPtr.87" = type { %"class.network::mojom::blink::CookieInclusionStatus", i32 }
%"class.network::mojom::blink::CookieOrLineWithAccessResult" = type { %"class.mojo::StructPtr.91", %"class.mojo::StructPtr.83" }
%"class.mojo::StructPtr.91" = type { %"class.std::__1::unique_ptr.92" }
%"class.std::__1::unique_ptr.92" = type { %"class.std::__1::__compressed_pair.93" }
%"class.std::__1::__compressed_pair.93" = type { %"struct.std::__1::__compressed_pair_elem.94" }
%"struct.std::__1::__compressed_pair_elem.94" = type { %"class.network::mojom::blink::CookieOrLine"* }
%"class.network::mojom::blink::CookieOrLine" = type { i32, %"union.network::mojom::blink::CookieOrLine::Union_" }
%"union.network::mojom::blink::CookieOrLine::Union_" = type { %"class.net::CanonicalCookie"* }
%"class.network::mojom::blink::CookieWithAccessResult" = type { %"class.net::CanonicalCookie", %"class.mojo::StructPtr.83" }
%"class.network::mojom::blink::CookieChangeInfo" = type <{ %"class.net::CanonicalCookie", %"class.mojo::StructPtr.83", i32, [4 x i8] }>
%"class.network::mojom::blink::CookieDeletionFilter" = type <{ %"class.absl::optional.98", %"class.absl::optional.98", %"class.absl::optional.103", %"class.absl::optional.103", %"class.WTF::String", %"class.WTF::String", %"class.absl::optional.108", i32, [4 x i8] }>
%"class.absl::optional.98" = type { %"class.absl::optional_internal::optional_data.99" }
%"class.absl::optional_internal::optional_data.99" = type { %"class.absl::optional_internal::optional_data_base.100" }
%"class.absl::optional_internal::optional_data_base.100" = type { %"class.absl::optional_internal::optional_data_dtor_base.101" }
%"class.absl::optional_internal::optional_data_dtor_base.101" = type { i8, %union.anon.102 }
%union.anon.102 = type { %"class.base::Time" }
%"class.absl::optional.103" = type { %"class.absl::optional_internal::optional_data.104" }
%"class.absl::optional_internal::optional_data.104" = type { %"class.absl::optional_internal::optional_data_base.105" }
%"class.absl::optional_internal::optional_data_base.105" = type { %"class.absl::optional_internal::optional_data_dtor_base.106" }
%"class.absl::optional_internal::optional_data_dtor_base.106" = type { i8, %union.anon.107 }
%union.anon.107 = type { %"class.WTF::Vector.46" }
%"class.absl::optional.108" = type { %"class.absl::optional_internal::optional_data.109" }
%"class.absl::optional_internal::optional_data.109" = type { %"class.absl::optional_internal::optional_data_base.110" }
%"class.absl::optional_internal::optional_data_base.110" = type { %"class.absl::optional_internal::optional_data_dtor_base.111" }
%"class.absl::optional_internal::optional_data_dtor_base.111" = type { i8, %union.anon.112 }
%union.anon.112 = type { %"class.blink::KURL" }
%"class.blink::KURL" = type { i8, i8, %"class.WTF::String", %"struct.url::Parsed", %"class.WTF::String", %"class.std::__1::unique_ptr.113" }
%"struct.url::Parsed" = type { %"struct.url::Component", %"struct.url::Component", %"struct.url::Component", %"struct.url::Component", %"struct.url::Component", %"struct.url::Component", %"struct.url::Component", %"struct.url::Component", i8, %"struct.url::Parsed"* }
%"struct.url::Component" = type { i32, i32 }
%"class.std::__1::unique_ptr.113" = type { %"class.std::__1::__compressed_pair.114" }
%"class.std::__1::__compressed_pair.114" = type { %"struct.std::__1::__compressed_pair_elem.115" }
%"struct.std::__1::__compressed_pair_elem.115" = type { %"class.blink::KURL"* }
%"class.network::mojom::blink::CookieChangeListenerProxy" = type { %"class.network::mojom::blink::CookieChangeListener", %"class.mojo::MessageReceiverWithResponder"* }
%"class.network::mojom::blink::CookieChangeListener" = type { i32 (...)** }
%"class.mojo::MessageReceiverWithResponder" = type { %"class.mojo::MessageReceiver" }
%"class.mojo::MessageReceiver" = type { i32 (...)** }
%"class.network::mojom::blink::CookieManagerProxy" = type { %"class.network::mojom::blink::CookieManager", %"class.mojo::MessageReceiverWithResponder"* }
%"class.network::mojom::blink::CookieManager" = type { i32 (...)** }
%"class.perfetto::TracedValue" = type <{ %"class.perfetto::protos::pbzero::DebugAnnotation"*, %"class.perfetto::internal::CheckedScope", [7 x i8] }>
%"class.perfetto::protos::pbzero::DebugAnnotation" = type { %"class.protozero::Message.base", [7 x i8] }
%"class.protozero::Message.base" = type <{ %"class.protozero::ScatteredStreamWriter"*, %"class.protozero::MessageArena"*, %"class.protozero::Message"*, i8*, i32, i32, i8 }>
%"class.protozero::ScatteredStreamWriter" = type { %"class.protozero::ScatteredStreamWriter::Delegate"*, %"struct.protozero::ContiguousMemoryRange", i8*, i64 }
%"class.protozero::ScatteredStreamWriter::Delegate" = type { i32 (...)** }
%"struct.protozero::ContiguousMemoryRange" = type { i8*, i8* }
%"class.protozero::MessageArena" = type { %"class.std::__1::list" }
%"class.std::__1::list" = type { %"class.std::__1::__list_imp" }
%"class.std::__1::__list_imp" = type { %"struct.std::__1::__list_node_base", %"class.std::__1::__compressed_pair.51" }
%"struct.std::__1::__list_node_base" = type { %"struct.std::__1::__list_node_base"*, %"struct.std::__1::__list_node_base"* }
%"class.std::__1::__compressed_pair.51" = type { %"struct.std::__1::__compressed_pair_elem.52" }
%"struct.std::__1::__compressed_pair_elem.52" = type { i64 }
%"class.protozero::Message" = type <{ %"class.protozero::ScatteredStreamWriter"*, %"class.protozero::MessageArena"*, %"class.protozero::Message"*, i8*, i32, i32, i8, [7 x i8] }>
%"class.perfetto::internal::CheckedScope" = type { i8 }
%"class.perfetto::TracedArray" = type <{ %"class.perfetto::protos::pbzero::DebugAnnotation"*, %"class.perfetto::internal::CheckedScope", [7 x i8] }>
%"class.perfetto::TracedDictionary" = type <{ %"class.protozero::Message"*, i32, %"class.perfetto::internal::CheckedScope", [3 x i8] }>
%"struct.std::__1::basic_string<char, std::__1::char_traits<char>, std::__1::allocator<char> >::__short" = type { [23 x i8], %struct.anon }
%struct.anon = type { i8 }
%"class.mojo::StructPtr.119" = type { %"class.std::__1::unique_ptr.120" }
%"class.std::__1::unique_ptr.120" = type { %"class.std::__1::__compressed_pair.121" }
%"class.std::__1::__compressed_pair.121" = type { %"struct.std::__1::__compressed_pair_elem.122" }
%"struct.std::__1::__compressed_pair_elem.122" = type { %"class.network::mojom::blink::CookieChangeInfo"* }
%"class.mojo::internal::MessageFragment.126" = type { %"class.mojo::Message"*, i64 }
%"class.network::mojom::internal::CookieChangeListener_OnCookieChange_Params_Data" = type { %"struct.mojo::internal::StructHeader", %"struct.mojo::internal::Pointer" }
%"struct.mojo::internal::StructHeader" = type { i32, i32 }
%"struct.mojo::internal::Pointer" = type { i64 }
%"class.network::mojom::internal::CookieChangeInfo_Data" = type { %"struct.mojo::internal::StructHeader", %"struct.mojo::internal::Pointer.127", %"struct.mojo::internal::Pointer.128", i32, [4 x i8] }
%"struct.mojo::internal::Pointer.127" = type { i64 }
%"struct.mojo::internal::Pointer.128" = type { i64 }
%"class.base::TaskAnnotator::ScopedSetIpcHash" = type { %"class.base::TaskAnnotator::ScopedSetIpcHash"*, i32, i8* }
%"struct.mojo::internal::MessageHeader" = type { %"struct.mojo::internal::StructHeader", i32, i32, i32, i32 }
%"class.mojo::MessageReceiverWithStatus" = type { %"class.mojo::MessageReceiver" }
%"class.network::mojom::blink::CookieChangeListenerRequestValidator" = type { %"class.mojo::MessageReceiver" }
%"class.base::OnceCallback" = type { %"class.base::internal::CallbackBase" }
%"class.network::mojom::internal::CookieManager_GetAllCookies_Params_Data" = type { %"struct.mojo::internal::StructHeader" }
%"class.base::OnceCallback.143" = type { %"class.base::internal::CallbackBase" }
%"class.network::mojom::internal::CookieManager_GetAllCookiesWithAccessSemantics_Params_Data" = type { %"struct.mojo::internal::StructHeader" }
%"class.mojo::StructPtr.145" = type { %"class.std::__1::unique_ptr.146" }
%"class.std::__1::unique_ptr.146" = type { %"class.std::__1::__compressed_pair.147" }
%"class.std::__1::__compressed_pair.147" = type { %"struct.std::__1::__compressed_pair_elem.148" }
%"struct.std::__1::__compressed_pair_elem.148" = type { %"class.network::mojom::blink::CookieOptions"* }
%"class.base::OnceCallback.152" = type { %"class.base::internal::CallbackBase" }
%"class.mojo::internal::MessageFragment.154" = type { %"class.mojo::Message"*, i64 }
%"class.mojo::internal::MessageFragment.158" = type { %"class.mojo::Message"*, i64 }
%"class.network::mojom::internal::CookieManager_GetCookieList_Params_Data" = type { %"struct.mojo::internal::StructHeader", %"struct.mojo::internal::Pointer.155", %"struct.mojo::internal::Pointer.156" }
%"struct.mojo::internal::Pointer.155" = type { i64 }
%"struct.mojo::internal::Pointer.156" = type { i64 }
%"class.url::mojom::internal::Url_Data" = type { %"struct.mojo::internal::StructHeader", %"struct.mojo::internal::Pointer.157" }
%"struct.mojo::internal::Pointer.157" = type { i64 }
%"class.network::mojom::internal::CookieOptions_Data" = type { %"struct.mojo::internal::StructHeader", i8, [3 x i8], i32, %"struct.mojo::internal::Pointer.159", i32, [4 x i8] }
%"struct.mojo::internal::Pointer.159" = type { i64 }
%"class.base::OnceCallback.160" = type { %"class.base::internal::CallbackBase" }
%"class.mojo::internal::MessageFragment.162" = type { %"class.mojo::Message"*, i64 }
%"class.network::mojom::internal::CookieManager_SetCanonicalCookie_Params_Data" = type { %"struct.mojo::internal::StructHeader", %"struct.mojo::internal::Pointer.127", %"struct.mojo::internal::Pointer.155", %"struct.mojo::internal::Pointer.156" }
%"class.network::mojom::internal::CanonicalCookie_Data" = type { %"struct.mojo::internal::StructHeader", %"struct.mojo::internal::Pointer.157", %"struct.mojo::internal::Pointer.157", %"struct.mojo::internal::Pointer.157", %"struct.mojo::internal::Pointer.157", %"struct.mojo::internal::Pointer.163", %"struct.mojo::internal::Pointer.163", %"struct.mojo::internal::Pointer.163", i8, [3 x i8], i32, i32, i32, i32, [4 x i8] }
%"struct.mojo::internal::Pointer.163" = type { i64 }
%"class.base::OnceCallback.164" = type { %"class.base::internal::CallbackBase" }
%"class.network::mojom::internal::CookieManager_DeleteCanonicalCookie_Params_Data" = type { %"struct.mojo::internal::StructHeader", %"struct.mojo::internal::Pointer.127" }
%"class.mojo::StructPtr.166" = type { %"class.std::__1::unique_ptr.167" }
%"class.std::__1::unique_ptr.167" = type { %"class.std::__1::__compressed_pair.168" }
%"class.std::__1::__compressed_pair.168" = type { %"struct.std::__1::__compressed_pair_elem.169" }
%"struct.std::__1::__compressed_pair_elem.169" = type { %"class.network::mojom::blink::CookieDeletionFilter"* }
%"class.base::OnceCallback.173" = type { %"class.base::internal::CallbackBase" }
%"class.mojo::internal::MessageFragment.175" = type { %"class.mojo::Message"*, i64 }
%"class.network::mojom::internal::CookieManager_DeleteCookies_Params_Data" = type { %"struct.mojo::internal::StructHeader", %"struct.mojo::internal::Pointer.176" }
%"struct.mojo::internal::Pointer.176" = type { i64 }
%"class.network::mojom::internal::CookieDeletionFilter_Data" = type { %"struct.mojo::internal::StructHeader", %"struct.mojo::internal::Pointer.163", %"struct.mojo::internal::Pointer.163", %"struct.mojo::internal::Pointer.177", %"struct.mojo::internal::Pointer.177", %"struct.mojo::internal::Pointer.157", %"struct.mojo::internal::Pointer.157", %"struct.mojo::internal::Pointer.155", i32, [4 x i8] }
%"struct.mojo::internal::Pointer.177" = type { i64 }
%"class.network::mojom::internal::CookieManager_DeleteSessionOnlyCookies_Params_Data" = type { %"struct.mojo::internal::StructHeader" }
%"class.mojo::PendingRemote" = type { %"struct.mojo::internal::PendingRemoteState" }
%"struct.mojo::internal::PendingRemoteState" = type { %"class.mojo::ScopedHandleBase.179", i32 }
%"class.mojo::ScopedHandleBase.179" = type { %"class.mojo::MessagePipeHandle" }
%"class.mojo::MessagePipeHandle" = type { %"class.mojo::Handle" }
%"class.WTF::StringUTF8Adaptor" = type <{ %"class.std::__1::basic_string", i8*, i32, [4 x i8] }>
%"class.network::mojom::internal::CookieManager_AddCookieChangeListener_Params_Data" = type { %"struct.mojo::internal::StructHeader", %"struct.mojo::internal::Pointer.155", %"struct.mojo::internal::Pointer.157", %"struct.mojo::internal::Interface_Data" }
%"struct.mojo::internal::Interface_Data" = type { %"struct.mojo::internal::Handle_Data", i32 }
%"struct.mojo::internal::Handle_Data" = type { i32 }
%"class.mojo::internal::Array_Data" = type { %"struct.mojo::internal::ArrayHeader" }
%"struct.mojo::internal::ArrayHeader" = type { i32, i32 }
%"class.network::mojom::internal::CookieManager_AddGlobalChangeListener_Params_Data" = type { %"struct.mojo::internal::StructHeader", %"struct.mojo::internal::Interface_Data" }
%"class.mojo::PendingReceiver" = type { %"struct.mojo::internal::PendingReceiverState" }
%"struct.mojo::internal::PendingReceiverState" = type { %"class.mojo::ScopedHandleBase.179", %"class.mojo::ConnectionGroup::Ref" }
%"class.network::mojom::internal::CookieManager_CloneInterface_Params_Data" = type { %"struct.mojo::internal::StructHeader", %"struct.mojo::internal::Handle_Data", [4 x i8] }
%"class.base::OnceCallback.184" = type { %"class.base::internal::CallbackBase" }
%"class.network::mojom::internal::CookieManager_FlushCookieStore_Params_Data" = type { %"struct.mojo::internal::StructHeader" }
%"class.network::mojom::internal::CookieManager_AllowFileSchemeCookies_Params_Data" = type { %"struct.mojo::internal::StructHeader", i8, [7 x i8] }
%"class.mojo::internal::MessageFragment.407" = type { %"class.mojo::Message"*, i64 }
%"class.mojo::internal::ContainerValidateParams" = type { i32, i8, %"class.mojo::internal::ContainerValidateParams"*, %"class.mojo::internal::ContainerValidateParams"*, i1 (i32, %"class.mojo::internal::ValidationContext"*)* }
%"class.network::mojom::internal::CookieManager_SetContentSettings_Params_Data" = type { %"struct.mojo::internal::StructHeader", %"struct.mojo::internal::Pointer.189" }
%"struct.mojo::internal::Pointer.189" = type { i64 }
%"class.mojo::internal::Array_Data.190" = type { %"struct.mojo::internal::ArrayHeader" }
%"class.content_settings::mojom::internal::ContentSettingPatternSource_Data" = type { %"struct.mojo::internal::StructHeader", %"struct.mojo::internal::Pointer.409", %"struct.mojo::internal::Pointer.409", %"class.mojo_base::mojom::internal::Value_Data", %"struct.mojo::internal::Pointer.163", %"struct.mojo::internal::Pointer.157", i8, [7 x i8] }
%"struct.mojo::internal::Pointer.409" = type { i64 }
%"class.mojo_base::mojom::internal::Value_Data" = type { i32, i32, %"union.mojo_base::mojom::internal::Value_Data::Union_" }
%"union.mojo_base::mojom::internal::Value_Data::Union_" = type { double }
%"class.network::mojom::internal::CookieManager_SetForceKeepSessionState_Params_Data" = type { %"struct.mojo::internal::StructHeader" }
%"class.network::mojom::internal::CookieManager_BlockThirdPartyCookies_Params_Data" = type { %"struct.mojo::internal::StructHeader", i8, [7 x i8] }
%"class.network::mojom::internal::CookieManager_SetContentSettingsForLegacyCookieAccess_Params_Data" = type { %"struct.mojo::internal::StructHeader", %"struct.mojo::internal::Pointer.189" }
%"class.network::mojom::internal::CookieManager_SetStorageAccessGrantSettings_Params_Data" = type { %"struct.mojo::internal::StructHeader", %"struct.mojo::internal::Pointer.189" }
%"class.network::mojom::blink::CookieManager_GetAllCookies_ForwardToCallback" = type { %"class.mojo::MessageReceiver", %"class.base::OnceCallback" }
%"class.WTF::Vector.196" = type { %"class.WTF::VectorBuffer.197" }
%"class.WTF::VectorBuffer.197" = type { %"class.WTF::VectorBufferBase.198" }
%"class.WTF::VectorBufferBase.198" = type { %"class.net::CanonicalCookie"*, i32, i32 }
%"class.mojo::internal::Array_Data.203" = type { %"struct.mojo::internal::ArrayHeader" }
%"class.network::mojom::blink::CookieManager_GetAllCookies_ProxyToResponder" = type { i64, i8, %"class.std::__1::unique_ptr.129" }
%"class.std::__1::unique_ptr.129" = type { %"class.std::__1::__compressed_pair.130" }
%"class.std::__1::__compressed_pair.130" = type { %"struct.std::__1::__compressed_pair_elem.131" }
%"struct.std::__1::__compressed_pair_elem.131" = type { %"class.mojo::MessageReceiverWithStatus"* }
%"class.network::mojom::internal::CookieManager_GetAllCookies_ResponseParams_Data" = type { %"struct.mojo::internal::StructHeader", %"struct.mojo::internal::Pointer.195" }
%"struct.mojo::internal::Pointer.195" = type { i64 }
%"struct.mojo::internal::MessageHeaderV1" = type { %"struct.mojo::internal::MessageHeader", i64 }
%"class.network::mojom::blink::CookieManager_GetAllCookiesWithAccessSemantics_ForwardToCallback" = type { %"class.mojo::MessageReceiver", %"class.base::OnceCallback.143" }
%"class.WTF::Vector.205" = type { %"class.WTF::VectorBuffer.206" }
%"class.WTF::VectorBuffer.206" = type { %"class.WTF::VectorBufferBase.207" }
%"class.WTF::VectorBufferBase.207" = type { i32*, i32, i32 }
%"class.network::mojom::blink::CookieManager_GetAllCookiesWithAccessSemantics_ProxyToResponder" = type { i64, i8, %"class.std::__1::unique_ptr.129" }
%"class.network::mojom::internal::CookieManager_GetAllCookiesWithAccessSemantics_ResponseParams_Data" = type { %"struct.mojo::internal::StructHeader", %"struct.mojo::internal::Pointer.195", %"struct.mojo::internal::Pointer.204" }
%"struct.mojo::internal::Pointer.204" = type { i64 }
%"class.mojo::internal::Array_Data.212" = type { %"struct.mojo::internal::ArrayHeader" }
%"class.network::mojom::blink::CookieManager_GetCookieList_ForwardToCallback" = type { %"class.mojo::MessageReceiver", %"class.base::OnceCallback.152" }
%"class.WTF::Vector.214" = type { %"class.WTF::VectorBuffer.215" }
%"class.WTF::VectorBuffer.215" = type { %"class.WTF::VectorBufferBase.216" }
%"class.WTF::VectorBufferBase.216" = type { %"class.mojo::StructPtr.217"*, i32, i32 }
%"class.mojo::StructPtr.217" = type { %"class.std::__1::unique_ptr.218" }
%"class.std::__1::unique_ptr.218" = type { %"class.std::__1::__compressed_pair.219" }
%"class.std::__1::__compressed_pair.219" = type { %"struct.std::__1::__compressed_pair_elem.220" }
%"struct.std::__1::__compressed_pair_elem.220" = type { %"class.network::mojom::blink::CookieWithAccessResult"* }
%"class.mojo::internal::Array_Data.228" = type { %"struct.mojo::internal::ArrayHeader" }
%"class.network::mojom::blink::CookieManager_GetCookieList_ProxyToResponder" = type { i64, i8, %"class.std::__1::unique_ptr.129" }
%"class.mojo::internal::MessageFragment.448" = type { %"class.mojo::Message"*, i64 }
%"class.network::mojom::internal::CookieManager_GetCookieList_ResponseParams_Data" = type { %"struct.mojo::internal::StructHeader", %"struct.mojo::internal::Pointer.213", %"struct.mojo::internal::Pointer.213" }
%"struct.mojo::internal::Pointer.213" = type { i64 }
%"class.network::mojom::internal::CookieWithAccessResult_Data" = type { %"struct.mojo::internal::StructHeader", %"struct.mojo::internal::Pointer.127", %"struct.mojo::internal::Pointer.128" }
%"class.network::mojom::blink::CookieManager_SetCanonicalCookie_ForwardToCallback" = type { %"class.mojo::MessageReceiver", %"class.base::OnceCallback.160" }
%"class.network::mojom::internal::CookieAccessResult_Data" = type { %"struct.mojo::internal::StructHeader", i32, i32, %"struct.mojo::internal::Pointer.231", i8, [7 x i8] }
%"struct.mojo::internal::Pointer.231" = type { i64 }
%"class.network::mojom::CookieManager_SetCanonicalCookie_ResponseParamsDataView" = type { %"class.network::mojom::internal::CookieManager_SetCanonicalCookie_ResponseParams_Data"*, %"class.mojo::Message"* }
%"class.network::mojom::internal::CookieManager_SetCanonicalCookie_ResponseParams_Data" = type { %"struct.mojo::internal::StructHeader", %"struct.mojo::internal::Pointer.128" }
%"class.network::mojom::blink::CookieManager_SetCanonicalCookie_ProxyToResponder" = type { i64, i8, %"class.std::__1::unique_ptr.129" }
%"class.mojo::internal::MessageFragment.230" = type { %"class.mojo::Message"*, i64 }
%"class.network::mojom::blink::CookieManager_DeleteCanonicalCookie_ForwardToCallback" = type { %"class.mojo::MessageReceiver", %"class.base::OnceCallback.164" }
%"class.network::mojom::blink::CookieManager_DeleteCanonicalCookie_ProxyToResponder" = type { i64, i8, %"class.std::__1::unique_ptr.129" }
%"class.network::mojom::internal::CookieManager_DeleteCanonicalCookie_ResponseParams_Data" = type { %"struct.mojo::internal::StructHeader", i8, [7 x i8] }
%"class.network::mojom::blink::CookieManager_DeleteCookies_ForwardToCallback" = type { %"class.mojo::MessageReceiver", %"class.base::OnceCallback.173" }
%"class.network::mojom::blink::CookieManager_DeleteCookies_ProxyToResponder" = type { i64, i8, %"class.std::__1::unique_ptr.129" }
%"class.network::mojom::internal::CookieManager_DeleteCookies_ResponseParams_Data" = type { %"struct.mojo::internal::StructHeader", i32, [4 x i8] }
%"class.network::mojom::blink::CookieManager_DeleteSessionOnlyCookies_ForwardToCallback" = type { %"class.mojo::MessageReceiver", %"class.base::OnceCallback.173" }
%"class.network::mojom::blink::CookieManager_DeleteSessionOnlyCookies_ProxyToResponder" = type { i64, i8, %"class.std::__1::unique_ptr.129" }
%"class.network::mojom::internal::CookieManager_DeleteSessionOnlyCookies_ResponseParams_Data" = type { %"struct.mojo::internal::StructHeader", i32, [4 x i8] }
%"class.network::mojom::blink::CookieManager_FlushCookieStore_ForwardToCallback" = type { %"class.mojo::MessageReceiver", %"class.base::OnceCallback.184" }
%"class.network::mojom::blink::CookieManager_FlushCookieStore_ProxyToResponder" = type { i64, i8, %"class.std::__1::unique_ptr.129" }
%"class.network::mojom::internal::CookieManager_FlushCookieStore_ResponseParams_Data" = type { %"struct.mojo::internal::StructHeader" }
%"class.network::mojom::blink::CookieManager_AllowFileSchemeCookies_ForwardToCallback" = type { %"class.mojo::MessageReceiver", %"class.base::OnceCallback.164" }
%"class.network::mojom::blink::CookieManager_AllowFileSchemeCookies_ProxyToResponder" = type { i64, i8, %"class.std::__1::unique_ptr.129" }
%"class.network::mojom::internal::CookieManager_AllowFileSchemeCookies_ResponseParams_Data" = type { %"struct.mojo::internal::StructHeader", i8, [7 x i8] }
%"class.network::mojom::blink::CookieManager_SetStorageAccessGrantSettings_ForwardToCallback" = type { %"class.mojo::MessageReceiver", %"class.base::OnceCallback.184" }
%"class.network::mojom::blink::CookieManager_SetStorageAccessGrantSettings_ProxyToResponder" = type { i64, i8, %"class.std::__1::unique_ptr.129" }
%"class.network::mojom::internal::CookieManager_SetStorageAccessGrantSettings_ResponseParams_Data" = type { %"struct.mojo::internal::StructHeader" }
%"class.network::mojom::CookieManager_AddCookieChangeListener_ParamsDataView" = type { %"class.network::mojom::internal::CookieManager_AddCookieChangeListener_Params_Data"*, %"class.mojo::Message"* }
%"class.network::mojom::CookieManager_AddGlobalChangeListener_ParamsDataView" = type { %"class.network::mojom::internal::CookieManager_AddGlobalChangeListener_Params_Data"*, %"class.mojo::Message"* }
%"class.network::mojom::blink::CookieManagerRequestValidator" = type { %"class.mojo::MessageReceiver" }
%"class.network::mojom::blink::CookieManagerResponseValidator" = type { %"class.mojo::MessageReceiver" }
%"class.network::mojom::internal::CookieManagerParams_Data" = type { %"struct.mojo::internal::StructHeader", i8, [3 x i8], i32, %"struct.mojo::internal::Pointer.189", %"struct.mojo::internal::Pointer.177", %"struct.mojo::internal::Pointer.177", %"struct.mojo::internal::Pointer.177", %"struct.mojo::internal::Pointer.189", %"struct.mojo::internal::Pointer.189" }
%"class.mojo::StructPtr.238" = type { %"class.std::__1::unique_ptr.239" }
%"class.std::__1::unique_ptr.239" = type { %"class.std::__1::__compressed_pair.240" }
%"class.std::__1::__compressed_pair.240" = type { %"struct.std::__1::__compressed_pair_elem.241" }
%"struct.std::__1::__compressed_pair_elem.241" = type { %"class.network::mojom::blink::CookieManagerParams"* }
%"class.network::mojom::CookieManagerParamsDataView" = type { %"class.network::mojom::internal::CookieManagerParams_Data"*, %"class.mojo::Message"* }
%"class.mojo::internal::Array_Data.405" = type { %"struct.mojo::internal::ArrayHeader" }
%"class.network::mojom::internal::CookieSameSiteContext_Data" = type { %"struct.mojo::internal::StructHeader", i32, i32 }
%"class.mojo::StructPtr.245" = type { %"class.std::__1::unique_ptr.246" }
%"class.std::__1::unique_ptr.246" = type { %"class.std::__1::__compressed_pair.247" }
%"class.std::__1::__compressed_pair.247" = type { %"struct.std::__1::__compressed_pair_elem.248" }
%"struct.std::__1::__compressed_pair_elem.248" = type { %"class.network::mojom::blink::CanonicalCookie"* }
%"class.mojo_base::mojom::internal::Time_Data" = type { %"struct.mojo::internal::StructHeader", i64 }
%"class.network::mojom::internal::CookieInclusionStatus_Data" = type { %"struct.mojo::internal::StructHeader", i32, i32 }
%"class.network::mojom::internal::CookieAndLineWithAccessResult_Data" = type { %"struct.mojo::internal::StructHeader", %"struct.mojo::internal::Pointer.127", %"struct.mojo::internal::Pointer.157", %"struct.mojo::internal::Pointer.128" }
%"class.mojo::StructPtr.252" = type { %"class.std::__1::unique_ptr.253" }
%"class.std::__1::unique_ptr.253" = type { %"class.std::__1::__compressed_pair.254" }
%"class.std::__1::__compressed_pair.254" = type { %"struct.std::__1::__compressed_pair_elem.255" }
%"struct.std::__1::__compressed_pair_elem.255" = type { %"class.network::mojom::blink::CookieAndLineWithAccessResult"* }
%"class.network::mojom::CookieAndLineWithAccessResultDataView" = type { %"class.network::mojom::internal::CookieAndLineWithAccessResult_Data"*, %"class.mojo::Message"* }
%"class.network::mojom::internal::CookieOrLineWithAccessResult_Data" = type { %"struct.mojo::internal::StructHeader", %"class.network::mojom::internal::CookieOrLine_Data", %"struct.mojo::internal::Pointer.128" }
%"class.network::mojom::internal::CookieOrLine_Data" = type { i32, i32, %"union.network::mojom::internal::CookieOrLine_Data::Union_" }
%"union.network::mojom::internal::CookieOrLine_Data::Union_" = type { %"struct.mojo::internal::Pointer.127" }
%"class.mojo::StructPtr.259" = type { %"class.std::__1::unique_ptr.260" }
%"class.std::__1::unique_ptr.260" = type { %"class.std::__1::__compressed_pair.261" }
%"class.std::__1::__compressed_pair.261" = type { %"struct.std::__1::__compressed_pair_elem.262" }
%"struct.std::__1::__compressed_pair_elem.262" = type { %"class.network::mojom::blink::CookieOrLineWithAccessResult"* }
%"class.network::mojom::CookieOrLineWithAccessResultDataView" = type { %"class.network::mojom::internal::CookieOrLineWithAccessResult_Data"*, %"class.mojo::Message"* }
%"class.network::mojom::CookieWithAccessResultDataView" = type { %"class.network::mojom::internal::CookieWithAccessResult_Data"*, %"class.mojo::Message"* }
%"class.network::mojom::CookieChangeInfoDataView" = type { %"class.network::mojom::internal::CookieChangeInfo_Data"*, %"class.mojo::Message"* }
%"class.network::mojom::CookieDeletionFilterDataView" = type { %"class.network::mojom::internal::CookieDeletionFilter_Data"*, %"class.mojo::Message"* }
%"class.std::__1::unique_ptr.286" = type { %"class.std::__1::__compressed_pair.287" }
%"class.std::__1::__compressed_pair.287" = type { %"struct.std::__1::__compressed_pair_elem.288" }
%"struct.std::__1::__compressed_pair_elem.288" = type { %"class.network::mojom::blink::CookieManager_GetCookieList_ProxyToResponder"* }
%"class.mojo::internal::MessageFragment.181" = type { %"class.mojo::Message"*, i64 }
%"class.mojo::internal::ArrayIterator" = type { %"class.WTF::Vector.46"*, i64 }
%"class.mojo::internal::MessageFragment.404" = type { %"class.mojo::Message"*, i64 }
%"class.logging::CheckOpResult" = type { i8* }
%"class.logging::CheckError" = type { %"class.logging::LogMessage"* }
%"class.logging::LogMessage" = type { i32 (...)**, i32, %"class.std::__1::basic_ostringstream", i64, i8*, i32, %"class.base::ScopedClearLastErrorBase" }
%"class.std::__1::basic_ostringstream" = type { %"class.std::__1::basic_ostream.base", %"class.std::__1::basic_stringbuf", %"class.std::__1::basic_ios.base" }
%"class.std::__1::basic_ostream.base" = type { i32 (...)** }
%"class.std::__1::basic_stringbuf" = type <{ %"class.std::__1::basic_streambuf", %"class.std::__1::basic_string", i8*, i32, [4 x i8] }>
%"class.std::__1::basic_streambuf" = type { i32 (...)**, %"class.std::__1::locale", i8*, i8*, i8*, i8*, i8*, i8* }
%"class.std::__1::locale" = type { %"class.std::__1::locale::__imp"* }
%"class.std::__1::locale::__imp" = type opaque
%"class.std::__1::basic_ios.base" = type <{ %"class.std::__1::ios_base", %"class.std::__1::basic_ostream"*, i32 }>
%"class.std::__1::ios_base" = type { i32 (...)**, i32, i64, i64, i32, i32, i8*, i8*, void (i32, %"class.std::__1::ios_base"*, i32)**, i32*, i64, i64, i64*, i64, i64, i8**, i64, i64 }
%"class.std::__1::basic_ostream" = type { i32 (...)**, %"class.std::__1::basic_ios.base" }
%"class.base::ScopedClearLastErrorBase" = type { i32 }
%"class.mojo::internal::MessageFragment.416" = type { %"class.mojo::Message"*, i64 }
%"class.mojo::internal::MessageFragment.415" = type { %"class.mojo::Message"*, i64 }
%"class.content_settings::mojom::internal::ContentSettingsPattern_Data" = type { %"struct.mojo::internal::StructHeader", %"struct.mojo::internal::Pointer.414", i8, [7 x i8] }
%"struct.mojo::internal::Pointer.414" = type { i64 }
%"class.content_settings::mojom::internal::PatternParts_Data" = type { %"struct.mojo::internal::StructHeader", %"struct.mojo::internal::Pointer.157", i8, [7 x i8], %"struct.mojo::internal::Pointer.157", %"struct.mojo::internal::Pointer.157", %"struct.mojo::internal::Pointer.157" }
%"class.mojo::internal::MessageFragment.419" = type { %"class.mojo::Message"*, i64 }
%"class.mojo::internal::MessageFragment.421" = type { %"class.mojo::Message"*, i64 }
%"class.std::__1::vector" = type { %"class.std::__1::__vector_base" }
%"class.std::__1::__vector_base" = type { i8*, i8*, %"class.std::__1::__compressed_pair.21" }
%"class.std::__1::__compressed_pair.21" = type { %"struct.std::__1::__compressed_pair_elem.22" }
%"struct.std::__1::__compressed_pair_elem.22" = type { i8* }
%"class.mojo::internal::Array_Data.418" = type { %"struct.mojo::internal::ArrayHeader" }
%"class.mojo_base::mojom::internal::DictionaryValue_Data" = type { %"struct.mojo::internal::StructHeader", %"struct.mojo::internal::Pointer.420" }
%"struct.mojo::internal::Pointer.420" = type { i64 }
%"class.mojo_base::mojom::internal::ListValue_Data" = type { %"struct.mojo::internal::StructHeader", %"struct.mojo::internal::Pointer.422" }
%"struct.mojo::internal::Pointer.422" = type { i64 }
%"class.mojo::internal::MessageFragment.424" = type { %"class.mojo::Message"*, i64 }
%"class.mojo::internal::Map_Data" = type { %"struct.mojo::internal::StructHeader", %"struct.mojo::internal::Pointer.177", %"struct.mojo::internal::Pointer.422" }
%"class.base::detail::const_dict_iterator::pointer" = type { %"struct.std::__1::pair.427" }
%"struct.std::__1::pair.427" = type { %"class.std::__1::basic_string"*, %"class.base::Value"* }
%"class.base::detail::const_dict_iterator_proxy" = type { %"class.base::flat_map"* }
%"class.base::flat_map" = type { %"class.base::internal::flat_tree" }
%"class.base::internal::flat_tree" = type { %"class.std::__1::vector.27" }
%"class.std::__1::vector.27" = type { %"class.std::__1::__vector_base.28" }
%"class.std::__1::__vector_base.28" = type { %"struct.std::__1::pair"*, %"struct.std::__1::pair"*, %"class.std::__1::__compressed_pair.29" }
%"struct.std::__1::pair" = type opaque
%"class.std::__1::__compressed_pair.29" = type { %"struct.std::__1::__compressed_pair_elem.30" }
%"struct.std::__1::__compressed_pair_elem.30" = type { %"struct.std::__1::pair"* }
%"class.mojo::internal::MapKeyReader" = type { %"class.mojo::internal::MapReaderBase" }
%"class.mojo::internal::MapReaderBase" = type { %"class.base::Value"*, %"class.base::detail::const_dict_iterator" }
%"class.base::detail::const_dict_iterator" = type { %"class.std::__1::__wrap_iter" }
%"class.std::__1::__wrap_iter" = type { %"struct.std::__1::pair"* }
%"class.mojo::internal::MapValueReader" = type { %"class.mojo::internal::MapReaderBase" }
%"class.std::__1::vector.35" = type { %"class.std::__1::__vector_base.36" }
%"class.std::__1::__vector_base.36" = type { %"class.base::Value"*, %"class.base::Value"*, %"class.std::__1::__compressed_pair.37" }
%"class.std::__1::__compressed_pair.37" = type { %"struct.std::__1::__compressed_pair_elem.38" }
%"struct.std::__1::__compressed_pair_elem.38" = type { %"class.base::Value"* }
%"class.mojo::internal::Array_Data.426" = type { %"struct.mojo::internal::ArrayHeader" }

$_ZN3net15CanonicalCookieaSERKS0_ = comdat any

$_ZN4mojo8internal23ContainerValidateParamsD2Ev = comdat any

$_ZN7network5mojom8internal26CookieAccessSemantics_Data8ValidateEiPN4mojo8internal17ValidationContextE = comdat any

$_ZN7network5mojom52CookieManager_AddCookieChangeListener_ParamsDataView12TakeListenerIN4mojo13PendingRemoteINS0_5blink20CookieChangeListenerEEEEET_v = comdat any

$_ZN7network5mojom52CookieManager_AddGlobalChangeListener_ParamsDataView23TakeNotificationPointerIN4mojo13PendingRemoteINS0_5blink20CookieChangeListenerEEEEET_v = comdat any

$_ZN7network5mojom27CookieManagerParamsDataView37ReadSecureOriginCookiesAllowedSchemesIN3WTF6VectorINS3_6StringELj0ENS3_18PartitionAllocatorEEEEEbPT_ = comdat any

$_ZN7network5mojom27CookieManagerParamsDataView39ReadMatchingSchemeCookiesAllowedSchemesIN3WTF6VectorINS3_6StringELj0ENS3_18PartitionAllocatorEEEEEbPT_ = comdat any

$_ZN7network5mojom27CookieManagerParamsDataView35ReadThirdPartyCookiesAllowedSchemesIN3WTF6VectorINS3_6StringELj0ENS3_18PartitionAllocatorEEEEEbPT_ = comdat any

$_ZN7network5mojom5blink20CookieChangeListenerD2Ev = comdat any

$_ZN7network5mojom5blink25CookieChangeListenerProxyD0Ev = comdat any

$_ZN4mojo15MessageReceiverD2Ev = comdat any

$_ZN7network5mojom5blink36CookieChangeListenerRequestValidatorD0Ev = comdat any

$_ZN7network5mojom5blink45CookieManager_GetAllCookies_ForwardToCallbackD2Ev = comdat any

$_ZN7network5mojom5blink45CookieManager_GetAllCookies_ForwardToCallbackD0Ev = comdat any

$_ZN7network5mojom5blink64CookieManager_GetAllCookiesWithAccessSemantics_ForwardToCallbackD2Ev = comdat any

$_ZN7network5mojom5blink64CookieManager_GetAllCookiesWithAccessSemantics_ForwardToCallbackD0Ev = comdat any

$_ZN7network5mojom5blink45CookieManager_GetCookieList_ForwardToCallbackD2Ev = comdat any

$_ZN7network5mojom5blink45CookieManager_GetCookieList_ForwardToCallbackD0Ev = comdat any

$_ZN7network5mojom5blink50CookieManager_SetCanonicalCookie_ForwardToCallbackD2Ev = comdat any

$_ZN7network5mojom5blink50CookieManager_SetCanonicalCookie_ForwardToCallbackD0Ev = comdat any

$_ZN7network5mojom5blink53CookieManager_DeleteCanonicalCookie_ForwardToCallbackD2Ev = comdat any

$_ZN7network5mojom5blink53CookieManager_DeleteCanonicalCookie_ForwardToCallbackD0Ev = comdat any

$_ZN7network5mojom5blink45CookieManager_DeleteCookies_ForwardToCallbackD2Ev = comdat any

$_ZN7network5mojom5blink45CookieManager_DeleteCookies_ForwardToCallbackD0Ev = comdat any

$_ZN7network5mojom5blink56CookieManager_DeleteSessionOnlyCookies_ForwardToCallbackD2Ev = comdat any

$_ZN7network5mojom5blink56CookieManager_DeleteSessionOnlyCookies_ForwardToCallbackD0Ev = comdat any

$_ZN7network5mojom5blink48CookieManager_FlushCookieStore_ForwardToCallbackD2Ev = comdat any

$_ZN7network5mojom5blink48CookieManager_FlushCookieStore_ForwardToCallbackD0Ev = comdat any

$_ZN7network5mojom5blink54CookieManager_AllowFileSchemeCookies_ForwardToCallbackD2Ev = comdat any

$_ZN7network5mojom5blink54CookieManager_AllowFileSchemeCookies_ForwardToCallbackD0Ev = comdat any

$_ZN7network5mojom5blink61CookieManager_SetStorageAccessGrantSettings_ForwardToCallbackD2Ev = comdat any

$_ZN7network5mojom5blink61CookieManager_SetStorageAccessGrantSettings_ForwardToCallbackD0Ev = comdat any

$_ZN7network5mojom5blink13CookieManagerD2Ev = comdat any

$_ZN7network5mojom5blink18CookieManagerProxyD0Ev = comdat any

$_ZN7network5mojom5blink29CookieManagerRequestValidatorD0Ev = comdat any

$_ZN7network5mojom5blink30CookieManagerResponseValidatorD0Ev = comdat any

$_ZN4base8internal7InvokerINS0_9BindStateIMN7network5mojom5blink44CookieManager_GetAllCookies_ProxyToResponderEFvRKN3WTF6VectorIN3net15CanonicalCookieELj0ENS7_18PartitionAllocatorEEEEJNSt3__110unique_ptrIS6_NSH_14default_deleteIS6_EEEEEEEFvSE_EE7RunOnceEPNS0_13BindStateBaseESE_ = comdat any

$_ZN4base8internal9BindStateIMN7network5mojom5blink44CookieManager_GetAllCookies_ProxyToResponderEFvRKN3WTF6VectorIN3net15CanonicalCookieELj0ENS6_18PartitionAllocatorEEEEJNSt3__110unique_ptrIS5_NSG_14default_deleteIS5_EEEEEE7DestroyEPKNS0_13BindStateBaseE = comdat any

$_ZN4base8internal7InvokerINS0_9BindStateIMN7network5mojom5blink63CookieManager_GetAllCookiesWithAccessSemantics_ProxyToResponderEFvRKN3WTF6VectorIN3net15CanonicalCookieELj0ENS7_18PartitionAllocatorEEERKNS8_INS4_21CookieAccessSemanticsELj0ESB_EEEJNSt3__110unique_ptrIS6_NSL_14default_deleteIS6_EEEEEEEFvSE_SI_EE7RunOnceEPNS0_13BindStateBaseESE_SI_ = comdat any

$_ZN4base8internal9BindStateIMN7network5mojom5blink63CookieManager_GetAllCookiesWithAccessSemantics_ProxyToResponderEFvRKN3WTF6VectorIN3net15CanonicalCookieELj0ENS6_18PartitionAllocatorEEERKNS7_INS3_21CookieAccessSemanticsELj0ESA_EEEJNSt3__110unique_ptrIS5_NSK_14default_deleteIS5_EEEEEE7DestroyEPKNS0_13BindStateBaseE = comdat any

$_ZN4base8internal7InvokerINS0_9BindStateIMN7network5mojom5blink44CookieManager_GetCookieList_ProxyToResponderEFvN3WTF6VectorIN4mojo9StructPtrINS5_22CookieWithAccessResultEEELj0ENS7_18PartitionAllocatorEEESE_EJNSt3__110unique_ptrIS6_NSH_14default_deleteIS6_EEEEEEEFvSE_SE_EE7RunOnceEPNS0_13BindStateBaseEOSE_SR_ = comdat any

$_ZN4base8internal13FunctorTraitsIMN7network5mojom5blink44CookieManager_GetCookieList_ProxyToResponderEFvN3WTF6VectorIN4mojo9StructPtrINS4_22CookieWithAccessResultEEELj0ENS6_18PartitionAllocatorEEESD_EvE6InvokeISF_NSt3__110unique_ptrIS5_NSI_14default_deleteIS5_EEEEJSD_SD_EEEvT_OT0_DpOT1_ = comdat any

$_ZN4base8internal9BindStateIMN7network5mojom5blink44CookieManager_GetCookieList_ProxyToResponderEFvN3WTF6VectorIN4mojo9StructPtrINS4_22CookieWithAccessResultEEELj0ENS6_18PartitionAllocatorEEESD_EJNSt3__110unique_ptrIS5_NSG_14default_deleteIS5_EEEEEE7DestroyEPKNS0_13BindStateBaseE = comdat any

$_ZN4base8internal7InvokerINS0_9BindStateIMN7network5mojom5blink49CookieManager_SetCanonicalCookie_ProxyToResponderEFvN4mojo9StructPtrINS5_18CookieAccessResultEEEEJNSt3__110unique_ptrIS6_NSD_14default_deleteIS6_EEEEEEEFvSA_EE7RunOnceEPNS0_13BindStateBaseEOSA_ = comdat any

$_ZN4base8internal9BindStateIMN7network5mojom5blink49CookieManager_SetCanonicalCookie_ProxyToResponderEFvN4mojo9StructPtrINS4_18CookieAccessResultEEEEJNSt3__110unique_ptrIS5_NSC_14default_deleteIS5_EEEEEE7DestroyEPKNS0_13BindStateBaseE = comdat any

$_ZN4base8internal7InvokerINS0_9BindStateIMN7network5mojom5blink52CookieManager_DeleteCanonicalCookie_ProxyToResponderEFvbEJNSt3__110unique_ptrIS6_NS9_14default_deleteIS6_EEEEEEEFvbEE7RunOnceEPNS0_13BindStateBaseEb = comdat any

$_ZN4base8internal9BindStateIMN7network5mojom5blink52CookieManager_DeleteCanonicalCookie_ProxyToResponderEFvbEJNSt3__110unique_ptrIS5_NS8_14default_deleteIS5_EEEEEE7DestroyEPKNS0_13BindStateBaseE = comdat any

$_ZN4base8internal7InvokerINS0_9BindStateIMN7network5mojom5blink44CookieManager_DeleteCookies_ProxyToResponderEFvjEJNSt3__110unique_ptrIS6_NS9_14default_deleteIS6_EEEEEEEFvjEE7RunOnceEPNS0_13BindStateBaseEj = comdat any

$_ZN4base8internal9BindStateIMN7network5mojom5blink44CookieManager_DeleteCookies_ProxyToResponderEFvjEJNSt3__110unique_ptrIS5_NS8_14default_deleteIS5_EEEEEE7DestroyEPKNS0_13BindStateBaseE = comdat any

$_ZN4base8internal7InvokerINS0_9BindStateIMN7network5mojom5blink55CookieManager_DeleteSessionOnlyCookies_ProxyToResponderEFvjEJNSt3__110unique_ptrIS6_NS9_14default_deleteIS6_EEEEEEEFvjEE7RunOnceEPNS0_13BindStateBaseEj = comdat any

$_ZN4base8internal9BindStateIMN7network5mojom5blink55CookieManager_DeleteSessionOnlyCookies_ProxyToResponderEFvjEJNSt3__110unique_ptrIS5_NS8_14default_deleteIS5_EEEEEE7DestroyEPKNS0_13BindStateBaseE = comdat any

$_ZN4base8internal7InvokerINS0_9BindStateIMN7network5mojom5blink47CookieManager_FlushCookieStore_ProxyToResponderEFvvEJNSt3__110unique_ptrIS6_NS9_14default_deleteIS6_EEEEEEEFvvEE7RunOnceEPNS0_13BindStateBaseE = comdat any

$_ZN4base8internal9BindStateIMN7network5mojom5blink47CookieManager_FlushCookieStore_ProxyToResponderEFvvEJNSt3__110unique_ptrIS5_NS8_14default_deleteIS5_EEEEEE7DestroyEPKNS0_13BindStateBaseE = comdat any

$_ZN4base8internal7InvokerINS0_9BindStateIMN7network5mojom5blink53CookieManager_AllowFileSchemeCookies_ProxyToResponderEFvbEJNSt3__110unique_ptrIS6_NS9_14default_deleteIS6_EEEEEEEFvbEE7RunOnceEPNS0_13BindStateBaseEb = comdat any

$_ZN4base8internal9BindStateIMN7network5mojom5blink53CookieManager_AllowFileSchemeCookies_ProxyToResponderEFvbEJNSt3__110unique_ptrIS5_NS8_14default_deleteIS5_EEEEEE7DestroyEPKNS0_13BindStateBaseE = comdat any

$_ZN4base8internal7InvokerINS0_9BindStateIMN7network5mojom5blink60CookieManager_SetStorageAccessGrantSettings_ProxyToResponderEFvvEJNSt3__110unique_ptrIS6_NS9_14default_deleteIS6_EEEEEEEFvvEE7RunOnceEPNS0_13BindStateBaseE = comdat any

$_ZN4base8internal9BindStateIMN7network5mojom5blink60CookieManager_SetStorageAccessGrantSettings_ProxyToResponderEFvvEJNSt3__110unique_ptrIS5_NS8_14default_deleteIS5_EEEEEE7DestroyEPKNS0_13BindStateBaseE = comdat any

$_ZN8perfetto8internal9WriteImplIPN7network5mojom5blink21CookieSameSiteContextEEEDTcmclsr17TraceFormatTraitsINS_4base12remove_cvrefIT_E4typeEEE14WriteIntoTraceclL_ZNSt3__17declvalINS_11TracedValueEEEDTclsr3std3__1E9__declvalIS9_ELi0EEEvEEclsr3stdE7declvalIS9_EEEcvv_EENS7_12priority_tagILm3EEESE_OS9_ = comdat any

$_ZN8perfetto8internal9WriteImplIPN7network5mojom5blink21CookieInclusionStatusEEEDTcmclsr17TraceFormatTraitsINS_4base12remove_cvrefIT_E4typeEEE14WriteIntoTraceclL_ZNSt3__17declvalINS_11TracedValueEEEDTclsr3std3__1E9__declvalIS9_ELi0EEEvEEclsr3stdE7declvalIS9_EEEcvv_EENS7_12priority_tagILm3EEESE_OS9_ = comdat any

$_ZN4mojo8internal10SerializerIN7network5mojom24CookieChangeInfoDataViewENS_9StructPtrINS3_5blink16CookieChangeInfoEEEE9SerializeERS8_RNS0_15MessageFragmentINS3_8internal21CookieChangeInfo_DataEEE = comdat any

$_ZN4mojo8internal10SerializerIN7network5mojom26CookieAccessResultDataViewEKNS_9StructPtrINS3_5blink18CookieAccessResultEEEE9SerializeERS9_RNS0_15MessageFragmentINS3_8internal23CookieAccessResult_DataEEE = comdat any

$_ZN4mojo8internal10SerializerIN3url5mojom11UrlDataViewEKN5blink4KURLEE9SerializeERS7_RNS0_15MessageFragmentINS3_8internal8Url_DataEEE = comdat any

$_ZN4mojo8internal10SerializerIN7network5mojom21CookieOptionsDataViewENS_9StructPtrINS3_5blink13CookieOptionsEEEE9SerializeERS8_RNS0_15MessageFragmentINS3_8internal18CookieOptions_DataEEE = comdat any

$_ZN4mojo8internal10SerializerIN7network5mojom23CanonicalCookieDataViewEKN3net15CanonicalCookieEE9SerializeERS7_RNS0_15MessageFragmentINS3_8internal20CanonicalCookie_DataEEE = comdat any

$_ZN4mojo8internal10SerializerINS_14StringDataViewEKNSt3__112basic_stringIcNS3_11char_traitsIcEENS3_9allocatorIcEEEEE9SerializeERSA_RNS0_15MessageFragmentINS0_10Array_DataIcEEEE = comdat any

$_ZN4mojo8internal10SerializerIN7network5mojom28CookieDeletionFilterDataViewENS_9StructPtrINS3_5blink20CookieDeletionFilterEEEE9SerializeERS8_RNS0_15MessageFragmentINS3_8internal25CookieDeletionFilter_DataEEE = comdat any

$_ZN4mojo8internal15ArraySerializerINS_13ArrayDataViewINS_14StringDataViewEEEKN3WTF6VectorINS5_6StringELj0ENS5_18PartitionAllocatorEEENS0_13ArrayIteratorINS_11ArrayTraitsIS9_EESA_Lb0EEEvE17SerializeElementsEPSE_RNS0_15MessageFragmentINS0_10Array_DataINS0_7PointerINSI_IcEEEEEEEEPKNS0_23ContainerValidateParamsE = comdat any

$_ZNK3WTF6VectorINS_6StringELj0ENS_18PartitionAllocatorEE2atEj = comdat any

$_ZN3WTF6VectorIN4mojo9StructPtrIN16content_settings5mojom5blink27ContentSettingPatternSourceEEELj0ENS_18PartitionAllocatorEE2atEj = comdat any

$_ZN4mojo8internal10SerializerIN16content_settings5mojom35ContentSettingPatternSourceDataViewENS_9StructPtrINS3_5blink27ContentSettingPatternSourceEEEE9SerializeERS8_RNS0_15MessageFragmentINS3_8internal32ContentSettingPatternSource_DataEEE = comdat any

$_ZN4mojo8internal10SerializerIN16content_settings5mojom20PatternPartsDataViewEKNS_9StructPtrINS3_5blink12PatternPartsEEEE9SerializeERS9_RNS0_15MessageFragmentINS3_8internal17PatternParts_DataEEE = comdat any

$_ZN4mojo8internal10SerializerIN9mojo_base5mojom13ValueDataViewEKN4base5ValueEE9SerializeERS7_RNS0_15MessageFragmentINS3_8internal10Value_DataEEEb = comdat any

$_ZN4mojo8internal10SerializerIN9mojo_base5mojom23DictionaryValueDataViewEKN4base5ValueEE9SerializeERS7_RNS0_15MessageFragmentINS3_8internal20DictionaryValue_DataEEE = comdat any

$_ZN4mojo8internal10SerializerINS_11MapDataViewINS_14StringDataViewEN9mojo_base5mojom13ValueDataViewEEEKN4base5ValueEE9SerializeERSA_RNS0_15MessageFragmentINS0_8Map_DataINS0_7PointerINS0_10Array_DataIcEEEENS5_8internal10Value_DataEEEEEPKNS0_23ContainerValidateParamsE = comdat any

$_ZN4mojo8internal10SerializerIN9mojo_base5mojom17ListValueDataViewEKN4base5ValueEE9SerializeERS7_RNS0_15MessageFragmentINS3_8internal14ListValue_DataEEE = comdat any

$_ZN4mojo8internal10SerializerINS_13ArrayDataViewIN7network5mojom23CanonicalCookieDataViewEEEN3WTF6VectorIN3net15CanonicalCookieELj0ENS7_18PartitionAllocatorEEEE11DeserializeEPNS0_10Array_DataINS0_7PointerINS4_8internal20CanonicalCookie_DataEEEEEPSC_PNS_7MessageE = comdat any

$_ZN3WTF6VectorIN3net15CanonicalCookieELj0ENS_18PartitionAllocatorEE16ReallocateBufferEj = comdat any

$_ZN3WTF18PartitionAllocator13QuantizedSizeIN3net15CanonicalCookieEEEmm = comdat any

$_ZN3WTF6VectorIN3net15CanonicalCookieELj0ENS_18PartitionAllocatorEE6resizeEj = comdat any

$_ZN3WTF6VectorIN3net15CanonicalCookieELj0ENS_18PartitionAllocatorEE2atEj = comdat any

$_ZNK3WTF6VectorIN3net15CanonicalCookieELj0ENS_18PartitionAllocatorEE2atEj = comdat any

$_ZN3WTF18PartitionAllocator13QuantizedSizeIN7network5mojom21CookieAccessSemanticsEEEmm = comdat any

$_ZN3WTF6VectorIN7network5mojom21CookieAccessSemanticsELj0ENS_18PartitionAllocatorEE2atEj = comdat any

$_ZNK3WTF6VectorIN7network5mojom21CookieAccessSemanticsELj0ENS_18PartitionAllocatorEE2atEj = comdat any

$_ZN4mojo8internal15ArraySerializerINS_13ArrayDataViewIN7network5mojom30CookieWithAccessResultDataViewEEEN3WTF6VectorINS_9StructPtrINS4_5blink22CookieWithAccessResultEEELj0ENS7_18PartitionAllocatorEEENS0_13ArrayIteratorINS_11ArrayTraitsISE_EESE_Lb0EEEvE19DeserializeElementsEPNS0_10Array_DataINS0_7PointerINS4_8internal27CookieWithAccessResult_DataEEEEEPSE_PNS_7MessageE = comdat any

$_ZN3WTF6VectorIN4mojo9StructPtrIN7network5mojom5blink22CookieWithAccessResultEEELj0ENS_18PartitionAllocatorEE16ReallocateBufferEj = comdat any

$_ZN3WTF18PartitionAllocator13QuantizedSizeIN4mojo9StructPtrIN7network5mojom5blink22CookieWithAccessResultEEEEEmm = comdat any

$_ZN3WTF6VectorIN4mojo9StructPtrIN7network5mojom5blink22CookieWithAccessResultEEELj0ENS_18PartitionAllocatorEE6resizeEj = comdat any

$_ZN3WTF6VectorIN4mojo9StructPtrIN7network5mojom5blink22CookieWithAccessResultEEELj0ENS_18PartitionAllocatorEE2atEj = comdat any

$_ZN4mojo8internal10SerializerIN7network5mojom30CookieWithAccessResultDataViewENS_9StructPtrINS3_5blink22CookieWithAccessResultEEEE9SerializeERS8_RNS0_15MessageFragmentINS3_8internal27CookieWithAccessResult_DataEEE = comdat any

$_ZN4mojo8internal11DeserializeIN7network5mojom26CookieAccessResultDataViewERPNS3_8internal23CookieAccessResult_DataENS_9StructPtrINS3_5blink18CookieAccessResultEEEJRPNS_7MessageEELPv0EEEbOT0_PT1_DpOT2_ = comdat any

$_ZN4mojo8internal10SerializerIN7network5mojom26CookieAccessResultDataViewENS_9StructPtrINS3_5blink18CookieAccessResultEEEE9SerializeERS8_RNS0_15MessageFragmentINS3_8internal23CookieAccessResult_DataEEE = comdat any

$_ZN4mojo12StructTraitsIN3url5mojom11UrlDataViewEN5blink4KURLEE4ReadES3_PS5_ = comdat any

$_ZN4mojo8internal15ArraySerializerINS_13ArrayDataViewIN16content_settings5mojom35ContentSettingPatternSourceDataViewEEEN3WTF6VectorINS_9StructPtrINS4_5blink27ContentSettingPatternSourceEEELj0ENS7_18PartitionAllocatorEEENS0_13ArrayIteratorINS_11ArrayTraitsISE_EESE_Lb0EEEvE19DeserializeElementsEPNS0_10Array_DataINS0_7PointerINS4_8internal32ContentSettingPatternSource_DataEEEEEPSE_PNS_7MessageE = comdat any

$_ZN3WTF6VectorIN4mojo9StructPtrIN16content_settings5mojom5blink27ContentSettingPatternSourceEEELj0ENS_18PartitionAllocatorEE16ReallocateBufferEj = comdat any

$_ZN3WTF18PartitionAllocator13QuantizedSizeIN4mojo9StructPtrIN16content_settings5mojom5blink27ContentSettingPatternSourceEEEEEmm = comdat any

$_ZN3WTF6VectorIN4mojo9StructPtrIN16content_settings5mojom5blink27ContentSettingPatternSourceEEELj0ENS_18PartitionAllocatorEE6resizeEj = comdat any

$_ZN4mojo8internal15ArraySerializerINS_13ArrayDataViewINS_14StringDataViewEEEN3WTF6VectorINS5_6StringELj0ENS5_18PartitionAllocatorEEENS0_13ArrayIteratorINS_11ArrayTraitsIS9_EES9_Lb0EEEvE19DeserializeElementsEPNS0_10Array_DataINS0_7PointerINSF_IcEEEEEEPS9_PNS_7MessageE = comdat any

$_ZN3WTF18PartitionAllocator13QuantizedSizeINS_6StringEEEmm = comdat any

$_ZN3WTF6VectorINS_6StringELj0ENS_18PartitionAllocatorEE6resizeEj = comdat any

$_ZN3WTF6VectorINS_6StringELj0ENS_18PartitionAllocatorEE2atEj = comdat any

$_ZN4mojo9StructPtrIN7network5mojom5blink29CookieAndLineWithAccessResultEE4TakeEPS5_ = comdat any

$_ZN4mojo8internal11DeserializeINS_13ArrayDataViewINS_14StringDataViewEEERPNS0_10Array_DataINS0_7PointerINS5_IcEEEEEEN4absl8optionalIN3WTF6VectorINSE_6StringELj0ENSE_18PartitionAllocatorEEEEEJRPNS_7MessageEELPv0EEEbOT0_PT1_DpOT2_ = comdat any

@.str = private unnamed_addr constant [26 x i8] c"block_third_party_cookies\00", align 1
@.str.1 = private unnamed_addr constant [8 x i8] c"<value>\00", align 1
@.str.2 = private unnamed_addr constant [9 x i8] c"settings\00", align 1
@.str.3 = private unnamed_addr constant [38 x i8] c"secure_origin_cookies_allowed_schemes\00", align 1
@.str.4 = private unnamed_addr constant [40 x i8] c"matching_scheme_cookies_allowed_schemes\00", align 1
@.str.5 = private unnamed_addr constant [36 x i8] c"third_party_cookies_allowed_schemes\00", align 1
@.str.6 = private unnamed_addr constant [26 x i8] c"allow_file_scheme_cookies\00", align 1
@.str.7 = private unnamed_addr constant [34 x i8] c"settings_for_legacy_cookie_access\00", align 1
@.str.8 = private unnamed_addr constant [28 x i8] c"settings_for_storage_access\00", align 1
@.str.9 = private unnamed_addr constant [28 x i8] c"cookie_access_delegate_type\00", align 1
@.str.10 = private unnamed_addr constant [8 x i8] c"context\00", align 1
@.str.11 = private unnamed_addr constant [18 x i8] c"schemeful_context\00", align 1
@.str.12 = private unnamed_addr constant [17 x i8] c"exclude_httponly\00", align 1
@.str.13 = private unnamed_addr constant [25 x i8] c"same_site_cookie_context\00", align 1
@.str.14 = private unnamed_addr constant [19 x i8] c"update_access_time\00", align 1
@.str.15 = private unnamed_addr constant [24 x i8] c"return_excluded_cookies\00", align 1
@.str.16 = private unnamed_addr constant [31 x i8] c"same_party_cookie_context_type\00", align 1
@.str.17 = private unnamed_addr constant [24 x i8] c"full_party_context_size\00", align 1
@.str.18 = private unnamed_addr constant [33 x i8] c"is_in_nontrivial_first_party_set\00", align 1
@.str.19 = private unnamed_addr constant [5 x i8] c"name\00", align 1
@.str.20 = private unnamed_addr constant [6 x i8] c"value\00", align 1
@.str.21 = private unnamed_addr constant [7 x i8] c"domain\00", align 1
@.str.22 = private unnamed_addr constant [5 x i8] c"path\00", align 1
@.str.23 = private unnamed_addr constant [9 x i8] c"creation\00", align 1
@.str.24 = private unnamed_addr constant [7 x i8] c"expiry\00", align 1
@.str.25 = private unnamed_addr constant [12 x i8] c"last_access\00", align 1
@.str.26 = private unnamed_addr constant [7 x i8] c"secure\00", align 1
@.str.27 = private unnamed_addr constant [9 x i8] c"httponly\00", align 1
@.str.28 = private unnamed_addr constant [18 x i8] c"site_restrictions\00", align 1
@.str.29 = private unnamed_addr constant [9 x i8] c"priority\00", align 1
@.str.30 = private unnamed_addr constant [14 x i8] c"source_scheme\00", align 1
@.str.31 = private unnamed_addr constant [11 x i8] c"same_party\00", align 1
@.str.32 = private unnamed_addr constant [12 x i8] c"source_port\00", align 1
@.str.33 = private unnamed_addr constant [18 x i8] c"exclusion_reasons\00", align 1
@.str.34 = private unnamed_addr constant [16 x i8] c"warning_reasons\00", align 1
@.str.35 = private unnamed_addr constant [7 x i8] c"cookie\00", align 1
@.str.36 = private unnamed_addr constant [14 x i8] c"cookie_string\00", align 1
@.str.37 = private unnamed_addr constant [14 x i8] c"access_result\00", align 1
@.str.38 = private unnamed_addr constant [15 x i8] c"cookie_or_line\00", align 1
@.str.39 = private unnamed_addr constant [20 x i8] c"effective_same_site\00", align 1
@.str.40 = private unnamed_addr constant [17 x i8] c"access_semantics\00", align 1
@.str.41 = private unnamed_addr constant [7 x i8] c"status\00", align 1
@.str.42 = private unnamed_addr constant [36 x i8] c"is_allowed_to_access_secure_cookies\00", align 1
@.str.43 = private unnamed_addr constant [6 x i8] c"cause\00", align 1
@.str.44 = private unnamed_addr constant [19 x i8] c"created_after_time\00", align 1
@.str.45 = private unnamed_addr constant [20 x i8] c"created_before_time\00", align 1
@.str.46 = private unnamed_addr constant [18 x i8] c"excluding_domains\00", align 1
@.str.47 = private unnamed_addr constant [18 x i8] c"including_domains\00", align 1
@.str.48 = private unnamed_addr constant [12 x i8] c"cookie_name\00", align 1
@.str.49 = private unnamed_addr constant [10 x i8] c"host_name\00", align 1
@.str.50 = private unnamed_addr constant [4 x i8] c"url\00", align 1
@.str.51 = private unnamed_addr constant [16 x i8] c"session_control\00", align 1
@_ZN7network5mojom5blink20CookieChangeListener5Name_E = hidden constant [35 x i8] c"network.mojom.CookieChangeListener\00", align 16
@_ZTVN7network5mojom5blink25CookieChangeListenerProxyE = hidden unnamed_addr constant { [5 x i8*] } { [5 x i8*] [i8* null, i8* null, i8* bitcast (void (%"class.network::mojom::blink::CookieChangeListener"*)* @_ZN7network5mojom5blink20CookieChangeListenerD2Ev to i8*), i8* bitcast (void (%"class.network::mojom::blink::CookieChangeListenerProxy"*)* @_ZN7network5mojom5blink25CookieChangeListenerProxyD0Ev to i8*), i8* bitcast (void (%"class.network::mojom::blink::CookieChangeListenerProxy"*, %"class.mojo::StructPtr.119"*)* @_ZN7network5mojom5blink25CookieChangeListenerProxy14OnCookieChangeEN4mojo9StructPtrINS1_16CookieChangeInfoEEE to i8*)] }, align 8
@_ZN7network5mojom5blinkL35kCookieChangeListenerValidationInfoE = internal constant [1 x %"struct.std::__1::pair.135"] [%"struct.std::__1::pair.135" { i32 1685849808, %"struct.mojo::internal::GenericValidationInfo" { i1 (i8*, %"class.mojo::internal::ValidationContext"*)* @_ZN7network5mojom8internal47CookieChangeListener_OnCookieChange_Params_Data8ValidateEPKvPN4mojo8internal17ValidationContextE, i1 (i8*, %"class.mojo::internal::ValidationContext"*)* null } }], align 16
@_ZN7network5mojom5blink13CookieManager5Name_E = hidden constant [28 x i8] c"network.mojom.CookieManager\00", align 16
@_ZTVN7network5mojom5blink18CookieManagerProxyE = hidden unnamed_addr constant { [21 x i8*] } { [21 x i8*] [i8* null, i8* null, i8* bitcast (void (%"class.network::mojom::blink::CookieManager"*)* @_ZN7network5mojom5blink13CookieManagerD2Ev to i8*), i8* bitcast (void (%"class.network::mojom::blink::CookieManagerProxy"*)* @_ZN7network5mojom5blink18CookieManagerProxyD0Ev to i8*), i8* bitcast (void (%"class.network::mojom::blink::CookieManagerProxy"*, %"class.base::OnceCallback"*)* @_ZN7network5mojom5blink18CookieManagerProxy13GetAllCookiesEN4base12OnceCallbackIFvRKN3WTF6VectorIN3net15CanonicalCookieELj0ENS5_18PartitionAllocatorEEEEEE to i8*), i8* bitcast (void (%"class.network::mojom::blink::CookieManagerProxy"*, %"class.base::OnceCallback.143"*)* @_ZN7network5mojom5blink18CookieManagerProxy32GetAllCookiesWithAccessSemanticsEN4base12OnceCallbackIFvRKN3WTF6VectorIN3net15CanonicalCookieELj0ENS5_18PartitionAllocatorEEERKNS6_INS0_21CookieAccessSemanticsELj0ES9_EEEEE to i8*), i8* bitcast (void (%"class.network::mojom::blink::CookieManagerProxy"*, %"class.blink::KURL"*, %"class.mojo::StructPtr.145"*, %"class.base::OnceCallback.152"*)* @_ZN7network5mojom5blink18CookieManagerProxy13GetCookieListERKN5blink4KURLEN4mojo9StructPtrINS1_13CookieOptionsEEEN4base12OnceCallbackIFvN3WTF6VectorINS8_INS1_22CookieWithAccessResultEEELj0ENSD_18PartitionAllocatorEEESI_EEE to i8*), i8* bitcast (void (%"class.network::mojom::blink::CookieManagerProxy"*, %"class.net::CanonicalCookie"*, %"class.blink::KURL"*, %"class.mojo::StructPtr.145"*, %"class.base::OnceCallback.160"*)* @_ZN7network5mojom5blink18CookieManagerProxy18SetCanonicalCookieERKN3net15CanonicalCookieERKN5blink4KURLEN4mojo9StructPtrINS1_13CookieOptionsEEEN4base12OnceCallbackIFvNSC_INS1_18CookieAccessResultEEEEEE to i8*), i8* bitcast (void (%"class.network::mojom::blink::CookieManagerProxy"*, %"class.net::CanonicalCookie"*, %"class.base::OnceCallback.164"*)* @_ZN7network5mojom5blink18CookieManagerProxy21DeleteCanonicalCookieERKN3net15CanonicalCookieEN4base12OnceCallbackIFvbEEE to i8*), i8* bitcast (void (%"class.network::mojom::blink::CookieManagerProxy"*, %"class.mojo::StructPtr.166"*, %"class.base::OnceCallback.173"*)* @_ZN7network5mojom5blink18CookieManagerProxy13DeleteCookiesEN4mojo9StructPtrINS1_20CookieDeletionFilterEEEN4base12OnceCallbackIFvjEEE to i8*), i8* bitcast (void (%"class.network::mojom::blink::CookieManagerProxy"*, %"class.base::OnceCallback.173"*)* @_ZN7network5mojom5blink18CookieManagerProxy24DeleteSessionOnlyCookiesEN4base12OnceCallbackIFvjEEE to i8*), i8* bitcast (void (%"class.network::mojom::blink::CookieManagerProxy"*, %"class.blink::KURL"*, %"class.WTF::String"*, %"class.mojo::PendingRemote"*)* @_ZN7network5mojom5blink18CookieManagerProxy23AddCookieChangeListenerERKN5blink4KURLERKN3WTF6StringEN4mojo13PendingRemoteINS1_20CookieChangeListenerEEE to i8*), i8* bitcast (void (%"class.network::mojom::blink::CookieManagerProxy"*, %"class.mojo::PendingRemote"*)* @_ZN7network5mojom5blink18CookieManagerProxy23AddGlobalChangeListenerEN4mojo13PendingRemoteINS1_20CookieChangeListenerEEE to i8*), i8* bitcast (void (%"class.network::mojom::blink::CookieManagerProxy"*, %"class.mojo::PendingReceiver"*)* @_ZN7network5mojom5blink18CookieManagerProxy14CloneInterfaceEN4mojo15PendingReceiverINS1_13CookieManagerEEE to i8*), i8* bitcast (void (%"class.network::mojom::blink::CookieManagerProxy"*, %"class.base::OnceCallback.184"*)* @_ZN7network5mojom5blink18CookieManagerProxy16FlushCookieStoreEN4base12OnceCallbackIFvvEEE to i8*), i8* bitcast (void (%"class.network::mojom::blink::CookieManagerProxy"*, i1, %"class.base::OnceCallback.164"*)* @_ZN7network5mojom5blink18CookieManagerProxy22AllowFileSchemeCookiesEbN4base12OnceCallbackIFvbEEE to i8*), i8* bitcast (void (%"class.network::mojom::blink::CookieManagerProxy"*, %"class.WTF::Vector"*)* @_ZN7network5mojom5blink18CookieManagerProxy18SetContentSettingsEN3WTF6VectorIN4mojo9StructPtrIN16content_settings5mojom5blink27ContentSettingPatternSourceEEELj0ENS3_18PartitionAllocatorEEE to i8*), i8* bitcast (void (%"class.network::mojom::blink::CookieManagerProxy"*)* @_ZN7network5mojom5blink18CookieManagerProxy24SetForceKeepSessionStateEv to i8*), i8* bitcast (void (%"class.network::mojom::blink::CookieManagerProxy"*, i1)* @_ZN7network5mojom5blink18CookieManagerProxy22BlockThirdPartyCookiesEb to i8*), i8* bitcast (void (%"class.network::mojom::blink::CookieManagerProxy"*, %"class.WTF::Vector"*)* @_ZN7network5mojom5blink18CookieManagerProxy39SetContentSettingsForLegacyCookieAccessEN3WTF6VectorIN4mojo9StructPtrIN16content_settings5mojom5blink27ContentSettingPatternSourceEEELj0ENS3_18PartitionAllocatorEEE to i8*), i8* bitcast (void (%"class.network::mojom::blink::CookieManagerProxy"*, %"class.WTF::Vector"*, %"class.base::OnceCallback.184"*)* @_ZN7network5mojom5blink18CookieManagerProxy29SetStorageAccessGrantSettingsEN3WTF6VectorIN4mojo9StructPtrIN16content_settings5mojom5blink27ContentSettingPatternSourceEEELj0ENS3_18PartitionAllocatorEEEN4base12OnceCallbackIFvvEEE to i8*)] }, align 8
@_ZN7network5mojom5blinkL28kCookieManagerValidationInfoE = internal constant [17 x %"struct.std::__1::pair.135"] [%"struct.std::__1::pair.135" { i32 274245010, %"struct.mojo::internal::GenericValidationInfo" { i1 (i8*, %"class.mojo::internal::ValidationContext"*)* @_ZN7network5mojom8internal39CookieManager_GetAllCookies_Params_Data8ValidateEPKvPN4mojo8internal17ValidationContextE, i1 (i8*, %"class.mojo::internal::ValidationContext"*)* @_ZN7network5mojom8internal47CookieManager_GetAllCookies_ResponseParams_Data8ValidateEPKvPN4mojo8internal17ValidationContextE } }, %"struct.std::__1::pair.135" { i32 1737850752, %"struct.mojo::internal::GenericValidationInfo" { i1 (i8*, %"class.mojo::internal::ValidationContext"*)* @_ZN7network5mojom8internal58CookieManager_GetAllCookiesWithAccessSemantics_Params_Data8ValidateEPKvPN4mojo8internal17ValidationContextE, i1 (i8*, %"class.mojo::internal::ValidationContext"*)* @_ZN7network5mojom8internal66CookieManager_GetAllCookiesWithAccessSemantics_ResponseParams_Data8ValidateEPKvPN4mojo8internal17ValidationContextE } }, %"struct.std::__1::pair.135" { i32 654332822, %"struct.mojo::internal::GenericValidationInfo" { i1 (i8*, %"class.mojo::internal::ValidationContext"*)* @_ZN7network5mojom8internal39CookieManager_GetCookieList_Params_Data8ValidateEPKvPN4mojo8internal17ValidationContextE, i1 (i8*, %"class.mojo::internal::ValidationContext"*)* @_ZN7network5mojom8internal47CookieManager_GetCookieList_ResponseParams_Data8ValidateEPKvPN4mojo8internal17ValidationContextE } }, %"struct.std::__1::pair.135" { i32 24949920, %"struct.mojo::internal::GenericValidationInfo" { i1 (i8*, %"class.mojo::internal::ValidationContext"*)* @_ZN7network5mojom8internal44CookieManager_SetCanonicalCookie_Params_Data8ValidateEPKvPN4mojo8internal17ValidationContextE, i1 (i8*, %"class.mojo::internal::ValidationContext"*)* @_ZN7network5mojom8internal52CookieManager_SetCanonicalCookie_ResponseParams_Data8ValidateEPKvPN4mojo8internal17ValidationContextE } }, %"struct.std::__1::pair.135" { i32 777282370, %"struct.mojo::internal::GenericValidationInfo" { i1 (i8*, %"class.mojo::internal::ValidationContext"*)* @_ZN7network5mojom8internal47CookieManager_DeleteCanonicalCookie_Params_Data8ValidateEPKvPN4mojo8internal17ValidationContextE, i1 (i8*, %"class.mojo::internal::ValidationContext"*)* @_ZN7network5mojom8internal55CookieManager_DeleteCanonicalCookie_ResponseParams_Data8ValidateEPKvPN4mojo8internal17ValidationContextE } }, %"struct.std::__1::pair.135" { i32 1512501863, %"struct.mojo::internal::GenericValidationInfo" { i1 (i8*, %"class.mojo::internal::ValidationContext"*)* @_ZN7network5mojom8internal39CookieManager_DeleteCookies_Params_Data8ValidateEPKvPN4mojo8internal17ValidationContextE, i1 (i8*, %"class.mojo::internal::ValidationContext"*)* @_ZN7network5mojom8internal47CookieManager_DeleteCookies_ResponseParams_Data8ValidateEPKvPN4mojo8internal17ValidationContextE } }, %"struct.std::__1::pair.135" { i32 1920193149, %"struct.mojo::internal::GenericValidationInfo" { i1 (i8*, %"class.mojo::internal::ValidationContext"*)* @_ZN7network5mojom8internal50CookieManager_DeleteSessionOnlyCookies_Params_Data8ValidateEPKvPN4mojo8internal17ValidationContextE, i1 (i8*, %"class.mojo::internal::ValidationContext"*)* @_ZN7network5mojom8internal58CookieManager_DeleteSessionOnlyCookies_ResponseParams_Data8ValidateEPKvPN4mojo8internal17ValidationContextE } }, %"struct.std::__1::pair.135" { i32 534943069, %"struct.mojo::internal::GenericValidationInfo" { i1 (i8*, %"class.mojo::internal::ValidationContext"*)* @_ZN7network5mojom8internal49CookieManager_AddCookieChangeListener_Params_Data8ValidateEPKvPN4mojo8internal17ValidationContextE, i1 (i8*, %"class.mojo::internal::ValidationContext"*)* null } }, %"struct.std::__1::pair.135" { i32 393415073, %"struct.mojo::internal::GenericValidationInfo" { i1 (i8*, %"class.mojo::internal::ValidationContext"*)* @_ZN7network5mojom8internal49CookieManager_AddGlobalChangeListener_Params_Data8ValidateEPKvPN4mojo8internal17ValidationContextE, i1 (i8*, %"class.mojo::internal::ValidationContext"*)* null } }, %"struct.std::__1::pair.135" { i32 1122875781, %"struct.mojo::internal::GenericValidationInfo" { i1 (i8*, %"class.mojo::internal::ValidationContext"*)* @_ZN7network5mojom8internal40CookieManager_CloneInterface_Params_Data8ValidateEPKvPN4mojo8internal17ValidationContextE, i1 (i8*, %"class.mojo::internal::ValidationContext"*)* null } }, %"struct.std::__1::pair.135" { i32 247024553, %"struct.mojo::internal::GenericValidationInfo" { i1 (i8*, %"class.mojo::internal::ValidationContext"*)* @_ZN7network5mojom8internal42CookieManager_FlushCookieStore_Params_Data8ValidateEPKvPN4mojo8internal17ValidationContextE, i1 (i8*, %"class.mojo::internal::ValidationContext"*)* @_ZN7network5mojom8internal50CookieManager_FlushCookieStore_ResponseParams_Data8ValidateEPKvPN4mojo8internal17ValidationContextE } }, %"struct.std::__1::pair.135" { i32 1477514595, %"struct.mojo::internal::GenericValidationInfo" { i1 (i8*, %"class.mojo::internal::ValidationContext"*)* @_ZN7network5mojom8internal48CookieManager_AllowFileSchemeCookies_Params_Data8ValidateEPKvPN4mojo8internal17ValidationContextE, i1 (i8*, %"class.mojo::internal::ValidationContext"*)* @_ZN7network5mojom8internal56CookieManager_AllowFileSchemeCookies_ResponseParams_Data8ValidateEPKvPN4mojo8internal17ValidationContextE } }, %"struct.std::__1::pair.135" { i32 2012749568, %"struct.mojo::internal::GenericValidationInfo" { i1 (i8*, %"class.mojo::internal::ValidationContext"*)* @_ZN7network5mojom8internal44CookieManager_SetContentSettings_Params_Data8ValidateEPKvPN4mojo8internal17ValidationContextE, i1 (i8*, %"class.mojo::internal::ValidationContext"*)* null } }, %"struct.std::__1::pair.135" { i32 1461611417, %"struct.mojo::internal::GenericValidationInfo" { i1 (i8*, %"class.mojo::internal::ValidationContext"*)* @_ZN7network5mojom8internal50CookieManager_SetForceKeepSessionState_Params_Data8ValidateEPKvPN4mojo8internal17ValidationContextE, i1 (i8*, %"class.mojo::internal::ValidationContext"*)* null } }, %"struct.std::__1::pair.135" { i32 777805142, %"struct.mojo::internal::GenericValidationInfo" { i1 (i8*, %"class.mojo::internal::ValidationContext"*)* @_ZN7network5mojom8internal48CookieManager_BlockThirdPartyCookies_Params_Data8ValidateEPKvPN4mojo8internal17ValidationContextE, i1 (i8*, %"class.mojo::internal::ValidationContext"*)* null } }, %"struct.std::__1::pair.135" { i32 1083965768, %"struct.mojo::internal::GenericValidationInfo" { i1 (i8*, %"class.mojo::internal::ValidationContext"*)* @_ZN7network5mojom8internal65CookieManager_SetContentSettingsForLegacyCookieAccess_Params_Data8ValidateEPKvPN4mojo8internal17ValidationContextE, i1 (i8*, %"class.mojo::internal::ValidationContext"*)* null } }, %"struct.std::__1::pair.135" { i32 1621631135, %"struct.mojo::internal::GenericValidationInfo" { i1 (i8*, %"class.mojo::internal::ValidationContext"*)* @_ZN7network5mojom8internal55CookieManager_SetStorageAccessGrantSettings_Params_Data8ValidateEPKvPN4mojo8internal17ValidationContextE, i1 (i8*, %"class.mojo::internal::ValidationContext"*)* @_ZN7network5mojom8internal63CookieManager_SetStorageAccessGrantSettings_ResponseParams_Data8ValidateEPKvPN4mojo8internal17ValidationContextE } }], align 16
@_ZTVN7network5mojom5blink36CookieChangeListenerRequestValidatorE = hidden unnamed_addr constant { [6 x i8*] } { [6 x i8*] [i8* null, i8* null, i8* bitcast (void (%"class.mojo::MessageReceiver"*)* @_ZN4mojo15MessageReceiverD2Ev to i8*), i8* bitcast (void (%"class.network::mojom::blink::CookieChangeListenerRequestValidator"*)* @_ZN7network5mojom5blink36CookieChangeListenerRequestValidatorD0Ev to i8*), i8* bitcast (i1 (%"class.mojo::MessageReceiver"*)* @_ZN4mojo15MessageReceiver25PrefersSerializedMessagesEv to i8*), i8* bitcast (i1 (%"class.network::mojom::blink::CookieChangeListenerRequestValidator"*, %"class.mojo::Message"*)* @_ZN7network5mojom5blink36CookieChangeListenerRequestValidator6AcceptEPN4mojo7MessageE to i8*)] }, align 8
@_ZTVN7network5mojom5blink45CookieManager_GetAllCookies_ForwardToCallbackE = hidden unnamed_addr constant { [6 x i8*] } { [6 x i8*] [i8* null, i8* null, i8* bitcast (void (%"class.network::mojom::blink::CookieManager_GetAllCookies_ForwardToCallback"*)* @_ZN7network5mojom5blink45CookieManager_GetAllCookies_ForwardToCallbackD2Ev to i8*), i8* bitcast (void (%"class.network::mojom::blink::CookieManager_GetAllCookies_ForwardToCallback"*)* @_ZN7network5mojom5blink45CookieManager_GetAllCookies_ForwardToCallbackD0Ev to i8*), i8* bitcast (i1 (%"class.mojo::MessageReceiver"*)* @_ZN4mojo15MessageReceiver25PrefersSerializedMessagesEv to i8*), i8* bitcast (i1 (%"class.network::mojom::blink::CookieManager_GetAllCookies_ForwardToCallback"*, %"class.mojo::Message"*)* @_ZN7network5mojom5blink45CookieManager_GetAllCookies_ForwardToCallback6AcceptEPN4mojo7MessageE to i8*)] }, align 8
@_ZTVN7network5mojom5blink64CookieManager_GetAllCookiesWithAccessSemantics_ForwardToCallbackE = hidden unnamed_addr constant { [6 x i8*] } { [6 x i8*] [i8* null, i8* null, i8* bitcast (void (%"class.network::mojom::blink::CookieManager_GetAllCookiesWithAccessSemantics_ForwardToCallback"*)* @_ZN7network5mojom5blink64CookieManager_GetAllCookiesWithAccessSemantics_ForwardToCallbackD2Ev to i8*), i8* bitcast (void (%"class.network::mojom::blink::CookieManager_GetAllCookiesWithAccessSemantics_ForwardToCallback"*)* @_ZN7network5mojom5blink64CookieManager_GetAllCookiesWithAccessSemantics_ForwardToCallbackD0Ev to i8*), i8* bitcast (i1 (%"class.mojo::MessageReceiver"*)* @_ZN4mojo15MessageReceiver25PrefersSerializedMessagesEv to i8*), i8* bitcast (i1 (%"class.network::mojom::blink::CookieManager_GetAllCookiesWithAccessSemantics_ForwardToCallback"*, %"class.mojo::Message"*)* @_ZN7network5mojom5blink64CookieManager_GetAllCookiesWithAccessSemantics_ForwardToCallback6AcceptEPN4mojo7MessageE to i8*)] }, align 8
@_ZTVN7network5mojom5blink45CookieManager_GetCookieList_ForwardToCallbackE = hidden unnamed_addr constant { [6 x i8*] } { [6 x i8*] [i8* null, i8* null, i8* bitcast (void (%"class.network::mojom::blink::CookieManager_GetCookieList_ForwardToCallback"*)* @_ZN7network5mojom5blink45CookieManager_GetCookieList_ForwardToCallbackD2Ev to i8*), i8* bitcast (void (%"class.network::mojom::blink::CookieManager_GetCookieList_ForwardToCallback"*)* @_ZN7network5mojom5blink45CookieManager_GetCookieList_ForwardToCallbackD0Ev to i8*), i8* bitcast (i1 (%"class.mojo::MessageReceiver"*)* @_ZN4mojo15MessageReceiver25PrefersSerializedMessagesEv to i8*), i8* bitcast (i1 (%"class.network::mojom::blink::CookieManager_GetCookieList_ForwardToCallback"*, %"class.mojo::Message"*)* @_ZN7network5mojom5blink45CookieManager_GetCookieList_ForwardToCallback6AcceptEPN4mojo7MessageE to i8*)] }, align 8
@_ZTVN7network5mojom5blink50CookieManager_SetCanonicalCookie_ForwardToCallbackE = hidden unnamed_addr constant { [6 x i8*] } { [6 x i8*] [i8* null, i8* null, i8* bitcast (void (%"class.network::mojom::blink::CookieManager_SetCanonicalCookie_ForwardToCallback"*)* @_ZN7network5mojom5blink50CookieManager_SetCanonicalCookie_ForwardToCallbackD2Ev to i8*), i8* bitcast (void (%"class.network::mojom::blink::CookieManager_SetCanonicalCookie_ForwardToCallback"*)* @_ZN7network5mojom5blink50CookieManager_SetCanonicalCookie_ForwardToCallbackD0Ev to i8*), i8* bitcast (i1 (%"class.mojo::MessageReceiver"*)* @_ZN4mojo15MessageReceiver25PrefersSerializedMessagesEv to i8*), i8* bitcast (i1 (%"class.network::mojom::blink::CookieManager_SetCanonicalCookie_ForwardToCallback"*, %"class.mojo::Message"*)* @_ZN7network5mojom5blink50CookieManager_SetCanonicalCookie_ForwardToCallback6AcceptEPN4mojo7MessageE to i8*)] }, align 8
@_ZTVN7network5mojom5blink53CookieManager_DeleteCanonicalCookie_ForwardToCallbackE = hidden unnamed_addr constant { [6 x i8*] } { [6 x i8*] [i8* null, i8* null, i8* bitcast (void (%"class.network::mojom::blink::CookieManager_DeleteCanonicalCookie_ForwardToCallback"*)* @_ZN7network5mojom5blink53CookieManager_DeleteCanonicalCookie_ForwardToCallbackD2Ev to i8*), i8* bitcast (void (%"class.network::mojom::blink::CookieManager_DeleteCanonicalCookie_ForwardToCallback"*)* @_ZN7network5mojom5blink53CookieManager_DeleteCanonicalCookie_ForwardToCallbackD0Ev to i8*), i8* bitcast (i1 (%"class.mojo::MessageReceiver"*)* @_ZN4mojo15MessageReceiver25PrefersSerializedMessagesEv to i8*), i8* bitcast (i1 (%"class.network::mojom::blink::CookieManager_DeleteCanonicalCookie_ForwardToCallback"*, %"class.mojo::Message"*)* @_ZN7network5mojom5blink53CookieManager_DeleteCanonicalCookie_ForwardToCallback6AcceptEPN4mojo7MessageE to i8*)] }, align 8
@_ZTVN7network5mojom5blink45CookieManager_DeleteCookies_ForwardToCallbackE = hidden unnamed_addr constant { [6 x i8*] } { [6 x i8*] [i8* null, i8* null, i8* bitcast (void (%"class.network::mojom::blink::CookieManager_DeleteCookies_ForwardToCallback"*)* @_ZN7network5mojom5blink45CookieManager_DeleteCookies_ForwardToCallbackD2Ev to i8*), i8* bitcast (void (%"class.network::mojom::blink::CookieManager_DeleteCookies_ForwardToCallback"*)* @_ZN7network5mojom5blink45CookieManager_DeleteCookies_ForwardToCallbackD0Ev to i8*), i8* bitcast (i1 (%"class.mojo::MessageReceiver"*)* @_ZN4mojo15MessageReceiver25PrefersSerializedMessagesEv to i8*), i8* bitcast (i1 (%"class.network::mojom::blink::CookieManager_DeleteCookies_ForwardToCallback"*, %"class.mojo::Message"*)* @_ZN7network5mojom5blink45CookieManager_DeleteCookies_ForwardToCallback6AcceptEPN4mojo7MessageE to i8*)] }, align 8
@_ZTVN7network5mojom5blink56CookieManager_DeleteSessionOnlyCookies_ForwardToCallbackE = hidden unnamed_addr constant { [6 x i8*] } { [6 x i8*] [i8* null, i8* null, i8* bitcast (void (%"class.network::mojom::blink::CookieManager_DeleteSessionOnlyCookies_ForwardToCallback"*)* @_ZN7network5mojom5blink56CookieManager_DeleteSessionOnlyCookies_ForwardToCallbackD2Ev to i8*), i8* bitcast (void (%"class.network::mojom::blink::CookieManager_DeleteSessionOnlyCookies_ForwardToCallback"*)* @_ZN7network5mojom5blink56CookieManager_DeleteSessionOnlyCookies_ForwardToCallbackD0Ev to i8*), i8* bitcast (i1 (%"class.mojo::MessageReceiver"*)* @_ZN4mojo15MessageReceiver25PrefersSerializedMessagesEv to i8*), i8* bitcast (i1 (%"class.network::mojom::blink::CookieManager_DeleteSessionOnlyCookies_ForwardToCallback"*, %"class.mojo::Message"*)* @_ZN7network5mojom5blink56CookieManager_DeleteSessionOnlyCookies_ForwardToCallback6AcceptEPN4mojo7MessageE to i8*)] }, align 8
@_ZTVN7network5mojom5blink48CookieManager_FlushCookieStore_ForwardToCallbackE = hidden unnamed_addr constant { [6 x i8*] } { [6 x i8*] [i8* null, i8* null, i8* bitcast (void (%"class.network::mojom::blink::CookieManager_FlushCookieStore_ForwardToCallback"*)* @_ZN7network5mojom5blink48CookieManager_FlushCookieStore_ForwardToCallbackD2Ev to i8*), i8* bitcast (void (%"class.network::mojom::blink::CookieManager_FlushCookieStore_ForwardToCallback"*)* @_ZN7network5mojom5blink48CookieManager_FlushCookieStore_ForwardToCallbackD0Ev to i8*), i8* bitcast (i1 (%"class.mojo::MessageReceiver"*)* @_ZN4mojo15MessageReceiver25PrefersSerializedMessagesEv to i8*), i8* bitcast (i1 (%"class.network::mojom::blink::CookieManager_FlushCookieStore_ForwardToCallback"*, %"class.mojo::Message"*)* @_ZN7network5mojom5blink48CookieManager_FlushCookieStore_ForwardToCallback6AcceptEPN4mojo7MessageE to i8*)] }, align 8
@_ZTVN7network5mojom5blink54CookieManager_AllowFileSchemeCookies_ForwardToCallbackE = hidden unnamed_addr constant { [6 x i8*] } { [6 x i8*] [i8* null, i8* null, i8* bitcast (void (%"class.network::mojom::blink::CookieManager_AllowFileSchemeCookies_ForwardToCallback"*)* @_ZN7network5mojom5blink54CookieManager_AllowFileSchemeCookies_ForwardToCallbackD2Ev to i8*), i8* bitcast (void (%"class.network::mojom::blink::CookieManager_AllowFileSchemeCookies_ForwardToCallback"*)* @_ZN7network5mojom5blink54CookieManager_AllowFileSchemeCookies_ForwardToCallbackD0Ev to i8*), i8* bitcast (i1 (%"class.mojo::MessageReceiver"*)* @_ZN4mojo15MessageReceiver25PrefersSerializedMessagesEv to i8*), i8* bitcast (i1 (%"class.network::mojom::blink::CookieManager_AllowFileSchemeCookies_ForwardToCallback"*, %"class.mojo::Message"*)* @_ZN7network5mojom5blink54CookieManager_AllowFileSchemeCookies_ForwardToCallback6AcceptEPN4mojo7MessageE to i8*)] }, align 8
@_ZTVN7network5mojom5blink61CookieManager_SetStorageAccessGrantSettings_ForwardToCallbackE = hidden unnamed_addr constant { [6 x i8*] } { [6 x i8*] [i8* null, i8* null, i8* bitcast (void (%"class.network::mojom::blink::CookieManager_SetStorageAccessGrantSettings_ForwardToCallback"*)* @_ZN7network5mojom5blink61CookieManager_SetStorageAccessGrantSettings_ForwardToCallbackD2Ev to i8*), i8* bitcast (void (%"class.network::mojom::blink::CookieManager_SetStorageAccessGrantSettings_ForwardToCallback"*)* @_ZN7network5mojom5blink61CookieManager_SetStorageAccessGrantSettings_ForwardToCallbackD0Ev to i8*), i8* bitcast (i1 (%"class.mojo::MessageReceiver"*)* @_ZN4mojo15MessageReceiver25PrefersSerializedMessagesEv to i8*), i8* bitcast (i1 (%"class.network::mojom::blink::CookieManager_SetStorageAccessGrantSettings_ForwardToCallback"*, %"class.mojo::Message"*)* @_ZN7network5mojom5blink61CookieManager_SetStorageAccessGrantSettings_ForwardToCallback6AcceptEPN4mojo7MessageE to i8*)] }, align 8
@_ZTVN7network5mojom5blink29CookieManagerRequestValidatorE = hidden unnamed_addr constant { [6 x i8*] } { [6 x i8*] [i8* null, i8* null, i8* bitcast (void (%"class.mojo::MessageReceiver"*)* @_ZN4mojo15MessageReceiverD2Ev to i8*), i8* bitcast (void (%"class.network::mojom::blink::CookieManagerRequestValidator"*)* @_ZN7network5mojom5blink29CookieManagerRequestValidatorD0Ev to i8*), i8* bitcast (i1 (%"class.mojo::MessageReceiver"*)* @_ZN4mojo15MessageReceiver25PrefersSerializedMessagesEv to i8*), i8* bitcast (i1 (%"class.network::mojom::blink::CookieManagerRequestValidator"*, %"class.mojo::Message"*)* @_ZN7network5mojom5blink29CookieManagerRequestValidator6AcceptEPN4mojo7MessageE to i8*)] }, align 8
@_ZTVN7network5mojom5blink30CookieManagerResponseValidatorE = hidden unnamed_addr constant { [6 x i8*] } { [6 x i8*] [i8* null, i8* null, i8* bitcast (void (%"class.mojo::MessageReceiver"*)* @_ZN4mojo15MessageReceiverD2Ev to i8*), i8* bitcast (void (%"class.network::mojom::blink::CookieManagerResponseValidator"*)* @_ZN7network5mojom5blink30CookieManagerResponseValidatorD0Ev to i8*), i8* bitcast (i1 (%"class.mojo::MessageReceiver"*)* @_ZN4mojo15MessageReceiver25PrefersSerializedMessagesEv to i8*), i8* bitcast (i1 (%"class.network::mojom::blink::CookieManagerResponseValidator"*, %"class.mojo::Message"*)* @_ZN7network5mojom5blink30CookieManagerResponseValidator6AcceptEPN4mojo7MessageE to i8*)] }, align 8
@_ZN3url12kMaxURLCharsE = external local_unnamed_addr constant i64, align 8
@_ZN3WTF14g_empty_stringE = external local_unnamed_addr constant %"class.WTF::String"*, align 8
@.str.68 = private unnamed_addr constant [11 x i8] c"i < size()\00", align 1
@.str.69 = private unnamed_addr constant [55 x i8] c"../../third_party/blink/renderer/platform/wtf/vector.h\00", align 1
@.str.70 = private unnamed_addr constant [44 x i8] c"count <= MaxElementCountInBackingStore<T>()\00", align 1
@.str.71 = private unnamed_addr constant [78 x i8] c"../../third_party/blink/renderer/platform/wtf/allocator/partition_allocator.h\00", align 1
@__PRETTY_FUNCTION__._ZN3WTF21GetStringWithTypeNameIN3net15CanonicalCookieEEEPKcv = private unnamed_addr constant [68 x i8] c"const char *WTF::GetStringWithTypeName() [T = net::CanonicalCookie]\00", align 1
@__PRETTY_FUNCTION__._ZN3WTF21GetStringWithTypeNameIN7network5mojom21CookieAccessSemanticsEEEPKcv = private unnamed_addr constant [85 x i8] c"const char *WTF::GetStringWithTypeName() [T = network::mojom::CookieAccessSemantics]\00", align 1
@__PRETTY_FUNCTION__._ZN3WTF21GetStringWithTypeNameIN4mojo9StructPtrIN7network5mojom5blink22CookieWithAccessResultEEEEEPKcv = private unnamed_addr constant [110 x i8] c"const char *WTF::GetStringWithTypeName() [T = mojo::StructPtr<network::mojom::blink::CookieWithAccessResult>]\00", align 1
@__PRETTY_FUNCTION__._ZN3WTF21GetStringWithTypeNameIN4mojo9StructPtrIN16content_settings5mojom5blink27ContentSettingPatternSourceEEEEEPKcv = private unnamed_addr constant [124 x i8] c"const char *WTF::GetStringWithTypeName() [T = mojo::StructPtr<content_settings::mojom::blink::ContentSettingPatternSource>]\00", align 1
@__PRETTY_FUNCTION__._ZN3WTF21GetStringWithTypeNameINS_6StringEEEPKcv = private unnamed_addr constant [59 x i8] c"const char *WTF::GetStringWithTypeName() [T = WTF::String]\00", align 1

@_ZN7network5mojom5blink19CookieManagerParamsC1Ev = hidden unnamed_addr alias void (%"class.network::mojom::blink::CookieManagerParams"*), void (%"class.network::mojom::blink::CookieManagerParams"*)* @_ZN7network5mojom5blink19CookieManagerParamsC2Ev
@_ZN7network5mojom5blink19CookieManagerParamsC1EbN3WTF6VectorIN4mojo9StructPtrIN16content_settings5mojom5blink27ContentSettingPatternSourceEEELj0ENS3_18PartitionAllocatorEEENS4_INS3_6StringELj0ESC_EESF_SF_bSD_SD_NS0_24CookieAccessDelegateTypeE = hidden unnamed_addr alias void (%"class.network::mojom::blink::CookieManagerParams"*, i1, %"class.WTF::Vector"*, %"class.WTF::Vector.46"*, %"class.WTF::Vector.46"*, %"class.WTF::Vector.46"*, i1, %"class.WTF::Vector"*, %"class.WTF::Vector"*, i32), void (%"class.network::mojom::blink::CookieManagerParams"*, i1, %"class.WTF::Vector"*, %"class.WTF::Vector.46"*, %"class.WTF::Vector.46"*, %"class.WTF::Vector.46"*, i1, %"class.WTF::Vector"*, %"class.WTF::Vector"*, i32)* @_ZN7network5mojom5blink19CookieManagerParamsC2EbN3WTF6VectorIN4mojo9StructPtrIN16content_settings5mojom5blink27ContentSettingPatternSourceEEELj0ENS3_18PartitionAllocatorEEENS4_INS3_6StringELj0ESC_EESF_SF_bSD_SD_NS0_24CookieAccessDelegateTypeE
@_ZN7network5mojom5blink19CookieManagerParamsD1Ev = hidden unnamed_addr alias void (%"class.network::mojom::blink::CookieManagerParams"*), void (%"class.network::mojom::blink::CookieManagerParams"*)* @_ZN7network5mojom5blink19CookieManagerParamsD2Ev
@_ZN7network5mojom5blink21CookieSameSiteContextC1Ev = hidden unnamed_addr alias void (%"class.network::mojom::blink::CookieSameSiteContext"*), void (%"class.network::mojom::blink::CookieSameSiteContext"*)* @_ZN7network5mojom5blink21CookieSameSiteContextC2Ev
@_ZN7network5mojom5blink21CookieSameSiteContextC1ENS0_11ContextTypeES3_ = hidden unnamed_addr alias void (%"class.network::mojom::blink::CookieSameSiteContext"*, i32, i32), void (%"class.network::mojom::blink::CookieSameSiteContext"*, i32, i32)* @_ZN7network5mojom5blink21CookieSameSiteContextC2ENS0_11ContextTypeES3_
@_ZN7network5mojom5blink21CookieSameSiteContextD1Ev = hidden unnamed_addr alias void (%"class.network::mojom::blink::CookieSameSiteContext"*), void (%"class.network::mojom::blink::CookieSameSiteContext"*)* @_ZN7network5mojom5blink21CookieSameSiteContextD2Ev
@_ZN7network5mojom5blink13CookieOptionsC1Ev = hidden unnamed_addr alias void (%"class.network::mojom::blink::CookieOptions"*), void (%"class.network::mojom::blink::CookieOptions"*)* @_ZN7network5mojom5blink13CookieOptionsC2Ev
@_ZN7network5mojom5blink13CookieOptionsC1EbN4mojo16InlinedStructPtrINS1_21CookieSameSiteContextEEEbbNS0_26SamePartyCookieContextTypeEjb = hidden unnamed_addr alias void (%"class.network::mojom::blink::CookieOptions"*, i1, %"class.mojo::InlinedStructPtr"*, i1, i1, i32, i32, i1), void (%"class.network::mojom::blink::CookieOptions"*, i1, %"class.mojo::InlinedStructPtr"*, i1, i1, i32, i32, i1)* @_ZN7network5mojom5blink13CookieOptionsC2EbN4mojo16InlinedStructPtrINS1_21CookieSameSiteContextEEEbbNS0_26SamePartyCookieContextTypeEjb
@_ZN7network5mojom5blink13CookieOptionsD1Ev = hidden unnamed_addr alias void (%"class.network::mojom::blink::CookieOptions"*), void (%"class.network::mojom::blink::CookieOptions"*)* @_ZN7network5mojom5blink13CookieOptionsD2Ev
@_ZN7network5mojom5blink15CanonicalCookieC1Ev = hidden unnamed_addr alias void (%"class.network::mojom::blink::CanonicalCookie"*), void (%"class.network::mojom::blink::CanonicalCookie"*)* @_ZN7network5mojom5blink15CanonicalCookieC2Ev
@_ZN7network5mojom5blink15CanonicalCookieC1ERKN3WTF6StringES6_S6_S6_N4base4TimeES8_S8_bbNS0_14CookieSameSiteENS0_14CookiePriorityENS0_18CookieSourceSchemeEbi = hidden unnamed_addr alias void (%"class.network::mojom::blink::CanonicalCookie"*, %"class.WTF::String"*, %"class.WTF::String"*, %"class.WTF::String"*, %"class.WTF::String"*, i64, i64, i64, i1, i1, i32, i32, i32, i1, i32), void (%"class.network::mojom::blink::CanonicalCookie"*, %"class.WTF::String"*, %"class.WTF::String"*, %"class.WTF::String"*, %"class.WTF::String"*, i64, i64, i64, i1, i1, i32, i32, i32, i1, i32)* @_ZN7network5mojom5blink15CanonicalCookieC2ERKN3WTF6StringES6_S6_S6_N4base4TimeES8_S8_bbNS0_14CookieSameSiteENS0_14CookiePriorityENS0_18CookieSourceSchemeEbi
@_ZN7network5mojom5blink15CanonicalCookieD1Ev = hidden unnamed_addr alias void (%"class.network::mojom::blink::CanonicalCookie"*), void (%"class.network::mojom::blink::CanonicalCookie"*)* @_ZN7network5mojom5blink15CanonicalCookieD2Ev
@_ZN7network5mojom5blink21CookieInclusionStatusC1Ev = hidden unnamed_addr alias void (%"class.network::mojom::blink::CookieInclusionStatus"*), void (%"class.network::mojom::blink::CookieInclusionStatus"*)* @_ZN7network5mojom5blink21CookieInclusionStatusC2Ev
@_ZN7network5mojom5blink21CookieInclusionStatusC1Ejj = hidden unnamed_addr alias void (%"class.network::mojom::blink::CookieInclusionStatus"*, i32, i32), void (%"class.network::mojom::blink::CookieInclusionStatus"*, i32, i32)* @_ZN7network5mojom5blink21CookieInclusionStatusC2Ejj
@_ZN7network5mojom5blink21CookieInclusionStatusD1Ev = hidden unnamed_addr alias void (%"class.network::mojom::blink::CookieInclusionStatus"*), void (%"class.network::mojom::blink::CookieInclusionStatus"*)* @_ZN7network5mojom5blink21CookieInclusionStatusD2Ev
@_ZN7network5mojom5blink29CookieAndLineWithAccessResultC1Ev = hidden unnamed_addr alias void (%"class.network::mojom::blink::CookieAndLineWithAccessResult"*), void (%"class.network::mojom::blink::CookieAndLineWithAccessResult"*)* @_ZN7network5mojom5blink29CookieAndLineWithAccessResultC2Ev
@_ZN7network5mojom5blink29CookieAndLineWithAccessResultC1ERKN4absl8optionalIN3net15CanonicalCookieEEERKN3WTF6StringEN4mojo9StructPtrINS1_18CookieAccessResultEEE = hidden unnamed_addr alias void (%"class.network::mojom::blink::CookieAndLineWithAccessResult"*, %"class.absl::optional"*, %"class.WTF::String"*, %"class.mojo::StructPtr.83"*), void (%"class.network::mojom::blink::CookieAndLineWithAccessResult"*, %"class.absl::optional"*, %"class.WTF::String"*, %"class.mojo::StructPtr.83"*)* @_ZN7network5mojom5blink29CookieAndLineWithAccessResultC2ERKN4absl8optionalIN3net15CanonicalCookieEEERKN3WTF6StringEN4mojo9StructPtrINS1_18CookieAccessResultEEE
@_ZN7network5mojom5blink29CookieAndLineWithAccessResultD1Ev = hidden unnamed_addr alias void (%"class.network::mojom::blink::CookieAndLineWithAccessResult"*), void (%"class.network::mojom::blink::CookieAndLineWithAccessResult"*)* @_ZN7network5mojom5blink29CookieAndLineWithAccessResultD2Ev
@_ZN7network5mojom5blink28CookieOrLineWithAccessResultC1Ev = hidden unnamed_addr alias void (%"class.network::mojom::blink::CookieOrLineWithAccessResult"*), void (%"class.network::mojom::blink::CookieOrLineWithAccessResult"*)* @_ZN7network5mojom5blink28CookieOrLineWithAccessResultC2Ev
@_ZN7network5mojom5blink28CookieOrLineWithAccessResultC1EN4mojo9StructPtrINS1_12CookieOrLineEEENS4_INS1_18CookieAccessResultEEE = hidden unnamed_addr alias void (%"class.network::mojom::blink::CookieOrLineWithAccessResult"*, %"class.mojo::StructPtr.91"*, %"class.mojo::StructPtr.83"*), void (%"class.network::mojom::blink::CookieOrLineWithAccessResult"*, %"class.mojo::StructPtr.91"*, %"class.mojo::StructPtr.83"*)* @_ZN7network5mojom5blink28CookieOrLineWithAccessResultC2EN4mojo9StructPtrINS1_12CookieOrLineEEENS4_INS1_18CookieAccessResultEEE
@_ZN7network5mojom5blink28CookieOrLineWithAccessResultD1Ev = hidden unnamed_addr alias void (%"class.network::mojom::blink::CookieOrLineWithAccessResult"*), void (%"class.network::mojom::blink::CookieOrLineWithAccessResult"*)* @_ZN7network5mojom5blink28CookieOrLineWithAccessResultD2Ev
@_ZN7network5mojom5blink18CookieAccessResultC1Ev = hidden unnamed_addr alias void (%"class.network::mojom::blink::CookieAccessResult"*), void (%"class.network::mojom::blink::CookieAccessResult"*)* @_ZN7network5mojom5blink18CookieAccessResultC2Ev
@_ZN7network5mojom5blink18CookieAccessResultC1ENS0_23CookieEffectiveSameSiteENS0_21CookieAccessSemanticsEN4mojo16InlinedStructPtrINS1_21CookieInclusionStatusEEEb = hidden unnamed_addr alias void (%"class.network::mojom::blink::CookieAccessResult"*, i32, i32, %"class.mojo::InlinedStructPtr.87"*, i1), void (%"class.network::mojom::blink::CookieAccessResult"*, i32, i32, %"class.mojo::InlinedStructPtr.87"*, i1)* @_ZN7network5mojom5blink18CookieAccessResultC2ENS0_23CookieEffectiveSameSiteENS0_21CookieAccessSemanticsEN4mojo16InlinedStructPtrINS1_21CookieInclusionStatusEEEb
@_ZN7network5mojom5blink18CookieAccessResultD1Ev = hidden unnamed_addr alias void (%"class.network::mojom::blink::CookieAccessResult"*), void (%"class.network::mojom::blink::CookieAccessResult"*)* @_ZN7network5mojom5blink18CookieAccessResultD2Ev
@_ZN7network5mojom5blink22CookieWithAccessResultC1Ev = hidden unnamed_addr alias void (%"class.network::mojom::blink::CookieWithAccessResult"*), void (%"class.network::mojom::blink::CookieWithAccessResult"*)* @_ZN7network5mojom5blink22CookieWithAccessResultC2Ev
@_ZN7network5mojom5blink22CookieWithAccessResultC1ERKN3net15CanonicalCookieEN4mojo9StructPtrINS1_18CookieAccessResultEEE = hidden unnamed_addr alias void (%"class.network::mojom::blink::CookieWithAccessResult"*, %"class.net::CanonicalCookie"*, %"class.mojo::StructPtr.83"*), void (%"class.network::mojom::blink::CookieWithAccessResult"*, %"class.net::CanonicalCookie"*, %"class.mojo::StructPtr.83"*)* @_ZN7network5mojom5blink22CookieWithAccessResultC2ERKN3net15CanonicalCookieEN4mojo9StructPtrINS1_18CookieAccessResultEEE
@_ZN7network5mojom5blink22CookieWithAccessResultD1Ev = hidden unnamed_addr alias void (%"class.network::mojom::blink::CookieWithAccessResult"*), void (%"class.network::mojom::blink::CookieWithAccessResult"*)* @_ZN7network5mojom5blink22CookieWithAccessResultD2Ev
@_ZN7network5mojom5blink16CookieChangeInfoC1Ev = hidden unnamed_addr alias void (%"class.network::mojom::blink::CookieChangeInfo"*), void (%"class.network::mojom::blink::CookieChangeInfo"*)* @_ZN7network5mojom5blink16CookieChangeInfoC2Ev
@_ZN7network5mojom5blink16CookieChangeInfoC1ERKN3net15CanonicalCookieEN4mojo9StructPtrINS1_18CookieAccessResultEEENS0_17CookieChangeCauseE = hidden unnamed_addr alias void (%"class.network::mojom::blink::CookieChangeInfo"*, %"class.net::CanonicalCookie"*, %"class.mojo::StructPtr.83"*, i32), void (%"class.network::mojom::blink::CookieChangeInfo"*, %"class.net::CanonicalCookie"*, %"class.mojo::StructPtr.83"*, i32)* @_ZN7network5mojom5blink16CookieChangeInfoC2ERKN3net15CanonicalCookieEN4mojo9StructPtrINS1_18CookieAccessResultEEENS0_17CookieChangeCauseE
@_ZN7network5mojom5blink16CookieChangeInfoD1Ev = hidden unnamed_addr alias void (%"class.network::mojom::blink::CookieChangeInfo"*), void (%"class.network::mojom::blink::CookieChangeInfo"*)* @_ZN7network5mojom5blink16CookieChangeInfoD2Ev
@_ZN7network5mojom5blink20CookieDeletionFilterC1Ev = hidden unnamed_addr alias void (%"class.network::mojom::blink::CookieDeletionFilter"*), void (%"class.network::mojom::blink::CookieDeletionFilter"*)* @_ZN7network5mojom5blink20CookieDeletionFilterC2Ev
@_ZN7network5mojom5blink20CookieDeletionFilterC1EN4absl8optionalIN4base4TimeEEES7_NS4_IN3WTF6VectorINS8_6StringELj0ENS8_18PartitionAllocatorEEEEESD_RKSA_SF_RKNS4_IN5blink4KURLEEENS0_28CookieDeletionSessionControlE = hidden unnamed_addr alias void (%"class.network::mojom::blink::CookieDeletionFilter"*, i8, i64, i8, i64, %"class.absl::optional.103"*, %"class.absl::optional.103"*, %"class.WTF::String"*, %"class.WTF::String"*, %"class.absl::optional.108"*, i32), void (%"class.network::mojom::blink::CookieDeletionFilter"*, i8, i64, i8, i64, %"class.absl::optional.103"*, %"class.absl::optional.103"*, %"class.WTF::String"*, %"class.WTF::String"*, %"class.absl::optional.108"*, i32)* @_ZN7network5mojom5blink20CookieDeletionFilterC2EN4absl8optionalIN4base4TimeEEES7_NS4_IN3WTF6VectorINS8_6StringELj0ENS8_18PartitionAllocatorEEEEESD_RKSA_SF_RKNS4_IN5blink4KURLEEENS0_28CookieDeletionSessionControlE
@_ZN7network5mojom5blink20CookieDeletionFilterD1Ev = hidden unnamed_addr alias void (%"class.network::mojom::blink::CookieDeletionFilter"*), void (%"class.network::mojom::blink::CookieDeletionFilter"*)* @_ZN7network5mojom5blink20CookieDeletionFilterD2Ev
@_ZN7network5mojom5blink12CookieOrLineC1Ev = hidden unnamed_addr alias void (%"class.network::mojom::blink::CookieOrLine"*), void (%"class.network::mojom::blink::CookieOrLine"*)* @_ZN7network5mojom5blink12CookieOrLineC2Ev
@_ZN7network5mojom5blink12CookieOrLineD1Ev = hidden unnamed_addr alias void (%"class.network::mojom::blink::CookieOrLine"*), void (%"class.network::mojom::blink::CookieOrLine"*)* @_ZN7network5mojom5blink12CookieOrLineD2Ev
@_ZN7network5mojom5blink25CookieChangeListenerProxyC1EPN4mojo28MessageReceiverWithResponderE = hidden unnamed_addr alias void (%"class.network::mojom::blink::CookieChangeListenerProxy"*, %"class.mojo::MessageReceiverWithResponder"*), void (%"class.network::mojom::blink::CookieChangeListenerProxy"*, %"class.mojo::MessageReceiverWithResponder"*)* @_ZN7network5mojom5blink25CookieChangeListenerProxyC2EPN4mojo28MessageReceiverWithResponderE
@_ZN7network5mojom5blink18CookieManagerProxyC1EPN4mojo28MessageReceiverWithResponderE = hidden unnamed_addr alias void (%"class.network::mojom::blink::CookieManagerProxy"*, %"class.mojo::MessageReceiverWithResponder"*), void (%"class.network::mojom::blink::CookieManagerProxy"*, %"class.mojo::MessageReceiverWithResponder"*)* @_ZN7network5mojom5blink18CookieManagerProxyC2EPN4mojo28MessageReceiverWithResponderE

; Function Attrs: nounwind ssp uwtable
define hidden void @_ZN7network5mojom5blink19CookieManagerParamsC2Ev(%"class.network::mojom::blink::CookieManagerParams"* nocapture) unnamed_addr #0 align 2 {
  %2 = getelementptr inbounds %"class.network::mojom::blink::CookieManagerParams", %"class.network::mojom::blink::CookieManagerParams"* %0, i64 0, i32 0
  store i8 0, i8* %2, align 8
  %3 = getelementptr inbounds %"class.network::mojom::blink::CookieManagerParams", %"class.network::mojom::blink::CookieManagerParams"* %0, i64 0, i32 2
  %4 = getelementptr inbounds %"class.network::mojom::blink::CookieManagerParams", %"class.network::mojom::blink::CookieManagerParams"* %0, i64 0, i32 8
  %5 = bitcast %"class.WTF::Vector"* %3 to i8*
  call void @llvm.memset.p0i8.i64(i8* align 8 %5, i8 0, i64 65, i1 false)
  %6 = bitcast %"class.WTF::Vector"* %4 to i8*
  call void @llvm.memset.p0i8.i64(i8* align 8 %6, i8 0, i64 36, i1 false)
  ret void
}

; Function Attrs: nounwind ssp uwtable
define hidden void @_ZN7network5mojom5blink19CookieManagerParamsC2EbN3WTF6VectorIN4mojo9StructPtrIN16content_settings5mojom5blink27ContentSettingPatternSourceEEELj0ENS3_18PartitionAllocatorEEENS4_INS3_6StringELj0ESC_EESF_SF_bSD_SD_NS0_24CookieAccessDelegateTypeE(%"class.network::mojom::blink::CookieManagerParams"* nocapture, i1 zeroext, %"class.WTF::Vector"* nocapture, %"class.WTF::Vector.46"* nocapture, %"class.WTF::Vector.46"* nocapture, %"class.WTF::Vector.46"* nocapture, i1 zeroext, %"class.WTF::Vector"* nocapture, %"class.WTF::Vector"* nocapture, i32) unnamed_addr #0 align 2 {
  %11 = zext i1 %1 to i8
  %12 = zext i1 %6 to i8
  %13 = getelementptr inbounds %"class.network::mojom::blink::CookieManagerParams", %"class.network::mojom::blink::CookieManagerParams"* %0, i64 0, i32 0
  store i8 %11, i8* %13, align 8
  %14 = getelementptr inbounds %"class.network::mojom::blink::CookieManagerParams", %"class.network::mojom::blink::CookieManagerParams"* %0, i64 0, i32 2
  %15 = getelementptr inbounds %"class.network::mojom::blink::CookieManagerParams", %"class.network::mojom::blink::CookieManagerParams"* %0, i64 0, i32 2, i32 0, i32 0, i32 1
  %16 = getelementptr inbounds %"class.network::mojom::blink::CookieManagerParams", %"class.network::mojom::blink::CookieManagerParams"* %0, i64 0, i32 2, i32 0, i32 0, i32 2
  %17 = bitcast %"class.WTF::Vector"* %2 to i64*
  %18 = bitcast %"class.WTF::Vector"* %14 to i8*
  tail call void @llvm.memset.p0i8.i64(i8* align 8 %18, i8 0, i64 16, i1 false) #14
  %19 = load i64, i64* %17, align 8
  %20 = bitcast %"class.WTF::Vector"* %14 to i64*
  store atomic i64 0, i64* %17 monotonic, align 8
  store atomic i64 %19, i64* %20 monotonic, align 8
  %21 = getelementptr inbounds %"class.WTF::Vector", %"class.WTF::Vector"* %2, i64 0, i32 0, i32 0, i32 1
  %22 = load i32, i32* %15, align 4
  %23 = load i32, i32* %21, align 4
  store i32 %23, i32* %15, align 4
  store i32 %22, i32* %21, align 4
  %24 = getelementptr inbounds %"class.WTF::Vector", %"class.WTF::Vector"* %2, i64 0, i32 0, i32 0, i32 2
  %25 = load i32, i32* %16, align 4
  %26 = load i32, i32* %24, align 4
  store i32 %26, i32* %16, align 4
  store i32 %25, i32* %24, align 4
  %27 = getelementptr inbounds %"class.network::mojom::blink::CookieManagerParams", %"class.network::mojom::blink::CookieManagerParams"* %0, i64 0, i32 3
  %28 = getelementptr inbounds %"class.network::mojom::blink::CookieManagerParams", %"class.network::mojom::blink::CookieManagerParams"* %0, i64 0, i32 3, i32 0, i32 0, i32 1
  %29 = getelementptr inbounds %"class.network::mojom::blink::CookieManagerParams", %"class.network::mojom::blink::CookieManagerParams"* %0, i64 0, i32 3, i32 0, i32 0, i32 2
  %30 = bitcast %"class.WTF::Vector.46"* %3 to i64*
  %31 = bitcast %"class.WTF::Vector.46"* %27 to i8*
  tail call void @llvm.memset.p0i8.i64(i8* align 8 %31, i8 0, i64 16, i1 false) #14
  %32 = load i64, i64* %30, align 8
  %33 = bitcast %"class.WTF::Vector.46"* %27 to i64*
  store atomic i64 0, i64* %30 monotonic, align 8
  store atomic i64 %32, i64* %33 monotonic, align 8
  %34 = getelementptr inbounds %"class.WTF::Vector.46", %"class.WTF::Vector.46"* %3, i64 0, i32 0, i32 0, i32 1
  %35 = load i32, i32* %28, align 4
  %36 = load i32, i32* %34, align 4
  store i32 %36, i32* %28, align 4
  store i32 %35, i32* %34, align 4
  %37 = getelementptr inbounds %"class.WTF::Vector.46", %"class.WTF::Vector.46"* %3, i64 0, i32 0, i32 0, i32 2
  %38 = load i32, i32* %29, align 4
  %39 = load i32, i32* %37, align 4
  store i32 %39, i32* %29, align 4
  store i32 %38, i32* %37, align 4
  %40 = getelementptr inbounds %"class.network::mojom::blink::CookieManagerParams", %"class.network::mojom::blink::CookieManagerParams"* %0, i64 0, i32 4
  %41 = getelementptr inbounds %"class.network::mojom::blink::CookieManagerParams", %"class.network::mojom::blink::CookieManagerParams"* %0, i64 0, i32 4, i32 0, i32 0, i32 1
  %42 = getelementptr inbounds %"class.network::mojom::blink::CookieManagerParams", %"class.network::mojom::blink::CookieManagerParams"* %0, i64 0, i32 4, i32 0, i32 0, i32 2
  %43 = bitcast %"class.WTF::Vector.46"* %4 to i64*
  %44 = bitcast %"class.WTF::Vector.46"* %40 to i8*
  tail call void @llvm.memset.p0i8.i64(i8* align 8 %44, i8 0, i64 16, i1 false) #14
  %45 = load i64, i64* %43, align 8
  %46 = bitcast %"class.WTF::Vector.46"* %40 to i64*
  store atomic i64 0, i64* %43 monotonic, align 8
  store atomic i64 %45, i64* %46 monotonic, align 8
  %47 = getelementptr inbounds %"class.WTF::Vector.46", %"class.WTF::Vector.46"* %4, i64 0, i32 0, i32 0, i32 1
  %48 = load i32, i32* %41, align 4
  %49 = load i32, i32* %47, align 4
  store i32 %49, i32* %41, align 4
  store i32 %48, i32* %47, align 4
  %50 = getelementptr inbounds %"class.WTF::Vector.46", %"class.WTF::Vector.46"* %4, i64 0, i32 0, i32 0, i32 2
  %51 = load i32, i32* %42, align 4
  %52 = load i32, i32* %50, align 4
  store i32 %52, i32* %42, align 4
  store i32 %51, i32* %50, align 4
  %53 = getelementptr inbounds %"class.network::mojom::blink::CookieManagerParams", %"class.network::mojom::blink::CookieManagerParams"* %0, i64 0, i32 5
  %54 = getelementptr inbounds %"class.network::mojom::blink::CookieManagerParams", %"class.network::mojom::blink::CookieManagerParams"* %0, i64 0, i32 5, i32 0, i32 0, i32 1
  %55 = getelementptr inbounds %"class.network::mojom::blink::CookieManagerParams", %"class.network::mojom::blink::CookieManagerParams"* %0, i64 0, i32 5, i32 0, i32 0, i32 2
  %56 = bitcast %"class.WTF::Vector.46"* %5 to i64*
  %57 = bitcast %"class.WTF::Vector.46"* %53 to i8*
  tail call void @llvm.memset.p0i8.i64(i8* align 8 %57, i8 0, i64 16, i1 false) #14
  %58 = load i64, i64* %56, align 8
  %59 = bitcast %"class.WTF::Vector.46"* %53 to i64*
  store atomic i64 0, i64* %56 monotonic, align 8
  store atomic i64 %58, i64* %59 monotonic, align 8
  %60 = getelementptr inbounds %"class.WTF::Vector.46", %"class.WTF::Vector.46"* %5, i64 0, i32 0, i32 0, i32 1
  %61 = load i32, i32* %54, align 4
  %62 = load i32, i32* %60, align 4
  store i32 %62, i32* %54, align 4
  store i32 %61, i32* %60, align 4
  %63 = getelementptr inbounds %"class.WTF::Vector.46", %"class.WTF::Vector.46"* %5, i64 0, i32 0, i32 0, i32 2
  %64 = load i32, i32* %55, align 4
  %65 = load i32, i32* %63, align 4
  store i32 %65, i32* %55, align 4
  store i32 %64, i32* %63, align 4
  %66 = getelementptr inbounds %"class.network::mojom::blink::CookieManagerParams", %"class.network::mojom::blink::CookieManagerParams"* %0, i64 0, i32 6
  store i8 %12, i8* %66, align 8
  %67 = getelementptr inbounds %"class.network::mojom::blink::CookieManagerParams", %"class.network::mojom::blink::CookieManagerParams"* %0, i64 0, i32 8
  %68 = getelementptr inbounds %"class.network::mojom::blink::CookieManagerParams", %"class.network::mojom::blink::CookieManagerParams"* %0, i64 0, i32 8, i32 0, i32 0, i32 1
  %69 = getelementptr inbounds %"class.network::mojom::blink::CookieManagerParams", %"class.network::mojom::blink::CookieManagerParams"* %0, i64 0, i32 8, i32 0, i32 0, i32 2
  %70 = bitcast %"class.WTF::Vector"* %7 to i64*
  %71 = bitcast %"class.WTF::Vector"* %67 to i8*
  tail call void @llvm.memset.p0i8.i64(i8* align 8 %71, i8 0, i64 16, i1 false) #14
  %72 = load i64, i64* %70, align 8
  %73 = bitcast %"class.WTF::Vector"* %67 to i64*
  store atomic i64 0, i64* %70 monotonic, align 8
  store atomic i64 %72, i64* %73 monotonic, align 8
  %74 = getelementptr inbounds %"class.WTF::Vector", %"class.WTF::Vector"* %7, i64 0, i32 0, i32 0, i32 1
  %75 = load i32, i32* %68, align 4
  %76 = load i32, i32* %74, align 4
  store i32 %76, i32* %68, align 4
  store i32 %75, i32* %74, align 4
  %77 = getelementptr inbounds %"class.WTF::Vector", %"class.WTF::Vector"* %7, i64 0, i32 0, i32 0, i32 2
  %78 = load i32, i32* %69, align 4
  %79 = load i32, i32* %77, align 4
  store i32 %79, i32* %69, align 4
  store i32 %78, i32* %77, align 4
  %80 = getelementptr inbounds %"class.network::mojom::blink::CookieManagerParams", %"class.network::mojom::blink::CookieManagerParams"* %0, i64 0, i32 9
  %81 = getelementptr inbounds %"class.network::mojom::blink::CookieManagerParams", %"class.network::mojom::blink::CookieManagerParams"* %0, i64 0, i32 9, i32 0, i32 0, i32 1
  %82 = getelementptr inbounds %"class.network::mojom::blink::CookieManagerParams", %"class.network::mojom::blink::CookieManagerParams"* %0, i64 0, i32 9, i32 0, i32 0, i32 2
  %83 = bitcast %"class.WTF::Vector"* %8 to i64*
  %84 = bitcast %"class.WTF::Vector"* %80 to i8*
  tail call void @llvm.memset.p0i8.i64(i8* align 8 %84, i8 0, i64 16, i1 false) #14
  %85 = load i64, i64* %83, align 8
  %86 = bitcast %"class.WTF::Vector"* %80 to i64*
  store atomic i64 0, i64* %83 monotonic, align 8
  store atomic i64 %85, i64* %86 monotonic, align 8
  %87 = getelementptr inbounds %"class.WTF::Vector", %"class.WTF::Vector"* %8, i64 0, i32 0, i32 0, i32 1
  %88 = load i32, i32* %81, align 4
  %89 = load i32, i32* %87, align 4
  store i32 %89, i32* %81, align 4
  store i32 %88, i32* %87, align 4
  %90 = getelementptr inbounds %"class.WTF::Vector", %"class.WTF::Vector"* %8, i64 0, i32 0, i32 0, i32 2
  %91 = load i32, i32* %82, align 4
  %92 = load i32, i32* %90, align 4
  store i32 %92, i32* %82, align 4
  store i32 %91, i32* %90, align 4
  %93 = getelementptr inbounds %"class.network::mojom::blink::CookieManagerParams", %"class.network::mojom::blink::CookieManagerParams"* %0, i64 0, i32 10
  store i32 %9, i32* %93, align 8
  ret void
}

; Function Attrs: nounwind ssp uwtable
define hidden void @_ZN7network5mojom5blink19CookieManagerParamsD2Ev(%"class.network::mojom::blink::CookieManagerParams"* nocapture) unnamed_addr #0 align 2 {
  %2 = getelementptr inbounds %"class.network::mojom::blink::CookieManagerParams", %"class.network::mojom::blink::CookieManagerParams"* %0, i64 0, i32 9
  %3 = getelementptr inbounds %"class.WTF::Vector", %"class.WTF::Vector"* %2, i64 0, i32 0, i32 0, i32 0
  %4 = load %"class.mojo::StructPtr"*, %"class.mojo::StructPtr"** %3, align 8
  %5 = icmp eq %"class.mojo::StructPtr"* %4, null
  br i1 %5, label %29, label %6, !prof !2

6:                                                ; preds = %1
  %7 = bitcast %"class.mojo::StructPtr"* %4 to i8*
  %8 = getelementptr inbounds %"class.network::mojom::blink::CookieManagerParams", %"class.network::mojom::blink::CookieManagerParams"* %0, i64 0, i32 9, i32 0, i32 0, i32 2
  %9 = load i32, i32* %8, align 4
  %10 = icmp eq i32 %9, 0
  br i1 %10, label %27, label %11, !prof !3

11:                                               ; preds = %6
  %12 = zext i32 %9 to i64
  %13 = getelementptr inbounds %"class.mojo::StructPtr", %"class.mojo::StructPtr"* %4, i64 %12
  br label %14

14:                                               ; preds = %21, %11
  %15 = phi %"class.mojo::StructPtr"* [ %22, %21 ], [ %4, %11 ]
  %16 = getelementptr inbounds %"class.mojo::StructPtr", %"class.mojo::StructPtr"* %15, i64 0, i32 0, i32 0, i32 0, i32 0
  %17 = load %"class.content_settings::mojom::blink::ContentSettingPatternSource"*, %"class.content_settings::mojom::blink::ContentSettingPatternSource"** %16, align 8
  store %"class.content_settings::mojom::blink::ContentSettingPatternSource"* null, %"class.content_settings::mojom::blink::ContentSettingPatternSource"** %16, align 8
  %18 = icmp eq %"class.content_settings::mojom::blink::ContentSettingPatternSource"* %17, null
  br i1 %18, label %21, label %19

19:                                               ; preds = %14
  tail call void @_ZN16content_settings5mojom5blink27ContentSettingPatternSourceD1Ev(%"class.content_settings::mojom::blink::ContentSettingPatternSource"* nonnull %17) #14
  %20 = bitcast %"class.content_settings::mojom::blink::ContentSettingPatternSource"* %17 to i8*
  tail call void @_ZdlPv(i8* %20) #15
  br label %21

21:                                               ; preds = %19, %14
  %22 = getelementptr inbounds %"class.mojo::StructPtr", %"class.mojo::StructPtr"* %15, i64 1
  %23 = icmp eq %"class.mojo::StructPtr"* %22, %13
  br i1 %23, label %24, label %14

24:                                               ; preds = %21
  store i32 0, i32* %8, align 4
  %25 = bitcast %"class.WTF::Vector"* %2 to i8**
  %26 = load i8*, i8** %25, align 8
  br label %27

27:                                               ; preds = %24, %6
  %28 = phi i8* [ %26, %24 ], [ %7, %6 ]
  tail call void @_ZN3WTF18PartitionAllocator11FreeBackingEPv(i8* %28) #14
  store %"class.mojo::StructPtr"* null, %"class.mojo::StructPtr"** %3, align 8
  br label %29

29:                                               ; preds = %1, %27
  %30 = getelementptr inbounds %"class.network::mojom::blink::CookieManagerParams", %"class.network::mojom::blink::CookieManagerParams"* %0, i64 0, i32 8
  %31 = getelementptr inbounds %"class.WTF::Vector", %"class.WTF::Vector"* %30, i64 0, i32 0, i32 0, i32 0
  %32 = load %"class.mojo::StructPtr"*, %"class.mojo::StructPtr"** %31, align 8
  %33 = icmp eq %"class.mojo::StructPtr"* %32, null
  br i1 %33, label %57, label %34, !prof !2

34:                                               ; preds = %29
  %35 = bitcast %"class.mojo::StructPtr"* %32 to i8*
  %36 = getelementptr inbounds %"class.network::mojom::blink::CookieManagerParams", %"class.network::mojom::blink::CookieManagerParams"* %0, i64 0, i32 8, i32 0, i32 0, i32 2
  %37 = load i32, i32* %36, align 4
  %38 = icmp eq i32 %37, 0
  br i1 %38, label %55, label %39, !prof !3

39:                                               ; preds = %34
  %40 = zext i32 %37 to i64
  %41 = getelementptr inbounds %"class.mojo::StructPtr", %"class.mojo::StructPtr"* %32, i64 %40
  br label %42

42:                                               ; preds = %49, %39
  %43 = phi %"class.mojo::StructPtr"* [ %50, %49 ], [ %32, %39 ]
  %44 = getelementptr inbounds %"class.mojo::StructPtr", %"class.mojo::StructPtr"* %43, i64 0, i32 0, i32 0, i32 0, i32 0
  %45 = load %"class.content_settings::mojom::blink::ContentSettingPatternSource"*, %"class.content_settings::mojom::blink::ContentSettingPatternSource"** %44, align 8
  store %"class.content_settings::mojom::blink::ContentSettingPatternSource"* null, %"class.content_settings::mojom::blink::ContentSettingPatternSource"** %44, align 8
  %46 = icmp eq %"class.content_settings::mojom::blink::ContentSettingPatternSource"* %45, null
  br i1 %46, label %49, label %47

47:                                               ; preds = %42
  tail call void @_ZN16content_settings5mojom5blink27ContentSettingPatternSourceD1Ev(%"class.content_settings::mojom::blink::ContentSettingPatternSource"* nonnull %45) #14
  %48 = bitcast %"class.content_settings::mojom::blink::ContentSettingPatternSource"* %45 to i8*
  tail call void @_ZdlPv(i8* %48) #15
  br label %49

49:                                               ; preds = %47, %42
  %50 = getelementptr inbounds %"class.mojo::StructPtr", %"class.mojo::StructPtr"* %43, i64 1
  %51 = icmp eq %"class.mojo::StructPtr"* %50, %41
  br i1 %51, label %52, label %42

52:                                               ; preds = %49
  store i32 0, i32* %36, align 4
  %53 = bitcast %"class.WTF::Vector"* %30 to i8**
  %54 = load i8*, i8** %53, align 8
  br label %55

55:                                               ; preds = %52, %34
  %56 = phi i8* [ %54, %52 ], [ %35, %34 ]
  tail call void @_ZN3WTF18PartitionAllocator11FreeBackingEPv(i8* %56) #14
  store %"class.mojo::StructPtr"* null, %"class.mojo::StructPtr"** %31, align 8
  br label %57

57:                                               ; preds = %29, %55
  %58 = getelementptr inbounds %"class.network::mojom::blink::CookieManagerParams", %"class.network::mojom::blink::CookieManagerParams"* %0, i64 0, i32 5
  %59 = getelementptr inbounds %"class.WTF::Vector.46", %"class.WTF::Vector.46"* %58, i64 0, i32 0, i32 0, i32 0
  %60 = load %"class.WTF::String"*, %"class.WTF::String"** %59, align 8
  %61 = icmp eq %"class.WTF::String"* %60, null
  br i1 %61, label %96, label %62, !prof !2

62:                                               ; preds = %57
  %63 = bitcast %"class.WTF::String"* %60 to i8*
  %64 = getelementptr inbounds %"class.network::mojom::blink::CookieManagerParams", %"class.network::mojom::blink::CookieManagerParams"* %0, i64 0, i32 5, i32 0, i32 0, i32 2
  %65 = load i32, i32* %64, align 4
  %66 = icmp eq i32 %65, 0
  br i1 %66, label %94, label %67, !prof !3

67:                                               ; preds = %62
  %68 = zext i32 %65 to i64
  %69 = getelementptr inbounds %"class.WTF::String", %"class.WTF::String"* %60, i64 %68
  br label %70

70:                                               ; preds = %88, %67
  %71 = phi %"class.WTF::String"* [ %89, %88 ], [ %60, %67 ]
  %72 = getelementptr inbounds %"class.WTF::String", %"class.WTF::String"* %71, i64 0, i32 0, i32 0
  %73 = load %"class.WTF::StringImpl"*, %"class.WTF::StringImpl"** %72, align 8
  %74 = icmp eq %"class.WTF::StringImpl"* %73, null
  br i1 %74, label %88, label %75

75:                                               ; preds = %70
  %76 = getelementptr inbounds %"class.WTF::StringImpl", %"class.WTF::StringImpl"* %73, i64 0, i32 2, i32 0, i32 0, i32 0, i32 0, i32 0
  %77 = load atomic i32, i32* %76 monotonic, align 4
  %78 = and i32 %77, 2
  %79 = icmp eq i32 %78, 0
  %80 = getelementptr inbounds %"class.WTF::StringImpl", %"class.WTF::StringImpl"* %73, i64 0, i32 0
  %81 = load i32, i32* %80, align 4
  br i1 %79, label %82, label %84

82:                                               ; preds = %75
  %83 = add i32 %81, -1
  store i32 %83, i32* %80, align 4
  br label %84

84:                                               ; preds = %82, %75
  %85 = phi i32 [ %83, %82 ], [ %81, %75 ]
  %86 = icmp eq i32 %85, 0
  br i1 %86, label %87, label %88

87:                                               ; preds = %84
  tail call void @_ZNK3WTF10StringImpl18DestroyIfNotStaticEv(%"class.WTF::StringImpl"* nonnull %73) #14
  br label %88

88:                                               ; preds = %87, %84, %70
  %89 = getelementptr inbounds %"class.WTF::String", %"class.WTF::String"* %71, i64 1
  %90 = icmp eq %"class.WTF::String"* %89, %69
  br i1 %90, label %91, label %70

91:                                               ; preds = %88
  store i32 0, i32* %64, align 4
  %92 = bitcast %"class.WTF::Vector.46"* %58 to i8**
  %93 = load i8*, i8** %92, align 8
  br label %94

94:                                               ; preds = %91, %62
  %95 = phi i8* [ %93, %91 ], [ %63, %62 ]
  tail call void @_ZN3WTF18PartitionAllocator11FreeBackingEPv(i8* %95) #14
  store %"class.WTF::String"* null, %"class.WTF::String"** %59, align 8
  br label %96

96:                                               ; preds = %57, %94
  %97 = getelementptr inbounds %"class.network::mojom::blink::CookieManagerParams", %"class.network::mojom::blink::CookieManagerParams"* %0, i64 0, i32 4
  %98 = getelementptr inbounds %"class.WTF::Vector.46", %"class.WTF::Vector.46"* %97, i64 0, i32 0, i32 0, i32 0
  %99 = load %"class.WTF::String"*, %"class.WTF::String"** %98, align 8
  %100 = icmp eq %"class.WTF::String"* %99, null
  br i1 %100, label %135, label %101, !prof !2

101:                                              ; preds = %96
  %102 = bitcast %"class.WTF::String"* %99 to i8*
  %103 = getelementptr inbounds %"class.network::mojom::blink::CookieManagerParams", %"class.network::mojom::blink::CookieManagerParams"* %0, i64 0, i32 4, i32 0, i32 0, i32 2
  %104 = load i32, i32* %103, align 4
  %105 = icmp eq i32 %104, 0
  br i1 %105, label %133, label %106, !prof !3

106:                                              ; preds = %101
  %107 = zext i32 %104 to i64
  %108 = getelementptr inbounds %"class.WTF::String", %"class.WTF::String"* %99, i64 %107
  br label %109

109:                                              ; preds = %127, %106
  %110 = phi %"class.WTF::String"* [ %128, %127 ], [ %99, %106 ]
  %111 = getelementptr inbounds %"class.WTF::String", %"class.WTF::String"* %110, i64 0, i32 0, i32 0
  %112 = load %"class.WTF::StringImpl"*, %"class.WTF::StringImpl"** %111, align 8
  %113 = icmp eq %"class.WTF::StringImpl"* %112, null
  br i1 %113, label %127, label %114

114:                                              ; preds = %109
  %115 = getelementptr inbounds %"class.WTF::StringImpl", %"class.WTF::StringImpl"* %112, i64 0, i32 2, i32 0, i32 0, i32 0, i32 0, i32 0
  %116 = load atomic i32, i32* %115 monotonic, align 4
  %117 = and i32 %116, 2
  %118 = icmp eq i32 %117, 0
  %119 = getelementptr inbounds %"class.WTF::StringImpl", %"class.WTF::StringImpl"* %112, i64 0, i32 0
  %120 = load i32, i32* %119, align 4
  br i1 %118, label %121, label %123

121:                                              ; preds = %114
  %122 = add i32 %120, -1
  store i32 %122, i32* %119, align 4
  br label %123

123:                                              ; preds = %121, %114
  %124 = phi i32 [ %122, %121 ], [ %120, %114 ]
  %125 = icmp eq i32 %124, 0
  br i1 %125, label %126, label %127

126:                                              ; preds = %123
  tail call void @_ZNK3WTF10StringImpl18DestroyIfNotStaticEv(%"class.WTF::StringImpl"* nonnull %112) #14
  br label %127

127:                                              ; preds = %126, %123, %109
  %128 = getelementptr inbounds %"class.WTF::String", %"class.WTF::String"* %110, i64 1
  %129 = icmp eq %"class.WTF::String"* %128, %108
  br i1 %129, label %130, label %109

130:                                              ; preds = %127
  store i32 0, i32* %103, align 4
  %131 = bitcast %"class.WTF::Vector.46"* %97 to i8**
  %132 = load i8*, i8** %131, align 8
  br label %133

133:                                              ; preds = %130, %101
  %134 = phi i8* [ %132, %130 ], [ %102, %101 ]
  tail call void @_ZN3WTF18PartitionAllocator11FreeBackingEPv(i8* %134) #14
  store %"class.WTF::String"* null, %"class.WTF::String"** %98, align 8
  br label %135

135:                                              ; preds = %96, %133
  %136 = getelementptr inbounds %"class.network::mojom::blink::CookieManagerParams", %"class.network::mojom::blink::CookieManagerParams"* %0, i64 0, i32 3
  %137 = getelementptr inbounds %"class.WTF::Vector.46", %"class.WTF::Vector.46"* %136, i64 0, i32 0, i32 0, i32 0
  %138 = load %"class.WTF::String"*, %"class.WTF::String"** %137, align 8
  %139 = icmp eq %"class.WTF::String"* %138, null
  br i1 %139, label %174, label %140, !prof !2

140:                                              ; preds = %135
  %141 = bitcast %"class.WTF::String"* %138 to i8*
  %142 = getelementptr inbounds %"class.network::mojom::blink::CookieManagerParams", %"class.network::mojom::blink::CookieManagerParams"* %0, i64 0, i32 3, i32 0, i32 0, i32 2
  %143 = load i32, i32* %142, align 4
  %144 = icmp eq i32 %143, 0
  br i1 %144, label %172, label %145, !prof !3

145:                                              ; preds = %140
  %146 = zext i32 %143 to i64
  %147 = getelementptr inbounds %"class.WTF::String", %"class.WTF::String"* %138, i64 %146
  br label %148

148:                                              ; preds = %166, %145
  %149 = phi %"class.WTF::String"* [ %167, %166 ], [ %138, %145 ]
  %150 = getelementptr inbounds %"class.WTF::String", %"class.WTF::String"* %149, i64 0, i32 0, i32 0
  %151 = load %"class.WTF::StringImpl"*, %"class.WTF::StringImpl"** %150, align 8
  %152 = icmp eq %"class.WTF::StringImpl"* %151, null
  br i1 %152, label %166, label %153

153:                                              ; preds = %148
  %154 = getelementptr inbounds %"class.WTF::StringImpl", %"class.WTF::StringImpl"* %151, i64 0, i32 2, i32 0, i32 0, i32 0, i32 0, i32 0
  %155 = load atomic i32, i32* %154 monotonic, align 4
  %156 = and i32 %155, 2
  %157 = icmp eq i32 %156, 0
  %158 = getelementptr inbounds %"class.WTF::StringImpl", %"class.WTF::StringImpl"* %151, i64 0, i32 0
  %159 = load i32, i32* %158, align 4
  br i1 %157, label %160, label %162

160:                                              ; preds = %153
  %161 = add i32 %159, -1
  store i32 %161, i32* %158, align 4
  br label %162

162:                                              ; preds = %160, %153
  %163 = phi i32 [ %161, %160 ], [ %159, %153 ]
  %164 = icmp eq i32 %163, 0
  br i1 %164, label %165, label %166

165:                                              ; preds = %162
  tail call void @_ZNK3WTF10StringImpl18DestroyIfNotStaticEv(%"class.WTF::StringImpl"* nonnull %151) #14
  br label %166

166:                                              ; preds = %165, %162, %148
  %167 = getelementptr inbounds %"class.WTF::String", %"class.WTF::String"* %149, i64 1
  %168 = icmp eq %"class.WTF::String"* %167, %147
  br i1 %168, label %169, label %148

169:                                              ; preds = %166
  store i32 0, i32* %142, align 4
  %170 = bitcast %"class.WTF::Vector.46"* %136 to i8**
  %171 = load i8*, i8** %170, align 8
  br label %172

172:                                              ; preds = %169, %140
  %173 = phi i8* [ %171, %169 ], [ %141, %140 ]
  tail call void @_ZN3WTF18PartitionAllocator11FreeBackingEPv(i8* %173) #14
  store %"class.WTF::String"* null, %"class.WTF::String"** %137, align 8
  br label %174

174:                                              ; preds = %135, %172
  %175 = getelementptr inbounds %"class.network::mojom::blink::CookieManagerParams", %"class.network::mojom::blink::CookieManagerParams"* %0, i64 0, i32 2
  %176 = getelementptr inbounds %"class.WTF::Vector", %"class.WTF::Vector"* %175, i64 0, i32 0, i32 0, i32 0
  %177 = load %"class.mojo::StructPtr"*, %"class.mojo::StructPtr"** %176, align 8
  %178 = icmp eq %"class.mojo::StructPtr"* %177, null
  br i1 %178, label %202, label %179, !prof !2

179:                                              ; preds = %174
  %180 = bitcast %"class.mojo::StructPtr"* %177 to i8*
  %181 = getelementptr inbounds %"class.network::mojom::blink::CookieManagerParams", %"class.network::mojom::blink::CookieManagerParams"* %0, i64 0, i32 2, i32 0, i32 0, i32 2
  %182 = load i32, i32* %181, align 4
  %183 = icmp eq i32 %182, 0
  br i1 %183, label %200, label %184, !prof !3

184:                                              ; preds = %179
  %185 = zext i32 %182 to i64
  %186 = getelementptr inbounds %"class.mojo::StructPtr", %"class.mojo::StructPtr"* %177, i64 %185
  br label %187

187:                                              ; preds = %194, %184
  %188 = phi %"class.mojo::StructPtr"* [ %195, %194 ], [ %177, %184 ]
  %189 = getelementptr inbounds %"class.mojo::StructPtr", %"class.mojo::StructPtr"* %188, i64 0, i32 0, i32 0, i32 0, i32 0
  %190 = load %"class.content_settings::mojom::blink::ContentSettingPatternSource"*, %"class.content_settings::mojom::blink::ContentSettingPatternSource"** %189, align 8
  store %"class.content_settings::mojom::blink::ContentSettingPatternSource"* null, %"class.content_settings::mojom::blink::ContentSettingPatternSource"** %189, align 8
  %191 = icmp eq %"class.content_settings::mojom::blink::ContentSettingPatternSource"* %190, null
  br i1 %191, label %194, label %192

192:                                              ; preds = %187
  tail call void @_ZN16content_settings5mojom5blink27ContentSettingPatternSourceD1Ev(%"class.content_settings::mojom::blink::ContentSettingPatternSource"* nonnull %190) #14
  %193 = bitcast %"class.content_settings::mojom::blink::ContentSettingPatternSource"* %190 to i8*
  tail call void @_ZdlPv(i8* %193) #15
  br label %194

194:                                              ; preds = %192, %187
  %195 = getelementptr inbounds %"class.mojo::StructPtr", %"class.mojo::StructPtr"* %188, i64 1
  %196 = icmp eq %"class.mojo::StructPtr"* %195, %186
  br i1 %196, label %197, label %187

197:                                              ; preds = %194
  store i32 0, i32* %181, align 4
  %198 = bitcast %"class.WTF::Vector"* %175 to i8**
  %199 = load i8*, i8** %198, align 8
  br label %200

200:                                              ; preds = %197, %179
  %201 = phi i8* [ %199, %197 ], [ %180, %179 ]
  tail call void @_ZN3WTF18PartitionAllocator11FreeBackingEPv(i8* %201) #14
  store %"class.mojo::StructPtr"* null, %"class.mojo::StructPtr"** %176, align 8
  br label %202

202:                                              ; preds = %174, %200
  ret void
}

; Function Attrs: nounwind ssp uwtable
define hidden void @_ZNK7network5mojom5blink19CookieManagerParams14WriteIntoTraceEN8perfetto11TracedValueE(%"class.network::mojom::blink::CookieManagerParams"* nocapture readonly, %"class.perfetto::TracedValue"*) local_unnamed_addr #0 align 2 {
  %3 = alloca %"class.perfetto::TracedValue", align 8
  %4 = alloca %"class.perfetto::TracedValue", align 8
  %5 = alloca %"class.perfetto::TracedValue", align 8
  %6 = alloca %"class.perfetto::TracedArray", align 8
  %7 = alloca %"class.perfetto::TracedValue", align 8
  %8 = alloca %"class.perfetto::TracedValue", align 8
  %9 = alloca %"class.perfetto::TracedValue", align 8
  %10 = alloca %"class.perfetto::TracedValue", align 8
  %11 = alloca %"class.perfetto::TracedArray", align 8
  %12 = alloca %"class.perfetto::TracedValue", align 8
  %13 = alloca %"class.perfetto::TracedValue", align 8
  %14 = alloca %"class.perfetto::TracedValue", align 8
  %15 = alloca %"class.perfetto::TracedValue", align 8
  %16 = alloca %"class.perfetto::TracedArray", align 8
  %17 = alloca %"class.perfetto::TracedValue", align 8
  %18 = alloca %"class.perfetto::TracedValue", align 8
  %19 = alloca %"class.perfetto::TracedValue", align 8
  %20 = alloca %"class.perfetto::TracedArray", align 8
  %21 = alloca %"class.perfetto::TracedValue", align 8
  %22 = alloca %"class.perfetto::TracedValue", align 8
  %23 = alloca %"class.perfetto::TracedValue", align 8
  %24 = alloca %"class.perfetto::TracedArray", align 8
  %25 = alloca %"class.perfetto::TracedValue", align 8
  %26 = alloca %"class.perfetto::TracedValue", align 8
  %27 = alloca %"class.perfetto::TracedValue", align 8
  %28 = alloca %"class.perfetto::TracedValue", align 8
  %29 = alloca %"class.perfetto::TracedArray", align 8
  %30 = alloca %"class.perfetto::TracedValue", align 8
  %31 = alloca %"class.perfetto::TracedValue", align 8
  %32 = alloca %"class.perfetto::TracedValue", align 8
  %33 = alloca %"class.perfetto::TracedDictionary", align 8
  %34 = alloca %"class.perfetto::TracedValue", align 8
  %35 = alloca %"class.perfetto::TracedValue", align 8
  %36 = alloca %"class.perfetto::TracedValue", align 8
  %37 = alloca %"class.perfetto::TracedValue", align 8
  %38 = alloca %"class.perfetto::TracedValue", align 8
  %39 = alloca %"class.perfetto::TracedValue", align 8
  %40 = alloca %"class.perfetto::TracedValue", align 8
  %41 = alloca %"class.perfetto::TracedValue", align 8
  %42 = alloca %"class.perfetto::TracedValue", align 8
  %43 = bitcast %"class.perfetto::TracedDictionary"* %33 to i8*
  call void @llvm.lifetime.start.p0i8(i64 16, i8* nonnull %43) #14
  %44 = bitcast %"class.perfetto::TracedDictionary"* %33 to i8*
  call void @llvm.memset.p0i8.i64(i8* nonnull align 8 %44, i8 -86, i64 16, i1 false)
  call void @_ZNO8perfetto11TracedValue15WriteDictionaryEv(%"class.perfetto::TracedDictionary"* nonnull sret %33, %"class.perfetto::TracedValue"* %1) #14
  call void @_ZN8perfetto16TracedDictionary7AddItemENS_12StaticStringE(%"class.perfetto::TracedValue"* nonnull sret %34, %"class.perfetto::TracedDictionary"* nonnull %33, i8* getelementptr inbounds ([26 x i8], [26 x i8]* @.str, i64 0, i64 0)) #14
  %45 = getelementptr inbounds %"class.network::mojom::blink::CookieManagerParams", %"class.network::mojom::blink::CookieManagerParams"* %0, i64 0, i32 0
  %46 = bitcast %"class.perfetto::TracedValue"* %34 to i8*
  %47 = bitcast %"class.perfetto::TracedValue"* %31 to i8*
  call void @llvm.lifetime.start.p0i8(i64 16, i8* nonnull %47) #14
  call void @llvm.memcpy.p0i8.p0i8.i64(i8* nonnull align 8 %47, i8* nonnull align 8 %46, i64 16, i1 false) #14
  %48 = load i8, i8* %45, align 1, !range !4
  %49 = icmp ne i8 %48, 0
  call void @_ZNO8perfetto11TracedValue12WriteBooleanEb(%"class.perfetto::TracedValue"* nonnull %31, i1 zeroext %49) #14
  call void @llvm.lifetime.end.p0i8(i64 16, i8* nonnull %47) #14
  call void @_ZN8perfetto16TracedDictionary7AddItemENS_12StaticStringE(%"class.perfetto::TracedValue"* nonnull sret %35, %"class.perfetto::TracedDictionary"* nonnull %33, i8* getelementptr inbounds ([9 x i8], [9 x i8]* @.str.2, i64 0, i64 0)) #14
  %50 = bitcast %"class.perfetto::TracedValue"* %35 to i8*
  %51 = bitcast %"class.perfetto::TracedValue"* %30 to i8*
  call void @llvm.lifetime.start.p0i8(i64 16, i8* nonnull %51) #14
  call void @llvm.memcpy.p0i8.p0i8.i64(i8* nonnull align 8 %51, i8* nonnull align 8 %50, i64 16, i1 false) #14
  %52 = bitcast %"class.perfetto::TracedArray"* %29 to i8*
  call void @llvm.lifetime.start.p0i8(i64 16, i8* nonnull %52) #14
  call void @llvm.memset.p0i8.i64(i8* nonnull align 8 %52, i8 -86, i64 16, i1 false) #14
  call void @_ZNO8perfetto11TracedValue10WriteArrayEv(%"class.perfetto::TracedArray"* nonnull sret %29, %"class.perfetto::TracedValue"* nonnull %30) #14
  %53 = getelementptr inbounds %"class.network::mojom::blink::CookieManagerParams", %"class.network::mojom::blink::CookieManagerParams"* %0, i64 0, i32 2, i32 0, i32 0, i32 0
  %54 = load %"class.mojo::StructPtr"*, %"class.mojo::StructPtr"** %53, align 8
  %55 = getelementptr inbounds %"class.network::mojom::blink::CookieManagerParams", %"class.network::mojom::blink::CookieManagerParams"* %0, i64 0, i32 2, i32 0, i32 0, i32 2
  %56 = load i32, i32* %55, align 4
  %57 = zext i32 %56 to i64
  %58 = getelementptr inbounds %"class.mojo::StructPtr", %"class.mojo::StructPtr"* %54, i64 %57
  %59 = icmp eq i32 %56, 0
  br i1 %59, label %74, label %60

60:                                               ; preds = %2
  %61 = bitcast %"class.perfetto::TracedValue"* %28 to i8*
  %62 = bitcast %"class.perfetto::TracedValue"* %27 to i8*
  %63 = bitcast %"class.perfetto::TracedValue"* %26 to i8*
  br label %64

64:                                               ; preds = %71, %60
  %65 = phi %"class.mojo::StructPtr"* [ %54, %60 ], [ %72, %71 ]
  call void @llvm.lifetime.start.p0i8(i64 16, i8* nonnull %61) #14
  call void @_ZN8perfetto11TracedArray10AppendItemEv(%"class.perfetto::TracedValue"* nonnull sret %28, %"class.perfetto::TracedArray"* nonnull %29) #14
  %66 = getelementptr inbounds %"class.mojo::StructPtr", %"class.mojo::StructPtr"* %65, i64 0, i32 0, i32 0, i32 0, i32 0
  %67 = load %"class.content_settings::mojom::blink::ContentSettingPatternSource"*, %"class.content_settings::mojom::blink::ContentSettingPatternSource"** %66, align 8
  call void @llvm.lifetime.start.p0i8(i64 16, i8* nonnull %62) #14
  call void @llvm.memcpy.p0i8.p0i8.i64(i8* nonnull align 8 %62, i8* nonnull align 8 %61, i64 16, i1 false) #14
  %68 = icmp eq %"class.content_settings::mojom::blink::ContentSettingPatternSource"* %67, null
  br i1 %68, label %69, label %70

69:                                               ; preds = %64
  call void @_ZNO8perfetto11TracedValue12WritePointerEPKv(%"class.perfetto::TracedValue"* nonnull %27, i8* null) #14
  br label %71

70:                                               ; preds = %64
  call void @llvm.lifetime.start.p0i8(i64 16, i8* nonnull %63) #14
  call void @llvm.memcpy.p0i8.p0i8.i64(i8* nonnull align 8 %63, i8* nonnull align 8 %62, i64 16, i1 false) #14
  call void @_ZNK16content_settings5mojom5blink27ContentSettingPatternSource14WriteIntoTraceEN8perfetto11TracedValueE(%"class.content_settings::mojom::blink::ContentSettingPatternSource"* nonnull %67, %"class.perfetto::TracedValue"* nonnull %26) #14
  call void @llvm.lifetime.end.p0i8(i64 16, i8* nonnull %63) #14
  br label %71

71:                                               ; preds = %70, %69
  call void @llvm.lifetime.end.p0i8(i64 16, i8* nonnull %62) #14
  call void @llvm.lifetime.end.p0i8(i64 16, i8* nonnull %61) #14
  %72 = getelementptr inbounds %"class.mojo::StructPtr", %"class.mojo::StructPtr"* %65, i64 1
  %73 = icmp eq %"class.mojo::StructPtr"* %72, %58
  br i1 %73, label %74, label %64

74:                                               ; preds = %71, %2
  call void @llvm.lifetime.end.p0i8(i64 16, i8* nonnull %52) #14
  call void @llvm.lifetime.end.p0i8(i64 16, i8* nonnull %51) #14
  call void @_ZN8perfetto16TracedDictionary7AddItemENS_12StaticStringE(%"class.perfetto::TracedValue"* nonnull sret %36, %"class.perfetto::TracedDictionary"* nonnull %33, i8* getelementptr inbounds ([38 x i8], [38 x i8]* @.str.3, i64 0, i64 0)) #14
  %75 = bitcast %"class.perfetto::TracedValue"* %36 to i8*
  %76 = bitcast %"class.perfetto::TracedValue"* %25 to i8*
  call void @llvm.lifetime.start.p0i8(i64 16, i8* nonnull %76) #14
  call void @llvm.memcpy.p0i8.p0i8.i64(i8* nonnull align 8 %76, i8* nonnull align 8 %75, i64 16, i1 false) #14
  %77 = bitcast %"class.perfetto::TracedArray"* %24 to i8*
  call void @llvm.lifetime.start.p0i8(i64 16, i8* nonnull %77) #14
  call void @llvm.memset.p0i8.i64(i8* nonnull align 8 %77, i8 -86, i64 16, i1 false) #14
  call void @_ZNO8perfetto11TracedValue10WriteArrayEv(%"class.perfetto::TracedArray"* nonnull sret %24, %"class.perfetto::TracedValue"* nonnull %25) #14
  %78 = getelementptr inbounds %"class.network::mojom::blink::CookieManagerParams", %"class.network::mojom::blink::CookieManagerParams"* %0, i64 0, i32 3, i32 0, i32 0, i32 0
  %79 = load %"class.WTF::String"*, %"class.WTF::String"** %78, align 8
  %80 = getelementptr inbounds %"class.network::mojom::blink::CookieManagerParams", %"class.network::mojom::blink::CookieManagerParams"* %0, i64 0, i32 3, i32 0, i32 0, i32 2
  %81 = load i32, i32* %80, align 4
  %82 = zext i32 %81 to i64
  %83 = getelementptr inbounds %"class.WTF::String", %"class.WTF::String"* %79, i64 %82
  %84 = icmp eq i32 %81, 0
  br i1 %84, label %92, label %85

85:                                               ; preds = %74
  %86 = bitcast %"class.perfetto::TracedValue"* %23 to i8*
  %87 = bitcast %"class.perfetto::TracedValue"* %22 to i8*
  br label %88

88:                                               ; preds = %88, %85
  %89 = phi %"class.WTF::String"* [ %79, %85 ], [ %90, %88 ]
  call void @llvm.lifetime.start.p0i8(i64 16, i8* nonnull %86) #14
  call void @_ZN8perfetto11TracedArray10AppendItemEv(%"class.perfetto::TracedValue"* nonnull sret %23, %"class.perfetto::TracedArray"* nonnull %24) #14
  call void @llvm.lifetime.start.p0i8(i64 16, i8* nonnull %87) #14
  call void @llvm.memcpy.p0i8.p0i8.i64(i8* nonnull align 8 %87, i8* nonnull align 8 %86, i64 16, i1 false) #14
  call void @_ZNK3WTF6String14WriteIntoTraceEN8perfetto11TracedValueE(%"class.WTF::String"* %89, %"class.perfetto::TracedValue"* nonnull %22) #14
  call void @llvm.lifetime.end.p0i8(i64 16, i8* nonnull %87) #14
  call void @llvm.lifetime.end.p0i8(i64 16, i8* nonnull %86) #14
  %90 = getelementptr inbounds %"class.WTF::String", %"class.WTF::String"* %89, i64 1
  %91 = icmp eq %"class.WTF::String"* %90, %83
  br i1 %91, label %92, label %88

92:                                               ; preds = %88, %74
  call void @llvm.lifetime.end.p0i8(i64 16, i8* nonnull %77) #14
  call void @llvm.lifetime.end.p0i8(i64 16, i8* nonnull %76) #14
  call void @_ZN8perfetto16TracedDictionary7AddItemENS_12StaticStringE(%"class.perfetto::TracedValue"* nonnull sret %37, %"class.perfetto::TracedDictionary"* nonnull %33, i8* getelementptr inbounds ([40 x i8], [40 x i8]* @.str.4, i64 0, i64 0)) #14
  %93 = bitcast %"class.perfetto::TracedValue"* %37 to i8*
  %94 = bitcast %"class.perfetto::TracedValue"* %21 to i8*
  call void @llvm.lifetime.start.p0i8(i64 16, i8* nonnull %94) #14
  call void @llvm.memcpy.p0i8.p0i8.i64(i8* nonnull align 8 %94, i8* nonnull align 8 %93, i64 16, i1 false) #14
  %95 = bitcast %"class.perfetto::TracedArray"* %20 to i8*
  call void @llvm.lifetime.start.p0i8(i64 16, i8* nonnull %95) #14
  call void @llvm.memset.p0i8.i64(i8* nonnull align 8 %95, i8 -86, i64 16, i1 false) #14
  call void @_ZNO8perfetto11TracedValue10WriteArrayEv(%"class.perfetto::TracedArray"* nonnull sret %20, %"class.perfetto::TracedValue"* nonnull %21) #14
  %96 = getelementptr inbounds %"class.network::mojom::blink::CookieManagerParams", %"class.network::mojom::blink::CookieManagerParams"* %0, i64 0, i32 4, i32 0, i32 0, i32 0
  %97 = load %"class.WTF::String"*, %"class.WTF::String"** %96, align 8
  %98 = getelementptr inbounds %"class.network::mojom::blink::CookieManagerParams", %"class.network::mojom::blink::CookieManagerParams"* %0, i64 0, i32 4, i32 0, i32 0, i32 2
  %99 = load i32, i32* %98, align 4
  %100 = zext i32 %99 to i64
  %101 = getelementptr inbounds %"class.WTF::String", %"class.WTF::String"* %97, i64 %100
  %102 = icmp eq i32 %99, 0
  br i1 %102, label %110, label %103

103:                                              ; preds = %92
  %104 = bitcast %"class.perfetto::TracedValue"* %19 to i8*
  %105 = bitcast %"class.perfetto::TracedValue"* %18 to i8*
  br label %106

106:                                              ; preds = %106, %103
  %107 = phi %"class.WTF::String"* [ %97, %103 ], [ %108, %106 ]
  call void @llvm.lifetime.start.p0i8(i64 16, i8* nonnull %104) #14
  call void @_ZN8perfetto11TracedArray10AppendItemEv(%"class.perfetto::TracedValue"* nonnull sret %19, %"class.perfetto::TracedArray"* nonnull %20) #14
  call void @llvm.lifetime.start.p0i8(i64 16, i8* nonnull %105) #14
  call void @llvm.memcpy.p0i8.p0i8.i64(i8* nonnull align 8 %105, i8* nonnull align 8 %104, i64 16, i1 false) #14
  call void @_ZNK3WTF6String14WriteIntoTraceEN8perfetto11TracedValueE(%"class.WTF::String"* %107, %"class.perfetto::TracedValue"* nonnull %18) #14
  call void @llvm.lifetime.end.p0i8(i64 16, i8* nonnull %105) #14
  call void @llvm.lifetime.end.p0i8(i64 16, i8* nonnull %104) #14
  %108 = getelementptr inbounds %"class.WTF::String", %"class.WTF::String"* %107, i64 1
  %109 = icmp eq %"class.WTF::String"* %108, %101
  br i1 %109, label %110, label %106

110:                                              ; preds = %106, %92
  call void @llvm.lifetime.end.p0i8(i64 16, i8* nonnull %95) #14
  call void @llvm.lifetime.end.p0i8(i64 16, i8* nonnull %94) #14
  call void @_ZN8perfetto16TracedDictionary7AddItemENS_12StaticStringE(%"class.perfetto::TracedValue"* nonnull sret %38, %"class.perfetto::TracedDictionary"* nonnull %33, i8* getelementptr inbounds ([36 x i8], [36 x i8]* @.str.5, i64 0, i64 0)) #14
  %111 = bitcast %"class.perfetto::TracedValue"* %38 to i8*
  %112 = bitcast %"class.perfetto::TracedValue"* %17 to i8*
  call void @llvm.lifetime.start.p0i8(i64 16, i8* nonnull %112) #14
  call void @llvm.memcpy.p0i8.p0i8.i64(i8* nonnull align 8 %112, i8* nonnull align 8 %111, i64 16, i1 false) #14
  %113 = bitcast %"class.perfetto::TracedArray"* %16 to i8*
  call void @llvm.lifetime.start.p0i8(i64 16, i8* nonnull %113) #14
  call void @llvm.memset.p0i8.i64(i8* nonnull align 8 %113, i8 -86, i64 16, i1 false) #14
  call void @_ZNO8perfetto11TracedValue10WriteArrayEv(%"class.perfetto::TracedArray"* nonnull sret %16, %"class.perfetto::TracedValue"* nonnull %17) #14
  %114 = getelementptr inbounds %"class.network::mojom::blink::CookieManagerParams", %"class.network::mojom::blink::CookieManagerParams"* %0, i64 0, i32 5, i32 0, i32 0, i32 0
  %115 = load %"class.WTF::String"*, %"class.WTF::String"** %114, align 8
  %116 = getelementptr inbounds %"class.network::mojom::blink::CookieManagerParams", %"class.network::mojom::blink::CookieManagerParams"* %0, i64 0, i32 5, i32 0, i32 0, i32 2
  %117 = load i32, i32* %116, align 4
  %118 = zext i32 %117 to i64
  %119 = getelementptr inbounds %"class.WTF::String", %"class.WTF::String"* %115, i64 %118
  %120 = icmp eq i32 %117, 0
  br i1 %120, label %128, label %121

121:                                              ; preds = %110
  %122 = bitcast %"class.perfetto::TracedValue"* %15 to i8*
  %123 = bitcast %"class.perfetto::TracedValue"* %14 to i8*
  br label %124

124:                                              ; preds = %124, %121
  %125 = phi %"class.WTF::String"* [ %115, %121 ], [ %126, %124 ]
  call void @llvm.lifetime.start.p0i8(i64 16, i8* nonnull %122) #14
  call void @_ZN8perfetto11TracedArray10AppendItemEv(%"class.perfetto::TracedValue"* nonnull sret %15, %"class.perfetto::TracedArray"* nonnull %16) #14
  call void @llvm.lifetime.start.p0i8(i64 16, i8* nonnull %123) #14
  call void @llvm.memcpy.p0i8.p0i8.i64(i8* nonnull align 8 %123, i8* nonnull align 8 %122, i64 16, i1 false) #14
  call void @_ZNK3WTF6String14WriteIntoTraceEN8perfetto11TracedValueE(%"class.WTF::String"* %125, %"class.perfetto::TracedValue"* nonnull %14) #14
  call void @llvm.lifetime.end.p0i8(i64 16, i8* nonnull %123) #14
  call void @llvm.lifetime.end.p0i8(i64 16, i8* nonnull %122) #14
  %126 = getelementptr inbounds %"class.WTF::String", %"class.WTF::String"* %125, i64 1
  %127 = icmp eq %"class.WTF::String"* %126, %119
  br i1 %127, label %128, label %124

128:                                              ; preds = %124, %110
  call void @llvm.lifetime.end.p0i8(i64 16, i8* nonnull %113) #14
  call void @llvm.lifetime.end.p0i8(i64 16, i8* nonnull %112) #14
  call void @_ZN8perfetto16TracedDictionary7AddItemENS_12StaticStringE(%"class.perfetto::TracedValue"* nonnull sret %39, %"class.perfetto::TracedDictionary"* nonnull %33, i8* getelementptr inbounds ([26 x i8], [26 x i8]* @.str.6, i64 0, i64 0)) #14
  %129 = getelementptr inbounds %"class.network::mojom::blink::CookieManagerParams", %"class.network::mojom::blink::CookieManagerParams"* %0, i64 0, i32 6
  %130 = bitcast %"class.perfetto::TracedValue"* %39 to i8*
  %131 = bitcast %"class.perfetto::TracedValue"* %13 to i8*
  call void @llvm.lifetime.start.p0i8(i64 16, i8* nonnull %131) #14
  call void @llvm.memcpy.p0i8.p0i8.i64(i8* nonnull align 8 %131, i8* nonnull align 8 %130, i64 16, i1 false) #14
  %132 = load i8, i8* %129, align 1, !range !4
  %133 = icmp ne i8 %132, 0
  call void @_ZNO8perfetto11TracedValue12WriteBooleanEb(%"class.perfetto::TracedValue"* nonnull %13, i1 zeroext %133) #14
  call void @llvm.lifetime.end.p0i8(i64 16, i8* nonnull %131) #14
  call void @_ZN8perfetto16TracedDictionary7AddItemENS_12StaticStringE(%"class.perfetto::TracedValue"* nonnull sret %40, %"class.perfetto::TracedDictionary"* nonnull %33, i8* getelementptr inbounds ([34 x i8], [34 x i8]* @.str.7, i64 0, i64 0)) #14
  %134 = bitcast %"class.perfetto::TracedValue"* %40 to i8*
  %135 = bitcast %"class.perfetto::TracedValue"* %12 to i8*
  call void @llvm.lifetime.start.p0i8(i64 16, i8* nonnull %135) #14
  call void @llvm.memcpy.p0i8.p0i8.i64(i8* nonnull align 8 %135, i8* nonnull align 8 %134, i64 16, i1 false) #14
  %136 = bitcast %"class.perfetto::TracedArray"* %11 to i8*
  call void @llvm.lifetime.start.p0i8(i64 16, i8* nonnull %136) #14
  call void @llvm.memset.p0i8.i64(i8* nonnull align 8 %136, i8 -86, i64 16, i1 false) #14
  call void @_ZNO8perfetto11TracedValue10WriteArrayEv(%"class.perfetto::TracedArray"* nonnull sret %11, %"class.perfetto::TracedValue"* nonnull %12) #14
  %137 = getelementptr inbounds %"class.network::mojom::blink::CookieManagerParams", %"class.network::mojom::blink::CookieManagerParams"* %0, i64 0, i32 8, i32 0, i32 0, i32 0
  %138 = load %"class.mojo::StructPtr"*, %"class.mojo::StructPtr"** %137, align 8
  %139 = getelementptr inbounds %"class.network::mojom::blink::CookieManagerParams", %"class.network::mojom::blink::CookieManagerParams"* %0, i64 0, i32 8, i32 0, i32 0, i32 2
  %140 = load i32, i32* %139, align 4
  %141 = zext i32 %140 to i64
  %142 = getelementptr inbounds %"class.mojo::StructPtr", %"class.mojo::StructPtr"* %138, i64 %141
  %143 = icmp eq i32 %140, 0
  br i1 %143, label %158, label %144

144:                                              ; preds = %128
  %145 = bitcast %"class.perfetto::TracedValue"* %10 to i8*
  %146 = bitcast %"class.perfetto::TracedValue"* %9 to i8*
  %147 = bitcast %"class.perfetto::TracedValue"* %8 to i8*
  br label %148

148:                                              ; preds = %155, %144
  %149 = phi %"class.mojo::StructPtr"* [ %138, %144 ], [ %156, %155 ]
  call void @llvm.lifetime.start.p0i8(i64 16, i8* nonnull %145) #14
  call void @_ZN8perfetto11TracedArray10AppendItemEv(%"class.perfetto::TracedValue"* nonnull sret %10, %"class.perfetto::TracedArray"* nonnull %11) #14
  %150 = getelementptr inbounds %"class.mojo::StructPtr", %"class.mojo::StructPtr"* %149, i64 0, i32 0, i32 0, i32 0, i32 0
  %151 = load %"class.content_settings::mojom::blink::ContentSettingPatternSource"*, %"class.content_settings::mojom::blink::ContentSettingPatternSource"** %150, align 8
  call void @llvm.lifetime.start.p0i8(i64 16, i8* nonnull %146) #14
  call void @llvm.memcpy.p0i8.p0i8.i64(i8* nonnull align 8 %146, i8* nonnull align 8 %145, i64 16, i1 false) #14
  %152 = icmp eq %"class.content_settings::mojom::blink::ContentSettingPatternSource"* %151, null
  br i1 %152, label %153, label %154

153:                                              ; preds = %148
  call void @_ZNO8perfetto11TracedValue12WritePointerEPKv(%"class.perfetto::TracedValue"* nonnull %9, i8* null) #14
  br label %155

154:                                              ; preds = %148
  call void @llvm.lifetime.start.p0i8(i64 16, i8* nonnull %147) #14
  call void @llvm.memcpy.p0i8.p0i8.i64(i8* nonnull align 8 %147, i8* nonnull align 8 %146, i64 16, i1 false) #14
  call void @_ZNK16content_settings5mojom5blink27ContentSettingPatternSource14WriteIntoTraceEN8perfetto11TracedValueE(%"class.content_settings::mojom::blink::ContentSettingPatternSource"* nonnull %151, %"class.perfetto::TracedValue"* nonnull %8) #14
  call void @llvm.lifetime.end.p0i8(i64 16, i8* nonnull %147) #14
  br label %155

155:                                              ; preds = %154, %153
  call void @llvm.lifetime.end.p0i8(i64 16, i8* nonnull %146) #14
  call void @llvm.lifetime.end.p0i8(i64 16, i8* nonnull %145) #14
  %156 = getelementptr inbounds %"class.mojo::StructPtr", %"class.mojo::StructPtr"* %149, i64 1
  %157 = icmp eq %"class.mojo::StructPtr"* %156, %142
  br i1 %157, label %158, label %148

158:                                              ; preds = %155, %128
  call void @llvm.lifetime.end.p0i8(i64 16, i8* nonnull %136) #14
  call void @llvm.lifetime.end.p0i8(i64 16, i8* nonnull %135) #14
  call void @_ZN8perfetto16TracedDictionary7AddItemENS_12StaticStringE(%"class.perfetto::TracedValue"* nonnull sret %41, %"class.perfetto::TracedDictionary"* nonnull %33, i8* getelementptr inbounds ([28 x i8], [28 x i8]* @.str.8, i64 0, i64 0)) #14
  %159 = bitcast %"class.perfetto::TracedValue"* %41 to i8*
  %160 = bitcast %"class.perfetto::TracedValue"* %7 to i8*
  call void @llvm.lifetime.start.p0i8(i64 16, i8* nonnull %160) #14
  call void @llvm.memcpy.p0i8.p0i8.i64(i8* nonnull align 8 %160, i8* nonnull align 8 %159, i64 16, i1 false) #14
  %161 = bitcast %"class.perfetto::TracedArray"* %6 to i8*
  call void @llvm.lifetime.start.p0i8(i64 16, i8* nonnull %161) #14
  call void @llvm.memset.p0i8.i64(i8* nonnull align 8 %161, i8 -86, i64 16, i1 false) #14
  call void @_ZNO8perfetto11TracedValue10WriteArrayEv(%"class.perfetto::TracedArray"* nonnull sret %6, %"class.perfetto::TracedValue"* nonnull %7) #14
  %162 = getelementptr inbounds %"class.network::mojom::blink::CookieManagerParams", %"class.network::mojom::blink::CookieManagerParams"* %0, i64 0, i32 9, i32 0, i32 0, i32 0
  %163 = load %"class.mojo::StructPtr"*, %"class.mojo::StructPtr"** %162, align 8
  %164 = getelementptr inbounds %"class.network::mojom::blink::CookieManagerParams", %"class.network::mojom::blink::CookieManagerParams"* %0, i64 0, i32 9, i32 0, i32 0, i32 2
  %165 = load i32, i32* %164, align 4
  %166 = zext i32 %165 to i64
  %167 = getelementptr inbounds %"class.mojo::StructPtr", %"class.mojo::StructPtr"* %163, i64 %166
  %168 = icmp eq i32 %165, 0
  br i1 %168, label %183, label %169

169:                                              ; preds = %158
  %170 = bitcast %"class.perfetto::TracedValue"* %5 to i8*
  %171 = bitcast %"class.perfetto::TracedValue"* %4 to i8*
  %172 = bitcast %"class.perfetto::TracedValue"* %3 to i8*
  br label %173

173:                                              ; preds = %180, %169
  %174 = phi %"class.mojo::StructPtr"* [ %163, %169 ], [ %181, %180 ]
  call void @llvm.lifetime.start.p0i8(i64 16, i8* nonnull %170) #14
  call void @_ZN8perfetto11TracedArray10AppendItemEv(%"class.perfetto::TracedValue"* nonnull sret %5, %"class.perfetto::TracedArray"* nonnull %6) #14
  %175 = getelementptr inbounds %"class.mojo::StructPtr", %"class.mojo::StructPtr"* %174, i64 0, i32 0, i32 0, i32 0, i32 0
  %176 = load %"class.content_settings::mojom::blink::ContentSettingPatternSource"*, %"class.content_settings::mojom::blink::ContentSettingPatternSource"** %175, align 8
  call void @llvm.lifetime.start.p0i8(i64 16, i8* nonnull %171) #14
  call void @llvm.memcpy.p0i8.p0i8.i64(i8* nonnull align 8 %171, i8* nonnull align 8 %170, i64 16, i1 false) #14
  %177 = icmp eq %"class.content_settings::mojom::blink::ContentSettingPatternSource"* %176, null
  br i1 %177, label %178, label %179

178:                                              ; preds = %173
  call void @_ZNO8perfetto11TracedValue12WritePointerEPKv(%"class.perfetto::TracedValue"* nonnull %4, i8* null) #14
  br label %180

179:                                              ; preds = %173
  call void @llvm.lifetime.start.p0i8(i64 16, i8* nonnull %172) #14
  call void @llvm.memcpy.p0i8.p0i8.i64(i8* nonnull align 8 %172, i8* nonnull align 8 %171, i64 16, i1 false) #14
  call void @_ZNK16content_settings5mojom5blink27ContentSettingPatternSource14WriteIntoTraceEN8perfetto11TracedValueE(%"class.content_settings::mojom::blink::ContentSettingPatternSource"* nonnull %176, %"class.perfetto::TracedValue"* nonnull %3) #14
  call void @llvm.lifetime.end.p0i8(i64 16, i8* nonnull %172) #14
  br label %180

180:                                              ; preds = %179, %178
  call void @llvm.lifetime.end.p0i8(i64 16, i8* nonnull %171) #14
  call void @llvm.lifetime.end.p0i8(i64 16, i8* nonnull %170) #14
  %181 = getelementptr inbounds %"class.mojo::StructPtr", %"class.mojo::StructPtr"* %174, i64 1
  %182 = icmp eq %"class.mojo::StructPtr"* %181, %167
  br i1 %182, label %183, label %173

183:                                              ; preds = %180, %158
  call void @llvm.lifetime.end.p0i8(i64 16, i8* nonnull %161) #14
  call void @llvm.lifetime.end.p0i8(i64 16, i8* nonnull %160) #14
  call void @_ZN8perfetto16TracedDictionary7AddItemENS_12StaticStringE(%"class.perfetto::TracedValue"* nonnull sret %42, %"class.perfetto::TracedDictionary"* nonnull %33, i8* getelementptr inbounds ([28 x i8], [28 x i8]* @.str.9, i64 0, i64 0)) #14
  %184 = getelementptr inbounds %"class.network::mojom::blink::CookieManagerParams", %"class.network::mojom::blink::CookieManagerParams"* %0, i64 0, i32 10
  %185 = bitcast %"class.perfetto::TracedValue"* %42 to i8*
  %186 = bitcast %"class.perfetto::TracedValue"* %32 to i8*
  call void @llvm.lifetime.start.p0i8(i64 16, i8* nonnull %186) #14
  call void @llvm.memcpy.p0i8.p0i8.i64(i8* nonnull align 8 %186, i8* nonnull align 8 %185, i64 16, i1 false) #14
  %187 = load i32, i32* %184, align 4
  call void @_ZN8perfetto17TraceFormatTraitsIN7network5mojom24CookieAccessDelegateTypeEvE14WriteIntoTraceENS_11TracedValueES3_(%"class.perfetto::TracedValue"* nonnull %32, i32 %187) #14
  call void @llvm.lifetime.end.p0i8(i64 16, i8* nonnull %186) #14
  call void @llvm.lifetime.end.p0i8(i64 16, i8* nonnull %43) #14
  ret void
}

; Function Attrs: argmemonly nounwind
declare void @llvm.lifetime.start.p0i8(i64 immarg, i8* nocapture) #1

declare void @_ZNO8perfetto11TracedValue15WriteDictionaryEv(%"class.perfetto::TracedDictionary"* sret, %"class.perfetto::TracedValue"*) local_unnamed_addr #2

declare void @_ZN8perfetto16TracedDictionary7AddItemENS_12StaticStringE(%"class.perfetto::TracedValue"* sret, %"class.perfetto::TracedDictionary"*, i8*) local_unnamed_addr #2

; Function Attrs: argmemonly nounwind
declare void @llvm.lifetime.end.p0i8(i64 immarg, i8* nocapture) #1

; Function Attrs: nounwind ssp uwtable
define hidden zeroext i1 @_ZN7network5mojom5blink19CookieManagerParams8ValidateEPKvPN4mojo8internal17ValidationContextE(i8*, %"class.mojo::internal::ValidationContext"*) local_unnamed_addr #0 align 2 {
  %3 = tail call zeroext i1 @_ZN7network5mojom8internal24CookieManagerParams_Data8ValidateEPKvPN4mojo8internal17ValidationContextE(i8* %0, %"class.mojo::internal::ValidationContext"* %1) #14
  ret i1 %3
}

declare zeroext i1 @_ZN7network5mojom8internal24CookieManagerParams_Data8ValidateEPKvPN4mojo8internal17ValidationContextE(i8*, %"class.mojo::internal::ValidationContext"*) local_unnamed_addr #2

; Function Attrs: nofree norecurse nounwind ssp uwtable writeonly
define hidden void @_ZN7network5mojom5blink21CookieSameSiteContextC2Ev(%"class.network::mojom::blink::CookieSameSiteContext"* nocapture) unnamed_addr #3 align 2 {
  %2 = getelementptr inbounds %"class.network::mojom::blink::CookieSameSiteContext", %"class.network::mojom::blink::CookieSameSiteContext"* %0, i64 0, i32 0
  store i32 0, i32* %2, align 4
  %3 = getelementptr inbounds %"class.network::mojom::blink::CookieSameSiteContext", %"class.network::mojom::blink::CookieSameSiteContext"* %0, i64 0, i32 1
  store i32 0, i32* %3, align 4
  ret void
}

; Function Attrs: nofree norecurse nounwind ssp uwtable writeonly
define hidden void @_ZN7network5mojom5blink21CookieSameSiteContextC2ENS0_11ContextTypeES3_(%"class.network::mojom::blink::CookieSameSiteContext"* nocapture, i32, i32) unnamed_addr #3 align 2 {
  %4 = getelementptr inbounds %"class.network::mojom::blink::CookieSameSiteContext", %"class.network::mojom::blink::CookieSameSiteContext"* %0, i64 0, i32 0
  store i32 %1, i32* %4, align 4
  %5 = getelementptr inbounds %"class.network::mojom::blink::CookieSameSiteContext", %"class.network::mojom::blink::CookieSameSiteContext"* %0, i64 0, i32 1
  store i32 %2, i32* %5, align 4
  ret void
}

; Function Attrs: norecurse nounwind readnone ssp uwtable
define hidden void @_ZN7network5mojom5blink21CookieSameSiteContextD2Ev(%"class.network::mojom::blink::CookieSameSiteContext"* nocapture) unnamed_addr #4 align 2 {
  ret void
}

; Function Attrs: norecurse nounwind readonly ssp uwtable
define hidden i64 @_ZNK7network5mojom5blink21CookieSameSiteContext4HashEm(%"class.network::mojom::blink::CookieSameSiteContext"* nocapture readonly, i64) local_unnamed_addr #5 align 2 {
  %3 = getelementptr inbounds %"class.network::mojom::blink::CookieSameSiteContext", %"class.network::mojom::blink::CookieSameSiteContext"* %0, i64 0, i32 0
  %4 = load i32, i32* %3, align 4
  %5 = sext i32 %4 to i64
  %6 = shl i64 %1, 6
  %7 = lshr i64 %1, 2
  %8 = add i64 %7, %6
  %9 = add i64 %8, %5
  %10 = xor i64 %9, %1
  %11 = getelementptr inbounds %"class.network::mojom::blink::CookieSameSiteContext", %"class.network::mojom::blink::CookieSameSiteContext"* %0, i64 0, i32 1
  %12 = load i32, i32* %11, align 4
  %13 = sext i32 %12 to i64
  %14 = shl i64 %10, 6
  %15 = lshr i64 %10, 2
  %16 = add i64 %14, %13
  %17 = add i64 %16, %15
  %18 = xor i64 %17, %10
  ret i64 %18
}

; Function Attrs: nounwind ssp uwtable
define hidden void @_ZNK7network5mojom5blink21CookieSameSiteContext14WriteIntoTraceEN8perfetto11TracedValueE(%"class.network::mojom::blink::CookieSameSiteContext"* nocapture readonly, %"class.perfetto::TracedValue"*) local_unnamed_addr #0 align 2 {
  %3 = alloca %"class.perfetto::TracedValue", align 8
  %4 = alloca %"class.perfetto::TracedValue", align 8
  %5 = alloca %"class.perfetto::TracedDictionary", align 8
  %6 = alloca %"class.perfetto::TracedValue", align 8
  %7 = alloca %"class.perfetto::TracedValue", align 8
  %8 = bitcast %"class.perfetto::TracedDictionary"* %5 to i8*
  call void @llvm.lifetime.start.p0i8(i64 16, i8* nonnull %8) #14
  %9 = bitcast %"class.perfetto::TracedDictionary"* %5 to i8*
  call void @llvm.memset.p0i8.i64(i8* nonnull align 8 %9, i8 -86, i64 16, i1 false)
  call void @_ZNO8perfetto11TracedValue15WriteDictionaryEv(%"class.perfetto::TracedDictionary"* nonnull sret %5, %"class.perfetto::TracedValue"* %1) #14
  call void @_ZN8perfetto16TracedDictionary7AddItemENS_12StaticStringE(%"class.perfetto::TracedValue"* nonnull sret %6, %"class.perfetto::TracedDictionary"* nonnull %5, i8* getelementptr inbounds ([8 x i8], [8 x i8]* @.str.10, i64 0, i64 0)) #14
  %10 = getelementptr inbounds %"class.network::mojom::blink::CookieSameSiteContext", %"class.network::mojom::blink::CookieSameSiteContext"* %0, i64 0, i32 0
  %11 = bitcast %"class.perfetto::TracedValue"* %6 to i8*
  %12 = bitcast %"class.perfetto::TracedValue"* %3 to i8*
  call void @llvm.lifetime.start.p0i8(i64 16, i8* nonnull %12) #14
  call void @llvm.memcpy.p0i8.p0i8.i64(i8* nonnull align 8 %12, i8* nonnull align 8 %11, i64 16, i1 false) #14
  %13 = load i32, i32* %10, align 4
  call void @_ZN8perfetto17TraceFormatTraitsIN7network5mojom11ContextTypeEvE14WriteIntoTraceENS_11TracedValueES3_(%"class.perfetto::TracedValue"* nonnull %3, i32 %13) #14
  call void @llvm.lifetime.end.p0i8(i64 16, i8* nonnull %12) #14
  call void @_ZN8perfetto16TracedDictionary7AddItemENS_12StaticStringE(%"class.perfetto::TracedValue"* nonnull sret %7, %"class.perfetto::TracedDictionary"* nonnull %5, i8* getelementptr inbounds ([18 x i8], [18 x i8]* @.str.11, i64 0, i64 0)) #14
  %14 = getelementptr inbounds %"class.network::mojom::blink::CookieSameSiteContext", %"class.network::mojom::blink::CookieSameSiteContext"* %0, i64 0, i32 1
  %15 = bitcast %"class.perfetto::TracedValue"* %7 to i8*
  %16 = bitcast %"class.perfetto::TracedValue"* %4 to i8*
  call void @llvm.lifetime.start.p0i8(i64 16, i8* nonnull %16) #14
  call void @llvm.memcpy.p0i8.p0i8.i64(i8* nonnull align 8 %16, i8* nonnull align 8 %15, i64 16, i1 false) #14
  %17 = load i32, i32* %14, align 4
  call void @_ZN8perfetto17TraceFormatTraitsIN7network5mojom11ContextTypeEvE14WriteIntoTraceENS_11TracedValueES3_(%"class.perfetto::TracedValue"* nonnull %4, i32 %17) #14
  call void @llvm.lifetime.end.p0i8(i64 16, i8* nonnull %16) #14
  call void @llvm.lifetime.end.p0i8(i64 16, i8* nonnull %8) #14
  ret void
}

; Function Attrs: nounwind ssp uwtable
define hidden zeroext i1 @_ZN7network5mojom5blink21CookieSameSiteContext8ValidateEPKvPN4mojo8internal17ValidationContextE(i8*, %"class.mojo::internal::ValidationContext"*) local_unnamed_addr #0 align 2 {
  %3 = tail call zeroext i1 @_ZN7network5mojom8internal26CookieSameSiteContext_Data8ValidateEPKvPN4mojo8internal17ValidationContextE(i8* %0, %"class.mojo::internal::ValidationContext"* %1) #14
  ret i1 %3
}

declare zeroext i1 @_ZN7network5mojom8internal26CookieSameSiteContext_Data8ValidateEPKvPN4mojo8internal17ValidationContextE(i8*, %"class.mojo::internal::ValidationContext"*) local_unnamed_addr #2

; Function Attrs: nounwind ssp uwtable
define hidden void @_ZN7network5mojom5blink13CookieOptionsC2Ev(%"class.network::mojom::blink::CookieOptions"* nocapture) unnamed_addr #0 align 2 {
  %2 = getelementptr inbounds %"class.network::mojom::blink::CookieOptions", %"class.network::mojom::blink::CookieOptions"* %0, i64 0, i32 0
  store i8 1, i8* %2, align 4
  %3 = getelementptr inbounds %"class.network::mojom::blink::CookieOptions", %"class.network::mojom::blink::CookieOptions"* %0, i64 0, i32 2, i32 0, i32 0
  %4 = getelementptr inbounds %"class.network::mojom::blink::CookieOptions", %"class.network::mojom::blink::CookieOptions"* %0, i64 0, i32 3
  %5 = bitcast i32* %3 to i8*
  call void @llvm.memset.p0i8.i64(i8* align 4 %5, i8 0, i64 12, i1 false)
  store i8 1, i8* %4, align 4
  %6 = getelementptr inbounds %"class.network::mojom::blink::CookieOptions", %"class.network::mojom::blink::CookieOptions"* %0, i64 0, i32 4
  store i8 0, i8* %6, align 1
  %7 = getelementptr inbounds %"class.network::mojom::blink::CookieOptions", %"class.network::mojom::blink::CookieOptions"* %0, i64 0, i32 6
  %8 = bitcast i32* %7 to i8*
  call void @llvm.memset.p0i8.i64(i8* align 4 %8, i8 0, i64 9, i1 false)
  ret void
}

; Function Attrs: argmemonly nounwind
declare void @llvm.memset.p0i8.i64(i8* nocapture writeonly, i8, i64, i1 immarg) #1

; Function Attrs: nounwind ssp uwtable
define hidden void @_ZN7network5mojom5blink13CookieOptionsC2EbN4mojo16InlinedStructPtrINS1_21CookieSameSiteContextEEEbbNS0_26SamePartyCookieContextTypeEjb(%"class.network::mojom::blink::CookieOptions"* nocapture, i1 zeroext, %"class.mojo::InlinedStructPtr"* nocapture, i1 zeroext, i1 zeroext, i32, i32, i1 zeroext) unnamed_addr #0 align 2 {
  %9 = zext i1 %1 to i8
  %10 = zext i1 %3 to i8
  %11 = zext i1 %4 to i8
  %12 = zext i1 %7 to i8
  %13 = getelementptr inbounds %"class.network::mojom::blink::CookieOptions", %"class.network::mojom::blink::CookieOptions"* %0, i64 0, i32 0
  store i8 %9, i8* %13, align 4
  %14 = getelementptr inbounds %"class.network::mojom::blink::CookieOptions", %"class.network::mojom::blink::CookieOptions"* %0, i64 0, i32 2
  %15 = getelementptr inbounds %"class.network::mojom::blink::CookieOptions", %"class.network::mojom::blink::CookieOptions"* %0, i64 0, i32 2, i32 1
  %16 = bitcast %"class.mojo::InlinedStructPtr"* %14 to i64*
  %17 = bitcast %"class.mojo::InlinedStructPtr"* %14 to i8*
  tail call void @llvm.memset.p0i8.i64(i8* align 4 %17, i8 0, i64 12, i1 false) #14
  %18 = bitcast %"class.mojo::InlinedStructPtr"* %2 to i64*
  %19 = load i64, i64* %18, align 4
  store i64 %19, i64* %16, align 4
  store i64 0, i64* %18, align 4
  %20 = getelementptr inbounds %"class.mojo::InlinedStructPtr", %"class.mojo::InlinedStructPtr"* %2, i64 0, i32 1
  %21 = load i32, i32* %15, align 4
  %22 = load i32, i32* %20, align 4
  store i32 %22, i32* %15, align 4
  store i32 %21, i32* %20, align 4
  %23 = getelementptr inbounds %"class.network::mojom::blink::CookieOptions", %"class.network::mojom::blink::CookieOptions"* %0, i64 0, i32 3
  store i8 %10, i8* %23, align 4
  %24 = getelementptr inbounds %"class.network::mojom::blink::CookieOptions", %"class.network::mojom::blink::CookieOptions"* %0, i64 0, i32 4
  store i8 %11, i8* %24, align 1
  %25 = getelementptr inbounds %"class.network::mojom::blink::CookieOptions", %"class.network::mojom::blink::CookieOptions"* %0, i64 0, i32 6
  store i32 %5, i32* %25, align 4
  %26 = getelementptr inbounds %"class.network::mojom::blink::CookieOptions", %"class.network::mojom::blink::CookieOptions"* %0, i64 0, i32 7
  store i32 %6, i32* %26, align 4
  %27 = getelementptr inbounds %"class.network::mojom::blink::CookieOptions", %"class.network::mojom::blink::CookieOptions"* %0, i64 0, i32 8
  store i8 %12, i8* %27, align 4
  ret void
}

; Function Attrs: norecurse nounwind readnone ssp uwtable
define hidden void @_ZN7network5mojom5blink13CookieOptionsD2Ev(%"class.network::mojom::blink::CookieOptions"* nocapture) unnamed_addr #4 align 2 {
  ret void
}

; Function Attrs: norecurse nounwind readonly ssp uwtable
define hidden i64 @_ZNK7network5mojom5blink13CookieOptions4HashEm(%"class.network::mojom::blink::CookieOptions"* nocapture readonly, i64) local_unnamed_addr #5 align 2 {
  %3 = getelementptr inbounds %"class.network::mojom::blink::CookieOptions", %"class.network::mojom::blink::CookieOptions"* %0, i64 0, i32 0
  %4 = load i8, i8* %3, align 1, !range !4
  %5 = zext i8 %4 to i64
  %6 = shl i64 %1, 6
  %7 = or i64 %6, %5
  %8 = lshr i64 %1, 2
  %9 = add i64 %7, %8
  %10 = xor i64 %9, %1
  %11 = getelementptr inbounds %"class.network::mojom::blink::CookieOptions", %"class.network::mojom::blink::CookieOptions"* %0, i64 0, i32 2, i32 1
  %12 = load i32, i32* %11, align 4
  %13 = icmp eq i32 %12, 0
  br i1 %13, label %14, label %18

14:                                               ; preds = %2
  %15 = shl i64 %10, 6
  %16 = lshr i64 %10, 2
  %17 = add i64 %16, %15
  br label %34

18:                                               ; preds = %2
  %19 = getelementptr inbounds %"class.network::mojom::blink::CookieOptions", %"class.network::mojom::blink::CookieOptions"* %0, i64 0, i32 2, i32 0, i32 0
  %20 = load i32, i32* %19, align 4
  %21 = sext i32 %20 to i64
  %22 = shl i64 %10, 6
  %23 = lshr i64 %10, 2
  %24 = add i64 %23, %22
  %25 = add i64 %24, %21
  %26 = xor i64 %25, %10
  %27 = getelementptr inbounds %"class.network::mojom::blink::CookieOptions", %"class.network::mojom::blink::CookieOptions"* %0, i64 0, i32 2, i32 0, i32 1
  %28 = load i32, i32* %27, align 4
  %29 = sext i32 %28 to i64
  %30 = shl i64 %26, 6
  %31 = lshr i64 %26, 2
  %32 = add i64 %30, %29
  %33 = add i64 %32, %31
  br label %34

34:                                               ; preds = %14, %18
  %35 = phi i64 [ %10, %14 ], [ %26, %18 ]
  %36 = phi i64 [ %17, %14 ], [ %33, %18 ]
  %37 = xor i64 %36, %35
  %38 = getelementptr inbounds %"class.network::mojom::blink::CookieOptions", %"class.network::mojom::blink::CookieOptions"* %0, i64 0, i32 3
  %39 = load i8, i8* %38, align 1, !range !4
  %40 = zext i8 %39 to i64
  %41 = shl i64 %37, 6
  %42 = or i64 %41, %40
  %43 = lshr i64 %37, 2
  %44 = add i64 %42, %43
  %45 = xor i64 %44, %37
  %46 = getelementptr inbounds %"class.network::mojom::blink::CookieOptions", %"class.network::mojom::blink::CookieOptions"* %0, i64 0, i32 4
  %47 = load i8, i8* %46, align 1, !range !4
  %48 = zext i8 %47 to i64
  %49 = shl i64 %45, 6
  %50 = or i64 %49, %48
  %51 = lshr i64 %45, 2
  %52 = add i64 %50, %51
  %53 = xor i64 %52, %45
  %54 = getelementptr inbounds %"class.network::mojom::blink::CookieOptions", %"class.network::mojom::blink::CookieOptions"* %0, i64 0, i32 6
  %55 = load i32, i32* %54, align 4
  %56 = sext i32 %55 to i64
  %57 = shl i64 %53, 6
  %58 = lshr i64 %53, 2
  %59 = add i64 %57, %56
  %60 = add i64 %59, %58
  %61 = xor i64 %60, %53
  %62 = getelementptr inbounds %"class.network::mojom::blink::CookieOptions", %"class.network::mojom::blink::CookieOptions"* %0, i64 0, i32 7
  %63 = load i32, i32* %62, align 4
  %64 = zext i32 %63 to i64
  %65 = shl i64 %61, 6
  %66 = lshr i64 %61, 2
  %67 = add i64 %65, %64
  %68 = add i64 %67, %66
  %69 = xor i64 %68, %61
  %70 = getelementptr inbounds %"class.network::mojom::blink::CookieOptions", %"class.network::mojom::blink::CookieOptions"* %0, i64 0, i32 8
  %71 = load i8, i8* %70, align 1, !range !4
  %72 = zext i8 %71 to i64
  %73 = shl i64 %69, 6
  %74 = or i64 %73, %72
  %75 = lshr i64 %69, 2
  %76 = add i64 %74, %75
  %77 = xor i64 %76, %69
  ret i64 %77
}

; Function Attrs: nounwind ssp uwtable
define hidden void @_ZNK7network5mojom5blink13CookieOptions14WriteIntoTraceEN8perfetto11TracedValueE(%"class.network::mojom::blink::CookieOptions"*, %"class.perfetto::TracedValue"*) local_unnamed_addr #0 align 2 {
  %3 = alloca %"class.perfetto::TracedValue", align 8
  %4 = alloca %"class.perfetto::TracedValue", align 8
  %5 = alloca %"class.perfetto::TracedValue", align 8
  %6 = alloca %"class.perfetto::TracedValue", align 8
  %7 = alloca %"class.perfetto::TracedValue", align 8
  %8 = alloca %"class.network::mojom::blink::CookieSameSiteContext"*, align 8
  %9 = alloca %"class.perfetto::TracedValue", align 8
  %10 = alloca %"class.perfetto::TracedValue", align 8
  %11 = alloca %"class.perfetto::TracedDictionary", align 8
  %12 = alloca %"class.perfetto::TracedValue", align 8
  %13 = alloca %"class.perfetto::TracedValue", align 8
  %14 = alloca %"class.perfetto::TracedValue", align 8
  %15 = alloca %"class.perfetto::TracedValue", align 8
  %16 = alloca %"class.perfetto::TracedValue", align 8
  %17 = alloca %"class.perfetto::TracedValue", align 8
  %18 = alloca %"class.perfetto::TracedValue", align 8
  %19 = bitcast %"class.perfetto::TracedDictionary"* %11 to i8*
  call void @llvm.lifetime.start.p0i8(i64 16, i8* nonnull %19) #14
  %20 = bitcast %"class.perfetto::TracedDictionary"* %11 to i8*
  call void @llvm.memset.p0i8.i64(i8* nonnull align 8 %20, i8 -86, i64 16, i1 false)
  call void @_ZNO8perfetto11TracedValue15WriteDictionaryEv(%"class.perfetto::TracedDictionary"* nonnull sret %11, %"class.perfetto::TracedValue"* %1) #14
  call void @_ZN8perfetto16TracedDictionary7AddItemENS_12StaticStringE(%"class.perfetto::TracedValue"* nonnull sret %12, %"class.perfetto::TracedDictionary"* nonnull %11, i8* getelementptr inbounds ([17 x i8], [17 x i8]* @.str.12, i64 0, i64 0)) #14
  %21 = getelementptr inbounds %"class.network::mojom::blink::CookieOptions", %"class.network::mojom::blink::CookieOptions"* %0, i64 0, i32 0
  %22 = bitcast %"class.perfetto::TracedValue"* %12 to i8*
  %23 = bitcast %"class.perfetto::TracedValue"* %9 to i8*
  call void @llvm.lifetime.start.p0i8(i64 16, i8* nonnull %23) #14
  call void @llvm.memcpy.p0i8.p0i8.i64(i8* nonnull align 8 %23, i8* nonnull align 8 %22, i64 16, i1 false) #14
  %24 = load i8, i8* %21, align 1, !range !4
  %25 = icmp ne i8 %24, 0
  call void @_ZNO8perfetto11TracedValue12WriteBooleanEb(%"class.perfetto::TracedValue"* nonnull %9, i1 zeroext %25) #14
  call void @llvm.lifetime.end.p0i8(i64 16, i8* nonnull %23) #14
  call void @_ZN8perfetto16TracedDictionary7AddItemENS_12StaticStringE(%"class.perfetto::TracedValue"* nonnull sret %13, %"class.perfetto::TracedDictionary"* nonnull %11, i8* getelementptr inbounds ([25 x i8], [25 x i8]* @.str.13, i64 0, i64 0)) #14
  %26 = bitcast %"class.perfetto::TracedValue"* %13 to i8*
  %27 = bitcast %"class.network::mojom::blink::CookieSameSiteContext"** %8 to i8*
  call void @llvm.lifetime.start.p0i8(i64 8, i8* nonnull %27) #14
  %28 = getelementptr inbounds %"class.network::mojom::blink::CookieOptions", %"class.network::mojom::blink::CookieOptions"* %0, i64 0, i32 2, i32 1
  %29 = load i32, i32* %28, align 4
  %30 = icmp eq i32 %29, 0
  %31 = getelementptr inbounds %"class.network::mojom::blink::CookieOptions", %"class.network::mojom::blink::CookieOptions"* %0, i64 0, i32 2, i32 0
  %32 = select i1 %30, %"class.network::mojom::blink::CookieSameSiteContext"* null, %"class.network::mojom::blink::CookieSameSiteContext"* %31
  store %"class.network::mojom::blink::CookieSameSiteContext"* %32, %"class.network::mojom::blink::CookieSameSiteContext"** %8, align 8
  %33 = bitcast %"class.perfetto::TracedValue"* %7 to i8*
  call void @llvm.lifetime.start.p0i8(i64 16, i8* nonnull %33) #14
  call void @llvm.memcpy.p0i8.p0i8.i64(i8* nonnull align 8 %33, i8* nonnull align 8 %26, i64 16, i1 false)
  call void @_ZN8perfetto8internal9WriteImplIPN7network5mojom5blink21CookieSameSiteContextEEEDTcmclsr17TraceFormatTraitsINS_4base12remove_cvrefIT_E4typeEEE14WriteIntoTraceclL_ZNSt3__17declvalINS_11TracedValueEEEDTclsr3std3__1E9__declvalIS9_ELi0EEEvEEclsr3stdE7declvalIS9_EEEcvv_EENS7_12priority_tagILm3EEESE_OS9_(%"class.perfetto::TracedValue"* nonnull %7, %"class.network::mojom::blink::CookieSameSiteContext"** nonnull dereferenceable(8) %8) #14
  call void @llvm.lifetime.end.p0i8(i64 16, i8* nonnull %33) #14
  call void @llvm.lifetime.end.p0i8(i64 8, i8* nonnull %27) #14
  call void @_ZN8perfetto16TracedDictionary7AddItemENS_12StaticStringE(%"class.perfetto::TracedValue"* nonnull sret %14, %"class.perfetto::TracedDictionary"* nonnull %11, i8* getelementptr inbounds ([19 x i8], [19 x i8]* @.str.14, i64 0, i64 0)) #14
  %34 = getelementptr inbounds %"class.network::mojom::blink::CookieOptions", %"class.network::mojom::blink::CookieOptions"* %0, i64 0, i32 3
  %35 = bitcast %"class.perfetto::TracedValue"* %14 to i8*
  %36 = bitcast %"class.perfetto::TracedValue"* %6 to i8*
  call void @llvm.lifetime.start.p0i8(i64 16, i8* nonnull %36) #14
  call void @llvm.memcpy.p0i8.p0i8.i64(i8* nonnull align 8 %36, i8* nonnull align 8 %35, i64 16, i1 false) #14
  %37 = load i8, i8* %34, align 1, !range !4
  %38 = icmp ne i8 %37, 0
  call void @_ZNO8perfetto11TracedValue12WriteBooleanEb(%"class.perfetto::TracedValue"* nonnull %6, i1 zeroext %38) #14
  call void @llvm.lifetime.end.p0i8(i64 16, i8* nonnull %36) #14
  call void @_ZN8perfetto16TracedDictionary7AddItemENS_12StaticStringE(%"class.perfetto::TracedValue"* nonnull sret %15, %"class.perfetto::TracedDictionary"* nonnull %11, i8* getelementptr inbounds ([24 x i8], [24 x i8]* @.str.15, i64 0, i64 0)) #14
  %39 = getelementptr inbounds %"class.network::mojom::blink::CookieOptions", %"class.network::mojom::blink::CookieOptions"* %0, i64 0, i32 4
  %40 = bitcast %"class.perfetto::TracedValue"* %15 to i8*
  %41 = bitcast %"class.perfetto::TracedValue"* %5 to i8*
  call void @llvm.lifetime.start.p0i8(i64 16, i8* nonnull %41) #14
  call void @llvm.memcpy.p0i8.p0i8.i64(i8* nonnull align 8 %41, i8* nonnull align 8 %40, i64 16, i1 false) #14
  %42 = load i8, i8* %39, align 1, !range !4
  %43 = icmp ne i8 %42, 0
  call void @_ZNO8perfetto11TracedValue12WriteBooleanEb(%"class.perfetto::TracedValue"* nonnull %5, i1 zeroext %43) #14
  call void @llvm.lifetime.end.p0i8(i64 16, i8* nonnull %41) #14
  call void @_ZN8perfetto16TracedDictionary7AddItemENS_12StaticStringE(%"class.perfetto::TracedValue"* nonnull sret %16, %"class.perfetto::TracedDictionary"* nonnull %11, i8* getelementptr inbounds ([31 x i8], [31 x i8]* @.str.16, i64 0, i64 0)) #14
  %44 = getelementptr inbounds %"class.network::mojom::blink::CookieOptions", %"class.network::mojom::blink::CookieOptions"* %0, i64 0, i32 6
  %45 = bitcast %"class.perfetto::TracedValue"* %16 to i8*
  %46 = bitcast %"class.perfetto::TracedValue"* %4 to i8*
  call void @llvm.lifetime.start.p0i8(i64 16, i8* nonnull %46) #14
  call void @llvm.memcpy.p0i8.p0i8.i64(i8* nonnull align 8 %46, i8* nonnull align 8 %45, i64 16, i1 false) #14
  %47 = load i32, i32* %44, align 4
  call void @_ZN8perfetto17TraceFormatTraitsIN7network5mojom26SamePartyCookieContextTypeEvE14WriteIntoTraceENS_11TracedValueES3_(%"class.perfetto::TracedValue"* nonnull %4, i32 %47) #14
  call void @llvm.lifetime.end.p0i8(i64 16, i8* nonnull %46) #14
  call void @_ZN8perfetto16TracedDictionary7AddItemENS_12StaticStringE(%"class.perfetto::TracedValue"* nonnull sret %17, %"class.perfetto::TracedDictionary"* nonnull %11, i8* getelementptr inbounds ([24 x i8], [24 x i8]* @.str.17, i64 0, i64 0)) #14
  %48 = getelementptr inbounds %"class.network::mojom::blink::CookieOptions", %"class.network::mojom::blink::CookieOptions"* %0, i64 0, i32 7
  %49 = bitcast %"class.perfetto::TracedValue"* %17 to i8*
  %50 = bitcast %"class.perfetto::TracedValue"* %3 to i8*
  call void @llvm.lifetime.start.p0i8(i64 16, i8* nonnull %50) #14
  call void @llvm.memcpy.p0i8.p0i8.i64(i8* nonnull align 8 %50, i8* nonnull align 8 %49, i64 16, i1 false) #14
  %51 = load i32, i32* %48, align 4
  %52 = zext i32 %51 to i64
  call void @_ZNO8perfetto11TracedValue11WriteUInt64Em(%"class.perfetto::TracedValue"* nonnull %3, i64 %52) #14
  call void @llvm.lifetime.end.p0i8(i64 16, i8* nonnull %50) #14
  call void @_ZN8perfetto16TracedDictionary7AddItemENS_12StaticStringE(%"class.perfetto::TracedValue"* nonnull sret %18, %"class.perfetto::TracedDictionary"* nonnull %11, i8* getelementptr inbounds ([33 x i8], [33 x i8]* @.str.18, i64 0, i64 0)) #14
  %53 = getelementptr inbounds %"class.network::mojom::blink::CookieOptions", %"class.network::mojom::blink::CookieOptions"* %0, i64 0, i32 8
  %54 = bitcast %"class.perfetto::TracedValue"* %18 to i8*
  %55 = bitcast %"class.perfetto::TracedValue"* %10 to i8*
  call void @llvm.lifetime.start.p0i8(i64 16, i8* nonnull %55) #14
  call void @llvm.memcpy.p0i8.p0i8.i64(i8* nonnull align 8 %55, i8* nonnull align 8 %54, i64 16, i1 false) #14
  %56 = load i8, i8* %53, align 1, !range !4
  %57 = icmp ne i8 %56, 0
  call void @_ZNO8perfetto11TracedValue12WriteBooleanEb(%"class.perfetto::TracedValue"* nonnull %10, i1 zeroext %57) #14
  call void @llvm.lifetime.end.p0i8(i64 16, i8* nonnull %55) #14
  call void @llvm.lifetime.end.p0i8(i64 16, i8* nonnull %19) #14
  ret void
}

; Function Attrs: nounwind ssp uwtable
define hidden zeroext i1 @_ZN7network5mojom5blink13CookieOptions8ValidateEPKvPN4mojo8internal17ValidationContextE(i8*, %"class.mojo::internal::ValidationContext"*) local_unnamed_addr #0 align 2 {
  %3 = tail call zeroext i1 @_ZN7network5mojom8internal18CookieOptions_Data8ValidateEPKvPN4mojo8internal17ValidationContextE(i8* %0, %"class.mojo::internal::ValidationContext"* %1) #14
  ret i1 %3
}

declare zeroext i1 @_ZN7network5mojom8internal18CookieOptions_Data8ValidateEPKvPN4mojo8internal17ValidationContextE(i8*, %"class.mojo::internal::ValidationContext"*) local_unnamed_addr #2

; Function Attrs: nofree norecurse nounwind ssp uwtable writeonly
define hidden void @_ZN7network5mojom5blink15CanonicalCookieC2Ev(%"class.network::mojom::blink::CanonicalCookie"* nocapture) unnamed_addr #3 align 2 {
  %2 = getelementptr inbounds %"class.network::mojom::blink::CanonicalCookie", %"class.network::mojom::blink::CanonicalCookie"* %0, i64 0, i32 9
  store i32 0, i32* %2, align 4
  %3 = getelementptr inbounds %"class.network::mojom::blink::CanonicalCookie", %"class.network::mojom::blink::CanonicalCookie"* %0, i64 0, i32 10
  %4 = bitcast %"class.network::mojom::blink::CanonicalCookie"* %0 to i8*
  call void @llvm.memset.p0i8.i64(i8* align 8 %4, i8 0, i64 58, i1 false)
  store i32 1, i32* %3, align 8
  %5 = getelementptr inbounds %"class.network::mojom::blink::CanonicalCookie", %"class.network::mojom::blink::CanonicalCookie"* %0, i64 0, i32 11
  store i32 0, i32* %5, align 4
  %6 = getelementptr inbounds %"class.network::mojom::blink::CanonicalCookie", %"class.network::mojom::blink::CanonicalCookie"* %0, i64 0, i32 12
  store i8 0, i8* %6, align 8
  %7 = getelementptr inbounds %"class.network::mojom::blink::CanonicalCookie", %"class.network::mojom::blink::CanonicalCookie"* %0, i64 0, i32 13
  store i32 -1, i32* %7, align 4
  ret void
}

; Function Attrs: nounwind ssp uwtable
define hidden void @_ZN7network5mojom5blink15CanonicalCookieC2ERKN3WTF6StringES6_S6_S6_N4base4TimeES8_S8_bbNS0_14CookieSameSiteENS0_14CookiePriorityENS0_18CookieSourceSchemeEbi(%"class.network::mojom::blink::CanonicalCookie"* nocapture, %"class.WTF::String"* nocapture readonly dereferenceable(8), %"class.WTF::String"* nocapture readonly dereferenceable(8), %"class.WTF::String"* nocapture readonly dereferenceable(8), %"class.WTF::String"* nocapture readonly dereferenceable(8), i64, i64, i64, i1 zeroext, i1 zeroext, i32, i32, i32, i1 zeroext, i32) unnamed_addr #0 align 2 {
  %16 = zext i1 %8 to i8
  %17 = zext i1 %9 to i8
  %18 = zext i1 %13 to i8
  %19 = getelementptr inbounds %"class.WTF::String", %"class.WTF::String"* %1, i64 0, i32 0, i32 0
  %20 = load %"class.WTF::StringImpl"*, %"class.WTF::StringImpl"** %19, align 8
  %21 = getelementptr inbounds %"class.network::mojom::blink::CanonicalCookie", %"class.network::mojom::blink::CanonicalCookie"* %0, i64 0, i32 0, i32 0, i32 0
  store %"class.WTF::StringImpl"* %20, %"class.WTF::StringImpl"** %21, align 8
  %22 = icmp eq %"class.WTF::StringImpl"* %20, null
  br i1 %22, label %40, label %23

23:                                               ; preds = %15
  %24 = getelementptr inbounds %"class.WTF::StringImpl", %"class.WTF::StringImpl"* %20, i64 0, i32 2, i32 0, i32 0, i32 0, i32 0, i32 0
  %25 = load atomic i32, i32* %24 monotonic, align 4
  %26 = and i32 %25, 2
  %27 = icmp eq i32 %26, 0
  br i1 %27, label %28, label %40

28:                                               ; preds = %23
  %29 = getelementptr inbounds %"class.WTF::StringImpl", %"class.WTF::StringImpl"* %20, i64 0, i32 0
  %30 = load i32, i32* %29, align 4
  %31 = zext i32 %30 to i33
  %32 = tail call { i33, i1 } @llvm.sadd.with.overflow.i33(i33 %31, i33 1) #14
  %33 = extractvalue { i33, i1 } %32, 1
  %34 = extractvalue { i33, i1 } %32, 0
  %35 = icmp slt i33 %34, 0
  %36 = or i1 %33, %35
  br i1 %36, label %37, label %38, !prof !3

37:                                               ; preds = %28
  tail call void @llvm.trap() #14
  unreachable

38:                                               ; preds = %28
  %39 = trunc i33 %34 to i32
  store i32 %39, i32* %29, align 4
  br label %40

40:                                               ; preds = %15, %23, %38
  %41 = getelementptr inbounds %"class.WTF::String", %"class.WTF::String"* %2, i64 0, i32 0, i32 0
  %42 = load %"class.WTF::StringImpl"*, %"class.WTF::StringImpl"** %41, align 8
  %43 = getelementptr inbounds %"class.network::mojom::blink::CanonicalCookie", %"class.network::mojom::blink::CanonicalCookie"* %0, i64 0, i32 1, i32 0, i32 0
  store %"class.WTF::StringImpl"* %42, %"class.WTF::StringImpl"** %43, align 8
  %44 = icmp eq %"class.WTF::StringImpl"* %42, null
  br i1 %44, label %62, label %45

45:                                               ; preds = %40
  %46 = getelementptr inbounds %"class.WTF::StringImpl", %"class.WTF::StringImpl"* %42, i64 0, i32 2, i32 0, i32 0, i32 0, i32 0, i32 0
  %47 = load atomic i32, i32* %46 monotonic, align 4
  %48 = and i32 %47, 2
  %49 = icmp eq i32 %48, 0
  br i1 %49, label %50, label %62

50:                                               ; preds = %45
  %51 = getelementptr inbounds %"class.WTF::StringImpl", %"class.WTF::StringImpl"* %42, i64 0, i32 0
  %52 = load i32, i32* %51, align 4
  %53 = zext i32 %52 to i33
  %54 = tail call { i33, i1 } @llvm.sadd.with.overflow.i33(i33 %53, i33 1) #14
  %55 = extractvalue { i33, i1 } %54, 1
  %56 = extractvalue { i33, i1 } %54, 0
  %57 = icmp slt i33 %56, 0
  %58 = or i1 %55, %57
  br i1 %58, label %59, label %60, !prof !3

59:                                               ; preds = %50
  tail call void @llvm.trap() #14
  unreachable

60:                                               ; preds = %50
  %61 = trunc i33 %56 to i32
  store i32 %61, i32* %51, align 4
  br label %62

62:                                               ; preds = %40, %45, %60
  %63 = getelementptr inbounds %"class.WTF::String", %"class.WTF::String"* %3, i64 0, i32 0, i32 0
  %64 = load %"class.WTF::StringImpl"*, %"class.WTF::StringImpl"** %63, align 8
  %65 = getelementptr inbounds %"class.network::mojom::blink::CanonicalCookie", %"class.network::mojom::blink::CanonicalCookie"* %0, i64 0, i32 2, i32 0, i32 0
  store %"class.WTF::StringImpl"* %64, %"class.WTF::StringImpl"** %65, align 8
  %66 = icmp eq %"class.WTF::StringImpl"* %64, null
  br i1 %66, label %84, label %67

67:                                               ; preds = %62
  %68 = getelementptr inbounds %"class.WTF::StringImpl", %"class.WTF::StringImpl"* %64, i64 0, i32 2, i32 0, i32 0, i32 0, i32 0, i32 0
  %69 = load atomic i32, i32* %68 monotonic, align 4
  %70 = and i32 %69, 2
  %71 = icmp eq i32 %70, 0
  br i1 %71, label %72, label %84

72:                                               ; preds = %67
  %73 = getelementptr inbounds %"class.WTF::StringImpl", %"class.WTF::StringImpl"* %64, i64 0, i32 0
  %74 = load i32, i32* %73, align 4
  %75 = zext i32 %74 to i33
  %76 = tail call { i33, i1 } @llvm.sadd.with.overflow.i33(i33 %75, i33 1) #14
  %77 = extractvalue { i33, i1 } %76, 1
  %78 = extractvalue { i33, i1 } %76, 0
  %79 = icmp slt i33 %78, 0
  %80 = or i1 %77, %79
  br i1 %80, label %81, label %82, !prof !3

81:                                               ; preds = %72
  tail call void @llvm.trap() #14
  unreachable

82:                                               ; preds = %72
  %83 = trunc i33 %78 to i32
  store i32 %83, i32* %73, align 4
  br label %84

84:                                               ; preds = %62, %67, %82
  %85 = getelementptr inbounds %"class.WTF::String", %"class.WTF::String"* %4, i64 0, i32 0, i32 0
  %86 = load %"class.WTF::StringImpl"*, %"class.WTF::StringImpl"** %85, align 8
  %87 = getelementptr inbounds %"class.network::mojom::blink::CanonicalCookie", %"class.network::mojom::blink::CanonicalCookie"* %0, i64 0, i32 3, i32 0, i32 0
  store %"class.WTF::StringImpl"* %86, %"class.WTF::StringImpl"** %87, align 8
  %88 = icmp eq %"class.WTF::StringImpl"* %86, null
  br i1 %88, label %106, label %89

89:                                               ; preds = %84
  %90 = getelementptr inbounds %"class.WTF::StringImpl", %"class.WTF::StringImpl"* %86, i64 0, i32 2, i32 0, i32 0, i32 0, i32 0, i32 0
  %91 = load atomic i32, i32* %90 monotonic, align 4
  %92 = and i32 %91, 2
  %93 = icmp eq i32 %92, 0
  br i1 %93, label %94, label %106

94:                                               ; preds = %89
  %95 = getelementptr inbounds %"class.WTF::StringImpl", %"class.WTF::StringImpl"* %86, i64 0, i32 0
  %96 = load i32, i32* %95, align 4
  %97 = zext i32 %96 to i33
  %98 = tail call { i33, i1 } @llvm.sadd.with.overflow.i33(i33 %97, i33 1) #14
  %99 = extractvalue { i33, i1 } %98, 1
  %100 = extractvalue { i33, i1 } %98, 0
  %101 = icmp slt i33 %100, 0
  %102 = or i1 %99, %101
  br i1 %102, label %103, label %104, !prof !3

103:                                              ; preds = %94
  tail call void @llvm.trap() #14
  unreachable

104:                                              ; preds = %94
  %105 = trunc i33 %100 to i32
  store i32 %105, i32* %95, align 4
  br label %106

106:                                              ; preds = %84, %89, %104
  %107 = getelementptr inbounds %"class.network::mojom::blink::CanonicalCookie", %"class.network::mojom::blink::CanonicalCookie"* %0, i64 0, i32 4, i32 0, i32 0
  store i64 %5, i64* %107, align 8
  %108 = getelementptr inbounds %"class.network::mojom::blink::CanonicalCookie", %"class.network::mojom::blink::CanonicalCookie"* %0, i64 0, i32 5, i32 0, i32 0
  store i64 %6, i64* %108, align 8
  %109 = getelementptr inbounds %"class.network::mojom::blink::CanonicalCookie", %"class.network::mojom::blink::CanonicalCookie"* %0, i64 0, i32 6, i32 0, i32 0
  store i64 %7, i64* %109, align 8
  %110 = getelementptr inbounds %"class.network::mojom::blink::CanonicalCookie", %"class.network::mojom::blink::CanonicalCookie"* %0, i64 0, i32 7
  store i8 %16, i8* %110, align 8
  %111 = getelementptr inbounds %"class.network::mojom::blink::CanonicalCookie", %"class.network::mojom::blink::CanonicalCookie"* %0, i64 0, i32 8
  store i8 %17, i8* %111, align 1
  %112 = getelementptr inbounds %"class.network::mojom::blink::CanonicalCookie", %"class.network::mojom::blink::CanonicalCookie"* %0, i64 0, i32 9
  store i32 %10, i32* %112, align 4
  %113 = getelementptr inbounds %"class.network::mojom::blink::CanonicalCookie", %"class.network::mojom::blink::CanonicalCookie"* %0, i64 0, i32 10
  store i32 %11, i32* %113, align 8
  %114 = getelementptr inbounds %"class.network::mojom::blink::CanonicalCookie", %"class.network::mojom::blink::CanonicalCookie"* %0, i64 0, i32 11
  store i32 %12, i32* %114, align 4
  %115 = getelementptr inbounds %"class.network::mojom::blink::CanonicalCookie", %"class.network::mojom::blink::CanonicalCookie"* %0, i64 0, i32 12
  store i8 %18, i8* %115, align 8
  %116 = getelementptr inbounds %"class.network::mojom::blink::CanonicalCookie", %"class.network::mojom::blink::CanonicalCookie"* %0, i64 0, i32 13
  store i32 %14, i32* %116, align 4
  ret void
}

; Function Attrs: argmemonly nounwind
declare void @llvm.memcpy.p0i8.p0i8.i64(i8* nocapture writeonly, i8* nocapture readonly, i64, i1 immarg) #1

; Function Attrs: nounwind ssp uwtable
define hidden void @_ZN7network5mojom5blink15CanonicalCookieD2Ev(%"class.network::mojom::blink::CanonicalCookie"* nocapture readonly) unnamed_addr #0 align 2 {
  %2 = getelementptr inbounds %"class.network::mojom::blink::CanonicalCookie", %"class.network::mojom::blink::CanonicalCookie"* %0, i64 0, i32 3, i32 0, i32 0
  %3 = load %"class.WTF::StringImpl"*, %"class.WTF::StringImpl"** %2, align 8
  %4 = icmp eq %"class.WTF::StringImpl"* %3, null
  br i1 %4, label %18, label %5

5:                                                ; preds = %1
  %6 = getelementptr inbounds %"class.WTF::StringImpl", %"class.WTF::StringImpl"* %3, i64 0, i32 2, i32 0, i32 0, i32 0, i32 0, i32 0
  %7 = load atomic i32, i32* %6 monotonic, align 4
  %8 = and i32 %7, 2
  %9 = icmp eq i32 %8, 0
  %10 = getelementptr inbounds %"class.WTF::StringImpl", %"class.WTF::StringImpl"* %3, i64 0, i32 0
  %11 = load i32, i32* %10, align 4
  br i1 %9, label %12, label %14

12:                                               ; preds = %5
  %13 = add i32 %11, -1
  store i32 %13, i32* %10, align 4
  br label %14

14:                                               ; preds = %12, %5
  %15 = phi i32 [ %13, %12 ], [ %11, %5 ]
  %16 = icmp eq i32 %15, 0
  br i1 %16, label %17, label %18

17:                                               ; preds = %14
  tail call void @_ZNK3WTF10StringImpl18DestroyIfNotStaticEv(%"class.WTF::StringImpl"* nonnull %3) #14
  br label %18

18:                                               ; preds = %1, %14, %17
  %19 = getelementptr inbounds %"class.network::mojom::blink::CanonicalCookie", %"class.network::mojom::blink::CanonicalCookie"* %0, i64 0, i32 2, i32 0, i32 0
  %20 = load %"class.WTF::StringImpl"*, %"class.WTF::StringImpl"** %19, align 8
  %21 = icmp eq %"class.WTF::StringImpl"* %20, null
  br i1 %21, label %35, label %22

22:                                               ; preds = %18
  %23 = getelementptr inbounds %"class.WTF::StringImpl", %"class.WTF::StringImpl"* %20, i64 0, i32 2, i32 0, i32 0, i32 0, i32 0, i32 0
  %24 = load atomic i32, i32* %23 monotonic, align 4
  %25 = and i32 %24, 2
  %26 = icmp eq i32 %25, 0
  %27 = getelementptr inbounds %"class.WTF::StringImpl", %"class.WTF::StringImpl"* %20, i64 0, i32 0
  %28 = load i32, i32* %27, align 4
  br i1 %26, label %29, label %31

29:                                               ; preds = %22
  %30 = add i32 %28, -1
  store i32 %30, i32* %27, align 4
  br label %31

31:                                               ; preds = %29, %22
  %32 = phi i32 [ %30, %29 ], [ %28, %22 ]
  %33 = icmp eq i32 %32, 0
  br i1 %33, label %34, label %35

34:                                               ; preds = %31
  tail call void @_ZNK3WTF10StringImpl18DestroyIfNotStaticEv(%"class.WTF::StringImpl"* nonnull %20) #14
  br label %35

35:                                               ; preds = %18, %31, %34
  %36 = getelementptr inbounds %"class.network::mojom::blink::CanonicalCookie", %"class.network::mojom::blink::CanonicalCookie"* %0, i64 0, i32 1, i32 0, i32 0
  %37 = load %"class.WTF::StringImpl"*, %"class.WTF::StringImpl"** %36, align 8
  %38 = icmp eq %"class.WTF::StringImpl"* %37, null
  br i1 %38, label %52, label %39

39:                                               ; preds = %35
  %40 = getelementptr inbounds %"class.WTF::StringImpl", %"class.WTF::StringImpl"* %37, i64 0, i32 2, i32 0, i32 0, i32 0, i32 0, i32 0
  %41 = load atomic i32, i32* %40 monotonic, align 4
  %42 = and i32 %41, 2
  %43 = icmp eq i32 %42, 0
  %44 = getelementptr inbounds %"class.WTF::StringImpl", %"class.WTF::StringImpl"* %37, i64 0, i32 0
  %45 = load i32, i32* %44, align 4
  br i1 %43, label %46, label %48

46:                                               ; preds = %39
  %47 = add i32 %45, -1
  store i32 %47, i32* %44, align 4
  br label %48

48:                                               ; preds = %46, %39
  %49 = phi i32 [ %47, %46 ], [ %45, %39 ]
  %50 = icmp eq i32 %49, 0
  br i1 %50, label %51, label %52

51:                                               ; preds = %48
  tail call void @_ZNK3WTF10StringImpl18DestroyIfNotStaticEv(%"class.WTF::StringImpl"* nonnull %37) #14
  br label %52

52:                                               ; preds = %35, %48, %51
  %53 = getelementptr inbounds %"class.network::mojom::blink::CanonicalCookie", %"class.network::mojom::blink::CanonicalCookie"* %0, i64 0, i32 0, i32 0, i32 0
  %54 = load %"class.WTF::StringImpl"*, %"class.WTF::StringImpl"** %53, align 8
  %55 = icmp eq %"class.WTF::StringImpl"* %54, null
  br i1 %55, label %69, label %56

56:                                               ; preds = %52
  %57 = getelementptr inbounds %"class.WTF::StringImpl", %"class.WTF::StringImpl"* %54, i64 0, i32 2, i32 0, i32 0, i32 0, i32 0, i32 0
  %58 = load atomic i32, i32* %57 monotonic, align 4
  %59 = and i32 %58, 2
  %60 = icmp eq i32 %59, 0
  %61 = getelementptr inbounds %"class.WTF::StringImpl", %"class.WTF::StringImpl"* %54, i64 0, i32 0
  %62 = load i32, i32* %61, align 4
  br i1 %60, label %63, label %65

63:                                               ; preds = %56
  %64 = add i32 %62, -1
  store i32 %64, i32* %61, align 4
  br label %65

65:                                               ; preds = %63, %56
  %66 = phi i32 [ %64, %63 ], [ %62, %56 ]
  %67 = icmp eq i32 %66, 0
  br i1 %67, label %68, label %69

68:                                               ; preds = %65
  tail call void @_ZNK3WTF10StringImpl18DestroyIfNotStaticEv(%"class.WTF::StringImpl"* nonnull %54) #14
  br label %69

69:                                               ; preds = %52, %65, %68
  ret void
}

; Function Attrs: nounwind ssp uwtable
define hidden void @_ZNK7network5mojom5blink15CanonicalCookie14WriteIntoTraceEN8perfetto11TracedValueE(%"class.network::mojom::blink::CanonicalCookie"*, %"class.perfetto::TracedValue"*) local_unnamed_addr #0 align 2 {
  %3 = alloca %"class.perfetto::TracedValue", align 8
  %4 = alloca %"class.perfetto::TracedValue", align 8
  %5 = alloca %"class.perfetto::TracedValue", align 8
  %6 = alloca %"class.perfetto::TracedValue", align 8
  %7 = alloca %"class.perfetto::TracedValue", align 8
  %8 = alloca %"class.perfetto::TracedValue", align 8
  %9 = alloca %"class.perfetto::TracedValue", align 8
  %10 = alloca %"class.perfetto::TracedValue", align 8
  %11 = alloca %"class.perfetto::TracedValue", align 8
  %12 = alloca %"class.perfetto::TracedValue", align 8
  %13 = alloca %"class.perfetto::TracedValue", align 8
  %14 = alloca %"class.perfetto::TracedValue", align 8
  %15 = alloca %"class.perfetto::TracedValue", align 8
  %16 = alloca %"class.perfetto::TracedValue", align 8
  %17 = alloca %"class.perfetto::TracedDictionary", align 8
  %18 = alloca %"class.perfetto::TracedValue", align 8
  %19 = alloca %"class.perfetto::TracedValue", align 8
  %20 = alloca %"class.perfetto::TracedValue", align 8
  %21 = alloca %"class.perfetto::TracedValue", align 8
  %22 = alloca %"class.perfetto::TracedValue", align 8
  %23 = alloca %"class.perfetto::TracedValue", align 8
  %24 = alloca %"class.perfetto::TracedValue", align 8
  %25 = alloca %"class.perfetto::TracedValue", align 8
  %26 = alloca %"class.perfetto::TracedValue", align 8
  %27 = alloca %"class.perfetto::TracedValue", align 8
  %28 = alloca %"class.perfetto::TracedValue", align 8
  %29 = alloca %"class.perfetto::TracedValue", align 8
  %30 = alloca %"class.perfetto::TracedValue", align 8
  %31 = alloca %"class.perfetto::TracedValue", align 8
  %32 = bitcast %"class.perfetto::TracedDictionary"* %17 to i8*
  call void @llvm.lifetime.start.p0i8(i64 16, i8* nonnull %32) #14
  %33 = bitcast %"class.perfetto::TracedDictionary"* %17 to i8*
  call void @llvm.memset.p0i8.i64(i8* nonnull align 8 %33, i8 -86, i64 16, i1 false)
  call void @_ZNO8perfetto11TracedValue15WriteDictionaryEv(%"class.perfetto::TracedDictionary"* nonnull sret %17, %"class.perfetto::TracedValue"* %1) #14
  call void @_ZN8perfetto16TracedDictionary7AddItemENS_12StaticStringE(%"class.perfetto::TracedValue"* nonnull sret %18, %"class.perfetto::TracedDictionary"* nonnull %17, i8* getelementptr inbounds ([5 x i8], [5 x i8]* @.str.19, i64 0, i64 0)) #14
  %34 = getelementptr inbounds %"class.network::mojom::blink::CanonicalCookie", %"class.network::mojom::blink::CanonicalCookie"* %0, i64 0, i32 0
  %35 = bitcast %"class.perfetto::TracedValue"* %18 to i8*
  %36 = bitcast %"class.perfetto::TracedValue"* %15 to i8*
  call void @llvm.lifetime.start.p0i8(i64 16, i8* nonnull %36) #14
  call void @llvm.memcpy.p0i8.p0i8.i64(i8* nonnull align 8 %36, i8* nonnull align 8 %35, i64 16, i1 false) #14
  call void @_ZNK3WTF6String14WriteIntoTraceEN8perfetto11TracedValueE(%"class.WTF::String"* %34, %"class.perfetto::TracedValue"* nonnull %15) #14
  call void @llvm.lifetime.end.p0i8(i64 16, i8* nonnull %36) #14
  call void @_ZN8perfetto16TracedDictionary7AddItemENS_12StaticStringE(%"class.perfetto::TracedValue"* nonnull sret %19, %"class.perfetto::TracedDictionary"* nonnull %17, i8* getelementptr inbounds ([6 x i8], [6 x i8]* @.str.20, i64 0, i64 0)) #14
  %37 = getelementptr inbounds %"class.network::mojom::blink::CanonicalCookie", %"class.network::mojom::blink::CanonicalCookie"* %0, i64 0, i32 1
  %38 = bitcast %"class.perfetto::TracedValue"* %19 to i8*
  %39 = bitcast %"class.perfetto::TracedValue"* %14 to i8*
  call void @llvm.lifetime.start.p0i8(i64 16, i8* nonnull %39) #14
  call void @llvm.memcpy.p0i8.p0i8.i64(i8* nonnull align 8 %39, i8* nonnull align 8 %38, i64 16, i1 false) #14
  call void @_ZNK3WTF6String14WriteIntoTraceEN8perfetto11TracedValueE(%"class.WTF::String"* %37, %"class.perfetto::TracedValue"* nonnull %14) #14
  call void @llvm.lifetime.end.p0i8(i64 16, i8* nonnull %39) #14
  call void @_ZN8perfetto16TracedDictionary7AddItemENS_12StaticStringE(%"class.perfetto::TracedValue"* nonnull sret %20, %"class.perfetto::TracedDictionary"* nonnull %17, i8* getelementptr inbounds ([7 x i8], [7 x i8]* @.str.21, i64 0, i64 0)) #14
  %40 = getelementptr inbounds %"class.network::mojom::blink::CanonicalCookie", %"class.network::mojom::blink::CanonicalCookie"* %0, i64 0, i32 2
  %41 = bitcast %"class.perfetto::TracedValue"* %20 to i8*
  %42 = bitcast %"class.perfetto::TracedValue"* %13 to i8*
  call void @llvm.lifetime.start.p0i8(i64 16, i8* nonnull %42) #14
  call void @llvm.memcpy.p0i8.p0i8.i64(i8* nonnull align 8 %42, i8* nonnull align 8 %41, i64 16, i1 false) #14
  call void @_ZNK3WTF6String14WriteIntoTraceEN8perfetto11TracedValueE(%"class.WTF::String"* %40, %"class.perfetto::TracedValue"* nonnull %13) #14
  call void @llvm.lifetime.end.p0i8(i64 16, i8* nonnull %42) #14
  call void @_ZN8perfetto16TracedDictionary7AddItemENS_12StaticStringE(%"class.perfetto::TracedValue"* nonnull sret %21, %"class.perfetto::TracedDictionary"* nonnull %17, i8* getelementptr inbounds ([5 x i8], [5 x i8]* @.str.22, i64 0, i64 0)) #14
  %43 = getelementptr inbounds %"class.network::mojom::blink::CanonicalCookie", %"class.network::mojom::blink::CanonicalCookie"* %0, i64 0, i32 3
  %44 = bitcast %"class.perfetto::TracedValue"* %21 to i8*
  %45 = bitcast %"class.perfetto::TracedValue"* %12 to i8*
  call void @llvm.lifetime.start.p0i8(i64 16, i8* nonnull %45) #14
  call void @llvm.memcpy.p0i8.p0i8.i64(i8* nonnull align 8 %45, i8* nonnull align 8 %44, i64 16, i1 false) #14
  call void @_ZNK3WTF6String14WriteIntoTraceEN8perfetto11TracedValueE(%"class.WTF::String"* %43, %"class.perfetto::TracedValue"* nonnull %12) #14
  call void @llvm.lifetime.end.p0i8(i64 16, i8* nonnull %45) #14
  call void @_ZN8perfetto16TracedDictionary7AddItemENS_12StaticStringE(%"class.perfetto::TracedValue"* nonnull sret %22, %"class.perfetto::TracedDictionary"* nonnull %17, i8* getelementptr inbounds ([9 x i8], [9 x i8]* @.str.23, i64 0, i64 0)) #14
  %46 = bitcast %"class.perfetto::TracedValue"* %22 to i8*
  %47 = getelementptr inbounds %"class.network::mojom::blink::CanonicalCookie", %"class.network::mojom::blink::CanonicalCookie"* %0, i64 0, i32 4, i32 0, i32 0
  %48 = load i64, i64* %47, align 8
  %49 = bitcast %"class.perfetto::TracedValue"* %11 to i8*
  call void @llvm.lifetime.start.p0i8(i64 16, i8* nonnull %49) #14
  call void @llvm.memcpy.p0i8.p0i8.i64(i8* nonnull align 8 %49, i8* nonnull align 8 %46, i64 16, i1 false)
  call void @_ZNO8perfetto11TracedValue11WriteUInt64Em(%"class.perfetto::TracedValue"* nonnull %11, i64 %48) #14
  call void @llvm.lifetime.end.p0i8(i64 16, i8* nonnull %49) #14
  call void @_ZN8perfetto16TracedDictionary7AddItemENS_12StaticStringE(%"class.perfetto::TracedValue"* nonnull sret %23, %"class.perfetto::TracedDictionary"* nonnull %17, i8* getelementptr inbounds ([7 x i8], [7 x i8]* @.str.24, i64 0, i64 0)) #14
  %50 = bitcast %"class.perfetto::TracedValue"* %23 to i8*
  %51 = getelementptr inbounds %"class.network::mojom::blink::CanonicalCookie", %"class.network::mojom::blink::CanonicalCookie"* %0, i64 0, i32 5, i32 0, i32 0
  %52 = load i64, i64* %51, align 8
  %53 = bitcast %"class.perfetto::TracedValue"* %10 to i8*
  call void @llvm.lifetime.start.p0i8(i64 16, i8* nonnull %53) #14
  call void @llvm.memcpy.p0i8.p0i8.i64(i8* nonnull align 8 %53, i8* nonnull align 8 %50, i64 16, i1 false)
  call void @_ZNO8perfetto11TracedValue11WriteUInt64Em(%"class.perfetto::TracedValue"* nonnull %10, i64 %52) #14
  call void @llvm.lifetime.end.p0i8(i64 16, i8* nonnull %53) #14
  call void @_ZN8perfetto16TracedDictionary7AddItemENS_12StaticStringE(%"class.perfetto::TracedValue"* nonnull sret %24, %"class.perfetto::TracedDictionary"* nonnull %17, i8* getelementptr inbounds ([12 x i8], [12 x i8]* @.str.25, i64 0, i64 0)) #14
  %54 = bitcast %"class.perfetto::TracedValue"* %24 to i8*
  %55 = getelementptr inbounds %"class.network::mojom::blink::CanonicalCookie", %"class.network::mojom::blink::CanonicalCookie"* %0, i64 0, i32 6, i32 0, i32 0
  %56 = load i64, i64* %55, align 8
  %57 = bitcast %"class.perfetto::TracedValue"* %9 to i8*
  call void @llvm.lifetime.start.p0i8(i64 16, i8* nonnull %57) #14
  call void @llvm.memcpy.p0i8.p0i8.i64(i8* nonnull align 8 %57, i8* nonnull align 8 %54, i64 16, i1 false)
  call void @_ZNO8perfetto11TracedValue11WriteUInt64Em(%"class.perfetto::TracedValue"* nonnull %9, i64 %56) #14
  call void @llvm.lifetime.end.p0i8(i64 16, i8* nonnull %57) #14
  call void @_ZN8perfetto16TracedDictionary7AddItemENS_12StaticStringE(%"class.perfetto::TracedValue"* nonnull sret %25, %"class.perfetto::TracedDictionary"* nonnull %17, i8* getelementptr inbounds ([7 x i8], [7 x i8]* @.str.26, i64 0, i64 0)) #14
  %58 = getelementptr inbounds %"class.network::mojom::blink::CanonicalCookie", %"class.network::mojom::blink::CanonicalCookie"* %0, i64 0, i32 7
  %59 = bitcast %"class.perfetto::TracedValue"* %25 to i8*
  %60 = bitcast %"class.perfetto::TracedValue"* %8 to i8*
  call void @llvm.lifetime.start.p0i8(i64 16, i8* nonnull %60) #14
  call void @llvm.memcpy.p0i8.p0i8.i64(i8* nonnull align 8 %60, i8* nonnull align 8 %59, i64 16, i1 false) #14
  %61 = load i8, i8* %58, align 1, !range !4
  %62 = icmp ne i8 %61, 0
  call void @_ZNO8perfetto11TracedValue12WriteBooleanEb(%"class.perfetto::TracedValue"* nonnull %8, i1 zeroext %62) #14
  call void @llvm.lifetime.end.p0i8(i64 16, i8* nonnull %60) #14
  call void @_ZN8perfetto16TracedDictionary7AddItemENS_12StaticStringE(%"class.perfetto::TracedValue"* nonnull sret %26, %"class.perfetto::TracedDictionary"* nonnull %17, i8* getelementptr inbounds ([9 x i8], [9 x i8]* @.str.27, i64 0, i64 0)) #14
  %63 = getelementptr inbounds %"class.network::mojom::blink::CanonicalCookie", %"class.network::mojom::blink::CanonicalCookie"* %0, i64 0, i32 8
  %64 = bitcast %"class.perfetto::TracedValue"* %26 to i8*
  %65 = bitcast %"class.perfetto::TracedValue"* %7 to i8*
  call void @llvm.lifetime.start.p0i8(i64 16, i8* nonnull %65) #14
  call void @llvm.memcpy.p0i8.p0i8.i64(i8* nonnull align 8 %65, i8* nonnull align 8 %64, i64 16, i1 false) #14
  %66 = load i8, i8* %63, align 1, !range !4
  %67 = icmp ne i8 %66, 0
  call void @_ZNO8perfetto11TracedValue12WriteBooleanEb(%"class.perfetto::TracedValue"* nonnull %7, i1 zeroext %67) #14
  call void @llvm.lifetime.end.p0i8(i64 16, i8* nonnull %65) #14
  call void @_ZN8perfetto16TracedDictionary7AddItemENS_12StaticStringE(%"class.perfetto::TracedValue"* nonnull sret %27, %"class.perfetto::TracedDictionary"* nonnull %17, i8* getelementptr inbounds ([18 x i8], [18 x i8]* @.str.28, i64 0, i64 0)) #14
  %68 = getelementptr inbounds %"class.network::mojom::blink::CanonicalCookie", %"class.network::mojom::blink::CanonicalCookie"* %0, i64 0, i32 9
  %69 = bitcast %"class.perfetto::TracedValue"* %27 to i8*
  %70 = bitcast %"class.perfetto::TracedValue"* %6 to i8*
  call void @llvm.lifetime.start.p0i8(i64 16, i8* nonnull %70) #14
  call void @llvm.memcpy.p0i8.p0i8.i64(i8* nonnull align 8 %70, i8* nonnull align 8 %69, i64 16, i1 false) #14
  %71 = load i32, i32* %68, align 4
  call void @_ZN8perfetto17TraceFormatTraitsIN7network5mojom14CookieSameSiteEvE14WriteIntoTraceENS_11TracedValueES3_(%"class.perfetto::TracedValue"* nonnull %6, i32 %71) #14
  call void @llvm.lifetime.end.p0i8(i64 16, i8* nonnull %70) #14
  call void @_ZN8perfetto16TracedDictionary7AddItemENS_12StaticStringE(%"class.perfetto::TracedValue"* nonnull sret %28, %"class.perfetto::TracedDictionary"* nonnull %17, i8* getelementptr inbounds ([9 x i8], [9 x i8]* @.str.29, i64 0, i64 0)) #14
  %72 = getelementptr inbounds %"class.network::mojom::blink::CanonicalCookie", %"class.network::mojom::blink::CanonicalCookie"* %0, i64 0, i32 10
  %73 = bitcast %"class.perfetto::TracedValue"* %28 to i8*
  %74 = bitcast %"class.perfetto::TracedValue"* %5 to i8*
  call void @llvm.lifetime.start.p0i8(i64 16, i8* nonnull %74) #14
  call void @llvm.memcpy.p0i8.p0i8.i64(i8* nonnull align 8 %74, i8* nonnull align 8 %73, i64 16, i1 false) #14
  %75 = load i32, i32* %72, align 4
  call void @_ZN8perfetto17TraceFormatTraitsIN7network5mojom14CookiePriorityEvE14WriteIntoTraceENS_11TracedValueES3_(%"class.perfetto::TracedValue"* nonnull %5, i32 %75) #14
  call void @llvm.lifetime.end.p0i8(i64 16, i8* nonnull %74) #14
  call void @_ZN8perfetto16TracedDictionary7AddItemENS_12StaticStringE(%"class.perfetto::TracedValue"* nonnull sret %29, %"class.perfetto::TracedDictionary"* nonnull %17, i8* getelementptr inbounds ([14 x i8], [14 x i8]* @.str.30, i64 0, i64 0)) #14
  %76 = getelementptr inbounds %"class.network::mojom::blink::CanonicalCookie", %"class.network::mojom::blink::CanonicalCookie"* %0, i64 0, i32 11
  %77 = bitcast %"class.perfetto::TracedValue"* %29 to i8*
  %78 = bitcast %"class.perfetto::TracedValue"* %4 to i8*
  call void @llvm.lifetime.start.p0i8(i64 16, i8* nonnull %78) #14
  call void @llvm.memcpy.p0i8.p0i8.i64(i8* nonnull align 8 %78, i8* nonnull align 8 %77, i64 16, i1 false) #14
  %79 = load i32, i32* %76, align 4
  call void @_ZN8perfetto17TraceFormatTraitsIN7network5mojom18CookieSourceSchemeEvE14WriteIntoTraceENS_11TracedValueES3_(%"class.perfetto::TracedValue"* nonnull %4, i32 %79) #14
  call void @llvm.lifetime.end.p0i8(i64 16, i8* nonnull %78) #14
  call void @_ZN8perfetto16TracedDictionary7AddItemENS_12StaticStringE(%"class.perfetto::TracedValue"* nonnull sret %30, %"class.perfetto::TracedDictionary"* nonnull %17, i8* getelementptr inbounds ([11 x i8], [11 x i8]* @.str.31, i64 0, i64 0)) #14
  %80 = getelementptr inbounds %"class.network::mojom::blink::CanonicalCookie", %"class.network::mojom::blink::CanonicalCookie"* %0, i64 0, i32 12
  %81 = bitcast %"class.perfetto::TracedValue"* %30 to i8*
  %82 = bitcast %"class.perfetto::TracedValue"* %3 to i8*
  call void @llvm.lifetime.start.p0i8(i64 16, i8* nonnull %82) #14
  call void @llvm.memcpy.p0i8.p0i8.i64(i8* nonnull align 8 %82, i8* nonnull align 8 %81, i64 16, i1 false) #14
  %83 = load i8, i8* %80, align 1, !range !4
  %84 = icmp ne i8 %83, 0
  call void @_ZNO8perfetto11TracedValue12WriteBooleanEb(%"class.perfetto::TracedValue"* nonnull %3, i1 zeroext %84) #14
  call void @llvm.lifetime.end.p0i8(i64 16, i8* nonnull %82) #14
  call void @_ZN8perfetto16TracedDictionary7AddItemENS_12StaticStringE(%"class.perfetto::TracedValue"* nonnull sret %31, %"class.perfetto::TracedDictionary"* nonnull %17, i8* getelementptr inbounds ([12 x i8], [12 x i8]* @.str.32, i64 0, i64 0)) #14
  %85 = getelementptr inbounds %"class.network::mojom::blink::CanonicalCookie", %"class.network::mojom::blink::CanonicalCookie"* %0, i64 0, i32 13
  %86 = bitcast %"class.perfetto::TracedValue"* %31 to i8*
  %87 = bitcast %"class.perfetto::TracedValue"* %16 to i8*
  call void @llvm.lifetime.start.p0i8(i64 16, i8* nonnull %87) #14
  call void @llvm.memcpy.p0i8.p0i8.i64(i8* nonnull align 8 %87, i8* nonnull align 8 %86, i64 16, i1 false) #14
  %88 = load i32, i32* %85, align 4
  %89 = sext i32 %88 to i64
  call void @_ZNO8perfetto11TracedValue10WriteInt64El(%"class.perfetto::TracedValue"* nonnull %16, i64 %89) #14
  call void @llvm.lifetime.end.p0i8(i64 16, i8* nonnull %87) #14
  call void @llvm.lifetime.end.p0i8(i64 16, i8* nonnull %32) #14
  ret void
}

; Function Attrs: nounwind ssp uwtable
define hidden zeroext i1 @_ZN7network5mojom5blink15CanonicalCookie8ValidateEPKvPN4mojo8internal17ValidationContextE(i8*, %"class.mojo::internal::ValidationContext"*) local_unnamed_addr #0 align 2 {
  %3 = tail call zeroext i1 @_ZN7network5mojom8internal20CanonicalCookie_Data8ValidateEPKvPN4mojo8internal17ValidationContextE(i8* %0, %"class.mojo::internal::ValidationContext"* %1) #14
  ret i1 %3
}

declare zeroext i1 @_ZN7network5mojom8internal20CanonicalCookie_Data8ValidateEPKvPN4mojo8internal17ValidationContextE(i8*, %"class.mojo::internal::ValidationContext"*) local_unnamed_addr #2

; Function Attrs: nofree norecurse nounwind ssp uwtable writeonly
define hidden void @_ZN7network5mojom5blink21CookieInclusionStatusC2Ev(%"class.network::mojom::blink::CookieInclusionStatus"* nocapture) unnamed_addr #3 align 2 {
  %2 = getelementptr inbounds %"class.network::mojom::blink::CookieInclusionStatus", %"class.network::mojom::blink::CookieInclusionStatus"* %0, i64 0, i32 0
  store i32 0, i32* %2, align 4
  %3 = getelementptr inbounds %"class.network::mojom::blink::CookieInclusionStatus", %"class.network::mojom::blink::CookieInclusionStatus"* %0, i64 0, i32 1
  store i32 0, i32* %3, align 4
  ret void
}

; Function Attrs: nofree norecurse nounwind ssp uwtable writeonly
define hidden void @_ZN7network5mojom5blink21CookieInclusionStatusC2Ejj(%"class.network::mojom::blink::CookieInclusionStatus"* nocapture, i32, i32) unnamed_addr #3 align 2 {
  %4 = getelementptr inbounds %"class.network::mojom::blink::CookieInclusionStatus", %"class.network::mojom::blink::CookieInclusionStatus"* %0, i64 0, i32 0
  store i32 %1, i32* %4, align 4
  %5 = getelementptr inbounds %"class.network::mojom::blink::CookieInclusionStatus", %"class.network::mojom::blink::CookieInclusionStatus"* %0, i64 0, i32 1
  store i32 %2, i32* %5, align 4
  ret void
}

; Function Attrs: norecurse nounwind readnone ssp uwtable
define hidden void @_ZN7network5mojom5blink21CookieInclusionStatusD2Ev(%"class.network::mojom::blink::CookieInclusionStatus"* nocapture) unnamed_addr #4 align 2 {
  ret void
}

; Function Attrs: norecurse nounwind readonly ssp uwtable
define hidden i64 @_ZNK7network5mojom5blink21CookieInclusionStatus4HashEm(%"class.network::mojom::blink::CookieInclusionStatus"* nocapture readonly, i64) local_unnamed_addr #5 align 2 {
  %3 = getelementptr inbounds %"class.network::mojom::blink::CookieInclusionStatus", %"class.network::mojom::blink::CookieInclusionStatus"* %0, i64 0, i32 0
  %4 = load i32, i32* %3, align 4
  %5 = zext i32 %4 to i64
  %6 = shl i64 %1, 6
  %7 = lshr i64 %1, 2
  %8 = add i64 %7, %6
  %9 = add i64 %8, %5
  %10 = xor i64 %9, %1
  %11 = getelementptr inbounds %"class.network::mojom::blink::CookieInclusionStatus", %"class.network::mojom::blink::CookieInclusionStatus"* %0, i64 0, i32 1
  %12 = load i32, i32* %11, align 4
  %13 = zext i32 %12 to i64
  %14 = shl i64 %10, 6
  %15 = lshr i64 %10, 2
  %16 = add i64 %14, %13
  %17 = add i64 %16, %15
  %18 = xor i64 %17, %10
  ret i64 %18
}

; Function Attrs: nounwind ssp uwtable
define hidden void @_ZNK7network5mojom5blink21CookieInclusionStatus14WriteIntoTraceEN8perfetto11TracedValueE(%"class.network::mojom::blink::CookieInclusionStatus"* nocapture readonly, %"class.perfetto::TracedValue"*) local_unnamed_addr #0 align 2 {
  %3 = alloca %"class.perfetto::TracedValue", align 8
  %4 = alloca %"class.perfetto::TracedValue", align 8
  %5 = alloca %"class.perfetto::TracedDictionary", align 8
  %6 = alloca %"class.perfetto::TracedValue", align 8
  %7 = alloca %"class.perfetto::TracedValue", align 8
  %8 = bitcast %"class.perfetto::TracedDictionary"* %5 to i8*
  call void @llvm.lifetime.start.p0i8(i64 16, i8* nonnull %8) #14
  %9 = bitcast %"class.perfetto::TracedDictionary"* %5 to i8*
  call void @llvm.memset.p0i8.i64(i8* nonnull align 8 %9, i8 -86, i64 16, i1 false)
  call void @_ZNO8perfetto11TracedValue15WriteDictionaryEv(%"class.perfetto::TracedDictionary"* nonnull sret %5, %"class.perfetto::TracedValue"* %1) #14
  call void @_ZN8perfetto16TracedDictionary7AddItemENS_12StaticStringE(%"class.perfetto::TracedValue"* nonnull sret %6, %"class.perfetto::TracedDictionary"* nonnull %5, i8* getelementptr inbounds ([18 x i8], [18 x i8]* @.str.33, i64 0, i64 0)) #14
  %10 = getelementptr inbounds %"class.network::mojom::blink::CookieInclusionStatus", %"class.network::mojom::blink::CookieInclusionStatus"* %0, i64 0, i32 0
  %11 = bitcast %"class.perfetto::TracedValue"* %6 to i8*
  %12 = bitcast %"class.perfetto::TracedValue"* %3 to i8*
  call void @llvm.lifetime.start.p0i8(i64 16, i8* nonnull %12) #14
  call void @llvm.memcpy.p0i8.p0i8.i64(i8* nonnull align 8 %12, i8* nonnull align 8 %11, i64 16, i1 false) #14
  %13 = load i32, i32* %10, align 4
  %14 = zext i32 %13 to i64
  call void @_ZNO8perfetto11TracedValue11WriteUInt64Em(%"class.perfetto::TracedValue"* nonnull %3, i64 %14) #14
  call void @llvm.lifetime.end.p0i8(i64 16, i8* nonnull %12) #14
  call void @_ZN8perfetto16TracedDictionary7AddItemENS_12StaticStringE(%"class.perfetto::TracedValue"* nonnull sret %7, %"class.perfetto::TracedDictionary"* nonnull %5, i8* getelementptr inbounds ([16 x i8], [16 x i8]* @.str.34, i64 0, i64 0)) #14
  %15 = getelementptr inbounds %"class.network::mojom::blink::CookieInclusionStatus", %"class.network::mojom::blink::CookieInclusionStatus"* %0, i64 0, i32 1
  %16 = bitcast %"class.perfetto::TracedValue"* %7 to i8*
  %17 = bitcast %"class.perfetto::TracedValue"* %4 to i8*
  call void @llvm.lifetime.start.p0i8(i64 16, i8* nonnull %17) #14
  call void @llvm.memcpy.p0i8.p0i8.i64(i8* nonnull align 8 %17, i8* nonnull align 8 %16, i64 16, i1 false) #14
  %18 = load i32, i32* %15, align 4
  %19 = zext i32 %18 to i64
  call void @_ZNO8perfetto11TracedValue11WriteUInt64Em(%"class.perfetto::TracedValue"* nonnull %4, i64 %19) #14
  call void @llvm.lifetime.end.p0i8(i64 16, i8* nonnull %17) #14
  call void @llvm.lifetime.end.p0i8(i64 16, i8* nonnull %8) #14
  ret void
}

; Function Attrs: nounwind ssp uwtable
define hidden zeroext i1 @_ZN7network5mojom5blink21CookieInclusionStatus8ValidateEPKvPN4mojo8internal17ValidationContextE(i8*, %"class.mojo::internal::ValidationContext"*) local_unnamed_addr #0 align 2 {
  %3 = tail call zeroext i1 @_ZN7network5mojom8internal26CookieInclusionStatus_Data8ValidateEPKvPN4mojo8internal17ValidationContextE(i8* %0, %"class.mojo::internal::ValidationContext"* %1) #14
  ret i1 %3
}

declare zeroext i1 @_ZN7network5mojom8internal26CookieInclusionStatus_Data8ValidateEPKvPN4mojo8internal17ValidationContextE(i8*, %"class.mojo::internal::ValidationContext"*) local_unnamed_addr #2

; Function Attrs: nounwind ssp uwtable
define hidden void @_ZN7network5mojom5blink29CookieAndLineWithAccessResultC2Ev(%"class.network::mojom::blink::CookieAndLineWithAccessResult"* nocapture) unnamed_addr #0 align 2 {
  %2 = getelementptr inbounds %"class.network::mojom::blink::CookieAndLineWithAccessResult", %"class.network::mojom::blink::CookieAndLineWithAccessResult"* %0, i64 0, i32 0, i32 0, i32 0, i32 0, i32 0
  store i8 0, i8* %2, align 8
  %3 = getelementptr inbounds %"class.network::mojom::blink::CookieAndLineWithAccessResult", %"class.network::mojom::blink::CookieAndLineWithAccessResult"* %0, i64 0, i32 0, i32 0, i32 0, i32 0, i32 1
  %4 = bitcast %union.anon.82* %3 to i8*
  call void @llvm.memset.p0i8.i64(i8* align 8 %4, i8 0, i64 160, i1 false)
  ret void
}

; Function Attrs: nounwind ssp uwtable
define hidden void @_ZN7network5mojom5blink29CookieAndLineWithAccessResultC2ERKN4absl8optionalIN3net15CanonicalCookieEEERKN3WTF6StringEN4mojo9StructPtrINS1_18CookieAccessResultEEE(%"class.network::mojom::blink::CookieAndLineWithAccessResult"*, %"class.absl::optional"* dereferenceable(152), %"class.WTF::String"* nocapture readonly dereferenceable(8), %"class.mojo::StructPtr.83"* nocapture) unnamed_addr #0 align 2 {
  %5 = getelementptr inbounds %"class.network::mojom::blink::CookieAndLineWithAccessResult", %"class.network::mojom::blink::CookieAndLineWithAccessResult"* %0, i64 0, i32 0, i32 0, i32 0, i32 0, i32 0
  %6 = getelementptr inbounds %"class.absl::optional", %"class.absl::optional"* %1, i64 0, i32 0, i32 0, i32 0, i32 0
  tail call void @llvm.memset.p0i8.i64(i8* align 8 %5, i8 0, i64 152, i1 false) #14
  %7 = load i8, i8* %6, align 8, !range !4
  %8 = icmp eq i8 %7, 0
  br i1 %8, label %12, label %9

9:                                                ; preds = %4
  %10 = getelementptr inbounds %"class.absl::optional", %"class.absl::optional"* %1, i64 0, i32 0, i32 0, i32 0, i32 1, i32 0
  %11 = getelementptr inbounds %"class.network::mojom::blink::CookieAndLineWithAccessResult", %"class.network::mojom::blink::CookieAndLineWithAccessResult"* %0, i64 0, i32 0, i32 0, i32 0, i32 0, i32 1, i32 0
  tail call void @_ZN3net15CanonicalCookieC1ERKS0_(%"class.net::CanonicalCookie"* %11, %"class.net::CanonicalCookie"* dereferenceable(144) %10) #14
  store i8 1, i8* %5, align 8
  br label %12

12:                                               ; preds = %4, %9
  %13 = getelementptr inbounds %"class.WTF::String", %"class.WTF::String"* %2, i64 0, i32 0, i32 0
  %14 = load %"class.WTF::StringImpl"*, %"class.WTF::StringImpl"** %13, align 8
  %15 = getelementptr inbounds %"class.network::mojom::blink::CookieAndLineWithAccessResult", %"class.network::mojom::blink::CookieAndLineWithAccessResult"* %0, i64 0, i32 1, i32 0, i32 0
  store %"class.WTF::StringImpl"* %14, %"class.WTF::StringImpl"** %15, align 8
  %16 = icmp eq %"class.WTF::StringImpl"* %14, null
  br i1 %16, label %34, label %17

17:                                               ; preds = %12
  %18 = getelementptr inbounds %"class.WTF::StringImpl", %"class.WTF::StringImpl"* %14, i64 0, i32 2, i32 0, i32 0, i32 0, i32 0, i32 0
  %19 = load atomic i32, i32* %18 monotonic, align 4
  %20 = and i32 %19, 2
  %21 = icmp eq i32 %20, 0
  br i1 %21, label %22, label %34

22:                                               ; preds = %17
  %23 = getelementptr inbounds %"class.WTF::StringImpl", %"class.WTF::StringImpl"* %14, i64 0, i32 0
  %24 = load i32, i32* %23, align 4
  %25 = zext i32 %24 to i33
  %26 = tail call { i33, i1 } @llvm.sadd.with.overflow.i33(i33 %25, i33 1) #14
  %27 = extractvalue { i33, i1 } %26, 1
  %28 = extractvalue { i33, i1 } %26, 0
  %29 = icmp slt i33 %28, 0
  %30 = or i1 %27, %29
  br i1 %30, label %31, label %32, !prof !3

31:                                               ; preds = %22
  tail call void @llvm.trap() #14
  unreachable

32:                                               ; preds = %22
  %33 = trunc i33 %28 to i32
  store i32 %33, i32* %23, align 4
  br label %34

34:                                               ; preds = %12, %17, %32
  %35 = getelementptr inbounds %"class.network::mojom::blink::CookieAndLineWithAccessResult", %"class.network::mojom::blink::CookieAndLineWithAccessResult"* %0, i64 0, i32 2
  %36 = bitcast %"class.mojo::StructPtr.83"* %35 to i64*
  %37 = getelementptr inbounds %"class.mojo::StructPtr.83", %"class.mojo::StructPtr.83"* %35, i64 0, i32 0, i32 0, i32 0, i32 0
  store %"class.network::mojom::blink::CookieAccessResult"* null, %"class.network::mojom::blink::CookieAccessResult"** %37, align 8
  %38 = bitcast %"class.mojo::StructPtr.83"* %3 to i64*
  %39 = load i64, i64* %38, align 8
  store i64 %39, i64* %36, align 8
  store i64 0, i64* %38, align 8
  ret void
}

; Function Attrs: nounwind ssp uwtable
define hidden void @_ZN7network5mojom5blink29CookieAndLineWithAccessResultD2Ev(%"class.network::mojom::blink::CookieAndLineWithAccessResult"*) unnamed_addr #0 align 2 {
  %2 = getelementptr inbounds %"class.network::mojom::blink::CookieAndLineWithAccessResult", %"class.network::mojom::blink::CookieAndLineWithAccessResult"* %0, i64 0, i32 2, i32 0, i32 0, i32 0, i32 0
  %3 = load %"class.network::mojom::blink::CookieAccessResult"*, %"class.network::mojom::blink::CookieAccessResult"** %2, align 8
  store %"class.network::mojom::blink::CookieAccessResult"* null, %"class.network::mojom::blink::CookieAccessResult"** %2, align 8
  %4 = icmp eq %"class.network::mojom::blink::CookieAccessResult"* %3, null
  br i1 %4, label %7, label %5

5:                                                ; preds = %1
  %6 = bitcast %"class.network::mojom::blink::CookieAccessResult"* %3 to i8*
  tail call void @_ZdlPv(i8* %6) #15
  br label %7

7:                                                ; preds = %1, %5
  %8 = getelementptr inbounds %"class.network::mojom::blink::CookieAndLineWithAccessResult", %"class.network::mojom::blink::CookieAndLineWithAccessResult"* %0, i64 0, i32 1, i32 0, i32 0
  %9 = load %"class.WTF::StringImpl"*, %"class.WTF::StringImpl"** %8, align 8
  %10 = icmp eq %"class.WTF::StringImpl"* %9, null
  br i1 %10, label %24, label %11

11:                                               ; preds = %7
  %12 = getelementptr inbounds %"class.WTF::StringImpl", %"class.WTF::StringImpl"* %9, i64 0, i32 2, i32 0, i32 0, i32 0, i32 0, i32 0
  %13 = load atomic i32, i32* %12 monotonic, align 4
  %14 = and i32 %13, 2
  %15 = icmp eq i32 %14, 0
  %16 = getelementptr inbounds %"class.WTF::StringImpl", %"class.WTF::StringImpl"* %9, i64 0, i32 0
  %17 = load i32, i32* %16, align 4
  br i1 %15, label %18, label %20

18:                                               ; preds = %11
  %19 = add i32 %17, -1
  store i32 %19, i32* %16, align 4
  br label %20

20:                                               ; preds = %18, %11
  %21 = phi i32 [ %19, %18 ], [ %17, %11 ]
  %22 = icmp eq i32 %21, 0
  br i1 %22, label %23, label %24

23:                                               ; preds = %20
  tail call void @_ZNK3WTF10StringImpl18DestroyIfNotStaticEv(%"class.WTF::StringImpl"* nonnull %9) #14
  br label %24

24:                                               ; preds = %7, %20, %23
  %25 = getelementptr inbounds %"class.network::mojom::blink::CookieAndLineWithAccessResult", %"class.network::mojom::blink::CookieAndLineWithAccessResult"* %0, i64 0, i32 0, i32 0, i32 0, i32 0, i32 0
  %26 = load i8, i8* %25, align 8, !range !4
  %27 = icmp eq i8 %26, 0
  br i1 %27, label %30, label %28

28:                                               ; preds = %24
  %29 = getelementptr inbounds %"class.network::mojom::blink::CookieAndLineWithAccessResult", %"class.network::mojom::blink::CookieAndLineWithAccessResult"* %0, i64 0, i32 0, i32 0, i32 0, i32 0, i32 1, i32 0
  tail call void @_ZN3net15CanonicalCookieD1Ev(%"class.net::CanonicalCookie"* %29) #14
  store i8 0, i8* %25, align 8
  br label %30

30:                                               ; preds = %24, %28
  ret void
}

; Function Attrs: nounwind ssp uwtable
define hidden void @_ZNK7network5mojom5blink29CookieAndLineWithAccessResult14WriteIntoTraceEN8perfetto11TracedValueE(%"class.network::mojom::blink::CookieAndLineWithAccessResult"*, %"class.perfetto::TracedValue"*) local_unnamed_addr #0 align 2 {
  %3 = alloca %"class.perfetto::TracedValue", align 8
  %4 = alloca %"class.perfetto::TracedValue", align 8
  %5 = alloca %"class.perfetto::TracedValue", align 8
  %6 = alloca %"class.perfetto::TracedDictionary", align 8
  %7 = alloca %"class.perfetto::TracedValue", align 8
  %8 = alloca %"class.std::__1::basic_string", align 8
  %9 = alloca %"class.perfetto::TracedValue", align 8
  %10 = alloca %"class.perfetto::TracedValue", align 8
  %11 = bitcast %"class.perfetto::TracedDictionary"* %6 to i8*
  call void @llvm.lifetime.start.p0i8(i64 16, i8* nonnull %11) #14
  %12 = bitcast %"class.perfetto::TracedDictionary"* %6 to i8*
  call void @llvm.memset.p0i8.i64(i8* nonnull align 8 %12, i8 -86, i64 16, i1 false)
  call void @_ZNO8perfetto11TracedValue15WriteDictionaryEv(%"class.perfetto::TracedDictionary"* nonnull sret %6, %"class.perfetto::TracedValue"* %1) #14
  call void @_ZN8perfetto16TracedDictionary7AddItemENS_12StaticStringE(%"class.perfetto::TracedValue"* nonnull sret %7, %"class.perfetto::TracedDictionary"* nonnull %6, i8* getelementptr inbounds ([7 x i8], [7 x i8]* @.str.35, i64 0, i64 0)) #14
  %13 = bitcast %"class.std::__1::basic_string"* %8 to i8*
  call void @llvm.lifetime.start.p0i8(i64 24, i8* nonnull %13) #14
  %14 = bitcast %"class.std::__1::basic_string"* %8 to %"struct.std::__1::basic_string<char, std::__1::char_traits<char>, std::__1::allocator<char> >::__short"*
  %15 = getelementptr inbounds %"struct.std::__1::basic_string<char, std::__1::char_traits<char>, std::__1::allocator<char> >::__short", %"struct.std::__1::basic_string<char, std::__1::char_traits<char>, std::__1::allocator<char> >::__short"* %14, i64 0, i32 1, i32 0
  store i8 7, i8* %15, align 1
  call void @llvm.memcpy.p0i8.p0i8.i64(i8* nonnull align 8 %13, i8* align 1 getelementptr inbounds ([8 x i8], [8 x i8]* @.str.1, i64 0, i64 0), i64 7, i1 false) #14
  %16 = getelementptr inbounds i8, i8* %13, i64 7
  store i8 0, i8* %16, align 1
  call void @_ZNO8perfetto11TracedValue11WriteStringERKNSt3__112basic_stringIcNS1_11char_traitsIcEENS1_9allocatorIcEEEE(%"class.perfetto::TracedValue"* nonnull %7, %"class.std::__1::basic_string"* nonnull dereferenceable(24) %8) #14
  %17 = load i8, i8* %15, align 1
  %18 = icmp slt i8 %17, 0
  br i1 %18, label %19, label %22

19:                                               ; preds = %2
  %20 = getelementptr inbounds %"class.std::__1::basic_string", %"class.std::__1::basic_string"* %8, i64 0, i32 0, i32 0, i32 0, i32 0, i32 0, i32 0
  %21 = load i8*, i8** %20, align 8
  call void @_ZdlPv(i8* %21) #15
  br label %22

22:                                               ; preds = %19, %2
  call void @llvm.lifetime.end.p0i8(i64 24, i8* nonnull %13) #14
  call void @_ZN8perfetto16TracedDictionary7AddItemENS_12StaticStringE(%"class.perfetto::TracedValue"* nonnull sret %9, %"class.perfetto::TracedDictionary"* nonnull %6, i8* getelementptr inbounds ([14 x i8], [14 x i8]* @.str.36, i64 0, i64 0)) #14
  %23 = getelementptr inbounds %"class.network::mojom::blink::CookieAndLineWithAccessResult", %"class.network::mojom::blink::CookieAndLineWithAccessResult"* %0, i64 0, i32 1
  %24 = bitcast %"class.perfetto::TracedValue"* %9 to i8*
  %25 = bitcast %"class.perfetto::TracedValue"* %3 to i8*
  call void @llvm.lifetime.start.p0i8(i64 16, i8* nonnull %25) #14
  call void @llvm.memcpy.p0i8.p0i8.i64(i8* nonnull align 8 %25, i8* nonnull align 8 %24, i64 16, i1 false) #14
  call void @_ZNK3WTF6String14WriteIntoTraceEN8perfetto11TracedValueE(%"class.WTF::String"* %23, %"class.perfetto::TracedValue"* nonnull %3) #14
  call void @llvm.lifetime.end.p0i8(i64 16, i8* nonnull %25) #14
  call void @_ZN8perfetto16TracedDictionary7AddItemENS_12StaticStringE(%"class.perfetto::TracedValue"* nonnull sret %10, %"class.perfetto::TracedDictionary"* nonnull %6, i8* getelementptr inbounds ([14 x i8], [14 x i8]* @.str.37, i64 0, i64 0)) #14
  %26 = bitcast %"class.perfetto::TracedValue"* %10 to i8*
  %27 = getelementptr inbounds %"class.network::mojom::blink::CookieAndLineWithAccessResult", %"class.network::mojom::blink::CookieAndLineWithAccessResult"* %0, i64 0, i32 2, i32 0, i32 0, i32 0, i32 0
  %28 = load %"class.network::mojom::blink::CookieAccessResult"*, %"class.network::mojom::blink::CookieAccessResult"** %27, align 8
  %29 = bitcast %"class.perfetto::TracedValue"* %5 to i8*
  call void @llvm.lifetime.start.p0i8(i64 16, i8* nonnull %29) #14
  call void @llvm.memcpy.p0i8.p0i8.i64(i8* nonnull align 8 %29, i8* nonnull align 8 %26, i64 16, i1 false)
  %30 = icmp eq %"class.network::mojom::blink::CookieAccessResult"* %28, null
  br i1 %30, label %31, label %32

31:                                               ; preds = %22
  call void @_ZNO8perfetto11TracedValue12WritePointerEPKv(%"class.perfetto::TracedValue"* nonnull %5, i8* null) #14
  br label %34

32:                                               ; preds = %22
  %33 = bitcast %"class.perfetto::TracedValue"* %4 to i8*
  call void @llvm.lifetime.start.p0i8(i64 16, i8* nonnull %33) #14
  call void @llvm.memcpy.p0i8.p0i8.i64(i8* nonnull align 8 %33, i8* nonnull align 8 %29, i64 16, i1 false) #14
  call void @_ZNK7network5mojom5blink18CookieAccessResult14WriteIntoTraceEN8perfetto11TracedValueE(%"class.network::mojom::blink::CookieAccessResult"* nonnull %28, %"class.perfetto::TracedValue"* nonnull %4) #14
  call void @llvm.lifetime.end.p0i8(i64 16, i8* nonnull %33) #14
  br label %34

34:                                               ; preds = %32, %31
  call void @llvm.lifetime.end.p0i8(i64 16, i8* nonnull %29) #14
  call void @llvm.lifetime.end.p0i8(i64 16, i8* nonnull %11) #14
  ret void
}

; Function Attrs: nounwind ssp uwtable
define hidden zeroext i1 @_ZN7network5mojom5blink29CookieAndLineWithAccessResult8ValidateEPKvPN4mojo8internal17ValidationContextE(i8*, %"class.mojo::internal::ValidationContext"*) local_unnamed_addr #0 align 2 {
  %3 = tail call zeroext i1 @_ZN7network5mojom8internal34CookieAndLineWithAccessResult_Data8ValidateEPKvPN4mojo8internal17ValidationContextE(i8* %0, %"class.mojo::internal::ValidationContext"* %1) #14
  ret i1 %3
}

declare zeroext i1 @_ZN7network5mojom8internal34CookieAndLineWithAccessResult_Data8ValidateEPKvPN4mojo8internal17ValidationContextE(i8*, %"class.mojo::internal::ValidationContext"*) local_unnamed_addr #2

; Function Attrs: nofree norecurse nounwind ssp uwtable writeonly
define hidden void @_ZN7network5mojom5blink28CookieOrLineWithAccessResultC2Ev(%"class.network::mojom::blink::CookieOrLineWithAccessResult"* nocapture) unnamed_addr #3 align 2 {
  %2 = bitcast %"class.network::mojom::blink::CookieOrLineWithAccessResult"* %0 to i8*
  call void @llvm.memset.p0i8.i64(i8* align 8 %2, i8 0, i64 16, i1 false)
  ret void
}

; Function Attrs: nofree norecurse nounwind ssp uwtable
define hidden void @_ZN7network5mojom5blink28CookieOrLineWithAccessResultC2EN4mojo9StructPtrINS1_12CookieOrLineEEENS4_INS1_18CookieAccessResultEEE(%"class.network::mojom::blink::CookieOrLineWithAccessResult"* nocapture, %"class.mojo::StructPtr.91"* nocapture, %"class.mojo::StructPtr.83"* nocapture) unnamed_addr #6 align 2 {
  %4 = bitcast %"class.network::mojom::blink::CookieOrLineWithAccessResult"* %0 to i64*
  %5 = getelementptr inbounds %"class.network::mojom::blink::CookieOrLineWithAccessResult", %"class.network::mojom::blink::CookieOrLineWithAccessResult"* %0, i64 0, i32 0, i32 0, i32 0, i32 0, i32 0
  store %"class.network::mojom::blink::CookieOrLine"* null, %"class.network::mojom::blink::CookieOrLine"** %5, align 8
  %6 = bitcast %"class.mojo::StructPtr.91"* %1 to i64*
  %7 = load i64, i64* %6, align 8
  store i64 %7, i64* %4, align 8
  store i64 0, i64* %6, align 8
  %8 = getelementptr inbounds %"class.network::mojom::blink::CookieOrLineWithAccessResult", %"class.network::mojom::blink::CookieOrLineWithAccessResult"* %0, i64 0, i32 1
  %9 = bitcast %"class.mojo::StructPtr.83"* %8 to i64*
  %10 = getelementptr inbounds %"class.mojo::StructPtr.83", %"class.mojo::StructPtr.83"* %8, i64 0, i32 0, i32 0, i32 0, i32 0
  store %"class.network::mojom::blink::CookieAccessResult"* null, %"class.network::mojom::blink::CookieAccessResult"** %10, align 8
  %11 = bitcast %"class.mojo::StructPtr.83"* %2 to i64*
  %12 = load i64, i64* %11, align 8
  store i64 %12, i64* %9, align 8
  store i64 0, i64* %11, align 8
  ret void
}

; Function Attrs: nounwind ssp uwtable
define hidden void @_ZN7network5mojom5blink28CookieOrLineWithAccessResultD2Ev(%"class.network::mojom::blink::CookieOrLineWithAccessResult"* nocapture) unnamed_addr #0 align 2 {
  %2 = getelementptr inbounds %"class.network::mojom::blink::CookieOrLineWithAccessResult", %"class.network::mojom::blink::CookieOrLineWithAccessResult"* %0, i64 0, i32 1, i32 0, i32 0, i32 0, i32 0
  %3 = load %"class.network::mojom::blink::CookieAccessResult"*, %"class.network::mojom::blink::CookieAccessResult"** %2, align 8
  store %"class.network::mojom::blink::CookieAccessResult"* null, %"class.network::mojom::blink::CookieAccessResult"** %2, align 8
  %4 = icmp eq %"class.network::mojom::blink::CookieAccessResult"* %3, null
  br i1 %4, label %7, label %5

5:                                                ; preds = %1
  %6 = bitcast %"class.network::mojom::blink::CookieAccessResult"* %3 to i8*
  tail call void @_ZdlPv(i8* %6) #15
  br label %7

7:                                                ; preds = %1, %5
  %8 = getelementptr inbounds %"class.network::mojom::blink::CookieOrLineWithAccessResult", %"class.network::mojom::blink::CookieOrLineWithAccessResult"* %0, i64 0, i32 0, i32 0, i32 0, i32 0, i32 0
  %9 = load %"class.network::mojom::blink::CookieOrLine"*, %"class.network::mojom::blink::CookieOrLine"** %8, align 8
  store %"class.network::mojom::blink::CookieOrLine"* null, %"class.network::mojom::blink::CookieOrLine"** %8, align 8
  %10 = icmp eq %"class.network::mojom::blink::CookieOrLine"* %9, null
  br i1 %10, label %13, label %11

11:                                               ; preds = %7
  tail call void @_ZN7network5mojom5blink12CookieOrLine13DestroyActiveEv(%"class.network::mojom::blink::CookieOrLine"* nonnull %9) #14
  %12 = bitcast %"class.network::mojom::blink::CookieOrLine"* %9 to i8*
  tail call void @_ZdlPv(i8* %12) #15
  br label %13

13:                                               ; preds = %7, %11
  ret void
}

; Function Attrs: nounwind ssp uwtable
define hidden void @_ZNK7network5mojom5blink28CookieOrLineWithAccessResult14WriteIntoTraceEN8perfetto11TracedValueE(%"class.network::mojom::blink::CookieOrLineWithAccessResult"* nocapture readonly, %"class.perfetto::TracedValue"*) local_unnamed_addr #0 align 2 {
  %3 = alloca %"class.perfetto::TracedValue", align 8
  %4 = alloca %"class.perfetto::TracedValue", align 8
  %5 = alloca %"class.perfetto::TracedDictionary", align 8
  %6 = alloca %"class.perfetto::TracedValue", align 8
  %7 = alloca %"class.std::__1::basic_string", align 8
  %8 = alloca %"class.perfetto::TracedValue", align 8
  %9 = bitcast %"class.perfetto::TracedDictionary"* %5 to i8*
  call void @llvm.lifetime.start.p0i8(i64 16, i8* nonnull %9) #14
  %10 = bitcast %"class.perfetto::TracedDictionary"* %5 to i8*
  call void @llvm.memset.p0i8.i64(i8* nonnull align 8 %10, i8 -86, i64 16, i1 false)
  call void @_ZNO8perfetto11TracedValue15WriteDictionaryEv(%"class.perfetto::TracedDictionary"* nonnull sret %5, %"class.perfetto::TracedValue"* %1) #14
  call void @_ZN8perfetto16TracedDictionary7AddItemENS_12StaticStringE(%"class.perfetto::TracedValue"* nonnull sret %6, %"class.perfetto::TracedDictionary"* nonnull %5, i8* getelementptr inbounds ([15 x i8], [15 x i8]* @.str.38, i64 0, i64 0)) #14
  %11 = bitcast %"class.std::__1::basic_string"* %7 to i8*
  call void @llvm.lifetime.start.p0i8(i64 24, i8* nonnull %11) #14
  %12 = bitcast %"class.std::__1::basic_string"* %7 to %"struct.std::__1::basic_string<char, std::__1::char_traits<char>, std::__1::allocator<char> >::__short"*
  %13 = getelementptr inbounds %"struct.std::__1::basic_string<char, std::__1::char_traits<char>, std::__1::allocator<char> >::__short", %"struct.std::__1::basic_string<char, std::__1::char_traits<char>, std::__1::allocator<char> >::__short"* %12, i64 0, i32 1, i32 0
  store i8 7, i8* %13, align 1
  call void @llvm.memcpy.p0i8.p0i8.i64(i8* nonnull align 8 %11, i8* align 1 getelementptr inbounds ([8 x i8], [8 x i8]* @.str.1, i64 0, i64 0), i64 7, i1 false) #14
  %14 = getelementptr inbounds i8, i8* %11, i64 7
  store i8 0, i8* %14, align 1
  call void @_ZNO8perfetto11TracedValue11WriteStringERKNSt3__112basic_stringIcNS1_11char_traitsIcEENS1_9allocatorIcEEEE(%"class.perfetto::TracedValue"* nonnull %6, %"class.std::__1::basic_string"* nonnull dereferenceable(24) %7) #14
  %15 = load i8, i8* %13, align 1
  %16 = icmp slt i8 %15, 0
  br i1 %16, label %17, label %20

17:                                               ; preds = %2
  %18 = getelementptr inbounds %"class.std::__1::basic_string", %"class.std::__1::basic_string"* %7, i64 0, i32 0, i32 0, i32 0, i32 0, i32 0, i32 0
  %19 = load i8*, i8** %18, align 8
  call void @_ZdlPv(i8* %19) #15
  br label %20

20:                                               ; preds = %2, %17
  call void @llvm.lifetime.end.p0i8(i64 24, i8* nonnull %11) #14
  call void @_ZN8perfetto16TracedDictionary7AddItemENS_12StaticStringE(%"class.perfetto::TracedValue"* nonnull sret %8, %"class.perfetto::TracedDictionary"* nonnull %5, i8* getelementptr inbounds ([14 x i8], [14 x i8]* @.str.37, i64 0, i64 0)) #14
  %21 = bitcast %"class.perfetto::TracedValue"* %8 to i8*
  %22 = getelementptr inbounds %"class.network::mojom::blink::CookieOrLineWithAccessResult", %"class.network::mojom::blink::CookieOrLineWithAccessResult"* %0, i64 0, i32 1, i32 0, i32 0, i32 0, i32 0
  %23 = load %"class.network::mojom::blink::CookieAccessResult"*, %"class.network::mojom::blink::CookieAccessResult"** %22, align 8
  %24 = bitcast %"class.perfetto::TracedValue"* %4 to i8*
  call void @llvm.lifetime.start.p0i8(i64 16, i8* nonnull %24) #14
  call void @llvm.memcpy.p0i8.p0i8.i64(i8* nonnull align 8 %24, i8* nonnull align 8 %21, i64 16, i1 false)
  %25 = icmp eq %"class.network::mojom::blink::CookieAccessResult"* %23, null
  br i1 %25, label %26, label %27

26:                                               ; preds = %20
  call void @_ZNO8perfetto11TracedValue12WritePointerEPKv(%"class.perfetto::TracedValue"* nonnull %4, i8* null) #14
  br label %29

27:                                               ; preds = %20
  %28 = bitcast %"class.perfetto::TracedValue"* %3 to i8*
  call void @llvm.lifetime.start.p0i8(i64 16, i8* nonnull %28) #14
  call void @llvm.memcpy.p0i8.p0i8.i64(i8* nonnull align 8 %28, i8* nonnull align 8 %24, i64 16, i1 false) #14
  call void @_ZNK7network5mojom5blink18CookieAccessResult14WriteIntoTraceEN8perfetto11TracedValueE(%"class.network::mojom::blink::CookieAccessResult"* nonnull %23, %"class.perfetto::TracedValue"* nonnull %3) #14
  call void @llvm.lifetime.end.p0i8(i64 16, i8* nonnull %28) #14
  br label %29

29:                                               ; preds = %27, %26
  call void @llvm.lifetime.end.p0i8(i64 16, i8* nonnull %24) #14
  call void @llvm.lifetime.end.p0i8(i64 16, i8* nonnull %9) #14
  ret void
}

; Function Attrs: nounwind ssp uwtable
define hidden zeroext i1 @_ZN7network5mojom5blink28CookieOrLineWithAccessResult8ValidateEPKvPN4mojo8internal17ValidationContextE(i8*, %"class.mojo::internal::ValidationContext"*) local_unnamed_addr #0 align 2 {
  %3 = tail call zeroext i1 @_ZN7network5mojom8internal33CookieOrLineWithAccessResult_Data8ValidateEPKvPN4mojo8internal17ValidationContextE(i8* %0, %"class.mojo::internal::ValidationContext"* %1) #14
  ret i1 %3
}

declare zeroext i1 @_ZN7network5mojom8internal33CookieOrLineWithAccessResult_Data8ValidateEPKvPN4mojo8internal17ValidationContextE(i8*, %"class.mojo::internal::ValidationContext"*) local_unnamed_addr #2

; Function Attrs: nounwind ssp uwtable
define hidden void @_ZN7network5mojom5blink18CookieAccessResultC2Ev(%"class.network::mojom::blink::CookieAccessResult"* nocapture) unnamed_addr #0 align 2 {
  %2 = bitcast %"class.network::mojom::blink::CookieAccessResult"* %0 to i8*
  call void @llvm.memset.p0i8.i64(i8* align 4 %2, i8 0, i64 21, i1 false)
  ret void
}

; Function Attrs: nounwind ssp uwtable
define hidden void @_ZN7network5mojom5blink18CookieAccessResultC2ENS0_23CookieEffectiveSameSiteENS0_21CookieAccessSemanticsEN4mojo16InlinedStructPtrINS1_21CookieInclusionStatusEEEb(%"class.network::mojom::blink::CookieAccessResult"* nocapture, i32, i32, %"class.mojo::InlinedStructPtr.87"* nocapture, i1 zeroext) unnamed_addr #0 align 2 {
  %6 = zext i1 %4 to i8
  %7 = getelementptr inbounds %"class.network::mojom::blink::CookieAccessResult", %"class.network::mojom::blink::CookieAccessResult"* %0, i64 0, i32 0
  store i32 %1, i32* %7, align 4
  %8 = getelementptr inbounds %"class.network::mojom::blink::CookieAccessResult", %"class.network::mojom::blink::CookieAccessResult"* %0, i64 0, i32 1
  store i32 %2, i32* %8, align 4
  %9 = getelementptr inbounds %"class.network::mojom::blink::CookieAccessResult", %"class.network::mojom::blink::CookieAccessResult"* %0, i64 0, i32 2
  %10 = getelementptr inbounds %"class.network::mojom::blink::CookieAccessResult", %"class.network::mojom::blink::CookieAccessResult"* %0, i64 0, i32 2, i32 1
  %11 = bitcast %"class.mojo::InlinedStructPtr.87"* %9 to i64*
  %12 = bitcast %"class.mojo::InlinedStructPtr.87"* %9 to i8*
  tail call void @llvm.memset.p0i8.i64(i8* align 4 %12, i8 0, i64 12, i1 false) #14
  %13 = bitcast %"class.mojo::InlinedStructPtr.87"* %3 to i64*
  %14 = load i64, i64* %13, align 4
  store i64 %14, i64* %11, align 4
  store i64 0, i64* %13, align 4
  %15 = getelementptr inbounds %"class.mojo::InlinedStructPtr.87", %"class.mojo::InlinedStructPtr.87"* %3, i64 0, i32 1
  %16 = load i32, i32* %10, align 4
  %17 = load i32, i32* %15, align 4
  store i32 %17, i32* %10, align 4
  store i32 %16, i32* %15, align 4
  %18 = getelementptr inbounds %"class.network::mojom::blink::CookieAccessResult", %"class.network::mojom::blink::CookieAccessResult"* %0, i64 0, i32 3
  store i8 %6, i8* %18, align 4
  ret void
}

; Function Attrs: norecurse nounwind readnone ssp uwtable
define hidden void @_ZN7network5mojom5blink18CookieAccessResultD2Ev(%"class.network::mojom::blink::CookieAccessResult"* nocapture) unnamed_addr #4 align 2 {
  ret void
}

; Function Attrs: norecurse nounwind readonly ssp uwtable
define hidden i64 @_ZNK7network5mojom5blink18CookieAccessResult4HashEm(%"class.network::mojom::blink::CookieAccessResult"* nocapture readonly, i64) local_unnamed_addr #5 align 2 {
  %3 = getelementptr inbounds %"class.network::mojom::blink::CookieAccessResult", %"class.network::mojom::blink::CookieAccessResult"* %0, i64 0, i32 0
  %4 = load i32, i32* %3, align 4
  %5 = sext i32 %4 to i64
  %6 = shl i64 %1, 6
  %7 = lshr i64 %1, 2
  %8 = add i64 %7, %6
  %9 = add i64 %8, %5
  %10 = xor i64 %9, %1
  %11 = getelementptr inbounds %"class.network::mojom::blink::CookieAccessResult", %"class.network::mojom::blink::CookieAccessResult"* %0, i64 0, i32 1
  %12 = load i32, i32* %11, align 4
  %13 = sext i32 %12 to i64
  %14 = shl i64 %10, 6
  %15 = lshr i64 %10, 2
  %16 = add i64 %14, %13
  %17 = add i64 %16, %15
  %18 = xor i64 %17, %10
  %19 = getelementptr inbounds %"class.network::mojom::blink::CookieAccessResult", %"class.network::mojom::blink::CookieAccessResult"* %0, i64 0, i32 2, i32 1
  %20 = load i32, i32* %19, align 4
  %21 = icmp eq i32 %20, 0
  br i1 %21, label %22, label %26

22:                                               ; preds = %2
  %23 = shl i64 %18, 6
  %24 = lshr i64 %18, 2
  %25 = add i64 %24, %23
  br label %42

26:                                               ; preds = %2
  %27 = getelementptr inbounds %"class.network::mojom::blink::CookieAccessResult", %"class.network::mojom::blink::CookieAccessResult"* %0, i64 0, i32 2, i32 0, i32 0
  %28 = load i32, i32* %27, align 4
  %29 = zext i32 %28 to i64
  %30 = shl i64 %18, 6
  %31 = lshr i64 %18, 2
  %32 = add i64 %31, %30
  %33 = add i64 %32, %29
  %34 = xor i64 %33, %18
  %35 = getelementptr inbounds %"class.network::mojom::blink::CookieAccessResult", %"class.network::mojom::blink::CookieAccessResult"* %0, i64 0, i32 2, i32 0, i32 1
  %36 = load i32, i32* %35, align 4
  %37 = zext i32 %36 to i64
  %38 = shl i64 %34, 6
  %39 = lshr i64 %34, 2
  %40 = add i64 %38, %37
  %41 = add i64 %40, %39
  br label %42

42:                                               ; preds = %22, %26
  %43 = phi i64 [ %18, %22 ], [ %34, %26 ]
  %44 = phi i64 [ %25, %22 ], [ %41, %26 ]
  %45 = xor i64 %44, %43
  %46 = getelementptr inbounds %"class.network::mojom::blink::CookieAccessResult", %"class.network::mojom::blink::CookieAccessResult"* %0, i64 0, i32 3
  %47 = load i8, i8* %46, align 1, !range !4
  %48 = zext i8 %47 to i64
  %49 = shl i64 %45, 6
  %50 = or i64 %49, %48
  %51 = lshr i64 %45, 2
  %52 = add i64 %50, %51
  %53 = xor i64 %52, %45
  ret i64 %53
}

; Function Attrs: nounwind ssp uwtable
define hidden void @_ZNK7network5mojom5blink18CookieAccessResult14WriteIntoTraceEN8perfetto11TracedValueE(%"class.network::mojom::blink::CookieAccessResult"*, %"class.perfetto::TracedValue"*) local_unnamed_addr #0 align 2 {
  %3 = alloca %"class.perfetto::TracedValue", align 8
  %4 = alloca %"class.network::mojom::blink::CookieInclusionStatus"*, align 8
  %5 = alloca %"class.perfetto::TracedValue", align 8
  %6 = alloca %"class.perfetto::TracedValue", align 8
  %7 = alloca %"class.perfetto::TracedValue", align 8
  %8 = alloca %"class.perfetto::TracedDictionary", align 8
  %9 = alloca %"class.perfetto::TracedValue", align 8
  %10 = alloca %"class.perfetto::TracedValue", align 8
  %11 = alloca %"class.perfetto::TracedValue", align 8
  %12 = alloca %"class.perfetto::TracedValue", align 8
  %13 = bitcast %"class.perfetto::TracedDictionary"* %8 to i8*
  call void @llvm.lifetime.start.p0i8(i64 16, i8* nonnull %13) #14
  %14 = bitcast %"class.perfetto::TracedDictionary"* %8 to i8*
  call void @llvm.memset.p0i8.i64(i8* nonnull align 8 %14, i8 -86, i64 16, i1 false)
  call void @_ZNO8perfetto11TracedValue15WriteDictionaryEv(%"class.perfetto::TracedDictionary"* nonnull sret %8, %"class.perfetto::TracedValue"* %1) #14
  call void @_ZN8perfetto16TracedDictionary7AddItemENS_12StaticStringE(%"class.perfetto::TracedValue"* nonnull sret %9, %"class.perfetto::TracedDictionary"* nonnull %8, i8* getelementptr inbounds ([20 x i8], [20 x i8]* @.str.39, i64 0, i64 0)) #14
  %15 = getelementptr inbounds %"class.network::mojom::blink::CookieAccessResult", %"class.network::mojom::blink::CookieAccessResult"* %0, i64 0, i32 0
  %16 = bitcast %"class.perfetto::TracedValue"* %9 to i8*
  %17 = bitcast %"class.perfetto::TracedValue"* %6 to i8*
  call void @llvm.lifetime.start.p0i8(i64 16, i8* nonnull %17) #14
  call void @llvm.memcpy.p0i8.p0i8.i64(i8* nonnull align 8 %17, i8* nonnull align 8 %16, i64 16, i1 false) #14
  %18 = load i32, i32* %15, align 4
  call void @_ZN8perfetto17TraceFormatTraitsIN7network5mojom23CookieEffectiveSameSiteEvE14WriteIntoTraceENS_11TracedValueES3_(%"class.perfetto::TracedValue"* nonnull %6, i32 %18) #14
  call void @llvm.lifetime.end.p0i8(i64 16, i8* nonnull %17) #14
  call void @_ZN8perfetto16TracedDictionary7AddItemENS_12StaticStringE(%"class.perfetto::TracedValue"* nonnull sret %10, %"class.perfetto::TracedDictionary"* nonnull %8, i8* getelementptr inbounds ([17 x i8], [17 x i8]* @.str.40, i64 0, i64 0)) #14
  %19 = getelementptr inbounds %"class.network::mojom::blink::CookieAccessResult", %"class.network::mojom::blink::CookieAccessResult"* %0, i64 0, i32 1
  %20 = bitcast %"class.perfetto::TracedValue"* %10 to i8*
  %21 = bitcast %"class.perfetto::TracedValue"* %5 to i8*
  call void @llvm.lifetime.start.p0i8(i64 16, i8* nonnull %21) #14
  call void @llvm.memcpy.p0i8.p0i8.i64(i8* nonnull align 8 %21, i8* nonnull align 8 %20, i64 16, i1 false) #14
  %22 = load i32, i32* %19, align 4
  call void @_ZN8perfetto17TraceFormatTraitsIN7network5mojom21CookieAccessSemanticsEvE14WriteIntoTraceENS_11TracedValueES3_(%"class.perfetto::TracedValue"* nonnull %5, i32 %22) #14
  call void @llvm.lifetime.end.p0i8(i64 16, i8* nonnull %21) #14
  call void @_ZN8perfetto16TracedDictionary7AddItemENS_12StaticStringE(%"class.perfetto::TracedValue"* nonnull sret %11, %"class.perfetto::TracedDictionary"* nonnull %8, i8* getelementptr inbounds ([7 x i8], [7 x i8]* @.str.41, i64 0, i64 0)) #14
  %23 = bitcast %"class.perfetto::TracedValue"* %11 to i8*
  %24 = bitcast %"class.network::mojom::blink::CookieInclusionStatus"** %4 to i8*
  call void @llvm.lifetime.start.p0i8(i64 8, i8* nonnull %24) #14
  %25 = getelementptr inbounds %"class.network::mojom::blink::CookieAccessResult", %"class.network::mojom::blink::CookieAccessResult"* %0, i64 0, i32 2, i32 1
  %26 = load i32, i32* %25, align 4
  %27 = icmp eq i32 %26, 0
  %28 = getelementptr inbounds %"class.network::mojom::blink::CookieAccessResult", %"class.network::mojom::blink::CookieAccessResult"* %0, i64 0, i32 2, i32 0
  %29 = select i1 %27, %"class.network::mojom::blink::CookieInclusionStatus"* null, %"class.network::mojom::blink::CookieInclusionStatus"* %28
  store %"class.network::mojom::blink::CookieInclusionStatus"* %29, %"class.network::mojom::blink::CookieInclusionStatus"** %4, align 8
  %30 = bitcast %"class.perfetto::TracedValue"* %3 to i8*
  call void @llvm.lifetime.start.p0i8(i64 16, i8* nonnull %30) #14
  call void @llvm.memcpy.p0i8.p0i8.i64(i8* nonnull align 8 %30, i8* nonnull align 8 %23, i64 16, i1 false)
  call void @_ZN8perfetto8internal9WriteImplIPN7network5mojom5blink21CookieInclusionStatusEEEDTcmclsr17TraceFormatTraitsINS_4base12remove_cvrefIT_E4typeEEE14WriteIntoTraceclL_ZNSt3__17declvalINS_11TracedValueEEEDTclsr3std3__1E9__declvalIS9_ELi0EEEvEEclsr3stdE7declvalIS9_EEEcvv_EENS7_12priority_tagILm3EEESE_OS9_(%"class.perfetto::TracedValue"* nonnull %3, %"class.network::mojom::blink::CookieInclusionStatus"** nonnull dereferenceable(8) %4) #14
  call void @llvm.lifetime.end.p0i8(i64 16, i8* nonnull %30) #14
  call void @llvm.lifetime.end.p0i8(i64 8, i8* nonnull %24) #14
  call void @_ZN8perfetto16TracedDictionary7AddItemENS_12StaticStringE(%"class.perfetto::TracedValue"* nonnull sret %12, %"class.perfetto::TracedDictionary"* nonnull %8, i8* getelementptr inbounds ([36 x i8], [36 x i8]* @.str.42, i64 0, i64 0)) #14
  %31 = getelementptr inbounds %"class.network::mojom::blink::CookieAccessResult", %"class.network::mojom::blink::CookieAccessResult"* %0, i64 0, i32 3
  %32 = bitcast %"class.perfetto::TracedValue"* %12 to i8*
  %33 = bitcast %"class.perfetto::TracedValue"* %7 to i8*
  call void @llvm.lifetime.start.p0i8(i64 16, i8* nonnull %33) #14
  call void @llvm.memcpy.p0i8.p0i8.i64(i8* nonnull align 8 %33, i8* nonnull align 8 %32, i64 16, i1 false) #14
  %34 = load i8, i8* %31, align 1, !range !4
  %35 = icmp ne i8 %34, 0
  call void @_ZNO8perfetto11TracedValue12WriteBooleanEb(%"class.perfetto::TracedValue"* nonnull %7, i1 zeroext %35) #14
  call void @llvm.lifetime.end.p0i8(i64 16, i8* nonnull %33) #14
  call void @llvm.lifetime.end.p0i8(i64 16, i8* nonnull %13) #14
  ret void
}

; Function Attrs: nounwind ssp uwtable
define hidden zeroext i1 @_ZN7network5mojom5blink18CookieAccessResult8ValidateEPKvPN4mojo8internal17ValidationContextE(i8*, %"class.mojo::internal::ValidationContext"*) local_unnamed_addr #0 align 2 {
  %3 = tail call zeroext i1 @_ZN7network5mojom8internal23CookieAccessResult_Data8ValidateEPKvPN4mojo8internal17ValidationContextE(i8* %0, %"class.mojo::internal::ValidationContext"* %1) #14
  ret i1 %3
}

declare zeroext i1 @_ZN7network5mojom8internal23CookieAccessResult_Data8ValidateEPKvPN4mojo8internal17ValidationContextE(i8*, %"class.mojo::internal::ValidationContext"*) local_unnamed_addr #2

; Function Attrs: nounwind ssp uwtable
define hidden void @_ZN7network5mojom5blink22CookieWithAccessResultC2Ev(%"class.network::mojom::blink::CookieWithAccessResult"*) unnamed_addr #0 align 2 {
  %2 = getelementptr inbounds %"class.network::mojom::blink::CookieWithAccessResult", %"class.network::mojom::blink::CookieWithAccessResult"* %0, i64 0, i32 0
  tail call void @_ZN3net15CanonicalCookieC1Ev(%"class.net::CanonicalCookie"* %2) #14
  %3 = getelementptr inbounds %"class.network::mojom::blink::CookieWithAccessResult", %"class.network::mojom::blink::CookieWithAccessResult"* %0, i64 0, i32 1
  %4 = bitcast %"class.mojo::StructPtr.83"* %3 to i64*
  store i64 0, i64* %4, align 8
  ret void
}

declare void @_ZN3net15CanonicalCookieC1Ev(%"class.net::CanonicalCookie"*) unnamed_addr #2

; Function Attrs: nounwind ssp uwtable
define hidden void @_ZN7network5mojom5blink22CookieWithAccessResultC2ERKN3net15CanonicalCookieEN4mojo9StructPtrINS1_18CookieAccessResultEEE(%"class.network::mojom::blink::CookieWithAccessResult"*, %"class.net::CanonicalCookie"* dereferenceable(144), %"class.mojo::StructPtr.83"* nocapture) unnamed_addr #0 align 2 {
  %4 = getelementptr inbounds %"class.network::mojom::blink::CookieWithAccessResult", %"class.network::mojom::blink::CookieWithAccessResult"* %0, i64 0, i32 0
  tail call void @_ZN3net15CanonicalCookieC1ERKS0_(%"class.net::CanonicalCookie"* %4, %"class.net::CanonicalCookie"* dereferenceable(144) %1) #14
  %5 = getelementptr inbounds %"class.network::mojom::blink::CookieWithAccessResult", %"class.network::mojom::blink::CookieWithAccessResult"* %0, i64 0, i32 1
  %6 = bitcast %"class.mojo::StructPtr.83"* %5 to i64*
  %7 = getelementptr inbounds %"class.mojo::StructPtr.83", %"class.mojo::StructPtr.83"* %5, i64 0, i32 0, i32 0, i32 0, i32 0
  store %"class.network::mojom::blink::CookieAccessResult"* null, %"class.network::mojom::blink::CookieAccessResult"** %7, align 8
  %8 = bitcast %"class.mojo::StructPtr.83"* %2 to i64*
  %9 = load i64, i64* %8, align 8
  store i64 %9, i64* %6, align 8
  store i64 0, i64* %8, align 8
  ret void
}

declare void @_ZN3net15CanonicalCookieC1ERKS0_(%"class.net::CanonicalCookie"*, %"class.net::CanonicalCookie"* dereferenceable(144)) unnamed_addr #2

; Function Attrs: nounwind ssp uwtable
define hidden void @_ZN7network5mojom5blink22CookieWithAccessResultD2Ev(%"class.network::mojom::blink::CookieWithAccessResult"*) unnamed_addr #0 align 2 {
  %2 = getelementptr inbounds %"class.network::mojom::blink::CookieWithAccessResult", %"class.network::mojom::blink::CookieWithAccessResult"* %0, i64 0, i32 1, i32 0, i32 0, i32 0, i32 0
  %3 = load %"class.network::mojom::blink::CookieAccessResult"*, %"class.network::mojom::blink::CookieAccessResult"** %2, align 8
  store %"class.network::mojom::blink::CookieAccessResult"* null, %"class.network::mojom::blink::CookieAccessResult"** %2, align 8
  %4 = icmp eq %"class.network::mojom::blink::CookieAccessResult"* %3, null
  br i1 %4, label %7, label %5

5:                                                ; preds = %1
  %6 = bitcast %"class.network::mojom::blink::CookieAccessResult"* %3 to i8*
  tail call void @_ZdlPv(i8* %6) #15
  br label %7

7:                                                ; preds = %1, %5
  %8 = getelementptr inbounds %"class.network::mojom::blink::CookieWithAccessResult", %"class.network::mojom::blink::CookieWithAccessResult"* %0, i64 0, i32 0
  tail call void @_ZN3net15CanonicalCookieD1Ev(%"class.net::CanonicalCookie"* %8) #14
  ret void
}

; Function Attrs: nounwind
declare void @_ZN3net15CanonicalCookieD1Ev(%"class.net::CanonicalCookie"*) unnamed_addr #7

; Function Attrs: nounwind ssp uwtable
define hidden void @_ZNK7network5mojom5blink22CookieWithAccessResult14WriteIntoTraceEN8perfetto11TracedValueE(%"class.network::mojom::blink::CookieWithAccessResult"* nocapture readonly, %"class.perfetto::TracedValue"*) local_unnamed_addr #0 align 2 {
  %3 = alloca %"class.perfetto::TracedValue", align 8
  %4 = alloca %"class.perfetto::TracedValue", align 8
  %5 = alloca %"class.perfetto::TracedDictionary", align 8
  %6 = alloca %"class.perfetto::TracedValue", align 8
  %7 = alloca %"class.std::__1::basic_string", align 8
  %8 = alloca %"class.perfetto::TracedValue", align 8
  %9 = bitcast %"class.perfetto::TracedDictionary"* %5 to i8*
  call void @llvm.lifetime.start.p0i8(i64 16, i8* nonnull %9) #14
  %10 = bitcast %"class.perfetto::TracedDictionary"* %5 to i8*
  call void @llvm.memset.p0i8.i64(i8* nonnull align 8 %10, i8 -86, i64 16, i1 false)
  call void @_ZNO8perfetto11TracedValue15WriteDictionaryEv(%"class.perfetto::TracedDictionary"* nonnull sret %5, %"class.perfetto::TracedValue"* %1) #14
  call void @_ZN8perfetto16TracedDictionary7AddItemENS_12StaticStringE(%"class.perfetto::TracedValue"* nonnull sret %6, %"class.perfetto::TracedDictionary"* nonnull %5, i8* getelementptr inbounds ([7 x i8], [7 x i8]* @.str.35, i64 0, i64 0)) #14
  %11 = bitcast %"class.std::__1::basic_string"* %7 to i8*
  call void @llvm.lifetime.start.p0i8(i64 24, i8* nonnull %11) #14
  %12 = bitcast %"class.std::__1::basic_string"* %7 to %"struct.std::__1::basic_string<char, std::__1::char_traits<char>, std::__1::allocator<char> >::__short"*
  %13 = getelementptr inbounds %"struct.std::__1::basic_string<char, std::__1::char_traits<char>, std::__1::allocator<char> >::__short", %"struct.std::__1::basic_string<char, std::__1::char_traits<char>, std::__1::allocator<char> >::__short"* %12, i64 0, i32 1, i32 0
  store i8 7, i8* %13, align 1
  call void @llvm.memcpy.p0i8.p0i8.i64(i8* nonnull align 8 %11, i8* align 1 getelementptr inbounds ([8 x i8], [8 x i8]* @.str.1, i64 0, i64 0), i64 7, i1 false) #14
  %14 = getelementptr inbounds i8, i8* %11, i64 7
  store i8 0, i8* %14, align 1
  call void @_ZNO8perfetto11TracedValue11WriteStringERKNSt3__112basic_stringIcNS1_11char_traitsIcEENS1_9allocatorIcEEEE(%"class.perfetto::TracedValue"* nonnull %6, %"class.std::__1::basic_string"* nonnull dereferenceable(24) %7) #14
  %15 = load i8, i8* %13, align 1
  %16 = icmp slt i8 %15, 0
  br i1 %16, label %17, label %20

17:                                               ; preds = %2
  %18 = getelementptr inbounds %"class.std::__1::basic_string", %"class.std::__1::basic_string"* %7, i64 0, i32 0, i32 0, i32 0, i32 0, i32 0, i32 0
  %19 = load i8*, i8** %18, align 8
  call void @_ZdlPv(i8* %19) #15
  br label %20

20:                                               ; preds = %2, %17
  call void @llvm.lifetime.end.p0i8(i64 24, i8* nonnull %11) #14
  call void @_ZN8perfetto16TracedDictionary7AddItemENS_12StaticStringE(%"class.perfetto::TracedValue"* nonnull sret %8, %"class.perfetto::TracedDictionary"* nonnull %5, i8* getelementptr inbounds ([14 x i8], [14 x i8]* @.str.37, i64 0, i64 0)) #14
  %21 = bitcast %"class.perfetto::TracedValue"* %8 to i8*
  %22 = getelementptr inbounds %"class.network::mojom::blink::CookieWithAccessResult", %"class.network::mojom::blink::CookieWithAccessResult"* %0, i64 0, i32 1, i32 0, i32 0, i32 0, i32 0
  %23 = load %"class.network::mojom::blink::CookieAccessResult"*, %"class.network::mojom::blink::CookieAccessResult"** %22, align 8
  %24 = bitcast %"class.perfetto::TracedValue"* %4 to i8*
  call void @llvm.lifetime.start.p0i8(i64 16, i8* nonnull %24) #14
  call void @llvm.memcpy.p0i8.p0i8.i64(i8* nonnull align 8 %24, i8* nonnull align 8 %21, i64 16, i1 false)
  %25 = icmp eq %"class.network::mojom::blink::CookieAccessResult"* %23, null
  br i1 %25, label %26, label %27

26:                                               ; preds = %20
  call void @_ZNO8perfetto11TracedValue12WritePointerEPKv(%"class.perfetto::TracedValue"* nonnull %4, i8* null) #14
  br label %29

27:                                               ; preds = %20
  %28 = bitcast %"class.perfetto::TracedValue"* %3 to i8*
  call void @llvm.lifetime.start.p0i8(i64 16, i8* nonnull %28) #14
  call void @llvm.memcpy.p0i8.p0i8.i64(i8* nonnull align 8 %28, i8* nonnull align 8 %24, i64 16, i1 false) #14
  call void @_ZNK7network5mojom5blink18CookieAccessResult14WriteIntoTraceEN8perfetto11TracedValueE(%"class.network::mojom::blink::CookieAccessResult"* nonnull %23, %"class.perfetto::TracedValue"* nonnull %3) #14
  call void @llvm.lifetime.end.p0i8(i64 16, i8* nonnull %28) #14
  br label %29

29:                                               ; preds = %27, %26
  call void @llvm.lifetime.end.p0i8(i64 16, i8* nonnull %24) #14
  call void @llvm.lifetime.end.p0i8(i64 16, i8* nonnull %9) #14
  ret void
}

; Function Attrs: nounwind ssp uwtable
define hidden zeroext i1 @_ZN7network5mojom5blink22CookieWithAccessResult8ValidateEPKvPN4mojo8internal17ValidationContextE(i8*, %"class.mojo::internal::ValidationContext"*) local_unnamed_addr #0 align 2 {
  %3 = tail call zeroext i1 @_ZN7network5mojom8internal27CookieWithAccessResult_Data8ValidateEPKvPN4mojo8internal17ValidationContextE(i8* %0, %"class.mojo::internal::ValidationContext"* %1) #14
  ret i1 %3
}

declare zeroext i1 @_ZN7network5mojom8internal27CookieWithAccessResult_Data8ValidateEPKvPN4mojo8internal17ValidationContextE(i8*, %"class.mojo::internal::ValidationContext"*) local_unnamed_addr #2

; Function Attrs: nounwind ssp uwtable
define hidden void @_ZN7network5mojom5blink16CookieChangeInfoC2Ev(%"class.network::mojom::blink::CookieChangeInfo"*) unnamed_addr #0 align 2 {
  %2 = getelementptr inbounds %"class.network::mojom::blink::CookieChangeInfo", %"class.network::mojom::blink::CookieChangeInfo"* %0, i64 0, i32 0
  tail call void @_ZN3net15CanonicalCookieC1Ev(%"class.net::CanonicalCookie"* %2) #14
  %3 = getelementptr inbounds %"class.network::mojom::blink::CookieChangeInfo", %"class.network::mojom::blink::CookieChangeInfo"* %0, i64 0, i32 1
  %4 = bitcast %"class.mojo::StructPtr.83"* %3 to i64*
  store i64 0, i64* %4, align 8
  %5 = getelementptr inbounds %"class.network::mojom::blink::CookieChangeInfo", %"class.network::mojom::blink::CookieChangeInfo"* %0, i64 0, i32 2
  store i32 0, i32* %5, align 8
  ret void
}

; Function Attrs: nounwind ssp uwtable
define hidden void @_ZN7network5mojom5blink16CookieChangeInfoC2ERKN3net15CanonicalCookieEN4mojo9StructPtrINS1_18CookieAccessResultEEENS0_17CookieChangeCauseE(%"class.network::mojom::blink::CookieChangeInfo"*, %"class.net::CanonicalCookie"* dereferenceable(144), %"class.mojo::StructPtr.83"* nocapture, i32) unnamed_addr #0 align 2 {
  %5 = getelementptr inbounds %"class.network::mojom::blink::CookieChangeInfo", %"class.network::mojom::blink::CookieChangeInfo"* %0, i64 0, i32 0
  tail call void @_ZN3net15CanonicalCookieC1ERKS0_(%"class.net::CanonicalCookie"* %5, %"class.net::CanonicalCookie"* dereferenceable(144) %1) #14
  %6 = getelementptr inbounds %"class.network::mojom::blink::CookieChangeInfo", %"class.network::mojom::blink::CookieChangeInfo"* %0, i64 0, i32 1
  %7 = bitcast %"class.mojo::StructPtr.83"* %6 to i64*
  %8 = getelementptr inbounds %"class.mojo::StructPtr.83", %"class.mojo::StructPtr.83"* %6, i64 0, i32 0, i32 0, i32 0, i32 0
  store %"class.network::mojom::blink::CookieAccessResult"* null, %"class.network::mojom::blink::CookieAccessResult"** %8, align 8
  %9 = bitcast %"class.mojo::StructPtr.83"* %2 to i64*
  %10 = load i64, i64* %9, align 8
  store i64 %10, i64* %7, align 8
  store i64 0, i64* %9, align 8
  %11 = getelementptr inbounds %"class.network::mojom::blink::CookieChangeInfo", %"class.network::mojom::blink::CookieChangeInfo"* %0, i64 0, i32 2
  store i32 %3, i32* %11, align 8
  ret void
}

; Function Attrs: nounwind ssp uwtable
define hidden void @_ZN7network5mojom5blink16CookieChangeInfoD2Ev(%"class.network::mojom::blink::CookieChangeInfo"*) unnamed_addr #0 align 2 {
  %2 = getelementptr inbounds %"class.network::mojom::blink::CookieChangeInfo", %"class.network::mojom::blink::CookieChangeInfo"* %0, i64 0, i32 1, i32 0, i32 0, i32 0, i32 0
  %3 = load %"class.network::mojom::blink::CookieAccessResult"*, %"class.network::mojom::blink::CookieAccessResult"** %2, align 8
  store %"class.network::mojom::blink::CookieAccessResult"* null, %"class.network::mojom::blink::CookieAccessResult"** %2, align 8
  %4 = icmp eq %"class.network::mojom::blink::CookieAccessResult"* %3, null
  br i1 %4, label %7, label %5

5:                                                ; preds = %1
  %6 = bitcast %"class.network::mojom::blink::CookieAccessResult"* %3 to i8*
  tail call void @_ZdlPv(i8* %6) #15
  br label %7

7:                                                ; preds = %1, %5
  %8 = getelementptr inbounds %"class.network::mojom::blink::CookieChangeInfo", %"class.network::mojom::blink::CookieChangeInfo"* %0, i64 0, i32 0
  tail call void @_ZN3net15CanonicalCookieD1Ev(%"class.net::CanonicalCookie"* %8) #14
  ret void
}

; Function Attrs: nounwind ssp uwtable
define hidden void @_ZNK7network5mojom5blink16CookieChangeInfo14WriteIntoTraceEN8perfetto11TracedValueE(%"class.network::mojom::blink::CookieChangeInfo"* nocapture readonly, %"class.perfetto::TracedValue"*) local_unnamed_addr #0 align 2 {
  %3 = alloca %"class.perfetto::TracedValue", align 8
  %4 = alloca %"class.perfetto::TracedValue", align 8
  %5 = alloca %"class.perfetto::TracedValue", align 8
  %6 = alloca %"class.perfetto::TracedDictionary", align 8
  %7 = alloca %"class.perfetto::TracedValue", align 8
  %8 = alloca %"class.std::__1::basic_string", align 8
  %9 = alloca %"class.perfetto::TracedValue", align 8
  %10 = alloca %"class.perfetto::TracedValue", align 8
  %11 = bitcast %"class.perfetto::TracedDictionary"* %6 to i8*
  call void @llvm.lifetime.start.p0i8(i64 16, i8* nonnull %11) #14
  %12 = bitcast %"class.perfetto::TracedDictionary"* %6 to i8*
  call void @llvm.memset.p0i8.i64(i8* nonnull align 8 %12, i8 -86, i64 16, i1 false)
  call void @_ZNO8perfetto11TracedValue15WriteDictionaryEv(%"class.perfetto::TracedDictionary"* nonnull sret %6, %"class.perfetto::TracedValue"* %1) #14
  call void @_ZN8perfetto16TracedDictionary7AddItemENS_12StaticStringE(%"class.perfetto::TracedValue"* nonnull sret %7, %"class.perfetto::TracedDictionary"* nonnull %6, i8* getelementptr inbounds ([7 x i8], [7 x i8]* @.str.35, i64 0, i64 0)) #14
  %13 = bitcast %"class.std::__1::basic_string"* %8 to i8*
  call void @llvm.lifetime.start.p0i8(i64 24, i8* nonnull %13) #14
  %14 = bitcast %"class.std::__1::basic_string"* %8 to %"struct.std::__1::basic_string<char, std::__1::char_traits<char>, std::__1::allocator<char> >::__short"*
  %15 = getelementptr inbounds %"struct.std::__1::basic_string<char, std::__1::char_traits<char>, std::__1::allocator<char> >::__short", %"struct.std::__1::basic_string<char, std::__1::char_traits<char>, std::__1::allocator<char> >::__short"* %14, i64 0, i32 1, i32 0
  store i8 7, i8* %15, align 1
  call void @llvm.memcpy.p0i8.p0i8.i64(i8* nonnull align 8 %13, i8* align 1 getelementptr inbounds ([8 x i8], [8 x i8]* @.str.1, i64 0, i64 0), i64 7, i1 false) #14
  %16 = getelementptr inbounds i8, i8* %13, i64 7
  store i8 0, i8* %16, align 1
  call void @_ZNO8perfetto11TracedValue11WriteStringERKNSt3__112basic_stringIcNS1_11char_traitsIcEENS1_9allocatorIcEEEE(%"class.perfetto::TracedValue"* nonnull %7, %"class.std::__1::basic_string"* nonnull dereferenceable(24) %8) #14
  %17 = load i8, i8* %15, align 1
  %18 = icmp slt i8 %17, 0
  br i1 %18, label %19, label %22

19:                                               ; preds = %2
  %20 = getelementptr inbounds %"class.std::__1::basic_string", %"class.std::__1::basic_string"* %8, i64 0, i32 0, i32 0, i32 0, i32 0, i32 0, i32 0
  %21 = load i8*, i8** %20, align 8
  call void @_ZdlPv(i8* %21) #15
  br label %22

22:                                               ; preds = %2, %19
  call void @llvm.lifetime.end.p0i8(i64 24, i8* nonnull %13) #14
  call void @_ZN8perfetto16TracedDictionary7AddItemENS_12StaticStringE(%"class.perfetto::TracedValue"* nonnull sret %9, %"class.perfetto::TracedDictionary"* nonnull %6, i8* getelementptr inbounds ([14 x i8], [14 x i8]* @.str.37, i64 0, i64 0)) #14
  %23 = bitcast %"class.perfetto::TracedValue"* %9 to i8*
  %24 = getelementptr inbounds %"class.network::mojom::blink::CookieChangeInfo", %"class.network::mojom::blink::CookieChangeInfo"* %0, i64 0, i32 1, i32 0, i32 0, i32 0, i32 0
  %25 = load %"class.network::mojom::blink::CookieAccessResult"*, %"class.network::mojom::blink::CookieAccessResult"** %24, align 8
  %26 = bitcast %"class.perfetto::TracedValue"* %4 to i8*
  call void @llvm.lifetime.start.p0i8(i64 16, i8* nonnull %26) #14
  call void @llvm.memcpy.p0i8.p0i8.i64(i8* nonnull align 8 %26, i8* nonnull align 8 %23, i64 16, i1 false)
  %27 = icmp eq %"class.network::mojom::blink::CookieAccessResult"* %25, null
  br i1 %27, label %28, label %29

28:                                               ; preds = %22
  call void @_ZNO8perfetto11TracedValue12WritePointerEPKv(%"class.perfetto::TracedValue"* nonnull %4, i8* null) #14
  br label %31

29:                                               ; preds = %22
  %30 = bitcast %"class.perfetto::TracedValue"* %3 to i8*
  call void @llvm.lifetime.start.p0i8(i64 16, i8* nonnull %30) #14
  call void @llvm.memcpy.p0i8.p0i8.i64(i8* nonnull align 8 %30, i8* nonnull align 8 %26, i64 16, i1 false) #14
  call void @_ZNK7network5mojom5blink18CookieAccessResult14WriteIntoTraceEN8perfetto11TracedValueE(%"class.network::mojom::blink::CookieAccessResult"* nonnull %25, %"class.perfetto::TracedValue"* nonnull %3) #14
  call void @llvm.lifetime.end.p0i8(i64 16, i8* nonnull %30) #14
  br label %31

31:                                               ; preds = %28, %29
  call void @llvm.lifetime.end.p0i8(i64 16, i8* nonnull %26) #14
  call void @_ZN8perfetto16TracedDictionary7AddItemENS_12StaticStringE(%"class.perfetto::TracedValue"* nonnull sret %10, %"class.perfetto::TracedDictionary"* nonnull %6, i8* getelementptr inbounds ([6 x i8], [6 x i8]* @.str.43, i64 0, i64 0)) #14
  %32 = getelementptr inbounds %"class.network::mojom::blink::CookieChangeInfo", %"class.network::mojom::blink::CookieChangeInfo"* %0, i64 0, i32 2
  %33 = bitcast %"class.perfetto::TracedValue"* %10 to i8*
  %34 = bitcast %"class.perfetto::TracedValue"* %5 to i8*
  call void @llvm.lifetime.start.p0i8(i64 16, i8* nonnull %34) #14
  call void @llvm.memcpy.p0i8.p0i8.i64(i8* nonnull align 8 %34, i8* nonnull align 8 %33, i64 16, i1 false) #14
  %35 = load i32, i32* %32, align 4
  call void @_ZN8perfetto17TraceFormatTraitsIN7network5mojom17CookieChangeCauseEvE14WriteIntoTraceENS_11TracedValueES3_(%"class.perfetto::TracedValue"* nonnull %5, i32 %35) #14
  call void @llvm.lifetime.end.p0i8(i64 16, i8* nonnull %34) #14
  call void @llvm.lifetime.end.p0i8(i64 16, i8* nonnull %11) #14
  ret void
}

; Function Attrs: nounwind ssp uwtable
define hidden zeroext i1 @_ZN7network5mojom5blink16CookieChangeInfo8ValidateEPKvPN4mojo8internal17ValidationContextE(i8*, %"class.mojo::internal::ValidationContext"*) local_unnamed_addr #0 align 2 {
  %3 = tail call zeroext i1 @_ZN7network5mojom8internal21CookieChangeInfo_Data8ValidateEPKvPN4mojo8internal17ValidationContextE(i8* %0, %"class.mojo::internal::ValidationContext"* %1) #14
  ret i1 %3
}

declare zeroext i1 @_ZN7network5mojom8internal21CookieChangeInfo_Data8ValidateEPKvPN4mojo8internal17ValidationContextE(i8*, %"class.mojo::internal::ValidationContext"*) local_unnamed_addr #2

; Function Attrs: nounwind ssp uwtable
define hidden void @_ZN7network5mojom5blink20CookieDeletionFilterC2Ev(%"class.network::mojom::blink::CookieDeletionFilter"* nocapture) unnamed_addr #0 align 2 {
  %2 = getelementptr inbounds %"class.network::mojom::blink::CookieDeletionFilter", %"class.network::mojom::blink::CookieDeletionFilter"* %0, i64 0, i32 0, i32 0, i32 0, i32 0, i32 0
  store i8 0, i8* %2, align 8
  %3 = getelementptr inbounds %"class.network::mojom::blink::CookieDeletionFilter", %"class.network::mojom::blink::CookieDeletionFilter"* %0, i64 0, i32 1, i32 0, i32 0, i32 0, i32 0
  store i8 0, i8* %3, align 8
  %4 = getelementptr inbounds %"class.network::mojom::blink::CookieDeletionFilter", %"class.network::mojom::blink::CookieDeletionFilter"* %0, i64 0, i32 2, i32 0, i32 0, i32 0, i32 0
  store i8 0, i8* %4, align 8
  %5 = getelementptr inbounds %"class.network::mojom::blink::CookieDeletionFilter", %"class.network::mojom::blink::CookieDeletionFilter"* %0, i64 0, i32 3, i32 0, i32 0, i32 0, i32 0
  store i8 0, i8* %5, align 8
  %6 = getelementptr inbounds %"class.network::mojom::blink::CookieDeletionFilter", %"class.network::mojom::blink::CookieDeletionFilter"* %0, i64 0, i32 4
  %7 = getelementptr inbounds %"class.network::mojom::blink::CookieDeletionFilter", %"class.network::mojom::blink::CookieDeletionFilter"* %0, i64 0, i32 6, i32 0, i32 0, i32 0, i32 1, i32 0, i32 0
  %8 = bitcast %"class.WTF::String"* %6 to i8*
  call void @llvm.memset.p0i8.i64(i8* align 8 %8, i8 0, i64 17, i1 false)
  call void @llvm.memset.p0i8.i64(i8* align 8 %7, i8 0, i64 116, i1 false)
  ret void
}

; Function Attrs: nounwind ssp uwtable
define hidden void @_ZN7network5mojom5blink20CookieDeletionFilterC2EN4absl8optionalIN4base4TimeEEES7_NS4_IN3WTF6VectorINS8_6StringELj0ENS8_18PartitionAllocatorEEEEESD_RKSA_SF_RKNS4_IN5blink4KURLEEENS0_28CookieDeletionSessionControlE(%"class.network::mojom::blink::CookieDeletionFilter"*, i8, i64, i8, i64, %"class.absl::optional.103"* nocapture, %"class.absl::optional.103"* nocapture, %"class.WTF::String"* nocapture readonly dereferenceable(8), %"class.WTF::String"* nocapture readonly dereferenceable(8), %"class.absl::optional.108"* dereferenceable(120), i32) unnamed_addr #0 align 2 {
  %12 = getelementptr inbounds %"class.network::mojom::blink::CookieDeletionFilter", %"class.network::mojom::blink::CookieDeletionFilter"* %0, i64 0, i32 0, i32 0, i32 0, i32 0, i32 0
  store i8 %1, i8* %12, align 8
  %13 = getelementptr inbounds %"class.network::mojom::blink::CookieDeletionFilter", %"class.network::mojom::blink::CookieDeletionFilter"* %0, i64 0, i32 0, i32 0, i32 0, i32 0, i32 1, i32 0, i32 0, i32 0
  store i64 %2, i64* %13, align 8
  %14 = getelementptr inbounds %"class.network::mojom::blink::CookieDeletionFilter", %"class.network::mojom::blink::CookieDeletionFilter"* %0, i64 0, i32 1, i32 0, i32 0, i32 0, i32 0
  store i8 %3, i8* %14, align 8
  %15 = getelementptr inbounds %"class.network::mojom::blink::CookieDeletionFilter", %"class.network::mojom::blink::CookieDeletionFilter"* %0, i64 0, i32 1, i32 0, i32 0, i32 0, i32 1, i32 0, i32 0, i32 0
  store i64 %4, i64* %15, align 8
  %16 = getelementptr inbounds %"class.network::mojom::blink::CookieDeletionFilter", %"class.network::mojom::blink::CookieDeletionFilter"* %0, i64 0, i32 2, i32 0, i32 0, i32 0, i32 0
  %17 = getelementptr inbounds %"class.absl::optional.103", %"class.absl::optional.103"* %5, i64 0, i32 0, i32 0, i32 0, i32 0
  tail call void @llvm.memset.p0i8.i64(i8* align 8 %16, i8 0, i64 24, i1 false) #14
  %18 = load i8, i8* %17, align 8, !range !4
  %19 = icmp eq i8 %18, 0
  br i1 %19, label %35, label %20

20:                                               ; preds = %11
  %21 = getelementptr inbounds %"class.absl::optional.103", %"class.absl::optional.103"* %5, i64 0, i32 0, i32 0, i32 0, i32 1, i32 0
  %22 = getelementptr inbounds %"class.network::mojom::blink::CookieDeletionFilter", %"class.network::mojom::blink::CookieDeletionFilter"* %0, i64 0, i32 2, i32 0, i32 0, i32 0, i32 1, i32 0
  %23 = getelementptr inbounds %"class.network::mojom::blink::CookieDeletionFilter", %"class.network::mojom::blink::CookieDeletionFilter"* %0, i64 0, i32 2, i32 0, i32 0, i32 0, i32 1, i32 0, i32 0, i32 0, i32 1
  %24 = getelementptr inbounds %"class.network::mojom::blink::CookieDeletionFilter", %"class.network::mojom::blink::CookieDeletionFilter"* %0, i64 0, i32 2, i32 0, i32 0, i32 0, i32 1, i32 0, i32 0, i32 0, i32 2
  %25 = bitcast %"class.WTF::Vector.46"* %21 to i64*
  %26 = bitcast %"class.WTF::Vector.46"* %22 to i8*
  tail call void @llvm.memset.p0i8.i64(i8* align 8 %26, i8 0, i64 16, i1 false) #14
  %27 = load i64, i64* %25, align 8
  %28 = bitcast %"class.WTF::Vector.46"* %22 to i64*
  store atomic i64 0, i64* %25 monotonic, align 8
  store atomic i64 %27, i64* %28 monotonic, align 8
  %29 = getelementptr inbounds %"class.absl::optional.103", %"class.absl::optional.103"* %5, i64 0, i32 0, i32 0, i32 0, i32 1, i32 0, i32 0, i32 0, i32 1
  %30 = load i32, i32* %23, align 4
  %31 = load i32, i32* %29, align 4
  store i32 %31, i32* %23, align 4
  store i32 %30, i32* %29, align 4
  %32 = getelementptr inbounds %"class.absl::optional.103", %"class.absl::optional.103"* %5, i64 0, i32 0, i32 0, i32 0, i32 1, i32 0, i32 0, i32 0, i32 2
  %33 = load i32, i32* %24, align 4
  %34 = load i32, i32* %32, align 4
  store i32 %34, i32* %24, align 4
  store i32 %33, i32* %32, align 4
  store i8 1, i8* %16, align 8
  br label %35

35:                                               ; preds = %11, %20
  %36 = getelementptr inbounds %"class.network::mojom::blink::CookieDeletionFilter", %"class.network::mojom::blink::CookieDeletionFilter"* %0, i64 0, i32 3, i32 0, i32 0, i32 0, i32 0
  %37 = getelementptr inbounds %"class.absl::optional.103", %"class.absl::optional.103"* %6, i64 0, i32 0, i32 0, i32 0, i32 0
  tail call void @llvm.memset.p0i8.i64(i8* align 8 %36, i8 0, i64 24, i1 false) #14
  %38 = load i8, i8* %37, align 8, !range !4
  %39 = icmp eq i8 %38, 0
  br i1 %39, label %55, label %40

40:                                               ; preds = %35
  %41 = getelementptr inbounds %"class.absl::optional.103", %"class.absl::optional.103"* %6, i64 0, i32 0, i32 0, i32 0, i32 1, i32 0
  %42 = getelementptr inbounds %"class.network::mojom::blink::CookieDeletionFilter", %"class.network::mojom::blink::CookieDeletionFilter"* %0, i64 0, i32 3, i32 0, i32 0, i32 0, i32 1, i32 0
  %43 = getelementptr inbounds %"class.network::mojom::blink::CookieDeletionFilter", %"class.network::mojom::blink::CookieDeletionFilter"* %0, i64 0, i32 3, i32 0, i32 0, i32 0, i32 1, i32 0, i32 0, i32 0, i32 1
  %44 = getelementptr inbounds %"class.network::mojom::blink::CookieDeletionFilter", %"class.network::mojom::blink::CookieDeletionFilter"* %0, i64 0, i32 3, i32 0, i32 0, i32 0, i32 1, i32 0, i32 0, i32 0, i32 2
  %45 = bitcast %"class.WTF::Vector.46"* %41 to i64*
  %46 = bitcast %"class.WTF::Vector.46"* %42 to i8*
  tail call void @llvm.memset.p0i8.i64(i8* align 8 %46, i8 0, i64 16, i1 false) #14
  %47 = load i64, i64* %45, align 8
  %48 = bitcast %"class.WTF::Vector.46"* %42 to i64*
  store atomic i64 0, i64* %45 monotonic, align 8
  store atomic i64 %47, i64* %48 monotonic, align 8
  %49 = getelementptr inbounds %"class.absl::optional.103", %"class.absl::optional.103"* %6, i64 0, i32 0, i32 0, i32 0, i32 1, i32 0, i32 0, i32 0, i32 1
  %50 = load i32, i32* %43, align 4
  %51 = load i32, i32* %49, align 4
  store i32 %51, i32* %43, align 4
  store i32 %50, i32* %49, align 4
  %52 = getelementptr inbounds %"class.absl::optional.103", %"class.absl::optional.103"* %6, i64 0, i32 0, i32 0, i32 0, i32 1, i32 0, i32 0, i32 0, i32 2
  %53 = load i32, i32* %44, align 4
  %54 = load i32, i32* %52, align 4
  store i32 %54, i32* %44, align 4
  store i32 %53, i32* %52, align 4
  store i8 1, i8* %36, align 8
  br label %55

55:                                               ; preds = %35, %40
  %56 = getelementptr inbounds %"class.WTF::String", %"class.WTF::String"* %7, i64 0, i32 0, i32 0
  %57 = load %"class.WTF::StringImpl"*, %"class.WTF::StringImpl"** %56, align 8
  %58 = getelementptr inbounds %"class.network::mojom::blink::CookieDeletionFilter", %"class.network::mojom::blink::CookieDeletionFilter"* %0, i64 0, i32 4, i32 0, i32 0
  store %"class.WTF::StringImpl"* %57, %"class.WTF::StringImpl"** %58, align 8
  %59 = icmp eq %"class.WTF::StringImpl"* %57, null
  br i1 %59, label %77, label %60

60:                                               ; preds = %55
  %61 = getelementptr inbounds %"class.WTF::StringImpl", %"class.WTF::StringImpl"* %57, i64 0, i32 2, i32 0, i32 0, i32 0, i32 0, i32 0
  %62 = load atomic i32, i32* %61 monotonic, align 4
  %63 = and i32 %62, 2
  %64 = icmp eq i32 %63, 0
  br i1 %64, label %65, label %77

65:                                               ; preds = %60
  %66 = getelementptr inbounds %"class.WTF::StringImpl", %"class.WTF::StringImpl"* %57, i64 0, i32 0
  %67 = load i32, i32* %66, align 4
  %68 = zext i32 %67 to i33
  %69 = tail call { i33, i1 } @llvm.sadd.with.overflow.i33(i33 %68, i33 1) #14
  %70 = extractvalue { i33, i1 } %69, 1
  %71 = extractvalue { i33, i1 } %69, 0
  %72 = icmp slt i33 %71, 0
  %73 = or i1 %70, %72
  br i1 %73, label %74, label %75, !prof !3

74:                                               ; preds = %65
  tail call void @llvm.trap() #14
  unreachable

75:                                               ; preds = %65
  %76 = trunc i33 %71 to i32
  store i32 %76, i32* %66, align 4
  br label %77

77:                                               ; preds = %55, %60, %75
  %78 = getelementptr inbounds %"class.WTF::String", %"class.WTF::String"* %8, i64 0, i32 0, i32 0
  %79 = load %"class.WTF::StringImpl"*, %"class.WTF::StringImpl"** %78, align 8
  %80 = getelementptr inbounds %"class.network::mojom::blink::CookieDeletionFilter", %"class.network::mojom::blink::CookieDeletionFilter"* %0, i64 0, i32 5, i32 0, i32 0
  store %"class.WTF::StringImpl"* %79, %"class.WTF::StringImpl"** %80, align 8
  %81 = icmp eq %"class.WTF::StringImpl"* %79, null
  br i1 %81, label %99, label %82

82:                                               ; preds = %77
  %83 = getelementptr inbounds %"class.WTF::StringImpl", %"class.WTF::StringImpl"* %79, i64 0, i32 2, i32 0, i32 0, i32 0, i32 0, i32 0
  %84 = load atomic i32, i32* %83 monotonic, align 4
  %85 = and i32 %84, 2
  %86 = icmp eq i32 %85, 0
  br i1 %86, label %87, label %99

87:                                               ; preds = %82
  %88 = getelementptr inbounds %"class.WTF::StringImpl", %"class.WTF::StringImpl"* %79, i64 0, i32 0
  %89 = load i32, i32* %88, align 4
  %90 = zext i32 %89 to i33
  %91 = tail call { i33, i1 } @llvm.sadd.with.overflow.i33(i33 %90, i33 1) #14
  %92 = extractvalue { i33, i1 } %91, 1
  %93 = extractvalue { i33, i1 } %91, 0
  %94 = icmp slt i33 %93, 0
  %95 = or i1 %92, %94
  br i1 %95, label %96, label %97, !prof !3

96:                                               ; preds = %87
  tail call void @llvm.trap() #14
  unreachable

97:                                               ; preds = %87
  %98 = trunc i33 %93 to i32
  store i32 %98, i32* %88, align 4
  br label %99

99:                                               ; preds = %77, %82, %97
  %100 = getelementptr inbounds %"class.network::mojom::blink::CookieDeletionFilter", %"class.network::mojom::blink::CookieDeletionFilter"* %0, i64 0, i32 6, i32 0, i32 0, i32 0, i32 0
  %101 = getelementptr inbounds %"class.absl::optional.108", %"class.absl::optional.108"* %9, i64 0, i32 0, i32 0, i32 0, i32 0
  tail call void @llvm.memset.p0i8.i64(i8* align 8 %100, i8 0, i64 120, i1 false) #14
  %102 = load i8, i8* %101, align 8, !range !4
  %103 = icmp eq i8 %102, 0
  br i1 %103, label %108, label %104

104:                                              ; preds = %99
  %105 = getelementptr inbounds %"class.network::mojom::blink::CookieDeletionFilter", %"class.network::mojom::blink::CookieDeletionFilter"* %0, i64 0, i32 6, i32 0, i32 0, i32 0, i32 1, i32 0, i32 0
  %106 = getelementptr inbounds %"class.absl::optional.108", %"class.absl::optional.108"* %9, i64 0, i32 0, i32 0, i32 0, i32 1, i32 0
  %107 = bitcast i8* %105 to %"class.blink::KURL"*
  tail call void @_ZN5blink4KURLC1ERKS0_(%"class.blink::KURL"* %107, %"class.blink::KURL"* dereferenceable(112) %106) #14
  store i8 1, i8* %100, align 8
  br label %108

108:                                              ; preds = %99, %104
  %109 = getelementptr inbounds %"class.network::mojom::blink::CookieDeletionFilter", %"class.network::mojom::blink::CookieDeletionFilter"* %0, i64 0, i32 7
  store i32 %10, i32* %109, align 8
  ret void
}

; Function Attrs: nounwind ssp uwtable
define hidden void @_ZN7network5mojom5blink20CookieDeletionFilterD2Ev(%"class.network::mojom::blink::CookieDeletionFilter"*) unnamed_addr #0 align 2 {
  %2 = getelementptr inbounds %"class.network::mojom::blink::CookieDeletionFilter", %"class.network::mojom::blink::CookieDeletionFilter"* %0, i64 0, i32 6, i32 0, i32 0, i32 0, i32 0
  %3 = load i8, i8* %2, align 8, !range !4
  %4 = icmp eq i8 %3, 0
  br i1 %4, label %7, label %5

5:                                                ; preds = %1
  %6 = getelementptr inbounds %"class.network::mojom::blink::CookieDeletionFilter", %"class.network::mojom::blink::CookieDeletionFilter"* %0, i64 0, i32 6, i32 0, i32 0, i32 0, i32 1, i32 0
  tail call void @_ZN5blink4KURLD1Ev(%"class.blink::KURL"* %6) #14
  store i8 0, i8* %2, align 8
  br label %7

7:                                                ; preds = %1, %5
  %8 = getelementptr inbounds %"class.network::mojom::blink::CookieDeletionFilter", %"class.network::mojom::blink::CookieDeletionFilter"* %0, i64 0, i32 5, i32 0, i32 0
  %9 = load %"class.WTF::StringImpl"*, %"class.WTF::StringImpl"** %8, align 8
  %10 = icmp eq %"class.WTF::StringImpl"* %9, null
  br i1 %10, label %24, label %11

11:                                               ; preds = %7
  %12 = getelementptr inbounds %"class.WTF::StringImpl", %"class.WTF::StringImpl"* %9, i64 0, i32 2, i32 0, i32 0, i32 0, i32 0, i32 0
  %13 = load atomic i32, i32* %12 monotonic, align 4
  %14 = and i32 %13, 2
  %15 = icmp eq i32 %14, 0
  %16 = getelementptr inbounds %"class.WTF::StringImpl", %"class.WTF::StringImpl"* %9, i64 0, i32 0
  %17 = load i32, i32* %16, align 4
  br i1 %15, label %18, label %20

18:                                               ; preds = %11
  %19 = add i32 %17, -1
  store i32 %19, i32* %16, align 4
  br label %20

20:                                               ; preds = %18, %11
  %21 = phi i32 [ %19, %18 ], [ %17, %11 ]
  %22 = icmp eq i32 %21, 0
  br i1 %22, label %23, label %24

23:                                               ; preds = %20
  tail call void @_ZNK3WTF10StringImpl18DestroyIfNotStaticEv(%"class.WTF::StringImpl"* nonnull %9) #14
  br label %24

24:                                               ; preds = %7, %20, %23
  %25 = getelementptr inbounds %"class.network::mojom::blink::CookieDeletionFilter", %"class.network::mojom::blink::CookieDeletionFilter"* %0, i64 0, i32 4, i32 0, i32 0
  %26 = load %"class.WTF::StringImpl"*, %"class.WTF::StringImpl"** %25, align 8
  %27 = icmp eq %"class.WTF::StringImpl"* %26, null
  br i1 %27, label %41, label %28

28:                                               ; preds = %24
  %29 = getelementptr inbounds %"class.WTF::StringImpl", %"class.WTF::StringImpl"* %26, i64 0, i32 2, i32 0, i32 0, i32 0, i32 0, i32 0
  %30 = load atomic i32, i32* %29 monotonic, align 4
  %31 = and i32 %30, 2
  %32 = icmp eq i32 %31, 0
  %33 = getelementptr inbounds %"class.WTF::StringImpl", %"class.WTF::StringImpl"* %26, i64 0, i32 0
  %34 = load i32, i32* %33, align 4
  br i1 %32, label %35, label %37

35:                                               ; preds = %28
  %36 = add i32 %34, -1
  store i32 %36, i32* %33, align 4
  br label %37

37:                                               ; preds = %35, %28
  %38 = phi i32 [ %36, %35 ], [ %34, %28 ]
  %39 = icmp eq i32 %38, 0
  br i1 %39, label %40, label %41

40:                                               ; preds = %37
  tail call void @_ZNK3WTF10StringImpl18DestroyIfNotStaticEv(%"class.WTF::StringImpl"* nonnull %26) #14
  br label %41

41:                                               ; preds = %24, %37, %40
  %42 = getelementptr inbounds %"class.network::mojom::blink::CookieDeletionFilter", %"class.network::mojom::blink::CookieDeletionFilter"* %0, i64 0, i32 3, i32 0, i32 0, i32 0, i32 0
  %43 = load i8, i8* %42, align 8, !range !4
  %44 = icmp eq i8 %43, 0
  br i1 %44, label %85, label %45

45:                                               ; preds = %41
  %46 = getelementptr inbounds %"class.network::mojom::blink::CookieDeletionFilter", %"class.network::mojom::blink::CookieDeletionFilter"* %0, i64 0, i32 3, i32 0, i32 0, i32 0, i32 1, i32 0
  %47 = getelementptr inbounds %"class.WTF::Vector.46", %"class.WTF::Vector.46"* %46, i64 0, i32 0, i32 0, i32 0
  %48 = load %"class.WTF::String"*, %"class.WTF::String"** %47, align 8
  %49 = icmp eq %"class.WTF::String"* %48, null
  br i1 %49, label %84, label %50, !prof !2

50:                                               ; preds = %45
  %51 = bitcast %"class.WTF::String"* %48 to i8*
  %52 = getelementptr inbounds %"class.network::mojom::blink::CookieDeletionFilter", %"class.network::mojom::blink::CookieDeletionFilter"* %0, i64 0, i32 3, i32 0, i32 0, i32 0, i32 1, i32 0, i32 0, i32 0, i32 2
  %53 = load i32, i32* %52, align 4
  %54 = icmp eq i32 %53, 0
  br i1 %54, label %82, label %55, !prof !3

55:                                               ; preds = %50
  %56 = zext i32 %53 to i64
  %57 = getelementptr inbounds %"class.WTF::String", %"class.WTF::String"* %48, i64 %56
  br label %58

58:                                               ; preds = %76, %55
  %59 = phi %"class.WTF::String"* [ %77, %76 ], [ %48, %55 ]
  %60 = getelementptr inbounds %"class.WTF::String", %"class.WTF::String"* %59, i64 0, i32 0, i32 0
  %61 = load %"class.WTF::StringImpl"*, %"class.WTF::StringImpl"** %60, align 8
  %62 = icmp eq %"class.WTF::StringImpl"* %61, null
  br i1 %62, label %76, label %63

63:                                               ; preds = %58
  %64 = getelementptr inbounds %"class.WTF::StringImpl", %"class.WTF::StringImpl"* %61, i64 0, i32 2, i32 0, i32 0, i32 0, i32 0, i32 0
  %65 = load atomic i32, i32* %64 monotonic, align 4
  %66 = and i32 %65, 2
  %67 = icmp eq i32 %66, 0
  %68 = getelementptr inbounds %"class.WTF::StringImpl", %"class.WTF::StringImpl"* %61, i64 0, i32 0
  %69 = load i32, i32* %68, align 4
  br i1 %67, label %70, label %72

70:                                               ; preds = %63
  %71 = add i32 %69, -1
  store i32 %71, i32* %68, align 4
  br label %72

72:                                               ; preds = %70, %63
  %73 = phi i32 [ %71, %70 ], [ %69, %63 ]
  %74 = icmp eq i32 %73, 0
  br i1 %74, label %75, label %76

75:                                               ; preds = %72
  tail call void @_ZNK3WTF10StringImpl18DestroyIfNotStaticEv(%"class.WTF::StringImpl"* nonnull %61) #14
  br label %76

76:                                               ; preds = %75, %72, %58
  %77 = getelementptr inbounds %"class.WTF::String", %"class.WTF::String"* %59, i64 1
  %78 = icmp eq %"class.WTF::String"* %77, %57
  br i1 %78, label %79, label %58

79:                                               ; preds = %76
  store i32 0, i32* %52, align 4
  %80 = bitcast %"class.WTF::Vector.46"* %46 to i8**
  %81 = load i8*, i8** %80, align 8
  br label %82

82:                                               ; preds = %79, %50
  %83 = phi i8* [ %81, %79 ], [ %51, %50 ]
  tail call void @_ZN3WTF18PartitionAllocator11FreeBackingEPv(i8* %83) #14
  store %"class.WTF::String"* null, %"class.WTF::String"** %47, align 8
  br label %84

84:                                               ; preds = %82, %45
  store i8 0, i8* %42, align 8
  br label %85

85:                                               ; preds = %41, %84
  %86 = getelementptr inbounds %"class.network::mojom::blink::CookieDeletionFilter", %"class.network::mojom::blink::CookieDeletionFilter"* %0, i64 0, i32 2, i32 0, i32 0, i32 0, i32 0
  %87 = load i8, i8* %86, align 8, !range !4
  %88 = icmp eq i8 %87, 0
  br i1 %88, label %129, label %89

89:                                               ; preds = %85
  %90 = getelementptr inbounds %"class.network::mojom::blink::CookieDeletionFilter", %"class.network::mojom::blink::CookieDeletionFilter"* %0, i64 0, i32 2, i32 0, i32 0, i32 0, i32 1, i32 0
  %91 = getelementptr inbounds %"class.WTF::Vector.46", %"class.WTF::Vector.46"* %90, i64 0, i32 0, i32 0, i32 0
  %92 = load %"class.WTF::String"*, %"class.WTF::String"** %91, align 8
  %93 = icmp eq %"class.WTF::String"* %92, null
  br i1 %93, label %128, label %94, !prof !2

94:                                               ; preds = %89
  %95 = bitcast %"class.WTF::String"* %92 to i8*
  %96 = getelementptr inbounds %"class.network::mojom::blink::CookieDeletionFilter", %"class.network::mojom::blink::CookieDeletionFilter"* %0, i64 0, i32 2, i32 0, i32 0, i32 0, i32 1, i32 0, i32 0, i32 0, i32 2
  %97 = load i32, i32* %96, align 4
  %98 = icmp eq i32 %97, 0
  br i1 %98, label %126, label %99, !prof !3

99:                                               ; preds = %94
  %100 = zext i32 %97 to i64
  %101 = getelementptr inbounds %"class.WTF::String", %"class.WTF::String"* %92, i64 %100
  br label %102

102:                                              ; preds = %120, %99
  %103 = phi %"class.WTF::String"* [ %121, %120 ], [ %92, %99 ]
  %104 = getelementptr inbounds %"class.WTF::String", %"class.WTF::String"* %103, i64 0, i32 0, i32 0
  %105 = load %"class.WTF::StringImpl"*, %"class.WTF::StringImpl"** %104, align 8
  %106 = icmp eq %"class.WTF::StringImpl"* %105, null
  br i1 %106, label %120, label %107

107:                                              ; preds = %102
  %108 = getelementptr inbounds %"class.WTF::StringImpl", %"class.WTF::StringImpl"* %105, i64 0, i32 2, i32 0, i32 0, i32 0, i32 0, i32 0
  %109 = load atomic i32, i32* %108 monotonic, align 4
  %110 = and i32 %109, 2
  %111 = icmp eq i32 %110, 0
  %112 = getelementptr inbounds %"class.WTF::StringImpl", %"class.WTF::StringImpl"* %105, i64 0, i32 0
  %113 = load i32, i32* %112, align 4
  br i1 %111, label %114, label %116

114:                                              ; preds = %107
  %115 = add i32 %113, -1
  store i32 %115, i32* %112, align 4
  br label %116

116:                                              ; preds = %114, %107
  %117 = phi i32 [ %115, %114 ], [ %113, %107 ]
  %118 = icmp eq i32 %117, 0
  br i1 %118, label %119, label %120

119:                                              ; preds = %116
  tail call void @_ZNK3WTF10StringImpl18DestroyIfNotStaticEv(%"class.WTF::StringImpl"* nonnull %105) #14
  br label %120

120:                                              ; preds = %119, %116, %102
  %121 = getelementptr inbounds %"class.WTF::String", %"class.WTF::String"* %103, i64 1
  %122 = icmp eq %"class.WTF::String"* %121, %101
  br i1 %122, label %123, label %102

123:                                              ; preds = %120
  store i32 0, i32* %96, align 4
  %124 = bitcast %"class.WTF::Vector.46"* %90 to i8**
  %125 = load i8*, i8** %124, align 8
  br label %126

126:                                              ; preds = %123, %94
  %127 = phi i8* [ %125, %123 ], [ %95, %94 ]
  tail call void @_ZN3WTF18PartitionAllocator11FreeBackingEPv(i8* %127) #14
  store %"class.WTF::String"* null, %"class.WTF::String"** %91, align 8
  br label %128

128:                                              ; preds = %126, %89
  store i8 0, i8* %86, align 8
  br label %129

129:                                              ; preds = %85, %128
  ret void
}

; Function Attrs: nounwind ssp uwtable
define hidden void @_ZNK7network5mojom5blink20CookieDeletionFilter14WriteIntoTraceEN8perfetto11TracedValueE(%"class.network::mojom::blink::CookieDeletionFilter"*, %"class.perfetto::TracedValue"*) local_unnamed_addr #0 align 2 {
  %3 = alloca %"class.perfetto::TracedValue", align 8
  %4 = alloca %"class.perfetto::TracedValue", align 8
  %5 = alloca %"class.perfetto::TracedValue", align 8
  %6 = alloca %"class.perfetto::TracedValue", align 8
  %7 = alloca %"class.perfetto::TracedValue", align 8
  %8 = alloca %"class.perfetto::TracedValue", align 8
  %9 = alloca %"class.perfetto::TracedArray", align 8
  %10 = alloca %"class.perfetto::TracedValue", align 8
  %11 = alloca %"class.perfetto::TracedValue", align 8
  %12 = alloca %"class.perfetto::TracedValue", align 8
  %13 = alloca %"class.perfetto::TracedValue", align 8
  %14 = alloca %"class.perfetto::TracedArray", align 8
  %15 = alloca %"class.perfetto::TracedValue", align 8
  %16 = alloca %"class.perfetto::TracedValue", align 8
  %17 = alloca %"class.perfetto::TracedValue", align 8
  %18 = alloca %"class.perfetto::TracedValue", align 8
  %19 = alloca %"class.perfetto::TracedValue", align 8
  %20 = alloca %"class.perfetto::TracedValue", align 8
  %21 = alloca %"class.perfetto::TracedValue", align 8
  %22 = alloca %"class.perfetto::TracedDictionary", align 8
  %23 = alloca %"class.perfetto::TracedValue", align 8
  %24 = alloca %"class.perfetto::TracedValue", align 8
  %25 = alloca %"class.perfetto::TracedValue", align 8
  %26 = alloca %"class.perfetto::TracedValue", align 8
  %27 = alloca %"class.perfetto::TracedValue", align 8
  %28 = alloca %"class.perfetto::TracedValue", align 8
  %29 = alloca %"class.perfetto::TracedValue", align 8
  %30 = alloca %"class.perfetto::TracedValue", align 8
  %31 = bitcast %"class.perfetto::TracedDictionary"* %22 to i8*
  call void @llvm.lifetime.start.p0i8(i64 16, i8* nonnull %31) #14
  %32 = bitcast %"class.perfetto::TracedDictionary"* %22 to i8*
  call void @llvm.memset.p0i8.i64(i8* nonnull align 8 %32, i8 -86, i64 16, i1 false)
  call void @_ZNO8perfetto11TracedValue15WriteDictionaryEv(%"class.perfetto::TracedDictionary"* nonnull sret %22, %"class.perfetto::TracedValue"* %1) #14
  call void @_ZN8perfetto16TracedDictionary7AddItemENS_12StaticStringE(%"class.perfetto::TracedValue"* nonnull sret %23, %"class.perfetto::TracedDictionary"* nonnull %22, i8* getelementptr inbounds ([19 x i8], [19 x i8]* @.str.44, i64 0, i64 0)) #14
  %33 = bitcast %"class.perfetto::TracedValue"* %23 to i8*
  %34 = bitcast %"class.perfetto::TracedValue"* %20 to i8*
  call void @llvm.lifetime.start.p0i8(i64 16, i8* nonnull %34) #14
  call void @llvm.memcpy.p0i8.p0i8.i64(i8* nonnull align 8 %34, i8* nonnull align 8 %33, i64 16, i1 false) #14
  %35 = getelementptr inbounds %"class.network::mojom::blink::CookieDeletionFilter", %"class.network::mojom::blink::CookieDeletionFilter"* %0, i64 0, i32 0, i32 0, i32 0, i32 0, i32 0
  %36 = load i8, i8* %35, align 8, !range !4
  %37 = icmp eq i8 %36, 0
  br i1 %37, label %38, label %39

38:                                               ; preds = %2
  call void @_ZNO8perfetto11TracedValue12WritePointerEPKv(%"class.perfetto::TracedValue"* nonnull %20, i8* null) #14
  br label %43

39:                                               ; preds = %2
  %40 = getelementptr inbounds %"class.network::mojom::blink::CookieDeletionFilter", %"class.network::mojom::blink::CookieDeletionFilter"* %0, i64 0, i32 0, i32 0, i32 0, i32 0, i32 1, i32 0, i32 0, i32 0
  %41 = load i64, i64* %40, align 8
  %42 = bitcast %"class.perfetto::TracedValue"* %19 to i8*
  call void @llvm.lifetime.start.p0i8(i64 16, i8* nonnull %42) #14
  call void @llvm.memcpy.p0i8.p0i8.i64(i8* nonnull align 8 %42, i8* nonnull align 8 %34, i64 16, i1 false) #14
  call void @_ZNO8perfetto11TracedValue11WriteUInt64Em(%"class.perfetto::TracedValue"* nonnull %19, i64 %41) #14
  call void @llvm.lifetime.end.p0i8(i64 16, i8* nonnull %42) #14
  br label %43

43:                                               ; preds = %39, %38
  call void @llvm.lifetime.end.p0i8(i64 16, i8* nonnull %34) #14
  call void @_ZN8perfetto16TracedDictionary7AddItemENS_12StaticStringE(%"class.perfetto::TracedValue"* nonnull sret %24, %"class.perfetto::TracedDictionary"* nonnull %22, i8* getelementptr inbounds ([20 x i8], [20 x i8]* @.str.45, i64 0, i64 0)) #14
  %44 = bitcast %"class.perfetto::TracedValue"* %24 to i8*
  %45 = bitcast %"class.perfetto::TracedValue"* %18 to i8*
  call void @llvm.lifetime.start.p0i8(i64 16, i8* nonnull %45) #14
  call void @llvm.memcpy.p0i8.p0i8.i64(i8* nonnull align 8 %45, i8* nonnull align 8 %44, i64 16, i1 false) #14
  %46 = getelementptr inbounds %"class.network::mojom::blink::CookieDeletionFilter", %"class.network::mojom::blink::CookieDeletionFilter"* %0, i64 0, i32 1, i32 0, i32 0, i32 0, i32 0
  %47 = load i8, i8* %46, align 8, !range !4
  %48 = icmp eq i8 %47, 0
  br i1 %48, label %49, label %50

49:                                               ; preds = %43
  call void @_ZNO8perfetto11TracedValue12WritePointerEPKv(%"class.perfetto::TracedValue"* nonnull %18, i8* null) #14
  br label %54

50:                                               ; preds = %43
  %51 = getelementptr inbounds %"class.network::mojom::blink::CookieDeletionFilter", %"class.network::mojom::blink::CookieDeletionFilter"* %0, i64 0, i32 1, i32 0, i32 0, i32 0, i32 1, i32 0, i32 0, i32 0
  %52 = load i64, i64* %51, align 8
  %53 = bitcast %"class.perfetto::TracedValue"* %17 to i8*
  call void @llvm.lifetime.start.p0i8(i64 16, i8* nonnull %53) #14
  call void @llvm.memcpy.p0i8.p0i8.i64(i8* nonnull align 8 %53, i8* nonnull align 8 %45, i64 16, i1 false) #14
  call void @_ZNO8perfetto11TracedValue11WriteUInt64Em(%"class.perfetto::TracedValue"* nonnull %17, i64 %52) #14
  call void @llvm.lifetime.end.p0i8(i64 16, i8* nonnull %53) #14
  br label %54

54:                                               ; preds = %50, %49
  call void @llvm.lifetime.end.p0i8(i64 16, i8* nonnull %45) #14
  call void @_ZN8perfetto16TracedDictionary7AddItemENS_12StaticStringE(%"class.perfetto::TracedValue"* nonnull sret %25, %"class.perfetto::TracedDictionary"* nonnull %22, i8* getelementptr inbounds ([18 x i8], [18 x i8]* @.str.46, i64 0, i64 0)) #14
  %55 = bitcast %"class.perfetto::TracedValue"* %25 to i8*
  %56 = bitcast %"class.perfetto::TracedValue"* %16 to i8*
  call void @llvm.lifetime.start.p0i8(i64 16, i8* nonnull %56) #14
  call void @llvm.memcpy.p0i8.p0i8.i64(i8* nonnull align 8 %56, i8* nonnull align 8 %55, i64 16, i1 false) #14
  %57 = getelementptr inbounds %"class.network::mojom::blink::CookieDeletionFilter", %"class.network::mojom::blink::CookieDeletionFilter"* %0, i64 0, i32 2, i32 0, i32 0, i32 0, i32 0
  %58 = load i8, i8* %57, align 8, !range !4
  %59 = icmp eq i8 %58, 0
  br i1 %59, label %60, label %61

60:                                               ; preds = %54
  call void @_ZNO8perfetto11TracedValue12WritePointerEPKv(%"class.perfetto::TracedValue"* nonnull %16, i8* null) #14
  br label %79

61:                                               ; preds = %54
  %62 = bitcast %"class.perfetto::TracedValue"* %15 to i8*
  call void @llvm.lifetime.start.p0i8(i64 16, i8* nonnull %62) #14
  call void @llvm.memcpy.p0i8.p0i8.i64(i8* nonnull align 8 %62, i8* nonnull align 8 %56, i64 16, i1 false) #14
  %63 = bitcast %"class.perfetto::TracedArray"* %14 to i8*
  call void @llvm.lifetime.start.p0i8(i64 16, i8* nonnull %63) #14
  call void @llvm.memset.p0i8.i64(i8* nonnull align 8 %63, i8 -86, i64 16, i1 false) #14
  call void @_ZNO8perfetto11TracedValue10WriteArrayEv(%"class.perfetto::TracedArray"* nonnull sret %14, %"class.perfetto::TracedValue"* nonnull %15) #14
  %64 = getelementptr inbounds %"class.network::mojom::blink::CookieDeletionFilter", %"class.network::mojom::blink::CookieDeletionFilter"* %0, i64 0, i32 2, i32 0, i32 0, i32 0, i32 1, i32 0, i32 0, i32 0, i32 0
  %65 = load %"class.WTF::String"*, %"class.WTF::String"** %64, align 8
  %66 = getelementptr inbounds %"class.network::mojom::blink::CookieDeletionFilter", %"class.network::mojom::blink::CookieDeletionFilter"* %0, i64 0, i32 2, i32 0, i32 0, i32 0, i32 1, i32 0, i32 0, i32 0, i32 2
  %67 = load i32, i32* %66, align 4
  %68 = zext i32 %67 to i64
  %69 = getelementptr inbounds %"class.WTF::String", %"class.WTF::String"* %65, i64 %68
  %70 = icmp eq i32 %67, 0
  br i1 %70, label %78, label %71

71:                                               ; preds = %61
  %72 = bitcast %"class.perfetto::TracedValue"* %13 to i8*
  %73 = bitcast %"class.perfetto::TracedValue"* %12 to i8*
  br label %74

74:                                               ; preds = %74, %71
  %75 = phi %"class.WTF::String"* [ %65, %71 ], [ %76, %74 ]
  call void @llvm.lifetime.start.p0i8(i64 16, i8* nonnull %72) #14
  call void @_ZN8perfetto11TracedArray10AppendItemEv(%"class.perfetto::TracedValue"* nonnull sret %13, %"class.perfetto::TracedArray"* nonnull %14) #14
  call void @llvm.lifetime.start.p0i8(i64 16, i8* nonnull %73) #14
  call void @llvm.memcpy.p0i8.p0i8.i64(i8* nonnull align 8 %73, i8* nonnull align 8 %72, i64 16, i1 false) #14
  call void @_ZNK3WTF6String14WriteIntoTraceEN8perfetto11TracedValueE(%"class.WTF::String"* %75, %"class.perfetto::TracedValue"* nonnull %12) #14
  call void @llvm.lifetime.end.p0i8(i64 16, i8* nonnull %73) #14
  call void @llvm.lifetime.end.p0i8(i64 16, i8* nonnull %72) #14
  %76 = getelementptr inbounds %"class.WTF::String", %"class.WTF::String"* %75, i64 1
  %77 = icmp eq %"class.WTF::String"* %76, %69
  br i1 %77, label %78, label %74

78:                                               ; preds = %74, %61
  call void @llvm.lifetime.end.p0i8(i64 16, i8* nonnull %63) #14
  call void @llvm.lifetime.end.p0i8(i64 16, i8* nonnull %62) #14
  br label %79

79:                                               ; preds = %78, %60
  call void @llvm.lifetime.end.p0i8(i64 16, i8* nonnull %56) #14
  call void @_ZN8perfetto16TracedDictionary7AddItemENS_12StaticStringE(%"class.perfetto::TracedValue"* nonnull sret %26, %"class.perfetto::TracedDictionary"* nonnull %22, i8* getelementptr inbounds ([18 x i8], [18 x i8]* @.str.47, i64 0, i64 0)) #14
  %80 = bitcast %"class.perfetto::TracedValue"* %26 to i8*
  %81 = bitcast %"class.perfetto::TracedValue"* %11 to i8*
  call void @llvm.lifetime.start.p0i8(i64 16, i8* nonnull %81) #14
  call void @llvm.memcpy.p0i8.p0i8.i64(i8* nonnull align 8 %81, i8* nonnull align 8 %80, i64 16, i1 false) #14
  %82 = getelementptr inbounds %"class.network::mojom::blink::CookieDeletionFilter", %"class.network::mojom::blink::CookieDeletionFilter"* %0, i64 0, i32 3, i32 0, i32 0, i32 0, i32 0
  %83 = load i8, i8* %82, align 8, !range !4
  %84 = icmp eq i8 %83, 0
  br i1 %84, label %85, label %86

85:                                               ; preds = %79
  call void @_ZNO8perfetto11TracedValue12WritePointerEPKv(%"class.perfetto::TracedValue"* nonnull %11, i8* null) #14
  br label %104

86:                                               ; preds = %79
  %87 = bitcast %"class.perfetto::TracedValue"* %10 to i8*
  call void @llvm.lifetime.start.p0i8(i64 16, i8* nonnull %87) #14
  call void @llvm.memcpy.p0i8.p0i8.i64(i8* nonnull align 8 %87, i8* nonnull align 8 %81, i64 16, i1 false) #14
  %88 = bitcast %"class.perfetto::TracedArray"* %9 to i8*
  call void @llvm.lifetime.start.p0i8(i64 16, i8* nonnull %88) #14
  call void @llvm.memset.p0i8.i64(i8* nonnull align 8 %88, i8 -86, i64 16, i1 false) #14
  call void @_ZNO8perfetto11TracedValue10WriteArrayEv(%"class.perfetto::TracedArray"* nonnull sret %9, %"class.perfetto::TracedValue"* nonnull %10) #14
  %89 = getelementptr inbounds %"class.network::mojom::blink::CookieDeletionFilter", %"class.network::mojom::blink::CookieDeletionFilter"* %0, i64 0, i32 3, i32 0, i32 0, i32 0, i32 1, i32 0, i32 0, i32 0, i32 0
  %90 = load %"class.WTF::String"*, %"class.WTF::String"** %89, align 8
  %91 = getelementptr inbounds %"class.network::mojom::blink::CookieDeletionFilter", %"class.network::mojom::blink::CookieDeletionFilter"* %0, i64 0, i32 3, i32 0, i32 0, i32 0, i32 1, i32 0, i32 0, i32 0, i32 2
  %92 = load i32, i32* %91, align 4
  %93 = zext i32 %92 to i64
  %94 = getelementptr inbounds %"class.WTF::String", %"class.WTF::String"* %90, i64 %93
  %95 = icmp eq i32 %92, 0
  br i1 %95, label %103, label %96

96:                                               ; preds = %86
  %97 = bitcast %"class.perfetto::TracedValue"* %8 to i8*
  %98 = bitcast %"class.perfetto::TracedValue"* %7 to i8*
  br label %99

99:                                               ; preds = %99, %96
  %100 = phi %"class.WTF::String"* [ %90, %96 ], [ %101, %99 ]
  call void @llvm.lifetime.start.p0i8(i64 16, i8* nonnull %97) #14
  call void @_ZN8perfetto11TracedArray10AppendItemEv(%"class.perfetto::TracedValue"* nonnull sret %8, %"class.perfetto::TracedArray"* nonnull %9) #14
  call void @llvm.lifetime.start.p0i8(i64 16, i8* nonnull %98) #14
  call void @llvm.memcpy.p0i8.p0i8.i64(i8* nonnull align 8 %98, i8* nonnull align 8 %97, i64 16, i1 false) #14
  call void @_ZNK3WTF6String14WriteIntoTraceEN8perfetto11TracedValueE(%"class.WTF::String"* %100, %"class.perfetto::TracedValue"* nonnull %7) #14
  call void @llvm.lifetime.end.p0i8(i64 16, i8* nonnull %98) #14
  call void @llvm.lifetime.end.p0i8(i64 16, i8* nonnull %97) #14
  %101 = getelementptr inbounds %"class.WTF::String", %"class.WTF::String"* %100, i64 1
  %102 = icmp eq %"class.WTF::String"* %101, %94
  br i1 %102, label %103, label %99

103:                                              ; preds = %99, %86
  call void @llvm.lifetime.end.p0i8(i64 16, i8* nonnull %88) #14
  call void @llvm.lifetime.end.p0i8(i64 16, i8* nonnull %87) #14
  br label %104

104:                                              ; preds = %103, %85
  call void @llvm.lifetime.end.p0i8(i64 16, i8* nonnull %81) #14
  call void @_ZN8perfetto16TracedDictionary7AddItemENS_12StaticStringE(%"class.perfetto::TracedValue"* nonnull sret %27, %"class.perfetto::TracedDictionary"* nonnull %22, i8* getelementptr inbounds ([12 x i8], [12 x i8]* @.str.48, i64 0, i64 0)) #14
  %105 = getelementptr inbounds %"class.network::mojom::blink::CookieDeletionFilter", %"class.network::mojom::blink::CookieDeletionFilter"* %0, i64 0, i32 4
  %106 = bitcast %"class.perfetto::TracedValue"* %27 to i8*
  %107 = bitcast %"class.perfetto::TracedValue"* %6 to i8*
  call void @llvm.lifetime.start.p0i8(i64 16, i8* nonnull %107) #14
  call void @llvm.memcpy.p0i8.p0i8.i64(i8* nonnull align 8 %107, i8* nonnull align 8 %106, i64 16, i1 false) #14
  call void @_ZNK3WTF6String14WriteIntoTraceEN8perfetto11TracedValueE(%"class.WTF::String"* %105, %"class.perfetto::TracedValue"* nonnull %6) #14
  call void @llvm.lifetime.end.p0i8(i64 16, i8* nonnull %107) #14
  call void @_ZN8perfetto16TracedDictionary7AddItemENS_12StaticStringE(%"class.perfetto::TracedValue"* nonnull sret %28, %"class.perfetto::TracedDictionary"* nonnull %22, i8* getelementptr inbounds ([10 x i8], [10 x i8]* @.str.49, i64 0, i64 0)) #14
  %108 = getelementptr inbounds %"class.network::mojom::blink::CookieDeletionFilter", %"class.network::mojom::blink::CookieDeletionFilter"* %0, i64 0, i32 5
  %109 = bitcast %"class.perfetto::TracedValue"* %28 to i8*
  %110 = bitcast %"class.perfetto::TracedValue"* %5 to i8*
  call void @llvm.lifetime.start.p0i8(i64 16, i8* nonnull %110) #14
  call void @llvm.memcpy.p0i8.p0i8.i64(i8* nonnull align 8 %110, i8* nonnull align 8 %109, i64 16, i1 false) #14
  call void @_ZNK3WTF6String14WriteIntoTraceEN8perfetto11TracedValueE(%"class.WTF::String"* %108, %"class.perfetto::TracedValue"* nonnull %5) #14
  call void @llvm.lifetime.end.p0i8(i64 16, i8* nonnull %110) #14
  call void @_ZN8perfetto16TracedDictionary7AddItemENS_12StaticStringE(%"class.perfetto::TracedValue"* nonnull sret %29, %"class.perfetto::TracedDictionary"* nonnull %22, i8* getelementptr inbounds ([4 x i8], [4 x i8]* @.str.50, i64 0, i64 0)) #14
  %111 = bitcast %"class.perfetto::TracedValue"* %29 to i8*
  %112 = bitcast %"class.perfetto::TracedValue"* %4 to i8*
  call void @llvm.lifetime.start.p0i8(i64 16, i8* nonnull %112) #14
  call void @llvm.memcpy.p0i8.p0i8.i64(i8* nonnull align 8 %112, i8* nonnull align 8 %111, i64 16, i1 false) #14
  %113 = getelementptr inbounds %"class.network::mojom::blink::CookieDeletionFilter", %"class.network::mojom::blink::CookieDeletionFilter"* %0, i64 0, i32 6, i32 0, i32 0, i32 0, i32 0
  %114 = load i8, i8* %113, align 8, !range !4
  %115 = icmp eq i8 %114, 0
  br i1 %115, label %116, label %117

116:                                              ; preds = %104
  call void @_ZNO8perfetto11TracedValue12WritePointerEPKv(%"class.perfetto::TracedValue"* nonnull %4, i8* null) #14
  br label %120

117:                                              ; preds = %104
  %118 = getelementptr inbounds %"class.network::mojom::blink::CookieDeletionFilter", %"class.network::mojom::blink::CookieDeletionFilter"* %0, i64 0, i32 6, i32 0, i32 0, i32 0, i32 1, i32 0
  %119 = bitcast %"class.perfetto::TracedValue"* %3 to i8*
  call void @llvm.lifetime.start.p0i8(i64 16, i8* nonnull %119) #14
  call void @llvm.memcpy.p0i8.p0i8.i64(i8* nonnull align 8 %119, i8* nonnull align 8 %112, i64 16, i1 false) #14
  call void @_ZNK5blink4KURL14WriteIntoTraceEN8perfetto11TracedValueE(%"class.blink::KURL"* %118, %"class.perfetto::TracedValue"* nonnull %3) #14
  call void @llvm.lifetime.end.p0i8(i64 16, i8* nonnull %119) #14
  br label %120

120:                                              ; preds = %116, %117
  call void @llvm.lifetime.end.p0i8(i64 16, i8* nonnull %112) #14
  call void @_ZN8perfetto16TracedDictionary7AddItemENS_12StaticStringE(%"class.perfetto::TracedValue"* nonnull sret %30, %"class.perfetto::TracedDictionary"* nonnull %22, i8* getelementptr inbounds ([16 x i8], [16 x i8]* @.str.51, i64 0, i64 0)) #14
  %121 = getelementptr inbounds %"class.network::mojom::blink::CookieDeletionFilter", %"class.network::mojom::blink::CookieDeletionFilter"* %0, i64 0, i32 7
  %122 = bitcast %"class.perfetto::TracedValue"* %30 to i8*
  %123 = bitcast %"class.perfetto::TracedValue"* %21 to i8*
  call void @llvm.lifetime.start.p0i8(i64 16, i8* nonnull %123) #14
  call void @llvm.memcpy.p0i8.p0i8.i64(i8* nonnull align 8 %123, i8* nonnull align 8 %122, i64 16, i1 false) #14
  %124 = load i32, i32* %121, align 4
  call void @_ZN8perfetto17TraceFormatTraitsIN7network5mojom28CookieDeletionSessionControlEvE14WriteIntoTraceENS_11TracedValueES3_(%"class.perfetto::TracedValue"* nonnull %21, i32 %124) #14
  call void @llvm.lifetime.end.p0i8(i64 16, i8* nonnull %123) #14
  call void @llvm.lifetime.end.p0i8(i64 16, i8* nonnull %31) #14
  ret void
}

; Function Attrs: nounwind ssp uwtable
define hidden zeroext i1 @_ZN7network5mojom5blink20CookieDeletionFilter8ValidateEPKvPN4mojo8internal17ValidationContextE(i8*, %"class.mojo::internal::ValidationContext"*) local_unnamed_addr #0 align 2 {
  %3 = tail call zeroext i1 @_ZN7network5mojom8internal25CookieDeletionFilter_Data8ValidateEPKvPN4mojo8internal17ValidationContextE(i8* %0, %"class.mojo::internal::ValidationContext"* %1) #14
  ret i1 %3
}

declare zeroext i1 @_ZN7network5mojom8internal25CookieDeletionFilter_Data8ValidateEPKvPN4mojo8internal17ValidationContextE(i8*, %"class.mojo::internal::ValidationContext"*) local_unnamed_addr #2

; Function Attrs: nounwind ssp uwtable
define hidden void @_ZN7network5mojom5blink12CookieOrLineC2Ev(%"class.network::mojom::blink::CookieOrLine"* nocapture) unnamed_addr #0 align 2 {
  %2 = getelementptr inbounds %"class.network::mojom::blink::CookieOrLine", %"class.network::mojom::blink::CookieOrLine"* %0, i64 0, i32 0
  store i32 0, i32* %2, align 8
  %3 = tail call i8* @_Znwm(i64 144) #15
  %4 = bitcast i8* %3 to %"class.net::CanonicalCookie"*
  tail call void @_ZN3net15CanonicalCookieC1Ev(%"class.net::CanonicalCookie"* nonnull %4) #14
  %5 = getelementptr inbounds %"class.network::mojom::blink::CookieOrLine", %"class.network::mojom::blink::CookieOrLine"* %0, i64 0, i32 1, i32 0
  %6 = bitcast %"class.net::CanonicalCookie"** %5 to i8**
  store i8* %3, i8** %6, align 8
  ret void
}

; Function Attrs: nobuiltin nofree
declare noalias nonnull i8* @_Znwm(i64) local_unnamed_addr #8

; Function Attrs: nounwind ssp uwtable
define hidden void @_ZN7network5mojom5blink12CookieOrLineD2Ev(%"class.network::mojom::blink::CookieOrLine"* nocapture readonly) unnamed_addr #0 align 2 {
  tail call void @_ZN7network5mojom5blink12CookieOrLine13DestroyActiveEv(%"class.network::mojom::blink::CookieOrLine"* %0)
  ret void
}

; Function Attrs: nounwind ssp uwtable
define hidden void @_ZN7network5mojom5blink12CookieOrLine13DestroyActiveEv(%"class.network::mojom::blink::CookieOrLine"* nocapture readonly) local_unnamed_addr #0 align 2 {
  %2 = getelementptr inbounds %"class.network::mojom::blink::CookieOrLine", %"class.network::mojom::blink::CookieOrLine"* %0, i64 0, i32 0
  %3 = load i32, i32* %2, align 8
  switch i32 %3, label %34 [
    i32 0, label %4
    i32 1, label %10
  ]

4:                                                ; preds = %1
  %5 = getelementptr inbounds %"class.network::mojom::blink::CookieOrLine", %"class.network::mojom::blink::CookieOrLine"* %0, i64 0, i32 1, i32 0
  %6 = load %"class.net::CanonicalCookie"*, %"class.net::CanonicalCookie"** %5, align 8
  %7 = icmp eq %"class.net::CanonicalCookie"* %6, null
  br i1 %7, label %34, label %8

8:                                                ; preds = %4
  tail call void @_ZN3net15CanonicalCookieD1Ev(%"class.net::CanonicalCookie"* nonnull %6) #14
  %9 = bitcast %"class.net::CanonicalCookie"* %6 to i8*
  tail call void @_ZdlPv(i8* %9) #15
  br label %34

10:                                               ; preds = %1
  %11 = getelementptr inbounds %"class.network::mojom::blink::CookieOrLine", %"class.network::mojom::blink::CookieOrLine"* %0, i64 0, i32 1
  %12 = bitcast %"union.network::mojom::blink::CookieOrLine::Union_"* %11 to %"class.WTF::String"**
  %13 = load %"class.WTF::String"*, %"class.WTF::String"** %12, align 8
  %14 = icmp eq %"class.WTF::String"* %13, null
  br i1 %14, label %34, label %15

15:                                               ; preds = %10
  %16 = getelementptr inbounds %"class.WTF::String", %"class.WTF::String"* %13, i64 0, i32 0, i32 0
  %17 = load %"class.WTF::StringImpl"*, %"class.WTF::StringImpl"** %16, align 8
  %18 = icmp eq %"class.WTF::StringImpl"* %17, null
  br i1 %18, label %32, label %19

19:                                               ; preds = %15
  %20 = getelementptr inbounds %"class.WTF::StringImpl", %"class.WTF::StringImpl"* %17, i64 0, i32 2, i32 0, i32 0, i32 0, i32 0, i32 0
  %21 = load atomic i32, i32* %20 monotonic, align 4
  %22 = and i32 %21, 2
  %23 = icmp eq i32 %22, 0
  %24 = getelementptr inbounds %"class.WTF::StringImpl", %"class.WTF::StringImpl"* %17, i64 0, i32 0
  %25 = load i32, i32* %24, align 4
  br i1 %23, label %26, label %28

26:                                               ; preds = %19
  %27 = add i32 %25, -1
  store i32 %27, i32* %24, align 4
  br label %28

28:                                               ; preds = %26, %19
  %29 = phi i32 [ %27, %26 ], [ %25, %19 ]
  %30 = icmp eq i32 %29, 0
  br i1 %30, label %31, label %32

31:                                               ; preds = %28
  tail call void @_ZNK3WTF10StringImpl18DestroyIfNotStaticEv(%"class.WTF::StringImpl"* nonnull %17) #14
  br label %32

32:                                               ; preds = %15, %28, %31
  %33 = bitcast %"class.WTF::String"* %13 to i8*
  tail call void @free(i8* %33) #14
  br label %34

34:                                               ; preds = %10, %32, %4, %8, %1
  ret void
}

; Function Attrs: nounwind ssp uwtable
define hidden void @_ZN7network5mojom5blink12CookieOrLine10set_cookieERKN3net15CanonicalCookieE(%"class.network::mojom::blink::CookieOrLine"* nocapture, %"class.net::CanonicalCookie"* dereferenceable(144)) local_unnamed_addr #0 align 2 {
  %3 = getelementptr inbounds %"class.network::mojom::blink::CookieOrLine", %"class.network::mojom::blink::CookieOrLine"* %0, i64 0, i32 0
  %4 = load i32, i32* %3, align 8
  %5 = icmp eq i32 %4, 0
  br i1 %5, label %6, label %10

6:                                                ; preds = %2
  %7 = getelementptr inbounds %"class.network::mojom::blink::CookieOrLine", %"class.network::mojom::blink::CookieOrLine"* %0, i64 0, i32 1, i32 0
  %8 = load %"class.net::CanonicalCookie"*, %"class.net::CanonicalCookie"** %7, align 8
  %9 = tail call dereferenceable(144) %"class.net::CanonicalCookie"* @_ZN3net15CanonicalCookieaSERKS0_(%"class.net::CanonicalCookie"* %8, %"class.net::CanonicalCookie"* dereferenceable(144) %1)
  br label %15

10:                                               ; preds = %2
  tail call void @_ZN7network5mojom5blink12CookieOrLine13DestroyActiveEv(%"class.network::mojom::blink::CookieOrLine"* %0)
  store i32 0, i32* %3, align 8
  %11 = tail call i8* @_Znwm(i64 144) #15
  %12 = bitcast i8* %11 to %"class.net::CanonicalCookie"*
  tail call void @_ZN3net15CanonicalCookieC1ERKS0_(%"class.net::CanonicalCookie"* nonnull %12, %"class.net::CanonicalCookie"* dereferenceable(144) %1) #14
  %13 = getelementptr inbounds %"class.network::mojom::blink::CookieOrLine", %"class.network::mojom::blink::CookieOrLine"* %0, i64 0, i32 1, i32 0
  %14 = bitcast %"class.net::CanonicalCookie"** %13 to i8**
  store i8* %11, i8** %14, align 8
  br label %15

15:                                               ; preds = %10, %6
  ret void
}

; Function Attrs: inlinehint nounwind ssp uwtable
define linkonce_odr hidden dereferenceable(144) %"class.net::CanonicalCookie"* @_ZN3net15CanonicalCookieaSERKS0_(%"class.net::CanonicalCookie"*, %"class.net::CanonicalCookie"* dereferenceable(144)) local_unnamed_addr #9 comdat align 2 {
  %3 = getelementptr inbounds %"class.net::CanonicalCookie", %"class.net::CanonicalCookie"* %0, i64 0, i32 0
  %4 = icmp eq %"class.net::CanonicalCookie"* %0, %1
  br i1 %4, label %127, label %5

5:                                                ; preds = %2
  %6 = bitcast %"class.net::CanonicalCookie"* %0 to %"struct.std::__1::basic_string<char, std::__1::char_traits<char>, std::__1::allocator<char> >::__short"*
  %7 = getelementptr inbounds %"struct.std::__1::basic_string<char, std::__1::char_traits<char>, std::__1::allocator<char> >::__short", %"struct.std::__1::basic_string<char, std::__1::char_traits<char>, std::__1::allocator<char> >::__short"* %6, i64 0, i32 1, i32 0
  %8 = load i8, i8* %7, align 1
  %9 = icmp slt i8 %8, 0
  %10 = bitcast %"class.net::CanonicalCookie"* %1 to %"struct.std::__1::basic_string<char, std::__1::char_traits<char>, std::__1::allocator<char> >::__short"*
  %11 = getelementptr inbounds %"struct.std::__1::basic_string<char, std::__1::char_traits<char>, std::__1::allocator<char> >::__short", %"struct.std::__1::basic_string<char, std::__1::char_traits<char>, std::__1::allocator<char> >::__short"* %10, i64 0, i32 1, i32 0
  %12 = load i8, i8* %11, align 1
  %13 = icmp slt i8 %12, 0
  br i1 %9, label %24, label %14

14:                                               ; preds = %5
  br i1 %13, label %18, label %15

15:                                               ; preds = %14
  %16 = bitcast %"class.net::CanonicalCookie"* %0 to i8*
  %17 = bitcast %"class.net::CanonicalCookie"* %1 to i8*
  tail call void @llvm.memcpy.p0i8.p0i8.i64(i8* align 8 %16, i8* align 8 %17, i64 24, i1 false) #14
  br label %34

18:                                               ; preds = %14
  %19 = getelementptr inbounds %"class.net::CanonicalCookie", %"class.net::CanonicalCookie"* %1, i64 0, i32 0, i32 0, i32 0, i32 0, i32 0, i32 0, i32 0
  %20 = load i8*, i8** %19, align 8
  %21 = getelementptr inbounds %"class.net::CanonicalCookie", %"class.net::CanonicalCookie"* %1, i64 0, i32 0, i32 0, i32 0, i32 0, i32 0, i32 0, i32 1
  %22 = load i64, i64* %21, align 8
  %23 = tail call dereferenceable(24) %"class.std::__1::basic_string"* @_ZNSt3__112basic_stringIcNS_11char_traitsIcEENS_9allocatorIcEEE17__assign_no_aliasILb1EEERS5_PKcm(%"class.std::__1::basic_string"* %3, i8* %20, i64 %22) #14
  br label %34

24:                                               ; preds = %5
  %25 = getelementptr inbounds %"class.net::CanonicalCookie", %"class.net::CanonicalCookie"* %1, i64 0, i32 0, i32 0, i32 0, i32 0, i32 0, i32 0, i32 0
  %26 = load i8*, i8** %25, align 8
  %27 = getelementptr inbounds %"class.net::CanonicalCookie", %"class.net::CanonicalCookie"* %1, i64 0, i32 0, i32 0, i32 0, i32 0, i32 0, i32 0, i32 1
  %28 = load i64, i64* %27, align 8
  %29 = bitcast %"class.net::CanonicalCookie"* %1 to i8*
  %30 = zext i8 %12 to i64
  %31 = select i1 %13, i8* %26, i8* %29
  %32 = select i1 %13, i64 %28, i64 %30
  %33 = tail call dereferenceable(24) %"class.std::__1::basic_string"* @_ZNSt3__112basic_stringIcNS_11char_traitsIcEENS_9allocatorIcEEE17__assign_no_aliasILb0EEERS5_PKcm(%"class.std::__1::basic_string"* %3, i8* %31, i64 %32) #14
  br label %34

34:                                               ; preds = %15, %18, %24
  %35 = getelementptr inbounds %"class.net::CanonicalCookie", %"class.net::CanonicalCookie"* %0, i64 0, i32 1
  %36 = getelementptr inbounds %"class.net::CanonicalCookie", %"class.net::CanonicalCookie"* %1, i64 0, i32 1
  %37 = bitcast %"class.std::__1::basic_string"* %35 to %"struct.std::__1::basic_string<char, std::__1::char_traits<char>, std::__1::allocator<char> >::__short"*
  %38 = getelementptr inbounds %"struct.std::__1::basic_string<char, std::__1::char_traits<char>, std::__1::allocator<char> >::__short", %"struct.std::__1::basic_string<char, std::__1::char_traits<char>, std::__1::allocator<char> >::__short"* %37, i64 0, i32 1, i32 0
  %39 = load i8, i8* %38, align 1
  %40 = icmp slt i8 %39, 0
  %41 = bitcast %"class.std::__1::basic_string"* %36 to %"struct.std::__1::basic_string<char, std::__1::char_traits<char>, std::__1::allocator<char> >::__short"*
  %42 = getelementptr inbounds %"struct.std::__1::basic_string<char, std::__1::char_traits<char>, std::__1::allocator<char> >::__short", %"struct.std::__1::basic_string<char, std::__1::char_traits<char>, std::__1::allocator<char> >::__short"* %41, i64 0, i32 1, i32 0
  %43 = load i8, i8* %42, align 1
  %44 = icmp slt i8 %43, 0
  br i1 %40, label %55, label %45

45:                                               ; preds = %34
  br i1 %44, label %49, label %46

46:                                               ; preds = %45
  %47 = bitcast %"class.std::__1::basic_string"* %35 to i8*
  %48 = bitcast %"class.std::__1::basic_string"* %36 to i8*
  tail call void @llvm.memcpy.p0i8.p0i8.i64(i8* align 8 %47, i8* align 8 %48, i64 24, i1 false) #14
  br label %65

49:                                               ; preds = %45
  %50 = getelementptr inbounds %"class.std::__1::basic_string", %"class.std::__1::basic_string"* %36, i64 0, i32 0, i32 0, i32 0, i32 0, i32 0, i32 0
  %51 = load i8*, i8** %50, align 8
  %52 = getelementptr inbounds %"class.net::CanonicalCookie", %"class.net::CanonicalCookie"* %1, i64 0, i32 1, i32 0, i32 0, i32 0, i32 0, i32 0, i32 1
  %53 = load i64, i64* %52, align 8
  %54 = tail call dereferenceable(24) %"class.std::__1::basic_string"* @_ZNSt3__112basic_stringIcNS_11char_traitsIcEENS_9allocatorIcEEE17__assign_no_aliasILb1EEERS5_PKcm(%"class.std::__1::basic_string"* %35, i8* %51, i64 %53) #14
  br label %65

55:                                               ; preds = %34
  %56 = getelementptr inbounds %"class.std::__1::basic_string", %"class.std::__1::basic_string"* %36, i64 0, i32 0, i32 0, i32 0, i32 0, i32 0, i32 0
  %57 = load i8*, i8** %56, align 8
  %58 = getelementptr inbounds %"class.net::CanonicalCookie", %"class.net::CanonicalCookie"* %1, i64 0, i32 1, i32 0, i32 0, i32 0, i32 0, i32 0, i32 1
  %59 = load i64, i64* %58, align 8
  %60 = bitcast %"class.std::__1::basic_string"* %36 to i8*
  %61 = zext i8 %43 to i64
  %62 = select i1 %44, i8* %57, i8* %60
  %63 = select i1 %44, i64 %59, i64 %61
  %64 = tail call dereferenceable(24) %"class.std::__1::basic_string"* @_ZNSt3__112basic_stringIcNS_11char_traitsIcEENS_9allocatorIcEEE17__assign_no_aliasILb0EEERS5_PKcm(%"class.std::__1::basic_string"* %35, i8* %62, i64 %63) #14
  br label %65

65:                                               ; preds = %46, %49, %55
  %66 = getelementptr inbounds %"class.net::CanonicalCookie", %"class.net::CanonicalCookie"* %0, i64 0, i32 2
  %67 = getelementptr inbounds %"class.net::CanonicalCookie", %"class.net::CanonicalCookie"* %1, i64 0, i32 2
  %68 = bitcast %"class.std::__1::basic_string"* %66 to %"struct.std::__1::basic_string<char, std::__1::char_traits<char>, std::__1::allocator<char> >::__short"*
  %69 = getelementptr inbounds %"struct.std::__1::basic_string<char, std::__1::char_traits<char>, std::__1::allocator<char> >::__short", %"struct.std::__1::basic_string<char, std::__1::char_traits<char>, std::__1::allocator<char> >::__short"* %68, i64 0, i32 1, i32 0
  %70 = load i8, i8* %69, align 1
  %71 = icmp slt i8 %70, 0
  %72 = bitcast %"class.std::__1::basic_string"* %67 to %"struct.std::__1::basic_string<char, std::__1::char_traits<char>, std::__1::allocator<char> >::__short"*
  %73 = getelementptr inbounds %"struct.std::__1::basic_string<char, std::__1::char_traits<char>, std::__1::allocator<char> >::__short", %"struct.std::__1::basic_string<char, std::__1::char_traits<char>, std::__1::allocator<char> >::__short"* %72, i64 0, i32 1, i32 0
  %74 = load i8, i8* %73, align 1
  %75 = icmp slt i8 %74, 0
  br i1 %71, label %86, label %76

76:                                               ; preds = %65
  br i1 %75, label %80, label %77

77:                                               ; preds = %76
  %78 = bitcast %"class.std::__1::basic_string"* %66 to i8*
  %79 = bitcast %"class.std::__1::basic_string"* %67 to i8*
  tail call void @llvm.memcpy.p0i8.p0i8.i64(i8* align 8 %78, i8* align 8 %79, i64 24, i1 false) #14
  br label %96

80:                                               ; preds = %76
  %81 = getelementptr inbounds %"class.std::__1::basic_string", %"class.std::__1::basic_string"* %67, i64 0, i32 0, i32 0, i32 0, i32 0, i32 0, i32 0
  %82 = load i8*, i8** %81, align 8
  %83 = getelementptr inbounds %"class.net::CanonicalCookie", %"class.net::CanonicalCookie"* %1, i64 0, i32 2, i32 0, i32 0, i32 0, i32 0, i32 0, i32 1
  %84 = load i64, i64* %83, align 8
  %85 = tail call dereferenceable(24) %"class.std::__1::basic_string"* @_ZNSt3__112basic_stringIcNS_11char_traitsIcEENS_9allocatorIcEEE17__assign_no_aliasILb1EEERS5_PKcm(%"class.std::__1::basic_string"* %66, i8* %82, i64 %84) #14
  br label %96

86:                                               ; preds = %65
  %87 = getelementptr inbounds %"class.std::__1::basic_string", %"class.std::__1::basic_string"* %67, i64 0, i32 0, i32 0, i32 0, i32 0, i32 0, i32 0
  %88 = load i8*, i8** %87, align 8
  %89 = getelementptr inbounds %"class.net::CanonicalCookie", %"class.net::CanonicalCookie"* %1, i64 0, i32 2, i32 0, i32 0, i32 0, i32 0, i32 0, i32 1
  %90 = load i64, i64* %89, align 8
  %91 = bitcast %"class.std::__1::basic_string"* %67 to i8*
  %92 = zext i8 %74 to i64
  %93 = select i1 %75, i8* %88, i8* %91
  %94 = select i1 %75, i64 %90, i64 %92
  %95 = tail call dereferenceable(24) %"class.std::__1::basic_string"* @_ZNSt3__112basic_stringIcNS_11char_traitsIcEENS_9allocatorIcEEE17__assign_no_aliasILb0EEERS5_PKcm(%"class.std::__1::basic_string"* %66, i8* %93, i64 %94) #14
  br label %96

96:                                               ; preds = %77, %80, %86
  %97 = getelementptr inbounds %"class.net::CanonicalCookie", %"class.net::CanonicalCookie"* %0, i64 0, i32 3
  %98 = getelementptr inbounds %"class.net::CanonicalCookie", %"class.net::CanonicalCookie"* %1, i64 0, i32 3
  %99 = bitcast %"class.std::__1::basic_string"* %97 to %"struct.std::__1::basic_string<char, std::__1::char_traits<char>, std::__1::allocator<char> >::__short"*
  %100 = getelementptr inbounds %"struct.std::__1::basic_string<char, std::__1::char_traits<char>, std::__1::allocator<char> >::__short", %"struct.std::__1::basic_string<char, std::__1::char_traits<char>, std::__1::allocator<char> >::__short"* %99, i64 0, i32 1, i32 0
  %101 = load i8, i8* %100, align 1
  %102 = icmp slt i8 %101, 0
  %103 = bitcast %"class.std::__1::basic_string"* %98 to %"struct.std::__1::basic_string<char, std::__1::char_traits<char>, std::__1::allocator<char> >::__short"*
  %104 = getelementptr inbounds %"struct.std::__1::basic_string<char, std::__1::char_traits<char>, std::__1::allocator<char> >::__short", %"struct.std::__1::basic_string<char, std::__1::char_traits<char>, std::__1::allocator<char> >::__short"* %103, i64 0, i32 1, i32 0
  %105 = load i8, i8* %104, align 1
  %106 = icmp slt i8 %105, 0
  br i1 %102, label %117, label %107

107:                                              ; preds = %96
  br i1 %106, label %111, label %108

108:                                              ; preds = %107
  %109 = bitcast %"class.std::__1::basic_string"* %97 to i8*
  %110 = bitcast %"class.std::__1::basic_string"* %98 to i8*
  tail call void @llvm.memcpy.p0i8.p0i8.i64(i8* align 8 %109, i8* align 8 %110, i64 24, i1 false) #14
  br label %127

111:                                              ; preds = %107
  %112 = getelementptr inbounds %"class.std::__1::basic_string", %"class.std::__1::basic_string"* %98, i64 0, i32 0, i32 0, i32 0, i32 0, i32 0, i32 0
  %113 = load i8*, i8** %112, align 8
  %114 = getelementptr inbounds %"class.net::CanonicalCookie", %"class.net::CanonicalCookie"* %1, i64 0, i32 3, i32 0, i32 0, i32 0, i32 0, i32 0, i32 1
  %115 = load i64, i64* %114, align 8
  %116 = tail call dereferenceable(24) %"class.std::__1::basic_string"* @_ZNSt3__112basic_stringIcNS_11char_traitsIcEENS_9allocatorIcEEE17__assign_no_aliasILb1EEERS5_PKcm(%"class.std::__1::basic_string"* %97, i8* %113, i64 %115) #14
  br label %127

117:                                              ; preds = %96
  %118 = getelementptr inbounds %"class.std::__1::basic_string", %"class.std::__1::basic_string"* %98, i64 0, i32 0, i32 0, i32 0, i32 0, i32 0, i32 0
  %119 = load i8*, i8** %118, align 8
  %120 = getelementptr inbounds %"class.net::CanonicalCookie", %"class.net::CanonicalCookie"* %1, i64 0, i32 3, i32 0, i32 0, i32 0, i32 0, i32 0, i32 1
  %121 = load i64, i64* %120, align 8
  %122 = bitcast %"class.std::__1::basic_string"* %98 to i8*
  %123 = zext i8 %105 to i64
  %124 = select i1 %106, i8* %119, i8* %122
  %125 = select i1 %106, i64 %121, i64 %123
  %126 = tail call dereferenceable(24) %"class.std::__1::basic_string"* @_ZNSt3__112basic_stringIcNS_11char_traitsIcEENS_9allocatorIcEEE17__assign_no_aliasILb0EEERS5_PKcm(%"class.std::__1::basic_string"* %97, i8* %124, i64 %125) #14
  br label %127

127:                                              ; preds = %2, %108, %111, %117
  %128 = getelementptr inbounds %"class.net::CanonicalCookie", %"class.net::CanonicalCookie"* %0, i64 0, i32 4
  %129 = getelementptr inbounds %"class.net::CanonicalCookie", %"class.net::CanonicalCookie"* %1, i64 0, i32 4
  %130 = bitcast %"class.base::Time"* %128 to i8*
  %131 = bitcast %"class.base::Time"* %129 to i8*
  tail call void @llvm.memcpy.p0i8.p0i8.i64(i8* align 8 %130, i8* align 8 %131, i64 48, i1 false)
  ret %"class.net::CanonicalCookie"* %0
}

; Function Attrs: nounwind ssp uwtable
define hidden void @_ZN7network5mojom5blink12CookieOrLine17set_cookie_stringERKN3WTF6StringE(%"class.network::mojom::blink::CookieOrLine"* nocapture, %"class.WTF::String"* nocapture readonly dereferenceable(8)) local_unnamed_addr #0 align 2 {
  %3 = getelementptr inbounds %"class.network::mojom::blink::CookieOrLine", %"class.network::mojom::blink::CookieOrLine"* %0, i64 0, i32 0
  %4 = load i32, i32* %3, align 8
  %5 = icmp eq i32 %4, 1
  br i1 %5, label %6, label %49

6:                                                ; preds = %2
  %7 = getelementptr inbounds %"class.network::mojom::blink::CookieOrLine", %"class.network::mojom::blink::CookieOrLine"* %0, i64 0, i32 1
  %8 = bitcast %"union.network::mojom::blink::CookieOrLine::Union_"* %7 to %"class.WTF::String"**
  %9 = load %"class.WTF::String"*, %"class.WTF::String"** %8, align 8
  %10 = getelementptr inbounds %"class.WTF::String", %"class.WTF::String"* %1, i64 0, i32 0, i32 0
  %11 = load %"class.WTF::StringImpl"*, %"class.WTF::StringImpl"** %10, align 8
  %12 = icmp eq %"class.WTF::StringImpl"* %11, null
  br i1 %12, label %30, label %13

13:                                               ; preds = %6
  %14 = getelementptr inbounds %"class.WTF::StringImpl", %"class.WTF::StringImpl"* %11, i64 0, i32 2, i32 0, i32 0, i32 0, i32 0, i32 0
  %15 = load atomic i32, i32* %14 monotonic, align 4
  %16 = and i32 %15, 2
  %17 = icmp eq i32 %16, 0
  br i1 %17, label %18, label %30

18:                                               ; preds = %13
  %19 = getelementptr inbounds %"class.WTF::StringImpl", %"class.WTF::StringImpl"* %11, i64 0, i32 0
  %20 = load i32, i32* %19, align 4
  %21 = zext i32 %20 to i33
  %22 = tail call { i33, i1 } @llvm.sadd.with.overflow.i33(i33 %21, i33 1) #14
  %23 = extractvalue { i33, i1 } %22, 1
  %24 = extractvalue { i33, i1 } %22, 0
  %25 = icmp slt i33 %24, 0
  %26 = or i1 %23, %25
  br i1 %26, label %27, label %28, !prof !3

27:                                               ; preds = %18
  tail call void @llvm.trap() #14
  unreachable

28:                                               ; preds = %18
  %29 = trunc i33 %24 to i32
  store i32 %29, i32* %19, align 4
  br label %30

30:                                               ; preds = %28, %13, %6
  %31 = ptrtoint %"class.WTF::StringImpl"* %11 to i64
  %32 = bitcast %"class.WTF::String"* %9 to i64*
  %33 = getelementptr inbounds %"class.WTF::String", %"class.WTF::String"* %9, i64 0, i32 0, i32 0
  %34 = load %"class.WTF::StringImpl"*, %"class.WTF::StringImpl"** %33, align 8
  store i64 %31, i64* %32, align 8
  %35 = icmp eq %"class.WTF::StringImpl"* %34, null
  br i1 %35, label %75, label %36

36:                                               ; preds = %30
  %37 = getelementptr inbounds %"class.WTF::StringImpl", %"class.WTF::StringImpl"* %34, i64 0, i32 2, i32 0, i32 0, i32 0, i32 0, i32 0
  %38 = load atomic i32, i32* %37 monotonic, align 4
  %39 = and i32 %38, 2
  %40 = icmp eq i32 %39, 0
  %41 = getelementptr inbounds %"class.WTF::StringImpl", %"class.WTF::StringImpl"* %34, i64 0, i32 0
  %42 = load i32, i32* %41, align 4
  br i1 %40, label %43, label %45

43:                                               ; preds = %36
  %44 = add i32 %42, -1
  store i32 %44, i32* %41, align 4
  br label %45

45:                                               ; preds = %43, %36
  %46 = phi i32 [ %44, %43 ], [ %42, %36 ]
  %47 = icmp eq i32 %46, 0
  br i1 %47, label %48, label %75

48:                                               ; preds = %45
  tail call void @_ZNK3WTF10StringImpl18DestroyIfNotStaticEv(%"class.WTF::StringImpl"* nonnull %34) #14
  br label %75

49:                                               ; preds = %2
  tail call void @_ZN7network5mojom5blink12CookieOrLine13DestroyActiveEv(%"class.network::mojom::blink::CookieOrLine"* %0)
  store i32 1, i32* %3, align 8
  %50 = tail call noalias i8* @malloc(i64 8) #14
  %51 = getelementptr inbounds %"class.WTF::String", %"class.WTF::String"* %1, i64 0, i32 0, i32 0
  %52 = load %"class.WTF::StringImpl"*, %"class.WTF::StringImpl"** %51, align 8
  %53 = bitcast i8* %50 to %"class.WTF::StringImpl"**
  store %"class.WTF::StringImpl"* %52, %"class.WTF::StringImpl"** %53, align 8
  %54 = icmp eq %"class.WTF::StringImpl"* %52, null
  br i1 %54, label %72, label %55

55:                                               ; preds = %49
  %56 = getelementptr inbounds %"class.WTF::StringImpl", %"class.WTF::StringImpl"* %52, i64 0, i32 2, i32 0, i32 0, i32 0, i32 0, i32 0
  %57 = load atomic i32, i32* %56 monotonic, align 4
  %58 = and i32 %57, 2
  %59 = icmp eq i32 %58, 0
  br i1 %59, label %60, label %72

60:                                               ; preds = %55
  %61 = getelementptr inbounds %"class.WTF::StringImpl", %"class.WTF::StringImpl"* %52, i64 0, i32 0
  %62 = load i32, i32* %61, align 4
  %63 = zext i32 %62 to i33
  %64 = tail call { i33, i1 } @llvm.sadd.with.overflow.i33(i33 %63, i33 1) #14
  %65 = extractvalue { i33, i1 } %64, 1
  %66 = extractvalue { i33, i1 } %64, 0
  %67 = icmp slt i33 %66, 0
  %68 = or i1 %65, %67
  br i1 %68, label %69, label %70, !prof !3

69:                                               ; preds = %60
  tail call void @llvm.trap() #14
  unreachable

70:                                               ; preds = %60
  %71 = trunc i33 %66 to i32
  store i32 %71, i32* %61, align 4
  br label %72

72:                                               ; preds = %49, %55, %70
  %73 = getelementptr inbounds %"class.network::mojom::blink::CookieOrLine", %"class.network::mojom::blink::CookieOrLine"* %0, i64 0, i32 1
  %74 = bitcast %"union.network::mojom::blink::CookieOrLine::Union_"* %73 to i8**
  store i8* %50, i8** %74, align 8
  br label %75

75:                                               ; preds = %48, %45, %30, %72
  ret void
}

; Function Attrs: nobuiltin nounwind
declare void @_ZdlPv(i8*) local_unnamed_addr #10

; Function Attrs: nounwind ssp uwtable
define hidden zeroext i1 @_ZN7network5mojom5blink12CookieOrLine8ValidateEPKvPN4mojo8internal17ValidationContextE(i8*, %"class.mojo::internal::ValidationContext"*) local_unnamed_addr #0 align 2 {
  %3 = tail call zeroext i1 @_ZN7network5mojom8internal17CookieOrLine_Data8ValidateEPKvPN4mojo8internal17ValidationContextEb(i8* %0, %"class.mojo::internal::ValidationContext"* %1, i1 zeroext false) #14
  ret i1 %3
}

declare zeroext i1 @_ZN7network5mojom8internal17CookieOrLine_Data8ValidateEPKvPN4mojo8internal17ValidationContextEb(i8*, %"class.mojo::internal::ValidationContext"*, i1 zeroext) local_unnamed_addr #2

; Function Attrs: nofree norecurse nounwind ssp uwtable writeonly
define hidden void @_ZN7network5mojom5blink25CookieChangeListenerProxyC2EPN4mojo28MessageReceiverWithResponderE(%"class.network::mojom::blink::CookieChangeListenerProxy"* nocapture, %"class.mojo::MessageReceiverWithResponder"*) unnamed_addr #3 align 2 {
  %3 = getelementptr inbounds %"class.network::mojom::blink::CookieChangeListenerProxy", %"class.network::mojom::blink::CookieChangeListenerProxy"* %0, i64 0, i32 0, i32 0
  store i32 (...)** bitcast (i8** getelementptr inbounds ({ [5 x i8*] }, { [5 x i8*] }* @_ZTVN7network5mojom5blink25CookieChangeListenerProxyE, i64 0, inrange i32 0, i64 2) to i32 (...)**), i32 (...)*** %3, align 8
  %4 = getelementptr inbounds %"class.network::mojom::blink::CookieChangeListenerProxy", %"class.network::mojom::blink::CookieChangeListenerProxy"* %0, i64 0, i32 1
  store %"class.mojo::MessageReceiverWithResponder"* %1, %"class.mojo::MessageReceiverWithResponder"** %4, align 8
  ret void
}

; Function Attrs: nounwind ssp uwtable
define hidden void @_ZN7network5mojom5blink25CookieChangeListenerProxy14OnCookieChangeEN4mojo9StructPtrINS1_16CookieChangeInfoEEE(%"class.network::mojom::blink::CookieChangeListenerProxy"* nocapture readonly, %"class.mojo::StructPtr.119"*) unnamed_addr #0 align 2 {
  %3 = alloca %"class.mojo::Message", align 8
  %4 = alloca %"class.mojo::internal::MessageFragment.126", align 8
  %5 = bitcast %"class.mojo::Message"* %3 to i8*
  call void @llvm.lifetime.start.p0i8(i64 120, i8* nonnull %5) #14
  call void @llvm.memset.p0i8.i64(i8* nonnull align 8 %5, i8 -86, i64 120, i1 false)
  call void @_ZN4mojo7MessageC1EjjmmPNSt3__16vectorINS_16ScopedHandleBaseINS_6HandleEEENS1_9allocatorIS5_EEEE(%"class.mojo::Message"* nonnull %3, i32 1685849808, i32 0, i64 0, i64 0, %"class.std::__1::vector.56"* null) #14
  %6 = getelementptr inbounds %"class.mojo::Message", %"class.mojo::Message"* %3, i64 0, i32 1
  %7 = call i64 @_ZN4mojo8internal6Buffer8AllocateEm(%"class.mojo::internal::Buffer"* %6, i64 16) #14
  %8 = getelementptr inbounds %"class.mojo::Message", %"class.mojo::Message"* %3, i64 0, i32 1, i32 2
  %9 = load i8*, i8** %8, align 8
  %10 = getelementptr inbounds i8, i8* %9, i64 %7
  %11 = bitcast i8* %10 to %"class.network::mojom::internal::CookieChangeListener_OnCookieChange_Params_Data"*
  call void @_ZN7network5mojom8internal47CookieChangeListener_OnCookieChange_Params_DataC1Ev(%"class.network::mojom::internal::CookieChangeListener_OnCookieChange_Params_Data"* %11) #14
  %12 = bitcast %"class.mojo::internal::MessageFragment.126"* %4 to i8*
  call void @llvm.lifetime.start.p0i8(i64 16, i8* nonnull %12) #14
  %13 = getelementptr inbounds %"class.mojo::internal::MessageFragment.126", %"class.mojo::internal::MessageFragment.126"* %4, i64 0, i32 0
  %14 = getelementptr inbounds %"class.mojo::internal::MessageFragment.126", %"class.mojo::internal::MessageFragment.126"* %4, i64 0, i32 1
  store %"class.mojo::Message"* %3, %"class.mojo::Message"** %13, align 8
  store i64 -1, i64* %14, align 8
  call void @_ZN4mojo8internal10SerializerIN7network5mojom24CookieChangeInfoDataViewENS_9StructPtrINS3_5blink16CookieChangeInfoEEEE9SerializeERS8_RNS0_15MessageFragmentINS3_8internal21CookieChangeInfo_DataEEE(%"class.mojo::StructPtr.119"* dereferenceable(8) %1, %"class.mojo::internal::MessageFragment.126"* nonnull dereferenceable(16) %4) #14
  %15 = load i8*, i8** %8, align 8
  %16 = getelementptr inbounds i8, i8* %15, i64 %7
  %17 = getelementptr inbounds i8, i8* %16, i64 8
  %18 = load i64, i64* %14, align 8
  %19 = icmp eq i64 %18, -1
  br i1 %19, label %26, label %20

20:                                               ; preds = %2
  %21 = load %"class.mojo::Message"*, %"class.mojo::Message"** %13, align 8
  %22 = getelementptr inbounds %"class.mojo::Message", %"class.mojo::Message"* %21, i64 0, i32 1, i32 2
  %23 = load i8*, i8** %22, align 8
  %24 = getelementptr inbounds i8, i8* %23, i64 %18
  %25 = bitcast i8* %24 to %"class.network::mojom::internal::CookieChangeInfo_Data"*
  br label %26

26:                                               ; preds = %2, %20
  %27 = phi %"class.network::mojom::internal::CookieChangeInfo_Data"* [ %25, %20 ], [ null, %2 ]
  %28 = bitcast i8* %17 to i64*
  %29 = icmp eq %"class.network::mojom::internal::CookieChangeInfo_Data"* %27, null
  %30 = ptrtoint %"class.network::mojom::internal::CookieChangeInfo_Data"* %27 to i64
  %31 = ptrtoint i8* %17 to i64
  %32 = sub i64 %30, %31
  %33 = select i1 %29, i64 0, i64 %32
  store i64 %33, i64* %28, align 8
  %34 = getelementptr inbounds %"class.network::mojom::blink::CookieChangeListenerProxy", %"class.network::mojom::blink::CookieChangeListenerProxy"* %0, i64 0, i32 1
  %35 = bitcast %"class.mojo::MessageReceiverWithResponder"** %34 to %"class.mojo::MessageReceiver"**
  %36 = load %"class.mojo::MessageReceiver"*, %"class.mojo::MessageReceiver"** %35, align 8
  %37 = bitcast %"class.mojo::MessageReceiver"* %36 to i1 (%"class.mojo::MessageReceiver"*, %"class.mojo::Message"*)***
  %38 = load i1 (%"class.mojo::MessageReceiver"*, %"class.mojo::Message"*)**, i1 (%"class.mojo::MessageReceiver"*, %"class.mojo::Message"*)*** %37, align 8
  %39 = getelementptr inbounds i1 (%"class.mojo::MessageReceiver"*, %"class.mojo::Message"*)*, i1 (%"class.mojo::MessageReceiver"*, %"class.mojo::Message"*)** %38, i64 3
  %40 = load i1 (%"class.mojo::MessageReceiver"*, %"class.mojo::Message"*)*, i1 (%"class.mojo::MessageReceiver"*, %"class.mojo::Message"*)** %39, align 8
  %41 = call zeroext i1 %40(%"class.mojo::MessageReceiver"* %36, %"class.mojo::Message"* nonnull %3) #14
  call void @llvm.lifetime.end.p0i8(i64 16, i8* nonnull %12) #14
  call void @_ZN4mojo7MessageD1Ev(%"class.mojo::Message"* nonnull %3) #14
  call void @llvm.lifetime.end.p0i8(i64 120, i8* nonnull %5) #14
  ret void
}

declare void @_ZN4mojo7MessageC1EjjmmPNSt3__16vectorINS_16ScopedHandleBaseINS_6HandleEEENS1_9allocatorIS5_EEEE(%"class.mojo::Message"*, i32, i32, i64, i64, %"class.std::__1::vector.56"*) unnamed_addr #2

; Function Attrs: nounwind
declare void @_ZN4mojo7MessageD1Ev(%"class.mojo::Message"*) unnamed_addr #7

; Function Attrs: nounwind ssp uwtable
define hidden zeroext i1 @_ZN7network5mojom5blink32CookieChangeListenerStubDispatch6AcceptEPNS1_20CookieChangeListenerEPN4mojo7MessageE(%"class.network::mojom::blink::CookieChangeListener"*, %"class.mojo::Message"*) local_unnamed_addr #0 align 2 {
  %3 = alloca %"class.base::TaskAnnotator::ScopedSetIpcHash", align 8
  %4 = alloca %"class.mojo::StructPtr.119", align 8
  %5 = alloca %"class.mojo::StructPtr.119", align 8
  %6 = getelementptr inbounds %"class.mojo::Message", %"class.mojo::Message"* %1, i64 0, i32 1, i32 2
  %7 = bitcast i8** %6 to %"struct.mojo::internal::MessageHeader"**
  %8 = load %"struct.mojo::internal::MessageHeader"*, %"struct.mojo::internal::MessageHeader"** %7, align 8
  %9 = getelementptr inbounds %"struct.mojo::internal::MessageHeader", %"struct.mojo::internal::MessageHeader"* %8, i64 0, i32 2
  %10 = load i32, i32* %9, align 1
  %11 = icmp eq i32 %10, 1685849808
  br i1 %11, label %12, label %63

12:                                               ; preds = %2
  %13 = bitcast %"class.base::TaskAnnotator::ScopedSetIpcHash"* %3 to i8*
  call void @llvm.lifetime.start.p0i8(i64 24, i8* nonnull %13) #14
  call void @llvm.memset.p0i8.i64(i8* nonnull align 8 %13, i8 -86, i64 24, i1 false)
  call void @_ZN4base13TaskAnnotator16ScopedSetIpcHashC1Ej(%"class.base::TaskAnnotator::ScopedSetIpcHash"* nonnull %3, i32 2066419482) #14
  %14 = call i8* @_ZNK4mojo7Message7payloadEv(%"class.mojo::Message"* %1) #14
  %15 = bitcast %"class.mojo::StructPtr.119"* %4 to i8*
  call void @llvm.lifetime.start.p0i8(i64 8, i8* nonnull %15) #14
  %16 = getelementptr inbounds %"class.mojo::StructPtr.119", %"class.mojo::StructPtr.119"* %4, i64 0, i32 0, i32 0, i32 0, i32 0
  %17 = bitcast %"class.mojo::StructPtr.119"* %4 to i64*
  store i64 0, i64* %17, align 8
  %18 = getelementptr inbounds i8, i8* %14, i64 8
  %19 = bitcast i8* %18 to i64*
  %20 = load i64, i64* %19, align 8
  %21 = icmp eq i64 %20, 0
  br i1 %21, label %22, label %23

22:                                               ; preds = %12
  store %"class.network::mojom::blink::CookieChangeInfo"* null, %"class.network::mojom::blink::CookieChangeInfo"** %16, align 8
  br label %29

23:                                               ; preds = %12
  %24 = getelementptr inbounds i8, i8* %18, i64 %20
  %25 = bitcast i8* %24 to %"class.network::mojom::internal::CookieChangeInfo_Data"*
  %26 = call zeroext i1 @_ZN4mojo12StructTraitsIN7network5mojom24CookieChangeInfoDataViewENS_9StructPtrINS2_5blink16CookieChangeInfoEEEE4ReadES3_PS7_(%"class.network::mojom::internal::CookieChangeInfo_Data"* nonnull %25, %"class.mojo::Message"* %1, %"class.mojo::StructPtr.119"* nonnull %4) #14
  br i1 %26, label %27, label %49

27:                                               ; preds = %23
  %28 = load i64, i64* %17, align 8
  br label %29

29:                                               ; preds = %22, %27
  %30 = phi i64 [ %28, %27 ], [ 0, %22 ]
  %31 = bitcast %"class.mojo::StructPtr.119"* %5 to i64*
  %32 = getelementptr inbounds %"class.mojo::StructPtr.119", %"class.mojo::StructPtr.119"* %5, i64 0, i32 0, i32 0, i32 0, i32 0
  store i64 %30, i64* %31, align 8
  store i64 0, i64* %17, align 8
  %33 = bitcast %"class.network::mojom::blink::CookieChangeListener"* %0 to void (%"class.network::mojom::blink::CookieChangeListener"*, %"class.mojo::StructPtr.119"*)***
  %34 = load void (%"class.network::mojom::blink::CookieChangeListener"*, %"class.mojo::StructPtr.119"*)**, void (%"class.network::mojom::blink::CookieChangeListener"*, %"class.mojo::StructPtr.119"*)*** %33, align 8
  %35 = getelementptr inbounds void (%"class.network::mojom::blink::CookieChangeListener"*, %"class.mojo::StructPtr.119"*)*, void (%"class.network::mojom::blink::CookieChangeListener"*, %"class.mojo::StructPtr.119"*)** %34, i64 2
  %36 = load void (%"class.network::mojom::blink::CookieChangeListener"*, %"class.mojo::StructPtr.119"*)*, void (%"class.network::mojom::blink::CookieChangeListener"*, %"class.mojo::StructPtr.119"*)** %35, align 8
  call void %36(%"class.network::mojom::blink::CookieChangeListener"* %0, %"class.mojo::StructPtr.119"* nonnull %5) #14
  %37 = load %"class.network::mojom::blink::CookieChangeInfo"*, %"class.network::mojom::blink::CookieChangeInfo"** %32, align 8
  store %"class.network::mojom::blink::CookieChangeInfo"* null, %"class.network::mojom::blink::CookieChangeInfo"** %32, align 8
  %38 = icmp eq %"class.network::mojom::blink::CookieChangeInfo"* %37, null
  br i1 %38, label %48, label %39

39:                                               ; preds = %29
  %40 = getelementptr inbounds %"class.network::mojom::blink::CookieChangeInfo", %"class.network::mojom::blink::CookieChangeInfo"* %37, i64 0, i32 1, i32 0, i32 0, i32 0, i32 0
  %41 = load %"class.network::mojom::blink::CookieAccessResult"*, %"class.network::mojom::blink::CookieAccessResult"** %40, align 8
  store %"class.network::mojom::blink::CookieAccessResult"* null, %"class.network::mojom::blink::CookieAccessResult"** %40, align 8
  %42 = icmp eq %"class.network::mojom::blink::CookieAccessResult"* %41, null
  br i1 %42, label %45, label %43

43:                                               ; preds = %39
  %44 = bitcast %"class.network::mojom::blink::CookieAccessResult"* %41 to i8*
  call void @_ZdlPv(i8* %44) #15
  br label %45

45:                                               ; preds = %43, %39
  %46 = getelementptr inbounds %"class.network::mojom::blink::CookieChangeInfo", %"class.network::mojom::blink::CookieChangeInfo"* %37, i64 0, i32 0
  call void @_ZN3net15CanonicalCookieD1Ev(%"class.net::CanonicalCookie"* %46) #14
  %47 = bitcast %"class.network::mojom::blink::CookieChangeInfo"* %37 to i8*
  call void @_ZdlPv(i8* %47) #15
  br label %48

48:                                               ; preds = %29, %45
  store %"class.network::mojom::blink::CookieChangeInfo"* null, %"class.network::mojom::blink::CookieChangeInfo"** %16, align 8
  br label %61

49:                                               ; preds = %23
  call void @_ZN4mojo8internal31ReportValidationErrorForMessageEPNS_7MessageENS0_15ValidationErrorEPKcjb(%"class.mojo::Message"* %1, i32 17, i8* getelementptr inbounds ([35 x i8], [35 x i8]* @_ZN7network5mojom5blink20CookieChangeListener5Name_E, i64 0, i64 0), i32 0, i1 zeroext false) #14
  %50 = load %"class.network::mojom::blink::CookieChangeInfo"*, %"class.network::mojom::blink::CookieChangeInfo"** %16, align 8
  %51 = bitcast %"class.network::mojom::blink::CookieChangeInfo"* %50 to i8*
  store %"class.network::mojom::blink::CookieChangeInfo"* null, %"class.network::mojom::blink::CookieChangeInfo"** %16, align 8
  %52 = icmp eq %"class.network::mojom::blink::CookieChangeInfo"* %50, null
  br i1 %52, label %61, label %53

53:                                               ; preds = %49
  %54 = getelementptr inbounds %"class.network::mojom::blink::CookieChangeInfo", %"class.network::mojom::blink::CookieChangeInfo"* %50, i64 0, i32 1, i32 0, i32 0, i32 0, i32 0
  %55 = load %"class.network::mojom::blink::CookieAccessResult"*, %"class.network::mojom::blink::CookieAccessResult"** %54, align 8
  store %"class.network::mojom::blink::CookieAccessResult"* null, %"class.network::mojom::blink::CookieAccessResult"** %54, align 8
  %56 = icmp eq %"class.network::mojom::blink::CookieAccessResult"* %55, null
  br i1 %56, label %59, label %57

57:                                               ; preds = %53
  %58 = bitcast %"class.network::mojom::blink::CookieAccessResult"* %55 to i8*
  call void @_ZdlPv(i8* %58) #15
  br label %59

59:                                               ; preds = %57, %53
  %60 = getelementptr inbounds %"class.network::mojom::blink::CookieChangeInfo", %"class.network::mojom::blink::CookieChangeInfo"* %50, i64 0, i32 0
  call void @_ZN3net15CanonicalCookieD1Ev(%"class.net::CanonicalCookie"* %60) #14
  call void @_ZdlPv(i8* %51) #15
  br label %61

61:                                               ; preds = %48, %49, %59
  %62 = phi i1 [ true, %48 ], [ false, %49 ], [ false, %59 ]
  call void @llvm.lifetime.end.p0i8(i64 8, i8* nonnull %15) #14
  call void @_ZN4base13TaskAnnotator16ScopedSetIpcHashD1Ev(%"class.base::TaskAnnotator::ScopedSetIpcHash"* nonnull %3) #14
  call void @llvm.lifetime.end.p0i8(i64 24, i8* nonnull %13) #14
  br label %63

63:                                               ; preds = %2, %61
  %64 = phi i1 [ %62, %61 ], [ false, %2 ]
  ret i1 %64
}

declare void @_ZN4base13TaskAnnotator16ScopedSetIpcHashC1Ej(%"class.base::TaskAnnotator::ScopedSetIpcHash"*, i32) unnamed_addr #2

declare void @_ZN4mojo8internal31ReportValidationErrorForMessageEPNS_7MessageENS0_15ValidationErrorEPKcjb(%"class.mojo::Message"*, i32, i8*, i32, i1 zeroext) local_unnamed_addr #2

; Function Attrs: nounwind
declare void @_ZN4base13TaskAnnotator16ScopedSetIpcHashD1Ev(%"class.base::TaskAnnotator::ScopedSetIpcHash"*) unnamed_addr #7

; Function Attrs: nounwind ssp uwtable
define hidden zeroext i1 @_ZN7network5mojom5blink32CookieChangeListenerStubDispatch19AcceptWithResponderEPNS1_20CookieChangeListenerEPN4mojo7MessageENSt3__110unique_ptrINS5_25MessageReceiverWithStatusENS8_14default_deleteISA_EEEE(%"class.network::mojom::blink::CookieChangeListener"* nocapture readnone, %"class.mojo::Message"* nocapture readonly, %"class.mojo::MessageReceiverWithStatus"*) local_unnamed_addr #0 align 2 {
  %4 = icmp eq %"class.mojo::MessageReceiverWithStatus"* %2, null
  br i1 %4, label %10, label %5

5:                                                ; preds = %3
  %6 = bitcast %"class.mojo::MessageReceiverWithStatus"* %2 to void (%"class.mojo::MessageReceiverWithStatus"*)***
  %7 = load void (%"class.mojo::MessageReceiverWithStatus"*)**, void (%"class.mojo::MessageReceiverWithStatus"*)*** %6, align 8
  %8 = getelementptr inbounds void (%"class.mojo::MessageReceiverWithStatus"*)*, void (%"class.mojo::MessageReceiverWithStatus"*)** %7, i64 1
  %9 = load void (%"class.mojo::MessageReceiverWithStatus"*)*, void (%"class.mojo::MessageReceiverWithStatus"*)** %8, align 8
  tail call void %9(%"class.mojo::MessageReceiverWithStatus"* nonnull %2) #14
  br label %10

10:                                               ; preds = %3, %5
  ret i1 false
}

; Function Attrs: nounwind ssp uwtable
define hidden zeroext i1 @_ZN7network5mojom5blink36CookieChangeListenerRequestValidator6AcceptEPN4mojo7MessageE(%"class.network::mojom::blink::CookieChangeListenerRequestValidator"* nocapture readnone, %"class.mojo::Message"*) unnamed_addr #0 align 2 {
  %3 = tail call zeroext i1 @_ZN4mojo8internal22ValidateRequestGenericEPNS_7MessageEPKcN4base4spanIKNSt3__14pairIjNS0_21GenericValidationInfoEEELm18446744073709551615EEE(%"class.mojo::Message"* %1, i8* getelementptr inbounds ([35 x i8], [35 x i8]* @_ZN7network5mojom5blink20CookieChangeListener5Name_E, i64 0, i64 0), i64 1, %"struct.std::__1::pair.135"* getelementptr inbounds ([1 x %"struct.std::__1::pair.135"], [1 x %"struct.std::__1::pair.135"]* @_ZN7network5mojom5blinkL35kCookieChangeListenerValidationInfoE, i64 0, i64 0)) #14
  ret i1 %3
}

declare zeroext i1 @_ZN4mojo8internal22ValidateRequestGenericEPNS_7MessageEPKcN4base4spanIKNSt3__14pairIjNS0_21GenericValidationInfoEEELm18446744073709551615EEE(%"class.mojo::Message"*, i8*, i64, %"struct.std::__1::pair.135"*) local_unnamed_addr #2

; Function Attrs: nofree norecurse nounwind ssp uwtable writeonly
define hidden void @_ZN7network5mojom5blink18CookieManagerProxyC2EPN4mojo28MessageReceiverWithResponderE(%"class.network::mojom::blink::CookieManagerProxy"* nocapture, %"class.mojo::MessageReceiverWithResponder"*) unnamed_addr #3 align 2 {
  %3 = getelementptr inbounds %"class.network::mojom::blink::CookieManagerProxy", %"class.network::mojom::blink::CookieManagerProxy"* %0, i64 0, i32 0, i32 0
  store i32 (...)** bitcast (i8** getelementptr inbounds ({ [21 x i8*] }, { [21 x i8*] }* @_ZTVN7network5mojom5blink18CookieManagerProxyE, i64 0, inrange i32 0, i64 2) to i32 (...)**), i32 (...)*** %3, align 8
  %4 = getelementptr inbounds %"class.network::mojom::blink::CookieManagerProxy", %"class.network::mojom::blink::CookieManagerProxy"* %0, i64 0, i32 1
  store %"class.mojo::MessageReceiverWithResponder"* %1, %"class.mojo::MessageReceiverWithResponder"** %4, align 8
  ret void
}

; Function Attrs: nounwind ssp uwtable
define hidden void @_ZN7network5mojom5blink18CookieManagerProxy13GetAllCookiesEN4base12OnceCallbackIFvRKN3WTF6VectorIN3net15CanonicalCookieELj0ENS5_18PartitionAllocatorEEEEEE(%"class.network::mojom::blink::CookieManagerProxy"* nocapture readonly, %"class.base::OnceCallback"* nocapture) unnamed_addr #0 align 2 {
  %3 = alloca %"class.mojo::Message", align 8
  %4 = alloca %"class.base::OnceCallback", align 8
  %5 = bitcast %"class.mojo::Message"* %3 to i8*
  call void @llvm.lifetime.start.p0i8(i64 120, i8* nonnull %5) #14
  call void @llvm.memset.p0i8.i64(i8* nonnull align 8 %5, i8 -86, i64 120, i1 false)
  call void @_ZN4mojo7MessageC1EjjmmPNSt3__16vectorINS_16ScopedHandleBaseINS_6HandleEEENS1_9allocatorIS5_EEEE(%"class.mojo::Message"* nonnull %3, i32 274245010, i32 1, i64 0, i64 0, %"class.std::__1::vector.56"* null) #14
  %6 = getelementptr inbounds %"class.mojo::Message", %"class.mojo::Message"* %3, i64 0, i32 1
  %7 = call i64 @_ZN4mojo8internal6Buffer8AllocateEm(%"class.mojo::internal::Buffer"* %6, i64 8) #14
  %8 = getelementptr inbounds %"class.mojo::Message", %"class.mojo::Message"* %3, i64 0, i32 1, i32 2
  %9 = load i8*, i8** %8, align 8
  %10 = getelementptr inbounds i8, i8* %9, i64 %7
  %11 = bitcast i8* %10 to %"class.network::mojom::internal::CookieManager_GetAllCookies_Params_Data"*
  call void @_ZN7network5mojom8internal39CookieManager_GetAllCookies_Params_DataC1Ev(%"class.network::mojom::internal::CookieManager_GetAllCookies_Params_Data"* %11) #14
  %12 = call i8* @_Znwm(i64 16) #15
  %13 = getelementptr inbounds %"class.base::OnceCallback", %"class.base::OnceCallback"* %1, i64 0, i32 0, i32 0, i32 0
  %14 = bitcast %"class.base::OnceCallback"* %1 to i64*
  %15 = load i64, i64* %14, align 8
  store %"class.base::internal::BindStateBase"* null, %"class.base::internal::BindStateBase"** %13, align 8
  %16 = bitcast i8* %12 to i32 (...)***
  store i32 (...)** bitcast (i8** getelementptr inbounds ({ [6 x i8*] }, { [6 x i8*] }* @_ZTVN7network5mojom5blink45CookieManager_GetAllCookies_ForwardToCallbackE, i64 0, inrange i32 0, i64 2) to i32 (...)**), i32 (...)*** %16, align 8
  %17 = getelementptr inbounds i8, i8* %12, i64 8
  %18 = getelementptr inbounds %"class.base::OnceCallback", %"class.base::OnceCallback"* %4, i64 0, i32 0, i32 0, i32 0
  %19 = bitcast i8* %17 to i64*
  store i64 %15, i64* %19, align 8
  store %"class.base::internal::BindStateBase"* null, %"class.base::internal::BindStateBase"** %18, align 8
  %20 = bitcast i8* %12 to %"class.mojo::MessageReceiver"*
  %21 = getelementptr inbounds %"class.base::OnceCallback", %"class.base::OnceCallback"* %4, i64 0, i32 0
  call void @_ZN4base8internal12CallbackBaseD2Ev(%"class.base::internal::CallbackBase"* nonnull %21) #14
  %22 = getelementptr inbounds %"class.network::mojom::blink::CookieManagerProxy", %"class.network::mojom::blink::CookieManagerProxy"* %0, i64 0, i32 1
  %23 = load %"class.mojo::MessageReceiverWithResponder"*, %"class.mojo::MessageReceiverWithResponder"** %22, align 8
  %24 = bitcast %"class.mojo::MessageReceiverWithResponder"* %23 to i1 (%"class.mojo::MessageReceiverWithResponder"*, %"class.mojo::Message"*, %"class.mojo::MessageReceiver"*)***
  %25 = load i1 (%"class.mojo::MessageReceiverWithResponder"*, %"class.mojo::Message"*, %"class.mojo::MessageReceiver"*)**, i1 (%"class.mojo::MessageReceiverWithResponder"*, %"class.mojo::Message"*, %"class.mojo::MessageReceiver"*)*** %24, align 8
  %26 = getelementptr inbounds i1 (%"class.mojo::MessageReceiverWithResponder"*, %"class.mojo::Message"*, %"class.mojo::MessageReceiver"*)*, i1 (%"class.mojo::MessageReceiverWithResponder"*, %"class.mojo::Message"*, %"class.mojo::MessageReceiver"*)** %25, i64 4
  %27 = load i1 (%"class.mojo::MessageReceiverWithResponder"*, %"class.mojo::Message"*, %"class.mojo::MessageReceiver"*)*, i1 (%"class.mojo::MessageReceiverWithResponder"*, %"class.mojo::Message"*, %"class.mojo::MessageReceiver"*)** %26, align 8
  %28 = call zeroext i1 %27(%"class.mojo::MessageReceiverWithResponder"* %23, %"class.mojo::Message"* nonnull %3, %"class.mojo::MessageReceiver"* nonnull %20) #14
  call void @_ZN4mojo7MessageD1Ev(%"class.mojo::Message"* nonnull %3) #14
  call void @llvm.lifetime.end.p0i8(i64 120, i8* nonnull %5) #14
  ret void
}

; Function Attrs: nounwind ssp uwtable
define hidden void @_ZN7network5mojom5blink18CookieManagerProxy32GetAllCookiesWithAccessSemanticsEN4base12OnceCallbackIFvRKN3WTF6VectorIN3net15CanonicalCookieELj0ENS5_18PartitionAllocatorEEERKNS6_INS0_21CookieAccessSemanticsELj0ES9_EEEEE(%"class.network::mojom::blink::CookieManagerProxy"* nocapture readonly, %"class.base::OnceCallback.143"* nocapture) unnamed_addr #0 align 2 {
  %3 = alloca %"class.mojo::Message", align 8
  %4 = alloca %"class.base::OnceCallback.143", align 8
  %5 = bitcast %"class.mojo::Message"* %3 to i8*
  call void @llvm.lifetime.start.p0i8(i64 120, i8* nonnull %5) #14
  call void @llvm.memset.p0i8.i64(i8* nonnull align 8 %5, i8 -86, i64 120, i1 false)
  call void @_ZN4mojo7MessageC1EjjmmPNSt3__16vectorINS_16ScopedHandleBaseINS_6HandleEEENS1_9allocatorIS5_EEEE(%"class.mojo::Message"* nonnull %3, i32 1737850752, i32 1, i64 0, i64 0, %"class.std::__1::vector.56"* null) #14
  %6 = getelementptr inbounds %"class.mojo::Message", %"class.mojo::Message"* %3, i64 0, i32 1
  %7 = call i64 @_ZN4mojo8internal6Buffer8AllocateEm(%"class.mojo::internal::Buffer"* %6, i64 8) #14
  %8 = getelementptr inbounds %"class.mojo::Message", %"class.mojo::Message"* %3, i64 0, i32 1, i32 2
  %9 = load i8*, i8** %8, align 8
  %10 = getelementptr inbounds i8, i8* %9, i64 %7
  %11 = bitcast i8* %10 to %"class.network::mojom::internal::CookieManager_GetAllCookiesWithAccessSemantics_Params_Data"*
  call void @_ZN7network5mojom8internal58CookieManager_GetAllCookiesWithAccessSemantics_Params_DataC1Ev(%"class.network::mojom::internal::CookieManager_GetAllCookiesWithAccessSemantics_Params_Data"* %11) #14
  %12 = call i8* @_Znwm(i64 16) #15
  %13 = getelementptr inbounds %"class.base::OnceCallback.143", %"class.base::OnceCallback.143"* %1, i64 0, i32 0, i32 0, i32 0
  %14 = bitcast %"class.base::OnceCallback.143"* %1 to i64*
  %15 = load i64, i64* %14, align 8
  store %"class.base::internal::BindStateBase"* null, %"class.base::internal::BindStateBase"** %13, align 8
  %16 = bitcast i8* %12 to i32 (...)***
  store i32 (...)** bitcast (i8** getelementptr inbounds ({ [6 x i8*] }, { [6 x i8*] }* @_ZTVN7network5mojom5blink64CookieManager_GetAllCookiesWithAccessSemantics_ForwardToCallbackE, i64 0, inrange i32 0, i64 2) to i32 (...)**), i32 (...)*** %16, align 8
  %17 = getelementptr inbounds i8, i8* %12, i64 8
  %18 = getelementptr inbounds %"class.base::OnceCallback.143", %"class.base::OnceCallback.143"* %4, i64 0, i32 0, i32 0, i32 0
  %19 = bitcast i8* %17 to i64*
  store i64 %15, i64* %19, align 8
  store %"class.base::internal::BindStateBase"* null, %"class.base::internal::BindStateBase"** %18, align 8
  %20 = bitcast i8* %12 to %"class.mojo::MessageReceiver"*
  %21 = getelementptr inbounds %"class.base::OnceCallback.143", %"class.base::OnceCallback.143"* %4, i64 0, i32 0
  call void @_ZN4base8internal12CallbackBaseD2Ev(%"class.base::internal::CallbackBase"* nonnull %21) #14
  %22 = getelementptr inbounds %"class.network::mojom::blink::CookieManagerProxy", %"class.network::mojom::blink::CookieManagerProxy"* %0, i64 0, i32 1
  %23 = load %"class.mojo::MessageReceiverWithResponder"*, %"class.mojo::MessageReceiverWithResponder"** %22, align 8
  %24 = bitcast %"class.mojo::MessageReceiverWithResponder"* %23 to i1 (%"class.mojo::MessageReceiverWithResponder"*, %"class.mojo::Message"*, %"class.mojo::MessageReceiver"*)***
  %25 = load i1 (%"class.mojo::MessageReceiverWithResponder"*, %"class.mojo::Message"*, %"class.mojo::MessageReceiver"*)**, i1 (%"class.mojo::MessageReceiverWithResponder"*, %"class.mojo::Message"*, %"class.mojo::MessageReceiver"*)*** %24, align 8
  %26 = getelementptr inbounds i1 (%"class.mojo::MessageReceiverWithResponder"*, %"class.mojo::Message"*, %"class.mojo::MessageReceiver"*)*, i1 (%"class.mojo::MessageReceiverWithResponder"*, %"class.mojo::Message"*, %"class.mojo::MessageReceiver"*)** %25, i64 4
  %27 = load i1 (%"class.mojo::MessageReceiverWithResponder"*, %"class.mojo::Message"*, %"class.mojo::MessageReceiver"*)*, i1 (%"class.mojo::MessageReceiverWithResponder"*, %"class.mojo::Message"*, %"class.mojo::MessageReceiver"*)** %26, align 8
  %28 = call zeroext i1 %27(%"class.mojo::MessageReceiverWithResponder"* %23, %"class.mojo::Message"* nonnull %3, %"class.mojo::MessageReceiver"* nonnull %20) #14
  call void @_ZN4mojo7MessageD1Ev(%"class.mojo::Message"* nonnull %3) #14
  call void @llvm.lifetime.end.p0i8(i64 120, i8* nonnull %5) #14
  ret void
}

; Function Attrs: nounwind ssp uwtable
define hidden void @_ZN7network5mojom5blink18CookieManagerProxy13GetCookieListERKN5blink4KURLEN4mojo9StructPtrINS1_13CookieOptionsEEEN4base12OnceCallbackIFvN3WTF6VectorINS8_INS1_22CookieWithAccessResultEEELj0ENSD_18PartitionAllocatorEEESI_EEE(%"class.network::mojom::blink::CookieManagerProxy"* nocapture readonly, %"class.blink::KURL"* dereferenceable(112), %"class.mojo::StructPtr.145"*, %"class.base::OnceCallback.152"* nocapture) unnamed_addr #0 align 2 {
  %5 = alloca %"class.mojo::Message", align 8
  %6 = alloca %"class.mojo::internal::MessageFragment.154", align 8
  %7 = alloca %"class.mojo::internal::MessageFragment.158", align 8
  %8 = alloca %"class.base::OnceCallback.152", align 8
  %9 = bitcast %"class.mojo::Message"* %5 to i8*
  call void @llvm.lifetime.start.p0i8(i64 120, i8* nonnull %9) #14
  call void @llvm.memset.p0i8.i64(i8* nonnull align 8 %9, i8 -86, i64 120, i1 false)
  call void @_ZN4mojo7MessageC1EjjmmPNSt3__16vectorINS_16ScopedHandleBaseINS_6HandleEEENS1_9allocatorIS5_EEEE(%"class.mojo::Message"* nonnull %5, i32 654332822, i32 1, i64 0, i64 0, %"class.std::__1::vector.56"* null) #14
  %10 = getelementptr inbounds %"class.mojo::Message", %"class.mojo::Message"* %5, i64 0, i32 1
  %11 = call i64 @_ZN4mojo8internal6Buffer8AllocateEm(%"class.mojo::internal::Buffer"* %10, i64 24) #14
  %12 = getelementptr inbounds %"class.mojo::Message", %"class.mojo::Message"* %5, i64 0, i32 1, i32 2
  %13 = load i8*, i8** %12, align 8
  %14 = getelementptr inbounds i8, i8* %13, i64 %11
  %15 = bitcast i8* %14 to %"class.network::mojom::internal::CookieManager_GetCookieList_Params_Data"*
  call void @_ZN7network5mojom8internal39CookieManager_GetCookieList_Params_DataC1Ev(%"class.network::mojom::internal::CookieManager_GetCookieList_Params_Data"* %15) #14
  %16 = bitcast %"class.mojo::internal::MessageFragment.154"* %6 to i8*
  call void @llvm.lifetime.start.p0i8(i64 16, i8* nonnull %16) #14
  %17 = getelementptr inbounds %"class.mojo::internal::MessageFragment.154", %"class.mojo::internal::MessageFragment.154"* %6, i64 0, i32 0
  %18 = getelementptr inbounds %"class.mojo::internal::MessageFragment.154", %"class.mojo::internal::MessageFragment.154"* %6, i64 0, i32 1
  store %"class.mojo::Message"* %5, %"class.mojo::Message"** %17, align 8
  store i64 -1, i64* %18, align 8
  call void @_ZN4mojo8internal10SerializerIN3url5mojom11UrlDataViewEKN5blink4KURLEE9SerializeERS7_RNS0_15MessageFragmentINS3_8internal8Url_DataEEE(%"class.blink::KURL"* dereferenceable(112) %1, %"class.mojo::internal::MessageFragment.154"* nonnull dereferenceable(16) %6) #14
  %19 = load i8*, i8** %12, align 8
  %20 = getelementptr inbounds i8, i8* %19, i64 %11
  %21 = getelementptr inbounds i8, i8* %20, i64 8
  %22 = load i64, i64* %18, align 8
  %23 = icmp eq i64 %22, -1
  br i1 %23, label %30, label %24

24:                                               ; preds = %4
  %25 = load %"class.mojo::Message"*, %"class.mojo::Message"** %17, align 8
  %26 = getelementptr inbounds %"class.mojo::Message", %"class.mojo::Message"* %25, i64 0, i32 1, i32 2
  %27 = load i8*, i8** %26, align 8
  %28 = getelementptr inbounds i8, i8* %27, i64 %22
  %29 = bitcast i8* %28 to %"class.url::mojom::internal::Url_Data"*
  br label %30

30:                                               ; preds = %4, %24
  %31 = phi %"class.url::mojom::internal::Url_Data"* [ %29, %24 ], [ null, %4 ]
  %32 = bitcast i8* %21 to i64*
  %33 = icmp eq %"class.url::mojom::internal::Url_Data"* %31, null
  %34 = ptrtoint %"class.url::mojom::internal::Url_Data"* %31 to i64
  %35 = ptrtoint i8* %21 to i64
  %36 = sub i64 %34, %35
  %37 = select i1 %33, i64 0, i64 %36
  store i64 %37, i64* %32, align 8
  %38 = bitcast %"class.mojo::internal::MessageFragment.158"* %7 to i8*
  call void @llvm.lifetime.start.p0i8(i64 16, i8* nonnull %38) #14
  %39 = getelementptr inbounds %"class.mojo::internal::MessageFragment.158", %"class.mojo::internal::MessageFragment.158"* %7, i64 0, i32 0
  %40 = getelementptr inbounds %"class.mojo::internal::MessageFragment.158", %"class.mojo::internal::MessageFragment.158"* %7, i64 0, i32 1
  store %"class.mojo::Message"* %5, %"class.mojo::Message"** %39, align 8
  store i64 -1, i64* %40, align 8
  call void @_ZN4mojo8internal10SerializerIN7network5mojom21CookieOptionsDataViewENS_9StructPtrINS3_5blink13CookieOptionsEEEE9SerializeERS8_RNS0_15MessageFragmentINS3_8internal18CookieOptions_DataEEE(%"class.mojo::StructPtr.145"* dereferenceable(8) %2, %"class.mojo::internal::MessageFragment.158"* nonnull dereferenceable(16) %7) #14
  %41 = load i8*, i8** %12, align 8
  %42 = getelementptr inbounds i8, i8* %41, i64 %11
  %43 = getelementptr inbounds i8, i8* %42, i64 16
  %44 = load i64, i64* %40, align 8
  %45 = icmp eq i64 %44, -1
  br i1 %45, label %52, label %46

46:                                               ; preds = %30
  %47 = load %"class.mojo::Message"*, %"class.mojo::Message"** %39, align 8
  %48 = getelementptr inbounds %"class.mojo::Message", %"class.mojo::Message"* %47, i64 0, i32 1, i32 2
  %49 = load i8*, i8** %48, align 8
  %50 = getelementptr inbounds i8, i8* %49, i64 %44
  %51 = bitcast i8* %50 to %"class.network::mojom::internal::CookieOptions_Data"*
  br label %52

52:                                               ; preds = %46, %30
  %53 = phi %"class.network::mojom::internal::CookieOptions_Data"* [ %51, %46 ], [ null, %30 ]
  %54 = bitcast i8* %43 to i64*
  %55 = icmp eq %"class.network::mojom::internal::CookieOptions_Data"* %53, null
  %56 = ptrtoint %"class.network::mojom::internal::CookieOptions_Data"* %53 to i64
  %57 = ptrtoint i8* %43 to i64
  %58 = sub i64 %56, %57
  %59 = select i1 %55, i64 0, i64 %58
  store i64 %59, i64* %54, align 8
  %60 = call i8* @_Znwm(i64 16) #15
  %61 = getelementptr inbounds %"class.base::OnceCallback.152", %"class.base::OnceCallback.152"* %3, i64 0, i32 0, i32 0, i32 0
  %62 = bitcast %"class.base::OnceCallback.152"* %3 to i64*
  %63 = load i64, i64* %62, align 8
  store %"class.base::internal::BindStateBase"* null, %"class.base::internal::BindStateBase"** %61, align 8
  %64 = bitcast i8* %60 to i32 (...)***
  store i32 (...)** bitcast (i8** getelementptr inbounds ({ [6 x i8*] }, { [6 x i8*] }* @_ZTVN7network5mojom5blink45CookieManager_GetCookieList_ForwardToCallbackE, i64 0, inrange i32 0, i64 2) to i32 (...)**), i32 (...)*** %64, align 8
  %65 = getelementptr inbounds i8, i8* %60, i64 8
  %66 = getelementptr inbounds %"class.base::OnceCallback.152", %"class.base::OnceCallback.152"* %8, i64 0, i32 0, i32 0, i32 0
  %67 = bitcast i8* %65 to i64*
  store i64 %63, i64* %67, align 8
  store %"class.base::internal::BindStateBase"* null, %"class.base::internal::BindStateBase"** %66, align 8
  %68 = bitcast i8* %60 to %"class.mojo::MessageReceiver"*
  %69 = getelementptr inbounds %"class.base::OnceCallback.152", %"class.base::OnceCallback.152"* %8, i64 0, i32 0
  call void @_ZN4base8internal12CallbackBaseD2Ev(%"class.base::internal::CallbackBase"* nonnull %69) #14
  %70 = getelementptr inbounds %"class.network::mojom::blink::CookieManagerProxy", %"class.network::mojom::blink::CookieManagerProxy"* %0, i64 0, i32 1
  %71 = load %"class.mojo::MessageReceiverWithResponder"*, %"class.mojo::MessageReceiverWithResponder"** %70, align 8
  %72 = bitcast %"class.mojo::MessageReceiverWithResponder"* %71 to i1 (%"class.mojo::MessageReceiverWithResponder"*, %"class.mojo::Message"*, %"class.mojo::MessageReceiver"*)***
  %73 = load i1 (%"class.mojo::MessageReceiverWithResponder"*, %"class.mojo::Message"*, %"class.mojo::MessageReceiver"*)**, i1 (%"class.mojo::MessageReceiverWithResponder"*, %"class.mojo::Message"*, %"class.mojo::MessageReceiver"*)*** %72, align 8
  %74 = getelementptr inbounds i1 (%"class.mojo::MessageReceiverWithResponder"*, %"class.mojo::Message"*, %"class.mojo::MessageReceiver"*)*, i1 (%"class.mojo::MessageReceiverWithResponder"*, %"class.mojo::Message"*, %"class.mojo::MessageReceiver"*)** %73, i64 4
  %75 = load i1 (%"class.mojo::MessageReceiverWithResponder"*, %"class.mojo::Message"*, %"class.mojo::MessageReceiver"*)*, i1 (%"class.mojo::MessageReceiverWithResponder"*, %"class.mojo::Message"*, %"class.mojo::MessageReceiver"*)** %74, align 8
  %76 = call zeroext i1 %75(%"class.mojo::MessageReceiverWithResponder"* %71, %"class.mojo::Message"* nonnull %5, %"class.mojo::MessageReceiver"* nonnull %68) #14
  call void @llvm.lifetime.end.p0i8(i64 16, i8* nonnull %38) #14
  call void @llvm.lifetime.end.p0i8(i64 16, i8* nonnull %16) #14
  call void @_ZN4mojo7MessageD1Ev(%"class.mojo::Message"* nonnull %5) #14
  call void @llvm.lifetime.end.p0i8(i64 120, i8* nonnull %9) #14
  ret void
}

; Function Attrs: nounwind ssp uwtable
define hidden void @_ZN7network5mojom5blink18CookieManagerProxy18SetCanonicalCookieERKN3net15CanonicalCookieERKN5blink4KURLEN4mojo9StructPtrINS1_13CookieOptionsEEEN4base12OnceCallbackIFvNSC_INS1_18CookieAccessResultEEEEEE(%"class.network::mojom::blink::CookieManagerProxy"* nocapture readonly, %"class.net::CanonicalCookie"* dereferenceable(144), %"class.blink::KURL"* dereferenceable(112), %"class.mojo::StructPtr.145"*, %"class.base::OnceCallback.160"* nocapture) unnamed_addr #0 align 2 {
  %6 = alloca %"class.mojo::Message", align 8
  %7 = alloca %"class.mojo::internal::MessageFragment.162", align 8
  %8 = alloca %"class.mojo::internal::MessageFragment.154", align 8
  %9 = alloca %"class.mojo::internal::MessageFragment.158", align 8
  %10 = alloca %"class.base::OnceCallback.160", align 8
  %11 = bitcast %"class.mojo::Message"* %6 to i8*
  call void @llvm.lifetime.start.p0i8(i64 120, i8* nonnull %11) #14
  call void @llvm.memset.p0i8.i64(i8* nonnull align 8 %11, i8 -86, i64 120, i1 false)
  call void @_ZN4mojo7MessageC1EjjmmPNSt3__16vectorINS_16ScopedHandleBaseINS_6HandleEEENS1_9allocatorIS5_EEEE(%"class.mojo::Message"* nonnull %6, i32 24949920, i32 1, i64 0, i64 0, %"class.std::__1::vector.56"* null) #14
  %12 = getelementptr inbounds %"class.mojo::Message", %"class.mojo::Message"* %6, i64 0, i32 1
  %13 = call i64 @_ZN4mojo8internal6Buffer8AllocateEm(%"class.mojo::internal::Buffer"* %12, i64 32) #14
  %14 = getelementptr inbounds %"class.mojo::Message", %"class.mojo::Message"* %6, i64 0, i32 1, i32 2
  %15 = load i8*, i8** %14, align 8
  %16 = getelementptr inbounds i8, i8* %15, i64 %13
  %17 = bitcast i8* %16 to %"class.network::mojom::internal::CookieManager_SetCanonicalCookie_Params_Data"*
  call void @_ZN7network5mojom8internal44CookieManager_SetCanonicalCookie_Params_DataC1Ev(%"class.network::mojom::internal::CookieManager_SetCanonicalCookie_Params_Data"* %17) #14
  %18 = bitcast %"class.mojo::internal::MessageFragment.162"* %7 to i8*
  call void @llvm.lifetime.start.p0i8(i64 16, i8* nonnull %18) #14
  %19 = getelementptr inbounds %"class.mojo::internal::MessageFragment.162", %"class.mojo::internal::MessageFragment.162"* %7, i64 0, i32 0
  %20 = getelementptr inbounds %"class.mojo::internal::MessageFragment.162", %"class.mojo::internal::MessageFragment.162"* %7, i64 0, i32 1
  store %"class.mojo::Message"* %6, %"class.mojo::Message"** %19, align 8
  store i64 -1, i64* %20, align 8
  call void @_ZN4mojo8internal10SerializerIN7network5mojom23CanonicalCookieDataViewEKN3net15CanonicalCookieEE9SerializeERS7_RNS0_15MessageFragmentINS3_8internal20CanonicalCookie_DataEEE(%"class.net::CanonicalCookie"* dereferenceable(144) %1, %"class.mojo::internal::MessageFragment.162"* nonnull dereferenceable(16) %7) #14
  %21 = load i8*, i8** %14, align 8
  %22 = getelementptr inbounds i8, i8* %21, i64 %13
  %23 = getelementptr inbounds i8, i8* %22, i64 8
  %24 = load i64, i64* %20, align 8
  %25 = icmp eq i64 %24, -1
  br i1 %25, label %32, label %26

26:                                               ; preds = %5
  %27 = load %"class.mojo::Message"*, %"class.mojo::Message"** %19, align 8
  %28 = getelementptr inbounds %"class.mojo::Message", %"class.mojo::Message"* %27, i64 0, i32 1, i32 2
  %29 = load i8*, i8** %28, align 8
  %30 = getelementptr inbounds i8, i8* %29, i64 %24
  %31 = bitcast i8* %30 to %"class.network::mojom::internal::CanonicalCookie_Data"*
  br label %32

32:                                               ; preds = %5, %26
  %33 = phi %"class.network::mojom::internal::CanonicalCookie_Data"* [ %31, %26 ], [ null, %5 ]
  %34 = bitcast i8* %23 to i64*
  %35 = icmp eq %"class.network::mojom::internal::CanonicalCookie_Data"* %33, null
  %36 = ptrtoint %"class.network::mojom::internal::CanonicalCookie_Data"* %33 to i64
  %37 = ptrtoint i8* %23 to i64
  %38 = sub i64 %36, %37
  %39 = select i1 %35, i64 0, i64 %38
  store i64 %39, i64* %34, align 8
  %40 = bitcast %"class.mojo::internal::MessageFragment.154"* %8 to i8*
  call void @llvm.lifetime.start.p0i8(i64 16, i8* nonnull %40) #14
  %41 = getelementptr inbounds %"class.mojo::internal::MessageFragment.154", %"class.mojo::internal::MessageFragment.154"* %8, i64 0, i32 0
  %42 = getelementptr inbounds %"class.mojo::internal::MessageFragment.154", %"class.mojo::internal::MessageFragment.154"* %8, i64 0, i32 1
  store %"class.mojo::Message"* %6, %"class.mojo::Message"** %41, align 8
  store i64 -1, i64* %42, align 8
  call void @_ZN4mojo8internal10SerializerIN3url5mojom11UrlDataViewEKN5blink4KURLEE9SerializeERS7_RNS0_15MessageFragmentINS3_8internal8Url_DataEEE(%"class.blink::KURL"* dereferenceable(112) %2, %"class.mojo::internal::MessageFragment.154"* nonnull dereferenceable(16) %8) #14
  %43 = load i8*, i8** %14, align 8
  %44 = getelementptr inbounds i8, i8* %43, i64 %13
  %45 = getelementptr inbounds i8, i8* %44, i64 16
  %46 = load i64, i64* %42, align 8
  %47 = icmp eq i64 %46, -1
  br i1 %47, label %54, label %48

48:                                               ; preds = %32
  %49 = load %"class.mojo::Message"*, %"class.mojo::Message"** %41, align 8
  %50 = getelementptr inbounds %"class.mojo::Message", %"class.mojo::Message"* %49, i64 0, i32 1, i32 2
  %51 = load i8*, i8** %50, align 8
  %52 = getelementptr inbounds i8, i8* %51, i64 %46
  %53 = bitcast i8* %52 to %"class.url::mojom::internal::Url_Data"*
  br label %54

54:                                               ; preds = %32, %48
  %55 = phi %"class.url::mojom::internal::Url_Data"* [ %53, %48 ], [ null, %32 ]
  %56 = bitcast i8* %45 to i64*
  %57 = icmp eq %"class.url::mojom::internal::Url_Data"* %55, null
  %58 = ptrtoint %"class.url::mojom::internal::Url_Data"* %55 to i64
  %59 = ptrtoint i8* %45 to i64
  %60 = sub i64 %58, %59
  %61 = select i1 %57, i64 0, i64 %60
  store i64 %61, i64* %56, align 8
  %62 = bitcast %"class.mojo::internal::MessageFragment.158"* %9 to i8*
  call void @llvm.lifetime.start.p0i8(i64 16, i8* nonnull %62) #14
  %63 = getelementptr inbounds %"class.mojo::internal::MessageFragment.158", %"class.mojo::internal::MessageFragment.158"* %9, i64 0, i32 0
  %64 = getelementptr inbounds %"class.mojo::internal::MessageFragment.158", %"class.mojo::internal::MessageFragment.158"* %9, i64 0, i32 1
  store %"class.mojo::Message"* %6, %"class.mojo::Message"** %63, align 8
  store i64 -1, i64* %64, align 8
  call void @_ZN4mojo8internal10SerializerIN7network5mojom21CookieOptionsDataViewENS_9StructPtrINS3_5blink13CookieOptionsEEEE9SerializeERS8_RNS0_15MessageFragmentINS3_8internal18CookieOptions_DataEEE(%"class.mojo::StructPtr.145"* dereferenceable(8) %3, %"class.mojo::internal::MessageFragment.158"* nonnull dereferenceable(16) %9) #14
  %65 = load i8*, i8** %14, align 8
  %66 = getelementptr inbounds i8, i8* %65, i64 %13
  %67 = getelementptr inbounds i8, i8* %66, i64 24
  %68 = load i64, i64* %64, align 8
  %69 = icmp eq i64 %68, -1
  br i1 %69, label %76, label %70

70:                                               ; preds = %54
  %71 = load %"class.mojo::Message"*, %"class.mojo::Message"** %63, align 8
  %72 = getelementptr inbounds %"class.mojo::Message", %"class.mojo::Message"* %71, i64 0, i32 1, i32 2
  %73 = load i8*, i8** %72, align 8
  %74 = getelementptr inbounds i8, i8* %73, i64 %68
  %75 = bitcast i8* %74 to %"class.network::mojom::internal::CookieOptions_Data"*
  br label %76

76:                                               ; preds = %70, %54
  %77 = phi %"class.network::mojom::internal::CookieOptions_Data"* [ %75, %70 ], [ null, %54 ]
  %78 = bitcast i8* %67 to i64*
  %79 = icmp eq %"class.network::mojom::internal::CookieOptions_Data"* %77, null
  %80 = ptrtoint %"class.network::mojom::internal::CookieOptions_Data"* %77 to i64
  %81 = ptrtoint i8* %67 to i64
  %82 = sub i64 %80, %81
  %83 = select i1 %79, i64 0, i64 %82
  store i64 %83, i64* %78, align 8
  %84 = call i8* @_Znwm(i64 16) #15
  %85 = getelementptr inbounds %"class.base::OnceCallback.160", %"class.base::OnceCallback.160"* %4, i64 0, i32 0, i32 0, i32 0
  %86 = bitcast %"class.base::OnceCallback.160"* %4 to i64*
  %87 = load i64, i64* %86, align 8
  store %"class.base::internal::BindStateBase"* null, %"class.base::internal::BindStateBase"** %85, align 8
  %88 = bitcast i8* %84 to i32 (...)***
  store i32 (...)** bitcast (i8** getelementptr inbounds ({ [6 x i8*] }, { [6 x i8*] }* @_ZTVN7network5mojom5blink50CookieManager_SetCanonicalCookie_ForwardToCallbackE, i64 0, inrange i32 0, i64 2) to i32 (...)**), i32 (...)*** %88, align 8
  %89 = getelementptr inbounds i8, i8* %84, i64 8
  %90 = getelementptr inbounds %"class.base::OnceCallback.160", %"class.base::OnceCallback.160"* %10, i64 0, i32 0, i32 0, i32 0
  %91 = bitcast i8* %89 to i64*
  store i64 %87, i64* %91, align 8
  store %"class.base::internal::BindStateBase"* null, %"class.base::internal::BindStateBase"** %90, align 8
  %92 = bitcast i8* %84 to %"class.mojo::MessageReceiver"*
  %93 = getelementptr inbounds %"class.base::OnceCallback.160", %"class.base::OnceCallback.160"* %10, i64 0, i32 0
  call void @_ZN4base8internal12CallbackBaseD2Ev(%"class.base::internal::CallbackBase"* nonnull %93) #14
  %94 = getelementptr inbounds %"class.network::mojom::blink::CookieManagerProxy", %"class.network::mojom::blink::CookieManagerProxy"* %0, i64 0, i32 1
  %95 = load %"class.mojo::MessageReceiverWithResponder"*, %"class.mojo::MessageReceiverWithResponder"** %94, align 8
  %96 = bitcast %"class.mojo::MessageReceiverWithResponder"* %95 to i1 (%"class.mojo::MessageReceiverWithResponder"*, %"class.mojo::Message"*, %"class.mojo::MessageReceiver"*)***
  %97 = load i1 (%"class.mojo::MessageReceiverWithResponder"*, %"class.mojo::Message"*, %"class.mojo::MessageReceiver"*)**, i1 (%"class.mojo::MessageReceiverWithResponder"*, %"class.mojo::Message"*, %"class.mojo::MessageReceiver"*)*** %96, align 8
  %98 = getelementptr inbounds i1 (%"class.mojo::MessageReceiverWithResponder"*, %"class.mojo::Message"*, %"class.mojo::MessageReceiver"*)*, i1 (%"class.mojo::MessageReceiverWithResponder"*, %"class.mojo::Message"*, %"class.mojo::MessageReceiver"*)** %97, i64 4
  %99 = load i1 (%"class.mojo::MessageReceiverWithResponder"*, %"class.mojo::Message"*, %"class.mojo::MessageReceiver"*)*, i1 (%"class.mojo::MessageReceiverWithResponder"*, %"class.mojo::Message"*, %"class.mojo::MessageReceiver"*)** %98, align 8
  %100 = call zeroext i1 %99(%"class.mojo::MessageReceiverWithResponder"* %95, %"class.mojo::Message"* nonnull %6, %"class.mojo::MessageReceiver"* nonnull %92) #14
  call void @llvm.lifetime.end.p0i8(i64 16, i8* nonnull %62) #14
  call void @llvm.lifetime.end.p0i8(i64 16, i8* nonnull %40) #14
  call void @llvm.lifetime.end.p0i8(i64 16, i8* nonnull %18) #14
  call void @_ZN4mojo7MessageD1Ev(%"class.mojo::Message"* nonnull %6) #14
  call void @llvm.lifetime.end.p0i8(i64 120, i8* nonnull %11) #14
  ret void
}

; Function Attrs: nounwind
declare void @_ZN4base8internal12CallbackBaseD2Ev(%"class.base::internal::CallbackBase"*) unnamed_addr #7

; Function Attrs: nounwind ssp uwtable
define hidden void @_ZN7network5mojom5blink18CookieManagerProxy21DeleteCanonicalCookieERKN3net15CanonicalCookieEN4base12OnceCallbackIFvbEEE(%"class.network::mojom::blink::CookieManagerProxy"* nocapture readonly, %"class.net::CanonicalCookie"* dereferenceable(144), %"class.base::OnceCallback.164"* nocapture) unnamed_addr #0 align 2 {
  %4 = alloca %"class.mojo::Message", align 8
  %5 = alloca %"class.mojo::internal::MessageFragment.162", align 8
  %6 = alloca %"class.base::OnceCallback.164", align 8
  %7 = bitcast %"class.mojo::Message"* %4 to i8*
  call void @llvm.lifetime.start.p0i8(i64 120, i8* nonnull %7) #14
  call void @llvm.memset.p0i8.i64(i8* nonnull align 8 %7, i8 -86, i64 120, i1 false)
  call void @_ZN4mojo7MessageC1EjjmmPNSt3__16vectorINS_16ScopedHandleBaseINS_6HandleEEENS1_9allocatorIS5_EEEE(%"class.mojo::Message"* nonnull %4, i32 777282370, i32 1, i64 0, i64 0, %"class.std::__1::vector.56"* null) #14
  %8 = getelementptr inbounds %"class.mojo::Message", %"class.mojo::Message"* %4, i64 0, i32 1
  %9 = call i64 @_ZN4mojo8internal6Buffer8AllocateEm(%"class.mojo::internal::Buffer"* %8, i64 16) #14
  %10 = getelementptr inbounds %"class.mojo::Message", %"class.mojo::Message"* %4, i64 0, i32 1, i32 2
  %11 = load i8*, i8** %10, align 8
  %12 = getelementptr inbounds i8, i8* %11, i64 %9
  %13 = bitcast i8* %12 to %"class.network::mojom::internal::CookieManager_DeleteCanonicalCookie_Params_Data"*
  call void @_ZN7network5mojom8internal47CookieManager_DeleteCanonicalCookie_Params_DataC1Ev(%"class.network::mojom::internal::CookieManager_DeleteCanonicalCookie_Params_Data"* %13) #14
  %14 = bitcast %"class.mojo::internal::MessageFragment.162"* %5 to i8*
  call void @llvm.lifetime.start.p0i8(i64 16, i8* nonnull %14) #14
  %15 = getelementptr inbounds %"class.mojo::internal::MessageFragment.162", %"class.mojo::internal::MessageFragment.162"* %5, i64 0, i32 0
  %16 = getelementptr inbounds %"class.mojo::internal::MessageFragment.162", %"class.mojo::internal::MessageFragment.162"* %5, i64 0, i32 1
  store %"class.mojo::Message"* %4, %"class.mojo::Message"** %15, align 8
  store i64 -1, i64* %16, align 8
  call void @_ZN4mojo8internal10SerializerIN7network5mojom23CanonicalCookieDataViewEKN3net15CanonicalCookieEE9SerializeERS7_RNS0_15MessageFragmentINS3_8internal20CanonicalCookie_DataEEE(%"class.net::CanonicalCookie"* dereferenceable(144) %1, %"class.mojo::internal::MessageFragment.162"* nonnull dereferenceable(16) %5) #14
  %17 = load i8*, i8** %10, align 8
  %18 = getelementptr inbounds i8, i8* %17, i64 %9
  %19 = getelementptr inbounds i8, i8* %18, i64 8
  %20 = load i64, i64* %16, align 8
  %21 = icmp eq i64 %20, -1
  br i1 %21, label %28, label %22

22:                                               ; preds = %3
  %23 = load %"class.mojo::Message"*, %"class.mojo::Message"** %15, align 8
  %24 = getelementptr inbounds %"class.mojo::Message", %"class.mojo::Message"* %23, i64 0, i32 1, i32 2
  %25 = load i8*, i8** %24, align 8
  %26 = getelementptr inbounds i8, i8* %25, i64 %20
  %27 = bitcast i8* %26 to %"class.network::mojom::internal::CanonicalCookie_Data"*
  br label %28

28:                                               ; preds = %22, %3
  %29 = phi %"class.network::mojom::internal::CanonicalCookie_Data"* [ %27, %22 ], [ null, %3 ]
  %30 = bitcast i8* %19 to i64*
  %31 = icmp eq %"class.network::mojom::internal::CanonicalCookie_Data"* %29, null
  %32 = ptrtoint %"class.network::mojom::internal::CanonicalCookie_Data"* %29 to i64
  %33 = ptrtoint i8* %19 to i64
  %34 = sub i64 %32, %33
  %35 = select i1 %31, i64 0, i64 %34
  store i64 %35, i64* %30, align 8
  %36 = call i8* @_Znwm(i64 16) #15
  %37 = getelementptr inbounds %"class.base::OnceCallback.164", %"class.base::OnceCallback.164"* %2, i64 0, i32 0, i32 0, i32 0
  %38 = bitcast %"class.base::OnceCallback.164"* %2 to i64*
  %39 = load i64, i64* %38, align 8
  store %"class.base::internal::BindStateBase"* null, %"class.base::internal::BindStateBase"** %37, align 8
  %40 = bitcast i8* %36 to i32 (...)***
  store i32 (...)** bitcast (i8** getelementptr inbounds ({ [6 x i8*] }, { [6 x i8*] }* @_ZTVN7network5mojom5blink53CookieManager_DeleteCanonicalCookie_ForwardToCallbackE, i64 0, inrange i32 0, i64 2) to i32 (...)**), i32 (...)*** %40, align 8
  %41 = getelementptr inbounds i8, i8* %36, i64 8
  %42 = getelementptr inbounds %"class.base::OnceCallback.164", %"class.base::OnceCallback.164"* %6, i64 0, i32 0, i32 0, i32 0
  %43 = bitcast i8* %41 to i64*
  store i64 %39, i64* %43, align 8
  store %"class.base::internal::BindStateBase"* null, %"class.base::internal::BindStateBase"** %42, align 8
  %44 = bitcast i8* %36 to %"class.mojo::MessageReceiver"*
  %45 = getelementptr inbounds %"class.base::OnceCallback.164", %"class.base::OnceCallback.164"* %6, i64 0, i32 0
  call void @_ZN4base8internal12CallbackBaseD2Ev(%"class.base::internal::CallbackBase"* nonnull %45) #14
  %46 = getelementptr inbounds %"class.network::mojom::blink::CookieManagerProxy", %"class.network::mojom::blink::CookieManagerProxy"* %0, i64 0, i32 1
  %47 = load %"class.mojo::MessageReceiverWithResponder"*, %"class.mojo::MessageReceiverWithResponder"** %46, align 8
  %48 = bitcast %"class.mojo::MessageReceiverWithResponder"* %47 to i1 (%"class.mojo::MessageReceiverWithResponder"*, %"class.mojo::Message"*, %"class.mojo::MessageReceiver"*)***
  %49 = load i1 (%"class.mojo::MessageReceiverWithResponder"*, %"class.mojo::Message"*, %"class.mojo::MessageReceiver"*)**, i1 (%"class.mojo::MessageReceiverWithResponder"*, %"class.mojo::Message"*, %"class.mojo::MessageReceiver"*)*** %48, align 8
  %50 = getelementptr inbounds i1 (%"class.mojo::MessageReceiverWithResponder"*, %"class.mojo::Message"*, %"class.mojo::MessageReceiver"*)*, i1 (%"class.mojo::MessageReceiverWithResponder"*, %"class.mojo::Message"*, %"class.mojo::MessageReceiver"*)** %49, i64 4
  %51 = load i1 (%"class.mojo::MessageReceiverWithResponder"*, %"class.mojo::Message"*, %"class.mojo::MessageReceiver"*)*, i1 (%"class.mojo::MessageReceiverWithResponder"*, %"class.mojo::Message"*, %"class.mojo::MessageReceiver"*)** %50, align 8
  %52 = call zeroext i1 %51(%"class.mojo::MessageReceiverWithResponder"* %47, %"class.mojo::Message"* nonnull %4, %"class.mojo::MessageReceiver"* nonnull %44) #14
  call void @llvm.lifetime.end.p0i8(i64 16, i8* nonnull %14) #14
  call void @_ZN4mojo7MessageD1Ev(%"class.mojo::Message"* nonnull %4) #14
  call void @llvm.lifetime.end.p0i8(i64 120, i8* nonnull %7) #14
  ret void
}

; Function Attrs: nounwind ssp uwtable
define hidden void @_ZN7network5mojom5blink18CookieManagerProxy13DeleteCookiesEN4mojo9StructPtrINS1_20CookieDeletionFilterEEEN4base12OnceCallbackIFvjEEE(%"class.network::mojom::blink::CookieManagerProxy"* nocapture readonly, %"class.mojo::StructPtr.166"*, %"class.base::OnceCallback.173"* nocapture) unnamed_addr #0 align 2 {
  %4 = alloca %"class.mojo::Message", align 8
  %5 = alloca %"class.mojo::internal::MessageFragment.175", align 8
  %6 = alloca %"class.base::OnceCallback.173", align 8
  %7 = bitcast %"class.mojo::Message"* %4 to i8*
  call void @llvm.lifetime.start.p0i8(i64 120, i8* nonnull %7) #14
  call void @llvm.memset.p0i8.i64(i8* nonnull align 8 %7, i8 -86, i64 120, i1 false)
  call void @_ZN4mojo7MessageC1EjjmmPNSt3__16vectorINS_16ScopedHandleBaseINS_6HandleEEENS1_9allocatorIS5_EEEE(%"class.mojo::Message"* nonnull %4, i32 1512501863, i32 1, i64 0, i64 0, %"class.std::__1::vector.56"* null) #14
  %8 = getelementptr inbounds %"class.mojo::Message", %"class.mojo::Message"* %4, i64 0, i32 1
  %9 = call i64 @_ZN4mojo8internal6Buffer8AllocateEm(%"class.mojo::internal::Buffer"* %8, i64 16) #14
  %10 = getelementptr inbounds %"class.mojo::Message", %"class.mojo::Message"* %4, i64 0, i32 1, i32 2
  %11 = load i8*, i8** %10, align 8
  %12 = getelementptr inbounds i8, i8* %11, i64 %9
  %13 = bitcast i8* %12 to %"class.network::mojom::internal::CookieManager_DeleteCookies_Params_Data"*
  call void @_ZN7network5mojom8internal39CookieManager_DeleteCookies_Params_DataC1Ev(%"class.network::mojom::internal::CookieManager_DeleteCookies_Params_Data"* %13) #14
  %14 = bitcast %"class.mojo::internal::MessageFragment.175"* %5 to i8*
  call void @llvm.lifetime.start.p0i8(i64 16, i8* nonnull %14) #14
  %15 = getelementptr inbounds %"class.mojo::internal::MessageFragment.175", %"class.mojo::internal::MessageFragment.175"* %5, i64 0, i32 0
  %16 = getelementptr inbounds %"class.mojo::internal::MessageFragment.175", %"class.mojo::internal::MessageFragment.175"* %5, i64 0, i32 1
  store %"class.mojo::Message"* %4, %"class.mojo::Message"** %15, align 8
  store i64 -1, i64* %16, align 8
  call void @_ZN4mojo8internal10SerializerIN7network5mojom28CookieDeletionFilterDataViewENS_9StructPtrINS3_5blink20CookieDeletionFilterEEEE9SerializeERS8_RNS0_15MessageFragmentINS3_8internal25CookieDeletionFilter_DataEEE(%"class.mojo::StructPtr.166"* dereferenceable(8) %1, %"class.mojo::internal::MessageFragment.175"* nonnull dereferenceable(16) %5) #14
  %17 = load i8*, i8** %10, align 8
  %18 = getelementptr inbounds i8, i8* %17, i64 %9
  %19 = getelementptr inbounds i8, i8* %18, i64 8
  %20 = load i64, i64* %16, align 8
  %21 = icmp eq i64 %20, -1
  br i1 %21, label %28, label %22

22:                                               ; preds = %3
  %23 = load %"class.mojo::Message"*, %"class.mojo::Message"** %15, align 8
  %24 = getelementptr inbounds %"class.mojo::Message", %"class.mojo::Message"* %23, i64 0, i32 1, i32 2
  %25 = load i8*, i8** %24, align 8
  %26 = getelementptr inbounds i8, i8* %25, i64 %20
  %27 = bitcast i8* %26 to %"class.network::mojom::internal::CookieDeletionFilter_Data"*
  br label %28

28:                                               ; preds = %22, %3
  %29 = phi %"class.network::mojom::internal::CookieDeletionFilter_Data"* [ %27, %22 ], [ null, %3 ]
  %30 = bitcast i8* %19 to i64*
  %31 = icmp eq %"class.network::mojom::internal::CookieDeletionFilter_Data"* %29, null
  %32 = ptrtoint %"class.network::mojom::internal::CookieDeletionFilter_Data"* %29 to i64
  %33 = ptrtoint i8* %19 to i64
  %34 = sub i64 %32, %33
  %35 = select i1 %31, i64 0, i64 %34
  store i64 %35, i64* %30, align 8
  %36 = call i8* @_Znwm(i64 16) #15
  %37 = getelementptr inbounds %"class.base::OnceCallback.173", %"class.base::OnceCallback.173"* %2, i64 0, i32 0, i32 0, i32 0
  %38 = bitcast %"class.base::OnceCallback.173"* %2 to i64*
  %39 = load i64, i64* %38, align 8
  store %"class.base::internal::BindStateBase"* null, %"class.base::internal::BindStateBase"** %37, align 8
  %40 = bitcast i8* %36 to i32 (...)***
  store i32 (...)** bitcast (i8** getelementptr inbounds ({ [6 x i8*] }, { [6 x i8*] }* @_ZTVN7network5mojom5blink45CookieManager_DeleteCookies_ForwardToCallbackE, i64 0, inrange i32 0, i64 2) to i32 (...)**), i32 (...)*** %40, align 8
  %41 = getelementptr inbounds i8, i8* %36, i64 8
  %42 = getelementptr inbounds %"class.base::OnceCallback.173", %"class.base::OnceCallback.173"* %6, i64 0, i32 0, i32 0, i32 0
  %43 = bitcast i8* %41 to i64*
  store i64 %39, i64* %43, align 8
  store %"class.base::internal::BindStateBase"* null, %"class.base::internal::BindStateBase"** %42, align 8
  %44 = bitcast i8* %36 to %"class.mojo::MessageReceiver"*
  %45 = getelementptr inbounds %"class.base::OnceCallback.173", %"class.base::OnceCallback.173"* %6, i64 0, i32 0
  call void @_ZN4base8internal12CallbackBaseD2Ev(%"class.base::internal::CallbackBase"* nonnull %45) #14
  %46 = getelementptr inbounds %"class.network::mojom::blink::CookieManagerProxy", %"class.network::mojom::blink::CookieManagerProxy"* %0, i64 0, i32 1
  %47 = load %"class.mojo::MessageReceiverWithResponder"*, %"class.mojo::MessageReceiverWithResponder"** %46, align 8
  %48 = bitcast %"class.mojo::MessageReceiverWithResponder"* %47 to i1 (%"class.mojo::MessageReceiverWithResponder"*, %"class.mojo::Message"*, %"class.mojo::MessageReceiver"*)***
  %49 = load i1 (%"class.mojo::MessageReceiverWithResponder"*, %"class.mojo::Message"*, %"class.mojo::MessageReceiver"*)**, i1 (%"class.mojo::MessageReceiverWithResponder"*, %"class.mojo::Message"*, %"class.mojo::MessageReceiver"*)*** %48, align 8
  %50 = getelementptr inbounds i1 (%"class.mojo::MessageReceiverWithResponder"*, %"class.mojo::Message"*, %"class.mojo::MessageReceiver"*)*, i1 (%"class.mojo::MessageReceiverWithResponder"*, %"class.mojo::Message"*, %"class.mojo::MessageReceiver"*)** %49, i64 4
  %51 = load i1 (%"class.mojo::MessageReceiverWithResponder"*, %"class.mojo::Message"*, %"class.mojo::MessageReceiver"*)*, i1 (%"class.mojo::MessageReceiverWithResponder"*, %"class.mojo::Message"*, %"class.mojo::MessageReceiver"*)** %50, align 8
  %52 = call zeroext i1 %51(%"class.mojo::MessageReceiverWithResponder"* %47, %"class.mojo::Message"* nonnull %4, %"class.mojo::MessageReceiver"* nonnull %44) #14
  call void @llvm.lifetime.end.p0i8(i64 16, i8* nonnull %14) #14
  call void @_ZN4mojo7MessageD1Ev(%"class.mojo::Message"* nonnull %4) #14
  call void @llvm.lifetime.end.p0i8(i64 120, i8* nonnull %7) #14
  ret void
}

; Function Attrs: nounwind ssp uwtable
define hidden void @_ZN7network5mojom5blink18CookieManagerProxy24DeleteSessionOnlyCookiesEN4base12OnceCallbackIFvjEEE(%"class.network::mojom::blink::CookieManagerProxy"* nocapture readonly, %"class.base::OnceCallback.173"* nocapture) unnamed_addr #0 align 2 {
  %3 = alloca %"class.mojo::Message", align 8
  %4 = alloca %"class.base::OnceCallback.173", align 8
  %5 = bitcast %"class.mojo::Message"* %3 to i8*
  call void @llvm.lifetime.start.p0i8(i64 120, i8* nonnull %5) #14
  call void @llvm.memset.p0i8.i64(i8* nonnull align 8 %5, i8 -86, i64 120, i1 false)
  call void @_ZN4mojo7MessageC1EjjmmPNSt3__16vectorINS_16ScopedHandleBaseINS_6HandleEEENS1_9allocatorIS5_EEEE(%"class.mojo::Message"* nonnull %3, i32 1920193149, i32 1, i64 0, i64 0, %"class.std::__1::vector.56"* null) #14
  %6 = getelementptr inbounds %"class.mojo::Message", %"class.mojo::Message"* %3, i64 0, i32 1
  %7 = call i64 @_ZN4mojo8internal6Buffer8AllocateEm(%"class.mojo::internal::Buffer"* %6, i64 8) #14
  %8 = getelementptr inbounds %"class.mojo::Message", %"class.mojo::Message"* %3, i64 0, i32 1, i32 2
  %9 = load i8*, i8** %8, align 8
  %10 = getelementptr inbounds i8, i8* %9, i64 %7
  %11 = bitcast i8* %10 to %"class.network::mojom::internal::CookieManager_DeleteSessionOnlyCookies_Params_Data"*
  call void @_ZN7network5mojom8internal50CookieManager_DeleteSessionOnlyCookies_Params_DataC1Ev(%"class.network::mojom::internal::CookieManager_DeleteSessionOnlyCookies_Params_Data"* %11) #14
  %12 = call i8* @_Znwm(i64 16) #15
  %13 = getelementptr inbounds %"class.base::OnceCallback.173", %"class.base::OnceCallback.173"* %1, i64 0, i32 0, i32 0, i32 0
  %14 = bitcast %"class.base::OnceCallback.173"* %1 to i64*
  %15 = load i64, i64* %14, align 8
  store %"class.base::internal::BindStateBase"* null, %"class.base::internal::BindStateBase"** %13, align 8
  %16 = bitcast i8* %12 to i32 (...)***
  store i32 (...)** bitcast (i8** getelementptr inbounds ({ [6 x i8*] }, { [6 x i8*] }* @_ZTVN7network5mojom5blink56CookieManager_DeleteSessionOnlyCookies_ForwardToCallbackE, i64 0, inrange i32 0, i64 2) to i32 (...)**), i32 (...)*** %16, align 8
  %17 = getelementptr inbounds i8, i8* %12, i64 8
  %18 = getelementptr inbounds %"class.base::OnceCallback.173", %"class.base::OnceCallback.173"* %4, i64 0, i32 0, i32 0, i32 0
  %19 = bitcast i8* %17 to i64*
  store i64 %15, i64* %19, align 8
  store %"class.base::internal::BindStateBase"* null, %"class.base::internal::BindStateBase"** %18, align 8
  %20 = bitcast i8* %12 to %"class.mojo::MessageReceiver"*
  %21 = getelementptr inbounds %"class.base::OnceCallback.173", %"class.base::OnceCallback.173"* %4, i64 0, i32 0
  call void @_ZN4base8internal12CallbackBaseD2Ev(%"class.base::internal::CallbackBase"* nonnull %21) #14
  %22 = getelementptr inbounds %"class.network::mojom::blink::CookieManagerProxy", %"class.network::mojom::blink::CookieManagerProxy"* %0, i64 0, i32 1
  %23 = load %"class.mojo::MessageReceiverWithResponder"*, %"class.mojo::MessageReceiverWithResponder"** %22, align 8
  %24 = bitcast %"class.mojo::MessageReceiverWithResponder"* %23 to i1 (%"class.mojo::MessageReceiverWithResponder"*, %"class.mojo::Message"*, %"class.mojo::MessageReceiver"*)***
  %25 = load i1 (%"class.mojo::MessageReceiverWithResponder"*, %"class.mojo::Message"*, %"class.mojo::MessageReceiver"*)**, i1 (%"class.mojo::MessageReceiverWithResponder"*, %"class.mojo::Message"*, %"class.mojo::MessageReceiver"*)*** %24, align 8
  %26 = getelementptr inbounds i1 (%"class.mojo::MessageReceiverWithResponder"*, %"class.mojo::Message"*, %"class.mojo::MessageReceiver"*)*, i1 (%"class.mojo::MessageReceiverWithResponder"*, %"class.mojo::Message"*, %"class.mojo::MessageReceiver"*)** %25, i64 4
  %27 = load i1 (%"class.mojo::MessageReceiverWithResponder"*, %"class.mojo::Message"*, %"class.mojo::MessageReceiver"*)*, i1 (%"class.mojo::MessageReceiverWithResponder"*, %"class.mojo::Message"*, %"class.mojo::MessageReceiver"*)** %26, align 8
  %28 = call zeroext i1 %27(%"class.mojo::MessageReceiverWithResponder"* %23, %"class.mojo::Message"* nonnull %3, %"class.mojo::MessageReceiver"* nonnull %20) #14
  call void @_ZN4mojo7MessageD1Ev(%"class.mojo::Message"* nonnull %3) #14
  call void @llvm.lifetime.end.p0i8(i64 120, i8* nonnull %5) #14
  ret void
}

; Function Attrs: nounwind ssp uwtable
define hidden void @_ZN7network5mojom5blink18CookieManagerProxy23AddCookieChangeListenerERKN5blink4KURLERKN3WTF6StringEN4mojo13PendingRemoteINS1_20CookieChangeListenerEEE(%"class.network::mojom::blink::CookieManagerProxy"* nocapture readonly, %"class.blink::KURL"* dereferenceable(112), %"class.WTF::String"* dereferenceable(8), %"class.mojo::PendingRemote"* nocapture) unnamed_addr #0 align 2 {
  %5 = alloca %"class.WTF::StringUTF8Adaptor", align 8
  %6 = alloca %"class.mojo::ScopedHandleBase.179", align 4
  %7 = alloca %"class.mojo::Message", align 8
  %8 = alloca %"class.mojo::internal::MessageFragment.154", align 8
  %9 = bitcast %"class.mojo::Message"* %7 to i8*
  call void @llvm.lifetime.start.p0i8(i64 120, i8* nonnull %9) #14
  call void @llvm.memset.p0i8.i64(i8* nonnull align 8 %9, i8 -86, i64 120, i1 false)
  call void @_ZN4mojo7MessageC1EjjmmPNSt3__16vectorINS_16ScopedHandleBaseINS_6HandleEEENS1_9allocatorIS5_EEEE(%"class.mojo::Message"* nonnull %7, i32 534943069, i32 0, i64 0, i64 0, %"class.std::__1::vector.56"* null) #14
  %10 = getelementptr inbounds %"class.mojo::Message", %"class.mojo::Message"* %7, i64 0, i32 1
  %11 = call i64 @_ZN4mojo8internal6Buffer8AllocateEm(%"class.mojo::internal::Buffer"* %10, i64 32) #14
  %12 = getelementptr inbounds %"class.mojo::Message", %"class.mojo::Message"* %7, i64 0, i32 1, i32 2
  %13 = load i8*, i8** %12, align 8
  %14 = getelementptr inbounds i8, i8* %13, i64 %11
  %15 = bitcast i8* %14 to %"class.network::mojom::internal::CookieManager_AddCookieChangeListener_Params_Data"*
  call void @_ZN7network5mojom8internal49CookieManager_AddCookieChangeListener_Params_DataC1Ev(%"class.network::mojom::internal::CookieManager_AddCookieChangeListener_Params_Data"* %15) #14
  %16 = bitcast %"class.mojo::internal::MessageFragment.154"* %8 to i8*
  call void @llvm.lifetime.start.p0i8(i64 16, i8* nonnull %16) #14
  %17 = getelementptr inbounds %"class.mojo::internal::MessageFragment.154", %"class.mojo::internal::MessageFragment.154"* %8, i64 0, i32 0
  %18 = getelementptr inbounds %"class.mojo::internal::MessageFragment.154", %"class.mojo::internal::MessageFragment.154"* %8, i64 0, i32 1
  store %"class.mojo::Message"* %7, %"class.mojo::Message"** %17, align 8
  store i64 -1, i64* %18, align 8
  call void @_ZN4mojo8internal10SerializerIN3url5mojom11UrlDataViewEKN5blink4KURLEE9SerializeERS7_RNS0_15MessageFragmentINS3_8internal8Url_DataEEE(%"class.blink::KURL"* dereferenceable(112) %1, %"class.mojo::internal::MessageFragment.154"* nonnull dereferenceable(16) %8) #14
  %19 = load i8*, i8** %12, align 8
  %20 = getelementptr inbounds i8, i8* %19, i64 %11
  %21 = getelementptr inbounds i8, i8* %20, i64 8
  %22 = load i64, i64* %18, align 8
  %23 = icmp eq i64 %22, -1
  br i1 %23, label %30, label %24

24:                                               ; preds = %4
  %25 = load %"class.mojo::Message"*, %"class.mojo::Message"** %17, align 8
  %26 = getelementptr inbounds %"class.mojo::Message", %"class.mojo::Message"* %25, i64 0, i32 1, i32 2
  %27 = load i8*, i8** %26, align 8
  %28 = getelementptr inbounds i8, i8* %27, i64 %22
  %29 = bitcast i8* %28 to %"class.url::mojom::internal::Url_Data"*
  br label %30

30:                                               ; preds = %4, %24
  %31 = phi %"class.url::mojom::internal::Url_Data"* [ %29, %24 ], [ null, %4 ]
  %32 = bitcast i8* %21 to i64*
  %33 = icmp eq %"class.url::mojom::internal::Url_Data"* %31, null
  %34 = ptrtoint %"class.url::mojom::internal::Url_Data"* %31 to i64
  %35 = ptrtoint i8* %21 to i64
  %36 = sub i64 %34, %35
  %37 = select i1 %33, i64 0, i64 %36
  store i64 %37, i64* %32, align 8
  %38 = getelementptr inbounds %"class.WTF::String", %"class.WTF::String"* %2, i64 0, i32 0, i32 0
  %39 = load %"class.WTF::StringImpl"*, %"class.WTF::StringImpl"** %38, align 8
  %40 = icmp eq %"class.WTF::StringImpl"* %39, null
  br i1 %40, label %41, label %46

41:                                               ; preds = %30
  %42 = load i8*, i8** %12, align 8
  %43 = getelementptr inbounds i8, i8* %42, i64 %11
  %44 = getelementptr inbounds i8, i8* %43, i64 16
  %45 = bitcast i8* %44 to %"struct.mojo::internal::Pointer.157"*
  br label %78

46:                                               ; preds = %30
  %47 = bitcast %"class.WTF::StringUTF8Adaptor"* %5 to i8*
  call void @llvm.lifetime.start.p0i8(i64 40, i8* nonnull %47) #14
  call void @llvm.memset.p0i8.i64(i8* nonnull align 8 %47, i8 -86, i64 40, i1 false) #14
  call void @_ZN4mojo12StringTraitsIN3WTF6StringEE7GetUTF8ERKS2_(%"class.WTF::StringUTF8Adaptor"* nonnull sret %5, %"class.WTF::String"* dereferenceable(8) %2) #14
  %48 = getelementptr inbounds %"class.WTF::StringUTF8Adaptor", %"class.WTF::StringUTF8Adaptor"* %5, i64 0, i32 2
  %49 = load i32, i32* %48, align 8
  %50 = icmp ugt i32 %49, -9
  br i1 %50, label %61, label %51

51:                                               ; preds = %46
  %52 = add nuw i32 %49, 8
  %53 = zext i32 %52 to i64
  %54 = call i64 @_ZN4mojo8internal6Buffer8AllocateEm(%"class.mojo::internal::Buffer"* %10, i64 %53) #14
  %55 = load i8*, i8** %12, align 8
  %56 = getelementptr inbounds i8, i8* %55, i64 %54
  %57 = bitcast i8* %56 to i32*
  store i32 %52, i32* %57, align 1
  %58 = getelementptr inbounds i8, i8* %56, i64 4
  %59 = bitcast i8* %58 to i32*
  store i32 %49, i32* %59, align 1
  %60 = load i32, i32* %48, align 8
  br label %61

61:                                               ; preds = %46, %51
  %62 = phi i64 [ -1, %46 ], [ %54, %51 ]
  %63 = phi i32 [ %49, %46 ], [ %60, %51 ]
  %64 = load i8*, i8** %12, align 8
  %65 = getelementptr inbounds i8, i8* %64, i64 %62
  %66 = getelementptr inbounds i8, i8* %65, i64 8
  %67 = getelementptr inbounds %"class.WTF::StringUTF8Adaptor", %"class.WTF::StringUTF8Adaptor"* %5, i64 0, i32 1
  %68 = load i8*, i8** %67, align 8
  %69 = zext i32 %63 to i64
  call void @llvm.memcpy.p0i8.p0i8.i64(i8* align 1 %66, i8* align 1 %68, i64 %69, i1 false) #14
  call void @_ZN3WTF17StringUTF8AdaptorD1Ev(%"class.WTF::StringUTF8Adaptor"* nonnull %5) #14
  call void @llvm.lifetime.end.p0i8(i64 40, i8* nonnull %47) #14
  %70 = load i8*, i8** %12, align 8
  %71 = getelementptr inbounds i8, i8* %70, i64 %11
  %72 = getelementptr inbounds i8, i8* %71, i64 16
  %73 = bitcast i8* %72 to %"struct.mojo::internal::Pointer.157"*
  %74 = icmp eq i64 %62, -1
  br i1 %74, label %78, label %75

75:                                               ; preds = %61
  %76 = getelementptr inbounds i8, i8* %70, i64 %62
  %77 = bitcast i8* %76 to %"class.mojo::internal::Array_Data"*
  br label %78

78:                                               ; preds = %41, %61, %75
  %79 = phi %"struct.mojo::internal::Pointer.157"* [ %73, %75 ], [ %73, %61 ], [ %45, %41 ]
  %80 = phi %"class.mojo::internal::Array_Data"* [ %77, %75 ], [ null, %61 ], [ null, %41 ]
  %81 = getelementptr inbounds %"struct.mojo::internal::Pointer.157", %"struct.mojo::internal::Pointer.157"* %79, i64 0, i32 0
  %82 = icmp eq %"class.mojo::internal::Array_Data"* %80, null
  %83 = ptrtoint %"class.mojo::internal::Array_Data"* %80 to i64
  %84 = ptrtoint %"struct.mojo::internal::Pointer.157"* %79 to i64
  %85 = sub i64 %83, %84
  %86 = select i1 %82, i64 0, i64 %85
  store i64 %86, i64* %81, align 8
  %87 = load i8*, i8** %12, align 8
  %88 = getelementptr inbounds i8, i8* %87, i64 %11
  %89 = getelementptr inbounds i8, i8* %88, i64 24
  %90 = bitcast i8* %89 to %"struct.mojo::internal::Interface_Data"*
  %91 = bitcast %"class.mojo::ScopedHandleBase.179"* %6 to i8*
  call void @llvm.lifetime.start.p0i8(i64 4, i8* nonnull %91) #14
  %92 = getelementptr inbounds %"class.mojo::PendingRemote", %"class.mojo::PendingRemote"* %3, i64 0, i32 0, i32 1
  %93 = load i32, i32* %92, align 4
  store i32 0, i32* %92, align 4, !noalias !5
  %94 = getelementptr inbounds %"class.mojo::ScopedHandleBase.179", %"class.mojo::ScopedHandleBase.179"* %6, i64 0, i32 0, i32 0, i32 0
  %95 = getelementptr inbounds %"class.mojo::PendingRemote", %"class.mojo::PendingRemote"* %3, i64 0, i32 0, i32 0, i32 0, i32 0, i32 0
  %96 = load i32, i32* %95, align 4, !noalias !8
  store i32 %96, i32* %94, align 4, !alias.scope !8
  store i32 0, i32* %95, align 4, !noalias !8
  call void @_ZN4mojo8internal22SerializeInterfaceInfoENS_16ScopedHandleBaseINS_17MessagePipeHandleEEEjRNS_7MessageERNS0_14Interface_DataE(%"class.mojo::ScopedHandleBase.179"* nonnull %6, i32 %93, %"class.mojo::Message"* nonnull dereferenceable(120) %7, %"struct.mojo::internal::Interface_Data"* dereferenceable(8) %90) #14
  %97 = load i32, i32* %94, align 4
  %98 = icmp eq i32 %97, 0
  br i1 %98, label %101, label %99

99:                                               ; preds = %78
  %100 = call i32 @MojoClose(i32 %97) #14
  br label %101

101:                                              ; preds = %78, %99
  call void @llvm.lifetime.end.p0i8(i64 4, i8* nonnull %91) #14
  %102 = getelementptr inbounds %"class.network::mojom::blink::CookieManagerProxy", %"class.network::mojom::blink::CookieManagerProxy"* %0, i64 0, i32 1
  %103 = bitcast %"class.mojo::MessageReceiverWithResponder"** %102 to %"class.mojo::MessageReceiver"**
  %104 = load %"class.mojo::MessageReceiver"*, %"class.mojo::MessageReceiver"** %103, align 8
  %105 = bitcast %"class.mojo::MessageReceiver"* %104 to i1 (%"class.mojo::MessageReceiver"*, %"class.mojo::Message"*)***
  %106 = load i1 (%"class.mojo::MessageReceiver"*, %"class.mojo::Message"*)**, i1 (%"class.mojo::MessageReceiver"*, %"class.mojo::Message"*)*** %105, align 8
  %107 = getelementptr inbounds i1 (%"class.mojo::MessageReceiver"*, %"class.mojo::Message"*)*, i1 (%"class.mojo::MessageReceiver"*, %"class.mojo::Message"*)** %106, i64 3
  %108 = load i1 (%"class.mojo::MessageReceiver"*, %"class.mojo::Message"*)*, i1 (%"class.mojo::MessageReceiver"*, %"class.mojo::Message"*)** %107, align 8
  %109 = call zeroext i1 %108(%"class.mojo::MessageReceiver"* %104, %"class.mojo::Message"* nonnull %7) #14
  call void @llvm.lifetime.end.p0i8(i64 16, i8* nonnull %16) #14
  call void @_ZN4mojo7MessageD1Ev(%"class.mojo::Message"* nonnull %7) #14
  call void @llvm.lifetime.end.p0i8(i64 120, i8* nonnull %9) #14
  ret void
}

; Function Attrs: nounwind ssp uwtable
define hidden void @_ZN7network5mojom5blink18CookieManagerProxy23AddGlobalChangeListenerEN4mojo13PendingRemoteINS1_20CookieChangeListenerEEE(%"class.network::mojom::blink::CookieManagerProxy"* nocapture readonly, %"class.mojo::PendingRemote"* nocapture) unnamed_addr #0 align 2 {
  %3 = alloca %"class.mojo::ScopedHandleBase.179", align 4
  %4 = alloca %"class.mojo::Message", align 8
  %5 = bitcast %"class.mojo::Message"* %4 to i8*
  call void @llvm.lifetime.start.p0i8(i64 120, i8* nonnull %5) #14
  call void @llvm.memset.p0i8.i64(i8* nonnull align 8 %5, i8 -86, i64 120, i1 false)
  call void @_ZN4mojo7MessageC1EjjmmPNSt3__16vectorINS_16ScopedHandleBaseINS_6HandleEEENS1_9allocatorIS5_EEEE(%"class.mojo::Message"* nonnull %4, i32 393415073, i32 0, i64 0, i64 0, %"class.std::__1::vector.56"* null) #14
  %6 = getelementptr inbounds %"class.mojo::Message", %"class.mojo::Message"* %4, i64 0, i32 1
  %7 = call i64 @_ZN4mojo8internal6Buffer8AllocateEm(%"class.mojo::internal::Buffer"* %6, i64 16) #14
  %8 = getelementptr inbounds %"class.mojo::Message", %"class.mojo::Message"* %4, i64 0, i32 1, i32 2
  %9 = load i8*, i8** %8, align 8
  %10 = getelementptr inbounds i8, i8* %9, i64 %7
  %11 = bitcast i8* %10 to %"class.network::mojom::internal::CookieManager_AddGlobalChangeListener_Params_Data"*
  call void @_ZN7network5mojom8internal49CookieManager_AddGlobalChangeListener_Params_DataC1Ev(%"class.network::mojom::internal::CookieManager_AddGlobalChangeListener_Params_Data"* %11) #14
  %12 = load i8*, i8** %8, align 8
  %13 = getelementptr inbounds i8, i8* %12, i64 %7
  %14 = getelementptr inbounds i8, i8* %13, i64 8
  %15 = bitcast i8* %14 to %"struct.mojo::internal::Interface_Data"*
  %16 = bitcast %"class.mojo::ScopedHandleBase.179"* %3 to i8*
  call void @llvm.lifetime.start.p0i8(i64 4, i8* nonnull %16) #14
  %17 = getelementptr inbounds %"class.mojo::PendingRemote", %"class.mojo::PendingRemote"* %1, i64 0, i32 0, i32 1
  %18 = load i32, i32* %17, align 4
  store i32 0, i32* %17, align 4, !noalias !11
  %19 = getelementptr inbounds %"class.mojo::ScopedHandleBase.179", %"class.mojo::ScopedHandleBase.179"* %3, i64 0, i32 0, i32 0, i32 0
  %20 = getelementptr inbounds %"class.mojo::PendingRemote", %"class.mojo::PendingRemote"* %1, i64 0, i32 0, i32 0, i32 0, i32 0, i32 0
  %21 = load i32, i32* %20, align 4, !noalias !14
  store i32 %21, i32* %19, align 4, !alias.scope !14
  store i32 0, i32* %20, align 4, !noalias !14
  call void @_ZN4mojo8internal22SerializeInterfaceInfoENS_16ScopedHandleBaseINS_17MessagePipeHandleEEEjRNS_7MessageERNS0_14Interface_DataE(%"class.mojo::ScopedHandleBase.179"* nonnull %3, i32 %18, %"class.mojo::Message"* nonnull dereferenceable(120) %4, %"struct.mojo::internal::Interface_Data"* dereferenceable(8) %15) #14
  %22 = load i32, i32* %19, align 4
  %23 = icmp eq i32 %22, 0
  br i1 %23, label %26, label %24

24:                                               ; preds = %2
  %25 = call i32 @MojoClose(i32 %22) #14
  br label %26

26:                                               ; preds = %2, %24
  call void @llvm.lifetime.end.p0i8(i64 4, i8* nonnull %16) #14
  %27 = getelementptr inbounds %"class.network::mojom::blink::CookieManagerProxy", %"class.network::mojom::blink::CookieManagerProxy"* %0, i64 0, i32 1
  %28 = bitcast %"class.mojo::MessageReceiverWithResponder"** %27 to %"class.mojo::MessageReceiver"**
  %29 = load %"class.mojo::MessageReceiver"*, %"class.mojo::MessageReceiver"** %28, align 8
  %30 = bitcast %"class.mojo::MessageReceiver"* %29 to i1 (%"class.mojo::MessageReceiver"*, %"class.mojo::Message"*)***
  %31 = load i1 (%"class.mojo::MessageReceiver"*, %"class.mojo::Message"*)**, i1 (%"class.mojo::MessageReceiver"*, %"class.mojo::Message"*)*** %30, align 8
  %32 = getelementptr inbounds i1 (%"class.mojo::MessageReceiver"*, %"class.mojo::Message"*)*, i1 (%"class.mojo::MessageReceiver"*, %"class.mojo::Message"*)** %31, i64 3
  %33 = load i1 (%"class.mojo::MessageReceiver"*, %"class.mojo::Message"*)*, i1 (%"class.mojo::MessageReceiver"*, %"class.mojo::Message"*)** %32, align 8
  %34 = call zeroext i1 %33(%"class.mojo::MessageReceiver"* %29, %"class.mojo::Message"* nonnull %4) #14
  call void @_ZN4mojo7MessageD1Ev(%"class.mojo::Message"* nonnull %4) #14
  call void @llvm.lifetime.end.p0i8(i64 120, i8* nonnull %5) #14
  ret void
}

; Function Attrs: nounwind ssp uwtable
define hidden void @_ZN7network5mojom5blink18CookieManagerProxy14CloneInterfaceEN4mojo15PendingReceiverINS1_13CookieManagerEEE(%"class.network::mojom::blink::CookieManagerProxy"* nocapture readonly, %"class.mojo::PendingReceiver"* nocapture) unnamed_addr #0 align 2 {
  %3 = alloca %"class.mojo::ScopedHandleBase.58", align 4
  %4 = alloca %"class.mojo::Message", align 8
  %5 = bitcast %"class.mojo::Message"* %4 to i8*
  call void @llvm.lifetime.start.p0i8(i64 120, i8* nonnull %5) #14
  call void @llvm.memset.p0i8.i64(i8* nonnull align 8 %5, i8 -86, i64 120, i1 false)
  call void @_ZN4mojo7MessageC1EjjmmPNSt3__16vectorINS_16ScopedHandleBaseINS_6HandleEEENS1_9allocatorIS5_EEEE(%"class.mojo::Message"* nonnull %4, i32 1122875781, i32 0, i64 0, i64 0, %"class.std::__1::vector.56"* null) #14
  %6 = getelementptr inbounds %"class.mojo::Message", %"class.mojo::Message"* %4, i64 0, i32 1
  %7 = call i64 @_ZN4mojo8internal6Buffer8AllocateEm(%"class.mojo::internal::Buffer"* %6, i64 16) #14
  %8 = getelementptr inbounds %"class.mojo::Message", %"class.mojo::Message"* %4, i64 0, i32 1, i32 2
  %9 = load i8*, i8** %8, align 8
  %10 = getelementptr inbounds i8, i8* %9, i64 %7
  %11 = bitcast i8* %10 to %"class.network::mojom::internal::CookieManager_CloneInterface_Params_Data"*
  call void @_ZN7network5mojom8internal40CookieManager_CloneInterface_Params_DataC1Ev(%"class.network::mojom::internal::CookieManager_CloneInterface_Params_Data"* %11) #14
  %12 = load i8*, i8** %8, align 8
  %13 = getelementptr inbounds i8, i8* %12, i64 %7
  %14 = getelementptr inbounds i8, i8* %13, i64 8
  %15 = bitcast i8* %14 to %"struct.mojo::internal::Handle_Data"*
  %16 = bitcast %"class.mojo::ScopedHandleBase.58"* %3 to i8*
  call void @llvm.lifetime.start.p0i8(i64 4, i8* nonnull %16) #14
  %17 = getelementptr inbounds %"class.mojo::PendingReceiver", %"class.mojo::PendingReceiver"* %1, i64 0, i32 0, i32 0, i32 0, i32 0, i32 0
  %18 = load i32, i32* %17, align 4, !noalias !17
  store i32 0, i32* %17, align 4, !noalias !17
  %19 = getelementptr inbounds %"class.mojo::ScopedHandleBase.58", %"class.mojo::ScopedHandleBase.58"* %3, i64 0, i32 0, i32 0
  store i32 %18, i32* %19, align 4, !alias.scope !22
  call void @_ZN4mojo8internal15SerializeHandleENS_16ScopedHandleBaseINS_6HandleEEERNS_7MessageERNS0_11Handle_DataE(%"class.mojo::ScopedHandleBase.58"* nonnull %3, %"class.mojo::Message"* nonnull dereferenceable(120) %4, %"struct.mojo::internal::Handle_Data"* dereferenceable(4) %15) #14
  %20 = load i32, i32* %19, align 4
  %21 = icmp eq i32 %20, 0
  br i1 %21, label %24, label %22

22:                                               ; preds = %2
  %23 = call i32 @MojoClose(i32 %20) #14
  br label %24

24:                                               ; preds = %2, %22
  call void @llvm.lifetime.end.p0i8(i64 4, i8* nonnull %16) #14
  %25 = getelementptr inbounds %"class.network::mojom::blink::CookieManagerProxy", %"class.network::mojom::blink::CookieManagerProxy"* %0, i64 0, i32 1
  %26 = bitcast %"class.mojo::MessageReceiverWithResponder"** %25 to %"class.mojo::MessageReceiver"**
  %27 = load %"class.mojo::MessageReceiver"*, %"class.mojo::MessageReceiver"** %26, align 8
  %28 = bitcast %"class.mojo::MessageReceiver"* %27 to i1 (%"class.mojo::MessageReceiver"*, %"class.mojo::Message"*)***
  %29 = load i1 (%"class.mojo::MessageReceiver"*, %"class.mojo::Message"*)**, i1 (%"class.mojo::MessageReceiver"*, %"class.mojo::Message"*)*** %28, align 8
  %30 = getelementptr inbounds i1 (%"class.mojo::MessageReceiver"*, %"class.mojo::Message"*)*, i1 (%"class.mojo::MessageReceiver"*, %"class.mojo::Message"*)** %29, i64 3
  %31 = load i1 (%"class.mojo::MessageReceiver"*, %"class.mojo::Message"*)*, i1 (%"class.mojo::MessageReceiver"*, %"class.mojo::Message"*)** %30, align 8
  %32 = call zeroext i1 %31(%"class.mojo::MessageReceiver"* %27, %"class.mojo::Message"* nonnull %4) #14
  call void @_ZN4mojo7MessageD1Ev(%"class.mojo::Message"* nonnull %4) #14
  call void @llvm.lifetime.end.p0i8(i64 120, i8* nonnull %5) #14
  ret void
}

; Function Attrs: nounwind ssp uwtable
define hidden void @_ZN7network5mojom5blink18CookieManagerProxy16FlushCookieStoreEN4base12OnceCallbackIFvvEEE(%"class.network::mojom::blink::CookieManagerProxy"* nocapture readonly, %"class.base::OnceCallback.184"* nocapture) unnamed_addr #0 align 2 {
  %3 = alloca %"class.mojo::Message", align 8
  %4 = alloca %"class.base::OnceCallback.184", align 8
  %5 = bitcast %"class.mojo::Message"* %3 to i8*
  call void @llvm.lifetime.start.p0i8(i64 120, i8* nonnull %5) #14
  call void @llvm.memset.p0i8.i64(i8* nonnull align 8 %5, i8 -86, i64 120, i1 false)
  call void @_ZN4mojo7MessageC1EjjmmPNSt3__16vectorINS_16ScopedHandleBaseINS_6HandleEEENS1_9allocatorIS5_EEEE(%"class.mojo::Message"* nonnull %3, i32 247024553, i32 1, i64 0, i64 0, %"class.std::__1::vector.56"* null) #14
  %6 = getelementptr inbounds %"class.mojo::Message", %"class.mojo::Message"* %3, i64 0, i32 1
  %7 = call i64 @_ZN4mojo8internal6Buffer8AllocateEm(%"class.mojo::internal::Buffer"* %6, i64 8) #14
  %8 = getelementptr inbounds %"class.mojo::Message", %"class.mojo::Message"* %3, i64 0, i32 1, i32 2
  %9 = load i8*, i8** %8, align 8
  %10 = getelementptr inbounds i8, i8* %9, i64 %7
  %11 = bitcast i8* %10 to %"class.network::mojom::internal::CookieManager_FlushCookieStore_Params_Data"*
  call void @_ZN7network5mojom8internal42CookieManager_FlushCookieStore_Params_DataC1Ev(%"class.network::mojom::internal::CookieManager_FlushCookieStore_Params_Data"* %11) #14
  %12 = call i8* @_Znwm(i64 16) #15
  %13 = getelementptr inbounds %"class.base::OnceCallback.184", %"class.base::OnceCallback.184"* %1, i64 0, i32 0, i32 0, i32 0
  %14 = bitcast %"class.base::OnceCallback.184"* %1 to i64*
  %15 = load i64, i64* %14, align 8
  store %"class.base::internal::BindStateBase"* null, %"class.base::internal::BindStateBase"** %13, align 8
  %16 = bitcast i8* %12 to i32 (...)***
  store i32 (...)** bitcast (i8** getelementptr inbounds ({ [6 x i8*] }, { [6 x i8*] }* @_ZTVN7network5mojom5blink48CookieManager_FlushCookieStore_ForwardToCallbackE, i64 0, inrange i32 0, i64 2) to i32 (...)**), i32 (...)*** %16, align 8
  %17 = getelementptr inbounds i8, i8* %12, i64 8
  %18 = getelementptr inbounds %"class.base::OnceCallback.184", %"class.base::OnceCallback.184"* %4, i64 0, i32 0, i32 0, i32 0
  %19 = bitcast i8* %17 to i64*
  store i64 %15, i64* %19, align 8
  store %"class.base::internal::BindStateBase"* null, %"class.base::internal::BindStateBase"** %18, align 8
  %20 = bitcast i8* %12 to %"class.mojo::MessageReceiver"*
  %21 = getelementptr inbounds %"class.base::OnceCallback.184", %"class.base::OnceCallback.184"* %4, i64 0, i32 0
  call void @_ZN4base8internal12CallbackBaseD2Ev(%"class.base::internal::CallbackBase"* nonnull %21) #14
  %22 = getelementptr inbounds %"class.network::mojom::blink::CookieManagerProxy", %"class.network::mojom::blink::CookieManagerProxy"* %0, i64 0, i32 1
  %23 = load %"class.mojo::MessageReceiverWithResponder"*, %"class.mojo::MessageReceiverWithResponder"** %22, align 8
  %24 = bitcast %"class.mojo::MessageReceiverWithResponder"* %23 to i1 (%"class.mojo::MessageReceiverWithResponder"*, %"class.mojo::Message"*, %"class.mojo::MessageReceiver"*)***
  %25 = load i1 (%"class.mojo::MessageReceiverWithResponder"*, %"class.mojo::Message"*, %"class.mojo::MessageReceiver"*)**, i1 (%"class.mojo::MessageReceiverWithResponder"*, %"class.mojo::Message"*, %"class.mojo::MessageReceiver"*)*** %24, align 8
  %26 = getelementptr inbounds i1 (%"class.mojo::MessageReceiverWithResponder"*, %"class.mojo::Message"*, %"class.mojo::MessageReceiver"*)*, i1 (%"class.mojo::MessageReceiverWithResponder"*, %"class.mojo::Message"*, %"class.mojo::MessageReceiver"*)** %25, i64 4
  %27 = load i1 (%"class.mojo::MessageReceiverWithResponder"*, %"class.mojo::Message"*, %"class.mojo::MessageReceiver"*)*, i1 (%"class.mojo::MessageReceiverWithResponder"*, %"class.mojo::Message"*, %"class.mojo::MessageReceiver"*)** %26, align 8
  %28 = call zeroext i1 %27(%"class.mojo::MessageReceiverWithResponder"* %23, %"class.mojo::Message"* nonnull %3, %"class.mojo::MessageReceiver"* nonnull %20) #14
  call void @_ZN4mojo7MessageD1Ev(%"class.mojo::Message"* nonnull %3) #14
  call void @llvm.lifetime.end.p0i8(i64 120, i8* nonnull %5) #14
  ret void
}

; Function Attrs: nounwind ssp uwtable
define hidden void @_ZN7network5mojom5blink18CookieManagerProxy22AllowFileSchemeCookiesEbN4base12OnceCallbackIFvbEEE(%"class.network::mojom::blink::CookieManagerProxy"* nocapture readonly, i1 zeroext, %"class.base::OnceCallback.164"* nocapture) unnamed_addr #0 align 2 {
  %4 = alloca %"class.mojo::Message", align 8
  %5 = alloca %"class.base::OnceCallback.164", align 8
  %6 = zext i1 %1 to i8
  %7 = bitcast %"class.mojo::Message"* %4 to i8*
  call void @llvm.lifetime.start.p0i8(i64 120, i8* nonnull %7) #14
  call void @llvm.memset.p0i8.i64(i8* nonnull align 8 %7, i8 -86, i64 120, i1 false)
  call void @_ZN4mojo7MessageC1EjjmmPNSt3__16vectorINS_16ScopedHandleBaseINS_6HandleEEENS1_9allocatorIS5_EEEE(%"class.mojo::Message"* nonnull %4, i32 1477514595, i32 1, i64 0, i64 0, %"class.std::__1::vector.56"* null) #14
  %8 = getelementptr inbounds %"class.mojo::Message", %"class.mojo::Message"* %4, i64 0, i32 1
  %9 = call i64 @_ZN4mojo8internal6Buffer8AllocateEm(%"class.mojo::internal::Buffer"* %8, i64 16) #14
  %10 = getelementptr inbounds %"class.mojo::Message", %"class.mojo::Message"* %4, i64 0, i32 1, i32 2
  %11 = load i8*, i8** %10, align 8
  %12 = getelementptr inbounds i8, i8* %11, i64 %9
  %13 = bitcast i8* %12 to %"class.network::mojom::internal::CookieManager_AllowFileSchemeCookies_Params_Data"*
  call void @_ZN7network5mojom8internal48CookieManager_AllowFileSchemeCookies_Params_DataC1Ev(%"class.network::mojom::internal::CookieManager_AllowFileSchemeCookies_Params_Data"* %13) #14
  %14 = load i8*, i8** %10, align 8
  %15 = getelementptr inbounds i8, i8* %14, i64 %9
  %16 = getelementptr inbounds i8, i8* %15, i64 8
  %17 = load i8, i8* %16, align 1
  %18 = and i8 %17, -2
  %19 = or i8 %18, %6
  store i8 %19, i8* %16, align 1
  %20 = call i8* @_Znwm(i64 16) #15
  %21 = getelementptr inbounds %"class.base::OnceCallback.164", %"class.base::OnceCallback.164"* %2, i64 0, i32 0, i32 0, i32 0
  %22 = bitcast %"class.base::OnceCallback.164"* %2 to i64*
  %23 = load i64, i64* %22, align 8
  store %"class.base::internal::BindStateBase"* null, %"class.base::internal::BindStateBase"** %21, align 8
  %24 = bitcast i8* %20 to i32 (...)***
  store i32 (...)** bitcast (i8** getelementptr inbounds ({ [6 x i8*] }, { [6 x i8*] }* @_ZTVN7network5mojom5blink54CookieManager_AllowFileSchemeCookies_ForwardToCallbackE, i64 0, inrange i32 0, i64 2) to i32 (...)**), i32 (...)*** %24, align 8
  %25 = getelementptr inbounds i8, i8* %20, i64 8
  %26 = getelementptr inbounds %"class.base::OnceCallback.164", %"class.base::OnceCallback.164"* %5, i64 0, i32 0, i32 0, i32 0
  %27 = bitcast i8* %25 to i64*
  store i64 %23, i64* %27, align 8
  store %"class.base::internal::BindStateBase"* null, %"class.base::internal::BindStateBase"** %26, align 8
  %28 = bitcast i8* %20 to %"class.mojo::MessageReceiver"*
  %29 = getelementptr inbounds %"class.base::OnceCallback.164", %"class.base::OnceCallback.164"* %5, i64 0, i32 0
  call void @_ZN4base8internal12CallbackBaseD2Ev(%"class.base::internal::CallbackBase"* nonnull %29) #14
  %30 = getelementptr inbounds %"class.network::mojom::blink::CookieManagerProxy", %"class.network::mojom::blink::CookieManagerProxy"* %0, i64 0, i32 1
  %31 = load %"class.mojo::MessageReceiverWithResponder"*, %"class.mojo::MessageReceiverWithResponder"** %30, align 8
  %32 = bitcast %"class.mojo::MessageReceiverWithResponder"* %31 to i1 (%"class.mojo::MessageReceiverWithResponder"*, %"class.mojo::Message"*, %"class.mojo::MessageReceiver"*)***
  %33 = load i1 (%"class.mojo::MessageReceiverWithResponder"*, %"class.mojo::Message"*, %"class.mojo::MessageReceiver"*)**, i1 (%"class.mojo::MessageReceiverWithResponder"*, %"class.mojo::Message"*, %"class.mojo::MessageReceiver"*)*** %32, align 8
  %34 = getelementptr inbounds i1 (%"class.mojo::MessageReceiverWithResponder"*, %"class.mojo::Message"*, %"class.mojo::MessageReceiver"*)*, i1 (%"class.mojo::MessageReceiverWithResponder"*, %"class.mojo::Message"*, %"class.mojo::MessageReceiver"*)** %33, i64 4
  %35 = load i1 (%"class.mojo::MessageReceiverWithResponder"*, %"class.mojo::Message"*, %"class.mojo::MessageReceiver"*)*, i1 (%"class.mojo::MessageReceiverWithResponder"*, %"class.mojo::Message"*, %"class.mojo::MessageReceiver"*)** %34, align 8
  %36 = call zeroext i1 %35(%"class.mojo::MessageReceiverWithResponder"* %31, %"class.mojo::Message"* nonnull %4, %"class.mojo::MessageReceiver"* nonnull %28) #14
  call void @_ZN4mojo7MessageD1Ev(%"class.mojo::Message"* nonnull %4) #14
  call void @llvm.lifetime.end.p0i8(i64 120, i8* nonnull %7) #14
  ret void
}

; Function Attrs: nounwind ssp uwtable
define hidden void @_ZN7network5mojom5blink18CookieManagerProxy18SetContentSettingsEN3WTF6VectorIN4mojo9StructPtrIN16content_settings5mojom5blink27ContentSettingPatternSourceEEELj0ENS3_18PartitionAllocatorEEE(%"class.network::mojom::blink::CookieManagerProxy"* nocapture readonly, %"class.WTF::Vector"*) unnamed_addr #0 align 2 {
  %3 = alloca %"class.mojo::internal::MessageFragment.407", align 8
  %4 = alloca %"class.mojo::Message", align 8
  %5 = alloca %"class.mojo::internal::ContainerValidateParams", align 8
  %6 = bitcast %"class.mojo::Message"* %4 to i8*
  call void @llvm.lifetime.start.p0i8(i64 120, i8* nonnull %6) #14
  call void @llvm.memset.p0i8.i64(i8* nonnull align 8 %6, i8 -86, i64 120, i1 false)
  call void @_ZN4mojo7MessageC1EjjmmPNSt3__16vectorINS_16ScopedHandleBaseINS_6HandleEEENS1_9allocatorIS5_EEEE(%"class.mojo::Message"* nonnull %4, i32 2012749568, i32 0, i64 0, i64 0, %"class.std::__1::vector.56"* null) #14
  %7 = getelementptr inbounds %"class.mojo::Message", %"class.mojo::Message"* %4, i64 0, i32 1
  %8 = call i64 @_ZN4mojo8internal6Buffer8AllocateEm(%"class.mojo::internal::Buffer"* %7, i64 16) #14
  %9 = getelementptr inbounds %"class.mojo::Message", %"class.mojo::Message"* %4, i64 0, i32 1, i32 2
  %10 = load i8*, i8** %9, align 8
  %11 = getelementptr inbounds i8, i8* %10, i64 %8
  %12 = bitcast i8* %11 to %"class.network::mojom::internal::CookieManager_SetContentSettings_Params_Data"*
  call void @_ZN7network5mojom8internal44CookieManager_SetContentSettings_Params_DataC1Ev(%"class.network::mojom::internal::CookieManager_SetContentSettings_Params_Data"* %12) #14
  %13 = ptrtoint %"class.mojo::Message"* %4 to i64
  %14 = bitcast %"class.mojo::internal::ContainerValidateParams"* %5 to i8*
  call void @llvm.lifetime.start.p0i8(i64 32, i8* nonnull %14) #14
  %15 = bitcast %"class.mojo::internal::ContainerValidateParams"* %5 to i64*
  store i64 -6148914691236517206, i64* %15, align 8
  %16 = getelementptr inbounds %"class.mojo::internal::ContainerValidateParams", %"class.mojo::internal::ContainerValidateParams"* %5, i64 0, i32 0
  store i32 0, i32* %16, align 8
  %17 = getelementptr inbounds %"class.mojo::internal::ContainerValidateParams", %"class.mojo::internal::ContainerValidateParams"* %5, i64 0, i32 1
  store i8 0, i8* %17, align 4
  %18 = getelementptr inbounds %"class.mojo::internal::ContainerValidateParams", %"class.mojo::internal::ContainerValidateParams"* %5, i64 0, i32 2
  %19 = getelementptr inbounds %"class.WTF::Vector", %"class.WTF::Vector"* %1, i64 0, i32 0, i32 0, i32 2
  %20 = bitcast %"class.mojo::internal::ContainerValidateParams"** %18 to i8*
  call void @llvm.memset.p0i8.i64(i8* align 8 %20, i8 0, i64 24, i1 false)
  %21 = load i32, i32* %19, align 4
  %22 = icmp ugt i32 %21, 536870910
  br i1 %22, label %35, label %23

23:                                               ; preds = %2
  %24 = shl i32 %21, 3
  %25 = add nuw i32 %24, 8
  %26 = zext i32 %25 to i64
  %27 = call i64 @_ZN4mojo8internal6Buffer8AllocateEm(%"class.mojo::internal::Buffer"* %7, i64 %26) #14
  %28 = load i8*, i8** %9, align 8
  %29 = getelementptr inbounds i8, i8* %28, i64 %27
  %30 = bitcast i8* %29 to i32*
  store i32 %25, i32* %30, align 1
  %31 = getelementptr inbounds i8, i8* %29, i64 4
  %32 = bitcast i8* %31 to i32*
  store i32 %21, i32* %32, align 1
  %33 = load i32, i32* %19, align 4
  %34 = icmp eq i32 %33, 0
  br i1 %34, label %70, label %35

35:                                               ; preds = %23, %2
  %36 = phi i64 [ -1, %2 ], [ %27, %23 ]
  %37 = phi i32 [ %21, %2 ], [ %33, %23 ]
  %38 = zext i32 %37 to i64
  %39 = bitcast %"class.mojo::internal::MessageFragment.407"* %3 to i8*
  %40 = getelementptr inbounds %"class.mojo::internal::MessageFragment.407", %"class.mojo::internal::MessageFragment.407"* %3, i64 0, i32 0
  %41 = getelementptr inbounds %"class.mojo::internal::MessageFragment.407", %"class.mojo::internal::MessageFragment.407"* %3, i64 0, i32 1
  %42 = bitcast %"class.mojo::internal::MessageFragment.407"* %3 to i64*
  br label %43

43:                                               ; preds = %61, %35
  %44 = phi i64 [ 0, %35 ], [ %45, %61 ]
  call void @llvm.lifetime.start.p0i8(i64 16, i8* nonnull %39) #14
  store i64 %13, i64* %42, align 8
  store i64 -1, i64* %41, align 8
  %45 = add nuw i64 %44, 1
  %46 = trunc i64 %44 to i32
  %47 = call dereferenceable(8) %"class.mojo::StructPtr"* @_ZN3WTF6VectorIN4mojo9StructPtrIN16content_settings5mojom5blink27ContentSettingPatternSourceEEELj0ENS_18PartitionAllocatorEE2atEj(%"class.WTF::Vector"* %1, i32 %46) #14
  call void @_ZN4mojo8internal10SerializerIN16content_settings5mojom35ContentSettingPatternSourceDataViewENS_9StructPtrINS3_5blink27ContentSettingPatternSourceEEEE9SerializeERS8_RNS0_15MessageFragmentINS3_8internal32ContentSettingPatternSource_DataEEE(%"class.mojo::StructPtr"* dereferenceable(8) %47, %"class.mojo::internal::MessageFragment.407"* nonnull dereferenceable(16) %3) #14
  %48 = load i8*, i8** %9, align 8
  %49 = getelementptr inbounds i8, i8* %48, i64 8
  %50 = getelementptr inbounds i8, i8* %49, i64 %36
  %51 = bitcast i8* %50 to %"class.mojo::internal::Array_Data.190"*
  %52 = getelementptr inbounds %"class.mojo::internal::Array_Data.190", %"class.mojo::internal::Array_Data.190"* %51, i64 %44
  %53 = load i64, i64* %41, align 8
  %54 = icmp eq i64 %53, -1
  br i1 %54, label %61, label %55

55:                                               ; preds = %43
  %56 = load %"class.mojo::Message"*, %"class.mojo::Message"** %40, align 8
  %57 = getelementptr inbounds %"class.mojo::Message", %"class.mojo::Message"* %56, i64 0, i32 1, i32 2
  %58 = load i8*, i8** %57, align 8
  %59 = getelementptr inbounds i8, i8* %58, i64 %53
  %60 = bitcast i8* %59 to %"class.content_settings::mojom::internal::ContentSettingPatternSource_Data"*
  br label %61

61:                                               ; preds = %55, %43
  %62 = phi %"class.content_settings::mojom::internal::ContentSettingPatternSource_Data"* [ %60, %55 ], [ null, %43 ]
  %63 = bitcast %"class.mojo::internal::Array_Data.190"* %52 to i64*
  %64 = icmp eq %"class.content_settings::mojom::internal::ContentSettingPatternSource_Data"* %62, null
  %65 = ptrtoint %"class.content_settings::mojom::internal::ContentSettingPatternSource_Data"* %62 to i64
  %66 = ptrtoint %"class.mojo::internal::Array_Data.190"* %52 to i64
  %67 = sub i64 %65, %66
  %68 = select i1 %64, i64 0, i64 %67
  store i64 %68, i64* %63, align 8
  call void @llvm.lifetime.end.p0i8(i64 16, i8* nonnull %39) #14
  %69 = icmp eq i64 %45, %38
  br i1 %69, label %70, label %43

70:                                               ; preds = %61, %23
  %71 = phi i64 [ %27, %23 ], [ %36, %61 ]
  %72 = load i8*, i8** %9, align 8
  %73 = getelementptr inbounds i8, i8* %72, i64 %8
  %74 = getelementptr inbounds i8, i8* %73, i64 8
  %75 = icmp eq i64 %71, -1
  %76 = getelementptr inbounds i8, i8* %72, i64 %71
  %77 = bitcast i8* %76 to %"class.mojo::internal::Array_Data.190"*
  %78 = select i1 %75, %"class.mojo::internal::Array_Data.190"* null, %"class.mojo::internal::Array_Data.190"* %77
  %79 = bitcast i8* %74 to i64*
  %80 = icmp eq %"class.mojo::internal::Array_Data.190"* %78, null
  %81 = ptrtoint %"class.mojo::internal::Array_Data.190"* %78 to i64
  %82 = ptrtoint i8* %74 to i64
  %83 = sub i64 %81, %82
  %84 = select i1 %80, i64 0, i64 %83
  store i64 %84, i64* %79, align 8
  %85 = getelementptr inbounds %"class.network::mojom::blink::CookieManagerProxy", %"class.network::mojom::blink::CookieManagerProxy"* %0, i64 0, i32 1
  %86 = bitcast %"class.mojo::MessageReceiverWithResponder"** %85 to %"class.mojo::MessageReceiver"**
  %87 = load %"class.mojo::MessageReceiver"*, %"class.mojo::MessageReceiver"** %86, align 8
  %88 = bitcast %"class.mojo::MessageReceiver"* %87 to i1 (%"class.mojo::MessageReceiver"*, %"class.mojo::Message"*)***
  %89 = load i1 (%"class.mojo::MessageReceiver"*, %"class.mojo::Message"*)**, i1 (%"class.mojo::MessageReceiver"*, %"class.mojo::Message"*)*** %88, align 8
  %90 = getelementptr inbounds i1 (%"class.mojo::MessageReceiver"*, %"class.mojo::Message"*)*, i1 (%"class.mojo::MessageReceiver"*, %"class.mojo::Message"*)** %89, i64 3
  %91 = load i1 (%"class.mojo::MessageReceiver"*, %"class.mojo::Message"*)*, i1 (%"class.mojo::MessageReceiver"*, %"class.mojo::Message"*)** %90, align 8
  %92 = call zeroext i1 %91(%"class.mojo::MessageReceiver"* %87, %"class.mojo::Message"* nonnull %4) #14
  call void @_ZN4mojo8internal23ContainerValidateParamsD2Ev(%"class.mojo::internal::ContainerValidateParams"* nonnull %5) #14
  call void @llvm.lifetime.end.p0i8(i64 32, i8* nonnull %14) #14
  call void @_ZN4mojo7MessageD1Ev(%"class.mojo::Message"* nonnull %4) #14
  call void @llvm.lifetime.end.p0i8(i64 120, i8* nonnull %6) #14
  ret void
}

; Function Attrs: nounwind ssp uwtable
define linkonce_odr hidden void @_ZN4mojo8internal23ContainerValidateParamsD2Ev(%"class.mojo::internal::ContainerValidateParams"*) unnamed_addr #0 comdat align 2 {
  %2 = getelementptr inbounds %"class.mojo::internal::ContainerValidateParams", %"class.mojo::internal::ContainerValidateParams"* %0, i64 0, i32 3
  %3 = load %"class.mojo::internal::ContainerValidateParams"*, %"class.mojo::internal::ContainerValidateParams"** %2, align 8
  %4 = icmp eq %"class.mojo::internal::ContainerValidateParams"* %3, null
  br i1 %4, label %7, label %5

5:                                                ; preds = %1
  tail call void @_ZN4mojo8internal23ContainerValidateParamsD2Ev(%"class.mojo::internal::ContainerValidateParams"* nonnull %3) #14
  %6 = bitcast %"class.mojo::internal::ContainerValidateParams"* %3 to i8*
  tail call void @_ZdlPv(i8* %6) #15
  br label %7

7:                                                ; preds = %1, %5
  %8 = getelementptr inbounds %"class.mojo::internal::ContainerValidateParams", %"class.mojo::internal::ContainerValidateParams"* %0, i64 0, i32 2
  %9 = load %"class.mojo::internal::ContainerValidateParams"*, %"class.mojo::internal::ContainerValidateParams"** %8, align 8
  %10 = icmp eq %"class.mojo::internal::ContainerValidateParams"* %9, null
  br i1 %10, label %13, label %11

11:                                               ; preds = %7
  tail call void @_ZN4mojo8internal23ContainerValidateParamsD2Ev(%"class.mojo::internal::ContainerValidateParams"* nonnull %9) #14
  %12 = bitcast %"class.mojo::internal::ContainerValidateParams"* %9 to i8*
  tail call void @_ZdlPv(i8* %12) #15
  ret void

13:                                               ; preds = %7
  ret void
}

; Function Attrs: nounwind ssp uwtable
define hidden void @_ZN7network5mojom5blink18CookieManagerProxy24SetForceKeepSessionStateEv(%"class.network::mojom::blink::CookieManagerProxy"* nocapture readonly) unnamed_addr #0 align 2 {
  %2 = alloca %"class.mojo::Message", align 8
  %3 = bitcast %"class.mojo::Message"* %2 to i8*
  call void @llvm.lifetime.start.p0i8(i64 120, i8* nonnull %3) #14
  call void @llvm.memset.p0i8.i64(i8* nonnull align 8 %3, i8 -86, i64 120, i1 false)
  call void @_ZN4mojo7MessageC1EjjmmPNSt3__16vectorINS_16ScopedHandleBaseINS_6HandleEEENS1_9allocatorIS5_EEEE(%"class.mojo::Message"* nonnull %2, i32 1461611417, i32 0, i64 0, i64 0, %"class.std::__1::vector.56"* null) #14
  %4 = getelementptr inbounds %"class.mojo::Message", %"class.mojo::Message"* %2, i64 0, i32 1
  %5 = call i64 @_ZN4mojo8internal6Buffer8AllocateEm(%"class.mojo::internal::Buffer"* %4, i64 8) #14
  %6 = getelementptr inbounds %"class.mojo::Message", %"class.mojo::Message"* %2, i64 0, i32 1, i32 2
  %7 = load i8*, i8** %6, align 8
  %8 = getelementptr inbounds i8, i8* %7, i64 %5
  %9 = bitcast i8* %8 to %"class.network::mojom::internal::CookieManager_SetForceKeepSessionState_Params_Data"*
  call void @_ZN7network5mojom8internal50CookieManager_SetForceKeepSessionState_Params_DataC1Ev(%"class.network::mojom::internal::CookieManager_SetForceKeepSessionState_Params_Data"* %9) #14
  %10 = getelementptr inbounds %"class.network::mojom::blink::CookieManagerProxy", %"class.network::mojom::blink::CookieManagerProxy"* %0, i64 0, i32 1
  %11 = bitcast %"class.mojo::MessageReceiverWithResponder"** %10 to %"class.mojo::MessageReceiver"**
  %12 = load %"class.mojo::MessageReceiver"*, %"class.mojo::MessageReceiver"** %11, align 8
  %13 = bitcast %"class.mojo::MessageReceiver"* %12 to i1 (%"class.mojo::MessageReceiver"*, %"class.mojo::Message"*)***
  %14 = load i1 (%"class.mojo::MessageReceiver"*, %"class.mojo::Message"*)**, i1 (%"class.mojo::MessageReceiver"*, %"class.mojo::Message"*)*** %13, align 8
  %15 = getelementptr inbounds i1 (%"class.mojo::MessageReceiver"*, %"class.mojo::Message"*)*, i1 (%"class.mojo::MessageReceiver"*, %"class.mojo::Message"*)** %14, i64 3
  %16 = load i1 (%"class.mojo::MessageReceiver"*, %"class.mojo::Message"*)*, i1 (%"class.mojo::MessageReceiver"*, %"class.mojo::Message"*)** %15, align 8
  %17 = call zeroext i1 %16(%"class.mojo::MessageReceiver"* %12, %"class.mojo::Message"* nonnull %2) #14
  call void @_ZN4mojo7MessageD1Ev(%"class.mojo::Message"* nonnull %2) #14
  call void @llvm.lifetime.end.p0i8(i64 120, i8* nonnull %3) #14
  ret void
}

; Function Attrs: nounwind ssp uwtable
define hidden void @_ZN7network5mojom5blink18CookieManagerProxy22BlockThirdPartyCookiesEb(%"class.network::mojom::blink::CookieManagerProxy"* nocapture readonly, i1 zeroext) unnamed_addr #0 align 2 {
  %3 = alloca %"class.mojo::Message", align 8
  %4 = zext i1 %1 to i8
  %5 = bitcast %"class.mojo::Message"* %3 to i8*
  call void @llvm.lifetime.start.p0i8(i64 120, i8* nonnull %5) #14
  call void @llvm.memset.p0i8.i64(i8* nonnull align 8 %5, i8 -86, i64 120, i1 false)
  call void @_ZN4mojo7MessageC1EjjmmPNSt3__16vectorINS_16ScopedHandleBaseINS_6HandleEEENS1_9allocatorIS5_EEEE(%"class.mojo::Message"* nonnull %3, i32 777805142, i32 0, i64 0, i64 0, %"class.std::__1::vector.56"* null) #14
  %6 = getelementptr inbounds %"class.mojo::Message", %"class.mojo::Message"* %3, i64 0, i32 1
  %7 = call i64 @_ZN4mojo8internal6Buffer8AllocateEm(%"class.mojo::internal::Buffer"* %6, i64 16) #14
  %8 = getelementptr inbounds %"class.mojo::Message", %"class.mojo::Message"* %3, i64 0, i32 1, i32 2
  %9 = load i8*, i8** %8, align 8
  %10 = getelementptr inbounds i8, i8* %9, i64 %7
  %11 = bitcast i8* %10 to %"class.network::mojom::internal::CookieManager_BlockThirdPartyCookies_Params_Data"*
  call void @_ZN7network5mojom8internal48CookieManager_BlockThirdPartyCookies_Params_DataC1Ev(%"class.network::mojom::internal::CookieManager_BlockThirdPartyCookies_Params_Data"* %11) #14
  %12 = load i8*, i8** %8, align 8
  %13 = getelementptr inbounds i8, i8* %12, i64 %7
  %14 = getelementptr inbounds i8, i8* %13, i64 8
  %15 = load i8, i8* %14, align 1
  %16 = and i8 %15, -2
  %17 = or i8 %16, %4
  store i8 %17, i8* %14, align 1
  %18 = getelementptr inbounds %"class.network::mojom::blink::CookieManagerProxy", %"class.network::mojom::blink::CookieManagerProxy"* %0, i64 0, i32 1
  %19 = bitcast %"class.mojo::MessageReceiverWithResponder"** %18 to %"class.mojo::MessageReceiver"**
  %20 = load %"class.mojo::MessageReceiver"*, %"class.mojo::MessageReceiver"** %19, align 8
  %21 = bitcast %"class.mojo::MessageReceiver"* %20 to i1 (%"class.mojo::MessageReceiver"*, %"class.mojo::Message"*)***
  %22 = load i1 (%"class.mojo::MessageReceiver"*, %"class.mojo::Message"*)**, i1 (%"class.mojo::MessageReceiver"*, %"class.mojo::Message"*)*** %21, align 8
  %23 = getelementptr inbounds i1 (%"class.mojo::MessageReceiver"*, %"class.mojo::Message"*)*, i1 (%"class.mojo::MessageReceiver"*, %"class.mojo::Message"*)** %22, i64 3
  %24 = load i1 (%"class.mojo::MessageReceiver"*, %"class.mojo::Message"*)*, i1 (%"class.mojo::MessageReceiver"*, %"class.mojo::Message"*)** %23, align 8
  %25 = call zeroext i1 %24(%"class.mojo::MessageReceiver"* %20, %"class.mojo::Message"* nonnull %3) #14
  call void @_ZN4mojo7MessageD1Ev(%"class.mojo::Message"* nonnull %3) #14
  call void @llvm.lifetime.end.p0i8(i64 120, i8* nonnull %5) #14
  ret void
}

; Function Attrs: nounwind ssp uwtable
define hidden void @_ZN7network5mojom5blink18CookieManagerProxy39SetContentSettingsForLegacyCookieAccessEN3WTF6VectorIN4mojo9StructPtrIN16content_settings5mojom5blink27ContentSettingPatternSourceEEELj0ENS3_18PartitionAllocatorEEE(%"class.network::mojom::blink::CookieManagerProxy"* nocapture readonly, %"class.WTF::Vector"*) unnamed_addr #0 align 2 {
  %3 = alloca %"class.mojo::internal::MessageFragment.407", align 8
  %4 = alloca %"class.mojo::Message", align 8
  %5 = alloca %"class.mojo::internal::ContainerValidateParams", align 8
  %6 = bitcast %"class.mojo::Message"* %4 to i8*
  call void @llvm.lifetime.start.p0i8(i64 120, i8* nonnull %6) #14
  call void @llvm.memset.p0i8.i64(i8* nonnull align 8 %6, i8 -86, i64 120, i1 false)
  call void @_ZN4mojo7MessageC1EjjmmPNSt3__16vectorINS_16ScopedHandleBaseINS_6HandleEEENS1_9allocatorIS5_EEEE(%"class.mojo::Message"* nonnull %4, i32 1083965768, i32 0, i64 0, i64 0, %"class.std::__1::vector.56"* null) #14
  %7 = getelementptr inbounds %"class.mojo::Message", %"class.mojo::Message"* %4, i64 0, i32 1
  %8 = call i64 @_ZN4mojo8internal6Buffer8AllocateEm(%"class.mojo::internal::Buffer"* %7, i64 16) #14
  %9 = getelementptr inbounds %"class.mojo::Message", %"class.mojo::Message"* %4, i64 0, i32 1, i32 2
  %10 = load i8*, i8** %9, align 8
  %11 = getelementptr inbounds i8, i8* %10, i64 %8
  %12 = bitcast i8* %11 to %"class.network::mojom::internal::CookieManager_SetContentSettingsForLegacyCookieAccess_Params_Data"*
  call void @_ZN7network5mojom8internal65CookieManager_SetContentSettingsForLegacyCookieAccess_Params_DataC1Ev(%"class.network::mojom::internal::CookieManager_SetContentSettingsForLegacyCookieAccess_Params_Data"* %12) #14
  %13 = ptrtoint %"class.mojo::Message"* %4 to i64
  %14 = bitcast %"class.mojo::internal::ContainerValidateParams"* %5 to i8*
  call void @llvm.lifetime.start.p0i8(i64 32, i8* nonnull %14) #14
  %15 = bitcast %"class.mojo::internal::ContainerValidateParams"* %5 to i64*
  store i64 -6148914691236517206, i64* %15, align 8
  %16 = getelementptr inbounds %"class.mojo::internal::ContainerValidateParams", %"class.mojo::internal::ContainerValidateParams"* %5, i64 0, i32 0
  store i32 0, i32* %16, align 8
  %17 = getelementptr inbounds %"class.mojo::internal::ContainerValidateParams", %"class.mojo::internal::ContainerValidateParams"* %5, i64 0, i32 1
  store i8 0, i8* %17, align 4
  %18 = getelementptr inbounds %"class.mojo::internal::ContainerValidateParams", %"class.mojo::internal::ContainerValidateParams"* %5, i64 0, i32 2
  %19 = getelementptr inbounds %"class.WTF::Vector", %"class.WTF::Vector"* %1, i64 0, i32 0, i32 0, i32 2
  %20 = bitcast %"class.mojo::internal::ContainerValidateParams"** %18 to i8*
  call void @llvm.memset.p0i8.i64(i8* align 8 %20, i8 0, i64 24, i1 false)
  %21 = load i32, i32* %19, align 4
  %22 = icmp ugt i32 %21, 536870910
  br i1 %22, label %35, label %23

23:                                               ; preds = %2
  %24 = shl i32 %21, 3
  %25 = add nuw i32 %24, 8
  %26 = zext i32 %25 to i64
  %27 = call i64 @_ZN4mojo8internal6Buffer8AllocateEm(%"class.mojo::internal::Buffer"* %7, i64 %26) #14
  %28 = load i8*, i8** %9, align 8
  %29 = getelementptr inbounds i8, i8* %28, i64 %27
  %30 = bitcast i8* %29 to i32*
  store i32 %25, i32* %30, align 1
  %31 = getelementptr inbounds i8, i8* %29, i64 4
  %32 = bitcast i8* %31 to i32*
  store i32 %21, i32* %32, align 1
  %33 = load i32, i32* %19, align 4
  %34 = icmp eq i32 %33, 0
  br i1 %34, label %70, label %35

35:                                               ; preds = %23, %2
  %36 = phi i64 [ -1, %2 ], [ %27, %23 ]
  %37 = phi i32 [ %21, %2 ], [ %33, %23 ]
  %38 = zext i32 %37 to i64
  %39 = bitcast %"class.mojo::internal::MessageFragment.407"* %3 to i8*
  %40 = getelementptr inbounds %"class.mojo::internal::MessageFragment.407", %"class.mojo::internal::MessageFragment.407"* %3, i64 0, i32 0
  %41 = getelementptr inbounds %"class.mojo::internal::MessageFragment.407", %"class.mojo::internal::MessageFragment.407"* %3, i64 0, i32 1
  %42 = bitcast %"class.mojo::internal::MessageFragment.407"* %3 to i64*
  br label %43

43:                                               ; preds = %61, %35
  %44 = phi i64 [ 0, %35 ], [ %45, %61 ]
  call void @llvm.lifetime.start.p0i8(i64 16, i8* nonnull %39) #14
  store i64 %13, i64* %42, align 8
  store i64 -1, i64* %41, align 8
  %45 = add nuw i64 %44, 1
  %46 = trunc i64 %44 to i32
  %47 = call dereferenceable(8) %"class.mojo::StructPtr"* @_ZN3WTF6VectorIN4mojo9StructPtrIN16content_settings5mojom5blink27ContentSettingPatternSourceEEELj0ENS_18PartitionAllocatorEE2atEj(%"class.WTF::Vector"* %1, i32 %46) #14
  call void @_ZN4mojo8internal10SerializerIN16content_settings5mojom35ContentSettingPatternSourceDataViewENS_9StructPtrINS3_5blink27ContentSettingPatternSourceEEEE9SerializeERS8_RNS0_15MessageFragmentINS3_8internal32ContentSettingPatternSource_DataEEE(%"class.mojo::StructPtr"* dereferenceable(8) %47, %"class.mojo::internal::MessageFragment.407"* nonnull dereferenceable(16) %3) #14
  %48 = load i8*, i8** %9, align 8
  %49 = getelementptr inbounds i8, i8* %48, i64 8
  %50 = getelementptr inbounds i8, i8* %49, i64 %36
  %51 = bitcast i8* %50 to %"class.mojo::internal::Array_Data.190"*
  %52 = getelementptr inbounds %"class.mojo::internal::Array_Data.190", %"class.mojo::internal::Array_Data.190"* %51, i64 %44
  %53 = load i64, i64* %41, align 8
  %54 = icmp eq i64 %53, -1
  br i1 %54, label %61, label %55

55:                                               ; preds = %43
  %56 = load %"class.mojo::Message"*, %"class.mojo::Message"** %40, align 8
  %57 = getelementptr inbounds %"class.mojo::Message", %"class.mojo::Message"* %56, i64 0, i32 1, i32 2
  %58 = load i8*, i8** %57, align 8
  %59 = getelementptr inbounds i8, i8* %58, i64 %53
  %60 = bitcast i8* %59 to %"class.content_settings::mojom::internal::ContentSettingPatternSource_Data"*
  br label %61

61:                                               ; preds = %55, %43
  %62 = phi %"class.content_settings::mojom::internal::ContentSettingPatternSource_Data"* [ %60, %55 ], [ null, %43 ]
  %63 = bitcast %"class.mojo::internal::Array_Data.190"* %52 to i64*
  %64 = icmp eq %"class.content_settings::mojom::internal::ContentSettingPatternSource_Data"* %62, null
  %65 = ptrtoint %"class.content_settings::mojom::internal::ContentSettingPatternSource_Data"* %62 to i64
  %66 = ptrtoint %"class.mojo::internal::Array_Data.190"* %52 to i64
  %67 = sub i64 %65, %66
  %68 = select i1 %64, i64 0, i64 %67
  store i64 %68, i64* %63, align 8
  call void @llvm.lifetime.end.p0i8(i64 16, i8* nonnull %39) #14
  %69 = icmp eq i64 %45, %38
  br i1 %69, label %70, label %43

70:                                               ; preds = %61, %23
  %71 = phi i64 [ %27, %23 ], [ %36, %61 ]
  %72 = load i8*, i8** %9, align 8
  %73 = getelementptr inbounds i8, i8* %72, i64 %8
  %74 = getelementptr inbounds i8, i8* %73, i64 8
  %75 = icmp eq i64 %71, -1
  %76 = getelementptr inbounds i8, i8* %72, i64 %71
  %77 = bitcast i8* %76 to %"class.mojo::internal::Array_Data.190"*
  %78 = select i1 %75, %"class.mojo::internal::Array_Data.190"* null, %"class.mojo::internal::Array_Data.190"* %77
  %79 = bitcast i8* %74 to i64*
  %80 = icmp eq %"class.mojo::internal::Array_Data.190"* %78, null
  %81 = ptrtoint %"class.mojo::internal::Array_Data.190"* %78 to i64
  %82 = ptrtoint i8* %74 to i64
  %83 = sub i64 %81, %82
  %84 = select i1 %80, i64 0, i64 %83
  store i64 %84, i64* %79, align 8
  %85 = getelementptr inbounds %"class.network::mojom::blink::CookieManagerProxy", %"class.network::mojom::blink::CookieManagerProxy"* %0, i64 0, i32 1
  %86 = bitcast %"class.mojo::MessageReceiverWithResponder"** %85 to %"class.mojo::MessageReceiver"**
  %87 = load %"class.mojo::MessageReceiver"*, %"class.mojo::MessageReceiver"** %86, align 8
  %88 = bitcast %"class.mojo::MessageReceiver"* %87 to i1 (%"class.mojo::MessageReceiver"*, %"class.mojo::Message"*)***
  %89 = load i1 (%"class.mojo::MessageReceiver"*, %"class.mojo::Message"*)**, i1 (%"class.mojo::MessageReceiver"*, %"class.mojo::Message"*)*** %88, align 8
  %90 = getelementptr inbounds i1 (%"class.mojo::MessageReceiver"*, %"class.mojo::Message"*)*, i1 (%"class.mojo::MessageReceiver"*, %"class.mojo::Message"*)** %89, i64 3
  %91 = load i1 (%"class.mojo::MessageReceiver"*, %"class.mojo::Message"*)*, i1 (%"class.mojo::MessageReceiver"*, %"class.mojo::Message"*)** %90, align 8
  %92 = call zeroext i1 %91(%"class.mojo::MessageReceiver"* %87, %"class.mojo::Message"* nonnull %4) #14
  call void @_ZN4mojo8internal23ContainerValidateParamsD2Ev(%"class.mojo::internal::ContainerValidateParams"* nonnull %5) #14
  call void @llvm.lifetime.end.p0i8(i64 32, i8* nonnull %14) #14
  call void @_ZN4mojo7MessageD1Ev(%"class.mojo::Message"* nonnull %4) #14
  call void @llvm.lifetime.end.p0i8(i64 120, i8* nonnull %6) #14
  ret void
}

; Function Attrs: nounwind ssp uwtable
define hidden void @_ZN7network5mojom5blink18CookieManagerProxy29SetStorageAccessGrantSettingsEN3WTF6VectorIN4mojo9StructPtrIN16content_settings5mojom5blink27ContentSettingPatternSourceEEELj0ENS3_18PartitionAllocatorEEEN4base12OnceCallbackIFvvEEE(%"class.network::mojom::blink::CookieManagerProxy"* nocapture readonly, %"class.WTF::Vector"*, %"class.base::OnceCallback.184"* nocapture) unnamed_addr #0 align 2 {
  %4 = alloca %"class.mojo::internal::MessageFragment.407", align 8
  %5 = alloca %"class.mojo::Message", align 8
  %6 = alloca %"class.mojo::internal::ContainerValidateParams", align 8
  %7 = alloca %"class.base::OnceCallback.184", align 8
  %8 = bitcast %"class.mojo::Message"* %5 to i8*
  call void @llvm.lifetime.start.p0i8(i64 120, i8* nonnull %8) #14
  call void @llvm.memset.p0i8.i64(i8* nonnull align 8 %8, i8 -86, i64 120, i1 false)
  call void @_ZN4mojo7MessageC1EjjmmPNSt3__16vectorINS_16ScopedHandleBaseINS_6HandleEEENS1_9allocatorIS5_EEEE(%"class.mojo::Message"* nonnull %5, i32 1621631135, i32 1, i64 0, i64 0, %"class.std::__1::vector.56"* null) #14
  %9 = getelementptr inbounds %"class.mojo::Message", %"class.mojo::Message"* %5, i64 0, i32 1
  %10 = call i64 @_ZN4mojo8internal6Buffer8AllocateEm(%"class.mojo::internal::Buffer"* %9, i64 16) #14
  %11 = getelementptr inbounds %"class.mojo::Message", %"class.mojo::Message"* %5, i64 0, i32 1, i32 2
  %12 = load i8*, i8** %11, align 8
  %13 = getelementptr inbounds i8, i8* %12, i64 %10
  %14 = bitcast i8* %13 to %"class.network::mojom::internal::CookieManager_SetStorageAccessGrantSettings_Params_Data"*
  call void @_ZN7network5mojom8internal55CookieManager_SetStorageAccessGrantSettings_Params_DataC1Ev(%"class.network::mojom::internal::CookieManager_SetStorageAccessGrantSettings_Params_Data"* %14) #14
  %15 = ptrtoint %"class.mojo::Message"* %5 to i64
  %16 = bitcast %"class.mojo::internal::ContainerValidateParams"* %6 to i8*
  call void @llvm.lifetime.start.p0i8(i64 32, i8* nonnull %16) #14
  %17 = bitcast %"class.mojo::internal::ContainerValidateParams"* %6 to i64*
  store i64 -6148914691236517206, i64* %17, align 8
  %18 = getelementptr inbounds %"class.mojo::internal::ContainerValidateParams", %"class.mojo::internal::ContainerValidateParams"* %6, i64 0, i32 0
  store i32 0, i32* %18, align 8
  %19 = getelementptr inbounds %"class.mojo::internal::ContainerValidateParams", %"class.mojo::internal::ContainerValidateParams"* %6, i64 0, i32 1
  store i8 0, i8* %19, align 4
  %20 = getelementptr inbounds %"class.mojo::internal::ContainerValidateParams", %"class.mojo::internal::ContainerValidateParams"* %6, i64 0, i32 2
  %21 = getelementptr inbounds %"class.WTF::Vector", %"class.WTF::Vector"* %1, i64 0, i32 0, i32 0, i32 2
  %22 = bitcast %"class.mojo::internal::ContainerValidateParams"** %20 to i8*
  call void @llvm.memset.p0i8.i64(i8* align 8 %22, i8 0, i64 24, i1 false)
  %23 = load i32, i32* %21, align 4
  %24 = icmp ugt i32 %23, 536870910
  br i1 %24, label %37, label %25

25:                                               ; preds = %3
  %26 = shl i32 %23, 3
  %27 = add nuw i32 %26, 8
  %28 = zext i32 %27 to i64
  %29 = call i64 @_ZN4mojo8internal6Buffer8AllocateEm(%"class.mojo::internal::Buffer"* %9, i64 %28) #14
  %30 = load i8*, i8** %11, align 8
  %31 = getelementptr inbounds i8, i8* %30, i64 %29
  %32 = bitcast i8* %31 to i32*
  store i32 %27, i32* %32, align 1
  %33 = getelementptr inbounds i8, i8* %31, i64 4
  %34 = bitcast i8* %33 to i32*
  store i32 %23, i32* %34, align 1
  %35 = load i32, i32* %21, align 4
  %36 = icmp eq i32 %35, 0
  br i1 %36, label %72, label %37

37:                                               ; preds = %25, %3
  %38 = phi i64 [ -1, %3 ], [ %29, %25 ]
  %39 = phi i32 [ %23, %3 ], [ %35, %25 ]
  %40 = zext i32 %39 to i64
  %41 = bitcast %"class.mojo::internal::MessageFragment.407"* %4 to i8*
  %42 = getelementptr inbounds %"class.mojo::internal::MessageFragment.407", %"class.mojo::internal::MessageFragment.407"* %4, i64 0, i32 0
  %43 = getelementptr inbounds %"class.mojo::internal::MessageFragment.407", %"class.mojo::internal::MessageFragment.407"* %4, i64 0, i32 1
  %44 = bitcast %"class.mojo::internal::MessageFragment.407"* %4 to i64*
  br label %45

45:                                               ; preds = %63, %37
  %46 = phi i64 [ 0, %37 ], [ %47, %63 ]
  call void @llvm.lifetime.start.p0i8(i64 16, i8* nonnull %41) #14
  store i64 %15, i64* %44, align 8
  store i64 -1, i64* %43, align 8
  %47 = add nuw i64 %46, 1
  %48 = trunc i64 %46 to i32
  %49 = call dereferenceable(8) %"class.mojo::StructPtr"* @_ZN3WTF6VectorIN4mojo9StructPtrIN16content_settings5mojom5blink27ContentSettingPatternSourceEEELj0ENS_18PartitionAllocatorEE2atEj(%"class.WTF::Vector"* %1, i32 %48) #14
  call void @_ZN4mojo8internal10SerializerIN16content_settings5mojom35ContentSettingPatternSourceDataViewENS_9StructPtrINS3_5blink27ContentSettingPatternSourceEEEE9SerializeERS8_RNS0_15MessageFragmentINS3_8internal32ContentSettingPatternSource_DataEEE(%"class.mojo::StructPtr"* dereferenceable(8) %49, %"class.mojo::internal::MessageFragment.407"* nonnull dereferenceable(16) %4) #14
  %50 = load i8*, i8** %11, align 8
  %51 = getelementptr inbounds i8, i8* %50, i64 8
  %52 = getelementptr inbounds i8, i8* %51, i64 %38
  %53 = bitcast i8* %52 to %"class.mojo::internal::Array_Data.190"*
  %54 = getelementptr inbounds %"class.mojo::internal::Array_Data.190", %"class.mojo::internal::Array_Data.190"* %53, i64 %46
  %55 = load i64, i64* %43, align 8
  %56 = icmp eq i64 %55, -1
  br i1 %56, label %63, label %57

57:                                               ; preds = %45
  %58 = load %"class.mojo::Message"*, %"class.mojo::Message"** %42, align 8
  %59 = getelementptr inbounds %"class.mojo::Message", %"class.mojo::Message"* %58, i64 0, i32 1, i32 2
  %60 = load i8*, i8** %59, align 8
  %61 = getelementptr inbounds i8, i8* %60, i64 %55
  %62 = bitcast i8* %61 to %"class.content_settings::mojom::internal::ContentSettingPatternSource_Data"*
  br label %63

63:                                               ; preds = %57, %45
  %64 = phi %"class.content_settings::mojom::internal::ContentSettingPatternSource_Data"* [ %62, %57 ], [ null, %45 ]
  %65 = bitcast %"class.mojo::internal::Array_Data.190"* %54 to i64*
  %66 = icmp eq %"class.content_settings::mojom::internal::ContentSettingPatternSource_Data"* %64, null
  %67 = ptrtoint %"class.content_settings::mojom::internal::ContentSettingPatternSource_Data"* %64 to i64
  %68 = ptrtoint %"class.mojo::internal::Array_Data.190"* %54 to i64
  %69 = sub i64 %67, %68
  %70 = select i1 %66, i64 0, i64 %69
  store i64 %70, i64* %65, align 8
  call void @llvm.lifetime.end.p0i8(i64 16, i8* nonnull %41) #14
  %71 = icmp eq i64 %47, %40
  br i1 %71, label %72, label %45

72:                                               ; preds = %63, %25
  %73 = phi i64 [ %29, %25 ], [ %38, %63 ]
  %74 = load i8*, i8** %11, align 8
  %75 = getelementptr inbounds i8, i8* %74, i64 %10
  %76 = getelementptr inbounds i8, i8* %75, i64 8
  %77 = icmp eq i64 %73, -1
  %78 = getelementptr inbounds i8, i8* %74, i64 %73
  %79 = bitcast i8* %78 to %"class.mojo::internal::Array_Data.190"*
  %80 = select i1 %77, %"class.mojo::internal::Array_Data.190"* null, %"class.mojo::internal::Array_Data.190"* %79
  %81 = bitcast i8* %76 to i64*
  %82 = icmp eq %"class.mojo::internal::Array_Data.190"* %80, null
  %83 = ptrtoint %"class.mojo::internal::Array_Data.190"* %80 to i64
  %84 = ptrtoint i8* %76 to i64
  %85 = sub i64 %83, %84
  %86 = select i1 %82, i64 0, i64 %85
  store i64 %86, i64* %81, align 8
  %87 = call i8* @_Znwm(i64 16) #15
  %88 = getelementptr inbounds %"class.base::OnceCallback.184", %"class.base::OnceCallback.184"* %2, i64 0, i32 0, i32 0, i32 0
  %89 = bitcast %"class.base::OnceCallback.184"* %2 to i64*
  %90 = load i64, i64* %89, align 8
  store %"class.base::internal::BindStateBase"* null, %"class.base::internal::BindStateBase"** %88, align 8
  %91 = bitcast i8* %87 to i32 (...)***
  store i32 (...)** bitcast (i8** getelementptr inbounds ({ [6 x i8*] }, { [6 x i8*] }* @_ZTVN7network5mojom5blink61CookieManager_SetStorageAccessGrantSettings_ForwardToCallbackE, i64 0, inrange i32 0, i64 2) to i32 (...)**), i32 (...)*** %91, align 8
  %92 = getelementptr inbounds i8, i8* %87, i64 8
  %93 = getelementptr inbounds %"class.base::OnceCallback.184", %"class.base::OnceCallback.184"* %7, i64 0, i32 0, i32 0, i32 0
  %94 = bitcast i8* %92 to i64*
  store i64 %90, i64* %94, align 8
  store %"class.base::internal::BindStateBase"* null, %"class.base::internal::BindStateBase"** %93, align 8
  %95 = bitcast i8* %87 to %"class.mojo::MessageReceiver"*
  %96 = getelementptr inbounds %"class.base::OnceCallback.184", %"class.base::OnceCallback.184"* %7, i64 0, i32 0
  call void @_ZN4base8internal12CallbackBaseD2Ev(%"class.base::internal::CallbackBase"* nonnull %96) #14
  %97 = getelementptr inbounds %"class.network::mojom::blink::CookieManagerProxy", %"class.network::mojom::blink::CookieManagerProxy"* %0, i64 0, i32 1
  %98 = load %"class.mojo::MessageReceiverWithResponder"*, %"class.mojo::MessageReceiverWithResponder"** %97, align 8
  %99 = bitcast %"class.mojo::MessageReceiverWithResponder"* %98 to i1 (%"class.mojo::MessageReceiverWithResponder"*, %"class.mojo::Message"*, %"class.mojo::MessageReceiver"*)***
  %100 = load i1 (%"class.mojo::MessageReceiverWithResponder"*, %"class.mojo::Message"*, %"class.mojo::MessageReceiver"*)**, i1 (%"class.mojo::MessageReceiverWithResponder"*, %"class.mojo::Message"*, %"class.mojo::MessageReceiver"*)*** %99, align 8
  %101 = getelementptr inbounds i1 (%"class.mojo::MessageReceiverWithResponder"*, %"class.mojo::Message"*, %"class.mojo::MessageReceiver"*)*, i1 (%"class.mojo::MessageReceiverWithResponder"*, %"class.mojo::Message"*, %"class.mojo::MessageReceiver"*)** %100, i64 4
  %102 = load i1 (%"class.mojo::MessageReceiverWithResponder"*, %"class.mojo::Message"*, %"class.mojo::MessageReceiver"*)*, i1 (%"class.mojo::MessageReceiverWithResponder"*, %"class.mojo::Message"*, %"class.mojo::MessageReceiver"*)** %101, align 8
  %103 = call zeroext i1 %102(%"class.mojo::MessageReceiverWithResponder"* %98, %"class.mojo::Message"* nonnull %5, %"class.mojo::MessageReceiver"* nonnull %95) #14
  call void @_ZN4mojo8internal23ContainerValidateParamsD2Ev(%"class.mojo::internal::ContainerValidateParams"* nonnull %6) #14
  call void @llvm.lifetime.end.p0i8(i64 32, i8* nonnull %16) #14
  call void @_ZN4mojo7MessageD1Ev(%"class.mojo::Message"* nonnull %5) #14
  call void @llvm.lifetime.end.p0i8(i64 120, i8* nonnull %8) #14
  ret void
}

; Function Attrs: nounwind ssp uwtable
define hidden zeroext i1 @_ZN7network5mojom5blink45CookieManager_GetAllCookies_ForwardToCallback6AcceptEPN4mojo7MessageE(%"class.network::mojom::blink::CookieManager_GetAllCookies_ForwardToCallback"* nocapture, %"class.mojo::Message"*) unnamed_addr #0 align 2 {
  %3 = alloca %"class.base::OnceCallback", align 8
  %4 = alloca %"class.WTF::Vector.196", align 8
  %5 = tail call i8* @_ZNK4mojo7Message7payloadEv(%"class.mojo::Message"* %1) #14
  %6 = bitcast %"class.WTF::Vector.196"* %4 to i8*
  call void @llvm.lifetime.start.p0i8(i64 16, i8* nonnull %6) #14
  %7 = getelementptr inbounds %"class.WTF::Vector.196", %"class.WTF::Vector.196"* %4, i64 0, i32 0, i32 0, i32 0
  %8 = getelementptr inbounds %"class.WTF::Vector.196", %"class.WTF::Vector.196"* %4, i64 0, i32 0, i32 0, i32 2
  call void @llvm.memset.p0i8.i64(i8* nonnull align 8 %6, i8 0, i64 16, i1 false) #14
  %9 = getelementptr inbounds i8, i8* %5, i64 8
  %10 = bitcast i8* %9 to i64*
  %11 = load i64, i64* %10, align 8
  %12 = icmp eq i64 %11, 0
  %13 = getelementptr inbounds i8, i8* %9, i64 %11
  %14 = bitcast i8* %13 to %"class.mojo::internal::Array_Data.203"*
  %15 = select i1 %12, %"class.mojo::internal::Array_Data.203"* null, %"class.mojo::internal::Array_Data.203"* %14
  %16 = call zeroext i1 @_ZN4mojo8internal10SerializerINS_13ArrayDataViewIN7network5mojom23CanonicalCookieDataViewEEEN3WTF6VectorIN3net15CanonicalCookieELj0ENS7_18PartitionAllocatorEEEE11DeserializeEPNS0_10Array_DataINS0_7PointerINS4_8internal20CanonicalCookie_DataEEEEEPSC_PNS_7MessageE(%"class.mojo::internal::Array_Data.203"* %15, %"class.WTF::Vector.196"* nonnull %4, %"class.mojo::Message"* %1) #14
  br i1 %16, label %18, label %17

17:                                               ; preds = %2
  call void @_ZN4mojo8internal31ReportValidationErrorForMessageEPNS_7MessageENS0_15ValidationErrorEPKcjb(%"class.mojo::Message"* %1, i32 17, i8* getelementptr inbounds ([28 x i8], [28 x i8]* @_ZN7network5mojom5blink13CookieManager5Name_E, i64 0, i64 0), i32 0, i1 zeroext true) #14
  br label %30

18:                                               ; preds = %2
  %19 = getelementptr inbounds %"class.network::mojom::blink::CookieManager_GetAllCookies_ForwardToCallback", %"class.network::mojom::blink::CookieManager_GetAllCookies_ForwardToCallback"* %0, i64 0, i32 1, i32 0, i32 0, i32 0
  %20 = load %"class.base::internal::BindStateBase"*, %"class.base::internal::BindStateBase"** %19, align 8
  %21 = icmp eq %"class.base::internal::BindStateBase"* %20, null
  br i1 %21, label %30, label %22

22:                                               ; preds = %18
  %23 = ptrtoint %"class.base::internal::BindStateBase"* %20 to i64
  %24 = bitcast %"class.base::OnceCallback"* %3 to i8*
  call void @llvm.lifetime.start.p0i8(i64 8, i8* nonnull %24) #14
  %25 = bitcast %"class.base::OnceCallback"* %3 to i64*
  store i64 %23, i64* %25, align 8
  store %"class.base::internal::BindStateBase"* null, %"class.base::internal::BindStateBase"** %19, align 8
  %26 = getelementptr inbounds %"class.base::OnceCallback", %"class.base::OnceCallback"* %3, i64 0, i32 0
  %27 = getelementptr inbounds %"class.base::internal::BindStateBase", %"class.base::internal::BindStateBase"* %20, i64 0, i32 1
  %28 = bitcast void ()** %27 to void (%"class.base::internal::BindStateBase"*, %"class.WTF::Vector.196"*)**
  %29 = load void (%"class.base::internal::BindStateBase"*, %"class.WTF::Vector.196"*)*, void (%"class.base::internal::BindStateBase"*, %"class.WTF::Vector.196"*)** %28, align 8
  call void %29(%"class.base::internal::BindStateBase"* nonnull %20, %"class.WTF::Vector.196"* nonnull dereferenceable(16) %4) #14
  call void @_ZN4base8internal12CallbackBaseD2Ev(%"class.base::internal::CallbackBase"* nonnull %26) #14
  call void @llvm.lifetime.end.p0i8(i64 8, i8* nonnull %24) #14
  br label %30

30:                                               ; preds = %18, %22, %17
  %31 = phi i1 [ false, %17 ], [ true, %22 ], [ true, %18 ]
  %32 = load %"class.net::CanonicalCookie"*, %"class.net::CanonicalCookie"** %7, align 8
  %33 = icmp eq %"class.net::CanonicalCookie"* %32, null
  br i1 %33, label %50, label %34, !prof !2

34:                                               ; preds = %30
  %35 = bitcast %"class.net::CanonicalCookie"* %32 to i8*
  %36 = load i32, i32* %8, align 4
  %37 = icmp eq i32 %36, 0
  br i1 %37, label %48, label %38, !prof !3

38:                                               ; preds = %34
  %39 = zext i32 %36 to i64
  %40 = getelementptr inbounds %"class.net::CanonicalCookie", %"class.net::CanonicalCookie"* %32, i64 %39
  br label %41

41:                                               ; preds = %41, %38
  %42 = phi %"class.net::CanonicalCookie"* [ %43, %41 ], [ %32, %38 ]
  call void @_ZN3net15CanonicalCookieD1Ev(%"class.net::CanonicalCookie"* %42) #14
  %43 = getelementptr inbounds %"class.net::CanonicalCookie", %"class.net::CanonicalCookie"* %42, i64 1
  %44 = icmp eq %"class.net::CanonicalCookie"* %43, %40
  br i1 %44, label %45, label %41

45:                                               ; preds = %41
  store i32 0, i32* %8, align 4
  %46 = bitcast %"class.WTF::Vector.196"* %4 to i8**
  %47 = load i8*, i8** %46, align 8
  br label %48

48:                                               ; preds = %45, %34
  %49 = phi i8* [ %47, %45 ], [ %35, %34 ]
  call void @_ZN3WTF18PartitionAllocator11FreeBackingEPv(i8* %49) #14
  store %"class.net::CanonicalCookie"* null, %"class.net::CanonicalCookie"** %7, align 8
  br label %50

50:                                               ; preds = %30, %48
  call void @llvm.lifetime.end.p0i8(i64 16, i8* nonnull %6) #14
  ret i1 %31
}

; Function Attrs: nounwind ssp uwtable
define hidden void @_ZN7network5mojom5blink44CookieManager_GetAllCookies_ProxyToResponder3RunERKN3WTF6VectorIN3net15CanonicalCookieELj0ENS3_18PartitionAllocatorEEE(%"class.network::mojom::blink::CookieManager_GetAllCookies_ProxyToResponder"* nocapture, %"class.WTF::Vector.196"* dereferenceable(16)) #0 align 2 {
  %3 = alloca %"class.mojo::internal::MessageFragment.162", align 8
  %4 = alloca %"class.mojo::Message", align 8
  %5 = alloca %"class.mojo::internal::ContainerValidateParams", align 8
  %6 = getelementptr inbounds %"class.network::mojom::blink::CookieManager_GetAllCookies_ProxyToResponder", %"class.network::mojom::blink::CookieManager_GetAllCookies_ProxyToResponder"* %0, i64 0, i32 1
  %7 = load i8, i8* %6, align 8, !range !4
  %8 = icmp eq i8 %7, 0
  %9 = select i1 %8, i32 2, i32 6
  %10 = bitcast %"class.mojo::Message"* %4 to i8*
  call void @llvm.lifetime.start.p0i8(i64 120, i8* nonnull %10) #14
  call void @llvm.memset.p0i8.i64(i8* nonnull align 8 %10, i8 -86, i64 120, i1 false)
  call void @_ZN4mojo7MessageC1EjjmmPNSt3__16vectorINS_16ScopedHandleBaseINS_6HandleEEENS1_9allocatorIS5_EEEE(%"class.mojo::Message"* nonnull %4, i32 274245010, i32 %9, i64 0, i64 0, %"class.std::__1::vector.56"* null) #14
  %11 = getelementptr inbounds %"class.mojo::Message", %"class.mojo::Message"* %4, i64 0, i32 1
  %12 = call i64 @_ZN4mojo8internal6Buffer8AllocateEm(%"class.mojo::internal::Buffer"* %11, i64 16) #14
  %13 = getelementptr inbounds %"class.mojo::Message", %"class.mojo::Message"* %4, i64 0, i32 1, i32 2
  %14 = load i8*, i8** %13, align 8
  %15 = getelementptr inbounds i8, i8* %14, i64 %12
  %16 = bitcast i8* %15 to %"class.network::mojom::internal::CookieManager_GetAllCookies_ResponseParams_Data"*
  call void @_ZN7network5mojom8internal47CookieManager_GetAllCookies_ResponseParams_DataC1Ev(%"class.network::mojom::internal::CookieManager_GetAllCookies_ResponseParams_Data"* %16) #14
  %17 = ptrtoint %"class.mojo::Message"* %4 to i64
  %18 = bitcast %"class.mojo::internal::ContainerValidateParams"* %5 to i8*
  call void @llvm.lifetime.start.p0i8(i64 32, i8* nonnull %18) #14
  %19 = bitcast %"class.mojo::internal::ContainerValidateParams"* %5 to i64*
  store i64 -6148914691236517206, i64* %19, align 8
  %20 = getelementptr inbounds %"class.mojo::internal::ContainerValidateParams", %"class.mojo::internal::ContainerValidateParams"* %5, i64 0, i32 0
  store i32 0, i32* %20, align 8
  %21 = getelementptr inbounds %"class.mojo::internal::ContainerValidateParams", %"class.mojo::internal::ContainerValidateParams"* %5, i64 0, i32 1
  store i8 0, i8* %21, align 4
  %22 = getelementptr inbounds %"class.mojo::internal::ContainerValidateParams", %"class.mojo::internal::ContainerValidateParams"* %5, i64 0, i32 2
  %23 = getelementptr inbounds %"class.WTF::Vector.196", %"class.WTF::Vector.196"* %1, i64 0, i32 0, i32 0, i32 2
  %24 = bitcast %"class.mojo::internal::ContainerValidateParams"** %22 to i8*
  call void @llvm.memset.p0i8.i64(i8* align 8 %24, i8 0, i64 24, i1 false)
  %25 = load i32, i32* %23, align 4
  %26 = icmp ugt i32 %25, 536870910
  br i1 %26, label %39, label %27

27:                                               ; preds = %2
  %28 = shl i32 %25, 3
  %29 = add nuw i32 %28, 8
  %30 = zext i32 %29 to i64
  %31 = call i64 @_ZN4mojo8internal6Buffer8AllocateEm(%"class.mojo::internal::Buffer"* %11, i64 %30) #14
  %32 = load i8*, i8** %13, align 8
  %33 = getelementptr inbounds i8, i8* %32, i64 %31
  %34 = bitcast i8* %33 to i32*
  store i32 %29, i32* %34, align 1
  %35 = getelementptr inbounds i8, i8* %33, i64 4
  %36 = bitcast i8* %35 to i32*
  store i32 %25, i32* %36, align 1
  %37 = load i32, i32* %23, align 4
  %38 = icmp eq i32 %37, 0
  br i1 %38, label %74, label %39

39:                                               ; preds = %27, %2
  %40 = phi i64 [ -1, %2 ], [ %31, %27 ]
  %41 = phi i32 [ %25, %2 ], [ %37, %27 ]
  %42 = zext i32 %41 to i64
  %43 = bitcast %"class.mojo::internal::MessageFragment.162"* %3 to i8*
  %44 = getelementptr inbounds %"class.mojo::internal::MessageFragment.162", %"class.mojo::internal::MessageFragment.162"* %3, i64 0, i32 0
  %45 = getelementptr inbounds %"class.mojo::internal::MessageFragment.162", %"class.mojo::internal::MessageFragment.162"* %3, i64 0, i32 1
  %46 = bitcast %"class.mojo::internal::MessageFragment.162"* %3 to i64*
  br label %47

47:                                               ; preds = %65, %39
  %48 = phi i64 [ 0, %39 ], [ %49, %65 ]
  call void @llvm.lifetime.start.p0i8(i64 16, i8* nonnull %43) #14
  store i64 %17, i64* %46, align 8
  store i64 -1, i64* %45, align 8
  %49 = add nuw i64 %48, 1
  %50 = trunc i64 %48 to i32
  %51 = call dereferenceable(144) %"class.net::CanonicalCookie"* @_ZNK3WTF6VectorIN3net15CanonicalCookieELj0ENS_18PartitionAllocatorEE2atEj(%"class.WTF::Vector.196"* %1, i32 %50) #14
  call void @_ZN4mojo8internal10SerializerIN7network5mojom23CanonicalCookieDataViewEKN3net15CanonicalCookieEE9SerializeERS7_RNS0_15MessageFragmentINS3_8internal20CanonicalCookie_DataEEE(%"class.net::CanonicalCookie"* dereferenceable(144) %51, %"class.mojo::internal::MessageFragment.162"* nonnull dereferenceable(16) %3) #14
  %52 = load i8*, i8** %13, align 8
  %53 = getelementptr inbounds i8, i8* %52, i64 8
  %54 = getelementptr inbounds i8, i8* %53, i64 %40
  %55 = bitcast i8* %54 to %"class.mojo::internal::Array_Data.203"*
  %56 = getelementptr inbounds %"class.mojo::internal::Array_Data.203", %"class.mojo::internal::Array_Data.203"* %55, i64 %48
  %57 = load i64, i64* %45, align 8
  %58 = icmp eq i64 %57, -1
  br i1 %58, label %65, label %59

59:                                               ; preds = %47
  %60 = load %"class.mojo::Message"*, %"class.mojo::Message"** %44, align 8
  %61 = getelementptr inbounds %"class.mojo::Message", %"class.mojo::Message"* %60, i64 0, i32 1, i32 2
  %62 = load i8*, i8** %61, align 8
  %63 = getelementptr inbounds i8, i8* %62, i64 %57
  %64 = bitcast i8* %63 to %"class.network::mojom::internal::CanonicalCookie_Data"*
  br label %65

65:                                               ; preds = %59, %47
  %66 = phi %"class.network::mojom::internal::CanonicalCookie_Data"* [ %64, %59 ], [ null, %47 ]
  %67 = bitcast %"class.mojo::internal::Array_Data.203"* %56 to i64*
  %68 = icmp eq %"class.network::mojom::internal::CanonicalCookie_Data"* %66, null
  %69 = ptrtoint %"class.network::mojom::internal::CanonicalCookie_Data"* %66 to i64
  %70 = ptrtoint %"class.mojo::internal::Array_Data.203"* %56 to i64
  %71 = sub i64 %69, %70
  %72 = select i1 %68, i64 0, i64 %71
  store i64 %72, i64* %67, align 8
  call void @llvm.lifetime.end.p0i8(i64 16, i8* nonnull %43) #14
  %73 = icmp eq i64 %49, %42
  br i1 %73, label %74, label %47

74:                                               ; preds = %65, %27
  %75 = phi i64 [ %31, %27 ], [ %40, %65 ]
  %76 = load i8*, i8** %13, align 8
  %77 = getelementptr inbounds i8, i8* %76, i64 %12
  %78 = getelementptr inbounds i8, i8* %77, i64 8
  %79 = icmp eq i64 %75, -1
  %80 = getelementptr inbounds i8, i8* %76, i64 %75
  %81 = bitcast i8* %80 to %"class.mojo::internal::Array_Data.203"*
  %82 = select i1 %79, %"class.mojo::internal::Array_Data.203"* null, %"class.mojo::internal::Array_Data.203"* %81
  %83 = bitcast i8* %78 to i64*
  %84 = icmp eq %"class.mojo::internal::Array_Data.203"* %82, null
  %85 = ptrtoint %"class.mojo::internal::Array_Data.203"* %82 to i64
  %86 = ptrtoint i8* %78 to i64
  %87 = sub i64 %85, %86
  %88 = select i1 %84, i64 0, i64 %87
  store i64 %88, i64* %83, align 8
  %89 = getelementptr inbounds %"class.network::mojom::blink::CookieManager_GetAllCookies_ProxyToResponder", %"class.network::mojom::blink::CookieManager_GetAllCookies_ProxyToResponder"* %0, i64 0, i32 0
  %90 = load i64, i64* %89, align 8
  %91 = bitcast i8** %13 to %"struct.mojo::internal::MessageHeaderV1"**
  %92 = load %"struct.mojo::internal::MessageHeaderV1"*, %"struct.mojo::internal::MessageHeaderV1"** %91, align 8
  %93 = getelementptr inbounds %"struct.mojo::internal::MessageHeaderV1", %"struct.mojo::internal::MessageHeaderV1"* %92, i64 0, i32 1
  store i64 %90, i64* %93, align 1
  %94 = getelementptr inbounds %"class.network::mojom::blink::CookieManager_GetAllCookies_ProxyToResponder", %"class.network::mojom::blink::CookieManager_GetAllCookies_ProxyToResponder"* %0, i64 0, i32 2, i32 0, i32 0, i32 0
  %95 = load %"class.mojo::MessageReceiverWithStatus"*, %"class.mojo::MessageReceiverWithStatus"** %94, align 8
  %96 = getelementptr inbounds %"class.mojo::MessageReceiverWithStatus", %"class.mojo::MessageReceiverWithStatus"* %95, i64 0, i32 0
  %97 = bitcast %"class.mojo::MessageReceiverWithStatus"* %95 to i1 (%"class.mojo::MessageReceiver"*, %"class.mojo::Message"*)***
  %98 = load i1 (%"class.mojo::MessageReceiver"*, %"class.mojo::Message"*)**, i1 (%"class.mojo::MessageReceiver"*, %"class.mojo::Message"*)*** %97, align 8
  %99 = getelementptr inbounds i1 (%"class.mojo::MessageReceiver"*, %"class.mojo::Message"*)*, i1 (%"class.mojo::MessageReceiver"*, %"class.mojo::Message"*)** %98, i64 3
  %100 = load i1 (%"class.mojo::MessageReceiver"*, %"class.mojo::Message"*)*, i1 (%"class.mojo::MessageReceiver"*, %"class.mojo::Message"*)** %99, align 8
  %101 = call zeroext i1 %100(%"class.mojo::MessageReceiver"* %96, %"class.mojo::Message"* nonnull %4) #14
  %102 = load %"class.mojo::MessageReceiverWithStatus"*, %"class.mojo::MessageReceiverWithStatus"** %94, align 8
  store %"class.mojo::MessageReceiverWithStatus"* null, %"class.mojo::MessageReceiverWithStatus"** %94, align 8
  %103 = icmp eq %"class.mojo::MessageReceiverWithStatus"* %102, null
  br i1 %103, label %109, label %104

104:                                              ; preds = %74
  %105 = bitcast %"class.mojo::MessageReceiverWithStatus"* %102 to void (%"class.mojo::MessageReceiverWithStatus"*)***
  %106 = load void (%"class.mojo::MessageReceiverWithStatus"*)**, void (%"class.mojo::MessageReceiverWithStatus"*)*** %105, align 8
  %107 = getelementptr inbounds void (%"class.mojo::MessageReceiverWithStatus"*)*, void (%"class.mojo::MessageReceiverWithStatus"*)** %106, i64 1
  %108 = load void (%"class.mojo::MessageReceiverWithStatus"*)*, void (%"class.mojo::MessageReceiverWithStatus"*)** %107, align 8
  call void %108(%"class.mojo::MessageReceiverWithStatus"* nonnull %102) #14
  br label %109

109:                                              ; preds = %74, %104
  call void @_ZN4mojo8internal23ContainerValidateParamsD2Ev(%"class.mojo::internal::ContainerValidateParams"* nonnull %5) #14
  call void @llvm.lifetime.end.p0i8(i64 32, i8* nonnull %18) #14
  call void @_ZN4mojo7MessageD1Ev(%"class.mojo::Message"* nonnull %4) #14
  call void @llvm.lifetime.end.p0i8(i64 120, i8* nonnull %10) #14
  ret void
}

; Function Attrs: nounwind ssp uwtable
define hidden zeroext i1 @_ZN7network5mojom5blink64CookieManager_GetAllCookiesWithAccessSemantics_ForwardToCallback6AcceptEPN4mojo7MessageE(%"class.network::mojom::blink::CookieManager_GetAllCookiesWithAccessSemantics_ForwardToCallback"* nocapture, %"class.mojo::Message"*) unnamed_addr #0 align 2 {
  %3 = alloca %"class.base::OnceCallback.143", align 8
  %4 = alloca %"class.WTF::Vector.196", align 8
  %5 = alloca %"class.WTF::Vector.205", align 8
  %6 = tail call i8* @_ZNK4mojo7Message7payloadEv(%"class.mojo::Message"* %1) #14
  %7 = bitcast %"class.WTF::Vector.196"* %4 to i8*
  call void @llvm.lifetime.start.p0i8(i64 16, i8* nonnull %7) #14
  %8 = getelementptr inbounds %"class.WTF::Vector.196", %"class.WTF::Vector.196"* %4, i64 0, i32 0, i32 0, i32 0
  %9 = getelementptr inbounds %"class.WTF::Vector.196", %"class.WTF::Vector.196"* %4, i64 0, i32 0, i32 0, i32 2
  call void @llvm.memset.p0i8.i64(i8* nonnull align 8 %7, i8 0, i64 16, i1 false) #14
  %10 = bitcast %"class.WTF::Vector.205"* %5 to i8*
  call void @llvm.lifetime.start.p0i8(i64 16, i8* nonnull %10) #14
  %11 = getelementptr inbounds %"class.WTF::Vector.205", %"class.WTF::Vector.205"* %5, i64 0, i32 0, i32 0, i32 0
  %12 = getelementptr inbounds %"class.WTF::Vector.205", %"class.WTF::Vector.205"* %5, i64 0, i32 0, i32 0, i32 1
  %13 = getelementptr inbounds %"class.WTF::Vector.205", %"class.WTF::Vector.205"* %5, i64 0, i32 0, i32 0, i32 2
  call void @llvm.memset.p0i8.i64(i8* nonnull align 8 %10, i8 0, i64 16, i1 false) #14
  %14 = getelementptr inbounds i8, i8* %6, i64 8
  %15 = bitcast i8* %14 to i64*
  %16 = load i64, i64* %15, align 8
  %17 = icmp eq i64 %16, 0
  %18 = getelementptr inbounds i8, i8* %14, i64 %16
  %19 = bitcast i8* %18 to %"class.mojo::internal::Array_Data.203"*
  %20 = select i1 %17, %"class.mojo::internal::Array_Data.203"* null, %"class.mojo::internal::Array_Data.203"* %19
  %21 = call zeroext i1 @_ZN4mojo8internal10SerializerINS_13ArrayDataViewIN7network5mojom23CanonicalCookieDataViewEEEN3WTF6VectorIN3net15CanonicalCookieELj0ENS7_18PartitionAllocatorEEEE11DeserializeEPNS0_10Array_DataINS0_7PointerINS4_8internal20CanonicalCookie_DataEEEEEPSC_PNS_7MessageE(%"class.mojo::internal::Array_Data.203"* %20, %"class.WTF::Vector.196"* nonnull %4, %"class.mojo::Message"* %1) #14
  br i1 %21, label %22, label %69

22:                                               ; preds = %2
  %23 = getelementptr inbounds i8, i8* %6, i64 16
  %24 = bitcast i8* %23 to i64*
  %25 = load i64, i64* %24, align 8
  %26 = icmp eq i64 %25, 0
  %27 = getelementptr inbounds i8, i8* %23, i64 %25
  br i1 %26, label %70, label %28

28:                                               ; preds = %22
  %29 = getelementptr inbounds i8, i8* %27, i64 4
  %30 = bitcast i8* %29 to i32*
  %31 = load i32, i32* %30, align 1
  %32 = icmp eq i32 %31, 0
  br i1 %32, label %53, label %33

33:                                               ; preds = %28
  %34 = icmp ugt i32 %31, 4
  %35 = select i1 %34, i32 %31, i32 4
  %36 = zext i32 %35 to i64
  %37 = call i64 @_ZN3WTF18PartitionAllocator13QuantizedSizeIN7network5mojom21CookieAccessSemanticsEEEmm(i64 %36) #14
  %38 = call i8* @_ZN3WTF18PartitionAllocator15AllocateBackingEmPKc(i64 %37, i8* getelementptr inbounds ([85 x i8], [85 x i8]* @__PRETTY_FUNCTION__._ZN3WTF21GetStringWithTypeNameIN7network5mojom21CookieAccessSemanticsEEEPKcv, i64 0, i64 0)) #14
  %39 = ptrtoint i8* %38 to i64
  %40 = bitcast %"class.WTF::Vector.205"* %5 to i64*
  store atomic i64 %39, i64* %40 monotonic, align 8
  %41 = lshr i64 %37, 2
  %42 = trunc i64 %41 to i32
  store i32 %42, i32* %12, align 8
  %43 = bitcast i8* %38 to i32*
  %44 = load i32, i32* %13, align 4
  %45 = zext i32 %44 to i64
  %46 = getelementptr inbounds i32, i32* %43, i64 %45
  %47 = zext i32 %31 to i64
  %48 = getelementptr inbounds i32, i32* %43, i64 %47
  %49 = bitcast i32* %46 to i8*
  %50 = ptrtoint i32* %48 to i64
  %51 = ptrtoint i32* %46 to i64
  %52 = sub i64 %50, %51
  call void @llvm.memset.p0i8.i64(i8* align 4 %49, i8 0, i64 %52, i1 false) #14
  br label %53

53:                                               ; preds = %28, %33
  store i32 %31, i32* %13, align 4
