; ModuleID = 'gen/components/performance_manager/public/mojom/coordination_unit.mojom.cc'
source_filename = "gen/components/performance_manager/public/mojom/coordination_unit.mojom.cc"
target datalayout = "e-m:e-i64:64-f80:128-n8:16:32:64-S128"
target triple = "x86_64-unknown-linux-gnu"

module asm ".symver exp, exp@GLIBC_2.2.5"
module asm ".symver exp2, exp2@GLIBC_2.2.5"
module asm ".symver exp2f, exp2f@GLIBC_2.2.5"
module asm ".symver expf, expf@GLIBC_2.2.5"
module asm ".symver lgamma, lgamma@GLIBC_2.2.5"
module asm ".symver lgammaf, lgammaf@GLIBC_2.2.5"
module asm ".symver lgammal, lgammal@GLIBC_2.2.5"
module asm ".symver log, log@GLIBC_2.2.5"
module asm ".symver log2, log2@GLIBC_2.2.5"
module asm ".symver log2f, log2f@GLIBC_2.2.5"
module asm ".symver logf, logf@GLIBC_2.2.5"
module asm ".symver pow, pow@GLIBC_2.2.5"
module asm ".symver powf, powf@GLIBC_2.2.5"

%"struct.std::__1::pair" = type { i32, %"struct.mojo::internal::GenericValidationInfo" }
%"struct.mojo::internal::GenericValidationInfo" = type { i1 (i8*, %"class.mojo::internal::ValidationContext"*)*, i1 (i8*, %"class.mojo::internal::ValidationContext"*)* }
%"class.mojo::internal::ValidationContext" = type <{ %"class.mojo::Message"*, i8*, i32, [4 x i8], i64, i64, i32, i32, i32, i32, i32, [4 x i8] }>
%"class.mojo::Message" = type { %"class.mojo::ScopedHandleBase", %"class.mojo::internal::Buffer", %"class.std::__1::vector", %"class.std::__1::vector.2", %"class.mojo::ConnectionGroup::Ref"*, i8, i8, i8* }
%"class.mojo::ScopedHandleBase" = type { %"class.mojo::MessageHandle" }
%"class.mojo::MessageHandle" = type { i64 }
%"class.mojo::internal::Buffer" = type { %"class.mojo::MessageHandle", i64, i8*, i64, i64 }
%"class.std::__1::vector" = type { %"class.std::__1::__vector_base" }
%"class.std::__1::__vector_base" = type { %"class.mojo::ScopedHandleBase.0"*, %"class.mojo::ScopedHandleBase.0"*, %"class.std::__1::__compressed_pair" }
%"class.mojo::ScopedHandleBase.0" = type { %"class.mojo::Handle" }
%"class.mojo::Handle" = type { i32 }
%"class.std::__1::__compressed_pair" = type { %"struct.std::__1::__compressed_pair_elem" }
%"struct.std::__1::__compressed_pair_elem" = type { %"class.mojo::ScopedHandleBase.0"* }
%"class.std::__1::vector.2" = type { %"class.std::__1::__vector_base.3" }
%"class.std::__1::__vector_base.3" = type { %"class.mojo::ScopedInterfaceEndpointHandle"*, %"class.mojo::ScopedInterfaceEndpointHandle"*, %"class.std::__1::__compressed_pair.4" }
%"class.mojo::ScopedInterfaceEndpointHandle" = type { %class.scoped_refptr }
%class.scoped_refptr = type { %"class.mojo::ScopedInterfaceEndpointHandle::State"* }
%"class.mojo::ScopedInterfaceEndpointHandle::State" = type opaque
%"class.std::__1::__compressed_pair.4" = type { %"struct.std::__1::__compressed_pair_elem.5" }
%"struct.std::__1::__compressed_pair_elem.5" = type { %"class.mojo::ScopedInterfaceEndpointHandle"* }
%"class.mojo::ConnectionGroup::Ref" = type { i32, %class.scoped_refptr.9 }
%class.scoped_refptr.9 = type { %"class.mojo::ConnectionGroup"* }
%"class.mojo::ConnectionGroup" = type <{ i32 (...)**, %"class.base::RefCountedThreadSafe", [4 x i8], %"class.base::RepeatingCallback", %class.scoped_refptr.13, %"class.mojo::ConnectionGroup::Ref", %"struct.std::__1::atomic.15", [4 x i8] }>
%"class.base::RefCountedThreadSafe" = type { %"class.base::subtle::RefCountedThreadSafeBase" }
%"class.base::subtle::RefCountedThreadSafeBase" = type { %"class.base::AtomicRefCount" }
%"class.base::AtomicRefCount" = type { %"struct.std::__1::atomic" }
%"struct.std::__1::atomic" = type { %"struct.std::__1::__atomic_base" }
%"struct.std::__1::__atomic_base" = type { %"struct.std::__1::__atomic_base.10" }
%"struct.std::__1::__atomic_base.10" = type { %"struct.std::__1::__cxx_atomic_impl" }
%"struct.std::__1::__cxx_atomic_impl" = type { %"struct.std::__1::__cxx_atomic_base_impl" }
%"struct.std::__1::__cxx_atomic_base_impl" = type { i32 }
%"class.base::RepeatingCallback" = type { %"class.base::internal::CallbackBaseCopyable" }
%"class.base::internal::CallbackBaseCopyable" = type { %"class.base::internal::CallbackBase" }
%"class.base::internal::CallbackBase" = type { %class.scoped_refptr.11 }
%class.scoped_refptr.11 = type { %"class.base::internal::BindStateBase"* }
%"class.base::internal::BindStateBase" = type { %"class.base::RefCountedThreadSafe.12", void ()*, void (%"class.base::internal::BindStateBase"*)*, i1 (%"class.base::internal::BindStateBase"*, i32)* }
%"class.base::RefCountedThreadSafe.12" = type { %"class.base::subtle::RefCountedThreadSafeBase" }
%class.scoped_refptr.13 = type { %"class.base::SequencedTaskRunner"* }
%"class.base::SequencedTaskRunner" = type { %"class.base::TaskRunner.base", [4 x i8] }
%"class.base::TaskRunner.base" = type <{ i32 (...)**, %"class.base::RefCountedThreadSafe.14" }>
%"class.base::RefCountedThreadSafe.14" = type { %"class.base::subtle::RefCountedThreadSafeBase" }
%"struct.std::__1::atomic.15" = type { %"struct.std::__1::__atomic_base.16" }
%"struct.std::__1::__atomic_base.16" = type { %"struct.std::__1::__atomic_base.17" }
%"struct.std::__1::__atomic_base.17" = type { %"struct.std::__1::__cxx_atomic_impl.18" }
%"struct.std::__1::__cxx_atomic_impl.18" = type { %"struct.std::__1::__cxx_atomic_base_impl.19" }
%"struct.std::__1::__cxx_atomic_base_impl.19" = type { i32 }
%"class.performance_manager::mojom::DocumentCoordinationUnitProxy" = type { %"class.performance_manager::mojom::DocumentCoordinationUnit", %"class.mojo::MessageReceiverWithResponder"* }
%"class.performance_manager::mojom::DocumentCoordinationUnit" = type { i32 (...)** }
%"class.mojo::MessageReceiverWithResponder" = type { %"class.mojo::MessageReceiver" }
%"class.mojo::MessageReceiver" = type { i32 (...)** }
%"class.performance_manager::mojom::ProcessCoordinationUnitProxy" = type { %"class.performance_manager::mojom::ProcessCoordinationUnit", %"class.mojo::MessageReceiverWithResponder"* }
%"class.performance_manager::mojom::ProcessCoordinationUnit" = type { i32 (...)** }
%"class.performance_manager::mojom::internal::DocumentCoordinationUnit_SetNetworkAlmostIdle_Params_Data" = type { %"struct.mojo::internal::StructHeader" }
%"struct.mojo::internal::StructHeader" = type { i32, i32 }
%"class.performance_manager::mojom::internal::DocumentCoordinationUnit_SetLifecycleState_Params_Data" = type { %"struct.mojo::internal::StructHeader", i32, [4 x i8] }
%"class.performance_manager::mojom::internal::DocumentCoordinationUnit_SetHasNonEmptyBeforeUnload_Params_Data" = type { %"struct.mojo::internal::StructHeader", i8, [7 x i8] }
%"class.performance_manager::mojom::internal::DocumentCoordinationUnit_SetHadFormInteraction_Params_Data" = type { %"struct.mojo::internal::StructHeader" }
%"class.performance_manager::mojom::internal::DocumentCoordinationUnit_SetIsAdFrame_Params_Data" = type { %"struct.mojo::internal::StructHeader", i8, [7 x i8] }
%"class.performance_manager::mojom::internal::DocumentCoordinationUnit_OnNonPersistentNotificationCreated_Params_Data" = type { %"struct.mojo::internal::StructHeader" }
%"class.base::TimeDelta" = type { i64 }
%"class.performance_manager::mojom::internal::DocumentCoordinationUnit_OnFirstContentfulPaint_Params_Data" = type { %"struct.mojo::internal::StructHeader", %"struct.mojo::internal::Pointer" }
%"struct.mojo::internal::Pointer" = type { i64 }
%"class.mojo_base::mojom::internal::TimeDelta_Data" = type { %"struct.mojo::internal::StructHeader", i64 }
%"class.base::OnceCallback" = type { %"class.base::internal::CallbackBase" }
%"class.performance_manager::mojom::internal::DocumentCoordinationUnit_OnWebMemoryMeasurementRequested_Params_Data" = type { %"struct.mojo::internal::StructHeader", i32, [4 x i8] }
%"class.performance_manager::mojom::DocumentCoordinationUnit_OnWebMemoryMeasurementRequested_ForwardToCallback" = type { %"class.mojo::MessageReceiver", %"class.base::OnceCallback" }
%"class.mojo::StructPtr" = type { %"class.std::__1::unique_ptr.32" }
%"class.std::__1::unique_ptr.32" = type { %"class.std::__1::__compressed_pair.33" }
%"class.std::__1::__compressed_pair.33" = type { %"struct.std::__1::__compressed_pair_elem.34" }
%"struct.std::__1::__compressed_pair_elem.34" = type { %"class.performance_manager::mojom::WebMemoryMeasurement"* }
%"class.performance_manager::mojom::WebMemoryMeasurement" = type { %"class.std::__1::vector.35", %"class.mojo::InlinedStructPtr", %"class.mojo::InlinedStructPtr", %"class.mojo::InlinedStructPtr" }
%"class.std::__1::vector.35" = type { %"class.std::__1::__vector_base.36" }
%"class.std::__1::__vector_base.36" = type { %"class.mojo::StructPtr.37"*, %"class.mojo::StructPtr.37"*, %"class.std::__1::__compressed_pair.59" }
%"class.mojo::StructPtr.37" = type { %"class.std::__1::unique_ptr.38" }
%"class.std::__1::unique_ptr.38" = type { %"class.std::__1::__compressed_pair.39" }
%"class.std::__1::__compressed_pair.39" = type { %"struct.std::__1::__compressed_pair_elem.40" }
%"struct.std::__1::__compressed_pair_elem.40" = type { %"class.performance_manager::mojom::WebMemoryBreakdownEntry"* }
%"class.performance_manager::mojom::WebMemoryBreakdownEntry" = type { %"class.mojo::InlinedStructPtr", %"class.std::__1::vector.41" }
%"class.std::__1::vector.41" = type { %"class.std::__1::__vector_base.42" }
%"class.std::__1::__vector_base.42" = type { %"class.mojo::InlinedStructPtr.43"*, %"class.mojo::InlinedStructPtr.43"*, %"class.std::__1::__compressed_pair.51" }
%"class.mojo::InlinedStructPtr.43" = type <{ %"class.performance_manager::mojom::WebMemoryAttribution", i32, [4 x i8] }>
%"class.performance_manager::mojom::WebMemoryAttribution" = type { i32, %"class.absl::optional", %"class.absl::optional", %"class.absl::optional" }
%"class.absl::optional" = type { %"class.absl::optional_internal::optional_data" }
%"class.absl::optional_internal::optional_data" = type { %"class.absl::optional_internal::optional_data_base" }
%"class.absl::optional_internal::optional_data_base" = type { %"class.absl::optional_internal::optional_data_dtor_base" }
%"class.absl::optional_internal::optional_data_dtor_base" = type { i8, %union.anon }
%union.anon = type { %"class.std::__1::basic_string" }
%"class.std::__1::basic_string" = type { %"class.std::__1::__compressed_pair.44" }
%"class.std::__1::__compressed_pair.44" = type { %"struct.std::__1::__compressed_pair_elem.45" }
%"struct.std::__1::__compressed_pair_elem.45" = type { %"struct.std::__1::basic_string<char, std::__1::char_traits<char>, std::__1::allocator<char> >::__rep" }
%"struct.std::__1::basic_string<char, std::__1::char_traits<char>, std::__1::allocator<char> >::__rep" = type { %union.anon.46 }
%union.anon.46 = type { %"struct.std::__1::basic_string<char, std::__1::char_traits<char>, std::__1::allocator<char> >::__long" }
%"struct.std::__1::basic_string<char, std::__1::char_traits<char>, std::__1::allocator<char> >::__long" = type { i8*, i64, i64 }
%"class.std::__1::__compressed_pair.51" = type { %"struct.std::__1::__compressed_pair_elem.52" }
%"struct.std::__1::__compressed_pair_elem.52" = type { %"class.mojo::InlinedStructPtr.43"* }
%"class.std::__1::__compressed_pair.59" = type { %"struct.std::__1::__compressed_pair_elem.60" }
%"struct.std::__1::__compressed_pair_elem.60" = type { %"class.mojo::StructPtr.37"* }
%"class.mojo::InlinedStructPtr" = type <{ %"class.performance_manager::mojom::WebMemoryUsage", i32, [4 x i8] }>
%"class.performance_manager::mojom::WebMemoryUsage" = type { i64 }
%"class.performance_manager::mojom::internal::WebMemoryMeasurement_Data" = type { %"struct.mojo::internal::StructHeader", %"struct.mojo::internal::Pointer.75", %"struct.mojo::internal::Pointer.76", %"struct.mojo::internal::Pointer.76", %"struct.mojo::internal::Pointer.76" }
%"struct.mojo::internal::Pointer.75" = type { i64 }
%"struct.mojo::internal::Pointer.76" = type { i64 }
%"class.performance_manager::mojom::DocumentCoordinationUnit_OnWebMemoryMeasurementRequested_ProxyToResponder" = type { i64, i8, %"class.std::__1::unique_ptr.67" }
%"class.std::__1::unique_ptr.67" = type { %"class.std::__1::__compressed_pair.68" }
%"class.std::__1::__compressed_pair.68" = type { %"struct.std::__1::__compressed_pair_elem.69" }
%"struct.std::__1::__compressed_pair_elem.69" = type { %"class.mojo::MessageReceiverWithStatus"* }
%"class.mojo::MessageReceiverWithStatus" = type { %"class.mojo::MessageReceiver" }
%"class.mojo::internal::MessageFragment.74" = type { %"class.mojo::Message"*, i64 }
%"class.performance_manager::mojom::internal::DocumentCoordinationUnit_OnWebMemoryMeasurementRequested_ResponseParams_Data" = type { %"struct.mojo::internal::StructHeader", %"struct.mojo::internal::Pointer.31" }
%"struct.mojo::internal::Pointer.31" = type { i64 }
%"struct.mojo::internal::MessageHeaderV1" = type { %"struct.mojo::internal::MessageHeader", i64 }
%"struct.mojo::internal::MessageHeader" = type { %"struct.mojo::internal::StructHeader", i32, i32, i32, i32 }
%"class.base::TaskAnnotator::ScopedSetIpcHash" = type { %"class.base::TaskAnnotator::ScopedSetIpcHash"*, i32, i8* }
%"class.performance_manager::mojom::DocumentCoordinationUnitRequestValidator" = type { %"class.mojo::MessageReceiver" }
%"class.performance_manager::mojom::DocumentCoordinationUnitResponseValidator" = type { %"class.mojo::MessageReceiver" }
%"class.performance_manager::mojom::internal::ProcessCoordinationUnit_SetMainThreadTaskLoadIsLow_Params_Data" = type { %"struct.mojo::internal::StructHeader", i8, [7 x i8] }
%"class.mojo::StructPtr.78" = type { %"class.std::__1::unique_ptr.79" }
%"class.std::__1::unique_ptr.79" = type { %"class.std::__1::__compressed_pair.80" }
%"class.std::__1::__compressed_pair.80" = type { %"struct.std::__1::__compressed_pair_elem.81" }
%"struct.std::__1::__compressed_pair_elem.81" = type { %"class.performance_manager::mojom::V8ContextDescription"* }
%"class.performance_manager::mojom::V8ContextDescription" = type { %"class.util::TokenType", i32, %"class.absl::optional", %"class.absl::optional.82" }
%"class.util::TokenType" = type { %"class.base::StrongAlias" }
%"class.base::StrongAlias" = type { %"class.base::UnguessableToken" }
%"class.base::UnguessableToken" = type { %"class.base::Token" }
%"class.base::Token" = type { i64, i64 }
%"class.absl::optional.82" = type { %"class.absl::optional_internal::optional_data.83" }
%"class.absl::optional_internal::optional_data.83" = type { %"class.absl::optional_internal::optional_data_base.84" }
%"class.absl::optional_internal::optional_data_base.84" = type { %"class.absl::optional_internal::optional_data_dtor_base.85" }
%"class.absl::optional_internal::optional_data_dtor_base.85" = type { i8, [7 x i8], %union.anon.86 }
%union.anon.86 = type { %"class.blink::MultiToken" }
%"class.blink::MultiToken" = type <{ %"class.base::UnguessableToken", i32, [4 x i8] }>
%"class.mojo::InlinedStructPtr.90" = type <{ %"class.performance_manager::mojom::IframeAttributionData", i32, [4 x i8] }>
%"class.performance_manager::mojom::IframeAttributionData" = type { %"class.absl::optional", %"class.absl::optional" }
%"class.mojo::internal::MessageFragment.93" = type { %"class.mojo::Message"*, i64 }
%"class.mojo::internal::MessageFragment.106" = type { %"class.mojo::Message"*, i64 }
%"class.performance_manager::mojom::internal::ProcessCoordinationUnit_OnV8ContextCreated_Params_Data" = type { %"struct.mojo::internal::StructHeader", %"struct.mojo::internal::Pointer.94", %"struct.mojo::internal::Pointer.95" }
%"struct.mojo::internal::Pointer.94" = type { i64 }
%"struct.mojo::internal::Pointer.95" = type { i64 }
%"class.performance_manager::mojom::internal::V8ContextDescription_Data" = type { %"struct.mojo::internal::StructHeader", %"struct.mojo::internal::Pointer.96", i32, [4 x i8], %"struct.mojo::internal::Pointer.97", %"class.blink::mojom::internal::ExecutionContextToken_Data" }
%"struct.mojo::internal::Pointer.96" = type { i64 }
%"struct.mojo::internal::Pointer.97" = type { i64 }
%"class.blink::mojom::internal::ExecutionContextToken_Data" = type { i32, i32, %"union.blink::mojom::internal::ExecutionContextToken_Data::Union_" }
%"union.blink::mojom::internal::ExecutionContextToken_Data::Union_" = type { %"struct.mojo::internal::Pointer.98" }
%"struct.mojo::internal::Pointer.98" = type { i64 }
%"class.performance_manager::mojom::internal::IframeAttributionData_Data" = type { %"struct.mojo::internal::StructHeader", %"struct.mojo::internal::Pointer.97", %"struct.mojo::internal::Pointer.97" }
%"class.performance_manager::mojom::internal::ProcessCoordinationUnit_OnV8ContextDetached_Params_Data" = type { %"struct.mojo::internal::StructHeader", %"struct.mojo::internal::Pointer.96" }
%"class.blink::mojom::internal::V8ContextToken_Data" = type { %"struct.mojo::internal::StructHeader", %"struct.mojo::internal::Pointer.109" }
%"struct.mojo::internal::Pointer.109" = type { i64 }
%"class.mojo_base::mojom::internal::UnguessableToken_Data" = type { %"struct.mojo::internal::StructHeader", i64, i64 }
%"class.performance_manager::mojom::internal::ProcessCoordinationUnit_OnV8ContextDestroyed_Params_Data" = type { %"struct.mojo::internal::StructHeader", %"struct.mojo::internal::Pointer.96" }
%"class.util::TokenType.111" = type { %"class.base::StrongAlias.112" }
%"class.base::StrongAlias.112" = type { %"class.base::UnguessableToken" }
%"class.util::TokenType.113" = type { %"class.base::StrongAlias.114" }
%"class.base::StrongAlias.114" = type { %"class.base::UnguessableToken" }
%"class.performance_manager::mojom::internal::ProcessCoordinationUnit_OnRemoteIframeAttached_Params_Data" = type { %"struct.mojo::internal::StructHeader", %"struct.mojo::internal::Pointer.98", %"struct.mojo::internal::Pointer.117", %"struct.mojo::internal::Pointer.95" }
%"struct.mojo::internal::Pointer.117" = type { i64 }
%"class.blink::mojom::internal::LocalFrameToken_Data" = type { %"struct.mojo::internal::StructHeader", %"struct.mojo::internal::Pointer.109" }
%"class.blink::mojom::internal::RemoteFrameToken_Data" = type { %"struct.mojo::internal::StructHeader", %"struct.mojo::internal::Pointer.109" }
%"class.performance_manager::mojom::internal::ProcessCoordinationUnit_OnRemoteIframeDetached_Params_Data" = type { %"struct.mojo::internal::StructHeader", %"struct.mojo::internal::Pointer.98", %"struct.mojo::internal::Pointer.117" }
%"class.mojo::internal::MessageFragment.121" = type { %"class.mojo::Message"*, i64 }
%"class.performance_manager::mojom::internal::ProcessCoordinationUnit_FireBackgroundTracingTrigger_Params_Data" = type { %"struct.mojo::internal::StructHeader", %"struct.mojo::internal::Pointer.97" }
%"class.mojo::internal::Array_Data" = type { %"struct.mojo::internal::ArrayHeader" }
%"struct.mojo::internal::ArrayHeader" = type { i32, i32 }
%"struct.std::__1::basic_string<char, std::__1::char_traits<char>, std::__1::allocator<char> >::__short" = type { [23 x i8], %struct.anon }
%struct.anon = type { i8 }
%"class.performance_manager::mojom::ProcessCoordinationUnitRequestValidator" = type { %"class.mojo::MessageReceiver" }
%"class.mojo::internal::MessageFragment.134" = type { %"class.mojo::Message"*, i64 }
%"class.mojo::internal::ContainerValidateParams" = type { i32, i8, %"class.mojo::internal::ContainerValidateParams"*, %"class.mojo::internal::ContainerValidateParams"*, i1 (i32, %"class.mojo::internal::ValidationContext"*)* }
%"class.mojo::internal::Array_Data.132" = type { %"struct.mojo::internal::ArrayHeader" }
%"class.performance_manager::mojom::internal::WebMemoryBreakdownEntry_Data" = type { %"struct.mojo::internal::StructHeader", %"struct.mojo::internal::Pointer.76", %"struct.mojo::internal::Pointer.136" }
%"struct.mojo::internal::Pointer.136" = type { i64 }
%"class.performance_manager::mojom::internal::WebMemoryUsage_Data" = type { %"struct.mojo::internal::StructHeader", i64 }
%"class.mojo::internal::MessageFragment.140" = type { %"class.mojo::Message"*, i64 }
%"class.mojo::internal::Array_Data.138" = type { %"struct.mojo::internal::ArrayHeader" }
%"class.performance_manager::mojom::internal::WebMemoryAttribution_Data" = type { %"struct.mojo::internal::StructHeader", i32, [4 x i8], %"struct.mojo::internal::Pointer.97", %"struct.mojo::internal::Pointer.97", %"struct.mojo::internal::Pointer.97" }
%"class.mojo::internal::MessageFragment.142" = type { %"class.mojo::Message"*, i64 }
%"class.util::TokenType.143" = type { %"class.base::StrongAlias.144" }
%"class.base::StrongAlias.144" = type { %"class.base::UnguessableToken" }
%"class.util::TokenType.146" = type { %"class.base::StrongAlias.147" }
%"class.base::StrongAlias.147" = type { %"class.base::UnguessableToken" }
%"class.util::TokenType.149" = type { %"class.base::StrongAlias.150" }
%"class.base::StrongAlias.150" = type { %"class.base::UnguessableToken" }
%"class.util::TokenType.152" = type { %"class.base::StrongAlias.153" }
%"class.base::StrongAlias.153" = type { %"class.base::UnguessableToken" }
%"class.util::TokenType.155" = type { %"class.base::StrongAlias.156" }
%"class.base::StrongAlias.156" = type { %"class.base::UnguessableToken" }
%"class.util::TokenType.158" = type { %"class.base::StrongAlias.159" }
%"class.base::StrongAlias.159" = type { %"class.base::UnguessableToken" }
%"class.util::TokenType.161" = type { %"class.base::StrongAlias.162" }
%"class.base::StrongAlias.162" = type { %"class.base::UnguessableToken" }
%"class.blink::mojom::internal::DedicatedWorkerToken_Data" = type { %"struct.mojo::internal::StructHeader", %"struct.mojo::internal::Pointer.109" }
%"class.blink::mojom::internal::ServiceWorkerToken_Data" = type { %"struct.mojo::internal::StructHeader", %"struct.mojo::internal::Pointer.109" }
%"class.blink::mojom::internal::SharedWorkerToken_Data" = type { %"struct.mojo::internal::StructHeader", %"struct.mojo::internal::Pointer.109" }
%"class.blink::mojom::internal::AnimationWorkletToken_Data" = type { %"struct.mojo::internal::StructHeader", %"struct.mojo::internal::Pointer.109" }
%"class.blink::mojom::internal::AudioWorkletToken_Data" = type { %"struct.mojo::internal::StructHeader", %"struct.mojo::internal::Pointer.109" }
%"class.blink::mojom::internal::LayoutWorkletToken_Data" = type { %"struct.mojo::internal::StructHeader", %"struct.mojo::internal::Pointer.109" }
%"class.blink::mojom::internal::PaintWorkletToken_Data" = type { %"struct.mojo::internal::StructHeader", %"struct.mojo::internal::Pointer.109" }

$_ZN19performance_manager5mojom74DocumentCoordinationUnit_OnWebMemoryMeasurementRequested_ForwardToCallbackD2Ev = comdat any

$_ZN19performance_manager5mojom74DocumentCoordinationUnit_OnWebMemoryMeasurementRequested_ForwardToCallbackD0Ev = comdat any

$_ZN19performance_manager5mojom24DocumentCoordinationUnitD2Ev = comdat any

$_ZN19performance_manager5mojom29DocumentCoordinationUnitProxyD0Ev = comdat any

$_ZN19performance_manager5mojom40DocumentCoordinationUnitRequestValidatorD0Ev = comdat any

$_ZN19performance_manager5mojom41DocumentCoordinationUnitResponseValidatorD0Ev = comdat any

$_ZN19performance_manager5mojom28ProcessCoordinationUnitProxyD0Ev = comdat any

$_ZN4mojo15MessageReceiverD2Ev = comdat any

$_ZN19performance_manager5mojom39ProcessCoordinationUnitRequestValidatorD0Ev = comdat any

$_ZN4base8internal7InvokerINS0_9BindStateIMN19performance_manager5mojom73DocumentCoordinationUnit_OnWebMemoryMeasurementRequested_ProxyToResponderEFvN4mojo9StructPtrINS4_20WebMemoryMeasurementEEEEJNSt3__110unique_ptrIS5_NSC_14default_deleteIS5_EEEEEEEFvS9_EE7RunOnceEPNS0_13BindStateBaseEOS9_ = comdat any

$_ZN4base8internal9BindStateIMN19performance_manager5mojom73DocumentCoordinationUnit_OnWebMemoryMeasurementRequested_ProxyToResponderEFvN4mojo9StructPtrINS3_20WebMemoryMeasurementEEEEJNSt3__110unique_ptrIS4_NSB_14default_deleteIS4_EEEEEE7DestroyEPKNS0_13BindStateBaseE = comdat any

$_ZN19performance_manager5mojom23ProcessCoordinationUnitD2Ev = comdat any

$_ZN4mojo8internal10SerializerIN19performance_manager5mojom28WebMemoryMeasurementDataViewENS_9StructPtrINS3_20WebMemoryMeasurementEEEE9SerializeERS7_RNS0_15MessageFragmentINS3_8internal25WebMemoryMeasurement_DataEEE = comdat any

$_ZN4mojo8internal23ContainerValidateParamsD2Ev = comdat any

$_ZN4mojo8internal10SerializerIN19performance_manager5mojom31WebMemoryBreakdownEntryDataViewEKNS_9StructPtrINS3_23WebMemoryBreakdownEntryEEEE9SerializeERS8_RNS0_15MessageFragmentINS3_8internal28WebMemoryBreakdownEntry_DataEEE = comdat any

$_ZN4mojo8internal10SerializerIN19performance_manager5mojom28WebMemoryAttributionDataViewEKNS_16InlinedStructPtrINS3_20WebMemoryAttributionEEEE9SerializeERS8_RNS0_15MessageFragmentINS3_8internal25WebMemoryAttribution_DataEEE = comdat any

$_ZN4mojo8internal10SerializerIN19performance_manager5mojom28V8ContextDescriptionDataViewENS_9StructPtrINS3_20V8ContextDescriptionEEEE9SerializeERS7_RNS0_15MessageFragmentINS3_8internal25V8ContextDescription_DataEEE = comdat any

$_ZN4mojo8internal10SerializerIN5blink5mojom29ExecutionContextTokenDataViewEKNS2_10MultiTokenIN4util9TokenTypeINS2_25LocalFrameTokenTypeMarkerEEENS7_INS2_30DedicatedWorkerTokenTypeMarkerEEEJNS7_INS2_28ServiceWorkerTokenTypeMarkerEEENS7_INS2_27SharedWorkerTokenTypeMarkerEEENS7_INS2_31AnimationWorkletTokenTypeMarkerEEENS7_INS2_27AudioWorkletTokenTypeMarkerEEENS7_INS2_28LayoutWorkletTokenTypeMarkerEEENS7_INS2_27PaintWorkletTokenTypeMarkerEEEEEEE9SerializeERSP_RNS0_15MessageFragmentINS3_8internal26ExecutionContextToken_DataEEEb = comdat any

$_ZN4mojo8internal10SerializerIN19performance_manager5mojom29IframeAttributionDataDataViewENS_16InlinedStructPtrINS3_21IframeAttributionDataEEEE9SerializeERS7_RNS0_15MessageFragmentINS3_8internal26IframeAttributionData_DataEEE = comdat any

$_ZN4mojo8internal10SerializerINS_14StringDataViewEKNSt3__112basic_stringIcNS3_11char_traitsIcEENS3_9allocatorIcEEEEE9SerializeERSA_RNS0_15MessageFragmentINS0_10Array_DataIcEEEE = comdat any

$_ZN4mojo16InlinedStructPtrIN19performance_manager5mojom21IframeAttributionDataEE4SwapEPS4_ = comdat any

$_ZN19performance_manager5mojom21IframeAttributionDataaSERKS1_ = comdat any

@_ZN19performance_manager5mojom24DocumentCoordinationUnit5Name_E = hidden constant [51 x i8] c"performance_manager.mojom.DocumentCoordinationUnit\00", align 16
@_ZTVN19performance_manager5mojom29DocumentCoordinationUnitProxyE = hidden unnamed_addr constant { [12 x i8*] } { [12 x i8*] [i8* null, i8* null, i8* bitcast (void (%"class.performance_manager::mojom::DocumentCoordinationUnit"*)* @_ZN19performance_manager5mojom24DocumentCoordinationUnitD2Ev to i8*), i8* bitcast (void (%"class.performance_manager::mojom::DocumentCoordinationUnitProxy"*)* @_ZN19performance_manager5mojom29DocumentCoordinationUnitProxyD0Ev to i8*), i8* bitcast (void (%"class.performance_manager::mojom::DocumentCoordinationUnitProxy"*)* @_ZN19performance_manager5mojom29DocumentCoordinationUnitProxy20SetNetworkAlmostIdleEv to i8*), i8* bitcast (void (%"class.performance_manager::mojom::DocumentCoordinationUnitProxy"*, i32)* @_ZN19performance_manager5mojom29DocumentCoordinationUnitProxy17SetLifecycleStateENS0_14LifecycleStateE to i8*), i8* bitcast (void (%"class.performance_manager::mojom::DocumentCoordinationUnitProxy"*, i1)* @_ZN19performance_manager5mojom29DocumentCoordinationUnitProxy26SetHasNonEmptyBeforeUnloadEb to i8*), i8* bitcast (void (%"class.performance_manager::mojom::DocumentCoordinationUnitProxy"*)* @_ZN19performance_manager5mojom29DocumentCoordinationUnitProxy21SetHadFormInteractionEv to i8*), i8* bitcast (void (%"class.performance_manager::mojom::DocumentCoordinationUnitProxy"*, i1)* @_ZN19performance_manager5mojom29DocumentCoordinationUnitProxy12SetIsAdFrameEb to i8*), i8* bitcast (void (%"class.performance_manager::mojom::DocumentCoordinationUnitProxy"*)* @_ZN19performance_manager5mojom29DocumentCoordinationUnitProxy34OnNonPersistentNotificationCreatedEv to i8*), i8* bitcast (void (%"class.performance_manager::mojom::DocumentCoordinationUnitProxy"*, i64)* @_ZN19performance_manager5mojom29DocumentCoordinationUnitProxy22OnFirstContentfulPaintEN4base9TimeDeltaE to i8*), i8* bitcast (void (%"class.performance_manager::mojom::DocumentCoordinationUnitProxy"*, i32, %"class.base::OnceCallback"*)* @_ZN19performance_manager5mojom29DocumentCoordinationUnitProxy31OnWebMemoryMeasurementRequestedENS0_25WebMemoryMeasurement_ModeEN4base12OnceCallbackIFvN4mojo9StructPtrINS0_20WebMemoryMeasurementEEEEEE to i8*)] }, align 8
@_ZN19performance_manager5mojomL39kDocumentCoordinationUnitValidationInfoE = internal constant [8 x %"struct.std::__1::pair"] [%"struct.std::__1::pair" { i32 482479801, %"struct.mojo::internal::GenericValidationInfo" { i1 (i8*, %"class.mojo::internal::ValidationContext"*)* @_ZN19performance_manager5mojom8internal57DocumentCoordinationUnit_SetNetworkAlmostIdle_Params_Data8ValidateEPKvPN4mojo8internal17ValidationContextE, i1 (i8*, %"class.mojo::internal::ValidationContext"*)* null } }, %"struct.std::__1::pair" { i32 593466731, %"struct.mojo::internal::GenericValidationInfo" { i1 (i8*, %"class.mojo::internal::ValidationContext"*)* @_ZN19performance_manager5mojom8internal54DocumentCoordinationUnit_SetLifecycleState_Params_Data8ValidateEPKvPN4mojo8internal17ValidationContextE, i1 (i8*, %"class.mojo::internal::ValidationContext"*)* null } }, %"struct.std::__1::pair" { i32 1870414949, %"struct.mojo::internal::GenericValidationInfo" { i1 (i8*, %"class.mojo::internal::ValidationContext"*)* @_ZN19performance_manager5mojom8internal63DocumentCoordinationUnit_SetHasNonEmptyBeforeUnload_Params_Data8ValidateEPKvPN4mojo8internal17ValidationContextE, i1 (i8*, %"class.mojo::internal::ValidationContext"*)* null } }, %"struct.std::__1::pair" { i32 1918537285, %"struct.mojo::internal::GenericValidationInfo" { i1 (i8*, %"class.mojo::internal::ValidationContext"*)* @_ZN19performance_manager5mojom8internal58DocumentCoordinationUnit_SetHadFormInteraction_Params_Data8ValidateEPKvPN4mojo8internal17ValidationContextE, i1 (i8*, %"class.mojo::internal::ValidationContext"*)* null } }, %"struct.std::__1::pair" { i32 884549766, %"struct.mojo::internal::GenericValidationInfo" { i1 (i8*, %"class.mojo::internal::ValidationContext"*)* @_ZN19performance_manager5mojom8internal49DocumentCoordinationUnit_SetIsAdFrame_Params_Data8ValidateEPKvPN4mojo8internal17ValidationContextE, i1 (i8*, %"class.mojo::internal::ValidationContext"*)* null } }, %"struct.std::__1::pair" { i32 1057960516, %"struct.mojo::internal::GenericValidationInfo" { i1 (i8*, %"class.mojo::internal::ValidationContext"*)* @_ZN19performance_manager5mojom8internal71DocumentCoordinationUnit_OnNonPersistentNotificationCreated_Params_Data8ValidateEPKvPN4mojo8internal17ValidationContextE, i1 (i8*, %"class.mojo::internal::ValidationContext"*)* null } }, %"struct.std::__1::pair" { i32 580549354, %"struct.mojo::internal::GenericValidationInfo" { i1 (i8*, %"class.mojo::internal::ValidationContext"*)* @_ZN19performance_manager5mojom8internal59DocumentCoordinationUnit_OnFirstContentfulPaint_Params_Data8ValidateEPKvPN4mojo8internal17ValidationContextE, i1 (i8*, %"class.mojo::internal::ValidationContext"*)* null } }, %"struct.std::__1::pair" { i32 1674514099, %"struct.mojo::internal::GenericValidationInfo" { i1 (i8*, %"class.mojo::internal::ValidationContext"*)* @_ZN19performance_manager5mojom8internal68DocumentCoordinationUnit_OnWebMemoryMeasurementRequested_Params_Data8ValidateEPKvPN4mojo8internal17ValidationContextE, i1 (i8*, %"class.mojo::internal::ValidationContext"*)* @_ZN19performance_manager5mojom8internal76DocumentCoordinationUnit_OnWebMemoryMeasurementRequested_ResponseParams_Data8ValidateEPKvPN4mojo8internal17ValidationContextE } }], align 16
@_ZN19performance_manager5mojom23ProcessCoordinationUnit5Name_E = hidden constant [50 x i8] c"performance_manager.mojom.ProcessCoordinationUnit\00", align 16
@_ZTVN19performance_manager5mojom28ProcessCoordinationUnitProxyE = hidden unnamed_addr constant { [11 x i8*] } { [11 x i8*] [i8* null, i8* null, i8* bitcast (void (%"class.performance_manager::mojom::ProcessCoordinationUnit"*)* @_ZN19performance_manager5mojom23ProcessCoordinationUnitD2Ev to i8*), i8* bitcast (void (%"class.performance_manager::mojom::ProcessCoordinationUnitProxy"*)* @_ZN19performance_manager5mojom28ProcessCoordinationUnitProxyD0Ev to i8*), i8* bitcast (void (%"class.performance_manager::mojom::ProcessCoordinationUnitProxy"*, i1)* @_ZN19performance_manager5mojom28ProcessCoordinationUnitProxy26SetMainThreadTaskLoadIsLowEb to i8*), i8* bitcast (void (%"class.performance_manager::mojom::ProcessCoordinationUnitProxy"*, %"class.mojo::StructPtr.78"*, %"class.mojo::InlinedStructPtr.90"*)* @_ZN19performance_manager5mojom28ProcessCoordinationUnitProxy18OnV8ContextCreatedEN4mojo9StructPtrINS0_20V8ContextDescriptionEEENS2_16InlinedStructPtrINS0_21IframeAttributionDataEEE to i8*), i8* bitcast (void (%"class.performance_manager::mojom::ProcessCoordinationUnitProxy"*, %"class.util::TokenType"*)* @_ZN19performance_manager5mojom28ProcessCoordinationUnitProxy19OnV8ContextDetachedERKN4util9TokenTypeIN5blink24V8ContextTokenTypeMarkerEEE to i8*), i8* bitcast (void (%"class.performance_manager::mojom::ProcessCoordinationUnitProxy"*, %"class.util::TokenType"*)* @_ZN19performance_manager5mojom28ProcessCoordinationUnitProxy20OnV8ContextDestroyedERKN4util9TokenTypeIN5blink24V8ContextTokenTypeMarkerEEE to i8*), i8* bitcast (void (%"class.performance_manager::mojom::ProcessCoordinationUnitProxy"*, %"class.util::TokenType.111"*, %"class.util::TokenType.113"*, %"class.mojo::InlinedStructPtr.90"*)* @_ZN19performance_manager5mojom28ProcessCoordinationUnitProxy22OnRemoteIframeAttachedERKN4util9TokenTypeIN5blink25LocalFrameTokenTypeMarkerEEERKNS3_INS4_26RemoteFrameTokenTypeMarkerEEEN4mojo16InlinedStructPtrINS0_21IframeAttributionDataEEE to i8*), i8* bitcast (void (%"class.performance_manager::mojom::ProcessCoordinationUnitProxy"*, %"class.util::TokenType.111"*, %"class.util::TokenType.113"*)* @_ZN19performance_manager5mojom28ProcessCoordinationUnitProxy22OnRemoteIframeDetachedERKN4util9TokenTypeIN5blink25LocalFrameTokenTypeMarkerEEERKNS3_INS4_26RemoteFrameTokenTypeMarkerEEE to i8*), i8* bitcast (void (%"class.performance_manager::mojom::ProcessCoordinationUnitProxy"*, %"class.std::__1::basic_string"*)* @_ZN19performance_manager5mojom28ProcessCoordinationUnitProxy28FireBackgroundTracingTriggerERKNSt3__112basic_stringIcNS2_11char_traitsIcEENS2_9allocatorIcEEEE to i8*)] }, align 8
@_ZN19performance_manager5mojomL38kProcessCoordinationUnitValidationInfoE = internal constant [7 x %"struct.std::__1::pair"] [%"struct.std::__1::pair" { i32 1709431770, %"struct.mojo::internal::GenericValidationInfo" { i1 (i8*, %"class.mojo::internal::ValidationContext"*)* @_ZN19performance_manager5mojom8internal62ProcessCoordinationUnit_SetMainThreadTaskLoadIsLow_Params_Data8ValidateEPKvPN4mojo8internal17ValidationContextE, i1 (i8*, %"class.mojo::internal::ValidationContext"*)* null } }, %"struct.std::__1::pair" { i32 1387325631, %"struct.mojo::internal::GenericValidationInfo" { i1 (i8*, %"class.mojo::internal::ValidationContext"*)* @_ZN19performance_manager5mojom8internal54ProcessCoordinationUnit_OnV8ContextCreated_Params_Data8ValidateEPKvPN4mojo8internal17ValidationContextE, i1 (i8*, %"class.mojo::internal::ValidationContext"*)* null } }, %"struct.std::__1::pair" { i32 1549428483, %"struct.mojo::internal::GenericValidationInfo" { i1 (i8*, %"class.mojo::internal::ValidationContext"*)* @_ZN19performance_manager5mojom8internal55ProcessCoordinationUnit_OnV8ContextDetached_Params_Data8ValidateEPKvPN4mojo8internal17ValidationContextE, i1 (i8*, %"class.mojo::internal::ValidationContext"*)* null } }, %"struct.std::__1::pair" { i32 84862611, %"struct.mojo::internal::GenericValidationInfo" { i1 (i8*, %"class.mojo::internal::ValidationContext"*)* @_ZN19performance_manager5mojom8internal56ProcessCoordinationUnit_OnV8ContextDestroyed_Params_Data8ValidateEPKvPN4mojo8internal17ValidationContextE, i1 (i8*, %"class.mojo::internal::ValidationContext"*)* null } }, %"struct.std::__1::pair" { i32 2118358163, %"struct.mojo::internal::GenericValidationInfo" { i1 (i8*, %"class.mojo::internal::ValidationContext"*)* @_ZN19performance_manager5mojom8internal58ProcessCoordinationUnit_OnRemoteIframeAttached_Params_Data8ValidateEPKvPN4mojo8internal17ValidationContextE, i1 (i8*, %"class.mojo::internal::ValidationContext"*)* null } }, %"struct.std::__1::pair" { i32 2094988133, %"struct.mojo::internal::GenericValidationInfo" { i1 (i8*, %"class.mojo::internal::ValidationContext"*)* @_ZN19performance_manager5mojom8internal58ProcessCoordinationUnit_OnRemoteIframeDetached_Params_Data8ValidateEPKvPN4mojo8internal17ValidationContextE, i1 (i8*, %"class.mojo::internal::ValidationContext"*)* null } }, %"struct.std::__1::pair" { i32 848143133, %"struct.mojo::internal::GenericValidationInfo" { i1 (i8*, %"class.mojo::internal::ValidationContext"*)* @_ZN19performance_manager5mojom8internal64ProcessCoordinationUnit_FireBackgroundTracingTrigger_Params_Data8ValidateEPKvPN4mojo8internal17ValidationContextE, i1 (i8*, %"class.mojo::internal::ValidationContext"*)* null } }], align 16
@_ZTVN19performance_manager5mojom74DocumentCoordinationUnit_OnWebMemoryMeasurementRequested_ForwardToCallbackE = hidden unnamed_addr constant { [6 x i8*] } { [6 x i8*] [i8* null, i8* null, i8* bitcast (void (%"class.performance_manager::mojom::DocumentCoordinationUnit_OnWebMemoryMeasurementRequested_ForwardToCallback"*)* @_ZN19performance_manager5mojom74DocumentCoordinationUnit_OnWebMemoryMeasurementRequested_ForwardToCallbackD2Ev to i8*), i8* bitcast (void (%"class.performance_manager::mojom::DocumentCoordinationUnit_OnWebMemoryMeasurementRequested_ForwardToCallback"*)* @_ZN19performance_manager5mojom74DocumentCoordinationUnit_OnWebMemoryMeasurementRequested_ForwardToCallbackD0Ev to i8*), i8* bitcast (i1 (%"class.mojo::MessageReceiver"*)* @_ZN4mojo15MessageReceiver25PrefersSerializedMessagesEv to i8*), i8* bitcast (i1 (%"class.performance_manager::mojom::DocumentCoordinationUnit_OnWebMemoryMeasurementRequested_ForwardToCallback"*, %"class.mojo::Message"*)* @_ZN19performance_manager5mojom74DocumentCoordinationUnit_OnWebMemoryMeasurementRequested_ForwardToCallback6AcceptEPN4mojo7MessageE to i8*)] }, align 8
@_ZTVN19performance_manager5mojom40DocumentCoordinationUnitRequestValidatorE = hidden unnamed_addr constant { [6 x i8*] } { [6 x i8*] [i8* null, i8* null, i8* bitcast (void (%"class.mojo::MessageReceiver"*)* @_ZN4mojo15MessageReceiverD2Ev to i8*), i8* bitcast (void (%"class.performance_manager::mojom::DocumentCoordinationUnitRequestValidator"*)* @_ZN19performance_manager5mojom40DocumentCoordinationUnitRequestValidatorD0Ev to i8*), i8* bitcast (i1 (%"class.mojo::MessageReceiver"*)* @_ZN4mojo15MessageReceiver25PrefersSerializedMessagesEv to i8*), i8* bitcast (i1 (%"class.performance_manager::mojom::DocumentCoordinationUnitRequestValidator"*, %"class.mojo::Message"*)* @_ZN19performance_manager5mojom40DocumentCoordinationUnitRequestValidator6AcceptEPN4mojo7MessageE to i8*)] }, align 8
@_ZTVN19performance_manager5mojom41DocumentCoordinationUnitResponseValidatorE = hidden unnamed_addr constant { [6 x i8*] } { [6 x i8*] [i8* null, i8* null, i8* bitcast (void (%"class.mojo::MessageReceiver"*)* @_ZN4mojo15MessageReceiverD2Ev to i8*), i8* bitcast (void (%"class.performance_manager::mojom::DocumentCoordinationUnitResponseValidator"*)* @_ZN19performance_manager5mojom41DocumentCoordinationUnitResponseValidatorD0Ev to i8*), i8* bitcast (i1 (%"class.mojo::MessageReceiver"*)* @_ZN4mojo15MessageReceiver25PrefersSerializedMessagesEv to i8*), i8* bitcast (i1 (%"class.performance_manager::mojom::DocumentCoordinationUnitResponseValidator"*, %"class.mojo::Message"*)* @_ZN19performance_manager5mojom41DocumentCoordinationUnitResponseValidator6AcceptEPN4mojo7MessageE to i8*)] }, align 8
@_ZTVN19performance_manager5mojom39ProcessCoordinationUnitRequestValidatorE = hidden unnamed_addr constant { [6 x i8*] } { [6 x i8*] [i8* null, i8* null, i8* bitcast (void (%"class.mojo::MessageReceiver"*)* @_ZN4mojo15MessageReceiverD2Ev to i8*), i8* bitcast (void (%"class.performance_manager::mojom::ProcessCoordinationUnitRequestValidator"*)* @_ZN19performance_manager5mojom39ProcessCoordinationUnitRequestValidatorD0Ev to i8*), i8* bitcast (i1 (%"class.mojo::MessageReceiver"*)* @_ZN4mojo15MessageReceiver25PrefersSerializedMessagesEv to i8*), i8* bitcast (i1 (%"class.performance_manager::mojom::ProcessCoordinationUnitRequestValidator"*, %"class.mojo::Message"*)* @_ZN19performance_manager5mojom39ProcessCoordinationUnitRequestValidator6AcceptEPN4mojo7MessageE to i8*)] }, align 8

@_ZN19performance_manager5mojom29DocumentCoordinationUnitProxyC1EPN4mojo28MessageReceiverWithResponderE = hidden unnamed_addr alias void (%"class.performance_manager::mojom::DocumentCoordinationUnitProxy"*, %"class.mojo::MessageReceiverWithResponder"*), void (%"class.performance_manager::mojom::DocumentCoordinationUnitProxy"*, %"class.mojo::MessageReceiverWithResponder"*)* @_ZN19performance_manager5mojom29DocumentCoordinationUnitProxyC2EPN4mojo28MessageReceiverWithResponderE
@_ZN19performance_manager5mojom28ProcessCoordinationUnitProxyC1EPN4mojo28MessageReceiverWithResponderE = hidden unnamed_addr alias void (%"class.performance_manager::mojom::ProcessCoordinationUnitProxy"*, %"class.mojo::MessageReceiverWithResponder"*), void (%"class.performance_manager::mojom::ProcessCoordinationUnitProxy"*, %"class.mojo::MessageReceiverWithResponder"*)* @_ZN19performance_manager5mojom28ProcessCoordinationUnitProxyC2EPN4mojo28MessageReceiverWithResponderE

; Function Attrs: nofree norecurse nounwind ssp uwtable writeonly
define hidden void @_ZN19performance_manager5mojom29DocumentCoordinationUnitProxyC2EPN4mojo28MessageReceiverWithResponderE(%"class.performance_manager::mojom::DocumentCoordinationUnitProxy"* nocapture, %"class.mojo::MessageReceiverWithResponder"*) unnamed_addr #0 align 2 {
  %3 = getelementptr inbounds %"class.performance_manager::mojom::DocumentCoordinationUnitProxy", %"class.performance_manager::mojom::DocumentCoordinationUnitProxy"* %0, i64 0, i32 0, i32 0
  store i32 (...)** bitcast (i8** getelementptr inbounds ({ [12 x i8*] }, { [12 x i8*] }* @_ZTVN19performance_manager5mojom29DocumentCoordinationUnitProxyE, i64 0, inrange i32 0, i64 2) to i32 (...)**), i32 (...)*** %3, align 8
  %4 = getelementptr inbounds %"class.performance_manager::mojom::DocumentCoordinationUnitProxy", %"class.performance_manager::mojom::DocumentCoordinationUnitProxy"* %0, i64 0, i32 1
  store %"class.mojo::MessageReceiverWithResponder"* %1, %"class.mojo::MessageReceiverWithResponder"** %4, align 8
  ret void
}

; Function Attrs: nounwind ssp uwtable
define hidden void @_ZN19performance_manager5mojom29DocumentCoordinationUnitProxy20SetNetworkAlmostIdleEv(%"class.performance_manager::mojom::DocumentCoordinationUnitProxy"* nocapture readonly) unnamed_addr #1 align 2 {
  %2 = alloca %"class.mojo::Message", align 8
  %3 = bitcast %"class.mojo::Message"* %2 to i8*
  call void @llvm.lifetime.start.p0i8(i64 120, i8* nonnull %3) #9
  call void @llvm.memset.p0i8.i64(i8* nonnull align 8 %3, i8 -86, i64 120, i1 false)
  call void @_ZN4mojo7MessageC1EjjmmPNSt3__16vectorINS_16ScopedHandleBaseINS_6HandleEEENS1_9allocatorIS5_EEEE(%"class.mojo::Message"* nonnull %2, i32 482479801, i32 0, i64 0, i64 0, %"class.std::__1::vector"* null) #9
  %4 = getelementptr inbounds %"class.mojo::Message", %"class.mojo::Message"* %2, i64 0, i32 1
  %5 = call i64 @_ZN4mojo8internal6Buffer8AllocateEm(%"class.mojo::internal::Buffer"* %4, i64 8) #9
  %6 = getelementptr inbounds %"class.mojo::Message", %"class.mojo::Message"* %2, i64 0, i32 1, i32 2
  %7 = load i8*, i8** %6, align 8
  %8 = getelementptr inbounds i8, i8* %7, i64 %5
  %9 = bitcast i8* %8 to %"class.performance_manager::mojom::internal::DocumentCoordinationUnit_SetNetworkAlmostIdle_Params_Data"*
  call void @_ZN19performance_manager5mojom8internal57DocumentCoordinationUnit_SetNetworkAlmostIdle_Params_DataC1Ev(%"class.performance_manager::mojom::internal::DocumentCoordinationUnit_SetNetworkAlmostIdle_Params_Data"* %9) #9
  %10 = getelementptr inbounds %"class.performance_manager::mojom::DocumentCoordinationUnitProxy", %"class.performance_manager::mojom::DocumentCoordinationUnitProxy"* %0, i64 0, i32 1
  %11 = bitcast %"class.mojo::MessageReceiverWithResponder"** %10 to %"class.mojo::MessageReceiver"**
  %12 = load %"class.mojo::MessageReceiver"*, %"class.mojo::MessageReceiver"** %11, align 8
  %13 = bitcast %"class.mojo::MessageReceiver"* %12 to i1 (%"class.mojo::MessageReceiver"*, %"class.mojo::Message"*)***
  %14 = load i1 (%"class.mojo::MessageReceiver"*, %"class.mojo::Message"*)**, i1 (%"class.mojo::MessageReceiver"*, %"class.mojo::Message"*)*** %13, align 8
  %15 = getelementptr inbounds i1 (%"class.mojo::MessageReceiver"*, %"class.mojo::Message"*)*, i1 (%"class.mojo::MessageReceiver"*, %"class.mojo::Message"*)** %14, i64 3
  %16 = load i1 (%"class.mojo::MessageReceiver"*, %"class.mojo::Message"*)*, i1 (%"class.mojo::MessageReceiver"*, %"class.mojo::Message"*)** %15, align 8
  %17 = call zeroext i1 %16(%"class.mojo::MessageReceiver"* %12, %"class.mojo::Message"* nonnull %2) #9
  call void @_ZN4mojo7MessageD1Ev(%"class.mojo::Message"* nonnull %2) #9
  call void @llvm.lifetime.end.p0i8(i64 120, i8* nonnull %3) #9
  ret void
}

; Function Attrs: argmemonly nounwind
declare void @llvm.lifetime.start.p0i8(i64 immarg, i8* nocapture) #2

; Function Attrs: argmemonly nounwind
declare void @llvm.memset.p0i8.i64(i8* nocapture writeonly, i8, i64, i1 immarg) #2

declare void @_ZN4mojo7MessageC1EjjmmPNSt3__16vectorINS_16ScopedHandleBaseINS_6HandleEEENS1_9allocatorIS5_EEEE(%"class.mojo::Message"*, i32, i32, i64, i64, %"class.std::__1::vector"*) unnamed_addr #3

; Function Attrs: argmemonly nounwind
declare void @llvm.lifetime.end.p0i8(i64 immarg, i8* nocapture) #2

; Function Attrs: nounwind
declare void @_ZN4mojo7MessageD1Ev(%"class.mojo::Message"*) unnamed_addr #4

; Function Attrs: nounwind ssp uwtable
define hidden void @_ZN19performance_manager5mojom29DocumentCoordinationUnitProxy17SetLifecycleStateENS0_14LifecycleStateE(%"class.performance_manager::mojom::DocumentCoordinationUnitProxy"* nocapture readonly, i32) unnamed_addr #1 align 2 {
  %3 = alloca %"class.mojo::Message", align 8
  %4 = bitcast %"class.mojo::Message"* %3 to i8*
  call void @llvm.lifetime.start.p0i8(i64 120, i8* nonnull %4) #9
  call void @llvm.memset.p0i8.i64(i8* nonnull align 8 %4, i8 -86, i64 120, i1 false)
  call void @_ZN4mojo7MessageC1EjjmmPNSt3__16vectorINS_16ScopedHandleBaseINS_6HandleEEENS1_9allocatorIS5_EEEE(%"class.mojo::Message"* nonnull %3, i32 593466731, i32 0, i64 0, i64 0, %"class.std::__1::vector"* null) #9
  %5 = getelementptr inbounds %"class.mojo::Message", %"class.mojo::Message"* %3, i64 0, i32 1
  %6 = call i64 @_ZN4mojo8internal6Buffer8AllocateEm(%"class.mojo::internal::Buffer"* %5, i64 16) #9
  %7 = getelementptr inbounds %"class.mojo::Message", %"class.mojo::Message"* %3, i64 0, i32 1, i32 2
  %8 = load i8*, i8** %7, align 8
  %9 = getelementptr inbounds i8, i8* %8, i64 %6
  %10 = bitcast i8* %9 to %"class.performance_manager::mojom::internal::DocumentCoordinationUnit_SetLifecycleState_Params_Data"*
  call void @_ZN19performance_manager5mojom8internal54DocumentCoordinationUnit_SetLifecycleState_Params_DataC1Ev(%"class.performance_manager::mojom::internal::DocumentCoordinationUnit_SetLifecycleState_Params_Data"* %10) #9
  %11 = load i8*, i8** %7, align 8
  %12 = getelementptr inbounds i8, i8* %11, i64 %6
  %13 = getelementptr inbounds i8, i8* %12, i64 8
  %14 = bitcast i8* %13 to i32*
  store i32 %1, i32* %14, align 4
  %15 = getelementptr inbounds %"class.performance_manager::mojom::DocumentCoordinationUnitProxy", %"class.performance_manager::mojom::DocumentCoordinationUnitProxy"* %0, i64 0, i32 1
  %16 = bitcast %"class.mojo::MessageReceiverWithResponder"** %15 to %"class.mojo::MessageReceiver"**
  %17 = load %"class.mojo::MessageReceiver"*, %"class.mojo::MessageReceiver"** %16, align 8
  %18 = bitcast %"class.mojo::MessageReceiver"* %17 to i1 (%"class.mojo::MessageReceiver"*, %"class.mojo::Message"*)***
  %19 = load i1 (%"class.mojo::MessageReceiver"*, %"class.mojo::Message"*)**, i1 (%"class.mojo::MessageReceiver"*, %"class.mojo::Message"*)*** %18, align 8
  %20 = getelementptr inbounds i1 (%"class.mojo::MessageReceiver"*, %"class.mojo::Message"*)*, i1 (%"class.mojo::MessageReceiver"*, %"class.mojo::Message"*)** %19, i64 3
  %21 = load i1 (%"class.mojo::MessageReceiver"*, %"class.mojo::Message"*)*, i1 (%"class.mojo::MessageReceiver"*, %"class.mojo::Message"*)** %20, align 8
  %22 = call zeroext i1 %21(%"class.mojo::MessageReceiver"* %17, %"class.mojo::Message"* nonnull %3) #9
  call void @_ZN4mojo7MessageD1Ev(%"class.mojo::Message"* nonnull %3) #9
  call void @llvm.lifetime.end.p0i8(i64 120, i8* nonnull %4) #9
  ret void
}

; Function Attrs: nounwind ssp uwtable
define hidden void @_ZN19performance_manager5mojom29DocumentCoordinationUnitProxy26SetHasNonEmptyBeforeUnloadEb(%"class.performance_manager::mojom::DocumentCoordinationUnitProxy"* nocapture readonly, i1 zeroext) unnamed_addr #1 align 2 {
  %3 = alloca %"class.mojo::Message", align 8
  %4 = zext i1 %1 to i8
  %5 = bitcast %"class.mojo::Message"* %3 to i8*
  call void @llvm.lifetime.start.p0i8(i64 120, i8* nonnull %5) #9
  call void @llvm.memset.p0i8.i64(i8* nonnull align 8 %5, i8 -86, i64 120, i1 false)
  call void @_ZN4mojo7MessageC1EjjmmPNSt3__16vectorINS_16ScopedHandleBaseINS_6HandleEEENS1_9allocatorIS5_EEEE(%"class.mojo::Message"* nonnull %3, i32 1870414949, i32 0, i64 0, i64 0, %"class.std::__1::vector"* null) #9
  %6 = getelementptr inbounds %"class.mojo::Message", %"class.mojo::Message"* %3, i64 0, i32 1
  %7 = call i64 @_ZN4mojo8internal6Buffer8AllocateEm(%"class.mojo::internal::Buffer"* %6, i64 16) #9
  %8 = getelementptr inbounds %"class.mojo::Message", %"class.mojo::Message"* %3, i64 0, i32 1, i32 2
  %9 = load i8*, i8** %8, align 8
  %10 = getelementptr inbounds i8, i8* %9, i64 %7
  %11 = bitcast i8* %10 to %"class.performance_manager::mojom::internal::DocumentCoordinationUnit_SetHasNonEmptyBeforeUnload_Params_Data"*
  call void @_ZN19performance_manager5mojom8internal63DocumentCoordinationUnit_SetHasNonEmptyBeforeUnload_Params_DataC1Ev(%"class.performance_manager::mojom::internal::DocumentCoordinationUnit_SetHasNonEmptyBeforeUnload_Params_Data"* %11) #9
  %12 = load i8*, i8** %8, align 8
  %13 = getelementptr inbounds i8, i8* %12, i64 %7
  %14 = getelementptr inbounds i8, i8* %13, i64 8
  %15 = load i8, i8* %14, align 1
  %16 = and i8 %15, -2
  %17 = or i8 %16, %4
  store i8 %17, i8* %14, align 1
  %18 = getelementptr inbounds %"class.performance_manager::mojom::DocumentCoordinationUnitProxy", %"class.performance_manager::mojom::DocumentCoordinationUnitProxy"* %0, i64 0, i32 1
  %19 = bitcast %"class.mojo::MessageReceiverWithResponder"** %18 to %"class.mojo::MessageReceiver"**
  %20 = load %"class.mojo::MessageReceiver"*, %"class.mojo::MessageReceiver"** %19, align 8
  %21 = bitcast %"class.mojo::MessageReceiver"* %20 to i1 (%"class.mojo::MessageReceiver"*, %"class.mojo::Message"*)***
  %22 = load i1 (%"class.mojo::MessageReceiver"*, %"class.mojo::Message"*)**, i1 (%"class.mojo::MessageReceiver"*, %"class.mojo::Message"*)*** %21, align 8
  %23 = getelementptr inbounds i1 (%"class.mojo::MessageReceiver"*, %"class.mojo::Message"*)*, i1 (%"class.mojo::MessageReceiver"*, %"class.mojo::Message"*)** %22, i64 3
  %24 = load i1 (%"class.mojo::MessageReceiver"*, %"class.mojo::Message"*)*, i1 (%"class.mojo::MessageReceiver"*, %"class.mojo::Message"*)** %23, align 8
  %25 = call zeroext i1 %24(%"class.mojo::MessageReceiver"* %20, %"class.mojo::Message"* nonnull %3) #9
  call void @_ZN4mojo7MessageD1Ev(%"class.mojo::Message"* nonnull %3) #9
  call void @llvm.lifetime.end.p0i8(i64 120, i8* nonnull %5) #9
  ret void
}

; Function Attrs: nounwind ssp uwtable
define hidden void @_ZN19performance_manager5mojom29DocumentCoordinationUnitProxy21SetHadFormInteractionEv(%"class.performance_manager::mojom::DocumentCoordinationUnitProxy"* nocapture readonly) unnamed_addr #1 align 2 {
  %2 = alloca %"class.mojo::Message", align 8
  %3 = bitcast %"class.mojo::Message"* %2 to i8*
  call void @llvm.lifetime.start.p0i8(i64 120, i8* nonnull %3) #9
  call void @llvm.memset.p0i8.i64(i8* nonnull align 8 %3, i8 -86, i64 120, i1 false)
  call void @_ZN4mojo7MessageC1EjjmmPNSt3__16vectorINS_16ScopedHandleBaseINS_6HandleEEENS1_9allocatorIS5_EEEE(%"class.mojo::Message"* nonnull %2, i32 1918537285, i32 0, i64 0, i64 0, %"class.std::__1::vector"* null) #9
  %4 = getelementptr inbounds %"class.mojo::Message", %"class.mojo::Message"* %2, i64 0, i32 1
  %5 = call i64 @_ZN4mojo8internal6Buffer8AllocateEm(%"class.mojo::internal::Buffer"* %4, i64 8) #9
  %6 = getelementptr inbounds %"class.mojo::Message", %"class.mojo::Message"* %2, i64 0, i32 1, i32 2
  %7 = load i8*, i8** %6, align 8
  %8 = getelementptr inbounds i8, i8* %7, i64 %5
  %9 = bitcast i8* %8 to %"class.performance_manager::mojom::internal::DocumentCoordinationUnit_SetHadFormInteraction_Params_Data"*
  call void @_ZN19performance_manager5mojom8internal58DocumentCoordinationUnit_SetHadFormInteraction_Params_DataC1Ev(%"class.performance_manager::mojom::internal::DocumentCoordinationUnit_SetHadFormInteraction_Params_Data"* %9) #9
  %10 = getelementptr inbounds %"class.performance_manager::mojom::DocumentCoordinationUnitProxy", %"class.performance_manager::mojom::DocumentCoordinationUnitProxy"* %0, i64 0, i32 1
  %11 = bitcast %"class.mojo::MessageReceiverWithResponder"** %10 to %"class.mojo::MessageReceiver"**
  %12 = load %"class.mojo::MessageReceiver"*, %"class.mojo::MessageReceiver"** %11, align 8
  %13 = bitcast %"class.mojo::MessageReceiver"* %12 to i1 (%"class.mojo::MessageReceiver"*, %"class.mojo::Message"*)***
  %14 = load i1 (%"class.mojo::MessageReceiver"*, %"class.mojo::Message"*)**, i1 (%"class.mojo::MessageReceiver"*, %"class.mojo::Message"*)*** %13, align 8
  %15 = getelementptr inbounds i1 (%"class.mojo::MessageReceiver"*, %"class.mojo::Message"*)*, i1 (%"class.mojo::MessageReceiver"*, %"class.mojo::Message"*)** %14, i64 3
  %16 = load i1 (%"class.mojo::MessageReceiver"*, %"class.mojo::Message"*)*, i1 (%"class.mojo::MessageReceiver"*, %"class.mojo::Message"*)** %15, align 8
  %17 = call zeroext i1 %16(%"class.mojo::MessageReceiver"* %12, %"class.mojo::Message"* nonnull %2) #9
  call void @_ZN4mojo7MessageD1Ev(%"class.mojo::Message"* nonnull %2) #9
  call void @llvm.lifetime.end.p0i8(i64 120, i8* nonnull %3) #9
  ret void
}

; Function Attrs: nounwind ssp uwtable
define hidden void @_ZN19performance_manager5mojom29DocumentCoordinationUnitProxy12SetIsAdFrameEb(%"class.performance_manager::mojom::DocumentCoordinationUnitProxy"* nocapture readonly, i1 zeroext) unnamed_addr #1 align 2 {
  %3 = alloca %"class.mojo::Message", align 8
  %4 = zext i1 %1 to i8
  %5 = bitcast %"class.mojo::Message"* %3 to i8*
  call void @llvm.lifetime.start.p0i8(i64 120, i8* nonnull %5) #9
  call void @llvm.memset.p0i8.i64(i8* nonnull align 8 %5, i8 -86, i64 120, i1 false)
  call void @_ZN4mojo7MessageC1EjjmmPNSt3__16vectorINS_16ScopedHandleBaseINS_6HandleEEENS1_9allocatorIS5_EEEE(%"class.mojo::Message"* nonnull %3, i32 884549766, i32 0, i64 0, i64 0, %"class.std::__1::vector"* null) #9
  %6 = getelementptr inbounds %"class.mojo::Message", %"class.mojo::Message"* %3, i64 0, i32 1
  %7 = call i64 @_ZN4mojo8internal6Buffer8AllocateEm(%"class.mojo::internal::Buffer"* %6, i64 16) #9
  %8 = getelementptr inbounds %"class.mojo::Message", %"class.mojo::Message"* %3, i64 0, i32 1, i32 2
  %9 = load i8*, i8** %8, align 8
  %10 = getelementptr inbounds i8, i8* %9, i64 %7
  %11 = bitcast i8* %10 to %"class.performance_manager::mojom::internal::DocumentCoordinationUnit_SetIsAdFrame_Params_Data"*
  call void @_ZN19performance_manager5mojom8internal49DocumentCoordinationUnit_SetIsAdFrame_Params_DataC1Ev(%"class.performance_manager::mojom::internal::DocumentCoordinationUnit_SetIsAdFrame_Params_Data"* %11) #9
  %12 = load i8*, i8** %8, align 8
  %13 = getelementptr inbounds i8, i8* %12, i64 %7
  %14 = getelementptr inbounds i8, i8* %13, i64 8
  %15 = load i8, i8* %14, align 1
  %16 = and i8 %15, -2
  %17 = or i8 %16, %4
  store i8 %17, i8* %14, align 1
  %18 = getelementptr inbounds %"class.performance_manager::mojom::DocumentCoordinationUnitProxy", %"class.performance_manager::mojom::DocumentCoordinationUnitProxy"* %0, i64 0, i32 1
  %19 = bitcast %"class.mojo::MessageReceiverWithResponder"** %18 to %"class.mojo::MessageReceiver"**
  %20 = load %"class.mojo::MessageReceiver"*, %"class.mojo::MessageReceiver"** %19, align 8
  %21 = bitcast %"class.mojo::MessageReceiver"* %20 to i1 (%"class.mojo::MessageReceiver"*, %"class.mojo::Message"*)***
  %22 = load i1 (%"class.mojo::MessageReceiver"*, %"class.mojo::Message"*)**, i1 (%"class.mojo::MessageReceiver"*, %"class.mojo::Message"*)*** %21, align 8
  %23 = getelementptr inbounds i1 (%"class.mojo::MessageReceiver"*, %"class.mojo::Message"*)*, i1 (%"class.mojo::MessageReceiver"*, %"class.mojo::Message"*)** %22, i64 3
  %24 = load i1 (%"class.mojo::MessageReceiver"*, %"class.mojo::Message"*)*, i1 (%"class.mojo::MessageReceiver"*, %"class.mojo::Message"*)** %23, align 8
  %25 = call zeroext i1 %24(%"class.mojo::MessageReceiver"* %20, %"class.mojo::Message"* nonnull %3) #9
  call void @_ZN4mojo7MessageD1Ev(%"class.mojo::Message"* nonnull %3) #9
  call void @llvm.lifetime.end.p0i8(i64 120, i8* nonnull %5) #9
  ret void
}

; Function Attrs: nounwind ssp uwtable
define hidden void @_ZN19performance_manager5mojom29DocumentCoordinationUnitProxy34OnNonPersistentNotificationCreatedEv(%"class.performance_manager::mojom::DocumentCoordinationUnitProxy"* nocapture readonly) unnamed_addr #1 align 2 {
  %2 = alloca %"class.mojo::Message", align 8
  %3 = bitcast %"class.mojo::Message"* %2 to i8*
  call void @llvm.lifetime.start.p0i8(i64 120, i8* nonnull %3) #9
  call void @llvm.memset.p0i8.i64(i8* nonnull align 8 %3, i8 -86, i64 120, i1 false)
  call void @_ZN4mojo7MessageC1EjjmmPNSt3__16vectorINS_16ScopedHandleBaseINS_6HandleEEENS1_9allocatorIS5_EEEE(%"class.mojo::Message"* nonnull %2, i32 1057960516, i32 0, i64 0, i64 0, %"class.std::__1::vector"* null) #9
  %4 = getelementptr inbounds %"class.mojo::Message", %"class.mojo::Message"* %2, i64 0, i32 1
  %5 = call i64 @_ZN4mojo8internal6Buffer8AllocateEm(%"class.mojo::internal::Buffer"* %4, i64 8) #9
  %6 = getelementptr inbounds %"class.mojo::Message", %"class.mojo::Message"* %2, i64 0, i32 1, i32 2
  %7 = load i8*, i8** %6, align 8
  %8 = getelementptr inbounds i8, i8* %7, i64 %5
  %9 = bitcast i8* %8 to %"class.performance_manager::mojom::internal::DocumentCoordinationUnit_OnNonPersistentNotificationCreated_Params_Data"*
  call void @_ZN19performance_manager5mojom8internal71DocumentCoordinationUnit_OnNonPersistentNotificationCreated_Params_DataC1Ev(%"class.performance_manager::mojom::internal::DocumentCoordinationUnit_OnNonPersistentNotificationCreated_Params_Data"* %9) #9
  %10 = getelementptr inbounds %"class.performance_manager::mojom::DocumentCoordinationUnitProxy", %"class.performance_manager::mojom::DocumentCoordinationUnitProxy"* %0, i64 0, i32 1
  %11 = bitcast %"class.mojo::MessageReceiverWithResponder"** %10 to %"class.mojo::MessageReceiver"**
  %12 = load %"class.mojo::MessageReceiver"*, %"class.mojo::MessageReceiver"** %11, align 8
  %13 = bitcast %"class.mojo::MessageReceiver"* %12 to i1 (%"class.mojo::MessageReceiver"*, %"class.mojo::Message"*)***
  %14 = load i1 (%"class.mojo::MessageReceiver"*, %"class.mojo::Message"*)**, i1 (%"class.mojo::MessageReceiver"*, %"class.mojo::Message"*)*** %13, align 8
  %15 = getelementptr inbounds i1 (%"class.mojo::MessageReceiver"*, %"class.mojo::Message"*)*, i1 (%"class.mojo::MessageReceiver"*, %"class.mojo::Message"*)** %14, i64 3
  %16 = load i1 (%"class.mojo::MessageReceiver"*, %"class.mojo::Message"*)*, i1 (%"class.mojo::MessageReceiver"*, %"class.mojo::Message"*)** %15, align 8
  %17 = call zeroext i1 %16(%"class.mojo::MessageReceiver"* %12, %"class.mojo::Message"* nonnull %2) #9
  call void @_ZN4mojo7MessageD1Ev(%"class.mojo::Message"* nonnull %2) #9
  call void @llvm.lifetime.end.p0i8(i64 120, i8* nonnull %3) #9
  ret void
}

; Function Attrs: nounwind ssp uwtable
define hidden void @_ZN19performance_manager5mojom29DocumentCoordinationUnitProxy22OnFirstContentfulPaintEN4base9TimeDeltaE(%"class.performance_manager::mojom::DocumentCoordinationUnitProxy"* nocapture readonly, i64) unnamed_addr #1 align 2 {
  %3 = alloca %"class.base::TimeDelta", align 8
  %4 = alloca %"class.mojo::Message", align 8
  %5 = getelementptr inbounds %"class.base::TimeDelta", %"class.base::TimeDelta"* %3, i64 0, i32 0
  store i64 %1, i64* %5, align 8
  %6 = bitcast %"class.mojo::Message"* %4 to i8*
  call void @llvm.lifetime.start.p0i8(i64 120, i8* nonnull %6) #9
  call void @llvm.memset.p0i8.i64(i8* nonnull align 8 %6, i8 -86, i64 120, i1 false)
  call void @_ZN4mojo7MessageC1EjjmmPNSt3__16vectorINS_16ScopedHandleBaseINS_6HandleEEENS1_9allocatorIS5_EEEE(%"class.mojo::Message"* nonnull %4, i32 580549354, i32 0, i64 0, i64 0, %"class.std::__1::vector"* null) #9
  %7 = getelementptr inbounds %"class.mojo::Message", %"class.mojo::Message"* %4, i64 0, i32 1
  %8 = call i64 @_ZN4mojo8internal6Buffer8AllocateEm(%"class.mojo::internal::Buffer"* %7, i64 16) #9
  %9 = getelementptr inbounds %"class.mojo::Message", %"class.mojo::Message"* %4, i64 0, i32 1, i32 2
  %10 = load i8*, i8** %9, align 8
  %11 = getelementptr inbounds i8, i8* %10, i64 %8
  %12 = bitcast i8* %11 to %"class.performance_manager::mojom::internal::DocumentCoordinationUnit_OnFirstContentfulPaint_Params_Data"*
  call void @_ZN19performance_manager5mojom8internal59DocumentCoordinationUnit_OnFirstContentfulPaint_Params_DataC1Ev(%"class.performance_manager::mojom::internal::DocumentCoordinationUnit_OnFirstContentfulPaint_Params_Data"* %12) #9
  %13 = call i64 @_ZN4mojo8internal6Buffer8AllocateEm(%"class.mojo::internal::Buffer"* %7, i64 16) #9
  %14 = load i8*, i8** %9, align 8
  %15 = getelementptr inbounds i8, i8* %14, i64 %13
  %16 = bitcast i8* %15 to %"class.mojo_base::mojom::internal::TimeDelta_Data"*
  call void @_ZN9mojo_base5mojom8internal14TimeDelta_DataC1Ev(%"class.mojo_base::mojom::internal::TimeDelta_Data"* %16) #9
  %17 = call i64 @_ZN4mojo12StructTraitsIN9mojo_base5mojom17TimeDeltaDataViewEN4base9TimeDeltaEE12microsecondsERKS5_(%"class.base::TimeDelta"* nonnull dereferenceable(8) %3) #9
  %18 = load i8*, i8** %9, align 8
  %19 = getelementptr inbounds i8, i8* %18, i64 %13
  %20 = getelementptr inbounds i8, i8* %19, i64 8
  %21 = bitcast i8* %20 to i64*
  store i64 %17, i64* %21, align 1
  %22 = load i8*, i8** %9, align 8
  %23 = getelementptr inbounds i8, i8* %22, i64 %8
  %24 = getelementptr inbounds i8, i8* %23, i64 8
  %25 = icmp eq i64 %13, -1
  %26 = getelementptr inbounds i8, i8* %22, i64 %13
  %27 = bitcast i8* %26 to %"class.mojo_base::mojom::internal::TimeDelta_Data"*
  %28 = select i1 %25, %"class.mojo_base::mojom::internal::TimeDelta_Data"* null, %"class.mojo_base::mojom::internal::TimeDelta_Data"* %27
  %29 = bitcast i8* %24 to i64*
  %30 = icmp eq %"class.mojo_base::mojom::internal::TimeDelta_Data"* %28, null
  %31 = ptrtoint %"class.mojo_base::mojom::internal::TimeDelta_Data"* %28 to i64
  %32 = ptrtoint i8* %24 to i64
  %33 = sub i64 %31, %32
  %34 = select i1 %30, i64 0, i64 %33
  store i64 %34, i64* %29, align 8
  %35 = getelementptr inbounds %"class.performance_manager::mojom::DocumentCoordinationUnitProxy", %"class.performance_manager::mojom::DocumentCoordinationUnitProxy"* %0, i64 0, i32 1
  %36 = bitcast %"class.mojo::MessageReceiverWithResponder"** %35 to %"class.mojo::MessageReceiver"**
  %37 = load %"class.mojo::MessageReceiver"*, %"class.mojo::MessageReceiver"** %36, align 8
  %38 = bitcast %"class.mojo::MessageReceiver"* %37 to i1 (%"class.mojo::MessageReceiver"*, %"class.mojo::Message"*)***
  %39 = load i1 (%"class.mojo::MessageReceiver"*, %"class.mojo::Message"*)**, i1 (%"class.mojo::MessageReceiver"*, %"class.mojo::Message"*)*** %38, align 8
  %40 = getelementptr inbounds i1 (%"class.mojo::MessageReceiver"*, %"class.mojo::Message"*)*, i1 (%"class.mojo::MessageReceiver"*, %"class.mojo::Message"*)** %39, i64 3
  %41 = load i1 (%"class.mojo::MessageReceiver"*, %"class.mojo::Message"*)*, i1 (%"class.mojo::MessageReceiver"*, %"class.mojo::Message"*)** %40, align 8
  %42 = call zeroext i1 %41(%"class.mojo::MessageReceiver"* %37, %"class.mojo::Message"* nonnull %4) #9
  call void @_ZN4mojo7MessageD1Ev(%"class.mojo::Message"* nonnull %4) #9
  call void @llvm.lifetime.end.p0i8(i64 120, i8* nonnull %6) #9
  ret void
}

; Function Attrs: nounwind ssp uwtable
define hidden void @_ZN19performance_manager5mojom29DocumentCoordinationUnitProxy31OnWebMemoryMeasurementRequestedENS0_25WebMemoryMeasurement_ModeEN4base12OnceCallbackIFvN4mojo9StructPtrINS0_20WebMemoryMeasurementEEEEEE(%"class.performance_manager::mojom::DocumentCoordinationUnitProxy"* nocapture readonly, i32, %"class.base::OnceCallback"* nocapture) unnamed_addr #1 align 2 {
  %4 = alloca %"class.mojo::Message", align 8
  %5 = alloca %"class.base::OnceCallback", align 8
  %6 = bitcast %"class.mojo::Message"* %4 to i8*
  call void @llvm.lifetime.start.p0i8(i64 120, i8* nonnull %6) #9
  call void @llvm.memset.p0i8.i64(i8* nonnull align 8 %6, i8 -86, i64 120, i1 false)
  call void @_ZN4mojo7MessageC1EjjmmPNSt3__16vectorINS_16ScopedHandleBaseINS_6HandleEEENS1_9allocatorIS5_EEEE(%"class.mojo::Message"* nonnull %4, i32 1674514099, i32 1, i64 0, i64 0, %"class.std::__1::vector"* null) #9
  %7 = getelementptr inbounds %"class.mojo::Message", %"class.mojo::Message"* %4, i64 0, i32 1
  %8 = call i64 @_ZN4mojo8internal6Buffer8AllocateEm(%"class.mojo::internal::Buffer"* %7, i64 16) #9
  %9 = getelementptr inbounds %"class.mojo::Message", %"class.mojo::Message"* %4, i64 0, i32 1, i32 2
  %10 = load i8*, i8** %9, align 8
  %11 = getelementptr inbounds i8, i8* %10, i64 %8
  %12 = bitcast i8* %11 to %"class.performance_manager::mojom::internal::DocumentCoordinationUnit_OnWebMemoryMeasurementRequested_Params_Data"*
  call void @_ZN19performance_manager5mojom8internal68DocumentCoordinationUnit_OnWebMemoryMeasurementRequested_Params_DataC1Ev(%"class.performance_manager::mojom::internal::DocumentCoordinationUnit_OnWebMemoryMeasurementRequested_Params_Data"* %12) #9
  %13 = load i8*, i8** %9, align 8
  %14 = getelementptr inbounds i8, i8* %13, i64 %8
  %15 = getelementptr inbounds i8, i8* %14, i64 8
  %16 = bitcast i8* %15 to i32*
  store i32 %1, i32* %16, align 4
  %17 = call i8* @_Znwm(i64 16) #10
  %18 = getelementptr inbounds %"class.base::OnceCallback", %"class.base::OnceCallback"* %2, i64 0, i32 0, i32 0, i32 0
  %19 = bitcast %"class.base::OnceCallback"* %2 to i64*
  %20 = load i64, i64* %19, align 8
  store %"class.base::internal::BindStateBase"* null, %"class.base::internal::BindStateBase"** %18, align 8
  %21 = bitcast i8* %17 to i32 (...)***
  store i32 (...)** bitcast (i8** getelementptr inbounds ({ [6 x i8*] }, { [6 x i8*] }* @_ZTVN19performance_manager5mojom74DocumentCoordinationUnit_OnWebMemoryMeasurementRequested_ForwardToCallbackE, i64 0, inrange i32 0, i64 2) to i32 (...)**), i32 (...)*** %21, align 8
  %22 = getelementptr inbounds i8, i8* %17, i64 8
  %23 = getelementptr inbounds %"class.base::OnceCallback", %"class.base::OnceCallback"* %5, i64 0, i32 0, i32 0, i32 0
  %24 = bitcast i8* %22 to i64*
  store i64 %20, i64* %24, align 8
  store %"class.base::internal::BindStateBase"* null, %"class.base::internal::BindStateBase"** %23, align 8
  %25 = bitcast i8* %17 to %"class.mojo::MessageReceiver"*
  %26 = getelementptr inbounds %"class.base::OnceCallback", %"class.base::OnceCallback"* %5, i64 0, i32 0
  call void @_ZN4base8internal12CallbackBaseD2Ev(%"class.base::internal::CallbackBase"* nonnull %26) #9
  %27 = getelementptr inbounds %"class.performance_manager::mojom::DocumentCoordinationUnitProxy", %"class.performance_manager::mojom::DocumentCoordinationUnitProxy"* %0, i64 0, i32 1
  %28 = load %"class.mojo::MessageReceiverWithResponder"*, %"class.mojo::MessageReceiverWithResponder"** %27, align 8
  %29 = bitcast %"class.mojo::MessageReceiverWithResponder"* %28 to i1 (%"class.mojo::MessageReceiverWithResponder"*, %"class.mojo::Message"*, %"class.mojo::MessageReceiver"*)***
  %30 = load i1 (%"class.mojo::MessageReceiverWithResponder"*, %"class.mojo::Message"*, %"class.mojo::MessageReceiver"*)**, i1 (%"class.mojo::MessageReceiverWithResponder"*, %"class.mojo::Message"*, %"class.mojo::MessageReceiver"*)*** %29, align 8
  %31 = getelementptr inbounds i1 (%"class.mojo::MessageReceiverWithResponder"*, %"class.mojo::Message"*, %"class.mojo::MessageReceiver"*)*, i1 (%"class.mojo::MessageReceiverWithResponder"*, %"class.mojo::Message"*, %"class.mojo::MessageReceiver"*)** %30, i64 4
  %32 = load i1 (%"class.mojo::MessageReceiverWithResponder"*, %"class.mojo::Message"*, %"class.mojo::MessageReceiver"*)*, i1 (%"class.mojo::MessageReceiverWithResponder"*, %"class.mojo::Message"*, %"class.mojo::MessageReceiver"*)** %31, align 8
  %33 = call zeroext i1 %32(%"class.mojo::MessageReceiverWithResponder"* %28, %"class.mojo::Message"* nonnull %4, %"class.mojo::MessageReceiver"* nonnull %25) #9
  call void @_ZN4mojo7MessageD1Ev(%"class.mojo::Message"* nonnull %4) #9
  call void @llvm.lifetime.end.p0i8(i64 120, i8* nonnull %6) #9
  ret void
}

; Function Attrs: nobuiltin nofree
declare noalias nonnull i8* @_Znwm(i64) local_unnamed_addr #5

; Function Attrs: nounwind
declare void @_ZN4base8internal12CallbackBaseD2Ev(%"class.base::internal::CallbackBase"*) unnamed_addr #4

; Function Attrs: nounwind ssp uwtable
define hidden zeroext i1 @_ZN19performance_manager5mojom74DocumentCoordinationUnit_OnWebMemoryMeasurementRequested_ForwardToCallback6AcceptEPN4mojo7MessageE(%"class.performance_manager::mojom::DocumentCoordinationUnit_OnWebMemoryMeasurementRequested_ForwardToCallback"* nocapture, %"class.mojo::Message"*) unnamed_addr #1 align 2 {
  %3 = alloca %"class.base::OnceCallback", align 8
  %4 = alloca %"class.mojo::StructPtr", align 8
  %5 = alloca %"class.mojo::StructPtr", align 8
  %6 = tail call i8* @_ZNK4mojo7Message7payloadEv(%"class.mojo::Message"* %1) #9
  %7 = bitcast %"class.mojo::StructPtr"* %4 to i8*
  call void @llvm.lifetime.start.p0i8(i64 8, i8* nonnull %7) #9
  %8 = getelementptr inbounds %"class.mojo::StructPtr", %"class.mojo::StructPtr"* %4, i64 0, i32 0, i32 0, i32 0, i32 0
  %9 = bitcast %"class.mojo::StructPtr"* %4 to i64*
  store i64 0, i64* %9, align 8
  %10 = getelementptr inbounds i8, i8* %6, i64 8
  %11 = bitcast i8* %10 to i64*
  %12 = load i64, i64* %11, align 8
  %13 = icmp eq i64 %12, 0
  br i1 %13, label %14, label %15

14:                                               ; preds = %2
  store %"class.performance_manager::mojom::WebMemoryMeasurement"* null, %"class.performance_manager::mojom::WebMemoryMeasurement"** %8, align 8
  br label %20

15:                                               ; preds = %2
  %16 = getelementptr inbounds i8, i8* %10, i64 %12
  %17 = bitcast i8* %16 to %"class.performance_manager::mojom::internal::WebMemoryMeasurement_Data"*
  %18 = call zeroext i1 @_ZN4mojo12StructTraitsIN19performance_manager5mojom28WebMemoryMeasurementDataViewENS_9StructPtrINS2_20WebMemoryMeasurementEEEE4ReadES3_PS6_(%"class.performance_manager::mojom::internal::WebMemoryMeasurement_Data"* nonnull %17, %"class.mojo::Message"* %1, %"class.mojo::StructPtr"* nonnull %4) #9
  br i1 %18, label %20, label %19

19:                                               ; preds = %15
  call void @_ZN4mojo8internal31ReportValidationErrorForMessageEPNS_7MessageENS0_15ValidationErrorEPKcjb(%"class.mojo::Message"* %1, i32 17, i8* getelementptr inbounds ([51 x i8], [51 x i8]* @_ZN19performance_manager5mojom24DocumentCoordinationUnit5Name_E, i64 0, i64 0), i32 7, i1 zeroext true) #9
  br label %39

20:                                               ; preds = %14, %15
  %21 = getelementptr inbounds %"class.performance_manager::mojom::DocumentCoordinationUnit_OnWebMemoryMeasurementRequested_ForwardToCallback", %"class.performance_manager::mojom::DocumentCoordinationUnit_OnWebMemoryMeasurementRequested_ForwardToCallback"* %0, i64 0, i32 1, i32 0, i32 0, i32 0
  %22 = load %"class.base::internal::BindStateBase"*, %"class.base::internal::BindStateBase"** %21, align 8
  %23 = icmp eq %"class.base::internal::BindStateBase"* %22, null
  br i1 %23, label %39, label %24

24:                                               ; preds = %20
  %25 = ptrtoint %"class.base::internal::BindStateBase"* %22 to i64
  %26 = bitcast %"class.mojo::StructPtr"* %5 to i64*
  %27 = getelementptr inbounds %"class.mojo::StructPtr", %"class.mojo::StructPtr"* %5, i64 0, i32 0, i32 0, i32 0, i32 0
  %28 = load i64, i64* %9, align 8
  store i64 %28, i64* %26, align 8
  store i64 0, i64* %9, align 8
  %29 = bitcast %"class.base::OnceCallback"* %3 to i8*
  call void @llvm.lifetime.start.p0i8(i64 8, i8* nonnull %29) #9
  %30 = bitcast %"class.base::OnceCallback"* %3 to i64*
  store i64 %25, i64* %30, align 8
  store %"class.base::internal::BindStateBase"* null, %"class.base::internal::BindStateBase"** %21, align 8
  %31 = getelementptr inbounds %"class.base::OnceCallback", %"class.base::OnceCallback"* %3, i64 0, i32 0
  %32 = getelementptr inbounds %"class.base::internal::BindStateBase", %"class.base::internal::BindStateBase"* %22, i64 0, i32 1
  %33 = bitcast void ()** %32 to void (%"class.base::internal::BindStateBase"*, %"class.mojo::StructPtr"*)**
  %34 = load void (%"class.base::internal::BindStateBase"*, %"class.mojo::StructPtr"*)*, void (%"class.base::internal::BindStateBase"*, %"class.mojo::StructPtr"*)** %33, align 8
  call void %34(%"class.base::internal::BindStateBase"* nonnull %22, %"class.mojo::StructPtr"* nonnull dereferenceable(8) %5) #9
  call void @_ZN4base8internal12CallbackBaseD2Ev(%"class.base::internal::CallbackBase"* nonnull %31) #9
  call void @llvm.lifetime.end.p0i8(i64 8, i8* nonnull %29) #9
  %35 = load %"class.performance_manager::mojom::WebMemoryMeasurement"*, %"class.performance_manager::mojom::WebMemoryMeasurement"** %27, align 8
  store %"class.performance_manager::mojom::WebMemoryMeasurement"* null, %"class.performance_manager::mojom::WebMemoryMeasurement"** %27, align 8
  %36 = icmp eq %"class.performance_manager::mojom::WebMemoryMeasurement"* %35, null
  br i1 %36, label %39, label %37

37:                                               ; preds = %24
  call void @_ZN19performance_manager5mojom20WebMemoryMeasurementD1Ev(%"class.performance_manager::mojom::WebMemoryMeasurement"* nonnull %35) #9
  %38 = bitcast %"class.performance_manager::mojom::WebMemoryMeasurement"* %35 to i8*
  call void @_ZdlPv(i8* %38) #10
  br label %39

39:                                               ; preds = %37, %24, %20, %19
  %40 = phi i1 [ false, %19 ], [ true, %20 ], [ true, %24 ], [ true, %37 ]
  %41 = load %"class.performance_manager::mojom::WebMemoryMeasurement"*, %"class.performance_manager::mojom::WebMemoryMeasurement"** %8, align 8
  store %"class.performance_manager::mojom::WebMemoryMeasurement"* null, %"class.performance_manager::mojom::WebMemoryMeasurement"** %8, align 8
  %42 = icmp eq %"class.performance_manager::mojom::WebMemoryMeasurement"* %41, null
  br i1 %42, label %45, label %43

43:                                               ; preds = %39
  call void @_ZN19performance_manager5mojom20WebMemoryMeasurementD1Ev(%"class.performance_manager::mojom::WebMemoryMeasurement"* nonnull %41) #9
  %44 = bitcast %"class.performance_manager::mojom::WebMemoryMeasurement"* %41 to i8*
  call void @_ZdlPv(i8* %44) #10
  br label %45

45:                                               ; preds = %39, %43
  call void @llvm.lifetime.end.p0i8(i64 8, i8* nonnull %7) #9
  ret i1 %40
}

declare void @_ZN4mojo8internal31ReportValidationErrorForMessageEPNS_7MessageENS0_15ValidationErrorEPKcjb(%"class.mojo::Message"*, i32, i8*, i32, i1 zeroext) local_unnamed_addr #3

; Function Attrs: nounwind ssp uwtable
define hidden void @_ZN19performance_manager5mojom73DocumentCoordinationUnit_OnWebMemoryMeasurementRequested_ProxyToResponder3RunEN4mojo9StructPtrINS0_20WebMemoryMeasurementEEE(%"class.performance_manager::mojom::DocumentCoordinationUnit_OnWebMemoryMeasurementRequested_ProxyToResponder"* nocapture, %"class.mojo::StructPtr"*) #1 align 2 {
  %3 = alloca %"class.mojo::Message", align 8
  %4 = alloca %"class.mojo::internal::MessageFragment.74", align 8
  %5 = getelementptr inbounds %"class.performance_manager::mojom::DocumentCoordinationUnit_OnWebMemoryMeasurementRequested_ProxyToResponder", %"class.performance_manager::mojom::DocumentCoordinationUnit_OnWebMemoryMeasurementRequested_ProxyToResponder"* %0, i64 0, i32 1
  %6 = load i8, i8* %5, align 8, !range !2
  %7 = icmp eq i8 %6, 0
  %8 = select i1 %7, i32 2, i32 6
  %9 = bitcast %"class.mojo::Message"* %3 to i8*
  call void @llvm.lifetime.start.p0i8(i64 120, i8* nonnull %9) #9
  call void @llvm.memset.p0i8.i64(i8* nonnull align 8 %9, i8 -86, i64 120, i1 false)
  call void @_ZN4mojo7MessageC1EjjmmPNSt3__16vectorINS_16ScopedHandleBaseINS_6HandleEEENS1_9allocatorIS5_EEEE(%"class.mojo::Message"* nonnull %3, i32 1674514099, i32 %8, i64 0, i64 0, %"class.std::__1::vector"* null) #9
  %10 = getelementptr inbounds %"class.mojo::Message", %"class.mojo::Message"* %3, i64 0, i32 1
  %11 = call i64 @_ZN4mojo8internal6Buffer8AllocateEm(%"class.mojo::internal::Buffer"* %10, i64 16) #9
  %12 = getelementptr inbounds %"class.mojo::Message", %"class.mojo::Message"* %3, i64 0, i32 1, i32 2
  %13 = load i8*, i8** %12, align 8
  %14 = getelementptr inbounds i8, i8* %13, i64 %11
  %15 = bitcast i8* %14 to %"class.performance_manager::mojom::internal::DocumentCoordinationUnit_OnWebMemoryMeasurementRequested_ResponseParams_Data"*
  call void @_ZN19performance_manager5mojom8internal76DocumentCoordinationUnit_OnWebMemoryMeasurementRequested_ResponseParams_DataC1Ev(%"class.performance_manager::mojom::internal::DocumentCoordinationUnit_OnWebMemoryMeasurementRequested_ResponseParams_Data"* %15) #9
  %16 = bitcast %"class.mojo::internal::MessageFragment.74"* %4 to i8*
  call void @llvm.lifetime.start.p0i8(i64 16, i8* nonnull %16) #9
  %17 = getelementptr inbounds %"class.mojo::internal::MessageFragment.74", %"class.mojo::internal::MessageFragment.74"* %4, i64 0, i32 0
  %18 = getelementptr inbounds %"class.mojo::internal::MessageFragment.74", %"class.mojo::internal::MessageFragment.74"* %4, i64 0, i32 1
  store %"class.mojo::Message"* %3, %"class.mojo::Message"** %17, align 8
  store i64 -1, i64* %18, align 8
  call void @_ZN4mojo8internal10SerializerIN19performance_manager5mojom28WebMemoryMeasurementDataViewENS_9StructPtrINS3_20WebMemoryMeasurementEEEE9SerializeERS7_RNS0_15MessageFragmentINS3_8internal25WebMemoryMeasurement_DataEEE(%"class.mojo::StructPtr"* dereferenceable(8) %1, %"class.mojo::internal::MessageFragment.74"* nonnull dereferenceable(16) %4) #9
  %19 = load i8*, i8** %12, align 8
  %20 = getelementptr inbounds i8, i8* %19, i64 %11
  %21 = getelementptr inbounds i8, i8* %20, i64 8
  %22 = load i64, i64* %18, align 8
  %23 = icmp eq i64 %22, -1
  br i1 %23, label %30, label %24

24:                                               ; preds = %2
  %25 = load %"class.mojo::Message"*, %"class.mojo::Message"** %17, align 8
  %26 = getelementptr inbounds %"class.mojo::Message", %"class.mojo::Message"* %25, i64 0, i32 1, i32 2
  %27 = load i8*, i8** %26, align 8
  %28 = getelementptr inbounds i8, i8* %27, i64 %22
  %29 = bitcast i8* %28 to %"class.performance_manager::mojom::internal::WebMemoryMeasurement_Data"*
  br label %30

30:                                               ; preds = %2, %24
  %31 = phi %"class.performance_manager::mojom::internal::WebMemoryMeasurement_Data"* [ %29, %24 ], [ null, %2 ]
  %32 = bitcast i8* %21 to i64*
  %33 = icmp eq %"class.performance_manager::mojom::internal::WebMemoryMeasurement_Data"* %31, null
  %34 = ptrtoint %"class.performance_manager::mojom::internal::WebMemoryMeasurement_Data"* %31 to i64
  %35 = ptrtoint i8* %21 to i64
  %36 = sub i64 %34, %35
  %37 = select i1 %33, i64 0, i64 %36
  store i64 %37, i64* %32, align 8
  %38 = getelementptr inbounds %"class.performance_manager::mojom::DocumentCoordinationUnit_OnWebMemoryMeasurementRequested_ProxyToResponder", %"class.performance_manager::mojom::DocumentCoordinationUnit_OnWebMemoryMeasurementRequested_ProxyToResponder"* %0, i64 0, i32 0
  %39 = load i64, i64* %38, align 8
  %40 = bitcast i8** %12 to %"struct.mojo::internal::MessageHeaderV1"**
  %41 = load %"struct.mojo::internal::MessageHeaderV1"*, %"struct.mojo::internal::MessageHeaderV1"** %40, align 8
  %42 = getelementptr inbounds %"struct.mojo::internal::MessageHeaderV1", %"struct.mojo::internal::MessageHeaderV1"* %41, i64 0, i32 1
  store i64 %39, i64* %42, align 1
  %43 = getelementptr inbounds %"class.performance_manager::mojom::DocumentCoordinationUnit_OnWebMemoryMeasurementRequested_ProxyToResponder", %"class.performance_manager::mojom::DocumentCoordinationUnit_OnWebMemoryMeasurementRequested_ProxyToResponder"* %0, i64 0, i32 2, i32 0, i32 0, i32 0
  %44 = load %"class.mojo::MessageReceiverWithStatus"*, %"class.mojo::MessageReceiverWithStatus"** %43, align 8
  %45 = getelementptr inbounds %"class.mojo::MessageReceiverWithStatus", %"class.mojo::MessageReceiverWithStatus"* %44, i64 0, i32 0
  %46 = bitcast %"class.mojo::MessageReceiverWithStatus"* %44 to i1 (%"class.mojo::MessageReceiver"*, %"class.mojo::Message"*)***
  %47 = load i1 (%"class.mojo::MessageReceiver"*, %"class.mojo::Message"*)**, i1 (%"class.mojo::MessageReceiver"*, %"class.mojo::Message"*)*** %46, align 8
  %48 = getelementptr inbounds i1 (%"class.mojo::MessageReceiver"*, %"class.mojo::Message"*)*, i1 (%"class.mojo::MessageReceiver"*, %"class.mojo::Message"*)** %47, i64 3
  %49 = load i1 (%"class.mojo::MessageReceiver"*, %"class.mojo::Message"*)*, i1 (%"class.mojo::MessageReceiver"*, %"class.mojo::Message"*)** %48, align 8
  %50 = call zeroext i1 %49(%"class.mojo::MessageReceiver"* %45, %"class.mojo::Message"* nonnull %3) #9
  %51 = load %"class.mojo::MessageReceiverWithStatus"*, %"class.mojo::MessageReceiverWithStatus"** %43, align 8
  store %"class.mojo::MessageReceiverWithStatus"* null, %"class.mojo::MessageReceiverWithStatus"** %43, align 8
  %52 = icmp eq %"class.mojo::MessageReceiverWithStatus"* %51, null
  br i1 %52, label %58, label %53

53:                                               ; preds = %30
  %54 = bitcast %"class.mojo::MessageReceiverWithStatus"* %51 to void (%"class.mojo::MessageReceiverWithStatus"*)***
  %55 = load void (%"class.mojo::MessageReceiverWithStatus"*)**, void (%"class.mojo::MessageReceiverWithStatus"*)*** %54, align 8
  %56 = getelementptr inbounds void (%"class.mojo::MessageReceiverWithStatus"*)*, void (%"class.mojo::MessageReceiverWithStatus"*)** %55, i64 1
  %57 = load void (%"class.mojo::MessageReceiverWithStatus"*)*, void (%"class.mojo::MessageReceiverWithStatus"*)** %56, align 8
  call void %57(%"class.mojo::MessageReceiverWithStatus"* nonnull %51) #9
  br label %58

58:                                               ; preds = %30, %53
  call void @llvm.lifetime.end.p0i8(i64 16, i8* nonnull %16) #9
  call void @_ZN4mojo7MessageD1Ev(%"class.mojo::Message"* nonnull %3) #9
  call void @llvm.lifetime.end.p0i8(i64 120, i8* nonnull %9) #9
  ret void
}

; Function Attrs: nounwind ssp uwtable
define hidden zeroext i1 @_ZN19performance_manager5mojom36DocumentCoordinationUnitStubDispatch6AcceptEPNS0_24DocumentCoordinationUnitEPN4mojo7MessageE(%"class.performance_manager::mojom::DocumentCoordinationUnit"*, %"class.mojo::Message"*) local_unnamed_addr #1 align 2 {
  %3 = alloca %"class.base::TaskAnnotator::ScopedSetIpcHash", align 8
  %4 = alloca %"class.base::TaskAnnotator::ScopedSetIpcHash", align 8
  %5 = alloca %"class.base::TaskAnnotator::ScopedSetIpcHash", align 8
  %6 = alloca %"class.base::TaskAnnotator::ScopedSetIpcHash", align 8
  %7 = alloca %"class.base::TaskAnnotator::ScopedSetIpcHash", align 8
  %8 = alloca %"class.base::TaskAnnotator::ScopedSetIpcHash", align 8
  %9 = alloca %"class.base::TaskAnnotator::ScopedSetIpcHash", align 8
  %10 = alloca %"class.base::TimeDelta", align 8
  %11 = getelementptr inbounds %"class.mojo::Message", %"class.mojo::Message"* %1, i64 0, i32 1, i32 2
  %12 = bitcast i8** %11 to %"struct.mojo::internal::MessageHeader"**
  %13 = load %"struct.mojo::internal::MessageHeader"*, %"struct.mojo::internal::MessageHeader"** %12, align 8
  %14 = getelementptr inbounds %"struct.mojo::internal::MessageHeader", %"struct.mojo::internal::MessageHeader"* %13, i64 0, i32 2
  %15 = load i32, i32* %14, align 1
  switch i32 %15, label %97 [
    i32 482479801, label %16
    i32 593466731, label %23
    i32 1870414949, label %33
    i32 1918537285, label %44
    i32 884549766, label %51
    i32 1057960516, label %62
    i32 580549354, label %69
  ]

16:                                               ; preds = %2
  %17 = bitcast %"class.base::TaskAnnotator::ScopedSetIpcHash"* %3 to i8*
  call void @llvm.lifetime.start.p0i8(i64 24, i8* nonnull %17) #9
  call void @llvm.memset.p0i8.i64(i8* nonnull align 8 %17, i8 -86, i64 24, i1 false)
  call void @_ZN4base13TaskAnnotator16ScopedSetIpcHashC1Ej(%"class.base::TaskAnnotator::ScopedSetIpcHash"* nonnull %3, i32 174705920) #9
  %18 = call i8* @_ZNK4mojo7Message7payloadEv(%"class.mojo::Message"* %1) #9
  %19 = bitcast %"class.performance_manager::mojom::DocumentCoordinationUnit"* %0 to void (%"class.performance_manager::mojom::DocumentCoordinationUnit"*)***
  %20 = load void (%"class.performance_manager::mojom::DocumentCoordinationUnit"*)**, void (%"class.performance_manager::mojom::DocumentCoordinationUnit"*)*** %19, align 8
  %21 = getelementptr inbounds void (%"class.performance_manager::mojom::DocumentCoordinationUnit"*)*, void (%"class.performance_manager::mojom::DocumentCoordinationUnit"*)** %20, i64 2
  %22 = load void (%"class.performance_manager::mojom::DocumentCoordinationUnit"*)*, void (%"class.performance_manager::mojom::DocumentCoordinationUnit"*)** %21, align 8
  call void %22(%"class.performance_manager::mojom::DocumentCoordinationUnit"* %0) #9
  br label %93

23:                                               ; preds = %2
  %24 = bitcast %"class.base::TaskAnnotator::ScopedSetIpcHash"* %4 to i8*
  call void @llvm.lifetime.start.p0i8(i64 24, i8* nonnull %24) #9
  call void @llvm.memset.p0i8.i64(i8* nonnull align 8 %24, i8 -86, i64 24, i1 false)
  call void @_ZN4base13TaskAnnotator16ScopedSetIpcHashC1Ej(%"class.base::TaskAnnotator::ScopedSetIpcHash"* nonnull %4, i32 -80950914) #9
  %25 = call i8* @_ZNK4mojo7Message7payloadEv(%"class.mojo::Message"* %1) #9
  %26 = getelementptr inbounds i8, i8* %25, i64 8
  %27 = bitcast i8* %26 to i32*
  %28 = load i32, i32* %27, align 4
  %29 = bitcast %"class.performance_manager::mojom::DocumentCoordinationUnit"* %0 to void (%"class.performance_manager::mojom::DocumentCoordinationUnit"*, i32)***
  %30 = load void (%"class.performance_manager::mojom::DocumentCoordinationUnit"*, i32)**, void (%"class.performance_manager::mojom::DocumentCoordinationUnit"*, i32)*** %29, align 8
  %31 = getelementptr inbounds void (%"class.performance_manager::mojom::DocumentCoordinationUnit"*, i32)*, void (%"class.performance_manager::mojom::DocumentCoordinationUnit"*, i32)** %30, i64 3
  %32 = load void (%"class.performance_manager::mojom::DocumentCoordinationUnit"*, i32)*, void (%"class.performance_manager::mojom::DocumentCoordinationUnit"*, i32)** %31, align 8
  call void %32(%"class.performance_manager::mojom::DocumentCoordinationUnit"* %0, i32 %28) #9
  br label %93

33:                                               ; preds = %2
  %34 = bitcast %"class.base::TaskAnnotator::ScopedSetIpcHash"* %5 to i8*
  call void @llvm.lifetime.start.p0i8(i64 24, i8* nonnull %34) #9
  call void @llvm.memset.p0i8.i64(i8* nonnull align 8 %34, i8 -86, i64 24, i1 false)
  call void @_ZN4base13TaskAnnotator16ScopedSetIpcHashC1Ej(%"class.base::TaskAnnotator::ScopedSetIpcHash"* nonnull %5, i32 -462011065) #9
  %35 = call i8* @_ZNK4mojo7Message7payloadEv(%"class.mojo::Message"* %1) #9
  %36 = getelementptr inbounds i8, i8* %35, i64 8
  %37 = load i8, i8* %36, align 1
  %38 = and i8 %37, 1
  %39 = icmp ne i8 %38, 0
  %40 = bitcast %"class.performance_manager::mojom::DocumentCoordinationUnit"* %0 to void (%"class.performance_manager::mojom::DocumentCoordinationUnit"*, i1)***
  %41 = load void (%"class.performance_manager::mojom::DocumentCoordinationUnit"*, i1)**, void (%"class.performance_manager::mojom::DocumentCoordinationUnit"*, i1)*** %40, align 8
  %42 = getelementptr inbounds void (%"class.performance_manager::mojom::DocumentCoordinationUnit"*, i1)*, void (%"class.performance_manager::mojom::DocumentCoordinationUnit"*, i1)** %41, i64 4
  %43 = load void (%"class.performance_manager::mojom::DocumentCoordinationUnit"*, i1)*, void (%"class.performance_manager::mojom::DocumentCoordinationUnit"*, i1)** %42, align 8
  call void %43(%"class.performance_manager::mojom::DocumentCoordinationUnit"* %0, i1 zeroext %39) #9
  br label %93

44:                                               ; preds = %2
  %45 = bitcast %"class.base::TaskAnnotator::ScopedSetIpcHash"* %6 to i8*
  call void @llvm.lifetime.start.p0i8(i64 24, i8* nonnull %45) #9
  call void @llvm.memset.p0i8.i64(i8* nonnull align 8 %45, i8 -86, i64 24, i1 false)
  call void @_ZN4base13TaskAnnotator16ScopedSetIpcHashC1Ej(%"class.base::TaskAnnotator::ScopedSetIpcHash"* nonnull %6, i32 1659929831) #9
  %46 = call i8* @_ZNK4mojo7Message7payloadEv(%"class.mojo::Message"* %1) #9
  %47 = bitcast %"class.performance_manager::mojom::DocumentCoordinationUnit"* %0 to void (%"class.performance_manager::mojom::DocumentCoordinationUnit"*)***
  %48 = load void (%"class.performance_manager::mojom::DocumentCoordinationUnit"*)**, void (%"class.performance_manager::mojom::DocumentCoordinationUnit"*)*** %47, align 8
  %49 = getelementptr inbounds void (%"class.performance_manager::mojom::DocumentCoordinationUnit"*)*, void (%"class.performance_manager::mojom::DocumentCoordinationUnit"*)** %48, i64 5
  %50 = load void (%"class.performance_manager::mojom::DocumentCoordinationUnit"*)*, void (%"class.performance_manager::mojom::DocumentCoordinationUnit"*)** %49, align 8
  call void %50(%"class.performance_manager::mojom::DocumentCoordinationUnit"* %0) #9
  br label %93

51:                                               ; preds = %2
  %52 = bitcast %"class.base::TaskAnnotator::ScopedSetIpcHash"* %7 to i8*
  call void @llvm.lifetime.start.p0i8(i64 24, i8* nonnull %52) #9
  call void @llvm.memset.p0i8.i64(i8* nonnull align 8 %52, i8 -86, i64 24, i1 false)
  call void @_ZN4base13TaskAnnotator16ScopedSetIpcHashC1Ej(%"class.base::TaskAnnotator::ScopedSetIpcHash"* nonnull %7, i32 1712430367) #9
  %53 = call i8* @_ZNK4mojo7Message7payloadEv(%"class.mojo::Message"* %1) #9
  %54 = getelementptr inbounds i8, i8* %53, i64 8
  %55 = load i8, i8* %54, align 1
  %56 = and i8 %55, 1
  %57 = icmp ne i8 %56, 0
  %58 = bitcast %"class.performance_manager::mojom::DocumentCoordinationUnit"* %0 to void (%"class.performance_manager::mojom::DocumentCoordinationUnit"*, i1)***
  %59 = load void (%"class.performance_manager::mojom::DocumentCoordinationUnit"*, i1)**, void (%"class.performance_manager::mojom::DocumentCoordinationUnit"*, i1)*** %58, align 8
  %60 = getelementptr inbounds void (%"class.performance_manager::mojom::DocumentCoordinationUnit"*, i1)*, void (%"class.performance_manager::mojom::DocumentCoordinationUnit"*, i1)** %59, i64 6
  %61 = load void (%"class.performance_manager::mojom::DocumentCoordinationUnit"*, i1)*, void (%"class.performance_manager::mojom::DocumentCoordinationUnit"*, i1)** %60, align 8
  call void %61(%"class.performance_manager::mojom::DocumentCoordinationUnit"* %0, i1 zeroext %57) #9
  br label %93

62:                                               ; preds = %2
  %63 = bitcast %"class.base::TaskAnnotator::ScopedSetIpcHash"* %8 to i8*
  call void @llvm.lifetime.start.p0i8(i64 24, i8* nonnull %63) #9
  call void @llvm.memset.p0i8.i64(i8* nonnull align 8 %63, i8 -86, i64 24, i1 false)
  call void @_ZN4base13TaskAnnotator16ScopedSetIpcHashC1Ej(%"class.base::TaskAnnotator::ScopedSetIpcHash"* nonnull %8, i32 1758040487) #9
  %64 = call i8* @_ZNK4mojo7Message7payloadEv(%"class.mojo::Message"* %1) #9
  %65 = bitcast %"class.performance_manager::mojom::DocumentCoordinationUnit"* %0 to void (%"class.performance_manager::mojom::DocumentCoordinationUnit"*)***
  %66 = load void (%"class.performance_manager::mojom::DocumentCoordinationUnit"*)**, void (%"class.performance_manager::mojom::DocumentCoordinationUnit"*)*** %65, align 8
  %67 = getelementptr inbounds void (%"class.performance_manager::mojom::DocumentCoordinationUnit"*)*, void (%"class.performance_manager::mojom::DocumentCoordinationUnit"*)** %66, i64 7
  %68 = load void (%"class.performance_manager::mojom::DocumentCoordinationUnit"*)*, void (%"class.performance_manager::mojom::DocumentCoordinationUnit"*)** %67, align 8
  call void %68(%"class.performance_manager::mojom::DocumentCoordinationUnit"* %0) #9
  br label %93

69:                                               ; preds = %2
  %70 = bitcast %"class.base::TaskAnnotator::ScopedSetIpcHash"* %9 to i8*
  call void @llvm.lifetime.start.p0i8(i64 24, i8* nonnull %70) #9
  call void @llvm.memset.p0i8.i64(i8* nonnull align 8 %70, i8 -86, i64 24, i1 false)
  call void @_ZN4base13TaskAnnotator16ScopedSetIpcHashC1Ej(%"class.base::TaskAnnotator::ScopedSetIpcHash"* nonnull %9, i32 545793916) #9
  %71 = call i8* @_ZNK4mojo7Message7payloadEv(%"class.mojo::Message"* %1) #9
  %72 = bitcast %"class.base::TimeDelta"* %10 to i8*
  call void @llvm.lifetime.start.p0i8(i64 8, i8* nonnull %72) #9
  %73 = getelementptr inbounds %"class.base::TimeDelta", %"class.base::TimeDelta"* %10, i64 0, i32 0
  store i64 0, i64* %73, align 8
  %74 = getelementptr inbounds i8, i8* %71, i64 8
  %75 = bitcast i8* %74 to i64*
  %76 = load i64, i64* %75, align 8
  %77 = icmp eq i64 %76, 0
  br i1 %77, label %85, label %78

78:                                               ; preds = %69
  %79 = getelementptr inbounds i8, i8* %74, i64 %76
  %80 = bitcast i8* %79 to %"class.mojo_base::mojom::internal::TimeDelta_Data"*
  %81 = call zeroext i1 @_ZN4mojo12StructTraitsIN9mojo_base5mojom17TimeDeltaDataViewEN4base9TimeDeltaEE4ReadES3_PS5_(%"class.mojo_base::mojom::internal::TimeDelta_Data"* nonnull %80, %"class.base::TimeDelta"* nonnull %10) #9
  br i1 %81, label %82, label %84

82:                                               ; preds = %78
  %83 = load i64, i64* %73, align 8
  br label %85

84:                                               ; preds = %78
  call void @_ZN4mojo8internal31ReportValidationErrorForMessageEPNS_7MessageENS0_15ValidationErrorEPKcjb(%"class.mojo::Message"* %1, i32 17, i8* getelementptr inbounds ([51 x i8], [51 x i8]* @_ZN19performance_manager5mojom24DocumentCoordinationUnit5Name_E, i64 0, i64 0), i32 6, i1 zeroext false) #9
  br label %91

85:                                               ; preds = %82, %69
  %86 = phi i64 [ %83, %82 ], [ 0, %69 ]
  %87 = bitcast %"class.performance_manager::mojom::DocumentCoordinationUnit"* %0 to void (%"class.performance_manager::mojom::DocumentCoordinationUnit"*, i64)***
  %88 = load void (%"class.performance_manager::mojom::DocumentCoordinationUnit"*, i64)**, void (%"class.performance_manager::mojom::DocumentCoordinationUnit"*, i64)*** %87, align 8
  %89 = getelementptr inbounds void (%"class.performance_manager::mojom::DocumentCoordinationUnit"*, i64)*, void (%"class.performance_manager::mojom::DocumentCoordinationUnit"*, i64)** %88, i64 8
  %90 = load void (%"class.performance_manager::mojom::DocumentCoordinationUnit"*, i64)*, void (%"class.performance_manager::mojom::DocumentCoordinationUnit"*, i64)** %89, align 8
  call void %90(%"class.performance_manager::mojom::DocumentCoordinationUnit"* %0, i64 %86) #9
  br label %91

91:                                               ; preds = %85, %84
  %92 = phi i1 [ true, %85 ], [ false, %84 ]
  call void @llvm.lifetime.end.p0i8(i64 8, i8* nonnull %72) #9
  br label %93

93:                                               ; preds = %16, %23, %33, %44, %51, %62, %91
  %94 = phi %"class.base::TaskAnnotator::ScopedSetIpcHash"* [ %9, %91 ], [ %8, %62 ], [ %7, %51 ], [ %6, %44 ], [ %5, %33 ], [ %4, %23 ], [ %3, %16 ]
  %95 = phi i8* [ %70, %91 ], [ %63, %62 ], [ %52, %51 ], [ %45, %44 ], [ %34, %33 ], [ %24, %23 ], [ %17, %16 ]
  %96 = phi i1 [ %92, %91 ], [ true, %62 ], [ true, %51 ], [ true, %44 ], [ true, %33 ], [ true, %23 ], [ true, %16 ]
  call void @_ZN4base13TaskAnnotator16ScopedSetIpcHashD1Ev(%"class.base::TaskAnnotator::ScopedSetIpcHash"* nonnull %94) #9
  call void @llvm.lifetime.end.p0i8(i64 24, i8* nonnull %95) #9
  br label %97

97:                                               ; preds = %93, %2
  %98 = phi i1 [ false, %2 ], [ %96, %93 ]
  ret i1 %98
}

; Function Attrs: argmemonly nounwind
declare void @llvm.memcpy.p0i8.p0i8.i64(i8* nocapture writeonly, i8* nocapture readonly, i64, i1 immarg) #2

declare void @_ZN4base13TaskAnnotator16ScopedSetIpcHashC1Ej(%"class.base::TaskAnnotator::ScopedSetIpcHash"*, i32) unnamed_addr #3

; Function Attrs: nounwind
declare void @_ZN4base13TaskAnnotator16ScopedSetIpcHashD1Ev(%"class.base::TaskAnnotator::ScopedSetIpcHash"*) unnamed_addr #4

; Function Attrs: nounwind ssp uwtable
define hidden zeroext i1 @_ZN19performance_manager5mojom36DocumentCoordinationUnitStubDispatch19AcceptWithResponderEPNS0_24DocumentCoordinationUnitEPN4mojo7MessageENSt3__110unique_ptrINS4_25MessageReceiverWithStatusENS7_14default_deleteIS9_EEEE(%"class.performance_manager::mojom::DocumentCoordinationUnit"*, %"class.mojo::Message"*, %"class.mojo::MessageReceiverWithStatus"*) local_unnamed_addr #1 align 2 {
  %4 = alloca %"class.base::TaskAnnotator::ScopedSetIpcHash", align 8
  %5 = alloca %"class.base::OnceCallback", align 8
  %6 = alloca %"class.base::OnceCallback", align 8
  %7 = getelementptr inbounds %"class.mojo::Message", %"class.mojo::Message"* %1, i64 0, i32 1, i32 2
  %8 = bitcast i8** %7 to %"struct.mojo::internal::MessageHeader"**
  %9 = load %"struct.mojo::internal::MessageHeader"*, %"struct.mojo::internal::MessageHeader"** %8, align 8
  %10 = getelementptr inbounds %"struct.mojo::internal::MessageHeader", %"struct.mojo::internal::MessageHeader"* %9, i64 0, i32 2
  %11 = load i32, i32* %10, align 1
  %12 = icmp eq i32 %11, 1674514099
  br i1 %12, label %13, label %51

13:                                               ; preds = %3
  %14 = ptrtoint %"class.mojo::MessageReceiverWithStatus"* %2 to i64
  %15 = bitcast i8** %7 to %"struct.mojo::internal::MessageHeaderV1"**
  %16 = getelementptr inbounds %"struct.mojo::internal::MessageHeader", %"struct.mojo::internal::MessageHeader"* %9, i64 0, i32 3
  %17 = load i32, i32* %16, align 1
  %18 = bitcast %"class.base::TaskAnnotator::ScopedSetIpcHash"* %4 to i8*
  call void @llvm.lifetime.start.p0i8(i64 24, i8* nonnull %18) #9
  call void @llvm.memset.p0i8.i64(i8* nonnull align 8 %18, i8 -86, i64 24, i1 false)
  call void @_ZN4base13TaskAnnotator16ScopedSetIpcHashC1Ej(%"class.base::TaskAnnotator::ScopedSetIpcHash"* nonnull %4, i32 -802165893) #9
  %19 = call i8* @_ZNK4mojo7Message7payloadEv(%"class.mojo::Message"* %1) #9
  %20 = getelementptr inbounds i8, i8* %19, i64 8
  %21 = bitcast i8* %20 to i32*
  %22 = load i32, i32* %21, align 4
  %23 = bitcast %"class.base::OnceCallback"* %5 to i8*
  call void @llvm.lifetime.start.p0i8(i64 8, i8* nonnull %23) #9
  %24 = getelementptr inbounds %"class.base::OnceCallback", %"class.base::OnceCallback"* %5, i64 0, i32 0, i32 0, i32 0
  %25 = load %"struct.mojo::internal::MessageHeaderV1"*, %"struct.mojo::internal::MessageHeaderV1"** %15, align 8
  %26 = getelementptr inbounds %"struct.mojo::internal::MessageHeaderV1", %"struct.mojo::internal::MessageHeaderV1"* %25, i64 0, i32 1
  %27 = load i64, i64* %26, align 1
  %28 = call i8* @_Znwm(i64 24) #10, !noalias !3
  %29 = lshr i32 %17, 2
  %30 = trunc i32 %29 to i8
  %31 = and i8 %30, 1
  %32 = bitcast i8* %28 to i64*
  store i64 %27, i64* %32, align 8, !noalias !3
  %33 = getelementptr inbounds i8, i8* %28, i64 8
  store i8 %31, i8* %33, align 8, !noalias !3
  %34 = getelementptr inbounds i8, i8* %28, i64 16
  %35 = bitcast i8* %34 to i64*
  store i64 %14, i64* %35, align 8, !noalias !3
  %36 = ptrtoint i8* %28 to i64
  %37 = call i8* @_Znwm(i64 56) #10, !noalias !6
  %38 = bitcast i8* %37 to %"class.base::internal::BindStateBase"*
  call void @_ZN4base8internal13BindStateBaseC2EPFvvEPFvPKS1_E(%"class.base::internal::BindStateBase"* nonnull %38, void ()* bitcast (void (%"class.base::internal::BindStateBase"*, %"class.mojo::StructPtr"*)* @_ZN4base8internal7InvokerINS0_9BindStateIMN19performance_manager5mojom73DocumentCoordinationUnit_OnWebMemoryMeasurementRequested_ProxyToResponderEFvN4mojo9StructPtrINS4_20WebMemoryMeasurementEEEEJNSt3__110unique_ptrIS5_NSC_14default_deleteIS5_EEEEEEEFvS9_EE7RunOnceEPNS0_13BindStateBaseEOS9_ to void ()*), void (%"class.base::internal::BindStateBase"*)* nonnull @_ZN4base8internal9BindStateIMN19performance_manager5mojom73DocumentCoordinationUnit_OnWebMemoryMeasurementRequested_ProxyToResponderEFvN4mojo9StructPtrINS3_20WebMemoryMeasurementEEEEJNSt3__110unique_ptrIS4_NSB_14default_deleteIS4_EEEEEE7DestroyEPKNS0_13BindStateBaseE) #9, !noalias !6
  %39 = getelementptr inbounds i8, i8* %37, i64 32
  %40 = bitcast i8* %39 to <2 x i64>*
  store <2 x i64> <i64 ptrtoint (void (%"class.performance_manager::mojom::DocumentCoordinationUnit_OnWebMemoryMeasurementRequested_ProxyToResponder"*, %"class.mojo::StructPtr"*)* @_ZN19performance_manager5mojom73DocumentCoordinationUnit_OnWebMemoryMeasurementRequested_ProxyToResponder3RunEN4mojo9StructPtrINS0_20WebMemoryMeasurementEEE to i64), i64 0>, <2 x i64>* %40, align 8, !noalias !6
  %41 = getelementptr inbounds i8, i8* %37, i64 48
  %42 = bitcast i8* %41 to i64*
  store i64 %36, i64* %42, align 8, !noalias !6
  %43 = ptrtoint i8* %37 to i64
  %44 = bitcast %"class.base::OnceCallback"* %6 to i64*
  store i64 %43, i64* %44, align 8
  store %"class.base::internal::BindStateBase"* null, %"class.base::internal::BindStateBase"** %24, align 8
  %45 = bitcast %"class.performance_manager::mojom::DocumentCoordinationUnit"* %0 to void (%"class.performance_manager::mojom::DocumentCoordinationUnit"*, i32, %"class.base::OnceCallback"*)***
  %46 = load void (%"class.performance_manager::mojom::DocumentCoordinationUnit"*, i32, %"class.base::OnceCallback"*)**, void (%"class.performance_manager::mojom::DocumentCoordinationUnit"*, i32, %"class.base::OnceCallback"*)*** %45, align 8
  %47 = getelementptr inbounds void (%"class.performance_manager::mojom::DocumentCoordinationUnit"*, i32, %"class.base::OnceCallback"*)*, void (%"class.performance_manager::mojom::DocumentCoordinationUnit"*, i32, %"class.base::OnceCallback"*)** %46, i64 9
  %48 = load void (%"class.performance_manager::mojom::DocumentCoordinationUnit"*, i32, %"class.base::OnceCallback"*)*, void (%"class.performance_manager::mojom::DocumentCoordinationUnit"*, i32, %"class.base::OnceCallback"*)** %47, align 8
  call void %48(%"class.performance_manager::mojom::DocumentCoordinationUnit"* %0, i32 %22, %"class.base::OnceCallback"* nonnull %6) #9
  %49 = getelementptr inbounds %"class.base::OnceCallback", %"class.base::OnceCallback"* %6, i64 0, i32 0
  call void @_ZN4base8internal12CallbackBaseD2Ev(%"class.base::internal::CallbackBase"* nonnull %49) #9
  %50 = getelementptr inbounds %"class.base::OnceCallback", %"class.base::OnceCallback"* %5, i64 0, i32 0
  call void @_ZN4base8internal12CallbackBaseD2Ev(%"class.base::internal::CallbackBase"* nonnull %50) #9
  call void @llvm.lifetime.end.p0i8(i64 8, i8* nonnull %23) #9
  call void @_ZN4base13TaskAnnotator16ScopedSetIpcHashD1Ev(%"class.base::TaskAnnotator::ScopedSetIpcHash"* nonnull %4) #9
  call void @llvm.lifetime.end.p0i8(i64 24, i8* nonnull %18) #9
  br label %58

51:                                               ; preds = %3
  %52 = icmp eq %"class.mojo::MessageReceiverWithStatus"* %2, null
  br i1 %52, label %58, label %53

53:                                               ; preds = %51
  %54 = bitcast %"class.mojo::MessageReceiverWithStatus"* %2 to void (%"class.mojo::MessageReceiverWithStatus"*)***
  %55 = load void (%"class.mojo::MessageReceiverWithStatus"*)**, void (%"class.mojo::MessageReceiverWithStatus"*)*** %54, align 8
  %56 = getelementptr inbounds void (%"class.mojo::MessageReceiverWithStatus"*)*, void (%"class.mojo::MessageReceiverWithStatus"*)** %55, i64 1
  %57 = load void (%"class.mojo::MessageReceiverWithStatus"*)*, void (%"class.mojo::MessageReceiverWithStatus"*)** %56, align 8
  tail call void %57(%"class.mojo::MessageReceiverWithStatus"* nonnull %2) #9
  br label %58

58:                                               ; preds = %13, %51, %53
  %59 = phi i1 [ true, %13 ], [ false, %51 ], [ false, %53 ]
  ret i1 %59
}

; Function Attrs: nounwind ssp uwtable
define hidden zeroext i1 @_ZN19performance_manager5mojom40DocumentCoordinationUnitRequestValidator6AcceptEPN4mojo7MessageE(%"class.performance_manager::mojom::DocumentCoordinationUnitRequestValidator"* nocapture readnone, %"class.mojo::Message"*) unnamed_addr #1 align 2 {
  %3 = tail call zeroext i1 @_ZN4mojo8internal22ValidateRequestGenericEPNS_7MessageEPKcN4base4spanIKNSt3__14pairIjNS0_21GenericValidationInfoEEELm18446744073709551615EEE(%"class.mojo::Message"* %1, i8* getelementptr inbounds ([51 x i8], [51 x i8]* @_ZN19performance_manager5mojom24DocumentCoordinationUnit5Name_E, i64 0, i64 0), i64 8, %"struct.std::__1::pair"* getelementptr inbounds ([8 x %"struct.std::__1::pair"], [8 x %"struct.std::__1::pair"]* @_ZN19performance_manager5mojomL39kDocumentCoordinationUnitValidationInfoE, i64 0, i64 0)) #9
  ret i1 %3
}

declare zeroext i1 @_ZN4mojo8internal22ValidateRequestGenericEPNS_7MessageEPKcN4base4spanIKNSt3__14pairIjNS0_21GenericValidationInfoEEELm18446744073709551615EEE(%"class.mojo::Message"*, i8*, i64, %"struct.std::__1::pair"*) local_unnamed_addr #3

; Function Attrs: nounwind ssp uwtable
define hidden zeroext i1 @_ZN19performance_manager5mojom41DocumentCoordinationUnitResponseValidator6AcceptEPN4mojo7MessageE(%"class.performance_manager::mojom::DocumentCoordinationUnitResponseValidator"* nocapture readnone, %"class.mojo::Message"*) unnamed_addr #1 align 2 {
  %3 = tail call zeroext i1 @_ZN4mojo8internal23ValidateResponseGenericEPNS_7MessageEPKcN4base4spanIKNSt3__14pairIjNS0_21GenericValidationInfoEEELm18446744073709551615EEE(%"class.mojo::Message"* %1, i8* getelementptr inbounds ([51 x i8], [51 x i8]* @_ZN19performance_manager5mojom24DocumentCoordinationUnit5Name_E, i64 0, i64 0), i64 8, %"struct.std::__1::pair"* getelementptr inbounds ([8 x %"struct.std::__1::pair"], [8 x %"struct.std::__1::pair"]* @_ZN19performance_manager5mojomL39kDocumentCoordinationUnitValidationInfoE, i64 0, i64 0)) #9
  ret i1 %3
}

declare zeroext i1 @_ZN4mojo8internal23ValidateResponseGenericEPNS_7MessageEPKcN4base4spanIKNSt3__14pairIjNS0_21GenericValidationInfoEEELm18446744073709551615EEE(%"class.mojo::Message"*, i8*, i64, %"struct.std::__1::pair"*) local_unnamed_addr #3

; Function Attrs: nofree norecurse nounwind ssp uwtable writeonly
define hidden void @_ZN19performance_manager5mojom28ProcessCoordinationUnitProxyC2EPN4mojo28MessageReceiverWithResponderE(%"class.performance_manager::mojom::ProcessCoordinationUnitProxy"* nocapture, %"class.mojo::MessageReceiverWithResponder"*) unnamed_addr #0 align 2 {
  %3 = getelementptr inbounds %"class.performance_manager::mojom::ProcessCoordinationUnitProxy", %"class.performance_manager::mojom::ProcessCoordinationUnitProxy"* %0, i64 0, i32 0, i32 0
  store i32 (...)** bitcast (i8** getelementptr inbounds ({ [11 x i8*] }, { [11 x i8*] }* @_ZTVN19performance_manager5mojom28ProcessCoordinationUnitProxyE, i64 0, inrange i32 0, i64 2) to i32 (...)**), i32 (...)*** %3, align 8
  %4 = getelementptr inbounds %"class.performance_manager::mojom::ProcessCoordinationUnitProxy", %"class.performance_manager::mojom::ProcessCoordinationUnitProxy"* %0, i64 0, i32 1
  store %"class.mojo::MessageReceiverWithResponder"* %1, %"class.mojo::MessageReceiverWithResponder"** %4, align 8
  ret void
}

; Function Attrs: nounwind ssp uwtable
define hidden void @_ZN19performance_manager5mojom28ProcessCoordinationUnitProxy26SetMainThreadTaskLoadIsLowEb(%"class.performance_manager::mojom::ProcessCoordinationUnitProxy"* nocapture readonly, i1 zeroext) unnamed_addr #1 align 2 {
  %3 = alloca %"class.mojo::Message", align 8
  %4 = zext i1 %1 to i8
  %5 = bitcast %"class.mojo::Message"* %3 to i8*
  call void @llvm.lifetime.start.p0i8(i64 120, i8* nonnull %5) #9
  call void @llvm.memset.p0i8.i64(i8* nonnull align 8 %5, i8 -86, i64 120, i1 false)
  call void @_ZN4mojo7MessageC1EjjmmPNSt3__16vectorINS_16ScopedHandleBaseINS_6HandleEEENS1_9allocatorIS5_EEEE(%"class.mojo::Message"* nonnull %3, i32 1709431770, i32 0, i64 0, i64 0, %"class.std::__1::vector"* null) #9
  %6 = getelementptr inbounds %"class.mojo::Message", %"class.mojo::Message"* %3, i64 0, i32 1
  %7 = call i64 @_ZN4mojo8internal6Buffer8AllocateEm(%"class.mojo::internal::Buffer"* %6, i64 16) #9
  %8 = getelementptr inbounds %"class.mojo::Message", %"class.mojo::Message"* %3, i64 0, i32 1, i32 2
  %9 = load i8*, i8** %8, align 8
  %10 = getelementptr inbounds i8, i8* %9, i64 %7
  %11 = bitcast i8* %10 to %"class.performance_manager::mojom::internal::ProcessCoordinationUnit_SetMainThreadTaskLoadIsLow_Params_Data"*
  call void @_ZN19performance_manager5mojom8internal62ProcessCoordinationUnit_SetMainThreadTaskLoadIsLow_Params_DataC1Ev(%"class.performance_manager::mojom::internal::ProcessCoordinationUnit_SetMainThreadTaskLoadIsLow_Params_Data"* %11) #9
  %12 = load i8*, i8** %8, align 8
  %13 = getelementptr inbounds i8, i8* %12, i64 %7
  %14 = getelementptr inbounds i8, i8* %13, i64 8
  %15 = load i8, i8* %14, align 1
  %16 = and i8 %15, -2
  %17 = or i8 %16, %4
  store i8 %17, i8* %14, align 1
  %18 = getelementptr inbounds %"class.performance_manager::mojom::ProcessCoordinationUnitProxy", %"class.performance_manager::mojom::ProcessCoordinationUnitProxy"* %0, i64 0, i32 1
  %19 = bitcast %"class.mojo::MessageReceiverWithResponder"** %18 to %"class.mojo::MessageReceiver"**
  %20 = load %"class.mojo::MessageReceiver"*, %"class.mojo::MessageReceiver"** %19, align 8
  %21 = bitcast %"class.mojo::MessageReceiver"* %20 to i1 (%"class.mojo::MessageReceiver"*, %"class.mojo::Message"*)***
  %22 = load i1 (%"class.mojo::MessageReceiver"*, %"class.mojo::Message"*)**, i1 (%"class.mojo::MessageReceiver"*, %"class.mojo::Message"*)*** %21, align 8
  %23 = getelementptr inbounds i1 (%"class.mojo::MessageReceiver"*, %"class.mojo::Message"*)*, i1 (%"class.mojo::MessageReceiver"*, %"class.mojo::Message"*)** %22, i64 3
  %24 = load i1 (%"class.mojo::MessageReceiver"*, %"class.mojo::Message"*)*, i1 (%"class.mojo::MessageReceiver"*, %"class.mojo::Message"*)** %23, align 8
  %25 = call zeroext i1 %24(%"class.mojo::MessageReceiver"* %20, %"class.mojo::Message"* nonnull %3) #9
  call void @_ZN4mojo7MessageD1Ev(%"class.mojo::Message"* nonnull %3) #9
  call void @llvm.lifetime.end.p0i8(i64 120, i8* nonnull %5) #9
  ret void
}

; Function Attrs: nounwind ssp uwtable
define hidden void @_ZN19performance_manager5mojom28ProcessCoordinationUnitProxy18OnV8ContextCreatedEN4mojo9StructPtrINS0_20V8ContextDescriptionEEENS2_16InlinedStructPtrINS0_21IframeAttributionDataEEE(%"class.performance_manager::mojom::ProcessCoordinationUnitProxy"* nocapture readonly, %"class.mojo::StructPtr.78"*, %"class.mojo::InlinedStructPtr.90"*) unnamed_addr #1 align 2 {
  %4 = alloca %"class.mojo::Message", align 8
  %5 = alloca %"class.mojo::internal::MessageFragment.93", align 8
  %6 = alloca %"class.mojo::internal::MessageFragment.106", align 8
  %7 = bitcast %"class.mojo::Message"* %4 to i8*
  call void @llvm.lifetime.start.p0i8(i64 120, i8* nonnull %7) #9
  call void @llvm.memset.p0i8.i64(i8* nonnull align 8 %7, i8 -86, i64 120, i1 false)
  call void @_ZN4mojo7MessageC1EjjmmPNSt3__16vectorINS_16ScopedHandleBaseINS_6HandleEEENS1_9allocatorIS5_EEEE(%"class.mojo::Message"* nonnull %4, i32 1387325631, i32 0, i64 0, i64 0, %"class.std::__1::vector"* null) #9
  %8 = getelementptr inbounds %"class.mojo::Message", %"class.mojo::Message"* %4, i64 0, i32 1
  %9 = call i64 @_ZN4mojo8internal6Buffer8AllocateEm(%"class.mojo::internal::Buffer"* %8, i64 24) #9
  %10 = getelementptr inbounds %"class.mojo::Message", %"class.mojo::Message"* %4, i64 0, i32 1, i32 2
  %11 = load i8*, i8** %10, align 8
  %12 = getelementptr inbounds i8, i8* %11, i64 %9
  %13 = bitcast i8* %12 to %"class.performance_manager::mojom::internal::ProcessCoordinationUnit_OnV8ContextCreated_Params_Data"*
  call void @_ZN19performance_manager5mojom8internal54ProcessCoordinationUnit_OnV8ContextCreated_Params_DataC1Ev(%"class.performance_manager::mojom::internal::ProcessCoordinationUnit_OnV8ContextCreated_Params_Data"* %13) #9
  %14 = bitcast %"class.mojo::internal::MessageFragment.93"* %5 to i8*
  call void @llvm.lifetime.start.p0i8(i64 16, i8* nonnull %14) #9
  %15 = getelementptr inbounds %"class.mojo::internal::MessageFragment.93", %"class.mojo::internal::MessageFragment.93"* %5, i64 0, i32 0
  %16 = getelementptr inbounds %"class.mojo::internal::MessageFragment.93", %"class.mojo::internal::MessageFragment.93"* %5, i64 0, i32 1
  store %"class.mojo::Message"* %4, %"class.mojo::Message"** %15, align 8
  store i64 -1, i64* %16, align 8
  call void @_ZN4mojo8internal10SerializerIN19performance_manager5mojom28V8ContextDescriptionDataViewENS_9StructPtrINS3_20V8ContextDescriptionEEEE9SerializeERS7_RNS0_15MessageFragmentINS3_8internal25V8ContextDescription_DataEEE(%"class.mojo::StructPtr.78"* dereferenceable(8) %1, %"class.mojo::internal::MessageFragment.93"* nonnull dereferenceable(16) %5) #9
  %17 = load i8*, i8** %10, align 8
  %18 = getelementptr inbounds i8, i8* %17, i64 %9
  %19 = getelementptr inbounds i8, i8* %18, i64 8
  %20 = load i64, i64* %16, align 8
  %21 = icmp eq i64 %20, -1
  br i1 %21, label %28, label %22

22:                                               ; preds = %3
  %23 = load %"class.mojo::Message"*, %"class.mojo::Message"** %15, align 8
  %24 = getelementptr inbounds %"class.mojo::Message", %"class.mojo::Message"* %23, i64 0, i32 1, i32 2
  %25 = load i8*, i8** %24, align 8
  %26 = getelementptr inbounds i8, i8* %25, i64 %20
  %27 = bitcast i8* %26 to %"class.performance_manager::mojom::internal::V8ContextDescription_Data"*
  br label %28

28:                                               ; preds = %3, %22
  %29 = phi %"class.performance_manager::mojom::internal::V8ContextDescription_Data"* [ %27, %22 ], [ null, %3 ]
  %30 = bitcast i8* %19 to i64*
  %31 = icmp eq %"class.performance_manager::mojom::internal::V8ContextDescription_Data"* %29, null
  %32 = ptrtoint %"class.performance_manager::mojom::internal::V8ContextDescription_Data"* %29 to i64
  %33 = ptrtoint i8* %19 to i64
  %34 = sub i64 %32, %33
  %35 = select i1 %31, i64 0, i64 %34
  store i64 %35, i64* %30, align 8
  %36 = bitcast %"class.mojo::internal::MessageFragment.106"* %6 to i8*
  call void @llvm.lifetime.start.p0i8(i64 16, i8* nonnull %36) #9
  %37 = getelementptr inbounds %"class.mojo::internal::MessageFragment.106", %"class.mojo::internal::MessageFragment.106"* %6, i64 0, i32 0
  %38 = getelementptr inbounds %"class.mojo::internal::MessageFragment.106", %"class.mojo::internal::MessageFragment.106"* %6, i64 0, i32 1
  store %"class.mojo::Message"* %4, %"class.mojo::Message"** %37, align 8
  store i64 -1, i64* %38, align 8
  call void @_ZN4mojo8internal10SerializerIN19performance_manager5mojom29IframeAttributionDataDataViewENS_16InlinedStructPtrINS3_21IframeAttributionDataEEEE9SerializeERS7_RNS0_15MessageFragmentINS3_8internal26IframeAttributionData_DataEEE(%"class.mojo::InlinedStructPtr.90"* dereferenceable(72) %2, %"class.mojo::internal::MessageFragment.106"* nonnull dereferenceable(16) %6) #9
  %39 = load i8*, i8** %10, align 8
  %40 = getelementptr inbounds i8, i8* %39, i64 %9
  %41 = getelementptr inbounds i8, i8* %40, i64 16
  %42 = load i64, i64* %38, align 8
  %43 = icmp eq i64 %42, -1
  br i1 %43, label %50, label %44

44:                                               ; preds = %28
  %45 = load %"class.mojo::Message"*, %"class.mojo::Message"** %37, align 8
  %46 = getelementptr inbounds %"class.mojo::Message", %"class.mojo::Message"* %45, i64 0, i32 1, i32 2
  %47 = load i8*, i8** %46, align 8
  %48 = getelementptr inbounds i8, i8* %47, i64 %42
  %49 = bitcast i8* %48 to %"class.performance_manager::mojom::internal::IframeAttributionData_Data"*
  br label %50

50:                                               ; preds = %28, %44
  %51 = phi %"class.performance_manager::mojom::internal::IframeAttributionData_Data"* [ %49, %44 ], [ null, %28 ]
  %52 = bitcast i8* %41 to i64*
  %53 = icmp eq %"class.performance_manager::mojom::internal::IframeAttributionData_Data"* %51, null
  %54 = ptrtoint %"class.performance_manager::mojom::internal::IframeAttributionData_Data"* %51 to i64
  %55 = ptrtoint i8* %41 to i64
  %56 = sub i64 %54, %55
  %57 = select i1 %53, i64 0, i64 %56
  store i64 %57, i64* %52, align 8
  %58 = getelementptr inbounds %"class.performance_manager::mojom::ProcessCoordinationUnitProxy", %"class.performance_manager::mojom::ProcessCoordinationUnitProxy"* %0, i64 0, i32 1
  %59 = bitcast %"class.mojo::MessageReceiverWithResponder"** %58 to %"class.mojo::MessageReceiver"**
  %60 = load %"class.mojo::MessageReceiver"*, %"class.mojo::MessageReceiver"** %59, align 8
  %61 = bitcast %"class.mojo::MessageReceiver"* %60 to i1 (%"class.mojo::MessageReceiver"*, %"class.mojo::Message"*)***
  %62 = load i1 (%"class.mojo::MessageReceiver"*, %"class.mojo::Message"*)**, i1 (%"class.mojo::MessageReceiver"*, %"class.mojo::Message"*)*** %61, align 8
  %63 = getelementptr inbounds i1 (%"class.mojo::MessageReceiver"*, %"class.mojo::Message"*)*, i1 (%"class.mojo::MessageReceiver"*, %"class.mojo::Message"*)** %62, i64 3
  %64 = load i1 (%"class.mojo::MessageReceiver"*, %"class.mojo::Message"*)*, i1 (%"class.mojo::MessageReceiver"*, %"class.mojo::Message"*)** %63, align 8
  %65 = call zeroext i1 %64(%"class.mojo::MessageReceiver"* %60, %"class.mojo::Message"* nonnull %4) #9
  call void @llvm.lifetime.end.p0i8(i64 16, i8* nonnull %36) #9
  call void @llvm.lifetime.end.p0i8(i64 16, i8* nonnull %14) #9
  call void @_ZN4mojo7MessageD1Ev(%"class.mojo::Message"* nonnull %4) #9
  call void @llvm.lifetime.end.p0i8(i64 120, i8* nonnull %7) #9
  ret void
}

; Function Attrs: nounwind ssp uwtable
define hidden void @_ZN19performance_manager5mojom28ProcessCoordinationUnitProxy19OnV8ContextDetachedERKN4util9TokenTypeIN5blink24V8ContextTokenTypeMarkerEEE(%"class.performance_manager::mojom::ProcessCoordinationUnitProxy"* nocapture readonly, %"class.util::TokenType"* nocapture readonly dereferenceable(16)) unnamed_addr #1 align 2 {
  %3 = alloca %"class.mojo::Message", align 8
  %4 = bitcast %"class.mojo::Message"* %3 to i8*
  call void @llvm.lifetime.start.p0i8(i64 120, i8* nonnull %4) #9
  call void @llvm.memset.p0i8.i64(i8* nonnull align 8 %4, i8 -86, i64 120, i1 false)
  call void @_ZN4mojo7MessageC1EjjmmPNSt3__16vectorINS_16ScopedHandleBaseINS_6HandleEEENS1_9allocatorIS5_EEEE(%"class.mojo::Message"* nonnull %3, i32 1549428483, i32 0, i64 0, i64 0, %"class.std::__1::vector"* null) #9
  %5 = getelementptr inbounds %"class.mojo::Message", %"class.mojo::Message"* %3, i64 0, i32 1
  %6 = call i64 @_ZN4mojo8internal6Buffer8AllocateEm(%"class.mojo::internal::Buffer"* %5, i64 16) #9
  %7 = getelementptr inbounds %"class.mojo::Message", %"class.mojo::Message"* %3, i64 0, i32 1, i32 2
  %8 = load i8*, i8** %7, align 8
  %9 = getelementptr inbounds i8, i8* %8, i64 %6
  %10 = bitcast i8* %9 to %"class.performance_manager::mojom::internal::ProcessCoordinationUnit_OnV8ContextDetached_Params_Data"*
  call void @_ZN19performance_manager5mojom8internal55ProcessCoordinationUnit_OnV8ContextDetached_Params_DataC1Ev(%"class.performance_manager::mojom::internal::ProcessCoordinationUnit_OnV8ContextDetached_Params_Data"* %10) #9
  %11 = call i64 @_ZN4mojo8internal6Buffer8AllocateEm(%"class.mojo::internal::Buffer"* %5, i64 16) #9
  %12 = load i8*, i8** %7, align 8
  %13 = getelementptr inbounds i8, i8* %12, i64 %11
  %14 = bitcast i8* %13 to %"class.blink::mojom::internal::V8ContextToken_Data"*
  call void @_ZN5blink5mojom8internal19V8ContextToken_DataC1Ev(%"class.blink::mojom::internal::V8ContextToken_Data"* %14) #9
  %15 = call i64 @_ZN4mojo8internal6Buffer8AllocateEm(%"class.mojo::internal::Buffer"* %5, i64 24) #9
  %16 = load i8*, i8** %7, align 8
  %17 = getelementptr inbounds i8, i8* %16, i64 %15
  %18 = bitcast i8* %17 to %"class.mojo_base::mojom::internal::UnguessableToken_Data"*
  call void @_ZN9mojo_base5mojom8internal21UnguessableToken_DataC1Ev(%"class.mojo_base::mojom::internal::UnguessableToken_Data"* %18) #9
  %19 = getelementptr inbounds %"class.util::TokenType", %"class.util::TokenType"* %1, i64 0, i32 0, i32 0, i32 0, i32 0
  %20 = load i64, i64* %19, align 8
  %21 = load i8*, i8** %7, align 8
  %22 = getelementptr inbounds i8, i8* %21, i64 %15
  %23 = getelementptr inbounds i8, i8* %22, i64 8
  %24 = bitcast i8* %23 to i64*
  store i64 %20, i64* %24, align 1
  %25 = getelementptr inbounds %"class.util::TokenType", %"class.util::TokenType"* %1, i64 0, i32 0, i32 0, i32 0, i32 1
  %26 = load i64, i64* %25, align 8
  %27 = load i8*, i8** %7, align 8
  %28 = getelementptr inbounds i8, i8* %27, i64 %15
  %29 = getelementptr inbounds i8, i8* %28, i64 16
  %30 = bitcast i8* %29 to i64*
  store i64 %26, i64* %30, align 1
  %31 = load i8*, i8** %7, align 8
  %32 = getelementptr inbounds i8, i8* %31, i64 %11
  %33 = getelementptr inbounds i8, i8* %32, i64 8
  %34 = icmp eq i64 %15, -1
  %35 = getelementptr inbounds i8, i8* %31, i64 %15
  %36 = bitcast i8* %35 to %"class.mojo_base::mojom::internal::UnguessableToken_Data"*
  %37 = select i1 %34, %"class.mojo_base::mojom::internal::UnguessableToken_Data"* null, %"class.mojo_base::mojom::internal::UnguessableToken_Data"* %36
  %38 = bitcast i8* %33 to i64*
  %39 = icmp eq %"class.mojo_base::mojom::internal::UnguessableToken_Data"* %37, null
  %40 = ptrtoint %"class.mojo_base::mojom::internal::UnguessableToken_Data"* %37 to i64
  %41 = ptrtoint i8* %33 to i64
  %42 = sub i64 %40, %41
  %43 = select i1 %39, i64 0, i64 %42
  store i64 %43, i64* %38, align 8
  %44 = load i8*, i8** %7, align 8
  %45 = getelementptr inbounds i8, i8* %44, i64 %6
  %46 = getelementptr inbounds i8, i8* %45, i64 8
  %47 = icmp eq i64 %11, -1
  %48 = getelementptr inbounds i8, i8* %44, i64 %11
  %49 = bitcast i8* %48 to %"class.blink::mojom::internal::V8ContextToken_Data"*
  %50 = select i1 %47, %"class.blink::mojom::internal::V8ContextToken_Data"* null, %"class.blink::mojom::internal::V8ContextToken_Data"* %49
  %51 = bitcast i8* %46 to i64*
  %52 = icmp eq %"class.blink::mojom::internal::V8ContextToken_Data"* %50, null
  %53 = ptrtoint %"class.blink::mojom::internal::V8ContextToken_Data"* %50 to i64
  %54 = ptrtoint i8* %46 to i64
  %55 = sub i64 %53, %54
  %56 = select i1 %52, i64 0, i64 %55
  store i64 %56, i64* %51, align 8
  %57 = getelementptr inbounds %"class.performance_manager::mojom::ProcessCoordinationUnitProxy", %"class.performance_manager::mojom::ProcessCoordinationUnitProxy"* %0, i64 0, i32 1
  %58 = bitcast %"class.mojo::MessageReceiverWithResponder"** %57 to %"class.mojo::MessageReceiver"**
  %59 = load %"class.mojo::MessageReceiver"*, %"class.mojo::MessageReceiver"** %58, align 8
  %60 = bitcast %"class.mojo::MessageReceiver"* %59 to i1 (%"class.mojo::MessageReceiver"*, %"class.mojo::Message"*)***
  %61 = load i1 (%"class.mojo::MessageReceiver"*, %"class.mojo::Message"*)**, i1 (%"class.mojo::MessageReceiver"*, %"class.mojo::Message"*)*** %60, align 8
  %62 = getelementptr inbounds i1 (%"class.mojo::MessageReceiver"*, %"class.mojo::Message"*)*, i1 (%"class.mojo::MessageReceiver"*, %"class.mojo::Message"*)** %61, i64 3
  %63 = load i1 (%"class.mojo::MessageReceiver"*, %"class.mojo::Message"*)*, i1 (%"class.mojo::MessageReceiver"*, %"class.mojo::Message"*)** %62, align 8
  %64 = call zeroext i1 %63(%"class.mojo::MessageReceiver"* %59, %"class.mojo::Message"* nonnull %3) #9
  call void @_ZN4mojo7MessageD1Ev(%"class.mojo::Message"* nonnull %3) #9
  call void @llvm.lifetime.end.p0i8(i64 120, i8* nonnull %4) #9
  ret void
}

; Function Attrs: nounwind ssp uwtable
define hidden void @_ZN19performance_manager5mojom28ProcessCoordinationUnitProxy20OnV8ContextDestroyedERKN4util9TokenTypeIN5blink24V8ContextTokenTypeMarkerEEE(%"class.performance_manager::mojom::ProcessCoordinationUnitProxy"* nocapture readonly, %"class.util::TokenType"* nocapture readonly dereferenceable(16)) unnamed_addr #1 align 2 {
  %3 = alloca %"class.mojo::Message", align 8
  %4 = bitcast %"class.mojo::Message"* %3 to i8*
  call void @llvm.lifetime.start.p0i8(i64 120, i8* nonnull %4) #9
  call void @llvm.memset.p0i8.i64(i8* nonnull align 8 %4, i8 -86, i64 120, i1 false)
  call void @_ZN4mojo7MessageC1EjjmmPNSt3__16vectorINS_16ScopedHandleBaseINS_6HandleEEENS1_9allocatorIS5_EEEE(%"class.mojo::Message"* nonnull %3, i32 84862611, i32 0, i64 0, i64 0, %"class.std::__1::vector"* null) #9
  %5 = getelementptr inbounds %"class.mojo::Message", %"class.mojo::Message"* %3, i64 0, i32 1
  %6 = call i64 @_ZN4mojo8internal6Buffer8AllocateEm(%"class.mojo::internal::Buffer"* %5, i64 16) #9
  %7 = getelementptr inbounds %"class.mojo::Message", %"class.mojo::Message"* %3, i64 0, i32 1, i32 2
  %8 = load i8*, i8** %7, align 8
  %9 = getelementptr inbounds i8, i8* %8, i64 %6
  %10 = bitcast i8* %9 to %"class.performance_manager::mojom::internal::ProcessCoordinationUnit_OnV8ContextDestroyed_Params_Data"*
  call void @_ZN19performance_manager5mojom8internal56ProcessCoordinationUnit_OnV8ContextDestroyed_Params_DataC1Ev(%"class.performance_manager::mojom::internal::ProcessCoordinationUnit_OnV8ContextDestroyed_Params_Data"* %10) #9
  %11 = call i64 @_ZN4mojo8internal6Buffer8AllocateEm(%"class.mojo::internal::Buffer"* %5, i64 16) #9
  %12 = load i8*, i8** %7, align 8
  %13 = getelementptr inbounds i8, i8* %12, i64 %11
  %14 = bitcast i8* %13 to %"class.blink::mojom::internal::V8ContextToken_Data"*
  call void @_ZN5blink5mojom8internal19V8ContextToken_DataC1Ev(%"class.blink::mojom::internal::V8ContextToken_Data"* %14) #9
  %15 = call i64 @_ZN4mojo8internal6Buffer8AllocateEm(%"class.mojo::internal::Buffer"* %5, i64 24) #9
  %16 = load i8*, i8** %7, align 8
  %17 = getelementptr inbounds i8, i8* %16, i64 %15
  %18 = bitcast i8* %17 to %"class.mojo_base::mojom::internal::UnguessableToken_Data"*
  call void @_ZN9mojo_base5mojom8internal21UnguessableToken_DataC1Ev(%"class.mojo_base::mojom::internal::UnguessableToken_Data"* %18) #9
  %19 = getelementptr inbounds %"class.util::TokenType", %"class.util::TokenType"* %1, i64 0, i32 0, i32 0, i32 0, i32 0
  %20 = load i64, i64* %19, align 8
  %21 = load i8*, i8** %7, align 8
  %22 = getelementptr inbounds i8, i8* %21, i64 %15
  %23 = getelementptr inbounds i8, i8* %22, i64 8
  %24 = bitcast i8* %23 to i64*
  store i64 %20, i64* %24, align 1
  %25 = getelementptr inbounds %"class.util::TokenType", %"class.util::TokenType"* %1, i64 0, i32 0, i32 0, i32 0, i32 1
  %26 = load i64, i64* %25, align 8
  %27 = load i8*, i8** %7, align 8
  %28 = getelementptr inbounds i8, i8* %27, i64 %15
  %29 = getelementptr inbounds i8, i8* %28, i64 16
  %30 = bitcast i8* %29 to i64*
  store i64 %26, i64* %30, align 1
  %31 = load i8*, i8** %7, align 8
  %32 = getelementptr inbounds i8, i8* %31, i64 %11
  %33 = getelementptr inbounds i8, i8* %32, i64 8
  %34 = icmp eq i64 %15, -1
  %35 = getelementptr inbounds i8, i8* %31, i64 %15
  %36 = bitcast i8* %35 to %"class.mojo_base::mojom::internal::UnguessableToken_Data"*
  %37 = select i1 %34, %"class.mojo_base::mojom::internal::UnguessableToken_Data"* null, %"class.mojo_base::mojom::internal::UnguessableToken_Data"* %36
  %38 = bitcast i8* %33 to i64*
  %39 = icmp eq %"class.mojo_base::mojom::internal::UnguessableToken_Data"* %37, null
  %40 = ptrtoint %"class.mojo_base::mojom::internal::UnguessableToken_Data"* %37 to i64
  %41 = ptrtoint i8* %33 to i64
  %42 = sub i64 %40, %41
  %43 = select i1 %39, i64 0, i64 %42
  store i64 %43, i64* %38, align 8
  %44 = load i8*, i8** %7, align 8
  %45 = getelementptr inbounds i8, i8* %44, i64 %6
  %46 = getelementptr inbounds i8, i8* %45, i64 8
  %47 = icmp eq i64 %11, -1
  %48 = getelementptr inbounds i8, i8* %44, i64 %11
  %49 = bitcast i8* %48 to %"class.blink::mojom::internal::V8ContextToken_Data"*
  %50 = select i1 %47, %"class.blink::mojom::internal::V8ContextToken_Data"* null, %"class.blink::mojom::internal::V8ContextToken_Data"* %49
  %51 = bitcast i8* %46 to i64*
  %52 = icmp eq %"class.blink::mojom::internal::V8ContextToken_Data"* %50, null
  %53 = ptrtoint %"class.blink::mojom::internal::V8ContextToken_Data"* %50 to i64
  %54 = ptrtoint i8* %46 to i64
  %55 = sub i64 %53, %54
  %56 = select i1 %52, i64 0, i64 %55
  store i64 %56, i64* %51, align 8
  %57 = getelementptr inbounds %"class.performance_manager::mojom::ProcessCoordinationUnitProxy", %"class.performance_manager::mojom::ProcessCoordinationUnitProxy"* %0, i64 0, i32 1
  %58 = bitcast %"class.mojo::MessageReceiverWithResponder"** %57 to %"class.mojo::MessageReceiver"**
  %59 = load %"class.mojo::MessageReceiver"*, %"class.mojo::MessageReceiver"** %58, align 8
  %60 = bitcast %"class.mojo::MessageReceiver"* %59 to i1 (%"class.mojo::MessageReceiver"*, %"class.mojo::Message"*)***
  %61 = load i1 (%"class.mojo::MessageReceiver"*, %"class.mojo::Message"*)**, i1 (%"class.mojo::MessageReceiver"*, %"class.mojo::Message"*)*** %60, align 8
  %62 = getelementptr inbounds i1 (%"class.mojo::MessageReceiver"*, %"class.mojo::Message"*)*, i1 (%"class.mojo::MessageReceiver"*, %"class.mojo::Message"*)** %61, i64 3
  %63 = load i1 (%"class.mojo::MessageReceiver"*, %"class.mojo::Message"*)*, i1 (%"class.mojo::MessageReceiver"*, %"class.mojo::Message"*)** %62, align 8
  %64 = call zeroext i1 %63(%"class.mojo::MessageReceiver"* %59, %"class.mojo::Message"* nonnull %3) #9
  call void @_ZN4mojo7MessageD1Ev(%"class.mojo::Message"* nonnull %3) #9
  call void @llvm.lifetime.end.p0i8(i64 120, i8* nonnull %4) #9
  ret void
}

; Function Attrs: nounwind ssp uwtable
define hidden void @_ZN19performance_manager5mojom28ProcessCoordinationUnitProxy22OnRemoteIframeAttachedERKN4util9TokenTypeIN5blink25LocalFrameTokenTypeMarkerEEERKNS3_INS4_26RemoteFrameTokenTypeMarkerEEEN4mojo16InlinedStructPtrINS0_21IframeAttributionDataEEE(%"class.performance_manager::mojom::ProcessCoordinationUnitProxy"* nocapture readonly, %"class.util::TokenType.111"* nocapture readonly dereferenceable(16), %"class.util::TokenType.113"* nocapture readonly dereferenceable(16), %"class.mojo::InlinedStructPtr.90"*) unnamed_addr #1 align 2 {
  %5 = alloca %"class.mojo::Message", align 8
  %6 = alloca %"class.mojo::internal::MessageFragment.106", align 8
  %7 = bitcast %"class.mojo::Message"* %5 to i8*
  call void @llvm.lifetime.start.p0i8(i64 120, i8* nonnull %7) #9
  call void @llvm.memset.p0i8.i64(i8* nonnull align 8 %7, i8 -86, i64 120, i1 false)
  call void @_ZN4mojo7MessageC1EjjmmPNSt3__16vectorINS_16ScopedHandleBaseINS_6HandleEEENS1_9allocatorIS5_EEEE(%"class.mojo::Message"* nonnull %5, i32 2118358163, i32 0, i64 0, i64 0, %"class.std::__1::vector"* null) #9
  %8 = getelementptr inbounds %"class.mojo::Message", %"class.mojo::Message"* %5, i64 0, i32 1
  %9 = call i64 @_ZN4mojo8internal6Buffer8AllocateEm(%"class.mojo::internal::Buffer"* %8, i64 32) #9
  %10 = getelementptr inbounds %"class.mojo::Message", %"class.mojo::Message"* %5, i64 0, i32 1, i32 2
  %11 = load i8*, i8** %10, align 8
  %12 = getelementptr inbounds i8, i8* %11, i64 %9
  %13 = bitcast i8* %12 to %"class.performance_manager::mojom::internal::ProcessCoordinationUnit_OnRemoteIframeAttached_Params_Data"*
  call void @_ZN19performance_manager5mojom8internal58ProcessCoordinationUnit_OnRemoteIframeAttached_Params_DataC1Ev(%"class.performance_manager::mojom::internal::ProcessCoordinationUnit_OnRemoteIframeAttached_Params_Data"* %13) #9
  %14 = call i64 @_ZN4mojo8internal6Buffer8AllocateEm(%"class.mojo::internal::Buffer"* %8, i64 16) #9
  %15 = load i8*, i8** %10, align 8
  %16 = getelementptr inbounds i8, i8* %15, i64 %14
  %17 = bitcast i8* %16 to %"class.blink::mojom::internal::LocalFrameToken_Data"*
  call void @_ZN5blink5mojom8internal20LocalFrameToken_DataC1Ev(%"class.blink::mojom::internal::LocalFrameToken_Data"* %17) #9
  %18 = call i64 @_ZN4mojo8internal6Buffer8AllocateEm(%"class.mojo::internal::Buffer"* %8, i64 24) #9
  %19 = load i8*, i8** %10, align 8
  %20 = getelementptr inbounds i8, i8* %19, i64 %18
  %21 = bitcast i8* %20 to %"class.mojo_base::mojom::internal::UnguessableToken_Data"*
  call void @_ZN9mojo_base5mojom8internal21UnguessableToken_DataC1Ev(%"class.mojo_base::mojom::internal::UnguessableToken_Data"* %21) #9
  %22 = getelementptr inbounds %"class.util::TokenType.111", %"class.util::TokenType.111"* %1, i64 0, i32 0, i32 0, i32 0, i32 0
  %23 = load i64, i64* %22, align 8
  %24 = load i8*, i8** %10, align 8
  %25 = getelementptr inbounds i8, i8* %24, i64 %18
  %26 = getelementptr inbounds i8, i8* %25, i64 8
  %27 = bitcast i8* %26 to i64*
  store i64 %23, i64* %27, align 1
  %28 = getelementptr inbounds %"class.util::TokenType.111", %"class.util::TokenType.111"* %1, i64 0, i32 0, i32 0, i32 0, i32 1
  %29 = load i64, i64* %28, align 8
  %30 = load i8*, i8** %10, align 8
  %31 = getelementptr inbounds i8, i8* %30, i64 %18
  %32 = getelementptr inbounds i8, i8* %31, i64 16
  %33 = bitcast i8* %32 to i64*
  store i64 %29, i64* %33, align 1
  %34 = load i8*, i8** %10, align 8
  %35 = getelementptr inbounds i8, i8* %34, i64 %14
  %36 = getelementptr inbounds i8, i8* %35, i64 8
  %37 = icmp eq i64 %18, -1
  %38 = getelementptr inbounds i8, i8* %34, i64 %18
  %39 = bitcast i8* %38 to %"class.mojo_base::mojom::internal::UnguessableToken_Data"*
  %40 = select i1 %37, %"class.mojo_base::mojom::internal::UnguessableToken_Data"* null, %"class.mojo_base::mojom::internal::UnguessableToken_Data"* %39
  %41 = bitcast i8* %36 to i64*
  %42 = icmp eq %"class.mojo_base::mojom::internal::UnguessableToken_Data"* %40, null
  %43 = ptrtoint %"class.mojo_base::mojom::internal::UnguessableToken_Data"* %40 to i64
  %44 = ptrtoint i8* %36 to i64
  %45 = sub i64 %43, %44
  %46 = select i1 %42, i64 0, i64 %45
  store i64 %46, i64* %41, align 8
  %47 = load i8*, i8** %10, align 8
  %48 = getelementptr inbounds i8, i8* %47, i64 %9
  %49 = getelementptr inbounds i8, i8* %48, i64 8
  %50 = icmp eq i64 %14, -1
  %51 = getelementptr inbounds i8, i8* %47, i64 %14
  %52 = bitcast i8* %51 to %"class.blink::mojom::internal::LocalFrameToken_Data"*
  %53 = select i1 %50, %"class.blink::mojom::internal::LocalFrameToken_Data"* null, %"class.blink::mojom::internal::LocalFrameToken_Data"* %52
  %54 = bitcast i8* %49 to i64*
  %55 = icmp eq %"class.blink::mojom::internal::LocalFrameToken_Data"* %53, null
  %56 = ptrtoint %"class.blink::mojom::internal::LocalFrameToken_Data"* %53 to i64
  %57 = ptrtoint i8* %49 to i64
  %58 = sub i64 %56, %57
  %59 = select i1 %55, i64 0, i64 %58
  store i64 %59, i64* %54, align 8
  %60 = call i64 @_ZN4mojo8internal6Buffer8AllocateEm(%"class.mojo::internal::Buffer"* %8, i64 16) #9
  %61 = load i8*, i8** %10, align 8
  %62 = getelementptr inbounds i8, i8* %61, i64 %60
  %63 = bitcast i8* %62 to %"class.blink::mojom::internal::RemoteFrameToken_Data"*
  call void @_ZN5blink5mojom8internal21RemoteFrameToken_DataC1Ev(%"class.blink::mojom::internal::RemoteFrameToken_Data"* %63) #9
  %64 = call i64 @_ZN4mojo8internal6Buffer8AllocateEm(%"class.mojo::internal::Buffer"* %8, i64 24) #9
  %65 = load i8*, i8** %10, align 8
  %66 = getelementptr inbounds i8, i8* %65, i64 %64
  %67 = bitcast i8* %66 to %"class.mojo_base::mojom::internal::UnguessableToken_Data"*
  call void @_ZN9mojo_base5mojom8internal21UnguessableToken_DataC1Ev(%"class.mojo_base::mojom::internal::UnguessableToken_Data"* %67) #9
  %68 = getelementptr inbounds %"class.util::TokenType.113", %"class.util::TokenType.113"* %2, i64 0, i32 0, i32 0, i32 0, i32 0
  %69 = load i64, i64* %68, align 8
  %70 = load i8*, i8** %10, align 8
  %71 = getelementptr inbounds i8, i8* %70, i64 %64
  %72 = getelementptr inbounds i8, i8* %71, i64 8
  %73 = bitcast i8* %72 to i64*
  store i64 %69, i64* %73, align 1
  %74 = getelementptr inbounds %"class.util::TokenType.113", %"class.util::TokenType.113"* %2, i64 0, i32 0, i32 0, i32 0, i32 1
  %75 = load i64, i64* %74, align 8
  %76 = load i8*, i8** %10, align 8
  %77 = getelementptr inbounds i8, i8* %76, i64 %64
  %78 = getelementptr inbounds i8, i8* %77, i64 16
  %79 = bitcast i8* %78 to i64*
  store i64 %75, i64* %79, align 1
  %80 = load i8*, i8** %10, align 8
  %81 = getelementptr inbounds i8, i8* %80, i64 %60
  %82 = getelementptr inbounds i8, i8* %81, i64 8
  %83 = icmp eq i64 %64, -1
  %84 = getelementptr inbounds i8, i8* %80, i64 %64
  %85 = bitcast i8* %84 to %"class.mojo_base::mojom::internal::UnguessableToken_Data"*
  %86 = select i1 %83, %"class.mojo_base::mojom::internal::UnguessableToken_Data"* null, %"class.mojo_base::mojom::internal::UnguessableToken_Data"* %85
  %87 = bitcast i8* %82 to i64*
  %88 = icmp eq %"class.mojo_base::mojom::internal::UnguessableToken_Data"* %86, null
  %89 = ptrtoint %"class.mojo_base::mojom::internal::UnguessableToken_Data"* %86 to i64
  %90 = ptrtoint i8* %82 to i64
  %91 = sub i64 %89, %90
  %92 = select i1 %88, i64 0, i64 %91
  store i64 %92, i64* %87, align 8
  %93 = load i8*, i8** %10, align 8
  %94 = getelementptr inbounds i8, i8* %93, i64 %9
  %95 = getelementptr inbounds i8, i8* %94, i64 16
  %96 = icmp eq i64 %60, -1
  %97 = getelementptr inbounds i8, i8* %93, i64 %60
  %98 = bitcast i8* %97 to %"class.blink::mojom::internal::RemoteFrameToken_Data"*
  %99 = select i1 %96, %"class.blink::mojom::internal::RemoteFrameToken_Data"* null, %"class.blink::mojom::internal::RemoteFrameToken_Data"* %98
  %100 = bitcast i8* %95 to i64*
  %101 = icmp eq %"class.blink::mojom::internal::RemoteFrameToken_Data"* %99, null
  %102 = ptrtoint %"class.blink::mojom::internal::RemoteFrameToken_Data"* %99 to i64
  %103 = ptrtoint i8* %95 to i64
  %104 = sub i64 %102, %103
  %105 = select i1 %101, i64 0, i64 %104
  store i64 %105, i64* %100, align 8
  %106 = bitcast %"class.mojo::internal::MessageFragment.106"* %6 to i8*
  call void @llvm.lifetime.start.p0i8(i64 16, i8* nonnull %106) #9
  %107 = getelementptr inbounds %"class.mojo::internal::MessageFragment.106", %"class.mojo::internal::MessageFragment.106"* %6, i64 0, i32 0
  %108 = getelementptr inbounds %"class.mojo::internal::MessageFragment.106", %"class.mojo::internal::MessageFragment.106"* %6, i64 0, i32 1
  store %"class.mojo::Message"* %5, %"class.mojo::Message"** %107, align 8
  store i64 -1, i64* %108, align 8
  call void @_ZN4mojo8internal10SerializerIN19performance_manager5mojom29IframeAttributionDataDataViewENS_16InlinedStructPtrINS3_21IframeAttributionDataEEEE9SerializeERS7_RNS0_15MessageFragmentINS3_8internal26IframeAttributionData_DataEEE(%"class.mojo::InlinedStructPtr.90"* dereferenceable(72) %3, %"class.mojo::internal::MessageFragment.106"* nonnull dereferenceable(16) %6) #9
  %109 = load i8*, i8** %10, align 8
  %110 = getelementptr inbounds i8, i8* %109, i64 %9
  %111 = getelementptr inbounds i8, i8* %110, i64 24
  %112 = load i64, i64* %108, align 8
  %113 = icmp eq i64 %112, -1
  br i1 %113, label %120, label %114

114:                                              ; preds = %4
  %115 = load %"class.mojo::Message"*, %"class.mojo::Message"** %107, align 8
  %116 = getelementptr inbounds %"class.mojo::Message", %"class.mojo::Message"* %115, i64 0, i32 1, i32 2
  %117 = load i8*, i8** %116, align 8
  %118 = getelementptr inbounds i8, i8* %117, i64 %112
  %119 = bitcast i8* %118 to %"class.performance_manager::mojom::internal::IframeAttributionData_Data"*
  br label %120

120:                                              ; preds = %4, %114
  %121 = phi %"class.performance_manager::mojom::internal::IframeAttributionData_Data"* [ %119, %114 ], [ null, %4 ]
  %122 = bitcast i8* %111 to i64*
  %123 = icmp eq %"class.performance_manager::mojom::internal::IframeAttributionData_Data"* %121, null
  %124 = ptrtoint %"class.performance_manager::mojom::internal::IframeAttributionData_Data"* %121 to i64
  %125 = ptrtoint i8* %111 to i64
  %126 = sub i64 %124, %125
  %127 = select i1 %123, i64 0, i64 %126
  store i64 %127, i64* %122, align 8
  %128 = getelementptr inbounds %"class.performance_manager::mojom::ProcessCoordinationUnitProxy", %"class.performance_manager::mojom::ProcessCoordinationUnitProxy"* %0, i64 0, i32 1
  %129 = bitcast %"class.mojo::MessageReceiverWithResponder"** %128 to %"class.mojo::MessageReceiver"**
  %130 = load %"class.mojo::MessageReceiver"*, %"class.mojo::MessageReceiver"** %129, align 8
  %131 = bitcast %"class.mojo::MessageReceiver"* %130 to i1 (%"class.mojo::MessageReceiver"*, %"class.mojo::Message"*)***
  %132 = load i1 (%"class.mojo::MessageReceiver"*, %"class.mojo::Message"*)**, i1 (%"class.mojo::MessageReceiver"*, %"class.mojo::Message"*)*** %131, align 8
  %133 = getelementptr inbounds i1 (%"class.mojo::MessageReceiver"*, %"class.mojo::Message"*)*, i1 (%"class.mojo::MessageReceiver"*, %"class.mojo::Message"*)** %132, i64 3
  %134 = load i1 (%"class.mojo::MessageReceiver"*, %"class.mojo::Message"*)*, i1 (%"class.mojo::MessageReceiver"*, %"class.mojo::Message"*)** %133, align 8
  %135 = call zeroext i1 %134(%"class.mojo::MessageReceiver"* %130, %"class.mojo::Message"* nonnull %5) #9
  call void @llvm.lifetime.end.p0i8(i64 16, i8* nonnull %106) #9
  call void @_ZN4mojo7MessageD1Ev(%"class.mojo::Message"* nonnull %5) #9
  call void @llvm.lifetime.end.p0i8(i64 120, i8* nonnull %7) #9
  ret void
}

; Function Attrs: nounwind ssp uwtable
define hidden void @_ZN19performance_manager5mojom28ProcessCoordinationUnitProxy22OnRemoteIframeDetachedERKN4util9TokenTypeIN5blink25LocalFrameTokenTypeMarkerEEERKNS3_INS4_26RemoteFrameTokenTypeMarkerEEE(%"class.performance_manager::mojom::ProcessCoordinationUnitProxy"* nocapture readonly, %"class.util::TokenType.111"* nocapture readonly dereferenceable(16), %"class.util::TokenType.113"* nocapture readonly dereferenceable(16)) unnamed_addr #1 align 2 {
  %4 = alloca %"class.mojo::Message", align 8
  %5 = bitcast %"class.mojo::Message"* %4 to i8*
  call void @llvm.lifetime.start.p0i8(i64 120, i8* nonnull %5) #9
  call void @llvm.memset.p0i8.i64(i8* nonnull align 8 %5, i8 -86, i64 120, i1 false)
  call void @_ZN4mojo7MessageC1EjjmmPNSt3__16vectorINS_16ScopedHandleBaseINS_6HandleEEENS1_9allocatorIS5_EEEE(%"class.mojo::Message"* nonnull %4, i32 2094988133, i32 0, i64 0, i64 0, %"class.std::__1::vector"* null) #9
  %6 = getelementptr inbounds %"class.mojo::Message", %"class.mojo::Message"* %4, i64 0, i32 1
  %7 = call i64 @_ZN4mojo8internal6Buffer8AllocateEm(%"class.mojo::internal::Buffer"* %6, i64 24) #9
  %8 = getelementptr inbounds %"class.mojo::Message", %"class.mojo::Message"* %4, i64 0, i32 1, i32 2
  %9 = load i8*, i8** %8, align 8
  %10 = getelementptr inbounds i8, i8* %9, i64 %7
  %11 = bitcast i8* %10 to %"class.performance_manager::mojom::internal::ProcessCoordinationUnit_OnRemoteIframeDetached_Params_Data"*
  call void @_ZN19performance_manager5mojom8internal58ProcessCoordinationUnit_OnRemoteIframeDetached_Params_DataC1Ev(%"class.performance_manager::mojom::internal::ProcessCoordinationUnit_OnRemoteIframeDetached_Params_Data"* %11) #9
  %12 = call i64 @_ZN4mojo8internal6Buffer8AllocateEm(%"class.mojo::internal::Buffer"* %6, i64 16) #9
  %13 = load i8*, i8** %8, align 8
  %14 = getelementptr inbounds i8, i8* %13, i64 %12
  %15 = bitcast i8* %14 to %"class.blink::mojom::internal::LocalFrameToken_Data"*
  call void @_ZN5blink5mojom8internal20LocalFrameToken_DataC1Ev(%"class.blink::mojom::internal::LocalFrameToken_Data"* %15) #9
  %16 = call i64 @_ZN4mojo8internal6Buffer8AllocateEm(%"class.mojo::internal::Buffer"* %6, i64 24) #9
  %17 = load i8*, i8** %8, align 8
  %18 = getelementptr inbounds i8, i8* %17, i64 %16
  %19 = bitcast i8* %18 to %"class.mojo_base::mojom::internal::UnguessableToken_Data"*
  call void @_ZN9mojo_base5mojom8internal21UnguessableToken_DataC1Ev(%"class.mojo_base::mojom::internal::UnguessableToken_Data"* %19) #9
  %20 = getelementptr inbounds %"class.util::TokenType.111", %"class.util::TokenType.111"* %1, i64 0, i32 0, i32 0, i32 0, i32 0
  %21 = load i64, i64* %20, align 8
  %22 = load i8*, i8** %8, align 8
  %23 = getelementptr inbounds i8, i8* %22, i64 %16
  %24 = getelementptr inbounds i8, i8* %23, i64 8
  %25 = bitcast i8* %24 to i64*
  store i64 %21, i64* %25, align 1
  %26 = getelementptr inbounds %"class.util::TokenType.111", %"class.util::TokenType.111"* %1, i64 0, i32 0, i32 0, i32 0, i32 1
  %27 = load i64, i64* %26, align 8
  %28 = load i8*, i8** %8, align 8
  %29 = getelementptr inbounds i8, i8* %28, i64 %16
  %30 = getelementptr inbounds i8, i8* %29, i64 16
  %31 = bitcast i8* %30 to i64*
  store i64 %27, i64* %31, align 1
  %32 = load i8*, i8** %8, align 8
  %33 = getelementptr inbounds i8, i8* %32, i64 %12
  %34 = getelementptr inbounds i8, i8* %33, i64 8
  %35 = icmp eq i64 %16, -1
  %36 = getelementptr inbounds i8, i8* %32, i64 %16
  %37 = bitcast i8* %36 to %"class.mojo_base::mojom::internal::UnguessableToken_Data"*
  %38 = select i1 %35, %"class.mojo_base::mojom::internal::UnguessableToken_Data"* null, %"class.mojo_base::mojom::internal::UnguessableToken_Data"* %37
  %39 = bitcast i8* %34 to i64*
  %40 = icmp eq %"class.mojo_base::mojom::internal::UnguessableToken_Data"* %38, null
  %41 = ptrtoint %"class.mojo_base::mojom::internal::UnguessableToken_Data"* %38 to i64
  %42 = ptrtoint i8* %34 to i64
  %43 = sub i64 %41, %42
  %44 = select i1 %40, i64 0, i64 %43
  store i64 %44, i64* %39, align 8
  %45 = load i8*, i8** %8, align 8
  %46 = getelementptr inbounds i8, i8* %45, i64 %7
  %47 = getelementptr inbounds i8, i8* %46, i64 8
  %48 = icmp eq i64 %12, -1
  %49 = getelementptr inbounds i8, i8* %45, i64 %12
  %50 = bitcast i8* %49 to %"class.blink::mojom::internal::LocalFrameToken_Data"*
  %51 = select i1 %48, %"class.blink::mojom::internal::LocalFrameToken_Data"* null, %"class.blink::mojom::internal::LocalFrameToken_Data"* %50
  %52 = bitcast i8* %47 to i64*
  %53 = icmp eq %"class.blink::mojom::internal::LocalFrameToken_Data"* %51, null
  %54 = ptrtoint %"class.blink::mojom::internal::LocalFrameToken_Data"* %51 to i64
  %55 = ptrtoint i8* %47 to i64
  %56 = sub i64 %54, %55
  %57 = select i1 %53, i64 0, i64 %56
  store i64 %57, i64* %52, align 8
  %58 = call i64 @_ZN4mojo8internal6Buffer8AllocateEm(%"class.mojo::internal::Buffer"* %6, i64 16) #9
  %59 = load i8*, i8** %8, align 8
  %60 = getelementptr inbounds i8, i8* %59, i64 %58
  %61 = bitcast i8* %60 to %"class.blink::mojom::internal::RemoteFrameToken_Data"*
  call void @_ZN5blink5mojom8internal21RemoteFrameToken_DataC1Ev(%"class.blink::mojom::internal::RemoteFrameToken_Data"* %61) #9
  %62 = call i64 @_ZN4mojo8internal6Buffer8AllocateEm(%"class.mojo::internal::Buffer"* %6, i64 24) #9
  %63 = load i8*, i8** %8, align 8
  %64 = getelementptr inbounds i8, i8* %63, i64 %62
  %65 = bitcast i8* %64 to %"class.mojo_base::mojom::internal::UnguessableToken_Data"*
  call void @_ZN9mojo_base5mojom8internal21UnguessableToken_DataC1Ev(%"class.mojo_base::mojom::internal::UnguessableToken_Data"* %65) #9
  %66 = getelementptr inbounds %"class.util::TokenType.113", %"class.util::TokenType.113"* %2, i64 0, i32 0, i32 0, i32 0, i32 0
  %67 = load i64, i64* %66, align 8
  %68 = load i8*, i8** %8, align 8
  %69 = getelementptr inbounds i8, i8* %68, i64 %62
  %70 = getelementptr inbounds i8, i8* %69, i64 8
  %71 = bitcast i8* %70 to i64*
  store i64 %67, i64* %71, align 1
  %72 = getelementptr inbounds %"class.util::TokenType.113", %"class.util::TokenType.113"* %2, i64 0, i32 0, i32 0, i32 0, i32 1
  %73 = load i64, i64* %72, align 8
  %74 = load i8*, i8** %8, align 8
  %75 = getelementptr inbounds i8, i8* %74, i64 %62
  %76 = getelementptr inbounds i8, i8* %75, i64 16
  %77 = bitcast i8* %76 to i64*
  store i64 %73, i64* %77, align 1
  %78 = load i8*, i8** %8, align 8
  %79 = getelementptr inbounds i8, i8* %78, i64 %58
  %80 = getelementptr inbounds i8, i8* %79, i64 8
  %81 = icmp eq i64 %62, -1
  %82 = getelementptr inbounds i8, i8* %78, i64 %62
  %83 = bitcast i8* %82 to %"class.mojo_base::mojom::internal::UnguessableToken_Data"*
  %84 = select i1 %81, %"class.mojo_base::mojom::internal::UnguessableToken_Data"* null, %"class.mojo_base::mojom::internal::UnguessableToken_Data"* %83
  %85 = bitcast i8* %80 to i64*
  %86 = icmp eq %"class.mojo_base::mojom::internal::UnguessableToken_Data"* %84, null
  %87 = ptrtoint %"class.mojo_base::mojom::internal::UnguessableToken_Data"* %84 to i64
  %88 = ptrtoint i8* %80 to i64
  %89 = sub i64 %87, %88
  %90 = select i1 %86, i64 0, i64 %89
  store i64 %90, i64* %85, align 8
  %91 = load i8*, i8** %8, align 8
  %92 = getelementptr inbounds i8, i8* %91, i64 %7
  %93 = getelementptr inbounds i8, i8* %92, i64 16
  %94 = icmp eq i64 %58, -1
  %95 = getelementptr inbounds i8, i8* %91, i64 %58
  %96 = bitcast i8* %95 to %"class.blink::mojom::internal::RemoteFrameToken_Data"*
  %97 = select i1 %94, %"class.blink::mojom::internal::RemoteFrameToken_Data"* null, %"class.blink::mojom::internal::RemoteFrameToken_Data"* %96
  %98 = bitcast i8* %93 to i64*
  %99 = icmp eq %"class.blink::mojom::internal::RemoteFrameToken_Data"* %97, null
  %100 = ptrtoint %"class.blink::mojom::internal::RemoteFrameToken_Data"* %97 to i64
  %101 = ptrtoint i8* %93 to i64
  %102 = sub i64 %100, %101
  %103 = select i1 %99, i64 0, i64 %102
  store i64 %103, i64* %98, align 8
  %104 = getelementptr inbounds %"class.performance_manager::mojom::ProcessCoordinationUnitProxy", %"class.performance_manager::mojom::ProcessCoordinationUnitProxy"* %0, i64 0, i32 1
  %105 = bitcast %"class.mojo::MessageReceiverWithResponder"** %104 to %"class.mojo::MessageReceiver"**
  %106 = load %"class.mojo::MessageReceiver"*, %"class.mojo::MessageReceiver"** %105, align 8
  %107 = bitcast %"class.mojo::MessageReceiver"* %106 to i1 (%"class.mojo::MessageReceiver"*, %"class.mojo::Message"*)***
  %108 = load i1 (%"class.mojo::MessageReceiver"*, %"class.mojo::Message"*)**, i1 (%"class.mojo::MessageReceiver"*, %"class.mojo::Message"*)*** %107, align 8
  %109 = getelementptr inbounds i1 (%"class.mojo::MessageReceiver"*, %"class.mojo::Message"*)*, i1 (%"class.mojo::MessageReceiver"*, %"class.mojo::Message"*)** %108, i64 3
  %110 = load i1 (%"class.mojo::MessageReceiver"*, %"class.mojo::Message"*)*, i1 (%"class.mojo::MessageReceiver"*, %"class.mojo::Message"*)** %109, align 8
  %111 = call zeroext i1 %110(%"class.mojo::MessageReceiver"* %106, %"class.mojo::Message"* nonnull %4) #9
  call void @_ZN4mojo7MessageD1Ev(%"class.mojo::Message"* nonnull %4) #9
  call void @llvm.lifetime.end.p0i8(i64 120, i8* nonnull %5) #9
  ret void
}

; Function Attrs: nounwind ssp uwtable
define hidden void @_ZN19performance_manager5mojom28ProcessCoordinationUnitProxy28FireBackgroundTracingTriggerERKNSt3__112basic_stringIcNS2_11char_traitsIcEENS2_9allocatorIcEEEE(%"class.performance_manager::mojom::ProcessCoordinationUnitProxy"* nocapture readonly, %"class.std::__1::basic_string"* dereferenceable(24)) unnamed_addr #1 align 2 {
  %3 = alloca %"class.mojo::Message", align 8
  %4 = alloca %"class.mojo::internal::MessageFragment.121", align 8
  %5 = bitcast %"class.mojo::Message"* %3 to i8*
  call void @llvm.lifetime.start.p0i8(i64 120, i8* nonnull %5) #9
  call void @llvm.memset.p0i8.i64(i8* nonnull align 8 %5, i8 -86, i64 120, i1 false)
  call void @_ZN4mojo7MessageC1EjjmmPNSt3__16vectorINS_16ScopedHandleBaseINS_6HandleEEENS1_9allocatorIS5_EEEE(%"class.mojo::Message"* nonnull %3, i32 848143133, i32 0, i64 0, i64 0, %"class.std::__1::vector"* null) #9
  %6 = getelementptr inbounds %"class.mojo::Message", %"class.mojo::Message"* %3, i64 0, i32 1
  %7 = call i64 @_ZN4mojo8internal6Buffer8AllocateEm(%"class.mojo::internal::Buffer"* %6, i64 16) #9
  %8 = getelementptr inbounds %"class.mojo::Message", %"class.mojo::Message"* %3, i64 0, i32 1, i32 2
  %9 = load i8*, i8** %8, align 8
  %10 = getelementptr inbounds i8, i8* %9, i64 %7
  %11 = bitcast i8* %10 to %"class.performance_manager::mojom::internal::ProcessCoordinationUnit_FireBackgroundTracingTrigger_Params_Data"*
  call void @_ZN19performance_manager5mojom8internal64ProcessCoordinationUnit_FireBackgroundTracingTrigger_Params_DataC1Ev(%"class.performance_manager::mojom::internal::ProcessCoordinationUnit_FireBackgroundTracingTrigger_Params_Data"* %11) #9
  %12 = bitcast %"class.mojo::internal::MessageFragment.121"* %4 to i8*
  call void @llvm.lifetime.start.p0i8(i64 16, i8* nonnull %12) #9
  %13 = getelementptr inbounds %"class.mojo::internal::MessageFragment.121", %"class.mojo::internal::MessageFragment.121"* %4, i64 0, i32 0
  %14 = getelementptr inbounds %"class.mojo::internal::MessageFragment.121", %"class.mojo::internal::MessageFragment.121"* %4, i64 0, i32 1
  store %"class.mojo::Message"* %3, %"class.mojo::Message"** %13, align 8
  store i64 -1, i64* %14, align 8
  call void @_ZN4mojo8internal10SerializerINS_14StringDataViewEKNSt3__112basic_stringIcNS3_11char_traitsIcEENS3_9allocatorIcEEEEE9SerializeERSA_RNS0_15MessageFragmentINS0_10Array_DataIcEEEE(%"class.std::__1::basic_string"* dereferenceable(24) %1, %"class.mojo::internal::MessageFragment.121"* nonnull dereferenceable(16) %4) #9
  %15 = load i8*, i8** %8, align 8
  %16 = getelementptr inbounds i8, i8* %15, i64 %7
  %17 = getelementptr inbounds i8, i8* %16, i64 8
  %18 = load i64, i64* %14, align 8
  %19 = icmp eq i64 %18, -1
  br i1 %19, label %26, label %20

20:                                               ; preds = %2
  %21 = load %"class.mojo::Message"*, %"class.mojo::Message"** %13, align 8
  %22 = getelementptr inbounds %"class.mojo::Message", %"class.mojo::Message"* %21, i64 0, i32 1, i32 2
  %23 = load i8*, i8** %22, align 8
  %24 = getelementptr inbounds i8, i8* %23, i64 %18
  %25 = bitcast i8* %24 to %"class.mojo::internal::Array_Data"*
  br label %26

26:                                               ; preds = %2, %20
  %27 = phi %"class.mojo::internal::Array_Data"* [ %25, %20 ], [ null, %2 ]
  %28 = bitcast i8* %17 to i64*
  %29 = icmp eq %"class.mojo::internal::Array_Data"* %27, null
  %30 = ptrtoint %"class.mojo::internal::Array_Data"* %27 to i64
  %31 = ptrtoint i8* %17 to i64
  %32 = sub i64 %30, %31
  %33 = select i1 %29, i64 0, i64 %32
  store i64 %33, i64* %28, align 8
  %34 = getelementptr inbounds %"class.performance_manager::mojom::ProcessCoordinationUnitProxy", %"class.performance_manager::mojom::ProcessCoordinationUnitProxy"* %0, i64 0, i32 1
  %35 = bitcast %"class.mojo::MessageReceiverWithResponder"** %34 to %"class.mojo::MessageReceiver"**
  %36 = load %"class.mojo::MessageReceiver"*, %"class.mojo::MessageReceiver"** %35, align 8
  %37 = bitcast %"class.mojo::MessageReceiver"* %36 to i1 (%"class.mojo::MessageReceiver"*, %"class.mojo::Message"*)***
  %38 = load i1 (%"class.mojo::MessageReceiver"*, %"class.mojo::Message"*)**, i1 (%"class.mojo::MessageReceiver"*, %"class.mojo::Message"*)*** %37, align 8
  %39 = getelementptr inbounds i1 (%"class.mojo::MessageReceiver"*, %"class.mojo::Message"*)*, i1 (%"class.mojo::MessageReceiver"*, %"class.mojo::Message"*)** %38, i64 3
  %40 = load i1 (%"class.mojo::MessageReceiver"*, %"class.mojo::Message"*)*, i1 (%"class.mojo::MessageReceiver"*, %"class.mojo::Message"*)** %39, align 8
  %41 = call zeroext i1 %40(%"class.mojo::MessageReceiver"* %36, %"class.mojo::Message"* nonnull %3) #9
  call void @llvm.lifetime.end.p0i8(i64 16, i8* nonnull %12) #9
  call void @_ZN4mojo7MessageD1Ev(%"class.mojo::Message"* nonnull %3) #9
  call void @llvm.lifetime.end.p0i8(i64 120, i8* nonnull %5) #9
  ret void
}

; Function Attrs: nounwind ssp uwtable
define hidden zeroext i1 @_ZN19performance_manager5mojom35ProcessCoordinationUnitStubDispatch6AcceptEPNS0_23ProcessCoordinationUnitEPN4mojo7MessageE(%"class.performance_manager::mojom::ProcessCoordinationUnit"*, %"class.mojo::Message"*) local_unnamed_addr #1 align 2 {
  %3 = alloca %"class.base::UnguessableToken", align 8
  %4 = alloca %"class.base::UnguessableToken", align 8
  %5 = alloca %"class.base::UnguessableToken", align 8
  %6 = alloca %"class.base::UnguessableToken", align 8
  %7 = alloca %"class.base::UnguessableToken", align 8
  %8 = alloca %"class.base::UnguessableToken", align 8
  %9 = alloca %"class.base::TaskAnnotator::ScopedSetIpcHash", align 8
  %10 = alloca %"class.base::TaskAnnotator::ScopedSetIpcHash", align 8
  %11 = alloca %"class.mojo::StructPtr.78", align 8
  %12 = alloca %"class.mojo::InlinedStructPtr.90", align 8
  %13 = alloca %"class.mojo::StructPtr.78", align 8
  %14 = alloca %"class.mojo::InlinedStructPtr.90", align 8
  %15 = alloca %"class.base::TaskAnnotator::ScopedSetIpcHash", align 8
  %16 = alloca %"class.util::TokenType", align 8
  %17 = alloca %"class.base::TaskAnnotator::ScopedSetIpcHash", align 8
  %18 = alloca %"class.util::TokenType", align 8
  %19 = alloca %"class.base::TaskAnnotator::ScopedSetIpcHash", align 8
  %20 = alloca %"class.util::TokenType.111", align 8
  %21 = alloca %"class.util::TokenType.113", align 8
  %22 = alloca %"class.mojo::InlinedStructPtr.90", align 8
  %23 = alloca %"class.mojo::InlinedStructPtr.90", align 8
  %24 = alloca %"class.base::TaskAnnotator::ScopedSetIpcHash", align 8
  %25 = alloca %"class.util::TokenType.111", align 8
  %26 = alloca %"class.util::TokenType.113", align 8
  %27 = alloca %"class.base::TaskAnnotator::ScopedSetIpcHash", align 8
  %28 = alloca %"class.std::__1::basic_string", align 8
  %29 = getelementptr inbounds %"class.mojo::Message", %"class.mojo::Message"* %1, i64 0, i32 1, i32 2
  %30 = bitcast i8** %29 to %"struct.mojo::internal::MessageHeader"**
  %31 = load %"struct.mojo::internal::MessageHeader"*, %"struct.mojo::internal::MessageHeader"** %30, align 8
  %32 = getelementptr inbounds %"struct.mojo::internal::MessageHeader", %"struct.mojo::internal::MessageHeader"* %31, i64 0, i32 2
  %33 = load i32, i32* %32, align 1
  switch i32 %33, label %350 [
    i32 1709431770, label %34
    i32 1387325631, label %45
    i32 1549428483, label %95
    i32 84862611, label %128
    i32 2118358163, label %161
    i32 2094988133, label %234
    i32 848143133, label %291
  ]

34:                                               ; preds = %2
  %35 = bitcast %"class.base::TaskAnnotator::ScopedSetIpcHash"* %9 to i8*
  call void @llvm.lifetime.start.p0i8(i64 24, i8* nonnull %35) #9
  call void @llvm.memset.p0i8.i64(i8* nonnull align 8 %35, i8 -86, i64 24, i1 false)
  call void @_ZN4base13TaskAnnotator16ScopedSetIpcHashC1Ej(%"class.base::TaskAnnotator::ScopedSetIpcHash"* nonnull %9, i32 -123647071) #9
  %36 = call i8* @_ZNK4mojo7Message7payloadEv(%"class.mojo::Message"* %1) #9
  %37 = getelementptr inbounds i8, i8* %36, i64 8
  %38 = load i8, i8* %37, align 1
  %39 = and i8 %38, 1
  %40 = icmp ne i8 %39, 0
  %41 = bitcast %"class.performance_manager::mojom::ProcessCoordinationUnit"* %0 to void (%"class.performance_manager::mojom::ProcessCoordinationUnit"*, i1)***
  %42 = load void (%"class.performance_manager::mojom::ProcessCoordinationUnit"*, i1)**, void (%"class.performance_manager::mojom::ProcessCoordinationUnit"*, i1)*** %41, align 8
  %43 = getelementptr inbounds void (%"class.performance_manager::mojom::ProcessCoordinationUnit"*, i1)*, void (%"class.performance_manager::mojom::ProcessCoordinationUnit"*, i1)** %42, i64 2
  %44 = load void (%"class.performance_manager::mojom::ProcessCoordinationUnit"*, i1)*, void (%"class.performance_manager::mojom::ProcessCoordinationUnit"*, i1)** %43, align 8
  call void %44(%"class.performance_manager::mojom::ProcessCoordinationUnit"* %0, i1 zeroext %40) #9
  br label %346

45:                                               ; preds = %2
  %46 = bitcast %"class.base::TaskAnnotator::ScopedSetIpcHash"* %10 to i8*
  call void @llvm.lifetime.start.p0i8(i64 24, i8* nonnull %46) #9
  call void @llvm.memset.p0i8.i64(i8* nonnull align 8 %46, i8 -86, i64 24, i1 false)
  call void @_ZN4base13TaskAnnotator16ScopedSetIpcHashC1Ej(%"class.base::TaskAnnotator::ScopedSetIpcHash"* nonnull %10, i32 -321227301) #9
  %47 = call i8* @_ZNK4mojo7Message7payloadEv(%"class.mojo::Message"* %1) #9
  %48 = bitcast %"class.mojo::StructPtr.78"* %11 to i8*
  call void @llvm.lifetime.start.p0i8(i64 8, i8* nonnull %48) #9
  %49 = getelementptr inbounds %"class.mojo::StructPtr.78", %"class.mojo::StructPtr.78"* %11, i64 0, i32 0, i32 0, i32 0, i32 0
  %50 = bitcast %"class.mojo::StructPtr.78"* %11 to i64*
  store i64 0, i64* %50, align 8
  %51 = getelementptr inbounds %"class.mojo::InlinedStructPtr.90", %"class.mojo::InlinedStructPtr.90"* %12, i64 0, i32 0, i32 0, i32 0, i32 0, i32 0, i32 0
  call void @llvm.lifetime.start.p0i8(i64 72, i8* nonnull %51) #9
  call void @llvm.memset.p0i8.i64(i8* nonnull align 8 %51, i8 0, i64 72, i1 false)
  %52 = getelementptr inbounds %"class.mojo::InlinedStructPtr.90", %"class.mojo::InlinedStructPtr.90"* %12, i64 0, i32 0
  call void @_ZN19performance_manager5mojom21IframeAttributionDataC1Ev(%"class.performance_manager::mojom::IframeAttributionData"* nonnull %52) #9
  %53 = getelementptr inbounds %"class.mojo::InlinedStructPtr.90", %"class.mojo::InlinedStructPtr.90"* %12, i64 0, i32 1
  store i32 0, i32* %53, align 8
  %54 = getelementptr inbounds i8, i8* %47, i64 8
  %55 = bitcast i8* %54 to i64*
  %56 = load i64, i64* %55, align 8
  %57 = icmp eq i64 %56, 0
  br i1 %57, label %58, label %59

58:                                               ; preds = %45
  store %"class.performance_manager::mojom::V8ContextDescription"* null, %"class.performance_manager::mojom::V8ContextDescription"** %49, align 8
  br label %63

59:                                               ; preds = %45
  %60 = getelementptr inbounds i8, i8* %54, i64 %56
  %61 = bitcast i8* %60 to %"class.performance_manager::mojom::internal::V8ContextDescription_Data"*
  %62 = call zeroext i1 @_ZN4mojo12StructTraitsIN19performance_manager5mojom28V8ContextDescriptionDataViewENS_9StructPtrINS2_20V8ContextDescriptionEEEE4ReadES3_PS6_(%"class.performance_manager::mojom::internal::V8ContextDescription_Data"* nonnull %61, %"class.mojo::Message"* %1, %"class.mojo::StructPtr.78"* nonnull %11) #9
  br i1 %62, label %63, label %73

63:                                               ; preds = %58, %59
  %64 = getelementptr inbounds i8, i8* %47, i64 16
  %65 = bitcast i8* %64 to i64*
  %66 = load i64, i64* %65, align 8
  %67 = icmp eq i64 %66, 0
  br i1 %67, label %68, label %69

68:                                               ; preds = %63
  store i32 0, i32* %53, align 8
  call void @_ZN19performance_manager5mojom21IframeAttributionDataD1Ev(%"class.performance_manager::mojom::IframeAttributionData"* nonnull %52) #9
  call void @_ZN19performance_manager5mojom21IframeAttributionDataC1Ev(%"class.performance_manager::mojom::IframeAttributionData"* nonnull %52) #9
  br label %74

69:                                               ; preds = %63
  %70 = getelementptr inbounds i8, i8* %64, i64 %66
  %71 = bitcast i8* %70 to %"class.performance_manager::mojom::internal::IframeAttributionData_Data"*
  %72 = call zeroext i1 @_ZN4mojo12StructTraitsIN19performance_manager5mojom29IframeAttributionDataDataViewENS_16InlinedStructPtrINS2_21IframeAttributionDataEEEE4ReadES3_PS6_(%"class.performance_manager::mojom::internal::IframeAttributionData_Data"* nonnull %71, %"class.mojo::Message"* %1, %"class.mojo::InlinedStructPtr.90"* nonnull %12) #9
  br i1 %72, label %74, label %73

73:                                               ; preds = %59, %69
  call void @_ZN4mojo8internal31ReportValidationErrorForMessageEPNS_7MessageENS0_15ValidationErrorEPKcjb(%"class.mojo::Message"* %1, i32 17, i8* getelementptr inbounds ([50 x i8], [50 x i8]* @_ZN19performance_manager5mojom23ProcessCoordinationUnit5Name_E, i64 0, i64 0), i32 1, i1 zeroext false) #9
  br label %88

74:                                               ; preds = %68, %69
  %75 = bitcast %"class.mojo::StructPtr.78"* %13 to i64*
  %76 = getelementptr inbounds %"class.mojo::StructPtr.78", %"class.mojo::StructPtr.78"* %13, i64 0, i32 0, i32 0, i32 0, i32 0
  %77 = load i64, i64* %50, align 8
  store i64 %77, i64* %75, align 8
  store i64 0, i64* %50, align 8
  %78 = getelementptr inbounds %"class.mojo::InlinedStructPtr.90", %"class.mojo::InlinedStructPtr.90"* %14, i64 0, i32 0
  call void @_ZN19performance_manager5mojom21IframeAttributionDataC1Ev(%"class.performance_manager::mojom::IframeAttributionData"* nonnull %78) #9
  %79 = getelementptr inbounds %"class.mojo::InlinedStructPtr.90", %"class.mojo::InlinedStructPtr.90"* %14, i64 0, i32 1
  store i32 0, i32* %79, align 8
  call void @_ZN19performance_manager5mojom21IframeAttributionDataD1Ev(%"class.performance_manager::mojom::IframeAttributionData"* nonnull %78) #9
  call void @_ZN19performance_manager5mojom21IframeAttributionDataC1Ev(%"class.performance_manager::mojom::IframeAttributionData"* nonnull %78) #9
  call void @_ZN4mojo16InlinedStructPtrIN19performance_manager5mojom21IframeAttributionDataEE4SwapEPS4_(%"class.mojo::InlinedStructPtr.90"* nonnull %14, %"class.mojo::InlinedStructPtr.90"* nonnull %12) #9
  %80 = bitcast %"class.performance_manager::mojom::ProcessCoordinationUnit"* %0 to void (%"class.performance_manager::mojom::ProcessCoordinationUnit"*, %"class.mojo::StructPtr.78"*, %"class.mojo::InlinedStructPtr.90"*)***
  %81 = load void (%"class.performance_manager::mojom::ProcessCoordinationUnit"*, %"class.mojo::StructPtr.78"*, %"class.mojo::InlinedStructPtr.90"*)**, void (%"class.performance_manager::mojom::ProcessCoordinationUnit"*, %"class.mojo::StructPtr.78"*, %"class.mojo::InlinedStructPtr.90"*)*** %80, align 8
  %82 = getelementptr inbounds void (%"class.performance_manager::mojom::ProcessCoordinationUnit"*, %"class.mojo::StructPtr.78"*, %"class.mojo::InlinedStructPtr.90"*)*, void (%"class.performance_manager::mojom::ProcessCoordinationUnit"*, %"class.mojo::StructPtr.78"*, %"class.mojo::InlinedStructPtr.90"*)** %81, i64 3
  %83 = load void (%"class.performance_manager::mojom::ProcessCoordinationUnit"*, %"class.mojo::StructPtr.78"*, %"class.mojo::InlinedStructPtr.90"*)*, void (%"class.performance_manager::mojom::ProcessCoordinationUnit"*, %"class.mojo::StructPtr.78"*, %"class.mojo::InlinedStructPtr.90"*)** %82, align 8
  call void %83(%"class.performance_manager::mojom::ProcessCoordinationUnit"* %0, %"class.mojo::StructPtr.78"* nonnull %13, %"class.mojo::InlinedStructPtr.90"* nonnull %14) #9
  call void @_ZN19performance_manager5mojom21IframeAttributionDataD1Ev(%"class.performance_manager::mojom::IframeAttributionData"* nonnull %78) #9
  %84 = load %"class.performance_manager::mojom::V8ContextDescription"*, %"class.performance_manager::mojom::V8ContextDescription"** %76, align 8
  store %"class.performance_manager::mojom::V8ContextDescription"* null, %"class.performance_manager::mojom::V8ContextDescription"** %76, align 8
  %85 = icmp eq %"class.performance_manager::mojom::V8ContextDescription"* %84, null
  br i1 %85, label %88, label %86

86:                                               ; preds = %74
  call void @_ZN19performance_manager5mojom20V8ContextDescriptionD1Ev(%"class.performance_manager::mojom::V8ContextDescription"* nonnull %84) #9
  %87 = bitcast %"class.performance_manager::mojom::V8ContextDescription"* %84 to i8*
  call void @_ZdlPv(i8* %87) #10
  br label %88

88:                                               ; preds = %86, %74, %73
  %89 = phi i1 [ false, %73 ], [ true, %74 ], [ true, %86 ]
  call void @_ZN19performance_manager5mojom21IframeAttributionDataD1Ev(%"class.performance_manager::mojom::IframeAttributionData"* nonnull %52) #9
  call void @llvm.lifetime.end.p0i8(i64 72, i8* nonnull %51) #9
  %90 = load %"class.performance_manager::mojom::V8ContextDescription"*, %"class.performance_manager::mojom::V8ContextDescription"** %49, align 8
  store %"class.performance_manager::mojom::V8ContextDescription"* null, %"class.performance_manager::mojom::V8ContextDescription"** %49, align 8
  %91 = icmp eq %"class.performance_manager::mojom::V8ContextDescription"* %90, null
  br i1 %91, label %94, label %92

92:                                               ; preds = %88
  call void @_ZN19performance_manager5mojom20V8ContextDescriptionD1Ev(%"class.performance_manager::mojom::V8ContextDescription"* nonnull %90) #9
  %93 = bitcast %"class.performance_manager::mojom::V8ContextDescription"* %90 to i8*
  call void @_ZdlPv(i8* %93) #10
  br label %94

94:                                               ; preds = %88, %92
  call void @llvm.lifetime.end.p0i8(i64 8, i8* nonnull %48) #9
  br label %346

95:                                               ; preds = %2
  %96 = bitcast %"class.base::TaskAnnotator::ScopedSetIpcHash"* %15 to i8*
  call void @llvm.lifetime.start.p0i8(i64 24, i8* nonnull %96) #9
  call void @llvm.memset.p0i8.i64(i8* nonnull align 8 %96, i8 -86, i64 24, i1 false)
  call void @_ZN4base13TaskAnnotator16ScopedSetIpcHashC1Ej(%"class.base::TaskAnnotator::ScopedSetIpcHash"* nonnull %15, i32 -518507329) #9
  %97 = call i8* @_ZNK4mojo7Message7payloadEv(%"class.mojo::Message"* %1) #9
  %98 = bitcast %"class.util::TokenType"* %16 to i8*
  call void @llvm.lifetime.start.p0i8(i64 16, i8* nonnull %98) #9
  %99 = getelementptr inbounds %"class.util::TokenType", %"class.util::TokenType"* %16, i64 0, i32 0, i32 0, i32 0, i32 0
  %100 = getelementptr inbounds %"class.util::TokenType", %"class.util::TokenType"* %16, i64 0, i32 0, i32 0, i32 0, i32 1
  %101 = call { i64, i64 } @_ZN4base16UnguessableToken6CreateEv() #9
  %102 = extractvalue { i64, i64 } %101, 0
  %103 = extractvalue { i64, i64 } %101, 1
  store i64 %102, i64* %99, align 8
  store i64 %103, i64* %100, align 8
  %104 = getelementptr inbounds i8, i8* %97, i64 8
  %105 = bitcast i8* %104 to i64*
  %106 = load i64, i64* %105, align 8
  %107 = icmp eq i64 %106, 0
  br i1 %107, label %121, label %108

108:                                              ; preds = %95
  %109 = getelementptr inbounds i8, i8* %104, i64 %106
  %110 = bitcast %"class.base::UnguessableToken"* %8 to i8*
  call void @llvm.lifetime.start.p0i8(i64 16, i8* nonnull %110) #9
  call void @llvm.memset.p0i8.i64(i8* nonnull align 8 %110, i8 0, i64 16, i1 false) #9
  %111 = getelementptr inbounds i8, i8* %109, i64 8
  %112 = bitcast i8* %111 to i64*
  %113 = load i64, i64* %112, align 8
  %114 = icmp eq i64 %113, 0
  br i1 %114, label %119, label %115

115:                                              ; preds = %108
  %116 = getelementptr inbounds i8, i8* %111, i64 %113
  %117 = bitcast i8* %116 to %"class.mojo_base::mojom::internal::UnguessableToken_Data"*
  %118 = call zeroext i1 @_ZN4mojo12StructTraitsIN9mojo_base5mojom24UnguessableTokenDataViewEN4base16UnguessableTokenEE4ReadES3_PS5_(%"class.mojo_base::mojom::internal::UnguessableToken_Data"* nonnull %117, %"class.base::UnguessableToken"* nonnull %8) #9
  br i1 %118, label %119, label %120

119:                                              ; preds = %108, %115
  call void @llvm.memcpy.p0i8.p0i8.i64(i8* nonnull align 8 %98, i8* nonnull align 8 %110, i64 16, i1 false) #9
  call void @llvm.lifetime.end.p0i8(i64 16, i8* nonnull %110) #9
  br label %121

120:                                              ; preds = %115
  call void @llvm.lifetime.end.p0i8(i64 16, i8* nonnull %110) #9
  call void @_ZN4mojo8internal31ReportValidationErrorForMessageEPNS_7MessageENS0_15ValidationErrorEPKcjb(%"class.mojo::Message"* %1, i32 17, i8* getelementptr inbounds ([50 x i8], [50 x i8]* @_ZN19performance_manager5mojom23ProcessCoordinationUnit5Name_E, i64 0, i64 0), i32 2, i1 zeroext false) #9
  br label %126

121:                                              ; preds = %95, %119
  %122 = bitcast %"class.performance_manager::mojom::ProcessCoordinationUnit"* %0 to void (%"class.performance_manager::mojom::ProcessCoordinationUnit"*, %"class.util::TokenType"*)***
  %123 = load void (%"class.performance_manager::mojom::ProcessCoordinationUnit"*, %"class.util::TokenType"*)**, void (%"class.performance_manager::mojom::ProcessCoordinationUnit"*, %"class.util::TokenType"*)*** %122, align 8
  %124 = getelementptr inbounds void (%"class.performance_manager::mojom::ProcessCoordinationUnit"*, %"class.util::TokenType"*)*, void (%"class.performance_manager::mojom::ProcessCoordinationUnit"*, %"class.util::TokenType"*)** %123, i64 4
  %125 = load void (%"class.performance_manager::mojom::ProcessCoordinationUnit"*, %"class.util::TokenType"*)*, void (%"class.performance_manager::mojom::ProcessCoordinationUnit"*, %"class.util::TokenType"*)** %124, align 8
  call void %125(%"class.performance_manager::mojom::ProcessCoordinationUnit"* %0, %"class.util::TokenType"* nonnull dereferenceable(16) %16) #9
  br label %126

126:                                              ; preds = %121, %120
  %127 = phi i1 [ true, %121 ], [ false, %120 ]
  call void @llvm.lifetime.end.p0i8(i64 16, i8* nonnull %98) #9
  br label %346

128:                                              ; preds = %2
  %129 = bitcast %"class.base::TaskAnnotator::ScopedSetIpcHash"* %17 to i8*
  call void @llvm.lifetime.start.p0i8(i64 24, i8* nonnull %129) #9
  call void @llvm.memset.p0i8.i64(i8* nonnull align 8 %129, i8 -86, i64 24, i1 false)
  call void @_ZN4base13TaskAnnotator16ScopedSetIpcHashC1Ej(%"class.base::TaskAnnotator::ScopedSetIpcHash"* nonnull %17, i32 742935319) #9
  %130 = call i8* @_ZNK4mojo7Message7payloadEv(%"class.mojo::Message"* %1) #9
  %131 = bitcast %"class.util::TokenType"* %18 to i8*
  call void @llvm.lifetime.start.p0i8(i64 16, i8* nonnull %131) #9
  %132 = getelementptr inbounds %"class.util::TokenType", %"class.util::TokenType"* %18, i64 0, i32 0, i32 0, i32 0, i32 0
  %133 = getelementptr inbounds %"class.util::TokenType", %"class.util::TokenType"* %18, i64 0, i32 0, i32 0, i32 0, i32 1
  %134 = call { i64, i64 } @_ZN4base16UnguessableToken6CreateEv() #9
  %135 = extractvalue { i64, i64 } %134, 0
  %136 = extractvalue { i64, i64 } %134, 1
  store i64 %135, i64* %132, align 8
  store i64 %136, i64* %133, align 8
  %137 = getelementptr inbounds i8, i8* %130, i64 8
  %138 = bitcast i8* %137 to i64*
  %139 = load i64, i64* %138, align 8
  %140 = icmp eq i64 %139, 0
  br i1 %140, label %154, label %141

141:                                              ; preds = %128
  %142 = getelementptr inbounds i8, i8* %137, i64 %139
  %143 = bitcast %"class.base::UnguessableToken"* %7 to i8*
  call void @llvm.lifetime.start.p0i8(i64 16, i8* nonnull %143) #9
  call void @llvm.memset.p0i8.i64(i8* nonnull align 8 %143, i8 0, i64 16, i1 false) #9
  %144 = getelementptr inbounds i8, i8* %142, i64 8
  %145 = bitcast i8* %144 to i64*
  %146 = load i64, i64* %145, align 8
  %147 = icmp eq i64 %146, 0
  br i1 %147, label %152, label %148

148:                                              ; preds = %141
  %149 = getelementptr inbounds i8, i8* %144, i64 %146
  %150 = bitcast i8* %149 to %"class.mojo_base::mojom::internal::UnguessableToken_Data"*
  %151 = call zeroext i1 @_ZN4mojo12StructTraitsIN9mojo_base5mojom24UnguessableTokenDataViewEN4base16UnguessableTokenEE4ReadES3_PS5_(%"class.mojo_base::mojom::internal::UnguessableToken_Data"* nonnull %150, %"class.base::UnguessableToken"* nonnull %7) #9
  br i1 %151, label %152, label %153

152:                                              ; preds = %141, %148
  call void @llvm.memcpy.p0i8.p0i8.i64(i8* nonnull align 8 %131, i8* nonnull align 8 %143, i64 16, i1 false) #9
  call void @llvm.lifetime.end.p0i8(i64 16, i8* nonnull %143) #9
  br label %154

153:                                              ; preds = %148
  call void @llvm.lifetime.end.p0i8(i64 16, i8* nonnull %143) #9
  call void @_ZN4mojo8internal31ReportValidationErrorForMessageEPNS_7MessageENS0_15ValidationErrorEPKcjb(%"class.mojo::Message"* %1, i32 17, i8* getelementptr inbounds ([50 x i8], [50 x i8]* @_ZN19performance_manager5mojom23ProcessCoordinationUnit5Name_E, i64 0, i64 0), i32 3, i1 zeroext false) #9
  br label %159

154:                                              ; preds = %128, %152
  %155 = bitcast %"class.performance_manager::mojom::ProcessCoordinationUnit"* %0 to void (%"class.performance_manager::mojom::ProcessCoordinationUnit"*, %"class.util::TokenType"*)***
  %156 = load void (%"class.performance_manager::mojom::ProcessCoordinationUnit"*, %"class.util::TokenType"*)**, void (%"class.performance_manager::mojom::ProcessCoordinationUnit"*, %"class.util::TokenType"*)*** %155, align 8
  %157 = getelementptr inbounds void (%"class.performance_manager::mojom::ProcessCoordinationUnit"*, %"class.util::TokenType"*)*, void (%"class.performance_manager::mojom::ProcessCoordinationUnit"*, %"class.util::TokenType"*)** %156, i64 5
  %158 = load void (%"class.performance_manager::mojom::ProcessCoordinationUnit"*, %"class.util::TokenType"*)*, void (%"class.performance_manager::mojom::ProcessCoordinationUnit"*, %"class.util::TokenType"*)** %157, align 8
  call void %158(%"class.performance_manager::mojom::ProcessCoordinationUnit"* %0, %"class.util::TokenType"* nonnull dereferenceable(16) %18) #9
  br label %159

159:                                              ; preds = %154, %153
  %160 = phi i1 [ true, %154 ], [ false, %153 ]
  call void @llvm.lifetime.end.p0i8(i64 16, i8* nonnull %131) #9
  br label %346

161:                                              ; preds = %2
  %162 = bitcast %"class.base::TaskAnnotator::ScopedSetIpcHash"* %19 to i8*
  call void @llvm.lifetime.start.p0i8(i64 24, i8* nonnull %162) #9
  call void @llvm.memset.p0i8.i64(i8* nonnull align 8 %162, i8 -86, i64 24, i1 false)
  call void @_ZN4base13TaskAnnotator16ScopedSetIpcHashC1Ej(%"class.base::TaskAnnotator::ScopedSetIpcHash"* nonnull %19, i32 -1076828003) #9
  %163 = call i8* @_ZNK4mojo7Message7payloadEv(%"class.mojo::Message"* %1) #9
  %164 = bitcast %"class.util::TokenType.111"* %20 to i8*
  call void @llvm.lifetime.start.p0i8(i64 16, i8* nonnull %164) #9
  %165 = getelementptr inbounds %"class.util::TokenType.111", %"class.util::TokenType.111"* %20, i64 0, i32 0, i32 0, i32 0, i32 0
  %166 = getelementptr inbounds %"class.util::TokenType.111", %"class.util::TokenType.111"* %20, i64 0, i32 0, i32 0, i32 0, i32 1
  %167 = call { i64, i64 } @_ZN4base16UnguessableToken6CreateEv() #9
  %168 = extractvalue { i64, i64 } %167, 0
  %169 = extractvalue { i64, i64 } %167, 1
  store i64 %168, i64* %165, align 8
  store i64 %169, i64* %166, align 8
  %170 = bitcast %"class.util::TokenType.113"* %21 to i8*
  call void @llvm.lifetime.start.p0i8(i64 16, i8* nonnull %170) #9
  %171 = getelementptr inbounds %"class.util::TokenType.113", %"class.util::TokenType.113"* %21, i64 0, i32 0, i32 0, i32 0, i32 0
  %172 = getelementptr inbounds %"class.util::TokenType.113", %"class.util::TokenType.113"* %21, i64 0, i32 0, i32 0, i32 0, i32 1
  %173 = call { i64, i64 } @_ZN4base16UnguessableToken6CreateEv() #9
  %174 = extractvalue { i64, i64 } %173, 0
  %175 = extractvalue { i64, i64 } %173, 1
  store i64 %174, i64* %171, align 8
  store i64 %175, i64* %172, align 8
  %176 = getelementptr inbounds %"class.mojo::InlinedStructPtr.90", %"class.mojo::InlinedStructPtr.90"* %22, i64 0, i32 0, i32 0, i32 0, i32 0, i32 0, i32 0
  call void @llvm.lifetime.start.p0i8(i64 72, i8* nonnull %176) #9
  call void @llvm.memset.p0i8.i64(i8* nonnull align 8 %176, i8 0, i64 72, i1 false)
  %177 = getelementptr inbounds %"class.mojo::InlinedStructPtr.90", %"class.mojo::InlinedStructPtr.90"* %22, i64 0, i32 0
  call void @_ZN19performance_manager5mojom21IframeAttributionDataC1Ev(%"class.performance_manager::mojom::IframeAttributionData"* nonnull %177) #9
  %178 = getelementptr inbounds %"class.mojo::InlinedStructPtr.90", %"class.mojo::InlinedStructPtr.90"* %22, i64 0, i32 1
  store i32 0, i32* %178, align 8
  %179 = getelementptr inbounds i8, i8* %163, i64 8
  %180 = bitcast i8* %179 to i64*
  %181 = load i64, i64* %180, align 8
  %182 = icmp eq i64 %181, 0
  br i1 %182, label %195, label %183

183:                                              ; preds = %161
  %184 = getelementptr inbounds i8, i8* %179, i64 %181
  %185 = bitcast %"class.base::UnguessableToken"* %6 to i8*
  call void @llvm.lifetime.start.p0i8(i64 16, i8* nonnull %185) #9
  call void @llvm.memset.p0i8.i64(i8* nonnull align 8 %185, i8 0, i64 16, i1 false) #9
  %186 = getelementptr inbounds i8, i8* %184, i64 8
  %187 = bitcast i8* %186 to i64*
  %188 = load i64, i64* %187, align 8
  %189 = icmp eq i64 %188, 0
  br i1 %189, label %194, label %190

190:                                              ; preds = %183
  %191 = getelementptr inbounds i8, i8* %186, i64 %188
  %192 = bitcast i8* %191 to %"class.mojo_base::mojom::internal::UnguessableToken_Data"*
  %193 = call zeroext i1 @_ZN4mojo12StructTraitsIN9mojo_base5mojom24UnguessableTokenDataViewEN4base16UnguessableTokenEE4ReadES3_PS5_(%"class.mojo_base::mojom::internal::UnguessableToken_Data"* nonnull %192, %"class.base::UnguessableToken"* nonnull %6) #9
  br i1 %193, label %194, label %222

194:                                              ; preds = %183, %190
  call void @llvm.memcpy.p0i8.p0i8.i64(i8* nonnull align 8 %164, i8* nonnull align 8 %185, i64 16, i1 false) #9
  call void @llvm.lifetime.end.p0i8(i64 16, i8* nonnull %185) #9
  br label %195

195:                                              ; preds = %161, %194
  %196 = getelementptr inbounds i8, i8* %163, i64 16
  %197 = bitcast i8* %196 to i64*
  %198 = load i64, i64* %197, align 8
  %199 = icmp eq i64 %198, 0
  br i1 %199, label %212, label %200

200:                                              ; preds = %195
  %201 = getelementptr inbounds i8, i8* %196, i64 %198
  %202 = bitcast %"class.base::UnguessableToken"* %5 to i8*
  call void @llvm.lifetime.start.p0i8(i64 16, i8* nonnull %202) #9
  call void @llvm.memset.p0i8.i64(i8* nonnull align 8 %202, i8 0, i64 16, i1 false) #9
  %203 = getelementptr inbounds i8, i8* %201, i64 8
  %204 = bitcast i8* %203 to i64*
  %205 = load i64, i64* %204, align 8
  %206 = icmp eq i64 %205, 0
  br i1 %206, label %211, label %207

207:                                              ; preds = %200
  %208 = getelementptr inbounds i8, i8* %203, i64 %205
  %209 = bitcast i8* %208 to %"class.mojo_base::mojom::internal::UnguessableToken_Data"*
  %210 = call zeroext i1 @_ZN4mojo12StructTraitsIN9mojo_base5mojom24UnguessableTokenDataViewEN4base16UnguessableTokenEE4ReadES3_PS5_(%"class.mojo_base::mojom::internal::UnguessableToken_Data"* nonnull %209, %"class.base::UnguessableToken"* nonnull %5) #9
  br i1 %210, label %211, label %222

211:                                              ; preds = %200, %207
  call void @llvm.memcpy.p0i8.p0i8.i64(i8* nonnull align 8 %170, i8* nonnull align 8 %202, i64 16, i1 false) #9
  call void @llvm.lifetime.end.p0i8(i64 16, i8* nonnull %202) #9
  br label %212

212:                                              ; preds = %195, %211
  %213 = getelementptr inbounds i8, i8* %163, i64 24
  %214 = bitcast i8* %213 to i64*
  %215 = load i64, i64* %214, align 8
  %216 = icmp eq i64 %215, 0
  br i1 %216, label %217, label %218

217:                                              ; preds = %212
  store i32 0, i32* %178, align 8
  call void @_ZN19performance_manager5mojom21IframeAttributionDataD1Ev(%"class.performance_manager::mojom::IframeAttributionData"* nonnull %177) #9
  call void @_ZN19performance_manager5mojom21IframeAttributionDataC1Ev(%"class.performance_manager::mojom::IframeAttributionData"* nonnull %177) #9
  br label %225

218:                                              ; preds = %212
  %219 = getelementptr inbounds i8, i8* %213, i64 %215
  %220 = bitcast i8* %219 to %"class.performance_manager::mojom::internal::IframeAttributionData_Data"*
  %221 = call zeroext i1 @_ZN4mojo12StructTraitsIN19performance_manager5mojom29IframeAttributionDataDataViewENS_16InlinedStructPtrINS2_21IframeAttributionDataEEEE4ReadES3_PS6_(%"class.performance_manager::mojom::internal::IframeAttributionData_Data"* nonnull %220, %"class.mojo::Message"* %1, %"class.mojo::InlinedStructPtr.90"* nonnull %22) #9
  br i1 %221, label %225, label %224

222:                                              ; preds = %207, %190
  %223 = phi i8* [ %185, %190 ], [ %202, %207 ]
  call void @llvm.lifetime.end.p0i8(i64 16, i8* nonnull %223) #9
  br label %224

224:                                              ; preds = %222, %218
  call void @_ZN4mojo8internal31ReportValidationErrorForMessageEPNS_7MessageENS0_15ValidationErrorEPKcjb(%"class.mojo::Message"* %1, i32 17, i8* getelementptr inbounds ([50 x i8], [50 x i8]* @_ZN19performance_manager5mojom23ProcessCoordinationUnit5Name_E, i64 0, i64 0), i32 4, i1 zeroext false) #9
  br label %232

225:                                              ; preds = %217, %218
  %226 = getelementptr inbounds %"class.mojo::InlinedStructPtr.90", %"class.mojo::InlinedStructPtr.90"* %23, i64 0, i32 0
  call void @_ZN19performance_manager5mojom21IframeAttributionDataC1Ev(%"class.performance_manager::mojom::IframeAttributionData"* nonnull %226) #9
  %227 = getelementptr inbounds %"class.mojo::InlinedStructPtr.90", %"class.mojo::InlinedStructPtr.90"* %23, i64 0, i32 1
  store i32 0, i32* %227, align 8
  call void @_ZN19performance_manager5mojom21IframeAttributionDataD1Ev(%"class.performance_manager::mojom::IframeAttributionData"* nonnull %226) #9
  call void @_ZN19performance_manager5mojom21IframeAttributionDataC1Ev(%"class.performance_manager::mojom::IframeAttributionData"* nonnull %226) #9
  call void @_ZN4mojo16InlinedStructPtrIN19performance_manager5mojom21IframeAttributionDataEE4SwapEPS4_(%"class.mojo::InlinedStructPtr.90"* nonnull %23, %"class.mojo::InlinedStructPtr.90"* nonnull %22) #9
  %228 = bitcast %"class.performance_manager::mojom::ProcessCoordinationUnit"* %0 to void (%"class.performance_manager::mojom::ProcessCoordinationUnit"*, %"class.util::TokenType.111"*, %"class.util::TokenType.113"*, %"class.mojo::InlinedStructPtr.90"*)***
  %229 = load void (%"class.performance_manager::mojom::ProcessCoordinationUnit"*, %"class.util::TokenType.111"*, %"class.util::TokenType.113"*, %"class.mojo::InlinedStructPtr.90"*)**, void (%"class.performance_manager::mojom::ProcessCoordinationUnit"*, %"class.util::TokenType.111"*, %"class.util::TokenType.113"*, %"class.mojo::InlinedStructPtr.90"*)*** %228, align 8
  %230 = getelementptr inbounds void (%"class.performance_manager::mojom::ProcessCoordinationUnit"*, %"class.util::TokenType.111"*, %"class.util::TokenType.113"*, %"class.mojo::InlinedStructPtr.90"*)*, void (%"class.performance_manager::mojom::ProcessCoordinationUnit"*, %"class.util::TokenType.111"*, %"class.util::TokenType.113"*, %"class.mojo::InlinedStructPtr.90"*)** %229, i64 6
  %231 = load void (%"class.performance_manager::mojom::ProcessCoordinationUnit"*, %"class.util::TokenType.111"*, %"class.util::TokenType.113"*, %"class.mojo::InlinedStructPtr.90"*)*, void (%"class.performance_manager::mojom::ProcessCoordinationUnit"*, %"class.util::TokenType.111"*, %"class.util::TokenType.113"*, %"class.mojo::InlinedStructPtr.90"*)** %230, align 8
  call void %231(%"class.performance_manager::mojom::ProcessCoordinationUnit"* %0, %"class.util::TokenType.111"* nonnull dereferenceable(16) %20, %"class.util::TokenType.113"* nonnull dereferenceable(16) %21, %"class.mojo::InlinedStructPtr.90"* nonnull %23) #9
  call void @_ZN19performance_manager5mojom21IframeAttributionDataD1Ev(%"class.performance_manager::mojom::IframeAttributionData"* nonnull %226) #9
  br label %232

232:                                              ; preds = %225, %224
  %233 = phi i1 [ true, %225 ], [ false, %224 ]
  call void @_ZN19performance_manager5mojom21IframeAttributionDataD1Ev(%"class.performance_manager::mojom::IframeAttributionData"* nonnull %177) #9
  call void @llvm.lifetime.end.p0i8(i64 72, i8* nonnull %176) #9
  call void @llvm.lifetime.end.p0i8(i64 16, i8* nonnull %170) #9
  call void @llvm.lifetime.end.p0i8(i64 16, i8* nonnull %164) #9
  br label %346

234:                                              ; preds = %2
  %235 = bitcast %"class.base::TaskAnnotator::ScopedSetIpcHash"* %24 to i8*
  call void @llvm.lifetime.start.p0i8(i64 24, i8* nonnull %235) #9
  call void @llvm.memset.p0i8.i64(i8* nonnull align 8 %235, i8 -86, i64 24, i1 false)
  call void @_ZN4base13TaskAnnotator16ScopedSetIpcHashC1Ej(%"class.base::TaskAnnotator::ScopedSetIpcHash"* nonnull %24, i32 2124820806) #9
  %236 = call i8* @_ZNK4mojo7Message7payloadEv(%"class.mojo::Message"* %1) #9
  %237 = bitcast %"class.util::TokenType.111"* %25 to i8*
  call void @llvm.lifetime.start.p0i8(i64 16, i8* nonnull %237) #9
  %238 = getelementptr inbounds %"class.util::TokenType.111", %"class.util::TokenType.111"* %25, i64 0, i32 0, i32 0, i32 0, i32 0
  %239 = getelementptr inbounds %"class.util::TokenType.111", %"class.util::TokenType.111"* %25, i64 0, i32 0, i32 0, i32 0, i32 1
  %240 = call { i64, i64 } @_ZN4base16UnguessableToken6CreateEv() #9
  %241 = extractvalue { i64, i64 } %240, 0
  %242 = extractvalue { i64, i64 } %240, 1
  store i64 %241, i64* %238, align 8
  store i64 %242, i64* %239, align 8
  %243 = bitcast %"class.util::TokenType.113"* %26 to i8*
  call void @llvm.lifetime.start.p0i8(i64 16, i8* nonnull %243) #9
  %244 = getelementptr inbounds %"class.util::TokenType.113", %"class.util::TokenType.113"* %26, i64 0, i32 0, i32 0, i32 0, i32 0
  %245 = getelementptr inbounds %"class.util::TokenType.113", %"class.util::TokenType.113"* %26, i64 0, i32 0, i32 0, i32 0, i32 1
  %246 = call { i64, i64 } @_ZN4base16UnguessableToken6CreateEv() #9
  %247 = extractvalue { i64, i64 } %246, 0
  %248 = extractvalue { i64, i64 } %246, 1
  store i64 %247, i64* %244, align 8
  store i64 %248, i64* %245, align 8
  %249 = getelementptr inbounds i8, i8* %236, i64 8
  %250 = bitcast i8* %249 to i64*
  %251 = load i64, i64* %250, align 8
  %252 = icmp eq i64 %251, 0
  br i1 %252, label %265, label %253

253:                                              ; preds = %234
  %254 = getelementptr inbounds i8, i8* %249, i64 %251
  %255 = bitcast %"class.base::UnguessableToken"* %4 to i8*
  call void @llvm.lifetime.start.p0i8(i64 16, i8* nonnull %255) #9
  call void @llvm.memset.p0i8.i64(i8* nonnull align 8 %255, i8 0, i64 16, i1 false) #9
  %256 = getelementptr inbounds i8, i8* %254, i64 8
  %257 = bitcast i8* %256 to i64*
  %258 = load i64, i64* %257, align 8
  %259 = icmp eq i64 %258, 0
  br i1 %259, label %264, label %260

260:                                              ; preds = %253
  %261 = getelementptr inbounds i8, i8* %256, i64 %258
  %262 = bitcast i8* %261 to %"class.mojo_base::mojom::internal::UnguessableToken_Data"*
  %263 = call zeroext i1 @_ZN4mojo12StructTraitsIN9mojo_base5mojom24UnguessableTokenDataViewEN4base16UnguessableTokenEE4ReadES3_PS5_(%"class.mojo_base::mojom::internal::UnguessableToken_Data"* nonnull %262, %"class.base::UnguessableToken"* nonnull %4) #9
  br i1 %263, label %264, label %282

264:                                              ; preds = %253, %260
  call void @llvm.memcpy.p0i8.p0i8.i64(i8* nonnull align 8 %237, i8* nonnull align 8 %255, i64 16, i1 false) #9
  call void @llvm.lifetime.end.p0i8(i64 16, i8* nonnull %255) #9
  br label %265

265:                                              ; preds = %234, %264
  %266 = getelementptr inbounds i8, i8* %236, i64 16
  %267 = bitcast i8* %266 to i64*
  %268 = load i64, i64* %267, align 8
  %269 = icmp eq i64 %268, 0
  br i1 %269, label %284, label %270

270:                                              ; preds = %265
  %271 = getelementptr inbounds i8, i8* %266, i64 %268
  %272 = bitcast %"class.base::UnguessableToken"* %3 to i8*
  call void @llvm.lifetime.start.p0i8(i64 16, i8* nonnull %272) #9
  call void @llvm.memset.p0i8.i64(i8* nonnull align 8 %272, i8 0, i64 16, i1 false) #9
  %273 = getelementptr inbounds i8, i8* %271, i64 8
  %274 = bitcast i8* %273 to i64*
  %275 = load i64, i64* %274, align 8
  %276 = icmp eq i64 %275, 0
  br i1 %276, label %281, label %277

277:                                              ; preds = %270
  %278 = getelementptr inbounds i8, i8* %273, i64 %275
  %279 = bitcast i8* %278 to %"class.mojo_base::mojom::internal::UnguessableToken_Data"*
  %280 = call zeroext i1 @_ZN4mojo12StructTraitsIN9mojo_base5mojom24UnguessableTokenDataViewEN4base16UnguessableTokenEE4ReadES3_PS5_(%"class.mojo_base::mojom::internal::UnguessableToken_Data"* nonnull %279, %"class.base::UnguessableToken"* nonnull %3) #9
  br i1 %280, label %281, label %282

281:                                              ; preds = %270, %277
  call void @llvm.memcpy.p0i8.p0i8.i64(i8* nonnull align 8 %243, i8* nonnull align 8 %272, i64 16, i1 false) #9
  call void @llvm.lifetime.end.p0i8(i64 16, i8* nonnull %272) #9
  br label %284

282:                                              ; preds = %277, %260
  %283 = phi i8* [ %255, %260 ], [ %272, %277 ]
  call void @llvm.lifetime.end.p0i8(i64 16, i8* nonnull %283) #9
  call void @_ZN4mojo8internal31ReportValidationErrorForMessageEPNS_7MessageENS0_15ValidationErrorEPKcjb(%"class.mojo::Message"* %1, i32 17, i8* getelementptr inbounds ([50 x i8], [50 x i8]* @_ZN19performance_manager5mojom23ProcessCoordinationUnit5Name_E, i64 0, i64 0), i32 5, i1 zeroext false) #9
  br label %289

284:                                              ; preds = %265, %281
  %285 = bitcast %"class.performance_manager::mojom::ProcessCoordinationUnit"* %0 to void (%"class.performance_manager::mojom::ProcessCoordinationUnit"*, %"class.util::TokenType.111"*, %"class.util::TokenType.113"*)***
  %286 = load void (%"class.performance_manager::mojom::ProcessCoordinationUnit"*, %"class.util::TokenType.111"*, %"class.util::TokenType.113"*)**, void (%"class.performance_manager::mojom::ProcessCoordinationUnit"*, %"class.util::TokenType.111"*, %"class.util::TokenType.113"*)*** %285, align 8
  %287 = getelementptr inbounds void (%"class.performance_manager::mojom::ProcessCoordinationUnit"*, %"class.util::TokenType.111"*, %"class.util::TokenType.113"*)*, void (%"class.performance_manager::mojom::ProcessCoordinationUnit"*, %"class.util::TokenType.111"*, %"class.util::TokenType.113"*)** %286, i64 7
  %288 = load void (%"class.performance_manager::mojom::ProcessCoordinationUnit"*, %"class.util::TokenType.111"*, %"class.util::TokenType.113"*)*, void (%"class.performance_manager::mojom::ProcessCoordinationUnit"*, %"class.util::TokenType.111"*, %"class.util::TokenType.113"*)** %287, align 8
  call void %288(%"class.performance_manager::mojom::ProcessCoordinationUnit"* %0, %"class.util::TokenType.111"* nonnull dereferenceable(16) %25, %"class.util::TokenType.113"* nonnull dereferenceable(16) %26) #9
  br label %289

289:                                              ; preds = %284, %282
  %290 = phi i1 [ true, %284 ], [ false, %282 ]
  call void @llvm.lifetime.end.p0i8(i64 16, i8* nonnull %243) #9
  call void @llvm.lifetime.end.p0i8(i64 16, i8* nonnull %237) #9
  br label %346

291:                                              ; preds = %2
  %292 = bitcast %"class.base::TaskAnnotator::ScopedSetIpcHash"* %27 to i8*
  call void @llvm.lifetime.start.p0i8(i64 24, i8* nonnull %292) #9
  call void @llvm.memset.p0i8.i64(i8* nonnull align 8 %292, i8 -86, i64 24, i1 false)
  call void @_ZN4base13TaskAnnotator16ScopedSetIpcHashC1Ej(%"class.base::TaskAnnotator::ScopedSetIpcHash"* nonnull %27, i32 772520097) #9
  %293 = call i8* @_ZNK4mojo7Message7payloadEv(%"class.mojo::Message"* %1) #9
  %294 = bitcast %"class.std::__1::basic_string"* %28 to i8*
  call void @llvm.lifetime.start.p0i8(i64 24, i8* nonnull %294) #9
  %295 = getelementptr inbounds %"class.std::__1::basic_string", %"class.std::__1::basic_string"* %28, i64 0, i32 0, i32 0, i32 0, i32 0, i32 0, i32 0
  %296 = getelementptr inbounds %"class.std::__1::basic_string", %"class.std::__1::basic_string"* %28, i64 0, i32 0, i32 0, i32 0, i32 0, i32 0, i32 1
  call void @llvm.memset.p0i8.i64(i8* nonnull align 8 %294, i8 0, i64 24, i1 false) #9
  %297 = getelementptr inbounds i8, i8* %293, i64 8
  %298 = bitcast i8* %297 to i64*
  %299 = load i64, i64* %298, align 8
  %300 = icmp eq i64 %299, 0
  %301 = getelementptr inbounds i8, i8* %297, i64 %299
  br i1 %300, label %334, label %302

302:                                              ; preds = %291
  %303 = getelementptr inbounds i8, i8* %301, i64 8
  %304 = getelementptr inbounds i8, i8* %301, i64 4
  %305 = bitcast i8* %304 to i32*
  %306 = load i32, i32* %305, align 1
  %307 = zext i32 %306 to i64
  %308 = call i1 @llvm.is.constant.i64(i64 %307) #9
  %309 = icmp ult i32 %306, 23
  %310 = and i1 %309, %308
  br i1 %310, label %311, label %319

311:                                              ; preds = %302
  %312 = bitcast %"class.std::__1::basic_string"* %28 to %"struct.std::__1::basic_string<char, std::__1::char_traits<char>, std::__1::allocator<char> >::__short"*
  %313 = getelementptr inbounds %"struct.std::__1::basic_string<char, std::__1::char_traits<char>, std::__1::allocator<char> >::__short", %"struct.std::__1::basic_string<char, std::__1::char_traits<char>, std::__1::allocator<char> >::__short"* %312, i64 0, i32 1, i32 0
  %314 = trunc i32 %306 to i8
  store i8 %314, i8* %313, align 1
  %315 = icmp eq i32 %306, 0
  br i1 %315, label %317, label %316

316:                                              ; preds = %311
  call void @llvm.memmove.p0i8.p0i8.i64(i8* nonnull align 8 %294, i8* align 1 %303, i64 %307, i1 false) #9
  br label %317

317:                                              ; preds = %316, %311
  %318 = getelementptr inbounds i8, i8* %294, i64 %307
  store i8 0, i8* %318, align 1
  br label %322

319:                                              ; preds = %302
  %320 = call dereferenceable(24) %"class.std::__1::basic_string"* @_ZNSt3__112basic_stringIcNS_11char_traitsIcEENS_9allocatorIcEEE17__assign_externalEPKcm(%"class.std::__1::basic_string"* nonnull %28, i8* %303, i64 %307) #9
  %321 = bitcast %"class.std::__1::basic_string"* %28 to %"struct.std::__1::basic_string<char, std::__1::char_traits<char>, std::__1::allocator<char> >::__short"*
  br label %322

322:                                              ; preds = %319, %317
  %323 = phi %"struct.std::__1::basic_string<char, std::__1::char_traits<char>, std::__1::allocator<char> >::__short"* [ %321, %319 ], [ %312, %317 ]
  %324 = getelementptr inbounds %"struct.std::__1::basic_string<char, std::__1::char_traits<char>, std::__1::allocator<char> >::__short", %"struct.std::__1::basic_string<char, std::__1::char_traits<char>, std::__1::allocator<char> >::__short"* %323, i64 0, i32 1, i32 0
  %325 = load i8, i8* %324, align 1
  %326 = icmp slt i8 %325, 0
  %327 = load i8*, i8** %295, align 8
  %328 = select i1 %326, i8* %327, i8* %294
  %329 = load i64, i64* %296, align 8
  %330 = zext i8 %325 to i64
  %331 = select i1 %326, i64 %329, i64 %330
  %332 = call zeroext i1 @_ZN4base12IsStringUTF8ENS_16BasicStringPieceIcNSt3__111char_traitsIcEEEE(i8* %328, i64 %331) #9
  br i1 %332, label %334, label %333

333:                                              ; preds = %322
  call void @_ZN4mojo8internal34RecordInvalidStringDeserializationEv() #9
  br label %334

334:                                              ; preds = %291, %322, %333
  %335 = bitcast %"class.performance_manager::mojom::ProcessCoordinationUnit"* %0 to void (%"class.performance_manager::mojom::ProcessCoordinationUnit"*, %"class.std::__1::basic_string"*)***
  %336 = load void (%"class.performance_manager::mojom::ProcessCoordinationUnit"*, %"class.std::__1::basic_string"*)**, void (%"class.performance_manager::mojom::ProcessCoordinationUnit"*, %"class.std::__1::basic_string"*)*** %335, align 8
  %337 = getelementptr inbounds void (%"class.performance_manager::mojom::ProcessCoordinationUnit"*, %"class.std::__1::basic_string"*)*, void (%"class.performance_manager::mojom::ProcessCoordinationUnit"*, %"class.std::__1::basic_string"*)** %336, i64 8
  %338 = load void (%"class.performance_manager::mojom::ProcessCoordinationUnit"*, %"class.std::__1::basic_string"*)*, void (%"class.performance_manager::mojom::ProcessCoordinationUnit"*, %"class.std::__1::basic_string"*)** %337, align 8
  call void %338(%"class.performance_manager::mojom::ProcessCoordinationUnit"* %0, %"class.std::__1::basic_string"* nonnull dereferenceable(24) %28) #9
  %339 = bitcast %"class.std::__1::basic_string"* %28 to %"struct.std::__1::basic_string<char, std::__1::char_traits<char>, std::__1::allocator<char> >::__short"*
  %340 = getelementptr inbounds %"struct.std::__1::basic_string<char, std::__1::char_traits<char>, std::__1::allocator<char> >::__short", %"struct.std::__1::basic_string<char, std::__1::char_traits<char>, std::__1::allocator<char> >::__short"* %339, i64 0, i32 1, i32 0
  %341 = load i8, i8* %340, align 1
  %342 = icmp slt i8 %341, 0
  br i1 %342, label %343, label %345

343:                                              ; preds = %334
  %344 = load i8*, i8** %295, align 8
  call void @_ZdlPv(i8* %344) #10
  br label %345

345:                                              ; preds = %334, %343
  call void @llvm.lifetime.end.p0i8(i64 24, i8* nonnull %294) #9
  br label %346

346:                                              ; preds = %34, %94, %126, %159, %232, %289, %345
  %347 = phi %"class.base::TaskAnnotator::ScopedSetIpcHash"* [ %27, %345 ], [ %24, %289 ], [ %19, %232 ], [ %17, %159 ], [ %15, %126 ], [ %10, %94 ], [ %9, %34 ]
  %348 = phi i8* [ %292, %345 ], [ %235, %289 ], [ %162, %232 ], [ %129, %159 ], [ %96, %126 ], [ %46, %94 ], [ %35, %34 ]
  %349 = phi i1 [ true, %345 ], [ %290, %289 ], [ %233, %232 ], [ %160, %159 ], [ %127, %126 ], [ %89, %94 ], [ true, %34 ]
  call void @_ZN4base13TaskAnnotator16ScopedSetIpcHashD1Ev(%"class.base::TaskAnnotator::ScopedSetIpcHash"* nonnull %347) #9
  call void @llvm.lifetime.end.p0i8(i64 24, i8* nonnull %348) #9
  br label %350

350:                                              ; preds = %346, %2
  %351 = phi i1 [ false, %2 ], [ %349, %346 ]
  ret i1 %351
}

; Function Attrs: nounwind ssp uwtable
define hidden zeroext i1 @_ZN19performance_manager5mojom35ProcessCoordinationUnitStubDispatch19AcceptWithResponderEPNS0_23ProcessCoordinationUnitEPN4mojo7MessageENSt3__110unique_ptrINS4_25MessageReceiverWithStatusENS7_14default_deleteIS9_EEEE(%"class.performance_manager::mojom::ProcessCoordinationUnit"* nocapture readnone, %"class.mojo::Message"* nocapture readonly, %"class.mojo::MessageReceiverWithStatus"*) local_unnamed_addr #1 align 2 {
  %4 = icmp eq %"class.mojo::MessageReceiverWithStatus"* %2, null
  br i1 %4, label %10, label %5

5:                                                ; preds = %3
  %6 = bitcast %"class.mojo::MessageReceiverWithStatus"* %2 to void (%"class.mojo::MessageReceiverWithStatus"*)***
  %7 = load void (%"class.mojo::MessageReceiverWithStatus"*)**, void (%"class.mojo::MessageReceiverWithStatus"*)*** %6, align 8
  %8 = getelementptr inbounds void (%"class.mojo::MessageReceiverWithStatus"*)*, void (%"class.mojo::MessageReceiverWithStatus"*)** %7, i64 1
  %9 = load void (%"class.mojo::MessageReceiverWithStatus"*)*, void (%"class.mojo::MessageReceiverWithStatus"*)** %8, align 8
  tail call void %9(%"class.mojo::MessageReceiverWithStatus"* nonnull %2) #9
  br label %10

10:                                               ; preds = %3, %5
  ret i1 false
}

; Function Attrs: nounwind ssp uwtable
define hidden zeroext i1 @_ZN19performance_manager5mojom39ProcessCoordinationUnitRequestValidator6AcceptEPN4mojo7MessageE(%"class.performance_manager::mojom::ProcessCoordinationUnitRequestValidator"* nocapture readnone, %"class.mojo::Message"*) unnamed_addr #1 align 2 {
  %3 = tail call zeroext i1 @_ZN4mojo8internal22ValidateRequestGenericEPNS_7MessageEPKcN4base4spanIKNSt3__14pairIjNS0_21GenericValidationInfoEEELm18446744073709551615EEE(%"class.mojo::Message"* %1, i8* getelementptr inbounds ([50 x i8], [50 x i8]* @_ZN19performance_manager5mojom23ProcessCoordinationUnit5Name_E, i64 0, i64 0), i64 7, %"struct.std::__1::pair"* getelementptr inbounds ([7 x %"struct.std::__1::pair"], [7 x %"struct.std::__1::pair"]* @_ZN19performance_manager5mojomL38kProcessCoordinationUnitValidationInfoE, i64 0, i64 0)) #9
  ret i1 %3
}

; Function Attrs: inlinehint nounwind ssp uwtable
define linkonce_odr hidden void @_ZN19performance_manager5mojom74DocumentCoordinationUnit_OnWebMemoryMeasurementRequested_ForwardToCallbackD2Ev(%"class.performance_manager::mojom::DocumentCoordinationUnit_OnWebMemoryMeasurementRequested_ForwardToCallback"*) unnamed_addr #6 comdat align 2 {
  %2 = getelementptr inbounds %"class.performance_manager::mojom::DocumentCoordinationUnit_OnWebMemoryMeasurementRequested_ForwardToCallback", %"class.performance_manager::mojom::DocumentCoordinationUnit_OnWebMemoryMeasurementRequested_ForwardToCallback"* %0, i64 0, i32 0, i32 0
  store i32 (...)** bitcast (i8** getelementptr inbounds ({ [6 x i8*] }, { [6 x i8*] }* @_ZTVN19performance_manager5mojom74DocumentCoordinationUnit_OnWebMemoryMeasurementRequested_ForwardToCallbackE, i64 0, inrange i32 0, i64 2) to i32 (...)**), i32 (...)*** %2, align 8
  %3 = getelementptr inbounds %"class.performance_manager::mojom::DocumentCoordinationUnit_OnWebMemoryMeasurementRequested_ForwardToCallback", %"class.performance_manager::mojom::DocumentCoordinationUnit_OnWebMemoryMeasurementRequested_ForwardToCallback"* %0, i64 0, i32 1, i32 0
  tail call void @_ZN4base8internal12CallbackBaseD2Ev(%"class.base::internal::CallbackBase"* %3) #9
  ret void
}

; Function Attrs: inlinehint nounwind ssp uwtable
define linkonce_odr hidden void @_ZN19performance_manager5mojom74DocumentCoordinationUnit_OnWebMemoryMeasurementRequested_ForwardToCallbackD0Ev(%"class.performance_manager::mojom::DocumentCoordinationUnit_OnWebMemoryMeasurementRequested_ForwardToCallback"*) unnamed_addr #6 comdat align 2 {
  %2 = getelementptr inbounds %"class.performance_manager::mojom::DocumentCoordinationUnit_OnWebMemoryMeasurementRequested_ForwardToCallback", %"class.performance_manager::mojom::DocumentCoordinationUnit_OnWebMemoryMeasurementRequested_ForwardToCallback"* %0, i64 0, i32 0, i32 0
  store i32 (...)** bitcast (i8** getelementptr inbounds ({ [6 x i8*] }, { [6 x i8*] }* @_ZTVN19performance_manager5mojom74DocumentCoordinationUnit_OnWebMemoryMeasurementRequested_ForwardToCallbackE, i64 0, inrange i32 0, i64 2) to i32 (...)**), i32 (...)*** %2, align 8
  %3 = getelementptr inbounds %"class.performance_manager::mojom::DocumentCoordinationUnit_OnWebMemoryMeasurementRequested_ForwardToCallback", %"class.performance_manager::mojom::DocumentCoordinationUnit_OnWebMemoryMeasurementRequested_ForwardToCallback"* %0, i64 0, i32 1, i32 0
  tail call void @_ZN4base8internal12CallbackBaseD2Ev(%"class.base::internal::CallbackBase"* %3) #9
  %4 = bitcast %"class.performance_manager::mojom::DocumentCoordinationUnit_OnWebMemoryMeasurementRequested_ForwardToCallback"* %0 to i8*
  tail call void @_ZdlPv(i8* %4) #10
  ret void
}

declare zeroext i1 @_ZN4mojo15MessageReceiver25PrefersSerializedMessagesEv(%"class.mojo::MessageReceiver"*) unnamed_addr #3

; Function Attrs: nounwind ssp uwtable
define linkonce_odr hidden void @_ZN19performance_manager5mojom24DocumentCoordinationUnitD2Ev(%"class.performance_manager::mojom::DocumentCoordinationUnit"*) unnamed_addr #1 comdat align 2 {
  ret void
}

; Function Attrs: inlinehint nounwind ssp uwtable
define linkonce_odr hidden void @_ZN19performance_manager5mojom29DocumentCoordinationUnitProxyD0Ev(%"class.performance_manager::mojom::DocumentCoordinationUnitProxy"*) unnamed_addr #6 comdat align 2 {
  %2 = bitcast %"class.performance_manager::mojom::DocumentCoordinationUnitProxy"* %0 to i8*
  tail call void @_ZdlPv(i8* %2) #10
  ret void
}

; Function Attrs: inlinehint nounwind ssp uwtable
define linkonce_odr hidden void @_ZN19performance_manager5mojom40DocumentCoordinationUnitRequestValidatorD0Ev(%"class.performance_manager::mojom::DocumentCoordinationUnitRequestValidator"*) unnamed_addr #6 comdat align 2 {
  %2 = bitcast %"class.performance_manager::mojom::DocumentCoordinationUnitRequestValidator"* %0 to i8*
  tail call void @_ZdlPv(i8* %2) #10
  ret void
}

; Function Attrs: inlinehint nounwind ssp uwtable
define linkonce_odr hidden void @_ZN19performance_manager5mojom41DocumentCoordinationUnitResponseValidatorD0Ev(%"class.performance_manager::mojom::DocumentCoordinationUnitResponseValidator"*) unnamed_addr #6 comdat align 2 {
  %2 = bitcast %"class.performance_manager::mojom::DocumentCoordinationUnitResponseValidator"* %0 to i8*
  tail call void @_ZdlPv(i8* %2) #10
  ret void
}

; Function Attrs: inlinehint nounwind ssp uwtable
define linkonce_odr hidden void @_ZN19performance_manager5mojom28ProcessCoordinationUnitProxyD0Ev(%"class.performance_manager::mojom::ProcessCoordinationUnitProxy"*) unnamed_addr #6 comdat align 2 {
  %2 = bitcast %"class.performance_manager::mojom::ProcessCoordinationUnitProxy"* %0 to i8*
  tail call void @_ZdlPv(i8* %2) #10
  ret void
}

; Function Attrs: nounwind ssp uwtable
define linkonce_odr hidden void @_ZN4mojo15MessageReceiverD2Ev(%"class.mojo::MessageReceiver"*) unnamed_addr #1 comdat align 2 {
  ret void
}

; Function Attrs: inlinehint nounwind ssp uwtable
define linkonce_odr hidden void @_ZN19performance_manager5mojom39ProcessCoordinationUnitRequestValidatorD0Ev(%"class.performance_manager::mojom::ProcessCoordinationUnitRequestValidator"*) unnamed_addr #6 comdat align 2 {
  %2 = bitcast %"class.performance_manager::mojom::ProcessCoordinationUnitRequestValidator"* %0 to i8*
  tail call void @_ZdlPv(i8* %2) #10
  ret void
}

declare i8* @_ZNK4mojo7Message7payloadEv(%"class.mojo::Message"*) local_unnamed_addr #3

; Function Attrs: nounwind
declare void @_ZN19performance_manager5mojom20WebMemoryMeasurementD1Ev(%"class.performance_manager::mojom::WebMemoryMeasurement"*) unnamed_addr #4

; Function Attrs: nobuiltin nounwind
declare void @_ZdlPv(i8*) local_unnamed_addr #7

; Function Attrs: nounwind ssp uwtable
define linkonce_odr hidden void @_ZN4base8internal7InvokerINS0_9BindStateIMN19performance_manager5mojom73DocumentCoordinationUnit_OnWebMemoryMeasurementRequested_ProxyToResponderEFvN4mojo9StructPtrINS4_20WebMemoryMeasurementEEEEJNSt3__110unique_ptrIS5_NSC_14default_deleteIS5_EEEEEEEFvS9_EE7RunOnceEPNS0_13BindStateBaseEOS9_(%"class.base::internal::BindStateBase"*, %"class.mojo::StructPtr"* dereferenceable(8)) #1 comdat align 2 {
  %3 = alloca %"class.mojo::StructPtr", align 8
  %4 = getelementptr inbounds %"class.base::internal::BindStateBase", %"class.base::internal::BindStateBase"* %0, i64 1
  %5 = getelementptr inbounds %"class.base::internal::BindStateBase", %"class.base::internal::BindStateBase"* %0, i64 1, i32 2
  %6 = bitcast %"class.base::internal::BindStateBase"* %4 to i64*
  %7 = load i64, i64* %6, align 8
  %8 = getelementptr inbounds %"class.base::internal::BindStateBase", %"class.base::internal::BindStateBase"* %0, i64 1, i32 1
  %9 = bitcast void ()** %8 to i64*
  %10 = load i64, i64* %9, align 8
  %11 = bitcast %"class.mojo::StructPtr"* %3 to i8*
  call void @llvm.lifetime.start.p0i8(i64 8, i8* nonnull %11) #9
  %12 = bitcast void (%"class.base::internal::BindStateBase"*)** %5 to i8**
  %13 = load i8*, i8** %12, align 8
  %14 = getelementptr inbounds i8, i8* %13, i64 %10
  %15 = bitcast i8* %14 to %"class.performance_manager::mojom::DocumentCoordinationUnit_OnWebMemoryMeasurementRequested_ProxyToResponder"*
  %16 = and i64 %7, 1
  %17 = icmp eq i64 %16, 0
  br i1 %17, label %25, label %18

18:                                               ; preds = %2
  %19 = bitcast i8* %14 to i8**
  %20 = load i8*, i8** %19, align 8
  %21 = add i64 %7, -1
  %22 = getelementptr i8, i8* %20, i64 %21
  %23 = bitcast i8* %22 to void (%"class.performance_manager::mojom::DocumentCoordinationUnit_OnWebMemoryMeasurementRequested_ProxyToResponder"*, %"class.mojo::StructPtr"*)**
  %24 = load void (%"class.performance_manager::mojom::DocumentCoordinationUnit_OnWebMemoryMeasurementRequested_ProxyToResponder"*, %"class.mojo::StructPtr"*)*, void (%"class.performance_manager::mojom::DocumentCoordinationUnit_OnWebMemoryMeasurementRequested_ProxyToResponder"*, %"class.mojo::StructPtr"*)** %23, align 8
  br label %27

25:                                               ; preds = %2
  %26 = inttoptr i64 %7 to void (%"class.performance_manager::mojom::DocumentCoordinationUnit_OnWebMemoryMeasurementRequested_ProxyToResponder"*, %"class.mojo::StructPtr"*)*
  br label %27

27:                                               ; preds = %25, %18
  %28 = phi void (%"class.performance_manager::mojom::DocumentCoordinationUnit_OnWebMemoryMeasurementRequested_ProxyToResponder"*, %"class.mojo::StructPtr"*)* [ %24, %18 ], [ %26, %25 ]
  %29 = bitcast %"class.mojo::StructPtr"* %3 to i64*
  %30 = getelementptr inbounds %"class.mojo::StructPtr", %"class.mojo::StructPtr"* %3, i64 0, i32 0, i32 0, i32 0, i32 0
  %31 = bitcast %"class.mojo::StructPtr"* %1 to i64*
  %32 = load i64, i64* %31, align 8
  store i64 %32, i64* %29, align 8
  store i64 0, i64* %31, align 8
  call void %28(%"class.performance_manager::mojom::DocumentCoordinationUnit_OnWebMemoryMeasurementRequested_ProxyToResponder"* %15, %"class.mojo::StructPtr"* nonnull %3) #9
  %33 = load %"class.performance_manager::mojom::WebMemoryMeasurement"*, %"class.performance_manager::mojom::WebMemoryMeasurement"** %30, align 8
  store %"class.performance_manager::mojom::WebMemoryMeasurement"* null, %"class.performance_manager::mojom::WebMemoryMeasurement"** %30, align 8
  %34 = icmp eq %"class.performance_manager::mojom::WebMemoryMeasurement"* %33, null
  br i1 %34, label %37, label %35

35:                                               ; preds = %27
  call void @_ZN19performance_manager5mojom20WebMemoryMeasurementD1Ev(%"class.performance_manager::mojom::WebMemoryMeasurement"* nonnull %33) #9
  %36 = bitcast %"class.performance_manager::mojom::WebMemoryMeasurement"* %33 to i8*
  call void @_ZdlPv(i8* %36) #10
  br label %37

37:                                               ; preds = %27, %35
  call void @llvm.lifetime.end.p0i8(i64 8, i8* nonnull %11) #9
  ret void
}

; Function Attrs: nounwind ssp uwtable
define linkonce_odr hidden void @_ZN4base8internal9BindStateIMN19performance_manager5mojom73DocumentCoordinationUnit_OnWebMemoryMeasurementRequested_ProxyToResponderEFvN4mojo9StructPtrINS3_20WebMemoryMeasurementEEEEJNSt3__110unique_ptrIS4_NSB_14default_deleteIS4_EEEEEE7DestroyEPKNS0_13BindStateBaseE(%"class.base::internal::BindStateBase"*) #1 comdat align 2 {
  %2 = icmp eq %"class.base::internal::BindStateBase"* %0, null
  br i1 %2, label %28, label %3

3:                                                ; preds = %1
  %4 = getelementptr inbounds %"class.base::internal::BindStateBase", %"class.base::internal::BindStateBase"* %0, i64 1, i32 2
  %5 = bitcast void (%"class.base::internal::BindStateBase"*)** %4 to %"class.performance_manager::mojom::DocumentCoordinationUnit_OnWebMemoryMeasurementRequested_ProxyToResponder"**
  %6 = load %"class.performance_manager::mojom::DocumentCoordinationUnit_OnWebMemoryMeasurementRequested_ProxyToResponder"*, %"class.performance_manager::mojom::DocumentCoordinationUnit_OnWebMemoryMeasurementRequested_ProxyToResponder"** %5, align 8
  store %"class.performance_manager::mojom::DocumentCoordinationUnit_OnWebMemoryMeasurementRequested_ProxyToResponder"* null, %"class.performance_manager::mojom::DocumentCoordinationUnit_OnWebMemoryMeasurementRequested_ProxyToResponder"** %5, align 8
  %7 = icmp eq %"class.performance_manager::mojom::DocumentCoordinationUnit_OnWebMemoryMeasurementRequested_ProxyToResponder"* %6, null
  br i1 %7, label %26, label %8

8:                                                ; preds = %3
  %9 = getelementptr inbounds %"class.performance_manager::mojom::DocumentCoordinationUnit_OnWebMemoryMeasurementRequested_ProxyToResponder", %"class.performance_manager::mojom::DocumentCoordinationUnit_OnWebMemoryMeasurementRequested_ProxyToResponder"* %6, i64 0, i32 2, i32 0, i32 0, i32 0
  %10 = load %"class.mojo::MessageReceiverWithStatus"*, %"class.mojo::MessageReceiverWithStatus"** %9, align 8
  store %"class.mojo::MessageReceiverWithStatus"* null, %"class.mojo::MessageReceiverWithStatus"** %9, align 8
  %11 = icmp eq %"class.mojo::MessageReceiverWithStatus"* %10, null
  br i1 %11, label %24, label %12

12:                                               ; preds = %8
  %13 = bitcast %"class.mojo::MessageReceiverWithStatus"* %10 to void (%"class.mojo::MessageReceiverWithStatus"*)***
  %14 = load void (%"class.mojo::MessageReceiverWithStatus"*)**, void (%"class.mojo::MessageReceiverWithStatus"*)*** %13, align 8
  %15 = getelementptr inbounds void (%"class.mojo::MessageReceiverWithStatus"*)*, void (%"class.mojo::MessageReceiverWithStatus"*)** %14, i64 1
  %16 = load void (%"class.mojo::MessageReceiverWithStatus"*)*, void (%"class.mojo::MessageReceiverWithStatus"*)** %15, align 8
  tail call void %16(%"class.mojo::MessageReceiverWithStatus"* nonnull %10) #9
  %17 = load %"class.mojo::MessageReceiverWithStatus"*, %"class.mojo::MessageReceiverWithStatus"** %9, align 8
  store %"class.mojo::MessageReceiverWithStatus"* null, %"class.mojo::MessageReceiverWithStatus"** %9, align 8
  %18 = icmp eq %"class.mojo::MessageReceiverWithStatus"* %17, null
  br i1 %18, label %24, label %19

19:                                               ; preds = %12
  %20 = bitcast %"class.mojo::MessageReceiverWithStatus"* %17 to void (%"class.mojo::MessageReceiverWithStatus"*)***
  %21 = load void (%"class.mojo::MessageReceiverWithStatus"*)**, void (%"class.mojo::MessageReceiverWithStatus"*)*** %20, align 8
  %22 = getelementptr inbounds void (%"class.mojo::MessageReceiverWithStatus"*)*, void (%"class.mojo::MessageReceiverWithStatus"*)** %21, i64 1
  %23 = load void (%"class.mojo::MessageReceiverWithStatus"*)*, void (%"class.mojo::MessageReceiverWithStatus"*)** %22, align 8
  tail call void %23(%"class.mojo::MessageReceiverWithStatus"* nonnull %17) #9
  br label %24

24:                                               ; preds = %19, %12, %8
  %25 = bitcast %"class.performance_manager::mojom::DocumentCoordinationUnit_OnWebMemoryMeasurementRequested_ProxyToResponder"* %6 to i8*
  tail call void @_ZdlPv(i8* %25) #10
  br label %26

26:                                               ; preds = %3, %24
  %27 = bitcast %"class.base::internal::BindStateBase"* %0 to i8*
  tail call void @_ZdlPv(i8* %27) #10
  br label %28

28:                                               ; preds = %26, %1
  ret void
}

declare void @_ZN4base8internal13BindStateBaseC2EPFvvEPFvPKS1_E(%"class.base::internal::BindStateBase"*, void ()*, void (%"class.base::internal::BindStateBase"*)*) unnamed_addr #3

declare zeroext i1 @_ZN19performance_manager5mojom8internal57DocumentCoordinationUnit_SetNetworkAlmostIdle_Params_Data8ValidateEPKvPN4mojo8internal17ValidationContextE(i8*, %"class.mojo::internal::ValidationContext"*) #3

declare zeroext i1 @_ZN19performance_manager5mojom8internal54DocumentCoordinationUnit_SetLifecycleState_Params_Data8ValidateEPKvPN4mojo8internal17ValidationContextE(i8*, %"class.mojo::internal::ValidationContext"*) #3

declare zeroext i1 @_ZN19performance_manager5mojom8internal63DocumentCoordinationUnit_SetHasNonEmptyBeforeUnload_Params_Data8ValidateEPKvPN4mojo8internal17ValidationContextE(i8*, %"class.mojo::internal::ValidationContext"*) #3

declare zeroext i1 @_ZN19performance_manager5mojom8internal58DocumentCoordinationUnit_SetHadFormInteraction_Params_Data8ValidateEPKvPN4mojo8internal17ValidationContextE(i8*, %"class.mojo::internal::ValidationContext"*) #3

declare zeroext i1 @_ZN19performance_manager5mojom8internal49DocumentCoordinationUnit_SetIsAdFrame_Params_Data8ValidateEPKvPN4mojo8internal17ValidationContextE(i8*, %"class.mojo::internal::ValidationContext"*) #3

declare zeroext i1 @_ZN19performance_manager5mojom8internal71DocumentCoordinationUnit_OnNonPersistentNotificationCreated_Params_Data8ValidateEPKvPN4mojo8internal17ValidationContextE(i8*, %"class.mojo::internal::ValidationContext"*) #3

declare zeroext i1 @_ZN19performance_manager5mojom8internal59DocumentCoordinationUnit_OnFirstContentfulPaint_Params_Data8ValidateEPKvPN4mojo8internal17ValidationContextE(i8*, %"class.mojo::internal::ValidationContext"*) #3

declare zeroext i1 @_ZN19performance_manager5mojom8internal68DocumentCoordinationUnit_OnWebMemoryMeasurementRequested_Params_Data8ValidateEPKvPN4mojo8internal17ValidationContextE(i8*, %"class.mojo::internal::ValidationContext"*) #3

declare zeroext i1 @_ZN19performance_manager5mojom8internal76DocumentCoordinationUnit_OnWebMemoryMeasurementRequested_ResponseParams_Data8ValidateEPKvPN4mojo8internal17ValidationContextE(i8*, %"class.mojo::internal::ValidationContext"*) #3

; Function Attrs: nounwind ssp uwtable
define linkonce_odr hidden void @_ZN19performance_manager5mojom23ProcessCoordinationUnitD2Ev(%"class.performance_manager::mojom::ProcessCoordinationUnit"*) unnamed_addr #1 comdat align 2 {
  ret void
}

declare void @_ZN19performance_manager5mojom21IframeAttributionDataC1Ev(%"class.performance_manager::mojom::IframeAttributionData"*) unnamed_addr #3

; Function Attrs: nounwind
declare void @_ZN19performance_manager5mojom21IframeAttributionDataD1Ev(%"class.performance_manager::mojom::IframeAttributionData"*) unnamed_addr #4

; Function Attrs: nounwind
declare void @_ZN19performance_manager5mojom20V8ContextDescriptionD1Ev(%"class.performance_manager::mojom::V8ContextDescription"*) unnamed_addr #4

declare zeroext i1 @_ZN19performance_manager5mojom8internal62ProcessCoordinationUnit_SetMainThreadTaskLoadIsLow_Params_Data8ValidateEPKvPN4mojo8internal17ValidationContextE(i8*, %"class.mojo::internal::ValidationContext"*) #3

declare zeroext i1 @_ZN19performance_manager5mojom8internal54ProcessCoordinationUnit_OnV8ContextCreated_Params_Data8ValidateEPKvPN4mojo8internal17ValidationContextE(i8*, %"class.mojo::internal::ValidationContext"*) #3

declare zeroext i1 @_ZN19performance_manager5mojom8internal55ProcessCoordinationUnit_OnV8ContextDetached_Params_Data8ValidateEPKvPN4mojo8internal17ValidationContextE(i8*, %"class.mojo::internal::ValidationContext"*) #3

declare zeroext i1 @_ZN19performance_manager5mojom8internal56ProcessCoordinationUnit_OnV8ContextDestroyed_Params_Data8ValidateEPKvPN4mojo8internal17ValidationContextE(i8*, %"class.mojo::internal::ValidationContext"*) #3

declare zeroext i1 @_ZN19performance_manager5mojom8internal58ProcessCoordinationUnit_OnRemoteIframeAttached_Params_Data8ValidateEPKvPN4mojo8internal17ValidationContextE(i8*, %"class.mojo::internal::ValidationContext"*) #3

declare zeroext i1 @_ZN19performance_manager5mojom8internal58ProcessCoordinationUnit_OnRemoteIframeDetached_Params_Data8ValidateEPKvPN4mojo8internal17ValidationContextE(i8*, %"class.mojo::internal::ValidationContext"*) #3

declare zeroext i1 @_ZN19performance_manager5mojom8internal64ProcessCoordinationUnit_FireBackgroundTracingTrigger_Params_Data8ValidateEPKvPN4mojo8internal17ValidationContextE(i8*, %"class.mojo::internal::ValidationContext"*) #3

declare i64 @_ZN4mojo8internal6Buffer8AllocateEm(%"class.mojo::internal::Buffer"*, i64) local_unnamed_addr #3

declare void @_ZN19performance_manager5mojom8internal57DocumentCoordinationUnit_SetNetworkAlmostIdle_Params_DataC1Ev(%"class.performance_manager::mojom::internal::DocumentCoordinationUnit_SetNetworkAlmostIdle_Params_Data"*) unnamed_addr #3

declare void @_ZN19performance_manager5mojom8internal54DocumentCoordinationUnit_SetLifecycleState_Params_DataC1Ev(%"class.performance_manager::mojom::internal::DocumentCoordinationUnit_SetLifecycleState_Params_Data"*) unnamed_addr #3

declare void @_ZN19performance_manager5mojom8internal63DocumentCoordinationUnit_SetHasNonEmptyBeforeUnload_Params_DataC1Ev(%"class.performance_manager::mojom::internal::DocumentCoordinationUnit_SetHasNonEmptyBeforeUnload_Params_Data"*) unnamed_addr #3

declare void @_ZN19performance_manager5mojom8internal58DocumentCoordinationUnit_SetHadFormInteraction_Params_DataC1Ev(%"class.performance_manager::mojom::internal::DocumentCoordinationUnit_SetHadFormInteraction_Params_Data"*) unnamed_addr #3

declare void @_ZN19performance_manager5mojom8internal49DocumentCoordinationUnit_SetIsAdFrame_Params_DataC1Ev(%"class.performance_manager::mojom::internal::DocumentCoordinationUnit_SetIsAdFrame_Params_Data"*) unnamed_addr #3

declare void @_ZN19performance_manager5mojom8internal71DocumentCoordinationUnit_OnNonPersistentNotificationCreated_Params_DataC1Ev(%"class.performance_manager::mojom::internal::DocumentCoordinationUnit_OnNonPersistentNotificationCreated_Params_Data"*) unnamed_addr #3

declare void @_ZN19performance_manager5mojom8internal59DocumentCoordinationUnit_OnFirstContentfulPaint_Params_DataC1Ev(%"class.performance_manager::mojom::internal::DocumentCoordinationUnit_OnFirstContentfulPaint_Params_Data"*) unnamed_addr #3

declare i64 @_ZN4mojo12StructTraitsIN9mojo_base5mojom17TimeDeltaDataViewEN4base9TimeDeltaEE12microsecondsERKS5_(%"class.base::TimeDelta"* dereferenceable(8)) local_unnamed_addr #3

declare void @_ZN9mojo_base5mojom8internal14TimeDelta_DataC1Ev(%"class.mojo_base::mojom::internal::TimeDelta_Data"*) unnamed_addr #3

declare void @_ZN19performance_manager5mojom8internal68DocumentCoordinationUnit_OnWebMemoryMeasurementRequested_Params_DataC1Ev(%"class.performance_manager::mojom::internal::DocumentCoordinationUnit_OnWebMemoryMeasurementRequested_Params_Data"*) unnamed_addr #3

declare zeroext i1 @_ZN4mojo12StructTraitsIN19performance_manager5mojom28WebMemoryMeasurementDataViewENS_9StructPtrINS2_20WebMemoryMeasurementEEEE4ReadES3_PS6_(%"class.performance_manager::mojom::internal::WebMemoryMeasurement_Data"*, %"class.mojo::Message"*, %"class.mojo::StructPtr"*) local_unnamed_addr #3

declare void @_ZN19performance_manager5mojom8internal76DocumentCoordinationUnit_OnWebMemoryMeasurementRequested_ResponseParams_DataC1Ev(%"class.performance_manager::mojom::internal::DocumentCoordinationUnit_OnWebMemoryMeasurementRequested_ResponseParams_Data"*) unnamed_addr #3

; Function Attrs: nounwind ssp uwtable
define linkonce_odr hidden void @_ZN4mojo8internal10SerializerIN19performance_manager5mojom28WebMemoryMeasurementDataViewENS_9StructPtrINS3_20WebMemoryMeasurementEEEE9SerializeERS7_RNS0_15MessageFragmentINS3_8internal25WebMemoryMeasurement_DataEEE(%"class.mojo::StructPtr"* dereferenceable(8), %"class.mojo::internal::MessageFragment.74"* dereferenceable(16)) local_unnamed_addr #1 comdat align 2 {
  %3 = alloca %"class.mojo::internal::MessageFragment.134", align 8
  %4 = alloca %"class.mojo::internal::ContainerValidateParams", align 8
  %5 = getelementptr inbounds %"class.mojo::StructPtr", %"class.mojo::StructPtr"* %0, i64 0, i32 0, i32 0, i32 0, i32 0
  %6 = load %"class.performance_manager::mojom::WebMemoryMeasurement"*, %"class.performance_manager::mojom::WebMemoryMeasurement"** %5, align 8
  %7 = icmp eq %"class.performance_manager::mojom::WebMemoryMeasurement"* %6, null
  br i1 %7, label %253, label %8

8:                                                ; preds = %2
  %9 = getelementptr inbounds %"class.mojo::internal::MessageFragment.74", %"class.mojo::internal::MessageFragment.74"* %1, i64 0, i32 0
  %10 = load %"class.mojo::Message"*, %"class.mojo::Message"** %9, align 8
  %11 = getelementptr inbounds %"class.mojo::Message", %"class.mojo::Message"* %10, i64 0, i32 1
  %12 = tail call i64 @_ZN4mojo8internal6Buffer8AllocateEm(%"class.mojo::internal::Buffer"* %11, i64 40) #9
  %13 = getelementptr inbounds %"class.mojo::internal::MessageFragment.74", %"class.mojo::internal::MessageFragment.74"* %1, i64 0, i32 1
  store i64 %12, i64* %13, align 8
  %14 = load %"class.mojo::Message"*, %"class.mojo::Message"** %9, align 8
  %15 = getelementptr inbounds %"class.mojo::Message", %"class.mojo::Message"* %14, i64 0, i32 1, i32 2
  %16 = load i8*, i8** %15, align 8
  %17 = getelementptr inbounds i8, i8* %16, i64 %12
  %18 = bitcast i8* %17 to %"class.performance_manager::mojom::internal::WebMemoryMeasurement_Data"*
  tail call void @_ZN19performance_manager5mojom8internal25WebMemoryMeasurement_DataC1Ev(%"class.performance_manager::mojom::internal::WebMemoryMeasurement_Data"* %18) #9
  %19 = load %"class.performance_manager::mojom::WebMemoryMeasurement"*, %"class.performance_manager::mojom::WebMemoryMeasurement"** %5, align 8
  %20 = load %"class.mojo::Message"*, %"class.mojo::Message"** %9, align 8
  %21 = ptrtoint %"class.mojo::Message"* %20 to i64
  %22 = bitcast %"class.mojo::internal::ContainerValidateParams"* %4 to i8*
  call void @llvm.lifetime.start.p0i8(i64 32, i8* nonnull %22) #9
  %23 = bitcast %"class.mojo::internal::ContainerValidateParams"* %4 to i64*
  store i64 -6148914691236517206, i64* %23, align 8
  %24 = getelementptr inbounds %"class.mojo::internal::ContainerValidateParams", %"class.mojo::internal::ContainerValidateParams"* %4, i64 0, i32 0
  store i32 0, i32* %24, align 8
  %25 = getelementptr inbounds %"class.mojo::internal::ContainerValidateParams", %"class.mojo::internal::ContainerValidateParams"* %4, i64 0, i32 1
  store i8 0, i8* %25, align 4
  %26 = getelementptr inbounds %"class.mojo::internal::ContainerValidateParams", %"class.mojo::internal::ContainerValidateParams"* %4, i64 0, i32 2
  %27 = getelementptr inbounds %"class.performance_manager::mojom::WebMemoryMeasurement", %"class.performance_manager::mojom::WebMemoryMeasurement"* %19, i64 0, i32 0, i32 0, i32 1
  %28 = bitcast %"class.mojo::StructPtr.37"** %27 to i64*
  %29 = bitcast %"class.mojo::internal::ContainerValidateParams"** %26 to i8*
  call void @llvm.memset.p0i8.i64(i8* align 8 %29, i8 0, i64 24, i1 false)
  %30 = load i64, i64* %28, align 8
  %31 = bitcast %"class.performance_manager::mojom::WebMemoryMeasurement"* %19 to i64*
  %32 = load i64, i64* %31, align 8
  %33 = sub i64 %30, %32
  %34 = ashr exact i64 %33, 3
  %35 = icmp ugt i64 %34, 536870910
  br i1 %35, label %54, label %36

36:                                               ; preds = %8
  %37 = trunc i64 %34 to i32
  %38 = trunc i64 %33 to i32
  %39 = add i32 %38, 8
  %40 = and i32 %39, -8
  %41 = getelementptr inbounds %"class.mojo::Message", %"class.mojo::Message"* %20, i64 0, i32 1
  %42 = zext i32 %40 to i64
  %43 = tail call i64 @_ZN4mojo8internal6Buffer8AllocateEm(%"class.mojo::internal::Buffer"* %41, i64 %42) #9
  %44 = getelementptr inbounds %"class.mojo::Message", %"class.mojo::Message"* %20, i64 0, i32 1, i32 2
  %45 = load i8*, i8** %44, align 8
  %46 = getelementptr inbounds i8, i8* %45, i64 %43
  %47 = bitcast i8* %46 to i32*
  store i32 %40, i32* %47, align 1
  %48 = getelementptr inbounds i8, i8* %46, i64 4
  %49 = bitcast i8* %48 to i32*
  store i32 %37, i32* %49, align 1
  %50 = load i64, i64* %28, align 8
  %51 = load i64, i64* %31, align 8
  %52 = sub i64 %50, %51
  %53 = ashr exact i64 %52, 3
  br label %54

54:                                               ; preds = %36, %8
  %55 = phi i64 [ -1, %8 ], [ %43, %36 ]
  %56 = phi i64 [ %34, %8 ], [ %53, %36 ]
  %57 = phi i64 [ %33, %8 ], [ %52, %36 ]
  %58 = phi i64 [ %32, %8 ], [ %51, %36 ]
  %59 = icmp eq i64 %57, 0
  br i1 %59, label %97, label %60

60:                                               ; preds = %54
  %61 = inttoptr i64 %58 to %"class.mojo::StructPtr.37"*
  %62 = bitcast %"class.mojo::internal::MessageFragment.134"* %3 to i8*
  %63 = getelementptr inbounds %"class.mojo::internal::MessageFragment.134", %"class.mojo::internal::MessageFragment.134"* %3, i64 0, i32 0
  %64 = getelementptr inbounds %"class.mojo::internal::MessageFragment.134", %"class.mojo::internal::MessageFragment.134"* %3, i64 0, i32 1
  %65 = bitcast %"class.mojo::internal::MessageFragment.134"* %3 to i64*
  %66 = getelementptr inbounds %"class.performance_manager::mojom::WebMemoryMeasurement", %"class.performance_manager::mojom::WebMemoryMeasurement"* %19, i64 0, i32 0, i32 0, i32 0
  %67 = getelementptr inbounds %"class.mojo::Message", %"class.mojo::Message"* %20, i64 0, i32 1, i32 2
  br label %68

68:                                               ; preds = %95, %60
  %69 = phi %"class.mojo::StructPtr.37"* [ %61, %60 ], [ %96, %95 ]
  %70 = phi i64 [ 0, %60 ], [ %71, %95 ]
  call void @llvm.lifetime.start.p0i8(i64 16, i8* nonnull %62) #9
  store i64 %21, i64* %65, align 8
  store i64 -1, i64* %64, align 8
  %71 = add nuw i64 %70, 1
  %72 = getelementptr inbounds %"class.mojo::StructPtr.37", %"class.mojo::StructPtr.37"* %69, i64 %70
  call void @_ZN4mojo8internal10SerializerIN19performance_manager5mojom31WebMemoryBreakdownEntryDataViewEKNS_9StructPtrINS3_23WebMemoryBreakdownEntryEEEE9SerializeERS8_RNS0_15MessageFragmentINS3_8internal28WebMemoryBreakdownEntry_DataEEE(%"class.mojo::StructPtr.37"* dereferenceable(8) %72, %"class.mojo::internal::MessageFragment.134"* nonnull dereferenceable(16) %3) #9
  %73 = load i8*, i8** %67, align 8
  %74 = getelementptr inbounds i8, i8* %73, i64 8
  %75 = getelementptr inbounds i8, i8* %74, i64 %55
  %76 = bitcast i8* %75 to %"class.mojo::internal::Array_Data.132"*
  %77 = getelementptr inbounds %"class.mojo::internal::Array_Data.132", %"class.mojo::internal::Array_Data.132"* %76, i64 %70
  %78 = load i64, i64* %64, align 8
  %79 = icmp eq i64 %78, -1
  br i1 %79, label %86, label %80

80:                                               ; preds = %68
  %81 = load %"class.mojo::Message"*, %"class.mojo::Message"** %63, align 8
  %82 = getelementptr inbounds %"class.mojo::Message", %"class.mojo::Message"* %81, i64 0, i32 1, i32 2
  %83 = load i8*, i8** %82, align 8
  %84 = getelementptr inbounds i8, i8* %83, i64 %78
  %85 = bitcast i8* %84 to %"class.performance_manager::mojom::internal::WebMemoryBreakdownEntry_Data"*
  br label %86

86:                                               ; preds = %80, %68
  %87 = phi %"class.performance_manager::mojom::internal::WebMemoryBreakdownEntry_Data"* [ %85, %80 ], [ null, %68 ]
  %88 = bitcast %"class.mojo::internal::Array_Data.132"* %77 to i64*
  %89 = icmp eq %"class.performance_manager::mojom::internal::WebMemoryBreakdownEntry_Data"* %87, null
  %90 = ptrtoint %"class.performance_manager::mojom::internal::WebMemoryBreakdownEntry_Data"* %87 to i64
  %91 = ptrtoint %"class.mojo::internal::Array_Data.132"* %77 to i64
  %92 = sub i64 %90, %91
  %93 = select i1 %89, i64 0, i64 %92
  store i64 %93, i64* %88, align 8
  call void @llvm.lifetime.end.p0i8(i64 16, i8* nonnull %62) #9
  %94 = icmp ult i64 %71, %56
  br i1 %94, label %95, label %97

95:                                               ; preds = %86
  %96 = load %"class.mojo::StructPtr.37"*, %"class.mojo::StructPtr.37"** %66, align 8
  br label %68

97:                                               ; preds = %86, %54
  %98 = load %"class.mojo::Message"*, %"class.mojo::Message"** %9, align 8
  %99 = load i64, i64* %13, align 8
  %100 = getelementptr inbounds %"class.mojo::Message", %"class.mojo::Message"* %98, i64 0, i32 1, i32 2
  %101 = load i8*, i8** %100, align 8
  %102 = getelementptr inbounds i8, i8* %101, i64 %99
  %103 = getelementptr inbounds i8, i8* %102, i64 8
  %104 = icmp eq i64 %55, -1
  br i1 %104, label %110, label %105

105:                                              ; preds = %97
  %106 = getelementptr inbounds %"class.mojo::Message", %"class.mojo::Message"* %20, i64 0, i32 1, i32 2
  %107 = load i8*, i8** %106, align 8
  %108 = getelementptr inbounds i8, i8* %107, i64 %55
  %109 = bitcast i8* %108 to %"class.mojo::internal::Array_Data.132"*
  br label %110

110:                                              ; preds = %97, %105
  %111 = phi %"class.mojo::internal::Array_Data.132"* [ %109, %105 ], [ null, %97 ]
  %112 = bitcast i8* %103 to i64*
  %113 = icmp eq %"class.mojo::internal::Array_Data.132"* %111, null
  %114 = ptrtoint %"class.mojo::internal::Array_Data.132"* %111 to i64
  %115 = ptrtoint i8* %103 to i64
  %116 = sub i64 %114, %115
  %117 = select i1 %113, i64 0, i64 %116
  store i64 %117, i64* %112, align 8
  %118 = load %"class.performance_manager::mojom::WebMemoryMeasurement"*, %"class.performance_manager::mojom::WebMemoryMeasurement"** %5, align 8
  %119 = load %"class.mojo::Message"*, %"class.mojo::Message"** %9, align 8
  %120 = getelementptr inbounds %"class.performance_manager::mojom::WebMemoryMeasurement", %"class.performance_manager::mojom::WebMemoryMeasurement"* %118, i64 0, i32 1, i32 1
  %121 = load i32, i32* %120, align 8
  %122 = icmp eq i32 %121, 0
  br i1 %122, label %123, label %129

123:                                              ; preds = %110
  %124 = load i64, i64* %13, align 8
  %125 = getelementptr inbounds %"class.mojo::Message", %"class.mojo::Message"* %119, i64 0, i32 1, i32 2
  %126 = load i8*, i8** %125, align 8
  %127 = getelementptr inbounds i8, i8* %126, i64 %124
  %128 = getelementptr inbounds i8, i8* %127, i64 16
  br label %154

129:                                              ; preds = %110
  %130 = getelementptr inbounds %"class.mojo::Message", %"class.mojo::Message"* %119, i64 0, i32 1
  %131 = call i64 @_ZN4mojo8internal6Buffer8AllocateEm(%"class.mojo::internal::Buffer"* %130, i64 16) #9
  %132 = getelementptr inbounds %"class.mojo::Message", %"class.mojo::Message"* %119, i64 0, i32 1, i32 2
  %133 = load i8*, i8** %132, align 8
  %134 = getelementptr inbounds i8, i8* %133, i64 %131
  %135 = bitcast i8* %134 to %"class.performance_manager::mojom::internal::WebMemoryUsage_Data"*
  call void @_ZN19performance_manager5mojom8internal19WebMemoryUsage_DataC1Ev(%"class.performance_manager::mojom::internal::WebMemoryUsage_Data"* %135) #9
  %136 = getelementptr inbounds %"class.performance_manager::mojom::WebMemoryMeasurement", %"class.performance_manager::mojom::WebMemoryMeasurement"* %118, i64 0, i32 1, i32 0, i32 0
  %137 = load i64, i64* %136, align 8
  %138 = load i8*, i8** %132, align 8
  %139 = getelementptr inbounds i8, i8* %138, i64 %131
  %140 = getelementptr inbounds i8, i8* %139, i64 8
  %141 = bitcast i8* %140 to i64*
  store i64 %137, i64* %141, align 1
  %142 = load %"class.mojo::Message"*, %"class.mojo::Message"** %9, align 8
  %143 = load i64, i64* %13, align 8
  %144 = getelementptr inbounds %"class.mojo::Message", %"class.mojo::Message"* %142, i64 0, i32 1, i32 2
  %145 = load i8*, i8** %144, align 8
  %146 = getelementptr inbounds i8, i8* %145, i64 %143
  %147 = getelementptr inbounds i8, i8* %146, i64 16
  %148 = icmp eq i64 %131, -1
  br i1 %148, label %154, label %149

149:                                              ; preds = %129
  %150 = getelementptr inbounds %"class.mojo::Message", %"class.mojo::Message"* %119, i64 0, i32 1, i32 2
  %151 = load i8*, i8** %150, align 8
  %152 = getelementptr inbounds i8, i8* %151, i64 %131
  %153 = bitcast i8* %152 to %"class.performance_manager::mojom::internal::WebMemoryUsage_Data"*
  br label %154

154:                                              ; preds = %123, %129, %149
  %155 = phi i8* [ %147, %149 ], [ %147, %129 ], [ %128, %123 ]
  %156 = phi %"class.performance_manager::mojom::internal::WebMemoryUsage_Data"* [ %153, %149 ], [ null, %129 ], [ null, %123 ]
  %157 = bitcast i8* %155 to i64*
  %158 = icmp eq %"class.performance_manager::mojom::internal::WebMemoryUsage_Data"* %156, null
  %159 = ptrtoint %"class.performance_manager::mojom::internal::WebMemoryUsage_Data"* %156 to i64
  %160 = ptrtoint i8* %155 to i64
  %161 = sub i64 %159, %160
  %162 = select i1 %158, i64 0, i64 %161
  store i64 %162, i64* %157, align 8
  %163 = load %"class.performance_manager::mojom::WebMemoryMeasurement"*, %"class.performance_manager::mojom::WebMemoryMeasurement"** %5, align 8
  %164 = load %"class.mojo::Message"*, %"class.mojo::Message"** %9, align 8
  %165 = getelementptr inbounds %"class.performance_manager::mojom::WebMemoryMeasurement", %"class.performance_manager::mojom::WebMemoryMeasurement"* %163, i64 0, i32 2, i32 1
  %166 = load i32, i32* %165, align 8
  %167 = icmp eq i32 %166, 0
  br i1 %167, label %168, label %174

168:                                              ; preds = %154
  %169 = load i64, i64* %13, align 8
  %170 = getelementptr inbounds %"class.mojo::Message", %"class.mojo::Message"* %164, i64 0, i32 1, i32 2
  %171 = load i8*, i8** %170, align 8
  %172 = getelementptr inbounds i8, i8* %171, i64 %169
  %173 = getelementptr inbounds i8, i8* %172, i64 24
  br label %199

174:                                              ; preds = %154
  %175 = getelementptr inbounds %"class.mojo::Message", %"class.mojo::Message"* %164, i64 0, i32 1
  %176 = call i64 @_ZN4mojo8internal6Buffer8AllocateEm(%"class.mojo::internal::Buffer"* %175, i64 16) #9
  %177 = getelementptr inbounds %"class.mojo::Message", %"class.mojo::Message"* %164, i64 0, i32 1, i32 2
  %178 = load i8*, i8** %177, align 8
  %179 = getelementptr inbounds i8, i8* %178, i64 %176
  %180 = bitcast i8* %179 to %"class.performance_manager::mojom::internal::WebMemoryUsage_Data"*
  call void @_ZN19performance_manager5mojom8internal19WebMemoryUsage_DataC1Ev(%"class.performance_manager::mojom::internal::WebMemoryUsage_Data"* %180) #9
  %181 = getelementptr inbounds %"class.performance_manager::mojom::WebMemoryMeasurement", %"class.performance_manager::mojom::WebMemoryMeasurement"* %163, i64 0, i32 2, i32 0, i32 0
  %182 = load i64, i64* %181, align 8
  %183 = load i8*, i8** %177, align 8
  %184 = getelementptr inbounds i8, i8* %183, i64 %176
  %185 = getelementptr inbounds i8, i8* %184, i64 8
  %186 = bitcast i8* %185 to i64*
  store i64 %182, i64* %186, align 1
  %187 = load %"class.mojo::Message"*, %"class.mojo::Message"** %9, align 8
  %188 = load i64, i64* %13, align 8
  %189 = getelementptr inbounds %"class.mojo::Message", %"class.mojo::Message"* %187, i64 0, i32 1, i32 2
  %190 = load i8*, i8** %189, align 8
  %191 = getelementptr inbounds i8, i8* %190, i64 %188
  %192 = getelementptr inbounds i8, i8* %191, i64 24
  %193 = icmp eq i64 %176, -1
  br i1 %193, label %199, label %194

194:                                              ; preds = %174
  %195 = getelementptr inbounds %"class.mojo::Message", %"class.mojo::Message"* %164, i64 0, i32 1, i32 2
  %196 = load i8*, i8** %195, align 8
  %197 = getelementptr inbounds i8, i8* %196, i64 %176
  %198 = bitcast i8* %197 to %"class.performance_manager::mojom::internal::WebMemoryUsage_Data"*
  br label %199

199:                                              ; preds = %168, %174, %194
  %200 = phi i8* [ %192, %194 ], [ %192, %174 ], [ %173, %168 ]
  %201 = phi %"class.performance_manager::mojom::internal::WebMemoryUsage_Data"* [ %198, %194 ], [ null, %174 ], [ null, %168 ]
  %202 = bitcast i8* %200 to i64*
  %203 = icmp eq %"class.performance_manager::mojom::internal::WebMemoryUsage_Data"* %201, null
  %204 = ptrtoint %"class.performance_manager::mojom::internal::WebMemoryUsage_Data"* %201 to i64
  %205 = ptrtoint i8* %200 to i64
  %206 = sub i64 %204, %205
  %207 = select i1 %203, i64 0, i64 %206
  store i64 %207, i64* %202, align 8
  %208 = load %"class.performance_manager::mojom::WebMemoryMeasurement"*, %"class.performance_manager::mojom::WebMemoryMeasurement"** %5, align 8
  %209 = load %"class.mojo::Message"*, %"class.mojo::Message"** %9, align 8
  %210 = getelementptr inbounds %"class.performance_manager::mojom::WebMemoryMeasurement", %"class.performance_manager::mojom::WebMemoryMeasurement"* %208, i64 0, i32 3, i32 1
  %211 = load i32, i32* %210, align 8
  %212 = icmp eq i32 %211, 0
  br i1 %212, label %213, label %219

213:                                              ; preds = %199
  %214 = load i64, i64* %13, align 8
  %215 = getelementptr inbounds %"class.mojo::Message", %"class.mojo::Message"* %209, i64 0, i32 1, i32 2
  %216 = load i8*, i8** %215, align 8
  %217 = getelementptr inbounds i8, i8* %216, i64 %214
  %218 = getelementptr inbounds i8, i8* %217, i64 32
  br label %244

219:                                              ; preds = %199
  %220 = getelementptr inbounds %"class.mojo::Message", %"class.mojo::Message"* %209, i64 0, i32 1
  %221 = call i64 @_ZN4mojo8internal6Buffer8AllocateEm(%"class.mojo::internal::Buffer"* %220, i64 16) #9
  %222 = getelementptr inbounds %"class.mojo::Message", %"class.mojo::Message"* %209, i64 0, i32 1, i32 2
  %223 = load i8*, i8** %222, align 8
  %224 = getelementptr inbounds i8, i8* %223, i64 %221
  %225 = bitcast i8* %224 to %"class.performance_manager::mojom::internal::WebMemoryUsage_Data"*
  call void @_ZN19performance_manager5mojom8internal19WebMemoryUsage_DataC1Ev(%"class.performance_manager::mojom::internal::WebMemoryUsage_Data"* %225) #9
  %226 = getelementptr inbounds %"class.performance_manager::mojom::WebMemoryMeasurement", %"class.performance_manager::mojom::WebMemoryMeasurement"* %208, i64 0, i32 3, i32 0, i32 0
  %227 = load i64, i64* %226, align 8
  %228 = load i8*, i8** %222, align 8
  %229 = getelementptr inbounds i8, i8* %228, i64 %221
  %230 = getelementptr inbounds i8, i8* %229, i64 8
  %231 = bitcast i8* %230 to i64*
  store i64 %227, i64* %231, align 1
  %232 = load %"class.mojo::Message"*, %"class.mojo::Message"** %9, align 8
  %233 = load i64, i64* %13, align 8
  %234 = getelementptr inbounds %"class.mojo::Message", %"class.mojo::Message"* %232, i64 0, i32 1, i32 2
  %235 = load i8*, i8** %234, align 8
  %236 = getelementptr inbounds i8, i8* %235, i64 %233
  %237 = getelementptr inbounds i8, i8* %236, i64 32
  %238 = icmp eq i64 %221, -1
  br i1 %238, label %244, label %239

239:                                              ; preds = %219
  %240 = getelementptr inbounds %"class.mojo::Message", %"class.mojo::Message"* %209, i64 0, i32 1, i32 2
  %241 = load i8*, i8** %240, align 8
  %242 = getelementptr inbounds i8, i8* %241, i64 %221
  %243 = bitcast i8* %242 to %"class.performance_manager::mojom::internal::WebMemoryUsage_Data"*
  br label %244

244:                                              ; preds = %213, %219, %239
  %245 = phi i8* [ %237, %239 ], [ %237, %219 ], [ %218, %213 ]
  %246 = phi %"class.performance_manager::mojom::internal::WebMemoryUsage_Data"* [ %243, %239 ], [ null, %219 ], [ null, %213 ]
  %247 = bitcast i8* %245 to i64*
  %248 = icmp eq %"class.performance_manager::mojom::internal::WebMemoryUsage_Data"* %246, null
  %249 = ptrtoint %"class.performance_manager::mojom::internal::WebMemoryUsage_Data"* %246 to i64
  %250 = ptrtoint i8* %245 to i64
  %251 = sub i64 %249, %250
  %252 = select i1 %248, i64 0, i64 %251
  store i64 %252, i64* %247, align 8
  call void @_ZN4mojo8internal23ContainerValidateParamsD2Ev(%"class.mojo::internal::ContainerValidateParams"* nonnull %4) #9
  call void @llvm.lifetime.end.p0i8(i64 32, i8* nonnull %22) #9
  br label %253

253:                                              ; preds = %2, %244
  ret void
}

; Function Attrs: nounwind ssp uwtable
define linkonce_odr hidden void @_ZN4mojo8internal23ContainerValidateParamsD2Ev(%"class.mojo::internal::ContainerValidateParams"*) unnamed_addr #1 comdat align 2 {
  %2 = getelementptr inbounds %"class.mojo::internal::ContainerValidateParams", %"class.mojo::internal::ContainerValidateParams"* %0, i64 0, i32 3
  %3 = load %"class.mojo::internal::ContainerValidateParams"*, %"class.mojo::internal::ContainerValidateParams"** %2, align 8
  %4 = icmp eq %"class.mojo::internal::ContainerValidateParams"* %3, null
  br i1 %4, label %7, label %5

5:                                                ; preds = %1
  tail call void @_ZN4mojo8internal23ContainerValidateParamsD2Ev(%"class.mojo::internal::ContainerValidateParams"* nonnull %3) #9
  %6 = bitcast %"class.mojo::internal::ContainerValidateParams"* %3 to i8*
  tail call void @_ZdlPv(i8* %6) #10
  br label %7

7:                                                ; preds = %1, %5
  %8 = getelementptr inbounds %"class.mojo::internal::ContainerValidateParams", %"class.mojo::internal::ContainerValidateParams"* %0, i64 0, i32 2
  %9 = load %"class.mojo::internal::ContainerValidateParams"*, %"class.mojo::internal::ContainerValidateParams"** %8, align 8
  %10 = icmp eq %"class.mojo::internal::ContainerValidateParams"* %9, null
  br i1 %10, label %13, label %11

11:                                               ; preds = %7
  tail call void @_ZN4mojo8internal23ContainerValidateParamsD2Ev(%"class.mojo::internal::ContainerValidateParams"* nonnull %9) #9
  %12 = bitcast %"class.mojo::internal::ContainerValidateParams"* %9 to i8*
  tail call void @_ZdlPv(i8* %12) #10
  ret void

13:                                               ; preds = %7
  ret void
}

declare void @_ZN19performance_manager5mojom8internal25WebMemoryMeasurement_DataC1Ev(%"class.performance_manager::mojom::internal::WebMemoryMeasurement_Data"*) unnamed_addr #3

; Function Attrs: nounwind ssp uwtable
define linkonce_odr hidden void @_ZN4mojo8internal10SerializerIN19performance_manager5mojom31WebMemoryBreakdownEntryDataViewEKNS_9StructPtrINS3_23WebMemoryBreakdownEntryEEEE9SerializeERS8_RNS0_15MessageFragmentINS3_8internal28WebMemoryBreakdownEntry_DataEEE(%"class.mojo::StructPtr.37"* dereferenceable(8), %"class.mojo::internal::MessageFragment.134"* dereferenceable(16)) local_unnamed_addr #1 comdat align 2 {
  %3 = alloca %"class.mojo::internal::MessageFragment.140", align 8
  %4 = alloca %"class.mojo::internal::ContainerValidateParams", align 8
  %5 = getelementptr inbounds %"class.mojo::StructPtr.37", %"class.mojo::StructPtr.37"* %0, i64 0, i32 0, i32 0, i32 0, i32 0
  %6 = load %"class.performance_manager::mojom::WebMemoryBreakdownEntry"*, %"class.performance_manager::mojom::WebMemoryBreakdownEntry"** %5, align 8
  %7 = icmp eq %"class.performance_manager::mojom::WebMemoryBreakdownEntry"* %6, null
  br i1 %7, label %163, label %8

