; ModuleID = '../../third_party/pdfium/fpdfsdk/cpdfsdk_filewriteadapter.cpp'
source_filename = "../../third_party/pdfium/fpdfsdk/cpdfsdk_filewriteadapter.cpp"
target datalayout = "e-m:e-i64:64-f80:128-n8:16:32:64-S128"
target triple = "x86_64-unknown-linux-gnu"

module asm ".symver exp, exp@GLIBC_2.2.5"
module asm ".symver exp2, exp2@GLIBC_2.2.5"
module asm ".symver exp2f, exp2f@GLIBC_2.2.5"
module asm ".symver expf, expf@GLIBC_2.2.5"
module asm ".symver lgamma, lgamma@GLIBC_2.2.5"
module asm ".symver lgammaf, lgammaf@GLIBC_2.2.5"
module asm ".symver lgammal, lgammal@GLIBC_2.2.5"
module asm ".symver log, log@GLIBC_2.2.5"
module asm ".symver log2, log2@GLIBC_2.2.5"
module asm ".symver log2f, log2f@GLIBC_2.2.5"
module asm ".symver logf, logf@GLIBC_2.2.5"
module asm ".symver pow, pow@GLIBC_2.2.5"
module asm ".symver powf, powf@GLIBC_2.2.5"

%class.CPDFSDK_FileWriteAdapter = type { %class.IFX_RetainableWriteStream.base, %"class.fxcrt::UnownedPtr", %"class.fxcrt::Retainable" }
%class.IFX_RetainableWriteStream.base = type { %class.IFX_WriteStream }
%class.IFX_WriteStream = type { i32 (...)** }
%"class.fxcrt::UnownedPtr" = type { %struct.FPDF_FILEWRITE_* }
%"class.fxcrt::Retainable" = type { i32 (...)**, i64 }
%struct.FPDF_FILEWRITE_ = type { i32, i32 (%struct.FPDF_FILEWRITE_*, i8*, i64)* }
%"class.fxcrt::StringViewTemplate" = type { %"class.pdfium::span" }
%"class.pdfium::span" = type { %"class.fxcrt::UnownedPtr.0", i64 }
%"class.fxcrt::UnownedPtr.0" = type { i8* }
%class.IFX_RetainableWriteStream = type { %class.IFX_WriteStream, %"class.fxcrt::Retainable" }

$_ZN25IFX_RetainableWriteStreamD1Ev = comdat any

$_ZN25IFX_RetainableWriteStreamD0Ev = comdat any

$_ZTv0_n24_N25IFX_RetainableWriteStreamD1Ev = comdat any

$_ZTv0_n24_N25IFX_RetainableWriteStreamD0Ev = comdat any

$_ZN15IFX_WriteStreamD2Ev = comdat any

$_ZN15IFX_WriteStreamD0Ev = comdat any

$_ZTV15IFX_WriteStream = comdat any

@_ZTV24CPDFSDK_FileWriteAdapter = hidden unnamed_addr constant { [7 x i8*], [5 x i8*] } { [7 x i8*] [i8* inttoptr (i64 16 to i8*), i8* null, i8* null, i8* bitcast (i1 (%class.CPDFSDK_FileWriteAdapter*, i8*, i64)* @_ZN24CPDFSDK_FileWriteAdapter10WriteBlockEPKvm to i8*), i8* bitcast (i1 (%class.CPDFSDK_FileWriteAdapter*, %"class.fxcrt::StringViewTemplate"*)* @_ZN24CPDFSDK_FileWriteAdapter11WriteStringEN5fxcrt18StringViewTemplateIcEE to i8*), i8* bitcast (void (%class.CPDFSDK_FileWriteAdapter*)* @_ZN24CPDFSDK_FileWriteAdapterD1Ev to i8*), i8* bitcast (void (%class.CPDFSDK_FileWriteAdapter*)* @_ZN24CPDFSDK_FileWriteAdapterD0Ev to i8*)], [5 x i8*] [i8* inttoptr (i64 -16 to i8*), i8* inttoptr (i64 -16 to i8*), i8* null, i8* bitcast (void (%class.CPDFSDK_FileWriteAdapter*)* @_ZTv0_n24_N24CPDFSDK_FileWriteAdapterD1Ev to i8*), i8* bitcast (void (%class.CPDFSDK_FileWriteAdapter*)* @_ZTv0_n24_N24CPDFSDK_FileWriteAdapterD0Ev to i8*)] }, align 8
@_ZTT24CPDFSDK_FileWriteAdapter = hidden unnamed_addr constant [4 x i8*] [i8* bitcast (i8** getelementptr inbounds ({ [7 x i8*], [5 x i8*] }, { [7 x i8*], [5 x i8*] }* @_ZTV24CPDFSDK_FileWriteAdapter, i32 0, inrange i32 0, i32 3) to i8*), i8* bitcast (i8** getelementptr inbounds ({ [7 x i8*], [5 x i8*] }, { [7 x i8*], [5 x i8*] }* @_ZTC24CPDFSDK_FileWriteAdapter0_25IFX_RetainableWriteStream, i32 0, inrange i32 0, i32 3) to i8*), i8* bitcast (i8** getelementptr inbounds ({ [7 x i8*], [5 x i8*] }, { [7 x i8*], [5 x i8*] }* @_ZTC24CPDFSDK_FileWriteAdapter0_25IFX_RetainableWriteStream, i32 0, inrange i32 1, i32 3) to i8*), i8* bitcast (i8** getelementptr inbounds ({ [7 x i8*], [5 x i8*] }, { [7 x i8*], [5 x i8*] }* @_ZTV24CPDFSDK_FileWriteAdapter, i32 0, inrange i32 1, i32 3) to i8*)], align 8
@_ZTC24CPDFSDK_FileWriteAdapter0_25IFX_RetainableWriteStream = hidden unnamed_addr constant { [7 x i8*], [5 x i8*] } { [7 x i8*] [i8* inttoptr (i64 16 to i8*), i8* null, i8* null, i8* bitcast (void ()* @__cxa_pure_virtual to i8*), i8* bitcast (void ()* @__cxa_pure_virtual to i8*), i8* bitcast (void (%class.IFX_RetainableWriteStream*)* @_ZN25IFX_RetainableWriteStreamD1Ev to i8*), i8* bitcast (void (%class.IFX_RetainableWriteStream*)* @_ZN25IFX_RetainableWriteStreamD0Ev to i8*)], [5 x i8*] [i8* inttoptr (i64 -16 to i8*), i8* inttoptr (i64 -16 to i8*), i8* null, i8* bitcast (void (%class.IFX_RetainableWriteStream*)* @_ZTv0_n24_N25IFX_RetainableWriteStreamD1Ev to i8*), i8* bitcast (void (%class.IFX_RetainableWriteStream*)* @_ZTv0_n24_N25IFX_RetainableWriteStreamD0Ev to i8*)] }, align 8
@_ZTV15IFX_WriteStream = linkonce_odr hidden unnamed_addr constant { [6 x i8*] } { [6 x i8*] [i8* null, i8* null, i8* bitcast (void ()* @__cxa_pure_virtual to i8*), i8* bitcast (void ()* @__cxa_pure_virtual to i8*), i8* bitcast (void (%class.IFX_WriteStream*)* @_ZN15IFX_WriteStreamD2Ev to i8*), i8* bitcast (void (%class.IFX_WriteStream*)* @_ZN15IFX_WriteStreamD0Ev to i8*)] }, comdat, align 8

; Function Attrs: nofree norecurse nounwind ssp uwtable
define hidden void @_ZN24CPDFSDK_FileWriteAdapterC2EP15FPDF_FILEWRITE_(%class.CPDFSDK_FileWriteAdapter* nocapture, i8** nocapture readonly, %struct.FPDF_FILEWRITE_*) unnamed_addr #0 align 2 {
  %4 = getelementptr inbounds i8*, i8** %1, i64 1
  %5 = getelementptr inbounds %class.CPDFSDK_FileWriteAdapter, %class.CPDFSDK_FileWriteAdapter* %0, i64 0, i32 0, i32 0, i32 0
  store i32 (...)** bitcast (i8** getelementptr inbounds ({ [6 x i8*] }, { [6 x i8*] }* @_ZTV15IFX_WriteStream, i64 0, inrange i32 0, i64 2) to i32 (...)**), i32 (...)*** %5, align 8
  %6 = bitcast i8** %4 to i64*
  %7 = load i64, i64* %6, align 8
  %8 = bitcast %class.CPDFSDK_FileWriteAdapter* %0 to i64*
  store i64 %7, i64* %8, align 8
  %9 = getelementptr inbounds i8*, i8** %1, i64 2
  %10 = bitcast i8** %9 to i64*
  %11 = load i64, i64* %10, align 8
  %12 = inttoptr i64 %7 to i8*
  %13 = getelementptr i8, i8* %12, i64 -24
  %14 = bitcast i8* %13 to i64*
  %15 = load i64, i64* %14, align 8
  %16 = bitcast %class.CPDFSDK_FileWriteAdapter* %0 to i8*
  %17 = getelementptr inbounds i8, i8* %16, i64 %15
  %18 = bitcast i8* %17 to i64*
  store i64 %11, i64* %18, align 8
  %19 = bitcast i8** %1 to i64*
  %20 = load i64, i64* %19, align 8
  store i64 %20, i64* %8, align 8
  %21 = getelementptr inbounds i8*, i8** %1, i64 3
  %22 = bitcast i8** %21 to i64*
  %23 = load i64, i64* %22, align 8
  %24 = inttoptr i64 %20 to i8*
  %25 = getelementptr i8, i8* %24, i64 -24
  %26 = bitcast i8* %25 to i64*
  %27 = load i64, i64* %26, align 8
  %28 = getelementptr inbounds i8, i8* %16, i64 %27
  %29 = bitcast i8* %28 to i64*
  store i64 %23, i64* %29, align 8
  %30 = getelementptr inbounds %class.CPDFSDK_FileWriteAdapter, %class.CPDFSDK_FileWriteAdapter* %0, i64 0, i32 1, i32 0
  store %struct.FPDF_FILEWRITE_* %2, %struct.FPDF_FILEWRITE_** %30, align 8
  ret void
}

; Function Attrs: nofree norecurse nounwind ssp uwtable writeonly
define hidden void @_ZN24CPDFSDK_FileWriteAdapterC1EP15FPDF_FILEWRITE_(%class.CPDFSDK_FileWriteAdapter* nocapture, %struct.FPDF_FILEWRITE_*) unnamed_addr #1 align 2 {
  %3 = getelementptr inbounds %class.CPDFSDK_FileWriteAdapter, %class.CPDFSDK_FileWriteAdapter* %0, i64 0, i32 2, i32 0
  %4 = getelementptr inbounds %class.CPDFSDK_FileWriteAdapter, %class.CPDFSDK_FileWriteAdapter* %0, i64 0, i32 2, i32 1
  store i64 0, i64* %4, align 8
  %5 = getelementptr inbounds %class.CPDFSDK_FileWriteAdapter, %class.CPDFSDK_FileWriteAdapter* %0, i64 0, i32 0, i32 0, i32 0
  store i32 (...)** bitcast (i8** getelementptr inbounds ({ [7 x i8*], [5 x i8*] }, { [7 x i8*], [5 x i8*] }* @_ZTV24CPDFSDK_FileWriteAdapter, i64 0, inrange i32 0, i64 3) to i32 (...)**), i32 (...)*** %5, align 8
  store i32 (...)** bitcast (i8** getelementptr inbounds ({ [7 x i8*], [5 x i8*] }, { [7 x i8*], [5 x i8*] }* @_ZTV24CPDFSDK_FileWriteAdapter, i64 0, inrange i32 1, i64 3) to i32 (...)**), i32 (...)*** %3, align 8
  %6 = getelementptr inbounds %class.CPDFSDK_FileWriteAdapter, %class.CPDFSDK_FileWriteAdapter* %0, i64 0, i32 1, i32 0
  store %struct.FPDF_FILEWRITE_* %1, %struct.FPDF_FILEWRITE_** %6, align 8
  ret void
}

; Function Attrs: nofree norecurse nounwind ssp uwtable
define hidden void @_ZN24CPDFSDK_FileWriteAdapterD2Ev(%class.CPDFSDK_FileWriteAdapter* nocapture, i8** nocapture readonly) unnamed_addr #0 align 2 {
  %3 = bitcast i8** %1 to i64*
  %4 = load i64, i64* %3, align 8
  %5 = bitcast %class.CPDFSDK_FileWriteAdapter* %0 to i64*
  store i64 %4, i64* %5, align 8
  %6 = getelementptr inbounds i8*, i8** %1, i64 3
  %7 = bitcast i8** %6 to i64*
  %8 = load i64, i64* %7, align 8
  %9 = inttoptr i64 %4 to i8*
  %10 = getelementptr i8, i8* %9, i64 -24
  %11 = bitcast i8* %10 to i64*
  %12 = load i64, i64* %11, align 8
  %13 = bitcast %class.CPDFSDK_FileWriteAdapter* %0 to i8*
  %14 = getelementptr inbounds i8, i8* %13, i64 %12
  %15 = bitcast i8* %14 to i64*
  store i64 %8, i64* %15, align 8
  ret void
}

; Function Attrs: nofree norecurse nounwind ssp uwtable writeonly
define hidden void @_ZN24CPDFSDK_FileWriteAdapterD1Ev(%class.CPDFSDK_FileWriteAdapter* nocapture) unnamed_addr #1 align 2 {
  %2 = bitcast %class.CPDFSDK_FileWriteAdapter* %0 to i64*
  store i64 ptrtoint (i8** getelementptr inbounds ({ [7 x i8*], [5 x i8*] }, { [7 x i8*], [5 x i8*] }* @_ZTV24CPDFSDK_FileWriteAdapter, i64 0, inrange i32 0, i64 3) to i64), i64* %2, align 8
  %3 = getelementptr inbounds %class.CPDFSDK_FileWriteAdapter, %class.CPDFSDK_FileWriteAdapter* %0, i64 0, i32 2
  %4 = bitcast %"class.fxcrt::Retainable"* %3 to i64*
  store i64 ptrtoint (i8** getelementptr inbounds ({ [7 x i8*], [5 x i8*] }, { [7 x i8*], [5 x i8*] }* @_ZTV24CPDFSDK_FileWriteAdapter, i64 0, inrange i32 1, i64 3) to i64), i64* %4, align 8
  ret void
}

; Function Attrs: nofree norecurse nounwind ssp uwtable
define hidden void @_ZTv0_n24_N24CPDFSDK_FileWriteAdapterD1Ev(%class.CPDFSDK_FileWriteAdapter* nocapture) unnamed_addr #0 align 2 {
  %2 = bitcast %class.CPDFSDK_FileWriteAdapter* %0 to i8*
  %3 = bitcast %class.CPDFSDK_FileWriteAdapter* %0 to i8**
  %4 = load i8*, i8** %3, align 8
  %5 = getelementptr inbounds i8, i8* %4, i64 -24
  %6 = bitcast i8* %5 to i64*
  %7 = load i64, i64* %6, align 8
  %8 = getelementptr inbounds i8, i8* %2, i64 %7
  %9 = bitcast i8* %8 to i64*
  store i64 ptrtoint (i8** getelementptr inbounds ({ [7 x i8*], [5 x i8*] }, { [7 x i8*], [5 x i8*] }* @_ZTV24CPDFSDK_FileWriteAdapter, i64 0, inrange i32 0, i64 3) to i64), i64* %9, align 8
  %10 = getelementptr inbounds i8, i8* %8, i64 16
  %11 = bitcast i8* %10 to i64*
  store i64 ptrtoint (i8** getelementptr inbounds ({ [7 x i8*], [5 x i8*] }, { [7 x i8*], [5 x i8*] }* @_ZTV24CPDFSDK_FileWriteAdapter, i64 0, inrange i32 1, i64 3) to i64), i64* %11, align 8
  ret void
}

; Function Attrs: nounwind ssp uwtable
define hidden void @_ZN24CPDFSDK_FileWriteAdapterD0Ev(%class.CPDFSDK_FileWriteAdapter*) unnamed_addr #2 align 2 {
  %2 = bitcast %class.CPDFSDK_FileWriteAdapter* %0 to i8*
  tail call void @_ZdlPv(i8* %2) #6
  ret void
}

; Function Attrs: nobuiltin nounwind
declare void @_ZdlPv(i8*) local_unnamed_addr #3

; Function Attrs: nounwind ssp uwtable
define hidden void @_ZTv0_n24_N24CPDFSDK_FileWriteAdapterD0Ev(%class.CPDFSDK_FileWriteAdapter*) unnamed_addr #2 align 2 {
  %2 = bitcast %class.CPDFSDK_FileWriteAdapter* %0 to i8*
  %3 = bitcast %class.CPDFSDK_FileWriteAdapter* %0 to i8**
  %4 = load i8*, i8** %3, align 8
  %5 = getelementptr inbounds i8, i8* %4, i64 -24
  %6 = bitcast i8* %5 to i64*
  %7 = load i64, i64* %6, align 8
  %8 = getelementptr inbounds i8, i8* %2, i64 %7
  tail call void @_ZdlPv(i8* %8) #6
  ret void
}

; Function Attrs: nounwind ssp uwtable
define hidden zeroext i1 @_ZN24CPDFSDK_FileWriteAdapter10WriteBlockEPKvm(%class.CPDFSDK_FileWriteAdapter* nocapture readonly, i8*, i64) unnamed_addr #2 align 2 {
  %4 = getelementptr inbounds %class.CPDFSDK_FileWriteAdapter, %class.CPDFSDK_FileWriteAdapter* %0, i64 0, i32 1, i32 0
  %5 = load %struct.FPDF_FILEWRITE_*, %struct.FPDF_FILEWRITE_** %4, align 8
  %6 = getelementptr inbounds %struct.FPDF_FILEWRITE_, %struct.FPDF_FILEWRITE_* %5, i64 0, i32 1
  %7 = load i32 (%struct.FPDF_FILEWRITE_*, i8*, i64)*, i32 (%struct.FPDF_FILEWRITE_*, i8*, i64)** %6, align 8
  %8 = tail call i32 %7(%struct.FPDF_FILEWRITE_* %5, i8* %1, i64 %2) #7
  %9 = icmp ne i32 %8, 0
  ret i1 %9
}

; Function Attrs: nounwind ssp uwtable
define hidden zeroext i1 @_ZN24CPDFSDK_FileWriteAdapter11WriteStringEN5fxcrt18StringViewTemplateIcEE(%class.CPDFSDK_FileWriteAdapter* nocapture readonly, %"class.fxcrt::StringViewTemplate"* nocapture readonly) unnamed_addr #2 align 2 {
  %3 = getelementptr inbounds %"class.fxcrt::StringViewTemplate", %"class.fxcrt::StringViewTemplate"* %1, i64 0, i32 0, i32 0, i32 0
  %4 = load i8*, i8** %3, align 8
  %5 = getelementptr inbounds %"class.fxcrt::StringViewTemplate", %"class.fxcrt::StringViewTemplate"* %1, i64 0, i32 0, i32 1
  %6 = load i64, i64* %5, align 8
  %7 = getelementptr inbounds %class.CPDFSDK_FileWriteAdapter, %class.CPDFSDK_FileWriteAdapter* %0, i64 0, i32 1, i32 0
  %8 = load %struct.FPDF_FILEWRITE_*, %struct.FPDF_FILEWRITE_** %7, align 8
  %9 = getelementptr inbounds %struct.FPDF_FILEWRITE_, %struct.FPDF_FILEWRITE_* %8, i64 0, i32 1
  %10 = load i32 (%struct.FPDF_FILEWRITE_*, i8*, i64)*, i32 (%struct.FPDF_FILEWRITE_*, i8*, i64)** %9, align 8
  %11 = tail call i32 %10(%struct.FPDF_FILEWRITE_* %8, i8* %4, i64 %6) #7
  %12 = icmp ne i32 %11, 0
  ret i1 %12
}

declare void @__cxa_pure_virtual() unnamed_addr

; Function Attrs: inlinehint nounwind ssp uwtable
define linkonce_odr hidden void @_ZN25IFX_RetainableWriteStreamD1Ev(%class.IFX_RetainableWriteStream*) unnamed_addr #4 comdat align 2 {
  tail call void @llvm.trap() #8
  unreachable
}

; Function Attrs: inlinehint nounwind ssp uwtable
define linkonce_odr hidden void @_ZN25IFX_RetainableWriteStreamD0Ev(%class.IFX_RetainableWriteStream*) unnamed_addr #4 comdat align 2 {
  tail call void @llvm.trap() #8
  unreachable
}

; Function Attrs: inlinehint nounwind ssp uwtable
define linkonce_odr hidden void @_ZTv0_n24_N25IFX_RetainableWriteStreamD1Ev(%class.IFX_RetainableWriteStream*) unnamed_addr #4 comdat align 2 {
  tail call void @llvm.trap() #8
  unreachable
}

; Function Attrs: inlinehint nounwind ssp uwtable
define linkonce_odr hidden void @_ZTv0_n24_N25IFX_RetainableWriteStreamD0Ev(%class.IFX_RetainableWriteStream*) unnamed_addr #4 comdat align 2 {
  tail call void @llvm.trap() #8
  unreachable
}

; Function Attrs: nounwind ssp uwtable
define linkonce_odr hidden void @_ZN15IFX_WriteStreamD2Ev(%class.IFX_WriteStream*) unnamed_addr #2 comdat align 2 {
  ret void
}

; Function Attrs: nounwind ssp uwtable
define linkonce_odr hidden void @_ZN15IFX_WriteStreamD0Ev(%class.IFX_WriteStream*) unnamed_addr #2 comdat align 2 {
  tail call void @llvm.trap() #8
  unreachable
}

; Function Attrs: cold noreturn nounwind
declare void @llvm.trap() #5

attributes #0 = { nofree norecurse nounwind ssp uwtable "correctly-rounded-divide-sqrt-fp-math"="false" "disable-tail-calls"="false" "less-precise-fpmad"="false" "min-legal-vector-width"="0" "no-frame-pointer-elim"="false" "no-frame-pointer-elim-non-leaf" "no-infs-fp-math"="false" "no-jump-tables"="false" "no-nans-fp-math"="false" "no-signed-zeros-fp-math"="false" "no-trapping-math"="false" "null-pointer-is-valid"="true" "stack-protector-buffer-size"="4" "target-cpu"="x86-64" "target-features"="+cx8,+fxsr,+mmx,+sse,+sse2,+sse3,+x87" "unsafe-fp-math"="false" "use-soft-float"="false" }
attributes #1 = { nofree norecurse nounwind ssp uwtable writeonly "correctly-rounded-divide-sqrt-fp-math"="false" "disable-tail-calls"="false" "less-precise-fpmad"="false" "min-legal-vector-width"="0" "no-frame-pointer-elim"="false" "no-frame-pointer-elim-non-leaf" "no-infs-fp-math"="false" "no-jump-tables"="false" "no-nans-fp-math"="false" "no-signed-zeros-fp-math"="false" "no-trapping-math"="false" "null-pointer-is-valid"="true" "stack-protector-buffer-size"="4" "target-cpu"="x86-64" "target-features"="+cx8,+fxsr,+mmx,+sse,+sse2,+sse3,+x87" "unsafe-fp-math"="false" "use-soft-float"="false" }
attributes #2 = { nounwind ssp uwtable "correctly-rounded-divide-sqrt-fp-math"="false" "disable-tail-calls"="false" "less-precise-fpmad"="false" "min-legal-vector-width"="0" "no-frame-pointer-elim"="false" "no-frame-pointer-elim-non-leaf" "no-infs-fp-math"="false" "no-jump-tables"="false" "no-nans-fp-math"="false" "no-signed-zeros-fp-math"="false" "no-trapping-math"="false" "null-pointer-is-valid"="true" "stack-protector-buffer-size"="4" "target-cpu"="x86-64" "target-features"="+cx8,+fxsr,+mmx,+sse,+sse2,+sse3,+x87" "unsafe-fp-math"="false" "use-soft-float"="false" }
attributes #3 = { nobuiltin nounwind "correctly-rounded-divide-sqrt-fp-math"="false" "disable-tail-calls"="false" "less-precise-fpmad"="false" "no-frame-pointer-elim"="false" "no-frame-pointer-elim-non-leaf" "no-infs-fp-math"="false" "no-nans-fp-math"="false" "no-signed-zeros-fp-math"="false" "no-trapping-math"="false" "null-pointer-is-valid"="true" "stack-protector-buffer-size"="4" "target-cpu"="x86-64" "target-features"="+cx8,+fxsr,+mmx,+sse,+sse2,+sse3,+x87" "unsafe-fp-math"="false" "use-soft-float"="false" }
attributes #4 = { inlinehint nounwind ssp uwtable "correctly-rounded-divide-sqrt-fp-math"="false" "disable-tail-calls"="false" "less-precise-fpmad"="false" "min-legal-vector-width"="0" "no-frame-pointer-elim"="false" "no-frame-pointer-elim-non-leaf" "no-infs-fp-math"="false" "no-jump-tables"="false" "no-nans-fp-math"="false" "no-signed-zeros-fp-math"="false" "no-trapping-math"="false" "null-pointer-is-valid"="true" "stack-protector-buffer-size"="4" "target-cpu"="x86-64" "target-features"="+cx8,+fxsr,+mmx,+sse,+sse2,+sse3,+x87" "unsafe-fp-math"="false" "use-soft-float"="false" }
attributes #5 = { cold noreturn nounwind }
attributes #6 = { builtin nounwind }
attributes #7 = { nounwind }
attributes #8 = { noreturn nounwind }

!llvm.module.flags = !{!0, !1}

!0 = !{i32 1, !"wchar_size", i32 4}
!1 = !{i32 7, !"PIC Level", i32 2}
