; ModuleID = '../../third_party/pdfium/fpdfsdk/cpdfsdk_annotiteration.cpp'
source_filename = "../../third_party/pdfium/fpdfsdk/cpdfsdk_annotiteration.cpp"
target datalayout = "e-m:e-i64:64-f80:128-n8:16:32:64-S128"
target triple = "x86_64-unknown-linux-gnu"

module asm ".symver exp, exp@GLIBC_2.2.5"
module asm ".symver exp2, exp2@GLIBC_2.2.5"
module asm ".symver exp2f, exp2f@GLIBC_2.2.5"
module asm ".symver expf, expf@GLIBC_2.2.5"
module asm ".symver lgamma, lgamma@GLIBC_2.2.5"
module asm ".symver lgammaf, lgammaf@GLIBC_2.2.5"
module asm ".symver lgammal, lgammal@GLIBC_2.2.5"
module asm ".symver log, log@GLIBC_2.2.5"
module asm ".symver log2, log2@GLIBC_2.2.5"
module asm ".symver log2f, log2f@GLIBC_2.2.5"
module asm ".symver logf, logf@GLIBC_2.2.5"
module asm ".symver pow, pow@GLIBC_2.2.5"
module asm ".symver powf, powf@GLIBC_2.2.5"

%"struct.std::nothrow_t" = type { i8 }
%class.CPDFSDK_AnnotIteration = type { %"class.std::__1::vector" }
%"class.std::__1::vector" = type { %"class.std::__1::__vector_base" }
%"class.std::__1::__vector_base" = type { %"class.fxcrt::ObservedPtr"*, %"class.fxcrt::ObservedPtr"*, %"class.std::__1::__compressed_pair.4" }
%"class.fxcrt::ObservedPtr" = type { %"class.fxcrt::Observable::ObserverIface", %class.CPDFSDK_Annot* }
%"class.fxcrt::Observable::ObserverIface" = type { i32 (...)** }
%class.CPDFSDK_Annot = type { i32 (...)**, %"class.fxcrt::Observable", %"class.fxcrt::UnownedPtr" }
%"class.fxcrt::Observable" = type { %"class.std::__1::set" }
%"class.std::__1::set" = type { %"class.std::__1::__tree" }
%"class.std::__1::__tree" = type { %"class.std::__1::__tree_end_node"*, %"class.std::__1::__compressed_pair", %"class.std::__1::__compressed_pair.1" }
%"class.std::__1::__tree_end_node" = type { %"class.std::__1::__tree_node_base"* }
%"class.std::__1::__tree_node_base" = type opaque
%"class.std::__1::__compressed_pair" = type { %"struct.std::__1::__compressed_pair_elem" }
%"struct.std::__1::__compressed_pair_elem" = type { %"class.std::__1::__tree_end_node" }
%"class.std::__1::__compressed_pair.1" = type { %"struct.std::__1::__compressed_pair_elem.2" }
%"struct.std::__1::__compressed_pair_elem.2" = type { i64 }
%"class.fxcrt::UnownedPtr" = type { %class.CPDFSDK_PageView* }
%"class.std::__1::__compressed_pair.4" = type { %"struct.std::__1::__compressed_pair_elem.5" }
%"struct.std::__1::__compressed_pair_elem.5" = type { %"class.fxcrt::ObservedPtr"* }
%class.CPDFSDK_PageView = type <{ %"class.CPDF_Page::View", %class.CFX_Matrix, %"class.fxcrt::UnownedPtr.9", %"class.std::__1::unique_ptr", %"class.std::__1::vector.13", %"class.fxcrt::UnownedPtr.20", %"class.fxcrt::ObservedPtr", %"class.fxcrt::RetainPtr", i8, i8, i8, i8, [4 x i8] }>
%"class.CPDF_Page::View" = type { %"class.fxcrt::Observable" }
%class.CFX_Matrix = type { float, float, float, float, float, float }
%"class.fxcrt::UnownedPtr.9" = type { %class.IPDF_Page* }
%class.IPDF_Page = type { %"class.fxcrt::Retainable" }
%"class.fxcrt::Retainable" = type { i32 (...)**, i64 }
%"class.std::__1::unique_ptr" = type { %"class.std::__1::__compressed_pair.10" }
%"class.std::__1::__compressed_pair.10" = type { %"struct.std::__1::__compressed_pair_elem.11" }
%"struct.std::__1::__compressed_pair_elem.11" = type { %class.CPDF_AnnotList* }
%class.CPDF_AnnotList = type opaque
%"class.std::__1::vector.13" = type { %"class.std::__1::__vector_base.14" }
%"class.std::__1::__vector_base.14" = type { %class.CPDFSDK_Annot**, %class.CPDFSDK_Annot**, %"class.std::__1::__compressed_pair.15" }
%"class.std::__1::__compressed_pair.15" = type { %"struct.std::__1::__compressed_pair_elem.16" }
%"struct.std::__1::__compressed_pair_elem.16" = type { %class.CPDFSDK_Annot** }
%"class.fxcrt::UnownedPtr.20" = type { %class.CPDFSDK_FormFillEnvironment* }
%class.CPDFSDK_FormFillEnvironment = type opaque
%"class.fxcrt::RetainPtr" = type { %"class.std::__1::unique_ptr.21" }
%"class.std::__1::unique_ptr.21" = type { %"class.std::__1::__compressed_pair.22" }
%"class.std::__1::__compressed_pair.22" = type { %"struct.std::__1::__compressed_pair_elem.23" }
%"struct.std::__1::__compressed_pair_elem.23" = type { %class.CPDF_Page* }
%class.CPDF_Page = type { %class.IPDF_Page, %class.CPDF_PageObjectHolder, %class.CFX_STemplate, %class.CFX_Matrix, %"class.fxcrt::UnownedPtr.66", %"class.std::__1::unique_ptr.100", %"class.std::__1::unique_ptr.106", %"class.fxcrt::ObservedPtr.112" }
%class.CPDF_PageObjectHolder = type { i32 (...)**, %"class.fxcrt::RetainPtr.24", %"class.fxcrt::RetainPtr.24", %"class.std::__1::map.44", %"class.std::__1::map.55", %class.CFX_FloatRect, %class.CPDF_Transparency, i8, i8, %"class.fxcrt::RetainPtr.24", %"class.fxcrt::UnownedPtr.66", %"class.std::__1::vector.67", %"class.std::__1::unique_ptr.74", %"class.std::__1::deque", %class.CFX_Matrix, %"class.std::__1::set.90" }
%"class.std::__1::map.44" = type { %"class.std::__1::__tree.45" }
%"class.std::__1::__tree.45" = type { %"class.std::__1::__tree_end_node"*, %"class.std::__1::__compressed_pair.46", %"class.std::__1::__compressed_pair.50" }
%"class.std::__1::__compressed_pair.46" = type { %"struct.std::__1::__compressed_pair_elem" }
%"class.std::__1::__compressed_pair.50" = type { %"struct.std::__1::__compressed_pair_elem.2" }
%"class.std::__1::map.55" = type { %"class.std::__1::__tree.56" }
%"class.std::__1::__tree.56" = type { %"class.std::__1::__tree_end_node"*, %"class.std::__1::__compressed_pair.57", %"class.std::__1::__compressed_pair.61" }
%"class.std::__1::__compressed_pair.57" = type { %"struct.std::__1::__compressed_pair_elem" }
%"class.std::__1::__compressed_pair.61" = type { %"struct.std::__1::__compressed_pair_elem.2" }
%class.CFX_FloatRect = type { float, float, float, float }
%class.CPDF_Transparency = type { i8, i8 }
%"class.fxcrt::RetainPtr.24" = type { %"class.std::__1::unique_ptr.25" }
%"class.std::__1::unique_ptr.25" = type { %"class.std::__1::__compressed_pair.26" }
%"class.std::__1::__compressed_pair.26" = type { %"struct.std::__1::__compressed_pair_elem.27" }
%"struct.std::__1::__compressed_pair_elem.27" = type { %class.CPDF_Dictionary* }
%class.CPDF_Dictionary = type { %class.CPDF_Object, i32, %"class.fxcrt::WeakPtr", %"class.std::__1::map" }
%class.CPDF_Object = type { %"class.fxcrt::Retainable", i32, i32 }
%"class.fxcrt::WeakPtr" = type { %"class.fxcrt::RetainPtr.28" }
%"class.fxcrt::RetainPtr.28" = type { %"class.std::__1::unique_ptr.29" }
%"class.std::__1::unique_ptr.29" = type { %"class.std::__1::__compressed_pair.30" }
%"class.std::__1::__compressed_pair.30" = type { %"struct.std::__1::__compressed_pair_elem.31" }
%"struct.std::__1::__compressed_pair_elem.31" = type { %"class.fxcrt::WeakPtr<fxcrt::StringPoolTemplate<fxcrt::ByteString>, std::__1::default_delete<fxcrt::StringPoolTemplate<fxcrt::ByteString> > >::Handle"* }
%"class.fxcrt::WeakPtr<fxcrt::StringPoolTemplate<fxcrt::ByteString>, std::__1::default_delete<fxcrt::StringPoolTemplate<fxcrt::ByteString> > >::Handle" = type { i64, %"class.std::__1::unique_ptr.116" }
%"class.std::__1::unique_ptr.116" = type { %"class.std::__1::__compressed_pair.117" }
%"class.std::__1::__compressed_pair.117" = type { %"struct.std::__1::__compressed_pair_elem.118" }
%"struct.std::__1::__compressed_pair_elem.118" = type { %"class.fxcrt::StringPoolTemplate"* }
%"class.fxcrt::StringPoolTemplate" = type { %"class.std::__1::unordered_set" }
%"class.std::__1::unordered_set" = type { %"class.std::__1::__hash_table" }
%"class.std::__1::__hash_table" = type <{ %"class.std::__1::unique_ptr.119", %"class.std::__1::__compressed_pair.127", %"class.std::__1::__compressed_pair.132", %"class.std::__1::__compressed_pair.134", [4 x i8] }>
%"class.std::__1::unique_ptr.119" = type { %"class.std::__1::__compressed_pair.120" }
%"class.std::__1::__compressed_pair.120" = type { %"struct.std::__1::__compressed_pair_elem.121", %"struct.std::__1::__compressed_pair_elem.122" }
%"struct.std::__1::__compressed_pair_elem.121" = type { %"struct.std::__1::__hash_node_base"** }
%"struct.std::__1::__hash_node_base" = type { %"struct.std::__1::__hash_node_base"* }
%"struct.std::__1::__compressed_pair_elem.122" = type { %"class.std::__1::__bucket_list_deallocator" }
%"class.std::__1::__bucket_list_deallocator" = type { %"class.std::__1::__compressed_pair.123" }
%"class.std::__1::__compressed_pair.123" = type { %"struct.std::__1::__compressed_pair_elem.2" }
%"class.std::__1::__compressed_pair.127" = type { %"struct.std::__1::__compressed_pair_elem.128" }
%"struct.std::__1::__compressed_pair_elem.128" = type { %"struct.std::__1::__hash_node_base" }
%"class.std::__1::__compressed_pair.132" = type { %"struct.std::__1::__compressed_pair_elem.2" }
%"class.std::__1::__compressed_pair.134" = type { %"struct.std::__1::__compressed_pair_elem.135" }
%"struct.std::__1::__compressed_pair_elem.135" = type { float }
%"class.std::__1::map" = type { %"class.std::__1::__tree.33" }
%"class.std::__1::__tree.33" = type { %"class.std::__1::__tree_end_node"*, %"class.std::__1::__compressed_pair.34", %"class.std::__1::__compressed_pair.38" }
%"class.std::__1::__compressed_pair.34" = type { %"struct.std::__1::__compressed_pair_elem" }
%"class.std::__1::__compressed_pair.38" = type { %"struct.std::__1::__compressed_pair_elem.2" }
%"class.std::__1::vector.67" = type { %"class.std::__1::__vector_base.68" }
%"class.std::__1::__vector_base.68" = type { %class.CFX_FloatRect*, %class.CFX_FloatRect*, %"class.std::__1::__compressed_pair.69" }
%"class.std::__1::__compressed_pair.69" = type { %"struct.std::__1::__compressed_pair_elem.70" }
%"struct.std::__1::__compressed_pair_elem.70" = type { %class.CFX_FloatRect* }
%"class.std::__1::unique_ptr.74" = type { %"class.std::__1::__compressed_pair.75" }
%"class.std::__1::__compressed_pair.75" = type { %"struct.std::__1::__compressed_pair_elem.76" }
%"struct.std::__1::__compressed_pair_elem.76" = type { %class.CPDF_ContentParser* }
%class.CPDF_ContentParser = type opaque
%"class.std::__1::deque" = type { %"class.std::__1::__deque_base" }
%"class.std::__1::__deque_base" = type { %"struct.std::__1::__split_buffer", i64, %"class.std::__1::__compressed_pair.86" }
%"struct.std::__1::__split_buffer" = type { %"class.std::__1::unique_ptr.80"**, %"class.std::__1::unique_ptr.80"**, %"class.std::__1::unique_ptr.80"**, %"class.std::__1::__compressed_pair.81" }
%"class.std::__1::unique_ptr.80" = type { %"class.std::__1::__compressed_pair.140" }
%"class.std::__1::__compressed_pair.140" = type { %"struct.std::__1::__compressed_pair_elem.141" }
%"struct.std::__1::__compressed_pair_elem.141" = type { %class.CPDF_PageObject* }
%class.CPDF_PageObject = type opaque
%"class.std::__1::__compressed_pair.81" = type { %"struct.std::__1::__compressed_pair_elem.82" }
%"struct.std::__1::__compressed_pair_elem.82" = type { %"class.std::__1::unique_ptr.80"** }
%"class.std::__1::__compressed_pair.86" = type { %"struct.std::__1::__compressed_pair_elem.2" }
%"class.std::__1::set.90" = type { %"class.std::__1::__tree.91" }
%"class.std::__1::__tree.91" = type { %"class.std::__1::__tree_end_node"*, %"class.std::__1::__compressed_pair.92", %"class.std::__1::__compressed_pair.96" }
%"class.std::__1::__compressed_pair.92" = type { %"struct.std::__1::__compressed_pair_elem" }
%"class.std::__1::__compressed_pair.96" = type { %"struct.std::__1::__compressed_pair_elem.2" }
%class.CFX_STemplate = type { float, float }
%"class.fxcrt::UnownedPtr.66" = type { %class.CPDF_Document* }
%class.CPDF_Document = type opaque
%"class.std::__1::unique_ptr.100" = type { %"class.std::__1::__compressed_pair.101" }
%"class.std::__1::__compressed_pair.101" = type { %"struct.std::__1::__compressed_pair_elem.102" }
%"struct.std::__1::__compressed_pair_elem.102" = type { %"class.CPDF_Page::RenderCacheIface"* }
%"class.CPDF_Page::RenderCacheIface" = type { i32 (...)** }
%"class.std::__1::unique_ptr.106" = type { %"class.std::__1::__compressed_pair.107" }
%"class.std::__1::__compressed_pair.107" = type { %"struct.std::__1::__compressed_pair_elem.108" }
%"struct.std::__1::__compressed_pair_elem.108" = type { %"class.CPDF_Page::RenderContextIface"* }
%"class.CPDF_Page::RenderContextIface" = type { i32 (...)** }
%"class.fxcrt::ObservedPtr.112" = type { %"class.fxcrt::Observable::ObserverIface", %"class.CPDF_Page::View"* }
%class.anon = type { i8 }
%"class.std::__1::__vector_base_common" = type { i8 }

$_ZNSt3__16vectorIP13CPDFSDK_AnnotNS_9allocatorIS2_EEE6insertENS_11__wrap_iterIPKS2_EERS7_ = comdat any

$_ZNSt3__16vectorIN5fxcrt11ObservedPtrI13CPDFSDK_AnnotEENS_9allocatorIS4_EEE7reserveEm = comdat any

$_ZN5fxcrt11ObservedPtrI13CPDFSDK_AnnotED2Ev = comdat any

$_ZN5fxcrt11ObservedPtrI13CPDFSDK_AnnotED0Ev = comdat any

$_ZN5fxcrt11ObservedPtrI13CPDFSDK_AnnotE21OnObservableDestroyedEv = comdat any

$_ZNSt3__16vectorIN5fxcrt11ObservedPtrI13CPDFSDK_AnnotEENS_9allocatorIS4_EEE24__emplace_back_slow_pathIJRPS3_EEEvDpOT_ = comdat any

$_ZTVN5fxcrt11ObservedPtrI13CPDFSDK_AnnotEE = comdat any

@_ZTVN5fxcrt11ObservedPtrI13CPDFSDK_AnnotEE = linkonce_odr hidden unnamed_addr constant { [5 x i8*] } { [5 x i8*] [i8* null, i8* null, i8* bitcast (void (%"class.fxcrt::ObservedPtr"*)* @_ZN5fxcrt11ObservedPtrI13CPDFSDK_AnnotED2Ev to i8*), i8* bitcast (void (%"class.fxcrt::ObservedPtr"*)* @_ZN5fxcrt11ObservedPtrI13CPDFSDK_AnnotED0Ev to i8*), i8* bitcast (void (%"class.fxcrt::ObservedPtr"*)* @_ZN5fxcrt11ObservedPtrI13CPDFSDK_AnnotE21OnObservableDestroyedEv to i8*)] }, comdat, align 8
@_ZSt7nothrow = external global %"struct.std::nothrow_t", align 1

@_ZN22CPDFSDK_AnnotIterationC1EP16CPDFSDK_PageViewb = hidden unnamed_addr alias void (%class.CPDFSDK_AnnotIteration*, %class.CPDFSDK_PageView*, i1), void (%class.CPDFSDK_AnnotIteration*, %class.CPDFSDK_PageView*, i1)* @_ZN22CPDFSDK_AnnotIterationC2EP16CPDFSDK_PageViewb
@_ZN22CPDFSDK_AnnotIterationD1Ev = hidden unnamed_addr alias void (%class.CPDFSDK_AnnotIteration*), void (%class.CPDFSDK_AnnotIteration*)* @_ZN22CPDFSDK_AnnotIterationD2Ev

; Function Attrs: nounwind ssp uwtable
define hidden void @_ZN22CPDFSDK_AnnotIterationC2EP16CPDFSDK_PageViewb(%class.CPDFSDK_AnnotIteration*, %class.CPDFSDK_PageView*, i1 zeroext) unnamed_addr #0 align 2 {
  %4 = alloca %class.anon, align 1
  %5 = alloca %"class.std::__1::vector.13", align 8
  %6 = alloca %class.CPDFSDK_Annot*, align 8
  %7 = alloca %class.CPDFSDK_Annot*, align 8
  %8 = getelementptr inbounds %class.CPDFSDK_AnnotIteration, %class.CPDFSDK_AnnotIteration* %0, i64 0, i32 0
  %9 = bitcast %class.CPDFSDK_AnnotIteration* %0 to i8*
  tail call void @llvm.memset.p0i8.i64(i8* align 8 %9, i8 0, i64 24, i1 false) #9
  %10 = bitcast %"class.std::__1::vector.13"* %5 to i8*
  call void @llvm.lifetime.start.p0i8(i64 24, i8* nonnull %10) #9
  %11 = getelementptr inbounds %"class.std::__1::vector.13", %"class.std::__1::vector.13"* %5, i64 0, i32 0, i32 0
  %12 = getelementptr inbounds %"class.std::__1::vector.13", %"class.std::__1::vector.13"* %5, i64 0, i32 0, i32 1
  %13 = getelementptr inbounds %"class.std::__1::vector.13", %"class.std::__1::vector.13"* %5, i64 0, i32 0, i32 2, i32 0, i32 0
  %14 = getelementptr inbounds %class.CPDFSDK_PageView, %class.CPDFSDK_PageView* %1, i64 0, i32 4
  call void @llvm.memset.p0i8.i64(i8* nonnull align 8 %10, i8 0, i64 24, i1 false) #9
  %15 = getelementptr inbounds %class.CPDFSDK_PageView, %class.CPDFSDK_PageView* %1, i64 0, i32 4, i32 0, i32 1
  %16 = bitcast %class.CPDFSDK_Annot*** %15 to i64*
  %17 = load i64, i64* %16, align 8
  %18 = bitcast %"class.std::__1::vector.13"* %14 to i64*
  %19 = load i64, i64* %18, align 8
  %20 = sub i64 %17, %19
  %21 = ashr exact i64 %20, 3
  %22 = icmp eq i64 %20, 0
  br i1 %22, label %44, label %23

23:                                               ; preds = %3
  %24 = icmp ugt i64 %21, 2305843009213693951
  br i1 %24, label %25, label %27

25:                                               ; preds = %23
  %26 = bitcast %"class.std::__1::vector.13"* %5 to %"class.std::__1::__vector_base_common"*
  call void @_ZNKSt3__120__vector_base_commonILb1EE20__throw_length_errorEv(%"class.std::__1::__vector_base_common"* nonnull %26) #10
  unreachable

27:                                               ; preds = %23
  %28 = tail call i8* @_Znwm(i64 %20) #11
  %29 = bitcast i8* %28 to %class.CPDFSDK_Annot**
  %30 = bitcast %class.CPDFSDK_Annot*** %12 to i8**
  store i8* %28, i8** %30, align 8
  %31 = bitcast %"class.std::__1::vector.13"* %5 to i8**
  store i8* %28, i8** %31, align 8
  %32 = getelementptr inbounds %class.CPDFSDK_Annot*, %class.CPDFSDK_Annot** %29, i64 %21
  store %class.CPDFSDK_Annot** %32, %class.CPDFSDK_Annot*** %13, align 8
  %33 = bitcast %class.CPDFSDK_Annot*** %12 to i64*
  %34 = ptrtoint i8* %28 to i64
  %35 = icmp sgt i64 %20, 0
  br i1 %35, label %36, label %41

36:                                               ; preds = %27
  %37 = lshr exact i64 %20, 3
  %38 = inttoptr i64 %19 to i8*
  tail call void @llvm.memcpy.p0i8.p0i8.i64(i8* nonnull align 8 %28, i8* align 8 %38, i64 %20, i1 false) #9
  %39 = getelementptr inbounds %class.CPDFSDK_Annot*, %class.CPDFSDK_Annot** %29, i64 %37
  %40 = ptrtoint %class.CPDFSDK_Annot** %39 to i64
  br label %41

41:                                               ; preds = %36, %27
  %42 = phi i64 [ %40, %36 ], [ %34, %27 ]
  store i64 %42, i64* %33, align 8
  %43 = inttoptr i64 %42 to %class.CPDFSDK_Annot**
  br label %44

44:                                               ; preds = %3, %41
  %45 = phi %class.CPDFSDK_Annot** [ null, %3 ], [ %43, %41 ]
  %46 = phi %class.CPDFSDK_Annot** [ null, %3 ], [ %29, %41 ]
  %47 = getelementptr inbounds %class.anon, %class.anon* %4, i64 0, i32 0
  call void @llvm.lifetime.start.p0i8(i64 1, i8* nonnull %47)
  %48 = ptrtoint %class.CPDFSDK_Annot** %46 to i64
  %49 = ptrtoint %class.CPDFSDK_Annot** %45 to i64
  %50 = sub i64 %49, %48
  %51 = ashr exact i64 %50, 3
  %52 = icmp sgt i64 %50, 1024
  br i1 %52, label %53, label %64

53:                                               ; preds = %44
  %54 = icmp slt i64 %51, 1152921504606846975
  %55 = select i1 %54, i64 %51, i64 1152921504606846975
  br label %56

56:                                               ; preds = %61, %53
  %57 = phi i64 [ %62, %61 ], [ %55, %53 ]
  %58 = shl i64 %57, 3
  %59 = tail call noalias i8* @_ZnwmRKSt9nothrow_t(i64 %58, %"struct.std::nothrow_t"* nonnull dereferenceable(1) @_ZSt7nothrow) #9
  %60 = icmp eq i8* %59, null
  br i1 %60, label %61, label %65

61:                                               ; preds = %56
  %62 = lshr i64 %57, 1
  %63 = icmp eq i64 %62, 0
  br i1 %63, label %64, label %56

64:                                               ; preds = %61, %44
  call fastcc void @"_ZNSt3__113__stable_sortIRZN22CPDFSDK_AnnotIterationC1EP16CPDFSDK_PageViewbE3$_0NS_11__wrap_iterIPP13CPDFSDK_AnnotEEEEvT0_SB_T_NS_15iterator_traitsISB_E15difference_typeEPNSE_10value_typeEl"(%class.CPDFSDK_Annot** %46, %class.CPDFSDK_Annot** %45, %class.anon* nonnull dereferenceable(1) %4, i64 %51, %class.CPDFSDK_Annot** null, i64 0) #9
  br label %67

65:                                               ; preds = %56
  %66 = bitcast i8* %59 to %class.CPDFSDK_Annot**
  call fastcc void @"_ZNSt3__113__stable_sortIRZN22CPDFSDK_AnnotIterationC1EP16CPDFSDK_PageViewbE3$_0NS_11__wrap_iterIPP13CPDFSDK_AnnotEEEEvT0_SB_T_NS_15iterator_traitsISB_E15difference_typeEPNSE_10value_typeEl"(%class.CPDFSDK_Annot** %46, %class.CPDFSDK_Annot** %45, %class.anon* nonnull dereferenceable(1) %4, i64 %51, %class.CPDFSDK_Annot** nonnull %66, i64 %57) #9
  call void @_ZdlPv(i8* nonnull %59) #11
  br label %67

67:                                               ; preds = %64, %65
  call void @llvm.lifetime.end.p0i8(i64 1, i8* nonnull %47)
  %68 = bitcast %class.CPDFSDK_Annot** %6 to i8*
  call void @llvm.lifetime.start.p0i8(i64 8, i8* nonnull %68) #9
  %69 = call %class.CPDFSDK_Annot* @_ZN16CPDFSDK_PageView13GetFocusAnnotEv(%class.CPDFSDK_PageView* %1) #9
  store %class.CPDFSDK_Annot* %69, %class.CPDFSDK_Annot** %6, align 8
  %70 = icmp eq %class.CPDFSDK_Annot* %69, null
  br i1 %70, label %100, label %71

71:                                               ; preds = %67
  %72 = load %class.CPDFSDK_Annot**, %class.CPDFSDK_Annot*** %11, align 8
  %73 = load %class.CPDFSDK_Annot**, %class.CPDFSDK_Annot*** %12, align 8
  %74 = icmp eq %class.CPDFSDK_Annot** %72, %73
  %75 = ptrtoint %class.CPDFSDK_Annot** %73 to i64
  br i1 %74, label %83, label %76

76:                                               ; preds = %71, %80
  %77 = phi %class.CPDFSDK_Annot** [ %81, %80 ], [ %72, %71 ]
  %78 = load %class.CPDFSDK_Annot*, %class.CPDFSDK_Annot** %77, align 8
  %79 = icmp eq %class.CPDFSDK_Annot* %78, %69
  br i1 %79, label %83, label %80

80:                                               ; preds = %76
  %81 = getelementptr inbounds %class.CPDFSDK_Annot*, %class.CPDFSDK_Annot** %77, i64 1
  %82 = icmp eq %class.CPDFSDK_Annot** %81, %73
  br i1 %82, label %100, label %76

83:                                               ; preds = %76, %71
  %84 = phi %class.CPDFSDK_Annot** [ %72, %71 ], [ %77, %76 ]
  %85 = icmp eq %class.CPDFSDK_Annot** %84, %73
  br i1 %85, label %100, label %86

86:                                               ; preds = %83
  %87 = getelementptr inbounds %class.CPDFSDK_Annot*, %class.CPDFSDK_Annot** %84, i64 1
  %88 = ptrtoint %class.CPDFSDK_Annot** %87 to i64
  %89 = sub i64 %75, %88
  %90 = ashr exact i64 %89, 3
  %91 = icmp eq i64 %89, 0
  br i1 %91, label %96, label %92

92:                                               ; preds = %86
  %93 = bitcast %class.CPDFSDK_Annot** %84 to i8*
  %94 = bitcast %class.CPDFSDK_Annot** %87 to i8*
  call void @llvm.memmove.p0i8.p0i8.i64(i8* align 8 %93, i8* align 8 %94, i64 %89, i1 false) #9
  %95 = load %class.CPDFSDK_Annot**, %class.CPDFSDK_Annot*** %11, align 8
  br label %96

96:                                               ; preds = %86, %92
  %97 = phi %class.CPDFSDK_Annot** [ %72, %86 ], [ %95, %92 ]
  %98 = getelementptr inbounds %class.CPDFSDK_Annot*, %class.CPDFSDK_Annot** %84, i64 %90
  store %class.CPDFSDK_Annot** %98, %class.CPDFSDK_Annot*** %12, align 8
  %99 = call %class.CPDFSDK_Annot** @_ZNSt3__16vectorIP13CPDFSDK_AnnotNS_9allocatorIS2_EEE6insertENS_11__wrap_iterIPKS2_EERS7_(%"class.std::__1::vector.13"* nonnull %5, %class.CPDFSDK_Annot** %97, %class.CPDFSDK_Annot** nonnull dereferenceable(8) %6)
  br label %100

100:                                              ; preds = %80, %83, %96, %67
  br i1 %2, label %101, label %118

101:                                              ; preds = %100
  %102 = load %class.CPDFSDK_Annot**, %class.CPDFSDK_Annot*** %11, align 8
  %103 = load %class.CPDFSDK_Annot**, %class.CPDFSDK_Annot*** %12, align 8
  %104 = icmp eq %class.CPDFSDK_Annot** %102, %103
  br i1 %104, label %118, label %105

105:                                              ; preds = %101
  %106 = getelementptr inbounds %class.CPDFSDK_Annot*, %class.CPDFSDK_Annot** %103, i64 -1
  %107 = icmp ugt %class.CPDFSDK_Annot** %106, %102
  br i1 %107, label %108, label %118

108:                                              ; preds = %105, %108
  %109 = phi %class.CPDFSDK_Annot** [ %116, %108 ], [ %106, %105 ]
  %110 = phi %class.CPDFSDK_Annot** [ %115, %108 ], [ %102, %105 ]
  %111 = bitcast %class.CPDFSDK_Annot** %110 to i64*
  %112 = load i64, i64* %111, align 8
  %113 = bitcast %class.CPDFSDK_Annot** %109 to i64*
  %114 = load i64, i64* %113, align 8
  store i64 %114, i64* %111, align 8
  store i64 %112, i64* %113, align 8
  %115 = getelementptr inbounds %class.CPDFSDK_Annot*, %class.CPDFSDK_Annot** %110, i64 1
  %116 = getelementptr inbounds %class.CPDFSDK_Annot*, %class.CPDFSDK_Annot** %109, i64 -1
  %117 = icmp ult %class.CPDFSDK_Annot** %115, %116
  br i1 %117, label %108, label %118

118:                                              ; preds = %108, %105, %101, %100
  %119 = bitcast %class.CPDFSDK_Annot*** %12 to i64*
  %120 = load i64, i64* %119, align 8
  %121 = bitcast %"class.std::__1::vector.13"* %5 to i64*
  %122 = load i64, i64* %121, align 8
  %123 = sub i64 %120, %122
  %124 = ashr exact i64 %123, 3
  call void @_ZNSt3__16vectorIN5fxcrt11ObservedPtrI13CPDFSDK_AnnotEENS_9allocatorIS4_EEE7reserveEm(%"class.std::__1::vector"* %8, i64 %124)
  %125 = load %class.CPDFSDK_Annot**, %class.CPDFSDK_Annot*** %11, align 8
  %126 = load %class.CPDFSDK_Annot**, %class.CPDFSDK_Annot*** %12, align 8
  %127 = icmp eq %class.CPDFSDK_Annot** %125, %126
  br i1 %127, label %136, label %128

128:                                              ; preds = %118
  %129 = bitcast %class.CPDFSDK_Annot** %7 to i8*
  %130 = bitcast %class.CPDFSDK_Annot** %7 to i64*
  %131 = getelementptr inbounds %class.CPDFSDK_AnnotIteration, %class.CPDFSDK_AnnotIteration* %0, i64 0, i32 0, i32 0, i32 1
  %132 = getelementptr inbounds %class.CPDFSDK_AnnotIteration, %class.CPDFSDK_AnnotIteration* %0, i64 0, i32 0, i32 0, i32 2, i32 0, i32 0
  %133 = bitcast %"class.fxcrt::ObservedPtr"** %131 to i64*
  br label %143

134:                                              ; preds = %162
  %135 = load %class.CPDFSDK_Annot**, %class.CPDFSDK_Annot*** %11, align 8
  br label %136

136:                                              ; preds = %134, %118
  %137 = phi %class.CPDFSDK_Annot** [ %135, %134 ], [ %125, %118 ]
  call void @llvm.lifetime.end.p0i8(i64 8, i8* nonnull %68) #9
  %138 = icmp eq %class.CPDFSDK_Annot** %137, null
  br i1 %138, label %142, label %139

139:                                              ; preds = %136
  %140 = ptrtoint %class.CPDFSDK_Annot** %137 to i64
  store i64 %140, i64* %119, align 8
  %141 = bitcast %class.CPDFSDK_Annot** %137 to i8*
  call void @_ZdlPv(i8* %141) #11
  br label %142

142:                                              ; preds = %136, %139
  call void @llvm.lifetime.end.p0i8(i64 24, i8* nonnull %10) #9
  ret void

143:                                              ; preds = %128, %162
  %144 = phi %class.CPDFSDK_Annot** [ %125, %128 ], [ %163, %162 ]
  call void @llvm.lifetime.start.p0i8(i64 8, i8* nonnull %129) #9
  store %class.CPDFSDK_Annot* inttoptr (i64 -6148914691236517206 to %class.CPDFSDK_Annot*), %class.CPDFSDK_Annot** %7, align 8
  %145 = bitcast %class.CPDFSDK_Annot** %144 to i64*
  %146 = load i64, i64* %145, align 8
  store i64 %146, i64* %130, align 8
  %147 = load %"class.fxcrt::ObservedPtr"*, %"class.fxcrt::ObservedPtr"** %131, align 8
  %148 = load %"class.fxcrt::ObservedPtr"*, %"class.fxcrt::ObservedPtr"** %132, align 8
  %149 = icmp ult %"class.fxcrt::ObservedPtr"* %147, %148
  %150 = inttoptr i64 %146 to %class.CPDFSDK_Annot*
  br i1 %149, label %151, label %161

151:                                              ; preds = %143
  %152 = getelementptr inbounds %"class.fxcrt::ObservedPtr", %"class.fxcrt::ObservedPtr"* %147, i64 0, i32 0, i32 0
  store i32 (...)** bitcast (i8** getelementptr inbounds ({ [5 x i8*] }, { [5 x i8*] }* @_ZTVN5fxcrt11ObservedPtrI13CPDFSDK_AnnotEE, i64 0, inrange i32 0, i64 2) to i32 (...)**), i32 (...)*** %152, align 8
  %153 = getelementptr inbounds %"class.fxcrt::ObservedPtr", %"class.fxcrt::ObservedPtr"* %147, i64 0, i32 1
  store %class.CPDFSDK_Annot* %150, %class.CPDFSDK_Annot** %153, align 8
  %154 = icmp eq i64 %146, 0
  br i1 %154, label %158, label %155

155:                                              ; preds = %151
  %156 = getelementptr inbounds %"class.fxcrt::ObservedPtr", %"class.fxcrt::ObservedPtr"* %147, i64 0, i32 0
  %157 = getelementptr inbounds %class.CPDFSDK_Annot, %class.CPDFSDK_Annot* %150, i64 0, i32 1
  call void @_ZN5fxcrt10Observable11AddObserverEPNS0_13ObserverIfaceE(%"class.fxcrt::Observable"* %157, %"class.fxcrt::Observable::ObserverIface"* %156) #9
  br label %158

158:                                              ; preds = %155, %151
  %159 = getelementptr inbounds %"class.fxcrt::ObservedPtr", %"class.fxcrt::ObservedPtr"* %147, i64 1
  %160 = ptrtoint %"class.fxcrt::ObservedPtr"* %159 to i64
  store i64 %160, i64* %133, align 8
  br label %162

161:                                              ; preds = %143
  call void @_ZNSt3__16vectorIN5fxcrt11ObservedPtrI13CPDFSDK_AnnotEENS_9allocatorIS4_EEE24__emplace_back_slow_pathIJRPS3_EEEvDpOT_(%"class.std::__1::vector"* %8, %class.CPDFSDK_Annot** nonnull dereferenceable(8) %7) #9
  br label %162

162:                                              ; preds = %158, %161
  call void @llvm.lifetime.end.p0i8(i64 8, i8* nonnull %129) #9
  %163 = getelementptr inbounds %class.CPDFSDK_Annot*, %class.CPDFSDK_Annot** %144, i64 1
  %164 = icmp eq %class.CPDFSDK_Annot** %163, %126
  br i1 %164, label %134, label %143
}

; Function Attrs: argmemonly nounwind
declare void @llvm.lifetime.start.p0i8(i64 immarg, i8* nocapture) #1

declare %class.CPDFSDK_Annot* @_ZN16CPDFSDK_PageView13GetFocusAnnotEv(%class.CPDFSDK_PageView*) local_unnamed_addr #2

; Function Attrs: argmemonly nounwind
declare void @llvm.lifetime.end.p0i8(i64 immarg, i8* nocapture) #1

; Function Attrs: nounwind ssp uwtable
define linkonce_odr hidden %class.CPDFSDK_Annot** @_ZNSt3__16vectorIP13CPDFSDK_AnnotNS_9allocatorIS2_EEE6insertENS_11__wrap_iterIPKS2_EERS7_(%"class.std::__1::vector.13"*, %class.CPDFSDK_Annot**, %class.CPDFSDK_Annot** dereferenceable(8)) local_unnamed_addr #0 comdat align 2 {
  %4 = ptrtoint %class.CPDFSDK_Annot** %1 to i64
  %5 = bitcast %class.CPDFSDK_Annot** %1 to i8*
  %6 = getelementptr inbounds %"class.std::__1::vector.13", %"class.std::__1::vector.13"* %0, i64 0, i32 0, i32 0
  %7 = getelementptr inbounds %"class.std::__1::vector.13", %"class.std::__1::vector.13"* %0, i64 0, i32 0, i32 1
  %8 = load %class.CPDFSDK_Annot**, %class.CPDFSDK_Annot*** %7, align 8
  %9 = getelementptr inbounds %"class.std::__1::vector.13", %"class.std::__1::vector.13"* %0, i64 0, i32 0, i32 2, i32 0, i32 0
  %10 = load %class.CPDFSDK_Annot**, %class.CPDFSDK_Annot*** %9, align 8
  %11 = icmp ult %class.CPDFSDK_Annot** %8, %10
  %12 = ptrtoint %class.CPDFSDK_Annot** %8 to i64
  %13 = ptrtoint %class.CPDFSDK_Annot** %10 to i64
  br i1 %11, label %14, label %172

14:                                               ; preds = %3
  %15 = icmp eq %class.CPDFSDK_Annot** %8, %1
  br i1 %15, label %16, label %23

16:                                               ; preds = %14
  %17 = bitcast %class.CPDFSDK_Annot** %2 to i64*
  %18 = load i64, i64* %17, align 8
  %19 = bitcast %class.CPDFSDK_Annot** %1 to i64*
  store i64 %18, i64* %19, align 8
  %20 = getelementptr inbounds %class.CPDFSDK_Annot*, %class.CPDFSDK_Annot** %1, i64 1
  %21 = ptrtoint %class.CPDFSDK_Annot** %20 to i64
  %22 = bitcast %class.CPDFSDK_Annot*** %7 to i64*
  store i64 %21, i64* %22, align 8
  br label %439

23:                                               ; preds = %14
  %24 = getelementptr inbounds %class.CPDFSDK_Annot*, %class.CPDFSDK_Annot** %1, i64 1
  %25 = ptrtoint %class.CPDFSDK_Annot** %24 to i64
  %26 = sub i64 %12, %25
  %27 = ashr exact i64 %26, 3
  %28 = getelementptr inbounds %class.CPDFSDK_Annot*, %class.CPDFSDK_Annot** %1, i64 %27
  %29 = bitcast %class.CPDFSDK_Annot*** %7 to i64*
  %30 = icmp ult %class.CPDFSDK_Annot** %28, %8
  br i1 %30, label %31, label %144

31:                                               ; preds = %23
  %32 = sub nsw i64 0, %27
  %33 = getelementptr %class.CPDFSDK_Annot*, %class.CPDFSDK_Annot** %8, i64 %32
  %34 = bitcast %class.CPDFSDK_Annot** %33 to i8*
  %35 = xor i64 %4, -1
  %36 = getelementptr i8, i8* %34, i64 %35
  %37 = ptrtoint i8* %36 to i64
  %38 = lshr i64 %37, 3
  %39 = add nuw nsw i64 %38, 1
  %40 = icmp ult i64 %39, 4
  br i1 %40, label %41, label %44

41:                                               ; preds = %139, %44, %31
  %42 = phi %class.CPDFSDK_Annot** [ %8, %44 ], [ %8, %31 ], [ %62, %139 ]
  %43 = phi %class.CPDFSDK_Annot** [ %28, %44 ], [ %28, %31 ], [ %63, %139 ]
  br label %151

44:                                               ; preds = %31
  %45 = sub nsw i64 0, %27
  %46 = getelementptr %class.CPDFSDK_Annot*, %class.CPDFSDK_Annot** %8, i64 %45
  %47 = bitcast %class.CPDFSDK_Annot** %46 to i8*
  %48 = xor i64 %4, -1
  %49 = getelementptr i8, i8* %47, i64 %48
  %50 = ptrtoint i8* %49 to i64
  %51 = lshr i64 %50, 3
  %52 = add nuw nsw i64 %51, 1
  %53 = getelementptr %class.CPDFSDK_Annot*, %class.CPDFSDK_Annot** %8, i64 %52
  %54 = add nsw i64 %27, %51
  %55 = add nsw i64 %54, 1
  %56 = getelementptr %class.CPDFSDK_Annot*, %class.CPDFSDK_Annot** %1, i64 %55
  %57 = icmp ult %class.CPDFSDK_Annot** %8, %56
  %58 = icmp ult %class.CPDFSDK_Annot** %28, %53
  %59 = and i1 %57, %58
  br i1 %59, label %41, label %60

60:                                               ; preds = %44
  %61 = and i64 %39, 4611686018427387900
  %62 = getelementptr %class.CPDFSDK_Annot*, %class.CPDFSDK_Annot** %8, i64 %61
  %63 = getelementptr %class.CPDFSDK_Annot*, %class.CPDFSDK_Annot** %28, i64 %61
  %64 = add nsw i64 %61, -4
  %65 = lshr exact i64 %64, 2
  %66 = add nuw nsw i64 %65, 1
  %67 = and i64 %66, 3
  %68 = icmp ult i64 %64, 12
  br i1 %68, label %120, label %69

69:                                               ; preds = %60
  %70 = sub nsw i64 %66, %67
  br label %71

71:                                               ; preds = %71, %69
  %72 = phi i64 [ 0, %69 ], [ %117, %71 ]
  %73 = phi i64 [ %70, %69 ], [ %118, %71 ]
  %74 = getelementptr %class.CPDFSDK_Annot*, %class.CPDFSDK_Annot** %8, i64 %72
  %75 = getelementptr %class.CPDFSDK_Annot*, %class.CPDFSDK_Annot** %28, i64 %72
  %76 = bitcast %class.CPDFSDK_Annot** %75 to <2 x i64>*
  %77 = load <2 x i64>, <2 x i64>* %76, align 8, !alias.scope !2
  %78 = getelementptr %class.CPDFSDK_Annot*, %class.CPDFSDK_Annot** %75, i64 2
  %79 = bitcast %class.CPDFSDK_Annot** %78 to <2 x i64>*
  %80 = load <2 x i64>, <2 x i64>* %79, align 8, !alias.scope !2
  %81 = bitcast %class.CPDFSDK_Annot** %74 to <2 x i64>*
  store <2 x i64> %77, <2 x i64>* %81, align 8, !alias.scope !5, !noalias !2
  %82 = getelementptr %class.CPDFSDK_Annot*, %class.CPDFSDK_Annot** %74, i64 2
  %83 = bitcast %class.CPDFSDK_Annot** %82 to <2 x i64>*
  store <2 x i64> %80, <2 x i64>* %83, align 8, !alias.scope !5, !noalias !2
  %84 = or i64 %72, 4
  %85 = getelementptr %class.CPDFSDK_Annot*, %class.CPDFSDK_Annot** %8, i64 %84
  %86 = getelementptr %class.CPDFSDK_Annot*, %class.CPDFSDK_Annot** %28, i64 %84
  %87 = bitcast %class.CPDFSDK_Annot** %86 to <2 x i64>*
  %88 = load <2 x i64>, <2 x i64>* %87, align 8, !alias.scope !2
  %89 = getelementptr %class.CPDFSDK_Annot*, %class.CPDFSDK_Annot** %86, i64 2
  %90 = bitcast %class.CPDFSDK_Annot** %89 to <2 x i64>*
  %91 = load <2 x i64>, <2 x i64>* %90, align 8, !alias.scope !2
  %92 = bitcast %class.CPDFSDK_Annot** %85 to <2 x i64>*
  store <2 x i64> %88, <2 x i64>* %92, align 8, !alias.scope !5, !noalias !2
  %93 = getelementptr %class.CPDFSDK_Annot*, %class.CPDFSDK_Annot** %85, i64 2
  %94 = bitcast %class.CPDFSDK_Annot** %93 to <2 x i64>*
  store <2 x i64> %91, <2 x i64>* %94, align 8, !alias.scope !5, !noalias !2
  %95 = or i64 %72, 8
  %96 = getelementptr %class.CPDFSDK_Annot*, %class.CPDFSDK_Annot** %8, i64 %95
  %97 = getelementptr %class.CPDFSDK_Annot*, %class.CPDFSDK_Annot** %28, i64 %95
  %98 = bitcast %class.CPDFSDK_Annot** %97 to <2 x i64>*
  %99 = load <2 x i64>, <2 x i64>* %98, align 8, !alias.scope !2
  %100 = getelementptr %class.CPDFSDK_Annot*, %class.CPDFSDK_Annot** %97, i64 2
  %101 = bitcast %class.CPDFSDK_Annot** %100 to <2 x i64>*
  %102 = load <2 x i64>, <2 x i64>* %101, align 8, !alias.scope !2
  %103 = bitcast %class.CPDFSDK_Annot** %96 to <2 x i64>*
  store <2 x i64> %99, <2 x i64>* %103, align 8, !alias.scope !5, !noalias !2
  %104 = getelementptr %class.CPDFSDK_Annot*, %class.CPDFSDK_Annot** %96, i64 2
  %105 = bitcast %class.CPDFSDK_Annot** %104 to <2 x i64>*
  store <2 x i64> %102, <2 x i64>* %105, align 8, !alias.scope !5, !noalias !2
  %106 = or i64 %72, 12
  %107 = getelementptr %class.CPDFSDK_Annot*, %class.CPDFSDK_Annot** %8, i64 %106
  %108 = getelementptr %class.CPDFSDK_Annot*, %class.CPDFSDK_Annot** %28, i64 %106
  %109 = bitcast %class.CPDFSDK_Annot** %108 to <2 x i64>*
  %110 = load <2 x i64>, <2 x i64>* %109, align 8, !alias.scope !2
  %111 = getelementptr %class.CPDFSDK_Annot*, %class.CPDFSDK_Annot** %108, i64 2
  %112 = bitcast %class.CPDFSDK_Annot** %111 to <2 x i64>*
  %113 = load <2 x i64>, <2 x i64>* %112, align 8, !alias.scope !2
  %114 = bitcast %class.CPDFSDK_Annot** %107 to <2 x i64>*
  store <2 x i64> %110, <2 x i64>* %114, align 8, !alias.scope !5, !noalias !2
  %115 = getelementptr %class.CPDFSDK_Annot*, %class.CPDFSDK_Annot** %107, i64 2
  %116 = bitcast %class.CPDFSDK_Annot** %115 to <2 x i64>*
  store <2 x i64> %113, <2 x i64>* %116, align 8, !alias.scope !5, !noalias !2
  %117 = add i64 %72, 16
  %118 = add i64 %73, -4
  %119 = icmp eq i64 %118, 0
  br i1 %119, label %120, label %71, !llvm.loop !7

120:                                              ; preds = %71, %60
  %121 = phi i64 [ 0, %60 ], [ %117, %71 ]
  %122 = icmp eq i64 %67, 0
  br i1 %122, label %139, label %123

123:                                              ; preds = %120, %123
  %124 = phi i64 [ %136, %123 ], [ %121, %120 ]
  %125 = phi i64 [ %137, %123 ], [ %67, %120 ]
  %126 = getelementptr %class.CPDFSDK_Annot*, %class.CPDFSDK_Annot** %8, i64 %124
  %127 = getelementptr %class.CPDFSDK_Annot*, %class.CPDFSDK_Annot** %28, i64 %124
  %128 = bitcast %class.CPDFSDK_Annot** %127 to <2 x i64>*
  %129 = load <2 x i64>, <2 x i64>* %128, align 8, !alias.scope !2
  %130 = getelementptr %class.CPDFSDK_Annot*, %class.CPDFSDK_Annot** %127, i64 2
  %131 = bitcast %class.CPDFSDK_Annot** %130 to <2 x i64>*
  %132 = load <2 x i64>, <2 x i64>* %131, align 8, !alias.scope !2
  %133 = bitcast %class.CPDFSDK_Annot** %126 to <2 x i64>*
  store <2 x i64> %129, <2 x i64>* %133, align 8, !alias.scope !5, !noalias !2
  %134 = getelementptr %class.CPDFSDK_Annot*, %class.CPDFSDK_Annot** %126, i64 2
  %135 = bitcast %class.CPDFSDK_Annot** %134 to <2 x i64>*
  store <2 x i64> %132, <2 x i64>* %135, align 8, !alias.scope !5, !noalias !2
  %136 = add i64 %124, 4
  %137 = add i64 %125, -1
  %138 = icmp eq i64 %137, 0
  br i1 %138, label %139, label %123, !llvm.loop !9

139:                                              ; preds = %123, %120
  %140 = icmp eq i64 %39, %61
  br i1 %140, label %141, label %41

141:                                              ; preds = %151, %139
  %142 = phi %class.CPDFSDK_Annot** [ %62, %139 ], [ %158, %151 ]
  %143 = ptrtoint %class.CPDFSDK_Annot** %142 to i64
  br label %144

144:                                              ; preds = %141, %23
  %145 = phi i64 [ %143, %141 ], [ %12, %23 ]
  store i64 %145, i64* %29, align 8
  %146 = icmp eq i64 %26, 0
  br i1 %146, label %160, label %147

147:                                              ; preds = %144
  %148 = sub nsw i64 0, %27
  %149 = getelementptr inbounds %class.CPDFSDK_Annot*, %class.CPDFSDK_Annot** %8, i64 %148
  %150 = bitcast %class.CPDFSDK_Annot** %149 to i8*
  tail call void @llvm.memmove.p0i8.p0i8.i64(i8* align 8 %150, i8* align 8 %5, i64 %26, i1 false) #9
  br label %160

151:                                              ; preds = %41, %151
  %152 = phi %class.CPDFSDK_Annot** [ %158, %151 ], [ %42, %41 ]
  %153 = phi %class.CPDFSDK_Annot** [ %157, %151 ], [ %43, %41 ]
  %154 = bitcast %class.CPDFSDK_Annot** %153 to i64*
  %155 = load i64, i64* %154, align 8
  %156 = bitcast %class.CPDFSDK_Annot** %152 to i64*
  store i64 %155, i64* %156, align 8
  %157 = getelementptr inbounds %class.CPDFSDK_Annot*, %class.CPDFSDK_Annot** %153, i64 1
  %158 = getelementptr inbounds %class.CPDFSDK_Annot*, %class.CPDFSDK_Annot** %152, i64 1
  %159 = icmp ult %class.CPDFSDK_Annot** %157, %8
  br i1 %159, label %151, label %141, !llvm.loop !11

160:                                              ; preds = %144, %147
  %161 = icmp ugt %class.CPDFSDK_Annot** %1, %2
  br i1 %161, label %167, label %162

162:                                              ; preds = %160
  %163 = load %class.CPDFSDK_Annot**, %class.CPDFSDK_Annot*** %7, align 8
  %164 = icmp ugt %class.CPDFSDK_Annot** %163, %2
  %165 = getelementptr inbounds %class.CPDFSDK_Annot*, %class.CPDFSDK_Annot** %2, i64 1
  %166 = select i1 %164, %class.CPDFSDK_Annot** %165, %class.CPDFSDK_Annot** %2
  br label %167

167:                                              ; preds = %162, %160
  %168 = phi %class.CPDFSDK_Annot** [ %2, %160 ], [ %166, %162 ]
  %169 = bitcast %class.CPDFSDK_Annot** %168 to i64*
  %170 = load i64, i64* %169, align 8
  %171 = bitcast %class.CPDFSDK_Annot** %1 to i64*
  store i64 %170, i64* %171, align 8
  br label %439

172:                                              ; preds = %3
  %173 = bitcast %class.CPDFSDK_Annot*** %7 to i64*
  %174 = bitcast %"class.std::__1::vector.13"* %0 to i64*
  %175 = load i64, i64* %174, align 8
  %176 = sub i64 %12, %175
  %177 = ashr exact i64 %176, 3
  %178 = add nsw i64 %177, 1
  %179 = icmp ugt i64 %178, 2305843009213693951
  br i1 %179, label %180, label %182

180:                                              ; preds = %172
  %181 = bitcast %"class.std::__1::vector.13"* %0 to %"class.std::__1::__vector_base_common"*
  tail call void @_ZNKSt3__120__vector_base_commonILb1EE20__throw_length_errorEv(%"class.std::__1::__vector_base_common"* %181) #10
  unreachable

182:                                              ; preds = %172
  %183 = bitcast %class.CPDFSDK_Annot*** %9 to i64*
  %184 = sub i64 %13, %175
  %185 = ashr exact i64 %184, 3
  %186 = icmp ult i64 %185, 1152921504606846975
  br i1 %186, label %190, label %187

187:                                              ; preds = %182
  %188 = sub i64 %4, %175
  %189 = ashr exact i64 %188, 3
  br label %200

190:                                              ; preds = %182
  %191 = ashr exact i64 %184, 2
  %192 = icmp ult i64 %191, %178
  %193 = select i1 %192, i64 %178, i64 %191
  %194 = sub i64 %4, %175
  %195 = ashr exact i64 %194, 3
  %196 = icmp eq i64 %193, 0
  br i1 %196, label %206, label %197

197:                                              ; preds = %190
  %198 = icmp ugt i64 %193, 2305843009213693951
  br i1 %198, label %199, label %200

199:                                              ; preds = %197
  tail call void @abort() #10
  unreachable

200:                                              ; preds = %187, %197
  %201 = phi i64 [ 2305843009213693951, %187 ], [ %193, %197 ]
  %202 = phi i64 [ %189, %187 ], [ %195, %197 ]
  %203 = shl i64 %201, 3
  %204 = tail call i8* @_Znwm(i64 %203) #11
  %205 = bitcast i8* %204 to %class.CPDFSDK_Annot**
  br label %206

206:                                              ; preds = %190, %200
  %207 = phi i64 [ %202, %200 ], [ %195, %190 ]
  %208 = phi i64 [ %201, %200 ], [ 0, %190 ]
  %209 = phi i8* [ %204, %200 ], [ null, %190 ]
  %210 = phi %class.CPDFSDK_Annot** [ %205, %200 ], [ null, %190 ]
  %211 = getelementptr inbounds %class.CPDFSDK_Annot*, %class.CPDFSDK_Annot** %210, i64 %207
  %212 = getelementptr inbounds %class.CPDFSDK_Annot*, %class.CPDFSDK_Annot** %210, i64 %208
  %213 = ptrtoint %class.CPDFSDK_Annot** %212 to i64
  %214 = icmp eq i64 %207, %208
  %215 = bitcast %class.CPDFSDK_Annot** %211 to i64*
  br i1 %214, label %216, label %240

216:                                              ; preds = %206
  %217 = icmp sgt i64 %207, 0
  br i1 %217, label %218, label %223

218:                                              ; preds = %216
  %219 = add nuw nsw i64 %207, 1
  %220 = sdiv i64 %219, -2
  %221 = getelementptr inbounds %class.CPDFSDK_Annot*, %class.CPDFSDK_Annot** %211, i64 %220
  %222 = bitcast %class.CPDFSDK_Annot** %221 to i64*
  br label %240

223:                                              ; preds = %216
  %224 = shl nsw i64 %207, 1
  %225 = icmp eq i64 %207, 0
  %226 = select i1 %225, i64 1, i64 %224
  %227 = icmp ugt i64 %226, 2305843009213693951
  br i1 %227, label %228, label %229

228:                                              ; preds = %223
  tail call void @abort() #10
  unreachable

229:                                              ; preds = %223
  %230 = lshr i64 %226, 2
  %231 = shl i64 %226, 3
  %232 = tail call i8* @_Znwm(i64 %231) #11
  %233 = bitcast i8* %232 to %class.CPDFSDK_Annot**
  %234 = getelementptr inbounds %class.CPDFSDK_Annot*, %class.CPDFSDK_Annot** %233, i64 %230
  %235 = getelementptr inbounds %class.CPDFSDK_Annot*, %class.CPDFSDK_Annot** %233, i64 %226
  %236 = ptrtoint %class.CPDFSDK_Annot** %235 to i64
  %237 = icmp eq %class.CPDFSDK_Annot** %210, null
  %238 = bitcast %class.CPDFSDK_Annot** %234 to i64*
  br i1 %237, label %240, label %239

239:                                              ; preds = %229
  tail call void @_ZdlPv(i8* %209) #11
  br label %240

240:                                              ; preds = %206, %218, %229, %239
  %241 = phi %class.CPDFSDK_Annot** [ %221, %218 ], [ %234, %229 ], [ %234, %239 ], [ %211, %206 ]
  %242 = phi i64 [ %213, %218 ], [ %236, %229 ], [ %236, %239 ], [ %213, %206 ]
  %243 = phi i64* [ %222, %218 ], [ %238, %229 ], [ %238, %239 ], [ %215, %206 ]
  %244 = bitcast %class.CPDFSDK_Annot** %2 to i64*
  %245 = load i64, i64* %244, align 8
  store i64 %245, i64* %243, align 8
  %246 = getelementptr inbounds %class.CPDFSDK_Annot*, %class.CPDFSDK_Annot** %241, i64 1
  %247 = load %class.CPDFSDK_Annot**, %class.CPDFSDK_Annot*** %6, align 8
  %248 = ptrtoint %class.CPDFSDK_Annot** %247 to i64
  %249 = sub i64 %4, %248
  %250 = ashr exact i64 %249, 3
  %251 = sub nsw i64 0, %250
  %252 = getelementptr inbounds %class.CPDFSDK_Annot*, %class.CPDFSDK_Annot** %241, i64 %251
  %253 = ptrtoint %class.CPDFSDK_Annot** %252 to i64
  %254 = icmp sgt i64 %249, 0
  br i1 %254, label %255, label %258

255:                                              ; preds = %240
  %256 = bitcast %class.CPDFSDK_Annot** %252 to i8*
  %257 = bitcast %class.CPDFSDK_Annot** %247 to i8*
  tail call void @llvm.memcpy.p0i8.p0i8.i64(i8* align 8 %256, i8* align 8 %257, i64 %249, i1 false) #9
  br label %258

258:                                              ; preds = %255, %240
  %259 = load %class.CPDFSDK_Annot**, %class.CPDFSDK_Annot*** %7, align 8
  %260 = icmp eq %class.CPDFSDK_Annot** %259, %1
  br i1 %260, label %432, label %261

261:                                              ; preds = %258
  %262 = getelementptr %class.CPDFSDK_Annot*, %class.CPDFSDK_Annot** %259, i64 -1
  %263 = ptrtoint %class.CPDFSDK_Annot** %262 to i64
  %264 = sub i64 %263, %4
  %265 = lshr i64 %264, 3
  %266 = add nuw nsw i64 %265, 1
  %267 = icmp ult i64 %266, 4
  br i1 %267, label %361, label %268

268:                                              ; preds = %261
  %269 = getelementptr %class.CPDFSDK_Annot*, %class.CPDFSDK_Annot** %259, i64 -1
  %270 = ptrtoint %class.CPDFSDK_Annot** %269 to i64
  %271 = sub i64 %270, %4
  %272 = lshr i64 %271, 3
  %273 = add nuw nsw i64 %272, 2
  %274 = getelementptr %class.CPDFSDK_Annot*, %class.CPDFSDK_Annot** %241, i64 %273
  %275 = add nuw nsw i64 %272, 1
  %276 = getelementptr %class.CPDFSDK_Annot*, %class.CPDFSDK_Annot** %1, i64 %275
  %277 = icmp ult %class.CPDFSDK_Annot** %246, %276
  %278 = icmp ugt %class.CPDFSDK_Annot** %274, %1
  %279 = and i1 %277, %278
  br i1 %279, label %361, label %280

280:                                              ; preds = %268
  %281 = and i64 %266, 4611686018427387900
  %282 = getelementptr %class.CPDFSDK_Annot*, %class.CPDFSDK_Annot** %246, i64 %281
  %283 = getelementptr %class.CPDFSDK_Annot*, %class.CPDFSDK_Annot** %1, i64 %281
  %284 = add nsw i64 %281, -4
  %285 = lshr exact i64 %284, 2
  %286 = add nuw nsw i64 %285, 1
  %287 = and i64 %286, 3
  %288 = icmp ult i64 %284, 12
  br i1 %288, label %340, label %289

289:                                              ; preds = %280
  %290 = sub nsw i64 %286, %287
  br label %291

291:                                              ; preds = %291, %289
  %292 = phi i64 [ 0, %289 ], [ %337, %291 ]
  %293 = phi i64 [ %290, %289 ], [ %338, %291 ]
  %294 = getelementptr %class.CPDFSDK_Annot*, %class.CPDFSDK_Annot** %246, i64 %292
  %295 = getelementptr %class.CPDFSDK_Annot*, %class.CPDFSDK_Annot** %1, i64 %292
  %296 = bitcast %class.CPDFSDK_Annot** %295 to <2 x i64>*
  %297 = load <2 x i64>, <2 x i64>* %296, align 8, !alias.scope !12
  %298 = getelementptr %class.CPDFSDK_Annot*, %class.CPDFSDK_Annot** %295, i64 2
  %299 = bitcast %class.CPDFSDK_Annot** %298 to <2 x i64>*
  %300 = load <2 x i64>, <2 x i64>* %299, align 8, !alias.scope !12
  %301 = bitcast %class.CPDFSDK_Annot** %294 to <2 x i64>*
  store <2 x i64> %297, <2 x i64>* %301, align 8, !alias.scope !15, !noalias !12
  %302 = getelementptr %class.CPDFSDK_Annot*, %class.CPDFSDK_Annot** %294, i64 2
  %303 = bitcast %class.CPDFSDK_Annot** %302 to <2 x i64>*
  store <2 x i64> %300, <2 x i64>* %303, align 8, !alias.scope !15, !noalias !12
  %304 = or i64 %292, 4
  %305 = getelementptr %class.CPDFSDK_Annot*, %class.CPDFSDK_Annot** %246, i64 %304
  %306 = getelementptr %class.CPDFSDK_Annot*, %class.CPDFSDK_Annot** %1, i64 %304
  %307 = bitcast %class.CPDFSDK_Annot** %306 to <2 x i64>*
  %308 = load <2 x i64>, <2 x i64>* %307, align 8, !alias.scope !12
  %309 = getelementptr %class.CPDFSDK_Annot*, %class.CPDFSDK_Annot** %306, i64 2
  %310 = bitcast %class.CPDFSDK_Annot** %309 to <2 x i64>*
  %311 = load <2 x i64>, <2 x i64>* %310, align 8, !alias.scope !12
  %312 = bitcast %class.CPDFSDK_Annot** %305 to <2 x i64>*
  store <2 x i64> %308, <2 x i64>* %312, align 8, !alias.scope !15, !noalias !12
  %313 = getelementptr %class.CPDFSDK_Annot*, %class.CPDFSDK_Annot** %305, i64 2
  %314 = bitcast %class.CPDFSDK_Annot** %313 to <2 x i64>*
  store <2 x i64> %311, <2 x i64>* %314, align 8, !alias.scope !15, !noalias !12
  %315 = or i64 %292, 8
  %316 = getelementptr %class.CPDFSDK_Annot*, %class.CPDFSDK_Annot** %246, i64 %315
  %317 = getelementptr %class.CPDFSDK_Annot*, %class.CPDFSDK_Annot** %1, i64 %315
  %318 = bitcast %class.CPDFSDK_Annot** %317 to <2 x i64>*
  %319 = load <2 x i64>, <2 x i64>* %318, align 8, !alias.scope !12
  %320 = getelementptr %class.CPDFSDK_Annot*, %class.CPDFSDK_Annot** %317, i64 2
  %321 = bitcast %class.CPDFSDK_Annot** %320 to <2 x i64>*
  %322 = load <2 x i64>, <2 x i64>* %321, align 8, !alias.scope !12
  %323 = bitcast %class.CPDFSDK_Annot** %316 to <2 x i64>*
  store <2 x i64> %319, <2 x i64>* %323, align 8, !alias.scope !15, !noalias !12
  %324 = getelementptr %class.CPDFSDK_Annot*, %class.CPDFSDK_Annot** %316, i64 2
  %325 = bitcast %class.CPDFSDK_Annot** %324 to <2 x i64>*
  store <2 x i64> %322, <2 x i64>* %325, align 8, !alias.scope !15, !noalias !12
  %326 = or i64 %292, 12
  %327 = getelementptr %class.CPDFSDK_Annot*, %class.CPDFSDK_Annot** %246, i64 %326
  %328 = getelementptr %class.CPDFSDK_Annot*, %class.CPDFSDK_Annot** %1, i64 %326
  %329 = bitcast %class.CPDFSDK_Annot** %328 to <2 x i64>*
  %330 = load <2 x i64>, <2 x i64>* %329, align 8, !alias.scope !12
  %331 = getelementptr %class.CPDFSDK_Annot*, %class.CPDFSDK_Annot** %328, i64 2
  %332 = bitcast %class.CPDFSDK_Annot** %331 to <2 x i64>*
  %333 = load <2 x i64>, <2 x i64>* %332, align 8, !alias.scope !12
  %334 = bitcast %class.CPDFSDK_Annot** %327 to <2 x i64>*
  store <2 x i64> %330, <2 x i64>* %334, align 8, !alias.scope !15, !noalias !12
  %335 = getelementptr %class.CPDFSDK_Annot*, %class.CPDFSDK_Annot** %327, i64 2
  %336 = bitcast %class.CPDFSDK_Annot** %335 to <2 x i64>*
  store <2 x i64> %333, <2 x i64>* %336, align 8, !alias.scope !15, !noalias !12
  %337 = add i64 %292, 16
  %338 = add i64 %293, -4
  %339 = icmp eq i64 %338, 0
  br i1 %339, label %340, label %291, !llvm.loop !17

340:                                              ; preds = %291, %280
  %341 = phi i64 [ 0, %280 ], [ %337, %291 ]
  %342 = icmp eq i64 %287, 0
  br i1 %342, label %359, label %343

343:                                              ; preds = %340, %343
  %344 = phi i64 [ %356, %343 ], [ %341, %340 ]
  %345 = phi i64 [ %357, %343 ], [ %287, %340 ]
  %346 = getelementptr %class.CPDFSDK_Annot*, %class.CPDFSDK_Annot** %246, i64 %344
  %347 = getelementptr %class.CPDFSDK_Annot*, %class.CPDFSDK_Annot** %1, i64 %344
  %348 = bitcast %class.CPDFSDK_Annot** %347 to <2 x i64>*
  %349 = load <2 x i64>, <2 x i64>* %348, align 8, !alias.scope !12
  %350 = getelementptr %class.CPDFSDK_Annot*, %class.CPDFSDK_Annot** %347, i64 2
  %351 = bitcast %class.CPDFSDK_Annot** %350 to <2 x i64>*
  %352 = load <2 x i64>, <2 x i64>* %351, align 8, !alias.scope !12
  %353 = bitcast %class.CPDFSDK_Annot** %346 to <2 x i64>*
  store <2 x i64> %349, <2 x i64>* %353, align 8, !alias.scope !15, !noalias !12
  %354 = getelementptr %class.CPDFSDK_Annot*, %class.CPDFSDK_Annot** %346, i64 2
  %355 = bitcast %class.CPDFSDK_Annot** %354 to <2 x i64>*
  store <2 x i64> %352, <2 x i64>* %355, align 8, !alias.scope !15, !noalias !12
  %356 = add i64 %344, 4
  %357 = add i64 %345, -1
  %358 = icmp eq i64 %357, 0
  br i1 %358, label %359, label %343, !llvm.loop !18

359:                                              ; preds = %343, %340
  %360 = icmp eq i64 %266, %281
  br i1 %360, label %432, label %361

361:                                              ; preds = %359, %268, %261
  %362 = phi %class.CPDFSDK_Annot** [ %246, %268 ], [ %246, %261 ], [ %282, %359 ]
  %363 = phi %class.CPDFSDK_Annot** [ %1, %268 ], [ %1, %261 ], [ %283, %359 ]
  %364 = ptrtoint %class.CPDFSDK_Annot** %363 to i64
  %365 = getelementptr %class.CPDFSDK_Annot*, %class.CPDFSDK_Annot** %259, i64 -1
  %366 = ptrtoint %class.CPDFSDK_Annot** %365 to i64
  %367 = sub i64 %366, %364
  %368 = lshr i64 %367, 3
  %369 = add nuw nsw i64 %368, 1
  %370 = and i64 %369, 7
  %371 = icmp eq i64 %370, 0
  br i1 %371, label %383, label %372

372:                                              ; preds = %361, %372
  %373 = phi %class.CPDFSDK_Annot** [ %380, %372 ], [ %362, %361 ]
  %374 = phi %class.CPDFSDK_Annot** [ %379, %372 ], [ %363, %361 ]
  %375 = phi i64 [ %381, %372 ], [ %370, %361 ]
  %376 = bitcast %class.CPDFSDK_Annot** %373 to i64*
  %377 = bitcast %class.CPDFSDK_Annot** %374 to i64*
  %378 = load i64, i64* %377, align 8
  store i64 %378, i64* %376, align 8
  %379 = getelementptr inbounds %class.CPDFSDK_Annot*, %class.CPDFSDK_Annot** %374, i64 1
  %380 = getelementptr inbounds %class.CPDFSDK_Annot*, %class.CPDFSDK_Annot** %373, i64 1
  %381 = add i64 %375, -1
  %382 = icmp eq i64 %381, 0
  br i1 %382, label %383, label %372, !llvm.loop !19

383:                                              ; preds = %372, %361
  %384 = phi %class.CPDFSDK_Annot** [ undef, %361 ], [ %380, %372 ]
  %385 = phi %class.CPDFSDK_Annot** [ %362, %361 ], [ %380, %372 ]
  %386 = phi %class.CPDFSDK_Annot** [ %363, %361 ], [ %379, %372 ]
  %387 = icmp ult i64 %367, 56
  br i1 %387, label %432, label %388

388:                                              ; preds = %383, %388
  %389 = phi %class.CPDFSDK_Annot** [ %430, %388 ], [ %385, %383 ]
  %390 = phi %class.CPDFSDK_Annot** [ %429, %388 ], [ %386, %383 ]
  %391 = bitcast %class.CPDFSDK_Annot** %389 to i64*
  %392 = bitcast %class.CPDFSDK_Annot** %390 to i64*
  %393 = load i64, i64* %392, align 8
  store i64 %393, i64* %391, align 8
  %394 = getelementptr inbounds %class.CPDFSDK_Annot*, %class.CPDFSDK_Annot** %390, i64 1
  %395 = getelementptr inbounds %class.CPDFSDK_Annot*, %class.CPDFSDK_Annot** %389, i64 1
  %396 = bitcast %class.CPDFSDK_Annot** %395 to i64*
  %397 = bitcast %class.CPDFSDK_Annot** %394 to i64*
  %398 = load i64, i64* %397, align 8
  store i64 %398, i64* %396, align 8
  %399 = getelementptr inbounds %class.CPDFSDK_Annot*, %class.CPDFSDK_Annot** %390, i64 2
  %400 = getelementptr inbounds %class.CPDFSDK_Annot*, %class.CPDFSDK_Annot** %389, i64 2
  %401 = bitcast %class.CPDFSDK_Annot** %400 to i64*
  %402 = bitcast %class.CPDFSDK_Annot** %399 to i64*
  %403 = load i64, i64* %402, align 8
  store i64 %403, i64* %401, align 8
  %404 = getelementptr inbounds %class.CPDFSDK_Annot*, %class.CPDFSDK_Annot** %390, i64 3
  %405 = getelementptr inbounds %class.CPDFSDK_Annot*, %class.CPDFSDK_Annot** %389, i64 3
  %406 = bitcast %class.CPDFSDK_Annot** %405 to i64*
  %407 = bitcast %class.CPDFSDK_Annot** %404 to i64*
  %408 = load i64, i64* %407, align 8
  store i64 %408, i64* %406, align 8
  %409 = getelementptr inbounds %class.CPDFSDK_Annot*, %class.CPDFSDK_Annot** %390, i64 4
  %410 = getelementptr inbounds %class.CPDFSDK_Annot*, %class.CPDFSDK_Annot** %389, i64 4
  %411 = bitcast %class.CPDFSDK_Annot** %410 to i64*
  %412 = bitcast %class.CPDFSDK_Annot** %409 to i64*
  %413 = load i64, i64* %412, align 8
  store i64 %413, i64* %411, align 8
  %414 = getelementptr inbounds %class.CPDFSDK_Annot*, %class.CPDFSDK_Annot** %390, i64 5
  %415 = getelementptr inbounds %class.CPDFSDK_Annot*, %class.CPDFSDK_Annot** %389, i64 5
  %416 = bitcast %class.CPDFSDK_Annot** %415 to i64*
  %417 = bitcast %class.CPDFSDK_Annot** %414 to i64*
  %418 = load i64, i64* %417, align 8
  store i64 %418, i64* %416, align 8
  %419 = getelementptr inbounds %class.CPDFSDK_Annot*, %class.CPDFSDK_Annot** %390, i64 6
  %420 = getelementptr inbounds %class.CPDFSDK_Annot*, %class.CPDFSDK_Annot** %389, i64 6
  %421 = bitcast %class.CPDFSDK_Annot** %420 to i64*
  %422 = bitcast %class.CPDFSDK_Annot** %419 to i64*
  %423 = load i64, i64* %422, align 8
  store i64 %423, i64* %421, align 8
  %424 = getelementptr inbounds %class.CPDFSDK_Annot*, %class.CPDFSDK_Annot** %390, i64 7
  %425 = getelementptr inbounds %class.CPDFSDK_Annot*, %class.CPDFSDK_Annot** %389, i64 7
  %426 = bitcast %class.CPDFSDK_Annot** %425 to i64*
  %427 = bitcast %class.CPDFSDK_Annot** %424 to i64*
  %428 = load i64, i64* %427, align 8
  store i64 %428, i64* %426, align 8
  %429 = getelementptr inbounds %class.CPDFSDK_Annot*, %class.CPDFSDK_Annot** %390, i64 8
  %430 = getelementptr inbounds %class.CPDFSDK_Annot*, %class.CPDFSDK_Annot** %389, i64 8
  %431 = icmp eq %class.CPDFSDK_Annot** %429, %259
  br i1 %431, label %432, label %388, !llvm.loop !20

432:                                              ; preds = %383, %388, %359, %258
  %433 = phi %class.CPDFSDK_Annot** [ %246, %258 ], [ %282, %359 ], [ %384, %383 ], [ %430, %388 ]
  %434 = ptrtoint %class.CPDFSDK_Annot** %433 to i64
  %435 = load %class.CPDFSDK_Annot**, %class.CPDFSDK_Annot*** %6, align 8
  store i64 %253, i64* %174, align 8
  store i64 %434, i64* %173, align 8
  store i64 %242, i64* %183, align 8
  %436 = icmp eq %class.CPDFSDK_Annot** %435, null
  br i1 %436, label %439, label %437

437:                                              ; preds = %432
  %438 = bitcast %class.CPDFSDK_Annot** %435 to i8*
  tail call void @_ZdlPv(i8* %438) #11
  br label %439

439:                                              ; preds = %437, %432, %16, %167
  %440 = phi %class.CPDFSDK_Annot** [ %1, %16 ], [ %1, %167 ], [ %241, %432 ], [ %241, %437 ]
  ret %class.CPDFSDK_Annot** %440
}

; Function Attrs: nounwind ssp uwtable
define linkonce_odr hidden void @_ZNSt3__16vectorIN5fxcrt11ObservedPtrI13CPDFSDK_AnnotEENS_9allocatorIS4_EEE7reserveEm(%"class.std::__1::vector"*, i64) local_unnamed_addr #0 comdat align 2 {
  %3 = getelementptr inbounds %"class.std::__1::vector", %"class.std::__1::vector"* %0, i64 0, i32 0, i32 2, i32 0, i32 0
  %4 = bitcast %"class.fxcrt::ObservedPtr"** %3 to i64*
  %5 = load i64, i64* %4, align 8
  %6 = bitcast %"class.std::__1::vector"* %0 to i64*
  %7 = load i64, i64* %6, align 8
  %8 = sub i64 %5, %7
  %9 = ashr exact i64 %8, 4
  %10 = icmp ult i64 %9, %1
  %11 = inttoptr i64 %7 to %"class.fxcrt::ObservedPtr"*
  br i1 %10, label %12, label %72

12:                                               ; preds = %2
  %13 = getelementptr inbounds %"class.std::__1::vector", %"class.std::__1::vector"* %0, i64 0, i32 0, i32 1
  %14 = bitcast %"class.fxcrt::ObservedPtr"** %13 to i64*
  %15 = icmp ugt i64 %1, 1152921504606846975
  br i1 %15, label %16, label %17

16:                                               ; preds = %12
  tail call void @abort() #10
  unreachable

17:                                               ; preds = %12
  %18 = load i64, i64* %14, align 8
  %19 = sub i64 %18, %7
  %20 = ashr exact i64 %19, 4
  %21 = shl i64 %1, 4
  %22 = tail call i8* @_Znwm(i64 %21) #11
  %23 = bitcast i8* %22 to %"class.fxcrt::ObservedPtr"*
  %24 = getelementptr inbounds %"class.fxcrt::ObservedPtr", %"class.fxcrt::ObservedPtr"* %23, i64 %20
  %25 = ptrtoint %"class.fxcrt::ObservedPtr"* %24 to i64
  %26 = getelementptr inbounds %"class.fxcrt::ObservedPtr", %"class.fxcrt::ObservedPtr"* %23, i64 %1
  %27 = ptrtoint %"class.fxcrt::ObservedPtr"* %26 to i64
  %28 = inttoptr i64 %18 to %"class.fxcrt::ObservedPtr"*
  %29 = icmp eq %"class.fxcrt::ObservedPtr"* %28, %11
  br i1 %29, label %50, label %30

30:                                               ; preds = %17, %43
  %31 = phi %"class.fxcrt::ObservedPtr"* [ %33, %43 ], [ %24, %17 ]
  %32 = phi %"class.fxcrt::ObservedPtr"* [ %34, %43 ], [ %28, %17 ]
  %33 = getelementptr inbounds %"class.fxcrt::ObservedPtr", %"class.fxcrt::ObservedPtr"* %31, i64 -1
  %34 = getelementptr inbounds %"class.fxcrt::ObservedPtr", %"class.fxcrt::ObservedPtr"* %32, i64 -1
  %35 = getelementptr inbounds %"class.fxcrt::ObservedPtr", %"class.fxcrt::ObservedPtr"* %32, i64 -1, i32 1
  %36 = load %class.CPDFSDK_Annot*, %class.CPDFSDK_Annot** %35, align 8
  %37 = getelementptr inbounds %"class.fxcrt::ObservedPtr", %"class.fxcrt::ObservedPtr"* %33, i64 0, i32 0, i32 0
  store i32 (...)** bitcast (i8** getelementptr inbounds ({ [5 x i8*] }, { [5 x i8*] }* @_ZTVN5fxcrt11ObservedPtrI13CPDFSDK_AnnotEE, i64 0, inrange i32 0, i64 2) to i32 (...)**), i32 (...)*** %37, align 8
  %38 = getelementptr inbounds %"class.fxcrt::ObservedPtr", %"class.fxcrt::ObservedPtr"* %31, i64 -1, i32 1
  store %class.CPDFSDK_Annot* %36, %class.CPDFSDK_Annot** %38, align 8
  %39 = icmp eq %class.CPDFSDK_Annot* %36, null
  br i1 %39, label %43, label %40

40:                                               ; preds = %30
  %41 = getelementptr inbounds %"class.fxcrt::ObservedPtr", %"class.fxcrt::ObservedPtr"* %33, i64 0, i32 0
  %42 = getelementptr inbounds %class.CPDFSDK_Annot, %class.CPDFSDK_Annot* %36, i64 0, i32 1
  tail call void @_ZN5fxcrt10Observable11AddObserverEPNS0_13ObserverIfaceE(%"class.fxcrt::Observable"* %42, %"class.fxcrt::Observable::ObserverIface"* %41) #9
  br label %43

43:                                               ; preds = %40, %30
  %44 = icmp eq %"class.fxcrt::ObservedPtr"* %34, %11
  br i1 %44, label %45, label %30

45:                                               ; preds = %43
  %46 = ptrtoint %"class.fxcrt::ObservedPtr"* %33 to i64
  %47 = load i64, i64* %6, align 8
  %48 = load %"class.fxcrt::ObservedPtr"*, %"class.fxcrt::ObservedPtr"** %13, align 8
  %49 = inttoptr i64 %47 to %"class.fxcrt::ObservedPtr"*
  br label %50

50:                                               ; preds = %17, %45
  %51 = phi %"class.fxcrt::ObservedPtr"* [ %49, %45 ], [ %28, %17 ]
  %52 = phi %"class.fxcrt::ObservedPtr"* [ %48, %45 ], [ %11, %17 ]
  %53 = phi i64 [ %46, %45 ], [ %25, %17 ]
  %54 = phi i64 [ %47, %45 ], [ %18, %17 ]
  store i64 %53, i64* %6, align 8
  store i64 %25, i64* %14, align 8
  store i64 %27, i64* %4, align 8
  %55 = icmp eq %"class.fxcrt::ObservedPtr"* %52, %51
  br i1 %55, label %68, label %56

56:                                               ; preds = %50, %66
  %57 = phi %"class.fxcrt::ObservedPtr"* [ %58, %66 ], [ %52, %50 ]
  %58 = getelementptr inbounds %"class.fxcrt::ObservedPtr", %"class.fxcrt::ObservedPtr"* %57, i64 -1
  %59 = getelementptr inbounds %"class.fxcrt::ObservedPtr", %"class.fxcrt::ObservedPtr"* %58, i64 0, i32 0, i32 0
  store i32 (...)** bitcast (i8** getelementptr inbounds ({ [5 x i8*] }, { [5 x i8*] }* @_ZTVN5fxcrt11ObservedPtrI13CPDFSDK_AnnotEE, i64 0, inrange i32 0, i64 2) to i32 (...)**), i32 (...)*** %59, align 8
  %60 = getelementptr inbounds %"class.fxcrt::ObservedPtr", %"class.fxcrt::ObservedPtr"* %57, i64 -1, i32 1
  %61 = load %class.CPDFSDK_Annot*, %class.CPDFSDK_Annot** %60, align 8
  %62 = icmp eq %class.CPDFSDK_Annot* %61, null
  br i1 %62, label %66, label %63

63:                                               ; preds = %56
  %64 = getelementptr inbounds %class.CPDFSDK_Annot, %class.CPDFSDK_Annot* %61, i64 0, i32 1
  %65 = getelementptr inbounds %"class.fxcrt::ObservedPtr", %"class.fxcrt::ObservedPtr"* %58, i64 0, i32 0
  tail call void @_ZN5fxcrt10Observable14RemoveObserverEPNS0_13ObserverIfaceE(%"class.fxcrt::Observable"* %64, %"class.fxcrt::Observable::ObserverIface"* %65) #9
  br label %66

66:                                               ; preds = %63, %56
  %67 = icmp eq %"class.fxcrt::ObservedPtr"* %58, %51
  br i1 %67, label %68, label %56

68:                                               ; preds = %66, %50
  %69 = icmp eq i64 %54, 0
  br i1 %69, label %72, label %70

70:                                               ; preds = %68
  %71 = inttoptr i64 %54 to i8*
  tail call void @_ZdlPv(i8* %71) #11
  br label %72

72:                                               ; preds = %70, %68, %2
  ret void
}

; Function Attrs: nounwind ssp uwtable
define hidden void @_ZN22CPDFSDK_AnnotIterationD2Ev(%class.CPDFSDK_AnnotIteration* nocapture) unnamed_addr #0 align 2 {
  %2 = getelementptr inbounds %class.CPDFSDK_AnnotIteration, %class.CPDFSDK_AnnotIteration* %0, i64 0, i32 0, i32 0, i32 0
  %3 = load %"class.fxcrt::ObservedPtr"*, %"class.fxcrt::ObservedPtr"** %2, align 8
  %4 = icmp eq %"class.fxcrt::ObservedPtr"* %3, null
  br i1 %4, label %27, label %5

5:                                                ; preds = %1
  %6 = bitcast %"class.fxcrt::ObservedPtr"* %3 to i8*
  %7 = getelementptr inbounds %class.CPDFSDK_AnnotIteration, %class.CPDFSDK_AnnotIteration* %0, i64 0, i32 0, i32 0, i32 1
  %8 = load %"class.fxcrt::ObservedPtr"*, %"class.fxcrt::ObservedPtr"** %7, align 8
  %9 = icmp eq %"class.fxcrt::ObservedPtr"* %8, %3
  br i1 %9, label %25, label %10

10:                                               ; preds = %5, %20
  %11 = phi %"class.fxcrt::ObservedPtr"* [ %12, %20 ], [ %8, %5 ]
  %12 = getelementptr inbounds %"class.fxcrt::ObservedPtr", %"class.fxcrt::ObservedPtr"* %11, i64 -1
  %13 = getelementptr inbounds %"class.fxcrt::ObservedPtr", %"class.fxcrt::ObservedPtr"* %12, i64 0, i32 0, i32 0
  store i32 (...)** bitcast (i8** getelementptr inbounds ({ [5 x i8*] }, { [5 x i8*] }* @_ZTVN5fxcrt11ObservedPtrI13CPDFSDK_AnnotEE, i64 0, inrange i32 0, i64 2) to i32 (...)**), i32 (...)*** %13, align 8
  %14 = getelementptr inbounds %"class.fxcrt::ObservedPtr", %"class.fxcrt::ObservedPtr"* %11, i64 -1, i32 1
  %15 = load %class.CPDFSDK_Annot*, %class.CPDFSDK_Annot** %14, align 8
  %16 = icmp eq %class.CPDFSDK_Annot* %15, null
  br i1 %16, label %20, label %17

17:                                               ; preds = %10
  %18 = getelementptr inbounds %class.CPDFSDK_Annot, %class.CPDFSDK_Annot* %15, i64 0, i32 1
  %19 = getelementptr inbounds %"class.fxcrt::ObservedPtr", %"class.fxcrt::ObservedPtr"* %12, i64 0, i32 0
  tail call void @_ZN5fxcrt10Observable14RemoveObserverEPNS0_13ObserverIfaceE(%"class.fxcrt::Observable"* %18, %"class.fxcrt::Observable::ObserverIface"* %19) #9
  br label %20

20:                                               ; preds = %17, %10
  %21 = icmp eq %"class.fxcrt::ObservedPtr"* %12, %3
  br i1 %21, label %22, label %10

22:                                               ; preds = %20
  %23 = bitcast %class.CPDFSDK_AnnotIteration* %0 to i8**
  %24 = load i8*, i8** %23, align 8
  br label %25

25:                                               ; preds = %22, %5
  %26 = phi i8* [ %24, %22 ], [ %6, %5 ]
  store %"class.fxcrt::ObservedPtr"* %3, %"class.fxcrt::ObservedPtr"** %7, align 8
  tail call void @_ZdlPv(i8* %26) #11
  br label %27

27:                                               ; preds = %1, %25
  ret void
}

; Function Attrs: nounwind ssp uwtable
define linkonce_odr hidden void @_ZN5fxcrt11ObservedPtrI13CPDFSDK_AnnotED2Ev(%"class.fxcrt::ObservedPtr"*) unnamed_addr #0 comdat align 2 {
  %2 = getelementptr inbounds %"class.fxcrt::ObservedPtr", %"class.fxcrt::ObservedPtr"* %0, i64 0, i32 0, i32 0
  store i32 (...)** bitcast (i8** getelementptr inbounds ({ [5 x i8*] }, { [5 x i8*] }* @_ZTVN5fxcrt11ObservedPtrI13CPDFSDK_AnnotEE, i64 0, inrange i32 0, i64 2) to i32 (...)**), i32 (...)*** %2, align 8
  %3 = getelementptr inbounds %"class.fxcrt::ObservedPtr", %"class.fxcrt::ObservedPtr"* %0, i64 0, i32 1
  %4 = load %class.CPDFSDK_Annot*, %class.CPDFSDK_Annot** %3, align 8
  %5 = icmp eq %class.CPDFSDK_Annot* %4, null
  br i1 %5, label %9, label %6

6:                                                ; preds = %1
  %7 = getelementptr inbounds %class.CPDFSDK_Annot, %class.CPDFSDK_Annot* %4, i64 0, i32 1
  %8 = getelementptr inbounds %"class.fxcrt::ObservedPtr", %"class.fxcrt::ObservedPtr"* %0, i64 0, i32 0
  tail call void @_ZN5fxcrt10Observable14RemoveObserverEPNS0_13ObserverIfaceE(%"class.fxcrt::Observable"* %7, %"class.fxcrt::Observable::ObserverIface"* %8) #9
  br label %9

9:                                                ; preds = %1, %6
  ret void
}

declare void @_ZN5fxcrt10Observable14RemoveObserverEPNS0_13ObserverIfaceE(%"class.fxcrt::Observable"*, %"class.fxcrt::Observable::ObserverIface"*) local_unnamed_addr #2

; Function Attrs: nounwind ssp uwtable
define linkonce_odr hidden void @_ZN5fxcrt11ObservedPtrI13CPDFSDK_AnnotED0Ev(%"class.fxcrt::ObservedPtr"*) unnamed_addr #0 comdat align 2 {
  %2 = getelementptr inbounds %"class.fxcrt::ObservedPtr", %"class.fxcrt::ObservedPtr"* %0, i64 0, i32 0, i32 0
  store i32 (...)** bitcast (i8** getelementptr inbounds ({ [5 x i8*] }, { [5 x i8*] }* @_ZTVN5fxcrt11ObservedPtrI13CPDFSDK_AnnotEE, i64 0, inrange i32 0, i64 2) to i32 (...)**), i32 (...)*** %2, align 8
  %3 = getelementptr inbounds %"class.fxcrt::ObservedPtr", %"class.fxcrt::ObservedPtr"* %0, i64 0, i32 1
  %4 = load %class.CPDFSDK_Annot*, %class.CPDFSDK_Annot** %3, align 8
  %5 = icmp eq %class.CPDFSDK_Annot* %4, null
  br i1 %5, label %9, label %6

6:                                                ; preds = %1
  %7 = getelementptr inbounds %class.CPDFSDK_Annot, %class.CPDFSDK_Annot* %4, i64 0, i32 1
  %8 = getelementptr inbounds %"class.fxcrt::ObservedPtr", %"class.fxcrt::ObservedPtr"* %0, i64 0, i32 0
  tail call void @_ZN5fxcrt10Observable14RemoveObserverEPNS0_13ObserverIfaceE(%"class.fxcrt::Observable"* %7, %"class.fxcrt::Observable::ObserverIface"* %8) #9
  br label %9

9:                                                ; preds = %1, %6
  %10 = bitcast %"class.fxcrt::ObservedPtr"* %0 to i8*
  tail call void @_ZdlPv(i8* %10) #11
  ret void
}

; Function Attrs: nounwind ssp uwtable
define linkonce_odr hidden void @_ZN5fxcrt11ObservedPtrI13CPDFSDK_AnnotE21OnObservableDestroyedEv(%"class.fxcrt::ObservedPtr"*) unnamed_addr #0 comdat align 2 {
  %2 = getelementptr inbounds %"class.fxcrt::ObservedPtr", %"class.fxcrt::ObservedPtr"* %0, i64 0, i32 1
  store %class.CPDFSDK_Annot* null, %class.CPDFSDK_Annot** %2, align 8
  ret void
}

; Function Attrs: nobuiltin nounwind
declare void @_ZdlPv(i8*) local_unnamed_addr #3

; Function Attrs: noreturn
declare void @_ZNKSt3__120__vector_base_commonILb1EE20__throw_length_errorEv(%"class.std::__1::__vector_base_common"*) local_unnamed_addr #4

; Function Attrs: noreturn nounwind
declare void @abort() local_unnamed_addr #5

; Function Attrs: nobuiltin nofree
declare noalias nonnull i8* @_Znwm(i64) local_unnamed_addr #6

; Function Attrs: argmemonly nounwind
declare void @llvm.memcpy.p0i8.p0i8.i64(i8* nocapture writeonly, i8* nocapture readonly, i64, i1 immarg) #1

; Function Attrs: nounwind ssp uwtable
define internal fastcc void @"_ZNSt3__113__stable_sortIRZN22CPDFSDK_AnnotIterationC1EP16CPDFSDK_PageViewbE3$_0NS_11__wrap_iterIPP13CPDFSDK_AnnotEEEEvT0_SB_T_NS_15iterator_traitsISB_E15difference_typeEPNSE_10value_typeEl"(%class.CPDFSDK_Annot**, %class.CPDFSDK_Annot**, %class.anon* dereferenceable(1), i64, %class.CPDFSDK_Annot**, i64) unnamed_addr #0 {
  switch i64 %3, label %27 [
    i64 0, label %460
    i64 1, label %460
    i64 2, label %7
  ]

7:                                                ; preds = %6
  %8 = getelementptr inbounds %class.CPDFSDK_Annot*, %class.CPDFSDK_Annot** %1, i64 -1
  %9 = load %class.CPDFSDK_Annot*, %class.CPDFSDK_Annot** %8, align 8
  %10 = load %class.CPDFSDK_Annot*, %class.CPDFSDK_Annot** %0, align 8
  %11 = bitcast %class.CPDFSDK_Annot* %9 to i32 (%class.CPDFSDK_Annot*)***
  %12 = load i32 (%class.CPDFSDK_Annot*)**, i32 (%class.CPDFSDK_Annot*)*** %11, align 8
  %13 = getelementptr inbounds i32 (%class.CPDFSDK_Annot*)*, i32 (%class.CPDFSDK_Annot*)** %12, i64 4
  %14 = load i32 (%class.CPDFSDK_Annot*)*, i32 (%class.CPDFSDK_Annot*)** %13, align 8
  %15 = tail call i32 %14(%class.CPDFSDK_Annot* %9) #9
  %16 = bitcast %class.CPDFSDK_Annot* %10 to i32 (%class.CPDFSDK_Annot*)***
  %17 = load i32 (%class.CPDFSDK_Annot*)**, i32 (%class.CPDFSDK_Annot*)*** %16, align 8
  %18 = getelementptr inbounds i32 (%class.CPDFSDK_Annot*)*, i32 (%class.CPDFSDK_Annot*)** %17, i64 4
  %19 = load i32 (%class.CPDFSDK_Annot*)*, i32 (%class.CPDFSDK_Annot*)** %18, align 8
  %20 = tail call i32 %19(%class.CPDFSDK_Annot* %10) #9
  %21 = icmp slt i32 %15, %20
  br i1 %21, label %22, label %460

22:                                               ; preds = %7
  %23 = bitcast %class.CPDFSDK_Annot** %0 to i64*
  %24 = load i64, i64* %23, align 8
  %25 = bitcast %class.CPDFSDK_Annot** %8 to i64*
  %26 = load i64, i64* %25, align 8
  store i64 %26, i64* %23, align 8
  store i64 %24, i64* %25, align 8
  br label %460

27:                                               ; preds = %6
  %28 = icmp slt i64 %3, 129
  br i1 %28, label %29, label %66

29:                                               ; preds = %27
  %30 = icmp eq %class.CPDFSDK_Annot** %0, %1
  br i1 %30, label %460, label %31

31:                                               ; preds = %29
  %32 = getelementptr inbounds %class.CPDFSDK_Annot*, %class.CPDFSDK_Annot** %0, i64 1
  %33 = icmp eq %class.CPDFSDK_Annot** %32, %1
  br i1 %33, label %460, label %34

34:                                               ; preds = %31, %56
  %35 = phi %class.CPDFSDK_Annot** [ %59, %56 ], [ %32, %31 ]
  %36 = bitcast %class.CPDFSDK_Annot** %35 to i64*
  %37 = load i64, i64* %36, align 8
  %38 = inttoptr i64 %37 to %class.CPDFSDK_Annot*
  %39 = icmp eq %class.CPDFSDK_Annot** %35, %0
  br i1 %39, label %56, label %40

40:                                               ; preds = %34
  %41 = inttoptr i64 %37 to i32 (%class.CPDFSDK_Annot*)***
  br label %42

42:                                               ; preds = %61, %40
  %43 = phi %class.CPDFSDK_Annot** [ %35, %40 ], [ %44, %61 ]
  %44 = getelementptr inbounds %class.CPDFSDK_Annot*, %class.CPDFSDK_Annot** %43, i64 -1
  %45 = load %class.CPDFSDK_Annot*, %class.CPDFSDK_Annot** %44, align 8
  %46 = load i32 (%class.CPDFSDK_Annot*)**, i32 (%class.CPDFSDK_Annot*)*** %41, align 8
  %47 = getelementptr inbounds i32 (%class.CPDFSDK_Annot*)*, i32 (%class.CPDFSDK_Annot*)** %46, i64 4
  %48 = load i32 (%class.CPDFSDK_Annot*)*, i32 (%class.CPDFSDK_Annot*)** %47, align 8
  %49 = tail call i32 %48(%class.CPDFSDK_Annot* %38) #9
  %50 = bitcast %class.CPDFSDK_Annot* %45 to i32 (%class.CPDFSDK_Annot*)***
  %51 = load i32 (%class.CPDFSDK_Annot*)**, i32 (%class.CPDFSDK_Annot*)*** %50, align 8
  %52 = getelementptr inbounds i32 (%class.CPDFSDK_Annot*)*, i32 (%class.CPDFSDK_Annot*)** %51, i64 4
  %53 = load i32 (%class.CPDFSDK_Annot*)*, i32 (%class.CPDFSDK_Annot*)** %52, align 8
  %54 = tail call i32 %53(%class.CPDFSDK_Annot* %45) #9
  %55 = icmp slt i32 %49, %54
  br i1 %55, label %61, label %56

56:                                               ; preds = %61, %42, %34
  %57 = phi %class.CPDFSDK_Annot** [ %0, %34 ], [ %43, %42 ], [ %0, %61 ]
  %58 = bitcast %class.CPDFSDK_Annot** %57 to i64*
  store i64 %37, i64* %58, align 8
  %59 = getelementptr inbounds %class.CPDFSDK_Annot*, %class.CPDFSDK_Annot** %35, i64 1
  %60 = icmp eq %class.CPDFSDK_Annot** %59, %1
  br i1 %60, label %460, label %34

61:                                               ; preds = %42
  %62 = bitcast %class.CPDFSDK_Annot** %44 to i64*
  %63 = load i64, i64* %62, align 8
  %64 = bitcast %class.CPDFSDK_Annot** %43 to i64*
  store i64 %63, i64* %64, align 8
  %65 = icmp eq %class.CPDFSDK_Annot** %44, %0
  br i1 %65, label %56, label %42

66:                                               ; preds = %27
  %67 = lshr i64 %3, 1
  %68 = getelementptr inbounds %class.CPDFSDK_Annot*, %class.CPDFSDK_Annot** %0, i64 %67
  %69 = icmp sgt i64 %3, %5
  br i1 %69, label %458, label %70

70:                                               ; preds = %66
  tail call fastcc void @"_ZNSt3__118__stable_sort_moveIRZN22CPDFSDK_AnnotIterationC1EP16CPDFSDK_PageViewbE3$_0NS_11__wrap_iterIPP13CPDFSDK_AnnotEEEEvT0_SB_T_NS_15iterator_traitsISB_E15difference_typeEPNSE_10value_typeE"(%class.CPDFSDK_Annot** %0, %class.CPDFSDK_Annot** %68, %class.anon* dereferenceable(1) %2, i64 %67, %class.CPDFSDK_Annot** %4)
  %71 = sub nsw i64 %3, %67
  %72 = getelementptr inbounds %class.CPDFSDK_Annot*, %class.CPDFSDK_Annot** %4, i64 %67
  tail call fastcc void @"_ZNSt3__118__stable_sort_moveIRZN22CPDFSDK_AnnotIterationC1EP16CPDFSDK_PageViewbE3$_0NS_11__wrap_iterIPP13CPDFSDK_AnnotEEEEvT0_SB_T_NS_15iterator_traitsISB_E15difference_typeEPNSE_10value_typeE"(%class.CPDFSDK_Annot** %68, %class.CPDFSDK_Annot** %1, %class.anon* dereferenceable(1) %2, i64 %71, %class.CPDFSDK_Annot** %72)
  %73 = getelementptr inbounds %class.CPDFSDK_Annot*, %class.CPDFSDK_Annot** %4, i64 %3
  br label %205

74:                                               ; preds = %409
  %75 = ptrtoint %class.CPDFSDK_Annot** %410 to i64
  %76 = icmp eq %class.CPDFSDK_Annot** %410, %73
  br i1 %76, label %460, label %77

77:                                               ; preds = %74
  %78 = add i64 %3, -1
  %79 = getelementptr %class.CPDFSDK_Annot*, %class.CPDFSDK_Annot** %4, i64 %78
  %80 = ptrtoint %class.CPDFSDK_Annot** %79 to i64
  %81 = sub i64 %80, %75
  %82 = lshr i64 %81, 3
  %83 = add nuw nsw i64 %82, 1
  %84 = icmp ult i64 %83, 4
  br i1 %84, label %85, label %112

85:                                               ; preds = %203, %112, %77
  %86 = phi %class.CPDFSDK_Annot** [ %410, %112 ], [ %410, %77 ], [ %126, %203 ]
  %87 = phi %class.CPDFSDK_Annot** [ %412, %112 ], [ %412, %77 ], [ %127, %203 ]
  %88 = ptrtoint %class.CPDFSDK_Annot** %86 to i64
  %89 = add i64 %3, -1
  %90 = getelementptr %class.CPDFSDK_Annot*, %class.CPDFSDK_Annot** %4, i64 %89
  %91 = ptrtoint %class.CPDFSDK_Annot** %90 to i64
  %92 = sub i64 %91, %88
  %93 = lshr i64 %92, 3
  %94 = add nuw nsw i64 %93, 1
  %95 = and i64 %94, 7
  %96 = icmp eq i64 %95, 0
  br i1 %96, label %108, label %97

97:                                               ; preds = %85, %97
  %98 = phi %class.CPDFSDK_Annot** [ %104, %97 ], [ %86, %85 ]
  %99 = phi %class.CPDFSDK_Annot** [ %105, %97 ], [ %87, %85 ]
  %100 = phi i64 [ %106, %97 ], [ %95, %85 ]
  %101 = bitcast %class.CPDFSDK_Annot** %98 to i64*
  %102 = load i64, i64* %101, align 8
  %103 = bitcast %class.CPDFSDK_Annot** %99 to i64*
  store i64 %102, i64* %103, align 8
  %104 = getelementptr inbounds %class.CPDFSDK_Annot*, %class.CPDFSDK_Annot** %98, i64 1
  %105 = getelementptr inbounds %class.CPDFSDK_Annot*, %class.CPDFSDK_Annot** %99, i64 1
  %106 = add i64 %100, -1
  %107 = icmp eq i64 %106, 0
  br i1 %107, label %108, label %97, !llvm.loop !21

108:                                              ; preds = %97, %85
  %109 = phi %class.CPDFSDK_Annot** [ %86, %85 ], [ %104, %97 ]
  %110 = phi %class.CPDFSDK_Annot** [ %87, %85 ], [ %105, %97 ]
  %111 = icmp ult i64 %92, 56
  br i1 %111, label %460, label %414

112:                                              ; preds = %77
  %113 = add i64 %3, -1
  %114 = getelementptr %class.CPDFSDK_Annot*, %class.CPDFSDK_Annot** %4, i64 %113
  %115 = ptrtoint %class.CPDFSDK_Annot** %114 to i64
  %116 = sub i64 %115, %75
  %117 = lshr i64 %116, 3
  %118 = add nuw nsw i64 %117, 1
  %119 = getelementptr %class.CPDFSDK_Annot*, %class.CPDFSDK_Annot** %412, i64 %118
  %120 = getelementptr %class.CPDFSDK_Annot*, %class.CPDFSDK_Annot** %410, i64 %118
  %121 = icmp ult %class.CPDFSDK_Annot** %412, %120
  %122 = icmp ult %class.CPDFSDK_Annot** %410, %119
  %123 = and i1 %121, %122
  br i1 %123, label %85, label %124

124:                                              ; preds = %112
  %125 = and i64 %83, 4611686018427387900
  %126 = getelementptr %class.CPDFSDK_Annot*, %class.CPDFSDK_Annot** %410, i64 %125
  %127 = getelementptr %class.CPDFSDK_Annot*, %class.CPDFSDK_Annot** %412, i64 %125
  %128 = add nsw i64 %125, -4
  %129 = lshr exact i64 %128, 2
  %130 = add nuw nsw i64 %129, 1
  %131 = and i64 %130, 3
  %132 = icmp ult i64 %128, 12
  br i1 %132, label %184, label %133

133:                                              ; preds = %124
  %134 = sub nsw i64 %130, %131
  br label %135

135:                                              ; preds = %135, %133
  %136 = phi i64 [ 0, %133 ], [ %181, %135 ]
  %137 = phi i64 [ %134, %133 ], [ %182, %135 ]
  %138 = getelementptr %class.CPDFSDK_Annot*, %class.CPDFSDK_Annot** %410, i64 %136
  %139 = getelementptr %class.CPDFSDK_Annot*, %class.CPDFSDK_Annot** %412, i64 %136
  %140 = bitcast %class.CPDFSDK_Annot** %138 to <2 x i64>*
  %141 = load <2 x i64>, <2 x i64>* %140, align 8, !alias.scope !22
  %142 = getelementptr %class.CPDFSDK_Annot*, %class.CPDFSDK_Annot** %138, i64 2
  %143 = bitcast %class.CPDFSDK_Annot** %142 to <2 x i64>*
  %144 = load <2 x i64>, <2 x i64>* %143, align 8, !alias.scope !22
  %145 = bitcast %class.CPDFSDK_Annot** %139 to <2 x i64>*
  store <2 x i64> %141, <2 x i64>* %145, align 8, !alias.scope !25, !noalias !22
  %146 = getelementptr %class.CPDFSDK_Annot*, %class.CPDFSDK_Annot** %139, i64 2
  %147 = bitcast %class.CPDFSDK_Annot** %146 to <2 x i64>*
  store <2 x i64> %144, <2 x i64>* %147, align 8, !alias.scope !25, !noalias !22
  %148 = or i64 %136, 4
  %149 = getelementptr %class.CPDFSDK_Annot*, %class.CPDFSDK_Annot** %410, i64 %148
  %150 = getelementptr %class.CPDFSDK_Annot*, %class.CPDFSDK_Annot** %412, i64 %148
  %151 = bitcast %class.CPDFSDK_Annot** %149 to <2 x i64>*
  %152 = load <2 x i64>, <2 x i64>* %151, align 8, !alias.scope !22
  %153 = getelementptr %class.CPDFSDK_Annot*, %class.CPDFSDK_Annot** %149, i64 2
  %154 = bitcast %class.CPDFSDK_Annot** %153 to <2 x i64>*
  %155 = load <2 x i64>, <2 x i64>* %154, align 8, !alias.scope !22
  %156 = bitcast %class.CPDFSDK_Annot** %150 to <2 x i64>*
  store <2 x i64> %152, <2 x i64>* %156, align 8, !alias.scope !25, !noalias !22
  %157 = getelementptr %class.CPDFSDK_Annot*, %class.CPDFSDK_Annot** %150, i64 2
  %158 = bitcast %class.CPDFSDK_Annot** %157 to <2 x i64>*
  store <2 x i64> %155, <2 x i64>* %158, align 8, !alias.scope !25, !noalias !22
  %159 = or i64 %136, 8
  %160 = getelementptr %class.CPDFSDK_Annot*, %class.CPDFSDK_Annot** %410, i64 %159
  %161 = getelementptr %class.CPDFSDK_Annot*, %class.CPDFSDK_Annot** %412, i64 %159
  %162 = bitcast %class.CPDFSDK_Annot** %160 to <2 x i64>*
  %163 = load <2 x i64>, <2 x i64>* %162, align 8, !alias.scope !22
  %164 = getelementptr %class.CPDFSDK_Annot*, %class.CPDFSDK_Annot** %160, i64 2
  %165 = bitcast %class.CPDFSDK_Annot** %164 to <2 x i64>*
  %166 = load <2 x i64>, <2 x i64>* %165, align 8, !alias.scope !22
  %167 = bitcast %class.CPDFSDK_Annot** %161 to <2 x i64>*
  store <2 x i64> %163, <2 x i64>* %167, align 8, !alias.scope !25, !noalias !22
  %168 = getelementptr %class.CPDFSDK_Annot*, %class.CPDFSDK_Annot** %161, i64 2
  %169 = bitcast %class.CPDFSDK_Annot** %168 to <2 x i64>*
  store <2 x i64> %166, <2 x i64>* %169, align 8, !alias.scope !25, !noalias !22
  %170 = or i64 %136, 12
  %171 = getelementptr %class.CPDFSDK_Annot*, %class.CPDFSDK_Annot** %410, i64 %170
  %172 = getelementptr %class.CPDFSDK_Annot*, %class.CPDFSDK_Annot** %412, i64 %170
  %173 = bitcast %class.CPDFSDK_Annot** %171 to <2 x i64>*
  %174 = load <2 x i64>, <2 x i64>* %173, align 8, !alias.scope !22
  %175 = getelementptr %class.CPDFSDK_Annot*, %class.CPDFSDK_Annot** %171, i64 2
  %176 = bitcast %class.CPDFSDK_Annot** %175 to <2 x i64>*
  %177 = load <2 x i64>, <2 x i64>* %176, align 8, !alias.scope !22
  %178 = bitcast %class.CPDFSDK_Annot** %172 to <2 x i64>*
  store <2 x i64> %174, <2 x i64>* %178, align 8, !alias.scope !25, !noalias !22
  %179 = getelementptr %class.CPDFSDK_Annot*, %class.CPDFSDK_Annot** %172, i64 2
  %180 = bitcast %class.CPDFSDK_Annot** %179 to <2 x i64>*
  store <2 x i64> %177, <2 x i64>* %180, align 8, !alias.scope !25, !noalias !22
  %181 = add i64 %136, 16
  %182 = add i64 %137, -4
  %183 = icmp eq i64 %182, 0
  br i1 %183, label %184, label %135, !llvm.loop !27

184:                                              ; preds = %135, %124
  %185 = phi i64 [ 0, %124 ], [ %181, %135 ]
  %186 = icmp eq i64 %131, 0
  br i1 %186, label %203, label %187

187:                                              ; preds = %184, %187
  %188 = phi i64 [ %200, %187 ], [ %185, %184 ]
  %189 = phi i64 [ %201, %187 ], [ %131, %184 ]
  %190 = getelementptr %class.CPDFSDK_Annot*, %class.CPDFSDK_Annot** %410, i64 %188
  %191 = getelementptr %class.CPDFSDK_Annot*, %class.CPDFSDK_Annot** %412, i64 %188
  %192 = bitcast %class.CPDFSDK_Annot** %190 to <2 x i64>*
  %193 = load <2 x i64>, <2 x i64>* %192, align 8, !alias.scope !22
  %194 = getelementptr %class.CPDFSDK_Annot*, %class.CPDFSDK_Annot** %190, i64 2
  %195 = bitcast %class.CPDFSDK_Annot** %194 to <2 x i64>*
  %196 = load <2 x i64>, <2 x i64>* %195, align 8, !alias.scope !22
  %197 = bitcast %class.CPDFSDK_Annot** %191 to <2 x i64>*
  store <2 x i64> %193, <2 x i64>* %197, align 8, !alias.scope !25, !noalias !22
  %198 = getelementptr %class.CPDFSDK_Annot*, %class.CPDFSDK_Annot** %191, i64 2
  %199 = bitcast %class.CPDFSDK_Annot** %198 to <2 x i64>*
  store <2 x i64> %196, <2 x i64>* %199, align 8, !alias.scope !25, !noalias !22
  %200 = add i64 %188, 4
  %201 = add i64 %189, -1
  %202 = icmp eq i64 %201, 0
  br i1 %202, label %203, label %187, !llvm.loop !28

203:                                              ; preds = %187, %184
  %204 = icmp eq i64 %83, %125
  br i1 %204, label %460, label %85

205:                                              ; preds = %70, %409
  %206 = phi %class.CPDFSDK_Annot** [ %411, %409 ], [ %4, %70 ]
  %207 = phi %class.CPDFSDK_Annot** [ %410, %409 ], [ %72, %70 ]
  %208 = phi %class.CPDFSDK_Annot** [ %412, %409 ], [ %0, %70 ]
  %209 = icmp eq %class.CPDFSDK_Annot** %207, %73
  br i1 %209, label %210, label %385

210:                                              ; preds = %205
  %211 = ptrtoint %class.CPDFSDK_Annot** %206 to i64
  %212 = icmp eq %class.CPDFSDK_Annot** %206, %72
  br i1 %212, label %460, label %213

213:                                              ; preds = %210
  %214 = add nsw i64 %67, -1
  %215 = getelementptr %class.CPDFSDK_Annot*, %class.CPDFSDK_Annot** %4, i64 %214
  %216 = ptrtoint %class.CPDFSDK_Annot** %215 to i64
  %217 = sub i64 %216, %211
  %218 = lshr i64 %217, 3
  %219 = add nuw nsw i64 %218, 1
  %220 = icmp ult i64 %219, 4
  br i1 %220, label %314, label %221

221:                                              ; preds = %213
  %222 = add nsw i64 %67, -1
  %223 = getelementptr %class.CPDFSDK_Annot*, %class.CPDFSDK_Annot** %4, i64 %222
  %224 = ptrtoint %class.CPDFSDK_Annot** %223 to i64
  %225 = sub i64 %224, %211
  %226 = lshr i64 %225, 3
  %227 = add nuw nsw i64 %226, 1
  %228 = getelementptr %class.CPDFSDK_Annot*, %class.CPDFSDK_Annot** %208, i64 %227
  %229 = getelementptr %class.CPDFSDK_Annot*, %class.CPDFSDK_Annot** %206, i64 %227
  %230 = icmp ult %class.CPDFSDK_Annot** %208, %229
  %231 = icmp ult %class.CPDFSDK_Annot** %206, %228
  %232 = and i1 %230, %231
  br i1 %232, label %314, label %233

233:                                              ; preds = %221
  %234 = and i64 %219, 4611686018427387900
  %235 = getelementptr %class.CPDFSDK_Annot*, %class.CPDFSDK_Annot** %206, i64 %234
  %236 = getelementptr %class.CPDFSDK_Annot*, %class.CPDFSDK_Annot** %208, i64 %234
  %237 = add nsw i64 %234, -4
  %238 = lshr exact i64 %237, 2
  %239 = add nuw nsw i64 %238, 1
  %240 = and i64 %239, 3
  %241 = icmp ult i64 %237, 12
  br i1 %241, label %293, label %242

242:                                              ; preds = %233
  %243 = sub nsw i64 %239, %240
  br label %244

244:                                              ; preds = %244, %242
  %245 = phi i64 [ 0, %242 ], [ %290, %244 ]
  %246 = phi i64 [ %243, %242 ], [ %291, %244 ]
  %247 = getelementptr %class.CPDFSDK_Annot*, %class.CPDFSDK_Annot** %206, i64 %245
  %248 = getelementptr %class.CPDFSDK_Annot*, %class.CPDFSDK_Annot** %208, i64 %245
  %249 = bitcast %class.CPDFSDK_Annot** %247 to <2 x i64>*
  %250 = load <2 x i64>, <2 x i64>* %249, align 8, !alias.scope !29
  %251 = getelementptr %class.CPDFSDK_Annot*, %class.CPDFSDK_Annot** %247, i64 2
  %252 = bitcast %class.CPDFSDK_Annot** %251 to <2 x i64>*
  %253 = load <2 x i64>, <2 x i64>* %252, align 8, !alias.scope !29
  %254 = bitcast %class.CPDFSDK_Annot** %248 to <2 x i64>*
  store <2 x i64> %250, <2 x i64>* %254, align 8, !alias.scope !32, !noalias !29
  %255 = getelementptr %class.CPDFSDK_Annot*, %class.CPDFSDK_Annot** %248, i64 2
  %256 = bitcast %class.CPDFSDK_Annot** %255 to <2 x i64>*
  store <2 x i64> %253, <2 x i64>* %256, align 8, !alias.scope !32, !noalias !29
  %257 = or i64 %245, 4
  %258 = getelementptr %class.CPDFSDK_Annot*, %class.CPDFSDK_Annot** %206, i64 %257
  %259 = getelementptr %class.CPDFSDK_Annot*, %class.CPDFSDK_Annot** %208, i64 %257
  %260 = bitcast %class.CPDFSDK_Annot** %258 to <2 x i64>*
  %261 = load <2 x i64>, <2 x i64>* %260, align 8, !alias.scope !29
  %262 = getelementptr %class.CPDFSDK_Annot*, %class.CPDFSDK_Annot** %258, i64 2
  %263 = bitcast %class.CPDFSDK_Annot** %262 to <2 x i64>*
  %264 = load <2 x i64>, <2 x i64>* %263, align 8, !alias.scope !29
  %265 = bitcast %class.CPDFSDK_Annot** %259 to <2 x i64>*
  store <2 x i64> %261, <2 x i64>* %265, align 8, !alias.scope !32, !noalias !29
  %266 = getelementptr %class.CPDFSDK_Annot*, %class.CPDFSDK_Annot** %259, i64 2
  %267 = bitcast %class.CPDFSDK_Annot** %266 to <2 x i64>*
  store <2 x i64> %264, <2 x i64>* %267, align 8, !alias.scope !32, !noalias !29
  %268 = or i64 %245, 8
  %269 = getelementptr %class.CPDFSDK_Annot*, %class.CPDFSDK_Annot** %206, i64 %268
  %270 = getelementptr %class.CPDFSDK_Annot*, %class.CPDFSDK_Annot** %208, i64 %268
  %271 = bitcast %class.CPDFSDK_Annot** %269 to <2 x i64>*
  %272 = load <2 x i64>, <2 x i64>* %271, align 8, !alias.scope !29
  %273 = getelementptr %class.CPDFSDK_Annot*, %class.CPDFSDK_Annot** %269, i64 2
  %274 = bitcast %class.CPDFSDK_Annot** %273 to <2 x i64>*
  %275 = load <2 x i64>, <2 x i64>* %274, align 8, !alias.scope !29
  %276 = bitcast %class.CPDFSDK_Annot** %270 to <2 x i64>*
  store <2 x i64> %272, <2 x i64>* %276, align 8, !alias.scope !32, !noalias !29
  %277 = getelementptr %class.CPDFSDK_Annot*, %class.CPDFSDK_Annot** %270, i64 2
  %278 = bitcast %class.CPDFSDK_Annot** %277 to <2 x i64>*
  store <2 x i64> %275, <2 x i64>* %278, align 8, !alias.scope !32, !noalias !29
  %279 = or i64 %245, 12
  %280 = getelementptr %class.CPDFSDK_Annot*, %class.CPDFSDK_Annot** %206, i64 %279
  %281 = getelementptr %class.CPDFSDK_Annot*, %class.CPDFSDK_Annot** %208, i64 %279
  %282 = bitcast %class.CPDFSDK_Annot** %280 to <2 x i64>*
  %283 = load <2 x i64>, <2 x i64>* %282, align 8, !alias.scope !29
  %284 = getelementptr %class.CPDFSDK_Annot*, %class.CPDFSDK_Annot** %280, i64 2
  %285 = bitcast %class.CPDFSDK_Annot** %284 to <2 x i64>*
  %286 = load <2 x i64>, <2 x i64>* %285, align 8, !alias.scope !29
  %287 = bitcast %class.CPDFSDK_Annot** %281 to <2 x i64>*
  store <2 x i64> %283, <2 x i64>* %287, align 8, !alias.scope !32, !noalias !29
  %288 = getelementptr %class.CPDFSDK_Annot*, %class.CPDFSDK_Annot** %281, i64 2
  %289 = bitcast %class.CPDFSDK_Annot** %288 to <2 x i64>*
  store <2 x i64> %286, <2 x i64>* %289, align 8, !alias.scope !32, !noalias !29
  %290 = add i64 %245, 16
  %291 = add i64 %246, -4
  %292 = icmp eq i64 %291, 0
  br i1 %292, label %293, label %244, !llvm.loop !34

293:                                              ; preds = %244, %233
  %294 = phi i64 [ 0, %233 ], [ %290, %244 ]
  %295 = icmp eq i64 %240, 0
  br i1 %295, label %312, label %296

296:                                              ; preds = %293, %296
  %297 = phi i64 [ %309, %296 ], [ %294, %293 ]
  %298 = phi i64 [ %310, %296 ], [ %240, %293 ]
  %299 = getelementptr %class.CPDFSDK_Annot*, %class.CPDFSDK_Annot** %206, i64 %297
  %300 = getelementptr %class.CPDFSDK_Annot*, %class.CPDFSDK_Annot** %208, i64 %297
  %301 = bitcast %class.CPDFSDK_Annot** %299 to <2 x i64>*
  %302 = load <2 x i64>, <2 x i64>* %301, align 8, !alias.scope !29
  %303 = getelementptr %class.CPDFSDK_Annot*, %class.CPDFSDK_Annot** %299, i64 2
  %304 = bitcast %class.CPDFSDK_Annot** %303 to <2 x i64>*
  %305 = load <2 x i64>, <2 x i64>* %304, align 8, !alias.scope !29
  %306 = bitcast %class.CPDFSDK_Annot** %300 to <2 x i64>*
  store <2 x i64> %302, <2 x i64>* %306, align 8, !alias.scope !32, !noalias !29
  %307 = getelementptr %class.CPDFSDK_Annot*, %class.CPDFSDK_Annot** %300, i64 2
  %308 = bitcast %class.CPDFSDK_Annot** %307 to <2 x i64>*
  store <2 x i64> %305, <2 x i64>* %308, align 8, !alias.scope !32, !noalias !29
  %309 = add i64 %297, 4
  %310 = add i64 %298, -1
  %311 = icmp eq i64 %310, 0
  br i1 %311, label %312, label %296, !llvm.loop !35

312:                                              ; preds = %296, %293
  %313 = icmp eq i64 %219, %234
  br i1 %313, label %460, label %314

314:                                              ; preds = %312, %221, %213
  %315 = phi %class.CPDFSDK_Annot** [ %206, %221 ], [ %206, %213 ], [ %235, %312 ]
  %316 = phi %class.CPDFSDK_Annot** [ %208, %221 ], [ %208, %213 ], [ %236, %312 ]
  %317 = ptrtoint %class.CPDFSDK_Annot** %315 to i64
  %318 = add nsw i64 %67, -1
  %319 = getelementptr %class.CPDFSDK_Annot*, %class.CPDFSDK_Annot** %4, i64 %318
  %320 = ptrtoint %class.CPDFSDK_Annot** %319 to i64
  %321 = sub i64 %320, %317
  %322 = lshr i64 %321, 3
  %323 = add nuw nsw i64 %322, 1
  %324 = and i64 %323, 7
  %325 = icmp eq i64 %324, 0
  br i1 %325, label %337, label %326

326:                                              ; preds = %314, %326
  %327 = phi %class.CPDFSDK_Annot** [ %333, %326 ], [ %315, %314 ]
  %328 = phi %class.CPDFSDK_Annot** [ %334, %326 ], [ %316, %314 ]
  %329 = phi i64 [ %335, %326 ], [ %324, %314 ]
  %330 = bitcast %class.CPDFSDK_Annot** %327 to i64*
  %331 = load i64, i64* %330, align 8
  %332 = bitcast %class.CPDFSDK_Annot** %328 to i64*
  store i64 %331, i64* %332, align 8
  %333 = getelementptr inbounds %class.CPDFSDK_Annot*, %class.CPDFSDK_Annot** %327, i64 1
  %334 = getelementptr inbounds %class.CPDFSDK_Annot*, %class.CPDFSDK_Annot** %328, i64 1
  %335 = add i64 %329, -1
  %336 = icmp eq i64 %335, 0
  br i1 %336, label %337, label %326, !llvm.loop !36

337:                                              ; preds = %326, %314
  %338 = phi %class.CPDFSDK_Annot** [ %315, %314 ], [ %333, %326 ]
  %339 = phi %class.CPDFSDK_Annot** [ %316, %314 ], [ %334, %326 ]
  %340 = icmp ult i64 %321, 56
  br i1 %340, label %460, label %341

341:                                              ; preds = %337, %341
  %342 = phi %class.CPDFSDK_Annot** [ %382, %341 ], [ %338, %337 ]
  %343 = phi %class.CPDFSDK_Annot** [ %383, %341 ], [ %339, %337 ]
  %344 = bitcast %class.CPDFSDK_Annot** %342 to i64*
  %345 = load i64, i64* %344, align 8
  %346 = bitcast %class.CPDFSDK_Annot** %343 to i64*
  store i64 %345, i64* %346, align 8
  %347 = getelementptr inbounds %class.CPDFSDK_Annot*, %class.CPDFSDK_Annot** %342, i64 1
  %348 = getelementptr inbounds %class.CPDFSDK_Annot*, %class.CPDFSDK_Annot** %343, i64 1
  %349 = bitcast %class.CPDFSDK_Annot** %347 to i64*
  %350 = load i64, i64* %349, align 8
  %351 = bitcast %class.CPDFSDK_Annot** %348 to i64*
  store i64 %350, i64* %351, align 8
  %352 = getelementptr inbounds %class.CPDFSDK_Annot*, %class.CPDFSDK_Annot** %342, i64 2
  %353 = getelementptr inbounds %class.CPDFSDK_Annot*, %class.CPDFSDK_Annot** %343, i64 2
  %354 = bitcast %class.CPDFSDK_Annot** %352 to i64*
  %355 = load i64, i64* %354, align 8
  %356 = bitcast %class.CPDFSDK_Annot** %353 to i64*
  store i64 %355, i64* %356, align 8
  %357 = getelementptr inbounds %class.CPDFSDK_Annot*, %class.CPDFSDK_Annot** %342, i64 3
  %358 = getelementptr inbounds %class.CPDFSDK_Annot*, %class.CPDFSDK_Annot** %343, i64 3
  %359 = bitcast %class.CPDFSDK_Annot** %357 to i64*
  %360 = load i64, i64* %359, align 8
  %361 = bitcast %class.CPDFSDK_Annot** %358 to i64*
  store i64 %360, i64* %361, align 8
  %362 = getelementptr inbounds %class.CPDFSDK_Annot*, %class.CPDFSDK_Annot** %342, i64 4
  %363 = getelementptr inbounds %class.CPDFSDK_Annot*, %class.CPDFSDK_Annot** %343, i64 4
  %364 = bitcast %class.CPDFSDK_Annot** %362 to i64*
  %365 = load i64, i64* %364, align 8
  %366 = bitcast %class.CPDFSDK_Annot** %363 to i64*
  store i64 %365, i64* %366, align 8
  %367 = getelementptr inbounds %class.CPDFSDK_Annot*, %class.CPDFSDK_Annot** %342, i64 5
  %368 = getelementptr inbounds %class.CPDFSDK_Annot*, %class.CPDFSDK_Annot** %343, i64 5
  %369 = bitcast %class.CPDFSDK_Annot** %367 to i64*
  %370 = load i64, i64* %369, align 8
  %371 = bitcast %class.CPDFSDK_Annot** %368 to i64*
  store i64 %370, i64* %371, align 8
  %372 = getelementptr inbounds %class.CPDFSDK_Annot*, %class.CPDFSDK_Annot** %342, i64 6
  %373 = getelementptr inbounds %class.CPDFSDK_Annot*, %class.CPDFSDK_Annot** %343, i64 6
  %374 = bitcast %class.CPDFSDK_Annot** %372 to i64*
  %375 = load i64, i64* %374, align 8
  %376 = bitcast %class.CPDFSDK_Annot** %373 to i64*
  store i64 %375, i64* %376, align 8
  %377 = getelementptr inbounds %class.CPDFSDK_Annot*, %class.CPDFSDK_Annot** %342, i64 7
  %378 = getelementptr inbounds %class.CPDFSDK_Annot*, %class.CPDFSDK_Annot** %343, i64 7
  %379 = bitcast %class.CPDFSDK_Annot** %377 to i64*
  %380 = load i64, i64* %379, align 8
  %381 = bitcast %class.CPDFSDK_Annot** %378 to i64*
  store i64 %380, i64* %381, align 8
  %382 = getelementptr inbounds %class.CPDFSDK_Annot*, %class.CPDFSDK_Annot** %342, i64 8
  %383 = getelementptr inbounds %class.CPDFSDK_Annot*, %class.CPDFSDK_Annot** %343, i64 8
  %384 = icmp eq %class.CPDFSDK_Annot** %382, %72
  br i1 %384, label %460, label %341, !llvm.loop !37

385:                                              ; preds = %205
  %386 = load %class.CPDFSDK_Annot*, %class.CPDFSDK_Annot** %207, align 8
  %387 = load %class.CPDFSDK_Annot*, %class.CPDFSDK_Annot** %206, align 8
  %388 = bitcast %class.CPDFSDK_Annot* %386 to i32 (%class.CPDFSDK_Annot*)***
  %389 = load i32 (%class.CPDFSDK_Annot*)**, i32 (%class.CPDFSDK_Annot*)*** %388, align 8
  %390 = getelementptr inbounds i32 (%class.CPDFSDK_Annot*)*, i32 (%class.CPDFSDK_Annot*)** %389, i64 4
  %391 = load i32 (%class.CPDFSDK_Annot*)*, i32 (%class.CPDFSDK_Annot*)** %390, align 8
  %392 = tail call i32 %391(%class.CPDFSDK_Annot* %386) #9
  %393 = bitcast %class.CPDFSDK_Annot* %387 to i32 (%class.CPDFSDK_Annot*)***
  %394 = load i32 (%class.CPDFSDK_Annot*)**, i32 (%class.CPDFSDK_Annot*)*** %393, align 8
  %395 = getelementptr inbounds i32 (%class.CPDFSDK_Annot*)*, i32 (%class.CPDFSDK_Annot*)** %394, i64 4
  %396 = load i32 (%class.CPDFSDK_Annot*)*, i32 (%class.CPDFSDK_Annot*)** %395, align 8
  %397 = tail call i32 %396(%class.CPDFSDK_Annot* %387) #9
  %398 = icmp slt i32 %392, %397
  br i1 %398, label %399, label %404

399:                                              ; preds = %385
  %400 = bitcast %class.CPDFSDK_Annot** %207 to i64*
  %401 = load i64, i64* %400, align 8
  %402 = bitcast %class.CPDFSDK_Annot** %208 to i64*
  store i64 %401, i64* %402, align 8
  %403 = getelementptr inbounds %class.CPDFSDK_Annot*, %class.CPDFSDK_Annot** %207, i64 1
  br label %409

404:                                              ; preds = %385
  %405 = bitcast %class.CPDFSDK_Annot** %206 to i64*
  %406 = load i64, i64* %405, align 8
  %407 = bitcast %class.CPDFSDK_Annot** %208 to i64*
  store i64 %406, i64* %407, align 8
  %408 = getelementptr inbounds %class.CPDFSDK_Annot*, %class.CPDFSDK_Annot** %206, i64 1
  br label %409

409:                                              ; preds = %404, %399
  %410 = phi %class.CPDFSDK_Annot** [ %403, %399 ], [ %207, %404 ]
  %411 = phi %class.CPDFSDK_Annot** [ %206, %399 ], [ %408, %404 ]
  %412 = getelementptr inbounds %class.CPDFSDK_Annot*, %class.CPDFSDK_Annot** %208, i64 1
  %413 = icmp eq %class.CPDFSDK_Annot** %411, %72
  br i1 %413, label %74, label %205

414:                                              ; preds = %108, %414
  %415 = phi %class.CPDFSDK_Annot** [ %455, %414 ], [ %109, %108 ]
  %416 = phi %class.CPDFSDK_Annot** [ %456, %414 ], [ %110, %108 ]
  %417 = bitcast %class.CPDFSDK_Annot** %415 to i64*
  %418 = load i64, i64* %417, align 8
  %419 = bitcast %class.CPDFSDK_Annot** %416 to i64*
  store i64 %418, i64* %419, align 8
  %420 = getelementptr inbounds %class.CPDFSDK_Annot*, %class.CPDFSDK_Annot** %415, i64 1
  %421 = getelementptr inbounds %class.CPDFSDK_Annot*, %class.CPDFSDK_Annot** %416, i64 1
  %422 = bitcast %class.CPDFSDK_Annot** %420 to i64*
  %423 = load i64, i64* %422, align 8
  %424 = bitcast %class.CPDFSDK_Annot** %421 to i64*
  store i64 %423, i64* %424, align 8
  %425 = getelementptr inbounds %class.CPDFSDK_Annot*, %class.CPDFSDK_Annot** %415, i64 2
  %426 = getelementptr inbounds %class.CPDFSDK_Annot*, %class.CPDFSDK_Annot** %416, i64 2
  %427 = bitcast %class.CPDFSDK_Annot** %425 to i64*
  %428 = load i64, i64* %427, align 8
  %429 = bitcast %class.CPDFSDK_Annot** %426 to i64*
  store i64 %428, i64* %429, align 8
  %430 = getelementptr inbounds %class.CPDFSDK_Annot*, %class.CPDFSDK_Annot** %415, i64 3
  %431 = getelementptr inbounds %class.CPDFSDK_Annot*, %class.CPDFSDK_Annot** %416, i64 3
  %432 = bitcast %class.CPDFSDK_Annot** %430 to i64*
  %433 = load i64, i64* %432, align 8
  %434 = bitcast %class.CPDFSDK_Annot** %431 to i64*
  store i64 %433, i64* %434, align 8
  %435 = getelementptr inbounds %class.CPDFSDK_Annot*, %class.CPDFSDK_Annot** %415, i64 4
  %436 = getelementptr inbounds %class.CPDFSDK_Annot*, %class.CPDFSDK_Annot** %416, i64 4
  %437 = bitcast %class.CPDFSDK_Annot** %435 to i64*
  %438 = load i64, i64* %437, align 8
  %439 = bitcast %class.CPDFSDK_Annot** %436 to i64*
  store i64 %438, i64* %439, align 8
  %440 = getelementptr inbounds %class.CPDFSDK_Annot*, %class.CPDFSDK_Annot** %415, i64 5
  %441 = getelementptr inbounds %class.CPDFSDK_Annot*, %class.CPDFSDK_Annot** %416, i64 5
  %442 = bitcast %class.CPDFSDK_Annot** %440 to i64*
  %443 = load i64, i64* %442, align 8
  %444 = bitcast %class.CPDFSDK_Annot** %441 to i64*
  store i64 %443, i64* %444, align 8
  %445 = getelementptr inbounds %class.CPDFSDK_Annot*, %class.CPDFSDK_Annot** %415, i64 6
  %446 = getelementptr inbounds %class.CPDFSDK_Annot*, %class.CPDFSDK_Annot** %416, i64 6
  %447 = bitcast %class.CPDFSDK_Annot** %445 to i64*
  %448 = load i64, i64* %447, align 8
  %449 = bitcast %class.CPDFSDK_Annot** %446 to i64*
  store i64 %448, i64* %449, align 8
  %450 = getelementptr inbounds %class.CPDFSDK_Annot*, %class.CPDFSDK_Annot** %415, i64 7
  %451 = getelementptr inbounds %class.CPDFSDK_Annot*, %class.CPDFSDK_Annot** %416, i64 7
  %452 = bitcast %class.CPDFSDK_Annot** %450 to i64*
  %453 = load i64, i64* %452, align 8
  %454 = bitcast %class.CPDFSDK_Annot** %451 to i64*
  store i64 %453, i64* %454, align 8
  %455 = getelementptr inbounds %class.CPDFSDK_Annot*, %class.CPDFSDK_Annot** %415, i64 8
  %456 = getelementptr inbounds %class.CPDFSDK_Annot*, %class.CPDFSDK_Annot** %416, i64 8
  %457 = icmp eq %class.CPDFSDK_Annot** %455, %73
  br i1 %457, label %460, label %414, !llvm.loop !38

458:                                              ; preds = %66
  tail call fastcc void @"_ZNSt3__113__stable_sortIRZN22CPDFSDK_AnnotIterationC1EP16CPDFSDK_PageViewbE3$_0NS_11__wrap_iterIPP13CPDFSDK_AnnotEEEEvT0_SB_T_NS_15iterator_traitsISB_E15difference_typeEPNSE_10value_typeEl"(%class.CPDFSDK_Annot** %0, %class.CPDFSDK_Annot** %68, %class.anon* dereferenceable(1) %2, i64 %67, %class.CPDFSDK_Annot** %4, i64 %5)
  %459 = sub nsw i64 %3, %67
  tail call fastcc void @"_ZNSt3__113__stable_sortIRZN22CPDFSDK_AnnotIterationC1EP16CPDFSDK_PageViewbE3$_0NS_11__wrap_iterIPP13CPDFSDK_AnnotEEEEvT0_SB_T_NS_15iterator_traitsISB_E15difference_typeEPNSE_10value_typeEl"(%class.CPDFSDK_Annot** %68, %class.CPDFSDK_Annot** %1, %class.anon* dereferenceable(1) %2, i64 %459, %class.CPDFSDK_Annot** %4, i64 %5)
  tail call fastcc void @"_ZNSt3__115__inplace_mergeIRZN22CPDFSDK_AnnotIterationC1EP16CPDFSDK_PageViewbE3$_0NS_11__wrap_iterIPP13CPDFSDK_AnnotEEEEvT0_SB_SB_T_NS_15iterator_traitsISB_E15difference_typeESF_PNSE_10value_typeEl"(%class.CPDFSDK_Annot** %0, %class.CPDFSDK_Annot** %68, %class.CPDFSDK_Annot** %1, %class.anon* dereferenceable(1) %2, i64 %67, i64 %459, %class.CPDFSDK_Annot** %4, i64 %5)
  ret void

460:                                              ; preds = %108, %414, %337, %341, %56, %203, %312, %210, %74, %31, %29, %7, %22, %6, %6
  ret void
}

; Function Attrs: nobuiltin nofree nounwind
declare noalias i8* @_ZnwmRKSt9nothrow_t(i64, %"struct.std::nothrow_t"* dereferenceable(1)) local_unnamed_addr #7

; Function Attrs: nounwind ssp uwtable
define internal fastcc void @"_ZNSt3__118__stable_sort_moveIRZN22CPDFSDK_AnnotIterationC1EP16CPDFSDK_PageViewbE3$_0NS_11__wrap_iterIPP13CPDFSDK_AnnotEEEEvT0_SB_T_NS_15iterator_traitsISB_E15difference_typeEPNSE_10value_typeE"(%class.CPDFSDK_Annot**, %class.CPDFSDK_Annot**, %class.anon* dereferenceable(1), i64, %class.CPDFSDK_Annot**) unnamed_addr #0 {
  switch i64 %3, label %41 [
    i64 0, label %500
    i64 1, label %6
    i64 2, label %10
  ]

6:                                                ; preds = %5
  %7 = bitcast %class.CPDFSDK_Annot** %0 to i64*
  %8 = load i64, i64* %7, align 8
  %9 = bitcast %class.CPDFSDK_Annot** %4 to i64*
  store i64 %8, i64* %9, align 8
  br label %500

10:                                               ; preds = %5
  %11 = getelementptr inbounds %class.CPDFSDK_Annot*, %class.CPDFSDK_Annot** %1, i64 -1
  %12 = load %class.CPDFSDK_Annot*, %class.CPDFSDK_Annot** %11, align 8
  %13 = load %class.CPDFSDK_Annot*, %class.CPDFSDK_Annot** %0, align 8
  %14 = bitcast %class.CPDFSDK_Annot* %12 to i32 (%class.CPDFSDK_Annot*)***
  %15 = load i32 (%class.CPDFSDK_Annot*)**, i32 (%class.CPDFSDK_Annot*)*** %14, align 8
  %16 = getelementptr inbounds i32 (%class.CPDFSDK_Annot*)*, i32 (%class.CPDFSDK_Annot*)** %15, i64 4
  %17 = load i32 (%class.CPDFSDK_Annot*)*, i32 (%class.CPDFSDK_Annot*)** %16, align 8
  %18 = tail call i32 %17(%class.CPDFSDK_Annot* %12) #9
  %19 = bitcast %class.CPDFSDK_Annot* %13 to i32 (%class.CPDFSDK_Annot*)***
  %20 = load i32 (%class.CPDFSDK_Annot*)**, i32 (%class.CPDFSDK_Annot*)*** %19, align 8
  %21 = getelementptr inbounds i32 (%class.CPDFSDK_Annot*)*, i32 (%class.CPDFSDK_Annot*)** %20, i64 4
  %22 = load i32 (%class.CPDFSDK_Annot*)*, i32 (%class.CPDFSDK_Annot*)** %21, align 8
  %23 = tail call i32 %22(%class.CPDFSDK_Annot* %13) #9
  %24 = icmp slt i32 %18, %23
  br i1 %24, label %25, label %33

25:                                               ; preds = %10
  %26 = bitcast %class.CPDFSDK_Annot** %11 to i64*
  %27 = load i64, i64* %26, align 8
  %28 = bitcast %class.CPDFSDK_Annot** %4 to i64*
  store i64 %27, i64* %28, align 8
  %29 = getelementptr inbounds %class.CPDFSDK_Annot*, %class.CPDFSDK_Annot** %4, i64 1
  %30 = bitcast %class.CPDFSDK_Annot** %0 to i64*
  %31 = load i64, i64* %30, align 8
  %32 = bitcast %class.CPDFSDK_Annot** %29 to i64*
  store i64 %31, i64* %32, align 8
  br label %500

33:                                               ; preds = %10
  %34 = bitcast %class.CPDFSDK_Annot** %0 to i64*
  %35 = load i64, i64* %34, align 8
  %36 = bitcast %class.CPDFSDK_Annot** %4 to i64*
  store i64 %35, i64* %36, align 8
  %37 = getelementptr inbounds %class.CPDFSDK_Annot*, %class.CPDFSDK_Annot** %4, i64 1
  %38 = bitcast %class.CPDFSDK_Annot** %11 to i64*
  %39 = load i64, i64* %38, align 8
  %40 = bitcast %class.CPDFSDK_Annot** %37 to i64*
  store i64 %39, i64* %40, align 8
  br label %500

41:                                               ; preds = %5
  %42 = icmp slt i64 %3, 9
  br i1 %42, label %43, label %111

43:                                               ; preds = %41
  %44 = icmp eq %class.CPDFSDK_Annot** %0, %1
  br i1 %44, label %500, label %45

45:                                               ; preds = %43
  %46 = bitcast %class.CPDFSDK_Annot** %0 to i64*
  %47 = load i64, i64* %46, align 8
  %48 = bitcast %class.CPDFSDK_Annot** %4 to i64*
  store i64 %47, i64* %48, align 8
  %49 = getelementptr inbounds %class.CPDFSDK_Annot*, %class.CPDFSDK_Annot** %0, i64 1
  %50 = icmp eq %class.CPDFSDK_Annot** %49, %1
  br i1 %50, label %500, label %51

51:                                               ; preds = %45
  %52 = inttoptr i64 %47 to %class.CPDFSDK_Annot*
  br label %53

53:                                               ; preds = %109, %51
  %54 = phi %class.CPDFSDK_Annot* [ %110, %109 ], [ %52, %51 ]
  %55 = phi %class.CPDFSDK_Annot** [ %107, %109 ], [ %49, %51 ]
  %56 = phi %class.CPDFSDK_Annot** [ %57, %109 ], [ %4, %51 ]
  %57 = getelementptr inbounds %class.CPDFSDK_Annot*, %class.CPDFSDK_Annot** %56, i64 1
  %58 = load %class.CPDFSDK_Annot*, %class.CPDFSDK_Annot** %55, align 8
  %59 = bitcast %class.CPDFSDK_Annot* %58 to i32 (%class.CPDFSDK_Annot*)***
  %60 = load i32 (%class.CPDFSDK_Annot*)**, i32 (%class.CPDFSDK_Annot*)*** %59, align 8
  %61 = getelementptr inbounds i32 (%class.CPDFSDK_Annot*)*, i32 (%class.CPDFSDK_Annot*)** %60, i64 4
  %62 = load i32 (%class.CPDFSDK_Annot*)*, i32 (%class.CPDFSDK_Annot*)** %61, align 8
  %63 = tail call i32 %62(%class.CPDFSDK_Annot* %58) #9
  %64 = bitcast %class.CPDFSDK_Annot* %54 to i32 (%class.CPDFSDK_Annot*)***
  %65 = load i32 (%class.CPDFSDK_Annot*)**, i32 (%class.CPDFSDK_Annot*)*** %64, align 8
  %66 = getelementptr inbounds i32 (%class.CPDFSDK_Annot*)*, i32 (%class.CPDFSDK_Annot*)** %65, i64 4
  %67 = load i32 (%class.CPDFSDK_Annot*)*, i32 (%class.CPDFSDK_Annot*)** %66, align 8
  %68 = tail call i32 %67(%class.CPDFSDK_Annot* %54) #9
  %69 = icmp slt i32 %63, %68
  br i1 %69, label %70, label %102

70:                                               ; preds = %53
  %71 = bitcast %class.CPDFSDK_Annot** %56 to i64*
  %72 = load i64, i64* %71, align 8
  %73 = bitcast %class.CPDFSDK_Annot** %57 to i64*
  store i64 %72, i64* %73, align 8
  %74 = icmp eq %class.CPDFSDK_Annot** %56, %4
  br i1 %74, label %98, label %75

75:                                               ; preds = %70, %93
  %76 = phi %class.CPDFSDK_Annot** [ %78, %93 ], [ %56, %70 ]
  %77 = load %class.CPDFSDK_Annot*, %class.CPDFSDK_Annot** %55, align 8
  %78 = getelementptr inbounds %class.CPDFSDK_Annot*, %class.CPDFSDK_Annot** %76, i64 -1
  %79 = load %class.CPDFSDK_Annot*, %class.CPDFSDK_Annot** %78, align 8
  %80 = bitcast %class.CPDFSDK_Annot* %77 to i32 (%class.CPDFSDK_Annot*)***
  %81 = load i32 (%class.CPDFSDK_Annot*)**, i32 (%class.CPDFSDK_Annot*)*** %80, align 8
  %82 = getelementptr inbounds i32 (%class.CPDFSDK_Annot*)*, i32 (%class.CPDFSDK_Annot*)** %81, i64 4
  %83 = load i32 (%class.CPDFSDK_Annot*)*, i32 (%class.CPDFSDK_Annot*)** %82, align 8
  %84 = tail call i32 %83(%class.CPDFSDK_Annot* %77) #9
  %85 = bitcast %class.CPDFSDK_Annot* %79 to i32 (%class.CPDFSDK_Annot*)***
  %86 = load i32 (%class.CPDFSDK_Annot*)**, i32 (%class.CPDFSDK_Annot*)*** %85, align 8
  %87 = getelementptr inbounds i32 (%class.CPDFSDK_Annot*)*, i32 (%class.CPDFSDK_Annot*)** %86, i64 4
  %88 = load i32 (%class.CPDFSDK_Annot*)*, i32 (%class.CPDFSDK_Annot*)** %87, align 8
  %89 = tail call i32 %88(%class.CPDFSDK_Annot* %79) #9
  %90 = icmp slt i32 %84, %89
  br i1 %90, label %93, label %91

91:                                               ; preds = %75
  %92 = bitcast %class.CPDFSDK_Annot** %76 to i64*
  br label %98

93:                                               ; preds = %75
  %94 = bitcast %class.CPDFSDK_Annot** %78 to i64*
  %95 = load i64, i64* %94, align 8
  %96 = bitcast %class.CPDFSDK_Annot** %76 to i64*
  store i64 %95, i64* %96, align 8
  %97 = icmp eq %class.CPDFSDK_Annot** %78, %4
  br i1 %97, label %98, label %75

98:                                               ; preds = %93, %91, %70
  %99 = phi i64* [ %48, %70 ], [ %92, %91 ], [ %48, %93 ]
  %100 = bitcast %class.CPDFSDK_Annot** %55 to i64*
  %101 = load i64, i64* %100, align 8
  store i64 %101, i64* %99, align 8
  br label %106

102:                                              ; preds = %53
  %103 = bitcast %class.CPDFSDK_Annot** %55 to i64*
  %104 = load i64, i64* %103, align 8
  %105 = bitcast %class.CPDFSDK_Annot** %57 to i64*
  store i64 %104, i64* %105, align 8
  br label %106

106:                                              ; preds = %102, %98
  %107 = getelementptr inbounds %class.CPDFSDK_Annot*, %class.CPDFSDK_Annot** %55, i64 1
  %108 = icmp eq %class.CPDFSDK_Annot** %107, %1
  br i1 %108, label %500, label %109

109:                                              ; preds = %106
  %110 = load %class.CPDFSDK_Annot*, %class.CPDFSDK_Annot** %57, align 8
  br label %53

111:                                              ; preds = %41
  %112 = lshr i64 %3, 1
  %113 = getelementptr inbounds %class.CPDFSDK_Annot*, %class.CPDFSDK_Annot** %0, i64 %112
  tail call fastcc void @"_ZNSt3__113__stable_sortIRZN22CPDFSDK_AnnotIterationC1EP16CPDFSDK_PageViewbE3$_0NS_11__wrap_iterIPP13CPDFSDK_AnnotEEEEvT0_SB_T_NS_15iterator_traitsISB_E15difference_typeEPNSE_10value_typeEl"(%class.CPDFSDK_Annot** %0, %class.CPDFSDK_Annot** %113, %class.anon* dereferenceable(1) %2, i64 %112, %class.CPDFSDK_Annot** %4, i64 %112)
  %114 = sub nsw i64 %3, %112
  %115 = getelementptr inbounds %class.CPDFSDK_Annot*, %class.CPDFSDK_Annot** %4, i64 %112
  tail call fastcc void @"_ZNSt3__113__stable_sortIRZN22CPDFSDK_AnnotIterationC1EP16CPDFSDK_PageViewbE3$_0NS_11__wrap_iterIPP13CPDFSDK_AnnotEEEEvT0_SB_T_NS_15iterator_traitsISB_E15difference_typeEPNSE_10value_typeEl"(%class.CPDFSDK_Annot** %113, %class.CPDFSDK_Annot** %1, %class.anon* dereferenceable(1) %2, i64 %114, %class.CPDFSDK_Annot** %115, i64 %114)
  %116 = icmp eq i64 %112, 0
  br i1 %116, label %117, label %291

117:                                              ; preds = %495, %111
  %118 = phi %class.CPDFSDK_Annot** [ %113, %111 ], [ %496, %495 ]
  %119 = phi %class.CPDFSDK_Annot** [ %4, %111 ], [ %498, %495 ]
  %120 = ptrtoint %class.CPDFSDK_Annot** %118 to i64
  %121 = icmp eq %class.CPDFSDK_Annot** %118, %1
  br i1 %121, label %500, label %122

122:                                              ; preds = %117
  %123 = getelementptr %class.CPDFSDK_Annot*, %class.CPDFSDK_Annot** %1, i64 -1
  %124 = ptrtoint %class.CPDFSDK_Annot** %123 to i64
  %125 = sub i64 %124, %120
  %126 = lshr i64 %125, 3
  %127 = add nuw nsw i64 %126, 1
  %128 = icmp ult i64 %127, 4
  br i1 %128, label %221, label %129

129:                                              ; preds = %122
  %130 = getelementptr %class.CPDFSDK_Annot*, %class.CPDFSDK_Annot** %1, i64 -1
  %131 = ptrtoint %class.CPDFSDK_Annot** %130 to i64
  %132 = sub i64 %131, %120
  %133 = lshr i64 %132, 3
  %134 = add nuw nsw i64 %133, 1
  %135 = getelementptr %class.CPDFSDK_Annot*, %class.CPDFSDK_Annot** %119, i64 %134
  %136 = getelementptr %class.CPDFSDK_Annot*, %class.CPDFSDK_Annot** %118, i64 %134
  %137 = icmp ult %class.CPDFSDK_Annot** %119, %136
  %138 = icmp ult %class.CPDFSDK_Annot** %118, %135
  %139 = and i1 %137, %138
  br i1 %139, label %221, label %140

140:                                              ; preds = %129
  %141 = and i64 %127, 4611686018427387900
  %142 = getelementptr %class.CPDFSDK_Annot*, %class.CPDFSDK_Annot** %119, i64 %141
  %143 = getelementptr %class.CPDFSDK_Annot*, %class.CPDFSDK_Annot** %118, i64 %141
  %144 = add nsw i64 %141, -4
  %145 = lshr exact i64 %144, 2
  %146 = add nuw nsw i64 %145, 1
  %147 = and i64 %146, 3
  %148 = icmp ult i64 %144, 12
  br i1 %148, label %200, label %149

149:                                              ; preds = %140
  %150 = sub nsw i64 %146, %147
  br label %151

151:                                              ; preds = %151, %149
  %152 = phi i64 [ 0, %149 ], [ %197, %151 ]
  %153 = phi i64 [ %150, %149 ], [ %198, %151 ]
  %154 = getelementptr %class.CPDFSDK_Annot*, %class.CPDFSDK_Annot** %119, i64 %152
  %155 = getelementptr %class.CPDFSDK_Annot*, %class.CPDFSDK_Annot** %118, i64 %152
  %156 = bitcast %class.CPDFSDK_Annot** %155 to <2 x i64>*
  %157 = load <2 x i64>, <2 x i64>* %156, align 8, !alias.scope !39
  %158 = getelementptr %class.CPDFSDK_Annot*, %class.CPDFSDK_Annot** %155, i64 2
  %159 = bitcast %class.CPDFSDK_Annot** %158 to <2 x i64>*
  %160 = load <2 x i64>, <2 x i64>* %159, align 8, !alias.scope !39
  %161 = bitcast %class.CPDFSDK_Annot** %154 to <2 x i64>*
  store <2 x i64> %157, <2 x i64>* %161, align 8, !alias.scope !42, !noalias !39
  %162 = getelementptr %class.CPDFSDK_Annot*, %class.CPDFSDK_Annot** %154, i64 2
  %163 = bitcast %class.CPDFSDK_Annot** %162 to <2 x i64>*
  store <2 x i64> %160, <2 x i64>* %163, align 8, !alias.scope !42, !noalias !39
  %164 = or i64 %152, 4
  %165 = getelementptr %class.CPDFSDK_Annot*, %class.CPDFSDK_Annot** %119, i64 %164
  %166 = getelementptr %class.CPDFSDK_Annot*, %class.CPDFSDK_Annot** %118, i64 %164
  %167 = bitcast %class.CPDFSDK_Annot** %166 to <2 x i64>*
  %168 = load <2 x i64>, <2 x i64>* %167, align 8, !alias.scope !39
  %169 = getelementptr %class.CPDFSDK_Annot*, %class.CPDFSDK_Annot** %166, i64 2
  %170 = bitcast %class.CPDFSDK_Annot** %169 to <2 x i64>*
  %171 = load <2 x i64>, <2 x i64>* %170, align 8, !alias.scope !39
  %172 = bitcast %class.CPDFSDK_Annot** %165 to <2 x i64>*
  store <2 x i64> %168, <2 x i64>* %172, align 8, !alias.scope !42, !noalias !39
  %173 = getelementptr %class.CPDFSDK_Annot*, %class.CPDFSDK_Annot** %165, i64 2
  %174 = bitcast %class.CPDFSDK_Annot** %173 to <2 x i64>*
  store <2 x i64> %171, <2 x i64>* %174, align 8, !alias.scope !42, !noalias !39
  %175 = or i64 %152, 8
  %176 = getelementptr %class.CPDFSDK_Annot*, %class.CPDFSDK_Annot** %119, i64 %175
  %177 = getelementptr %class.CPDFSDK_Annot*, %class.CPDFSDK_Annot** %118, i64 %175
  %178 = bitcast %class.CPDFSDK_Annot** %177 to <2 x i64>*
  %179 = load <2 x i64>, <2 x i64>* %178, align 8, !alias.scope !39
  %180 = getelementptr %class.CPDFSDK_Annot*, %class.CPDFSDK_Annot** %177, i64 2
  %181 = bitcast %class.CPDFSDK_Annot** %180 to <2 x i64>*
  %182 = load <2 x i64>, <2 x i64>* %181, align 8, !alias.scope !39
  %183 = bitcast %class.CPDFSDK_Annot** %176 to <2 x i64>*
  store <2 x i64> %179, <2 x i64>* %183, align 8, !alias.scope !42, !noalias !39
  %184 = getelementptr %class.CPDFSDK_Annot*, %class.CPDFSDK_Annot** %176, i64 2
  %185 = bitcast %class.CPDFSDK_Annot** %184 to <2 x i64>*
  store <2 x i64> %182, <2 x i64>* %185, align 8, !alias.scope !42, !noalias !39
  %186 = or i64 %152, 12
  %187 = getelementptr %class.CPDFSDK_Annot*, %class.CPDFSDK_Annot** %119, i64 %186
  %188 = getelementptr %class.CPDFSDK_Annot*, %class.CPDFSDK_Annot** %118, i64 %186
  %189 = bitcast %class.CPDFSDK_Annot** %188 to <2 x i64>*
  %190 = load <2 x i64>, <2 x i64>* %189, align 8, !alias.scope !39
  %191 = getelementptr %class.CPDFSDK_Annot*, %class.CPDFSDK_Annot** %188, i64 2
  %192 = bitcast %class.CPDFSDK_Annot** %191 to <2 x i64>*
  %193 = load <2 x i64>, <2 x i64>* %192, align 8, !alias.scope !39
  %194 = bitcast %class.CPDFSDK_Annot** %187 to <2 x i64>*
  store <2 x i64> %190, <2 x i64>* %194, align 8, !alias.scope !42, !noalias !39
  %195 = getelementptr %class.CPDFSDK_Annot*, %class.CPDFSDK_Annot** %187, i64 2
  %196 = bitcast %class.CPDFSDK_Annot** %195 to <2 x i64>*
  store <2 x i64> %193, <2 x i64>* %196, align 8, !alias.scope !42, !noalias !39
  %197 = add i64 %152, 16
  %198 = add i64 %153, -4
  %199 = icmp eq i64 %198, 0
  br i1 %199, label %200, label %151, !llvm.loop !44

200:                                              ; preds = %151, %140
  %201 = phi i64 [ 0, %140 ], [ %197, %151 ]
  %202 = icmp eq i64 %147, 0
  br i1 %202, label %219, label %203

203:                                              ; preds = %200, %203
  %204 = phi i64 [ %216, %203 ], [ %201, %200 ]
  %205 = phi i64 [ %217, %203 ], [ %147, %200 ]
  %206 = getelementptr %class.CPDFSDK_Annot*, %class.CPDFSDK_Annot** %119, i64 %204
  %207 = getelementptr %class.CPDFSDK_Annot*, %class.CPDFSDK_Annot** %118, i64 %204
  %208 = bitcast %class.CPDFSDK_Annot** %207 to <2 x i64>*
  %209 = load <2 x i64>, <2 x i64>* %208, align 8, !alias.scope !39
  %210 = getelementptr %class.CPDFSDK_Annot*, %class.CPDFSDK_Annot** %207, i64 2
  %211 = bitcast %class.CPDFSDK_Annot** %210 to <2 x i64>*
  %212 = load <2 x i64>, <2 x i64>* %211, align 8, !alias.scope !39
  %213 = bitcast %class.CPDFSDK_Annot** %206 to <2 x i64>*
  store <2 x i64> %209, <2 x i64>* %213, align 8, !alias.scope !42, !noalias !39
  %214 = getelementptr %class.CPDFSDK_Annot*, %class.CPDFSDK_Annot** %206, i64 2
  %215 = bitcast %class.CPDFSDK_Annot** %214 to <2 x i64>*
  store <2 x i64> %212, <2 x i64>* %215, align 8, !alias.scope !42, !noalias !39
  %216 = add i64 %204, 4
  %217 = add i64 %205, -1
  %218 = icmp eq i64 %217, 0
  br i1 %218, label %219, label %203, !llvm.loop !45

219:                                              ; preds = %203, %200
  %220 = icmp eq i64 %127, %141
  br i1 %220, label %500, label %221

221:                                              ; preds = %219, %129, %122
  %222 = phi %class.CPDFSDK_Annot** [ %119, %129 ], [ %119, %122 ], [ %142, %219 ]
  %223 = phi %class.CPDFSDK_Annot** [ %118, %129 ], [ %118, %122 ], [ %143, %219 ]
  %224 = ptrtoint %class.CPDFSDK_Annot** %223 to i64
  %225 = getelementptr %class.CPDFSDK_Annot*, %class.CPDFSDK_Annot** %1, i64 -1
  %226 = ptrtoint %class.CPDFSDK_Annot** %225 to i64
  %227 = sub i64 %226, %224
  %228 = lshr i64 %227, 3
  %229 = add nuw nsw i64 %228, 1
  %230 = and i64 %229, 7
  %231 = icmp eq i64 %230, 0
  br i1 %231, label %243, label %232

232:                                              ; preds = %221, %232
  %233 = phi %class.CPDFSDK_Annot** [ %240, %232 ], [ %222, %221 ]
  %234 = phi %class.CPDFSDK_Annot** [ %239, %232 ], [ %223, %221 ]
  %235 = phi i64 [ %241, %232 ], [ %230, %221 ]
  %236 = bitcast %class.CPDFSDK_Annot** %234 to i64*
  %237 = load i64, i64* %236, align 8
  %238 = bitcast %class.CPDFSDK_Annot** %233 to i64*
  store i64 %237, i64* %238, align 8
  %239 = getelementptr inbounds %class.CPDFSDK_Annot*, %class.CPDFSDK_Annot** %234, i64 1
  %240 = getelementptr inbounds %class.CPDFSDK_Annot*, %class.CPDFSDK_Annot** %233, i64 1
  %241 = add i64 %235, -1
  %242 = icmp eq i64 %241, 0
  br i1 %242, label %243, label %232, !llvm.loop !46

243:                                              ; preds = %232, %221
  %244 = phi %class.CPDFSDK_Annot** [ %222, %221 ], [ %240, %232 ]
  %245 = phi %class.CPDFSDK_Annot** [ %223, %221 ], [ %239, %232 ]
  %246 = icmp ult i64 %227, 56
  br i1 %246, label %500, label %247

247:                                              ; preds = %243, %247
  %248 = phi %class.CPDFSDK_Annot** [ %289, %247 ], [ %244, %243 ]
  %249 = phi %class.CPDFSDK_Annot** [ %288, %247 ], [ %245, %243 ]
  %250 = bitcast %class.CPDFSDK_Annot** %249 to i64*
  %251 = load i64, i64* %250, align 8
  %252 = bitcast %class.CPDFSDK_Annot** %248 to i64*
  store i64 %251, i64* %252, align 8
  %253 = getelementptr inbounds %class.CPDFSDK_Annot*, %class.CPDFSDK_Annot** %249, i64 1
  %254 = getelementptr inbounds %class.CPDFSDK_Annot*, %class.CPDFSDK_Annot** %248, i64 1
  %255 = bitcast %class.CPDFSDK_Annot** %253 to i64*
  %256 = load i64, i64* %255, align 8
  %257 = bitcast %class.CPDFSDK_Annot** %254 to i64*
  store i64 %256, i64* %257, align 8
  %258 = getelementptr inbounds %class.CPDFSDK_Annot*, %class.CPDFSDK_Annot** %249, i64 2
  %259 = getelementptr inbounds %class.CPDFSDK_Annot*, %class.CPDFSDK_Annot** %248, i64 2
  %260 = bitcast %class.CPDFSDK_Annot** %258 to i64*
  %261 = load i64, i64* %260, align 8
  %262 = bitcast %class.CPDFSDK_Annot** %259 to i64*
  store i64 %261, i64* %262, align 8
  %263 = getelementptr inbounds %class.CPDFSDK_Annot*, %class.CPDFSDK_Annot** %249, i64 3
  %264 = getelementptr inbounds %class.CPDFSDK_Annot*, %class.CPDFSDK_Annot** %248, i64 3
  %265 = bitcast %class.CPDFSDK_Annot** %263 to i64*
  %266 = load i64, i64* %265, align 8
  %267 = bitcast %class.CPDFSDK_Annot** %264 to i64*
  store i64 %266, i64* %267, align 8
  %268 = getelementptr inbounds %class.CPDFSDK_Annot*, %class.CPDFSDK_Annot** %249, i64 4
  %269 = getelementptr inbounds %class.CPDFSDK_Annot*, %class.CPDFSDK_Annot** %248, i64 4
  %270 = bitcast %class.CPDFSDK_Annot** %268 to i64*
  %271 = load i64, i64* %270, align 8
  %272 = bitcast %class.CPDFSDK_Annot** %269 to i64*
  store i64 %271, i64* %272, align 8
  %273 = getelementptr inbounds %class.CPDFSDK_Annot*, %class.CPDFSDK_Annot** %249, i64 5
  %274 = getelementptr inbounds %class.CPDFSDK_Annot*, %class.CPDFSDK_Annot** %248, i64 5
  %275 = bitcast %class.CPDFSDK_Annot** %273 to i64*
  %276 = load i64, i64* %275, align 8
  %277 = bitcast %class.CPDFSDK_Annot** %274 to i64*
  store i64 %276, i64* %277, align 8
  %278 = getelementptr inbounds %class.CPDFSDK_Annot*, %class.CPDFSDK_Annot** %249, i64 6
  %279 = getelementptr inbounds %class.CPDFSDK_Annot*, %class.CPDFSDK_Annot** %248, i64 6
  %280 = bitcast %class.CPDFSDK_Annot** %278 to i64*
  %281 = load i64, i64* %280, align 8
  %282 = bitcast %class.CPDFSDK_Annot** %279 to i64*
  store i64 %281, i64* %282, align 8
  %283 = getelementptr inbounds %class.CPDFSDK_Annot*, %class.CPDFSDK_Annot** %249, i64 7
  %284 = getelementptr inbounds %class.CPDFSDK_Annot*, %class.CPDFSDK_Annot** %248, i64 7
  %285 = bitcast %class.CPDFSDK_Annot** %283 to i64*
  %286 = load i64, i64* %285, align 8
  %287 = bitcast %class.CPDFSDK_Annot** %284 to i64*
  store i64 %286, i64* %287, align 8
  %288 = getelementptr inbounds %class.CPDFSDK_Annot*, %class.CPDFSDK_Annot** %249, i64 8
  %289 = getelementptr inbounds %class.CPDFSDK_Annot*, %class.CPDFSDK_Annot** %248, i64 8
  %290 = icmp eq %class.CPDFSDK_Annot** %288, %1
  br i1 %290, label %500, label %247, !llvm.loop !47

291:                                              ; preds = %111, %495
  %292 = phi %class.CPDFSDK_Annot** [ %498, %495 ], [ %4, %111 ]
  %293 = phi %class.CPDFSDK_Annot** [ %497, %495 ], [ %0, %111 ]
  %294 = phi %class.CPDFSDK_Annot** [ %496, %495 ], [ %113, %111 ]
  %295 = icmp eq %class.CPDFSDK_Annot** %294, %1
  br i1 %295, label %296, label %471

296:                                              ; preds = %291
  %297 = ptrtoint %class.CPDFSDK_Annot** %293 to i64
  %298 = icmp eq %class.CPDFSDK_Annot** %293, %113
  br i1 %298, label %500, label %299

299:                                              ; preds = %296
  %300 = add nsw i64 %112, -1
  %301 = getelementptr %class.CPDFSDK_Annot*, %class.CPDFSDK_Annot** %0, i64 %300
  %302 = ptrtoint %class.CPDFSDK_Annot** %301 to i64
  %303 = sub i64 %302, %297
  %304 = lshr i64 %303, 3
  %305 = add nuw nsw i64 %304, 1
  %306 = icmp ult i64 %305, 4
  br i1 %306, label %400, label %307

307:                                              ; preds = %299
  %308 = add nsw i64 %112, -1
  %309 = getelementptr %class.CPDFSDK_Annot*, %class.CPDFSDK_Annot** %0, i64 %308
  %310 = ptrtoint %class.CPDFSDK_Annot** %309 to i64
  %311 = sub i64 %310, %297
  %312 = lshr i64 %311, 3
  %313 = add nuw nsw i64 %312, 1
  %314 = getelementptr %class.CPDFSDK_Annot*, %class.CPDFSDK_Annot** %292, i64 %313
  %315 = getelementptr %class.CPDFSDK_Annot*, %class.CPDFSDK_Annot** %293, i64 %313
  %316 = icmp ult %class.CPDFSDK_Annot** %292, %315
  %317 = icmp ult %class.CPDFSDK_Annot** %293, %314
  %318 = and i1 %316, %317
  br i1 %318, label %400, label %319

319:                                              ; preds = %307
  %320 = and i64 %305, 4611686018427387900
  %321 = getelementptr %class.CPDFSDK_Annot*, %class.CPDFSDK_Annot** %292, i64 %320
  %322 = getelementptr %class.CPDFSDK_Annot*, %class.CPDFSDK_Annot** %293, i64 %320
  %323 = add nsw i64 %320, -4
  %324 = lshr exact i64 %323, 2
  %325 = add nuw nsw i64 %324, 1
  %326 = and i64 %325, 3
  %327 = icmp ult i64 %323, 12
  br i1 %327, label %379, label %328

328:                                              ; preds = %319
  %329 = sub nsw i64 %325, %326
  br label %330

330:                                              ; preds = %330, %328
  %331 = phi i64 [ 0, %328 ], [ %376, %330 ]
  %332 = phi i64 [ %329, %328 ], [ %377, %330 ]
  %333 = getelementptr %class.CPDFSDK_Annot*, %class.CPDFSDK_Annot** %292, i64 %331
  %334 = getelementptr %class.CPDFSDK_Annot*, %class.CPDFSDK_Annot** %293, i64 %331
  %335 = bitcast %class.CPDFSDK_Annot** %334 to <2 x i64>*
  %336 = load <2 x i64>, <2 x i64>* %335, align 8, !alias.scope !48
  %337 = getelementptr %class.CPDFSDK_Annot*, %class.CPDFSDK_Annot** %334, i64 2
  %338 = bitcast %class.CPDFSDK_Annot** %337 to <2 x i64>*
  %339 = load <2 x i64>, <2 x i64>* %338, align 8, !alias.scope !48
  %340 = bitcast %class.CPDFSDK_Annot** %333 to <2 x i64>*
  store <2 x i64> %336, <2 x i64>* %340, align 8, !alias.scope !51, !noalias !48
  %341 = getelementptr %class.CPDFSDK_Annot*, %class.CPDFSDK_Annot** %333, i64 2
  %342 = bitcast %class.CPDFSDK_Annot** %341 to <2 x i64>*
  store <2 x i64> %339, <2 x i64>* %342, align 8, !alias.scope !51, !noalias !48
  %343 = or i64 %331, 4
  %344 = getelementptr %class.CPDFSDK_Annot*, %class.CPDFSDK_Annot** %292, i64 %343
  %345 = getelementptr %class.CPDFSDK_Annot*, %class.CPDFSDK_Annot** %293, i64 %343
  %346 = bitcast %class.CPDFSDK_Annot** %345 to <2 x i64>*
  %347 = load <2 x i64>, <2 x i64>* %346, align 8, !alias.scope !48
  %348 = getelementptr %class.CPDFSDK_Annot*, %class.CPDFSDK_Annot** %345, i64 2
  %349 = bitcast %class.CPDFSDK_Annot** %348 to <2 x i64>*
  %350 = load <2 x i64>, <2 x i64>* %349, align 8, !alias.scope !48
  %351 = bitcast %class.CPDFSDK_Annot** %344 to <2 x i64>*
  store <2 x i64> %347, <2 x i64>* %351, align 8, !alias.scope !51, !noalias !48
  %352 = getelementptr %class.CPDFSDK_Annot*, %class.CPDFSDK_Annot** %344, i64 2
  %353 = bitcast %class.CPDFSDK_Annot** %352 to <2 x i64>*
  store <2 x i64> %350, <2 x i64>* %353, align 8, !alias.scope !51, !noalias !48
  %354 = or i64 %331, 8
  %355 = getelementptr %class.CPDFSDK_Annot*, %class.CPDFSDK_Annot** %292, i64 %354
  %356 = getelementptr %class.CPDFSDK_Annot*, %class.CPDFSDK_Annot** %293, i64 %354
  %357 = bitcast %class.CPDFSDK_Annot** %356 to <2 x i64>*
  %358 = load <2 x i64>, <2 x i64>* %357, align 8, !alias.scope !48
  %359 = getelementptr %class.CPDFSDK_Annot*, %class.CPDFSDK_Annot** %356, i64 2
  %360 = bitcast %class.CPDFSDK_Annot** %359 to <2 x i64>*
  %361 = load <2 x i64>, <2 x i64>* %360, align 8, !alias.scope !48
  %362 = bitcast %class.CPDFSDK_Annot** %355 to <2 x i64>*
  store <2 x i64> %358, <2 x i64>* %362, align 8, !alias.scope !51, !noalias !48
  %363 = getelementptr %class.CPDFSDK_Annot*, %class.CPDFSDK_Annot** %355, i64 2
  %364 = bitcast %class.CPDFSDK_Annot** %363 to <2 x i64>*
  store <2 x i64> %361, <2 x i64>* %364, align 8, !alias.scope !51, !noalias !48
  %365 = or i64 %331, 12
  %366 = getelementptr %class.CPDFSDK_Annot*, %class.CPDFSDK_Annot** %292, i64 %365
  %367 = getelementptr %class.CPDFSDK_Annot*, %class.CPDFSDK_Annot** %293, i64 %365
  %368 = bitcast %class.CPDFSDK_Annot** %367 to <2 x i64>*
  %369 = load <2 x i64>, <2 x i64>* %368, align 8, !alias.scope !48
  %370 = getelementptr %class.CPDFSDK_Annot*, %class.CPDFSDK_Annot** %367, i64 2
  %371 = bitcast %class.CPDFSDK_Annot** %370 to <2 x i64>*
  %372 = load <2 x i64>, <2 x i64>* %371, align 8, !alias.scope !48
  %373 = bitcast %class.CPDFSDK_Annot** %366 to <2 x i64>*
  store <2 x i64> %369, <2 x i64>* %373, align 8, !alias.scope !51, !noalias !48
  %374 = getelementptr %class.CPDFSDK_Annot*, %class.CPDFSDK_Annot** %366, i64 2
  %375 = bitcast %class.CPDFSDK_Annot** %374 to <2 x i64>*
  store <2 x i64> %372, <2 x i64>* %375, align 8, !alias.scope !51, !noalias !48
  %376 = add i64 %331, 16
  %377 = add i64 %332, -4
  %378 = icmp eq i64 %377, 0
  br i1 %378, label %379, label %330, !llvm.loop !53

379:                                              ; preds = %330, %319
  %380 = phi i64 [ 0, %319 ], [ %376, %330 ]
  %381 = icmp eq i64 %326, 0
  br i1 %381, label %398, label %382

382:                                              ; preds = %379, %382
  %383 = phi i64 [ %395, %382 ], [ %380, %379 ]
  %384 = phi i64 [ %396, %382 ], [ %326, %379 ]
  %385 = getelementptr %class.CPDFSDK_Annot*, %class.CPDFSDK_Annot** %292, i64 %383
  %386 = getelementptr %class.CPDFSDK_Annot*, %class.CPDFSDK_Annot** %293, i64 %383
  %387 = bitcast %class.CPDFSDK_Annot** %386 to <2 x i64>*
  %388 = load <2 x i64>, <2 x i64>* %387, align 8, !alias.scope !48
  %389 = getelementptr %class.CPDFSDK_Annot*, %class.CPDFSDK_Annot** %386, i64 2
  %390 = bitcast %class.CPDFSDK_Annot** %389 to <2 x i64>*
  %391 = load <2 x i64>, <2 x i64>* %390, align 8, !alias.scope !48
  %392 = bitcast %class.CPDFSDK_Annot** %385 to <2 x i64>*
  store <2 x i64> %388, <2 x i64>* %392, align 8, !alias.scope !51, !noalias !48
  %393 = getelementptr %class.CPDFSDK_Annot*, %class.CPDFSDK_Annot** %385, i64 2
  %394 = bitcast %class.CPDFSDK_Annot** %393 to <2 x i64>*
  store <2 x i64> %391, <2 x i64>* %394, align 8, !alias.scope !51, !noalias !48
  %395 = add i64 %383, 4
  %396 = add i64 %384, -1
  %397 = icmp eq i64 %396, 0
  br i1 %397, label %398, label %382, !llvm.loop !54

398:                                              ; preds = %382, %379
  %399 = icmp eq i64 %305, %320
  br i1 %399, label %500, label %400

400:                                              ; preds = %398, %307, %299
  %401 = phi %class.CPDFSDK_Annot** [ %292, %307 ], [ %292, %299 ], [ %321, %398 ]
  %402 = phi %class.CPDFSDK_Annot** [ %293, %307 ], [ %293, %299 ], [ %322, %398 ]
  %403 = ptrtoint %class.CPDFSDK_Annot** %402 to i64
  %404 = add nsw i64 %112, -1
  %405 = getelementptr %class.CPDFSDK_Annot*, %class.CPDFSDK_Annot** %0, i64 %404
  %406 = ptrtoint %class.CPDFSDK_Annot** %405 to i64
  %407 = sub i64 %406, %403
  %408 = lshr i64 %407, 3
  %409 = add nuw nsw i64 %408, 1
  %410 = and i64 %409, 7
  %411 = icmp eq i64 %410, 0
  br i1 %411, label %423, label %412

412:                                              ; preds = %400, %412
  %413 = phi %class.CPDFSDK_Annot** [ %420, %412 ], [ %401, %400 ]
  %414 = phi %class.CPDFSDK_Annot** [ %419, %412 ], [ %402, %400 ]
  %415 = phi i64 [ %421, %412 ], [ %410, %400 ]
  %416 = bitcast %class.CPDFSDK_Annot** %414 to i64*
  %417 = load i64, i64* %416, align 8
  %418 = bitcast %class.CPDFSDK_Annot** %413 to i64*
  store i64 %417, i64* %418, align 8
  %419 = getelementptr inbounds %class.CPDFSDK_Annot*, %class.CPDFSDK_Annot** %414, i64 1
  %420 = getelementptr inbounds %class.CPDFSDK_Annot*, %class.CPDFSDK_Annot** %413, i64 1
  %421 = add i64 %415, -1
  %422 = icmp eq i64 %421, 0
  br i1 %422, label %423, label %412, !llvm.loop !55

423:                                              ; preds = %412, %400
  %424 = phi %class.CPDFSDK_Annot** [ %401, %400 ], [ %420, %412 ]
  %425 = phi %class.CPDFSDK_Annot** [ %402, %400 ], [ %419, %412 ]
  %426 = icmp ult i64 %407, 56
  br i1 %426, label %500, label %427

427:                                              ; preds = %423, %427
  %428 = phi %class.CPDFSDK_Annot** [ %469, %427 ], [ %424, %423 ]
  %429 = phi %class.CPDFSDK_Annot** [ %468, %427 ], [ %425, %423 ]
  %430 = bitcast %class.CPDFSDK_Annot** %429 to i64*
  %431 = load i64, i64* %430, align 8
  %432 = bitcast %class.CPDFSDK_Annot** %428 to i64*
  store i64 %431, i64* %432, align 8
  %433 = getelementptr inbounds %class.CPDFSDK_Annot*, %class.CPDFSDK_Annot** %429, i64 1
  %434 = getelementptr inbounds %class.CPDFSDK_Annot*, %class.CPDFSDK_Annot** %428, i64 1
  %435 = bitcast %class.CPDFSDK_Annot** %433 to i64*
  %436 = load i64, i64* %435, align 8
  %437 = bitcast %class.CPDFSDK_Annot** %434 to i64*
  store i64 %436, i64* %437, align 8
  %438 = getelementptr inbounds %class.CPDFSDK_Annot*, %class.CPDFSDK_Annot** %429, i64 2
  %439 = getelementptr inbounds %class.CPDFSDK_Annot*, %class.CPDFSDK_Annot** %428, i64 2
  %440 = bitcast %class.CPDFSDK_Annot** %438 to i64*
  %441 = load i64, i64* %440, align 8
  %442 = bitcast %class.CPDFSDK_Annot** %439 to i64*
  store i64 %441, i64* %442, align 8
  %443 = getelementptr inbounds %class.CPDFSDK_Annot*, %class.CPDFSDK_Annot** %429, i64 3
  %444 = getelementptr inbounds %class.CPDFSDK_Annot*, %class.CPDFSDK_Annot** %428, i64 3
  %445 = bitcast %class.CPDFSDK_Annot** %443 to i64*
  %446 = load i64, i64* %445, align 8
  %447 = bitcast %class.CPDFSDK_Annot** %444 to i64*
  store i64 %446, i64* %447, align 8
  %448 = getelementptr inbounds %class.CPDFSDK_Annot*, %class.CPDFSDK_Annot** %429, i64 4
  %449 = getelementptr inbounds %class.CPDFSDK_Annot*, %class.CPDFSDK_Annot** %428, i64 4
  %450 = bitcast %class.CPDFSDK_Annot** %448 to i64*
  %451 = load i64, i64* %450, align 8
  %452 = bitcast %class.CPDFSDK_Annot** %449 to i64*
  store i64 %451, i64* %452, align 8
  %453 = getelementptr inbounds %class.CPDFSDK_Annot*, %class.CPDFSDK_Annot** %429, i64 5
  %454 = getelementptr inbounds %class.CPDFSDK_Annot*, %class.CPDFSDK_Annot** %428, i64 5
  %455 = bitcast %class.CPDFSDK_Annot** %453 to i64*
  %456 = load i64, i64* %455, align 8
  %457 = bitcast %class.CPDFSDK_Annot** %454 to i64*
  store i64 %456, i64* %457, align 8
  %458 = getelementptr inbounds %class.CPDFSDK_Annot*, %class.CPDFSDK_Annot** %429, i64 6
  %459 = getelementptr inbounds %class.CPDFSDK_Annot*, %class.CPDFSDK_Annot** %428, i64 6
  %460 = bitcast %class.CPDFSDK_Annot** %458 to i64*
  %461 = load i64, i64* %460, align 8
  %462 = bitcast %class.CPDFSDK_Annot** %459 to i64*
  store i64 %461, i64* %462, align 8
  %463 = getelementptr inbounds %class.CPDFSDK_Annot*, %class.CPDFSDK_Annot** %429, i64 7
  %464 = getelementptr inbounds %class.CPDFSDK_Annot*, %class.CPDFSDK_Annot** %428, i64 7
  %465 = bitcast %class.CPDFSDK_Annot** %463 to i64*
  %466 = load i64, i64* %465, align 8
  %467 = bitcast %class.CPDFSDK_Annot** %464 to i64*
  store i64 %466, i64* %467, align 8
  %468 = getelementptr inbounds %class.CPDFSDK_Annot*, %class.CPDFSDK_Annot** %429, i64 8
  %469 = getelementptr inbounds %class.CPDFSDK_Annot*, %class.CPDFSDK_Annot** %428, i64 8
  %470 = icmp eq %class.CPDFSDK_Annot** %468, %113
  br i1 %470, label %500, label %427, !llvm.loop !56

471:                                              ; preds = %291
  %472 = load %class.CPDFSDK_Annot*, %class.CPDFSDK_Annot** %294, align 8
  %473 = load %class.CPDFSDK_Annot*, %class.CPDFSDK_Annot** %293, align 8
  %474 = bitcast %class.CPDFSDK_Annot* %472 to i32 (%class.CPDFSDK_Annot*)***
  %475 = load i32 (%class.CPDFSDK_Annot*)**, i32 (%class.CPDFSDK_Annot*)*** %474, align 8
  %476 = getelementptr inbounds i32 (%class.CPDFSDK_Annot*)*, i32 (%class.CPDFSDK_Annot*)** %475, i64 4
  %477 = load i32 (%class.CPDFSDK_Annot*)*, i32 (%class.CPDFSDK_Annot*)** %476, align 8
  %478 = tail call i32 %477(%class.CPDFSDK_Annot* %472) #9
  %479 = bitcast %class.CPDFSDK_Annot* %473 to i32 (%class.CPDFSDK_Annot*)***
  %480 = load i32 (%class.CPDFSDK_Annot*)**, i32 (%class.CPDFSDK_Annot*)*** %479, align 8
  %481 = getelementptr inbounds i32 (%class.CPDFSDK_Annot*)*, i32 (%class.CPDFSDK_Annot*)** %480, i64 4
  %482 = load i32 (%class.CPDFSDK_Annot*)*, i32 (%class.CPDFSDK_Annot*)** %481, align 8
  %483 = tail call i32 %482(%class.CPDFSDK_Annot* %473) #9
  %484 = icmp slt i32 %478, %483
  br i1 %484, label %485, label %490

485:                                              ; preds = %471
  %486 = bitcast %class.CPDFSDK_Annot** %294 to i64*
  %487 = load i64, i64* %486, align 8
  %488 = bitcast %class.CPDFSDK_Annot** %292 to i64*
  store i64 %487, i64* %488, align 8
  %489 = getelementptr inbounds %class.CPDFSDK_Annot*, %class.CPDFSDK_Annot** %294, i64 1
  br label %495

490:                                              ; preds = %471
  %491 = bitcast %class.CPDFSDK_Annot** %293 to i64*
  %492 = load i64, i64* %491, align 8
  %493 = bitcast %class.CPDFSDK_Annot** %292 to i64*
  store i64 %492, i64* %493, align 8
  %494 = getelementptr inbounds %class.CPDFSDK_Annot*, %class.CPDFSDK_Annot** %293, i64 1
  br label %495

495:                                              ; preds = %490, %485
  %496 = phi %class.CPDFSDK_Annot** [ %489, %485 ], [ %294, %490 ]
  %497 = phi %class.CPDFSDK_Annot** [ %293, %485 ], [ %494, %490 ]
  %498 = getelementptr inbounds %class.CPDFSDK_Annot*, %class.CPDFSDK_Annot** %292, i64 1
  %499 = icmp eq %class.CPDFSDK_Annot** %497, %113
  br i1 %499, label %117, label %291

500:                                              ; preds = %423, %427, %243, %247, %106, %398, %219, %296, %117, %45, %43, %25, %33, %5, %6
  ret void
}

; Function Attrs: nounwind ssp uwtable
define internal fastcc void @"_ZNSt3__115__inplace_mergeIRZN22CPDFSDK_AnnotIterationC1EP16CPDFSDK_PageViewbE3$_0NS_11__wrap_iterIPP13CPDFSDK_AnnotEEEEvT0_SB_SB_T_NS_15iterator_traitsISB_E15difference_typeESF_PNSE_10value_typeEl"(%class.CPDFSDK_Annot**, %class.CPDFSDK_Annot**, %class.CPDFSDK_Annot**, %class.anon* readnone dereferenceable(1), i64, i64, %class.CPDFSDK_Annot**, i64) unnamed_addr #0 {
  %9 = ptrtoint %class.CPDFSDK_Annot** %6 to i64
  %10 = icmp eq i64 %5, 0
  br i1 %10, label %1028, label %11

11:                                               ; preds = %8
  %12 = ptrtoint %class.CPDFSDK_Annot** %1 to i64
  %13 = ptrtoint %class.CPDFSDK_Annot** %0 to i64
  br label %14

14:                                               ; preds = %11, %1021
  %15 = phi %class.CPDFSDK_Annot** [ %1026, %1021 ], [ %2, %11 ]
  %16 = phi i64 [ %1025, %1021 ], [ %4, %11 ]
  %17 = phi i64 [ %1024, %1021 ], [ %5, %11 ]
  %18 = phi i64 [ %1023, %1021 ], [ %12, %11 ]
  %19 = phi i64 [ %1022, %1021 ], [ %13, %11 ]
  %20 = icmp sgt i64 %16, %7
  %21 = icmp sgt i64 %17, %7
  %22 = and i1 %21, %20
  br i1 %22, label %23, label %28

23:                                               ; preds = %14
  %24 = icmp eq i64 %16, 0
  br i1 %24, label %1028, label %25

25:                                               ; preds = %23
  %26 = inttoptr i64 %18 to %class.CPDFSDK_Annot**
  %27 = inttoptr i64 %18 to i8*
  br label %632

28:                                               ; preds = %14
  %29 = inttoptr i64 %19 to %class.CPDFSDK_Annot**
  %30 = inttoptr i64 %19 to i8*
  %31 = inttoptr i64 %18 to %class.CPDFSDK_Annot**
  %32 = inttoptr i64 %18 to i8*
  %33 = icmp sgt i64 %16, %17
  br i1 %33, label %167, label %34

34:                                               ; preds = %28
  %35 = icmp eq %class.CPDFSDK_Annot** %29, %31
  br i1 %35, label %1028, label %36

36:                                               ; preds = %34
  %37 = getelementptr %class.CPDFSDK_Annot*, %class.CPDFSDK_Annot** %31, i64 -1
  %38 = bitcast %class.CPDFSDK_Annot** %37 to i8*
  %39 = sub i64 0, %19
  %40 = getelementptr i8, i8* %38, i64 %39
  %41 = ptrtoint i8* %40 to i64
  %42 = lshr i64 %41, 3
  %43 = add nuw nsw i64 %42, 1
  %44 = icmp ult i64 %43, 4
  br i1 %44, label %45, label %72

45:                                               ; preds = %165, %72, %36
  %46 = phi %class.CPDFSDK_Annot** [ %6, %72 ], [ %6, %36 ], [ %88, %165 ]
  %47 = phi %class.CPDFSDK_Annot** [ %29, %72 ], [ %29, %36 ], [ %89, %165 ]
  %48 = ptrtoint %class.CPDFSDK_Annot** %47 to i64
  %49 = getelementptr %class.CPDFSDK_Annot*, %class.CPDFSDK_Annot** %31, i64 -1
  %50 = ptrtoint %class.CPDFSDK_Annot** %49 to i64
  %51 = sub i64 %50, %48
  %52 = lshr i64 %51, 3
  %53 = add nuw nsw i64 %52, 1
  %54 = and i64 %53, 7
  %55 = icmp eq i64 %54, 0
  br i1 %55, label %67, label %56

56:                                               ; preds = %45, %56
  %57 = phi %class.CPDFSDK_Annot** [ %64, %56 ], [ %46, %45 ]
  %58 = phi %class.CPDFSDK_Annot** [ %63, %56 ], [ %47, %45 ]
  %59 = phi i64 [ %65, %56 ], [ %54, %45 ]
  %60 = bitcast %class.CPDFSDK_Annot** %58 to i64*
  %61 = load i64, i64* %60, align 8
  %62 = bitcast %class.CPDFSDK_Annot** %57 to i64*
  store i64 %61, i64* %62, align 8
  %63 = getelementptr inbounds %class.CPDFSDK_Annot*, %class.CPDFSDK_Annot** %58, i64 1
  %64 = getelementptr inbounds %class.CPDFSDK_Annot*, %class.CPDFSDK_Annot** %57, i64 1
  %65 = add i64 %59, -1
  %66 = icmp eq i64 %65, 0
  br i1 %66, label %67, label %56, !llvm.loop !57

67:                                               ; preds = %56, %45
  %68 = phi %class.CPDFSDK_Annot** [ undef, %45 ], [ %64, %56 ]
  %69 = phi %class.CPDFSDK_Annot** [ %46, %45 ], [ %64, %56 ]
  %70 = phi %class.CPDFSDK_Annot** [ %47, %45 ], [ %63, %56 ]
  %71 = icmp ult i64 %51, 56
  br i1 %71, label %300, label %345

72:                                               ; preds = %36
  %73 = getelementptr %class.CPDFSDK_Annot*, %class.CPDFSDK_Annot** %31, i64 -1
  %74 = bitcast %class.CPDFSDK_Annot** %73 to i8*
  %75 = sub i64 0, %19
  %76 = getelementptr i8, i8* %74, i64 %75
  %77 = ptrtoint i8* %76 to i64
  %78 = lshr i64 %77, 3
  %79 = add nuw nsw i64 %78, 1
  %80 = getelementptr %class.CPDFSDK_Annot*, %class.CPDFSDK_Annot** %6, i64 %79
  %81 = bitcast %class.CPDFSDK_Annot** %80 to i8*
  %82 = getelementptr %class.CPDFSDK_Annot*, %class.CPDFSDK_Annot** %29, i64 %79
  %83 = icmp ugt %class.CPDFSDK_Annot** %82, %6
  %84 = icmp ult i8* %30, %81
  %85 = and i1 %83, %84
  br i1 %85, label %45, label %86

86:                                               ; preds = %72
  %87 = and i64 %43, 4611686018427387900
  %88 = getelementptr %class.CPDFSDK_Annot*, %class.CPDFSDK_Annot** %6, i64 %87
  %89 = getelementptr %class.CPDFSDK_Annot*, %class.CPDFSDK_Annot** %29, i64 %87
  %90 = add nsw i64 %87, -4
  %91 = lshr exact i64 %90, 2
  %92 = add nuw nsw i64 %91, 1
  %93 = and i64 %92, 3
  %94 = icmp ult i64 %90, 12
  br i1 %94, label %146, label %95

95:                                               ; preds = %86
  %96 = sub nsw i64 %92, %93
  br label %97

97:                                               ; preds = %97, %95
  %98 = phi i64 [ 0, %95 ], [ %143, %97 ]
  %99 = phi i64 [ %96, %95 ], [ %144, %97 ]
  %100 = getelementptr %class.CPDFSDK_Annot*, %class.CPDFSDK_Annot** %6, i64 %98
  %101 = getelementptr %class.CPDFSDK_Annot*, %class.CPDFSDK_Annot** %29, i64 %98
  %102 = bitcast %class.CPDFSDK_Annot** %101 to <2 x i64>*
  %103 = load <2 x i64>, <2 x i64>* %102, align 8, !alias.scope !58
  %104 = getelementptr %class.CPDFSDK_Annot*, %class.CPDFSDK_Annot** %101, i64 2
  %105 = bitcast %class.CPDFSDK_Annot** %104 to <2 x i64>*
  %106 = load <2 x i64>, <2 x i64>* %105, align 8, !alias.scope !58
  %107 = bitcast %class.CPDFSDK_Annot** %100 to <2 x i64>*
  store <2 x i64> %103, <2 x i64>* %107, align 8, !alias.scope !61, !noalias !58
  %108 = getelementptr %class.CPDFSDK_Annot*, %class.CPDFSDK_Annot** %100, i64 2
  %109 = bitcast %class.CPDFSDK_Annot** %108 to <2 x i64>*
  store <2 x i64> %106, <2 x i64>* %109, align 8, !alias.scope !61, !noalias !58
  %110 = or i64 %98, 4
  %111 = getelementptr %class.CPDFSDK_Annot*, %class.CPDFSDK_Annot** %6, i64 %110
  %112 = getelementptr %class.CPDFSDK_Annot*, %class.CPDFSDK_Annot** %29, i64 %110
  %113 = bitcast %class.CPDFSDK_Annot** %112 to <2 x i64>*
  %114 = load <2 x i64>, <2 x i64>* %113, align 8, !alias.scope !58
  %115 = getelementptr %class.CPDFSDK_Annot*, %class.CPDFSDK_Annot** %112, i64 2
  %116 = bitcast %class.CPDFSDK_Annot** %115 to <2 x i64>*
  %117 = load <2 x i64>, <2 x i64>* %116, align 8, !alias.scope !58
  %118 = bitcast %class.CPDFSDK_Annot** %111 to <2 x i64>*
  store <2 x i64> %114, <2 x i64>* %118, align 8, !alias.scope !61, !noalias !58
  %119 = getelementptr %class.CPDFSDK_Annot*, %class.CPDFSDK_Annot** %111, i64 2
  %120 = bitcast %class.CPDFSDK_Annot** %119 to <2 x i64>*
  store <2 x i64> %117, <2 x i64>* %120, align 8, !alias.scope !61, !noalias !58
  %121 = or i64 %98, 8
  %122 = getelementptr %class.CPDFSDK_Annot*, %class.CPDFSDK_Annot** %6, i64 %121
  %123 = getelementptr %class.CPDFSDK_Annot*, %class.CPDFSDK_Annot** %29, i64 %121
  %124 = bitcast %class.CPDFSDK_Annot** %123 to <2 x i64>*
  %125 = load <2 x i64>, <2 x i64>* %124, align 8, !alias.scope !58
  %126 = getelementptr %class.CPDFSDK_Annot*, %class.CPDFSDK_Annot** %123, i64 2
  %127 = bitcast %class.CPDFSDK_Annot** %126 to <2 x i64>*
  %128 = load <2 x i64>, <2 x i64>* %127, align 8, !alias.scope !58
  %129 = bitcast %class.CPDFSDK_Annot** %122 to <2 x i64>*
  store <2 x i64> %125, <2 x i64>* %129, align 8, !alias.scope !61, !noalias !58
  %130 = getelementptr %class.CPDFSDK_Annot*, %class.CPDFSDK_Annot** %122, i64 2
  %131 = bitcast %class.CPDFSDK_Annot** %130 to <2 x i64>*
  store <2 x i64> %128, <2 x i64>* %131, align 8, !alias.scope !61, !noalias !58
  %132 = or i64 %98, 12
  %133 = getelementptr %class.CPDFSDK_Annot*, %class.CPDFSDK_Annot** %6, i64 %132
  %134 = getelementptr %class.CPDFSDK_Annot*, %class.CPDFSDK_Annot** %29, i64 %132
  %135 = bitcast %class.CPDFSDK_Annot** %134 to <2 x i64>*
  %136 = load <2 x i64>, <2 x i64>* %135, align 8, !alias.scope !58
  %137 = getelementptr %class.CPDFSDK_Annot*, %class.CPDFSDK_Annot** %134, i64 2
  %138 = bitcast %class.CPDFSDK_Annot** %137 to <2 x i64>*
  %139 = load <2 x i64>, <2 x i64>* %138, align 8, !alias.scope !58
  %140 = bitcast %class.CPDFSDK_Annot** %133 to <2 x i64>*
  store <2 x i64> %136, <2 x i64>* %140, align 8, !alias.scope !61, !noalias !58
  %141 = getelementptr %class.CPDFSDK_Annot*, %class.CPDFSDK_Annot** %133, i64 2
  %142 = bitcast %class.CPDFSDK_Annot** %141 to <2 x i64>*
  store <2 x i64> %139, <2 x i64>* %142, align 8, !alias.scope !61, !noalias !58
  %143 = add i64 %98, 16
  %144 = add i64 %99, -4
  %145 = icmp eq i64 %144, 0
  br i1 %145, label %146, label %97, !llvm.loop !63

146:                                              ; preds = %97, %86
  %147 = phi i64 [ 0, %86 ], [ %143, %97 ]
  %148 = icmp eq i64 %93, 0
  br i1 %148, label %165, label %149

149:                                              ; preds = %146, %149
  %150 = phi i64 [ %162, %149 ], [ %147, %146 ]
  %151 = phi i64 [ %163, %149 ], [ %93, %146 ]
  %152 = getelementptr %class.CPDFSDK_Annot*, %class.CPDFSDK_Annot** %6, i64 %150
  %153 = getelementptr %class.CPDFSDK_Annot*, %class.CPDFSDK_Annot** %29, i64 %150
  %154 = bitcast %class.CPDFSDK_Annot** %153 to <2 x i64>*
  %155 = load <2 x i64>, <2 x i64>* %154, align 8, !alias.scope !58
  %156 = getelementptr %class.CPDFSDK_Annot*, %class.CPDFSDK_Annot** %153, i64 2
  %157 = bitcast %class.CPDFSDK_Annot** %156 to <2 x i64>*
  %158 = load <2 x i64>, <2 x i64>* %157, align 8, !alias.scope !58
  %159 = bitcast %class.CPDFSDK_Annot** %152 to <2 x i64>*
  store <2 x i64> %155, <2 x i64>* %159, align 8, !alias.scope !61, !noalias !58
  %160 = getelementptr %class.CPDFSDK_Annot*, %class.CPDFSDK_Annot** %152, i64 2
  %161 = bitcast %class.CPDFSDK_Annot** %160 to <2 x i64>*
  store <2 x i64> %158, <2 x i64>* %161, align 8, !alias.scope !61, !noalias !58
  %162 = add i64 %150, 4
  %163 = add i64 %151, -1
  %164 = icmp eq i64 %163, 0
  br i1 %164, label %165, label %149, !llvm.loop !64

165:                                              ; preds = %149, %146
  %166 = icmp eq i64 %43, %87
  br i1 %166, label %300, label %45

167:                                              ; preds = %28
  %168 = icmp eq %class.CPDFSDK_Annot** %15, %31
  br i1 %168, label %1028, label %169

169:                                              ; preds = %167
  %170 = getelementptr %class.CPDFSDK_Annot*, %class.CPDFSDK_Annot** %15, i64 -1
  %171 = bitcast %class.CPDFSDK_Annot** %170 to i8*
  %172 = sub i64 0, %18
  %173 = getelementptr i8, i8* %171, i64 %172
  %174 = ptrtoint i8* %173 to i64
  %175 = lshr i64 %174, 3
  %176 = add nuw nsw i64 %175, 1
  %177 = icmp ult i64 %176, 4
  br i1 %177, label %178, label %205

178:                                              ; preds = %298, %205, %169
  %179 = phi %class.CPDFSDK_Annot** [ %6, %205 ], [ %6, %169 ], [ %221, %298 ]
  %180 = phi %class.CPDFSDK_Annot** [ %31, %205 ], [ %31, %169 ], [ %222, %298 ]
  %181 = ptrtoint %class.CPDFSDK_Annot** %180 to i64
  %182 = getelementptr %class.CPDFSDK_Annot*, %class.CPDFSDK_Annot** %15, i64 -1
  %183 = ptrtoint %class.CPDFSDK_Annot** %182 to i64
  %184 = sub i64 %183, %181
  %185 = lshr i64 %184, 3
  %186 = add nuw nsw i64 %185, 1
  %187 = and i64 %186, 7
  %188 = icmp eq i64 %187, 0
  br i1 %188, label %200, label %189

189:                                              ; preds = %178, %189
  %190 = phi %class.CPDFSDK_Annot** [ %197, %189 ], [ %179, %178 ]
  %191 = phi %class.CPDFSDK_Annot** [ %196, %189 ], [ %180, %178 ]
  %192 = phi i64 [ %198, %189 ], [ %187, %178 ]
  %193 = bitcast %class.CPDFSDK_Annot** %191 to i64*
  %194 = load i64, i64* %193, align 8
  %195 = bitcast %class.CPDFSDK_Annot** %190 to i64*
  store i64 %194, i64* %195, align 8
  %196 = getelementptr inbounds %class.CPDFSDK_Annot*, %class.CPDFSDK_Annot** %191, i64 1
  %197 = getelementptr inbounds %class.CPDFSDK_Annot*, %class.CPDFSDK_Annot** %190, i64 1
  %198 = add i64 %192, -1
  %199 = icmp eq i64 %198, 0
  br i1 %199, label %200, label %189, !llvm.loop !65

200:                                              ; preds = %189, %178
  %201 = phi %class.CPDFSDK_Annot** [ undef, %178 ], [ %197, %189 ]
  %202 = phi %class.CPDFSDK_Annot** [ %179, %178 ], [ %197, %189 ]
  %203 = phi %class.CPDFSDK_Annot** [ %180, %178 ], [ %196, %189 ]
  %204 = icmp ult i64 %184, 56
  br i1 %204, label %389, label %588

205:                                              ; preds = %169
  %206 = getelementptr %class.CPDFSDK_Annot*, %class.CPDFSDK_Annot** %15, i64 -1
  %207 = bitcast %class.CPDFSDK_Annot** %206 to i8*
  %208 = sub i64 0, %18
  %209 = getelementptr i8, i8* %207, i64 %208
  %210 = ptrtoint i8* %209 to i64
  %211 = lshr i64 %210, 3
  %212 = add nuw nsw i64 %211, 1
  %213 = getelementptr %class.CPDFSDK_Annot*, %class.CPDFSDK_Annot** %6, i64 %212
  %214 = bitcast %class.CPDFSDK_Annot** %213 to i8*
  %215 = getelementptr %class.CPDFSDK_Annot*, %class.CPDFSDK_Annot** %31, i64 %212
  %216 = icmp ugt %class.CPDFSDK_Annot** %215, %6
  %217 = icmp ult i8* %32, %214
  %218 = and i1 %216, %217
  br i1 %218, label %178, label %219

219:                                              ; preds = %205
  %220 = and i64 %176, 4611686018427387900
  %221 = getelementptr %class.CPDFSDK_Annot*, %class.CPDFSDK_Annot** %6, i64 %220
  %222 = getelementptr %class.CPDFSDK_Annot*, %class.CPDFSDK_Annot** %31, i64 %220
  %223 = add nsw i64 %220, -4
  %224 = lshr exact i64 %223, 2
  %225 = add nuw nsw i64 %224, 1
  %226 = and i64 %225, 3
  %227 = icmp ult i64 %223, 12
  br i1 %227, label %279, label %228

228:                                              ; preds = %219
  %229 = sub nsw i64 %225, %226
  br label %230

230:                                              ; preds = %230, %228
  %231 = phi i64 [ 0, %228 ], [ %276, %230 ]
  %232 = phi i64 [ %229, %228 ], [ %277, %230 ]
  %233 = getelementptr %class.CPDFSDK_Annot*, %class.CPDFSDK_Annot** %6, i64 %231
  %234 = getelementptr %class.CPDFSDK_Annot*, %class.CPDFSDK_Annot** %31, i64 %231
  %235 = bitcast %class.CPDFSDK_Annot** %234 to <2 x i64>*
  %236 = load <2 x i64>, <2 x i64>* %235, align 8, !alias.scope !66
  %237 = getelementptr %class.CPDFSDK_Annot*, %class.CPDFSDK_Annot** %234, i64 2
  %238 = bitcast %class.CPDFSDK_Annot** %237 to <2 x i64>*
  %239 = load <2 x i64>, <2 x i64>* %238, align 8, !alias.scope !66
  %240 = bitcast %class.CPDFSDK_Annot** %233 to <2 x i64>*
  store <2 x i64> %236, <2 x i64>* %240, align 8, !alias.scope !69, !noalias !66
  %241 = getelementptr %class.CPDFSDK_Annot*, %class.CPDFSDK_Annot** %233, i64 2
  %242 = bitcast %class.CPDFSDK_Annot** %241 to <2 x i64>*
  store <2 x i64> %239, <2 x i64>* %242, align 8, !alias.scope !69, !noalias !66
  %243 = or i64 %231, 4
  %244 = getelementptr %class.CPDFSDK_Annot*, %class.CPDFSDK_Annot** %6, i64 %243
  %245 = getelementptr %class.CPDFSDK_Annot*, %class.CPDFSDK_Annot** %31, i64 %243
  %246 = bitcast %class.CPDFSDK_Annot** %245 to <2 x i64>*
  %247 = load <2 x i64>, <2 x i64>* %246, align 8, !alias.scope !66
  %248 = getelementptr %class.CPDFSDK_Annot*, %class.CPDFSDK_Annot** %245, i64 2
  %249 = bitcast %class.CPDFSDK_Annot** %248 to <2 x i64>*
  %250 = load <2 x i64>, <2 x i64>* %249, align 8, !alias.scope !66
  %251 = bitcast %class.CPDFSDK_Annot** %244 to <2 x i64>*
  store <2 x i64> %247, <2 x i64>* %251, align 8, !alias.scope !69, !noalias !66
  %252 = getelementptr %class.CPDFSDK_Annot*, %class.CPDFSDK_Annot** %244, i64 2
  %253 = bitcast %class.CPDFSDK_Annot** %252 to <2 x i64>*
  store <2 x i64> %250, <2 x i64>* %253, align 8, !alias.scope !69, !noalias !66
  %254 = or i64 %231, 8
  %255 = getelementptr %class.CPDFSDK_Annot*, %class.CPDFSDK_Annot** %6, i64 %254
  %256 = getelementptr %class.CPDFSDK_Annot*, %class.CPDFSDK_Annot** %31, i64 %254
  %257 = bitcast %class.CPDFSDK_Annot** %256 to <2 x i64>*
  %258 = load <2 x i64>, <2 x i64>* %257, align 8, !alias.scope !66
  %259 = getelementptr %class.CPDFSDK_Annot*, %class.CPDFSDK_Annot** %256, i64 2
  %260 = bitcast %class.CPDFSDK_Annot** %259 to <2 x i64>*
  %261 = load <2 x i64>, <2 x i64>* %260, align 8, !alias.scope !66
  %262 = bitcast %class.CPDFSDK_Annot** %255 to <2 x i64>*
  store <2 x i64> %258, <2 x i64>* %262, align 8, !alias.scope !69, !noalias !66
  %263 = getelementptr %class.CPDFSDK_Annot*, %class.CPDFSDK_Annot** %255, i64 2
  %264 = bitcast %class.CPDFSDK_Annot** %263 to <2 x i64>*
  store <2 x i64> %261, <2 x i64>* %264, align 8, !alias.scope !69, !noalias !66
  %265 = or i64 %231, 12
  %266 = getelementptr %class.CPDFSDK_Annot*, %class.CPDFSDK_Annot** %6, i64 %265
  %267 = getelementptr %class.CPDFSDK_Annot*, %class.CPDFSDK_Annot** %31, i64 %265
  %268 = bitcast %class.CPDFSDK_Annot** %267 to <2 x i64>*
  %269 = load <2 x i64>, <2 x i64>* %268, align 8, !alias.scope !66
  %270 = getelementptr %class.CPDFSDK_Annot*, %class.CPDFSDK_Annot** %267, i64 2
  %271 = bitcast %class.CPDFSDK_Annot** %270 to <2 x i64>*
  %272 = load <2 x i64>, <2 x i64>* %271, align 8, !alias.scope !66
  %273 = bitcast %class.CPDFSDK_Annot** %266 to <2 x i64>*
  store <2 x i64> %269, <2 x i64>* %273, align 8, !alias.scope !69, !noalias !66
  %274 = getelementptr %class.CPDFSDK_Annot*, %class.CPDFSDK_Annot** %266, i64 2
  %275 = bitcast %class.CPDFSDK_Annot** %274 to <2 x i64>*
  store <2 x i64> %272, <2 x i64>* %275, align 8, !alias.scope !69, !noalias !66
  %276 = add i64 %231, 16
  %277 = add i64 %232, -4
  %278 = icmp eq i64 %277, 0
  br i1 %278, label %279, label %230, !llvm.loop !71

279:                                              ; preds = %230, %219
  %280 = phi i64 [ 0, %219 ], [ %276, %230 ]
  %281 = icmp eq i64 %226, 0
  br i1 %281, label %298, label %282

282:                                              ; preds = %279, %282
  %283 = phi i64 [ %295, %282 ], [ %280, %279 ]
  %284 = phi i64 [ %296, %282 ], [ %226, %279 ]
  %285 = getelementptr %class.CPDFSDK_Annot*, %class.CPDFSDK_Annot** %6, i64 %283
  %286 = getelementptr %class.CPDFSDK_Annot*, %class.CPDFSDK_Annot** %31, i64 %283
  %287 = bitcast %class.CPDFSDK_Annot** %286 to <2 x i64>*
  %288 = load <2 x i64>, <2 x i64>* %287, align 8, !alias.scope !66
  %289 = getelementptr %class.CPDFSDK_Annot*, %class.CPDFSDK_Annot** %286, i64 2
  %290 = bitcast %class.CPDFSDK_Annot** %289 to <2 x i64>*
  %291 = load <2 x i64>, <2 x i64>* %290, align 8, !alias.scope !66
  %292 = bitcast %class.CPDFSDK_Annot** %285 to <2 x i64>*
  store <2 x i64> %288, <2 x i64>* %292, align 8, !alias.scope !69, !noalias !66
  %293 = getelementptr %class.CPDFSDK_Annot*, %class.CPDFSDK_Annot** %285, i64 2
  %294 = bitcast %class.CPDFSDK_Annot** %293 to <2 x i64>*
  store <2 x i64> %291, <2 x i64>* %294, align 8, !alias.scope !69, !noalias !66
  %295 = add i64 %283, 4
  %296 = add i64 %284, -1
  %297 = icmp eq i64 %296, 0
  br i1 %297, label %298, label %282, !llvm.loop !72

298:                                              ; preds = %282, %279
  %299 = icmp eq i64 %176, %220
  br i1 %299, label %389, label %178

300:                                              ; preds = %67, %345, %165
  %301 = phi %class.CPDFSDK_Annot** [ %88, %165 ], [ %68, %67 ], [ %387, %345 ]
  %302 = icmp eq %class.CPDFSDK_Annot** %301, %6
  br i1 %302, label %1028, label %303

303:                                              ; preds = %300, %340
  %304 = phi %class.CPDFSDK_Annot** [ %342, %340 ], [ %6, %300 ]
  %305 = phi %class.CPDFSDK_Annot** [ %343, %340 ], [ %29, %300 ]
  %306 = phi %class.CPDFSDK_Annot** [ %341, %340 ], [ %31, %300 ]
  %307 = icmp eq %class.CPDFSDK_Annot** %306, %15
  br i1 %307, label %308, label %316

308:                                              ; preds = %303
  %309 = ptrtoint %class.CPDFSDK_Annot** %301 to i64
  %310 = ptrtoint %class.CPDFSDK_Annot** %304 to i64
  %311 = sub i64 %309, %310
  %312 = icmp eq i64 %311, 0
  br i1 %312, label %1028, label %313

313:                                              ; preds = %308
  %314 = bitcast %class.CPDFSDK_Annot** %305 to i8*
  %315 = bitcast %class.CPDFSDK_Annot** %304 to i8*
  tail call void @llvm.memmove.p0i8.p0i8.i64(i8* align 8 %314, i8* align 8 %315, i64 %311, i1 false) #9
  br label %1028

316:                                              ; preds = %303
  %317 = load %class.CPDFSDK_Annot*, %class.CPDFSDK_Annot** %306, align 8
  %318 = load %class.CPDFSDK_Annot*, %class.CPDFSDK_Annot** %304, align 8
  %319 = bitcast %class.CPDFSDK_Annot* %317 to i32 (%class.CPDFSDK_Annot*)***
  %320 = load i32 (%class.CPDFSDK_Annot*)**, i32 (%class.CPDFSDK_Annot*)*** %319, align 8
  %321 = getelementptr inbounds i32 (%class.CPDFSDK_Annot*)*, i32 (%class.CPDFSDK_Annot*)** %320, i64 4
  %322 = load i32 (%class.CPDFSDK_Annot*)*, i32 (%class.CPDFSDK_Annot*)** %321, align 8
  %323 = tail call i32 %322(%class.CPDFSDK_Annot* %317) #9
  %324 = bitcast %class.CPDFSDK_Annot* %318 to i32 (%class.CPDFSDK_Annot*)***
  %325 = load i32 (%class.CPDFSDK_Annot*)**, i32 (%class.CPDFSDK_Annot*)*** %324, align 8
  %326 = getelementptr inbounds i32 (%class.CPDFSDK_Annot*)*, i32 (%class.CPDFSDK_Annot*)** %325, i64 4
  %327 = load i32 (%class.CPDFSDK_Annot*)*, i32 (%class.CPDFSDK_Annot*)** %326, align 8
  %328 = tail call i32 %327(%class.CPDFSDK_Annot* %318) #9
  %329 = icmp slt i32 %323, %328
  br i1 %329, label %330, label %335

330:                                              ; preds = %316
  %331 = bitcast %class.CPDFSDK_Annot** %306 to i64*
  %332 = load i64, i64* %331, align 8
  %333 = bitcast %class.CPDFSDK_Annot** %305 to i64*
  store i64 %332, i64* %333, align 8
  %334 = getelementptr inbounds %class.CPDFSDK_Annot*, %class.CPDFSDK_Annot** %306, i64 1
  br label %340

335:                                              ; preds = %316
  %336 = bitcast %class.CPDFSDK_Annot** %304 to i64*
  %337 = load i64, i64* %336, align 8
  %338 = bitcast %class.CPDFSDK_Annot** %305 to i64*
  store i64 %337, i64* %338, align 8
  %339 = getelementptr inbounds %class.CPDFSDK_Annot*, %class.CPDFSDK_Annot** %304, i64 1
  br label %340

340:                                              ; preds = %335, %330
  %341 = phi %class.CPDFSDK_Annot** [ %334, %330 ], [ %306, %335 ]
  %342 = phi %class.CPDFSDK_Annot** [ %304, %330 ], [ %339, %335 ]
  %343 = getelementptr inbounds %class.CPDFSDK_Annot*, %class.CPDFSDK_Annot** %305, i64 1
  %344 = icmp eq %class.CPDFSDK_Annot** %342, %301
  br i1 %344, label %1028, label %303

345:                                              ; preds = %67, %345
  %346 = phi %class.CPDFSDK_Annot** [ %387, %345 ], [ %69, %67 ]
  %347 = phi %class.CPDFSDK_Annot** [ %386, %345 ], [ %70, %67 ]
  %348 = bitcast %class.CPDFSDK_Annot** %347 to i64*
  %349 = load i64, i64* %348, align 8
  %350 = bitcast %class.CPDFSDK_Annot** %346 to i64*
  store i64 %349, i64* %350, align 8
  %351 = getelementptr inbounds %class.CPDFSDK_Annot*, %class.CPDFSDK_Annot** %347, i64 1
  %352 = getelementptr inbounds %class.CPDFSDK_Annot*, %class.CPDFSDK_Annot** %346, i64 1
  %353 = bitcast %class.CPDFSDK_Annot** %351 to i64*
  %354 = load i64, i64* %353, align 8
  %355 = bitcast %class.CPDFSDK_Annot** %352 to i64*
  store i64 %354, i64* %355, align 8
  %356 = getelementptr inbounds %class.CPDFSDK_Annot*, %class.CPDFSDK_Annot** %347, i64 2
  %357 = getelementptr inbounds %class.CPDFSDK_Annot*, %class.CPDFSDK_Annot** %346, i64 2
  %358 = bitcast %class.CPDFSDK_Annot** %356 to i64*
  %359 = load i64, i64* %358, align 8
  %360 = bitcast %class.CPDFSDK_Annot** %357 to i64*
  store i64 %359, i64* %360, align 8
  %361 = getelementptr inbounds %class.CPDFSDK_Annot*, %class.CPDFSDK_Annot** %347, i64 3
  %362 = getelementptr inbounds %class.CPDFSDK_Annot*, %class.CPDFSDK_Annot** %346, i64 3
  %363 = bitcast %class.CPDFSDK_Annot** %361 to i64*
  %364 = load i64, i64* %363, align 8
  %365 = bitcast %class.CPDFSDK_Annot** %362 to i64*
  store i64 %364, i64* %365, align 8
  %366 = getelementptr inbounds %class.CPDFSDK_Annot*, %class.CPDFSDK_Annot** %347, i64 4
  %367 = getelementptr inbounds %class.CPDFSDK_Annot*, %class.CPDFSDK_Annot** %346, i64 4
  %368 = bitcast %class.CPDFSDK_Annot** %366 to i64*
  %369 = load i64, i64* %368, align 8
  %370 = bitcast %class.CPDFSDK_Annot** %367 to i64*
  store i64 %369, i64* %370, align 8
  %371 = getelementptr inbounds %class.CPDFSDK_Annot*, %class.CPDFSDK_Annot** %347, i64 5
  %372 = getelementptr inbounds %class.CPDFSDK_Annot*, %class.CPDFSDK_Annot** %346, i64 5
  %373 = bitcast %class.CPDFSDK_Annot** %371 to i64*
  %374 = load i64, i64* %373, align 8
  %375 = bitcast %class.CPDFSDK_Annot** %372 to i64*
  store i64 %374, i64* %375, align 8
  %376 = getelementptr inbounds %class.CPDFSDK_Annot*, %class.CPDFSDK_Annot** %347, i64 6
  %377 = getelementptr inbounds %class.CPDFSDK_Annot*, %class.CPDFSDK_Annot** %346, i64 6
  %378 = bitcast %class.CPDFSDK_Annot** %376 to i64*
  %379 = load i64, i64* %378, align 8
  %380 = bitcast %class.CPDFSDK_Annot** %377 to i64*
  store i64 %379, i64* %380, align 8
  %381 = getelementptr inbounds %class.CPDFSDK_Annot*, %class.CPDFSDK_Annot** %347, i64 7
  %382 = getelementptr inbounds %class.CPDFSDK_Annot*, %class.CPDFSDK_Annot** %346, i64 7
  %383 = bitcast %class.CPDFSDK_Annot** %381 to i64*
  %384 = load i64, i64* %383, align 8
  %385 = bitcast %class.CPDFSDK_Annot** %382 to i64*
  store i64 %384, i64* %385, align 8
  %386 = getelementptr inbounds %class.CPDFSDK_Annot*, %class.CPDFSDK_Annot** %347, i64 8
  %387 = getelementptr inbounds %class.CPDFSDK_Annot*, %class.CPDFSDK_Annot** %346, i64 8
  %388 = icmp eq %class.CPDFSDK_Annot** %386, %31
  br i1 %388, label %300, label %345, !llvm.loop !73

389:                                              ; preds = %200, %588, %298
  %390 = phi %class.CPDFSDK_Annot** [ %221, %298 ], [ %201, %200 ], [ %630, %588 ]
  %391 = icmp eq %class.CPDFSDK_Annot** %390, %6
  br i1 %391, label %1028, label %392

392:                                              ; preds = %389, %563
  %393 = phi %class.CPDFSDK_Annot** [ %586, %563 ], [ %15, %389 ]
  %394 = phi %class.CPDFSDK_Annot** [ %581, %563 ], [ %390, %389 ]
  %395 = phi %class.CPDFSDK_Annot** [ %580, %563 ], [ %31, %389 ]
  %396 = icmp eq %class.CPDFSDK_Annot** %395, %29
  br i1 %396, label %397, label %563

397:                                              ; preds = %392
  %398 = getelementptr %class.CPDFSDK_Annot*, %class.CPDFSDK_Annot** %394, i64 -1
  %399 = ptrtoint %class.CPDFSDK_Annot** %398 to i64
  %400 = sub i64 %399, %9
  %401 = lshr i64 %400, 3
  %402 = add nuw nsw i64 %401, 1
  %403 = icmp ult i64 %402, 4
  br i1 %403, label %494, label %404

404:                                              ; preds = %397
  %405 = getelementptr %class.CPDFSDK_Annot*, %class.CPDFSDK_Annot** %394, i64 -1
  %406 = ptrtoint %class.CPDFSDK_Annot** %405 to i64
  %407 = sub i64 %406, %9
  %408 = lshr i64 %407, 3
  %409 = xor i64 %408, -1
  %410 = getelementptr %class.CPDFSDK_Annot*, %class.CPDFSDK_Annot** %393, i64 %409
  %411 = getelementptr %class.CPDFSDK_Annot*, %class.CPDFSDK_Annot** %394, i64 %409
  %412 = icmp ult %class.CPDFSDK_Annot** %410, %394
  %413 = icmp ult %class.CPDFSDK_Annot** %411, %393
  %414 = and i1 %412, %413
  br i1 %414, label %494, label %415

415:                                              ; preds = %404
  %416 = and i64 %402, 4611686018427387900
  %417 = sub nsw i64 0, %416
  %418 = getelementptr %class.CPDFSDK_Annot*, %class.CPDFSDK_Annot** %394, i64 %417
  %419 = sub nsw i64 0, %416
  %420 = getelementptr %class.CPDFSDK_Annot*, %class.CPDFSDK_Annot** %393, i64 %419
  %421 = add nsw i64 %416, -4
  %422 = lshr exact i64 %421, 2
  %423 = add nuw nsw i64 %422, 1
  %424 = and i64 %423, 1
  %425 = icmp eq i64 %421, 0
  br i1 %425, label %472, label %426

426:                                              ; preds = %415
  %427 = sub nuw nsw i64 %423, %424
  %428 = getelementptr %class.CPDFSDK_Annot*, %class.CPDFSDK_Annot** %394, i64 -1
  %429 = getelementptr %class.CPDFSDK_Annot*, %class.CPDFSDK_Annot** %393, i64 -1
  %430 = getelementptr %class.CPDFSDK_Annot*, %class.CPDFSDK_Annot** %394, i64 -1
  %431 = getelementptr %class.CPDFSDK_Annot*, %class.CPDFSDK_Annot** %393, i64 -1
  br label %432

432:                                              ; preds = %432, %426
  %433 = phi i64 [ 0, %426 ], [ %467, %432 ]
  %434 = phi i64 [ %427, %426 ], [ %468, %432 ]
  %435 = sub i64 0, %433
  %436 = sub i64 0, %433
  %437 = getelementptr inbounds %class.CPDFSDK_Annot*, %class.CPDFSDK_Annot** %428, i64 %435
  %438 = getelementptr inbounds %class.CPDFSDK_Annot*, %class.CPDFSDK_Annot** %437, i64 -1
  %439 = bitcast %class.CPDFSDK_Annot** %438 to <2 x i64>*
  %440 = load <2 x i64>, <2 x i64>* %439, align 8, !alias.scope !74
  %441 = getelementptr inbounds %class.CPDFSDK_Annot*, %class.CPDFSDK_Annot** %437, i64 -2
  %442 = getelementptr inbounds %class.CPDFSDK_Annot*, %class.CPDFSDK_Annot** %441, i64 -1
  %443 = bitcast %class.CPDFSDK_Annot** %442 to <2 x i64>*
  %444 = load <2 x i64>, <2 x i64>* %443, align 8, !alias.scope !74
  %445 = getelementptr inbounds %class.CPDFSDK_Annot*, %class.CPDFSDK_Annot** %429, i64 %436
  %446 = getelementptr inbounds %class.CPDFSDK_Annot*, %class.CPDFSDK_Annot** %445, i64 -1
  %447 = bitcast %class.CPDFSDK_Annot** %446 to <2 x i64>*
  store <2 x i64> %440, <2 x i64>* %447, align 8, !alias.scope !77, !noalias !74
  %448 = getelementptr inbounds %class.CPDFSDK_Annot*, %class.CPDFSDK_Annot** %445, i64 -2
  %449 = getelementptr inbounds %class.CPDFSDK_Annot*, %class.CPDFSDK_Annot** %448, i64 -1
  %450 = bitcast %class.CPDFSDK_Annot** %449 to <2 x i64>*
  store <2 x i64> %444, <2 x i64>* %450, align 8, !alias.scope !77, !noalias !74
  %451 = sub nuw nsw i64 -4, %433
  %452 = sub nuw nsw i64 -4, %433
  %453 = getelementptr inbounds %class.CPDFSDK_Annot*, %class.CPDFSDK_Annot** %430, i64 %451
  %454 = getelementptr inbounds %class.CPDFSDK_Annot*, %class.CPDFSDK_Annot** %453, i64 -1
  %455 = bitcast %class.CPDFSDK_Annot** %454 to <2 x i64>*
  %456 = load <2 x i64>, <2 x i64>* %455, align 8, !alias.scope !74
  %457 = getelementptr inbounds %class.CPDFSDK_Annot*, %class.CPDFSDK_Annot** %453, i64 -2
  %458 = getelementptr inbounds %class.CPDFSDK_Annot*, %class.CPDFSDK_Annot** %457, i64 -1
  %459 = bitcast %class.CPDFSDK_Annot** %458 to <2 x i64>*
  %460 = load <2 x i64>, <2 x i64>* %459, align 8, !alias.scope !74
  %461 = getelementptr inbounds %class.CPDFSDK_Annot*, %class.CPDFSDK_Annot** %431, i64 %452
  %462 = getelementptr inbounds %class.CPDFSDK_Annot*, %class.CPDFSDK_Annot** %461, i64 -1
  %463 = bitcast %class.CPDFSDK_Annot** %462 to <2 x i64>*
  store <2 x i64> %456, <2 x i64>* %463, align 8, !alias.scope !77, !noalias !74
  %464 = getelementptr inbounds %class.CPDFSDK_Annot*, %class.CPDFSDK_Annot** %461, i64 -2
  %465 = getelementptr inbounds %class.CPDFSDK_Annot*, %class.CPDFSDK_Annot** %464, i64 -1
  %466 = bitcast %class.CPDFSDK_Annot** %465 to <2 x i64>*
  store <2 x i64> %460, <2 x i64>* %466, align 8, !alias.scope !77, !noalias !74
  %467 = add i64 %433, 8
  %468 = add i64 %434, -2
  %469 = icmp eq i64 %468, 0
  br i1 %469, label %470, label %432, !llvm.loop !79

470:                                              ; preds = %432
  %471 = sub nuw nsw i64 -8, %433
  br label %472

472:                                              ; preds = %470, %415
  %473 = phi i64 [ 0, %415 ], [ %471, %470 ]
  %474 = icmp eq i64 %424, 0
  br i1 %474, label %492, label %475

475:                                              ; preds = %472
  %476 = getelementptr %class.CPDFSDK_Annot*, %class.CPDFSDK_Annot** %394, i64 -1
  %477 = getelementptr %class.CPDFSDK_Annot*, %class.CPDFSDK_Annot** %393, i64 -1
  %478 = getelementptr inbounds %class.CPDFSDK_Annot*, %class.CPDFSDK_Annot** %476, i64 %473
  %479 = getelementptr inbounds %class.CPDFSDK_Annot*, %class.CPDFSDK_Annot** %478, i64 -1
  %480 = bitcast %class.CPDFSDK_Annot** %479 to <2 x i64>*
  %481 = load <2 x i64>, <2 x i64>* %480, align 8, !alias.scope !74
  %482 = getelementptr inbounds %class.CPDFSDK_Annot*, %class.CPDFSDK_Annot** %478, i64 -2
  %483 = getelementptr inbounds %class.CPDFSDK_Annot*, %class.CPDFSDK_Annot** %482, i64 -1
  %484 = bitcast %class.CPDFSDK_Annot** %483 to <2 x i64>*
  %485 = load <2 x i64>, <2 x i64>* %484, align 8, !alias.scope !74
  %486 = getelementptr inbounds %class.CPDFSDK_Annot*, %class.CPDFSDK_Annot** %477, i64 %473
  %487 = getelementptr inbounds %class.CPDFSDK_Annot*, %class.CPDFSDK_Annot** %486, i64 -1
  %488 = bitcast %class.CPDFSDK_Annot** %487 to <2 x i64>*
  store <2 x i64> %481, <2 x i64>* %488, align 8, !alias.scope !77, !noalias !74
  %489 = getelementptr inbounds %class.CPDFSDK_Annot*, %class.CPDFSDK_Annot** %486, i64 -2
  %490 = getelementptr inbounds %class.CPDFSDK_Annot*, %class.CPDFSDK_Annot** %489, i64 -1
  %491 = bitcast %class.CPDFSDK_Annot** %490 to <2 x i64>*
  store <2 x i64> %485, <2 x i64>* %491, align 8, !alias.scope !77, !noalias !74
  br label %492

492:                                              ; preds = %472, %475
  %493 = icmp eq i64 %402, %416
  br i1 %493, label %1028, label %494

494:                                              ; preds = %492, %404, %397
  %495 = phi %class.CPDFSDK_Annot** [ %394, %404 ], [ %394, %397 ], [ %418, %492 ]
  %496 = phi %class.CPDFSDK_Annot** [ %393, %404 ], [ %393, %397 ], [ %420, %492 ]
  %497 = getelementptr %class.CPDFSDK_Annot*, %class.CPDFSDK_Annot** %495, i64 -1
  %498 = ptrtoint %class.CPDFSDK_Annot** %497 to i64
  %499 = sub i64 %498, %9
  %500 = lshr i64 %499, 3
  %501 = add nuw nsw i64 %500, 1
  %502 = and i64 %501, 7
  %503 = icmp eq i64 %502, 0
  br i1 %503, label %515, label %504

504:                                              ; preds = %494, %504
  %505 = phi %class.CPDFSDK_Annot** [ %508, %504 ], [ %495, %494 ]
  %506 = phi %class.CPDFSDK_Annot** [ %511, %504 ], [ %496, %494 ]
  %507 = phi i64 [ %513, %504 ], [ %502, %494 ]
  %508 = getelementptr inbounds %class.CPDFSDK_Annot*, %class.CPDFSDK_Annot** %505, i64 -1
  %509 = bitcast %class.CPDFSDK_Annot** %508 to i64*
  %510 = load i64, i64* %509, align 8
  %511 = getelementptr inbounds %class.CPDFSDK_Annot*, %class.CPDFSDK_Annot** %506, i64 -1
  %512 = bitcast %class.CPDFSDK_Annot** %511 to i64*
  store i64 %510, i64* %512, align 8
  %513 = add i64 %507, -1
  %514 = icmp eq i64 %513, 0
  br i1 %514, label %515, label %504, !llvm.loop !80

515:                                              ; preds = %504, %494
  %516 = phi %class.CPDFSDK_Annot** [ %495, %494 ], [ %508, %504 ]
  %517 = phi %class.CPDFSDK_Annot** [ %496, %494 ], [ %511, %504 ]
  %518 = icmp ult i64 %499, 56
  br i1 %518, label %1028, label %519

519:                                              ; preds = %515, %519
  %520 = phi %class.CPDFSDK_Annot** [ %557, %519 ], [ %516, %515 ]
  %521 = phi %class.CPDFSDK_Annot** [ %560, %519 ], [ %517, %515 ]
  %522 = getelementptr inbounds %class.CPDFSDK_Annot*, %class.CPDFSDK_Annot** %520, i64 -1
  %523 = bitcast %class.CPDFSDK_Annot** %522 to i64*
  %524 = load i64, i64* %523, align 8
  %525 = getelementptr inbounds %class.CPDFSDK_Annot*, %class.CPDFSDK_Annot** %521, i64 -1
  %526 = bitcast %class.CPDFSDK_Annot** %525 to i64*
  store i64 %524, i64* %526, align 8
  %527 = getelementptr inbounds %class.CPDFSDK_Annot*, %class.CPDFSDK_Annot** %520, i64 -2
  %528 = bitcast %class.CPDFSDK_Annot** %527 to i64*
  %529 = load i64, i64* %528, align 8
  %530 = getelementptr inbounds %class.CPDFSDK_Annot*, %class.CPDFSDK_Annot** %521, i64 -2
  %531 = bitcast %class.CPDFSDK_Annot** %530 to i64*
  store i64 %529, i64* %531, align 8
  %532 = getelementptr inbounds %class.CPDFSDK_Annot*, %class.CPDFSDK_Annot** %520, i64 -3
  %533 = bitcast %class.CPDFSDK_Annot** %532 to i64*
  %534 = load i64, i64* %533, align 8
  %535 = getelementptr inbounds %class.CPDFSDK_Annot*, %class.CPDFSDK_Annot** %521, i64 -3
  %536 = bitcast %class.CPDFSDK_Annot** %535 to i64*
  store i64 %534, i64* %536, align 8
  %537 = getelementptr inbounds %class.CPDFSDK_Annot*, %class.CPDFSDK_Annot** %520, i64 -4
  %538 = bitcast %class.CPDFSDK_Annot** %537 to i64*
  %539 = load i64, i64* %538, align 8
  %540 = getelementptr inbounds %class.CPDFSDK_Annot*, %class.CPDFSDK_Annot** %521, i64 -4
  %541 = bitcast %class.CPDFSDK_Annot** %540 to i64*
  store i64 %539, i64* %541, align 8
  %542 = getelementptr inbounds %class.CPDFSDK_Annot*, %class.CPDFSDK_Annot** %520, i64 -5
  %543 = bitcast %class.CPDFSDK_Annot** %542 to i64*
  %544 = load i64, i64* %543, align 8
  %545 = getelementptr inbounds %class.CPDFSDK_Annot*, %class.CPDFSDK_Annot** %521, i64 -5
  %546 = bitcast %class.CPDFSDK_Annot** %545 to i64*
  store i64 %544, i64* %546, align 8
  %547 = getelementptr inbounds %class.CPDFSDK_Annot*, %class.CPDFSDK_Annot** %520, i64 -6
  %548 = bitcast %class.CPDFSDK_Annot** %547 to i64*
  %549 = load i64, i64* %548, align 8
  %550 = getelementptr inbounds %class.CPDFSDK_Annot*, %class.CPDFSDK_Annot** %521, i64 -6
  %551 = bitcast %class.CPDFSDK_Annot** %550 to i64*
  store i64 %549, i64* %551, align 8
  %552 = getelementptr inbounds %class.CPDFSDK_Annot*, %class.CPDFSDK_Annot** %520, i64 -7
  %553 = bitcast %class.CPDFSDK_Annot** %552 to i64*
  %554 = load i64, i64* %553, align 8
  %555 = getelementptr inbounds %class.CPDFSDK_Annot*, %class.CPDFSDK_Annot** %521, i64 -7
  %556 = bitcast %class.CPDFSDK_Annot** %555 to i64*
  store i64 %554, i64* %556, align 8
  %557 = getelementptr inbounds %class.CPDFSDK_Annot*, %class.CPDFSDK_Annot** %520, i64 -8
  %558 = bitcast %class.CPDFSDK_Annot** %557 to i64*
  %559 = load i64, i64* %558, align 8
  %560 = getelementptr inbounds %class.CPDFSDK_Annot*, %class.CPDFSDK_Annot** %521, i64 -8
  %561 = bitcast %class.CPDFSDK_Annot** %560 to i64*
  store i64 %559, i64* %561, align 8
  %562 = icmp eq %class.CPDFSDK_Annot** %557, %6
  br i1 %562, label %1028, label %519, !llvm.loop !81

563:                                              ; preds = %392
  %564 = getelementptr inbounds %class.CPDFSDK_Annot*, %class.CPDFSDK_Annot** %395, i64 -1
  %565 = getelementptr inbounds %class.CPDFSDK_Annot*, %class.CPDFSDK_Annot** %394, i64 -1
  %566 = load %class.CPDFSDK_Annot*, %class.CPDFSDK_Annot** %565, align 8
  %567 = load %class.CPDFSDK_Annot*, %class.CPDFSDK_Annot** %564, align 8
  %568 = bitcast %class.CPDFSDK_Annot* %566 to i32 (%class.CPDFSDK_Annot*)***
  %569 = load i32 (%class.CPDFSDK_Annot*)**, i32 (%class.CPDFSDK_Annot*)*** %568, align 8
  %570 = getelementptr inbounds i32 (%class.CPDFSDK_Annot*)*, i32 (%class.CPDFSDK_Annot*)** %569, i64 4
  %571 = load i32 (%class.CPDFSDK_Annot*)*, i32 (%class.CPDFSDK_Annot*)** %570, align 8
  %572 = tail call i32 %571(%class.CPDFSDK_Annot* %566) #9
  %573 = bitcast %class.CPDFSDK_Annot* %567 to i32 (%class.CPDFSDK_Annot*)***
  %574 = load i32 (%class.CPDFSDK_Annot*)**, i32 (%class.CPDFSDK_Annot*)*** %573, align 8
  %575 = getelementptr inbounds i32 (%class.CPDFSDK_Annot*)*, i32 (%class.CPDFSDK_Annot*)** %574, i64 4
  %576 = load i32 (%class.CPDFSDK_Annot*)*, i32 (%class.CPDFSDK_Annot*)** %575, align 8
  %577 = tail call i32 %576(%class.CPDFSDK_Annot* %567) #9
  %578 = icmp slt i32 %572, %577
  %579 = select i1 %578, %class.CPDFSDK_Annot** %564, %class.CPDFSDK_Annot** %565
  %580 = select i1 %578, %class.CPDFSDK_Annot** %564, %class.CPDFSDK_Annot** %395
  %581 = select i1 %578, %class.CPDFSDK_Annot** %394, %class.CPDFSDK_Annot** %565
  %582 = bitcast %class.CPDFSDK_Annot** %579 to i64*
  %583 = load i64, i64* %582, align 8
  %584 = getelementptr inbounds %class.CPDFSDK_Annot*, %class.CPDFSDK_Annot** %393, i64 -1
  %585 = bitcast %class.CPDFSDK_Annot** %584 to i64*
  store i64 %583, i64* %585, align 8
  %586 = getelementptr inbounds %class.CPDFSDK_Annot*, %class.CPDFSDK_Annot** %393, i64 -1
  %587 = icmp eq %class.CPDFSDK_Annot** %581, %6
  br i1 %587, label %1028, label %392

588:                                              ; preds = %200, %588
  %589 = phi %class.CPDFSDK_Annot** [ %630, %588 ], [ %202, %200 ]
  %590 = phi %class.CPDFSDK_Annot** [ %629, %588 ], [ %203, %200 ]
  %591 = bitcast %class.CPDFSDK_Annot** %590 to i64*
  %592 = load i64, i64* %591, align 8
  %593 = bitcast %class.CPDFSDK_Annot** %589 to i64*
  store i64 %592, i64* %593, align 8
  %594 = getelementptr inbounds %class.CPDFSDK_Annot*, %class.CPDFSDK_Annot** %590, i64 1
  %595 = getelementptr inbounds %class.CPDFSDK_Annot*, %class.CPDFSDK_Annot** %589, i64 1
  %596 = bitcast %class.CPDFSDK_Annot** %594 to i64*
  %597 = load i64, i64* %596, align 8
  %598 = bitcast %class.CPDFSDK_Annot** %595 to i64*
  store i64 %597, i64* %598, align 8
  %599 = getelementptr inbounds %class.CPDFSDK_Annot*, %class.CPDFSDK_Annot** %590, i64 2
  %600 = getelementptr inbounds %class.CPDFSDK_Annot*, %class.CPDFSDK_Annot** %589, i64 2
  %601 = bitcast %class.CPDFSDK_Annot** %599 to i64*
  %602 = load i64, i64* %601, align 8
  %603 = bitcast %class.CPDFSDK_Annot** %600 to i64*
  store i64 %602, i64* %603, align 8
  %604 = getelementptr inbounds %class.CPDFSDK_Annot*, %class.CPDFSDK_Annot** %590, i64 3
  %605 = getelementptr inbounds %class.CPDFSDK_Annot*, %class.CPDFSDK_Annot** %589, i64 3
  %606 = bitcast %class.CPDFSDK_Annot** %604 to i64*
  %607 = load i64, i64* %606, align 8
  %608 = bitcast %class.CPDFSDK_Annot** %605 to i64*
  store i64 %607, i64* %608, align 8
  %609 = getelementptr inbounds %class.CPDFSDK_Annot*, %class.CPDFSDK_Annot** %590, i64 4
  %610 = getelementptr inbounds %class.CPDFSDK_Annot*, %class.CPDFSDK_Annot** %589, i64 4
  %611 = bitcast %class.CPDFSDK_Annot** %609 to i64*
  %612 = load i64, i64* %611, align 8
  %613 = bitcast %class.CPDFSDK_Annot** %610 to i64*
  store i64 %612, i64* %613, align 8
  %614 = getelementptr inbounds %class.CPDFSDK_Annot*, %class.CPDFSDK_Annot** %590, i64 5
  %615 = getelementptr inbounds %class.CPDFSDK_Annot*, %class.CPDFSDK_Annot** %589, i64 5
  %616 = bitcast %class.CPDFSDK_Annot** %614 to i64*
  %617 = load i64, i64* %616, align 8
  %618 = bitcast %class.CPDFSDK_Annot** %615 to i64*
  store i64 %617, i64* %618, align 8
  %619 = getelementptr inbounds %class.CPDFSDK_Annot*, %class.CPDFSDK_Annot** %590, i64 6
  %620 = getelementptr inbounds %class.CPDFSDK_Annot*, %class.CPDFSDK_Annot** %589, i64 6
  %621 = bitcast %class.CPDFSDK_Annot** %619 to i64*
  %622 = load i64, i64* %621, align 8
  %623 = bitcast %class.CPDFSDK_Annot** %620 to i64*
  store i64 %622, i64* %623, align 8
  %624 = getelementptr inbounds %class.CPDFSDK_Annot*, %class.CPDFSDK_Annot** %590, i64 7
  %625 = getelementptr inbounds %class.CPDFSDK_Annot*, %class.CPDFSDK_Annot** %589, i64 7
  %626 = bitcast %class.CPDFSDK_Annot** %624 to i64*
  %627 = load i64, i64* %626, align 8
  %628 = bitcast %class.CPDFSDK_Annot** %625 to i64*
  store i64 %627, i64* %628, align 8
  %629 = getelementptr inbounds %class.CPDFSDK_Annot*, %class.CPDFSDK_Annot** %590, i64 8
  %630 = getelementptr inbounds %class.CPDFSDK_Annot*, %class.CPDFSDK_Annot** %589, i64 8
  %631 = icmp eq %class.CPDFSDK_Annot** %629, %15
  br i1 %631, label %389, label %588, !llvm.loop !82

632:                                              ; preds = %25, %649
  %633 = phi i64 [ %16, %25 ], [ %652, %649 ]
  %634 = phi i64 [ %19, %25 ], [ %651, %649 ]
  %635 = load %class.CPDFSDK_Annot*, %class.CPDFSDK_Annot** %26, align 8
  %636 = inttoptr i64 %634 to %class.CPDFSDK_Annot**
  %637 = load %class.CPDFSDK_Annot*, %class.CPDFSDK_Annot** %636, align 8
  %638 = bitcast %class.CPDFSDK_Annot* %635 to i32 (%class.CPDFSDK_Annot*)***
  %639 = load i32 (%class.CPDFSDK_Annot*)**, i32 (%class.CPDFSDK_Annot*)*** %638, align 8
  %640 = getelementptr inbounds i32 (%class.CPDFSDK_Annot*)*, i32 (%class.CPDFSDK_Annot*)** %639, i64 4
  %641 = load i32 (%class.CPDFSDK_Annot*)*, i32 (%class.CPDFSDK_Annot*)** %640, align 8
  %642 = tail call i32 %641(%class.CPDFSDK_Annot* %635) #9
  %643 = bitcast %class.CPDFSDK_Annot* %637 to i32 (%class.CPDFSDK_Annot*)***
  %644 = load i32 (%class.CPDFSDK_Annot*)**, i32 (%class.CPDFSDK_Annot*)*** %643, align 8
  %645 = getelementptr inbounds i32 (%class.CPDFSDK_Annot*)*, i32 (%class.CPDFSDK_Annot*)** %644, i64 4
  %646 = load i32 (%class.CPDFSDK_Annot*)*, i32 (%class.CPDFSDK_Annot*)** %645, align 8
  %647 = tail call i32 %646(%class.CPDFSDK_Annot* %637) #9
  %648 = icmp slt i32 %642, %647
  br i1 %648, label %654, label %649

649:                                              ; preds = %632
  %650 = getelementptr inbounds %class.CPDFSDK_Annot*, %class.CPDFSDK_Annot** %636, i64 1
  %651 = ptrtoint %class.CPDFSDK_Annot** %650 to i64
  %652 = add nsw i64 %633, -1
  %653 = icmp eq i64 %652, 0
  br i1 %653, label %1028, label %632

654:                                              ; preds = %632
  %655 = inttoptr i64 %634 to %class.CPDFSDK_Annot**
  %656 = icmp slt i64 %633, %17
  br i1 %656, label %657, label %694

657:                                              ; preds = %654
  %658 = sdiv i64 %17, 2
  %659 = getelementptr inbounds %class.CPDFSDK_Annot*, %class.CPDFSDK_Annot** %26, i64 %658
  %660 = ptrtoint %class.CPDFSDK_Annot** %659 to i64
  %661 = sub i64 %18, %634
  %662 = icmp eq i64 %661, 0
  br i1 %662, label %689, label %663

663:                                              ; preds = %657
  %664 = ashr exact i64 %661, 3
  br label %665

665:                                              ; preds = %665, %663
  %666 = phi %class.CPDFSDK_Annot** [ %687, %665 ], [ %655, %663 ]
  %667 = phi i64 [ %686, %665 ], [ %664, %663 ]
  %668 = lshr i64 %667, 1
  %669 = getelementptr inbounds %class.CPDFSDK_Annot*, %class.CPDFSDK_Annot** %666, i64 %668
  %670 = load %class.CPDFSDK_Annot*, %class.CPDFSDK_Annot** %659, align 8
  %671 = load %class.CPDFSDK_Annot*, %class.CPDFSDK_Annot** %669, align 8
  %672 = bitcast %class.CPDFSDK_Annot* %670 to i32 (%class.CPDFSDK_Annot*)***
  %673 = load i32 (%class.CPDFSDK_Annot*)**, i32 (%class.CPDFSDK_Annot*)*** %672, align 8
  %674 = getelementptr inbounds i32 (%class.CPDFSDK_Annot*)*, i32 (%class.CPDFSDK_Annot*)** %673, i64 4
  %675 = load i32 (%class.CPDFSDK_Annot*)*, i32 (%class.CPDFSDK_Annot*)** %674, align 8
  %676 = tail call i32 %675(%class.CPDFSDK_Annot* %670) #9
  %677 = bitcast %class.CPDFSDK_Annot* %671 to i32 (%class.CPDFSDK_Annot*)***
  %678 = load i32 (%class.CPDFSDK_Annot*)**, i32 (%class.CPDFSDK_Annot*)*** %677, align 8
  %679 = getelementptr inbounds i32 (%class.CPDFSDK_Annot*)*, i32 (%class.CPDFSDK_Annot*)** %678, i64 4
  %680 = load i32 (%class.CPDFSDK_Annot*)*, i32 (%class.CPDFSDK_Annot*)** %679, align 8
  %681 = tail call i32 %680(%class.CPDFSDK_Annot* %671) #9
  %682 = icmp slt i32 %676, %681
  %683 = getelementptr inbounds %class.CPDFSDK_Annot*, %class.CPDFSDK_Annot** %669, i64 1
  %684 = xor i64 %668, -1
  %685 = add i64 %667, %684
  %686 = select i1 %682, i64 %668, i64 %685
  %687 = select i1 %682, %class.CPDFSDK_Annot** %666, %class.CPDFSDK_Annot** %683
  %688 = icmp eq i64 %686, 0
  br i1 %688, label %689, label %665

689:                                              ; preds = %665, %657
  %690 = phi %class.CPDFSDK_Annot** [ %655, %657 ], [ %687, %665 ]
  %691 = ptrtoint %class.CPDFSDK_Annot** %690 to i64
  %692 = sub i64 %691, %634
  %693 = ashr exact i64 %692, 3
  br label %739

694:                                              ; preds = %654
  %695 = icmp eq i64 %633, 1
  br i1 %695, label %696, label %701

696:                                              ; preds = %694
  %697 = inttoptr i64 %634 to i64*
  %698 = load i64, i64* %697, align 8
  %699 = inttoptr i64 %18 to i64*
  %700 = load i64, i64* %699, align 8
  store i64 %700, i64* %697, align 8
  store i64 %698, i64* %699, align 8
  br label %1028

701:                                              ; preds = %694
  %702 = sdiv i64 %633, 2
  %703 = getelementptr inbounds %class.CPDFSDK_Annot*, %class.CPDFSDK_Annot** %655, i64 %702
  %704 = ptrtoint %class.CPDFSDK_Annot** %703 to i64
  %705 = ptrtoint %class.CPDFSDK_Annot** %15 to i64
  %706 = sub i64 %705, %18
  %707 = icmp eq i64 %706, 0
  br i1 %707, label %734, label %708

708:                                              ; preds = %701
  %709 = ashr exact i64 %706, 3
  br label %710

710:                                              ; preds = %710, %708
  %711 = phi %class.CPDFSDK_Annot** [ %732, %710 ], [ %26, %708 ]
  %712 = phi i64 [ %731, %710 ], [ %709, %708 ]
  %713 = lshr i64 %712, 1
  %714 = getelementptr inbounds %class.CPDFSDK_Annot*, %class.CPDFSDK_Annot** %711, i64 %713
  %715 = load %class.CPDFSDK_Annot*, %class.CPDFSDK_Annot** %714, align 8
  %716 = load %class.CPDFSDK_Annot*, %class.CPDFSDK_Annot** %703, align 8
  %717 = bitcast %class.CPDFSDK_Annot* %715 to i32 (%class.CPDFSDK_Annot*)***
  %718 = load i32 (%class.CPDFSDK_Annot*)**, i32 (%class.CPDFSDK_Annot*)*** %717, align 8
  %719 = getelementptr inbounds i32 (%class.CPDFSDK_Annot*)*, i32 (%class.CPDFSDK_Annot*)** %718, i64 4
  %720 = load i32 (%class.CPDFSDK_Annot*)*, i32 (%class.CPDFSDK_Annot*)** %719, align 8
  %721 = tail call i32 %720(%class.CPDFSDK_Annot* %715) #9
  %722 = bitcast %class.CPDFSDK_Annot* %716 to i32 (%class.CPDFSDK_Annot*)***
  %723 = load i32 (%class.CPDFSDK_Annot*)**, i32 (%class.CPDFSDK_Annot*)*** %722, align 8
  %724 = getelementptr inbounds i32 (%class.CPDFSDK_Annot*)*, i32 (%class.CPDFSDK_Annot*)** %723, i64 4
  %725 = load i32 (%class.CPDFSDK_Annot*)*, i32 (%class.CPDFSDK_Annot*)** %724, align 8
  %726 = tail call i32 %725(%class.CPDFSDK_Annot* %716) #9
  %727 = icmp slt i32 %721, %726
  %728 = getelementptr inbounds %class.CPDFSDK_Annot*, %class.CPDFSDK_Annot** %714, i64 1
  %729 = xor i64 %713, -1
  %730 = add i64 %712, %729
  %731 = select i1 %727, i64 %730, i64 %713
  %732 = select i1 %727, %class.CPDFSDK_Annot** %728, %class.CPDFSDK_Annot** %711
  %733 = icmp eq i64 %731, 0
  br i1 %733, label %734, label %710

734:                                              ; preds = %710, %701
  %735 = phi %class.CPDFSDK_Annot** [ %26, %701 ], [ %732, %710 ]
  %736 = ptrtoint %class.CPDFSDK_Annot** %735 to i64
  %737 = sub i64 %736, %18
  %738 = ashr exact i64 %737, 3
  br label %739

739:                                              ; preds = %734, %689
  %740 = phi i64 [ %691, %689 ], [ %704, %734 ]
  %741 = phi i64 [ %660, %689 ], [ %736, %734 ]
  %742 = phi i64 [ %658, %689 ], [ %738, %734 ]
  %743 = phi i64 [ %693, %689 ], [ %702, %734 ]
  %744 = sub nsw i64 %633, %743
  %745 = sub nsw i64 %17, %742
  %746 = inttoptr i64 %740 to %class.CPDFSDK_Annot**
  %747 = inttoptr i64 %740 to i8*
  %748 = inttoptr i64 %741 to %class.CPDFSDK_Annot**
  %749 = inttoptr i64 %740 to i8*
  %750 = inttoptr i64 %18 to i8*
  %751 = icmp eq %class.CPDFSDK_Annot** %746, %26
  br i1 %751, label %1013, label %752

752:                                              ; preds = %739
  %753 = icmp eq %class.CPDFSDK_Annot** %26, %748
  br i1 %753, label %1013, label %754

754:                                              ; preds = %752
  %755 = getelementptr inbounds %class.CPDFSDK_Annot*, %class.CPDFSDK_Annot** %746, i64 1
  %756 = icmp eq %class.CPDFSDK_Annot** %755, %26
  br i1 %756, label %757, label %767

757:                                              ; preds = %754
  %758 = inttoptr i64 %740 to i64*
  %759 = load i64, i64* %758, align 8
  %760 = sub i64 %741, %18
  %761 = ashr exact i64 %760, 3
  %762 = icmp eq i64 %760, 0
  br i1 %762, label %764, label %763

763:                                              ; preds = %757
  tail call void @llvm.memmove.p0i8.p0i8.i64(i8* align 8 %749, i8* align 8 %750, i64 %760, i1 false) #9
  br label %764

764:                                              ; preds = %763, %757
  %765 = getelementptr inbounds %class.CPDFSDK_Annot*, %class.CPDFSDK_Annot** %746, i64 %761
  %766 = bitcast %class.CPDFSDK_Annot** %765 to i64*
  store i64 %759, i64* %766, align 8
  br label %1013

767:                                              ; preds = %754
  %768 = getelementptr inbounds %class.CPDFSDK_Annot*, %class.CPDFSDK_Annot** %26, i64 1
  %769 = icmp eq %class.CPDFSDK_Annot** %768, %748
  br i1 %769, label %770, label %785

770:                                              ; preds = %767
  %771 = getelementptr inbounds %class.CPDFSDK_Annot*, %class.CPDFSDK_Annot** %748, i64 -1
  %772 = bitcast %class.CPDFSDK_Annot** %771 to i64*
  %773 = load i64, i64* %772, align 8
  %774 = ptrtoint %class.CPDFSDK_Annot** %771 to i64
  %775 = sub i64 %774, %740
  %776 = icmp eq i64 %775, 0
  br i1 %776, label %782, label %777

777:                                              ; preds = %770
  %778 = ashr exact i64 %775, 3
  %779 = sub nsw i64 0, %778
  %780 = getelementptr inbounds %class.CPDFSDK_Annot*, %class.CPDFSDK_Annot** %748, i64 %779
  %781 = bitcast %class.CPDFSDK_Annot** %780 to i8*
  tail call void @llvm.memmove.p0i8.p0i8.i64(i8* align 8 %781, i8* align 8 %749, i64 %775, i1 false) #9
  br label %782

782:                                              ; preds = %777, %770
  %783 = phi %class.CPDFSDK_Annot** [ %780, %777 ], [ %748, %770 ]
  %784 = inttoptr i64 %740 to i64*
  store i64 %773, i64* %784, align 8
  br label %1013

785:                                              ; preds = %767
  %786 = sub i64 %18, %740
  %787 = ashr exact i64 %786, 3
  %788 = sub i64 %741, %18
  %789 = ashr exact i64 %788, 3
  %790 = icmp eq i64 %787, %789
  br i1 %790, label %791, label %943

791:                                              ; preds = %785
  %792 = getelementptr %class.CPDFSDK_Annot*, %class.CPDFSDK_Annot** %26, i64 -1
  %793 = bitcast %class.CPDFSDK_Annot** %792 to i8*
  %794 = sub i64 0, %740
  %795 = getelementptr i8, i8* %793, i64 %794
  %796 = ptrtoint i8* %795 to i64
  %797 = lshr i64 %796, 3
  %798 = add nuw nsw i64 %797, 1
  %799 = icmp ult i64 %798, 4
  br i1 %799, label %888, label %800

800:                                              ; preds = %791
  %801 = getelementptr %class.CPDFSDK_Annot*, %class.CPDFSDK_Annot** %746, i64 1
  %802 = getelementptr %class.CPDFSDK_Annot*, %class.CPDFSDK_Annot** %26, i64 -1
  %803 = bitcast %class.CPDFSDK_Annot** %802 to i8*
  %804 = sub i64 0, %740
  %805 = getelementptr i8, i8* %803, i64 %804
  %806 = ptrtoint i8* %805 to i64
  %807 = lshr i64 %806, 3
  %808 = getelementptr %class.CPDFSDK_Annot*, %class.CPDFSDK_Annot** %801, i64 %807
  %809 = bitcast %class.CPDFSDK_Annot** %808 to i8*
  %810 = getelementptr %class.CPDFSDK_Annot*, %class.CPDFSDK_Annot** %26, i64 1
  %811 = getelementptr %class.CPDFSDK_Annot*, %class.CPDFSDK_Annot** %810, i64 %807
  %812 = bitcast %class.CPDFSDK_Annot** %811 to i8*
  %813 = icmp ult i8* %747, %812
  %814 = icmp ult i8* %27, %809
  %815 = and i1 %813, %814
  br i1 %815, label %888, label %816

816:                                              ; preds = %800
  %817 = and i64 %798, 4611686018427387900
  %818 = getelementptr %class.CPDFSDK_Annot*, %class.CPDFSDK_Annot** %26, i64 %817
  %819 = getelementptr %class.CPDFSDK_Annot*, %class.CPDFSDK_Annot** %746, i64 %817
  %820 = add nsw i64 %817, -4
  %821 = lshr exact i64 %820, 2
  %822 = add nuw nsw i64 %821, 1
  %823 = and i64 %822, 1
  %824 = icmp eq i64 %820, 0
  br i1 %824, label %866, label %825

825:                                              ; preds = %816
  %826 = sub nuw nsw i64 %822, %823
  br label %827

827:                                              ; preds = %827, %825
  %828 = phi i64 [ 0, %825 ], [ %863, %827 ]
  %829 = phi i64 [ %826, %825 ], [ %864, %827 ]
  %830 = getelementptr %class.CPDFSDK_Annot*, %class.CPDFSDK_Annot** %26, i64 %828
  %831 = getelementptr %class.CPDFSDK_Annot*, %class.CPDFSDK_Annot** %746, i64 %828
  %832 = bitcast %class.CPDFSDK_Annot** %831 to <2 x i64>*
  %833 = load <2 x i64>, <2 x i64>* %832, align 8, !alias.scope !83, !noalias !86
  %834 = getelementptr %class.CPDFSDK_Annot*, %class.CPDFSDK_Annot** %831, i64 2
  %835 = bitcast %class.CPDFSDK_Annot** %834 to <2 x i64>*
  %836 = load <2 x i64>, <2 x i64>* %835, align 8, !alias.scope !83, !noalias !86
  %837 = bitcast %class.CPDFSDK_Annot** %830 to <2 x i64>*
  %838 = load <2 x i64>, <2 x i64>* %837, align 8, !alias.scope !86
  %839 = getelementptr %class.CPDFSDK_Annot*, %class.CPDFSDK_Annot** %830, i64 2
  %840 = bitcast %class.CPDFSDK_Annot** %839 to <2 x i64>*
  %841 = load <2 x i64>, <2 x i64>* %840, align 8, !alias.scope !86
  %842 = bitcast %class.CPDFSDK_Annot** %831 to <2 x i64>*
  store <2 x i64> %838, <2 x i64>* %842, align 8, !alias.scope !83, !noalias !86
  %843 = bitcast %class.CPDFSDK_Annot** %834 to <2 x i64>*
  store <2 x i64> %841, <2 x i64>* %843, align 8, !alias.scope !83, !noalias !86
  %844 = bitcast %class.CPDFSDK_Annot** %830 to <2 x i64>*
  store <2 x i64> %833, <2 x i64>* %844, align 8, !alias.scope !86
  %845 = bitcast %class.CPDFSDK_Annot** %839 to <2 x i64>*
  store <2 x i64> %836, <2 x i64>* %845, align 8, !alias.scope !86
  %846 = or i64 %828, 4
  %847 = getelementptr %class.CPDFSDK_Annot*, %class.CPDFSDK_Annot** %26, i64 %846
  %848 = getelementptr %class.CPDFSDK_Annot*, %class.CPDFSDK_Annot** %746, i64 %846
  %849 = bitcast %class.CPDFSDK_Annot** %848 to <2 x i64>*
  %850 = load <2 x i64>, <2 x i64>* %849, align 8, !alias.scope !83, !noalias !86
  %851 = getelementptr %class.CPDFSDK_Annot*, %class.CPDFSDK_Annot** %848, i64 2
  %852 = bitcast %class.CPDFSDK_Annot** %851 to <2 x i64>*
  %853 = load <2 x i64>, <2 x i64>* %852, align 8, !alias.scope !83, !noalias !86
  %854 = bitcast %class.CPDFSDK_Annot** %847 to <2 x i64>*
  %855 = load <2 x i64>, <2 x i64>* %854, align 8, !alias.scope !86
  %856 = getelementptr %class.CPDFSDK_Annot*, %class.CPDFSDK_Annot** %847, i64 2
  %857 = bitcast %class.CPDFSDK_Annot** %856 to <2 x i64>*
  %858 = load <2 x i64>, <2 x i64>* %857, align 8, !alias.scope !86
  %859 = bitcast %class.CPDFSDK_Annot** %848 to <2 x i64>*
  store <2 x i64> %855, <2 x i64>* %859, align 8, !alias.scope !83, !noalias !86
  %860 = bitcast %class.CPDFSDK_Annot** %851 to <2 x i64>*
  store <2 x i64> %858, <2 x i64>* %860, align 8, !alias.scope !83, !noalias !86
  %861 = bitcast %class.CPDFSDK_Annot** %847 to <2 x i64>*
  store <2 x i64> %850, <2 x i64>* %861, align 8, !alias.scope !86
  %862 = bitcast %class.CPDFSDK_Annot** %856 to <2 x i64>*
  store <2 x i64> %853, <2 x i64>* %862, align 8, !alias.scope !86
  %863 = add i64 %828, 8
  %864 = add i64 %829, -2
  %865 = icmp eq i64 %864, 0
  br i1 %865, label %866, label %827, !llvm.loop !88

866:                                              ; preds = %827, %816
  %867 = phi i64 [ 0, %816 ], [ %863, %827 ]
  %868 = icmp eq i64 %823, 0
  br i1 %868, label %886, label %869

869:                                              ; preds = %866
  %870 = getelementptr %class.CPDFSDK_Annot*, %class.CPDFSDK_Annot** %26, i64 %867
  %871 = getelementptr %class.CPDFSDK_Annot*, %class.CPDFSDK_Annot** %746, i64 %867
  %872 = bitcast %class.CPDFSDK_Annot** %871 to <2 x i64>*
  %873 = load <2 x i64>, <2 x i64>* %872, align 8, !alias.scope !83, !noalias !86
  %874 = getelementptr %class.CPDFSDK_Annot*, %class.CPDFSDK_Annot** %871, i64 2
  %875 = bitcast %class.CPDFSDK_Annot** %874 to <2 x i64>*
  %876 = load <2 x i64>, <2 x i64>* %875, align 8, !alias.scope !83, !noalias !86
  %877 = bitcast %class.CPDFSDK_Annot** %870 to <2 x i64>*
  %878 = load <2 x i64>, <2 x i64>* %877, align 8, !alias.scope !86
  %879 = getelementptr %class.CPDFSDK_Annot*, %class.CPDFSDK_Annot** %870, i64 2
  %880 = bitcast %class.CPDFSDK_Annot** %879 to <2 x i64>*
  %881 = load <2 x i64>, <2 x i64>* %880, align 8, !alias.scope !86
  %882 = bitcast %class.CPDFSDK_Annot** %871 to <2 x i64>*
  store <2 x i64> %878, <2 x i64>* %882, align 8, !alias.scope !83, !noalias !86
  %883 = bitcast %class.CPDFSDK_Annot** %874 to <2 x i64>*
  store <2 x i64> %881, <2 x i64>* %883, align 8, !alias.scope !83, !noalias !86
  %884 = bitcast %class.CPDFSDK_Annot** %870 to <2 x i64>*
  store <2 x i64> %873, <2 x i64>* %884, align 8, !alias.scope !86
  %885 = bitcast %class.CPDFSDK_Annot** %879 to <2 x i64>*
  store <2 x i64> %876, <2 x i64>* %885, align 8, !alias.scope !86
  br label %886

886:                                              ; preds = %866, %869
  %887 = icmp eq i64 %798, %817
  br i1 %887, label %1013, label %888

888:                                              ; preds = %886, %800, %791
  %889 = phi %class.CPDFSDK_Annot** [ %26, %800 ], [ %26, %791 ], [ %818, %886 ]
  %890 = phi %class.CPDFSDK_Annot** [ %746, %800 ], [ %746, %791 ], [ %819, %886 ]
  %891 = ptrtoint %class.CPDFSDK_Annot** %890 to i64
  %892 = getelementptr %class.CPDFSDK_Annot*, %class.CPDFSDK_Annot** %26, i64 -1
  %893 = ptrtoint %class.CPDFSDK_Annot** %892 to i64
  %894 = sub i64 %893, %891
  %895 = lshr i64 %894, 3
  %896 = add nuw nsw i64 %895, 1
  %897 = and i64 %896, 3
  %898 = icmp eq i64 %897, 0
  br i1 %898, label %911, label %899

899:                                              ; preds = %888, %899
  %900 = phi %class.CPDFSDK_Annot** [ %908, %899 ], [ %889, %888 ]
  %901 = phi %class.CPDFSDK_Annot** [ %907, %899 ], [ %890, %888 ]
  %902 = phi i64 [ %909, %899 ], [ %897, %888 ]
  %903 = bitcast %class.CPDFSDK_Annot** %901 to i64*
  %904 = load i64, i64* %903, align 8
  %905 = bitcast %class.CPDFSDK_Annot** %900 to i64*
  %906 = load i64, i64* %905, align 8
  store i64 %906, i64* %903, align 8
  store i64 %904, i64* %905, align 8
  %907 = getelementptr inbounds %class.CPDFSDK_Annot*, %class.CPDFSDK_Annot** %901, i64 1
  %908 = getelementptr inbounds %class.CPDFSDK_Annot*, %class.CPDFSDK_Annot** %900, i64 1
  %909 = add i64 %902, -1
  %910 = icmp eq i64 %909, 0
  br i1 %910, label %911, label %899, !llvm.loop !89

911:                                              ; preds = %899, %888
  %912 = phi %class.CPDFSDK_Annot** [ %889, %888 ], [ %908, %899 ]
  %913 = phi %class.CPDFSDK_Annot** [ %890, %888 ], [ %907, %899 ]
  %914 = icmp ult i64 %894, 24
  br i1 %914, label %1013, label %915

915:                                              ; preds = %911, %915
  %916 = phi %class.CPDFSDK_Annot** [ %941, %915 ], [ %912, %911 ]
  %917 = phi %class.CPDFSDK_Annot** [ %940, %915 ], [ %913, %911 ]
  %918 = bitcast %class.CPDFSDK_Annot** %917 to i64*
  %919 = load i64, i64* %918, align 8
  %920 = bitcast %class.CPDFSDK_Annot** %916 to i64*
  %921 = load i64, i64* %920, align 8
  store i64 %921, i64* %918, align 8
  store i64 %919, i64* %920, align 8
  %922 = getelementptr inbounds %class.CPDFSDK_Annot*, %class.CPDFSDK_Annot** %917, i64 1
  %923 = getelementptr inbounds %class.CPDFSDK_Annot*, %class.CPDFSDK_Annot** %916, i64 1
  %924 = bitcast %class.CPDFSDK_Annot** %922 to i64*
  %925 = load i64, i64* %924, align 8
  %926 = bitcast %class.CPDFSDK_Annot** %923 to i64*
  %927 = load i64, i64* %926, align 8
  store i64 %927, i64* %924, align 8
  store i64 %925, i64* %926, align 8
  %928 = getelementptr inbounds %class.CPDFSDK_Annot*, %class.CPDFSDK_Annot** %917, i64 2
  %929 = getelementptr inbounds %class.CPDFSDK_Annot*, %class.CPDFSDK_Annot** %916, i64 2
  %930 = bitcast %class.CPDFSDK_Annot** %928 to i64*
  %931 = load i64, i64* %930, align 8
  %932 = bitcast %class.CPDFSDK_Annot** %929 to i64*
  %933 = load i64, i64* %932, align 8
  store i64 %933, i64* %930, align 8
  store i64 %931, i64* %932, align 8
  %934 = getelementptr inbounds %class.CPDFSDK_Annot*, %class.CPDFSDK_Annot** %917, i64 3
  %935 = getelementptr inbounds %class.CPDFSDK_Annot*, %class.CPDFSDK_Annot** %916, i64 3
  %936 = bitcast %class.CPDFSDK_Annot** %934 to i64*
  %937 = load i64, i64* %936, align 8
  %938 = bitcast %class.CPDFSDK_Annot** %935 to i64*
  %939 = load i64, i64* %938, align 8
  store i64 %939, i64* %936, align 8
  store i64 %937, i64* %938, align 8
  %940 = getelementptr inbounds %class.CPDFSDK_Annot*, %class.CPDFSDK_Annot** %917, i64 4
  %941 = getelementptr inbounds %class.CPDFSDK_Annot*, %class.CPDFSDK_Annot** %916, i64 4
  %942 = icmp eq %class.CPDFSDK_Annot** %940, %26
  br i1 %942, label %1013, label %915, !llvm.loop !90

943:                                              ; preds = %785, %943
  %944 = phi i64 [ %946, %943 ], [ %789, %785 ]
  %945 = phi i64 [ %944, %943 ], [ %787, %785 ]
  %946 = srem i64 %945, %944
  %947 = icmp eq i64 %946, 0
  br i1 %947, label %948, label %943

948:                                              ; preds = %943
  %949 = icmp eq i64 %944, 0
  br i1 %949, label %982, label %950

950:                                              ; preds = %948
  %951 = getelementptr inbounds %class.CPDFSDK_Annot*, %class.CPDFSDK_Annot** %746, i64 %944
  %952 = shl nsw i64 %944, 3
  %953 = add i64 %952, -8
  %954 = and i64 %953, 8
  %955 = icmp eq i64 %954, 0
  br i1 %955, label %956, label %979

956:                                              ; preds = %950
  %957 = getelementptr inbounds %class.CPDFSDK_Annot*, %class.CPDFSDK_Annot** %951, i64 -1
  %958 = ptrtoint %class.CPDFSDK_Annot** %957 to i64
  %959 = bitcast %class.CPDFSDK_Annot** %957 to i64*
  %960 = load i64, i64* %959, align 8
  %961 = getelementptr inbounds %class.CPDFSDK_Annot*, %class.CPDFSDK_Annot** %957, i64 %787
  br label %962

962:                                              ; preds = %962, %956
  %963 = phi i64 [ %958, %956 ], [ %965, %962 ]
  %964 = phi %class.CPDFSDK_Annot** [ %961, %956 ], [ %975, %962 ]
  %965 = ptrtoint %class.CPDFSDK_Annot** %964 to i64
  %966 = bitcast %class.CPDFSDK_Annot** %964 to i64*
  %967 = load i64, i64* %966, align 8
  %968 = inttoptr i64 %963 to i64*
  store i64 %967, i64* %968, align 8
  %969 = sub i64 %741, %965
  %970 = ashr exact i64 %969, 3
  %971 = icmp slt i64 %787, %970
  %972 = getelementptr inbounds %class.CPDFSDK_Annot*, %class.CPDFSDK_Annot** %964, i64 %787
  %973 = sub nsw i64 %787, %970
  %974 = getelementptr inbounds %class.CPDFSDK_Annot*, %class.CPDFSDK_Annot** %746, i64 %973
  %975 = select i1 %971, %class.CPDFSDK_Annot** %972, %class.CPDFSDK_Annot** %974
  %976 = icmp eq %class.CPDFSDK_Annot** %975, %957
  br i1 %976, label %977, label %962

977:                                              ; preds = %962
  %978 = bitcast %class.CPDFSDK_Annot** %964 to i64*
  store i64 %960, i64* %978, align 8
  br label %979

979:                                              ; preds = %977, %950
  %980 = phi %class.CPDFSDK_Annot** [ %957, %977 ], [ %951, %950 ]
  %981 = icmp eq i64 %953, 0
  br i1 %981, label %982, label %984

982:                                              ; preds = %979, %1044, %948
  %983 = getelementptr inbounds %class.CPDFSDK_Annot*, %class.CPDFSDK_Annot** %746, i64 %789
  br label %1013

984:                                              ; preds = %979, %1044
  %985 = phi %class.CPDFSDK_Annot** [ %1008, %1044 ], [ %980, %979 ]
  %986 = getelementptr inbounds %class.CPDFSDK_Annot*, %class.CPDFSDK_Annot** %985, i64 -1
  %987 = ptrtoint %class.CPDFSDK_Annot** %986 to i64
  %988 = bitcast %class.CPDFSDK_Annot** %986 to i64*
  %989 = load i64, i64* %988, align 8
  %990 = getelementptr inbounds %class.CPDFSDK_Annot*, %class.CPDFSDK_Annot** %986, i64 %787
  br label %991

991:                                              ; preds = %991, %984
  %992 = phi i64 [ %987, %984 ], [ %994, %991 ]
  %993 = phi %class.CPDFSDK_Annot** [ %990, %984 ], [ %1004, %991 ]
  %994 = ptrtoint %class.CPDFSDK_Annot** %993 to i64
  %995 = bitcast %class.CPDFSDK_Annot** %993 to i64*
  %996 = load i64, i64* %995, align 8
  %997 = inttoptr i64 %992 to i64*
  store i64 %996, i64* %997, align 8
  %998 = sub i64 %741, %994
  %999 = ashr exact i64 %998, 3
  %1000 = icmp slt i64 %787, %999
  %1001 = getelementptr inbounds %class.CPDFSDK_Annot*, %class.CPDFSDK_Annot** %993, i64 %787
  %1002 = sub nsw i64 %787, %999
  %1003 = getelementptr inbounds %class.CPDFSDK_Annot*, %class.CPDFSDK_Annot** %746, i64 %1002
  %1004 = select i1 %1000, %class.CPDFSDK_Annot** %1001, %class.CPDFSDK_Annot** %1003
  %1005 = icmp eq %class.CPDFSDK_Annot** %1004, %986
  br i1 %1005, label %1006, label %991

1006:                                             ; preds = %991
  %1007 = bitcast %class.CPDFSDK_Annot** %993 to i64*
  store i64 %989, i64* %1007, align 8
  %1008 = getelementptr inbounds %class.CPDFSDK_Annot*, %class.CPDFSDK_Annot** %985, i64 -2
  %1009 = ptrtoint %class.CPDFSDK_Annot** %1008 to i64
  %1010 = bitcast %class.CPDFSDK_Annot** %1008 to i64*
  %1011 = load i64, i64* %1010, align 8
  %1012 = getelementptr inbounds %class.CPDFSDK_Annot*, %class.CPDFSDK_Annot** %1008, i64 %787
  br label %1029

1013:                                             ; preds = %911, %915, %886, %739, %752, %764, %782, %982
  %1014 = phi %class.CPDFSDK_Annot** [ %746, %752 ], [ %748, %739 ], [ %765, %764 ], [ %783, %782 ], [ %983, %982 ], [ %26, %886 ], [ %26, %915 ], [ %26, %911 ]
  %1015 = add nsw i64 %743, %742
  %1016 = add nsw i64 %744, %745
  %1017 = icmp slt i64 %1015, %1016
  br i1 %1017, label %1018, label %1020

1018:                                             ; preds = %1013
  %1019 = ptrtoint %class.CPDFSDK_Annot** %1014 to i64
  tail call fastcc void @"_ZNSt3__115__inplace_mergeIRZN22CPDFSDK_AnnotIterationC1EP16CPDFSDK_PageViewbE3$_0NS_11__wrap_iterIPP13CPDFSDK_AnnotEEEEvT0_SB_SB_T_NS_15iterator_traitsISB_E15difference_typeESF_PNSE_10value_typeEl"(%class.CPDFSDK_Annot** %655, %class.CPDFSDK_Annot** %746, %class.CPDFSDK_Annot** %1014, %class.anon* dereferenceable(1) %3, i64 %743, i64 %742, %class.CPDFSDK_Annot** %6, i64 %7)
  br label %1021

1020:                                             ; preds = %1013
  tail call fastcc void @"_ZNSt3__115__inplace_mergeIRZN22CPDFSDK_AnnotIterationC1EP16CPDFSDK_PageViewbE3$_0NS_11__wrap_iterIPP13CPDFSDK_AnnotEEEEvT0_SB_SB_T_NS_15iterator_traitsISB_E15difference_typeESF_PNSE_10value_typeEl"(%class.CPDFSDK_Annot** %1014, %class.CPDFSDK_Annot** %748, %class.CPDFSDK_Annot** %15, %class.anon* dereferenceable(1) %3, i64 %744, i64 %745, %class.CPDFSDK_Annot** %6, i64 %7)
  br label %1021

1021:                                             ; preds = %1018, %1020
  %1022 = phi i64 [ %1019, %1018 ], [ %634, %1020 ]
  %1023 = phi i64 [ %741, %1018 ], [ %740, %1020 ]
  %1024 = phi i64 [ %745, %1018 ], [ %742, %1020 ]
  %1025 = phi i64 [ %744, %1018 ], [ %743, %1020 ]
  %1026 = phi %class.CPDFSDK_Annot** [ %15, %1018 ], [ %1014, %1020 ]
  %1027 = icmp eq i64 %1024, 0
  br i1 %1027, label %1028, label %14

1028:                                             ; preds = %1021, %23, %649, %340, %563, %515, %519, %492, %8, %696, %389, %313, %308, %300, %167, %34
  ret void

1029:                                             ; preds = %1029, %1006
  %1030 = phi i64 [ %1009, %1006 ], [ %1032, %1029 ]
  %1031 = phi %class.CPDFSDK_Annot** [ %1012, %1006 ], [ %1042, %1029 ]
  %1032 = ptrtoint %class.CPDFSDK_Annot** %1031 to i64
  %1033 = bitcast %class.CPDFSDK_Annot** %1031 to i64*
  %1034 = load i64, i64* %1033, align 8
  %1035 = inttoptr i64 %1030 to i64*
  store i64 %1034, i64* %1035, align 8
  %1036 = sub i64 %741, %1032
  %1037 = ashr exact i64 %1036, 3
  %1038 = icmp slt i64 %787, %1037
  %1039 = getelementptr inbounds %class.CPDFSDK_Annot*, %class.CPDFSDK_Annot** %1031, i64 %787
  %1040 = sub nsw i64 %787, %1037
  %1041 = getelementptr inbounds %class.CPDFSDK_Annot*, %class.CPDFSDK_Annot** %746, i64 %1040
  %1042 = select i1 %1038, %class.CPDFSDK_Annot** %1039, %class.CPDFSDK_Annot** %1041
  %1043 = icmp eq %class.CPDFSDK_Annot** %1042, %1008
  br i1 %1043, label %1044, label %1029

1044:                                             ; preds = %1029
  %1045 = bitcast %class.CPDFSDK_Annot** %1031 to i64*
  store i64 %1011, i64* %1045, align 8
  %1046 = icmp eq %class.CPDFSDK_Annot** %1008, %746
  br i1 %1046, label %982, label %984
}

; Function Attrs: argmemonly nounwind
declare void @llvm.memmove.p0i8.p0i8.i64(i8* nocapture, i8* nocapture readonly, i64, i1 immarg) #1

; Function Attrs: argmemonly nounwind
declare void @llvm.memset.p0i8.i64(i8* nocapture writeonly, i8, i64, i1 immarg) #1

declare void @_ZN5fxcrt10Observable11AddObserverEPNS0_13ObserverIfaceE(%"class.fxcrt::Observable"*, %"class.fxcrt::Observable::ObserverIface"*) local_unnamed_addr #2

; Function Attrs: inlinehint nounwind ssp uwtable
define linkonce_odr hidden void @_ZNSt3__16vectorIN5fxcrt11ObservedPtrI13CPDFSDK_AnnotEENS_9allocatorIS4_EEE24__emplace_back_slow_pathIJRPS3_EEEvDpOT_(%"class.std::__1::vector"*, %class.CPDFSDK_Annot** dereferenceable(8)) local_unnamed_addr #8 comdat align 2 {
  %3 = getelementptr inbounds %"class.std::__1::vector", %"class.std::__1::vector"* %0, i64 0, i32 0, i32 1
  %4 = bitcast %"class.fxcrt::ObservedPtr"** %3 to i64*
  %5 = load i64, i64* %4, align 8
  %6 = bitcast %"class.std::__1::vector"* %0 to i64*
  %7 = load i64, i64* %6, align 8
  %8 = sub i64 %5, %7
  %9 = ashr exact i64 %8, 4
  %10 = add nsw i64 %9, 1
  %11 = icmp ugt i64 %10, 1152921504606846975
  br i1 %11, label %12, label %14

12:                                               ; preds = %2
  %13 = bitcast %"class.std::__1::vector"* %0 to %"class.std::__1::__vector_base_common"*
  tail call void @_ZNKSt3__120__vector_base_commonILb1EE20__throw_length_errorEv(%"class.std::__1::__vector_base_common"* %13) #10
  unreachable

14:                                               ; preds = %2
  %15 = getelementptr inbounds %"class.std::__1::vector", %"class.std::__1::vector"* %0, i64 0, i32 0, i32 2, i32 0, i32 0
  %16 = bitcast %"class.fxcrt::ObservedPtr"** %15 to i64*
  %17 = load i64, i64* %16, align 8
  %18 = sub i64 %17, %7
  %19 = ashr exact i64 %18, 4
  %20 = icmp ult i64 %19, 576460752303423487
  br i1 %20, label %21, label %29

21:                                               ; preds = %14
  %22 = ashr exact i64 %18, 3
  %23 = icmp ult i64 %22, %10
  %24 = select i1 %23, i64 %10, i64 %22
  %25 = icmp eq i64 %24, 0
  br i1 %25, label %34, label %26

26:                                               ; preds = %21
  %27 = icmp ugt i64 %24, 1152921504606846975
  br i1 %27, label %28, label %29

28:                                               ; preds = %26
  tail call void @abort() #10
  unreachable

29:                                               ; preds = %14, %26
  %30 = phi i64 [ %24, %26 ], [ 1152921504606846975, %14 ]
  %31 = shl i64 %30, 4
  %32 = tail call i8* @_Znwm(i64 %31) #11
  %33 = bitcast i8* %32 to %"class.fxcrt::ObservedPtr"*
  br label %34

34:                                               ; preds = %21, %29
  %35 = phi i64 [ %30, %29 ], [ 0, %21 ]
  %36 = phi %"class.fxcrt::ObservedPtr"* [ %33, %29 ], [ null, %21 ]
  %37 = getelementptr inbounds %"class.fxcrt::ObservedPtr", %"class.fxcrt::ObservedPtr"* %36, i64 %9
  %38 = getelementptr inbounds %"class.fxcrt::ObservedPtr", %"class.fxcrt::ObservedPtr"* %36, i64 %35
  %39 = ptrtoint %"class.fxcrt::ObservedPtr"* %38 to i64
  %40 = load %class.CPDFSDK_Annot*, %class.CPDFSDK_Annot** %1, align 8
  %41 = getelementptr inbounds %"class.fxcrt::ObservedPtr", %"class.fxcrt::ObservedPtr"* %37, i64 0, i32 0, i32 0
  store i32 (...)** bitcast (i8** getelementptr inbounds ({ [5 x i8*] }, { [5 x i8*] }* @_ZTVN5fxcrt11ObservedPtrI13CPDFSDK_AnnotEE, i64 0, inrange i32 0, i64 2) to i32 (...)**), i32 (...)*** %41, align 8
  %42 = getelementptr inbounds %"class.fxcrt::ObservedPtr", %"class.fxcrt::ObservedPtr"* %36, i64 %9, i32 1
  store %class.CPDFSDK_Annot* %40, %class.CPDFSDK_Annot** %42, align 8
  %43 = icmp eq %class.CPDFSDK_Annot* %40, null
  br i1 %43, label %47, label %44

44:                                               ; preds = %34
  %45 = getelementptr inbounds %"class.fxcrt::ObservedPtr", %"class.fxcrt::ObservedPtr"* %37, i64 0, i32 0
  %46 = getelementptr inbounds %class.CPDFSDK_Annot, %class.CPDFSDK_Annot* %40, i64 0, i32 1
  tail call void @_ZN5fxcrt10Observable11AddObserverEPNS0_13ObserverIfaceE(%"class.fxcrt::Observable"* %46, %"class.fxcrt::Observable::ObserverIface"* %45) #9
  br label %47

47:                                               ; preds = %34, %44
  %48 = getelementptr inbounds %"class.fxcrt::ObservedPtr", %"class.fxcrt::ObservedPtr"* %37, i64 1
  %49 = ptrtoint %"class.fxcrt::ObservedPtr"* %48 to i64
  %50 = getelementptr inbounds %"class.std::__1::vector", %"class.std::__1::vector"* %0, i64 0, i32 0, i32 0
  %51 = load %"class.fxcrt::ObservedPtr"*, %"class.fxcrt::ObservedPtr"** %50, align 8
  %52 = load %"class.fxcrt::ObservedPtr"*, %"class.fxcrt::ObservedPtr"** %3, align 8
  %53 = icmp eq %"class.fxcrt::ObservedPtr"* %52, %51
  br i1 %53, label %54, label %56

54:                                               ; preds = %47
  %55 = ptrtoint %"class.fxcrt::ObservedPtr"* %51 to i64
  br label %74

56:                                               ; preds = %47, %69
  %57 = phi %"class.fxcrt::ObservedPtr"* [ %59, %69 ], [ %37, %47 ]
  %58 = phi %"class.fxcrt::ObservedPtr"* [ %60, %69 ], [ %52, %47 ]
  %59 = getelementptr inbounds %"class.fxcrt::ObservedPtr", %"class.fxcrt::ObservedPtr"* %57, i64 -1
  %60 = getelementptr inbounds %"class.fxcrt::ObservedPtr", %"class.fxcrt::ObservedPtr"* %58, i64 -1
  %61 = getelementptr inbounds %"class.fxcrt::ObservedPtr", %"class.fxcrt::ObservedPtr"* %58, i64 -1, i32 1
  %62 = load %class.CPDFSDK_Annot*, %class.CPDFSDK_Annot** %61, align 8
  %63 = getelementptr inbounds %"class.fxcrt::ObservedPtr", %"class.fxcrt::ObservedPtr"* %59, i64 0, i32 0, i32 0
  store i32 (...)** bitcast (i8** getelementptr inbounds ({ [5 x i8*] }, { [5 x i8*] }* @_ZTVN5fxcrt11ObservedPtrI13CPDFSDK_AnnotEE, i64 0, inrange i32 0, i64 2) to i32 (...)**), i32 (...)*** %63, align 8
  %64 = getelementptr inbounds %"class.fxcrt::ObservedPtr", %"class.fxcrt::ObservedPtr"* %57, i64 -1, i32 1
  store %class.CPDFSDK_Annot* %62, %class.CPDFSDK_Annot** %64, align 8
  %65 = icmp eq %class.CPDFSDK_Annot* %62, null
  br i1 %65, label %69, label %66

66:                                               ; preds = %56
  %67 = getelementptr inbounds %"class.fxcrt::ObservedPtr", %"class.fxcrt::ObservedPtr"* %59, i64 0, i32 0
  %68 = getelementptr inbounds %class.CPDFSDK_Annot, %class.CPDFSDK_Annot* %62, i64 0, i32 1
  tail call void @_ZN5fxcrt10Observable11AddObserverEPNS0_13ObserverIfaceE(%"class.fxcrt::Observable"* %68, %"class.fxcrt::Observable::ObserverIface"* %67) #9
  br label %69

69:                                               ; preds = %66, %56
  %70 = icmp eq %"class.fxcrt::ObservedPtr"* %60, %51
  br i1 %70, label %71, label %56

71:                                               ; preds = %69
  %72 = load i64, i64* %6, align 8
  %73 = load %"class.fxcrt::ObservedPtr"*, %"class.fxcrt::ObservedPtr"** %3, align 8
  br label %74

74:                                               ; preds = %54, %71
  %75 = phi %"class.fxcrt::ObservedPtr"* [ %51, %54 ], [ %73, %71 ]
  %76 = phi %"class.fxcrt::ObservedPtr"* [ %37, %54 ], [ %59, %71 ]
  %77 = phi i64 [ %55, %54 ], [ %72, %71 ]
  %78 = ptrtoint %"class.fxcrt::ObservedPtr"* %76 to i64
  store i64 %78, i64* %6, align 8
  store i64 %49, i64* %4, align 8
  store i64 %39, i64* %16, align 8
  %79 = inttoptr i64 %77 to %"class.fxcrt::ObservedPtr"*
  %80 = icmp eq %"class.fxcrt::ObservedPtr"* %75, %79
  br i1 %80, label %93, label %81

81:                                               ; preds = %74, %91
  %82 = phi %"class.fxcrt::ObservedPtr"* [ %83, %91 ], [ %75, %74 ]
  %83 = getelementptr inbounds %"class.fxcrt::ObservedPtr", %"class.fxcrt::ObservedPtr"* %82, i64 -1
  %84 = getelementptr inbounds %"class.fxcrt::ObservedPtr", %"class.fxcrt::ObservedPtr"* %83, i64 0, i32 0, i32 0
  store i32 (...)** bitcast (i8** getelementptr inbounds ({ [5 x i8*] }, { [5 x i8*] }* @_ZTVN5fxcrt11ObservedPtrI13CPDFSDK_AnnotEE, i64 0, inrange i32 0, i64 2) to i32 (...)**), i32 (...)*** %84, align 8
  %85 = getelementptr inbounds %"class.fxcrt::ObservedPtr", %"class.fxcrt::ObservedPtr"* %82, i64 -1, i32 1
  %86 = load %class.CPDFSDK_Annot*, %class.CPDFSDK_Annot** %85, align 8
  %87 = icmp eq %class.CPDFSDK_Annot* %86, null
  br i1 %87, label %91, label %88

88:                                               ; preds = %81
  %89 = getelementptr inbounds %class.CPDFSDK_Annot, %class.CPDFSDK_Annot* %86, i64 0, i32 1
  %90 = getelementptr inbounds %"class.fxcrt::ObservedPtr", %"class.fxcrt::ObservedPtr"* %83, i64 0, i32 0
  tail call void @_ZN5fxcrt10Observable14RemoveObserverEPNS0_13ObserverIfaceE(%"class.fxcrt::Observable"* %89, %"class.fxcrt::Observable::ObserverIface"* %90) #9
  br label %91

91:                                               ; preds = %88, %81
  %92 = icmp eq %"class.fxcrt::ObservedPtr"* %83, %79
  br i1 %92, label %93, label %81

93:                                               ; preds = %91, %74
  %94 = icmp eq i64 %77, 0
  br i1 %94, label %97, label %95

95:                                               ; preds = %93
  %96 = inttoptr i64 %77 to i8*
  tail call void @_ZdlPv(i8* %96) #11
  br label %97

97:                                               ; preds = %93, %95
  ret void
}

attributes #0 = { nounwind ssp uwtable "correctly-rounded-divide-sqrt-fp-math"="false" "disable-tail-calls"="false" "less-precise-fpmad"="false" "min-legal-vector-width"="0" "no-frame-pointer-elim"="false" "no-frame-pointer-elim-non-leaf" "no-infs-fp-math"="false" "no-jump-tables"="false" "no-nans-fp-math"="false" "no-signed-zeros-fp-math"="false" "no-trapping-math"="false" "null-pointer-is-valid"="true" "stack-protector-buffer-size"="4" "target-cpu"="x86-64" "target-features"="+cx8,+fxsr,+mmx,+sse,+sse2,+sse3,+x87" "unsafe-fp-math"="false" "use-soft-float"="false" }
attributes #1 = { argmemonly nounwind }
attributes #2 = { "correctly-rounded-divide-sqrt-fp-math"="false" "disable-tail-calls"="false" "less-precise-fpmad"="false" "no-frame-pointer-elim"="false" "no-frame-pointer-elim-non-leaf" "no-infs-fp-math"="false" "no-nans-fp-math"="false" "no-signed-zeros-fp-math"="false" "no-trapping-math"="false" "null-pointer-is-valid"="true" "stack-protector-buffer-size"="4" "target-cpu"="x86-64" "target-features"="+cx8,+fxsr,+mmx,+sse,+sse2,+sse3,+x87" "unsafe-fp-math"="false" "use-soft-float"="false" }
attributes #3 = { nobuiltin nounwind "correctly-rounded-divide-sqrt-fp-math"="false" "disable-tail-calls"="false" "less-precise-fpmad"="false" "no-frame-pointer-elim"="false" "no-frame-pointer-elim-non-leaf" "no-infs-fp-math"="false" "no-nans-fp-math"="false" "no-signed-zeros-fp-math"="false" "no-trapping-math"="false" "null-pointer-is-valid"="true" "stack-protector-buffer-size"="4" "target-cpu"="x86-64" "target-features"="+cx8,+fxsr,+mmx,+sse,+sse2,+sse3,+x87" "unsafe-fp-math"="false" "use-soft-float"="false" }
attributes #4 = { noreturn "correctly-rounded-divide-sqrt-fp-math"="false" "disable-tail-calls"="false" "less-precise-fpmad"="false" "no-frame-pointer-elim"="false" "no-frame-pointer-elim-non-leaf" "no-infs-fp-math"="false" "no-nans-fp-math"="false" "no-signed-zeros-fp-math"="false" "no-trapping-math"="false" "null-pointer-is-valid"="true" "stack-protector-buffer-size"="4" "target-cpu"="x86-64" "target-features"="+cx8,+fxsr,+mmx,+sse,+sse2,+sse3,+x87" "unsafe-fp-math"="false" "use-soft-float"="false" }
attributes #5 = { noreturn nounwind "correctly-rounded-divide-sqrt-fp-math"="false" "disable-tail-calls"="false" "less-precise-fpmad"="false" "no-frame-pointer-elim"="false" "no-frame-pointer-elim-non-leaf" "no-infs-fp-math"="false" "no-nans-fp-math"="false" "no-signed-zeros-fp-math"="false" "no-trapping-math"="false" "null-pointer-is-valid"="true" "stack-protector-buffer-size"="4" "target-cpu"="x86-64" "target-features"="+cx8,+fxsr,+mmx,+sse,+sse2,+sse3,+x87" "unsafe-fp-math"="false" "use-soft-float"="false" }
attributes #6 = { nobuiltin nofree "correctly-rounded-divide-sqrt-fp-math"="false" "disable-tail-calls"="false" "less-precise-fpmad"="false" "no-frame-pointer-elim"="false" "no-frame-pointer-elim-non-leaf" "no-infs-fp-math"="false" "no-nans-fp-math"="false" "no-signed-zeros-fp-math"="false" "no-trapping-math"="false" "null-pointer-is-valid"="true" "stack-protector-buffer-size"="4" "target-cpu"="x86-64" "target-features"="+cx8,+fxsr,+mmx,+sse,+sse2,+sse3,+x87" "unsafe-fp-math"="false" "use-soft-float"="false" }
attributes #7 = { nobuiltin nofree nounwind "correctly-rounded-divide-sqrt-fp-math"="false" "disable-tail-calls"="false" "less-precise-fpmad"="false" "no-frame-pointer-elim"="false" "no-frame-pointer-elim-non-leaf" "no-infs-fp-math"="false" "no-nans-fp-math"="false" "no-signed-zeros-fp-math"="false" "no-trapping-math"="false" "null-pointer-is-valid"="true" "stack-protector-buffer-size"="4" "target-cpu"="x86-64" "target-features"="+cx8,+fxsr,+mmx,+sse,+sse2,+sse3,+x87" "unsafe-fp-math"="false" "use-soft-float"="false" }
attributes #8 = { inlinehint nounwind ssp uwtable "correctly-rounded-divide-sqrt-fp-math"="false" "disable-tail-calls"="false" "less-precise-fpmad"="false" "min-legal-vector-width"="0" "no-frame-pointer-elim"="false" "no-frame-pointer-elim-non-leaf" "no-infs-fp-math"="false" "no-jump-tables"="false" "no-nans-fp-math"="false" "no-signed-zeros-fp-math"="false" "no-trapping-math"="false" "null-pointer-is-valid"="true" "stack-protector-buffer-size"="4" "target-cpu"="x86-64" "target-features"="+cx8,+fxsr,+mmx,+sse,+sse2,+sse3,+x87" "unsafe-fp-math"="false" "use-soft-float"="false" }
attributes #9 = { nounwind }
attributes #10 = { noreturn nounwind }
attributes #11 = { builtin nounwind }

!llvm.module.flags = !{!0, !1}

!0 = !{i32 1, !"wchar_size", i32 4}
!1 = !{i32 7, !"PIC Level", i32 2}
!2 = !{!3}
!3 = distinct !{!3, !4}
!4 = distinct !{!4, !"LVerDomain"}
!5 = !{!6}
!6 = distinct !{!6, !4}
!7 = distinct !{!7, !8}
!8 = !{!"llvm.loop.isvectorized", i32 1}
!9 = distinct !{!9, !10}
!10 = !{!"llvm.loop.unroll.disable"}
!11 = distinct !{!11, !8}
!12 = !{!13}
!13 = distinct !{!13, !14}
!14 = distinct !{!14, !"LVerDomain"}
!15 = !{!16}
!16 = distinct !{!16, !14}
!17 = distinct !{!17, !8}
!18 = distinct !{!18, !10}
!19 = distinct !{!19, !10}
!20 = distinct !{!20, !8}
!21 = distinct !{!21, !10}
!22 = !{!23}
!23 = distinct !{!23, !24}
!24 = distinct !{!24, !"LVerDomain"}
!25 = !{!26}
!26 = distinct !{!26, !24}
!27 = distinct !{!27, !8}
!28 = distinct !{!28, !10}
!29 = !{!30}
!30 = distinct !{!30, !31}
!31 = distinct !{!31, !"LVerDomain"}
!32 = !{!33}
!33 = distinct !{!33, !31}
!34 = distinct !{!34, !8}
!35 = distinct !{!35, !10}
!36 = distinct !{!36, !10}
!37 = distinct !{!37, !8}
!38 = distinct !{!38, !8}
!39 = !{!40}
!40 = distinct !{!40, !41}
!41 = distinct !{!41, !"LVerDomain"}
!42 = !{!43}
!43 = distinct !{!43, !41}
!44 = distinct !{!44, !8}
!45 = distinct !{!45, !10}
!46 = distinct !{!46, !10}
!47 = distinct !{!47, !8}
!48 = !{!49}
!49 = distinct !{!49, !50}
!50 = distinct !{!50, !"LVerDomain"}
!51 = !{!52}
!52 = distinct !{!52, !50}
!53 = distinct !{!53, !8}
!54 = distinct !{!54, !10}
!55 = distinct !{!55, !10}
!56 = distinct !{!56, !8}
!57 = distinct !{!57, !10}
!58 = !{!59}
!59 = distinct !{!59, !60}
!60 = distinct !{!60, !"LVerDomain"}
!61 = !{!62}
!62 = distinct !{!62, !60}
!63 = distinct !{!63, !8}
!64 = distinct !{!64, !10}
!65 = distinct !{!65, !10}
!66 = !{!67}
!67 = distinct !{!67, !68}
!68 = distinct !{!68, !"LVerDomain"}
!69 = !{!70}
!70 = distinct !{!70, !68}
!71 = distinct !{!71, !8}
!72 = distinct !{!72, !10}
!73 = distinct !{!73, !8}
!74 = !{!75}
!75 = distinct !{!75, !76}
!76 = distinct !{!76, !"LVerDomain"}
!77 = !{!78}
!78 = distinct !{!78, !76}
!79 = distinct !{!79, !8}
!80 = distinct !{!80, !10}
!81 = distinct !{!81, !8}
!82 = distinct !{!82, !8}
!83 = !{!84}
!84 = distinct !{!84, !85}
!85 = distinct !{!85, !"LVerDomain"}
!86 = !{!87}
!87 = distinct !{!87, !85}
!88 = distinct !{!88, !8}
!89 = distinct !{!89, !10}
!90 = distinct !{!90, !8}
