; ModuleID = '../../third_party/crashpad/crashpad/handler/linux/crash_report_exception_handler.cc'
source_filename = "../../third_party/crashpad/crashpad/handler/linux/crash_report_exception_handler.cc"
target datalayout = "e-m:e-i64:64-f80:128-n8:16:32:64-S128"
target triple = "x86_64-unknown-linux-gnu"

module asm ".symver exp, exp@GLIBC_2.2.5"
module asm ".symver exp2, exp2@GLIBC_2.2.5"
module asm ".symver exp2f, exp2f@GLIBC_2.2.5"
module asm ".symver expf, expf@GLIBC_2.2.5"
module asm ".symver lgamma, lgamma@GLIBC_2.2.5"
module asm ".symver lgammaf, lgammaf@GLIBC_2.2.5"
module asm ".symver lgammal, lgammal@GLIBC_2.2.5"
module asm ".symver log, log@GLIBC_2.2.5"
module asm ".symver log2, log2@GLIBC_2.2.5"
module asm ".symver log2f, log2f@GLIBC_2.2.5"
module asm ".symver logf, logf@GLIBC_2.2.5"
module asm ".symver pow, pow@GLIBC_2.2.5"
module asm ".symver powf, powf@GLIBC_2.2.5"

%"class.std::__1::locale::id" = type <{ %"struct.std::__1::once_flag", i32, [4 x i8] }>
%"struct.std::__1::once_flag" = type { i64 }
%"class.crashpad::CrashReportExceptionHandler" = type { %"class.crashpad::ExceptionHandlerServer::Delegate", %"class.crashpad::CrashReportDatabase"*, %"class.crashpad::CrashReportUploadThread"*, %"class.std::__1::map"*, %"class.std::__1::vector.17"*, i8, i8, %"class.std::__1::vector.24"* }
%"class.crashpad::ExceptionHandlerServer::Delegate" = type { i32 (...)** }
%"class.crashpad::CrashReportDatabase" = type { i32 (...)** }
%"class.crashpad::CrashReportUploadThread" = type { %"class.crashpad::WorkerThread::Delegate", %"class.crashpad::Stoppable", %"struct.crashpad::CrashReportUploadThread::Options", %"class.std::__1::basic_string", %"class.crashpad::WorkerThread", %"class.crashpad::ThreadSafeVector", %"class.crashpad::CrashReportDatabase"* }
%"class.crashpad::WorkerThread::Delegate" = type { i32 (...)** }
%"class.crashpad::Stoppable" = type { i32 (...)** }
%"struct.crashpad::CrashReportUploadThread::Options" = type { i8, i8, i8, i8 }
%"class.std::__1::basic_string" = type { %"class.std::__1::__compressed_pair" }
%"class.std::__1::__compressed_pair" = type { %"struct.std::__1::__compressed_pair_elem" }
%"struct.std::__1::__compressed_pair_elem" = type { %"struct.std::__1::basic_string<char, std::__1::char_traits<char>, std::__1::allocator<char> >::__rep" }
%"struct.std::__1::basic_string<char, std::__1::char_traits<char>, std::__1::allocator<char> >::__rep" = type { %union.anon }
%union.anon = type { %"struct.std::__1::basic_string<char, std::__1::char_traits<char>, std::__1::allocator<char> >::__long" }
%"struct.std::__1::basic_string<char, std::__1::char_traits<char>, std::__1::allocator<char> >::__long" = type { i8*, i64, i64 }
%"class.crashpad::WorkerThread" = type <{ double, %"class.crashpad::WorkerThread::Delegate"*, %"class.std::__1::unique_ptr", i8, i8, [6 x i8] }>
%"class.std::__1::unique_ptr" = type { %"class.std::__1::__compressed_pair.1" }
%"class.std::__1::__compressed_pair.1" = type { %"struct.std::__1::__compressed_pair_elem.2" }
%"struct.std::__1::__compressed_pair_elem.2" = type { %"class.crashpad::internal::WorkerThreadImpl"* }
%"class.crashpad::internal::WorkerThreadImpl" = type opaque
%"class.crashpad::ThreadSafeVector" = type { %"class.std::__1::vector", %"class.base::Lock" }
%"class.std::__1::vector" = type { %"class.std::__1::__vector_base" }
%"class.std::__1::__vector_base" = type { %"struct.crashpad::UUID"*, %"struct.crashpad::UUID"*, %"class.std::__1::__compressed_pair.4" }
%"struct.crashpad::UUID" = type { i32, i16, i16, [2 x i8], [6 x i8] }
%"class.std::__1::__compressed_pair.4" = type { %"struct.std::__1::__compressed_pair_elem.5" }
%"struct.std::__1::__compressed_pair_elem.5" = type { %"struct.crashpad::UUID"* }
%"class.base::Lock" = type { %"class.base::internal::LockImpl" }
%"class.base::internal::LockImpl" = type { %union.pthread_mutex_t }
%union.pthread_mutex_t = type { %struct.__pthread_mutex_s }
%struct.__pthread_mutex_s = type { i32, i32, i32, i32, i32, i16, i16, %struct.__pthread_internal_list }
%struct.__pthread_internal_list = type { %struct.__pthread_internal_list*, %struct.__pthread_internal_list* }
%"class.std::__1::map" = type { %"class.std::__1::__tree" }
%"class.std::__1::__tree" = type { %"class.std::__1::__tree_end_node"*, %"class.std::__1::__compressed_pair.9", %"class.std::__1::__compressed_pair.14" }
%"class.std::__1::__tree_end_node" = type { %"class.std::__1::__tree_node_base"* }
%"class.std::__1::__tree_node_base" = type <{ %"class.std::__1::__tree_end_node", %"class.std::__1::__tree_node_base"*, %"class.std::__1::__tree_end_node"*, i8, [7 x i8] }>
%"class.std::__1::__compressed_pair.9" = type { %"struct.std::__1::__compressed_pair_elem.10" }
%"struct.std::__1::__compressed_pair_elem.10" = type { %"class.std::__1::__tree_end_node" }
%"class.std::__1::__compressed_pair.14" = type { %"struct.std::__1::__compressed_pair_elem.15" }
%"struct.std::__1::__compressed_pair_elem.15" = type { i64 }
%"class.std::__1::vector.17" = type { %"class.std::__1::__vector_base.18" }
%"class.std::__1::__vector_base.18" = type { %"class.base::FilePath"*, %"class.base::FilePath"*, %"class.std::__1::__compressed_pair.19" }
%"class.base::FilePath" = type { %"class.std::__1::basic_string" }
%"class.std::__1::__compressed_pair.19" = type { %"struct.std::__1::__compressed_pair_elem.20" }
%"struct.std::__1::__compressed_pair_elem.20" = type { %"class.base::FilePath"* }
%"class.std::__1::vector.24" = type { %"class.std::__1::__vector_base.25" }
%"class.std::__1::__vector_base.25" = type { %"class.std::__1::unique_ptr.26"*, %"class.std::__1::unique_ptr.26"*, %"class.std::__1::__compressed_pair.32" }
%"class.std::__1::unique_ptr.26" = type { %"class.std::__1::__compressed_pair.27" }
%"class.std::__1::__compressed_pair.27" = type { %"struct.std::__1::__compressed_pair_elem.28" }
%"struct.std::__1::__compressed_pair_elem.28" = type { %"class.crashpad::UserStreamDataSource"* }
%"class.crashpad::UserStreamDataSource" = type { i32 (...)** }
%"class.std::__1::__compressed_pair.32" = type { %"struct.std::__1::__compressed_pair_elem.33" }
%"struct.std::__1::__compressed_pair_elem.33" = type { %"class.std::__1::unique_ptr.26"* }
%"struct.crashpad::ExceptionHandlerProtocol::ClientInformation" = type { i64, i64, i64 }
%"class.crashpad::DirectPtraceConnection" = type <{ %"class.crashpad::PtraceConnection", %"class.std::__1::vector.37", %"class.crashpad::ProcessMemoryLinux", i32, %"class.crashpad::Ptracer", [0 x i8], [2 x i8] }>
%"class.crashpad::PtraceConnection" = type { i32 (...)** }
%"class.std::__1::vector.37" = type { %"class.std::__1::__vector_base.38" }
%"class.std::__1::__vector_base.38" = type { %"class.std::__1::unique_ptr.39"*, %"class.std::__1::unique_ptr.39"*, %"class.std::__1::__compressed_pair.40" }
%"class.std::__1::unique_ptr.39" = type opaque
%"class.std::__1::__compressed_pair.40" = type { %"struct.std::__1::__compressed_pair_elem.41" }
%"struct.std::__1::__compressed_pair_elem.41" = type { %"class.std::__1::unique_ptr.39"* }
%"class.crashpad::ProcessMemoryLinux" = type <{ %"class.crashpad::ProcessMemory", %"class.base::ScopedGeneric", i32, [0 x i8], [4 x i8] }>
%"class.crashpad::ProcessMemory" = type { i32 (...)** }
%"class.base::ScopedGeneric" = type <{ i32 (...)**, %"struct.base::ScopedGeneric<int, base::internal::ScopedFDCloseTraits>::Data", i8, [3 x i8] }>
%"struct.base::ScopedGeneric<int, base::internal::ScopedFDCloseTraits>::Data" = type { i32 }
%"class.crashpad::Ptracer" = type { i8, i8, [0 x i8] }
%"class.std::__1::unique_ptr.51" = type { %"class.std::__1::__compressed_pair.52" }
%"class.std::__1::__compressed_pair.52" = type { %"struct.std::__1::__compressed_pair_elem.53" }
%"struct.std::__1::__compressed_pair_elem.53" = type { %"class.crashpad::ProcessSnapshotLinux"* }
%"class.crashpad::ProcessSnapshotLinux" = type { %"class.crashpad::ProcessSnapshot", %"class.std::__1::map", %struct.timeval, %"struct.crashpad::UUID", %"struct.crashpad::UUID", %"class.std::__1::vector.54", %"class.std::__1::vector.62", %"class.std::__1::unique_ptr.70", %"class.crashpad::internal::SystemSnapshotLinux", %"class.crashpad::ProcessReaderLinux", %"class.crashpad::ProcessMemoryRange", [0 x i8] }
%"class.crashpad::ProcessSnapshot" = type { i32 (...)** }
%struct.timeval = type { i64, i64 }
%"class.std::__1::vector.54" = type { %"class.std::__1::__vector_base.55" }
%"class.std::__1::__vector_base.55" = type { %"class.std::__1::unique_ptr.56"*, %"class.std::__1::unique_ptr.56"*, %"class.std::__1::__compressed_pair.57" }
%"class.std::__1::unique_ptr.56" = type opaque
%"class.std::__1::__compressed_pair.57" = type { %"struct.std::__1::__compressed_pair_elem.58" }
%"struct.std::__1::__compressed_pair_elem.58" = type { %"class.std::__1::unique_ptr.56"* }
%"class.std::__1::vector.62" = type { %"class.std::__1::__vector_base.63" }
%"class.std::__1::__vector_base.63" = type { %"class.std::__1::unique_ptr.64"*, %"class.std::__1::unique_ptr.64"*, %"class.std::__1::__compressed_pair.65" }
%"class.std::__1::unique_ptr.64" = type opaque
%"class.std::__1::__compressed_pair.65" = type { %"struct.std::__1::__compressed_pair_elem.66" }
%"struct.std::__1::__compressed_pair_elem.66" = type { %"class.std::__1::unique_ptr.64"* }
%"class.std::__1::unique_ptr.70" = type { %"class.std::__1::__compressed_pair.71" }
%"class.std::__1::__compressed_pair.71" = type { %"struct.std::__1::__compressed_pair_elem.72" }
%"struct.std::__1::__compressed_pair_elem.72" = type { %"class.crashpad::internal::ExceptionSnapshotLinux"* }
%"class.crashpad::internal::ExceptionSnapshotLinux" = type { %"class.crashpad::ExceptionSnapshot", %union.anon.73, %"struct.crashpad::CPUContext", %"class.std::__1::vector.86", i64, i64, i32, i32, [0 x i8] }
%"class.crashpad::ExceptionSnapshot" = type { i32 (...)** }
%union.anon.73 = type { %"struct.crashpad::CPUContextX86_64" }
%"struct.crashpad::CPUContextX86_64" = type { i64, i64, i64, i64, i64, i64, i64, i64, i64, i64, i64, i64, i64, i64, i64, i64, i64, i64, i16, i16, i16, %"struct.crashpad::CPUContextX86_64::Fxsave", i64, i64, i64, i64, i64, i64, i64, i64 }
%"struct.crashpad::CPUContextX86_64::Fxsave" = type { i16, i16, i8, i8, i16, %union.anon.76, i32, i32, [8 x %"union.crashpad::CPUContextX86::X87OrMMXRegister"], [16 x [16 x i8]], [48 x i8], [48 x i8] }
%union.anon.76 = type { %struct.anon.78 }
%struct.anon.78 = type { i64, i64 }
%"union.crashpad::CPUContextX86::X87OrMMXRegister" = type { %struct.anon.74 }
%struct.anon.74 = type { [10 x i8], [6 x i8] }
%"struct.crashpad::CPUContext" = type { i32, %union.anon.79 }
%union.anon.79 = type { %"struct.crashpad::CPUContextX86"* }
%"struct.crashpad::CPUContextX86" = type { i32, i32, i32, i32, i32, i32, i32, i32, i32, i32, i16, i16, i16, i16, i16, i16, %"struct.crashpad::CPUContextX86::Fxsave", i32, i32, i32, i32, i32, i32, i32, i32 }
%"struct.crashpad::CPUContextX86::Fxsave" = type { i16, i16, i8, i8, i16, i32, i16, i16, i32, i16, i16, i32, i32, [8 x %"union.crashpad::CPUContextX86::X87OrMMXRegister"], [8 x [16 x i8]], [176 x i8], [48 x i8] }
%"class.std::__1::vector.86" = type { %"class.std::__1::__vector_base.87" }
%"class.std::__1::__vector_base.87" = type { i64*, i64*, %"class.std::__1::__compressed_pair.88" }
%"class.std::__1::__compressed_pair.88" = type { %"struct.std::__1::__compressed_pair_elem.89" }
%"struct.std::__1::__compressed_pair_elem.89" = type { i64* }
%"class.crashpad::internal::SystemSnapshotLinux" = type <{ %"class.crashpad::SystemSnapshot", %"class.std::__1::basic_string", %"class.std::__1::basic_string", %"class.crashpad::ProcessReaderLinux"*, %struct.timeval*, %"class.crashpad::internal::CpuidReader", i32, i32, i32, i32, i8, [0 x i8], [7 x i8] }>
%"class.crashpad::SystemSnapshot" = type { i32 (...)** }
%"class.crashpad::internal::CpuidReader" = type { i64, i64, %"class.std::__1::basic_string", i32, i32 }
%"class.crashpad::ProcessReaderLinux" = type <{ %"class.crashpad::PtraceConnection"*, %"class.crashpad::ProcessInfo", %"class.crashpad::MemoryMap", %"class.std::__1::vector.114", %"class.std::__1::vector.121", %"class.std::__1::basic_string", %"class.std::__1::vector.158", i8, i8, i8, [0 x i8], [5 x i8] }>
%"class.crashpad::ProcessInfo" = type <{ %"class.crashpad::PtraceConnection"*, %"class.std::__1::set", %struct.timeval, i32, i32, i32, i32, i32, i32, i32, i32, i8, %"class.crashpad::InitializationState", [0 x i8], [6 x i8] }>
%"class.std::__1::set" = type { %"class.std::__1::__tree.96" }
%"class.std::__1::__tree.96" = type { %"class.std::__1::__tree_end_node"*, %"class.std::__1::__compressed_pair.97", %"class.std::__1::__compressed_pair.101" }
%"class.std::__1::__compressed_pair.97" = type { %"struct.std::__1::__compressed_pair_elem.10" }
%"class.std::__1::__compressed_pair.101" = type { %"struct.std::__1::__compressed_pair_elem.15" }
%"class.crashpad::InitializationState" = type { i8 }
%"class.crashpad::MemoryMap" = type { %"class.std::__1::vector.105", [0 x i8] }
%"class.std::__1::vector.105" = type { %"class.std::__1::__vector_base.106" }
%"class.std::__1::__vector_base.106" = type { %"struct.crashpad::MemoryMap::Mapping"*, %"struct.crashpad::MemoryMap::Mapping"*, %"class.std::__1::__compressed_pair.109" }
%"struct.crashpad::MemoryMap::Mapping" = type <{ %"class.std::__1::basic_string", %"class.crashpad::internal::CheckedAddressRangeGeneric", i64, i64, i64, i8, i8, i8, i8, [4 x i8] }>
%"class.crashpad::internal::CheckedAddressRangeGeneric" = type <{ %union.anon.107, i8, i8, [6 x i8] }>
%union.anon.107 = type { %"class.crashpad::CheckedRange.108" }
%"class.crashpad::CheckedRange.108" = type { i64, i64 }
%"class.std::__1::__compressed_pair.109" = type { %"struct.std::__1::__compressed_pair_elem.110" }
%"struct.std::__1::__compressed_pair_elem.110" = type { %"struct.crashpad::MemoryMap::Mapping"* }
%"class.std::__1::vector.114" = type { %"class.std::__1::__vector_base.115" }
%"class.std::__1::__vector_base.115" = type { %"struct.crashpad::ProcessReaderLinux::Thread"*, %"struct.crashpad::ProcessReaderLinux::Thread"*, %"class.std::__1::__compressed_pair.116" }
%"struct.crashpad::ProcessReaderLinux::Thread" = type <{ %"struct.crashpad::ThreadInfo", i64, i64, i32, i32, i32, i32, i8, [7 x i8] }>
%"struct.crashpad::ThreadInfo" = type { %"union.crashpad::ThreadContext", %"union.crashpad::FloatContext", i64 }
%"union.crashpad::ThreadContext" = type { %"struct.crashpad::ThreadContext::t64_t" }
%"struct.crashpad::ThreadContext::t64_t" = type { i64, i64, i64, i64, i64, i64, i64, i64, i64, i64, i64, i64, i64, i64, i64, i64, i64, i64, i64, i64, i64, i64, i64, i64, i64, i64, i64 }
%"union.crashpad::FloatContext" = type { %"struct.crashpad::FloatContext::f64_t" }
%"struct.crashpad::FloatContext::f64_t" = type { %"struct.crashpad::FloatContext::f64_t::fxsave" }
%"struct.crashpad::FloatContext::f64_t::fxsave" = type { i16, i16, i16, i16, i64, i64, i32, i32, [32 x i32], [64 x i32], [24 x i32] }
%"class.std::__1::__compressed_pair.116" = type { %"struct.std::__1::__compressed_pair_elem.117" }
%"struct.std::__1::__compressed_pair_elem.117" = type { %"struct.crashpad::ProcessReaderLinux::Thread"* }
%"class.std::__1::vector.121" = type { %"class.std::__1::__vector_base.122" }
%"class.std::__1::__vector_base.122" = type { %"struct.crashpad::ProcessReaderLinux::Module"*, %"struct.crashpad::ProcessReaderLinux::Module"*, %"class.std::__1::__compressed_pair.153" }
%"struct.crashpad::ProcessReaderLinux::Module" = type <{ %"class.std::__1::basic_string", %"class.crashpad::ElfImageReader"*, i32, [4 x i8] }>
%"class.crashpad::ElfImageReader" = type <{ %union.anon.123, i64, i64, %"class.crashpad::ProcessMemoryRange", %"class.std::__1::unique_ptr.124", %"class.std::__1::unique_ptr.130", %"class.std::__1::unique_ptr.147", [0 x i8], %"class.crashpad::InitializationState", %"class.crashpad::InitializationState", [6 x i8] }>
%union.anon.123 = type { %struct.Elf64_Ehdr }
%struct.Elf64_Ehdr = type { [16 x i8], i16, i16, i32, i64, i64, i64, i32, i16, i16, i16, i16, i16, i16 }
%"class.std::__1::unique_ptr.124" = type { %"class.std::__1::__compressed_pair.125" }
%"class.std::__1::__compressed_pair.125" = type { %"struct.std::__1::__compressed_pair_elem.126" }
%"struct.std::__1::__compressed_pair_elem.126" = type { %"class.crashpad::ElfImageReader::ProgramHeaderTable"* }
%"class.crashpad::ElfImageReader::ProgramHeaderTable" = type opaque
%"class.std::__1::unique_ptr.130" = type { %"class.std::__1::__compressed_pair.131" }
%"class.std::__1::__compressed_pair.131" = type { %"struct.std::__1::__compressed_pair_elem.132" }
%"struct.std::__1::__compressed_pair_elem.132" = type { %"class.crashpad::ElfDynamicArrayReader"* }
%"class.crashpad::ElfDynamicArrayReader" = type { %"class.std::__1::map.133" }
%"class.std::__1::map.133" = type { %"class.std::__1::__tree.134" }
%"class.std::__1::__tree.134" = type { %"class.std::__1::__tree_end_node"*, %"class.std::__1::__compressed_pair.135", %"class.std::__1::__compressed_pair.139" }
%"class.std::__1::__compressed_pair.135" = type { %"struct.std::__1::__compressed_pair_elem.10" }
%"class.std::__1::__compressed_pair.139" = type { %"struct.std::__1::__compressed_pair_elem.15" }
%"class.std::__1::unique_ptr.147" = type { %"class.std::__1::__compressed_pair.148" }
%"class.std::__1::__compressed_pair.148" = type { %"struct.std::__1::__compressed_pair_elem.149" }
%"struct.std::__1::__compressed_pair_elem.149" = type { %"class.crashpad::ElfSymbolTableReader"* }
%"class.crashpad::ElfSymbolTableReader" = type { %"class.crashpad::ProcessMemoryRange"*, %"class.crashpad::ElfImageReader"*, i64, i64 }
%"class.std::__1::__compressed_pair.153" = type { %"struct.std::__1::__compressed_pair_elem.154" }
%"struct.std::__1::__compressed_pair_elem.154" = type { %"struct.crashpad::ProcessReaderLinux::Module"* }
%"class.std::__1::vector.158" = type { %"class.std::__1::__vector_base.159" }
%"class.std::__1::__vector_base.159" = type { %"class.std::__1::unique_ptr.160"*, %"class.std::__1::unique_ptr.160"*, %"class.std::__1::__compressed_pair.161" }
%"class.std::__1::unique_ptr.160" = type opaque
%"class.std::__1::__compressed_pair.161" = type { %"struct.std::__1::__compressed_pair_elem.162" }
%"struct.std::__1::__compressed_pair_elem.162" = type { %"class.std::__1::unique_ptr.160"* }
%"class.crashpad::ProcessMemoryRange" = type { %"class.crashpad::ProcessMemory"*, %"class.crashpad::internal::CheckedAddressRangeGeneric", [0 x i8] }
%"class.std::__1::unique_ptr.169" = type { %"class.std::__1::__compressed_pair.170" }
%"class.std::__1::__compressed_pair.170" = type { %"struct.std::__1::__compressed_pair_elem.171" }
%"struct.std::__1::__compressed_pair_elem.171" = type { %"class.crashpad::ProcessSnapshotSanitized"* }
%"class.crashpad::ProcessSnapshotSanitized" = type <{ %"class.crashpad::ProcessSnapshot", %"class.std::__1::vector.172", %"class.std::__1::vector.180", %"class.crashpad::RangeSet", %"class.crashpad::ProcessSnapshot"*, %"class.crashpad::ProcessMemorySanitized", %"class.std::__1::unique_ptr.195", i8, [0 x i8], [7 x i8] }>
%"class.std::__1::vector.172" = type { %"class.std::__1::__vector_base.173" }
%"class.std::__1::__vector_base.173" = type { %"class.std::__1::unique_ptr.174"*, %"class.std::__1::unique_ptr.174"*, %"class.std::__1::__compressed_pair.175" }
%"class.std::__1::unique_ptr.174" = type opaque
%"class.std::__1::__compressed_pair.175" = type { %"struct.std::__1::__compressed_pair_elem.176" }
%"struct.std::__1::__compressed_pair_elem.176" = type { %"class.std::__1::unique_ptr.174"* }
%"class.std::__1::vector.180" = type { %"class.std::__1::__vector_base.181" }
%"class.std::__1::__vector_base.181" = type { %"class.std::__1::unique_ptr.182"*, %"class.std::__1::unique_ptr.182"*, %"class.std::__1::__compressed_pair.183" }
%"class.std::__1::unique_ptr.182" = type opaque
%"class.std::__1::__compressed_pair.183" = type { %"struct.std::__1::__compressed_pair_elem.184" }
%"struct.std::__1::__compressed_pair_elem.184" = type { %"class.std::__1::unique_ptr.182"* }
%"class.crashpad::RangeSet" = type { %"class.std::__1::map.133" }
%"class.crashpad::ProcessMemorySanitized" = type { %"class.crashpad::ProcessMemory", %"class.crashpad::ProcessMemory"*, [0 x i8], %"class.std::__1::vector.188" }
%"class.std::__1::vector.188" = type { %"class.std::__1::__vector_base.189" }
%"class.std::__1::__vector_base.189" = type { %"struct.std::__1::pair"*, %"struct.std::__1::pair"*, %"class.std::__1::__compressed_pair.190" }
%"struct.std::__1::pair" = type { i64, i64 }
%"class.std::__1::__compressed_pair.190" = type { %"struct.std::__1::__compressed_pair_elem.191" }
%"struct.std::__1::__compressed_pair_elem.191" = type { %"struct.std::__1::pair"* }
%"class.std::__1::unique_ptr.195" = type { %"class.std::__1::__compressed_pair.196" }
%"class.std::__1::__compressed_pair.196" = type { %"struct.std::__1::__compressed_pair_elem.197" }
%"struct.std::__1::__compressed_pair_elem.197" = type { %"class.std::__1::vector.198"* }
%"class.std::__1::vector.198" = type opaque
%"class.crashpad::Settings" = type <{ %"class.base::FilePath", %"class.crashpad::InitializationState", [7 x i8] }>
%"class.crashpad::PtraceClient" = type <{ %"class.crashpad::PtraceConnection", %"class.std::__1::unique_ptr.45", i32, i32, i8, [0 x i8], [7 x i8] }>
%"class.std::__1::unique_ptr.45" = type { %"class.std::__1::__compressed_pair.46" }
%"class.std::__1::__compressed_pair.46" = type { %"struct.std::__1::__compressed_pair_elem.47" }
%"struct.std::__1::__compressed_pair_elem.47" = type { %"class.crashpad::ProcessMemory"* }
%"class.crashpad::ZlibOutputStream" = type <{ %"class.crashpad::OutputStreamInterface", [4096 x i8], %struct.z_stream_s, %"class.std::__1::unique_ptr.271", i8, %"class.crashpad::InitializationState", i8, [5 x i8] }>
%"class.crashpad::OutputStreamInterface" = type { i32 (...)** }
%struct.z_stream_s = type { i8*, i32, i64, i8*, i32, i64, i8*, %struct.internal_state*, i8* (i8*, i32, i32)*, void (i8*, i8*)*, i8*, i32, i64, i64 }
%struct.internal_state = type opaque
%"class.std::__1::unique_ptr.271" = type { %"class.std::__1::__compressed_pair.272" }
%"class.std::__1::__compressed_pair.272" = type { %"struct.std::__1::__compressed_pair_elem.273" }
%"struct.std::__1::__compressed_pair_elem.273" = type { %"class.crashpad::OutputStreamInterface"* }
%"class.std::__1::unique_ptr.205" = type { %"class.std::__1::__compressed_pair.206" }
%"class.std::__1::__compressed_pair.206" = type { %"struct.std::__1::__compressed_pair_elem.207" }
%"struct.std::__1::__compressed_pair_elem.207" = type { %"class.crashpad::CrashReportDatabase::NewReport"* }
%"class.crashpad::CrashReportDatabase::NewReport" = type { %"class.std::__1::unique_ptr.208", %"class.std::__1::unique_ptr.214", %"class.base::ScopedGeneric.220", %"class.std::__1::vector.222", %"class.std::__1::vector.229", %"struct.crashpad::UUID", %"class.crashpad::CrashReportDatabase"* }
%"class.std::__1::unique_ptr.208" = type { %"class.std::__1::__compressed_pair.209" }
%"class.std::__1::__compressed_pair.209" = type { %"struct.std::__1::__compressed_pair_elem.210" }
%"struct.std::__1::__compressed_pair_elem.210" = type { %"class.crashpad::FileWriter"* }
%"class.crashpad::FileWriter" = type { %"class.crashpad::FileWriterInterface", %"class.base::ScopedGeneric", %"class.crashpad::WeakFileHandleFileWriter" }
%"class.crashpad::FileWriterInterface" = type { %"class.crashpad::FileSeekerInterface" }
%"class.crashpad::FileSeekerInterface" = type { i32 (...)** }
%"class.crashpad::WeakFileHandleFileWriter" = type <{ %"class.crashpad::FileWriterInterface", i32, [4 x i8] }>
%"class.std::__1::unique_ptr.214" = type { %"class.std::__1::__compressed_pair.215" }
%"class.std::__1::__compressed_pair.215" = type { %"struct.std::__1::__compressed_pair_elem.216" }
%"struct.std::__1::__compressed_pair_elem.216" = type { %"class.crashpad::FileReader"* }
%"class.crashpad::FileReader" = type { %"class.crashpad::FileReaderInterface", %"class.base::ScopedGeneric", %"class.crashpad::WeakFileHandleFileReader" }
%"class.crashpad::FileReaderInterface" = type { %"class.crashpad::FileSeekerInterface" }
%"class.crashpad::WeakFileHandleFileReader" = type <{ %"class.crashpad::FileReaderInterface", i32, [4 x i8] }>
%"class.base::ScopedGeneric.220" = type <{ i32 (...)**, %"struct.base::ScopedGeneric<base::FilePath, crashpad::ScopedRemoveFileTraits>::Data", i8, [7 x i8] }>
%"struct.base::ScopedGeneric<base::FilePath, crashpad::ScopedRemoveFileTraits>::Data" = type { %"class.base::FilePath" }
%"class.std::__1::vector.222" = type { %"class.std::__1::__vector_base.223" }
%"class.std::__1::__vector_base.223" = type { %"class.std::__1::unique_ptr.208"*, %"class.std::__1::unique_ptr.208"*, %"class.std::__1::__compressed_pair.224" }
%"class.std::__1::__compressed_pair.224" = type { %"struct.std::__1::__compressed_pair_elem.225" }
%"struct.std::__1::__compressed_pair_elem.225" = type { %"class.std::__1::unique_ptr.208"* }
%"class.std::__1::vector.229" = type { %"class.std::__1::__vector_base.230" }
%"class.std::__1::__vector_base.230" = type { %"class.base::ScopedGeneric.220"*, %"class.base::ScopedGeneric.220"*, %"class.std::__1::__compressed_pair.231" }
%"class.std::__1::__compressed_pair.231" = type { %"struct.std::__1::__compressed_pair_elem.232" }
%"struct.std::__1::__compressed_pair_elem.232" = type { %"class.base::ScopedGeneric.220"* }
%"class.logging::LogMessage" = type { i32 (...)**, i32, %"class.std::__1::basic_ostringstream", i64, i8*, i32, %"class.base::ScopedClearLastErrorBase" }
%"class.std::__1::basic_ostringstream" = type { %"class.std::__1::basic_ostream.base", %"class.std::__1::basic_stringbuf", %"class.std::__1::basic_ios.base" }
%"class.std::__1::basic_ostream.base" = type { i32 (...)** }
%"class.std::__1::basic_stringbuf" = type <{ %"class.std::__1::basic_streambuf", %"class.std::__1::basic_string", i8*, i32, [4 x i8] }>
%"class.std::__1::basic_streambuf" = type { i32 (...)**, %"class.std::__1::locale", i8*, i8*, i8*, i8*, i8*, i8* }
%"class.std::__1::locale" = type { %"class.std::__1::locale::__imp"* }
%"class.std::__1::locale::__imp" = type opaque
%"class.std::__1::basic_ios.base" = type <{ %"class.std::__1::ios_base", %"class.std::__1::basic_ostream"*, i32 }>
%"class.std::__1::ios_base" = type { i32 (...)**, i32, i64, i64, i32, i32, i8*, i8*, void (i32, %"class.std::__1::ios_base"*, i32)**, i32*, i64, i64, i64*, i64, i64, i8**, i64, i64 }
%"class.std::__1::basic_ostream" = type { i32 (...)**, %"class.std::__1::basic_ios.base" }
%"class.base::ScopedClearLastErrorBase" = type { i32 }
%"class.crashpad::MinidumpFileWriter" = type <{ %"class.crashpad::internal::MinidumpWritable.base", %struct.MINIDUMP_HEADER, [4 x i8], %"class.std::__1::vector.253", %"class.std::__1::set.261" }>
%"class.crashpad::internal::MinidumpWritable.base" = type <{ i32 (...)**, %"class.std::__1::vector.239", %"class.std::__1::vector.246", i64, i32 }>
%"class.std::__1::vector.239" = type { %"class.std::__1::__vector_base.240" }
%"class.std::__1::__vector_base.240" = type { i32**, i32**, %"class.std::__1::__compressed_pair.241" }
%"class.std::__1::__compressed_pair.241" = type { %"struct.std::__1::__compressed_pair_elem.242" }
%"struct.std::__1::__compressed_pair_elem.242" = type { i32** }
%"class.std::__1::vector.246" = type { %"class.std::__1::__vector_base.247" }
%"class.std::__1::__vector_base.247" = type { %struct.MINIDUMP_LOCATION_DESCRIPTOR**, %struct.MINIDUMP_LOCATION_DESCRIPTOR**, %"class.std::__1::__compressed_pair.248" }
%struct.MINIDUMP_LOCATION_DESCRIPTOR = type { i32, i32 }
%"class.std::__1::__compressed_pair.248" = type { %"struct.std::__1::__compressed_pair_elem.249" }
%"struct.std::__1::__compressed_pair_elem.249" = type { %struct.MINIDUMP_LOCATION_DESCRIPTOR** }
%struct.MINIDUMP_HEADER = type { i32, i32, i32, i32, i32, i32, i64 }
%"class.std::__1::vector.253" = type { %"class.std::__1::__vector_base.254" }
%"class.std::__1::__vector_base.254" = type { %"class.std::__1::unique_ptr.255"*, %"class.std::__1::unique_ptr.255"*, %"class.std::__1::__compressed_pair.256" }
%"class.std::__1::unique_ptr.255" = type opaque
%"class.std::__1::__compressed_pair.256" = type { %"struct.std::__1::__compressed_pair_elem.257" }
%"struct.std::__1::__compressed_pair_elem.257" = type { %"class.std::__1::unique_ptr.255"* }
%"class.std::__1::set.261" = type { %"class.std::__1::__tree.262" }
%"class.std::__1::__tree.262" = type { %"class.std::__1::__tree_end_node"*, %"class.std::__1::__compressed_pair.263", %"class.std::__1::__compressed_pair.267" }
%"class.std::__1::__compressed_pair.263" = type { %"struct.std::__1::__compressed_pair_elem.10" }
%"class.std::__1::__compressed_pair.267" = type { %"struct.std::__1::__compressed_pair_elem.15" }
%"class.crashpad::LogOutputStream" = type <{ %"class.crashpad::OutputStreamInterface", %"class.std::__1::basic_string", %"class.std::__1::unique_ptr.299", i64, i8, i8, [6 x i8] }>
%"class.std::__1::unique_ptr.299" = type { %"class.std::__1::__compressed_pair.300" }
%"class.std::__1::__compressed_pair.300" = type { %"struct.std::__1::__compressed_pair_elem.301" }
%"struct.std::__1::__compressed_pair_elem.301" = type { %"class.crashpad::LogOutputStream::Delegate"* }
%"class.crashpad::LogOutputStream::Delegate" = type { i32 (...)** }
%"class.crashpad::Base94OutputStream" = type <{ %"class.crashpad::OutputStreamInterface", i8, [7 x i8], %"class.std::__1::unique_ptr.271", %"class.std::__1::vector.286", i32, [4 x i8], i64, i8, i8, i8, [5 x i8] }>
%"class.std::__1::vector.286" = type { %"class.std::__1::__vector_base.287" }
%"class.std::__1::__vector_base.287" = type { i8*, i8*, %"class.std::__1::__compressed_pair.288" }
%"class.std::__1::__compressed_pair.288" = type { %"struct.std::__1::__compressed_pair_elem.289" }
%"struct.std::__1::__compressed_pair_elem.289" = type { i8* }
%"struct.std::__1::basic_string<char, std::__1::char_traits<char>, std::__1::allocator<char> >::__short" = type { [23 x i8], %struct.anon }
%struct.anon = type { i8 }
%"class.crashpad::OutputStreamFileWriter" = type <{ %"class.crashpad::FileWriterInterface", %"class.std::__1::unique_ptr.271", i8, i8, [6 x i8] }>
%"class.std::__1::basic_ostream<char, std::__1::char_traits<char> >::sentry" = type { i8, %"class.std::__1::basic_ostream"* }
%"class.std::__1::locale::facet" = type { %"class.std::__1::__shared_count" }
%"class.std::__1::__shared_count" = type { i32 (...)**, i64 }
%"class.std::__1::ctype" = type <{ %"class.std::__1::locale::facet", i16*, i8, [7 x i8] }>
%"class.crashpad::(anonymous namespace)::Logger" = type { %"class.crashpad::LogOutputStream::Delegate" }

$_ZNSt3__124__put_character_sequenceIcNS_11char_traitsIcEEEERNS_13basic_ostreamIT_T0_EES7_PKS4_m = comdat any

$_ZNSt3__116__pad_and_outputIcNS_11char_traitsIcEEEENS_19ostreambuf_iteratorIT_T0_EES6_PKS4_S8_S8_RNS_8ios_baseES4_ = comdat any

$_ZN8crashpad15LogOutputStream8DelegateD2Ev = comdat any

@_ZTVN8crashpad27CrashReportExceptionHandlerE = hidden unnamed_addr constant { [6 x i8*] } { [6 x i8*] [i8* null, i8* null, i8* bitcast (i1 (%"class.crashpad::CrashReportExceptionHandler"*, i32, i32, %"struct.crashpad::ExceptionHandlerProtocol::ClientInformation"*, i64, i32*, %"struct.crashpad::UUID"*)* @_ZN8crashpad27CrashReportExceptionHandler15HandleExceptionEijRKNS_24ExceptionHandlerProtocol17ClientInformationEmPiPNS_4UUIDE to i8*), i8* bitcast (i1 (%"class.crashpad::CrashReportExceptionHandler"*, i32, i32, %"struct.crashpad::ExceptionHandlerProtocol::ClientInformation"*, i32, %"struct.crashpad::UUID"*)* @_ZN8crashpad27CrashReportExceptionHandler25HandleExceptionWithBrokerEijRKNS_24ExceptionHandlerProtocol17ClientInformationEiPNS_4UUIDE to i8*), i8* bitcast (void (%"class.crashpad::CrashReportExceptionHandler"*)* @_ZN8crashpad27CrashReportExceptionHandlerD2Ev to i8*), i8* bitcast (void (%"class.crashpad::CrashReportExceptionHandler"*)* @_ZN8crashpad27CrashReportExceptionHandlerD0Ev to i8*)] }, align 8
@.str = private unnamed_addr constant [84 x i8] c"../../third_party/crashpad/crashpad/handler/linux/crash_report_exception_handler.cc\00", align 1
@.str.1 = private unnamed_addr constant [29 x i8] c"PrepareNewCrashReport failed\00", align 1
@.str.2 = private unnamed_addr constant [23 x i8] c"WriteEverything failed\00", align 1
@.str.3 = private unnamed_addr constant [32 x i8] c"WriteMinidumpLogFromFile failed\00", align 1
@.str.4 = private unnamed_addr constant [12 x i8] c"attachment \00", align 1
@.str.5 = private unnamed_addr constant [30 x i8] c" couldn't be opened, skipping\00", align 1
@.str.6 = private unnamed_addr constant [31 x i8] c" couldn't be created, skipping\00", align 1
@.str.7 = private unnamed_addr constant [34 x i8] c"FinishedWritingCrashReport failed\00", align 1
@.str.8 = private unnamed_addr constant [21 x i8] c"WriteMinidump failed\00", align 1
@_ZNSt3__15ctypeIcE2idE = external global %"class.std::__1::locale::id", align 8
@_ZTVN8crashpad12_GLOBAL__N_16LoggerE = internal unnamed_addr constant { [7 x i8*] } { [7 x i8*] [i8* null, i8* null, i8* bitcast (void (%"class.crashpad::LogOutputStream::Delegate"*)* @_ZN8crashpad15LogOutputStream8DelegateD2Ev to i8*), i8* bitcast (void (%"class.crashpad::(anonymous namespace)::Logger"*)* @_ZN8crashpad12_GLOBAL__N_16LoggerD0Ev to i8*), i8* bitcast (i32 (%"class.crashpad::(anonymous namespace)::Logger"*, i8*)* @_ZN8crashpad12_GLOBAL__N_16Logger3LogEPKc to i8*), i8* bitcast (i64 (%"class.crashpad::(anonymous namespace)::Logger"*)* @_ZN8crashpad12_GLOBAL__N_16Logger9OutputCapEv to i8*), i8* bitcast (i64 (%"class.crashpad::(anonymous namespace)::Logger"*)* @_ZN8crashpad12_GLOBAL__N_16Logger9LineWidthEv to i8*)] }, align 8

@_ZN8crashpad27CrashReportExceptionHandlerC1EPNS_19CrashReportDatabaseEPNS_23CrashReportUploadThreadEPKNSt3__13mapINS5_12basic_stringIcNS5_11char_traitsIcEENS5_9allocatorIcEEEESC_NS5_4lessISC_EENSA_INS5_4pairIKSC_SC_EEEEEEPKNS5_6vectorIN4base8FilePathENSA_ISO_EEEEbbPKNSM_INS5_10unique_ptrINS_20UserStreamDataSourceENS5_14default_deleteISU_EEEENSA_ISX_EEEE = hidden unnamed_addr alias void (%"class.crashpad::CrashReportExceptionHandler"*, %"class.crashpad::CrashReportDatabase"*, %"class.crashpad::CrashReportUploadThread"*, %"class.std::__1::map"*, %"class.std::__1::vector.17"*, i1, i1, %"class.std::__1::vector.24"*), void (%"class.crashpad::CrashReportExceptionHandler"*, %"class.crashpad::CrashReportDatabase"*, %"class.crashpad::CrashReportUploadThread"*, %"class.std::__1::map"*, %"class.std::__1::vector.17"*, i1, i1, %"class.std::__1::vector.24"*)* @_ZN8crashpad27CrashReportExceptionHandlerC2EPNS_19CrashReportDatabaseEPNS_23CrashReportUploadThreadEPKNSt3__13mapINS5_12basic_stringIcNS5_11char_traitsIcEENS5_9allocatorIcEEEESC_NS5_4lessISC_EENSA_INS5_4pairIKSC_SC_EEEEEEPKNS5_6vectorIN4base8FilePathENSA_ISO_EEEEbbPKNSM_INS5_10unique_ptrINS_20UserStreamDataSourceENS5_14default_deleteISU_EEEENSA_ISX_EEEE
@_ZN8crashpad27CrashReportExceptionHandlerD1Ev = hidden unnamed_addr alias void (%"class.crashpad::CrashReportExceptionHandler"*), void (%"class.crashpad::CrashReportExceptionHandler"*)* @_ZN8crashpad27CrashReportExceptionHandlerD2Ev

; Function Attrs: nofree norecurse nounwind ssp uwtable writeonly
define hidden void @_ZN8crashpad27CrashReportExceptionHandlerC2EPNS_19CrashReportDatabaseEPNS_23CrashReportUploadThreadEPKNSt3__13mapINS5_12basic_stringIcNS5_11char_traitsIcEENS5_9allocatorIcEEEESC_NS5_4lessISC_EENSA_INS5_4pairIKSC_SC_EEEEEEPKNS5_6vectorIN4base8FilePathENSA_ISO_EEEEbbPKNSM_INS5_10unique_ptrINS_20UserStreamDataSourceENS5_14default_deleteISU_EEEENSA_ISX_EEEE(%"class.crashpad::CrashReportExceptionHandler"* nocapture, %"class.crashpad::CrashReportDatabase"*, %"class.crashpad::CrashReportUploadThread"*, %"class.std::__1::map"*, %"class.std::__1::vector.17"*, i1 zeroext, i1 zeroext, %"class.std::__1::vector.24"*) unnamed_addr #0 align 2 {
  %9 = zext i1 %5 to i8
  %10 = zext i1 %6 to i8
  %11 = getelementptr inbounds %"class.crashpad::CrashReportExceptionHandler", %"class.crashpad::CrashReportExceptionHandler"* %0, i64 0, i32 0, i32 0
  store i32 (...)** bitcast (i8** getelementptr inbounds ({ [6 x i8*] }, { [6 x i8*] }* @_ZTVN8crashpad27CrashReportExceptionHandlerE, i64 0, inrange i32 0, i64 2) to i32 (...)**), i32 (...)*** %11, align 8
  %12 = getelementptr inbounds %"class.crashpad::CrashReportExceptionHandler", %"class.crashpad::CrashReportExceptionHandler"* %0, i64 0, i32 1
  store %"class.crashpad::CrashReportDatabase"* %1, %"class.crashpad::CrashReportDatabase"** %12, align 8
  %13 = getelementptr inbounds %"class.crashpad::CrashReportExceptionHandler", %"class.crashpad::CrashReportExceptionHandler"* %0, i64 0, i32 2
  store %"class.crashpad::CrashReportUploadThread"* %2, %"class.crashpad::CrashReportUploadThread"** %13, align 8
  %14 = getelementptr inbounds %"class.crashpad::CrashReportExceptionHandler", %"class.crashpad::CrashReportExceptionHandler"* %0, i64 0, i32 3
  store %"class.std::__1::map"* %3, %"class.std::__1::map"** %14, align 8
  %15 = getelementptr inbounds %"class.crashpad::CrashReportExceptionHandler", %"class.crashpad::CrashReportExceptionHandler"* %0, i64 0, i32 4
  store %"class.std::__1::vector.17"* %4, %"class.std::__1::vector.17"** %15, align 8
  %16 = getelementptr inbounds %"class.crashpad::CrashReportExceptionHandler", %"class.crashpad::CrashReportExceptionHandler"* %0, i64 0, i32 5
  store i8 %9, i8* %16, align 8
  %17 = getelementptr inbounds %"class.crashpad::CrashReportExceptionHandler", %"class.crashpad::CrashReportExceptionHandler"* %0, i64 0, i32 6
  store i8 %10, i8* %17, align 1
  %18 = getelementptr inbounds %"class.crashpad::CrashReportExceptionHandler", %"class.crashpad::CrashReportExceptionHandler"* %0, i64 0, i32 7
  store %"class.std::__1::vector.24"* %7, %"class.std::__1::vector.24"** %18, align 8
  ret void
}

; Function Attrs: norecurse nounwind readnone ssp uwtable
define hidden void @_ZN8crashpad27CrashReportExceptionHandlerD2Ev(%"class.crashpad::CrashReportExceptionHandler"* nocapture) unnamed_addr #1 align 2 {
  ret void
}

; Function Attrs: nounwind ssp uwtable
define hidden void @_ZN8crashpad27CrashReportExceptionHandlerD0Ev(%"class.crashpad::CrashReportExceptionHandler"*) unnamed_addr #2 align 2 {
  %2 = bitcast %"class.crashpad::CrashReportExceptionHandler"* %0 to i8*
  tail call void @_ZdlPv(i8* %2) #9
  ret void
}

; Function Attrs: nobuiltin nounwind
declare void @_ZdlPv(i8*) local_unnamed_addr #3

; Function Attrs: nounwind ssp uwtable
define hidden zeroext i1 @_ZN8crashpad27CrashReportExceptionHandler15HandleExceptionEijRKNS_24ExceptionHandlerProtocol17ClientInformationEmPiPNS_4UUIDE(%"class.crashpad::CrashReportExceptionHandler"* nocapture readonly, i32, i32, %"struct.crashpad::ExceptionHandlerProtocol::ClientInformation"* dereferenceable(24), i64, i32*, %"struct.crashpad::UUID"*) unnamed_addr #2 align 2 {
  %8 = alloca %"class.crashpad::DirectPtraceConnection", align 8
  tail call void @_ZN8crashpad7Metrics20ExceptionEncounteredEv() #10
  %9 = bitcast %"class.crashpad::DirectPtraceConnection"* %8 to i8*
  call void @llvm.lifetime.start.p0i8(i64 72, i8* nonnull %9) #10
  call void @llvm.memset.p0i8.i64(i8* nonnull align 8 %9, i8 -86, i64 72, i1 false)
  call void @_ZN8crashpad22DirectPtraceConnectionC1Ev(%"class.crashpad::DirectPtraceConnection"* nonnull %8) #10
  %10 = call zeroext i1 @_ZN8crashpad22DirectPtraceConnection10InitializeEi(%"class.crashpad::DirectPtraceConnection"* nonnull %8, i32 %1) #10
  br i1 %10, label %12, label %11

11:                                               ; preds = %7
  call void @_ZN8crashpad7Metrics22ExceptionCaptureResultENS0_13CaptureResultE(i32 8) #10
  br label %15

12:                                               ; preds = %7
  %13 = getelementptr inbounds %"class.crashpad::DirectPtraceConnection", %"class.crashpad::DirectPtraceConnection"* %8, i64 0, i32 0
  %14 = call zeroext i1 @_ZN8crashpad27CrashReportExceptionHandler29HandleExceptionWithConnectionEPNS_16PtraceConnectionERKNS_24ExceptionHandlerProtocol17ClientInformationEjmPiPNS_4UUIDE(%"class.crashpad::CrashReportExceptionHandler"* %0, %"class.crashpad::PtraceConnection"* nonnull %13, %"struct.crashpad::ExceptionHandlerProtocol::ClientInformation"* dereferenceable(24) %3, i32 %2, i64 %4, i32* %5, %"struct.crashpad::UUID"* %6)
  br label %15

15:                                               ; preds = %12, %11
  %16 = phi i1 [ %14, %12 ], [ false, %11 ]
  call void @_ZN8crashpad22DirectPtraceConnectionD1Ev(%"class.crashpad::DirectPtraceConnection"* nonnull %8) #10
  call void @llvm.lifetime.end.p0i8(i64 72, i8* nonnull %9) #10
  ret i1 %16
}

declare void @_ZN8crashpad7Metrics20ExceptionEncounteredEv() local_unnamed_addr #4

; Function Attrs: argmemonly nounwind
declare void @llvm.lifetime.start.p0i8(i64 immarg, i8* nocapture) #5

; Function Attrs: argmemonly nounwind
declare void @llvm.memset.p0i8.i64(i8* nocapture writeonly, i8, i64, i1 immarg) #5

declare void @_ZN8crashpad22DirectPtraceConnectionC1Ev(%"class.crashpad::DirectPtraceConnection"*) unnamed_addr #4

declare zeroext i1 @_ZN8crashpad22DirectPtraceConnection10InitializeEi(%"class.crashpad::DirectPtraceConnection"*, i32) local_unnamed_addr #4

declare void @_ZN8crashpad7Metrics22ExceptionCaptureResultENS0_13CaptureResultE(i32) local_unnamed_addr #4

; Function Attrs: nounwind ssp uwtable
define hidden zeroext i1 @_ZN8crashpad27CrashReportExceptionHandler29HandleExceptionWithConnectionEPNS_16PtraceConnectionERKNS_24ExceptionHandlerProtocol17ClientInformationEjmPiPNS_4UUIDE(%"class.crashpad::CrashReportExceptionHandler"* nocapture readonly, %"class.crashpad::PtraceConnection"*, %"struct.crashpad::ExceptionHandlerProtocol::ClientInformation"* dereferenceable(24), i32, i64, i32*, %"struct.crashpad::UUID"*) local_unnamed_addr #2 align 2 {
  %8 = alloca %"class.std::__1::unique_ptr.51", align 8
  %9 = alloca %"class.std::__1::unique_ptr.169", align 8
  %10 = alloca %"struct.crashpad::UUID", align 4
  %11 = bitcast %"class.std::__1::unique_ptr.51"* %8 to i8*
  call void @llvm.lifetime.start.p0i8(i64 8, i8* nonnull %11) #10
  %12 = getelementptr inbounds %"class.std::__1::unique_ptr.51", %"class.std::__1::unique_ptr.51"* %8, i64 0, i32 0, i32 0, i32 0
  %13 = bitcast %"class.std::__1::unique_ptr.51"* %8 to i64*
  store i64 0, i64* %13, align 8
  %14 = bitcast %"class.std::__1::unique_ptr.169"* %9 to i8*
  call void @llvm.lifetime.start.p0i8(i64 8, i8* nonnull %14) #10
  %15 = getelementptr inbounds %"class.std::__1::unique_ptr.169", %"class.std::__1::unique_ptr.169"* %9, i64 0, i32 0, i32 0, i32 0
  %16 = bitcast %"class.std::__1::unique_ptr.169"* %9 to i64*
  store i64 0, i64* %16, align 8
  %17 = getelementptr inbounds %"class.crashpad::CrashReportExceptionHandler", %"class.crashpad::CrashReportExceptionHandler"* %0, i64 0, i32 3
  %18 = load %"class.std::__1::map"*, %"class.std::__1::map"** %17, align 8
  %19 = call zeroext i1 @_ZN8crashpad15CaptureSnapshotEPNS_16PtraceConnectionERKNS_24ExceptionHandlerProtocol17ClientInformationERKNSt3__13mapINS6_12basic_stringIcNS6_11char_traitsIcEENS6_9allocatorIcEEEESD_NS6_4lessISD_EENSB_INS6_4pairIKSD_SD_EEEEEEjmPiPNS6_10unique_ptrINS_20ProcessSnapshotLinuxENS6_14default_deleteISP_EEEEPNSO_INS_24ProcessSnapshotSanitizedENSQ_ISU_EEEE(%"class.crashpad::PtraceConnection"* %1, %"struct.crashpad::ExceptionHandlerProtocol::ClientInformation"* dereferenceable(24) %2, %"class.std::__1::map"* dereferenceable(24) %18, i32 %3, i64 %4, i32* %5, %"class.std::__1::unique_ptr.51"* nonnull %8, %"class.std::__1::unique_ptr.169"* nonnull %9) #10
  br i1 %19, label %20, label %50

20:                                               ; preds = %7
  %21 = bitcast %"struct.crashpad::UUID"* %10 to i8*
  call void @llvm.lifetime.start.p0i8(i64 16, i8* nonnull %21) #10
  %22 = getelementptr inbounds %"class.crashpad::CrashReportExceptionHandler", %"class.crashpad::CrashReportExceptionHandler"* %0, i64 0, i32 1
  %23 = bitcast %"struct.crashpad::UUID"* %10 to i8*
  call void @llvm.memset.p0i8.i64(i8* nonnull align 4 %23, i8 -86, i64 16, i1 false)
  %24 = load %"class.crashpad::CrashReportDatabase"*, %"class.crashpad::CrashReportDatabase"** %22, align 8
  %25 = bitcast %"class.crashpad::CrashReportDatabase"* %24 to %"class.crashpad::Settings"* (%"class.crashpad::CrashReportDatabase"*)***
  %26 = load %"class.crashpad::Settings"* (%"class.crashpad::CrashReportDatabase"*)**, %"class.crashpad::Settings"* (%"class.crashpad::CrashReportDatabase"*)*** %25, align 8
  %27 = getelementptr inbounds %"class.crashpad::Settings"* (%"class.crashpad::CrashReportDatabase"*)*, %"class.crashpad::Settings"* (%"class.crashpad::CrashReportDatabase"*)** %26, i64 2
  %28 = load %"class.crashpad::Settings"* (%"class.crashpad::CrashReportDatabase"*)*, %"class.crashpad::Settings"* (%"class.crashpad::CrashReportDatabase"*)** %27, align 8
  %29 = call %"class.crashpad::Settings"* %28(%"class.crashpad::CrashReportDatabase"* %24) #10
  %30 = icmp eq %"class.crashpad::Settings"* %29, null
  br i1 %30, label %33, label %31

31:                                               ; preds = %20
  %32 = call zeroext i1 @_ZN8crashpad8Settings11GetClientIDEPNS_4UUIDE(%"class.crashpad::Settings"* nonnull %29, %"struct.crashpad::UUID"* nonnull %10) #10
  br label %33

33:                                               ; preds = %20, %31
  %34 = load %"class.crashpad::ProcessSnapshotLinux"*, %"class.crashpad::ProcessSnapshotLinux"** %12, align 8
  %35 = getelementptr inbounds %"class.crashpad::ProcessSnapshotLinux", %"class.crashpad::ProcessSnapshotLinux"* %34, i64 0, i32 4
  %36 = bitcast %"struct.crashpad::UUID"* %35 to i8*
  call void @llvm.memcpy.p0i8.p0i8.i64(i8* align 8 %36, i8* nonnull align 4 %21, i64 16, i1 false) #10
  %37 = getelementptr inbounds %"class.crashpad::CrashReportExceptionHandler", %"class.crashpad::CrashReportExceptionHandler"* %0, i64 0, i32 5
  %38 = load i8, i8* %37, align 8, !range !2
  %39 = icmp eq i8 %38, 0
  %40 = load %"class.crashpad::ProcessSnapshotSanitized"*, %"class.crashpad::ProcessSnapshotSanitized"** %15, align 8
  br i1 %39, label %46, label %41

41:                                               ; preds = %33
  %42 = getelementptr inbounds %"class.crashpad::CrashReportExceptionHandler", %"class.crashpad::CrashReportExceptionHandler"* %0, i64 0, i32 6
  %43 = load i8, i8* %42, align 1, !range !2
  %44 = icmp ne i8 %43, 0
  %45 = call zeroext i1 @_ZN8crashpad27CrashReportExceptionHandler23WriteMinidumpToDatabaseEPNS_20ProcessSnapshotLinuxEPNS_24ProcessSnapshotSanitizedEbPNS_4UUIDE(%"class.crashpad::CrashReportExceptionHandler"* %0, %"class.crashpad::ProcessSnapshotLinux"* %34, %"class.crashpad::ProcessSnapshotSanitized"* %40, i1 zeroext %44, %"struct.crashpad::UUID"* %6)
  br label %48

46:                                               ; preds = %33
  %47 = call zeroext i1 @_ZN8crashpad27CrashReportExceptionHandler18WriteMinidumpToLogEPNS_20ProcessSnapshotLinuxEPNS_24ProcessSnapshotSanitizedE(%"class.crashpad::CrashReportExceptionHandler"* %0, %"class.crashpad::ProcessSnapshotLinux"* %34, %"class.crashpad::ProcessSnapshotSanitized"* %40)
  br label %48

48:                                               ; preds = %46, %41
  %49 = phi i1 [ %45, %41 ], [ %47, %46 ]
  call void @llvm.lifetime.end.p0i8(i64 16, i8* nonnull %21) #10
  br label %50

50:                                               ; preds = %7, %48
  %51 = phi i1 [ %49, %48 ], [ false, %7 ]
  %52 = load %"class.crashpad::ProcessSnapshotSanitized"*, %"class.crashpad::ProcessSnapshotSanitized"** %15, align 8
  store %"class.crashpad::ProcessSnapshotSanitized"* null, %"class.crashpad::ProcessSnapshotSanitized"** %15, align 8
  %53 = icmp eq %"class.crashpad::ProcessSnapshotSanitized"* %52, null
  br i1 %53, label %59, label %54

54:                                               ; preds = %50
  %55 = bitcast %"class.crashpad::ProcessSnapshotSanitized"* %52 to void (%"class.crashpad::ProcessSnapshotSanitized"*)***
  %56 = load void (%"class.crashpad::ProcessSnapshotSanitized"*)**, void (%"class.crashpad::ProcessSnapshotSanitized"*)*** %55, align 8
  %57 = getelementptr inbounds void (%"class.crashpad::ProcessSnapshotSanitized"*)*, void (%"class.crashpad::ProcessSnapshotSanitized"*)** %56, i64 1
  %58 = load void (%"class.crashpad::ProcessSnapshotSanitized"*)*, void (%"class.crashpad::ProcessSnapshotSanitized"*)** %57, align 8
  call void %58(%"class.crashpad::ProcessSnapshotSanitized"* nonnull %52) #10
  br label %59

59:                                               ; preds = %50, %54
  call void @llvm.lifetime.end.p0i8(i64 8, i8* nonnull %14) #10
  %60 = load %"class.crashpad::ProcessSnapshotLinux"*, %"class.crashpad::ProcessSnapshotLinux"** %12, align 8
  store %"class.crashpad::ProcessSnapshotLinux"* null, %"class.crashpad::ProcessSnapshotLinux"** %12, align 8
  %61 = icmp eq %"class.crashpad::ProcessSnapshotLinux"* %60, null
  br i1 %61, label %67, label %62

62:                                               ; preds = %59
  %63 = bitcast %"class.crashpad::ProcessSnapshotLinux"* %60 to void (%"class.crashpad::ProcessSnapshotLinux"*)***
  %64 = load void (%"class.crashpad::ProcessSnapshotLinux"*)**, void (%"class.crashpad::ProcessSnapshotLinux"*)*** %63, align 8
  %65 = getelementptr inbounds void (%"class.crashpad::ProcessSnapshotLinux"*)*, void (%"class.crashpad::ProcessSnapshotLinux"*)** %64, i64 1
  %66 = load void (%"class.crashpad::ProcessSnapshotLinux"*)*, void (%"class.crashpad::ProcessSnapshotLinux"*)** %65, align 8
  call void %66(%"class.crashpad::ProcessSnapshotLinux"* nonnull %60) #10
  br label %67

67:                                               ; preds = %59, %62
  call void @llvm.lifetime.end.p0i8(i64 8, i8* nonnull %11) #10
  ret i1 %51
}

; Function Attrs: nounwind
declare void @_ZN8crashpad22DirectPtraceConnectionD1Ev(%"class.crashpad::DirectPtraceConnection"*) unnamed_addr #6

; Function Attrs: argmemonly nounwind
declare void @llvm.lifetime.end.p0i8(i64 immarg, i8* nocapture) #5

; Function Attrs: nounwind ssp uwtable
define hidden zeroext i1 @_ZN8crashpad27CrashReportExceptionHandler25HandleExceptionWithBrokerEijRKNS_24ExceptionHandlerProtocol17ClientInformationEiPNS_4UUIDE(%"class.crashpad::CrashReportExceptionHandler"* nocapture readonly, i32, i32, %"struct.crashpad::ExceptionHandlerProtocol::ClientInformation"* dereferenceable(24), i32, %"struct.crashpad::UUID"*) unnamed_addr #2 align 2 {
  %7 = alloca %"class.crashpad::PtraceClient", align 8
  tail call void @_ZN8crashpad7Metrics20ExceptionEncounteredEv() #10
  %8 = bitcast %"class.crashpad::PtraceClient"* %7 to i8*
  call void @llvm.lifetime.start.p0i8(i64 32, i8* nonnull %8) #10
  %9 = bitcast %"class.crashpad::PtraceClient"* %7 to i8*
  call void @llvm.memset.p0i8.i64(i8* nonnull align 8 %9, i8 -86, i64 32, i1 false)
  call void @_ZN8crashpad12PtraceClientC1Ev(%"class.crashpad::PtraceClient"* nonnull %7) #10
  %10 = call zeroext i1 @_ZN8crashpad12PtraceClient10InitializeEiib(%"class.crashpad::PtraceClient"* nonnull %7, i32 %4, i32 %1, i1 zeroext true) #10
  br i1 %10, label %12, label %11

11:                                               ; preds = %6
  call void @_ZN8crashpad7Metrics22ExceptionCaptureResultENS0_13CaptureResultE(i32 9) #10
  br label %15

12:                                               ; preds = %6
  %13 = getelementptr inbounds %"class.crashpad::PtraceClient", %"class.crashpad::PtraceClient"* %7, i64 0, i32 0
  %14 = call zeroext i1 @_ZN8crashpad27CrashReportExceptionHandler29HandleExceptionWithConnectionEPNS_16PtraceConnectionERKNS_24ExceptionHandlerProtocol17ClientInformationEjmPiPNS_4UUIDE(%"class.crashpad::CrashReportExceptionHandler"* %0, %"class.crashpad::PtraceConnection"* nonnull %13, %"struct.crashpad::ExceptionHandlerProtocol::ClientInformation"* dereferenceable(24) %3, i32 %2, i64 0, i32* null, %"struct.crashpad::UUID"* %5)
  br label %15

15:                                               ; preds = %12, %11
  %16 = phi i1 [ %14, %12 ], [ false, %11 ]
  call void @_ZN8crashpad12PtraceClientD1Ev(%"class.crashpad::PtraceClient"* nonnull %7) #10
  call void @llvm.lifetime.end.p0i8(i64 32, i8* nonnull %8) #10
  ret i1 %16
}

declare void @_ZN8crashpad12PtraceClientC1Ev(%"class.crashpad::PtraceClient"*) unnamed_addr #4

declare zeroext i1 @_ZN8crashpad12PtraceClient10InitializeEiib(%"class.crashpad::PtraceClient"*, i32, i32, i1 zeroext) local_unnamed_addr #4

; Function Attrs: nounwind
declare void @_ZN8crashpad12PtraceClientD1Ev(%"class.crashpad::PtraceClient"*) unnamed_addr #6

declare zeroext i1 @_ZN8crashpad15CaptureSnapshotEPNS_16PtraceConnectionERKNS_24ExceptionHandlerProtocol17ClientInformationERKNSt3__13mapINS6_12basic_stringIcNS6_11char_traitsIcEENS6_9allocatorIcEEEESD_NS6_4lessISD_EENSB_INS6_4pairIKSD_SD_EEEEEEjmPiPNS6_10unique_ptrINS_20ProcessSnapshotLinuxENS6_14default_deleteISP_EEEEPNSO_INS_24ProcessSnapshotSanitizedENSQ_ISU_EEEE(%"class.crashpad::PtraceConnection"*, %"struct.crashpad::ExceptionHandlerProtocol::ClientInformation"* dereferenceable(24), %"class.std::__1::map"* dereferenceable(24), i32, i64, i32*, %"class.std::__1::unique_ptr.51"*, %"class.std::__1::unique_ptr.169"*) local_unnamed_addr #4

declare zeroext i1 @_ZN8crashpad8Settings11GetClientIDEPNS_4UUIDE(%"class.crashpad::Settings"*, %"struct.crashpad::UUID"*) local_unnamed_addr #4

; Function Attrs: nounwind ssp uwtable
define hidden zeroext i1 @_ZN8crashpad27CrashReportExceptionHandler23WriteMinidumpToDatabaseEPNS_20ProcessSnapshotLinuxEPNS_24ProcessSnapshotSanitizedEbPNS_4UUIDE(%"class.crashpad::CrashReportExceptionHandler"* nocapture readonly, %"class.crashpad::ProcessSnapshotLinux"*, %"class.crashpad::ProcessSnapshotSanitized"*, i1 zeroext, %"struct.crashpad::UUID"*) local_unnamed_addr #2 align 2 {
  %6 = alloca %"class.crashpad::ZlibOutputStream", align 8
  %7 = alloca [4096 x i8], align 16
  %8 = alloca %"class.std::__1::unique_ptr.205", align 8
  %9 = alloca %"class.logging::LogMessage", align 8
  %10 = alloca %"class.crashpad::MinidumpFileWriter", align 8
  %11 = alloca %"class.logging::LogMessage", align 8
  %12 = alloca %"class.logging::LogMessage", align 8
  %13 = alloca %"class.crashpad::FileReader", align 8
  %14 = alloca %"class.logging::LogMessage", align 8
  %15 = alloca %"class.base::FilePath", align 8
  %16 = alloca %"class.logging::LogMessage", align 8
  %17 = alloca %"struct.crashpad::UUID", align 4
  %18 = alloca %"class.logging::LogMessage", align 8
  %19 = bitcast %"class.std::__1::unique_ptr.205"* %8 to i8*
  call void @llvm.lifetime.start.p0i8(i64 8, i8* nonnull %19) #10
  %20 = getelementptr inbounds %"class.std::__1::unique_ptr.205", %"class.std::__1::unique_ptr.205"* %8, i64 0, i32 0, i32 0, i32 0
  %21 = bitcast %"class.std::__1::unique_ptr.205"* %8 to i64*
  store i64 0, i64* %21, align 8
  %22 = getelementptr inbounds %"class.crashpad::CrashReportExceptionHandler", %"class.crashpad::CrashReportExceptionHandler"* %0, i64 0, i32 1
  %23 = load %"class.crashpad::CrashReportDatabase"*, %"class.crashpad::CrashReportDatabase"** %22, align 8
  %24 = bitcast %"class.crashpad::CrashReportDatabase"* %23 to i32 (%"class.crashpad::CrashReportDatabase"*, %"class.std::__1::unique_ptr.205"*)***
  %25 = load i32 (%"class.crashpad::CrashReportDatabase"*, %"class.std::__1::unique_ptr.205"*)**, i32 (%"class.crashpad::CrashReportDatabase"*, %"class.std::__1::unique_ptr.205"*)*** %24, align 8
  %26 = getelementptr inbounds i32 (%"class.crashpad::CrashReportDatabase"*, %"class.std::__1::unique_ptr.205"*)*, i32 (%"class.crashpad::CrashReportDatabase"*, %"class.std::__1::unique_ptr.205"*)** %25, i64 3
  %27 = load i32 (%"class.crashpad::CrashReportDatabase"*, %"class.std::__1::unique_ptr.205"*)*, i32 (%"class.crashpad::CrashReportDatabase"*, %"class.std::__1::unique_ptr.205"*)** %26, align 8
  %28 = call i32 %27(%"class.crashpad::CrashReportDatabase"* %23, %"class.std::__1::unique_ptr.205"* nonnull %8) #10
  %29 = icmp eq i32 %28, 0
  br i1 %29, label %38, label %30

30:                                               ; preds = %5
  %31 = call zeroext i1 @_ZN7logging22ShouldCreateLogMessageEi(i32 2) #10
  br i1 %31, label %32, label %37

32:                                               ; preds = %30
  %33 = bitcast %"class.logging::LogMessage"* %9 to i8*
  call void @llvm.lifetime.start.p0i8(i64 304, i8* nonnull %33) #10
  call void @_ZN7logging10LogMessageC1EPKcii(%"class.logging::LogMessage"* nonnull %9, i8* getelementptr inbounds ([84 x i8], [84 x i8]* @.str, i64 0, i64 0), i32 212, i32 2) #10
  %34 = getelementptr inbounds %"class.logging::LogMessage", %"class.logging::LogMessage"* %9, i64 0, i32 2
  %35 = bitcast %"class.std::__1::basic_ostringstream"* %34 to %"class.std::__1::basic_ostream"*
  %36 = call dereferenceable(160) %"class.std::__1::basic_ostream"* @_ZNSt3__124__put_character_sequenceIcNS_11char_traitsIcEEEERNS_13basic_ostreamIT_T0_EES7_PKS4_m(%"class.std::__1::basic_ostream"* dereferenceable(160) %35, i8* getelementptr inbounds ([29 x i8], [29 x i8]* @.str.1, i64 0, i64 0), i64 28) #10
  call void @_ZN7logging10LogMessageD1Ev(%"class.logging::LogMessage"* nonnull %9) #10
  call void @llvm.lifetime.end.p0i8(i64 304, i8* nonnull %33) #10
  br label %37

37:                                               ; preds = %30, %32
  call void @_ZN8crashpad7Metrics22ExceptionCaptureResultENS0_13CaptureResultE(i32 5) #10
  br label %209

38:                                               ; preds = %5
  %39 = load %"class.crashpad::CrashReportDatabase::NewReport"*, %"class.crashpad::CrashReportDatabase::NewReport"** %20, align 8
  %40 = getelementptr inbounds %"class.crashpad::CrashReportDatabase::NewReport", %"class.crashpad::CrashReportDatabase::NewReport"* %39, i64 0, i32 5
  %41 = getelementptr inbounds %"class.crashpad::ProcessSnapshotLinux", %"class.crashpad::ProcessSnapshotLinux"* %1, i64 0, i32 3
  %42 = bitcast %"struct.crashpad::UUID"* %41 to i8*
  %43 = bitcast %"struct.crashpad::UUID"* %40 to i8*
  call void @llvm.memcpy.p0i8.p0i8.i64(i8* align 8 %42, i8* align 4 %43, i64 16, i1 false) #10
  %44 = icmp eq %"class.crashpad::ProcessSnapshotSanitized"* %2, null
  %45 = getelementptr inbounds %"class.crashpad::ProcessSnapshotSanitized", %"class.crashpad::ProcessSnapshotSanitized"* %2, i64 0, i32 0
  %46 = getelementptr inbounds %"class.crashpad::ProcessSnapshotLinux", %"class.crashpad::ProcessSnapshotLinux"* %1, i64 0, i32 0
  %47 = select i1 %44, %"class.crashpad::ProcessSnapshot"* %46, %"class.crashpad::ProcessSnapshot"* %45
  %48 = bitcast %"class.crashpad::MinidumpFileWriter"* %10 to i8*
  call void @llvm.lifetime.start.p0i8(i64 152, i8* nonnull %48) #10
  call void @llvm.memset.p0i8.i64(i8* nonnull align 8 %48, i8 -86, i64 152, i1 false)
  call void @_ZN8crashpad18MinidumpFileWriterC1Ev(%"class.crashpad::MinidumpFileWriter"* nonnull %10) #10
  call void @_ZN8crashpad18MinidumpFileWriter22InitializeFromSnapshotEPKNS_15ProcessSnapshotE(%"class.crashpad::MinidumpFileWriter"* nonnull %10, %"class.crashpad::ProcessSnapshot"* %47) #10
  %49 = getelementptr inbounds %"class.crashpad::CrashReportExceptionHandler", %"class.crashpad::CrashReportExceptionHandler"* %0, i64 0, i32 7
  %50 = load %"class.std::__1::vector.24"*, %"class.std::__1::vector.24"** %49, align 8
  call void @_ZN8crashpad23AddUserExtensionStreamsEPKNSt3__16vectorINS0_10unique_ptrINS_20UserStreamDataSourceENS0_14default_deleteIS3_EEEENS0_9allocatorIS6_EEEEPNS_15ProcessSnapshotEPNS_18MinidumpFileWriterE(%"class.std::__1::vector.24"* %50, %"class.crashpad::ProcessSnapshot"* %47, %"class.crashpad::MinidumpFileWriter"* nonnull %10) #10
  %51 = load %"class.crashpad::CrashReportDatabase::NewReport"*, %"class.crashpad::CrashReportDatabase::NewReport"** %20, align 8
  %52 = getelementptr inbounds %"class.crashpad::CrashReportDatabase::NewReport", %"class.crashpad::CrashReportDatabase::NewReport"* %51, i64 0, i32 0, i32 0, i32 0, i32 0
  %53 = load %"class.crashpad::FileWriter"*, %"class.crashpad::FileWriter"** %52, align 8
  %54 = getelementptr inbounds %"class.crashpad::FileWriter", %"class.crashpad::FileWriter"* %53, i64 0, i32 0
  %55 = call zeroext i1 @_ZN8crashpad18MinidumpFileWriter15WriteEverythingEPNS_19FileWriterInterfaceE(%"class.crashpad::MinidumpFileWriter"* nonnull %10, %"class.crashpad::FileWriterInterface"* %54) #10
  br i1 %55, label %64, label %56

56:                                               ; preds = %38
  %57 = call zeroext i1 @_ZN7logging22ShouldCreateLogMessageEi(i32 2) #10
  br i1 %57, label %58, label %63

58:                                               ; preds = %56
  %59 = bitcast %"class.logging::LogMessage"* %11 to i8*
  call void @llvm.lifetime.start.p0i8(i64 304, i8* nonnull %59) #10
  call void @_ZN7logging10LogMessageC1EPKcii(%"class.logging::LogMessage"* nonnull %11, i8* getelementptr inbounds ([84 x i8], [84 x i8]* @.str, i64 0, i64 0), i32 229, i32 2) #10
  %60 = getelementptr inbounds %"class.logging::LogMessage", %"class.logging::LogMessage"* %11, i64 0, i32 2
  %61 = bitcast %"class.std::__1::basic_ostringstream"* %60 to %"class.std::__1::basic_ostream"*
  %62 = call dereferenceable(160) %"class.std::__1::basic_ostream"* @_ZNSt3__124__put_character_sequenceIcNS_11char_traitsIcEEEERNS_13basic_ostreamIT_T0_EES7_PKS4_m(%"class.std::__1::basic_ostream"* dereferenceable(160) %61, i8* getelementptr inbounds ([23 x i8], [23 x i8]* @.str.2, i64 0, i64 0), i64 22) #10
  call void @_ZN7logging10LogMessageD1Ev(%"class.logging::LogMessage"* nonnull %11) #10
  call void @llvm.lifetime.end.p0i8(i64 304, i8* nonnull %59) #10
  br label %63

63:                                               ; preds = %56, %58
  call void @_ZN8crashpad7Metrics22ExceptionCaptureResultENS0_13CaptureResultE(i32 6) #10
  br label %207

64:                                               ; preds = %38
  br i1 %3, label %65, label %108

65:                                               ; preds = %64
  %66 = load %"class.crashpad::CrashReportDatabase::NewReport"*, %"class.crashpad::CrashReportDatabase::NewReport"** %20, align 8
  %67 = call %"class.crashpad::FileReaderInterface"* @_ZN8crashpad19CrashReportDatabase9NewReport6ReaderEv(%"class.crashpad::CrashReportDatabase::NewReport"* %66) #10
  %68 = icmp eq %"class.crashpad::FileReaderInterface"* %67, null
  br i1 %68, label %108, label %69

69:                                               ; preds = %65
  %70 = bitcast %"class.crashpad::ZlibOutputStream"* %6 to i8*
  call void @llvm.lifetime.start.p0i8(i64 4232, i8* nonnull %70) #10
  call void @llvm.memset.p0i8.i64(i8* nonnull align 8 %70, i8 -86, i64 4232, i1 false) #10
  %71 = call i8* @_Znwm(i64 8) #9
  %72 = bitcast i8* %71 to i32 (...)***
  store i32 (...)** bitcast (i8** getelementptr inbounds ({ [7 x i8*] }, { [7 x i8*] }* @_ZTVN8crashpad12_GLOBAL__N_16LoggerE, i64 0, inrange i32 0, i64 2) to i32 (...)**), i32 (...)*** %72, align 8
  %73 = call i8* @_Znwm(i64 56) #9
  %74 = bitcast i8* %73 to %"class.crashpad::LogOutputStream"*
  %75 = bitcast i8* %71 to %"class.crashpad::LogOutputStream::Delegate"*
  call void @_ZN8crashpad15LogOutputStreamC1ENSt3__110unique_ptrINS0_8DelegateENS1_14default_deleteIS3_EEEE(%"class.crashpad::LogOutputStream"* nonnull %74, %"class.crashpad::LogOutputStream::Delegate"* nonnull %75) #10
  %76 = call i8* @_Znwm(i64 72) #9
  %77 = bitcast i8* %76 to %"class.crashpad::Base94OutputStream"*
  %78 = bitcast i8* %73 to %"class.crashpad::OutputStreamInterface"*
  call void @_ZN8crashpad18Base94OutputStreamC1ENS0_4ModeENSt3__110unique_ptrINS_21OutputStreamInterfaceENS2_14default_deleteIS4_EEEE(%"class.crashpad::Base94OutputStream"* nonnull %77, i1 zeroext false, %"class.crashpad::OutputStreamInterface"* nonnull %78) #10
  %79 = bitcast i8* %76 to %"class.crashpad::OutputStreamInterface"*
  call void @_ZN8crashpad16ZlibOutputStreamC1ENS0_4ModeENSt3__110unique_ptrINS_21OutputStreamInterfaceENS2_14default_deleteIS4_EEEE(%"class.crashpad::ZlibOutputStream"* nonnull %6, i1 zeroext false, %"class.crashpad::OutputStreamInterface"* nonnull %79) #10
  %80 = getelementptr inbounds [4096 x i8], [4096 x i8]* %7, i64 0, i64 0
  call void @llvm.lifetime.start.p0i8(i64 4096, i8* nonnull %80) #10
  call void @llvm.memset.p0i8.i64(i8* nonnull align 16 %80, i8 -86, i64 4096, i1 false) #10
  %81 = bitcast %"class.crashpad::FileReaderInterface"* %67 to i64 (%"class.crashpad::FileReaderInterface"*, i8*, i64)***
  %82 = load i64 (%"class.crashpad::FileReaderInterface"*, i8*, i64)**, i64 (%"class.crashpad::FileReaderInterface"*, i8*, i64)*** %81, align 8
  %83 = getelementptr inbounds i64 (%"class.crashpad::FileReaderInterface"*, i8*, i64)*, i64 (%"class.crashpad::FileReaderInterface"*, i8*, i64)** %82, i64 3
  %84 = load i64 (%"class.crashpad::FileReaderInterface"*, i8*, i64)*, i64 (%"class.crashpad::FileReaderInterface"*, i8*, i64)** %83, align 8
  %85 = call i64 %84(%"class.crashpad::FileReaderInterface"* nonnull %67, i8* nonnull %80, i64 4096) #10
  %86 = icmp slt i64 %85, 0
  br i1 %86, label %92, label %87

87:                                               ; preds = %69, %93
  %88 = phi i64 [ %97, %93 ], [ %85, %69 ]
  %89 = icmp eq i64 %88, 0
  br i1 %89, label %99, label %90

90:                                               ; preds = %87
  %91 = call zeroext i1 @_ZN8crashpad16ZlibOutputStream5WriteEPKhm(%"class.crashpad::ZlibOutputStream"* nonnull %6, i8* nonnull %80, i64 %88) #10
  br i1 %91, label %93, label %92

92:                                               ; preds = %90, %93, %69
  call void @llvm.lifetime.end.p0i8(i64 4096, i8* nonnull %80) #10
  call void @_ZN8crashpad16ZlibOutputStreamD1Ev(%"class.crashpad::ZlibOutputStream"* nonnull %6) #10
  call void @llvm.lifetime.end.p0i8(i64 4232, i8* nonnull %70) #10
  br label %101

93:                                               ; preds = %90
  call void @llvm.lifetime.end.p0i8(i64 4096, i8* nonnull %80) #10
  call void @llvm.lifetime.start.p0i8(i64 4096, i8* nonnull %80) #10
  call void @llvm.memset.p0i8.i64(i8* nonnull align 16 %80, i8 -86, i64 4096, i1 false) #10
  %94 = load i64 (%"class.crashpad::FileReaderInterface"*, i8*, i64)**, i64 (%"class.crashpad::FileReaderInterface"*, i8*, i64)*** %81, align 8
  %95 = getelementptr inbounds i64 (%"class.crashpad::FileReaderInterface"*, i8*, i64)*, i64 (%"class.crashpad::FileReaderInterface"*, i8*, i64)** %94, i64 3
  %96 = load i64 (%"class.crashpad::FileReaderInterface"*, i8*, i64)*, i64 (%"class.crashpad::FileReaderInterface"*, i8*, i64)** %95, align 8
  %97 = call i64 %96(%"class.crashpad::FileReaderInterface"* nonnull %67, i8* nonnull %80, i64 4096) #10
  %98 = icmp slt i64 %97, 0
  br i1 %98, label %92, label %87

99:                                               ; preds = %87
  call void @llvm.lifetime.end.p0i8(i64 4096, i8* nonnull %80) #10
  %100 = call zeroext i1 @_ZN8crashpad16ZlibOutputStream5FlushEv(%"class.crashpad::ZlibOutputStream"* nonnull %6) #10
  call void @_ZN8crashpad16ZlibOutputStreamD1Ev(%"class.crashpad::ZlibOutputStream"* nonnull %6) #10
  call void @llvm.lifetime.end.p0i8(i64 4232, i8* nonnull %70) #10
  br i1 %100, label %108, label %101

101:                                              ; preds = %92, %99
  %102 = call zeroext i1 @_ZN7logging22ShouldCreateLogMessageEi(i32 2) #10
  br i1 %102, label %103, label %108

103:                                              ; preds = %101
  %104 = bitcast %"class.logging::LogMessage"* %12 to i8*
  call void @llvm.lifetime.start.p0i8(i64 304, i8* nonnull %104) #10
  call void @_ZN7logging10LogMessageC1EPKcii(%"class.logging::LogMessage"* nonnull %12, i8* getelementptr inbounds ([84 x i8], [84 x i8]* @.str, i64 0, i64 0), i32 241, i32 2) #10
  %105 = getelementptr inbounds %"class.logging::LogMessage", %"class.logging::LogMessage"* %12, i64 0, i32 2
  %106 = bitcast %"class.std::__1::basic_ostringstream"* %105 to %"class.std::__1::basic_ostream"*
  %107 = call dereferenceable(160) %"class.std::__1::basic_ostream"* @_ZNSt3__124__put_character_sequenceIcNS_11char_traitsIcEEEERNS_13basic_ostreamIT_T0_EES7_PKS4_m(%"class.std::__1::basic_ostream"* dereferenceable(160) %106, i8* getelementptr inbounds ([32 x i8], [32 x i8]* @.str.3, i64 0, i64 0), i64 31) #10
  call void @_ZN7logging10LogMessageD1Ev(%"class.logging::LogMessage"* nonnull %12) #10
  call void @llvm.lifetime.end.p0i8(i64 304, i8* nonnull %104) #10
  br label %108

108:                                              ; preds = %103, %101, %65, %99, %64
  %109 = phi i1 [ false, %64 ], [ false, %65 ], [ true, %99 ], [ false, %101 ], [ false, %103 ]
  %110 = getelementptr inbounds %"class.crashpad::CrashReportExceptionHandler", %"class.crashpad::CrashReportExceptionHandler"* %0, i64 0, i32 4
  %111 = load %"class.std::__1::vector.17"*, %"class.std::__1::vector.17"** %110, align 8
  %112 = getelementptr inbounds %"class.std::__1::vector.17", %"class.std::__1::vector.17"* %111, i64 0, i32 0, i32 0
  %113 = load %"class.base::FilePath"*, %"class.base::FilePath"** %112, align 8
  %114 = getelementptr inbounds %"class.std::__1::vector.17", %"class.std::__1::vector.17"* %111, i64 0, i32 0, i32 1
  %115 = load %"class.base::FilePath"*, %"class.base::FilePath"** %114, align 8
  %116 = icmp eq %"class.base::FilePath"* %113, %115
  br i1 %116, label %132, label %117

117:                                              ; preds = %108
  %118 = bitcast %"class.crashpad::FileReader"* %13 to i8*
  %119 = bitcast %"class.logging::LogMessage"* %14 to i8*
  %120 = getelementptr inbounds %"class.logging::LogMessage", %"class.logging::LogMessage"* %14, i64 0, i32 2
  %121 = bitcast %"class.std::__1::basic_ostringstream"* %120 to %"class.std::__1::basic_ostream"*
  %122 = bitcast %"class.base::FilePath"* %15 to i8*
  %123 = getelementptr inbounds %"class.base::FilePath", %"class.base::FilePath"* %15, i64 0, i32 0, i32 0, i32 0, i32 0, i32 0, i32 0, i32 0
  %124 = getelementptr inbounds %"class.base::FilePath", %"class.base::FilePath"* %15, i64 0, i32 0
  %125 = getelementptr inbounds %"class.crashpad::FileReader", %"class.crashpad::FileReader"* %13, i64 0, i32 0
  %126 = bitcast %"class.logging::LogMessage"* %16 to i8*
  %127 = getelementptr inbounds %"class.logging::LogMessage", %"class.logging::LogMessage"* %16, i64 0, i32 2
  %128 = bitcast %"class.std::__1::basic_ostringstream"* %127 to %"class.std::__1::basic_ostream"*
  %129 = bitcast %"class.base::FilePath"* %15 to %"struct.std::__1::basic_string<char, std::__1::char_traits<char>, std::__1::allocator<char> >::__short"*
  %130 = getelementptr inbounds %"struct.std::__1::basic_string<char, std::__1::char_traits<char>, std::__1::allocator<char> >::__short", %"struct.std::__1::basic_string<char, std::__1::char_traits<char>, std::__1::allocator<char> >::__short"* %129, i64 0, i32 1, i32 0
  %131 = bitcast %"class.base::FilePath"* %15 to i8*
  br label %143

132:                                              ; preds = %182, %108
  %133 = bitcast %"struct.crashpad::UUID"* %17 to i8*
  call void @llvm.lifetime.start.p0i8(i64 16, i8* nonnull %133) #10
  %134 = bitcast %"struct.crashpad::UUID"* %17 to i8*
  call void @llvm.memset.p0i8.i64(i8* nonnull align 4 %134, i8 -86, i64 16, i1 false)
  %135 = load %"class.crashpad::CrashReportDatabase"*, %"class.crashpad::CrashReportDatabase"** %22, align 8
  %136 = load %"class.crashpad::CrashReportDatabase::NewReport"*, %"class.crashpad::CrashReportDatabase::NewReport"** %20, align 8
  store %"class.crashpad::CrashReportDatabase::NewReport"* null, %"class.crashpad::CrashReportDatabase::NewReport"** %20, align 8
  %137 = bitcast %"class.crashpad::CrashReportDatabase"* %135 to i32 (%"class.crashpad::CrashReportDatabase"*, %"class.crashpad::CrashReportDatabase::NewReport"*, %"struct.crashpad::UUID"*)***
  %138 = load i32 (%"class.crashpad::CrashReportDatabase"*, %"class.crashpad::CrashReportDatabase::NewReport"*, %"struct.crashpad::UUID"*)**, i32 (%"class.crashpad::CrashReportDatabase"*, %"class.crashpad::CrashReportDatabase::NewReport"*, %"struct.crashpad::UUID"*)*** %137, align 8
  %139 = getelementptr inbounds i32 (%"class.crashpad::CrashReportDatabase"*, %"class.crashpad::CrashReportDatabase::NewReport"*, %"struct.crashpad::UUID"*)*, i32 (%"class.crashpad::CrashReportDatabase"*, %"class.crashpad::CrashReportDatabase::NewReport"*, %"struct.crashpad::UUID"*)** %138, i64 4
  %140 = load i32 (%"class.crashpad::CrashReportDatabase"*, %"class.crashpad::CrashReportDatabase::NewReport"*, %"struct.crashpad::UUID"*)*, i32 (%"class.crashpad::CrashReportDatabase"*, %"class.crashpad::CrashReportDatabase::NewReport"*, %"struct.crashpad::UUID"*)** %139, align 8
  %141 = call i32 %140(%"class.crashpad::CrashReportDatabase"* %135, %"class.crashpad::CrashReportDatabase::NewReport"* %136, %"struct.crashpad::UUID"* nonnull %17) #10
  %142 = icmp eq i32 %141, 0
  br i1 %142, label %193, label %185

143:                                              ; preds = %117, %182
  %144 = phi %"class.base::FilePath"* [ %113, %117 ], [ %183, %182 ]
  call void @llvm.lifetime.start.p0i8(i64 40, i8* nonnull %118) #10
  call void @llvm.memset.p0i8.i64(i8* nonnull align 8 %118, i8 -86, i64 40, i1 false)
  call void @_ZN8crashpad10FileReaderC1Ev(%"class.crashpad::FileReader"* nonnull %13) #10
  %145 = call zeroext i1 @_ZN8crashpad10FileReader4OpenERKN4base8FilePathE(%"class.crashpad::FileReader"* nonnull %13, %"class.base::FilePath"* dereferenceable(24) %144) #10
  br i1 %145, label %164, label %146

146:                                              ; preds = %143
  %147 = call zeroext i1 @_ZN7logging22ShouldCreateLogMessageEi(i32 2) #10
  br i1 %147, label %148, label %182

148:                                              ; preds = %146
  call void @llvm.lifetime.start.p0i8(i64 304, i8* nonnull %119) #10
  call void @_ZN7logging10LogMessageC1EPKcii(%"class.logging::LogMessage"* nonnull %14, i8* getelementptr inbounds ([84 x i8], [84 x i8]* @.str, i64 0, i64 0), i32 248, i32 2) #10
  %149 = call dereferenceable(160) %"class.std::__1::basic_ostream"* @_ZNSt3__124__put_character_sequenceIcNS_11char_traitsIcEEEERNS_13basic_ostreamIT_T0_EES7_PKS4_m(%"class.std::__1::basic_ostream"* dereferenceable(160) %121, i8* getelementptr inbounds ([12 x i8], [12 x i8]* @.str.4, i64 0, i64 0), i64 11) #10
  %150 = bitcast %"class.base::FilePath"* %144 to %"struct.std::__1::basic_string<char, std::__1::char_traits<char>, std::__1::allocator<char> >::__short"*
  %151 = getelementptr inbounds %"struct.std::__1::basic_string<char, std::__1::char_traits<char>, std::__1::allocator<char> >::__short", %"struct.std::__1::basic_string<char, std::__1::char_traits<char>, std::__1::allocator<char> >::__short"* %150, i64 0, i32 1, i32 0
  %152 = load i8, i8* %151, align 1
  %153 = icmp slt i8 %152, 0
  br i1 %153, label %154, label %157

154:                                              ; preds = %148
  %155 = getelementptr inbounds %"class.base::FilePath", %"class.base::FilePath"* %144, i64 0, i32 0, i32 0, i32 0, i32 0, i32 0, i32 0, i32 0
  %156 = load i8*, i8** %155, align 8
  br label %159

157:                                              ; preds = %148
  %158 = bitcast %"class.base::FilePath"* %144 to i8*
  br label %159

159:                                              ; preds = %154, %157
  %160 = phi i8* [ %156, %154 ], [ %158, %157 ]
  %161 = call i64 @strlen(i8* %160) #10
  %162 = call dereferenceable(160) %"class.std::__1::basic_ostream"* @_ZNSt3__124__put_character_sequenceIcNS_11char_traitsIcEEEERNS_13basic_ostreamIT_T0_EES7_PKS4_m(%"class.std::__1::basic_ostream"* dereferenceable(160) %149, i8* %160, i64 %161) #10
  %163 = call dereferenceable(160) %"class.std::__1::basic_ostream"* @_ZNSt3__124__put_character_sequenceIcNS_11char_traitsIcEEEERNS_13basic_ostreamIT_T0_EES7_PKS4_m(%"class.std::__1::basic_ostream"* dereferenceable(160) %162, i8* getelementptr inbounds ([30 x i8], [30 x i8]* @.str.5, i64 0, i64 0), i64 29) #10
  call void @_ZN7logging10LogMessageD1Ev(%"class.logging::LogMessage"* nonnull %14) #10
  call void @llvm.lifetime.end.p0i8(i64 304, i8* nonnull %119) #10
  br label %182

164:                                              ; preds = %143
  call void @llvm.lifetime.start.p0i8(i64 24, i8* nonnull %122) #10
  call void @llvm.memset.p0i8.i64(i8* nonnull align 8 %131, i8 -86, i64 24, i1 false)
  call void @_ZNK4base8FilePath8BaseNameEv(%"class.base::FilePath"* nonnull sret %15, %"class.base::FilePath"* %144) #10
  %165 = load %"class.crashpad::CrashReportDatabase::NewReport"*, %"class.crashpad::CrashReportDatabase::NewReport"** %20, align 8
  %166 = call %"class.crashpad::FileWriter"* @_ZN8crashpad19CrashReportDatabase9NewReport13AddAttachmentERKNSt3__112basic_stringIcNS2_11char_traitsIcEENS2_9allocatorIcEEEE(%"class.crashpad::CrashReportDatabase::NewReport"* %165, %"class.std::__1::basic_string"* nonnull dereferenceable(24) %124) #10
  %167 = icmp eq %"class.crashpad::FileWriter"* %166, null
  br i1 %167, label %168, label %179

168:                                              ; preds = %164
  %169 = call zeroext i1 @_ZN7logging22ShouldCreateLogMessageEi(i32 2) #10
  br i1 %169, label %170, label %181

170:                                              ; preds = %168
  call void @llvm.lifetime.start.p0i8(i64 304, i8* nonnull %126) #10
  call void @_ZN7logging10LogMessageC1EPKcii(%"class.logging::LogMessage"* nonnull %16, i8* getelementptr inbounds ([84 x i8], [84 x i8]* @.str, i64 0, i64 0), i32 256, i32 2) #10
  %171 = call dereferenceable(160) %"class.std::__1::basic_ostream"* @_ZNSt3__124__put_character_sequenceIcNS_11char_traitsIcEEEERNS_13basic_ostreamIT_T0_EES7_PKS4_m(%"class.std::__1::basic_ostream"* dereferenceable(160) %128, i8* getelementptr inbounds ([12 x i8], [12 x i8]* @.str.4, i64 0, i64 0), i64 11) #10
  %172 = load i8, i8* %130, align 1
  %173 = icmp slt i8 %172, 0
  %174 = load i8*, i8** %123, align 8
  %175 = select i1 %173, i8* %174, i8* %122
  %176 = call i64 @strlen(i8* %175) #10
  %177 = call dereferenceable(160) %"class.std::__1::basic_ostream"* @_ZNSt3__124__put_character_sequenceIcNS_11char_traitsIcEEEERNS_13basic_ostreamIT_T0_EES7_PKS4_m(%"class.std::__1::basic_ostream"* dereferenceable(160) %171, i8* %175, i64 %176) #10
  %178 = call dereferenceable(160) %"class.std::__1::basic_ostream"* @_ZNSt3__124__put_character_sequenceIcNS_11char_traitsIcEEEERNS_13basic_ostreamIT_T0_EES7_PKS4_m(%"class.std::__1::basic_ostream"* dereferenceable(160) %177, i8* getelementptr inbounds ([31 x i8], [31 x i8]* @.str.6, i64 0, i64 0), i64 30) #10
  call void @_ZN7logging10LogMessageD1Ev(%"class.logging::LogMessage"* nonnull %16) #10
  call void @llvm.lifetime.end.p0i8(i64 304, i8* nonnull %126) #10
  br label %181

179:                                              ; preds = %164
  %180 = getelementptr inbounds %"class.crashpad::FileWriter", %"class.crashpad::FileWriter"* %166, i64 0, i32 0
  call void @_ZN8crashpad15CopyFileContentEPNS_19FileReaderInterfaceEPNS_19FileWriterInterfaceE(%"class.crashpad::FileReaderInterface"* nonnull %125, %"class.crashpad::FileWriterInterface"* %180) #10
  br label %181

181:                                              ; preds = %170, %168, %179
  call void @_ZN4base8FilePathD1Ev(%"class.base::FilePath"* nonnull %15) #10
  call void @llvm.lifetime.end.p0i8(i64 24, i8* nonnull %122) #10
  br label %182

182:                                              ; preds = %159, %146, %181
  call void @_ZN8crashpad10FileReaderD1Ev(%"class.crashpad::FileReader"* nonnull %13) #10
  call void @llvm.lifetime.end.p0i8(i64 40, i8* nonnull %118) #10
  %183 = getelementptr inbounds %"class.base::FilePath", %"class.base::FilePath"* %144, i64 1
  %184 = icmp eq %"class.base::FilePath"* %183, %115
  br i1 %184, label %132, label %143

185:                                              ; preds = %132
  %186 = call zeroext i1 @_ZN7logging22ShouldCreateLogMessageEi(i32 2) #10
  br i1 %186, label %187, label %192

187:                                              ; preds = %185
  %188 = bitcast %"class.logging::LogMessage"* %18 to i8*
  call void @llvm.lifetime.start.p0i8(i64 304, i8* nonnull %188) #10
  call void @_ZN7logging10LogMessageC1EPKcii(%"class.logging::LogMessage"* nonnull %18, i8* getelementptr inbounds ([84 x i8], [84 x i8]* @.str, i64 0, i64 0), i32 268, i32 2) #10
  %189 = getelementptr inbounds %"class.logging::LogMessage", %"class.logging::LogMessage"* %18, i64 0, i32 2
  %190 = bitcast %"class.std::__1::basic_ostringstream"* %189 to %"class.std::__1::basic_ostream"*
  %191 = call dereferenceable(160) %"class.std::__1::basic_ostream"* @_ZNSt3__124__put_character_sequenceIcNS_11char_traitsIcEEEERNS_13basic_ostreamIT_T0_EES7_PKS4_m(%"class.std::__1::basic_ostream"* dereferenceable(160) %190, i8* getelementptr inbounds ([34 x i8], [34 x i8]* @.str.7, i64 0, i64 0), i64 33) #10
  call void @_ZN7logging10LogMessageD1Ev(%"class.logging::LogMessage"* nonnull %18) #10
  call void @llvm.lifetime.end.p0i8(i64 304, i8* nonnull %188) #10
  br label %192

192:                                              ; preds = %185, %187
  call void @_ZN8crashpad7Metrics22ExceptionCaptureResultENS0_13CaptureResultE(i32 7) #10
  br label %205

193:                                              ; preds = %132
  %194 = getelementptr inbounds %"class.crashpad::CrashReportExceptionHandler", %"class.crashpad::CrashReportExceptionHandler"* %0, i64 0, i32 2
  %195 = load %"class.crashpad::CrashReportUploadThread"*, %"class.crashpad::CrashReportUploadThread"** %194, align 8
  %196 = icmp eq %"class.crashpad::CrashReportUploadThread"* %195, null
  br i1 %196, label %198, label %197

197:                                              ; preds = %193
  call void @_ZN8crashpad23CrashReportUploadThread13ReportPendingERKNS_4UUIDE(%"class.crashpad::CrashReportUploadThread"* nonnull %195, %"struct.crashpad::UUID"* nonnull dereferenceable(16) %17) #10
  br label %198

198:                                              ; preds = %193, %197
  %199 = icmp eq %"struct.crashpad::UUID"* %4, null
  br i1 %199, label %202, label %200

200:                                              ; preds = %198
  %201 = bitcast %"struct.crashpad::UUID"* %4 to i8*
  call void @llvm.memcpy.p0i8.p0i8.i64(i8* nonnull align 4 %201, i8* nonnull align 4 %133, i64 16, i1 false)
  br label %202

202:                                              ; preds = %198, %200
  call void @_ZN8crashpad7Metrics22ExceptionCaptureResultENS0_13CaptureResultE(i32 0) #10
  %203 = xor i1 %3, true
  %204 = or i1 %109, %203
  br label %205

205:                                              ; preds = %202, %192
  %206 = phi i1 [ false, %192 ], [ %204, %202 ]
  call void @llvm.lifetime.end.p0i8(i64 16, i8* nonnull %133) #10
  br label %207

207:                                              ; preds = %205, %63
  %208 = phi i1 [ %206, %205 ], [ false, %63 ]
  call void @_ZN8crashpad18MinidumpFileWriterD1Ev(%"class.crashpad::MinidumpFileWriter"* nonnull %10) #10
  call void @llvm.lifetime.end.p0i8(i64 152, i8* nonnull %48) #10
  br label %209

209:                                              ; preds = %207, %37
  %210 = phi i1 [ false, %37 ], [ %208, %207 ]
  %211 = load %"class.crashpad::CrashReportDatabase::NewReport"*, %"class.crashpad::CrashReportDatabase::NewReport"** %20, align 8
  store %"class.crashpad::CrashReportDatabase::NewReport"* null, %"class.crashpad::CrashReportDatabase::NewReport"** %20, align 8
  %212 = icmp eq %"class.crashpad::CrashReportDatabase::NewReport"* %211, null
  br i1 %212, label %215, label %213

213:                                              ; preds = %209
  call void @_ZN8crashpad19CrashReportDatabase9NewReportD1Ev(%"class.crashpad::CrashReportDatabase::NewReport"* nonnull %211) #10
  %214 = bitcast %"class.crashpad::CrashReportDatabase::NewReport"* %211 to i8*
  call void @_ZdlPv(i8* %214) #9
  br label %215

215:                                              ; preds = %209, %213
  call void @llvm.lifetime.end.p0i8(i64 8, i8* nonnull %19) #10
  ret i1 %210
}

; Function Attrs: nounwind ssp uwtable
define hidden zeroext i1 @_ZN8crashpad27CrashReportExceptionHandler18WriteMinidumpToLogEPNS_20ProcessSnapshotLinuxEPNS_24ProcessSnapshotSanitizedE(%"class.crashpad::CrashReportExceptionHandler"* nocapture readonly, %"class.crashpad::ProcessSnapshotLinux"*, %"class.crashpad::ProcessSnapshotSanitized"*) local_unnamed_addr #2 align 2 {
  %4 = alloca %"class.crashpad::MinidumpFileWriter", align 8
  %5 = alloca %"class.crashpad::OutputStreamFileWriter", align 8
  %6 = alloca %"class.logging::LogMessage", align 8
  %7 = icmp eq %"class.crashpad::ProcessSnapshotSanitized"* %2, null
  %8 = getelementptr inbounds %"class.crashpad::ProcessSnapshotSanitized", %"class.crashpad::ProcessSnapshotSanitized"* %2, i64 0, i32 0
  %9 = getelementptr inbounds %"class.crashpad::ProcessSnapshotLinux", %"class.crashpad::ProcessSnapshotLinux"* %1, i64 0, i32 0
  %10 = select i1 %7, %"class.crashpad::ProcessSnapshot"* %9, %"class.crashpad::ProcessSnapshot"* %8
  %11 = bitcast %"class.crashpad::MinidumpFileWriter"* %4 to i8*
  call void @llvm.lifetime.start.p0i8(i64 152, i8* nonnull %11) #10
  call void @llvm.memset.p0i8.i64(i8* nonnull align 8 %11, i8 -86, i64 152, i1 false)
  call void @_ZN8crashpad18MinidumpFileWriterC1Ev(%"class.crashpad::MinidumpFileWriter"* nonnull %4) #10
  call void @_ZN8crashpad18MinidumpFileWriter22InitializeFromSnapshotEPKNS_15ProcessSnapshotE(%"class.crashpad::MinidumpFileWriter"* nonnull %4, %"class.crashpad::ProcessSnapshot"* %10) #10
  %12 = getelementptr inbounds %"class.crashpad::CrashReportExceptionHandler", %"class.crashpad::CrashReportExceptionHandler"* %0, i64 0, i32 7
  %13 = load %"class.std::__1::vector.24"*, %"class.std::__1::vector.24"** %12, align 8
  call void @_ZN8crashpad23AddUserExtensionStreamsEPKNSt3__16vectorINS0_10unique_ptrINS_20UserStreamDataSourceENS0_14default_deleteIS3_EEEENS0_9allocatorIS6_EEEEPNS_15ProcessSnapshotEPNS_18MinidumpFileWriterE(%"class.std::__1::vector.24"* %13, %"class.crashpad::ProcessSnapshot"* %10, %"class.crashpad::MinidumpFileWriter"* nonnull %4) #10
  %14 = bitcast %"class.crashpad::OutputStreamFileWriter"* %5 to i8*
  call void @llvm.lifetime.start.p0i8(i64 24, i8* nonnull %14) #10
  %15 = bitcast %"class.crashpad::OutputStreamFileWriter"* %5 to i8*
  call void @llvm.memset.p0i8.i64(i8* nonnull align 8 %15, i8 -86, i64 24, i1 false)
  %16 = call i8* @_Znwm(i64 8) #9
  %17 = bitcast i8* %16 to i32 (...)***
  store i32 (...)** bitcast (i8** getelementptr inbounds ({ [7 x i8*] }, { [7 x i8*] }* @_ZTVN8crashpad12_GLOBAL__N_16LoggerE, i64 0, inrange i32 0, i64 2) to i32 (...)**), i32 (...)*** %17, align 8
  %18 = call i8* @_Znwm(i64 56) #9
  %19 = bitcast i8* %18 to %"class.crashpad::LogOutputStream"*
  %20 = bitcast i8* %16 to %"class.crashpad::LogOutputStream::Delegate"*
  call void @_ZN8crashpad15LogOutputStreamC1ENSt3__110unique_ptrINS0_8DelegateENS1_14default_deleteIS3_EEEE(%"class.crashpad::LogOutputStream"* nonnull %19, %"class.crashpad::LogOutputStream::Delegate"* nonnull %20) #10
  %21 = call i8* @_Znwm(i64 72) #9
  %22 = bitcast i8* %21 to %"class.crashpad::Base94OutputStream"*
  %23 = bitcast i8* %18 to %"class.crashpad::OutputStreamInterface"*
  call void @_ZN8crashpad18Base94OutputStreamC1ENS0_4ModeENSt3__110unique_ptrINS_21OutputStreamInterfaceENS2_14default_deleteIS4_EEEE(%"class.crashpad::Base94OutputStream"* nonnull %22, i1 zeroext false, %"class.crashpad::OutputStreamInterface"* nonnull %23) #10
  %24 = call i8* @_Znwm(i64 4232) #9
  %25 = bitcast i8* %24 to %"class.crashpad::ZlibOutputStream"*
  %26 = bitcast i8* %21 to %"class.crashpad::OutputStreamInterface"*
  call void @_ZN8crashpad16ZlibOutputStreamC1ENS0_4ModeENSt3__110unique_ptrINS_21OutputStreamInterfaceENS2_14default_deleteIS4_EEEE(%"class.crashpad::ZlibOutputStream"* nonnull %25, i1 zeroext false, %"class.crashpad::OutputStreamInterface"* nonnull %26) #10
  %27 = bitcast i8* %24 to %"class.crashpad::OutputStreamInterface"*
  call void @_ZN8crashpad22OutputStreamFileWriterC1ENSt3__110unique_ptrINS_21OutputStreamInterfaceENS1_14default_deleteIS3_EEEE(%"class.crashpad::OutputStreamFileWriter"* nonnull %5, %"class.crashpad::OutputStreamInterface"* nonnull %27) #10
  %28 = getelementptr inbounds %"class.crashpad::OutputStreamFileWriter", %"class.crashpad::OutputStreamFileWriter"* %5, i64 0, i32 0
  %29 = call zeroext i1 @_ZN8crashpad18MinidumpFileWriter13WriteMinidumpEPNS_19FileWriterInterfaceEb(%"class.crashpad::MinidumpFileWriter"* nonnull %4, %"class.crashpad::FileWriterInterface"* nonnull %28, i1 zeroext false) #10
  br i1 %29, label %37, label %30

30:                                               ; preds = %3
  %31 = call zeroext i1 @_ZN7logging22ShouldCreateLogMessageEi(i32 2) #10
  br i1 %31, label %32, label %39

32:                                               ; preds = %30
  %33 = bitcast %"class.logging::LogMessage"* %6 to i8*
  call void @llvm.lifetime.start.p0i8(i64 304, i8* nonnull %33) #10
  call void @_ZN7logging10LogMessageC1EPKcii(%"class.logging::LogMessage"* nonnull %6, i8* getelementptr inbounds ([84 x i8], [84 x i8]* @.str, i64 0, i64 0), i32 303, i32 2) #10
  %34 = getelementptr inbounds %"class.logging::LogMessage", %"class.logging::LogMessage"* %6, i64 0, i32 2
  %35 = bitcast %"class.std::__1::basic_ostringstream"* %34 to %"class.std::__1::basic_ostream"*
  %36 = call dereferenceable(160) %"class.std::__1::basic_ostream"* @_ZNSt3__124__put_character_sequenceIcNS_11char_traitsIcEEEERNS_13basic_ostreamIT_T0_EES7_PKS4_m(%"class.std::__1::basic_ostream"* dereferenceable(160) %35, i8* getelementptr inbounds ([21 x i8], [21 x i8]* @.str.8, i64 0, i64 0), i64 20) #10
  call void @_ZN7logging10LogMessageD1Ev(%"class.logging::LogMessage"* nonnull %6) #10
  call void @llvm.lifetime.end.p0i8(i64 304, i8* nonnull %33) #10
  br label %39

37:                                               ; preds = %3
  %38 = call zeroext i1 @_ZN8crashpad22OutputStreamFileWriter5FlushEv(%"class.crashpad::OutputStreamFileWriter"* nonnull %5) #10
  br label %39

39:                                               ; preds = %32, %30, %37
  %40 = phi i1 [ %38, %37 ], [ false, %30 ], [ false, %32 ]
  call void @_ZN8crashpad22OutputStreamFileWriterD1Ev(%"class.crashpad::OutputStreamFileWriter"* nonnull %5) #10
  call void @llvm.lifetime.end.p0i8(i64 24, i8* nonnull %14) #10
  call void @_ZN8crashpad18MinidumpFileWriterD1Ev(%"class.crashpad::MinidumpFileWriter"* nonnull %4) #10
  call void @llvm.lifetime.end.p0i8(i64 152, i8* nonnull %11) #10
  ret i1 %40
}

declare zeroext i1 @_ZN7logging22ShouldCreateLogMessageEi(i32) local_unnamed_addr #4

declare void @_ZN7logging10LogMessageC1EPKcii(%"class.logging::LogMessage"*, i8*, i32, i32) unnamed_addr #4

; Function Attrs: nounwind
declare void @_ZN7logging10LogMessageD1Ev(%"class.logging::LogMessage"*) unnamed_addr #6

declare void @_ZN8crashpad18MinidumpFileWriterC1Ev(%"class.crashpad::MinidumpFileWriter"*) unnamed_addr #4

declare void @_ZN8crashpad18MinidumpFileWriter22InitializeFromSnapshotEPKNS_15ProcessSnapshotE(%"class.crashpad::MinidumpFileWriter"*, %"class.crashpad::ProcessSnapshot"*) local_unnamed_addr #4

declare void @_ZN8crashpad23AddUserExtensionStreamsEPKNSt3__16vectorINS0_10unique_ptrINS_20UserStreamDataSourceENS0_14default_deleteIS3_EEEENS0_9allocatorIS6_EEEEPNS_15ProcessSnapshotEPNS_18MinidumpFileWriterE(%"class.std::__1::vector.24"*, %"class.crashpad::ProcessSnapshot"*, %"class.crashpad::MinidumpFileWriter"*) local_unnamed_addr #4

declare zeroext i1 @_ZN8crashpad18MinidumpFileWriter15WriteEverythingEPNS_19FileWriterInterfaceE(%"class.crashpad::MinidumpFileWriter"*, %"class.crashpad::FileWriterInterface"*) unnamed_addr #4

declare %"class.crashpad::FileReaderInterface"* @_ZN8crashpad19CrashReportDatabase9NewReport6ReaderEv(%"class.crashpad::CrashReportDatabase::NewReport"*) local_unnamed_addr #4

declare void @_ZN8crashpad10FileReaderC1Ev(%"class.crashpad::FileReader"*) unnamed_addr #4

declare zeroext i1 @_ZN8crashpad10FileReader4OpenERKN4base8FilePathE(%"class.crashpad::FileReader"*, %"class.base::FilePath"* dereferenceable(24)) local_unnamed_addr #4

declare void @_ZNK4base8FilePath8BaseNameEv(%"class.base::FilePath"* sret, %"class.base::FilePath"*) local_unnamed_addr #4

declare %"class.crashpad::FileWriter"* @_ZN8crashpad19CrashReportDatabase9NewReport13AddAttachmentERKNSt3__112basic_stringIcNS2_11char_traitsIcEENS2_9allocatorIcEEEE(%"class.crashpad::CrashReportDatabase::NewReport"*, %"class.std::__1::basic_string"* dereferenceable(24)) local_unnamed_addr #4

declare void @_ZN8crashpad15CopyFileContentEPNS_19FileReaderInterfaceEPNS_19FileWriterInterfaceE(%"class.crashpad::FileReaderInterface"*, %"class.crashpad::FileWriterInterface"*) local_unnamed_addr #4

; Function Attrs: nounwind
declare void @_ZN4base8FilePathD1Ev(%"class.base::FilePath"*) unnamed_addr #6

; Function Attrs: nounwind
declare void @_ZN8crashpad10FileReaderD1Ev(%"class.crashpad::FileReader"*) unnamed_addr #6

declare void @_ZN8crashpad23CrashReportUploadThread13ReportPendingERKNS_4UUIDE(%"class.crashpad::CrashReportUploadThread"*, %"struct.crashpad::UUID"* dereferenceable(16)) local_unnamed_addr #4

; Function Attrs: argmemonly nounwind
declare void @llvm.memcpy.p0i8.p0i8.i64(i8* nocapture writeonly, i8* nocapture readonly, i64, i1 immarg) #5

; Function Attrs: nounwind
declare void @_ZN8crashpad18MinidumpFileWriterD1Ev(%"class.crashpad::MinidumpFileWriter"*) unnamed_addr #6

declare void @_ZN8crashpad22OutputStreamFileWriterC1ENSt3__110unique_ptrINS_21OutputStreamInterfaceENS1_14default_deleteIS3_EEEE(%"class.crashpad::OutputStreamFileWriter"*, %"class.crashpad::OutputStreamInterface"*) unnamed_addr #4

declare zeroext i1 @_ZN8crashpad18MinidumpFileWriter13WriteMinidumpEPNS_19FileWriterInterfaceEb(%"class.crashpad::MinidumpFileWriter"*, %"class.crashpad::FileWriterInterface"*, i1 zeroext) local_unnamed_addr #4

declare zeroext i1 @_ZN8crashpad22OutputStreamFileWriter5FlushEv(%"class.crashpad::OutputStreamFileWriter"*) local_unnamed_addr #4

; Function Attrs: nounwind
declare void @_ZN8crashpad22OutputStreamFileWriterD1Ev(%"class.crashpad::OutputStreamFileWriter"*) unnamed_addr #6

declare void @_ZN8crashpad16ZlibOutputStreamC1ENS0_4ModeENSt3__110unique_ptrINS_21OutputStreamInterfaceENS2_14default_deleteIS4_EEEE(%"class.crashpad::ZlibOutputStream"*, i1 zeroext, %"class.crashpad::OutputStreamInterface"*) unnamed_addr #4

declare zeroext i1 @_ZN8crashpad16ZlibOutputStream5WriteEPKhm(%"class.crashpad::ZlibOutputStream"*, i8*, i64) unnamed_addr #4

declare zeroext i1 @_ZN8crashpad16ZlibOutputStream5FlushEv(%"class.crashpad::ZlibOutputStream"*) unnamed_addr #4

; Function Attrs: nounwind
declare void @_ZN8crashpad16ZlibOutputStreamD1Ev(%"class.crashpad::ZlibOutputStream"*) unnamed_addr #6

; Function Attrs: nounwind ssp uwtable
define linkonce_odr hidden dereferenceable(160) %"class.std::__1::basic_ostream"* @_ZNSt3__124__put_character_sequenceIcNS_11char_traitsIcEEEERNS_13basic_ostreamIT_T0_EES7_PKS4_m(%"class.std::__1::basic_ostream"* dereferenceable(160), i8*, i64) local_unnamed_addr #2 comdat {
  %4 = alloca %"class.std::__1::locale", align 8
  %5 = alloca %"class.std::__1::basic_ostream<char, std::__1::char_traits<char> >::sentry", align 8
  %6 = getelementptr inbounds %"class.std::__1::basic_ostream<char, std::__1::char_traits<char> >::sentry", %"class.std::__1::basic_ostream<char, std::__1::char_traits<char> >::sentry"* %5, i64 0, i32 0
  call void @llvm.lifetime.start.p0i8(i64 16, i8* nonnull %6) #10
  call void @llvm.memset.p0i8.i64(i8* nonnull align 8 %6, i8 -86, i64 16, i1 false)
  call void @_ZNSt3__113basic_ostreamIcNS_11char_traitsIcEEE6sentryC1ERS3_(%"class.std::__1::basic_ostream<char, std::__1::char_traits<char> >::sentry"* nonnull %5, %"class.std::__1::basic_ostream"* dereferenceable(160) %0) #10
  %7 = load i8, i8* %6, align 8, !range !2
  %8 = icmp eq i8 %7, 0
  br i1 %8, label %58, label %9

9:                                                ; preds = %3
  %10 = bitcast %"class.std::__1::basic_ostream"* %0 to i8**
  %11 = load i8*, i8** %10, align 8
  %12 = getelementptr i8, i8* %11, i64 -24
  %13 = bitcast i8* %12 to i64*
  %14 = load i64, i64* %13, align 8
  %15 = bitcast %"class.std::__1::basic_ostream"* %0 to i8*
  %16 = getelementptr inbounds i8, i8* %15, i64 %14
  %17 = getelementptr inbounds i8, i8* %16, i64 40
  %18 = bitcast i8* %17 to %"class.std::__1::basic_streambuf"**
  %19 = load %"class.std::__1::basic_streambuf"*, %"class.std::__1::basic_streambuf"** %18, align 8
  %20 = bitcast i8* %16 to %"class.std::__1::ios_base"*
  %21 = getelementptr inbounds i8, i8* %16, i64 8
  %22 = bitcast i8* %21 to i32*
  %23 = load i32, i32* %22, align 8
  %24 = and i32 %23, 176
  %25 = icmp eq i32 %24, 32
  %26 = getelementptr inbounds i8, i8* %1, i64 %2
  %27 = select i1 %25, i8* %26, i8* %1
  %28 = getelementptr inbounds i8, i8* %16, i64 144
  %29 = bitcast i8* %28 to i32*
  %30 = load i32, i32* %29, align 8
  %31 = icmp eq i32 %30, -1
  br i1 %31, label %32, label %42

32:                                               ; preds = %9
  %33 = bitcast %"class.std::__1::locale"* %4 to i8*
  call void @llvm.lifetime.start.p0i8(i64 8, i8* nonnull %33) #10
  call void @_ZNKSt3__18ios_base6getlocEv(%"class.std::__1::locale"* nonnull sret %4, %"class.std::__1::ios_base"* %20) #10
  %34 = call %"class.std::__1::locale::facet"* @_ZNKSt3__16locale9use_facetERNS0_2idE(%"class.std::__1::locale"* nonnull %4, %"class.std::__1::locale::id"* nonnull dereferenceable(16) @_ZNSt3__15ctypeIcE2idE) #10
  %35 = bitcast %"class.std::__1::locale::facet"* %34 to %"class.std::__1::ctype"*
  %36 = bitcast %"class.std::__1::locale::facet"* %34 to i8 (%"class.std::__1::ctype"*, i8)***
  %37 = load i8 (%"class.std::__1::ctype"*, i8)**, i8 (%"class.std::__1::ctype"*, i8)*** %36, align 8
  %38 = getelementptr inbounds i8 (%"class.std::__1::ctype"*, i8)*, i8 (%"class.std::__1::ctype"*, i8)** %37, i64 7
  %39 = load i8 (%"class.std::__1::ctype"*, i8)*, i8 (%"class.std::__1::ctype"*, i8)** %38, align 8
  %40 = call signext i8 %39(%"class.std::__1::ctype"* %35, i8 signext 32) #10
  call void @_ZNSt3__16localeD1Ev(%"class.std::__1::locale"* nonnull %4) #10
  call void @llvm.lifetime.end.p0i8(i64 8, i8* nonnull %33) #10
  %41 = sext i8 %40 to i32
  store i32 %41, i32* %29, align 8
  br label %42

42:                                               ; preds = %9, %32
  %43 = phi i32 [ %41, %32 ], [ %30, %9 ]
  %44 = trunc i32 %43 to i8
  %45 = call %"class.std::__1::basic_streambuf"* @_ZNSt3__116__pad_and_outputIcNS_11char_traitsIcEEEENS_19ostreambuf_iteratorIT_T0_EES6_PKS4_S8_S8_RNS_8ios_baseES4_(%"class.std::__1::basic_streambuf"* %19, i8* %1, i8* %27, i8* %26, %"class.std::__1::ios_base"* dereferenceable(136) %20, i8 signext %44)
  %46 = icmp eq %"class.std::__1::basic_streambuf"* %45, null
  br i1 %46, label %47, label %58

47:                                               ; preds = %42
  %48 = load i8*, i8** %10, align 8
  %49 = getelementptr i8, i8* %48, i64 -24
  %50 = bitcast i8* %49 to i64*
  %51 = load i64, i64* %50, align 8
  %52 = getelementptr inbounds i8, i8* %15, i64 %51
  %53 = bitcast i8* %52 to %"class.std::__1::ios_base"*
  %54 = getelementptr inbounds i8, i8* %52, i64 32
  %55 = bitcast i8* %54 to i32*
  %56 = load i32, i32* %55, align 8
  %57 = or i32 %56, 5
  call void @_ZNSt3__18ios_base5clearEj(%"class.std::__1::ios_base"* %53, i32 %57) #10
  br label %58

58:                                               ; preds = %3, %42, %47
  call void @_ZNSt3__113basic_ostreamIcNS_11char_traitsIcEEE6sentryD1Ev(%"class.std::__1::basic_ostream<char, std::__1::char_traits<char> >::sentry"* nonnull %5) #10
  call void @llvm.lifetime.end.p0i8(i64 16, i8* nonnull %6) #10
  ret %"class.std::__1::basic_ostream"* %0
}

declare void @_ZNSt3__113basic_ostreamIcNS_11char_traitsIcEEE6sentryC1ERS3_(%"class.std::__1::basic_ostream<char, std::__1::char_traits<char> >::sentry"*, %"class.std::__1::basic_ostream"* dereferenceable(160)) unnamed_addr #4

; Function Attrs: nounwind ssp uwtable
define linkonce_odr hidden %"class.std::__1::basic_streambuf"* @_ZNSt3__116__pad_and_outputIcNS_11char_traitsIcEEEENS_19ostreambuf_iteratorIT_T0_EES6_PKS4_S8_S8_RNS_8ios_baseES4_(%"class.std::__1::basic_streambuf"*, i8*, i8*, i8*, %"class.std::__1::ios_base"* dereferenceable(136), i8 signext) local_unnamed_addr #2 comdat {
  %7 = alloca %"class.std::__1::basic_string", align 8
  %8 = icmp eq %"class.std::__1::basic_streambuf"* %0, null
  br i1 %8, label %78, label %9

9:                                                ; preds = %6
  %10 = ptrtoint i8* %3 to i64
  %11 = ptrtoint i8* %1 to i64
  %12 = sub i64 %10, %11
  %13 = getelementptr inbounds %"class.std::__1::ios_base", %"class.std::__1::ios_base"* %4, i64 0, i32 3
  %14 = load i64, i64* %13, align 8
  %15 = icmp sgt i64 %14, %12
  %16 = sub nsw i64 %14, %12
  %17 = select i1 %15, i64 %16, i64 0
  %18 = ptrtoint i8* %2 to i64
  %19 = sub i64 %18, %11
  %20 = icmp sgt i64 %19, 0
  br i1 %20, label %21, label %28

21:                                               ; preds = %9
  %22 = bitcast %"class.std::__1::basic_streambuf"* %0 to i64 (%"class.std::__1::basic_streambuf"*, i8*, i64)***
  %23 = load i64 (%"class.std::__1::basic_streambuf"*, i8*, i64)**, i64 (%"class.std::__1::basic_streambuf"*, i8*, i64)*** %22, align 8
  %24 = getelementptr inbounds i64 (%"class.std::__1::basic_streambuf"*, i8*, i64)*, i64 (%"class.std::__1::basic_streambuf"*, i8*, i64)** %23, i64 12
  %25 = load i64 (%"class.std::__1::basic_streambuf"*, i8*, i64)*, i64 (%"class.std::__1::basic_streambuf"*, i8*, i64)** %24, align 8
  %26 = tail call i64 %25(%"class.std::__1::basic_streambuf"* nonnull %0, i8* %1, i64 %19) #10
  %27 = icmp eq i64 %26, %19
  br i1 %27, label %28, label %78

28:                                               ; preds = %21, %9
  %29 = icmp sgt i64 %17, 0
  br i1 %29, label %30, label %67

30:                                               ; preds = %28
  %31 = bitcast %"class.std::__1::basic_string"* %7 to i8*
  call void @llvm.lifetime.start.p0i8(i64 24, i8* nonnull %31) #10
  %32 = getelementptr inbounds %"class.std::__1::basic_string", %"class.std::__1::basic_string"* %7, i64 0, i32 0, i32 0, i32 0, i32 0, i32 0, i32 0
  %33 = icmp ult i64 %17, 23
  %34 = bitcast %"class.std::__1::basic_string"* %7 to i8*
  call void @llvm.memset.p0i8.i64(i8* nonnull align 8 %34, i8 -86, i64 24, i1 false)
  br i1 %33, label %43, label %35

35:                                               ; preds = %30
  %36 = getelementptr inbounds %"class.std::__1::basic_string", %"class.std::__1::basic_string"* %7, i64 0, i32 0, i32 0, i32 0, i32 0, i32 0, i32 2
  %37 = getelementptr inbounds %"class.std::__1::basic_string", %"class.std::__1::basic_string"* %7, i64 0, i32 0, i32 0, i32 0, i32 0, i32 0, i32 1
  %38 = add nuw i64 %17, 16
  %39 = and i64 %38, -16
  %40 = tail call i8* @_Znwm(i64 %39) #9
  store i8* %40, i8** %32, align 8
  %41 = or i64 %39, -9223372036854775808
  store i64 %41, i64* %36, align 8
  store i64 %17, i64* %37, align 8
  %42 = bitcast %"class.std::__1::basic_string"* %7 to %"struct.std::__1::basic_string<char, std::__1::char_traits<char>, std::__1::allocator<char> >::__short"*
  br label %47

43:                                               ; preds = %30
  %44 = trunc i64 %17 to i8
  %45 = bitcast %"class.std::__1::basic_string"* %7 to %"struct.std::__1::basic_string<char, std::__1::char_traits<char>, std::__1::allocator<char> >::__short"*
  %46 = getelementptr inbounds %"struct.std::__1::basic_string<char, std::__1::char_traits<char>, std::__1::allocator<char> >::__short", %"struct.std::__1::basic_string<char, std::__1::char_traits<char>, std::__1::allocator<char> >::__short"* %45, i64 0, i32 1, i32 0
  store i8 %44, i8* %46, align 1
  br label %47

47:                                               ; preds = %35, %43
  %48 = phi %"struct.std::__1::basic_string<char, std::__1::char_traits<char>, std::__1::allocator<char> >::__short"* [ %42, %35 ], [ %45, %43 ]
  %49 = phi i8* [ %40, %35 ], [ %31, %43 ]
  call void @llvm.memset.p0i8.i64(i8* nonnull align 1 %49, i8 %5, i64 %17, i1 false) #10
  %50 = getelementptr inbounds i8, i8* %49, i64 %17
  store i8 0, i8* %50, align 1
  %51 = getelementptr inbounds %"struct.std::__1::basic_string<char, std::__1::char_traits<char>, std::__1::allocator<char> >::__short", %"struct.std::__1::basic_string<char, std::__1::char_traits<char>, std::__1::allocator<char> >::__short"* %48, i64 0, i32 1, i32 0
  %52 = load i8, i8* %51, align 1
  %53 = icmp slt i8 %52, 0
  %54 = load i8*, i8** %32, align 8
  %55 = select i1 %53, i8* %54, i8* %31
  %56 = bitcast %"class.std::__1::basic_streambuf"* %0 to i64 (%"class.std::__1::basic_streambuf"*, i8*, i64)***
  %57 = load i64 (%"class.std::__1::basic_streambuf"*, i8*, i64)**, i64 (%"class.std::__1::basic_streambuf"*, i8*, i64)*** %56, align 8
  %58 = getelementptr inbounds i64 (%"class.std::__1::basic_streambuf"*, i8*, i64)*, i64 (%"class.std::__1::basic_streambuf"*, i8*, i64)** %57, i64 12
  %59 = load i64 (%"class.std::__1::basic_streambuf"*, i8*, i64)*, i64 (%"class.std::__1::basic_streambuf"*, i8*, i64)** %58, align 8
  %60 = call i64 %59(%"class.std::__1::basic_streambuf"* nonnull %0, i8* %55, i64 %17) #10
  %61 = icmp eq i64 %60, %17
  %62 = load i8, i8* %51, align 1
  %63 = icmp slt i8 %62, 0
  br i1 %63, label %64, label %66

64:                                               ; preds = %47
  %65 = load i8*, i8** %32, align 8
  call void @_ZdlPv(i8* %65) #9
  br label %66

66:                                               ; preds = %47, %64
  call void @llvm.lifetime.end.p0i8(i64 24, i8* nonnull %31) #10
  br i1 %61, label %67, label %78

67:                                               ; preds = %66, %28
  %68 = sub i64 %10, %18
  %69 = icmp sgt i64 %68, 0
  br i1 %69, label %70, label %77

70:                                               ; preds = %67
  %71 = bitcast %"class.std::__1::basic_streambuf"* %0 to i64 (%"class.std::__1::basic_streambuf"*, i8*, i64)***
  %72 = load i64 (%"class.std::__1::basic_streambuf"*, i8*, i64)**, i64 (%"class.std::__1::basic_streambuf"*, i8*, i64)*** %71, align 8
  %73 = getelementptr inbounds i64 (%"class.std::__1::basic_streambuf"*, i8*, i64)*, i64 (%"class.std::__1::basic_streambuf"*, i8*, i64)** %72, i64 12
  %74 = load i64 (%"class.std::__1::basic_streambuf"*, i8*, i64)*, i64 (%"class.std::__1::basic_streambuf"*, i8*, i64)** %73, align 8
  %75 = call i64 %74(%"class.std::__1::basic_streambuf"* nonnull %0, i8* %2, i64 %68) #10
  %76 = icmp eq i64 %75, %68
  br i1 %76, label %77, label %78

77:                                               ; preds = %70, %67
  store i64 0, i64* %13, align 8
  br label %78

78:                                               ; preds = %77, %66, %21, %70, %6
  %79 = phi %"class.std::__1::basic_streambuf"* [ null, %6 ], [ %0, %77 ], [ null, %66 ], [ null, %21 ], [ null, %70 ]
  ret %"class.std::__1::basic_streambuf"* %79
}

; Function Attrs: nounwind
declare void @_ZNSt3__113basic_ostreamIcNS_11char_traitsIcEEE6sentryD1Ev(%"class.std::__1::basic_ostream<char, std::__1::char_traits<char> >::sentry"*) unnamed_addr #6

; Function Attrs: nobuiltin nofree
declare noalias nonnull i8* @_Znwm(i64) local_unnamed_addr #7

declare void @_ZNKSt3__18ios_base6getlocEv(%"class.std::__1::locale"* sret, %"class.std::__1::ios_base"*) local_unnamed_addr #4

; Function Attrs: nounwind
declare void @_ZNSt3__16localeD1Ev(%"class.std::__1::locale"*) unnamed_addr #6

declare %"class.std::__1::locale::facet"* @_ZNKSt3__16locale9use_facetERNS0_2idE(%"class.std::__1::locale"*, %"class.std::__1::locale::id"* dereferenceable(16)) local_unnamed_addr #4

declare void @_ZNSt3__18ios_base5clearEj(%"class.std::__1::ios_base"*, i32) local_unnamed_addr #4

; Function Attrs: argmemonly nofree nounwind readonly
declare i64 @strlen(i8* nocapture) local_unnamed_addr #8

; Function Attrs: nounwind ssp uwtable
define linkonce_odr hidden void @_ZN8crashpad15LogOutputStream8DelegateD2Ev(%"class.crashpad::LogOutputStream::Delegate"*) unnamed_addr #2 comdat align 2 {
  ret void
}

; Function Attrs: nounwind ssp uwtable
define internal void @_ZN8crashpad12_GLOBAL__N_16LoggerD0Ev(%"class.crashpad::(anonymous namespace)::Logger"*) unnamed_addr #2 align 2 {
  %2 = bitcast %"class.crashpad::(anonymous namespace)::Logger"* %0 to i8*
  tail call void @_ZdlPv(i8* %2) #9
  ret void
}

; Function Attrs: norecurse nounwind readnone ssp uwtable
define internal i32 @_ZN8crashpad12_GLOBAL__N_16Logger3LogEPKc(%"class.crashpad::(anonymous namespace)::Logger"* nocapture readnone, i8* nocapture readnone) unnamed_addr #1 align 2 {
  ret i32 -107
}

; Function Attrs: norecurse nounwind readnone ssp uwtable
define internal i64 @_ZN8crashpad12_GLOBAL__N_16Logger9OutputCapEv(%"class.crashpad::(anonymous namespace)::Logger"* nocapture readnone) unnamed_addr #1 align 2 {
  ret i64 0
}

; Function Attrs: norecurse nounwind readnone ssp uwtable
define internal i64 @_ZN8crashpad12_GLOBAL__N_16Logger9LineWidthEv(%"class.crashpad::(anonymous namespace)::Logger"* nocapture readnone) unnamed_addr #1 align 2 {
  ret i64 0
}

declare void @_ZN8crashpad15LogOutputStreamC1ENSt3__110unique_ptrINS0_8DelegateENS1_14default_deleteIS3_EEEE(%"class.crashpad::LogOutputStream"*, %"class.crashpad::LogOutputStream::Delegate"*) unnamed_addr #4

declare void @_ZN8crashpad18Base94OutputStreamC1ENS0_4ModeENSt3__110unique_ptrINS_21OutputStreamInterfaceENS2_14default_deleteIS4_EEEE(%"class.crashpad::Base94OutputStream"*, i1 zeroext, %"class.crashpad::OutputStreamInterface"*) unnamed_addr #4

; Function Attrs: nounwind
declare void @_ZN8crashpad19CrashReportDatabase9NewReportD1Ev(%"class.crashpad::CrashReportDatabase::NewReport"*) unnamed_addr #6

attributes #0 = { nofree norecurse nounwind ssp uwtable writeonly "correctly-rounded-divide-sqrt-fp-math"="false" "disable-tail-calls"="false" "less-precise-fpmad"="false" "min-legal-vector-width"="0" "no-frame-pointer-elim"="false" "no-frame-pointer-elim-non-leaf" "no-infs-fp-math"="false" "no-jump-tables"="false" "no-nans-fp-math"="false" "no-signed-zeros-fp-math"="false" "no-trapping-math"="false" "null-pointer-is-valid"="true" "stack-protector-buffer-size"="4" "target-cpu"="x86-64" "target-features"="+cx8,+fxsr,+mmx,+sse,+sse2,+sse3,+x87" "unsafe-fp-math"="false" "use-soft-float"="false" }
attributes #1 = { norecurse nounwind readnone ssp uwtable "correctly-rounded-divide-sqrt-fp-math"="false" "disable-tail-calls"="false" "less-precise-fpmad"="false" "min-legal-vector-width"="0" "no-frame-pointer-elim"="false" "no-frame-pointer-elim-non-leaf" "no-infs-fp-math"="false" "no-jump-tables"="false" "no-nans-fp-math"="false" "no-signed-zeros-fp-math"="false" "no-trapping-math"="false" "null-pointer-is-valid"="true" "stack-protector-buffer-size"="4" "target-cpu"="x86-64" "target-features"="+cx8,+fxsr,+mmx,+sse,+sse2,+sse3,+x87" "unsafe-fp-math"="false" "use-soft-float"="false" }
attributes #2 = { nounwind ssp uwtable "correctly-rounded-divide-sqrt-fp-math"="false" "disable-tail-calls"="false" "less-precise-fpmad"="false" "min-legal-vector-width"="0" "no-frame-pointer-elim"="false" "no-frame-pointer-elim-non-leaf" "no-infs-fp-math"="false" "no-jump-tables"="false" "no-nans-fp-math"="false" "no-signed-zeros-fp-math"="false" "no-trapping-math"="false" "null-pointer-is-valid"="true" "stack-protector-buffer-size"="4" "target-cpu"="x86-64" "target-features"="+cx8,+fxsr,+mmx,+sse,+sse2,+sse3,+x87" "unsafe-fp-math"="false" "use-soft-float"="false" }
attributes #3 = { nobuiltin nounwind "correctly-rounded-divide-sqrt-fp-math"="false" "disable-tail-calls"="false" "less-precise-fpmad"="false" "no-frame-pointer-elim"="false" "no-frame-pointer-elim-non-leaf" "no-infs-fp-math"="false" "no-nans-fp-math"="false" "no-signed-zeros-fp-math"="false" "no-trapping-math"="false" "null-pointer-is-valid"="true" "stack-protector-buffer-size"="4" "target-cpu"="x86-64" "target-features"="+cx8,+fxsr,+mmx,+sse,+sse2,+sse3,+x87" "unsafe-fp-math"="false" "use-soft-float"="false" }
attributes #4 = { "correctly-rounded-divide-sqrt-fp-math"="false" "disable-tail-calls"="false" "less-precise-fpmad"="false" "no-frame-pointer-elim"="false" "no-frame-pointer-elim-non-leaf" "no-infs-fp-math"="false" "no-nans-fp-math"="false" "no-signed-zeros-fp-math"="false" "no-trapping-math"="false" "null-pointer-is-valid"="true" "stack-protector-buffer-size"="4" "target-cpu"="x86-64" "target-features"="+cx8,+fxsr,+mmx,+sse,+sse2,+sse3,+x87" "unsafe-fp-math"="false" "use-soft-float"="false" }
attributes #5 = { argmemonly nounwind }
attributes #6 = { nounwind "correctly-rounded-divide-sqrt-fp-math"="false" "disable-tail-calls"="false" "less-precise-fpmad"="false" "no-frame-pointer-elim"="false" "no-frame-pointer-elim-non-leaf" "no-infs-fp-math"="false" "no-nans-fp-math"="false" "no-signed-zeros-fp-math"="false" "no-trapping-math"="false" "null-pointer-is-valid"="true" "stack-protector-buffer-size"="4" "target-cpu"="x86-64" "target-features"="+cx8,+fxsr,+mmx,+sse,+sse2,+sse3,+x87" "unsafe-fp-math"="false" "use-soft-float"="false" }
attributes #7 = { nobuiltin nofree "correctly-rounded-divide-sqrt-fp-math"="false" "disable-tail-calls"="false" "less-precise-fpmad"="false" "no-frame-pointer-elim"="false" "no-frame-pointer-elim-non-leaf" "no-infs-fp-math"="false" "no-nans-fp-math"="false" "no-signed-zeros-fp-math"="false" "no-trapping-math"="false" "null-pointer-is-valid"="true" "stack-protector-buffer-size"="4" "target-cpu"="x86-64" "target-features"="+cx8,+fxsr,+mmx,+sse,+sse2,+sse3,+x87" "unsafe-fp-math"="false" "use-soft-float"="false" }
attributes #8 = { argmemonly nofree nounwind readonly "correctly-rounded-divide-sqrt-fp-math"="false" "disable-tail-calls"="false" "less-precise-fpmad"="false" "no-frame-pointer-elim"="false" "no-frame-pointer-elim-non-leaf" "no-infs-fp-math"="false" "no-nans-fp-math"="false" "no-signed-zeros-fp-math"="false" "no-trapping-math"="false" "null-pointer-is-valid"="true" "stack-protector-buffer-size"="4" "target-cpu"="x86-64" "target-features"="+cx8,+fxsr,+mmx,+sse,+sse2,+sse3,+x87" "unsafe-fp-math"="false" "use-soft-float"="false" }
attributes #9 = { builtin nounwind }
attributes #10 = { nounwind }

!llvm.module.flags = !{!0, !1}

!0 = !{i32 1, !"wchar_size", i32 4}
!1 = !{i32 7, !"PIC Level", i32 2}
!2 = !{i8 0, i8 2}
