; ModuleID = '../../device/fido/credential_management_handler.cc'
source_filename = "../../device/fido/credential_management_handler.cc"
target datalayout = "e-m:e-i64:64-f80:128-n8:16:32:64-S128"
target triple = "x86_64-unknown-linux-gnu"

module asm ".symver exp, exp@GLIBC_2.2.5"
module asm ".symver exp2, exp2@GLIBC_2.2.5"
module asm ".symver exp2f, exp2f@GLIBC_2.2.5"
module asm ".symver expf, expf@GLIBC_2.2.5"
module asm ".symver lgamma, lgamma@GLIBC_2.2.5"
module asm ".symver lgammaf, lgammaf@GLIBC_2.2.5"
module asm ".symver lgammal, lgammal@GLIBC_2.2.5"
module asm ".symver log, log@GLIBC_2.2.5"
module asm ".symver log2, log2@GLIBC_2.2.5"
module asm ".symver log2f, log2f@GLIBC_2.2.5"
module asm ".symver logf, logf@GLIBC_2.2.5"
module asm ".symver pow, pow@GLIBC_2.2.5"
module asm ".symver powf, powf@GLIBC_2.2.5"

%"class.device::CredentialManagementHandler" = type { %"class.device::FidoRequestHandlerBase", i32, %"class.device::FidoAuthenticator"*, %"class.absl::optional.76", %"class.base::OnceCallback", %"class.base::RepeatingCallback", %"class.base::OnceCallback.83", %"class.base::OnceCallback.84", %"class.base::WeakPtrFactory.85" }
%"class.device::FidoRequestHandlerBase" = type { %"class.device::FidoDiscoveryBase::Observer", %"class.std::__1::map", %"class.base::internal::flat_tree", %"class.std::__1::vector.14", %"class.device::FidoRequestHandlerBase::Observer"*, %"struct.device::FidoRequestHandlerBase::TransportAvailabilityInfo", %"class.std::__1::unique_ptr.58", %"class.std::__1::unique_ptr.64", i8, %"class.base::WeakPtrFactory" }
%"class.device::FidoDiscoveryBase::Observer" = type { i32 (...)** }
%"class.std::__1::map" = type { %"class.std::__1::__tree" }
%"class.std::__1::__tree" = type { %"class.std::__1::__tree_end_node"*, %"class.std::__1::__compressed_pair", %"class.std::__1::__compressed_pair.1" }
%"class.std::__1::__tree_end_node" = type { %"class.std::__1::__tree_node_base"* }
%"class.std::__1::__tree_node_base" = type opaque
%"class.std::__1::__compressed_pair" = type { %"struct.std::__1::__compressed_pair_elem" }
%"struct.std::__1::__compressed_pair_elem" = type { %"class.std::__1::__tree_end_node" }
%"class.std::__1::__compressed_pair.1" = type { %"struct.std::__1::__compressed_pair_elem.2" }
%"struct.std::__1::__compressed_pair_elem.2" = type { i64 }
%"class.base::internal::flat_tree" = type { %"class.std::__1::vector" }
%"class.std::__1::vector" = type { %"class.std::__1::__vector_base" }
%"class.std::__1::__vector_base" = type { %"class.std::__1::basic_string"*, %"class.std::__1::basic_string"*, %"class.std::__1::__compressed_pair.9" }
%"class.std::__1::basic_string" = type { %"class.std::__1::__compressed_pair.4" }
%"class.std::__1::__compressed_pair.4" = type { %"struct.std::__1::__compressed_pair_elem.5" }
%"struct.std::__1::__compressed_pair_elem.5" = type { %"struct.std::__1::basic_string<char, std::__1::char_traits<char>, std::__1::allocator<char> >::__rep" }
%"struct.std::__1::basic_string<char, std::__1::char_traits<char>, std::__1::allocator<char> >::__rep" = type { %union.anon }
%union.anon = type { %"struct.std::__1::basic_string<char, std::__1::char_traits<char>, std::__1::allocator<char> >::__long" }
%"struct.std::__1::basic_string<char, std::__1::char_traits<char>, std::__1::allocator<char> >::__long" = type { i8*, i64, i64 }
%"class.std::__1::__compressed_pair.9" = type { %"struct.std::__1::__compressed_pair_elem.10" }
%"struct.std::__1::__compressed_pair_elem.10" = type { %"class.std::__1::basic_string"* }
%"class.std::__1::vector.14" = type { %"class.std::__1::__vector_base.15" }
%"class.std::__1::__vector_base.15" = type { %"class.std::__1::unique_ptr"*, %"class.std::__1::unique_ptr"*, %"class.std::__1::__compressed_pair.16" }
%"class.std::__1::unique_ptr" = type opaque
%"class.std::__1::__compressed_pair.16" = type { %"struct.std::__1::__compressed_pair_elem.17" }
%"struct.std::__1::__compressed_pair_elem.17" = type { %"class.std::__1::unique_ptr"* }
%"class.device::FidoRequestHandlerBase::Observer" = type { i32 (...)** }
%"struct.device::FidoRequestHandlerBase::TransportAvailabilityInfo" = type { i8, i8, %"class.base::internal::flat_tree.21", %"class.absl::optional", %"class.std::__1::vector.30", i8, i8, i8, i8, %"class.std::__1::basic_string", i8, i32 }
%"class.base::internal::flat_tree.21" = type { %"class.std::__1::vector.22" }
%"class.std::__1::vector.22" = type { %"class.std::__1::__vector_base.23" }
%"class.std::__1::__vector_base.23" = type { i8*, i8*, %"class.std::__1::__compressed_pair.24" }
%"class.std::__1::__compressed_pair.24" = type { %"struct.std::__1::__compressed_pair_elem.25" }
%"struct.std::__1::__compressed_pair_elem.25" = type { i8* }
%"class.absl::optional" = type { %"class.absl::optional_internal::optional_data" }
%"class.absl::optional_internal::optional_data" = type { %"class.absl::optional_internal::optional_data_base" }
%"class.absl::optional_internal::optional_data_base" = type { %"class.absl::optional_internal::optional_data_dtor_base" }
%"class.absl::optional_internal::optional_data_dtor_base" = type { i8, %union.anon.29 }
%union.anon.29 = type { i8 }
%"class.std::__1::vector.30" = type { %"class.std::__1::__vector_base.31" }
%"class.std::__1::__vector_base.31" = type { %"class.device::PublicKeyCredentialUserEntity"*, %"class.device::PublicKeyCredentialUserEntity"*, %"class.std::__1::__compressed_pair.53" }
%"class.device::PublicKeyCredentialUserEntity" = type { %"class.std::__1::vector.32", %"class.absl::optional.39", %"class.absl::optional.39", %"class.absl::optional.44" }
%"class.std::__1::vector.32" = type { %"class.std::__1::__vector_base.33" }
%"class.std::__1::__vector_base.33" = type { i8*, i8*, %"class.std::__1::__compressed_pair.34" }
%"class.std::__1::__compressed_pair.34" = type { %"struct.std::__1::__compressed_pair_elem.35" }
%"struct.std::__1::__compressed_pair_elem.35" = type { i8* }
%"class.absl::optional.39" = type { %"class.absl::optional_internal::optional_data.40" }
%"class.absl::optional_internal::optional_data.40" = type { %"class.absl::optional_internal::optional_data_base.41" }
%"class.absl::optional_internal::optional_data_base.41" = type { %"class.absl::optional_internal::optional_data_dtor_base.42" }
%"class.absl::optional_internal::optional_data_dtor_base.42" = type { i8, %union.anon.43 }
%union.anon.43 = type { %"class.std::__1::basic_string" }
%"class.absl::optional.44" = type { %"class.absl::optional_internal::optional_data.45" }
%"class.absl::optional_internal::optional_data.45" = type { %"class.absl::optional_internal::optional_data_base.46" }
%"class.absl::optional_internal::optional_data_base.46" = type { %"class.absl::optional_internal::optional_data_dtor_base.47" }
%"class.absl::optional_internal::optional_data_dtor_base.47" = type { i8, %union.anon.48 }
%union.anon.48 = type { %class.GURL }
%class.GURL = type { %"class.std::__1::basic_string", i8, %"struct.url::Parsed", %"class.std::__1::unique_ptr.49" }
%"struct.url::Parsed" = type { %"struct.url::Component", %"struct.url::Component", %"struct.url::Component", %"struct.url::Component", %"struct.url::Component", %"struct.url::Component", %"struct.url::Component", %"struct.url::Component", i8, %"struct.url::Parsed"* }
%"struct.url::Component" = type { i32, i32 }
%"class.std::__1::unique_ptr.49" = type { %"class.std::__1::__compressed_pair.50" }
%"class.std::__1::__compressed_pair.50" = type { %"struct.std::__1::__compressed_pair_elem.51" }
%"struct.std::__1::__compressed_pair_elem.51" = type { %class.GURL* }
%"class.std::__1::__compressed_pair.53" = type { %"struct.std::__1::__compressed_pair_elem.54" }
%"struct.std::__1::__compressed_pair_elem.54" = type { %"class.device::PublicKeyCredentialUserEntity"* }
%"class.std::__1::unique_ptr.58" = type { %"class.std::__1::__compressed_pair.59" }
%"class.std::__1::__compressed_pair.59" = type { %"struct.std::__1::__compressed_pair_elem.60" }
%"struct.std::__1::__compressed_pair_elem.60" = type { %"class.device::BleAdapterManager"* }
%"class.device::BleAdapterManager" = type opaque
%"class.std::__1::unique_ptr.64" = type { %"class.std::__1::__compressed_pair.65" }
%"class.std::__1::__compressed_pair.65" = type { %"struct.std::__1::__compressed_pair_elem.66" }
%"struct.std::__1::__compressed_pair_elem.66" = type { %"struct.device::TransportAvailabilityCallbackReadiness"* }
%"struct.device::TransportAvailabilityCallbackReadiness" = type opaque
%"class.base::WeakPtrFactory" = type { %"class.base::internal::WeakPtrFactoryBase" }
%"class.base::internal::WeakPtrFactoryBase" = type { %"class.base::internal::WeakReferenceOwner", i64 }
%"class.base::internal::WeakReferenceOwner" = type { %class.scoped_refptr }
%class.scoped_refptr = type { %"class.base::internal::WeakReference::Flag"* }
%"class.base::internal::WeakReference::Flag" = type <{ %"class.base::RefCountedThreadSafe", %"class.base::AtomicFlag", [3 x i8] }>
%"class.base::RefCountedThreadSafe" = type { %"class.base::subtle::RefCountedThreadSafeBase" }
%"class.base::subtle::RefCountedThreadSafeBase" = type { %"class.base::AtomicRefCount" }
%"class.base::AtomicRefCount" = type { %"struct.std::__1::atomic" }
%"struct.std::__1::atomic" = type { %"struct.std::__1::__atomic_base" }
%"struct.std::__1::__atomic_base" = type { %"struct.std::__1::__atomic_base.70" }
%"struct.std::__1::__atomic_base.70" = type { %"struct.std::__1::__cxx_atomic_impl" }
%"struct.std::__1::__cxx_atomic_impl" = type { %"struct.std::__1::__cxx_atomic_base_impl" }
%"struct.std::__1::__cxx_atomic_base_impl" = type { i32 }
%"class.base::AtomicFlag" = type { %"struct.std::__1::atomic.71" }
%"struct.std::__1::atomic.71" = type { %"struct.std::__1::__atomic_base.72" }
%"struct.std::__1::__atomic_base.72" = type { %"struct.std::__1::__atomic_base.73" }
%"struct.std::__1::__atomic_base.73" = type { %"struct.std::__1::__cxx_atomic_impl.74" }
%"struct.std::__1::__cxx_atomic_impl.74" = type { %"struct.std::__1::__cxx_atomic_base_impl.75" }
%"struct.std::__1::__cxx_atomic_base_impl.75" = type { i8 }
%"class.device::FidoAuthenticator" = type { i32 (...)** }
%"class.absl::optional.76" = type { %"class.absl::optional_internal::optional_data.77" }
%"class.absl::optional_internal::optional_data.77" = type { %"class.absl::optional_internal::optional_data_base.78" }
%"class.absl::optional_internal::optional_data_base.78" = type { %"class.absl::optional_internal::optional_data_dtor_base.79" }
%"class.absl::optional_internal::optional_data_dtor_base.79" = type { i8, %union.anon.80 }
%union.anon.80 = type { %"class.device::pin::TokenResponse" }
%"class.device::pin::TokenResponse" = type { i8, %"class.std::__1::vector.32" }
%"class.base::OnceCallback" = type { %"class.base::internal::CallbackBase" }
%"class.base::internal::CallbackBase" = type { %class.scoped_refptr.81 }
%class.scoped_refptr.81 = type { %"class.base::internal::BindStateBase"* }
%"class.base::internal::BindStateBase" = type { %"class.base::RefCountedThreadSafe.82", void ()*, void (%"class.base::internal::BindStateBase"*)*, i1 (%"class.base::internal::BindStateBase"*, i32)* }
%"class.base::RefCountedThreadSafe.82" = type { %"class.base::subtle::RefCountedThreadSafeBase" }
%"class.base::RepeatingCallback" = type { %"class.base::internal::CallbackBaseCopyable" }
%"class.base::internal::CallbackBaseCopyable" = type { %"class.base::internal::CallbackBase" }
%"class.base::OnceCallback.83" = type { %"class.base::internal::CallbackBase" }
%"class.base::OnceCallback.84" = type { %"class.base::internal::CallbackBase" }
%"class.base::WeakPtrFactory.85" = type { %"class.base::internal::WeakPtrFactoryBase" }
%"class.device::FidoDiscoveryFactory" = type opaque
%"class.base::internal::WeakReference" = type { %class.scoped_refptr.86 }
%class.scoped_refptr.86 = type { %"class.base::internal::WeakReference::Flag"* }
%"class.base::WeakPtr" = type { %"class.base::internal::WeakPtrBase" }
%"class.base::internal::WeakPtrBase" = type { %"class.base::internal::WeakReference", i64 }
%"class.base::OnceCallback.92" = type { %"class.base::internal::CallbackBase" }
%"struct.std::__1::basic_string<char, std::__1::char_traits<char>, std::__1::allocator<char> >::__short" = type { [23 x i8], %struct.anon }
%struct.anon = type { i8 }
%"class.absl::optional.87" = type { %"class.absl::optional_internal::optional_data.88" }
%"class.absl::optional_internal::optional_data.88" = type { %"class.absl::optional_internal::optional_data_base.89" }
%"class.absl::optional_internal::optional_data_base.89" = type { %"class.absl::optional_internal::optional_data_dtor_base.90" }
%"class.absl::optional_internal::optional_data_dtor_base.90" = type { i8, [3 x i8], %union.anon.91 }
%union.anon.91 = type { %"struct.device::AuthenticatorSupportedOptions" }
%"struct.device::AuthenticatorSupportedOptions" = type <{ i8, i8, [2 x i8], i32, i8, i8, i8, i8, i32, i32, i8, i8, [2 x i8], i32, i8, i8, i8, i8, i8, [3 x i8] }>
%"class.base::OnceCallback.98" = type { %"class.base::internal::CallbackBase" }
%"class.std::__1::vector.99" = type { %"class.std::__1::__vector_base.100" }
%"class.std::__1::__vector_base.100" = type { i8*, i8*, %"class.std::__1::__compressed_pair.101" }
%"class.std::__1::__compressed_pair.101" = type { %"struct.std::__1::__compressed_pair_elem.102" }
%"struct.std::__1::__compressed_pair_elem.102" = type { i8* }
%"class.base::OnceCallback.106" = type { %"class.base::internal::CallbackBase" }
%"class.base::OnceCallback.107" = type { %"class.base::internal::CallbackBase" }
%"class.absl::optional.108" = type { %"class.absl::optional_internal::optional_data.109" }
%"class.absl::optional_internal::optional_data.109" = type { %"class.absl::optional_internal::optional_data_base.110" }
%"class.absl::optional_internal::optional_data_base.110" = type { %"class.absl::optional_internal::optional_data_dtor_base.111" }
%"class.absl::optional_internal::optional_data_dtor_base.111" = type { i8, %union.anon.112 }
%union.anon.112 = type { %"struct.device::CredentialsMetadataResponse" }
%"struct.device::CredentialsMetadataResponse" = type { i64, i64 }
%"class.absl::optional.157" = type { %"class.absl::optional_internal::optional_data.158" }
%"class.absl::optional_internal::optional_data.158" = type { %"class.absl::optional_internal::optional_data_base.159" }
%"class.absl::optional_internal::optional_data_base.159" = type { %"class.absl::optional_internal::optional_data_dtor_base.160" }
%"class.absl::optional_internal::optional_data_dtor_base.160" = type { i8, %union.anon.161 }
%union.anon.161 = type { i64 }
%"class.absl::optional.162" = type { %"class.absl::optional_internal::optional_data.163" }
%"class.absl::optional_internal::optional_data.163" = type { %"class.absl::optional_internal::optional_data_base.164" }
%"class.absl::optional_internal::optional_data_base.164" = type { %"class.absl::optional_internal::optional_data_dtor_base.165" }
%"class.absl::optional_internal::optional_data_dtor_base.165" = type { i8, %union.anon.166 }
%union.anon.166 = type { %"class.std::__1::vector.167" }
%"class.std::__1::vector.167" = type { %"class.std::__1::__vector_base.168" }
%"class.std::__1::__vector_base.168" = type { %"struct.device::AggregatedEnumerateCredentialsResponse"*, %"struct.device::AggregatedEnumerateCredentialsResponse"*, %"class.std::__1::__compressed_pair.176" }
%"struct.device::AggregatedEnumerateCredentialsResponse" = type { %"struct.device::PublicKeyCredentialRpEntity", %"class.std::__1::vector.169" }
%"struct.device::PublicKeyCredentialRpEntity" = type { %"class.std::__1::basic_string", %"class.absl::optional.39", %"class.absl::optional.44" }
%"class.std::__1::vector.169" = type { %"class.std::__1::__vector_base.170" }
%"class.std::__1::__vector_base.170" = type { %"struct.device::EnumerateCredentialsResponse"*, %"struct.device::EnumerateCredentialsResponse"*, %"class.std::__1::__compressed_pair.171" }
%"struct.device::EnumerateCredentialsResponse" = type { %"class.device::PublicKeyCredentialUserEntity", %"class.device::PublicKeyCredentialDescriptor", %"class.std::__1::vector.32", i64 }
%"class.device::PublicKeyCredentialDescriptor" = type { i32, %"class.std::__1::vector.32", %"class.base::internal::flat_tree.21" }
%"class.std::__1::__compressed_pair.171" = type { %"struct.std::__1::__compressed_pair_elem.172" }
%"struct.std::__1::__compressed_pair_elem.172" = type { %"struct.device::EnumerateCredentialsResponse"* }
%"class.std::__1::__compressed_pair.176" = type { %"struct.std::__1::__compressed_pair_elem.177" }
%"struct.std::__1::__compressed_pair_elem.177" = type { %"struct.device::AggregatedEnumerateCredentialsResponse"* }
%"class.base::OnceCallback.181" = type { %"class.base::internal::CallbackBase" }
%"class.base::OnceCallback.113" = type { %"class.base::internal::CallbackBase" }
%"class.base::OnceCallback.114" = type { %"class.base::internal::CallbackBase" }
%"class.std::__1::vector.120" = type { %"class.std::__1::__vector_base.121" }
%"class.std::__1::__vector_base.121" = type { %"class.std::__1::vector.32"*, %"class.std::__1::vector.32"*, %"class.std::__1::__compressed_pair.122" }
%"class.std::__1::__compressed_pair.122" = type { %"struct.std::__1::__compressed_pair_elem.123" }
%"struct.std::__1::__compressed_pair_elem.123" = type { %"class.std::__1::vector.32"* }
%"class.absl::optional.127" = type { %"class.absl::optional_internal::optional_data.128" }
%"class.absl::optional_internal::optional_data.128" = type { %"class.absl::optional_internal::optional_data_base.129" }
%"class.absl::optional_internal::optional_data_base.129" = type { %"class.absl::optional_internal::optional_data_dtor_base.130" }
%"class.absl::optional_internal::optional_data_dtor_base.130" = type { i8, %union.anon.131 }
%union.anon.131 = type { %"class.device::PublicKeyCredentialDescriptor" }
%"class.absl::optional.148" = type { %"class.absl::optional_internal::optional_data.149" }
%"class.absl::optional_internal::optional_data.149" = type { %"class.absl::optional_internal::optional_data_base.150" }
%"class.absl::optional_internal::optional_data_base.150" = type { %"class.absl::optional_internal::optional_data_dtor_base.151" }
%"class.absl::optional_internal::optional_data_dtor_base.151" = type { i8, %union.anon.152 }
%union.anon.152 = type { %"class.cbor::Value" }
%"class.cbor::Value" = type { i32, %union.anon.132 }
%union.anon.132 = type { %"class.std::__1::vector.32" }
%"class.device::FidoDiscoveryBase" = type { i32 (...)**, i8, %"class.device::FidoDiscoveryBase::Observer"* }
%"class.std::__1::vector.185" = type { %"class.std::__1::__vector_base.186" }
%"class.std::__1::__vector_base.186" = type { %"class.device::FidoAuthenticator"**, %"class.device::FidoAuthenticator"**, %"class.std::__1::__compressed_pair.187" }
%"class.std::__1::__compressed_pair.187" = type { %"struct.std::__1::__compressed_pair_elem.188" }
%"struct.std::__1::__compressed_pair_elem.188" = type { %"class.device::FidoAuthenticator"** }
%"class.logging::CheckError" = type { %"class.logging::LogMessage"* }
%"class.logging::LogMessage" = type opaque
%"class.std::__1::basic_ostream" = type { i32 (...)**, %"class.std::__1::basic_ios.base" }
%"class.std::__1::basic_ios.base" = type <{ %"class.std::__1::ios_base", %"class.std::__1::basic_ostream"*, i32 }>
%"class.std::__1::ios_base" = type { i32 (...)**, i32, i64, i64, i32, i32, i8*, i8*, void (i32, %"class.std::__1::ios_base"*, i32)**, i32*, i64, i64, i64*, i64, i64, i8**, i64, i64 }
%"class.absl::optional.93" = type { %"class.absl::optional_internal::optional_data.94" }
%"class.absl::optional_internal::optional_data.94" = type { %"class.absl::optional_internal::optional_data_base.95" }
%"class.absl::optional_internal::optional_data_base.95" = type { %"class.absl::optional_internal::optional_data_dtor_base.96" }
%"class.absl::optional_internal::optional_data_dtor_base.96" = type { i8, %union.anon.97 }
%union.anon.97 = type { %"struct.device::pin::RetriesResponse" }
%"struct.device::pin::RetriesResponse" = type { i32 }
%"class.std::__1::tuple.198" = type { %"struct.std::__1::__tuple_impl.199" }
%"struct.std::__1::__tuple_impl.199" = type { %"class.std::__1::__tuple_leaf" }
%"class.std::__1::__tuple_leaf" = type { %"class.base::WeakPtr" }
%"class.absl::optional.115" = type { %"class.absl::optional_internal::optional_data.116" }
%"class.absl::optional_internal::optional_data.116" = type { %"class.absl::optional_internal::optional_data_base.117" }
%"class.absl::optional_internal::optional_data_base.117" = type { %"class.absl::optional_internal::optional_data_dtor_base.118" }
%"class.absl::optional_internal::optional_data_dtor_base.118" = type { i8, %union.anon.119 }
%union.anon.119 = type { %"struct.device::pin::EmptyResponse" }
%"struct.device::pin::EmptyResponse" = type { i8 }

$_ZN4base8internal7InvokerINS0_9BindStateIMN6device27CredentialManagementHandlerEFvPNS3_17FidoAuthenticatorEEJNS_7WeakPtrIS4_EES6_EEEFvvEE7RunOnceEPNS0_13BindStateBaseE = comdat any

$_ZN4base8internal9BindStateIMN6device27CredentialManagementHandlerEFvPNS2_17FidoAuthenticatorEEJNS_7WeakPtrIS3_EES5_EE7DestroyEPKNS0_13BindStateBaseE = comdat any

$_ZN4base8internal23QueryCancellationTraitsINS0_9BindStateIMN6device27CredentialManagementHandlerEFvPNS3_17FidoAuthenticatorEEJNS_7WeakPtrIS4_EES6_EEEEEbPKNS0_13BindStateBaseENSC_21CancellationQueryModeE = comdat any

$_ZN4base8internal7InvokerINS0_9BindStateIMN6device27CredentialManagementHandlerEFvNS3_22CtapDeviceResponseCodeEN4absl8optionalINS3_3pin15RetriesResponseEEEEJNS_7WeakPtrIS4_EEEEEFvS5_SA_EE7RunOnceEPNS0_13BindStateBaseES5_OSA_ = comdat any

$_ZN4base8internal9BindStateIMN6device27CredentialManagementHandlerEFvNS2_22CtapDeviceResponseCodeEN4absl8optionalINS2_3pin15RetriesResponseEEEEJNS_7WeakPtrIS3_EEEE7DestroyEPKNS0_13BindStateBaseE = comdat any

$_ZN4base8internal23QueryCancellationTraitsINS0_9BindStateIMN6device27CredentialManagementHandlerEFvNS3_22CtapDeviceResponseCodeEN4absl8optionalINS3_3pin15RetriesResponseEEEEJNS_7WeakPtrIS4_EEEEEEEbPKNS0_13BindStateBaseENSG_21CancellationQueryModeE = comdat any

$_ZN4base8internal7InvokerINS0_9BindStateIMN6device27CredentialManagementHandlerEFvNSt3__112basic_stringIcNS5_11char_traitsIcEENS5_9allocatorIcEEEEEJNS_7WeakPtrIS4_EEEEEFvSB_EE7RunOnceEPNS0_13BindStateBaseEOSB_ = comdat any

$_ZN4base8internal7InvokerINS0_9BindStateIMN6device27CredentialManagementHandlerEFvNSt3__112basic_stringIcNS5_11char_traitsIcEENS5_9allocatorIcEEEEEJNS_7WeakPtrIS4_EEEEEFvSB_EE7RunImplISD_NS5_5tupleIJSF_EEEJLm0EEEEvOT_OT0_NS5_16integer_sequenceImJXspT1_EEEEOSB_ = comdat any

$_ZN4base8internal9BindStateIMN6device27CredentialManagementHandlerEFvNSt3__112basic_stringIcNS4_11char_traitsIcEENS4_9allocatorIcEEEEEJNS_7WeakPtrIS3_EEEE7DestroyEPKNS0_13BindStateBaseE = comdat any

$_ZN4base8internal23QueryCancellationTraitsINS0_9BindStateIMN6device27CredentialManagementHandlerEFvNSt3__112basic_stringIcNS5_11char_traitsIcEENS5_9allocatorIcEEEEEJNS_7WeakPtrIS4_EEEEEEEbPKNS0_13BindStateBaseENSH_21CancellationQueryModeE = comdat any

$_ZN4base8internal7InvokerINS0_9BindStateIMN6device27CredentialManagementHandlerEFvNS3_22CtapDeviceResponseCodeEN4absl8optionalINS3_3pin13TokenResponseEEEEJNS_7WeakPtrIS4_EEEEEFvS5_SA_EE7RunOnceEPNS0_13BindStateBaseES5_OSA_ = comdat any

$_ZN4base8internal13FunctorTraitsIMN6device27CredentialManagementHandlerEFvNS2_22CtapDeviceResponseCodeEN4absl8optionalINS2_3pin13TokenResponseEEEEvE6InvokeISB_NS_7WeakPtrIS3_EEJS4_S9_EEEvT_OT0_DpOT1_ = comdat any

$_ZN4base8internal9BindStateIMN6device27CredentialManagementHandlerEFvNS2_22CtapDeviceResponseCodeEN4absl8optionalINS2_3pin13TokenResponseEEEEJNS_7WeakPtrIS3_EEEE7DestroyEPKNS0_13BindStateBaseE = comdat any

$_ZN4base8internal23QueryCancellationTraitsINS0_9BindStateIMN6device27CredentialManagementHandlerEFvNS3_22CtapDeviceResponseCodeEN4absl8optionalINS3_3pin13TokenResponseEEEEJNS_7WeakPtrIS4_EEEEEEEbPKNS0_13BindStateBaseENSG_21CancellationQueryModeE = comdat any

$_ZN4base8internal7InvokerINS0_9BindStateIMN6device27CredentialManagementHandlerEFvNS3_22CtapDeviceResponseCodeEN4absl8optionalINS3_27CredentialsMetadataResponseEEEEJNS_7WeakPtrIS4_EEEEEFvS5_S9_EE7RunOnceEPNS0_13BindStateBaseES5_OS9_ = comdat any

$_ZN4base8internal9BindStateIMN6device27CredentialManagementHandlerEFvNS2_22CtapDeviceResponseCodeEN4absl8optionalINS2_27CredentialsMetadataResponseEEEEJNS_7WeakPtrIS3_EEEE7DestroyEPKNS0_13BindStateBaseE = comdat any

$_ZN4base8internal23QueryCancellationTraitsINS0_9BindStateIMN6device27CredentialManagementHandlerEFvNS3_22CtapDeviceResponseCodeEN4absl8optionalINS3_27CredentialsMetadataResponseEEEEJNS_7WeakPtrIS4_EEEEEEEbPKNS0_13BindStateBaseENSF_21CancellationQueryModeE = comdat any

$_ZN4base8internal7InvokerINS0_9BindStateIPFvNS_12OnceCallbackIFvN6device22CtapDeviceResponseCodeEEEES5_N4absl8optionalINS4_3pin13EmptyResponseEEEEJS7_EEEFvS5_SC_EE7RunOnceEPNS0_13BindStateBaseES5_OSC_ = comdat any

$_ZN4base8internal9BindStateIPFvNS_12OnceCallbackIFvN6device22CtapDeviceResponseCodeEEEES4_N4absl8optionalINS3_3pin13EmptyResponseEEEEJS6_EE7DestroyEPKNS0_13BindStateBaseE = comdat any

$_ZN4base8internal7InvokerINS0_9BindStateIMN6device27CredentialManagementHandlerEFvNSt3__16vectorINS6_IhNS5_9allocatorIhEEEENS7_IS9_EEEENS_12OnceCallbackIFvNS3_22CtapDeviceResponseCodeEEEESD_N4absl8optionalINS3_3pin13EmptyResponseEEEEJNS_7WeakPtrIS4_EESB_SF_EEEFvSD_SK_EE7RunOnceEPNS0_13BindStateBaseESD_OSK_ = comdat any

$_ZN4base8internal13FunctorTraitsIMN6device27CredentialManagementHandlerEFvNSt3__16vectorINS5_IhNS4_9allocatorIhEEEENS6_IS8_EEEENS_12OnceCallbackIFvNS2_22CtapDeviceResponseCodeEEEESC_N4absl8optionalINS2_3pin13EmptyResponseEEEEvE6InvokeISL_NS_7WeakPtrIS3_EEJSA_SE_SC_SJ_EEEvT_OT0_DpOT1_ = comdat any

$_ZN4base8internal9BindStateIMN6device27CredentialManagementHandlerEFvNSt3__16vectorINS5_IhNS4_9allocatorIhEEEENS6_IS8_EEEENS_12OnceCallbackIFvNS2_22CtapDeviceResponseCodeEEEESC_N4absl8optionalINS2_3pin13EmptyResponseEEEEJNS_7WeakPtrIS3_EESA_SE_EE7DestroyEPKNS0_13BindStateBaseE = comdat any

$_ZN4base8internal23QueryCancellationTraitsINS0_9BindStateIMN6device27CredentialManagementHandlerEFvNSt3__16vectorINS6_IhNS5_9allocatorIhEEEENS7_IS9_EEEENS_12OnceCallbackIFvNS3_22CtapDeviceResponseCodeEEEESD_N4absl8optionalINS3_3pin13EmptyResponseEEEEJNS_7WeakPtrIS4_EESB_SF_EEEEEbPKNS0_13BindStateBaseENSQ_21CancellationQueryModeE = comdat any

$_ZN4base8internal7InvokerINS0_9BindStateIMN6device27CredentialManagementHandlerEFvNS3_27CredentialsMetadataResponseENS3_22CtapDeviceResponseCodeEN4absl8optionalINSt3__16vectorINS3_38AggregatedEnumerateCredentialsResponseENS9_9allocatorISB_EEEEEEEJNS_7WeakPtrIS4_EES5_EEEFvS6_SF_EE7RunOnceEPNS0_13BindStateBaseES6_OSF_ = comdat any

$_ZN4base8internal13FunctorTraitsIMN6device27CredentialManagementHandlerEFvNS2_27CredentialsMetadataResponseENS2_22CtapDeviceResponseCodeEN4absl8optionalINSt3__16vectorINS2_38AggregatedEnumerateCredentialsResponseENS8_9allocatorISA_EEEEEEEvE6InvokeISG_NS_7WeakPtrIS3_EEJS4_S5_SE_EEEvT_OT0_DpOT1_ = comdat any

$_ZN4base8internal9BindStateIMN6device27CredentialManagementHandlerEFvNS2_27CredentialsMetadataResponseENS2_22CtapDeviceResponseCodeEN4absl8optionalINSt3__16vectorINS2_38AggregatedEnumerateCredentialsResponseENS8_9allocatorISA_EEEEEEEJNS_7WeakPtrIS3_EES4_EE7DestroyEPKNS0_13BindStateBaseE = comdat any

$_ZN4base8internal23QueryCancellationTraitsINS0_9BindStateIMN6device27CredentialManagementHandlerEFvNS3_27CredentialsMetadataResponseENS3_22CtapDeviceResponseCodeEN4absl8optionalINSt3__16vectorINS3_38AggregatedEnumerateCredentialsResponseENS9_9allocatorISB_EEEEEEEJNS_7WeakPtrIS4_EES5_EEEEEbPKNS0_13BindStateBaseENSL_21CancellationQueryModeE = comdat any

$_ZN4abslltINSt3__112basic_stringIcNS1_11char_traitsIcEENS1_9allocatorIcEEEES7_EEDTclL_ZNS_17optional_internal19convertible_to_boolEbEltdefp_defp0_EERKNS_8optionalIT_EERKNSA_IT0_EE = comdat any

@_ZTVN6device27CredentialManagementHandlerE = hidden unnamed_addr constant { [11 x i8*] } { [11 x i8*] [i8* null, i8* null, i8* bitcast (void (%"class.device::CredentialManagementHandler"*)* @_ZN6device27CredentialManagementHandlerD2Ev to i8*), i8* bitcast (void (%"class.device::CredentialManagementHandler"*)* @_ZN6device27CredentialManagementHandlerD0Ev to i8*), i8* bitcast (void (%"class.device::FidoRequestHandlerBase"*, %"class.device::FidoDiscoveryBase"*, i1, %"class.std::__1::vector.185"*)* @_ZN6device22FidoRequestHandlerBase16DiscoveryStartedEPNS_17FidoDiscoveryBaseEbNSt3__16vectorIPNS_17FidoAuthenticatorENS3_9allocatorIS6_EEEE to i8*), i8* bitcast (void (%"class.device::FidoRequestHandlerBase"*, %"class.device::FidoDiscoveryBase"*, %"class.device::FidoAuthenticator"*)* @_ZN6device22FidoRequestHandlerBase18AuthenticatorAddedEPNS_17FidoDiscoveryBaseEPNS_17FidoAuthenticatorE to i8*), i8* bitcast (void (%"class.device::CredentialManagementHandler"*, %"class.device::FidoDiscoveryBase"*, %"class.device::FidoAuthenticator"*)* @_ZN6device27CredentialManagementHandler20AuthenticatorRemovedEPNS_17FidoDiscoveryBaseEPNS_17FidoAuthenticatorE to i8*), i8* bitcast (void (%"class.device::FidoRequestHandlerBase"*, i1, i1, i1, i1)* @_ZN6device22FidoRequestHandlerBase28OnBluetoothAdapterEnumeratedEbbbb to i8*), i8* bitcast (i1 (%"class.device::FidoRequestHandlerBase"*, %"class.std::__1::basic_string"*)* @_ZNK6device22FidoRequestHandlerBase16HasAuthenticatorERKNSt3__112basic_stringIcNS1_11char_traitsIcEENS1_9allocatorIcEEEE to i8*), i8* bitcast (void (%"class.device::CredentialManagementHandler"*, %"class.device::FidoAuthenticator"*)* @_ZN6device27CredentialManagementHandler15DispatchRequestEPNS_17FidoAuthenticatorE to i8*), i8* bitcast (void (%"class.device::FidoRequestHandlerBase"*, %"class.device::FidoAuthenticator"*)* @_ZN6device22FidoRequestHandlerBase27GetPlatformCredentialStatusEPNS_17FidoAuthenticatorE to i8*)] }, align 8
@.str = private unnamed_addr constant [29 x i8] c"../../base/memory/weak_ptr.h\00", align 1
@.str.1 = private unnamed_addr constant [15 x i8] c"ref_.IsValid()\00", align 1

@_ZN6device27CredentialManagementHandlerC1EPNS_20FidoDiscoveryFactoryERKN4base8internal9flat_treeINS_21FidoTransportProtocolENS3_8identityENSt3__14lessIvEENS8_6vectorIS6_NS8_9allocatorIS6_EEEEEENS3_12OnceCallbackIFvvEEENS3_17RepeatingCallbackIFvjlNSI_IFvNS8_12basic_stringIcNS8_11char_traitsIcEENSC_IcEEEEEEEEEENSI_IFvNS_26CredentialManagementStatusEEEE = hidden unnamed_addr alias void (%"class.device::CredentialManagementHandler"*, %"class.device::FidoDiscoveryFactory"*, %"class.base::internal::flat_tree.21"*, %"class.base::OnceCallback"*, %"class.base::RepeatingCallback"*, %"class.base::OnceCallback.84"*), void (%"class.device::CredentialManagementHandler"*, %"class.device::FidoDiscoveryFactory"*, %"class.base::internal::flat_tree.21"*, %"class.base::OnceCallback"*, %"class.base::RepeatingCallback"*, %"class.base::OnceCallback.84"*)* @_ZN6device27CredentialManagementHandlerC2EPNS_20FidoDiscoveryFactoryERKN4base8internal9flat_treeINS_21FidoTransportProtocolENS3_8identityENSt3__14lessIvEENS8_6vectorIS6_NS8_9allocatorIS6_EEEEEENS3_12OnceCallbackIFvvEEENS3_17RepeatingCallbackIFvjlNSI_IFvNS8_12basic_stringIcNS8_11char_traitsIcEENSC_IcEEEEEEEEEENSI_IFvNS_26CredentialManagementStatusEEEE
@_ZN6device27CredentialManagementHandlerD1Ev = hidden unnamed_addr alias void (%"class.device::CredentialManagementHandler"*), void (%"class.device::CredentialManagementHandler"*)* @_ZN6device27CredentialManagementHandlerD2Ev

; Function Attrs: nounwind ssp uwtable
define hidden void @_ZN6device27CredentialManagementHandlerC2EPNS_20FidoDiscoveryFactoryERKN4base8internal9flat_treeINS_21FidoTransportProtocolENS3_8identityENSt3__14lessIvEENS8_6vectorIS6_NS8_9allocatorIS6_EEEEEENS3_12OnceCallbackIFvvEEENS3_17RepeatingCallbackIFvjlNSI_IFvNS8_12basic_stringIcNS8_11char_traitsIcEENSC_IcEEEEEEEEEENSI_IFvNS_26CredentialManagementStatusEEEE(%"class.device::CredentialManagementHandler"*, %"class.device::FidoDiscoveryFactory"*, %"class.base::internal::flat_tree.21"* dereferenceable(24), %"class.base::OnceCallback"* nocapture, %"class.base::RepeatingCallback"* nocapture, %"class.base::OnceCallback.84"* nocapture) unnamed_addr #0 align 2 {
  %7 = getelementptr inbounds %"class.device::CredentialManagementHandler", %"class.device::CredentialManagementHandler"* %0, i64 0, i32 0
  tail call void @_ZN6device22FidoRequestHandlerBaseC2EPNS_20FidoDiscoveryFactoryERKN4base8internal9flat_treeINS_21FidoTransportProtocolENS3_8identityENSt3__14lessIvEENS8_6vectorIS6_NS8_9allocatorIS6_EEEEEE(%"class.device::FidoRequestHandlerBase"* %7, %"class.device::FidoDiscoveryFactory"* %1, %"class.base::internal::flat_tree.21"* dereferenceable(24) %2) #10
  %8 = getelementptr inbounds %"class.device::CredentialManagementHandler", %"class.device::CredentialManagementHandler"* %0, i64 0, i32 0, i32 0, i32 0
  store i32 (...)** bitcast (i8** getelementptr inbounds ({ [11 x i8*] }, { [11 x i8*] }* @_ZTVN6device27CredentialManagementHandlerE, i64 0, inrange i32 0, i64 2) to i32 (...)**), i32 (...)*** %8, align 8
  %9 = getelementptr inbounds %"class.device::CredentialManagementHandler", %"class.device::CredentialManagementHandler"* %0, i64 0, i32 1
  store i32 0, i32* %9, align 8
  %10 = getelementptr inbounds %"class.device::CredentialManagementHandler", %"class.device::CredentialManagementHandler"* %0, i64 0, i32 2
  store %"class.device::FidoAuthenticator"* null, %"class.device::FidoAuthenticator"** %10, align 8
  %11 = getelementptr inbounds %"class.device::CredentialManagementHandler", %"class.device::CredentialManagementHandler"* %0, i64 0, i32 3, i32 0, i32 0, i32 0, i32 0
  store i8 0, i8* %11, align 8
  %12 = getelementptr inbounds %"class.device::CredentialManagementHandler", %"class.device::CredentialManagementHandler"* %0, i64 0, i32 3, i32 0, i32 0, i32 0, i32 1, i32 0, i32 0
  tail call void @llvm.memset.p0i8.i64(i8* align 8 %12, i8 0, i64 32, i1 false) #10
  %13 = getelementptr inbounds %"class.device::CredentialManagementHandler", %"class.device::CredentialManagementHandler"* %0, i64 0, i32 4
  %14 = getelementptr inbounds %"class.base::OnceCallback", %"class.base::OnceCallback"* %3, i64 0, i32 0, i32 0, i32 0
  %15 = bitcast %"class.base::OnceCallback"* %3 to i64*
  %16 = load i64, i64* %15, align 8
  %17 = bitcast %"class.base::OnceCallback"* %13 to i64*
  store i64 %16, i64* %17, align 8
  store %"class.base::internal::BindStateBase"* null, %"class.base::internal::BindStateBase"** %14, align 8
  %18 = getelementptr inbounds %"class.device::CredentialManagementHandler", %"class.device::CredentialManagementHandler"* %0, i64 0, i32 5
  %19 = getelementptr inbounds %"class.base::RepeatingCallback", %"class.base::RepeatingCallback"* %4, i64 0, i32 0, i32 0, i32 0, i32 0
  %20 = bitcast %"class.base::RepeatingCallback"* %4 to i64*
  %21 = load i64, i64* %20, align 8
  %22 = bitcast %"class.base::RepeatingCallback"* %18 to i64*
  store i64 %21, i64* %22, align 8
  store %"class.base::internal::BindStateBase"* null, %"class.base::internal::BindStateBase"** %19, align 8
  %23 = getelementptr inbounds %"class.device::CredentialManagementHandler", %"class.device::CredentialManagementHandler"* %0, i64 0, i32 6, i32 0, i32 0, i32 0
  store %"class.base::internal::BindStateBase"* null, %"class.base::internal::BindStateBase"** %23, align 8
  %24 = getelementptr inbounds %"class.device::CredentialManagementHandler", %"class.device::CredentialManagementHandler"* %0, i64 0, i32 7
  %25 = getelementptr inbounds %"class.base::OnceCallback.84", %"class.base::OnceCallback.84"* %5, i64 0, i32 0, i32 0, i32 0
  %26 = bitcast %"class.base::OnceCallback.84"* %5 to i64*
  %27 = load i64, i64* %26, align 8
  %28 = bitcast %"class.base::OnceCallback.84"* %24 to i64*
  store i64 %27, i64* %28, align 8
  store %"class.base::internal::BindStateBase"* null, %"class.base::internal::BindStateBase"** %25, align 8
  %29 = getelementptr inbounds %"class.device::CredentialManagementHandler", %"class.device::CredentialManagementHandler"* %0, i64 0, i32 8, i32 0
  %30 = ptrtoint %"class.device::CredentialManagementHandler"* %0 to i64
  tail call void @_ZN4base8internal18WeakPtrFactoryBaseC2Em(%"class.base::internal::WeakPtrFactoryBase"* %29, i64 %30) #10
  tail call void @_ZN6device22FidoRequestHandlerBase5StartEv(%"class.device::FidoRequestHandlerBase"* %7) #10
  ret void
}

declare void @_ZN6device22FidoRequestHandlerBaseC2EPNS_20FidoDiscoveryFactoryERKN4base8internal9flat_treeINS_21FidoTransportProtocolENS3_8identityENSt3__14lessIvEENS8_6vectorIS6_NS8_9allocatorIS6_EEEEEE(%"class.device::FidoRequestHandlerBase"*, %"class.device::FidoDiscoveryFactory"*, %"class.base::internal::flat_tree.21"* dereferenceable(24)) unnamed_addr #1

declare void @_ZN6device22FidoRequestHandlerBase5StartEv(%"class.device::FidoRequestHandlerBase"*) local_unnamed_addr #1

; Function Attrs: nounwind ssp uwtable
define hidden void @_ZN6device27CredentialManagementHandlerD2Ev(%"class.device::CredentialManagementHandler"*) unnamed_addr #0 align 2 {
  %2 = getelementptr inbounds %"class.device::CredentialManagementHandler", %"class.device::CredentialManagementHandler"* %0, i64 0, i32 0, i32 0, i32 0
  store i32 (...)** bitcast (i8** getelementptr inbounds ({ [11 x i8*] }, { [11 x i8*] }* @_ZTVN6device27CredentialManagementHandlerE, i64 0, inrange i32 0, i64 2) to i32 (...)**), i32 (...)*** %2, align 8
  %3 = getelementptr inbounds %"class.device::CredentialManagementHandler", %"class.device::CredentialManagementHandler"* %0, i64 0, i32 8, i32 0
  tail call void @_ZN4base8internal18WeakPtrFactoryBaseD2Ev(%"class.base::internal::WeakPtrFactoryBase"* %3) #10
  %4 = getelementptr inbounds %"class.device::CredentialManagementHandler", %"class.device::CredentialManagementHandler"* %0, i64 0, i32 7, i32 0
  tail call void @_ZN4base8internal12CallbackBaseD2Ev(%"class.base::internal::CallbackBase"* %4) #10
  %5 = getelementptr inbounds %"class.device::CredentialManagementHandler", %"class.device::CredentialManagementHandler"* %0, i64 0, i32 6, i32 0
  tail call void @_ZN4base8internal12CallbackBaseD2Ev(%"class.base::internal::CallbackBase"* %5) #10
  %6 = getelementptr inbounds %"class.device::CredentialManagementHandler", %"class.device::CredentialManagementHandler"* %0, i64 0, i32 5, i32 0, i32 0
  tail call void @_ZN4base8internal12CallbackBaseD2Ev(%"class.base::internal::CallbackBase"* %6) #10
  %7 = getelementptr inbounds %"class.device::CredentialManagementHandler", %"class.device::CredentialManagementHandler"* %0, i64 0, i32 4, i32 0
  tail call void @_ZN4base8internal12CallbackBaseD2Ev(%"class.base::internal::CallbackBase"* %7) #10
  %8 = getelementptr inbounds %"class.device::CredentialManagementHandler", %"class.device::CredentialManagementHandler"* %0, i64 0, i32 3, i32 0, i32 0, i32 0, i32 0
  %9 = load i8, i8* %8, align 8, !range !2
  %10 = icmp eq i8 %9, 0
  br i1 %10, label %13, label %11

11:                                               ; preds = %1
  %12 = getelementptr inbounds %"class.device::CredentialManagementHandler", %"class.device::CredentialManagementHandler"* %0, i64 0, i32 3, i32 0, i32 0, i32 0, i32 1, i32 0
  tail call void @_ZN6device3pin13TokenResponseD1Ev(%"class.device::pin::TokenResponse"* %12) #10
  store i8 0, i8* %8, align 8
  br label %13

13:                                               ; preds = %1, %11
  %14 = getelementptr inbounds %"class.device::CredentialManagementHandler", %"class.device::CredentialManagementHandler"* %0, i64 0, i32 0
  tail call void @_ZN6device22FidoRequestHandlerBaseD2Ev(%"class.device::FidoRequestHandlerBase"* %14) #10
  ret void
}

; Function Attrs: nounwind
declare void @_ZN4base8internal18WeakPtrFactoryBaseD2Ev(%"class.base::internal::WeakPtrFactoryBase"*) unnamed_addr #2

; Function Attrs: nounwind
declare void @_ZN4base8internal12CallbackBaseD2Ev(%"class.base::internal::CallbackBase"*) unnamed_addr #2

; Function Attrs: nounwind
declare void @_ZN6device22FidoRequestHandlerBaseD2Ev(%"class.device::FidoRequestHandlerBase"*) unnamed_addr #2

; Function Attrs: nounwind ssp uwtable
define hidden void @_ZN6device27CredentialManagementHandlerD0Ev(%"class.device::CredentialManagementHandler"*) unnamed_addr #0 align 2 {
  tail call void @_ZN6device27CredentialManagementHandlerD2Ev(%"class.device::CredentialManagementHandler"* %0) #10
  %2 = bitcast %"class.device::CredentialManagementHandler"* %0 to i8*
  tail call void @_ZdlPv(i8* %2) #11
  ret void
}

; Function Attrs: nobuiltin nounwind
declare void @_ZdlPv(i8*) local_unnamed_addr #3

; Function Attrs: nounwind ssp uwtable
define hidden void @_ZN6device27CredentialManagementHandler15DispatchRequestEPNS_17FidoAuthenticatorE(%"class.device::CredentialManagementHandler"*, %"class.device::FidoAuthenticator"*) unnamed_addr #0 align 2 {
  %3 = alloca %"class.base::internal::WeakReference", align 8
  %4 = alloca %"class.base::OnceCallback", align 8
  %5 = alloca %"class.base::WeakPtr", align 8
  %6 = getelementptr inbounds %"class.device::CredentialManagementHandler", %"class.device::CredentialManagementHandler"* %0, i64 0, i32 1
  %7 = load i32, i32* %6, align 8
  %8 = icmp eq i32 %7, 0
  br i1 %8, label %9, label %36

9:                                                ; preds = %2
  %10 = ptrtoint %"class.device::FidoAuthenticator"* %1 to i64
  %11 = bitcast %"class.base::WeakPtr"* %5 to i8*
  call void @llvm.lifetime.start.p0i8(i64 16, i8* nonnull %11) #10
  %12 = bitcast %"class.base::internal::WeakReference"* %3 to i8*
  call void @llvm.lifetime.start.p0i8(i64 8, i8* nonnull %12) #10, !noalias !3
  %13 = getelementptr inbounds %"class.device::CredentialManagementHandler", %"class.device::CredentialManagementHandler"* %0, i64 0, i32 8, i32 0, i32 0
  call void @_ZNK4base8internal18WeakReferenceOwner6GetRefEv(%"class.base::internal::WeakReference"* nonnull sret %3, %"class.base::internal::WeakReferenceOwner"* %13) #10, !noalias !3
  %14 = getelementptr inbounds %"class.device::CredentialManagementHandler", %"class.device::CredentialManagementHandler"* %0, i64 0, i32 8, i32 0, i32 1
  %15 = load i64, i64* %14, align 8, !noalias !3
  %16 = getelementptr inbounds %"class.base::WeakPtr", %"class.base::WeakPtr"* %5, i64 0, i32 0
  call void @_ZN4base8internal11WeakPtrBaseC2ERKNS0_13WeakReferenceEm(%"class.base::internal::WeakPtrBase"* nonnull %16, %"class.base::internal::WeakReference"* nonnull dereferenceable(8) %3, i64 %15) #10
  call void @_ZN4base8internal13WeakReferenceD1Ev(%"class.base::internal::WeakReference"* nonnull %3) #10
  call void @llvm.lifetime.end.p0i8(i64 8, i8* nonnull %12) #10, !noalias !3
  %17 = call i8* @_Znwm(i64 72) #11, !noalias !6
  %18 = bitcast i8* %17 to %"class.base::internal::BindStateBase"*
  call void @_ZN4base8internal13BindStateBaseC2EPFvvEPFvPKS1_EPFbS5_NS1_21CancellationQueryModeEE(%"class.base::internal::BindStateBase"* nonnull %18, void ()* bitcast (void (%"class.base::internal::BindStateBase"*)* @_ZN4base8internal7InvokerINS0_9BindStateIMN6device27CredentialManagementHandlerEFvPNS3_17FidoAuthenticatorEEJNS_7WeakPtrIS4_EES6_EEEFvvEE7RunOnceEPNS0_13BindStateBaseE to void ()*), void (%"class.base::internal::BindStateBase"*)* nonnull @_ZN4base8internal9BindStateIMN6device27CredentialManagementHandlerEFvPNS2_17FidoAuthenticatorEEJNS_7WeakPtrIS3_EES5_EE7DestroyEPKNS0_13BindStateBaseE, i1 (%"class.base::internal::BindStateBase"*, i32)* nonnull @_ZN4base8internal23QueryCancellationTraitsINS0_9BindStateIMN6device27CredentialManagementHandlerEFvPNS3_17FidoAuthenticatorEEJNS_7WeakPtrIS4_EES6_EEEEEbPKNS0_13BindStateBaseENSC_21CancellationQueryModeE) #10, !noalias !6
  %19 = getelementptr inbounds i8, i8* %17, i64 32
  %20 = bitcast i8* %19 to <2 x i64>*
  store <2 x i64> <i64 ptrtoint (void (%"class.device::CredentialManagementHandler"*, %"class.device::FidoAuthenticator"*)* @_ZN6device27CredentialManagementHandler7OnTouchEPNS_17FidoAuthenticatorE to i64), i64 0>, <2 x i64>* %20, align 8, !noalias !6
  %21 = getelementptr inbounds i8, i8* %17, i64 48
  %22 = bitcast i8* %21 to %"class.base::internal::WeakReference"*
  %23 = getelementptr inbounds %"class.base::WeakPtr", %"class.base::WeakPtr"* %5, i64 0, i32 0, i32 0
  call void @_ZN4base8internal13WeakReferenceC1EOS1_(%"class.base::internal::WeakReference"* %22, %"class.base::internal::WeakReference"* nonnull dereferenceable(8) %23) #10, !noalias !6
  %24 = getelementptr inbounds i8, i8* %17, i64 56
  %25 = bitcast i8* %24 to i64*
  %26 = getelementptr inbounds %"class.base::WeakPtr", %"class.base::WeakPtr"* %5, i64 0, i32 0, i32 1
  %27 = load i64, i64* %26, align 8, !noalias !6
  store i64 %27, i64* %25, align 8, !noalias !6
  %28 = getelementptr inbounds i8, i8* %17, i64 64
  %29 = bitcast i8* %28 to i64*
  store i64 %10, i64* %29, align 8, !noalias !6
  %30 = bitcast %"class.base::OnceCallback"* %4 to i8**
  store i8* %17, i8** %30, align 8, !alias.scope !6
  %31 = bitcast %"class.device::FidoAuthenticator"* %1 to void (%"class.device::FidoAuthenticator"*, %"class.base::OnceCallback"*)***
  %32 = load void (%"class.device::FidoAuthenticator"*, %"class.base::OnceCallback"*)**, void (%"class.device::FidoAuthenticator"*, %"class.base::OnceCallback"*)*** %31, align 8
  %33 = getelementptr inbounds void (%"class.device::FidoAuthenticator"*, %"class.base::OnceCallback"*)*, void (%"class.device::FidoAuthenticator"*, %"class.base::OnceCallback"*)** %32, i64 6
  %34 = load void (%"class.device::FidoAuthenticator"*, %"class.base::OnceCallback"*)*, void (%"class.device::FidoAuthenticator"*, %"class.base::OnceCallback"*)** %33, align 8
  call void %34(%"class.device::FidoAuthenticator"* %1, %"class.base::OnceCallback"* nonnull %4) #10
  %35 = getelementptr inbounds %"class.base::OnceCallback", %"class.base::OnceCallback"* %4, i64 0, i32 0
  call void @_ZN4base8internal12CallbackBaseD2Ev(%"class.base::internal::CallbackBase"* nonnull %35) #10
  call void @_ZN4base8internal11WeakPtrBaseD2Ev(%"class.base::internal::WeakPtrBase"* nonnull %16) #10
  call void @llvm.lifetime.end.p0i8(i64 16, i8* nonnull %11) #10
  br label %36

36:                                               ; preds = %2, %9
  ret void
}

; Function Attrs: argmemonly nounwind
declare void @llvm.lifetime.start.p0i8(i64 immarg, i8* nocapture) #4

; Function Attrs: nounwind ssp uwtable
define hidden void @_ZN6device27CredentialManagementHandler7OnTouchEPNS_17FidoAuthenticatorE(%"class.device::CredentialManagementHandler"*, %"class.device::FidoAuthenticator"*) #0 align 2 {
  %3 = alloca %"class.base::OnceCallback.84", align 8
  %4 = alloca %"class.base::OnceCallback.84", align 8
  %5 = alloca %"class.base::OnceCallback.84", align 8
  %6 = alloca %"class.base::internal::WeakReference", align 8
  %7 = alloca %"class.std::__1::basic_string", align 8
  %8 = alloca %"class.base::OnceCallback.92", align 8
  %9 = alloca %"class.base::WeakPtr", align 8
  %10 = getelementptr inbounds %"class.device::CredentialManagementHandler", %"class.device::CredentialManagementHandler"* %0, i64 0, i32 1
  %11 = load i32, i32* %10, align 8
  %12 = icmp eq i32 %11, 0
  br i1 %12, label %13, label %157

13:                                               ; preds = %2
  store i32 1, i32* %10, align 8
  %14 = getelementptr inbounds %"class.device::CredentialManagementHandler", %"class.device::CredentialManagementHandler"* %0, i64 0, i32 0
  %15 = bitcast %"class.std::__1::basic_string"* %7 to i8*
  call void @llvm.lifetime.start.p0i8(i64 24, i8* nonnull %15) #10
  %16 = bitcast %"class.device::FidoAuthenticator"* %1 to void (%"class.std::__1::basic_string"*, %"class.device::FidoAuthenticator"*)***
  %17 = load void (%"class.std::__1::basic_string"*, %"class.device::FidoAuthenticator"*)**, void (%"class.std::__1::basic_string"*, %"class.device::FidoAuthenticator"*)*** %16, align 8
  %18 = getelementptr inbounds void (%"class.std::__1::basic_string"*, %"class.device::FidoAuthenticator"*)*, void (%"class.std::__1::basic_string"*, %"class.device::FidoAuthenticator"*)** %17, i64 35
  %19 = load void (%"class.std::__1::basic_string"*, %"class.device::FidoAuthenticator"*)*, void (%"class.std::__1::basic_string"*, %"class.device::FidoAuthenticator"*)** %18, align 8
  call void %19(%"class.std::__1::basic_string"* nonnull sret %7, %"class.device::FidoAuthenticator"* %1) #10
  %20 = bitcast %"class.std::__1::basic_string"* %7 to %"struct.std::__1::basic_string<char, std::__1::char_traits<char>, std::__1::allocator<char> >::__short"*
  %21 = getelementptr inbounds %"struct.std::__1::basic_string<char, std::__1::char_traits<char>, std::__1::allocator<char> >::__short", %"struct.std::__1::basic_string<char, std::__1::char_traits<char>, std::__1::allocator<char> >::__short"* %20, i64 0, i32 1, i32 0
  %22 = load i8, i8* %21, align 1
  %23 = icmp slt i8 %22, 0
  %24 = getelementptr inbounds %"class.std::__1::basic_string", %"class.std::__1::basic_string"* %7, i64 0, i32 0, i32 0, i32 0, i32 0, i32 0, i32 0
  %25 = load i8*, i8** %24, align 8
  %26 = select i1 %23, i8* %25, i8* %15
  %27 = getelementptr inbounds %"class.std::__1::basic_string", %"class.std::__1::basic_string"* %7, i64 0, i32 0, i32 0, i32 0, i32 0, i32 0, i32 1
  %28 = load i64, i64* %27, align 8
  %29 = zext i8 %22 to i64
  %30 = select i1 %23, i64 %28, i64 %29
  call void @_ZN6device22FidoRequestHandlerBase26CancelActiveAuthenticatorsEN4base16BasicStringPieceIcNSt3__111char_traitsIcEEEE(%"class.device::FidoRequestHandlerBase"* %14, i8* %26, i64 %30) #10
  %31 = load i8, i8* %21, align 1
  %32 = icmp slt i8 %31, 0
  br i1 %32, label %33, label %35

33:                                               ; preds = %13
  %34 = load i8*, i8** %24, align 8
  call void @_ZdlPv(i8* %34) #11
  br label %35

35:                                               ; preds = %13, %33
  call void @llvm.lifetime.end.p0i8(i64 24, i8* nonnull %15) #10
  %36 = bitcast %"class.device::FidoAuthenticator"* %1 to i32 (%"class.device::FidoAuthenticator"*)***
  %37 = load i32 (%"class.device::FidoAuthenticator"*)**, i32 (%"class.device::FidoAuthenticator"*)*** %36, align 8
  %38 = getelementptr inbounds i32 (%"class.device::FidoAuthenticator"*)*, i32 (%"class.device::FidoAuthenticator"*)** %37, i64 37
  %39 = load i32 (%"class.device::FidoAuthenticator"*)*, i32 (%"class.device::FidoAuthenticator"*)** %38, align 8
  %40 = call i32 %39(%"class.device::FidoAuthenticator"* %1) #10
  %41 = icmp eq i32 %40, 0
  br i1 %41, label %42, label %77

42:                                               ; preds = %35
  %43 = bitcast %"class.device::FidoAuthenticator"* %1 to %"class.absl::optional.87"* (%"class.device::FidoAuthenticator"*)***
  %44 = load %"class.absl::optional.87"* (%"class.device::FidoAuthenticator"*)**, %"class.absl::optional.87"* (%"class.device::FidoAuthenticator"*)*** %43, align 8
  %45 = getelementptr inbounds %"class.absl::optional.87"* (%"class.device::FidoAuthenticator"*)*, %"class.absl::optional.87"* (%"class.device::FidoAuthenticator"*)** %44, i64 42
  %46 = load %"class.absl::optional.87"* (%"class.device::FidoAuthenticator"*)*, %"class.absl::optional.87"* (%"class.device::FidoAuthenticator"*)** %45, align 8
  %47 = call dereferenceable(40) %"class.absl::optional.87"* %46(%"class.device::FidoAuthenticator"* %1) #10
  %48 = getelementptr inbounds %"class.absl::optional.87", %"class.absl::optional.87"* %47, i64 0, i32 0, i32 0, i32 0, i32 0
  %49 = load i8, i8* %48, align 4, !range !2
  %50 = icmp eq i8 %49, 0
  br i1 %50, label %77, label %51

51:                                               ; preds = %42
  %52 = load %"class.absl::optional.87"* (%"class.device::FidoAuthenticator"*)**, %"class.absl::optional.87"* (%"class.device::FidoAuthenticator"*)*** %43, align 8
  %53 = getelementptr inbounds %"class.absl::optional.87"* (%"class.device::FidoAuthenticator"*)*, %"class.absl::optional.87"* (%"class.device::FidoAuthenticator"*)** %52, i64 42
  %54 = load %"class.absl::optional.87"* (%"class.device::FidoAuthenticator"*)*, %"class.absl::optional.87"* (%"class.device::FidoAuthenticator"*)** %53, align 8
  %55 = call dereferenceable(40) %"class.absl::optional.87"* %54(%"class.device::FidoAuthenticator"* %1) #10
  %56 = getelementptr inbounds %"class.absl::optional.87", %"class.absl::optional.87"* %55, i64 0, i32 0, i32 0, i32 0, i32 0
  %57 = load i8, i8* %56, align 4, !range !2
  %58 = icmp eq i8 %57, 0
  br i1 %58, label %59, label %60, !prof !11

59:                                               ; preds = %51
  call void @llvm.trap() #10
  unreachable

60:                                               ; preds = %51
  %61 = getelementptr inbounds %"class.absl::optional.87", %"class.absl::optional.87"* %55, i64 0, i32 0, i32 0, i32 0, i32 2, i32 0, i32 5
  %62 = load i8, i8* %61, align 1, !range !2
  %63 = icmp eq i8 %62, 0
  br i1 %63, label %64, label %89

64:                                               ; preds = %60
  %65 = load %"class.absl::optional.87"* (%"class.device::FidoAuthenticator"*)**, %"class.absl::optional.87"* (%"class.device::FidoAuthenticator"*)*** %43, align 8
  %66 = getelementptr inbounds %"class.absl::optional.87"* (%"class.device::FidoAuthenticator"*)*, %"class.absl::optional.87"* (%"class.device::FidoAuthenticator"*)** %65, i64 42
  %67 = load %"class.absl::optional.87"* (%"class.device::FidoAuthenticator"*)*, %"class.absl::optional.87"* (%"class.device::FidoAuthenticator"*)** %66, align 8
  %68 = call dereferenceable(40) %"class.absl::optional.87"* %67(%"class.device::FidoAuthenticator"* %1) #10
  %69 = getelementptr inbounds %"class.absl::optional.87", %"class.absl::optional.87"* %68, i64 0, i32 0, i32 0, i32 0, i32 0
  %70 = load i8, i8* %69, align 4, !range !2
  %71 = icmp eq i8 %70, 0
  br i1 %71, label %72, label %73, !prof !11

72:                                               ; preds = %64
  call void @llvm.trap() #10
  unreachable

73:                                               ; preds = %64
  %74 = getelementptr inbounds %"class.absl::optional.87", %"class.absl::optional.87"* %68, i64 0, i32 0, i32 0, i32 0, i32 2, i32 0, i32 6
  %75 = load i8, i8* %74, align 2, !range !2
  %76 = icmp eq i8 %75, 0
  br i1 %76, label %77, label %89

77:                                               ; preds = %42, %73, %35
  store i32 8, i32* %10, align 8
  %78 = getelementptr inbounds %"class.device::CredentialManagementHandler", %"class.device::CredentialManagementHandler"* %0, i64 0, i32 7
  %79 = bitcast %"class.base::OnceCallback.84"* %5 to i8*
  call void @llvm.lifetime.start.p0i8(i64 8, i8* nonnull %79) #10
  %80 = getelementptr inbounds %"class.base::OnceCallback.84", %"class.base::OnceCallback.84"* %78, i64 0, i32 0, i32 0, i32 0
  %81 = bitcast %"class.base::OnceCallback.84"* %78 to i64*
  %82 = load i64, i64* %81, align 8
  %83 = bitcast %"class.base::OnceCallback.84"* %5 to i64*
  store i64 %82, i64* %83, align 8
  store %"class.base::internal::BindStateBase"* null, %"class.base::internal::BindStateBase"** %80, align 8
  %84 = getelementptr inbounds %"class.base::OnceCallback.84", %"class.base::OnceCallback.84"* %5, i64 0, i32 0
  %85 = inttoptr i64 %82 to %"class.base::internal::BindStateBase"*
  %86 = getelementptr inbounds %"class.base::internal::BindStateBase", %"class.base::internal::BindStateBase"* %85, i64 0, i32 1
  %87 = bitcast void ()** %86 to void (%"class.base::internal::BindStateBase"*, i32)**
  %88 = load void (%"class.base::internal::BindStateBase"*, i32)*, void (%"class.base::internal::BindStateBase"*, i32)** %87, align 8
  call void %88(%"class.base::internal::BindStateBase"* %85, i32 4) #10
  call void @_ZN4base8internal12CallbackBaseD2Ev(%"class.base::internal::CallbackBase"* nonnull %84) #10
  call void @llvm.lifetime.end.p0i8(i64 8, i8* nonnull %79) #10
  br label %157

89:                                               ; preds = %73, %60
  %90 = load %"class.absl::optional.87"* (%"class.device::FidoAuthenticator"*)**, %"class.absl::optional.87"* (%"class.device::FidoAuthenticator"*)*** %43, align 8
  %91 = getelementptr inbounds %"class.absl::optional.87"* (%"class.device::FidoAuthenticator"*)*, %"class.absl::optional.87"* (%"class.device::FidoAuthenticator"*)** %90, i64 42
  %92 = load %"class.absl::optional.87"* (%"class.device::FidoAuthenticator"*)*, %"class.absl::optional.87"* (%"class.device::FidoAuthenticator"*)** %91, align 8
  %93 = call dereferenceable(40) %"class.absl::optional.87"* %92(%"class.device::FidoAuthenticator"* %1) #10
  %94 = getelementptr inbounds %"class.absl::optional.87", %"class.absl::optional.87"* %93, i64 0, i32 0, i32 0, i32 0, i32 0
  %95 = load i8, i8* %94, align 4, !range !2
  %96 = icmp eq i8 %95, 0
  br i1 %96, label %97, label %98, !prof !11

97:                                               ; preds = %89
  call void @llvm.trap() #10
  unreachable

98:                                               ; preds = %89
  %99 = getelementptr inbounds %"class.absl::optional.87", %"class.absl::optional.87"* %93, i64 0, i32 0, i32 0, i32 0, i32 2, i32 0, i32 13
  %100 = load i32, i32* %99, align 4
  %101 = icmp eq i32 %100, 0
  br i1 %101, label %114, label %102

102:                                              ; preds = %98
  store i32 8, i32* %10, align 8
  %103 = getelementptr inbounds %"class.device::CredentialManagementHandler", %"class.device::CredentialManagementHandler"* %0, i64 0, i32 7
  %104 = bitcast %"class.base::OnceCallback.84"* %4 to i8*
  call void @llvm.lifetime.start.p0i8(i64 8, i8* nonnull %104) #10
  %105 = getelementptr inbounds %"class.base::OnceCallback.84", %"class.base::OnceCallback.84"* %103, i64 0, i32 0, i32 0, i32 0
  %106 = bitcast %"class.base::OnceCallback.84"* %103 to i64*
  %107 = load i64, i64* %106, align 8
  %108 = bitcast %"class.base::OnceCallback.84"* %4 to i64*
  store i64 %107, i64* %108, align 8
  store %"class.base::internal::BindStateBase"* null, %"class.base::internal::BindStateBase"** %105, align 8
  %109 = getelementptr inbounds %"class.base::OnceCallback.84", %"class.base::OnceCallback.84"* %4, i64 0, i32 0
  %110 = inttoptr i64 %107 to %"class.base::internal::BindStateBase"*
  %111 = getelementptr inbounds %"class.base::internal::BindStateBase", %"class.base::internal::BindStateBase"* %110, i64 0, i32 1
  %112 = bitcast void ()** %111 to void (%"class.base::internal::BindStateBase"*, i32)**
  %113 = load void (%"class.base::internal::BindStateBase"*, i32)*, void (%"class.base::internal::BindStateBase"*, i32)** %112, align 8
  call void %113(%"class.base::internal::BindStateBase"* %110, i32 5) #10
  call void @_ZN4base8internal12CallbackBaseD2Ev(%"class.base::internal::CallbackBase"* nonnull %109) #10
  call void @llvm.lifetime.end.p0i8(i64 8, i8* nonnull %104) #10
  br label %157

114:                                              ; preds = %98
  %115 = bitcast %"class.device::FidoAuthenticator"* %1 to i1 (%"class.device::FidoAuthenticator"*)***
  %116 = load i1 (%"class.device::FidoAuthenticator"*)**, i1 (%"class.device::FidoAuthenticator"*)*** %115, align 8
  %117 = getelementptr inbounds i1 (%"class.device::FidoAuthenticator"*)*, i1 (%"class.device::FidoAuthenticator"*)** %116, i64 14
  %118 = load i1 (%"class.device::FidoAuthenticator"*)*, i1 (%"class.device::FidoAuthenticator"*)** %117, align 8
  %119 = call zeroext i1 %118(%"class.device::FidoAuthenticator"* %1) #10
  br i1 %119, label %120, label %132

120:                                              ; preds = %114
  store i32 8, i32* %10, align 8
  %121 = getelementptr inbounds %"class.device::CredentialManagementHandler", %"class.device::CredentialManagementHandler"* %0, i64 0, i32 7
  %122 = bitcast %"class.base::OnceCallback.84"* %3 to i8*
  call void @llvm.lifetime.start.p0i8(i64 8, i8* nonnull %122) #10
  %123 = getelementptr inbounds %"class.base::OnceCallback.84", %"class.base::OnceCallback.84"* %121, i64 0, i32 0, i32 0, i32 0
  %124 = bitcast %"class.base::OnceCallback.84"* %121 to i64*
  %125 = load i64, i64* %124, align 8
  %126 = bitcast %"class.base::OnceCallback.84"* %3 to i64*
  store i64 %125, i64* %126, align 8
  store %"class.base::internal::BindStateBase"* null, %"class.base::internal::BindStateBase"** %123, align 8
  %127 = getelementptr inbounds %"class.base::OnceCallback.84", %"class.base::OnceCallback.84"* %3, i64 0, i32 0
  %128 = inttoptr i64 %125 to %"class.base::internal::BindStateBase"*
  %129 = getelementptr inbounds %"class.base::internal::BindStateBase", %"class.base::internal::BindStateBase"* %128, i64 0, i32 1
  %130 = bitcast void ()** %129 to void (%"class.base::internal::BindStateBase"*, i32)**
  %131 = load void (%"class.base::internal::BindStateBase"*, i32)*, void (%"class.base::internal::BindStateBase"*, i32)** %130, align 8
  call void %131(%"class.base::internal::BindStateBase"* %128, i32 6) #10
  call void @_ZN4base8internal12CallbackBaseD2Ev(%"class.base::internal::CallbackBase"* nonnull %127) #10
  call void @llvm.lifetime.end.p0i8(i64 8, i8* nonnull %122) #10
  br label %157

132:                                              ; preds = %114
  %133 = getelementptr inbounds %"class.device::CredentialManagementHandler", %"class.device::CredentialManagementHandler"* %0, i64 0, i32 2
  store %"class.device::FidoAuthenticator"* %1, %"class.device::FidoAuthenticator"** %133, align 8
  %134 = bitcast %"class.base::WeakPtr"* %9 to i8*
  call void @llvm.lifetime.start.p0i8(i64 16, i8* nonnull %134) #10
  %135 = bitcast %"class.base::internal::WeakReference"* %6 to i8*
  call void @llvm.lifetime.start.p0i8(i64 8, i8* nonnull %135) #10, !noalias !12
  %136 = getelementptr inbounds %"class.device::CredentialManagementHandler", %"class.device::CredentialManagementHandler"* %0, i64 0, i32 8, i32 0, i32 0
  call void @_ZNK4base8internal18WeakReferenceOwner6GetRefEv(%"class.base::internal::WeakReference"* nonnull sret %6, %"class.base::internal::WeakReferenceOwner"* %136) #10, !noalias !12
  %137 = getelementptr inbounds %"class.device::CredentialManagementHandler", %"class.device::CredentialManagementHandler"* %0, i64 0, i32 8, i32 0, i32 1
  %138 = load i64, i64* %137, align 8, !noalias !12
  %139 = getelementptr inbounds %"class.base::WeakPtr", %"class.base::WeakPtr"* %9, i64 0, i32 0
  call void @_ZN4base8internal11WeakPtrBaseC2ERKNS0_13WeakReferenceEm(%"class.base::internal::WeakPtrBase"* nonnull %139, %"class.base::internal::WeakReference"* nonnull dereferenceable(8) %6, i64 %138) #10
  call void @_ZN4base8internal13WeakReferenceD1Ev(%"class.base::internal::WeakReference"* nonnull %6) #10
  call void @llvm.lifetime.end.p0i8(i64 8, i8* nonnull %135) #10, !noalias !12
  %140 = call i8* @_Znwm(i64 64) #11, !noalias !15
  %141 = bitcast i8* %140 to %"class.base::internal::BindStateBase"*
  call void @_ZN4base8internal13BindStateBaseC2EPFvvEPFvPKS1_EPFbS5_NS1_21CancellationQueryModeEE(%"class.base::internal::BindStateBase"* nonnull %141, void ()* bitcast (void (%"class.base::internal::BindStateBase"*, i8, %"class.absl::optional.93"*)* @_ZN4base8internal7InvokerINS0_9BindStateIMN6device27CredentialManagementHandlerEFvNS3_22CtapDeviceResponseCodeEN4absl8optionalINS3_3pin15RetriesResponseEEEEJNS_7WeakPtrIS4_EEEEEFvS5_SA_EE7RunOnceEPNS0_13BindStateBaseES5_OSA_ to void ()*), void (%"class.base::internal::BindStateBase"*)* nonnull @_ZN4base8internal9BindStateIMN6device27CredentialManagementHandlerEFvNS2_22CtapDeviceResponseCodeEN4absl8optionalINS2_3pin15RetriesResponseEEEEJNS_7WeakPtrIS3_EEEE7DestroyEPKNS0_13BindStateBaseE, i1 (%"class.base::internal::BindStateBase"*, i32)* nonnull @_ZN4base8internal23QueryCancellationTraitsINS0_9BindStateIMN6device27CredentialManagementHandlerEFvNS3_22CtapDeviceResponseCodeEN4absl8optionalINS3_3pin15RetriesResponseEEEEJNS_7WeakPtrIS4_EEEEEEEbPKNS0_13BindStateBaseENSG_21CancellationQueryModeE) #10, !noalias !15
  %142 = getelementptr inbounds i8, i8* %140, i64 32
  %143 = bitcast i8* %142 to <2 x i64>*
  store <2 x i64> <i64 ptrtoint (void (%"class.device::CredentialManagementHandler"*, i8, i64)* @_ZN6device27CredentialManagementHandler17OnRetriesResponseENS_22CtapDeviceResponseCodeEN4absl8optionalINS_3pin15RetriesResponseEEE to i64), i64 0>, <2 x i64>* %143, align 8, !noalias !15
  %144 = getelementptr inbounds i8, i8* %140, i64 48
  %145 = bitcast i8* %144 to %"class.base::internal::WeakReference"*
  %146 = getelementptr inbounds %"class.base::WeakPtr", %"class.base::WeakPtr"* %9, i64 0, i32 0, i32 0
  call void @_ZN4base8internal13WeakReferenceC1EOS1_(%"class.base::internal::WeakReference"* %145, %"class.base::internal::WeakReference"* nonnull dereferenceable(8) %146) #10, !noalias !15
  %147 = getelementptr inbounds i8, i8* %140, i64 56
  %148 = bitcast i8* %147 to i64*
  %149 = getelementptr inbounds %"class.base::WeakPtr", %"class.base::WeakPtr"* %9, i64 0, i32 0, i32 1
  %150 = load i64, i64* %149, align 8, !noalias !15
  store i64 %150, i64* %148, align 8, !noalias !15
  %151 = bitcast %"class.base::OnceCallback.92"* %8 to i8**
  store i8* %140, i8** %151, align 8, !alias.scope !15
  %152 = bitcast %"class.device::FidoAuthenticator"* %1 to void (%"class.device::FidoAuthenticator"*, %"class.base::OnceCallback.92"*)***
  %153 = load void (%"class.device::FidoAuthenticator"*, %"class.base::OnceCallback.92"*)**, void (%"class.device::FidoAuthenticator"*, %"class.base::OnceCallback.92"*)*** %152, align 8
  %154 = getelementptr inbounds void (%"class.device::FidoAuthenticator"*, %"class.base::OnceCallback.92"*)*, void (%"class.device::FidoAuthenticator"*, %"class.base::OnceCallback.92"*)** %153, i64 7
  %155 = load void (%"class.device::FidoAuthenticator"*, %"class.base::OnceCallback.92"*)*, void (%"class.device::FidoAuthenticator"*, %"class.base::OnceCallback.92"*)** %154, align 8
  call void %155(%"class.device::FidoAuthenticator"* %1, %"class.base::OnceCallback.92"* nonnull %8) #10
  %156 = getelementptr inbounds %"class.base::OnceCallback.92", %"class.base::OnceCallback.92"* %8, i64 0, i32 0
  call void @_ZN4base8internal12CallbackBaseD2Ev(%"class.base::internal::CallbackBase"* nonnull %156) #10
  call void @_ZN4base8internal11WeakPtrBaseD2Ev(%"class.base::internal::WeakPtrBase"* nonnull %139) #10
  call void @llvm.lifetime.end.p0i8(i64 16, i8* nonnull %134) #10
  br label %157

157:                                              ; preds = %2, %132, %120, %102, %77
  ret void
}

; Function Attrs: nounwind
declare void @_ZN4base8internal11WeakPtrBaseD2Ev(%"class.base::internal::WeakPtrBase"*) unnamed_addr #2

; Function Attrs: argmemonly nounwind
declare void @llvm.lifetime.end.p0i8(i64 immarg, i8* nocapture) #4

declare void @_ZN6device22FidoRequestHandlerBase26CancelActiveAuthenticatorsEN4base16BasicStringPieceIcNSt3__111char_traitsIcEEEE(%"class.device::FidoRequestHandlerBase"*, i8*, i64) local_unnamed_addr #1

; Function Attrs: nounwind ssp uwtable
define hidden void @_ZN6device27CredentialManagementHandler17OnRetriesResponseENS_22CtapDeviceResponseCodeEN4absl8optionalINS_3pin15RetriesResponseEEE(%"class.device::CredentialManagementHandler"*, i8 zeroext, i64) #0 align 2 {
  %4 = alloca %"class.base::internal::WeakReference", align 8
  %5 = alloca %"class.base::OnceCallback.84", align 8
  %6 = alloca %"class.base::OnceCallback.84", align 8
  %7 = alloca %"class.base::OnceCallback.98", align 8
  %8 = alloca %"class.base::WeakPtr", align 8
  %9 = icmp eq i8 %1, 0
  br i1 %9, label %23, label %10

10:                                               ; preds = %3
  %11 = getelementptr inbounds %"class.device::CredentialManagementHandler", %"class.device::CredentialManagementHandler"* %0, i64 0, i32 1
  store i32 8, i32* %11, align 8
  %12 = getelementptr inbounds %"class.device::CredentialManagementHandler", %"class.device::CredentialManagementHandler"* %0, i64 0, i32 7
  %13 = bitcast %"class.base::OnceCallback.84"* %6 to i8*
  call void @llvm.lifetime.start.p0i8(i64 8, i8* nonnull %13) #10
  %14 = getelementptr inbounds %"class.base::OnceCallback.84", %"class.base::OnceCallback.84"* %12, i64 0, i32 0, i32 0, i32 0
  %15 = bitcast %"class.base::OnceCallback.84"* %12 to i64*
  %16 = load i64, i64* %15, align 8
  %17 = bitcast %"class.base::OnceCallback.84"* %6 to i64*
  store i64 %16, i64* %17, align 8
  store %"class.base::internal::BindStateBase"* null, %"class.base::internal::BindStateBase"** %14, align 8
  %18 = getelementptr inbounds %"class.base::OnceCallback.84", %"class.base::OnceCallback.84"* %6, i64 0, i32 0
  %19 = inttoptr i64 %16 to %"class.base::internal::BindStateBase"*
  %20 = getelementptr inbounds %"class.base::internal::BindStateBase", %"class.base::internal::BindStateBase"* %19, i64 0, i32 1
  %21 = bitcast void ()** %20 to void (%"class.base::internal::BindStateBase"*, i32)**
  %22 = load void (%"class.base::internal::BindStateBase"*, i32)*, void (%"class.base::internal::BindStateBase"*, i32)** %21, align 8
  tail call void %22(%"class.base::internal::BindStateBase"* %19, i32 1) #10
  call void @_ZN4base8internal12CallbackBaseD2Ev(%"class.base::internal::CallbackBase"* nonnull %18) #10
  call void @llvm.lifetime.end.p0i8(i64 8, i8* nonnull %13) #10
  br label %75

23:                                               ; preds = %3
  %24 = trunc i64 %2 to i8
  %25 = icmp eq i8 %24, 0
  br i1 %25, label %26, label %27, !prof !11

26:                                               ; preds = %23
  tail call void @llvm.trap() #10
  unreachable

27:                                               ; preds = %23
  %28 = icmp ult i64 %2, 4294967296
  %29 = getelementptr inbounds %"class.device::CredentialManagementHandler", %"class.device::CredentialManagementHandler"* %0, i64 0, i32 1
  br i1 %28, label %30, label %42

30:                                               ; preds = %27
  store i32 8, i32* %29, align 8
  %31 = getelementptr inbounds %"class.device::CredentialManagementHandler", %"class.device::CredentialManagementHandler"* %0, i64 0, i32 7
  %32 = bitcast %"class.base::OnceCallback.84"* %5 to i8*
  call void @llvm.lifetime.start.p0i8(i64 8, i8* nonnull %32) #10
  %33 = getelementptr inbounds %"class.base::OnceCallback.84", %"class.base::OnceCallback.84"* %31, i64 0, i32 0, i32 0, i32 0
  %34 = bitcast %"class.base::OnceCallback.84"* %31 to i64*
  %35 = load i64, i64* %34, align 8
  %36 = bitcast %"class.base::OnceCallback.84"* %5 to i64*
  store i64 %35, i64* %36, align 8
  store %"class.base::internal::BindStateBase"* null, %"class.base::internal::BindStateBase"** %33, align 8
  %37 = getelementptr inbounds %"class.base::OnceCallback.84", %"class.base::OnceCallback.84"* %5, i64 0, i32 0
  %38 = inttoptr i64 %35 to %"class.base::internal::BindStateBase"*
  %39 = getelementptr inbounds %"class.base::internal::BindStateBase", %"class.base::internal::BindStateBase"* %38, i64 0, i32 1
  %40 = bitcast void ()** %39 to void (%"class.base::internal::BindStateBase"*, i32)**
  %41 = load void (%"class.base::internal::BindStateBase"*, i32)*, void (%"class.base::internal::BindStateBase"*, i32)** %40, align 8
  tail call void %41(%"class.base::internal::BindStateBase"* %38, i32 3) #10
  call void @_ZN4base8internal12CallbackBaseD2Ev(%"class.base::internal::CallbackBase"* nonnull %37) #10
  call void @llvm.lifetime.end.p0i8(i64 8, i8* nonnull %32) #10
  br label %75

42:                                               ; preds = %27
  store i32 2, i32* %29, align 8
  %43 = getelementptr inbounds %"class.device::CredentialManagementHandler", %"class.device::CredentialManagementHandler"* %0, i64 0, i32 2
  %44 = load %"class.device::FidoAuthenticator"*, %"class.device::FidoAuthenticator"** %43, align 8
  %45 = bitcast %"class.device::FidoAuthenticator"* %44 to i32 (%"class.device::FidoAuthenticator"*)***
  %46 = load i32 (%"class.device::FidoAuthenticator"*)**, i32 (%"class.device::FidoAuthenticator"*)*** %45, align 8
  %47 = getelementptr inbounds i32 (%"class.device::FidoAuthenticator"*)*, i32 (%"class.device::FidoAuthenticator"*)** %46, i64 12
  %48 = load i32 (%"class.device::FidoAuthenticator"*)*, i32 (%"class.device::FidoAuthenticator"*)** %47, align 8
  %49 = tail call i32 %48(%"class.device::FidoAuthenticator"* %44) #10
  %50 = ashr i64 %2, 32
  %51 = bitcast %"class.base::WeakPtr"* %8 to i8*
  call void @llvm.lifetime.start.p0i8(i64 16, i8* nonnull %51) #10
  %52 = bitcast %"class.base::internal::WeakReference"* %4 to i8*
  call void @llvm.lifetime.start.p0i8(i64 8, i8* nonnull %52) #10, !noalias !20
  %53 = getelementptr inbounds %"class.device::CredentialManagementHandler", %"class.device::CredentialManagementHandler"* %0, i64 0, i32 8, i32 0, i32 0
  call void @_ZNK4base8internal18WeakReferenceOwner6GetRefEv(%"class.base::internal::WeakReference"* nonnull sret %4, %"class.base::internal::WeakReferenceOwner"* %53) #10, !noalias !20
  %54 = getelementptr inbounds %"class.device::CredentialManagementHandler", %"class.device::CredentialManagementHandler"* %0, i64 0, i32 8, i32 0, i32 1
  %55 = load i64, i64* %54, align 8, !noalias !20
  %56 = getelementptr inbounds %"class.base::WeakPtr", %"class.base::WeakPtr"* %8, i64 0, i32 0
  call void @_ZN4base8internal11WeakPtrBaseC2ERKNS0_13WeakReferenceEm(%"class.base::internal::WeakPtrBase"* nonnull %56, %"class.base::internal::WeakReference"* nonnull dereferenceable(8) %4, i64 %55) #10
  call void @_ZN4base8internal13WeakReferenceD1Ev(%"class.base::internal::WeakReference"* nonnull %4) #10
  call void @llvm.lifetime.end.p0i8(i64 8, i8* nonnull %52) #10, !noalias !20
  %57 = call i8* @_Znwm(i64 64) #11, !noalias !23
  %58 = bitcast i8* %57 to %"class.base::internal::BindStateBase"*
  call void @_ZN4base8internal13BindStateBaseC2EPFvvEPFvPKS1_EPFbS5_NS1_21CancellationQueryModeEE(%"class.base::internal::BindStateBase"* nonnull %58, void ()* bitcast (void (%"class.base::internal::BindStateBase"*, %"class.std::__1::basic_string"*)* @_ZN4base8internal7InvokerINS0_9BindStateIMN6device27CredentialManagementHandlerEFvNSt3__112basic_stringIcNS5_11char_traitsIcEENS5_9allocatorIcEEEEEJNS_7WeakPtrIS4_EEEEEFvSB_EE7RunOnceEPNS0_13BindStateBaseEOSB_ to void ()*), void (%"class.base::internal::BindStateBase"*)* nonnull @_ZN4base8internal9BindStateIMN6device27CredentialManagementHandlerEFvNSt3__112basic_stringIcNS4_11char_traitsIcEENS4_9allocatorIcEEEEEJNS_7WeakPtrIS3_EEEE7DestroyEPKNS0_13BindStateBaseE, i1 (%"class.base::internal::BindStateBase"*, i32)* nonnull @_ZN4base8internal23QueryCancellationTraitsINS0_9BindStateIMN6device27CredentialManagementHandlerEFvNSt3__112basic_stringIcNS5_11char_traitsIcEENS5_9allocatorIcEEEEEJNS_7WeakPtrIS4_EEEEEEEbPKNS0_13BindStateBaseENSH_21CancellationQueryModeE) #10, !noalias !23
  %59 = getelementptr inbounds i8, i8* %57, i64 32
  %60 = bitcast i8* %59 to <2 x i64>*
  store <2 x i64> <i64 ptrtoint (void (%"class.device::CredentialManagementHandler"*, %"class.std::__1::basic_string"*)* @_ZN6device27CredentialManagementHandler9OnHavePINENSt3__112basic_stringIcNS1_11char_traitsIcEENS1_9allocatorIcEEEE to i64), i64 0>, <2 x i64>* %60, align 8, !noalias !23
  %61 = getelementptr inbounds i8, i8* %57, i64 48
  %62 = bitcast i8* %61 to %"class.base::internal::WeakReference"*
  %63 = getelementptr inbounds %"class.base::WeakPtr", %"class.base::WeakPtr"* %8, i64 0, i32 0, i32 0
  call void @_ZN4base8internal13WeakReferenceC1EOS1_(%"class.base::internal::WeakReference"* %62, %"class.base::internal::WeakReference"* nonnull dereferenceable(8) %63) #10, !noalias !23
  %64 = getelementptr inbounds i8, i8* %57, i64 56
  %65 = bitcast i8* %64 to i64*
  %66 = getelementptr inbounds %"class.base::WeakPtr", %"class.base::WeakPtr"* %8, i64 0, i32 0, i32 1
  %67 = load i64, i64* %66, align 8, !noalias !23
  store i64 %67, i64* %65, align 8, !noalias !23
  %68 = bitcast %"class.base::OnceCallback.98"* %7 to i8**
  store i8* %57, i8** %68, align 8, !alias.scope !23
  %69 = getelementptr inbounds %"class.device::CredentialManagementHandler", %"class.device::CredentialManagementHandler"* %0, i64 0, i32 5, i32 0, i32 0, i32 0, i32 0
  %70 = load %"class.base::internal::BindStateBase"*, %"class.base::internal::BindStateBase"** %69, align 8
  %71 = getelementptr inbounds %"class.base::internal::BindStateBase", %"class.base::internal::BindStateBase"* %70, i64 0, i32 1
  %72 = bitcast void ()** %71 to void (%"class.base::internal::BindStateBase"*, i32, i64, %"class.base::OnceCallback.98"*)**
  %73 = load void (%"class.base::internal::BindStateBase"*, i32, i64, %"class.base::OnceCallback.98"*)*, void (%"class.base::internal::BindStateBase"*, i32, i64, %"class.base::OnceCallback.98"*)** %72, align 8
  call void %73(%"class.base::internal::BindStateBase"* %70, i32 %49, i64 %50, %"class.base::OnceCallback.98"* nonnull dereferenceable(8) %7) #10
  %74 = getelementptr inbounds %"class.base::OnceCallback.98", %"class.base::OnceCallback.98"* %7, i64 0, i32 0
  call void @_ZN4base8internal12CallbackBaseD2Ev(%"class.base::internal::CallbackBase"* nonnull %74) #10
  call void @_ZN4base8internal11WeakPtrBaseD2Ev(%"class.base::internal::WeakPtrBase"* nonnull %56) #10
  call void @llvm.lifetime.end.p0i8(i64 16, i8* nonnull %51) #10
  br label %75

75:                                               ; preds = %42, %30, %10
  ret void
}

; Function Attrs: nounwind ssp uwtable
define hidden void @_ZN6device27CredentialManagementHandler9OnHavePINENSt3__112basic_stringIcNS1_11char_traitsIcEENS1_9allocatorIcEEEE(%"class.device::CredentialManagementHandler"*, %"class.std::__1::basic_string"* nocapture) #0 align 2 {
  %3 = alloca %"class.base::internal::WeakReference", align 8
  %4 = alloca %"class.std::__1::basic_string", align 8
  %5 = alloca %"class.std::__1::vector.99", align 8
  %6 = alloca %"class.absl::optional.39", align 8
  %7 = alloca %"class.base::OnceCallback.106", align 8
  %8 = alloca %"class.base::WeakPtr", align 8
  %9 = getelementptr inbounds %"class.device::CredentialManagementHandler", %"class.device::CredentialManagementHandler"* %0, i64 0, i32 2
  %10 = load %"class.device::FidoAuthenticator"*, %"class.device::FidoAuthenticator"** %9, align 8
  %11 = icmp eq %"class.device::FidoAuthenticator"* %10, null
  br i1 %11, label %74, label %12

12:                                               ; preds = %2
  %13 = getelementptr inbounds %"class.device::CredentialManagementHandler", %"class.device::CredentialManagementHandler"* %0, i64 0, i32 1
  store i32 3, i32* %13, align 8
  %14 = bitcast %"class.std::__1::basic_string"* %4 to i8*
  %15 = bitcast %"class.std::__1::basic_string"* %1 to i8*
  call void @llvm.memcpy.p0i8.p0i8.i64(i8* nonnull align 8 %14, i8* align 8 %15, i64 24, i1 false) #10
  tail call void @llvm.memset.p0i8.i64(i8* align 8 %15, i8 0, i64 24, i1 false) #10
  %16 = tail call i8* @_Znwm(i64 1) #11
  %17 = getelementptr inbounds %"class.std::__1::vector.99", %"class.std::__1::vector.99"* %5, i64 0, i32 0, i32 1
  %18 = getelementptr inbounds %"class.std::__1::vector.99", %"class.std::__1::vector.99"* %5, i64 0, i32 0, i32 0
  store i8* %16, i8** %18, align 8
  %19 = getelementptr inbounds i8, i8* %16, i64 1
  %20 = getelementptr inbounds %"class.std::__1::vector.99", %"class.std::__1::vector.99"* %5, i64 0, i32 0, i32 2, i32 0, i32 0
  store i8* %19, i8** %20, align 8
  %21 = bitcast i8** %17 to i64*
  store i8 4, i8* %16, align 1
  %22 = ptrtoint i8* %19 to i64
  store i64 %22, i64* %21, align 8
  %23 = getelementptr inbounds %"class.absl::optional.39", %"class.absl::optional.39"* %6, i64 0, i32 0, i32 0, i32 0, i32 0
  store i8 0, i8* %23, align 8
  %24 = getelementptr inbounds %"class.absl::optional.39", %"class.absl::optional.39"* %6, i64 0, i32 0, i32 0, i32 0, i32 1
  %25 = bitcast %union.anon.43* %24 to i8*
  call void @llvm.memset.p0i8.i64(i8* align 8 %25, i8 0, i64 24, i1 false) #10
  %26 = bitcast %"class.base::WeakPtr"* %8 to i8*
  call void @llvm.lifetime.start.p0i8(i64 16, i8* nonnull %26) #10
  %27 = bitcast %"class.base::internal::WeakReference"* %3 to i8*
  call void @llvm.lifetime.start.p0i8(i64 8, i8* nonnull %27) #10, !noalias !28
  %28 = getelementptr inbounds %"class.device::CredentialManagementHandler", %"class.device::CredentialManagementHandler"* %0, i64 0, i32 8, i32 0, i32 0
  call void @_ZNK4base8internal18WeakReferenceOwner6GetRefEv(%"class.base::internal::WeakReference"* nonnull sret %3, %"class.base::internal::WeakReferenceOwner"* %28) #10, !noalias !28
  %29 = getelementptr inbounds %"class.device::CredentialManagementHandler", %"class.device::CredentialManagementHandler"* %0, i64 0, i32 8, i32 0, i32 1
  %30 = load i64, i64* %29, align 8, !noalias !28
  %31 = getelementptr inbounds %"class.base::WeakPtr", %"class.base::WeakPtr"* %8, i64 0, i32 0
  call void @_ZN4base8internal11WeakPtrBaseC2ERKNS0_13WeakReferenceEm(%"class.base::internal::WeakPtrBase"* nonnull %31, %"class.base::internal::WeakReference"* nonnull dereferenceable(8) %3, i64 %30) #10
  call void @_ZN4base8internal13WeakReferenceD1Ev(%"class.base::internal::WeakReference"* nonnull %3) #10
  call void @llvm.lifetime.end.p0i8(i64 8, i8* nonnull %27) #10, !noalias !28
  %32 = call i8* @_Znwm(i64 64) #11, !noalias !31
  %33 = bitcast i8* %32 to %"class.base::internal::BindStateBase"*
  call void @_ZN4base8internal13BindStateBaseC2EPFvvEPFvPKS1_EPFbS5_NS1_21CancellationQueryModeEE(%"class.base::internal::BindStateBase"* nonnull %33, void ()* bitcast (void (%"class.base::internal::BindStateBase"*, i8, %"class.absl::optional.76"*)* @_ZN4base8internal7InvokerINS0_9BindStateIMN6device27CredentialManagementHandlerEFvNS3_22CtapDeviceResponseCodeEN4absl8optionalINS3_3pin13TokenResponseEEEEJNS_7WeakPtrIS4_EEEEEFvS5_SA_EE7RunOnceEPNS0_13BindStateBaseES5_OSA_ to void ()*), void (%"class.base::internal::BindStateBase"*)* nonnull @_ZN4base8internal9BindStateIMN6device27CredentialManagementHandlerEFvNS2_22CtapDeviceResponseCodeEN4absl8optionalINS2_3pin13TokenResponseEEEEJNS_7WeakPtrIS3_EEEE7DestroyEPKNS0_13BindStateBaseE, i1 (%"class.base::internal::BindStateBase"*, i32)* nonnull @_ZN4base8internal23QueryCancellationTraitsINS0_9BindStateIMN6device27CredentialManagementHandlerEFvNS3_22CtapDeviceResponseCodeEN4absl8optionalINS3_3pin13TokenResponseEEEEJNS_7WeakPtrIS4_EEEEEEEbPKNS0_13BindStateBaseENSG_21CancellationQueryModeE) #10, !noalias !31
  %34 = getelementptr inbounds i8, i8* %32, i64 32
  %35 = bitcast i8* %34 to <2 x i64>*
  store <2 x i64> <i64 ptrtoint (void (%"class.device::CredentialManagementHandler"*, i8, %"class.absl::optional.76"*)* @_ZN6device27CredentialManagementHandler14OnHavePINTokenENS_22CtapDeviceResponseCodeEN4absl8optionalINS_3pin13TokenResponseEEE to i64), i64 0>, <2 x i64>* %35, align 8, !noalias !31
  %36 = getelementptr inbounds i8, i8* %32, i64 48
  %37 = bitcast i8* %36 to %"class.base::internal::WeakReference"*
  %38 = getelementptr inbounds %"class.base::WeakPtr", %"class.base::WeakPtr"* %8, i64 0, i32 0, i32 0
  call void @_ZN4base8internal13WeakReferenceC1EOS1_(%"class.base::internal::WeakReference"* %37, %"class.base::internal::WeakReference"* nonnull dereferenceable(8) %38) #10, !noalias !31
  %39 = getelementptr inbounds i8, i8* %32, i64 56
  %40 = bitcast i8* %39 to i64*
  %41 = getelementptr inbounds %"class.base::WeakPtr", %"class.base::WeakPtr"* %8, i64 0, i32 0, i32 1
  %42 = load i64, i64* %41, align 8, !noalias !31
  store i64 %42, i64* %40, align 8, !noalias !31
  %43 = bitcast %"class.base::OnceCallback.106"* %7 to i8**
  store i8* %32, i8** %43, align 8, !alias.scope !31
  %44 = bitcast %"class.device::FidoAuthenticator"* %10 to void (%"class.device::FidoAuthenticator"*, %"class.std::__1::basic_string"*, %"class.std::__1::vector.99"*, %"class.absl::optional.39"*, %"class.base::OnceCallback.106"*)***
  %45 = load void (%"class.device::FidoAuthenticator"*, %"class.std::__1::basic_string"*, %"class.std::__1::vector.99"*, %"class.absl::optional.39"*, %"class.base::OnceCallback.106"*)**, void (%"class.device::FidoAuthenticator"*, %"class.std::__1::basic_string"*, %"class.std::__1::vector.99"*, %"class.absl::optional.39"*, %"class.base::OnceCallback.106"*)*** %44, align 8
  %46 = getelementptr inbounds void (%"class.device::FidoAuthenticator"*, %"class.std::__1::basic_string"*, %"class.std::__1::vector.99"*, %"class.absl::optional.39"*, %"class.base::OnceCallback.106"*)*, void (%"class.device::FidoAuthenticator"*, %"class.std::__1::basic_string"*, %"class.std::__1::vector.99"*, %"class.absl::optional.39"*, %"class.base::OnceCallback.106"*)** %45, i64 9
  %47 = load void (%"class.device::FidoAuthenticator"*, %"class.std::__1::basic_string"*, %"class.std::__1::vector.99"*, %"class.absl::optional.39"*, %"class.base::OnceCallback.106"*)*, void (%"class.device::FidoAuthenticator"*, %"class.std::__1::basic_string"*, %"class.std::__1::vector.99"*, %"class.absl::optional.39"*, %"class.base::OnceCallback.106"*)** %46, align 8
  call void %47(%"class.device::FidoAuthenticator"* nonnull %10, %"class.std::__1::basic_string"* nonnull %4, %"class.std::__1::vector.99"* nonnull %5, %"class.absl::optional.39"* nonnull %6, %"class.base::OnceCallback.106"* nonnull %7) #10
  %48 = getelementptr inbounds %"class.base::OnceCallback.106", %"class.base::OnceCallback.106"* %7, i64 0, i32 0
  call void @_ZN4base8internal12CallbackBaseD2Ev(%"class.base::internal::CallbackBase"* nonnull %48) #10
  call void @_ZN4base8internal11WeakPtrBaseD2Ev(%"class.base::internal::WeakPtrBase"* nonnull %31) #10
  call void @llvm.lifetime.end.p0i8(i64 16, i8* nonnull %26) #10
  %49 = load i8, i8* %23, align 8, !range !2
  %50 = icmp eq i8 %49, 0
  br i1 %50, label %61, label %51

51:                                               ; preds = %12
  %52 = getelementptr inbounds %"class.absl::optional.39", %"class.absl::optional.39"* %6, i64 0, i32 0, i32 0, i32 0, i32 1, i32 0
  %53 = bitcast %"class.std::__1::basic_string"* %52 to %"struct.std::__1::basic_string<char, std::__1::char_traits<char>, std::__1::allocator<char> >::__short"*
  %54 = getelementptr inbounds %"struct.std::__1::basic_string<char, std::__1::char_traits<char>, std::__1::allocator<char> >::__short", %"struct.std::__1::basic_string<char, std::__1::char_traits<char>, std::__1::allocator<char> >::__short"* %53, i64 0, i32 1, i32 0
  %55 = load i8, i8* %54, align 1
  %56 = icmp slt i8 %55, 0
  br i1 %56, label %57, label %60

57:                                               ; preds = %51
  %58 = getelementptr inbounds %"class.std::__1::basic_string", %"class.std::__1::basic_string"* %52, i64 0, i32 0, i32 0, i32 0, i32 0, i32 0, i32 0
  %59 = load i8*, i8** %58, align 8
  call void @_ZdlPv(i8* %59) #11
  br label %60

60:                                               ; preds = %57, %51
  store i8 0, i8* %23, align 8
  br label %61

61:                                               ; preds = %12, %60
  %62 = load i8*, i8** %18, align 8
  %63 = icmp eq i8* %62, null
  br i1 %63, label %66, label %64

64:                                               ; preds = %61
  %65 = ptrtoint i8* %62 to i64
  store i64 %65, i64* %21, align 8
  call void @_ZdlPv(i8* nonnull %62) #11
  br label %66

66:                                               ; preds = %61, %64
  %67 = bitcast %"class.std::__1::basic_string"* %4 to %"struct.std::__1::basic_string<char, std::__1::char_traits<char>, std::__1::allocator<char> >::__short"*
  %68 = getelementptr inbounds %"struct.std::__1::basic_string<char, std::__1::char_traits<char>, std::__1::allocator<char> >::__short", %"struct.std::__1::basic_string<char, std::__1::char_traits<char>, std::__1::allocator<char> >::__short"* %67, i64 0, i32 1, i32 0
  %69 = load i8, i8* %68, align 1
  %70 = icmp slt i8 %69, 0
  br i1 %70, label %71, label %74

71:                                               ; preds = %66
  %72 = getelementptr inbounds %"class.std::__1::basic_string", %"class.std::__1::basic_string"* %4, i64 0, i32 0, i32 0, i32 0, i32 0, i32 0, i32 0
  %73 = load i8*, i8** %72, align 8
  call void @_ZdlPv(i8* %73) #11
  br label %74

74:                                               ; preds = %71, %66, %2
  ret void
}

; Function Attrs: nounwind ssp uwtable
define hidden void @_ZN6device27CredentialManagementHandler14OnHavePINTokenENS_22CtapDeviceResponseCodeEN4absl8optionalINS_3pin13TokenResponseEEE(%"class.device::CredentialManagementHandler"*, i8 zeroext, %"class.absl::optional.76"*) #0 align 2 {
  %4 = alloca %"class.base::OnceCallback", align 8
  %5 = alloca %"class.base::OnceCallback.84", align 8
  %6 = alloca %"class.base::internal::WeakReference", align 8
  %7 = alloca %"class.base::OnceCallback.92", align 8
  %8 = alloca %"class.base::WeakPtr", align 8
  switch i8 %1, label %37 [
    i8 49, label %9
    i8 0, label %52
    i8 52, label %38
    i8 50, label %36
  ]

9:                                                ; preds = %3
  %10 = getelementptr inbounds %"class.device::CredentialManagementHandler", %"class.device::CredentialManagementHandler"* %0, i64 0, i32 1
  store i32 1, i32* %10, align 8
  %11 = getelementptr inbounds %"class.device::CredentialManagementHandler", %"class.device::CredentialManagementHandler"* %0, i64 0, i32 2
  %12 = load %"class.device::FidoAuthenticator"*, %"class.device::FidoAuthenticator"** %11, align 8
  %13 = bitcast %"class.base::WeakPtr"* %8 to i8*
  call void @llvm.lifetime.start.p0i8(i64 16, i8* nonnull %13) #10
  %14 = bitcast %"class.base::internal::WeakReference"* %6 to i8*
  call void @llvm.lifetime.start.p0i8(i64 8, i8* nonnull %14) #10, !noalias !36
  %15 = getelementptr inbounds %"class.device::CredentialManagementHandler", %"class.device::CredentialManagementHandler"* %0, i64 0, i32 8, i32 0, i32 0
  call void @_ZNK4base8internal18WeakReferenceOwner6GetRefEv(%"class.base::internal::WeakReference"* nonnull sret %6, %"class.base::internal::WeakReferenceOwner"* %15) #10, !noalias !36
  %16 = getelementptr inbounds %"class.device::CredentialManagementHandler", %"class.device::CredentialManagementHandler"* %0, i64 0, i32 8, i32 0, i32 1
  %17 = load i64, i64* %16, align 8, !noalias !36
  %18 = getelementptr inbounds %"class.base::WeakPtr", %"class.base::WeakPtr"* %8, i64 0, i32 0
  call void @_ZN4base8internal11WeakPtrBaseC2ERKNS0_13WeakReferenceEm(%"class.base::internal::WeakPtrBase"* nonnull %18, %"class.base::internal::WeakReference"* nonnull dereferenceable(8) %6, i64 %17) #10
  call void @_ZN4base8internal13WeakReferenceD1Ev(%"class.base::internal::WeakReference"* nonnull %6) #10
  call void @llvm.lifetime.end.p0i8(i64 8, i8* nonnull %14) #10, !noalias !36
  %19 = call i8* @_Znwm(i64 64) #11, !noalias !39
  %20 = bitcast i8* %19 to %"class.base::internal::BindStateBase"*
  call void @_ZN4base8internal13BindStateBaseC2EPFvvEPFvPKS1_EPFbS5_NS1_21CancellationQueryModeEE(%"class.base::internal::BindStateBase"* nonnull %20, void ()* bitcast (void (%"class.base::internal::BindStateBase"*, i8, %"class.absl::optional.93"*)* @_ZN4base8internal7InvokerINS0_9BindStateIMN6device27CredentialManagementHandlerEFvNS3_22CtapDeviceResponseCodeEN4absl8optionalINS3_3pin15RetriesResponseEEEEJNS_7WeakPtrIS4_EEEEEFvS5_SA_EE7RunOnceEPNS0_13BindStateBaseES5_OSA_ to void ()*), void (%"class.base::internal::BindStateBase"*)* nonnull @_ZN4base8internal9BindStateIMN6device27CredentialManagementHandlerEFvNS2_22CtapDeviceResponseCodeEN4absl8optionalINS2_3pin15RetriesResponseEEEEJNS_7WeakPtrIS3_EEEE7DestroyEPKNS0_13BindStateBaseE, i1 (%"class.base::internal::BindStateBase"*, i32)* nonnull @_ZN4base8internal23QueryCancellationTraitsINS0_9BindStateIMN6device27CredentialManagementHandlerEFvNS3_22CtapDeviceResponseCodeEN4absl8optionalINS3_3pin15RetriesResponseEEEEJNS_7WeakPtrIS4_EEEEEEEbPKNS0_13BindStateBaseENSG_21CancellationQueryModeE) #10, !noalias !39
  %21 = getelementptr inbounds i8, i8* %19, i64 32
  %22 = bitcast i8* %21 to <2 x i64>*
  store <2 x i64> <i64 ptrtoint (void (%"class.device::CredentialManagementHandler"*, i8, i64)* @_ZN6device27CredentialManagementHandler17OnRetriesResponseENS_22CtapDeviceResponseCodeEN4absl8optionalINS_3pin15RetriesResponseEEE to i64), i64 0>, <2 x i64>* %22, align 8, !noalias !39
  %23 = getelementptr inbounds i8, i8* %19, i64 48
  %24 = bitcast i8* %23 to %"class.base::internal::WeakReference"*
  %25 = getelementptr inbounds %"class.base::WeakPtr", %"class.base::WeakPtr"* %8, i64 0, i32 0, i32 0
  call void @_ZN4base8internal13WeakReferenceC1EOS1_(%"class.base::internal::WeakReference"* %24, %"class.base::internal::WeakReference"* nonnull dereferenceable(8) %25) #10, !noalias !39
  %26 = getelementptr inbounds i8, i8* %19, i64 56
  %27 = bitcast i8* %26 to i64*
  %28 = getelementptr inbounds %"class.base::WeakPtr", %"class.base::WeakPtr"* %8, i64 0, i32 0, i32 1
  %29 = load i64, i64* %28, align 8, !noalias !39
  store i64 %29, i64* %27, align 8, !noalias !39
  %30 = bitcast %"class.base::OnceCallback.92"* %7 to i8**
  store i8* %19, i8** %30, align 8, !alias.scope !39
  %31 = bitcast %"class.device::FidoAuthenticator"* %12 to void (%"class.device::FidoAuthenticator"*, %"class.base::OnceCallback.92"*)***
  %32 = load void (%"class.device::FidoAuthenticator"*, %"class.base::OnceCallback.92"*)**, void (%"class.device::FidoAuthenticator"*, %"class.base::OnceCallback.92"*)*** %31, align 8
  %33 = getelementptr inbounds void (%"class.device::FidoAuthenticator"*, %"class.base::OnceCallback.92"*)*, void (%"class.device::FidoAuthenticator"*, %"class.base::OnceCallback.92"*)** %32, i64 7
  %34 = load void (%"class.device::FidoAuthenticator"*, %"class.base::OnceCallback.92"*)*, void (%"class.device::FidoAuthenticator"*, %"class.base::OnceCallback.92"*)** %33, align 8
  call void %34(%"class.device::FidoAuthenticator"* %12, %"class.base::OnceCallback.92"* nonnull %7) #10
  %35 = getelementptr inbounds %"class.base::OnceCallback.92", %"class.base::OnceCallback.92"* %7, i64 0, i32 0
  call void @_ZN4base8internal12CallbackBaseD2Ev(%"class.base::internal::CallbackBase"* nonnull %35) #10
  call void @_ZN4base8internal11WeakPtrBaseD2Ev(%"class.base::internal::WeakPtrBase"* nonnull %18) #10
  call void @llvm.lifetime.end.p0i8(i64 16, i8* nonnull %13) #10
  br label %87

36:                                               ; preds = %3
  br label %38

37:                                               ; preds = %3
  br label %38

38:                                               ; preds = %3, %37, %36
  %39 = phi i32 [ 1, %37 ], [ 3, %36 ], [ 2, %3 ]
  %40 = getelementptr inbounds %"class.device::CredentialManagementHandler", %"class.device::CredentialManagementHandler"* %0, i64 0, i32 1
  store i32 8, i32* %40, align 8
  %41 = getelementptr inbounds %"class.device::CredentialManagementHandler", %"class.device::CredentialManagementHandler"* %0, i64 0, i32 7
  %42 = bitcast %"class.base::OnceCallback.84"* %5 to i8*
  call void @llvm.lifetime.start.p0i8(i64 8, i8* nonnull %42) #10
  %43 = getelementptr inbounds %"class.base::OnceCallback.84", %"class.base::OnceCallback.84"* %41, i64 0, i32 0, i32 0, i32 0
  %44 = bitcast %"class.base::OnceCallback.84"* %41 to i64*
  %45 = load i64, i64* %44, align 8
  %46 = bitcast %"class.base::OnceCallback.84"* %5 to i64*
  store i64 %45, i64* %46, align 8
  store %"class.base::internal::BindStateBase"* null, %"class.base::internal::BindStateBase"** %43, align 8
  %47 = getelementptr inbounds %"class.base::OnceCallback.84", %"class.base::OnceCallback.84"* %5, i64 0, i32 0
  %48 = inttoptr i64 %45 to %"class.base::internal::BindStateBase"*
  %49 = getelementptr inbounds %"class.base::internal::BindStateBase", %"class.base::internal::BindStateBase"* %48, i64 0, i32 1
  %50 = bitcast void ()** %49 to void (%"class.base::internal::BindStateBase"*, i32)**
  %51 = load void (%"class.base::internal::BindStateBase"*, i32)*, void (%"class.base::internal::BindStateBase"*, i32)** %50, align 8
  tail call void %51(%"class.base::internal::BindStateBase"* %48, i32 %39) #10
  call void @_ZN4base8internal12CallbackBaseD2Ev(%"class.base::internal::CallbackBase"* nonnull %47) #10
  call void @llvm.lifetime.end.p0i8(i64 8, i8* nonnull %42) #10
  br label %87

52:                                               ; preds = %3
  %53 = getelementptr inbounds %"class.device::CredentialManagementHandler", %"class.device::CredentialManagementHandler"* %0, i64 0, i32 1
  store i32 4, i32* %53, align 8
  %54 = getelementptr inbounds %"class.device::CredentialManagementHandler", %"class.device::CredentialManagementHandler"* %0, i64 0, i32 3
  %55 = getelementptr inbounds %"class.absl::optional.76", %"class.absl::optional.76"* %2, i64 0, i32 0, i32 0, i32 0, i32 0
  %56 = load i8, i8* %55, align 8, !range !2
  %57 = icmp eq i8 %56, 0
  br i1 %57, label %69, label %58

58:                                               ; preds = %52
  %59 = getelementptr inbounds %"class.absl::optional.76", %"class.absl::optional.76"* %2, i64 0, i32 0, i32 0, i32 0, i32 1, i32 0
  %60 = getelementptr inbounds %"class.absl::optional.76", %"class.absl::optional.76"* %54, i64 0, i32 0, i32 0, i32 0, i32 0
  %61 = load i8, i8* %60, align 8, !range !2
  %62 = icmp eq i8 %61, 0
  br i1 %62, label %66, label %63

63:                                               ; preds = %58
  %64 = getelementptr inbounds %"class.device::CredentialManagementHandler", %"class.device::CredentialManagementHandler"* %0, i64 0, i32 3, i32 0, i32 0, i32 0, i32 1, i32 0
  %65 = tail call dereferenceable(32) %"class.device::pin::TokenResponse"* @_ZN6device3pin13TokenResponseaSERKS1_(%"class.device::pin::TokenResponse"* %64, %"class.device::pin::TokenResponse"* dereferenceable(32) %59) #10
  br label %75

66:                                               ; preds = %58
  %67 = getelementptr inbounds %"class.device::CredentialManagementHandler", %"class.device::CredentialManagementHandler"* %0, i64 0, i32 3, i32 0, i32 0, i32 0, i32 1, i32 0, i32 0
  %68 = bitcast i8* %67 to %"class.device::pin::TokenResponse"*
  tail call void @_ZN6device3pin13TokenResponseC1ERKS1_(%"class.device::pin::TokenResponse"* %68, %"class.device::pin::TokenResponse"* dereferenceable(32) %59) #10
  store i8 1, i8* %60, align 8
  br label %75

69:                                               ; preds = %52
  %70 = getelementptr inbounds %"class.absl::optional.76", %"class.absl::optional.76"* %54, i64 0, i32 0, i32 0, i32 0, i32 0
  %71 = load i8, i8* %70, align 8, !range !2
  %72 = icmp eq i8 %71, 0
  br i1 %72, label %75, label %73

73:                                               ; preds = %69
  %74 = getelementptr inbounds %"class.device::CredentialManagementHandler", %"class.device::CredentialManagementHandler"* %0, i64 0, i32 3, i32 0, i32 0, i32 0, i32 1, i32 0
  tail call void @_ZN6device3pin13TokenResponseD1Ev(%"class.device::pin::TokenResponse"* %74) #10
  store i8 0, i8* %70, align 8
  br label %75

75:                                               ; preds = %63, %66, %69, %73
  %76 = getelementptr inbounds %"class.device::CredentialManagementHandler", %"class.device::CredentialManagementHandler"* %0, i64 0, i32 4
  %77 = bitcast %"class.base::OnceCallback"* %4 to i8*
  call void @llvm.lifetime.start.p0i8(i64 8, i8* nonnull %77) #10
  %78 = getelementptr inbounds %"class.base::OnceCallback", %"class.base::OnceCallback"* %76, i64 0, i32 0, i32 0, i32 0
  %79 = bitcast %"class.base::OnceCallback"* %76 to i64*
  %80 = load i64, i64* %79, align 8
  %81 = bitcast %"class.base::OnceCallback"* %4 to i64*
  store i64 %80, i64* %81, align 8
  store %"class.base::internal::BindStateBase"* null, %"class.base::internal::BindStateBase"** %78, align 8
  %82 = getelementptr inbounds %"class.base::OnceCallback", %"class.base::OnceCallback"* %4, i64 0, i32 0
  %83 = inttoptr i64 %80 to %"class.base::internal::BindStateBase"*
  %84 = getelementptr inbounds %"class.base::internal::BindStateBase", %"class.base::internal::BindStateBase"* %83, i64 0, i32 1
  %85 = bitcast void ()** %84 to void (%"class.base::internal::BindStateBase"*)**
  %86 = load void (%"class.base::internal::BindStateBase"*)*, void (%"class.base::internal::BindStateBase"*)** %85, align 8
  tail call void %86(%"class.base::internal::BindStateBase"* %83) #10
  call void @_ZN4base8internal12CallbackBaseD2Ev(%"class.base::internal::CallbackBase"* nonnull %82) #10
  call void @llvm.lifetime.end.p0i8(i64 8, i8* nonnull %77) #10
  br label %87

87:                                               ; preds = %75, %38, %9
  ret void
}

; Function Attrs: nounwind ssp uwtable
define hidden void @_ZN6device27CredentialManagementHandler14GetCredentialsEN4base12OnceCallbackIFvNS_22CtapDeviceResponseCodeEN4absl8optionalINSt3__16vectorINS_38AggregatedEnumerateCredentialsResponseENS6_9allocatorIS8_EEEEEENS5_ImEEEEE(%"class.device::CredentialManagementHandler"*, %"class.base::OnceCallback.83"*) local_unnamed_addr #0 align 2 {
  %3 = alloca %"class.base::internal::WeakReference", align 8
  %4 = alloca %"class.base::OnceCallback.107", align 8
  %5 = alloca %"class.base::WeakPtr", align 8
  %6 = getelementptr inbounds %"class.device::CredentialManagementHandler", %"class.device::CredentialManagementHandler"* %0, i64 0, i32 2
  %7 = load %"class.device::FidoAuthenticator"*, %"class.device::FidoAuthenticator"** %6, align 8
  %8 = icmp eq %"class.device::FidoAuthenticator"* %7, null
  br i1 %8, label %44, label %9

9:                                                ; preds = %2
  %10 = getelementptr inbounds %"class.device::CredentialManagementHandler", %"class.device::CredentialManagementHandler"* %0, i64 0, i32 6, i32 0
  %11 = getelementptr inbounds %"class.base::OnceCallback.83", %"class.base::OnceCallback.83"* %1, i64 0, i32 0
  %12 = tail call dereferenceable(8) %"class.base::internal::CallbackBase"* @_ZN4base8internal12CallbackBaseaSEOS1_(%"class.base::internal::CallbackBase"* %10, %"class.base::internal::CallbackBase"* dereferenceable(8) %11) #10
  %13 = getelementptr inbounds %"class.device::CredentialManagementHandler", %"class.device::CredentialManagementHandler"* %0, i64 0, i32 1
  store i32 7, i32* %13, align 8
  %14 = load %"class.device::FidoAuthenticator"*, %"class.device::FidoAuthenticator"** %6, align 8
  %15 = getelementptr inbounds %"class.device::CredentialManagementHandler", %"class.device::CredentialManagementHandler"* %0, i64 0, i32 3, i32 0, i32 0, i32 0, i32 0
  %16 = load i8, i8* %15, align 8, !range !2
  %17 = icmp eq i8 %16, 0
  br i1 %17, label %18, label %19, !prof !11

18:                                               ; preds = %9
  tail call void @llvm.trap() #10
  unreachable

19:                                               ; preds = %9
  %20 = getelementptr inbounds %"class.device::CredentialManagementHandler", %"class.device::CredentialManagementHandler"* %0, i64 0, i32 3, i32 0, i32 0, i32 0, i32 1, i32 0
  %21 = bitcast %"class.base::WeakPtr"* %5 to i8*
  call void @llvm.lifetime.start.p0i8(i64 16, i8* nonnull %21) #10
  %22 = bitcast %"class.base::internal::WeakReference"* %3 to i8*
  call void @llvm.lifetime.start.p0i8(i64 8, i8* nonnull %22) #10, !noalias !44
  %23 = getelementptr inbounds %"class.device::CredentialManagementHandler", %"class.device::CredentialManagementHandler"* %0, i64 0, i32 8, i32 0, i32 0
  call void @_ZNK4base8internal18WeakReferenceOwner6GetRefEv(%"class.base::internal::WeakReference"* nonnull sret %3, %"class.base::internal::WeakReferenceOwner"* %23) #10, !noalias !44
  %24 = getelementptr inbounds %"class.device::CredentialManagementHandler", %"class.device::CredentialManagementHandler"* %0, i64 0, i32 8, i32 0, i32 1
  %25 = load i64, i64* %24, align 8, !noalias !44
  %26 = getelementptr inbounds %"class.base::WeakPtr", %"class.base::WeakPtr"* %5, i64 0, i32 0
  call void @_ZN4base8internal11WeakPtrBaseC2ERKNS0_13WeakReferenceEm(%"class.base::internal::WeakPtrBase"* nonnull %26, %"class.base::internal::WeakReference"* nonnull dereferenceable(8) %3, i64 %25) #10
  call void @_ZN4base8internal13WeakReferenceD1Ev(%"class.base::internal::WeakReference"* nonnull %3) #10
  call void @llvm.lifetime.end.p0i8(i64 8, i8* nonnull %22) #10, !noalias !44
  %27 = call i8* @_Znwm(i64 64) #11, !noalias !47
  %28 = bitcast i8* %27 to %"class.base::internal::BindStateBase"*
  call void @_ZN4base8internal13BindStateBaseC2EPFvvEPFvPKS1_EPFbS5_NS1_21CancellationQueryModeEE(%"class.base::internal::BindStateBase"* nonnull %28, void ()* bitcast (void (%"class.base::internal::BindStateBase"*, i8, %"class.absl::optional.108"*)* @_ZN4base8internal7InvokerINS0_9BindStateIMN6device27CredentialManagementHandlerEFvNS3_22CtapDeviceResponseCodeEN4absl8optionalINS3_27CredentialsMetadataResponseEEEEJNS_7WeakPtrIS4_EEEEEFvS5_S9_EE7RunOnceEPNS0_13BindStateBaseES5_OS9_ to void ()*), void (%"class.base::internal::BindStateBase"*)* nonnull @_ZN4base8internal9BindStateIMN6device27CredentialManagementHandlerEFvNS2_22CtapDeviceResponseCodeEN4absl8optionalINS2_27CredentialsMetadataResponseEEEEJNS_7WeakPtrIS3_EEEE7DestroyEPKNS0_13BindStateBaseE, i1 (%"class.base::internal::BindStateBase"*, i32)* nonnull @_ZN4base8internal23QueryCancellationTraitsINS0_9BindStateIMN6device27CredentialManagementHandlerEFvNS3_22CtapDeviceResponseCodeEN4absl8optionalINS3_27CredentialsMetadataResponseEEEEJNS_7WeakPtrIS4_EEEEEEEbPKNS0_13BindStateBaseENSF_21CancellationQueryModeE) #10, !noalias !47
  %29 = getelementptr inbounds i8, i8* %27, i64 32
  %30 = bitcast i8* %29 to <2 x i64>*
  store <2 x i64> <i64 ptrtoint (void (%"class.device::CredentialManagementHandler"*, i8, %"class.absl::optional.108"*)* @_ZN6device27CredentialManagementHandler21OnCredentialsMetadataENS_22CtapDeviceResponseCodeEN4absl8optionalINS_27CredentialsMetadataResponseEEE to i64), i64 0>, <2 x i64>* %30, align 8, !noalias !47
  %31 = getelementptr inbounds i8, i8* %27, i64 48
  %32 = bitcast i8* %31 to %"class.base::internal::WeakReference"*
  %33 = getelementptr inbounds %"class.base::WeakPtr", %"class.base::WeakPtr"* %5, i64 0, i32 0, i32 0
  call void @_ZN4base8internal13WeakReferenceC1EOS1_(%"class.base::internal::WeakReference"* %32, %"class.base::internal::WeakReference"* nonnull dereferenceable(8) %33) #10, !noalias !47
  %34 = getelementptr inbounds i8, i8* %27, i64 56
  %35 = bitcast i8* %34 to i64*
  %36 = getelementptr inbounds %"class.base::WeakPtr", %"class.base::WeakPtr"* %5, i64 0, i32 0, i32 1
  %37 = load i64, i64* %36, align 8, !noalias !47
  store i64 %37, i64* %35, align 8, !noalias !47
  %38 = bitcast %"class.base::OnceCallback.107"* %4 to i8**
  store i8* %27, i8** %38, align 8, !alias.scope !47
  %39 = bitcast %"class.device::FidoAuthenticator"* %14 to void (%"class.device::FidoAuthenticator"*, %"class.device::pin::TokenResponse"*, %"class.base::OnceCallback.107"*)***
  %40 = load void (%"class.device::FidoAuthenticator"*, %"class.device::pin::TokenResponse"*, %"class.base::OnceCallback.107"*)**, void (%"class.device::FidoAuthenticator"*, %"class.device::pin::TokenResponse"*, %"class.base::OnceCallback.107"*)*** %39, align 8
  %41 = getelementptr inbounds void (%"class.device::FidoAuthenticator"*, %"class.device::pin::TokenResponse"*, %"class.base::OnceCallback.107"*)*, void (%"class.device::FidoAuthenticator"*, %"class.device::pin::TokenResponse"*, %"class.base::OnceCallback.107"*)** %40, i64 19
  %42 = load void (%"class.device::FidoAuthenticator"*, %"class.device::pin::TokenResponse"*, %"class.base::OnceCallback.107"*)*, void (%"class.device::FidoAuthenticator"*, %"class.device::pin::TokenResponse"*, %"class.base::OnceCallback.107"*)** %41, align 8
  call void %42(%"class.device::FidoAuthenticator"* %14, %"class.device::pin::TokenResponse"* dereferenceable(32) %20, %"class.base::OnceCallback.107"* nonnull %4) #10
  %43 = getelementptr inbounds %"class.base::OnceCallback.107", %"class.base::OnceCallback.107"* %4, i64 0, i32 0
  call void @_ZN4base8internal12CallbackBaseD2Ev(%"class.base::internal::CallbackBase"* nonnull %43) #10
  call void @_ZN4base8internal11WeakPtrBaseD2Ev(%"class.base::internal::WeakPtrBase"* nonnull %26) #10
  call void @llvm.lifetime.end.p0i8(i64 16, i8* nonnull %21) #10
  br label %44

44:                                               ; preds = %2, %19
  ret void
}

; Function Attrs: nounwind ssp uwtable
define hidden void @_ZN6device27CredentialManagementHandler21OnCredentialsMetadataENS_22CtapDeviceResponseCodeEN4absl8optionalINS_27CredentialsMetadataResponseEEE(%"class.device::CredentialManagementHandler"*, i8 zeroext, %"class.absl::optional.108"* nocapture readonly byval(%"class.absl::optional.108") align 8) #0 align 2 {
  %4 = alloca %"class.base::internal::WeakReference", align 8
  %5 = alloca %"class.absl::optional.157", align 8
  %6 = alloca %"class.base::OnceCallback.83", align 8
  %7 = alloca %"class.absl::optional.162", align 8
  %8 = alloca %"class.base::OnceCallback.181", align 8
  %9 = alloca %"class.base::WeakPtr", align 8
  %10 = icmp eq i8 %1, 0
  br i1 %10, label %50, label %11

11:                                               ; preds = %3
  %12 = getelementptr inbounds %"class.device::CredentialManagementHandler", %"class.device::CredentialManagementHandler"* %0, i64 0, i32 1
  store i32 8, i32* %12, align 8
  %13 = getelementptr inbounds %"class.device::CredentialManagementHandler", %"class.device::CredentialManagementHandler"* %0, i64 0, i32 6
  %14 = getelementptr inbounds %"class.absl::optional.162", %"class.absl::optional.162"* %7, i64 0, i32 0, i32 0, i32 0, i32 0
  store i8 0, i8* %14, align 8
  %15 = getelementptr inbounds %"class.absl::optional.162", %"class.absl::optional.162"* %7, i64 0, i32 0, i32 0, i32 0, i32 1
  %16 = bitcast %union.anon.166* %15 to i8*
  call void @llvm.memset.p0i8.i64(i8* align 8 %16, i8 0, i64 24, i1 false) #10
  %17 = getelementptr inbounds %"class.absl::optional.157", %"class.absl::optional.157"* %5, i64 0, i32 0, i32 0, i32 0, i32 0
  call void @llvm.lifetime.start.p0i8(i64 16, i8* nonnull %17)
  store i8 0, i8* %17, align 8
  %18 = bitcast %"class.base::OnceCallback.83"* %6 to i8*
  call void @llvm.lifetime.start.p0i8(i64 8, i8* nonnull %18) #10
  %19 = getelementptr inbounds %"class.base::OnceCallback.83", %"class.base::OnceCallback.83"* %13, i64 0, i32 0, i32 0, i32 0
  %20 = bitcast %"class.base::OnceCallback.83"* %13 to i64*
  %21 = load i64, i64* %20, align 8
  %22 = bitcast %"class.base::OnceCallback.83"* %6 to i64*
  store i64 %21, i64* %22, align 8
  store %"class.base::internal::BindStateBase"* null, %"class.base::internal::BindStateBase"** %19, align 8
  %23 = getelementptr inbounds %"class.base::OnceCallback.83", %"class.base::OnceCallback.83"* %6, i64 0, i32 0
  %24 = inttoptr i64 %21 to %"class.base::internal::BindStateBase"*
  %25 = getelementptr inbounds %"class.base::internal::BindStateBase", %"class.base::internal::BindStateBase"* %24, i64 0, i32 1
  %26 = bitcast void ()** %25 to void (%"class.base::internal::BindStateBase"*, i8, %"class.absl::optional.162"*, %"class.absl::optional.157"*)**
  %27 = load void (%"class.base::internal::BindStateBase"*, i8, %"class.absl::optional.162"*, %"class.absl::optional.157"*)*, void (%"class.base::internal::BindStateBase"*, i8, %"class.absl::optional.162"*, %"class.absl::optional.157"*)** %26, align 8
  call void %27(%"class.base::internal::BindStateBase"* %24, i8 zeroext %1, %"class.absl::optional.162"* nonnull dereferenceable(32) %7, %"class.absl::optional.157"* nonnull dereferenceable(16) %5) #10
  call void @_ZN4base8internal12CallbackBaseD2Ev(%"class.base::internal::CallbackBase"* nonnull %23) #10
  call void @llvm.lifetime.end.p0i8(i64 8, i8* nonnull %18) #10
  call void @llvm.lifetime.end.p0i8(i64 16, i8* nonnull %17)
  %28 = load i8, i8* %14, align 8, !range !2
  %29 = icmp eq i8 %28, 0
  br i1 %29, label %90, label %30

30:                                               ; preds = %11
  %31 = getelementptr inbounds %"class.absl::optional.162", %"class.absl::optional.162"* %7, i64 0, i32 0, i32 0, i32 0, i32 1, i32 0
  %32 = getelementptr inbounds %"class.std::__1::vector.167", %"class.std::__1::vector.167"* %31, i64 0, i32 0, i32 0
  %33 = load %"struct.device::AggregatedEnumerateCredentialsResponse"*, %"struct.device::AggregatedEnumerateCredentialsResponse"** %32, align 8
  %34 = icmp eq %"struct.device::AggregatedEnumerateCredentialsResponse"* %33, null
  br i1 %34, label %49, label %35

35:                                               ; preds = %30
  %36 = bitcast %"struct.device::AggregatedEnumerateCredentialsResponse"* %33 to i8*
  %37 = getelementptr inbounds %"class.absl::optional.162", %"class.absl::optional.162"* %7, i64 0, i32 0, i32 0, i32 0, i32 1, i32 0, i32 0, i32 1
  %38 = load %"struct.device::AggregatedEnumerateCredentialsResponse"*, %"struct.device::AggregatedEnumerateCredentialsResponse"** %37, align 8
  %39 = icmp eq %"struct.device::AggregatedEnumerateCredentialsResponse"* %38, %33
  br i1 %39, label %47, label %40

40:                                               ; preds = %35, %40
  %41 = phi %"struct.device::AggregatedEnumerateCredentialsResponse"* [ %42, %40 ], [ %38, %35 ]
  %42 = getelementptr inbounds %"struct.device::AggregatedEnumerateCredentialsResponse", %"struct.device::AggregatedEnumerateCredentialsResponse"* %41, i64 -1
  call void @_ZN6device38AggregatedEnumerateCredentialsResponseD1Ev(%"struct.device::AggregatedEnumerateCredentialsResponse"* %42) #10
  %43 = icmp eq %"struct.device::AggregatedEnumerateCredentialsResponse"* %42, %33
  br i1 %43, label %44, label %40

44:                                               ; preds = %40
  %45 = bitcast %"class.std::__1::vector.167"* %31 to i8**
  %46 = load i8*, i8** %45, align 8
  br label %47

47:                                               ; preds = %44, %35
  %48 = phi i8* [ %46, %44 ], [ %36, %35 ]
  store %"struct.device::AggregatedEnumerateCredentialsResponse"* %33, %"struct.device::AggregatedEnumerateCredentialsResponse"** %37, align 8
  call void @_ZdlPv(i8* %48) #11
  br label %49

49:                                               ; preds = %47, %30
  store i8 0, i8* %14, align 8
  br label %90

50:                                               ; preds = %3
  %51 = getelementptr inbounds %"class.device::CredentialManagementHandler", %"class.device::CredentialManagementHandler"* %0, i64 0, i32 2
  %52 = load %"class.device::FidoAuthenticator"*, %"class.device::FidoAuthenticator"** %51, align 8
  %53 = getelementptr inbounds %"class.device::CredentialManagementHandler", %"class.device::CredentialManagementHandler"* %0, i64 0, i32 3, i32 0, i32 0, i32 0, i32 0
  %54 = load i8, i8* %53, align 8, !range !2
  %55 = icmp eq i8 %54, 0
  br i1 %55, label %56, label %57, !prof !11

56:                                               ; preds = %50
  tail call void @llvm.trap() #10
  unreachable

57:                                               ; preds = %50
  %58 = bitcast %"class.base::WeakPtr"* %9 to i8*
  call void @llvm.lifetime.start.p0i8(i64 16, i8* nonnull %58) #10
  %59 = bitcast %"class.base::internal::WeakReference"* %4 to i8*
  call void @llvm.lifetime.start.p0i8(i64 8, i8* nonnull %59) #10, !noalias !52
  %60 = getelementptr inbounds %"class.device::CredentialManagementHandler", %"class.device::CredentialManagementHandler"* %0, i64 0, i32 8, i32 0, i32 0
  call void @_ZNK4base8internal18WeakReferenceOwner6GetRefEv(%"class.base::internal::WeakReference"* nonnull sret %4, %"class.base::internal::WeakReferenceOwner"* %60) #10, !noalias !52
  %61 = getelementptr inbounds %"class.device::CredentialManagementHandler", %"class.device::CredentialManagementHandler"* %0, i64 0, i32 8, i32 0, i32 1
  %62 = load i64, i64* %61, align 8, !noalias !52
  %63 = getelementptr inbounds %"class.base::WeakPtr", %"class.base::WeakPtr"* %9, i64 0, i32 0
  call void @_ZN4base8internal11WeakPtrBaseC2ERKNS0_13WeakReferenceEm(%"class.base::internal::WeakPtrBase"* nonnull %63, %"class.base::internal::WeakReference"* nonnull dereferenceable(8) %4, i64 %62) #10
  call void @_ZN4base8internal13WeakReferenceD1Ev(%"class.base::internal::WeakReference"* nonnull %4) #10
  call void @llvm.lifetime.end.p0i8(i64 8, i8* nonnull %59) #10, !noalias !52
  %64 = getelementptr inbounds %"class.absl::optional.108", %"class.absl::optional.108"* %2, i64 0, i32 0, i32 0, i32 0, i32 0
  %65 = load i8, i8* %64, align 8, !range !2
  %66 = icmp eq i8 %65, 0
  br i1 %66, label %67, label %68, !prof !11

67:                                               ; preds = %57
  call void @llvm.trap() #10
  unreachable

68:                                               ; preds = %57
  %69 = getelementptr inbounds %"class.device::CredentialManagementHandler", %"class.device::CredentialManagementHandler"* %0, i64 0, i32 3, i32 0, i32 0, i32 0, i32 1, i32 0
  %70 = getelementptr inbounds %"class.absl::optional.108", %"class.absl::optional.108"* %2, i64 0, i32 0, i32 0, i32 0, i32 1, i32 0
  %71 = call i8* @_Znwm(i64 80) #11, !noalias !55
  %72 = bitcast i8* %71 to %"class.base::internal::BindStateBase"*
  call void @_ZN4base8internal13BindStateBaseC2EPFvvEPFvPKS1_EPFbS5_NS1_21CancellationQueryModeEE(%"class.base::internal::BindStateBase"* nonnull %72, void ()* bitcast (void (%"class.base::internal::BindStateBase"*, i8, %"class.absl::optional.162"*)* @_ZN4base8internal7InvokerINS0_9BindStateIMN6device27CredentialManagementHandlerEFvNS3_27CredentialsMetadataResponseENS3_22CtapDeviceResponseCodeEN4absl8optionalINSt3__16vectorINS3_38AggregatedEnumerateCredentialsResponseENS9_9allocatorISB_EEEEEEEJNS_7WeakPtrIS4_EES5_EEEFvS6_SF_EE7RunOnceEPNS0_13BindStateBaseES6_OSF_ to void ()*), void (%"class.base::internal::BindStateBase"*)* nonnull @_ZN4base8internal9BindStateIMN6device27CredentialManagementHandlerEFvNS2_27CredentialsMetadataResponseENS2_22CtapDeviceResponseCodeEN4absl8optionalINSt3__16vectorINS2_38AggregatedEnumerateCredentialsResponseENS8_9allocatorISA_EEEEEEEJNS_7WeakPtrIS3_EES4_EE7DestroyEPKNS0_13BindStateBaseE, i1 (%"class.base::internal::BindStateBase"*, i32)* nonnull @_ZN4base8internal23QueryCancellationTraitsINS0_9BindStateIMN6device27CredentialManagementHandlerEFvNS3_27CredentialsMetadataResponseENS3_22CtapDeviceResponseCodeEN4absl8optionalINSt3__16vectorINS3_38AggregatedEnumerateCredentialsResponseENS9_9allocatorISB_EEEEEEEJNS_7WeakPtrIS4_EES5_EEEEEbPKNS0_13BindStateBaseENSL_21CancellationQueryModeE) #10, !noalias !55
  %73 = getelementptr inbounds i8, i8* %71, i64 32
  %74 = bitcast i8* %73 to <2 x i64>*
  store <2 x i64> <i64 ptrtoint (void (%"class.device::CredentialManagementHandler"*, i64, i64, i8, %"class.absl::optional.162"*)* @_ZN6device27CredentialManagementHandler22OnEnumerateCredentialsENS_27CredentialsMetadataResponseENS_22CtapDeviceResponseCodeEN4absl8optionalINSt3__16vectorINS_38AggregatedEnumerateCredentialsResponseENS5_9allocatorIS7_EEEEEE to i64), i64 0>, <2 x i64>* %74, align 8, !noalias !55
  %75 = getelementptr inbounds i8, i8* %71, i64 48
  %76 = bitcast i8* %75 to %"class.base::internal::WeakReference"*
  %77 = getelementptr inbounds %"class.base::WeakPtr", %"class.base::WeakPtr"* %9, i64 0, i32 0, i32 0
  call void @_ZN4base8internal13WeakReferenceC1EOS1_(%"class.base::internal::WeakReference"* %76, %"class.base::internal::WeakReference"* nonnull dereferenceable(8) %77) #10, !noalias !55
  %78 = getelementptr inbounds i8, i8* %71, i64 56
  %79 = bitcast i8* %78 to i64*
  %80 = getelementptr inbounds %"class.base::WeakPtr", %"class.base::WeakPtr"* %9, i64 0, i32 0, i32 1
  %81 = load i64, i64* %80, align 8, !noalias !55
  store i64 %81, i64* %79, align 8, !noalias !55
  %82 = getelementptr inbounds i8, i8* %71, i64 64
  %83 = bitcast %"struct.device::CredentialsMetadataResponse"* %70 to i8*
  call void @llvm.memcpy.p0i8.p0i8.i64(i8* align 8 %82, i8* align 8 %83, i64 16, i1 false) #10, !noalias !55
  %84 = bitcast %"class.base::OnceCallback.181"* %8 to i8**
  store i8* %71, i8** %84, align 8, !alias.scope !55
  %85 = bitcast %"class.device::FidoAuthenticator"* %52 to void (%"class.device::FidoAuthenticator"*, %"class.device::pin::TokenResponse"*, %"class.base::OnceCallback.181"*)***
  %86 = load void (%"class.device::FidoAuthenticator"*, %"class.device::pin::TokenResponse"*, %"class.base::OnceCallback.181"*)**, void (%"class.device::FidoAuthenticator"*, %"class.device::pin::TokenResponse"*, %"class.base::OnceCallback.181"*)*** %85, align 8
  %87 = getelementptr inbounds void (%"class.device::FidoAuthenticator"*, %"class.device::pin::TokenResponse"*, %"class.base::OnceCallback.181"*)*, void (%"class.device::FidoAuthenticator"*, %"class.device::pin::TokenResponse"*, %"class.base::OnceCallback.181"*)** %86, i64 20
  %88 = load void (%"class.device::FidoAuthenticator"*, %"class.device::pin::TokenResponse"*, %"class.base::OnceCallback.181"*)*, void (%"class.device::FidoAuthenticator"*, %"class.device::pin::TokenResponse"*, %"class.base::OnceCallback.181"*)** %87, align 8
  call void %88(%"class.device::FidoAuthenticator"* %52, %"class.device::pin::TokenResponse"* dereferenceable(32) %69, %"class.base::OnceCallback.181"* nonnull %8) #10
  %89 = getelementptr inbounds %"class.base::OnceCallback.181", %"class.base::OnceCallback.181"* %8, i64 0, i32 0
  call void @_ZN4base8internal12CallbackBaseD2Ev(%"class.base::internal::CallbackBase"* nonnull %89) #10
  call void @_ZN4base8internal11WeakPtrBaseD2Ev(%"class.base::internal::WeakPtrBase"* nonnull %63) #10
  call void @llvm.lifetime.end.p0i8(i64 16, i8* nonnull %58) #10
  br label %90

90:                                               ; preds = %49, %11, %68
  ret void
}

; Function Attrs: nounwind ssp uwtable
define hidden void @_ZN6device27CredentialManagementHandler16DeleteCredentialERKNS_29PublicKeyCredentialDescriptorEN4base12OnceCallbackIFvNS_22CtapDeviceResponseCodeEEEE(%"class.device::CredentialManagementHandler"*, %"class.device::PublicKeyCredentialDescriptor"* dereferenceable(56), %"class.base::OnceCallback.113"* nocapture) local_unnamed_addr #0 align 2 {
  %4 = alloca %"class.base::OnceCallback.114", align 8
  %5 = getelementptr inbounds %"class.device::CredentialManagementHandler", %"class.device::CredentialManagementHandler"* %0, i64 0, i32 2
  %6 = load %"class.device::FidoAuthenticator"*, %"class.device::FidoAuthenticator"** %5, align 8
  %7 = icmp eq %"class.device::FidoAuthenticator"* %6, null
  br i1 %7, label %30, label %8

8:                                                ; preds = %3
  %9 = getelementptr inbounds %"class.device::CredentialManagementHandler", %"class.device::CredentialManagementHandler"* %0, i64 0, i32 3, i32 0, i32 0, i32 0, i32 0
  %10 = load i8, i8* %9, align 8, !range !2
  %11 = icmp eq i8 %10, 0
  br i1 %11, label %12, label %13, !prof !11

12:                                               ; preds = %8
  tail call void @llvm.trap() #10
  unreachable

13:                                               ; preds = %8
  %14 = getelementptr inbounds %"class.device::CredentialManagementHandler", %"class.device::CredentialManagementHandler"* %0, i64 0, i32 3, i32 0, i32 0, i32 0, i32 1, i32 0
  %15 = tail call i8* @_Znwm(i64 48) #11, !noalias !60
  %16 = bitcast i8* %15 to %"class.base::internal::BindStateBase"*
  tail call void @_ZN4base8internal13BindStateBaseC2EPFvvEPFvPKS1_E(%"class.base::internal::BindStateBase"* nonnull %16, void ()* bitcast (void (%"class.base::internal::BindStateBase"*, i8, %"class.absl::optional.115"*)* @_ZN4base8internal7InvokerINS0_9BindStateIPFvNS_12OnceCallbackIFvN6device22CtapDeviceResponseCodeEEEES5_N4absl8optionalINS4_3pin13EmptyResponseEEEEJS7_EEEFvS5_SC_EE7RunOnceEPNS0_13BindStateBaseES5_OSC_ to void ()*), void (%"class.base::internal::BindStateBase"*)* nonnull @_ZN4base8internal9BindStateIPFvNS_12OnceCallbackIFvN6device22CtapDeviceResponseCodeEEEES4_N4absl8optionalINS3_3pin13EmptyResponseEEEEJS6_EE7DestroyEPKNS0_13BindStateBaseE) #10, !noalias !60
  %17 = getelementptr inbounds i8, i8* %15, i64 32
  %18 = bitcast i8* %17 to i64*
  store i64 ptrtoint (void (%"class.base::OnceCallback.113"*, i8, i8)* @_ZN6deviceL18OnDeleteCredentialEN4base12OnceCallbackIFvNS_22CtapDeviceResponseCodeEEEES2_N4absl8optionalINS_3pin13EmptyResponseEEE to i64), i64* %18, align 8, !noalias !60
  %19 = getelementptr inbounds i8, i8* %15, i64 40
  %20 = getelementptr inbounds %"class.base::OnceCallback.113", %"class.base::OnceCallback.113"* %2, i64 0, i32 0, i32 0, i32 0
  %21 = bitcast %"class.base::OnceCallback.113"* %2 to i64*
  %22 = load i64, i64* %21, align 8, !noalias !60
  %23 = bitcast i8* %19 to i64*
  store i64 %22, i64* %23, align 8, !noalias !60
  store %"class.base::internal::BindStateBase"* null, %"class.base::internal::BindStateBase"** %20, align 8, !noalias !60
  %24 = bitcast %"class.base::OnceCallback.114"* %4 to i8**
  store i8* %15, i8** %24, align 8, !alias.scope !60
  %25 = bitcast %"class.device::FidoAuthenticator"* %6 to void (%"class.device::FidoAuthenticator"*, %"class.device::pin::TokenResponse"*, %"class.device::PublicKeyCredentialDescriptor"*, %"class.base::OnceCallback.114"*)***
  %26 = load void (%"class.device::FidoAuthenticator"*, %"class.device::pin::TokenResponse"*, %"class.device::PublicKeyCredentialDescriptor"*, %"class.base::OnceCallback.114"*)**, void (%"class.device::FidoAuthenticator"*, %"class.device::pin::TokenResponse"*, %"class.device::PublicKeyCredentialDescriptor"*, %"class.base::OnceCallback.114"*)*** %25, align 8
  %27 = getelementptr inbounds void (%"class.device::FidoAuthenticator"*, %"class.device::pin::TokenResponse"*, %"class.device::PublicKeyCredentialDescriptor"*, %"class.base::OnceCallback.114"*)*, void (%"class.device::FidoAuthenticator"*, %"class.device::pin::TokenResponse"*, %"class.device::PublicKeyCredentialDescriptor"*, %"class.base::OnceCallback.114"*)** %26, i64 21
  %28 = load void (%"class.device::FidoAuthenticator"*, %"class.device::pin::TokenResponse"*, %"class.device::PublicKeyCredentialDescriptor"*, %"class.base::OnceCallback.114"*)*, void (%"class.device::FidoAuthenticator"*, %"class.device::pin::TokenResponse"*, %"class.device::PublicKeyCredentialDescriptor"*, %"class.base::OnceCallback.114"*)** %27, align 8
  call void %28(%"class.device::FidoAuthenticator"* nonnull %6, %"class.device::pin::TokenResponse"* dereferenceable(32) %14, %"class.device::PublicKeyCredentialDescriptor"* dereferenceable(56) %1, %"class.base::OnceCallback.114"* nonnull %4) #10
  %29 = getelementptr inbounds %"class.base::OnceCallback.114", %"class.base::OnceCallback.114"* %4, i64 0, i32 0
  call void @_ZN4base8internal12CallbackBaseD2Ev(%"class.base::internal::CallbackBase"* nonnull %29) #10
  br label %30

30:                                               ; preds = %3, %13
  ret void
}

; Function Attrs: nounwind ssp uwtable
define internal void @_ZN6deviceL18OnDeleteCredentialEN4base12OnceCallbackIFvNS_22CtapDeviceResponseCodeEEEES2_N4absl8optionalINS_3pin13EmptyResponseEEE(%"class.base::OnceCallback.113"* nocapture, i8 zeroext, i8) #0 {
  %4 = alloca %"class.base::OnceCallback.113", align 8
  %5 = bitcast %"class.base::OnceCallback.113"* %4 to i8*
  call void @llvm.lifetime.start.p0i8(i64 8, i8* nonnull %5) #10
  %6 = getelementptr inbounds %"class.base::OnceCallback.113", %"class.base::OnceCallback.113"* %0, i64 0, i32 0, i32 0, i32 0
  %7 = bitcast %"class.base::OnceCallback.113"* %0 to i64*
  %8 = load i64, i64* %7, align 8
  %9 = bitcast %"class.base::OnceCallback.113"* %4 to i64*
  store i64 %8, i64* %9, align 8
  store %"class.base::internal::BindStateBase"* null, %"class.base::internal::BindStateBase"** %6, align 8
  %10 = getelementptr inbounds %"class.base::OnceCallback.113", %"class.base::OnceCallback.113"* %4, i64 0, i32 0
  %11 = inttoptr i64 %8 to %"class.base::internal::BindStateBase"*
  %12 = getelementptr inbounds %"class.base::internal::BindStateBase", %"class.base::internal::BindStateBase"* %11, i64 0, i32 1
  %13 = bitcast void ()** %12 to void (%"class.base::internal::BindStateBase"*, i8)**
  %14 = load void (%"class.base::internal::BindStateBase"*, i8)*, void (%"class.base::internal::BindStateBase"*, i8)** %13, align 8
  tail call void %14(%"class.base::internal::BindStateBase"* %11, i8 zeroext %1) #10
  call void @_ZN4base8internal12CallbackBaseD2Ev(%"class.base::internal::CallbackBase"* nonnull %10) #10
  call void @llvm.lifetime.end.p0i8(i64 8, i8* nonnull %5) #10
  ret void
}

; Function Attrs: nounwind ssp uwtable
define hidden void @_ZN6device27CredentialManagementHandler19OnDeleteCredentialsENSt3__16vectorINS2_IhNS1_9allocatorIhEEEENS3_IS5_EEEEN4base12OnceCallbackIFvNS_22CtapDeviceResponseCodeEEEESA_N4absl8optionalINS_3pin13EmptyResponseEEE(%"class.device::CredentialManagementHandler"*, %"class.std::__1::vector.120"* nocapture, %"class.base::OnceCallback.113"* nocapture, i8 zeroext, i8) #0 align 2 {
  %6 = alloca %"class.base::internal::WeakReference", align 8
  %7 = alloca %"class.base::OnceCallback.113", align 8
  %8 = alloca %"class.device::PublicKeyCredentialDescriptor", align 8
  %9 = alloca %"class.absl::optional.127", align 8
  %10 = alloca %"class.absl::optional.148", align 8
  %11 = alloca %"class.base::OnceCallback.114", align 8
  %12 = alloca %"class.base::WeakPtr", align 8
  %13 = icmp eq i8 %3, 0
  br i1 %13, label %14, label %20

14:                                               ; preds = %5
  %15 = getelementptr inbounds %"class.std::__1::vector.120", %"class.std::__1::vector.120"* %1, i64 0, i32 0, i32 0
  %16 = load %"class.std::__1::vector.32"*, %"class.std::__1::vector.32"** %15, align 8
  %17 = getelementptr inbounds %"class.std::__1::vector.120", %"class.std::__1::vector.120"* %1, i64 0, i32 0, i32 1
  %18 = load %"class.std::__1::vector.32"*, %"class.std::__1::vector.32"** %17, align 8
  %19 = icmp eq %"class.std::__1::vector.32"* %16, %18
  br i1 %19, label %20, label %31

20:                                               ; preds = %5, %14
  %21 = bitcast %"class.base::OnceCallback.113"* %7 to i8*
  call void @llvm.lifetime.start.p0i8(i64 8, i8* nonnull %21) #10
  %22 = getelementptr inbounds %"class.base::OnceCallback.113", %"class.base::OnceCallback.113"* %2, i64 0, i32 0, i32 0, i32 0
  %23 = bitcast %"class.base::OnceCallback.113"* %2 to i64*
  %24 = load i64, i64* %23, align 8
  %25 = bitcast %"class.base::OnceCallback.113"* %7 to i64*
  store i64 %24, i64* %25, align 8
  store %"class.base::internal::BindStateBase"* null, %"class.base::internal::BindStateBase"** %22, align 8
  %26 = getelementptr inbounds %"class.base::OnceCallback.113", %"class.base::OnceCallback.113"* %7, i64 0, i32 0
  %27 = inttoptr i64 %24 to %"class.base::internal::BindStateBase"*
  %28 = getelementptr inbounds %"class.base::internal::BindStateBase", %"class.base::internal::BindStateBase"* %27, i64 0, i32 1
  %29 = bitcast void ()** %28 to void (%"class.base::internal::BindStateBase"*, i8)**
  %30 = load void (%"class.base::internal::BindStateBase"*, i8)*, void (%"class.base::internal::BindStateBase"*, i8)** %29, align 8
  tail call void %30(%"class.base::internal::BindStateBase"* %27, i8 zeroext %3) #10
  call void @_ZN4base8internal12CallbackBaseD2Ev(%"class.base::internal::CallbackBase"* nonnull %26) #10
  call void @llvm.lifetime.end.p0i8(i64 8, i8* nonnull %21) #10
  br label %120

31:                                               ; preds = %14
  %32 = getelementptr inbounds %"class.device::CredentialManagementHandler", %"class.device::CredentialManagementHandler"* %0, i64 0, i32 2
  %33 = load %"class.device::FidoAuthenticator"*, %"class.device::FidoAuthenticator"** %32, align 8
  %34 = icmp eq %"class.device::FidoAuthenticator"* %33, null
  br i1 %34, label %120, label %35

35:                                               ; preds = %31
  %36 = bitcast %"class.device::PublicKeyCredentialDescriptor"* %8 to i8*
  call void @llvm.lifetime.start.p0i8(i64 56, i8* nonnull %36) #10
  call void @llvm.memset.p0i8.i64(i8* nonnull align 8 %36, i8 -86, i64 56, i1 false)
  %37 = getelementptr inbounds %"class.absl::optional.127", %"class.absl::optional.127"* %9, i64 0, i32 0, i32 0, i32 0, i32 0
  call void @llvm.lifetime.start.p0i8(i64 64, i8* nonnull %37) #10
  %38 = getelementptr inbounds %"class.absl::optional.148", %"class.absl::optional.148"* %10, i64 0, i32 0, i32 0, i32 0, i32 0
  call void @llvm.lifetime.start.p0i8(i64 40, i8* nonnull %38) #10
  %39 = getelementptr inbounds %"class.std::__1::vector.32", %"class.std::__1::vector.32"* %18, i64 -1
  %40 = bitcast %"class.std::__1::vector.32"* %39 to i64*
  %41 = load i64, i64* %40, align 8
  %42 = getelementptr inbounds %"class.std::__1::vector.32", %"class.std::__1::vector.32"* %18, i64 -1, i32 0, i32 1
  %43 = bitcast i8** %42 to i64*
  %44 = load i64, i64* %43, align 8
  %45 = sub i64 %44, %41
  %46 = inttoptr i64 %41 to i8*
  call void @_ZN4cbor6Reader4ReadEN4base4spanIKhLm18446744073709551615EEEPNS0_12DecoderErrorEi(%"class.absl::optional.148"* nonnull sret %10, i64 %45, i8* %46, i32* null, i32 16) #10
  %47 = load i8, i8* %38, align 8, !range !2
  %48 = icmp eq i8 %47, 0
  br i1 %48, label %49, label %50, !prof !11

49:                                               ; preds = %35
  call void @llvm.trap() #10
  unreachable

50:                                               ; preds = %35
  %51 = getelementptr inbounds %"class.absl::optional.148", %"class.absl::optional.148"* %10, i64 0, i32 0, i32 0, i32 0, i32 1, i32 0
  call void @_ZN6device29PublicKeyCredentialDescriptor19CreateFromCBORValueERKN4cbor5ValueE(%"class.absl::optional.127"* nonnull sret %9, %"class.cbor::Value"* dereferenceable(32) %51) #10
  %52 = load i8, i8* %37, align 8, !range !2
  %53 = icmp eq i8 %52, 0
  br i1 %53, label %54, label %55, !prof !11

54:                                               ; preds = %50
  call void @llvm.trap() #10
  unreachable

55:                                               ; preds = %50
  %56 = getelementptr inbounds %"class.absl::optional.127", %"class.absl::optional.127"* %9, i64 0, i32 0, i32 0, i32 0, i32 1, i32 0
  call void @_ZN6device29PublicKeyCredentialDescriptorC1EOS0_(%"class.device::PublicKeyCredentialDescriptor"* nonnull %8, %"class.device::PublicKeyCredentialDescriptor"* dereferenceable(56) %56) #10
  %57 = load i8, i8* %37, align 8, !range !2
  %58 = icmp eq i8 %57, 0
  br i1 %58, label %60, label %59

59:                                               ; preds = %55
  call void @_ZN6device29PublicKeyCredentialDescriptorD1Ev(%"class.device::PublicKeyCredentialDescriptor"* %56) #10
  store i8 0, i8* %37, align 8
  br label %60

60:                                               ; preds = %55, %59
  %61 = load i8, i8* %38, align 8, !range !2
  %62 = icmp eq i8 %61, 0
  br i1 %62, label %64, label %63

63:                                               ; preds = %60
  call void @_ZN4cbor5ValueD1Ev(%"class.cbor::Value"* %51) #10
  store i8 0, i8* %38, align 8
  br label %64

64:                                               ; preds = %60, %63
  call void @llvm.lifetime.end.p0i8(i64 40, i8* nonnull %38) #10
  call void @llvm.lifetime.end.p0i8(i64 64, i8* nonnull %37) #10
  %65 = load %"class.std::__1::vector.32"*, %"class.std::__1::vector.32"** %17, align 8
  %66 = getelementptr inbounds %"class.std::__1::vector.32", %"class.std::__1::vector.32"* %65, i64 -1
  %67 = getelementptr inbounds %"class.std::__1::vector.32", %"class.std::__1::vector.32"* %66, i64 0, i32 0, i32 0
  %68 = load i8*, i8** %67, align 8
  %69 = icmp eq i8* %68, null
  br i1 %69, label %74, label %70

70:                                               ; preds = %64
  %71 = ptrtoint i8* %68 to i64
  %72 = getelementptr inbounds %"class.std::__1::vector.32", %"class.std::__1::vector.32"* %65, i64 -1, i32 0, i32 1
  %73 = bitcast i8** %72 to i64*
  store i64 %71, i64* %73, align 8
  call void @_ZdlPv(i8* nonnull %68) #11
  br label %74

74:                                               ; preds = %64, %70
  store %"class.std::__1::vector.32"* %66, %"class.std::__1::vector.32"** %17, align 8
  %75 = load %"class.device::FidoAuthenticator"*, %"class.device::FidoAuthenticator"** %32, align 8
  %76 = getelementptr inbounds %"class.device::CredentialManagementHandler", %"class.device::CredentialManagementHandler"* %0, i64 0, i32 3, i32 0, i32 0, i32 0, i32 0
  %77 = load i8, i8* %76, align 8, !range !2
  %78 = icmp eq i8 %77, 0
  br i1 %78, label %79, label %80, !prof !11

79:                                               ; preds = %74
  call void @llvm.trap() #10
  unreachable

80:                                               ; preds = %74
  %81 = getelementptr inbounds %"class.device::CredentialManagementHandler", %"class.device::CredentialManagementHandler"* %0, i64 0, i32 3, i32 0, i32 0, i32 0, i32 1, i32 0
  %82 = bitcast %"class.base::WeakPtr"* %12 to i8*
  call void @llvm.lifetime.start.p0i8(i64 16, i8* nonnull %82) #10
  %83 = bitcast %"class.base::internal::WeakReference"* %6 to i8*
  call void @llvm.lifetime.start.p0i8(i64 8, i8* nonnull %83) #10, !noalias !65
  %84 = getelementptr inbounds %"class.device::CredentialManagementHandler", %"class.device::CredentialManagementHandler"* %0, i64 0, i32 8, i32 0, i32 0
  call void @_ZNK4base8internal18WeakReferenceOwner6GetRefEv(%"class.base::internal::WeakReference"* nonnull sret %6, %"class.base::internal::WeakReferenceOwner"* %84) #10, !noalias !65
  %85 = getelementptr inbounds %"class.device::CredentialManagementHandler", %"class.device::CredentialManagementHandler"* %0, i64 0, i32 8, i32 0, i32 1
  %86 = load i64, i64* %85, align 8, !noalias !65
  %87 = getelementptr inbounds %"class.base::WeakPtr", %"class.base::WeakPtr"* %12, i64 0, i32 0
  call void @_ZN4base8internal11WeakPtrBaseC2ERKNS0_13WeakReferenceEm(%"class.base::internal::WeakPtrBase"* nonnull %87, %"class.base::internal::WeakReference"* nonnull dereferenceable(8) %6, i64 %86) #10
  call void @_ZN4base8internal13WeakReferenceD1Ev(%"class.base::internal::WeakReference"* nonnull %6) #10
  call void @llvm.lifetime.end.p0i8(i64 8, i8* nonnull %83) #10, !noalias !65
  %88 = call i8* @_Znwm(i64 96) #11, !noalias !68
  %89 = bitcast i8* %88 to %"class.base::internal::BindStateBase"*
  call void @_ZN4base8internal13BindStateBaseC2EPFvvEPFvPKS1_EPFbS5_NS1_21CancellationQueryModeEE(%"class.base::internal::BindStateBase"* nonnull %89, void ()* bitcast (void (%"class.base::internal::BindStateBase"*, i8, %"class.absl::optional.115"*)* @_ZN4base8internal7InvokerINS0_9BindStateIMN6device27CredentialManagementHandlerEFvNSt3__16vectorINS6_IhNS5_9allocatorIhEEEENS7_IS9_EEEENS_12OnceCallbackIFvNS3_22CtapDeviceResponseCodeEEEESD_N4absl8optionalINS3_3pin13EmptyResponseEEEEJNS_7WeakPtrIS4_EESB_SF_EEEFvSD_SK_EE7RunOnceEPNS0_13BindStateBaseESD_OSK_ to void ()*), void (%"class.base::internal::BindStateBase"*)* nonnull @_ZN4base8internal9BindStateIMN6device27CredentialManagementHandlerEFvNSt3__16vectorINS5_IhNS4_9allocatorIhEEEENS6_IS8_EEEENS_12OnceCallbackIFvNS2_22CtapDeviceResponseCodeEEEESC_N4absl8optionalINS2_3pin13EmptyResponseEEEEJNS_7WeakPtrIS3_EESA_SE_EE7DestroyEPKNS0_13BindStateBaseE, i1 (%"class.base::internal::BindStateBase"*, i32)* nonnull @_ZN4base8internal23QueryCancellationTraitsINS0_9BindStateIMN6device27CredentialManagementHandlerEFvNSt3__16vectorINS6_IhNS5_9allocatorIhEEEENS7_IS9_EEEENS_12OnceCallbackIFvNS3_22CtapDeviceResponseCodeEEEESD_N4absl8optionalINS3_3pin13EmptyResponseEEEEJNS_7WeakPtrIS4_EESB_SF_EEEEEbPKNS0_13BindStateBaseENSQ_21CancellationQueryModeE) #10, !noalias !68
  %90 = getelementptr inbounds i8, i8* %88, i64 32
  %91 = bitcast i8* %90 to <2 x i64>*
  store <2 x i64> <i64 ptrtoint (void (%"class.device::CredentialManagementHandler"*, %"class.std::__1::vector.120"*, %"class.base::OnceCallback.113"*, i8, i8)* @_ZN6device27CredentialManagementHandler19OnDeleteCredentialsENSt3__16vectorINS2_IhNS1_9allocatorIhEEEENS3_IS5_EEEEN4base12OnceCallbackIFvNS_22CtapDeviceResponseCodeEEEESA_N4absl8optionalINS_3pin13EmptyResponseEEE to i64), i64 0>, <2 x i64>* %91, align 8, !noalias !68
  %92 = getelementptr inbounds i8, i8* %88, i64 48
  %93 = bitcast i8* %92 to %"class.base::internal::WeakReference"*
  %94 = getelementptr inbounds %"class.base::WeakPtr", %"class.base::WeakPtr"* %12, i64 0, i32 0, i32 0
  call void @_ZN4base8internal13WeakReferenceC1EOS1_(%"class.base::internal::WeakReference"* %93, %"class.base::internal::WeakReference"* nonnull dereferenceable(8) %94) #10, !noalias !68
  %95 = getelementptr inbounds i8, i8* %88, i64 56
  %96 = bitcast i8* %95 to i64*
  %97 = getelementptr inbounds %"class.base::WeakPtr", %"class.base::WeakPtr"* %12, i64 0, i32 0, i32 1
  %98 = load i64, i64* %97, align 8, !noalias !68
  store i64 %98, i64* %96, align 8, !noalias !68
  %99 = getelementptr inbounds i8, i8* %88, i64 64
  %100 = bitcast %"class.std::__1::vector.120"* %1 to <2 x i64>*
  %101 = load <2 x i64>, <2 x i64>* %100, align 8, !noalias !68
  %102 = bitcast i8* %99 to <2 x i64>*
  store <2 x i64> %101, <2 x i64>* %102, align 8, !noalias !68
  %103 = getelementptr inbounds %"class.std::__1::vector.120", %"class.std::__1::vector.120"* %1, i64 0, i32 0, i32 2, i32 0, i32 0
  %104 = bitcast %"class.std::__1::vector.32"** %103 to i64*
  %105 = load i64, i64* %104, align 8, !noalias !68
  %106 = getelementptr inbounds i8, i8* %88, i64 80
  %107 = bitcast i8* %106 to i64*
  store i64 %105, i64* %107, align 8, !noalias !68
  %108 = bitcast %"class.std::__1::vector.120"* %1 to i8*
  call void @llvm.memset.p0i8.i64(i8* align 8 %108, i8 0, i64 24, i1 false) #10, !noalias !68
  %109 = getelementptr inbounds i8, i8* %88, i64 88
  %110 = getelementptr inbounds %"class.base::OnceCallback.113", %"class.base::OnceCallback.113"* %2, i64 0, i32 0, i32 0, i32 0
  %111 = bitcast %"class.base::OnceCallback.113"* %2 to i64*
  %112 = load i64, i64* %111, align 8, !noalias !68
  %113 = bitcast i8* %109 to i64*
  store i64 %112, i64* %113, align 8, !noalias !68
  store %"class.base::internal::BindStateBase"* null, %"class.base::internal::BindStateBase"** %110, align 8, !noalias !68
  %114 = bitcast %"class.base::OnceCallback.114"* %11 to i8**
  store i8* %88, i8** %114, align 8, !alias.scope !68
  %115 = bitcast %"class.device::FidoAuthenticator"* %75 to void (%"class.device::FidoAuthenticator"*, %"class.device::pin::TokenResponse"*, %"class.device::PublicKeyCredentialDescriptor"*, %"class.base::OnceCallback.114"*)***
  %116 = load void (%"class.device::FidoAuthenticator"*, %"class.device::pin::TokenResponse"*, %"class.device::PublicKeyCredentialDescriptor"*, %"class.base::OnceCallback.114"*)**, void (%"class.device::FidoAuthenticator"*, %"class.device::pin::TokenResponse"*, %"class.device::PublicKeyCredentialDescriptor"*, %"class.base::OnceCallback.114"*)*** %115, align 8
  %117 = getelementptr inbounds void (%"class.device::FidoAuthenticator"*, %"class.device::pin::TokenResponse"*, %"class.device::PublicKeyCredentialDescriptor"*, %"class.base::OnceCallback.114"*)*, void (%"class.device::FidoAuthenticator"*, %"class.device::pin::TokenResponse"*, %"class.device::PublicKeyCredentialDescriptor"*, %"class.base::OnceCallback.114"*)** %116, i64 21
  %118 = load void (%"class.device::FidoAuthenticator"*, %"class.device::pin::TokenResponse"*, %"class.device::PublicKeyCredentialDescriptor"*, %"class.base::OnceCallback.114"*)*, void (%"class.device::FidoAuthenticator"*, %"class.device::pin::TokenResponse"*, %"class.device::PublicKeyCredentialDescriptor"*, %"class.base::OnceCallback.114"*)** %117, align 8
  call void %118(%"class.device::FidoAuthenticator"* %75, %"class.device::pin::TokenResponse"* dereferenceable(32) %81, %"class.device::PublicKeyCredentialDescriptor"* nonnull dereferenceable(56) %8, %"class.base::OnceCallback.114"* nonnull %11) #10
  %119 = getelementptr inbounds %"class.base::OnceCallback.114", %"class.base::OnceCallback.114"* %11, i64 0, i32 0
  call void @_ZN4base8internal12CallbackBaseD2Ev(%"class.base::internal::CallbackBase"* nonnull %119) #10
  call void @_ZN4base8internal11WeakPtrBaseD2Ev(%"class.base::internal::WeakPtrBase"* nonnull %87) #10
  call void @llvm.lifetime.end.p0i8(i64 16, i8* nonnull %82) #10
  call void @_ZN6device29PublicKeyCredentialDescriptorD1Ev(%"class.device::PublicKeyCredentialDescriptor"* nonnull %8) #10
  call void @llvm.lifetime.end.p0i8(i64 56, i8* nonnull %36) #10
  br label %120

120:                                              ; preds = %31, %80, %20
  ret void
}

; Function Attrs: argmemonly nounwind
declare void @llvm.memset.p0i8.i64(i8* nocapture writeonly, i8, i64, i1 immarg) #4

declare void @_ZN6device29PublicKeyCredentialDescriptor19CreateFromCBORValueERKN4cbor5ValueE(%"class.absl::optional.127"* sret, %"class.cbor::Value"* dereferenceable(32)) local_unnamed_addr #1

declare void @_ZN4cbor6Reader4ReadEN4base4spanIKhLm18446744073709551615EEEPNS0_12DecoderErrorEi(%"class.absl::optional.148"* sret, i64, i8*, i32*, i32) local_unnamed_addr #1

declare void @_ZN6device29PublicKeyCredentialDescriptorC1EOS0_(%"class.device::PublicKeyCredentialDescriptor"*, %"class.device::PublicKeyCredentialDescriptor"* dereferenceable(56)) unnamed_addr #1

; Function Attrs: nounwind
declare void @_ZN6device29PublicKeyCredentialDescriptorD1Ev(%"class.device::PublicKeyCredentialDescriptor"*) unnamed_addr #2

; Function Attrs: nounwind ssp uwtable
define hidden void @_ZN6device27CredentialManagementHandler17DeleteCredentialsENSt3__16vectorINS2_IhNS1_9allocatorIhEEEENS3_IS5_EEEEN4base12OnceCallbackIFvNS_22CtapDeviceResponseCodeEEEE(%"class.device::CredentialManagementHandler"*, %"class.std::__1::vector.120"* nocapture, %"class.base::OnceCallback.113"* nocapture) local_unnamed_addr #0 align 2 {
  %4 = alloca %"class.base::internal::WeakReference", align 8
  %5 = alloca %"class.base::OnceCallback.113", align 8
  %6 = alloca %"class.device::PublicKeyCredentialDescriptor", align 8
  %7 = alloca %"class.absl::optional.127", align 8
  %8 = alloca %"class.absl::optional.148", align 8
  %9 = alloca %"class.base::OnceCallback.114", align 8
  %10 = alloca %"class.base::WeakPtr", align 8
  %11 = getelementptr inbounds %"class.device::CredentialManagementHandler", %"class.device::CredentialManagementHandler"* %0, i64 0, i32 2
  %12 = load %"class.device::FidoAuthenticator"*, %"class.device::FidoAuthenticator"** %11, align 8
  %13 = icmp eq %"class.device::FidoAuthenticator"* %12, null
  br i1 %13, label %116, label %14

14:                                               ; preds = %3
  %15 = getelementptr inbounds %"class.std::__1::vector.120", %"class.std::__1::vector.120"* %1, i64 0, i32 0, i32 0
  %16 = load %"class.std::__1::vector.32"*, %"class.std::__1::vector.32"** %15, align 8
  %17 = getelementptr inbounds %"class.std::__1::vector.120", %"class.std::__1::vector.120"* %1, i64 0, i32 0, i32 1
  %18 = load %"class.std::__1::vector.32"*, %"class.std::__1::vector.32"** %17, align 8
  %19 = icmp eq %"class.std::__1::vector.32"* %16, %18
  br i1 %19, label %20, label %31

20:                                               ; preds = %14
  %21 = bitcast %"class.base::OnceCallback.113"* %5 to i8*
  call void @llvm.lifetime.start.p0i8(i64 8, i8* nonnull %21) #10
  %22 = getelementptr inbounds %"class.base::OnceCallback.113", %"class.base::OnceCallback.113"* %2, i64 0, i32 0, i32 0, i32 0
  %23 = bitcast %"class.base::OnceCallback.113"* %2 to i64*
  %24 = load i64, i64* %23, align 8
  %25 = bitcast %"class.base::OnceCallback.113"* %5 to i64*
  store i64 %24, i64* %25, align 8
  store %"class.base::internal::BindStateBase"* null, %"class.base::internal::BindStateBase"** %22, align 8
  %26 = getelementptr inbounds %"class.base::OnceCallback.113", %"class.base::OnceCallback.113"* %5, i64 0, i32 0
  %27 = inttoptr i64 %24 to %"class.base::internal::BindStateBase"*
  %28 = getelementptr inbounds %"class.base::internal::BindStateBase", %"class.base::internal::BindStateBase"* %27, i64 0, i32 1
  %29 = bitcast void ()** %28 to void (%"class.base::internal::BindStateBase"*, i8)**
  %30 = load void (%"class.base::internal::BindStateBase"*, i8)*, void (%"class.base::internal::BindStateBase"*, i8)** %29, align 8
  tail call void %30(%"class.base::internal::BindStateBase"* %27, i8 zeroext 0) #10
  call void @_ZN4base8internal12CallbackBaseD2Ev(%"class.base::internal::CallbackBase"* nonnull %26) #10
  call void @llvm.lifetime.end.p0i8(i64 8, i8* nonnull %21) #10
  br label %116

31:                                               ; preds = %14
  %32 = bitcast %"class.device::PublicKeyCredentialDescriptor"* %6 to i8*
  call void @llvm.lifetime.start.p0i8(i64 56, i8* nonnull %32) #10
  call void @llvm.memset.p0i8.i64(i8* nonnull align 8 %32, i8 -86, i64 56, i1 false)
  %33 = getelementptr inbounds %"class.absl::optional.127", %"class.absl::optional.127"* %7, i64 0, i32 0, i32 0, i32 0, i32 0
  call void @llvm.lifetime.start.p0i8(i64 64, i8* nonnull %33) #10
  %34 = getelementptr inbounds %"class.absl::optional.148", %"class.absl::optional.148"* %8, i64 0, i32 0, i32 0, i32 0, i32 0
  call void @llvm.lifetime.start.p0i8(i64 40, i8* nonnull %34) #10
  %35 = getelementptr inbounds %"class.std::__1::vector.32", %"class.std::__1::vector.32"* %18, i64 -1
  %36 = bitcast %"class.std::__1::vector.32"* %35 to i64*
  %37 = load i64, i64* %36, align 8
  %38 = getelementptr inbounds %"class.std::__1::vector.32", %"class.std::__1::vector.32"* %18, i64 -1, i32 0, i32 1
  %39 = bitcast i8** %38 to i64*
  %40 = load i64, i64* %39, align 8
  %41 = sub i64 %40, %37
  %42 = inttoptr i64 %37 to i8*
  call void @_ZN4cbor6Reader4ReadEN4base4spanIKhLm18446744073709551615EEEPNS0_12DecoderErrorEi(%"class.absl::optional.148"* nonnull sret %8, i64 %41, i8* %42, i32* null, i32 16) #10
  %43 = load i8, i8* %34, align 8, !range !2
  %44 = icmp eq i8 %43, 0
  br i1 %44, label %45, label %46, !prof !11

45:                                               ; preds = %31
  call void @llvm.trap() #10
  unreachable

46:                                               ; preds = %31
  %47 = getelementptr inbounds %"class.absl::optional.148", %"class.absl::optional.148"* %8, i64 0, i32 0, i32 0, i32 0, i32 1, i32 0
  call void @_ZN6device29PublicKeyCredentialDescriptor19CreateFromCBORValueERKN4cbor5ValueE(%"class.absl::optional.127"* nonnull sret %7, %"class.cbor::Value"* dereferenceable(32) %47) #10
  %48 = load i8, i8* %33, align 8, !range !2
  %49 = icmp eq i8 %48, 0
  br i1 %49, label %50, label %51, !prof !11

50:                                               ; preds = %46
  call void @llvm.trap() #10
  unreachable

51:                                               ; preds = %46
  %52 = getelementptr inbounds %"class.absl::optional.127", %"class.absl::optional.127"* %7, i64 0, i32 0, i32 0, i32 0, i32 1, i32 0
  call void @_ZN6device29PublicKeyCredentialDescriptorC1EOS0_(%"class.device::PublicKeyCredentialDescriptor"* nonnull %6, %"class.device::PublicKeyCredentialDescriptor"* dereferenceable(56) %52) #10
  %53 = load i8, i8* %33, align 8, !range !2
  %54 = icmp eq i8 %53, 0
  br i1 %54, label %56, label %55

55:                                               ; preds = %51
  call void @_ZN6device29PublicKeyCredentialDescriptorD1Ev(%"class.device::PublicKeyCredentialDescriptor"* %52) #10
  store i8 0, i8* %33, align 8
  br label %56

56:                                               ; preds = %51, %55
  %57 = load i8, i8* %34, align 8, !range !2
  %58 = icmp eq i8 %57, 0
  br i1 %58, label %60, label %59

59:                                               ; preds = %56
  call void @_ZN4cbor5ValueD1Ev(%"class.cbor::Value"* %47) #10
  store i8 0, i8* %34, align 8
  br label %60

60:                                               ; preds = %56, %59
  call void @llvm.lifetime.end.p0i8(i64 40, i8* nonnull %34) #10
  call void @llvm.lifetime.end.p0i8(i64 64, i8* nonnull %33) #10
  %61 = load %"class.std::__1::vector.32"*, %"class.std::__1::vector.32"** %17, align 8
  %62 = getelementptr inbounds %"class.std::__1::vector.32", %"class.std::__1::vector.32"* %61, i64 -1
  %63 = getelementptr inbounds %"class.std::__1::vector.32", %"class.std::__1::vector.32"* %62, i64 0, i32 0, i32 0
  %64 = load i8*, i8** %63, align 8
  %65 = icmp eq i8* %64, null
  br i1 %65, label %70, label %66

66:                                               ; preds = %60
  %67 = ptrtoint i8* %64 to i64
  %68 = getelementptr inbounds %"class.std::__1::vector.32", %"class.std::__1::vector.32"* %61, i64 -1, i32 0, i32 1
  %69 = bitcast i8** %68 to i64*
  store i64 %67, i64* %69, align 8
  call void @_ZdlPv(i8* nonnull %64) #11
  br label %70

70:                                               ; preds = %60, %66
  store %"class.std::__1::vector.32"* %62, %"class.std::__1::vector.32"** %17, align 8
  %71 = load %"class.device::FidoAuthenticator"*, %"class.device::FidoAuthenticator"** %11, align 8
  %72 = getelementptr inbounds %"class.device::CredentialManagementHandler", %"class.device::CredentialManagementHandler"* %0, i64 0, i32 3, i32 0, i32 0, i32 0, i32 0
  %73 = load i8, i8* %72, align 8, !range !2
  %74 = icmp eq i8 %73, 0
  br i1 %74, label %75, label %76, !prof !11

75:                                               ; preds = %70
  call void @llvm.trap() #10
  unreachable

76:                                               ; preds = %70
  %77 = getelementptr inbounds %"class.device::CredentialManagementHandler", %"class.device::CredentialManagementHandler"* %0, i64 0, i32 3, i32 0, i32 0, i32 0, i32 1, i32 0
  %78 = bitcast %"class.base::WeakPtr"* %10 to i8*
  call void @llvm.lifetime.start.p0i8(i64 16, i8* nonnull %78) #10
  %79 = bitcast %"class.base::internal::WeakReference"* %4 to i8*
  call void @llvm.lifetime.start.p0i8(i64 8, i8* nonnull %79) #10, !noalias !73
  %80 = getelementptr inbounds %"class.device::CredentialManagementHandler", %"class.device::CredentialManagementHandler"* %0, i64 0, i32 8, i32 0, i32 0
  call void @_ZNK4base8internal18WeakReferenceOwner6GetRefEv(%"class.base::internal::WeakReference"* nonnull sret %4, %"class.base::internal::WeakReferenceOwner"* %80) #10, !noalias !73
  %81 = getelementptr inbounds %"class.device::CredentialManagementHandler", %"class.device::CredentialManagementHandler"* %0, i64 0, i32 8, i32 0, i32 1
  %82 = load i64, i64* %81, align 8, !noalias !73
  %83 = getelementptr inbounds %"class.base::WeakPtr", %"class.base::WeakPtr"* %10, i64 0, i32 0
  call void @_ZN4base8internal11WeakPtrBaseC2ERKNS0_13WeakReferenceEm(%"class.base::internal::WeakPtrBase"* nonnull %83, %"class.base::internal::WeakReference"* nonnull dereferenceable(8) %4, i64 %82) #10
  call void @_ZN4base8internal13WeakReferenceD1Ev(%"class.base::internal::WeakReference"* nonnull %4) #10
  call void @llvm.lifetime.end.p0i8(i64 8, i8* nonnull %79) #10, !noalias !73
  %84 = call i8* @_Znwm(i64 96) #11, !noalias !76
  %85 = bitcast i8* %84 to %"class.base::internal::BindStateBase"*
  call void @_ZN4base8internal13BindStateBaseC2EPFvvEPFvPKS1_EPFbS5_NS1_21CancellationQueryModeEE(%"class.base::internal::BindStateBase"* nonnull %85, void ()* bitcast (void (%"class.base::internal::BindStateBase"*, i8, %"class.absl::optional.115"*)* @_ZN4base8internal7InvokerINS0_9BindStateIMN6device27CredentialManagementHandlerEFvNSt3__16vectorINS6_IhNS5_9allocatorIhEEEENS7_IS9_EEEENS_12OnceCallbackIFvNS3_22CtapDeviceResponseCodeEEEESD_N4absl8optionalINS3_3pin13EmptyResponseEEEEJNS_7WeakPtrIS4_EESB_SF_EEEFvSD_SK_EE7RunOnceEPNS0_13BindStateBaseESD_OSK_ to void ()*), void (%"class.base::internal::BindStateBase"*)* nonnull @_ZN4base8internal9BindStateIMN6device27CredentialManagementHandlerEFvNSt3__16vectorINS5_IhNS4_9allocatorIhEEEENS6_IS8_EEEENS_12OnceCallbackIFvNS2_22CtapDeviceResponseCodeEEEESC_N4absl8optionalINS2_3pin13EmptyResponseEEEEJNS_7WeakPtrIS3_EESA_SE_EE7DestroyEPKNS0_13BindStateBaseE, i1 (%"class.base::internal::BindStateBase"*, i32)* nonnull @_ZN4base8internal23QueryCancellationTraitsINS0_9BindStateIMN6device27CredentialManagementHandlerEFvNSt3__16vectorINS6_IhNS5_9allocatorIhEEEENS7_IS9_EEEENS_12OnceCallbackIFvNS3_22CtapDeviceResponseCodeEEEESD_N4absl8optionalINS3_3pin13EmptyResponseEEEEJNS_7WeakPtrIS4_EESB_SF_EEEEEbPKNS0_13BindStateBaseENSQ_21CancellationQueryModeE) #10, !noalias !76
  %86 = getelementptr inbounds i8, i8* %84, i64 32
  %87 = bitcast i8* %86 to <2 x i64>*
  store <2 x i64> <i64 ptrtoint (void (%"class.device::CredentialManagementHandler"*, %"class.std::__1::vector.120"*, %"class.base::OnceCallback.113"*, i8, i8)* @_ZN6device27CredentialManagementHandler19OnDeleteCredentialsENSt3__16vectorINS2_IhNS1_9allocatorIhEEEENS3_IS5_EEEEN4base12OnceCallbackIFvNS_22CtapDeviceResponseCodeEEEESA_N4absl8optionalINS_3pin13EmptyResponseEEE to i64), i64 0>, <2 x i64>* %87, align 8, !noalias !76
  %88 = getelementptr inbounds i8, i8* %84, i64 48
  %89 = bitcast i8* %88 to %"class.base::internal::WeakReference"*
  %90 = getelementptr inbounds %"class.base::WeakPtr", %"class.base::WeakPtr"* %10, i64 0, i32 0, i32 0
  call void @_ZN4base8internal13WeakReferenceC1EOS1_(%"class.base::internal::WeakReference"* %89, %"class.base::internal::WeakReference"* nonnull dereferenceable(8) %90) #10, !noalias !76
  %91 = getelementptr inbounds i8, i8* %84, i64 56
  %92 = bitcast i8* %91 to i64*
  %93 = getelementptr inbounds %"class.base::WeakPtr", %"class.base::WeakPtr"* %10, i64 0, i32 0, i32 1
  %94 = load i64, i64* %93, align 8, !noalias !76
  store i64 %94, i64* %92, align 8, !noalias !76
  %95 = getelementptr inbounds i8, i8* %84, i64 64
  %96 = bitcast %"class.std::__1::vector.120"* %1 to <2 x i64>*
  %97 = load <2 x i64>, <2 x i64>* %96, align 8, !noalias !76
  %98 = bitcast i8* %95 to <2 x i64>*
  store <2 x i64> %97, <2 x i64>* %98, align 8, !noalias !76
  %99 = getelementptr inbounds %"class.std::__1::vector.120", %"class.std::__1::vector.120"* %1, i64 0, i32 0, i32 2, i32 0, i32 0
  %100 = bitcast %"class.std::__1::vector.32"** %99 to i64*
  %101 = load i64, i64* %100, align 8, !noalias !76
  %102 = getelementptr inbounds i8, i8* %84, i64 80
  %103 = bitcast i8* %102 to i64*
  store i64 %101, i64* %103, align 8, !noalias !76
  %104 = bitcast %"class.std::__1::vector.120"* %1 to i8*
  call void @llvm.memset.p0i8.i64(i8* align 8 %104, i8 0, i64 24, i1 false) #10, !noalias !76
  %105 = getelementptr inbounds i8, i8* %84, i64 88
  %106 = getelementptr inbounds %"class.base::OnceCallback.113", %"class.base::OnceCallback.113"* %2, i64 0, i32 0, i32 0, i32 0
  %107 = bitcast %"class.base::OnceCallback.113"* %2 to i64*
  %108 = load i64, i64* %107, align 8, !noalias !76
  %109 = bitcast i8* %105 to i64*
  store i64 %108, i64* %109, align 8, !noalias !76
  store %"class.base::internal::BindStateBase"* null, %"class.base::internal::BindStateBase"** %106, align 8, !noalias !76
  %110 = bitcast %"class.base::OnceCallback.114"* %9 to i8**
  store i8* %84, i8** %110, align 8, !alias.scope !76
  %111 = bitcast %"class.device::FidoAuthenticator"* %71 to void (%"class.device::FidoAuthenticator"*, %"class.device::pin::TokenResponse"*, %"class.device::PublicKeyCredentialDescriptor"*, %"class.base::OnceCallback.114"*)***
  %112 = load void (%"class.device::FidoAuthenticator"*, %"class.device::pin::TokenResponse"*, %"class.device::PublicKeyCredentialDescriptor"*, %"class.base::OnceCallback.114"*)**, void (%"class.device::FidoAuthenticator"*, %"class.device::pin::TokenResponse"*, %"class.device::PublicKeyCredentialDescriptor"*, %"class.base::OnceCallback.114"*)*** %111, align 8
  %113 = getelementptr inbounds void (%"class.device::FidoAuthenticator"*, %"class.device::pin::TokenResponse"*, %"class.device::PublicKeyCredentialDescriptor"*, %"class.base::OnceCallback.114"*)*, void (%"class.device::FidoAuthenticator"*, %"class.device::pin::TokenResponse"*, %"class.device::PublicKeyCredentialDescriptor"*, %"class.base::OnceCallback.114"*)** %112, i64 21
  %114 = load void (%"class.device::FidoAuthenticator"*, %"class.device::pin::TokenResponse"*, %"class.device::PublicKeyCredentialDescriptor"*, %"class.base::OnceCallback.114"*)*, void (%"class.device::FidoAuthenticator"*, %"class.device::pin::TokenResponse"*, %"class.device::PublicKeyCredentialDescriptor"*, %"class.base::OnceCallback.114"*)** %113, align 8
  call void %114(%"class.device::FidoAuthenticator"* %71, %"class.device::pin::TokenResponse"* dereferenceable(32) %77, %"class.device::PublicKeyCredentialDescriptor"* nonnull dereferenceable(56) %6, %"class.base::OnceCallback.114"* nonnull %9) #10
  %115 = getelementptr inbounds %"class.base::OnceCallback.114", %"class.base::OnceCallback.114"* %9, i64 0, i32 0
  call void @_ZN4base8internal12CallbackBaseD2Ev(%"class.base::internal::CallbackBase"* nonnull %115) #10
  call void @_ZN4base8internal11WeakPtrBaseD2Ev(%"class.base::internal::WeakPtrBase"* nonnull %83) #10
  call void @llvm.lifetime.end.p0i8(i64 16, i8* nonnull %78) #10
  call void @_ZN6device29PublicKeyCredentialDescriptorD1Ev(%"class.device::PublicKeyCredentialDescriptor"* nonnull %6) #10
  call void @llvm.lifetime.end.p0i8(i64 56, i8* nonnull %32) #10
  br label %116

116:                                              ; preds = %3, %76, %20
  ret void
}

; Function Attrs: nounwind ssp uwtable
define hidden void @_ZN6device27CredentialManagementHandler22OnEnumerateCredentialsENS_27CredentialsMetadataResponseENS_22CtapDeviceResponseCodeEN4absl8optionalINSt3__16vectorINS_38AggregatedEnumerateCredentialsResponseENS5_9allocatorIS7_EEEEEE(%"class.device::CredentialManagementHandler"* nocapture, i64, i64, i8 zeroext, %"class.absl::optional.162"* nocapture) #0 align 2 {
  %6 = alloca %"class.absl::optional.157", align 8
  %7 = alloca %"class.base::OnceCallback.83", align 8
  %8 = alloca %"class.absl::optional.157", align 8
  %9 = alloca %"class.base::OnceCallback.83", align 8
  %10 = alloca %"class.absl::optional.162", align 8
  %11 = alloca %"class.absl::optional.162", align 8
  %12 = icmp eq i8 %3, 0
  br i1 %12, label %52, label %13

13:                                               ; preds = %5
  %14 = getelementptr inbounds %"class.device::CredentialManagementHandler", %"class.device::CredentialManagementHandler"* %0, i64 0, i32 1
  store i32 8, i32* %14, align 8
  %15 = getelementptr inbounds %"class.device::CredentialManagementHandler", %"class.device::CredentialManagementHandler"* %0, i64 0, i32 6
  %16 = getelementptr inbounds %"class.absl::optional.162", %"class.absl::optional.162"* %10, i64 0, i32 0, i32 0, i32 0, i32 0
  store i8 0, i8* %16, align 8
  %17 = getelementptr inbounds %"class.absl::optional.162", %"class.absl::optional.162"* %10, i64 0, i32 0, i32 0, i32 0, i32 1
  %18 = bitcast %union.anon.166* %17 to i8*
  call void @llvm.memset.p0i8.i64(i8* align 8 %18, i8 0, i64 24, i1 false) #10
  %19 = getelementptr inbounds %"class.absl::optional.157", %"class.absl::optional.157"* %8, i64 0, i32 0, i32 0, i32 0, i32 0
  call void @llvm.lifetime.start.p0i8(i64 16, i8* nonnull %19)
  store i8 0, i8* %19, align 8
  %20 = bitcast %"class.base::OnceCallback.83"* %9 to i8*
  call void @llvm.lifetime.start.p0i8(i64 8, i8* nonnull %20) #10
  %21 = getelementptr inbounds %"class.base::OnceCallback.83", %"class.base::OnceCallback.83"* %15, i64 0, i32 0, i32 0, i32 0
  %22 = bitcast %"class.base::OnceCallback.83"* %15 to i64*
  %23 = load i64, i64* %22, align 8
  %24 = bitcast %"class.base::OnceCallback.83"* %9 to i64*
  store i64 %23, i64* %24, align 8
  store %"class.base::internal::BindStateBase"* null, %"class.base::internal::BindStateBase"** %21, align 8
  %25 = getelementptr inbounds %"class.base::OnceCallback.83", %"class.base::OnceCallback.83"* %9, i64 0, i32 0
  %26 = inttoptr i64 %23 to %"class.base::internal::BindStateBase"*
  %27 = getelementptr inbounds %"class.base::internal::BindStateBase", %"class.base::internal::BindStateBase"* %26, i64 0, i32 1
  %28 = bitcast void ()** %27 to void (%"class.base::internal::BindStateBase"*, i8, %"class.absl::optional.162"*, %"class.absl::optional.157"*)**
  %29 = load void (%"class.base::internal::BindStateBase"*, i8, %"class.absl::optional.162"*, %"class.absl::optional.157"*)*, void (%"class.base::internal::BindStateBase"*, i8, %"class.absl::optional.162"*, %"class.absl::optional.157"*)** %28, align 8
  call void %29(%"class.base::internal::BindStateBase"* %26, i8 zeroext %3, %"class.absl::optional.162"* nonnull dereferenceable(32) %10, %"class.absl::optional.157"* nonnull dereferenceable(16) %8) #10
  call void @_ZN4base8internal12CallbackBaseD2Ev(%"class.base::internal::CallbackBase"* nonnull %25) #10
  call void @llvm.lifetime.end.p0i8(i64 8, i8* nonnull %20) #10
  call void @llvm.lifetime.end.p0i8(i64 16, i8* nonnull %19)
  %30 = load i8, i8* %16, align 8, !range !2
  %31 = icmp eq i8 %30, 0
  br i1 %31, label %130, label %32

32:                                               ; preds = %13
  %33 = getelementptr inbounds %"class.absl::optional.162", %"class.absl::optional.162"* %10, i64 0, i32 0, i32 0, i32 0, i32 1, i32 0
  %34 = getelementptr inbounds %"class.std::__1::vector.167", %"class.std::__1::vector.167"* %33, i64 0, i32 0, i32 0
  %35 = load %"struct.device::AggregatedEnumerateCredentialsResponse"*, %"struct.device::AggregatedEnumerateCredentialsResponse"** %34, align 8
  %36 = icmp eq %"struct.device::AggregatedEnumerateCredentialsResponse"* %35, null
  br i1 %36, label %51, label %37

37:                                               ; preds = %32
  %38 = bitcast %"struct.device::AggregatedEnumerateCredentialsResponse"* %35 to i8*
  %39 = getelementptr inbounds %"class.absl::optional.162", %"class.absl::optional.162"* %10, i64 0, i32 0, i32 0, i32 0, i32 1, i32 0, i32 0, i32 1
  %40 = load %"struct.device::AggregatedEnumerateCredentialsResponse"*, %"struct.device::AggregatedEnumerateCredentialsResponse"** %39, align 8
  %41 = icmp eq %"struct.device::AggregatedEnumerateCredentialsResponse"* %40, %35
  br i1 %41, label %49, label %42

42:                                               ; preds = %37, %42
  %43 = phi %"struct.device::AggregatedEnumerateCredentialsResponse"* [ %44, %42 ], [ %40, %37 ]
  %44 = getelementptr inbounds %"struct.device::AggregatedEnumerateCredentialsResponse", %"struct.device::AggregatedEnumerateCredentialsResponse"* %43, i64 -1
  call void @_ZN6device38AggregatedEnumerateCredentialsResponseD1Ev(%"struct.device::AggregatedEnumerateCredentialsResponse"* %44) #10
  %45 = icmp eq %"struct.device::AggregatedEnumerateCredentialsResponse"* %44, %35
  br i1 %45, label %46, label %42

46:                                               ; preds = %42
  %47 = bitcast %"class.std::__1::vector.167"* %33 to i8**
  %48 = load i8*, i8** %47, align 8
  br label %49

49:                                               ; preds = %46, %37
  %50 = phi i8* [ %48, %46 ], [ %38, %37 ]
  store %"struct.device::AggregatedEnumerateCredentialsResponse"* %35, %"struct.device::AggregatedEnumerateCredentialsResponse"** %39, align 8
  call void @_ZdlPv(i8* %50) #11
  br label %51

51:                                               ; preds = %49, %32
  store i8 0, i8* %16, align 8
  br label %130

52:                                               ; preds = %5
  %53 = getelementptr inbounds %"class.absl::optional.162", %"class.absl::optional.162"* %4, i64 0, i32 0, i32 0, i32 0, i32 0
  %54 = load i8, i8* %53, align 8, !range !2
  %55 = icmp eq i8 %54, 0
  br i1 %55, label %56, label %57, !prof !11

56:                                               ; preds = %52
  tail call void @llvm.trap() #10
  unreachable

57:                                               ; preds = %52
  %58 = getelementptr inbounds %"class.absl::optional.162", %"class.absl::optional.162"* %4, i64 0, i32 0, i32 0, i32 0, i32 1, i32 0
  %59 = getelementptr inbounds %"class.std::__1::vector.167", %"class.std::__1::vector.167"* %58, i64 0, i32 0, i32 0
  %60 = load %"struct.device::AggregatedEnumerateCredentialsResponse"*, %"struct.device::AggregatedEnumerateCredentialsResponse"** %59, align 8
  %61 = getelementptr inbounds %"class.absl::optional.162", %"class.absl::optional.162"* %4, i64 0, i32 0, i32 0, i32 0, i32 1, i32 0, i32 0, i32 1
  %62 = load %"struct.device::AggregatedEnumerateCredentialsResponse"*, %"struct.device::AggregatedEnumerateCredentialsResponse"** %61, align 8
  %63 = icmp eq %"struct.device::AggregatedEnumerateCredentialsResponse"* %60, %62
  br i1 %63, label %68, label %122

64:                                               ; preds = %122
  %65 = load i8, i8* %53, align 8, !range !2
  %66 = icmp eq i8 %65, 0
  br i1 %66, label %67, label %68, !prof !11

67:                                               ; preds = %64
  tail call void @llvm.trap() #10
  unreachable

68:                                               ; preds = %57, %64
  %69 = load %"struct.device::AggregatedEnumerateCredentialsResponse"*, %"struct.device::AggregatedEnumerateCredentialsResponse"** %59, align 8
  %70 = load %"struct.device::AggregatedEnumerateCredentialsResponse"*, %"struct.device::AggregatedEnumerateCredentialsResponse"** %61, align 8
  tail call fastcc void @"_ZNSt3__16__sortIRZN6device27CredentialManagementHandler22OnEnumerateCredentialsENS1_27CredentialsMetadataResponseENS1_22CtapDeviceResponseCodeEN4absl8optionalINS_6vectorINS1_38AggregatedEnumerateCredentialsResponseENS_9allocatorIS8_EEEEEEE3$_1PS8_EEvT0_SG_T_"(%"struct.device::AggregatedEnumerateCredentialsResponse"* %69, %"struct.device::AggregatedEnumerateCredentialsResponse"* %70) #10
  %71 = getelementptr inbounds %"class.device::CredentialManagementHandler", %"class.device::CredentialManagementHandler"* %0, i64 0, i32 1
  store i32 4, i32* %71, align 8
  %72 = getelementptr inbounds %"class.device::CredentialManagementHandler", %"class.device::CredentialManagementHandler"* %0, i64 0, i32 6
  %73 = getelementptr inbounds %"class.absl::optional.162", %"class.absl::optional.162"* %11, i64 0, i32 0, i32 0, i32 0, i32 0
  call void @llvm.memset.p0i8.i64(i8* nonnull align 8 %73, i8 0, i64 32, i1 false) #10
  %74 = load i8, i8* %53, align 8, !range !2
  %75 = icmp eq i8 %74, 0
  br i1 %75, label %87, label %76

76:                                               ; preds = %68
  %77 = getelementptr inbounds %"class.absl::optional.162", %"class.absl::optional.162"* %11, i64 0, i32 0, i32 0, i32 0, i32 1, i32 0
  %78 = bitcast %"class.std::__1::vector.167"* %58 to <2 x i64>*
  %79 = load <2 x i64>, <2 x i64>* %78, align 8
  %80 = bitcast %"class.std::__1::vector.167"* %77 to <2 x i64>*
  store <2 x i64> %79, <2 x i64>* %80, align 8
  %81 = getelementptr inbounds %"class.absl::optional.162", %"class.absl::optional.162"* %4, i64 0, i32 0, i32 0, i32 0, i32 1, i32 0, i32 0, i32 2, i32 0, i32 0
  %82 = bitcast %"struct.device::AggregatedEnumerateCredentialsResponse"** %81 to i64*
  %83 = load i64, i64* %82, align 8
  %84 = getelementptr inbounds %"class.absl::optional.162", %"class.absl::optional.162"* %11, i64 0, i32 0, i32 0, i32 0, i32 1, i32 0, i32 0, i32 2, i32 0, i32 0
  %85 = bitcast %"struct.device::AggregatedEnumerateCredentialsResponse"** %84 to i64*
  store i64 %83, i64* %85, align 8
  %86 = bitcast %"class.std::__1::vector.167"* %58 to i8*
  tail call void @llvm.memset.p0i8.i64(i8* align 8 %86, i8 0, i64 24, i1 false) #10
  store i8 1, i8* %73, align 8
  br label %87

87:                                               ; preds = %68, %76
  %88 = getelementptr inbounds %"class.absl::optional.157", %"class.absl::optional.157"* %6, i64 0, i32 0, i32 0, i32 0, i32 0
  call void @llvm.lifetime.start.p0i8(i64 16, i8* nonnull %88)
  store i8 1, i8* %88, align 8
  %89 = getelementptr inbounds %"class.absl::optional.157", %"class.absl::optional.157"* %6, i64 0, i32 0, i32 0, i32 0, i32 1, i32 0
  store i64 %2, i64* %89, align 8
  %90 = bitcast %"class.base::OnceCallback.83"* %7 to i8*
  call void @llvm.lifetime.start.p0i8(i64 8, i8* nonnull %90) #10
  %91 = getelementptr inbounds %"class.base::OnceCallback.83", %"class.base::OnceCallback.83"* %72, i64 0, i32 0, i32 0, i32 0
  %92 = bitcast %"class.base::OnceCallback.83"* %72 to i64*
  %93 = load i64, i64* %92, align 8
  %94 = bitcast %"class.base::OnceCallback.83"* %7 to i64*
  store i64 %93, i64* %94, align 8
  store %"class.base::internal::BindStateBase"* null, %"class.base::internal::BindStateBase"** %91, align 8
  %95 = getelementptr inbounds %"class.base::OnceCallback.83", %"class.base::OnceCallback.83"* %7, i64 0, i32 0
  %96 = inttoptr i64 %93 to %"class.base::internal::BindStateBase"*
  %97 = getelementptr inbounds %"class.base::internal::BindStateBase", %"class.base::internal::BindStateBase"* %96, i64 0, i32 1
  %98 = bitcast void ()** %97 to void (%"class.base::internal::BindStateBase"*, i8, %"class.absl::optional.162"*, %"class.absl::optional.157"*)**
  %99 = load void (%"class.base::internal::BindStateBase"*, i8, %"class.absl::optional.162"*, %"class.absl::optional.157"*)*, void (%"class.base::internal::BindStateBase"*, i8, %"class.absl::optional.162"*, %"class.absl::optional.157"*)** %98, align 8
  call void %99(%"class.base::internal::BindStateBase"* %96, i8 zeroext 0, %"class.absl::optional.162"* nonnull dereferenceable(32) %11, %"class.absl::optional.157"* nonnull dereferenceable(16) %6) #10
  call void @_ZN4base8internal12CallbackBaseD2Ev(%"class.base::internal::CallbackBase"* nonnull %95) #10
  call void @llvm.lifetime.end.p0i8(i64 8, i8* nonnull %90) #10
  call void @llvm.lifetime.end.p0i8(i64 16, i8* nonnull %88)
  %100 = load i8, i8* %73, align 8, !range !2
  %101 = icmp eq i8 %100, 0
  br i1 %101, label %130, label %102

102:                                              ; preds = %87
  %103 = getelementptr inbounds %"class.absl::optional.162", %"class.absl::optional.162"* %11, i64 0, i32 0, i32 0, i32 0, i32 1, i32 0
  %104 = getelementptr inbounds %"class.std::__1::vector.167", %"class.std::__1::vector.167"* %103, i64 0, i32 0, i32 0
  %105 = load %"struct.device::AggregatedEnumerateCredentialsResponse"*, %"struct.device::AggregatedEnumerateCredentialsResponse"** %104, align 8
  %106 = icmp eq %"struct.device::AggregatedEnumerateCredentialsResponse"* %105, null
  br i1 %106, label %121, label %107

107:                                              ; preds = %102
  %108 = bitcast %"struct.device::AggregatedEnumerateCredentialsResponse"* %105 to i8*
  %109 = getelementptr inbounds %"class.absl::optional.162", %"class.absl::optional.162"* %11, i64 0, i32 0, i32 0, i32 0, i32 1, i32 0, i32 0, i32 1
  %110 = load %"struct.device::AggregatedEnumerateCredentialsResponse"*, %"struct.device::AggregatedEnumerateCredentialsResponse"** %109, align 8
  %111 = icmp eq %"struct.device::AggregatedEnumerateCredentialsResponse"* %110, %105
  br i1 %111, label %119, label %112

112:                                              ; preds = %107, %112
  %113 = phi %"struct.device::AggregatedEnumerateCredentialsResponse"* [ %114, %112 ], [ %110, %107 ]
  %114 = getelementptr inbounds %"struct.device::AggregatedEnumerateCredentialsResponse", %"struct.device::AggregatedEnumerateCredentialsResponse"* %113, i64 -1
  call void @_ZN6device38AggregatedEnumerateCredentialsResponseD1Ev(%"struct.device::AggregatedEnumerateCredentialsResponse"* %114) #10
  %115 = icmp eq %"struct.device::AggregatedEnumerateCredentialsResponse"* %114, %105
  br i1 %115, label %116, label %112

116:                                              ; preds = %112
  %117 = bitcast %"class.std::__1::vector.167"* %103 to i8**
  %118 = load i8*, i8** %117, align 8
  br label %119

119:                                              ; preds = %116, %107
  %120 = phi i8* [ %118, %116 ], [ %108, %107 ]
  store %"struct.device::AggregatedEnumerateCredentialsResponse"* %105, %"struct.device::AggregatedEnumerateCredentialsResponse"** %109, align 8
  call void @_ZdlPv(i8* %120) #11
  br label %121

121:                                              ; preds = %119, %102
  store i8 0, i8* %73, align 8
  br label %130

122:                                              ; preds = %57, %122
  %123 = phi %"struct.device::AggregatedEnumerateCredentialsResponse"* [ %128, %122 ], [ %60, %57 ]
  %124 = getelementptr inbounds %"struct.device::AggregatedEnumerateCredentialsResponse", %"struct.device::AggregatedEnumerateCredentialsResponse"* %123, i64 0, i32 1, i32 0, i32 0
  %125 = load %"struct.device::EnumerateCredentialsResponse"*, %"struct.device::EnumerateCredentialsResponse"** %124, align 8
  %126 = getelementptr inbounds %"struct.device::AggregatedEnumerateCredentialsResponse", %"struct.device::AggregatedEnumerateCredentialsResponse"* %123, i64 0, i32 1, i32 0, i32 1
  %127 = load %"struct.device::EnumerateCredentialsResponse"*, %"struct.device::EnumerateCredentialsResponse"** %126, align 8
  tail call fastcc void @"_ZNSt3__16__sortIRZN6device27CredentialManagementHandler22OnEnumerateCredentialsENS1_27CredentialsMetadataResponseENS1_22CtapDeviceResponseCodeEN4absl8optionalINS_6vectorINS1_38AggregatedEnumerateCredentialsResponseENS_9allocatorIS8_EEEEEEE3$_0PNS1_28EnumerateCredentialsResponseEEEvT0_SH_T_"(%"struct.device::EnumerateCredentialsResponse"* %125, %"struct.device::EnumerateCredentialsResponse"* %127) #10
  %128 = getelementptr inbounds %"struct.device::AggregatedEnumerateCredentialsResponse", %"struct.device::AggregatedEnumerateCredentialsResponse"* %123, i64 1
  %129 = icmp eq %"struct.device::AggregatedEnumerateCredentialsResponse"* %128, %62
  br i1 %129, label %64, label %122

130:                                              ; preds = %121, %87, %51, %13
  ret void
}

; Function Attrs: nounwind ssp uwtable
define hidden void @_ZN6device27CredentialManagementHandler20AuthenticatorRemovedEPNS_17FidoDiscoveryBaseEPNS_17FidoAuthenticatorE(%"class.device::CredentialManagementHandler"*, %"class.device::FidoDiscoveryBase"*, %"class.device::FidoAuthenticator"*) unnamed_addr #0 align 2 {
  %4 = alloca %"class.base::OnceCallback.84", align 8
  %5 = getelementptr inbounds %"class.device::CredentialManagementHandler", %"class.device::CredentialManagementHandler"* %0, i64 0, i32 0
  tail call void @_ZN6device22FidoRequestHandlerBase20AuthenticatorRemovedEPNS_17FidoDiscoveryBaseEPNS_17FidoAuthenticatorE(%"class.device::FidoRequestHandlerBase"* %5, %"class.device::FidoDiscoveryBase"* %1, %"class.device::FidoAuthenticator"* %2) #10
  %6 = getelementptr inbounds %"class.device::CredentialManagementHandler", %"class.device::CredentialManagementHandler"* %0, i64 0, i32 2
  %7 = load %"class.device::FidoAuthenticator"*, %"class.device::FidoAuthenticator"** %6, align 8
  %8 = icmp eq %"class.device::FidoAuthenticator"* %7, %2
  br i1 %8, label %9, label %25

9:                                                ; preds = %3
  %10 = getelementptr inbounds %"class.device::CredentialManagementHandler", %"class.device::CredentialManagementHandler"* %0, i64 0, i32 1
  %11 = load i32, i32* %10, align 8
  %12 = icmp eq i32 %11, 8
  br i1 %12, label %25, label %13

13:                                               ; preds = %9
  store %"class.device::FidoAuthenticator"* null, %"class.device::FidoAuthenticator"** %6, align 8
  store i32 8, i32* %10, align 8
  %14 = getelementptr inbounds %"class.device::CredentialManagementHandler", %"class.device::CredentialManagementHandler"* %0, i64 0, i32 7
  %15 = bitcast %"class.base::OnceCallback.84"* %4 to i8*
  call void @llvm.lifetime.start.p0i8(i64 8, i8* nonnull %15) #10
  %16 = getelementptr inbounds %"class.base::OnceCallback.84", %"class.base::OnceCallback.84"* %14, i64 0, i32 0, i32 0, i32 0
  %17 = bitcast %"class.base::OnceCallback.84"* %14 to i64*
  %18 = load i64, i64* %17, align 8
  %19 = bitcast %"class.base::OnceCallback.84"* %4 to i64*
  store i64 %18, i64* %19, align 8
  store %"class.base::internal::BindStateBase"* null, %"class.base::internal::BindStateBase"** %16, align 8
  %20 = getelementptr inbounds %"class.base::OnceCallback.84", %"class.base::OnceCallback.84"* %4, i64 0, i32 0
  %21 = inttoptr i64 %18 to %"class.base::internal::BindStateBase"*
  %22 = getelementptr inbounds %"class.base::internal::BindStateBase", %"class.base::internal::BindStateBase"* %21, i64 0, i32 1
  %23 = bitcast void ()** %22 to void (%"class.base::internal::BindStateBase"*, i32)**
  %24 = load void (%"class.base::internal::BindStateBase"*, i32)*, void (%"class.base::internal::BindStateBase"*, i32)** %23, align 8
  tail call void %24(%"class.base::internal::BindStateBase"* %21, i32 0) #10
  call void @_ZN4base8internal12CallbackBaseD2Ev(%"class.base::internal::CallbackBase"* nonnull %20) #10
  call void @llvm.lifetime.end.p0i8(i64 8, i8* nonnull %15) #10
  br label %25

25:                                               ; preds = %3, %9, %13
  ret void
}

declare void @_ZN6device22FidoRequestHandlerBase20AuthenticatorRemovedEPNS_17FidoDiscoveryBaseEPNS_17FidoAuthenticatorE(%"class.device::FidoRequestHandlerBase"*, %"class.device::FidoDiscoveryBase"*, %"class.device::FidoAuthenticator"*) unnamed_addr #1

declare void @_ZN6device22FidoRequestHandlerBase16DiscoveryStartedEPNS_17FidoDiscoveryBaseEbNSt3__16vectorIPNS_17FidoAuthenticatorENS3_9allocatorIS6_EEEE(%"class.device::FidoRequestHandlerBase"*, %"class.device::FidoDiscoveryBase"*, i1 zeroext, %"class.std::__1::vector.185"*) unnamed_addr #1

declare void @_ZN6device22FidoRequestHandlerBase18AuthenticatorAddedEPNS_17FidoDiscoveryBaseEPNS_17FidoAuthenticatorE(%"class.device::FidoRequestHandlerBase"*, %"class.device::FidoDiscoveryBase"*, %"class.device::FidoAuthenticator"*) unnamed_addr #1

declare void @_ZN6device22FidoRequestHandlerBase28OnBluetoothAdapterEnumeratedEbbbb(%"class.device::FidoRequestHandlerBase"*, i1 zeroext, i1 zeroext, i1 zeroext, i1 zeroext) unnamed_addr #1

declare zeroext i1 @_ZNK6device22FidoRequestHandlerBase16HasAuthenticatorERKNSt3__112basic_stringIcNS1_11char_traitsIcEENS1_9allocatorIcEEEE(%"class.device::FidoRequestHandlerBase"*, %"class.std::__1::basic_string"* dereferenceable(24)) unnamed_addr #1

declare void @_ZN6device22FidoRequestHandlerBase27GetPlatformCredentialStatusEPNS_17FidoAuthenticatorE(%"class.device::FidoRequestHandlerBase"*, %"class.device::FidoAuthenticator"*) unnamed_addr #1

; Function Attrs: nounwind
declare void @_ZN6device3pin13TokenResponseD1Ev(%"class.device::pin::TokenResponse"*) unnamed_addr #2

declare dereferenceable(32) %"class.device::pin::TokenResponse"* @_ZN6device3pin13TokenResponseaSERKS1_(%"class.device::pin::TokenResponse"*, %"class.device::pin::TokenResponse"* dereferenceable(32)) local_unnamed_addr #1

declare void @_ZN6device3pin13TokenResponseC1ERKS1_(%"class.device::pin::TokenResponse"*, %"class.device::pin::TokenResponse"* dereferenceable(32)) unnamed_addr #1

; Function Attrs: nounwind
declare dereferenceable(8) %"class.base::internal::CallbackBase"* @_ZN4base8internal12CallbackBaseaSEOS1_(%"class.base::internal::CallbackBase"*, %"class.base::internal::CallbackBase"* dereferenceable(8)) local_unnamed_addr #2

; Function Attrs: nounwind
declare void @_ZN4cbor5ValueD1Ev(%"class.cbor::Value"*) unnamed_addr #2

; Function Attrs: nounwind
declare void @_ZN6device38AggregatedEnumerateCredentialsResponseD1Ev(%"struct.device::AggregatedEnumerateCredentialsResponse"*) unnamed_addr #2

; Function Attrs: argmemonly nounwind
declare void @llvm.memcpy.p0i8.p0i8.i64(i8* nocapture writeonly, i8* nocapture readonly, i64, i1 immarg) #4

declare void @_ZN4base8internal18WeakPtrFactoryBaseC2Em(%"class.base::internal::WeakPtrFactoryBase"*, i64) unnamed_addr #1

declare void @_ZNK4base8internal18WeakReferenceOwner6GetRefEv(%"class.base::internal::WeakReference"* sret, %"class.base::internal::WeakReferenceOwner"*) local_unnamed_addr #1

; Function Attrs: nounwind
declare void @_ZN4base8internal13WeakReferenceD1Ev(%"class.base::internal::WeakReference"*) unnamed_addr #2

declare void @_ZN4base8internal11WeakPtrBaseC2ERKNS0_13WeakReferenceEm(%"class.base::internal::WeakPtrBase"*, %"class.base::internal::WeakReference"* dereferenceable(8), i64) unnamed_addr #1

; Function Attrs: nounwind ssp uwtable
define linkonce_odr hidden void @_ZN4base8internal7InvokerINS0_9BindStateIMN6device27CredentialManagementHandlerEFvPNS3_17FidoAuthenticatorEEJNS_7WeakPtrIS4_EES6_EEEFvvEE7RunOnceEPNS0_13BindStateBaseE(%"class.base::internal::BindStateBase"*) #0 comdat align 2 {
  %2 = alloca %"class.logging::CheckError", align 8
  %3 = getelementptr inbounds %"class.base::internal::BindStateBase", %"class.base::internal::BindStateBase"* %0, i64 1
  %4 = getelementptr inbounds %"class.base::internal::BindStateBase", %"class.base::internal::BindStateBase"* %0, i64 1, i32 2
  %5 = getelementptr inbounds void (%"class.base::internal::BindStateBase"*)*, void (%"class.base::internal::BindStateBase"*)** %4, i64 2
  %6 = bitcast void (%"class.base::internal::BindStateBase"*)** %5 to %"class.device::FidoAuthenticator"**
  %7 = bitcast void (%"class.base::internal::BindStateBase"*)** %4 to %"class.base::internal::WeakReference"*
  %8 = tail call zeroext i1 @_ZNK4base8internal13WeakReference7IsValidEv(%"class.base::internal::WeakReference"* %7) #10
  br i1 %8, label %9, label %45

9:                                                ; preds = %1
  %10 = getelementptr inbounds void (%"class.base::internal::BindStateBase"*)*, void (%"class.base::internal::BindStateBase"*)** %4, i64 1
  %11 = bitcast void (%"class.base::internal::BindStateBase"*)** %10 to %"class.device::CredentialManagementHandler"**
  %12 = load %"class.device::CredentialManagementHandler"*, %"class.device::CredentialManagementHandler"** %11, align 8
  %13 = icmp eq %"class.device::CredentialManagementHandler"* %12, null
  br i1 %13, label %45, label %14

14:                                               ; preds = %9
  %15 = bitcast %"class.base::internal::BindStateBase"* %3 to i64*
  %16 = load i64, i64* %15, align 8
  %17 = getelementptr inbounds %"class.base::internal::BindStateBase", %"class.base::internal::BindStateBase"* %0, i64 1, i32 1
  %18 = bitcast void ()** %17 to i64*
  %19 = load i64, i64* %18, align 8
  %20 = tail call zeroext i1 @_ZNK4base8internal13WeakReference7IsValidEv(%"class.base::internal::WeakReference"* %7) #10
  br i1 %20, label %24, label %21

21:                                               ; preds = %14
  %22 = bitcast %"class.logging::CheckError"* %2 to i8*
  call void @llvm.lifetime.start.p0i8(i64 8, i8* nonnull %22) #10
  call void @_ZN7logging10CheckError5CheckEPKciS2_(%"class.logging::CheckError"* nonnull sret %2, i8* getelementptr inbounds ([29 x i8], [29 x i8]* @.str, i64 0, i64 0), i32 251, i8* getelementptr inbounds ([15 x i8], [15 x i8]* @.str.1, i64 0, i64 0)) #10
  %23 = call dereferenceable(160) %"class.std::__1::basic_ostream"* @_ZN7logging10CheckError6streamEv(%"class.logging::CheckError"* nonnull %2) #10
  call void @_ZN7logging10CheckErrorD1Ev(%"class.logging::CheckError"* nonnull %2) #10
  call void @llvm.lifetime.end.p0i8(i64 8, i8* nonnull %22) #10
  br label %24

24:                                               ; preds = %21, %14
  %25 = call zeroext i1 @_ZNK4base8internal13WeakReference7IsValidEv(%"class.base::internal::WeakReference"* %7) #10
  %26 = bitcast void (%"class.base::internal::BindStateBase"*)** %10 to i8**
  %27 = load i8*, i8** %26, align 8
  %28 = select i1 %25, i8* %27, i8* null
  %29 = getelementptr inbounds i8, i8* %28, i64 %19
  %30 = bitcast i8* %29 to %"class.device::CredentialManagementHandler"*
  %31 = and i64 %16, 1
  %32 = icmp eq i64 %31, 0
  br i1 %32, label %40, label %33

33:                                               ; preds = %24
  %34 = bitcast i8* %29 to i8**
  %35 = load i8*, i8** %34, align 8
  %36 = add i64 %16, -1
  %37 = getelementptr i8, i8* %35, i64 %36
  %38 = bitcast i8* %37 to void (%"class.device::CredentialManagementHandler"*, %"class.device::FidoAuthenticator"*)**
  %39 = load void (%"class.device::CredentialManagementHandler"*, %"class.device::FidoAuthenticator"*)*, void (%"class.device::CredentialManagementHandler"*, %"class.device::FidoAuthenticator"*)** %38, align 8
  br label %42

40:                                               ; preds = %24
  %41 = inttoptr i64 %16 to void (%"class.device::CredentialManagementHandler"*, %"class.device::FidoAuthenticator"*)*
  br label %42

42:                                               ; preds = %40, %33
  %43 = phi void (%"class.device::CredentialManagementHandler"*, %"class.device::FidoAuthenticator"*)* [ %39, %33 ], [ %41, %40 ]
  %44 = load %"class.device::FidoAuthenticator"*, %"class.device::FidoAuthenticator"** %6, align 8
  call void %43(%"class.device::CredentialManagementHandler"* %30, %"class.device::FidoAuthenticator"* %44) #10
  br label %45

45:                                               ; preds = %1, %9, %42
  ret void
}

declare zeroext i1 @_ZNK4base8internal13WeakReference7IsValidEv(%"class.base::internal::WeakReference"*) local_unnamed_addr #1

declare void @_ZN7logging10CheckError5CheckEPKciS2_(%"class.logging::CheckError"* sret, i8*, i32, i8*) local_unnamed_addr #1

declare dereferenceable(160) %"class.std::__1::basic_ostream"* @_ZN7logging10CheckError6streamEv(%"class.logging::CheckError"*) local_unnamed_addr #1

; Function Attrs: nounwind
declare void @_ZN7logging10CheckErrorD1Ev(%"class.logging::CheckError"*) unnamed_addr #2

; Function Attrs: nobuiltin nofree
declare noalias nonnull i8* @_Znwm(i64) local_unnamed_addr #5

; Function Attrs: nounwind ssp uwtable
define linkonce_odr hidden void @_ZN4base8internal9BindStateIMN6device27CredentialManagementHandlerEFvPNS2_17FidoAuthenticatorEEJNS_7WeakPtrIS3_EES5_EE7DestroyEPKNS0_13BindStateBaseE(%"class.base::internal::BindStateBase"*) #0 comdat align 2 {
  %2 = icmp eq %"class.base::internal::BindStateBase"* %0, null
  br i1 %2, label %7, label %3

3:                                                ; preds = %1
  %4 = getelementptr inbounds %"class.base::internal::BindStateBase", %"class.base::internal::BindStateBase"* %0, i64 1, i32 2
  %5 = bitcast void (%"class.base::internal::BindStateBase"*)** %4 to %"class.base::internal::WeakPtrBase"*
  tail call void @_ZN4base8internal11WeakPtrBaseD2Ev(%"class.base::internal::WeakPtrBase"* %5) #10
  %6 = bitcast %"class.base::internal::BindStateBase"* %0 to i8*
  tail call void @_ZdlPv(i8* %6) #11
  br label %7

7:                                                ; preds = %3, %1
  ret void
}

; Function Attrs: nounwind ssp uwtable
define linkonce_odr hidden zeroext i1 @_ZN4base8internal23QueryCancellationTraitsINS0_9BindStateIMN6device27CredentialManagementHandlerEFvPNS3_17FidoAuthenticatorEEJNS_7WeakPtrIS4_EES6_EEEEEbPKNS0_13BindStateBaseENSC_21CancellationQueryModeE(%"class.base::internal::BindStateBase"*, i32) #0 comdat {
  %3 = getelementptr inbounds %"class.base::internal::BindStateBase", %"class.base::internal::BindStateBase"* %0, i64 1, i32 2
  switch i32 %1, label %16 [
    i32 0, label %4
    i32 1, label %13
  ]

4:                                                ; preds = %2
  %5 = bitcast void (%"class.base::internal::BindStateBase"*)** %3 to %"class.base::internal::WeakReference"*
  %6 = tail call zeroext i1 @_ZNK4base8internal13WeakReference7IsValidEv(%"class.base::internal::WeakReference"* %5) #10
  %7 = getelementptr inbounds void (%"class.base::internal::BindStateBase"*)*, void (%"class.base::internal::BindStateBase"*)** %3, i64 1
  %8 = bitcast void (%"class.base::internal::BindStateBase"*)** %7 to %"class.device::CredentialManagementHandler"**
  %9 = load %"class.device::CredentialManagementHandler"*, %"class.device::CredentialManagementHandler"** %8, align 8
  %10 = icmp ne %"class.device::CredentialManagementHandler"* %9, null
  %11 = and i1 %6, %10
  %12 = xor i1 %11, true
  br label %16

13:                                               ; preds = %2
  %14 = bitcast void (%"class.base::internal::BindStateBase"*)** %3 to %"class.base::internal::WeakReference"*
  %15 = tail call zeroext i1 @_ZNK4base8internal13WeakReference10MaybeValidEv(%"class.base::internal::WeakReference"* %14) #10
  br label %16

16:                                               ; preds = %2, %4, %13
  %17 = phi i1 [ %15, %13 ], [ %12, %4 ], [ false, %2 ]
  ret i1 %17
}

declare void @_ZN4base8internal13BindStateBaseC2EPFvvEPFvPKS1_EPFbS5_NS1_21CancellationQueryModeEE(%"class.base::internal::BindStateBase"*, void ()*, void (%"class.base::internal::BindStateBase"*)*, i1 (%"class.base::internal::BindStateBase"*, i32)*) unnamed_addr #1

declare zeroext i1 @_ZNK4base8internal13WeakReference10MaybeValidEv(%"class.base::internal::WeakReference"*) local_unnamed_addr #1

; Function Attrs: nounwind
declare void @_ZN4base8internal13WeakReferenceC1EOS1_(%"class.base::internal::WeakReference"*, %"class.base::internal::WeakReference"* dereferenceable(8)) unnamed_addr #2

; Function Attrs: cold noreturn nounwind
declare void @llvm.trap() #6

; Function Attrs: nounwind ssp uwtable
define linkonce_odr hidden void @_ZN4base8internal7InvokerINS0_9BindStateIMN6device27CredentialManagementHandlerEFvNS3_22CtapDeviceResponseCodeEN4absl8optionalINS3_3pin15RetriesResponseEEEEJNS_7WeakPtrIS4_EEEEEFvS5_SA_EE7RunOnceEPNS0_13BindStateBaseES5_OSA_(%"class.base::internal::BindStateBase"*, i8 zeroext, %"class.absl::optional.93"* dereferenceable(8)) #0 comdat align 2 {
  %4 = alloca %"class.logging::CheckError", align 8
  %5 = getelementptr inbounds %"class.base::internal::BindStateBase", %"class.base::internal::BindStateBase"* %0, i64 1
  %6 = getelementptr inbounds %"class.base::internal::BindStateBase", %"class.base::internal::BindStateBase"* %0, i64 1, i32 2
  %7 = bitcast void (%"class.base::internal::BindStateBase"*)** %6 to %"class.base::internal::WeakReference"*
  %8 = tail call zeroext i1 @_ZNK4base8internal13WeakReference7IsValidEv(%"class.base::internal::WeakReference"* %7) #10
  br i1 %8, label %9, label %46

9:                                                ; preds = %3
  %10 = getelementptr inbounds void (%"class.base::internal::BindStateBase"*)*, void (%"class.base::internal::BindStateBase"*)** %6, i64 1
  %11 = bitcast void (%"class.base::internal::BindStateBase"*)** %10 to %"class.device::CredentialManagementHandler"**
  %12 = load %"class.device::CredentialManagementHandler"*, %"class.device::CredentialManagementHandler"** %11, align 8
  %13 = icmp eq %"class.device::CredentialManagementHandler"* %12, null
  br i1 %13, label %46, label %14

14:                                               ; preds = %9
  %15 = bitcast %"class.base::internal::BindStateBase"* %5 to i64*
  %16 = load i64, i64* %15, align 8
  %17 = getelementptr inbounds %"class.base::internal::BindStateBase", %"class.base::internal::BindStateBase"* %0, i64 1, i32 1
  %18 = bitcast void ()** %17 to i64*
  %19 = load i64, i64* %18, align 8
  %20 = tail call zeroext i1 @_ZNK4base8internal13WeakReference7IsValidEv(%"class.base::internal::WeakReference"* %7) #10
  br i1 %20, label %24, label %21

21:                                               ; preds = %14
  %22 = bitcast %"class.logging::CheckError"* %4 to i8*
  call void @llvm.lifetime.start.p0i8(i64 8, i8* nonnull %22) #10
  call void @_ZN7logging10CheckError5CheckEPKciS2_(%"class.logging::CheckError"* nonnull sret %4, i8* getelementptr inbounds ([29 x i8], [29 x i8]* @.str, i64 0, i64 0), i32 251, i8* getelementptr inbounds ([15 x i8], [15 x i8]* @.str.1, i64 0, i64 0)) #10
  %23 = call dereferenceable(160) %"class.std::__1::basic_ostream"* @_ZN7logging10CheckError6streamEv(%"class.logging::CheckError"* nonnull %4) #10
  call void @_ZN7logging10CheckErrorD1Ev(%"class.logging::CheckError"* nonnull %4) #10
  call void @llvm.lifetime.end.p0i8(i64 8, i8* nonnull %22) #10
  br label %24

24:                                               ; preds = %21, %14
  %25 = call zeroext i1 @_ZNK4base8internal13WeakReference7IsValidEv(%"class.base::internal::WeakReference"* %7) #10
  %26 = bitcast void (%"class.base::internal::BindStateBase"*)** %10 to i8**
  %27 = load i8*, i8** %26, align 8
  %28 = select i1 %25, i8* %27, i8* null
  %29 = getelementptr inbounds i8, i8* %28, i64 %19
  %30 = bitcast i8* %29 to %"class.device::CredentialManagementHandler"*
  %31 = and i64 %16, 1
  %32 = icmp eq i64 %31, 0
  br i1 %32, label %40, label %33

33:                                               ; preds = %24
  %34 = bitcast i8* %29 to i8**
  %35 = load i8*, i8** %34, align 8
  %36 = add i64 %16, -1
  %37 = getelementptr i8, i8* %35, i64 %36
  %38 = bitcast i8* %37 to void (%"class.device::CredentialManagementHandler"*, i8, i64)**
  %39 = load void (%"class.device::CredentialManagementHandler"*, i8, i64)*, void (%"class.device::CredentialManagementHandler"*, i8, i64)** %38, align 8
  br label %42

40:                                               ; preds = %24
  %41 = inttoptr i64 %16 to void (%"class.device::CredentialManagementHandler"*, i8, i64)*
  br label %42

42:                                               ; preds = %40, %33
  %43 = phi void (%"class.device::CredentialManagementHandler"*, i8, i64)* [ %39, %33 ], [ %41, %40 ]
  %44 = bitcast %"class.absl::optional.93"* %2 to i64*
  %45 = load i64, i64* %44, align 4
  call void %43(%"class.device::CredentialManagementHandler"* %30, i8 zeroext %1, i64 %45) #10
  br label %46

46:                                               ; preds = %3, %9, %42
  ret void
}

; Function Attrs: nounwind ssp uwtable
define linkonce_odr hidden void @_ZN4base8internal9BindStateIMN6device27CredentialManagementHandlerEFvNS2_22CtapDeviceResponseCodeEN4absl8optionalINS2_3pin15RetriesResponseEEEEJNS_7WeakPtrIS3_EEEE7DestroyEPKNS0_13BindStateBaseE(%"class.base::internal::BindStateBase"*) #0 comdat align 2 {
  %2 = icmp eq %"class.base::internal::BindStateBase"* %0, null
  br i1 %2, label %7, label %3

3:                                                ; preds = %1
  %4 = getelementptr inbounds %"class.base::internal::BindStateBase", %"class.base::internal::BindStateBase"* %0, i64 1, i32 2
  %5 = bitcast void (%"class.base::internal::BindStateBase"*)** %4 to %"class.base::internal::WeakPtrBase"*
  tail call void @_ZN4base8internal11WeakPtrBaseD2Ev(%"class.base::internal::WeakPtrBase"* %5) #10
  %6 = bitcast %"class.base::internal::BindStateBase"* %0 to i8*
  tail call void @_ZdlPv(i8* %6) #11
  br label %7

7:                                                ; preds = %3, %1
  ret void
}

; Function Attrs: nounwind ssp uwtable
define linkonce_odr hidden zeroext i1 @_ZN4base8internal23QueryCancellationTraitsINS0_9BindStateIMN6device27CredentialManagementHandlerEFvNS3_22CtapDeviceResponseCodeEN4absl8optionalINS3_3pin15RetriesResponseEEEEJNS_7WeakPtrIS4_EEEEEEEbPKNS0_13BindStateBaseENSG_21CancellationQueryModeE(%"class.base::internal::BindStateBase"*, i32) #0 comdat {
  %3 = getelementptr inbounds %"class.base::internal::BindStateBase", %"class.base::internal::BindStateBase"* %0, i64 1, i32 2
  switch i32 %1, label %16 [
    i32 0, label %4
    i32 1, label %13
  ]

4:                                                ; preds = %2
  %5 = bitcast void (%"class.base::internal::BindStateBase"*)** %3 to %"class.base::internal::WeakReference"*
  %6 = tail call zeroext i1 @_ZNK4base8internal13WeakReference7IsValidEv(%"class.base::internal::WeakReference"* %5) #10
  %7 = getelementptr inbounds void (%"class.base::internal::BindStateBase"*)*, void (%"class.base::internal::BindStateBase"*)** %3, i64 1
  %8 = bitcast void (%"class.base::internal::BindStateBase"*)** %7 to %"class.device::CredentialManagementHandler"**
  %9 = load %"class.device::CredentialManagementHandler"*, %"class.device::CredentialManagementHandler"** %8, align 8
  %10 = icmp ne %"class.device::CredentialManagementHandler"* %9, null
  %11 = and i1 %6, %10
  %12 = xor i1 %11, true
  br label %16

13:                                               ; preds = %2
  %14 = bitcast void (%"class.base::internal::BindStateBase"*)** %3 to %"class.base::internal::WeakReference"*
  %15 = tail call zeroext i1 @_ZNK4base8internal13WeakReference10MaybeValidEv(%"class.base::internal::WeakReference"* %14) #10
  br label %16

16:                                               ; preds = %2, %4, %13
  %17 = phi i1 [ %15, %13 ], [ %12, %4 ], [ false, %2 ]
  ret i1 %17
}

; Function Attrs: nounwind ssp uwtable
define linkonce_odr hidden void @_ZN4base8internal7InvokerINS0_9BindStateIMN6device27CredentialManagementHandlerEFvNSt3__112basic_stringIcNS5_11char_traitsIcEENS5_9allocatorIcEEEEEJNS_7WeakPtrIS4_EEEEEFvSB_EE7RunOnceEPNS0_13BindStateBaseEOSB_(%"class.base::internal::BindStateBase"*, %"class.std::__1::basic_string"* dereferenceable(24)) #0 comdat align 2 {
  %3 = getelementptr inbounds %"class.base::internal::BindStateBase", %"class.base::internal::BindStateBase"* %0, i64 1
  %4 = bitcast %"class.base::internal::BindStateBase"* %3 to { i64, i64 }*
  %5 = getelementptr inbounds %"class.base::internal::BindStateBase", %"class.base::internal::BindStateBase"* %0, i64 1, i32 2
  %6 = bitcast void (%"class.base::internal::BindStateBase"*)** %5 to %"class.std::__1::tuple.198"*
  tail call void @_ZN4base8internal7InvokerINS0_9BindStateIMN6device27CredentialManagementHandlerEFvNSt3__112basic_stringIcNS5_11char_traitsIcEENS5_9allocatorIcEEEEEJNS_7WeakPtrIS4_EEEEEFvSB_EE7RunImplISD_NS5_5tupleIJSF_EEEJLm0EEEEvOT_OT0_NS5_16integer_sequenceImJXspT1_EEEEOSB_({ i64, i64 }* dereferenceable(16) %4, %"class.std::__1::tuple.198"* dereferenceable(16) %6, %"class.std::__1::basic_string"* dereferenceable(24) %1)
  ret void
}

; Function Attrs: inlinehint nounwind ssp uwtable
define linkonce_odr hidden void @_ZN4base8internal7InvokerINS0_9BindStateIMN6device27CredentialManagementHandlerEFvNSt3__112basic_stringIcNS5_11char_traitsIcEENS5_9allocatorIcEEEEEJNS_7WeakPtrIS4_EEEEEFvSB_EE7RunImplISD_NS5_5tupleIJSF_EEEJLm0EEEEvOT_OT0_NS5_16integer_sequenceImJXspT1_EEEEOSB_({ i64, i64 }* dereferenceable(16), %"class.std::__1::tuple.198"* dereferenceable(16), %"class.std::__1::basic_string"* dereferenceable(24)) local_unnamed_addr #7 comdat align 2 {
  %4 = alloca %"class.logging::CheckError", align 8
  %5 = alloca %"class.std::__1::basic_string", align 8
  %6 = getelementptr inbounds %"class.std::__1::tuple.198", %"class.std::__1::tuple.198"* %1, i64 0, i32 0, i32 0, i32 0, i32 0, i32 0
  %7 = tail call zeroext i1 @_ZNK4base8internal13WeakReference7IsValidEv(%"class.base::internal::WeakReference"* %6) #10
  br i1 %7, label %8, label %52

8:                                                ; preds = %3
  %9 = getelementptr inbounds %"class.std::__1::tuple.198", %"class.std::__1::tuple.198"* %1, i64 0, i32 0, i32 0, i32 0, i32 0, i32 1
  %10 = bitcast i64* %9 to %"class.device::CredentialManagementHandler"**
  %11 = load %"class.device::CredentialManagementHandler"*, %"class.device::CredentialManagementHandler"** %10, align 8
  %12 = icmp eq %"class.device::CredentialManagementHandler"* %11, null
  br i1 %12, label %52, label %13

13:                                               ; preds = %8
  %14 = getelementptr inbounds { i64, i64 }, { i64, i64 }* %0, i64 0, i32 0
  %15 = load i64, i64* %14, align 8
  %16 = getelementptr inbounds { i64, i64 }, { i64, i64 }* %0, i64 0, i32 1
  %17 = load i64, i64* %16, align 8
  %18 = bitcast %"class.std::__1::basic_string"* %5 to i8*
  call void @llvm.lifetime.start.p0i8(i64 24, i8* nonnull %18) #10
  %19 = tail call zeroext i1 @_ZNK4base8internal13WeakReference7IsValidEv(%"class.base::internal::WeakReference"* %6) #10
  br i1 %19, label %23, label %20

20:                                               ; preds = %13
  %21 = bitcast %"class.logging::CheckError"* %4 to i8*
  call void @llvm.lifetime.start.p0i8(i64 8, i8* nonnull %21) #10
  call void @_ZN7logging10CheckError5CheckEPKciS2_(%"class.logging::CheckError"* nonnull sret %4, i8* getelementptr inbounds ([29 x i8], [29 x i8]* @.str, i64 0, i64 0), i32 251, i8* getelementptr inbounds ([15 x i8], [15 x i8]* @.str.1, i64 0, i64 0)) #10
  %22 = call dereferenceable(160) %"class.std::__1::basic_ostream"* @_ZN7logging10CheckError6streamEv(%"class.logging::CheckError"* nonnull %4) #10
  call void @_ZN7logging10CheckErrorD1Ev(%"class.logging::CheckError"* nonnull %4) #10
  call void @llvm.lifetime.end.p0i8(i64 8, i8* nonnull %21) #10
  br label %23

23:                                               ; preds = %20, %13
  %24 = call zeroext i1 @_ZNK4base8internal13WeakReference7IsValidEv(%"class.base::internal::WeakReference"* %6) #10
  %25 = bitcast i64* %9 to i8**
  %26 = load i8*, i8** %25, align 8
  %27 = select i1 %24, i8* %26, i8* null
  %28 = getelementptr inbounds i8, i8* %27, i64 %17
  %29 = bitcast i8* %28 to %"class.device::CredentialManagementHandler"*
  %30 = and i64 %15, 1
  %31 = icmp eq i64 %30, 0
  br i1 %31, label %39, label %32

32:                                               ; preds = %23
  %33 = bitcast i8* %28 to i8**
  %34 = load i8*, i8** %33, align 8
  %35 = add i64 %15, -1
  %36 = getelementptr i8, i8* %34, i64 %35
  %37 = bitcast i8* %36 to void (%"class.device::CredentialManagementHandler"*, %"class.std::__1::basic_string"*)**
  %38 = load void (%"class.device::CredentialManagementHandler"*, %"class.std::__1::basic_string"*)*, void (%"class.device::CredentialManagementHandler"*, %"class.std::__1::basic_string"*)** %37, align 8
  br label %41

39:                                               ; preds = %23
  %40 = inttoptr i64 %15 to void (%"class.device::CredentialManagementHandler"*, %"class.std::__1::basic_string"*)*
  br label %41

41:                                               ; preds = %39, %32
  %42 = phi void (%"class.device::CredentialManagementHandler"*, %"class.std::__1::basic_string"*)* [ %38, %32 ], [ %40, %39 ]
  %43 = bitcast %"class.std::__1::basic_string"* %2 to i8*
  call void @llvm.memcpy.p0i8.p0i8.i64(i8* nonnull align 8 %18, i8* align 8 %43, i64 24, i1 false) #10
  call void @llvm.memset.p0i8.i64(i8* align 8 %43, i8 0, i64 24, i1 false) #10
  call void %42(%"class.device::CredentialManagementHandler"* %29, %"class.std::__1::basic_string"* nonnull %5) #10
  %44 = bitcast %"class.std::__1::basic_string"* %5 to %"struct.std::__1::basic_string<char, std::__1::char_traits<char>, std::__1::allocator<char> >::__short"*
  %45 = getelementptr inbounds %"struct.std::__1::basic_string<char, std::__1::char_traits<char>, std::__1::allocator<char> >::__short", %"struct.std::__1::basic_string<char, std::__1::char_traits<char>, std::__1::allocator<char> >::__short"* %44, i64 0, i32 1, i32 0
  %46 = load i8, i8* %45, align 1
  %47 = icmp slt i8 %46, 0
  br i1 %47, label %48, label %51

48:                                               ; preds = %41
  %49 = getelementptr inbounds %"class.std::__1::basic_string", %"class.std::__1::basic_string"* %5, i64 0, i32 0, i32 0, i32 0, i32 0, i32 0, i32 0
  %50 = load i8*, i8** %49, align 8
  call void @_ZdlPv(i8* %50) #11
  br label %51

51:                                               ; preds = %48, %41
  call void @llvm.lifetime.end.p0i8(i64 24, i8* nonnull %18) #10
  br label %52

52:                                               ; preds = %3, %8, %51
  ret void
}

; Function Attrs: nounwind ssp uwtable
define linkonce_odr hidden void @_ZN4base8internal9BindStateIMN6device27CredentialManagementHandlerEFvNSt3__112basic_stringIcNS4_11char_traitsIcEENS4_9allocatorIcEEEEEJNS_7WeakPtrIS3_EEEE7DestroyEPKNS0_13BindStateBaseE(%"class.base::internal::BindStateBase"*) #0 comdat align 2 {
  %2 = icmp eq %"class.base::internal::BindStateBase"* %0, null
  br i1 %2, label %7, label %3

3:                                                ; preds = %1
  %4 = getelementptr inbounds %"class.base::internal::BindStateBase", %"class.base::internal::BindStateBase"* %0, i64 1, i32 2
  %5 = bitcast void (%"class.base::internal::BindStateBase"*)** %4 to %"class.base::internal::WeakPtrBase"*
  tail call void @_ZN4base8internal11WeakPtrBaseD2Ev(%"class.base::internal::WeakPtrBase"* %5) #10
  %6 = bitcast %"class.base::internal::BindStateBase"* %0 to i8*
  tail call void @_ZdlPv(i8* %6) #11
  br label %7

7:                                                ; preds = %3, %1
  ret void
}

; Function Attrs: nounwind ssp uwtable
define linkonce_odr hidden zeroext i1 @_ZN4base8internal23QueryCancellationTraitsINS0_9BindStateIMN6device27CredentialManagementHandlerEFvNSt3__112basic_stringIcNS5_11char_traitsIcEENS5_9allocatorIcEEEEEJNS_7WeakPtrIS4_EEEEEEEbPKNS0_13BindStateBaseENSH_21CancellationQueryModeE(%"class.base::internal::BindStateBase"*, i32) #0 comdat {
  %3 = getelementptr inbounds %"class.base::internal::BindStateBase", %"class.base::internal::BindStateBase"* %0, i64 1, i32 2
  switch i32 %1, label %16 [
    i32 0, label %4
    i32 1, label %13
  ]

4:                                                ; preds = %2
  %5 = bitcast void (%"class.base::internal::BindStateBase"*)** %3 to %"class.base::internal::WeakReference"*
  %6 = tail call zeroext i1 @_ZNK4base8internal13WeakReference7IsValidEv(%"class.base::internal::WeakReference"* %5) #10
  %7 = getelementptr inbounds void (%"class.base::internal::BindStateBase"*)*, void (%"class.base::internal::BindStateBase"*)** %3, i64 1
  %8 = bitcast void (%"class.base::internal::BindStateBase"*)** %7 to %"class.device::CredentialManagementHandler"**
  %9 = load %"class.device::CredentialManagementHandler"*, %"class.device::CredentialManagementHandler"** %8, align 8
  %10 = icmp ne %"class.device::CredentialManagementHandler"* %9, null
  %11 = and i1 %6, %10
  %12 = xor i1 %11, true
  br label %16

13:                                               ; preds = %2
  %14 = bitcast void (%"class.base::internal::BindStateBase"*)** %3 to %"class.base::internal::WeakReference"*
  %15 = tail call zeroext i1 @_ZNK4base8internal13WeakReference10MaybeValidEv(%"class.base::internal::WeakReference"* %14) #10
  br label %16

16:                                               ; preds = %2, %4, %13
  %17 = phi i1 [ %15, %13 ], [ %12, %4 ], [ false, %2 ]
  ret i1 %17
}

; Function Attrs: nounwind ssp uwtable
define linkonce_odr hidden void @_ZN4base8internal7InvokerINS0_9BindStateIMN6device27CredentialManagementHandlerEFvNS3_22CtapDeviceResponseCodeEN4absl8optionalINS3_3pin13TokenResponseEEEEJNS_7WeakPtrIS4_EEEEEFvS5_SA_EE7RunOnceEPNS0_13BindStateBaseES5_OSA_(%"class.base::internal::BindStateBase"*, i8 zeroext, %"class.absl::optional.76"* dereferenceable(40)) #0 comdat align 2 {
  %4 = alloca i8, align 1
  store i8 %1, i8* %4, align 1
  %5 = getelementptr inbounds %"class.base::internal::BindStateBase", %"class.base::internal::BindStateBase"* %0, i64 1
  %6 = getelementptr inbounds %"class.base::internal::BindStateBase", %"class.base::internal::BindStateBase"* %0, i64 1, i32 2
  %7 = bitcast void (%"class.base::internal::BindStateBase"*)** %6 to %"class.base::WeakPtr"*
  %8 = bitcast void (%"class.base::internal::BindStateBase"*)** %6 to %"class.base::internal::WeakReference"*
  %9 = tail call zeroext i1 @_ZNK4base8internal13WeakReference7IsValidEv(%"class.base::internal::WeakReference"* %8) #10
  br i1 %9, label %10, label %21

10:                                               ; preds = %3
  %11 = getelementptr inbounds void (%"class.base::internal::BindStateBase"*)*, void (%"class.base::internal::BindStateBase"*)** %6, i64 1
  %12 = bitcast void (%"class.base::internal::BindStateBase"*)** %11 to %"class.device::CredentialManagementHandler"**
  %13 = load %"class.device::CredentialManagementHandler"*, %"class.device::CredentialManagementHandler"** %12, align 8
  %14 = icmp eq %"class.device::CredentialManagementHandler"* %13, null
  br i1 %14, label %21, label %15

15:                                               ; preds = %10
  %16 = bitcast %"class.base::internal::BindStateBase"* %5 to i64*
  %17 = load i64, i64* %16, align 8
  %18 = getelementptr inbounds %"class.base::internal::BindStateBase", %"class.base::internal::BindStateBase"* %0, i64 1, i32 1
  %19 = bitcast void ()** %18 to i64*
  %20 = load i64, i64* %19, align 8
  call void @_ZN4base8internal13FunctorTraitsIMN6device27CredentialManagementHandlerEFvNS2_22CtapDeviceResponseCodeEN4absl8optionalINS2_3pin13TokenResponseEEEEvE6InvokeISB_NS_7WeakPtrIS3_EEJS4_S9_EEEvT_OT0_DpOT1_(i64 %17, i64 %20, %"class.base::WeakPtr"* dereferenceable(16) %7, i8* nonnull dereferenceable(1) %4, %"class.absl::optional.76"* dereferenceable(40) %2) #10
  br label %21

21:                                               ; preds = %3, %10, %15
  ret void
}

; Function Attrs: nounwind ssp uwtable
define linkonce_odr hidden void @_ZN4base8internal13FunctorTraitsIMN6device27CredentialManagementHandlerEFvNS2_22CtapDeviceResponseCodeEN4absl8optionalINS2_3pin13TokenResponseEEEEvE6InvokeISB_NS_7WeakPtrIS3_EEJS4_S9_EEEvT_OT0_DpOT1_(i64, i64, %"class.base::WeakPtr"* dereferenceable(16), i8* dereferenceable(1), %"class.absl::optional.76"* dereferenceable(40)) local_unnamed_addr #0 comdat align 2 {
  %6 = alloca %"class.logging::CheckError", align 8
  %7 = alloca %"class.absl::optional.76", align 8
  %8 = getelementptr inbounds %"class.base::WeakPtr", %"class.base::WeakPtr"* %2, i64 0, i32 0, i32 0
  %9 = tail call zeroext i1 @_ZNK4base8internal13WeakReference7IsValidEv(%"class.base::internal::WeakReference"* %8) #10
  br i1 %9, label %13, label %10

10:                                               ; preds = %5
  %11 = bitcast %"class.logging::CheckError"* %6 to i8*
  call void @llvm.lifetime.start.p0i8(i64 8, i8* nonnull %11) #10
  call void @_ZN7logging10CheckError5CheckEPKciS2_(%"class.logging::CheckError"* nonnull sret %6, i8* getelementptr inbounds ([29 x i8], [29 x i8]* @.str, i64 0, i64 0), i32 251, i8* getelementptr inbounds ([15 x i8], [15 x i8]* @.str.1, i64 0, i64 0)) #10
  %12 = call dereferenceable(160) %"class.std::__1::basic_ostream"* @_ZN7logging10CheckError6streamEv(%"class.logging::CheckError"* nonnull %6) #10
  call void @_ZN7logging10CheckErrorD1Ev(%"class.logging::CheckError"* nonnull %6) #10
  call void @llvm.lifetime.end.p0i8(i64 8, i8* nonnull %11) #10
  br label %13

13:                                               ; preds = %10, %5
  %14 = call zeroext i1 @_ZNK4base8internal13WeakReference7IsValidEv(%"class.base::internal::WeakReference"* %8) #10
  %15 = getelementptr inbounds %"class.base::WeakPtr", %"class.base::WeakPtr"* %2, i64 0, i32 0, i32 1
  %16 = bitcast i64* %15 to i8**
  %17 = load i8*, i8** %16, align 8
  %18 = select i1 %14, i8* %17, i8* null
  %19 = getelementptr inbounds i8, i8* %18, i64 %1
  %20 = bitcast i8* %19 to %"class.device::CredentialManagementHandler"*
  %21 = and i64 %0, 1
  %22 = icmp eq i64 %21, 0
  br i1 %22, label %30, label %23

23:                                               ; preds = %13
  %24 = bitcast i8* %19 to i8**
  %25 = load i8*, i8** %24, align 8
  %26 = add i64 %0, -1
  %27 = getelementptr i8, i8* %25, i64 %26
  %28 = bitcast i8* %27 to void (%"class.device::CredentialManagementHandler"*, i8, %"class.absl::optional.76"*)**
  %29 = load void (%"class.device::CredentialManagementHandler"*, i8, %"class.absl::optional.76"*)*, void (%"class.device::CredentialManagementHandler"*, i8, %"class.absl::optional.76"*)** %28, align 8
  br label %32

30:                                               ; preds = %13
  %31 = inttoptr i64 %0 to void (%"class.device::CredentialManagementHandler"*, i8, %"class.absl::optional.76"*)*
  br label %32

32:                                               ; preds = %30, %23
  %33 = phi void (%"class.device::CredentialManagementHandler"*, i8, %"class.absl::optional.76"*)* [ %29, %23 ], [ %31, %30 ]
  %34 = load i8, i8* %3, align 1
  %35 = getelementptr inbounds %"class.absl::optional.76", %"class.absl::optional.76"* %7, i64 0, i32 0, i32 0, i32 0, i32 0
  %36 = getelementptr inbounds %"class.absl::optional.76", %"class.absl::optional.76"* %4, i64 0, i32 0, i32 0, i32 0, i32 0
  call void @llvm.memset.p0i8.i64(i8* nonnull align 8 %35, i8 0, i64 40, i1 false) #10
  %37 = load i8, i8* %36, align 8, !range !2
  %38 = icmp eq i8 %37, 0
  br i1 %38, label %43, label %39

39:                                               ; preds = %32
  %40 = getelementptr inbounds %"class.absl::optional.76", %"class.absl::optional.76"* %7, i64 0, i32 0, i32 0, i32 0, i32 1, i32 0, i32 0
  %41 = getelementptr inbounds %"class.absl::optional.76", %"class.absl::optional.76"* %4, i64 0, i32 0, i32 0, i32 0, i32 1, i32 0
  %42 = bitcast i8* %40 to %"class.device::pin::TokenResponse"*
  call void @_ZN6device3pin13TokenResponseC1ERKS1_(%"class.device::pin::TokenResponse"* %42, %"class.device::pin::TokenResponse"* dereferenceable(32) %41) #10
  store i8 1, i8* %35, align 8
  br label %43

43:                                               ; preds = %32, %39
  call void %33(%"class.device::CredentialManagementHandler"* %20, i8 zeroext %34, %"class.absl::optional.76"* nonnull %7) #10
  %44 = load i8, i8* %35, align 8, !range !2
  %45 = icmp eq i8 %44, 0
  br i1 %45, label %48, label %46

46:                                               ; preds = %43
  %47 = getelementptr inbounds %"class.absl::optional.76", %"class.absl::optional.76"* %7, i64 0, i32 0, i32 0, i32 0, i32 1, i32 0
  call void @_ZN6device3pin13TokenResponseD1Ev(%"class.device::pin::TokenResponse"* %47) #10
  store i8 0, i8* %35, align 8
  br label %48

48:                                               ; preds = %43, %46
  ret void
}

; Function Attrs: nounwind ssp uwtable
define linkonce_odr hidden void @_ZN4base8internal9BindStateIMN6device27CredentialManagementHandlerEFvNS2_22CtapDeviceResponseCodeEN4absl8optionalINS2_3pin13TokenResponseEEEEJNS_7WeakPtrIS3_EEEE7DestroyEPKNS0_13BindStateBaseE(%"class.base::internal::BindStateBase"*) #0 comdat align 2 {
  %2 = icmp eq %"class.base::internal::BindStateBase"* %0, null
  br i1 %2, label %7, label %3

3:                                                ; preds = %1
  %4 = getelementptr inbounds %"class.base::internal::BindStateBase", %"class.base::internal::BindStateBase"* %0, i64 1, i32 2
  %5 = bitcast void (%"class.base::internal::BindStateBase"*)** %4 to %"class.base::internal::WeakPtrBase"*
  tail call void @_ZN4base8internal11WeakPtrBaseD2Ev(%"class.base::internal::WeakPtrBase"* %5) #10
  %6 = bitcast %"class.base::internal::BindStateBase"* %0 to i8*
  tail call void @_ZdlPv(i8* %6) #11
  br label %7

7:                                                ; preds = %3, %1
  ret void
}

; Function Attrs: nounwind ssp uwtable
define linkonce_odr hidden zeroext i1 @_ZN4base8internal23QueryCancellationTraitsINS0_9BindStateIMN6device27CredentialManagementHandlerEFvNS3_22CtapDeviceResponseCodeEN4absl8optionalINS3_3pin13TokenResponseEEEEJNS_7WeakPtrIS4_EEEEEEEbPKNS0_13BindStateBaseENSG_21CancellationQueryModeE(%"class.base::internal::BindStateBase"*, i32) #0 comdat {
  %3 = getelementptr inbounds %"class.base::internal::BindStateBase", %"class.base::internal::BindStateBase"* %0, i64 1, i32 2
  switch i32 %1, label %16 [
    i32 0, label %4
    i32 1, label %13
  ]

4:                                                ; preds = %2
  %5 = bitcast void (%"class.base::internal::BindStateBase"*)** %3 to %"class.base::internal::WeakReference"*
  %6 = tail call zeroext i1 @_ZNK4base8internal13WeakReference7IsValidEv(%"class.base::internal::WeakReference"* %5) #10
  %7 = getelementptr inbounds void (%"class.base::internal::BindStateBase"*)*, void (%"class.base::internal::BindStateBase"*)** %3, i64 1
  %8 = bitcast void (%"class.base::internal::BindStateBase"*)** %7 to %"class.device::CredentialManagementHandler"**
  %9 = load %"class.device::CredentialManagementHandler"*, %"class.device::CredentialManagementHandler"** %8, align 8
  %10 = icmp ne %"class.device::CredentialManagementHandler"* %9, null
  %11 = and i1 %6, %10
  %12 = xor i1 %11, true
  br label %16

13:                                               ; preds = %2
  %14 = bitcast void (%"class.base::internal::BindStateBase"*)** %3 to %"class.base::internal::WeakReference"*
  %15 = tail call zeroext i1 @_ZNK4base8internal13WeakReference10MaybeValidEv(%"class.base::internal::WeakReference"* %14) #10
  br label %16

16:                                               ; preds = %2, %4, %13
  %17 = phi i1 [ %15, %13 ], [ %12, %4 ], [ false, %2 ]
  ret i1 %17
}

; Function Attrs: nounwind ssp uwtable
define linkonce_odr hidden void @_ZN4base8internal7InvokerINS0_9BindStateIMN6device27CredentialManagementHandlerEFvNS3_22CtapDeviceResponseCodeEN4absl8optionalINS3_27CredentialsMetadataResponseEEEEJNS_7WeakPtrIS4_EEEEEFvS5_S9_EE7RunOnceEPNS0_13BindStateBaseES5_OS9_(%"class.base::internal::BindStateBase"*, i8 zeroext, %"class.absl::optional.108"* dereferenceable(24)) #0 comdat align 2 {
  %4 = alloca %"class.logging::CheckError", align 8
  %5 = getelementptr inbounds %"class.base::internal::BindStateBase", %"class.base::internal::BindStateBase"* %0, i64 1
  %6 = getelementptr inbounds %"class.base::internal::BindStateBase", %"class.base::internal::BindStateBase"* %0, i64 1, i32 2
  %7 = bitcast void (%"class.base::internal::BindStateBase"*)** %6 to %"class.base::internal::WeakReference"*
  %8 = tail call zeroext i1 @_ZNK4base8internal13WeakReference7IsValidEv(%"class.base::internal::WeakReference"* %7) #10
  br i1 %8, label %9, label %44

9:                                                ; preds = %3
  %10 = getelementptr inbounds void (%"class.base::internal::BindStateBase"*)*, void (%"class.base::internal::BindStateBase"*)** %6, i64 1
  %11 = bitcast void (%"class.base::internal::BindStateBase"*)** %10 to %"class.device::CredentialManagementHandler"**
  %12 = load %"class.device::CredentialManagementHandler"*, %"class.device::CredentialManagementHandler"** %11, align 8
  %13 = icmp eq %"class.device::CredentialManagementHandler"* %12, null
  br i1 %13, label %44, label %14

14:                                               ; preds = %9
  %15 = bitcast %"class.base::internal::BindStateBase"* %5 to i64*
  %16 = load i64, i64* %15, align 8
  %17 = getelementptr inbounds %"class.base::internal::BindStateBase", %"class.base::internal::BindStateBase"* %0, i64 1, i32 1
  %18 = bitcast void ()** %17 to i64*
  %19 = load i64, i64* %18, align 8
  %20 = tail call zeroext i1 @_ZNK4base8internal13WeakReference7IsValidEv(%"class.base::internal::WeakReference"* %7) #10
  br i1 %20, label %24, label %21

21:                                               ; preds = %14
  %22 = bitcast %"class.logging::CheckError"* %4 to i8*
  call void @llvm.lifetime.start.p0i8(i64 8, i8* nonnull %22) #10
  call void @_ZN7logging10CheckError5CheckEPKciS2_(%"class.logging::CheckError"* nonnull sret %4, i8* getelementptr inbounds ([29 x i8], [29 x i8]* @.str, i64 0, i64 0), i32 251, i8* getelementptr inbounds ([15 x i8], [15 x i8]* @.str.1, i64 0, i64 0)) #10
  %23 = call dereferenceable(160) %"class.std::__1::basic_ostream"* @_ZN7logging10CheckError6streamEv(%"class.logging::CheckError"* nonnull %4) #10
  call void @_ZN7logging10CheckErrorD1Ev(%"class.logging::CheckError"* nonnull %4) #10
  call void @llvm.lifetime.end.p0i8(i64 8, i8* nonnull %22) #10
  br label %24

24:                                               ; preds = %21, %14
  %25 = call zeroext i1 @_ZNK4base8internal13WeakReference7IsValidEv(%"class.base::internal::WeakReference"* %7) #10
  %26 = bitcast void (%"class.base::internal::BindStateBase"*)** %10 to i8**
  %27 = load i8*, i8** %26, align 8
  %28 = select i1 %25, i8* %27, i8* null
  %29 = getelementptr inbounds i8, i8* %28, i64 %19
  %30 = bitcast i8* %29 to %"class.device::CredentialManagementHandler"*
  %31 = and i64 %16, 1
  %32 = icmp eq i64 %31, 0
  br i1 %32, label %40, label %33

33:                                               ; preds = %24
  %34 = bitcast i8* %29 to i8**
  %35 = load i8*, i8** %34, align 8
  %36 = add i64 %16, -1
  %37 = getelementptr i8, i8* %35, i64 %36
  %38 = bitcast i8* %37 to void (%"class.device::CredentialManagementHandler"*, i8, %"class.absl::optional.108"*)**
  %39 = load void (%"class.device::CredentialManagementHandler"*, i8, %"class.absl::optional.108"*)*, void (%"class.device::CredentialManagementHandler"*, i8, %"class.absl::optional.108"*)** %38, align 8
  br label %42

40:                                               ; preds = %24
  %41 = inttoptr i64 %16 to void (%"class.device::CredentialManagementHandler"*, i8, %"class.absl::optional.108"*)*
  br label %42

42:                                               ; preds = %40, %33
  %43 = phi void (%"class.device::CredentialManagementHandler"*, i8, %"class.absl::optional.108"*)* [ %39, %33 ], [ %41, %40 ]
  call void %43(%"class.device::CredentialManagementHandler"* %30, i8 zeroext %1, %"class.absl::optional.108"* nonnull byval(%"class.absl::optional.108") align 8 %2) #10
  br label %44

44:                                               ; preds = %3, %9, %42
  ret void
}

; Function Attrs: nounwind ssp uwtable
define linkonce_odr hidden void @_ZN4base8internal9BindStateIMN6device27CredentialManagementHandlerEFvNS2_22CtapDeviceResponseCodeEN4absl8optionalINS2_27CredentialsMetadataResponseEEEEJNS_7WeakPtrIS3_EEEE7DestroyEPKNS0_13BindStateBaseE(%"class.base::internal::BindStateBase"*) #0 comdat align 2 {
  %2 = icmp eq %"class.base::internal::BindStateBase"* %0, null
  br i1 %2, label %7, label %3

3:                                                ; preds = %1
  %4 = getelementptr inbounds %"class.base::internal::BindStateBase", %"class.base::internal::BindStateBase"* %0, i64 1, i32 2
  %5 = bitcast void (%"class.base::internal::BindStateBase"*)** %4 to %"class.base::internal::WeakPtrBase"*
  tail call void @_ZN4base8internal11WeakPtrBaseD2Ev(%"class.base::internal::WeakPtrBase"* %5) #10
  %6 = bitcast %"class.base::internal::BindStateBase"* %0 to i8*
  tail call void @_ZdlPv(i8* %6) #11
  br label %7

7:                                                ; preds = %3, %1
  ret void
}

; Function Attrs: nounwind ssp uwtable
define linkonce_odr hidden zeroext i1 @_ZN4base8internal23QueryCancellationTraitsINS0_9BindStateIMN6device27CredentialManagementHandlerEFvNS3_22CtapDeviceResponseCodeEN4absl8optionalINS3_27CredentialsMetadataResponseEEEEJNS_7WeakPtrIS4_EEEEEEEbPKNS0_13BindStateBaseENSF_21CancellationQueryModeE(%"class.base::internal::BindStateBase"*, i32) #0 comdat {
  %3 = getelementptr inbounds %"class.base::internal::BindStateBase", %"class.base::internal::BindStateBase"* %0, i64 1, i32 2
  switch i32 %1, label %16 [
    i32 0, label %4
    i32 1, label %13
  ]

4:                                                ; preds = %2
  %5 = bitcast void (%"class.base::internal::BindStateBase"*)** %3 to %"class.base::internal::WeakReference"*
  %6 = tail call zeroext i1 @_ZNK4base8internal13WeakReference7IsValidEv(%"class.base::internal::WeakReference"* %5) #10
  %7 = getelementptr inbounds void (%"class.base::internal::BindStateBase"*)*, void (%"class.base::internal::BindStateBase"*)** %3, i64 1
  %8 = bitcast void (%"class.base::internal::BindStateBase"*)** %7 to %"class.device::CredentialManagementHandler"**
  %9 = load %"class.device::CredentialManagementHandler"*, %"class.device::CredentialManagementHandler"** %8, align 8
  %10 = icmp ne %"class.device::CredentialManagementHandler"* %9, null
  %11 = and i1 %6, %10
  %12 = xor i1 %11, true
  br label %16

13:                                               ; preds = %2
  %14 = bitcast void (%"class.base::internal::BindStateBase"*)** %3 to %"class.base::internal::WeakReference"*
  %15 = tail call zeroext i1 @_ZNK4base8internal13WeakReference10MaybeValidEv(%"class.base::internal::WeakReference"* %14) #10
  br label %16

16:                                               ; preds = %2, %4, %13
  %17 = phi i1 [ %15, %13 ], [ %12, %4 ], [ false, %2 ]
  ret i1 %17
}

; Function Attrs: nounwind ssp uwtable
define linkonce_odr hidden void @_ZN4base8internal7InvokerINS0_9BindStateIPFvNS_12OnceCallbackIFvN6device22CtapDeviceResponseCodeEEEES5_N4absl8optionalINS4_3pin13EmptyResponseEEEEJS7_EEEFvS5_SC_EE7RunOnceEPNS0_13BindStateBaseES5_OSC_(%"class.base::internal::BindStateBase"*, i8 zeroext, %"class.absl::optional.115"* dereferenceable(2)) #0 comdat align 2 {
  %4 = alloca %"class.base::OnceCallback.113", align 8
  %5 = getelementptr inbounds %"class.base::internal::BindStateBase", %"class.base::internal::BindStateBase"* %0, i64 1
  %6 = bitcast %"class.base::internal::BindStateBase"* %5 to void (%"class.base::OnceCallback.113"*, i8, i8)**
  %7 = getelementptr inbounds %"class.base::internal::BindStateBase", %"class.base::internal::BindStateBase"* %0, i64 1, i32 1
  %8 = bitcast %"class.base::OnceCallback.113"* %4 to i8*
  call void @llvm.lifetime.start.p0i8(i64 8, i8* nonnull %8) #10
  %9 = load void (%"class.base::OnceCallback.113"*, i8, i8)*, void (%"class.base::OnceCallback.113"*, i8, i8)** %6, align 8
  %10 = bitcast void ()** %7 to %"class.base::internal::BindStateBase"**
  %11 = bitcast void ()** %7 to i64*
  %12 = load i64, i64* %11, align 8
  %13 = bitcast %"class.base::OnceCallback.113"* %4 to i64*
  store i64 %12, i64* %13, align 8
  store %"class.base::internal::BindStateBase"* null, %"class.base::internal::BindStateBase"** %10, align 8
  %14 = getelementptr inbounds %"class.absl::optional.115", %"class.absl::optional.115"* %2, i64 0, i32 0, i32 0, i32 0, i32 0
  %15 = load i8, i8* %14, align 1
  call void %9(%"class.base::OnceCallback.113"* nonnull %4, i8 zeroext %1, i8 %15) #10
  %16 = getelementptr inbounds %"class.base::OnceCallback.113", %"class.base::OnceCallback.113"* %4, i64 0, i32 0
  call void @_ZN4base8internal12CallbackBaseD2Ev(%"class.base::internal::CallbackBase"* nonnull %16) #10
  call void @llvm.lifetime.end.p0i8(i64 8, i8* nonnull %8) #10
  ret void
}

; Function Attrs: nounwind ssp uwtable
define linkonce_odr hidden void @_ZN4base8internal9BindStateIPFvNS_12OnceCallbackIFvN6device22CtapDeviceResponseCodeEEEES4_N4absl8optionalINS3_3pin13EmptyResponseEEEEJS6_EE7DestroyEPKNS0_13BindStateBaseE(%"class.base::internal::BindStateBase"*) #0 comdat align 2 {
  %2 = icmp eq %"class.base::internal::BindStateBase"* %0, null
  br i1 %2, label %7, label %3

3:                                                ; preds = %1
  %4 = getelementptr inbounds %"class.base::internal::BindStateBase", %"class.base::internal::BindStateBase"* %0, i64 1, i32 1
  %5 = bitcast void ()** %4 to %"class.base::internal::CallbackBase"*
  tail call void @_ZN4base8internal12CallbackBaseD2Ev(%"class.base::internal::CallbackBase"* %5) #10
  %6 = bitcast %"class.base::internal::BindStateBase"* %0 to i8*
  tail call void @_ZdlPv(i8* %6) #11
  br label %7

7:                                                ; preds = %3, %1
  ret void
}

declare void @_ZN4base8internal13BindStateBaseC2EPFvvEPFvPKS1_E(%"class.base::internal::BindStateBase"*, void ()*, void (%"class.base::internal::BindStateBase"*)*) unnamed_addr #1

; Function Attrs: nounwind ssp uwtable
define linkonce_odr hidden void @_ZN4base8internal7InvokerINS0_9BindStateIMN6device27CredentialManagementHandlerEFvNSt3__16vectorINS6_IhNS5_9allocatorIhEEEENS7_IS9_EEEENS_12OnceCallbackIFvNS3_22CtapDeviceResponseCodeEEEESD_N4absl8optionalINS3_3pin13EmptyResponseEEEEJNS_7WeakPtrIS4_EESB_SF_EEEFvSD_SK_EE7RunOnceEPNS0_13BindStateBaseESD_OSK_(%"class.base::internal::BindStateBase"*, i8 zeroext, %"class.absl::optional.115"* dereferenceable(2)) #0 comdat align 2 {
  %4 = alloca i8, align 1
  store i8 %1, i8* %4, align 1
  %5 = getelementptr inbounds %"class.base::internal::BindStateBase", %"class.base::internal::BindStateBase"* %0, i64 1
  %6 = getelementptr inbounds %"class.base::internal::BindStateBase", %"class.base::internal::BindStateBase"* %0, i64 1, i32 2
  %7 = bitcast void (%"class.base::internal::BindStateBase"*)** %6 to %"class.base::WeakPtr"*
  %8 = getelementptr inbounds void (%"class.base::internal::BindStateBase"*)*, void (%"class.base::internal::BindStateBase"*)** %6, i64 2
  %9 = bitcast void (%"class.base::internal::BindStateBase"*)** %8 to %"class.std::__1::vector.120"*
  %10 = getelementptr inbounds void (%"class.base::internal::BindStateBase"*)*, void (%"class.base::internal::BindStateBase"*)** %6, i64 5
  %11 = bitcast void (%"class.base::internal::BindStateBase"*)** %10 to %"class.base::OnceCallback.113"*
  %12 = bitcast void (%"class.base::internal::BindStateBase"*)** %6 to %"class.base::internal::WeakReference"*
  %13 = tail call zeroext i1 @_ZNK4base8internal13WeakReference7IsValidEv(%"class.base::internal::WeakReference"* %12) #10
  br i1 %13, label %14, label %25

14:                                               ; preds = %3
  %15 = getelementptr inbounds void (%"class.base::internal::BindStateBase"*)*, void (%"class.base::internal::BindStateBase"*)** %6, i64 1
  %16 = bitcast void (%"class.base::internal::BindStateBase"*)** %15 to %"class.device::CredentialManagementHandler"**
  %17 = load %"class.device::CredentialManagementHandler"*, %"class.device::CredentialManagementHandler"** %16, align 8
  %18 = icmp eq %"class.device::CredentialManagementHandler"* %17, null
  br i1 %18, label %25, label %19

19:                                               ; preds = %14
  %20 = bitcast %"class.base::internal::BindStateBase"* %5 to i64*
  %21 = load i64, i64* %20, align 8
  %22 = getelementptr inbounds %"class.base::internal::BindStateBase", %"class.base::internal::BindStateBase"* %0, i64 1, i32 1
  %23 = bitcast void ()** %22 to i64*
  %24 = load i64, i64* %23, align 8
  call void @_ZN4base8internal13FunctorTraitsIMN6device27CredentialManagementHandlerEFvNSt3__16vectorINS5_IhNS4_9allocatorIhEEEENS6_IS8_EEEENS_12OnceCallbackIFvNS2_22CtapDeviceResponseCodeEEEESC_N4absl8optionalINS2_3pin13EmptyResponseEEEEvE6InvokeISL_NS_7WeakPtrIS3_EEJSA_SE_SC_SJ_EEEvT_OT0_DpOT1_(i64 %21, i64 %24, %"class.base::WeakPtr"* dereferenceable(16) %7, %"class.std::__1::vector.120"* dereferenceable(24) %9, %"class.base::OnceCallback.113"* dereferenceable(8) %11, i8* nonnull dereferenceable(1) %4, %"class.absl::optional.115"* dereferenceable(2) %2) #10
  br label %25

25:                                               ; preds = %3, %14, %19
  ret void
}

; Function Attrs: nounwind ssp uwtable
define linkonce_odr hidden void @_ZN4base8internal13FunctorTraitsIMN6device27CredentialManagementHandlerEFvNSt3__16vectorINS5_IhNS4_9allocatorIhEEEENS6_IS8_EEEENS_12OnceCallbackIFvNS2_22CtapDeviceResponseCodeEEEESC_N4absl8optionalINS2_3pin13EmptyResponseEEEEvE6InvokeISL_NS_7WeakPtrIS3_EEJSA_SE_SC_SJ_EEEvT_OT0_DpOT1_(i64, i64, %"class.base::WeakPtr"* dereferenceable(16), %"class.std::__1::vector.120"* dereferenceable(24), %"class.base::OnceCallback.113"* dereferenceable(8), i8* dereferenceable(1), %"class.absl::optional.115"* dereferenceable(2)) local_unnamed_addr #0 comdat align 2 {
  %8 = alloca %"class.logging::CheckError", align 8
  %9 = alloca %"class.std::__1::vector.120", align 16
  %10 = alloca %"class.base::OnceCallback.113", align 8
  %11 = getelementptr inbounds %"class.base::WeakPtr", %"class.base::WeakPtr"* %2, i64 0, i32 0, i32 0
  %12 = tail call zeroext i1 @_ZNK4base8internal13WeakReference7IsValidEv(%"class.base::internal::WeakReference"* %11) #10
  br i1 %12, label %16, label %13

13:                                               ; preds = %7
  %14 = bitcast %"class.logging::CheckError"* %8 to i8*
  call void @llvm.lifetime.start.p0i8(i64 8, i8* nonnull %14) #10
  call void @_ZN7logging10CheckError5CheckEPKciS2_(%"class.logging::CheckError"* nonnull sret %8, i8* getelementptr inbounds ([29 x i8], [29 x i8]* @.str, i64 0, i64 0), i32 251, i8* getelementptr inbounds ([15 x i8], [15 x i8]* @.str.1, i64 0, i64 0)) #10
  %15 = call dereferenceable(160) %"class.std::__1::basic_ostream"* @_ZN7logging10CheckError6streamEv(%"class.logging::CheckError"* nonnull %8) #10
  call void @_ZN7logging10CheckErrorD1Ev(%"class.logging::CheckError"* nonnull %8) #10
  call void @llvm.lifetime.end.p0i8(i64 8, i8* nonnull %14) #10
  br label %16

16:                                               ; preds = %13, %7
  %17 = call zeroext i1 @_ZNK4base8internal13WeakReference7IsValidEv(%"class.base::internal::WeakReference"* %11) #10
  %18 = getelementptr inbounds %"class.base::WeakPtr", %"class.base::WeakPtr"* %2, i64 0, i32 0, i32 1
  %19 = bitcast i64* %18 to i8**
  %20 = load i8*, i8** %19, align 8
  %21 = select i1 %17, i8* %20, i8* null
  %22 = getelementptr inbounds i8, i8* %21, i64 %1
  %23 = bitcast i8* %22 to %"class.device::CredentialManagementHandler"*
  %24 = and i64 %0, 1
  %25 = icmp eq i64 %24, 0
  br i1 %25, label %33, label %26

26:                                               ; preds = %16
  %27 = bitcast i8* %22 to i8**
  %28 = load i8*, i8** %27, align 8
  %29 = add i64 %0, -1
  %30 = getelementptr i8, i8* %28, i64 %29
  %31 = bitcast i8* %30 to void (%"class.device::CredentialManagementHandler"*, %"class.std::__1::vector.120"*, %"class.base::OnceCallback.113"*, i8, i8)**
  %32 = load void (%"class.device::CredentialManagementHandler"*, %"class.std::__1::vector.120"*, %"class.base::OnceCallback.113"*, i8, i8)*, void (%"class.device::CredentialManagementHandler"*, %"class.std::__1::vector.120"*, %"class.base::OnceCallback.113"*, i8, i8)** %31, align 8
  br label %35

33:                                               ; preds = %16
  %34 = inttoptr i64 %0 to void (%"class.device::CredentialManagementHandler"*, %"class.std::__1::vector.120"*, %"class.base::OnceCallback.113"*, i8, i8)*
  br label %35

35:                                               ; preds = %33, %26
  %36 = phi void (%"class.device::CredentialManagementHandler"*, %"class.std::__1::vector.120"*, %"class.base::OnceCallback.113"*, i8, i8)* [ %32, %26 ], [ %34, %33 ]
  %37 = bitcast %"class.std::__1::vector.120"* %3 to <2 x i64>*
  %38 = load <2 x i64>, <2 x i64>* %37, align 8
  %39 = getelementptr inbounds %"class.std::__1::vector.120", %"class.std::__1::vector.120"* %9, i64 0, i32 0, i32 1
  %40 = bitcast %"class.std::__1::vector.120"* %9 to <2 x i64>*
  store <2 x i64> %38, <2 x i64>* %40, align 16
  %41 = getelementptr inbounds %"class.std::__1::vector.120", %"class.std::__1::vector.120"* %3, i64 0, i32 0, i32 2, i32 0, i32 0
  %42 = bitcast %"class.std::__1::vector.32"** %41 to i64*
  %43 = load i64, i64* %42, align 8
  %44 = getelementptr inbounds %"class.std::__1::vector.120", %"class.std::__1::vector.120"* %9, i64 0, i32 0, i32 2, i32 0, i32 0
  %45 = bitcast %"class.std::__1::vector.32"** %44 to i64*
  store i64 %43, i64* %45, align 16
  %46 = bitcast %"class.std::__1::vector.120"* %3 to i8*
  call void @llvm.memset.p0i8.i64(i8* align 8 %46, i8 0, i64 24, i1 false) #10
  %47 = getelementptr inbounds %"class.base::OnceCallback.113", %"class.base::OnceCallback.113"* %4, i64 0, i32 0, i32 0, i32 0
  %48 = bitcast %"class.base::OnceCallback.113"* %4 to i64*
  %49 = load i64, i64* %48, align 8
  %50 = bitcast %"class.base::OnceCallback.113"* %10 to i64*
  store i64 %49, i64* %50, align 8
  store %"class.base::internal::BindStateBase"* null, %"class.base::internal::BindStateBase"** %47, align 8
  %51 = load i8, i8* %5, align 1
  %52 = getelementptr inbounds %"class.absl::optional.115", %"class.absl::optional.115"* %6, i64 0, i32 0, i32 0, i32 0, i32 0
  %53 = load i8, i8* %52, align 1
  call void %36(%"class.device::CredentialManagementHandler"* %23, %"class.std::__1::vector.120"* nonnull %9, %"class.base::OnceCallback.113"* nonnull %10, i8 zeroext %51, i8 %53) #10
  %54 = getelementptr inbounds %"class.base::OnceCallback.113", %"class.base::OnceCallback.113"* %10, i64 0, i32 0
  call void @_ZN4base8internal12CallbackBaseD2Ev(%"class.base::internal::CallbackBase"* nonnull %54) #10
  %55 = getelementptr inbounds %"class.std::__1::vector.120", %"class.std::__1::vector.120"* %9, i64 0, i32 0, i32 0
  %56 = load %"class.std::__1::vector.32"*, %"class.std::__1::vector.32"** %55, align 16
  %57 = icmp eq %"class.std::__1::vector.32"* %56, null
  br i1 %57, label %79, label %58

58:                                               ; preds = %35
  %59 = bitcast %"class.std::__1::vector.32"* %56 to i8*
  %60 = load %"class.std::__1::vector.32"*, %"class.std::__1::vector.32"** %39, align 8
  %61 = icmp eq %"class.std::__1::vector.32"* %60, %56
  br i1 %61, label %77, label %62

62:                                               ; preds = %58, %72
  %63 = phi %"class.std::__1::vector.32"* [ %64, %72 ], [ %60, %58 ]
  %64 = getelementptr inbounds %"class.std::__1::vector.32", %"class.std::__1::vector.32"* %63, i64 -1
  %65 = getelementptr inbounds %"class.std::__1::vector.32", %"class.std::__1::vector.32"* %64, i64 0, i32 0, i32 0
  %66 = load i8*, i8** %65, align 8
  %67 = icmp eq i8* %66, null
  br i1 %67, label %72, label %68

68:                                               ; preds = %62
  %69 = ptrtoint i8* %66 to i64
  %70 = getelementptr inbounds %"class.std::__1::vector.32", %"class.std::__1::vector.32"* %63, i64 -1, i32 0, i32 1
  %71 = bitcast i8** %70 to i64*
  store i64 %69, i64* %71, align 8
  call void @_ZdlPv(i8* nonnull %66) #11
  br label %72

72:                                               ; preds = %68, %62
  %73 = icmp eq %"class.std::__1::vector.32"* %64, %56
  br i1 %73, label %74, label %62

74:                                               ; preds = %72
  %75 = bitcast %"class.std::__1::vector.120"* %9 to i8**
  %76 = load i8*, i8** %75, align 16
  br label %77

77:                                               ; preds = %74, %58
  %78 = phi i8* [ %76, %74 ], [ %59, %58 ]
  store %"class.std::__1::vector.32"* %56, %"class.std::__1::vector.32"** %39, align 8
  call void @_ZdlPv(i8* %78) #11
  br label %79

79:                                               ; preds = %35, %77
  ret void
}

; Function Attrs: nounwind ssp uwtable
define linkonce_odr hidden void @_ZN4base8internal9BindStateIMN6device27CredentialManagementHandlerEFvNSt3__16vectorINS5_IhNS4_9allocatorIhEEEENS6_IS8_EEEENS_12OnceCallbackIFvNS2_22CtapDeviceResponseCodeEEEESC_N4absl8optionalINS2_3pin13EmptyResponseEEEEJNS_7WeakPtrIS3_EESA_SE_EE7DestroyEPKNS0_13BindStateBaseE(%"class.base::internal::BindStateBase"*) #0 comdat align 2 {
  %2 = icmp eq %"class.base::internal::BindStateBase"* %0, null
  br i1 %2, label %37, label %3

3:                                                ; preds = %1
  %4 = getelementptr inbounds %"class.base::internal::BindStateBase", %"class.base::internal::BindStateBase"* %0, i64 2, i32 3
  %5 = bitcast i1 (%"class.base::internal::BindStateBase"*, i32)** %4 to %"class.base::internal::CallbackBase"*
  tail call void @_ZN4base8internal12CallbackBaseD2Ev(%"class.base::internal::CallbackBase"* %5) #10
  %6 = getelementptr inbounds %"class.base::internal::BindStateBase", %"class.base::internal::BindStateBase"* %0, i64 2
  %7 = bitcast %"class.base::internal::BindStateBase"* %6 to %"class.std::__1::vector.32"**
  %8 = load %"class.std::__1::vector.32"*, %"class.std::__1::vector.32"** %7, align 8
  %9 = icmp eq %"class.std::__1::vector.32"* %8, null
  br i1 %9, label %33, label %10

10:                                               ; preds = %3
  %11 = bitcast %"class.std::__1::vector.32"* %8 to i8*
  %12 = getelementptr inbounds %"class.base::internal::BindStateBase", %"class.base::internal::BindStateBase"* %0, i64 2, i32 1
  %13 = bitcast void ()** %12 to %"class.std::__1::vector.32"**
  %14 = load %"class.std::__1::vector.32"*, %"class.std::__1::vector.32"** %13, align 8
  %15 = icmp eq %"class.std::__1::vector.32"* %14, %8
  br i1 %15, label %31, label %16

16:                                               ; preds = %10, %26
  %17 = phi %"class.std::__1::vector.32"* [ %18, %26 ], [ %14, %10 ]
  %18 = getelementptr inbounds %"class.std::__1::vector.32", %"class.std::__1::vector.32"* %17, i64 -1
  %19 = getelementptr inbounds %"class.std::__1::vector.32", %"class.std::__1::vector.32"* %18, i64 0, i32 0, i32 0
  %20 = load i8*, i8** %19, align 8
  %21 = icmp eq i8* %20, null
  br i1 %21, label %26, label %22

22:                                               ; preds = %16
  %23 = ptrtoint i8* %20 to i64
  %24 = getelementptr inbounds %"class.std::__1::vector.32", %"class.std::__1::vector.32"* %17, i64 -1, i32 0, i32 1
  %25 = bitcast i8** %24 to i64*
  store i64 %23, i64* %25, align 8
  tail call void @_ZdlPv(i8* nonnull %20) #11
  br label %26

26:                                               ; preds = %22, %16
  %27 = icmp eq %"class.std::__1::vector.32"* %18, %8
  br i1 %27, label %28, label %16

28:                                               ; preds = %26
  %29 = bitcast %"class.base::internal::BindStateBase"* %6 to i8**
  %30 = load i8*, i8** %29, align 8
  br label %31

31:                                               ; preds = %28, %10
  %32 = phi i8* [ %30, %28 ], [ %11, %10 ]
  store %"class.std::__1::vector.32"* %8, %"class.std::__1::vector.32"** %13, align 8
  tail call void @_ZdlPv(i8* %32) #11
  br label %33

33:                                               ; preds = %3, %31
  %34 = getelementptr inbounds %"class.base::internal::BindStateBase", %"class.base::internal::BindStateBase"* %0, i64 1, i32 2
  %35 = bitcast void (%"class.base::internal::BindStateBase"*)** %34 to %"class.base::internal::WeakPtrBase"*
  tail call void @_ZN4base8internal11WeakPtrBaseD2Ev(%"class.base::internal::WeakPtrBase"* %35) #10
  %36 = bitcast %"class.base::internal::BindStateBase"* %0 to i8*
  tail call void @_ZdlPv(i8* %36) #11
  br label %37

37:                                               ; preds = %33, %1
  ret void
}

; Function Attrs: nounwind ssp uwtable
define linkonce_odr hidden zeroext i1 @_ZN4base8internal23QueryCancellationTraitsINS0_9BindStateIMN6device27CredentialManagementHandlerEFvNSt3__16vectorINS6_IhNS5_9allocatorIhEEEENS7_IS9_EEEENS_12OnceCallbackIFvNS3_22CtapDeviceResponseCodeEEEESD_N4absl8optionalINS3_3pin13EmptyResponseEEEEJNS_7WeakPtrIS4_EESB_SF_EEEEEbPKNS0_13BindStateBaseENSQ_21CancellationQueryModeE(%"class.base::internal::BindStateBase"*, i32) #0 comdat {
  %3 = getelementptr inbounds %"class.base::internal::BindStateBase", %"class.base::internal::BindStateBase"* %0, i64 1, i32 2
  switch i32 %1, label %16 [
    i32 0, label %4
    i32 1, label %13
  ]

4:                                                ; preds = %2
  %5 = bitcast void (%"class.base::internal::BindStateBase"*)** %3 to %"class.base::internal::WeakReference"*
  %6 = tail call zeroext i1 @_ZNK4base8internal13WeakReference7IsValidEv(%"class.base::internal::WeakReference"* %5) #10
  %7 = getelementptr inbounds void (%"class.base::internal::BindStateBase"*)*, void (%"class.base::internal::BindStateBase"*)** %3, i64 1
  %8 = bitcast void (%"class.base::internal::BindStateBase"*)** %7 to %"class.device::CredentialManagementHandler"**
  %9 = load %"class.device::CredentialManagementHandler"*, %"class.device::CredentialManagementHandler"** %8, align 8
  %10 = icmp ne %"class.device::CredentialManagementHandler"* %9, null
  %11 = and i1 %6, %10
  %12 = xor i1 %11, true
  br label %16

13:                                               ; preds = %2
  %14 = bitcast void (%"class.base::internal::BindStateBase"*)** %3 to %"class.base::internal::WeakReference"*
  %15 = tail call zeroext i1 @_ZNK4base8internal13WeakReference10MaybeValidEv(%"class.base::internal::WeakReference"* %14) #10
  br label %16

16:                                               ; preds = %2, %4, %13
  %17 = phi i1 [ %15, %13 ], [ %12, %4 ], [ false, %2 ]
  ret i1 %17
}

; Function Attrs: nounwind ssp uwtable
define linkonce_odr hidden void @_ZN4base8internal7InvokerINS0_9BindStateIMN6device27CredentialManagementHandlerEFvNS3_27CredentialsMetadataResponseENS3_22CtapDeviceResponseCodeEN4absl8optionalINSt3__16vectorINS3_38AggregatedEnumerateCredentialsResponseENS9_9allocatorISB_EEEEEEEJNS_7WeakPtrIS4_EES5_EEEFvS6_SF_EE7RunOnceEPNS0_13BindStateBaseES6_OSF_(%"class.base::internal::BindStateBase"*, i8 zeroext, %"class.absl::optional.162"* dereferenceable(32)) #0 comdat align 2 {
  %4 = alloca i8, align 1
  store i8 %1, i8* %4, align 1
  %5 = getelementptr inbounds %"class.base::internal::BindStateBase", %"class.base::internal::BindStateBase"* %0, i64 1
  %6 = getelementptr inbounds %"class.base::internal::BindStateBase", %"class.base::internal::BindStateBase"* %0, i64 1, i32 2
  %7 = bitcast void (%"class.base::internal::BindStateBase"*)** %6 to %"class.base::WeakPtr"*
  %8 = getelementptr inbounds void (%"class.base::internal::BindStateBase"*)*, void (%"class.base::internal::BindStateBase"*)** %6, i64 2
  %9 = bitcast void (%"class.base::internal::BindStateBase"*)** %8 to %"struct.device::CredentialsMetadataResponse"*
  %10 = bitcast void (%"class.base::internal::BindStateBase"*)** %6 to %"class.base::internal::WeakReference"*
  %11 = tail call zeroext i1 @_ZNK4base8internal13WeakReference7IsValidEv(%"class.base::internal::WeakReference"* %10) #10
  br i1 %11, label %12, label %23

12:                                               ; preds = %3
  %13 = getelementptr inbounds void (%"class.base::internal::BindStateBase"*)*, void (%"class.base::internal::BindStateBase"*)** %6, i64 1
  %14 = bitcast void (%"class.base::internal::BindStateBase"*)** %13 to %"class.device::CredentialManagementHandler"**
  %15 = load %"class.device::CredentialManagementHandler"*, %"class.device::CredentialManagementHandler"** %14, align 8
  %16 = icmp eq %"class.device::CredentialManagementHandler"* %15, null
  br i1 %16, label %23, label %17

17:                                               ; preds = %12
  %18 = bitcast %"class.base::internal::BindStateBase"* %5 to i64*
  %19 = load i64, i64* %18, align 8
  %20 = getelementptr inbounds %"class.base::internal::BindStateBase", %"class.base::internal::BindStateBase"* %0, i64 1, i32 1
  %21 = bitcast void ()** %20 to i64*
  %22 = load i64, i64* %21, align 8
  call void @_ZN4base8internal13FunctorTraitsIMN6device27CredentialManagementHandlerEFvNS2_27CredentialsMetadataResponseENS2_22CtapDeviceResponseCodeEN4absl8optionalINSt3__16vectorINS2_38AggregatedEnumerateCredentialsResponseENS8_9allocatorISA_EEEEEEEvE6InvokeISG_NS_7WeakPtrIS3_EEJS4_S5_SE_EEEvT_OT0_DpOT1_(i64 %19, i64 %22, %"class.base::WeakPtr"* dereferenceable(16) %7, %"struct.device::CredentialsMetadataResponse"* dereferenceable(16) %9, i8* nonnull dereferenceable(1) %4, %"class.absl::optional.162"* dereferenceable(32) %2) #10
  br label %23

23:                                               ; preds = %3, %12, %17
  ret void
}

; Function Attrs: nounwind ssp uwtable
define linkonce_odr hidden void @_ZN4base8internal13FunctorTraitsIMN6device27CredentialManagementHandlerEFvNS2_27CredentialsMetadataResponseENS2_22CtapDeviceResponseCodeEN4absl8optionalINSt3__16vectorINS2_38AggregatedEnumerateCredentialsResponseENS8_9allocatorISA_EEEEEEEvE6InvokeISG_NS_7WeakPtrIS3_EEJS4_S5_SE_EEEvT_OT0_DpOT1_(i64, i64, %"class.base::WeakPtr"* dereferenceable(16), %"struct.device::CredentialsMetadataResponse"* dereferenceable(16), i8* dereferenceable(1), %"class.absl::optional.162"* dereferenceable(32)) local_unnamed_addr #0 comdat align 2 {
  %7 = alloca %"class.logging::CheckError", align 8
  %8 = alloca %"class.absl::optional.162", align 8
  %9 = getelementptr inbounds %"class.base::WeakPtr", %"class.base::WeakPtr"* %2, i64 0, i32 0, i32 0
  %10 = tail call zeroext i1 @_ZNK4base8internal13WeakReference7IsValidEv(%"class.base::internal::WeakReference"* %9) #10
  br i1 %10, label %14, label %11

11:                                               ; preds = %6
