; ModuleID = '../../third_party/blink/renderer/core/html/custom/custom_state_set.cc'
source_filename = "../../third_party/blink/renderer/core/html/custom/custom_state_set.cc"
target datalayout = "e-m:e-i64:64-f80:128-n8:16:32:64-S128"
target triple = "x86_64-unknown-linux-gnu"

module asm ".symver exp, exp@GLIBC_2.2.5"
module asm ".symver exp2, exp2@GLIBC_2.2.5"
module asm ".symver exp2f, exp2f@GLIBC_2.2.5"
module asm ".symver expf, expf@GLIBC_2.2.5"
module asm ".symver lgamma, lgamma@GLIBC_2.2.5"
module asm ".symver lgammaf, lgammaf@GLIBC_2.2.5"
module asm ".symver lgammal, lgammal@GLIBC_2.2.5"
module asm ".symver log, log@GLIBC_2.2.5"
module asm ".symver log2, log2@GLIBC_2.2.5"
module asm ".symver log2f, log2f@GLIBC_2.2.5"
module asm ".symver logf, logf@GLIBC_2.2.5"
module asm ".symver pow, pow@GLIBC_2.2.5"
module asm ".symver powf, powf@GLIBC_2.2.5"

%"class.WTF::StringImpl" = type { i32, i32, %"struct.std::__1::atomic" }
%"struct.std::__1::atomic" = type { %"struct.std::__1::__atomic_base" }
%"struct.std::__1::__atomic_base" = type { %"struct.std::__1::__atomic_base.9" }
%"struct.std::__1::__atomic_base.9" = type { %"struct.std::__1::__cxx_atomic_impl" }
%"struct.std::__1::__cxx_atomic_impl" = type { %"struct.std::__1::__cxx_atomic_base_impl" }
%"struct.std::__1::__cxx_atomic_base_impl" = type { i32 }
%"struct.blink::WrapperTypeInfo" = type { i16, void (%"class.v8::Isolate"*, %"class.blink::DOMWrapperWorld"*, %"class.v8::Template"*)*, void (%"class.v8::Context"*, %"class.blink::DOMWrapperWorld"*, %"class.v8::Object"*, %"class.v8::Object"*, %"class.v8::Object"*, %"class.v8::Template"*, i64)*, i8*, %"struct.blink::WrapperTypeInfo"*, i8 }
%"class.v8::Isolate" = type { i8 }
%"class.blink::DOMWrapperWorld" = type { %"class.WTF::RefCounted.265", i32, i32, %"class.blink::Persistent" }
%"class.WTF::RefCounted.265" = type { %"class.base::RefCounted.266" }
%"class.base::RefCounted.266" = type { %"class.base::subtle::RefCountedBase" }
%"class.base::subtle::RefCountedBase" = type { i32 }
%"class.blink::Persistent" = type { %"class.blink::PersistentBase" }
%"class.blink::PersistentBase" = type { %"class.blink::DOMDataStore"*, %"class.blink::PersistentNodePtr" }
%"class.blink::DOMDataStore" = type { i32 (...)**, i8, [7 x i8], %"class.blink::HeapHashMap.269" }
%"class.blink::HeapHashMap.269" = type { %"class.WTF::HashMap.272" }
%"class.WTF::HashMap.272" = type { %"class.WTF::HashTable.273" }
%"class.WTF::HashTable.273" = type <{ %"struct.WTF::KeyValuePair.275"*, i32, i32, i32, [4 x i8] }>
%"struct.WTF::KeyValuePair.275" = type { %"class.blink::WeakMember.276", %"class.blink::TraceWrapperV8Reference" }
%"class.blink::WeakMember.276" = type { %"class.blink::MemberBase.277" }
%"class.blink::MemberBase.277" = type { %"class.blink::ScriptWrappable"* }
%"class.blink::ScriptWrappable" = type { %"class.blink::NameClient", %"class.blink::TraceWrapperV8Reference" }
%"class.blink::NameClient" = type { i32 (...)** }
%"class.blink::TraceWrapperV8Reference" = type { %"class.v8::TracedReference" }
%"class.v8::TracedReference" = type { %"class.v8::BasicTracedReference" }
%"class.v8::BasicTracedReference" = type { %"class.v8::TracedReferenceBase" }
%"class.v8::TracedReferenceBase" = type { i64* }
%"class.blink::PersistentNodePtr" = type { %"class.blink::PersistentNode"* }
%"class.blink::PersistentNode" = type { i8*, void (%"class.blink::Visitor"*, i8*)* }
%"class.blink::Visitor" = type { i32 (...)**, %"class.blink::ThreadState"* }
%"class.blink::ThreadState" = type <{ %"class.std::__1::unique_ptr", i32, [4 x i8], %"class.std::__1::unique_ptr.206", %"class.std::__1::unique_ptr.206", i8**, i8, i8, i8, i8, i8, i8, [2 x i8], i64, i64, i32, i32, i32, [4 x i8], %"class.WTF::Deque", %"class.v8::Isolate"*, void (%"class.v8::Isolate"*, %"class.v8::EmbedderGraph"*, i8*)*, %"class.std::__1::unique_ptr.216", %"class.std::__1::unique_ptr.222", %"struct.blink::ThreadState::GCData", %"class.std::__1::unique_ptr.234", %"class.std::__1::unique_ptr.240", %"class.base::JobHandle", %"class.base::JobHandle", %"struct.std::__1::atomic.247", [7 x i8], i64, i8, [7 x i8], i64, %"class.base::TimeTicks", i8, i8, [6 x i8] }>
%"class.std::__1::unique_ptr" = type { %"class.std::__1::__compressed_pair" }
%"class.std::__1::__compressed_pair" = type { %"struct.std::__1::__compressed_pair_elem" }
%"struct.std::__1::__compressed_pair_elem" = type { %"class.blink::ThreadHeap"* }
%"class.blink::ThreadHeap" = type { %"class.blink::ThreadState"*, %"class.std::__1::unique_ptr.75", %"class.std::__1::unique_ptr.79", %"class.std::__1::unique_ptr.85", %"class.std::__1::unique_ptr.91", %"class.std::__1::unique_ptr.97", %"class.std::__1::unique_ptr.103", %"class.std::__1::unique_ptr.114", %"class.std::__1::unique_ptr.121", %"class.std::__1::unique_ptr.121", %"class.std::__1::unique_ptr.128", %"class.std::__1::unique_ptr.135", %"class.std::__1::unique_ptr.142", %"class.std::__1::unique_ptr.142", %"class.std::__1::unique_ptr.149", %"class.std::__1::unique_ptr.156", %"class.std::__1::unique_ptr.163", %"class.std::__1::unique_ptr.186", %"struct.blink::ThreadHeap::LastAllocatedRegion", [9 x %"class.blink::BaseArena"*], i64, i64 }
%"class.std::__1::unique_ptr.75" = type { %"class.std::__1::__compressed_pair.76" }
%"class.std::__1::__compressed_pair.76" = type { %"struct.std::__1::__compressed_pair_elem.77" }
%"struct.std::__1::__compressed_pair_elem.77" = type { %"class.blink::ThreadHeapStatsCollector"* }
%"class.blink::ThreadHeapStatsCollector" = type opaque
%"class.std::__1::unique_ptr.79" = type { %"class.std::__1::__compressed_pair.80" }
%"class.std::__1::__compressed_pair.80" = type { %"struct.std::__1::__compressed_pair_elem.81" }
%"struct.std::__1::__compressed_pair_elem.81" = type { %"class.blink::RegionTree"* }
%"class.blink::RegionTree" = type opaque
%"class.std::__1::unique_ptr.85" = type { %"class.std::__1::__compressed_pair.86" }
%"class.std::__1::__compressed_pair.86" = type { %"struct.std::__1::__compressed_pair_elem.87" }
%"struct.std::__1::__compressed_pair_elem.87" = type { %"class.blink::PageBloomFilter"* }
%"class.blink::PageBloomFilter" = type opaque
%"class.std::__1::unique_ptr.91" = type { %"class.std::__1::__compressed_pair.92" }
%"class.std::__1::__compressed_pair.92" = type { %"struct.std::__1::__compressed_pair_elem.93" }
%"struct.std::__1::__compressed_pair_elem.93" = type { %"class.blink::PagePool"* }
%"class.blink::PagePool" = type opaque
%"class.std::__1::unique_ptr.97" = type { %"class.std::__1::__compressed_pair.98" }
%"class.std::__1::__compressed_pair.98" = type { %"struct.std::__1::__compressed_pair_elem.99" }
%"struct.std::__1::__compressed_pair_elem.99" = type { %"class.blink::ProcessHeapReporter"* }
%"class.blink::ProcessHeapReporter" = type opaque
%"class.std::__1::unique_ptr.103" = type { %"class.std::__1::__compressed_pair.104" }
%"class.std::__1::__compressed_pair.104" = type { %"struct.std::__1::__compressed_pair_elem.105" }
%"struct.std::__1::__compressed_pair_elem.105" = type { %"class.blink::Worklist"* }
%"class.blink::Worklist" = type { [4 x %"struct.blink::Worklist<blink::TraceDescriptor, 512, 4>::PrivateSegmentHolder"], %"class.blink::Worklist<blink::TraceDescriptor, 512, 4>::GlobalPool" }
%"struct.blink::Worklist<blink::TraceDescriptor, 512, 4>::PrivateSegmentHolder" = type { %"class.blink::Worklist<blink::TraceDescriptor, 512, 4>::Segment"*, %"class.blink::Worklist<blink::TraceDescriptor, 512, 4>::Segment"*, [64 x i8] }
%"class.blink::Worklist<blink::TraceDescriptor, 512, 4>::Segment" = type { %"class.blink::Worklist<blink::TraceDescriptor, 512, 4>::Segment"*, i64, [512 x %"struct.blink::TraceDescriptor"] }
%"struct.blink::TraceDescriptor" = type { i8*, void (%"class.blink::Visitor"*, i8*)* }
%"class.blink::Worklist<blink::TraceDescriptor, 512, 4>::GlobalPool" = type { %"class.base::Lock", %"class.blink::Worklist<blink::TraceDescriptor, 512, 4>::Segment"*, %"struct.std::__1::atomic.106" }
%"class.base::Lock" = type { %"class.base::internal::LockImpl" }
%"class.base::internal::LockImpl" = type { %union.pthread_mutex_t }
%union.pthread_mutex_t = type { %struct.__pthread_mutex_s }
%struct.__pthread_mutex_s = type { i32, i32, i32, i32, i32, i16, i16, %struct.__pthread_internal_list }
%struct.__pthread_internal_list = type { %struct.__pthread_internal_list*, %struct.__pthread_internal_list* }
%"struct.std::__1::atomic.106" = type { %"struct.std::__1::__atomic_base.107" }
%"struct.std::__1::__atomic_base.107" = type { %"struct.std::__1::__atomic_base.108" }
%"struct.std::__1::__atomic_base.108" = type { %"struct.std::__1::__cxx_atomic_impl.109" }
%"struct.std::__1::__cxx_atomic_impl.109" = type { %"struct.std::__1::__cxx_atomic_base_impl.110" }
%"struct.std::__1::__cxx_atomic_base_impl.110" = type { i64 }
%"class.std::__1::unique_ptr.114" = type { %"class.std::__1::__compressed_pair.115" }
%"class.std::__1::__compressed_pair.115" = type { %"struct.std::__1::__compressed_pair_elem.116" }
%"struct.std::__1::__compressed_pair_elem.116" = type { %"class.blink::Worklist.117"* }
%"class.blink::Worklist.117" = type { [4 x %"struct.blink::Worklist<blink::HeapObjectHeader *, 64, 4>::PrivateSegmentHolder"], %"class.blink::Worklist<blink::HeapObjectHeader *, 64, 4>::GlobalPool" }
%"struct.blink::Worklist<blink::HeapObjectHeader *, 64, 4>::PrivateSegmentHolder" = type { %"class.blink::Worklist<blink::HeapObjectHeader *, 64, 4>::Segment"*, %"class.blink::Worklist<blink::HeapObjectHeader *, 64, 4>::Segment"*, [64 x i8] }
%"class.blink::Worklist<blink::HeapObjectHeader *, 64, 4>::Segment" = type opaque
%"class.blink::Worklist<blink::HeapObjectHeader *, 64, 4>::GlobalPool" = type { %"class.base::Lock", %"class.blink::Worklist<blink::HeapObjectHeader *, 64, 4>::Segment"*, %"struct.std::__1::atomic.106" }
%"class.std::__1::unique_ptr.121" = type { %"class.std::__1::__compressed_pair.122" }
%"class.std::__1::__compressed_pair.122" = type { %"struct.std::__1::__compressed_pair_elem.123" }
%"struct.std::__1::__compressed_pair_elem.123" = type { %"class.blink::Worklist.124"* }
%"class.blink::Worklist.124" = type { [4 x %"struct.blink::Worklist<const void *, 16, 4>::PrivateSegmentHolder"], %"class.blink::Worklist<const void *, 16, 4>::GlobalPool" }
%"struct.blink::Worklist<const void *, 16, 4>::PrivateSegmentHolder" = type { %"class.blink::Worklist<const void *, 16, 4>::Segment"*, %"class.blink::Worklist<const void *, 16, 4>::Segment"*, [64 x i8] }
%"class.blink::Worklist<const void *, 16, 4>::Segment" = type { %"class.blink::Worklist<const void *, 16, 4>::Segment"*, i64, [16 x i8*] }
%"class.blink::Worklist<const void *, 16, 4>::GlobalPool" = type { %"class.base::Lock", %"class.blink::Worklist<const void *, 16, 4>::Segment"*, %"struct.std::__1::atomic.106" }
%"class.std::__1::unique_ptr.128" = type { %"class.std::__1::__compressed_pair.129" }
%"class.std::__1::__compressed_pair.129" = type { %"struct.std::__1::__compressed_pair_elem.130" }
%"struct.std::__1::__compressed_pair_elem.130" = type { %"class.blink::Worklist.131"* }
%"class.blink::Worklist.131" = type { [4 x %"struct.blink::Worklist<blink::CustomCallbackItem, 64, 4>::PrivateSegmentHolder"], %"class.blink::Worklist<blink::CustomCallbackItem, 64, 4>::GlobalPool" }
%"struct.blink::Worklist<blink::CustomCallbackItem, 64, 4>::PrivateSegmentHolder" = type { %"class.blink::Worklist<blink::CustomCallbackItem, 64, 4>::Segment"*, %"class.blink::Worklist<blink::CustomCallbackItem, 64, 4>::Segment"*, [64 x i8] }
%"class.blink::Worklist<blink::CustomCallbackItem, 64, 4>::Segment" = type opaque
%"class.blink::Worklist<blink::CustomCallbackItem, 64, 4>::GlobalPool" = type { %"class.base::Lock", %"class.blink::Worklist<blink::CustomCallbackItem, 64, 4>::Segment"*, %"struct.std::__1::atomic.106" }
%"class.std::__1::unique_ptr.135" = type { %"class.std::__1::__compressed_pair.136" }
%"class.std::__1::__compressed_pair.136" = type { %"struct.std::__1::__compressed_pair_elem.137" }
%"struct.std::__1::__compressed_pair_elem.137" = type { %"class.blink::Worklist.138"* }
%"class.blink::Worklist.138" = type { [4 x %"struct.blink::Worklist<const void *const *, 256, 4>::PrivateSegmentHolder"], %"class.blink::Worklist<const void *const *, 256, 4>::GlobalPool" }
%"struct.blink::Worklist<const void *const *, 256, 4>::PrivateSegmentHolder" = type { %"class.blink::Worklist<const void *const *, 256, 4>::Segment"*, %"class.blink::Worklist<const void *const *, 256, 4>::Segment"*, [64 x i8] }
%"class.blink::Worklist<const void *const *, 256, 4>::Segment" = type opaque
%"class.blink::Worklist<const void *const *, 256, 4>::GlobalPool" = type { %"class.base::Lock", %"class.blink::Worklist<const void *const *, 256, 4>::Segment"*, %"struct.std::__1::atomic.106" }
%"class.std::__1::unique_ptr.142" = type { %"class.std::__1::__compressed_pair.143" }
%"class.std::__1::__compressed_pair.143" = type { %"struct.std::__1::__compressed_pair_elem.144" }
%"struct.std::__1::__compressed_pair_elem.144" = type { %"class.blink::Worklist.145"* }
%"class.blink::Worklist.145" = type { [4 x %"struct.blink::Worklist<blink::EphemeronPairItem, 64, 4>::PrivateSegmentHolder"], %"class.blink::Worklist<blink::EphemeronPairItem, 64, 4>::GlobalPool" }
%"struct.blink::Worklist<blink::EphemeronPairItem, 64, 4>::PrivateSegmentHolder" = type { %"class.blink::Worklist<blink::EphemeronPairItem, 64, 4>::Segment"*, %"class.blink::Worklist<blink::EphemeronPairItem, 64, 4>::Segment"*, [64 x i8] }
%"class.blink::Worklist<blink::EphemeronPairItem, 64, 4>::Segment" = type opaque
%"class.blink::Worklist<blink::EphemeronPairItem, 64, 4>::GlobalPool" = type { %"class.base::Lock", %"class.blink::Worklist<blink::EphemeronPairItem, 64, 4>::Segment"*, %"struct.std::__1::atomic.106" }
%"class.std::__1::unique_ptr.149" = type { %"class.std::__1::__compressed_pair.150" }
%"class.std::__1::__compressed_pair.150" = type { %"struct.std::__1::__compressed_pair_elem.151" }
%"struct.std::__1::__compressed_pair_elem.151" = type { %"class.blink::Worklist.152"* }
%"class.blink::Worklist.152" = type { [4 x %"struct.blink::Worklist<const blink::TraceWrapperV8Reference<v8::Value> *, 16, 4>::PrivateSegmentHolder"], %"class.blink::Worklist<const blink::TraceWrapperV8Reference<v8::Value> *, 16, 4>::GlobalPool" }
%"struct.blink::Worklist<const blink::TraceWrapperV8Reference<v8::Value> *, 16, 4>::PrivateSegmentHolder" = type { %"class.blink::Worklist<const blink::TraceWrapperV8Reference<v8::Value> *, 16, 4>::Segment"*, %"class.blink::Worklist<const blink::TraceWrapperV8Reference<v8::Value> *, 16, 4>::Segment"*, [64 x i8] }
%"class.blink::Worklist<const blink::TraceWrapperV8Reference<v8::Value> *, 16, 4>::Segment" = type opaque
%"class.blink::Worklist<const blink::TraceWrapperV8Reference<v8::Value> *, 16, 4>::GlobalPool" = type { %"class.base::Lock", %"class.blink::Worklist<const blink::TraceWrapperV8Reference<v8::Value> *, 16, 4>::Segment"*, %"struct.std::__1::atomic.106" }
%"class.std::__1::unique_ptr.156" = type { %"class.std::__1::__compressed_pair.157" }
%"class.std::__1::__compressed_pair.157" = type { %"struct.std::__1::__compressed_pair_elem.158" }
%"struct.std::__1::__compressed_pair_elem.158" = type { %"class.blink::Worklist.159"* }
%"class.blink::Worklist.159" = type { [4 x %"struct.blink::Worklist<blink::NotSafeToConcurrentlyTraceItem, 64, 4>::PrivateSegmentHolder"], %"class.blink::Worklist<blink::NotSafeToConcurrentlyTraceItem, 64, 4>::GlobalPool" }
%"struct.blink::Worklist<blink::NotSafeToConcurrentlyTraceItem, 64, 4>::PrivateSegmentHolder" = type { %"class.blink::Worklist<blink::NotSafeToConcurrentlyTraceItem, 64, 4>::Segment"*, %"class.blink::Worklist<blink::NotSafeToConcurrentlyTraceItem, 64, 4>::Segment"*, [64 x i8] }
%"class.blink::Worklist<blink::NotSafeToConcurrentlyTraceItem, 64, 4>::Segment" = type { %"class.blink::Worklist<blink::NotSafeToConcurrentlyTraceItem, 64, 4>::Segment"*, i64, [64 x %"struct.blink::NotSafeToConcurrentlyTraceItem"] }
%"struct.blink::NotSafeToConcurrentlyTraceItem" = type { %"struct.blink::TraceDescriptor", i64 }
%"class.blink::Worklist<blink::NotSafeToConcurrentlyTraceItem, 64, 4>::GlobalPool" = type { %"class.base::Lock", %"class.blink::Worklist<blink::NotSafeToConcurrentlyTraceItem, 64, 4>::Segment"*, %"struct.std::__1::atomic.106" }
%"class.std::__1::unique_ptr.163" = type { %"class.std::__1::__compressed_pair.164" }
%"class.std::__1::__compressed_pair.164" = type { %"struct.std::__1::__compressed_pair_elem.165" }
%"struct.std::__1::__compressed_pair_elem.165" = type { %"class.blink::WeakContainersWorklist"* }
%"class.blink::WeakContainersWorklist" = type { %"class.WTF::Mutex", %"class.std::__1::unordered_set" }
%"class.WTF::Mutex" = type { %"class.WTF::MutexBase" }
%"class.WTF::MutexBase" = type { %"struct.WTF::PlatformMutex" }
%"struct.WTF::PlatformMutex" = type { %union.pthread_mutex_t }
%"class.std::__1::unordered_set" = type { %"class.std::__1::__hash_table" }
%"class.std::__1::__hash_table" = type <{ %"class.std::__1::unique_ptr.166", %"class.std::__1::__compressed_pair.173", %"class.std::__1::__compressed_pair.178", %"class.std::__1::__compressed_pair.180", [4 x i8] }>
%"class.std::__1::unique_ptr.166" = type { %"class.std::__1::__compressed_pair.167" }
%"class.std::__1::__compressed_pair.167" = type { %"struct.std::__1::__compressed_pair_elem.168", %"struct.std::__1::__compressed_pair_elem.169" }
%"struct.std::__1::__compressed_pair_elem.168" = type { %"struct.std::__1::__hash_node_base"** }
%"struct.std::__1::__hash_node_base" = type { %"struct.std::__1::__hash_node_base"* }
%"struct.std::__1::__compressed_pair_elem.169" = type { %"class.std::__1::__bucket_list_deallocator" }
%"class.std::__1::__bucket_list_deallocator" = type { %"class.std::__1::__compressed_pair.170" }
%"class.std::__1::__compressed_pair.170" = type { %"struct.std::__1::__compressed_pair_elem.171" }
%"struct.std::__1::__compressed_pair_elem.171" = type { i64 }
%"class.std::__1::__compressed_pair.173" = type { %"struct.std::__1::__compressed_pair_elem.174" }
%"struct.std::__1::__compressed_pair_elem.174" = type { %"struct.std::__1::__hash_node_base" }
%"class.std::__1::__compressed_pair.178" = type { %"struct.std::__1::__compressed_pair_elem.171" }
%"class.std::__1::__compressed_pair.180" = type { %"struct.std::__1::__compressed_pair_elem.181" }
%"struct.std::__1::__compressed_pair_elem.181" = type { float }
%"class.std::__1::unique_ptr.186" = type { %"class.std::__1::__compressed_pair.187" }
%"class.std::__1::__compressed_pair.187" = type { %"struct.std::__1::__compressed_pair_elem.188" }
%"struct.std::__1::__compressed_pair_elem.188" = type { %"class.blink::HeapCompact"* }
%"class.blink::HeapCompact" = type <{ %"class.blink::ThreadHeap"*, %"class.std::__1::unique_ptr.189", i8, [7 x i8], i64, i64, i32, [4 x i8], i64, i8, [7 x i8] }>
%"class.std::__1::unique_ptr.189" = type { %"class.std::__1::__compressed_pair.190" }
%"class.std::__1::__compressed_pair.190" = type { %"struct.std::__1::__compressed_pair_elem.191" }
%"struct.std::__1::__compressed_pair_elem.191" = type { %"class.blink::HeapCompact::MovableObjectFixups"* }
%"class.blink::HeapCompact::MovableObjectFixups" = type opaque
%"struct.blink::ThreadHeap::LastAllocatedRegion" = type { i8*, i64 }
%"class.blink::BaseArena" = type <{ i32 (...)**, %"class.blink::PageStackThreadSafe", %"class.blink::PageStackThreadSafe", %"class.blink::PageStackThreadSafe", %"class.blink::PageStackThreadSafe", %"class.blink::ThreadState"*, i32, [4 x i8] }>
%"class.blink::PageStackThreadSafe" = type { %"class.blink::PageStack", %"class.WTF::Mutex" }
%"class.blink::PageStack" = type { %"class.WTF::Vector.198" }
%"class.WTF::Vector.198" = type { %"class.WTF::VectorBuffer.199" }
%"class.WTF::VectorBuffer.199" = type { %"class.WTF::VectorBufferBase.200" }
%"class.WTF::VectorBufferBase.200" = type { %"class.blink::BasePage"**, i32, i32 }
%"class.blink::BasePage" = type <{ i32 (...)**, %"class.blink::PageMemory"*, %"class.blink::BaseArena"*, %"class.blink::ThreadState"*, i64, i8, i8, i8, [5 x i8] }>
%"class.blink::PageMemory" = type opaque
%"class.std::__1::unique_ptr.206" = type { %"class.std::__1::__compressed_pair.207" }
%"class.std::__1::__compressed_pair.207" = type { %"struct.std::__1::__compressed_pair_elem.208" }
%"struct.std::__1::__compressed_pair_elem.208" = type { %"class.blink::PersistentRegion"* }
%"class.blink::PersistentRegion" = type { %"class.blink::PersistentRegionBase" }
%"class.blink::PersistentRegionBase" = type { %"class.blink::PersistentNode"*, %"struct.blink::PersistentNodeSlots"* }
%"struct.blink::PersistentNodeSlots" = type { %"struct.blink::PersistentNodeSlots"*, [256 x %"class.blink::PersistentNode"] }
%"class.WTF::Deque" = type { %"class.WTF::Deque<std::__1::pair<void *, bool (*)(const blink::LivenessBroker &, void *)>, 0, WTF::PartitionAllocator>::BackingBuffer", i32, i32 }
%"class.WTF::Deque<std::__1::pair<void *, bool (*)(const blink::LivenessBroker &, void *)>, 0, WTF::PartitionAllocator>::BackingBuffer" = type { %"class.WTF::VectorBuffer.214" }
%"class.WTF::VectorBuffer.214" = type { %"class.WTF::VectorBufferBase.215" }
%"class.WTF::VectorBufferBase.215" = type { %"struct.std::__1::pair"*, i32, i32 }
%"struct.std::__1::pair" = type { i8*, i1 (%"class.blink::LivenessBroker"*, i8*)* }
%"class.blink::LivenessBroker" = type { i8 }
%"class.v8::EmbedderGraph" = type opaque
%"class.std::__1::unique_ptr.216" = type { %"class.std::__1::__compressed_pair.217" }
%"class.std::__1::__compressed_pair.217" = type { %"struct.std::__1::__compressed_pair_elem.218" }
%"struct.std::__1::__compressed_pair_elem.218" = type { %"class.blink::UnifiedHeapController"* }
%"class.blink::UnifiedHeapController" = type opaque
%"class.std::__1::unique_ptr.222" = type { %"class.std::__1::__compressed_pair.223" }
%"class.std::__1::__compressed_pair.223" = type { %"struct.std::__1::__compressed_pair_elem.224" }
%"struct.std::__1::__compressed_pair_elem.224" = type { %"class.v8::EmbedderRootsHandler"* }
%"class.v8::EmbedderRootsHandler" = type { i32 (...)** }
%"struct.blink::ThreadState::GCData" = type { i32, i32, i32, i32, %"class.std::__1::unique_ptr.228" }
%"class.std::__1::unique_ptr.228" = type { %"class.std::__1::__compressed_pair.229" }
%"class.std::__1::__compressed_pair.229" = type { %"struct.std::__1::__compressed_pair_elem.230" }
%"struct.std::__1::__compressed_pair_elem.230" = type { %"class.blink::MarkingVisitor"* }
%"class.blink::MarkingVisitor" = type { %"class.blink::MarkingVisitorBase", %"class.blink::MarkingVisitor::RecentlyRetracedWeakContainers" }
%"class.blink::MarkingVisitorBase" = type { %"class.blink::Visitor", %"class.blink::Worklist<blink::TraceDescriptor, 512, 4>::View", %"class.blink::Worklist<blink::HeapObjectHeader *, 64, 4>::View", %"class.blink::Worklist<const void *, 16, 4>::View", %"class.blink::Worklist<blink::CustomCallbackItem, 64, 4>::View", %"class.blink::Worklist<const void *const *, 256, 4>::View", %"class.blink::Worklist<blink::EphemeronPairItem, 64, 4>::View", %"class.blink::Worklist<blink::EphemeronPairItem, 64, 4>::View", %"class.blink::WeakContainersWorklist"*, i64, i32, i32 }
%"class.blink::Worklist<blink::TraceDescriptor, 512, 4>::View" = type <{ %"class.blink::Worklist"*, i32, [4 x i8] }>
%"class.blink::Worklist<blink::HeapObjectHeader *, 64, 4>::View" = type <{ %"class.blink::Worklist.117"*, i32, [4 x i8] }>
%"class.blink::Worklist<const void *, 16, 4>::View" = type <{ %"class.blink::Worklist.124"*, i32, [4 x i8] }>
%"class.blink::Worklist<blink::CustomCallbackItem, 64, 4>::View" = type <{ %"class.blink::Worklist.131"*, i32, [4 x i8] }>
%"class.blink::Worklist<const void *const *, 256, 4>::View" = type <{ %"class.blink::Worklist.138"*, i32, [4 x i8] }>
%"class.blink::Worklist<blink::EphemeronPairItem, 64, 4>::View" = type <{ %"class.blink::Worklist.145"*, i32, [4 x i8] }>
%"class.blink::MarkingVisitor::RecentlyRetracedWeakContainers" = type { %"class.std::__1::vector", i64 }
%"class.std::__1::vector" = type { %"class.std::__1::__vector_base" }
%"class.std::__1::__vector_base" = type { %"class.blink::HeapObjectHeader"**, %"class.blink::HeapObjectHeader"**, %"class.std::__1::__compressed_pair.251" }
%"class.blink::HeapObjectHeader" = type { i32, i16, i16 }
%"class.std::__1::__compressed_pair.251" = type { %"struct.std::__1::__compressed_pair_elem.252" }
%"struct.std::__1::__compressed_pair_elem.252" = type { %"class.blink::HeapObjectHeader"** }
%"class.std::__1::unique_ptr.234" = type { %"class.std::__1::__compressed_pair.235" }
%"class.std::__1::__compressed_pair.235" = type { %"struct.std::__1::__compressed_pair_elem.236" }
%"struct.std::__1::__compressed_pair_elem.236" = type { %"class.blink::ThreadState::IncrementalMarkingScheduler"* }
%"class.blink::ThreadState::IncrementalMarkingScheduler" = type opaque
%"class.std::__1::unique_ptr.240" = type { %"class.std::__1::__compressed_pair.241" }
%"class.std::__1::__compressed_pair.241" = type { %"struct.std::__1::__compressed_pair_elem.242" }
%"struct.std::__1::__compressed_pair_elem.242" = type { %"class.blink::MarkingSchedulingOracle"* }
%"class.blink::MarkingSchedulingOracle" = type opaque
%"class.base::JobHandle" = type { %class.scoped_refptr.246 }
%class.scoped_refptr.246 = type { %"class.base::internal::JobTaskSource"* }
%"class.base::internal::JobTaskSource" = type opaque
%"struct.std::__1::atomic.247" = type { %"struct.std::__1::__atomic_base.248" }
%"struct.std::__1::__atomic_base.248" = type { %"struct.std::__1::__cxx_atomic_impl.249" }
%"struct.std::__1::__cxx_atomic_impl.249" = type { %"struct.std::__1::__cxx_atomic_base_impl.250" }
%"struct.std::__1::__cxx_atomic_base_impl.250" = type { i8 }
%"class.base::TimeTicks" = type { %"class.base::time_internal::TimeBase" }
%"class.base::time_internal::TimeBase" = type { i64 }
%"class.v8::Template" = type { i8 }
%"class.v8::Context" = type { i8 }
%"class.v8::Object" = type { i8 }
%"class.WTF::ThreadSpecific" = type { %"class.blink::ThreadState"**, %"class.base::ThreadLocalStorage::Slot" }
%"class.base::ThreadLocalStorage::Slot" = type { i32, i32 }
%"class.blink::AtomicEntryFlag" = type { %"struct.std::__1::atomic.299" }
%"struct.std::__1::atomic.299" = type { %"struct.std::__1::__atomic_base.300" }
%"struct.std::__1::__atomic_base.300" = type { %"struct.std::__1::__atomic_base.301" }
%"struct.std::__1::__atomic_base.301" = type { %"struct.std::__1::__cxx_atomic_impl.302" }
%"struct.std::__1::__cxx_atomic_impl.302" = type { %"struct.std::__1::__cxx_atomic_base_impl.303" }
%"struct.std::__1::__cxx_atomic_base_impl.303" = type { i32 }
%"struct.blink::GCInfo" = type { void (%"class.blink::Visitor"*, i8*)*, void (i8*)*, { i8*, i8 } (i8*)*, i8 }
%"class.blink::GCInfoTable" = type { %"struct.blink::GCInfo"**, i32, i32, %"class.WTF::Mutex" }
%"class.blink::CustomStateSet" = type { %"class.blink::ScriptWrappable", %"class.blink::SetlikeIterable", %"class.blink::Member", %"class.WTF::Vector.21", %"class.blink::HeapHashSet" }
%"class.blink::SetlikeIterable" = type { %"class.blink::Iterable" }
%"class.blink::Iterable" = type { i32 (...)** }
%"class.blink::Member" = type { %"class.blink::MemberBase" }
%"class.blink::MemberBase" = type { %"class.blink::Element"* }
%"class.WTF::Vector.21" = type { %"class.WTF::VectorBuffer.22" }
%"class.WTF::VectorBuffer.22" = type { %"class.WTF::VectorBufferBase.23" }
%"class.WTF::VectorBufferBase.23" = type { %"class.WTF::String"*, i32, i32 }
%"class.WTF::String" = type { %class.scoped_refptr.8 }
%class.scoped_refptr.8 = type { %"class.WTF::StringImpl"* }
%"class.blink::HeapHashSet" = type { %"class.WTF::HashSet" }
%"class.WTF::HashSet" = type { %"class.WTF::HashTable" }
%"class.WTF::HashTable" = type <{ %"class.blink::WeakMember"*, i32, i32, i32, [4 x i8] }>
%"class.blink::WeakMember" = type { %"class.blink::MemberBase.29" }
%"class.blink::MemberBase.29" = type { %"class.blink::CustomStateIterationSource"* }
%"class.blink::CustomStateIterationSource" = type <{ %"class.blink::Iterable<WTF::String, WTF::String>::IterationSource", %"class.blink::Member.32", i32, [4 x i8] }>
%"class.blink::Iterable<WTF::String, WTF::String>::IterationSource" = type { i32 (...)** }
%"class.blink::Member.32" = type { %"class.blink::MemberBase.33" }
%"class.blink::MemberBase.33" = type { %"class.blink::CustomStateSet"* }
%"class.blink::Element" = type { %"class.blink::ContainerNode", %"class.blink::Animatable", %"class.blink::QualifiedName", %"class.blink::Member.10" }
%"class.blink::ContainerNode" = type { %"class.blink::Node", %"class.blink::Member.0", %"class.blink::Member.0" }
%"class.blink::Node" = type { %"class.blink::EventTarget", i32, %"class.blink::Member.0", %"class.blink::Member.2", %"class.blink::Member.0", %"class.blink::Member.0", %"class.blink::Member.4" }
%"class.blink::EventTarget" = type { %"class.blink::ScriptWrappable" }
%"class.blink::Member.2" = type { %"class.blink::MemberBase.3" }
%"class.blink::MemberBase.3" = type { %"class.blink::TreeScope"* }
%"class.blink::TreeScope" = type { %"class.blink::GarbageCollectedMixin", %"class.blink::Member.34", %"class.blink::Member.36", %"class.blink::Member.2", %"class.blink::Member.38", %"class.blink::Member.38", %"class.blink::Member.56", %"class.blink::Member.58", %"class.blink::Member.60", %"class.blink::RadioButtonGroupScope", %"class.blink::Member.65", %"class.blink::HeapVector.67" }
%"class.blink::GarbageCollectedMixin" = type { i32 (...)** }
%"class.blink::Member.34" = type { %"class.blink::MemberBase.35" }
%"class.blink::MemberBase.35" = type { %"class.blink::ContainerNode"* }
%"class.blink::Member.36" = type { %"class.blink::MemberBase.37" }
%"class.blink::MemberBase.37" = type { %"class.blink::Document"* }
%"class.blink::Document" = type opaque
%"class.blink::Member.38" = type { %"class.blink::MemberBase.39" }
%"class.blink::MemberBase.39" = type { %"class.blink::TreeOrderedMap"* }
%"class.blink::TreeOrderedMap" = type { %"class.blink::HeapHashMap" }
%"class.blink::HeapHashMap" = type { %"class.WTF::HashMap" }
%"class.WTF::HashMap" = type { %"class.WTF::HashTable.44" }
%"class.WTF::HashTable.44" = type <{ %"struct.WTF::KeyValuePair"*, i32, i32, i32, [4 x i8] }>
%"struct.WTF::KeyValuePair" = type { %"class.WTF::AtomicString", %"class.blink::Member.46" }
%"class.WTF::AtomicString" = type { %"class.WTF::String" }
%"class.blink::Member.46" = type { %"class.blink::MemberBase.47" }
%"class.blink::MemberBase.47" = type { %"class.blink::TreeOrderedMap::MapEntry"* }
%"class.blink::TreeOrderedMap::MapEntry" = type { %"class.blink::Member", i32, %"class.blink::HeapVector" }
%"class.blink::HeapVector" = type { %"class.WTF::Vector.52" }
%"class.WTF::Vector.52" = type { %"class.WTF::VectorBuffer.53" }
%"class.WTF::VectorBuffer.53" = type { %"class.WTF::VectorBufferBase.54" }
%"class.WTF::VectorBufferBase.54" = type { %"class.blink::Member"*, i32, i32 }
%"class.blink::Member.56" = type { %"class.blink::MemberBase.57" }
%"class.blink::MemberBase.57" = type { %"class.blink::IdTargetObserverRegistry"* }
%"class.blink::IdTargetObserverRegistry" = type opaque
%"class.blink::Member.58" = type { %"class.blink::MemberBase.59" }
%"class.blink::MemberBase.59" = type { %"class.blink::ScopedStyleResolver"* }
%"class.blink::ScopedStyleResolver" = type opaque
%"class.blink::Member.60" = type { %"class.blink::MemberBase.61" }
%"class.blink::MemberBase.61" = type { %"class.blink::DOMSelection"* }
%"class.blink::DOMSelection" = type opaque
%"class.blink::RadioButtonGroupScope" = type { %"class.blink::Member.62" }
%"class.blink::Member.62" = type { %"class.blink::MemberBase.63" }
%"class.blink::MemberBase.63" = type { %"class.blink::HeapHashMap.64"* }
%"class.blink::HeapHashMap.64" = type opaque
%"class.blink::Member.65" = type { %"class.blink::MemberBase.66" }
%"class.blink::MemberBase.66" = type { %"class.blink::SVGTreeScopeResources"* }
%"class.blink::SVGTreeScopeResources" = type opaque
%"class.blink::HeapVector.67" = type { %"class.WTF::Vector.70" }
%"class.WTF::Vector.70" = type { %"class.WTF::VectorBuffer.71" }
%"class.WTF::VectorBuffer.71" = type { %"class.WTF::VectorBufferBase.72" }
%"class.WTF::VectorBufferBase.72" = type { %"class.blink::Member.73"*, i32, i32 }
%"class.blink::Member.73" = type opaque
%"class.blink::Member.4" = type { %"class.blink::MemberBase.5" }
%"class.blink::MemberBase.5" = type { %"class.blink::NodeData"* }
%"class.blink::NodeData" = type { i16, %"class.WTF::ConcurrentlyReadBitField" }
%"class.WTF::ConcurrentlyReadBitField" = type { %"class.WTF::SingleThreadedBitField" }
%"class.WTF::SingleThreadedBitField" = type { i16 }
%"class.blink::Member.0" = type { %"class.blink::MemberBase.1" }
%"class.blink::MemberBase.1" = type { %"class.blink::Node"* }
%"class.blink::Animatable" = type { i32 (...)** }
%"class.blink::QualifiedName" = type { %class.scoped_refptr }
%class.scoped_refptr = type { %"class.blink::QualifiedName::QualifiedNameImpl"* }
%"class.blink::QualifiedName::QualifiedNameImpl" = type { %"class.WTF::RefCounted", i32, %"class.WTF::AtomicString", %"class.WTF::AtomicString", %"class.WTF::AtomicString", %"class.WTF::AtomicString" }
%"class.WTF::RefCounted" = type { %"class.base::RefCounted" }
%"class.base::RefCounted" = type { %"class.base::subtle::RefCountedBase" }
%"class.blink::Member.10" = type { %"class.blink::MemberBase.11" }
%"class.blink::MemberBase.11" = type { %"class.blink::ElementData"* }
%"class.blink::ElementData" = type { %"class.WTF::ConcurrentlyReadBitField.14", %"class.blink::Member.16", %"class.blink::SpaceSplitString", %"class.WTF::AtomicString" }
%"class.WTF::ConcurrentlyReadBitField.14" = type { %"class.WTF::SingleThreadedBitField.15" }
%"class.WTF::SingleThreadedBitField.15" = type { i32 }
%"class.blink::Member.16" = type { %"class.blink::MemberBase.17" }
%"class.blink::MemberBase.17" = type { %"class.blink::CSSPropertyValueSet"* }
%"class.blink::CSSPropertyValueSet" = type opaque
%"class.blink::SpaceSplitString" = type { %class.scoped_refptr.18 }
%class.scoped_refptr.18 = type { %"class.blink::SpaceSplitString::Data"* }
%"class.blink::SpaceSplitString::Data" = type { %"class.WTF::RefCounted.19", %"class.WTF::AtomicString", %"class.WTF::Vector" }
%"class.WTF::RefCounted.19" = type { %"class.base::RefCounted.20" }
%"class.base::RefCounted.20" = type { %"class.base::subtle::RefCountedBase" }
%"class.WTF::Vector" = type { %"class.WTF::VectorBuffer" }
%"class.WTF::VectorBuffer" = type { %"class.WTF::VectorBufferBase", [32 x i8] }
%"class.WTF::VectorBufferBase" = type { %"class.WTF::AtomicString"*, i32, i32 }
%"class.blink::ExceptionState" = type { i32 (...)**, %"class.blink::ExceptionContext", %"class.blink::ExceptionState::ContextScope"*, %"class.v8::Isolate"*, i32, %"class.WTF::String", %"class.blink::TraceWrapperV8Reference.256" }
%"class.blink::ExceptionContext" = type { i16, i16, i8*, i8* }
%"class.blink::ExceptionState::ContextScope" = type { %"class.blink::ExceptionState"*, %"class.blink::ExceptionState::ContextScope"*, %"class.blink::ExceptionContext" }
%"class.blink::TraceWrapperV8Reference.256" = type { %"class.v8::TracedReference.257" }
%"class.v8::TracedReference.257" = type { %"class.v8::BasicTracedReference.258" }
%"class.v8::BasicTracedReference.258" = type { %"class.v8::TracedReferenceBase" }
%"class.WTF::StringView" = type <{ %"class.WTF::StringImpl"*, i8*, i32, [4 x i8] }>
%"class.WTF::StringAppend" = type { %"class.WTF::StringAppend.259", i8* }
%"class.WTF::StringAppend.259" = type { i8*, %"class.WTF::String" }
%"class.WTF::StringAppend.260" = type { %"class.WTF::StringAppend.261", i8* }
%"class.WTF::StringAppend.261" = type <{ %"class.WTF::StringAppend", i16, [6 x i8] }>
%"class.WTF::StringTypeAdapter.304" = type <{ i8*, i32, [4 x i8] }>
%"class.blink::ScriptState" = type { %"class.v8::Isolate"*, %"class.blink::ScopedPersistent", %class.scoped_refptr.264, %"class.blink::Member.278", %"class.blink::SelfKeepAlive", %"class.util::TokenType" }
%"class.blink::ScopedPersistent" = type { %"class.v8::Persistent" }
%"class.v8::Persistent" = type { %"class.v8::PersistentBase" }
%"class.v8::PersistentBase" = type { %"class.v8::Context"* }
%class.scoped_refptr.264 = type { %"class.blink::DOMWrapperWorld"* }
%"class.blink::Member.278" = type { %"class.blink::MemberBase.279" }
%"class.blink::MemberBase.279" = type { %"class.blink::V8PerContextData"* }
%"class.blink::V8PerContextData" = type opaque
%"class.blink::SelfKeepAlive" = type { %"class.blink::Persistent.280" }
%"class.blink::Persistent.280" = type { %"class.blink::PersistentBase.281" }
%"class.blink::PersistentBase.281" = type { %"class.blink::ScriptState"*, %"class.blink::PersistentNodePtr" }
%"class.util::TokenType" = type { %"class.base::StrongAlias" }
%"class.base::StrongAlias" = type { %"class.base::UnguessableToken" }
%"class.base::UnguessableToken" = type { %"class.base::Token" }
%"class.base::Token" = type { i64, i64 }
%"class.logging::CheckOpResult" = type { i8* }
%"class.logging::CheckError" = type { %"class.logging::LogMessage"* }
%"class.logging::LogMessage" = type { i32 (...)**, i32, %"class.std::__1::basic_ostringstream", i64, i8*, i32, %"class.base::ScopedClearLastErrorBase" }
%"class.std::__1::basic_ostringstream" = type { %"class.std::__1::basic_ostream.base", %"class.std::__1::basic_stringbuf", %"class.std::__1::basic_ios.base" }
%"class.std::__1::basic_ostream.base" = type { i32 (...)** }
%"class.std::__1::basic_stringbuf" = type <{ %"class.std::__1::basic_streambuf", %"class.std::__1::basic_string", i8*, i32, [4 x i8] }>
%"class.std::__1::basic_streambuf" = type { i32 (...)**, %"class.std::__1::locale", i8*, i8*, i8*, i8*, i8*, i8* }
%"class.std::__1::locale" = type { %"class.std::__1::locale::__imp"* }
%"class.std::__1::locale::__imp" = type opaque
%"class.std::__1::basic_string" = type { %"class.std::__1::__compressed_pair.307" }
%"class.std::__1::__compressed_pair.307" = type { %"struct.std::__1::__compressed_pair_elem.308" }
%"struct.std::__1::__compressed_pair_elem.308" = type { %"struct.std::__1::basic_string<char, std::__1::char_traits<char>, std::__1::allocator<char> >::__rep" }
%"struct.std::__1::basic_string<char, std::__1::char_traits<char>, std::__1::allocator<char> >::__rep" = type { %union.anon }
%union.anon = type { %"struct.std::__1::basic_string<char, std::__1::char_traits<char>, std::__1::allocator<char> >::__long" }
%"struct.std::__1::basic_string<char, std::__1::char_traits<char>, std::__1::allocator<char> >::__long" = type { i8*, i64, i64 }
%"class.std::__1::basic_ios.base" = type <{ %"class.std::__1::ios_base", %"class.std::__1::basic_ostream"*, i32 }>
%"class.std::__1::ios_base" = type { i32 (...)**, i32, i64, i64, i32, i32, i8*, i8*, void (i32, %"class.std::__1::ios_base"*, i32)**, i32*, i64, i64, i64*, i64, i64, i8**, i64, i64 }
%"class.std::__1::basic_ostream" = type { i32 (...)**, %"class.std::__1::basic_ios.base" }
%"class.base::ScopedClearLastErrorBase" = type { i32 }
%"class.v8::Value" = type { i8 }
%"class.WTF::StringTypeAdapter.305" = type { %"class.WTF::StringTypeAdapter.306" }
%"class.WTF::StringTypeAdapter.306" = type { %"class.WTF::StringView" }
%"class.blink::NormalPageArena" = type { %"class.blink::BaseArena.base", [4 x i8], %"class.blink::FreeList", i8*, i64, i64 }
%"class.blink::BaseArena.base" = type <{ i32 (...)**, %"class.blink::PageStackThreadSafe", %"class.blink::PageStackThreadSafe", %"class.blink::PageStackThreadSafe", %"class.blink::PageStackThreadSafe", %"class.blink::ThreadState"*, i32 }>
%"class.blink::FreeList" = type <{ [17 x %"class.blink::FreeListEntry"*], [17 x %"class.blink::FreeListEntry"*], i32, [4 x i8] }>
%"class.blink::FreeListEntry" = type { %"class.blink::HeapObjectHeader", %"class.blink::FreeListEntry"* }
%"class.blink::PlatformAwareObjectStartBitmap" = type { %"class.blink::ObjectStartBitmap" }
%"class.blink::ObjectStartBitmap" = type { i8*, [2048 x i8] }
%"class.blink::HeapHashTableBacking" = type { i8 }

$_ZNK3WTF12StringAppendINS0_IPKcNS_6StringEEES2_EcvS3_Ev = comdat any

$_ZNK3WTF12StringAppendINS0_INS0_INS0_IPKcNS_6StringEEES2_EEDsEES2_EcvS3_Ev = comdat any

$_ZN3WTF6VectorINS_6StringELj0ENS_18PartitionAllocatorEE7EraseAtEj = comdat any

$_ZN5blink14CustomStateSetD2Ev = comdat any

$_ZN5blink14CustomStateSetD0Ev = comdat any

$_ZNK5blink15ScriptWrappable18HasPendingActivityEv = comdat any

$_ZNK5blink15ScriptWrappable17HasEventListenersEv = comdat any

$_ZNK5blink14CustomStateSet18GetWrapperTypeInfoEv = comdat any

$_ZN5blink10TraceTraitINS_7ElementEE5TraceEPNS_7VisitorEPKv = comdat any

$_ZN3WTF29WeakProcessingHashTableHelperILNS_16WeakHandlingFlagE1EN5blink10WeakMemberINS2_26CustomStateIterationSourceEEES5_NS_17IdentityExtractorENS_10MemberHashIS4_EENS_10HashTraitsIS5_EESA_NS2_13HeapAllocatorEE7ProcessERKNS2_14LivenessBrokerEPKv = comdat any

$_ZN5blink10TraceTraitINS_20HeapHashTableBackingIN3WTF9HashTableINS_10WeakMemberINS_26CustomStateIterationSourceEEES6_NS2_17IdentityExtractorENS2_10MemberHashIS5_EENS2_10HashTraitsIS6_EESB_NS_13HeapAllocatorEEEEEE5TraceILNS2_16WeakHandlingFlagE0EEEvPNS_7VisitorEPKv = comdat any

$_ZN5blink10TraceTraitINS_26CustomStateIterationSourceEE5TraceEPNS_7VisitorEPKv = comdat any

$_ZNK3WTF12StringAppendINS0_IPKcNS_6StringEEES2_E6lengthEv = comdat any

$_ZNK3WTF12StringAppendINS0_IPKcNS_6StringEEES2_E7WriteToEPh = comdat any

$_ZNK3WTF12StringAppendINS0_IPKcNS_6StringEEES2_E7WriteToEPDs = comdat any

$_ZNK3WTF12StringAppendIPKcNS_6StringEE6lengthEv = comdat any

$_ZNK3WTF12StringAppendINS0_INS0_INS0_IPKcNS_6StringEEES2_EEDsEES2_E6lengthEv = comdat any

$_ZNK3WTF12StringAppendINS0_INS0_IPKcNS_6StringEEES2_EEDsE6lengthEv = comdat any

$_ZN3WTF6VectorINS_6StringELj0ENS_18PartitionAllocatorEE14AppendSlowCaseIRKS1_EEvOT_ = comdat any

$_ZN3WTF18PartitionAllocator13QuantizedSizeINS_6StringEEEmm = comdat any

$_ZN5blink10ThreadHeap8AllocateINS_8IterableIN3WTF6StringES4_E15IterationSourceEEEPhm = comdat any

$_ZN5blink10ThreadHeap20AllocateOnArenaIndexEPNS_11ThreadStateEmijPKc = comdat any

$_ZN5blink10TraceTraitINS_8IterableIN3WTF6StringES3_E15IterationSourceEE5TraceEPNS_7VisitorEPKv = comdat any

$_ZN5blink8internal14FinalizerTraitINS_8IterableIN3WTF6StringES4_E15IterationSourceEE8FinalizeEPv = comdat any

$_ZN5blink9NameTraitINS_8IterableIN3WTF6StringES3_E15IterationSourceEE7GetNameEPKv = comdat any

$_ZN5blink8IterableIN3WTF6StringES2_E15IterationSourceD2Ev = comdat any

$_ZN5blink26CustomStateIterationSourceD0Ev = comdat any

$_ZN5blink26CustomStateIterationSource4NextEPNS_11ScriptStateERN3WTF6StringES5_RNS_14ExceptionStateE = comdat any

$_ZNK5blink26CustomStateIterationSource5TraceEPNS_7VisitorE = comdat any

$_ZN3WTF6VectorINS_6StringELj0ENS_18PartitionAllocatorEE2atEj = comdat any

$_ZN5blink10TraceTraitINS_14CustomStateSetEE5TraceEPNS_7VisitorEPKv = comdat any

$_ZN3WTF9HashTableIN5blink10WeakMemberINS1_26CustomStateIterationSourceEEES4_NS_17IdentityExtractorENS_10MemberHashIS3_EENS_10HashTraitsIS4_EES9_NS1_13HeapAllocatorEE6insertINS_22IdentityHashTranslatorIS7_S9_SA_EERKPS3_RSF_EENS_18HashTableAddResultISB_S4_EEOT0_OT1_ = comdat any

$_ZN3WTF9HashTableIN5blink10WeakMemberINS1_26CustomStateIterationSourceEEES4_NS_17IdentityExtractorENS_10MemberHashIS3_EENS_10HashTraitsIS4_EES9_NS1_13HeapAllocatorEE6ExpandEPS4_ = comdat any

$_ZN3WTF9HashTableIN5blink10WeakMemberINS1_26CustomStateIterationSourceEEES4_NS_17IdentityExtractorENS_10MemberHashIS3_EENS_10HashTraitsIS4_EES9_NS1_13HeapAllocatorEE12ExpandBufferEjPS4_Rb = comdat any

$_ZN3WTF9HashTableIN5blink10WeakMemberINS1_26CustomStateIterationSourceEEES4_NS_17IdentityExtractorENS_10MemberHashIS3_EENS_10HashTraitsIS4_EES9_NS1_13HeapAllocatorEE8RehashToEPS4_jSC_ = comdat any

$_ZN5blink25MakeGarbageCollectedTraitINS_20HeapHashTableBackingIN3WTF9HashTableINS_10WeakMemberINS_26CustomStateIterationSourceEEES6_NS2_17IdentityExtractorENS2_10MemberHashIS5_EENS2_10HashTraitsIS6_EESB_NS_13HeapAllocatorEEEEEE4CallEm = comdat any

$_ZN5blink20HeapHashTableBackingIN3WTF9HashTableINS_10WeakMemberINS_26CustomStateIterationSourceEEES5_NS1_17IdentityExtractorENS1_10MemberHashIS4_EENS1_10HashTraitsIS5_EESA_NS_13HeapAllocatorEEEE14AllocateObjectISD_EEPvm = comdat any

$_ZN5blink9NameTraitINS_20HeapHashTableBackingIN3WTF9HashTableINS_10WeakMemberINS_26CustomStateIterationSourceEEES6_NS2_17IdentityExtractorENS2_10MemberHashIS5_EENS2_10HashTraitsIS6_EESB_NS_13HeapAllocatorEEEEEE7GetNameEPKv = comdat any

$_ZN3WTF9HashTableIN5blink10WeakMemberINS1_26CustomStateIterationSourceEEES4_NS_17IdentityExtractorENS_10MemberHashIS3_EENS_10HashTraitsIS4_EES9_NS1_13HeapAllocatorEE5clearEv = comdat any

$_ZZN5blink11GCInfoTraitINS_8IterableIN3WTF6StringES3_E15IterationSourceEE5IndexEvE7kGcInfo = comdat any

$_ZZN5blink11GCInfoTraitINS_8IterableIN3WTF6StringES3_E15IterationSourceEE5IndexEvE13gc_info_index = comdat any

$_ZTVN5blink26CustomStateIterationSourceE = comdat any

$_ZZN5blink11GCInfoTraitINS_20HeapHashTableBackingIN3WTF9HashTableINS_10WeakMemberINS_26CustomStateIterationSourceEEES6_NS2_17IdentityExtractorENS2_10MemberHashIS5_EENS2_10HashTraitsIS6_EESB_NS_13HeapAllocatorEEEEEE5IndexEvE7kGcInfo = comdat any

$_ZZN5blink11GCInfoTraitINS_20HeapHashTableBackingIN3WTF9HashTableINS_10WeakMemberINS_26CustomStateIterationSourceEEES6_NS2_17IdentityExtractorENS2_10MemberHashIS5_EENS2_10HashTraitsIS6_EESB_NS_13HeapAllocatorEEEEEE5IndexEvE13gc_info_index = comdat any

@_ZTVN5blink14CustomStateSetE = hidden unnamed_addr constant { [12 x i8*], [3 x i8*] } { [12 x i8*] [i8* null, i8* null, i8* bitcast (i8* (%"class.blink::ScriptWrappable"*)* @_ZNK5blink15ScriptWrappable18NameInHeapSnapshotEv to i8*), i8* bitcast (void (%"class.blink::CustomStateSet"*)* @_ZN5blink14CustomStateSetD2Ev to i8*), i8* bitcast (void (%"class.blink::CustomStateSet"*)* @_ZN5blink14CustomStateSetD0Ev to i8*), i8* bitcast (i1 (%"class.blink::ScriptWrappable"*)* @_ZNK5blink15ScriptWrappable18HasPendingActivityEv to i8*), i8* bitcast (i1 (%"class.blink::ScriptWrappable"*)* @_ZNK5blink15ScriptWrappable17HasEventListenersEv to i8*), i8* bitcast (void (%"class.blink::CustomStateSet"*, %"class.blink::Visitor"*)* @_ZNK5blink14CustomStateSet5TraceEPNS_7VisitorE to i8*), i8* bitcast (%"struct.blink::WrapperTypeInfo"* (%"class.blink::CustomStateSet"*)* @_ZNK5blink14CustomStateSet18GetWrapperTypeInfoEv to i8*), i8* bitcast (%"class.v8::Value"* (%"class.blink::ScriptWrappable"*, %"class.blink::ScriptState"*)* @_ZN5blink15ScriptWrappable4WrapEPNS_11ScriptStateE to i8*), i8* bitcast (%"class.v8::Object"* (%"class.blink::ScriptWrappable"*, %"class.v8::Isolate"*, %"struct.blink::WrapperTypeInfo"*, %"class.v8::Object"*)* @_ZN5blink15ScriptWrappable20AssociateWithWrapperEPN2v87IsolateEPKNS_15WrapperTypeInfoENS1_5LocalINS1_6ObjectEEE to i8*), i8* bitcast (%"class.blink::Iterable<WTF::String, WTF::String>::IterationSource"* (%"class.blink::CustomStateSet"*, %"class.blink::ScriptState"*, %"class.blink::ExceptionState"*)* @_ZN5blink14CustomStateSet14StartIterationEPNS_11ScriptStateERNS_14ExceptionStateE to i8*)], [3 x i8*] [i8* inttoptr (i64 -16 to i8*), i8* null, i8* bitcast (%"class.blink::Iterable<WTF::String, WTF::String>::IterationSource"* (%"class.blink::CustomStateSet"*, %"class.blink::ScriptState"*, %"class.blink::ExceptionState"*)* @_ZThn16_N5blink14CustomStateSet14StartIterationEPNS_11ScriptStateERNS_14ExceptionStateE to i8*)] }, align 8
@.str = private unnamed_addr constant [3 x i8] c"--\00", align 1
@.str.1 = private unnamed_addr constant [22 x i8] c"The specified value '\00", align 1
@.str.2 = private unnamed_addr constant [24 x i8] c"' must start with '--'.\00", align 1
@.str.3 = private unnamed_addr constant [45 x i8] c"' must match to <dashed-ident> production. '\00", align 1
@.str.4 = private unnamed_addr constant [14 x i8] c"' is invalid.\00", align 1
@_ZN3WTF10StringImpl6empty_E = external local_unnamed_addr global %"class.WTF::StringImpl"*, align 8
@_ZN5blink14CustomStateSet18wrapper_type_info_E = external local_unnamed_addr constant %"struct.blink::WrapperTypeInfo"*, align 8
@_ZN5blink11ThreadState16thread_specific_E = external local_unnamed_addr global %"class.WTF::ThreadSpecific"*, align 8
@__PRETTY_FUNCTION__._ZN3WTF21GetStringWithTypeNameIPN5blink11ThreadStateEEEPKcv = private unnamed_addr constant [68 x i8] c"const char *WTF::GetStringWithTypeName() [T = blink::ThreadState *]\00", align 1
@_ZN5blink11ThreadState25incremental_marking_flag_E = external local_unnamed_addr global %"class.blink::AtomicEntryFlag", align 4
@.str.5 = private unnamed_addr constant [27 x i8] c"total >= adapter1.length()\00", align 1
@.str.6 = private unnamed_addr constant [70 x i8] c"../../third_party/blink/renderer/platform/wtf/text/string_operators.h\00", align 1
@.str.7 = private unnamed_addr constant [27 x i8] c"total >= adapter2.length()\00", align 1
@.str.8 = private unnamed_addr constant [55 x i8] c"../../third_party/blink/renderer/platform/wtf/vector.h\00", align 1
@.str.9 = private unnamed_addr constant [33 x i8] c"Allocator::IsAllocationAllowed()\00", align 1
@.str.10 = private unnamed_addr constant [44 x i8] c"count <= MaxElementCountInBackingStore<T>()\00", align 1
@.str.11 = private unnamed_addr constant [78 x i8] c"../../third_party/blink/renderer/platform/wtf/allocator/partition_allocator.h\00", align 1
@__PRETTY_FUNCTION__._ZN3WTF21GetStringWithTypeNameINS_6StringEEEPKcv = private unnamed_addr constant [59 x i8] c"const char *WTF::GetStringWithTypeName() [T = WTF::String]\00", align 1
@.str.12 = private unnamed_addr constant [18 x i8] c"position < size()\00", align 1
@__PRETTY_FUNCTION__._ZN3WTF21GetStringWithTypeNameIN5blink8IterableINS_6StringES3_E15IterationSourceEEEPKcv = private unnamed_addr constant [106 x i8] c"const char *WTF::GetStringWithTypeName() [T = blink::Iterable<WTF::String, WTF::String>::IterationSource]\00", align 1
@.str.13 = private unnamed_addr constant [23 x i8] c"allocation_size > size\00", align 1
@.str.14 = private unnamed_addr constant [59 x i8] c"../../third_party/blink/renderer/platform/heap/impl/heap.h\00", align 1
@_ZZN5blink11GCInfoTraitINS_8IterableIN3WTF6StringES3_E15IterationSourceEE5IndexEvE7kGcInfo = linkonce_odr hidden constant %"struct.blink::GCInfo" { void (%"class.blink::Visitor"*, i8*)* @_ZN5blink10TraceTraitINS_8IterableIN3WTF6StringES3_E15IterationSourceEE5TraceEPNS_7VisitorEPKv, void (i8*)* @_ZN5blink8internal14FinalizerTraitINS_8IterableIN3WTF6StringES4_E15IterationSourceEE8FinalizeEPv, { i8*, i8 } (i8*)* @_ZN5blink9NameTraitINS_8IterableIN3WTF6StringES3_E15IterationSourceEE7GetNameEPKv, i8 1 }, comdat, align 8
@_ZZN5blink11GCInfoTraitINS_8IterableIN3WTF6StringES3_E15IterationSourceEE5IndexEvE13gc_info_index = linkonce_odr hidden global { { i32 } } zeroinitializer, comdat, align 4
@.str.15 = private unnamed_addr constant [13 x i8] c"InternalNode\00", align 1
@_ZN5blink11GCInfoTable13global_table_E = external local_unnamed_addr global %"class.blink::GCInfoTable"*, align 8
@_ZTVN5blink26CustomStateIterationSourceE = linkonce_odr hidden unnamed_addr constant { [6 x i8*] } { [6 x i8*] [i8* null, i8* null, i8* bitcast (void (%"class.blink::Iterable<WTF::String, WTF::String>::IterationSource"*)* @_ZN5blink8IterableIN3WTF6StringES2_E15IterationSourceD2Ev to i8*), i8* bitcast (void (%"class.blink::CustomStateIterationSource"*)* @_ZN5blink26CustomStateIterationSourceD0Ev to i8*), i8* bitcast (i1 (%"class.blink::CustomStateIterationSource"*, %"class.blink::ScriptState"*, %"class.WTF::String"*, %"class.WTF::String"*, %"class.blink::ExceptionState"*)* @_ZN5blink26CustomStateIterationSource4NextEPNS_11ScriptStateERN3WTF6StringES5_RNS_14ExceptionStateE to i8*), i8* bitcast (void (%"class.blink::CustomStateIterationSource"*, %"class.blink::Visitor"*)* @_ZNK5blink26CustomStateIterationSource5TraceEPNS_7VisitorE to i8*)] }, comdat, align 8
@.str.16 = private unnamed_addr constant [11 x i8] c"i < size()\00", align 1
@.str.17 = private unnamed_addr constant [23 x i8] c"new_size > table_size_\00", align 1
@.str.18 = private unnamed_addr constant [59 x i8] c"../../third_party/blink/renderer/platform/wtf/hash_table.h\00", align 1
@.str.19 = private unnamed_addr constant [18 x i8] c"num_elements > 0u\00", align 1
@.str.20 = private unnamed_addr constant [97 x i8] c"../../third_party/blink/renderer/platform/heap/impl/collection_support/heap_hash_table_backing.h\00", align 1
@_ZZN5blink11GCInfoTraitINS_20HeapHashTableBackingIN3WTF9HashTableINS_10WeakMemberINS_26CustomStateIterationSourceEEES6_NS2_17IdentityExtractorENS2_10MemberHashIS5_EENS2_10HashTraitsIS6_EESB_NS_13HeapAllocatorEEEEEE5IndexEvE7kGcInfo = linkonce_odr hidden constant %"struct.blink::GCInfo" { void (%"class.blink::Visitor"*, i8*)* @_ZN5blink10TraceTraitINS_20HeapHashTableBackingIN3WTF9HashTableINS_10WeakMemberINS_26CustomStateIterationSourceEEES6_NS2_17IdentityExtractorENS2_10MemberHashIS5_EENS2_10HashTraitsIS6_EESB_NS_13HeapAllocatorEEEEEE5TraceILNS2_16WeakHandlingFlagE0EEEvPNS_7VisitorEPKv, void (i8*)* null, { i8*, i8 } (i8*)* @_ZN5blink9NameTraitINS_20HeapHashTableBackingIN3WTF9HashTableINS_10WeakMemberINS_26CustomStateIterationSourceEEES6_NS2_17IdentityExtractorENS2_10MemberHashIS5_EENS2_10HashTraitsIS6_EESB_NS_13HeapAllocatorEEEEEE7GetNameEPKv, i8 0 }, comdat, align 8
@_ZZN5blink11GCInfoTraitINS_20HeapHashTableBackingIN3WTF9HashTableINS_10WeakMemberINS_26CustomStateIterationSourceEEES6_NS2_17IdentityExtractorENS2_10MemberHashIS5_EENS2_10HashTraitsIS6_EESB_NS_13HeapAllocatorEEEEEE5IndexEvE13gc_info_index = linkonce_odr hidden global { { i32 } } zeroinitializer, comdat, align 4
@__PRETTY_FUNCTION__._ZN3WTF21GetStringWithTypeNameIN5blink20HeapHashTableBackingINS_9HashTableINS1_10WeakMemberINS1_26CustomStateIterationSourceEEES6_NS_17IdentityExtractorENS_10MemberHashIS5_EENS_10HashTraitsIS6_EESB_NS1_13HeapAllocatorEEEEEEEPKcv = private unnamed_addr constant [442 x i8] c"const char *WTF::GetStringWithTypeName() [T = blink::HeapHashTableBacking<WTF::HashTable<blink::WeakMember<blink::CustomStateIterationSource>, blink::WeakMember<blink::CustomStateIterationSource>, WTF::IdentityExtractor, WTF::MemberHash<blink::CustomStateIterationSource>, WTF::HashTraits<blink::WeakMember<blink::CustomStateIterationSource> >, WTF::HashTraits<blink::WeakMember<blink::CustomStateIterationSource> >, blink::HeapAllocator> >]\00", align 1

@_ZN5blink14CustomStateSetC1ERNS_7ElementE = hidden unnamed_addr alias void (%"class.blink::CustomStateSet"*, %"class.blink::Element"*), void (%"class.blink::CustomStateSet"*, %"class.blink::Element"*)* @_ZN5blink14CustomStateSetC2ERNS_7ElementE

; Function Attrs: nounwind ssp uwtable
define hidden void @_ZN5blink14CustomStateSetC2ERNS_7ElementE(%"class.blink::CustomStateSet"* nocapture, %"class.blink::Element"* dereferenceable(104)) unnamed_addr #0 align 2 {
  %3 = getelementptr inbounds %"class.blink::CustomStateSet", %"class.blink::CustomStateSet"* %0, i64 0, i32 0, i32 0, i32 0
  %4 = getelementptr inbounds %"class.blink::CustomStateSet", %"class.blink::CustomStateSet"* %0, i64 0, i32 0, i32 1, i32 0, i32 0, i32 0, i32 0
  store i64* null, i64** %4, align 8
  %5 = getelementptr inbounds %"class.blink::CustomStateSet", %"class.blink::CustomStateSet"* %0, i64 0, i32 1, i32 0, i32 0
  store i32 (...)** bitcast (i8** getelementptr inbounds ({ [12 x i8*], [3 x i8*] }, { [12 x i8*], [3 x i8*] }* @_ZTVN5blink14CustomStateSetE, i64 0, inrange i32 0, i64 2) to i32 (...)**), i32 (...)*** %3, align 8
  store i32 (...)** bitcast (i8** getelementptr inbounds ({ [12 x i8*], [3 x i8*] }, { [12 x i8*], [3 x i8*] }* @_ZTVN5blink14CustomStateSetE, i64 0, inrange i32 1, i64 2) to i32 (...)**), i32 (...)*** %5, align 8
  %6 = getelementptr inbounds %"class.blink::CustomStateSet", %"class.blink::CustomStateSet"* %0, i64 0, i32 2, i32 0, i32 0
  store %"class.blink::Element"* %1, %"class.blink::Element"** %6, align 8
  %7 = getelementptr inbounds %"class.blink::CustomStateSet", %"class.blink::CustomStateSet"* %0, i64 0, i32 3
  %8 = bitcast %"class.WTF::Vector.21"* %7 to i8*
  call void @llvm.memset.p0i8.i64(i8* align 8 %8, i8 0, i64 36, i1 false)
  ret void
}

; Function Attrs: nounwind ssp uwtable
define hidden void @_ZNK5blink14CustomStateSet5TraceEPNS_7VisitorE(%"class.blink::CustomStateSet"*, %"class.blink::Visitor"*) unnamed_addr #0 align 2 {
  %3 = alloca %"struct.blink::TraceDescriptor", align 8
  %4 = getelementptr inbounds %"class.blink::CustomStateSet", %"class.blink::CustomStateSet"* %0, i64 0, i32 2
  %5 = bitcast %"class.blink::Member"* %4 to i64*
  %6 = load atomic i64, i64* %5 monotonic, align 8
  %7 = icmp eq i64 %6, 0
  br i1 %7, label %14, label %8

8:                                                ; preds = %2
  %9 = inttoptr i64 %6 to i8*
  %10 = bitcast %"class.blink::Visitor"* %1 to void (%"class.blink::Visitor"*, i8*, i8*, void (%"class.blink::Visitor"*, i8*)*)***
  %11 = load void (%"class.blink::Visitor"*, i8*, i8*, void (%"class.blink::Visitor"*, i8*)*)**, void (%"class.blink::Visitor"*, i8*, i8*, void (%"class.blink::Visitor"*, i8*)*)*** %10, align 8
  %12 = getelementptr inbounds void (%"class.blink::Visitor"*, i8*, i8*, void (%"class.blink::Visitor"*, i8*)*)*, void (%"class.blink::Visitor"*, i8*, i8*, void (%"class.blink::Visitor"*, i8*)*)** %11, i64 5
  %13 = load void (%"class.blink::Visitor"*, i8*, i8*, void (%"class.blink::Visitor"*, i8*)*)*, void (%"class.blink::Visitor"*, i8*, i8*, void (%"class.blink::Visitor"*, i8*)*)** %12, align 8
  tail call void %13(%"class.blink::Visitor"* %1, i8* nonnull %9, i8* nonnull %9, void (%"class.blink::Visitor"*, i8*)* nonnull @_ZN5blink10TraceTraitINS_7ElementEE5TraceEPNS_7VisitorEPKv) #9
  br label %14

14:                                               ; preds = %2, %8
  %15 = getelementptr inbounds %"class.blink::CustomStateSet", %"class.blink::CustomStateSet"* %0, i64 0, i32 4
  %16 = bitcast %"class.blink::HeapHashSet"* %15 to i8*
  %17 = bitcast %"class.blink::HeapHashSet"* %15 to i64*
  %18 = load atomic i64, i64* %17 monotonic, align 8
  %19 = inttoptr i64 %18 to %"class.blink::WeakMember"*
  %20 = bitcast %"class.blink::HeapHashSet"* %15 to i8**
  %21 = bitcast %"class.blink::Visitor"* %1 to void (%"class.blink::Visitor"*, i8**)***
  %22 = load void (%"class.blink::Visitor"*, i8**)**, void (%"class.blink::Visitor"*, i8**)*** %21, align 8
  %23 = getelementptr inbounds void (%"class.blink::Visitor"*, i8**)*, void (%"class.blink::Visitor"*, i8**)** %22, i64 11
  %24 = load void (%"class.blink::Visitor"*, i8**)*, void (%"class.blink::Visitor"*, i8**)** %23, align 8
  tail call void %24(%"class.blink::Visitor"* %1, i8** %20) #9
  %25 = inttoptr i64 %18 to i8*
  %26 = bitcast %"struct.blink::TraceDescriptor"* %3 to i8*
  call void @llvm.lifetime.start.p0i8(i64 16, i8* nonnull %26) #9
  %27 = bitcast %"struct.blink::TraceDescriptor"* %3 to %"class.blink::WeakMember"**
  store %"class.blink::WeakMember"* %19, %"class.blink::WeakMember"** %27, align 8
  %28 = getelementptr inbounds %"struct.blink::TraceDescriptor", %"struct.blink::TraceDescriptor"* %3, i64 0, i32 1
  store void (%"class.blink::Visitor"*, i8*)* null, void (%"class.blink::Visitor"*, i8*)** %28, align 8
  %29 = bitcast %"class.blink::Visitor"* %1 to void (%"class.blink::Visitor"*, i8*, i8**, i8*, void (%"class.blink::Visitor"*, i8*)*, %"struct.blink::TraceDescriptor"*, void (%"class.blink::LivenessBroker"*, i8*)*, i8*)***
  %30 = load void (%"class.blink::Visitor"*, i8*, i8**, i8*, void (%"class.blink::Visitor"*, i8*)*, %"struct.blink::TraceDescriptor"*, void (%"class.blink::LivenessBroker"*, i8*)*, i8*)**, void (%"class.blink::Visitor"*, i8*, i8**, i8*, void (%"class.blink::Visitor"*, i8*)*, %"struct.blink::TraceDescriptor"*, void (%"class.blink::LivenessBroker"*, i8*)*, i8*)*** %29, align 8
  %31 = getelementptr inbounds void (%"class.blink::Visitor"*, i8*, i8**, i8*, void (%"class.blink::Visitor"*, i8*)*, %"struct.blink::TraceDescriptor"*, void (%"class.blink::LivenessBroker"*, i8*)*, i8*)*, void (%"class.blink::Visitor"*, i8*, i8**, i8*, void (%"class.blink::Visitor"*, i8*)*, %"struct.blink::TraceDescriptor"*, void (%"class.blink::LivenessBroker"*, i8*)*, i8*)** %30, i64 10
  %32 = load void (%"class.blink::Visitor"*, i8*, i8**, i8*, void (%"class.blink::Visitor"*, i8*)*, %"struct.blink::TraceDescriptor"*, void (%"class.blink::LivenessBroker"*, i8*)*, i8*)*, void (%"class.blink::Visitor"*, i8*, i8**, i8*, void (%"class.blink::Visitor"*, i8*)*, %"struct.blink::TraceDescriptor"*, void (%"class.blink::LivenessBroker"*, i8*)*, i8*)** %31, align 8
  tail call void %32(%"class.blink::Visitor"* %1, i8* %25, i8** %20, i8* %25, void (%"class.blink::Visitor"*, i8*)* nonnull @_ZN5blink10TraceTraitINS_20HeapHashTableBackingIN3WTF9HashTableINS_10WeakMemberINS_26CustomStateIterationSourceEEES6_NS2_17IdentityExtractorENS2_10MemberHashIS5_EENS2_10HashTraitsIS6_EESB_NS_13HeapAllocatorEEEEEE5TraceILNS2_16WeakHandlingFlagE0EEEvPNS_7VisitorEPKv, %"struct.blink::TraceDescriptor"* nonnull byval(%"struct.blink::TraceDescriptor") align 8 %3, void (%"class.blink::LivenessBroker"*, i8*)* nonnull @_ZN3WTF29WeakProcessingHashTableHelperILNS_16WeakHandlingFlagE1EN5blink10WeakMemberINS2_26CustomStateIterationSourceEEES5_NS_17IdentityExtractorENS_10MemberHashIS4_EENS_10HashTraitsIS5_EESA_NS2_13HeapAllocatorEE7ProcessERKNS2_14LivenessBrokerEPKv, i8* %16) #9
  call void @llvm.lifetime.end.p0i8(i64 16, i8* nonnull %26) #9
  %33 = getelementptr inbounds %"class.blink::CustomStateSet", %"class.blink::CustomStateSet"* %0, i64 0, i32 0
  tail call void @_ZNK5blink15ScriptWrappable5TraceEPNS_7VisitorE(%"class.blink::ScriptWrappable"* %33, %"class.blink::Visitor"* %1) #9
  ret void
}

declare void @_ZNK5blink15ScriptWrappable5TraceEPNS_7VisitorE(%"class.blink::ScriptWrappable"*, %"class.blink::Visitor"*) unnamed_addr #1

; Function Attrs: nounwind ssp uwtable
define hidden void @_ZN5blink14CustomStateSet3addERKN3WTF6StringERNS_14ExceptionStateE(%"class.blink::CustomStateSet"*, %"class.WTF::String"* dereferenceable(8), %"class.blink::ExceptionState"* dereferenceable(72)) local_unnamed_addr #0 align 2 {
  %4 = alloca %"class.WTF::StringView", align 8
  %5 = alloca %"class.WTF::String", align 8
  %6 = alloca %"class.WTF::StringAppend", align 8
  %7 = alloca %"class.WTF::String", align 8
  %8 = alloca %"class.WTF::StringAppend.260", align 8
  %9 = bitcast %"class.WTF::StringView"* %4 to i8*
  call void @llvm.lifetime.start.p0i8(i64 24, i8* nonnull %9) #9
  %10 = load i64, i64* bitcast (%"class.WTF::StringImpl"** @_ZN3WTF10StringImpl6empty_E to i64*), align 8
  %11 = bitcast %"class.WTF::StringView"* %4 to i64*
  store i64 %10, i64* %11, align 8
  %12 = getelementptr inbounds %"class.WTF::StringView", %"class.WTF::StringView"* %4, i64 0, i32 1
  store i8* getelementptr inbounds ([3 x i8], [3 x i8]* @.str, i64 0, i64 0), i8** %12, align 8
  %13 = getelementptr inbounds %"class.WTF::StringView", %"class.WTF::StringView"* %4, i64 0, i32 2
  store i32 2, i32* %13, align 8
  %14 = getelementptr inbounds %"class.WTF::String", %"class.WTF::String"* %1, i64 0, i32 0, i32 0
  %15 = load %"class.WTF::StringImpl"*, %"class.WTF::StringImpl"** %14, align 8
  %16 = icmp eq %"class.WTF::StringImpl"* %15, null
  br i1 %16, label %17, label %20

17:                                               ; preds = %3
  call void @llvm.lifetime.end.p0i8(i64 24, i8* nonnull %9) #9
  %18 = bitcast %"class.WTF::String"* %5 to i8*
  call void @llvm.lifetime.start.p0i8(i64 8, i8* nonnull %18) #9
  %19 = bitcast %"class.WTF::StringAppend"* %6 to i8*
  call void @llvm.lifetime.start.p0i8(i64 24, i8* nonnull %19) #9
  br label %109

20:                                               ; preds = %3
  %21 = call zeroext i1 @_ZNK3WTF10StringImpl10StartsWithERKNS_10StringViewE(%"class.WTF::StringImpl"* nonnull %15, %"class.WTF::StringView"* nonnull dereferenceable(24) %4) #9
  call void @llvm.lifetime.end.p0i8(i64 24, i8* nonnull %9) #9
  %22 = load %"class.WTF::StringImpl"*, %"class.WTF::StringImpl"** %14, align 8
  br i1 %21, label %23, label %30

23:                                               ; preds = %20
  %24 = icmp eq %"class.WTF::StringImpl"* %22, null
  %25 = getelementptr inbounds %"class.WTF::StringImpl", %"class.WTF::StringImpl"* %22, i64 0, i32 1
  %26 = getelementptr inbounds %"class.WTF::StringImpl", %"class.WTF::StringImpl"* %22, i64 0, i32 2, i32 0, i32 0, i32 0, i32 0, i32 0
  %27 = getelementptr inbounds %"class.WTF::StringImpl", %"class.WTF::StringImpl"* %22, i64 1
  %28 = bitcast %"class.WTF::StringImpl"* %27 to i8*
  %29 = bitcast %"class.WTF::StringImpl"* %27 to i16*
  br label %184

30:                                               ; preds = %20
  %31 = bitcast %"class.WTF::String"* %5 to i8*
  call void @llvm.lifetime.start.p0i8(i64 8, i8* nonnull %31) #9
  %32 = bitcast %"class.WTF::StringAppend"* %6 to i8*
  call void @llvm.lifetime.start.p0i8(i64 24, i8* nonnull %32) #9
  %33 = icmp eq %"class.WTF::StringImpl"* %22, null
  br i1 %33, label %109, label %34

34:                                               ; preds = %30
  %35 = getelementptr inbounds %"class.WTF::StringImpl", %"class.WTF::StringImpl"* %22, i64 0, i32 2, i32 0, i32 0, i32 0, i32 0, i32 0
  %36 = load atomic i32, i32* %35 monotonic, align 4
  %37 = and i32 %36, 2
  %38 = icmp eq i32 %37, 0
  %39 = getelementptr inbounds %"class.WTF::StringImpl", %"class.WTF::StringImpl"* %22, i64 0, i32 0
  %40 = load i32, i32* %39, align 4
  br i1 %38, label %41, label %51

41:                                               ; preds = %34
  %42 = zext i32 %40 to i33
  %43 = call { i33, i1 } @llvm.sadd.with.overflow.i33(i33 %42, i33 1) #9
  %44 = extractvalue { i33, i1 } %43, 1
  %45 = extractvalue { i33, i1 } %43, 0
  %46 = icmp slt i33 %45, 0
  %47 = or i1 %44, %46
  br i1 %47, label %48, label %49, !prof !2

48:                                               ; preds = %41
  call void @llvm.trap() #9
  unreachable

49:                                               ; preds = %41
  %50 = trunc i33 %45 to i32
  store i32 %50, i32* %39, align 4
  br label %51

51:                                               ; preds = %49, %34
  %52 = phi i32 [ %50, %49 ], [ %40, %34 ]
  %53 = load atomic i32, i32* %35 monotonic, align 4
  %54 = and i32 %53, 2
  %55 = icmp eq i32 %54, 0
  br i1 %55, label %56, label %66

56:                                               ; preds = %51
  %57 = zext i32 %52 to i33
  %58 = call { i33, i1 } @llvm.sadd.with.overflow.i33(i33 %57, i33 1) #9
  %59 = extractvalue { i33, i1 } %58, 1
  %60 = extractvalue { i33, i1 } %58, 0
  %61 = icmp slt i33 %60, 0
  %62 = or i1 %59, %61
  br i1 %62, label %63, label %64, !prof !2

63:                                               ; preds = %56
  call void @llvm.trap() #9
  unreachable

64:                                               ; preds = %56
  %65 = trunc i33 %60 to i32
  store i32 %65, i32* %39, align 4
  br label %66

66:                                               ; preds = %64, %51
  %67 = phi i32 [ %65, %64 ], [ %52, %51 ]
  %68 = load atomic i32, i32* %35 monotonic, align 4
  %69 = and i32 %68, 2
  %70 = icmp eq i32 %69, 0
  br i1 %70, label %71, label %73

71:                                               ; preds = %66
  %72 = add i32 %67, -1
  store i32 %72, i32* %39, align 4
  br label %73

73:                                               ; preds = %71, %66
  %74 = phi i32 [ %72, %71 ], [ %67, %66 ]
  %75 = icmp eq i32 %74, 0
  br i1 %75, label %76, label %77

76:                                               ; preds = %73
  call void @_ZNK3WTF10StringImpl18DestroyIfNotStaticEv(%"class.WTF::StringImpl"* nonnull %22) #9
  br label %77

77:                                               ; preds = %73, %76
  %78 = load atomic i32, i32* %35 monotonic, align 4, !noalias !3
  %79 = and i32 %78, 2
  %80 = icmp eq i32 %79, 0
  %81 = load i32, i32* %39, align 4
  br i1 %80, label %82, label %92

82:                                               ; preds = %77
  %83 = zext i32 %81 to i33
  %84 = call { i33, i1 } @llvm.sadd.with.overflow.i33(i33 %83, i33 1) #9
  %85 = extractvalue { i33, i1 } %84, 1
  %86 = extractvalue { i33, i1 } %84, 0
  %87 = icmp slt i33 %86, 0
  %88 = or i1 %85, %87
  br i1 %88, label %89, label %90, !prof !2

89:                                               ; preds = %82
  call void @llvm.trap() #9, !noalias !3
  unreachable

90:                                               ; preds = %82
  %91 = trunc i33 %86 to i32
  store i32 %91, i32* %39, align 4, !noalias !3
  br label %92

92:                                               ; preds = %77, %90
  %93 = phi i32 [ %91, %90 ], [ %81, %77 ]
  %94 = bitcast %"class.WTF::StringAppend"* %6 to i64*
  store i64 ptrtoint ([22 x i8]* @.str.1 to i64), i64* %94, align 8, !alias.scope !3
  %95 = getelementptr inbounds %"class.WTF::StringAppend", %"class.WTF::StringAppend"* %6, i64 0, i32 0, i32 1, i32 0, i32 0
  store %"class.WTF::StringImpl"* %22, %"class.WTF::StringImpl"** %95, align 8, !alias.scope !3
  %96 = load atomic i32, i32* %35 monotonic, align 4, !noalias !3
  %97 = and i32 %96, 2
  %98 = icmp eq i32 %97, 0
  br i1 %98, label %99, label %115

99:                                               ; preds = %92
  %100 = zext i32 %93 to i33
  %101 = call { i33, i1 } @llvm.sadd.with.overflow.i33(i33 %100, i33 1) #9
  %102 = extractvalue { i33, i1 } %101, 1
  %103 = extractvalue { i33, i1 } %101, 0
  %104 = icmp slt i33 %103, 0
  %105 = or i1 %102, %104
  br i1 %105, label %106, label %107, !prof !2

106:                                              ; preds = %99
  call void @llvm.trap() #9, !noalias !3
  unreachable

107:                                              ; preds = %99
  %108 = trunc i33 %103 to i32
  store i32 %108, i32* %39, align 4, !noalias !3
  br label %115

109:                                              ; preds = %30, %17
  %110 = phi i8* [ %18, %17 ], [ %31, %30 ]
  %111 = phi i8* [ %19, %17 ], [ %32, %30 ]
  %112 = bitcast %"class.WTF::StringAppend"* %6 to i64*
  store i64 ptrtoint ([22 x i8]* @.str.1 to i64), i64* %112, align 8, !alias.scope !3
  %113 = getelementptr inbounds %"class.WTF::StringAppend", %"class.WTF::StringAppend"* %6, i64 0, i32 0, i32 1, i32 0, i32 0
  store %"class.WTF::StringImpl"* null, %"class.WTF::StringImpl"** %113, align 8, !alias.scope !3
  %114 = getelementptr inbounds %"class.WTF::StringAppend", %"class.WTF::StringAppend"* %6, i64 0, i32 1
  store i8* getelementptr inbounds ([24 x i8], [24 x i8]* @.str.2, i64 0, i64 0), i8** %114, align 8, !alias.scope !3
  br label %127

115:                                              ; preds = %107, %92
  %116 = phi i32 [ %108, %107 ], [ %93, %92 ]
  %117 = getelementptr inbounds %"class.WTF::StringAppend", %"class.WTF::StringAppend"* %6, i64 0, i32 1
  store i8* getelementptr inbounds ([24 x i8], [24 x i8]* @.str.2, i64 0, i64 0), i8** %117, align 8, !alias.scope !3
  %118 = load atomic i32, i32* %35 monotonic, align 4, !noalias !3
  %119 = and i32 %118, 2
  %120 = icmp eq i32 %119, 0
  br i1 %120, label %121, label %123

121:                                              ; preds = %115
  %122 = add i32 %116, -1
  store i32 %122, i32* %39, align 4, !noalias !3
  br label %123

123:                                              ; preds = %121, %115
  %124 = phi i32 [ %122, %121 ], [ %116, %115 ]
  %125 = icmp eq i32 %124, 0
  br i1 %125, label %126, label %127

126:                                              ; preds = %123
  call void @_ZNK3WTF10StringImpl18DestroyIfNotStaticEv(%"class.WTF::StringImpl"* nonnull %22) #9, !noalias !3
  br label %127

127:                                              ; preds = %109, %123, %126
  %128 = phi %"class.WTF::StringImpl"* [ null, %109 ], [ %22, %123 ], [ %22, %126 ]
  %129 = phi i8* [ %110, %109 ], [ %31, %123 ], [ %31, %126 ]
  %130 = phi i8* [ %111, %109 ], [ %32, %123 ], [ %32, %126 ]
  %131 = phi i1 [ true, %109 ], [ false, %123 ], [ false, %126 ]
  %132 = call %"class.WTF::StringImpl"* @_ZNK3WTF12StringAppendINS0_IPKcNS_6StringEEES2_EcvS3_Ev(%"class.WTF::StringAppend"* nonnull %6)
  %133 = getelementptr inbounds %"class.WTF::String", %"class.WTF::String"* %5, i64 0, i32 0, i32 0
  store %"class.WTF::StringImpl"* %132, %"class.WTF::StringImpl"** %133, align 8
  %134 = bitcast %"class.blink::ExceptionState"* %2 to void (%"class.blink::ExceptionState"*, i32, %"class.WTF::String"*)***
  %135 = load void (%"class.blink::ExceptionState"*, i32, %"class.WTF::String"*)**, void (%"class.blink::ExceptionState"*, i32, %"class.WTF::String"*)*** %134, align 8
  %136 = load void (%"class.blink::ExceptionState"*, i32, %"class.WTF::String"*)*, void (%"class.blink::ExceptionState"*, i32, %"class.WTF::String"*)** %135, align 8
  call void %136(%"class.blink::ExceptionState"* %2, i32 12, %"class.WTF::String"* nonnull dereferenceable(8) %5) #9
  %137 = load %"class.WTF::StringImpl"*, %"class.WTF::StringImpl"** %133, align 8
  %138 = icmp eq %"class.WTF::StringImpl"* %137, null
  br i1 %138, label %152, label %139

139:                                              ; preds = %127
  %140 = getelementptr inbounds %"class.WTF::StringImpl", %"class.WTF::StringImpl"* %137, i64 0, i32 2, i32 0, i32 0, i32 0, i32 0, i32 0
  %141 = load atomic i32, i32* %140 monotonic, align 4
  %142 = and i32 %141, 2
  %143 = icmp eq i32 %142, 0
  %144 = getelementptr inbounds %"class.WTF::StringImpl", %"class.WTF::StringImpl"* %137, i64 0, i32 0
  %145 = load i32, i32* %144, align 4
  br i1 %143, label %146, label %148

146:                                              ; preds = %139
  %147 = add i32 %145, -1
  store i32 %147, i32* %144, align 4
  br label %148

148:                                              ; preds = %146, %139
  %149 = phi i32 [ %147, %146 ], [ %145, %139 ]
  %150 = icmp eq i32 %149, 0
  br i1 %150, label %151, label %152

151:                                              ; preds = %148
  call void @_ZNK3WTF10StringImpl18DestroyIfNotStaticEv(%"class.WTF::StringImpl"* nonnull %137) #9
  br label %152

152:                                              ; preds = %127, %148, %151
  %153 = getelementptr inbounds %"class.WTF::StringAppend", %"class.WTF::StringAppend"* %6, i64 0, i32 0, i32 1, i32 0, i32 0
  %154 = load %"class.WTF::StringImpl"*, %"class.WTF::StringImpl"** %153, align 8
  %155 = icmp eq %"class.WTF::StringImpl"* %154, null
  br i1 %155, label %169, label %156

156:                                              ; preds = %152
  %157 = getelementptr inbounds %"class.WTF::StringImpl", %"class.WTF::StringImpl"* %154, i64 0, i32 2, i32 0, i32 0, i32 0, i32 0, i32 0
  %158 = load atomic i32, i32* %157 monotonic, align 4
  %159 = and i32 %158, 2
  %160 = icmp eq i32 %159, 0
  %161 = getelementptr inbounds %"class.WTF::StringImpl", %"class.WTF::StringImpl"* %154, i64 0, i32 0
  %162 = load i32, i32* %161, align 4
  br i1 %160, label %163, label %165

163:                                              ; preds = %156
  %164 = add i32 %162, -1
  store i32 %164, i32* %161, align 4
  br label %165

165:                                              ; preds = %163, %156
  %166 = phi i32 [ %164, %163 ], [ %162, %156 ]
  %167 = icmp eq i32 %166, 0
  br i1 %167, label %168, label %169

168:                                              ; preds = %165
  call void @_ZNK3WTF10StringImpl18DestroyIfNotStaticEv(%"class.WTF::StringImpl"* nonnull %154) #9
  br label %169

169:                                              ; preds = %152, %165, %168
  br i1 %131, label %183, label %170

170:                                              ; preds = %169
  %171 = getelementptr inbounds %"class.WTF::StringImpl", %"class.WTF::StringImpl"* %128, i64 0, i32 2, i32 0, i32 0, i32 0, i32 0, i32 0
  %172 = load atomic i32, i32* %171 monotonic, align 4
  %173 = and i32 %172, 2
  %174 = icmp eq i32 %173, 0
  %175 = getelementptr inbounds %"class.WTF::StringImpl", %"class.WTF::StringImpl"* %128, i64 0, i32 0
  %176 = load i32, i32* %175, align 4
  br i1 %174, label %177, label %179

177:                                              ; preds = %170
  %178 = add i32 %176, -1
  store i32 %178, i32* %175, align 4
  br label %179

179:                                              ; preds = %177, %170
  %180 = phi i32 [ %178, %177 ], [ %176, %170 ]
  %181 = icmp eq i32 %180, 0
  br i1 %181, label %182, label %183

182:                                              ; preds = %179
  call void @_ZNK3WTF10StringImpl18DestroyIfNotStaticEv(%"class.WTF::StringImpl"* nonnull %128) #9
  br label %183

183:                                              ; preds = %169, %179, %182
  call void @llvm.lifetime.end.p0i8(i64 24, i8* nonnull %130) #9
  call void @llvm.lifetime.end.p0i8(i64 8, i8* nonnull %129) #9
  br label %583

184:                                              ; preds = %23, %516
  %185 = phi i64 [ 2, %23 ], [ %517, %516 ]
  br i1 %24, label %188, label %186

186:                                              ; preds = %184
  %187 = load i32, i32* %25, align 4
  br label %188

188:                                              ; preds = %184, %186
  %189 = phi i32 [ %187, %186 ], [ 0, %184 ]
  %190 = zext i32 %189 to i64
  %191 = icmp ult i64 %185, %190
  br i1 %191, label %192, label %518

192:                                              ; preds = %188
  br i1 %24, label %208, label %193

193:                                              ; preds = %192
  %194 = load i32, i32* %25, align 4
  %195 = zext i32 %194 to i64
  %196 = icmp ult i64 %185, %195
  br i1 %196, label %197, label %208

197:                                              ; preds = %193
  %198 = load atomic i32, i32* %26 monotonic, align 4
  %199 = and i32 %198, 1
  %200 = icmp eq i32 %199, 0
  br i1 %200, label %205, label %201

201:                                              ; preds = %197
  %202 = getelementptr inbounds i8, i8* %28, i64 %185
  %203 = load i8, i8* %202, align 1
  %204 = zext i8 %203 to i16
  br label %208

205:                                              ; preds = %197
  %206 = getelementptr inbounds i16, i16* %29, i64 %185
  %207 = load i16, i16* %206, align 2
  br label %208

208:                                              ; preds = %192, %193, %201, %205
  %209 = phi i16 [ 0, %193 ], [ 0, %192 ], [ %204, %201 ], [ %207, %205 ]
  %210 = or i16 %209, 32
  %211 = add i16 %210, -97
  %212 = icmp ult i16 %211, 26
  %213 = icmp eq i16 %209, 95
  %214 = or i1 %213, %212
  %215 = icmp ugt i16 %209, 127
  %216 = or i1 %215, %214
  br i1 %216, label %516, label %217

217:                                              ; preds = %208
  %218 = add nsw i16 %209, -48
  %219 = icmp ult i16 %218, 10
  %220 = icmp eq i16 %209, 45
  %221 = or i1 %220, %219
  br i1 %221, label %516, label %222

222:                                              ; preds = %217
  %223 = trunc i64 %185 to i32
  %224 = bitcast %"class.WTF::String"* %7 to i8*
  call void @llvm.lifetime.start.p0i8(i64 8, i8* nonnull %224) #9
  %225 = bitcast %"class.WTF::StringAppend.260"* %8 to i8*
  call void @llvm.lifetime.start.p0i8(i64 40, i8* nonnull %225) #9
  br i1 %24, label %309, label %226

226:                                              ; preds = %222
  %227 = load atomic i32, i32* %26 monotonic, align 4
  %228 = and i32 %227, 2
  %229 = icmp eq i32 %228, 0
  %230 = getelementptr inbounds %"class.WTF::StringImpl", %"class.WTF::StringImpl"* %22, i64 0, i32 0
  %231 = load i32, i32* %230, align 4
  br i1 %229, label %232, label %242

232:                                              ; preds = %226
  %233 = zext i32 %231 to i33
  %234 = call { i33, i1 } @llvm.sadd.with.overflow.i33(i33 %233, i33 1) #9
  %235 = extractvalue { i33, i1 } %234, 1
  %236 = extractvalue { i33, i1 } %234, 0
  %237 = icmp slt i33 %236, 0
  %238 = or i1 %235, %237
  br i1 %238, label %239, label %240, !prof !2

239:                                              ; preds = %232
  call void @llvm.trap() #9
  unreachable

240:                                              ; preds = %232
  %241 = trunc i33 %236 to i32
  store i32 %241, i32* %230, align 4
  br label %242

242:                                              ; preds = %240, %226
  %243 = phi i32 [ %241, %240 ], [ %231, %226 ]
  %244 = load atomic i32, i32* %26 monotonic, align 4
  %245 = and i32 %244, 2
  %246 = icmp eq i32 %245, 0
  br i1 %246, label %247, label %257

247:                                              ; preds = %242
  %248 = zext i32 %243 to i33
  %249 = call { i33, i1 } @llvm.sadd.with.overflow.i33(i33 %248, i33 1) #9
  %250 = extractvalue { i33, i1 } %249, 1
  %251 = extractvalue { i33, i1 } %249, 0
  %252 = icmp slt i33 %251, 0
  %253 = or i1 %250, %252
  br i1 %253, label %254, label %255, !prof !2

254:                                              ; preds = %247
  call void @llvm.trap() #9
  unreachable

255:                                              ; preds = %247
  %256 = trunc i33 %251 to i32
  store i32 %256, i32* %230, align 4
  br label %257

257:                                              ; preds = %255, %242
  %258 = phi i32 [ %256, %255 ], [ %243, %242 ]
  %259 = load atomic i32, i32* %26 monotonic, align 4
  %260 = and i32 %259, 2
  %261 = icmp eq i32 %260, 0
  br i1 %261, label %262, label %264

262:                                              ; preds = %257
  %263 = add i32 %258, -1
  store i32 %263, i32* %230, align 4
  br label %264

264:                                              ; preds = %262, %257
  %265 = phi i32 [ %263, %262 ], [ %258, %257 ]
  %266 = icmp eq i32 %265, 0
  br i1 %266, label %267, label %268

267:                                              ; preds = %264
  call void @_ZNK3WTF10StringImpl18DestroyIfNotStaticEv(%"class.WTF::StringImpl"* nonnull %22) #9
  br label %268

268:                                              ; preds = %264, %267
  %269 = load atomic i32, i32* %26 monotonic, align 4, !noalias !6
  %270 = and i32 %269, 2
  %271 = icmp eq i32 %270, 0
  %272 = load i32, i32* %230, align 4
  br i1 %271, label %273, label %283

273:                                              ; preds = %268
  %274 = zext i32 %272 to i33
  %275 = call { i33, i1 } @llvm.sadd.with.overflow.i33(i33 %274, i33 1) #9
  %276 = extractvalue { i33, i1 } %275, 1
  %277 = extractvalue { i33, i1 } %275, 0
  %278 = icmp slt i33 %277, 0
  %279 = or i1 %276, %278
  br i1 %279, label %280, label %281, !prof !2

280:                                              ; preds = %273
  call void @llvm.trap() #9, !noalias !6
  unreachable

281:                                              ; preds = %273
  %282 = trunc i33 %277 to i32
  store i32 %282, i32* %230, align 4, !noalias !6
  br label %283

283:                                              ; preds = %268, %281
  %284 = phi i32 [ %282, %281 ], [ %272, %268 ]
  %285 = load atomic i32, i32* %26 monotonic, align 4, !noalias !6
  %286 = and i32 %285, 2
  %287 = icmp eq i32 %286, 0
  br i1 %287, label %288, label %298

288:                                              ; preds = %283
  %289 = zext i32 %284 to i33
  %290 = call { i33, i1 } @llvm.sadd.with.overflow.i33(i33 %289, i33 1) #9
  %291 = extractvalue { i33, i1 } %290, 1
  %292 = extractvalue { i33, i1 } %290, 0
  %293 = icmp slt i33 %292, 0
  %294 = or i1 %291, %293
  br i1 %294, label %295, label %296, !prof !2

295:                                              ; preds = %288
  call void @llvm.trap() #9, !noalias !6
  unreachable

296:                                              ; preds = %288
  %297 = trunc i33 %292 to i32
  store i32 %297, i32* %230, align 4, !noalias !6
  br label %298

298:                                              ; preds = %296, %283
  %299 = phi i32 [ %297, %296 ], [ %284, %283 ]
  %300 = load atomic i32, i32* %26 monotonic, align 4, !noalias !6
  %301 = and i32 %300, 2
  %302 = icmp eq i32 %301, 0
  br i1 %302, label %303, label %305

303:                                              ; preds = %298
  %304 = add i32 %299, -1
  store i32 %304, i32* %230, align 4, !noalias !6
  br label %305

305:                                              ; preds = %303, %298
  %306 = phi i32 [ %304, %303 ], [ %299, %298 ]
  %307 = icmp eq i32 %306, 0
  br i1 %307, label %308, label %309

308:                                              ; preds = %305
  call void @_ZNK3WTF10StringImpl18DestroyIfNotStaticEv(%"class.WTF::StringImpl"* nonnull %22) #9, !noalias !6
  br label %309

309:                                              ; preds = %222, %305, %308
  %310 = load %"class.WTF::StringImpl"*, %"class.WTF::StringImpl"** %14, align 8
  %311 = icmp eq %"class.WTF::StringImpl"* %310, null
  br i1 %311, label %333, label %312

312:                                              ; preds = %309
  %313 = getelementptr inbounds %"class.WTF::StringImpl", %"class.WTF::StringImpl"* %310, i64 0, i32 1
  %314 = load i32, i32* %313, align 4
  %315 = icmp ugt i32 %314, %223
  br i1 %315, label %316, label %333

316:                                              ; preds = %312
  %317 = getelementptr inbounds %"class.WTF::StringImpl", %"class.WTF::StringImpl"* %310, i64 0, i32 2, i32 0, i32 0, i32 0, i32 0, i32 0
  %318 = load atomic i32, i32* %317 monotonic, align 4
  %319 = and i32 %318, 1
  %320 = icmp eq i32 %319, 0
  %321 = getelementptr inbounds %"class.WTF::StringImpl", %"class.WTF::StringImpl"* %310, i64 1
  br i1 %320, label %328, label %322

322:                                              ; preds = %316
  %323 = bitcast %"class.WTF::StringImpl"* %321 to i8*
  %324 = and i64 %185, 4294967295
  %325 = getelementptr inbounds i8, i8* %323, i64 %324
  %326 = load i8, i8* %325, align 1
  %327 = zext i8 %326 to i16
  br label %333

328:                                              ; preds = %316
  %329 = bitcast %"class.WTF::StringImpl"* %321 to i16*
  %330 = and i64 %185, 4294967295
  %331 = getelementptr inbounds i16, i16* %329, i64 %330
  %332 = load i16, i16* %331, align 2
  br label %333

333:                                              ; preds = %309, %312, %322, %328
  %334 = phi i16 [ 0, %312 ], [ 0, %309 ], [ %327, %322 ], [ %332, %328 ]
  br i1 %24, label %335, label %342

335:                                              ; preds = %333
  %336 = bitcast %"class.WTF::StringAppend.260"* %8 to i64*
  store i64 ptrtoint ([22 x i8]* @.str.1 to i64), i64* %336, align 8, !alias.scope !9
  %337 = getelementptr inbounds %"class.WTF::StringAppend.260", %"class.WTF::StringAppend.260"* %8, i64 0, i32 0, i32 0, i32 0, i32 1, i32 0, i32 0
  store %"class.WTF::StringImpl"* null, %"class.WTF::StringImpl"** %337, align 8, !alias.scope !9
  %338 = getelementptr inbounds %"class.WTF::StringAppend.260", %"class.WTF::StringAppend.260"* %8, i64 0, i32 0, i32 0, i32 1
  %339 = bitcast i8** %338 to i64*
  store i64 ptrtoint ([45 x i8]* @.str.3 to i64), i64* %339, align 8, !alias.scope !9
  %340 = getelementptr inbounds %"class.WTF::StringAppend.260", %"class.WTF::StringAppend.260"* %8, i64 0, i32 0, i32 1
  store i16 %334, i16* %340, align 8, !alias.scope !9
  %341 = getelementptr inbounds %"class.WTF::StringAppend.260", %"class.WTF::StringAppend.260"* %8, i64 0, i32 1
  store i8* getelementptr inbounds ([14 x i8], [14 x i8]* @.str.4, i64 0, i64 0), i8** %341, align 8, !alias.scope !9
  br label %437

342:                                              ; preds = %333
  %343 = load atomic i32, i32* %26 monotonic, align 4, !noalias !12
  %344 = and i32 %343, 2
  %345 = icmp eq i32 %344, 0
  %346 = getelementptr inbounds %"class.WTF::StringImpl", %"class.WTF::StringImpl"* %22, i64 0, i32 0
  %347 = load i32, i32* %346, align 4
  br i1 %345, label %348, label %358

348:                                              ; preds = %342
  %349 = zext i32 %347 to i33
  %350 = call { i33, i1 } @llvm.sadd.with.overflow.i33(i33 %349, i33 1) #9
  %351 = extractvalue { i33, i1 } %350, 1
  %352 = extractvalue { i33, i1 } %350, 0
  %353 = icmp slt i33 %352, 0
  %354 = or i1 %351, %353
  br i1 %354, label %355, label %356, !prof !2

355:                                              ; preds = %348
  call void @llvm.trap() #9, !noalias !12
  unreachable

356:                                              ; preds = %348
  %357 = trunc i33 %352 to i32
  store i32 %357, i32* %346, align 4, !noalias !12
  br label %358

358:                                              ; preds = %342, %356
  %359 = phi i32 [ %357, %356 ], [ %347, %342 ]
  %360 = load atomic i32, i32* %26 monotonic, align 4, !noalias !12
  %361 = and i32 %360, 2
  %362 = icmp eq i32 %361, 0
  %363 = getelementptr inbounds %"class.WTF::StringImpl", %"class.WTF::StringImpl"* %22, i64 0, i32 0
  br i1 %362, label %364, label %374

364:                                              ; preds = %358
  %365 = zext i32 %359 to i33
  %366 = call { i33, i1 } @llvm.sadd.with.overflow.i33(i33 %365, i33 1) #9
  %367 = extractvalue { i33, i1 } %366, 1
  %368 = extractvalue { i33, i1 } %366, 0
  %369 = icmp slt i33 %368, 0
  %370 = or i1 %367, %369
  br i1 %370, label %371, label %372, !prof !2

371:                                              ; preds = %364
  call void @llvm.trap() #9, !noalias !12
  unreachable

372:                                              ; preds = %364
  %373 = trunc i33 %368 to i32
  store i32 %373, i32* %363, align 4, !noalias !12
  br label %374

374:                                              ; preds = %372, %358
  %375 = phi i32 [ %373, %372 ], [ %359, %358 ]
  %376 = load atomic i32, i32* %26 monotonic, align 4, !noalias !12
  %377 = and i32 %376, 2
  %378 = icmp eq i32 %377, 0
  br i1 %378, label %379, label %381

379:                                              ; preds = %374
  %380 = add i32 %375, -1
  store i32 %380, i32* %363, align 4, !noalias !12
  br label %381

381:                                              ; preds = %379, %374
  %382 = phi i32 [ %380, %379 ], [ %375, %374 ]
  %383 = icmp eq i32 %382, 0
  br i1 %383, label %384, label %385

384:                                              ; preds = %381
  call void @_ZNK3WTF10StringImpl18DestroyIfNotStaticEv(%"class.WTF::StringImpl"* nonnull %22) #9, !noalias !12
  br label %385

385:                                              ; preds = %384, %381
  %386 = load atomic i32, i32* %26 monotonic, align 4, !noalias !9
  %387 = and i32 %386, 2
  %388 = icmp eq i32 %387, 0
  br i1 %388, label %389, label %402

389:                                              ; preds = %385
  %390 = load i32, i32* %363, align 4, !noalias !9
  %391 = zext i32 %390 to i33
  %392 = call { i33, i1 } @llvm.sadd.with.overflow.i33(i33 %391, i33 1) #9
  %393 = extractvalue { i33, i1 } %392, 1
  %394 = extractvalue { i33, i1 } %392, 0
  %395 = icmp slt i33 %394, 0
  %396 = or i1 %393, %395
  br i1 %396, label %397, label %398, !prof !2

397:                                              ; preds = %389
  call void @llvm.trap() #9, !noalias !9
  unreachable

398:                                              ; preds = %389
  %399 = trunc i33 %394 to i32
  store i32 %399, i32* %363, align 4, !noalias !9
  %400 = bitcast %"class.WTF::StringAppend.260"* %8 to i64*
  store i64 ptrtoint ([22 x i8]* @.str.1 to i64), i64* %400, align 8, !alias.scope !9
  %401 = getelementptr inbounds %"class.WTF::StringAppend.260", %"class.WTF::StringAppend.260"* %8, i64 0, i32 0, i32 0, i32 0, i32 1, i32 0, i32 0
  store %"class.WTF::StringImpl"* %22, %"class.WTF::StringImpl"** %401, align 8, !alias.scope !9
  br label %406

402:                                              ; preds = %385
  %403 = bitcast %"class.WTF::StringAppend.260"* %8 to i64*
  store i64 ptrtoint ([22 x i8]* @.str.1 to i64), i64* %403, align 8, !alias.scope !9
  %404 = getelementptr inbounds %"class.WTF::StringAppend.260", %"class.WTF::StringAppend.260"* %8, i64 0, i32 0, i32 0, i32 0, i32 1, i32 0, i32 0
  store %"class.WTF::StringImpl"* %22, %"class.WTF::StringImpl"** %404, align 8, !alias.scope !9
  %405 = load i32, i32* %363, align 4, !noalias !9
  br label %406

406:                                              ; preds = %402, %398
  %407 = phi i32 [ %399, %398 ], [ %405, %402 ]
  %408 = phi %"class.WTF::StringImpl"** [ %401, %398 ], [ %404, %402 ]
  %409 = load atomic i32, i32* %26 monotonic, align 4, !noalias !9
  %410 = and i32 %409, 2
  %411 = icmp eq i32 %410, 0
  br i1 %411, label %412, label %422

412:                                              ; preds = %406
  %413 = zext i32 %407 to i33
  %414 = call { i33, i1 } @llvm.sadd.with.overflow.i33(i33 %413, i33 1) #9
  %415 = extractvalue { i33, i1 } %414, 1
  %416 = extractvalue { i33, i1 } %414, 0
  %417 = icmp slt i33 %416, 0
  %418 = or i1 %415, %417
  br i1 %418, label %419, label %420, !prof !2

419:                                              ; preds = %412
  call void @llvm.trap() #9, !noalias !9
  unreachable

420:                                              ; preds = %412
  %421 = trunc i33 %416 to i32
  store i32 %421, i32* %363, align 4, !noalias !9
  br label %422

422:                                              ; preds = %420, %406
  %423 = phi i32 [ %421, %420 ], [ %407, %406 ]
  %424 = getelementptr inbounds %"class.WTF::StringAppend.260", %"class.WTF::StringAppend.260"* %8, i64 0, i32 0, i32 0, i32 1
  %425 = bitcast i8** %424 to i64*
  store i64 ptrtoint ([45 x i8]* @.str.3 to i64), i64* %425, align 8, !alias.scope !9
  %426 = getelementptr inbounds %"class.WTF::StringAppend.260", %"class.WTF::StringAppend.260"* %8, i64 0, i32 0, i32 1
  store i16 %334, i16* %426, align 8, !alias.scope !9
  %427 = getelementptr inbounds %"class.WTF::StringAppend.260", %"class.WTF::StringAppend.260"* %8, i64 0, i32 1
  store i8* getelementptr inbounds ([14 x i8], [14 x i8]* @.str.4, i64 0, i64 0), i8** %427, align 8, !alias.scope !9
  %428 = load atomic i32, i32* %26 monotonic, align 4, !noalias !9
  %429 = and i32 %428, 2
  %430 = icmp eq i32 %429, 0
  br i1 %430, label %431, label %433

431:                                              ; preds = %422
  %432 = add i32 %423, -1
  store i32 %432, i32* %363, align 4, !noalias !9
  br label %433

433:                                              ; preds = %431, %422
  %434 = phi i32 [ %432, %431 ], [ %423, %422 ]
  %435 = icmp eq i32 %434, 0
  br i1 %435, label %436, label %437

436:                                              ; preds = %433
  call void @_ZNK3WTF10StringImpl18DestroyIfNotStaticEv(%"class.WTF::StringImpl"* nonnull %22) #9, !noalias !9
  br label %437

437:                                              ; preds = %335, %433, %436
  %438 = phi %"class.WTF::StringImpl"** [ %337, %335 ], [ %408, %433 ], [ %408, %436 ]
  %439 = phi i1 [ true, %335 ], [ false, %433 ], [ false, %436 ]
  %440 = call %"class.WTF::StringImpl"* @_ZNK3WTF12StringAppendINS0_INS0_INS0_IPKcNS_6StringEEES2_EEDsEES2_EcvS3_Ev(%"class.WTF::StringAppend.260"* nonnull %8)
  %441 = getelementptr inbounds %"class.WTF::String", %"class.WTF::String"* %7, i64 0, i32 0, i32 0
  store %"class.WTF::StringImpl"* %440, %"class.WTF::StringImpl"** %441, align 8
  %442 = bitcast %"class.blink::ExceptionState"* %2 to void (%"class.blink::ExceptionState"*, i32, %"class.WTF::String"*)***
  %443 = load void (%"class.blink::ExceptionState"*, i32, %"class.WTF::String"*)**, void (%"class.blink::ExceptionState"*, i32, %"class.WTF::String"*)*** %442, align 8
  %444 = load void (%"class.blink::ExceptionState"*, i32, %"class.WTF::String"*)*, void (%"class.blink::ExceptionState"*, i32, %"class.WTF::String"*)** %443, align 8
  call void %444(%"class.blink::ExceptionState"* %2, i32 12, %"class.WTF::String"* nonnull dereferenceable(8) %7) #9
  %445 = load %"class.WTF::StringImpl"*, %"class.WTF::StringImpl"** %441, align 8
  %446 = icmp eq %"class.WTF::StringImpl"* %445, null
  br i1 %446, label %460, label %447

447:                                              ; preds = %437
  %448 = getelementptr inbounds %"class.WTF::StringImpl", %"class.WTF::StringImpl"* %445, i64 0, i32 2, i32 0, i32 0, i32 0, i32 0, i32 0
  %449 = load atomic i32, i32* %448 monotonic, align 4
  %450 = and i32 %449, 2
  %451 = icmp eq i32 %450, 0
  %452 = getelementptr inbounds %"class.WTF::StringImpl", %"class.WTF::StringImpl"* %445, i64 0, i32 0
  %453 = load i32, i32* %452, align 4
  br i1 %451, label %454, label %456

454:                                              ; preds = %447
  %455 = add i32 %453, -1
  store i32 %455, i32* %452, align 4
  br label %456

456:                                              ; preds = %454, %447
  %457 = phi i32 [ %455, %454 ], [ %453, %447 ]
  %458 = icmp eq i32 %457, 0
  br i1 %458, label %459, label %460

459:                                              ; preds = %456
  call void @_ZNK3WTF10StringImpl18DestroyIfNotStaticEv(%"class.WTF::StringImpl"* nonnull %445) #9
  br label %460

460:                                              ; preds = %437, %456, %459
  %461 = load %"class.WTF::StringImpl"*, %"class.WTF::StringImpl"** %438, align 8
  %462 = icmp eq %"class.WTF::StringImpl"* %461, null
  br i1 %462, label %476, label %463

463:                                              ; preds = %460
  %464 = getelementptr inbounds %"class.WTF::StringImpl", %"class.WTF::StringImpl"* %461, i64 0, i32 2, i32 0, i32 0, i32 0, i32 0, i32 0
  %465 = load atomic i32, i32* %464 monotonic, align 4
  %466 = and i32 %465, 2
  %467 = icmp eq i32 %466, 0
  %468 = getelementptr inbounds %"class.WTF::StringImpl", %"class.WTF::StringImpl"* %461, i64 0, i32 0
  %469 = load i32, i32* %468, align 4
  br i1 %467, label %470, label %472

470:                                              ; preds = %463
  %471 = add i32 %469, -1
  store i32 %471, i32* %468, align 4
  br label %472

472:                                              ; preds = %470, %463
  %473 = phi i32 [ %471, %470 ], [ %469, %463 ]
  %474 = icmp eq i32 %473, 0
  br i1 %474, label %475, label %476

475:                                              ; preds = %472
  call void @_ZNK3WTF10StringImpl18DestroyIfNotStaticEv(%"class.WTF::StringImpl"* nonnull %461) #9
  br label %476

476:                                              ; preds = %460, %472, %475
  br i1 %439, label %490, label %477

477:                                              ; preds = %476
  %478 = getelementptr inbounds %"class.WTF::StringImpl", %"class.WTF::StringImpl"* %22, i64 0, i32 2, i32 0, i32 0, i32 0, i32 0, i32 0
  %479 = load atomic i32, i32* %478 monotonic, align 4
  %480 = and i32 %479, 2
  %481 = icmp eq i32 %480, 0
  %482 = getelementptr inbounds %"class.WTF::StringImpl", %"class.WTF::StringImpl"* %22, i64 0, i32 0
  %483 = load i32, i32* %482, align 4
  br i1 %481, label %484, label %486

484:                                              ; preds = %477
  %485 = add i32 %483, -1
  store i32 %485, i32* %482, align 4
  br label %486

486:                                              ; preds = %484, %477
  %487 = phi i32 [ %485, %484 ], [ %483, %477 ]
  %488 = icmp eq i32 %487, 0
  br i1 %488, label %489, label %490

489:                                              ; preds = %486
  call void @_ZNK3WTF10StringImpl18DestroyIfNotStaticEv(%"class.WTF::StringImpl"* nonnull %22) #9
  br label %490

490:                                              ; preds = %476, %486, %489
  br i1 %24, label %515, label %491

491:                                              ; preds = %490
  %492 = load atomic i32, i32* %26 monotonic, align 4
  %493 = and i32 %492, 2
  %494 = icmp eq i32 %493, 0
  %495 = getelementptr inbounds %"class.WTF::StringImpl", %"class.WTF::StringImpl"* %22, i64 0, i32 0
  %496 = load i32, i32* %495, align 4
  br i1 %494, label %497, label %499

497:                                              ; preds = %491
  %498 = add i32 %496, -1
  store i32 %498, i32* %495, align 4
  br label %499

499:                                              ; preds = %497, %491
  %500 = phi i32 [ %498, %497 ], [ %496, %491 ]
  %501 = icmp eq i32 %500, 0
  br i1 %501, label %502, label %503

502:                                              ; preds = %499
  call void @_ZNK3WTF10StringImpl18DestroyIfNotStaticEv(%"class.WTF::StringImpl"* nonnull %22) #9
  br label %503

503:                                              ; preds = %499, %502
  %504 = load atomic i32, i32* %26 monotonic, align 4
  %505 = and i32 %504, 2
  %506 = icmp eq i32 %505, 0
  %507 = getelementptr inbounds %"class.WTF::StringImpl", %"class.WTF::StringImpl"* %22, i64 0, i32 0
  %508 = load i32, i32* %507, align 4
  br i1 %506, label %509, label %511

509:                                              ; preds = %503
  %510 = add i32 %508, -1
  store i32 %510, i32* %507, align 4
  br label %511

511:                                              ; preds = %509, %503
  %512 = phi i32 [ %510, %509 ], [ %508, %503 ]
  %513 = icmp eq i32 %512, 0
  br i1 %513, label %514, label %515

514:                                              ; preds = %511
  call void @_ZNK3WTF10StringImpl18DestroyIfNotStaticEv(%"class.WTF::StringImpl"* nonnull %22) #9
  br label %515

515:                                              ; preds = %490, %511, %514
  call void @llvm.lifetime.end.p0i8(i64 40, i8* nonnull %225) #9
  call void @llvm.lifetime.end.p0i8(i64 8, i8* nonnull %224) #9
  br label %583

516:                                              ; preds = %208, %217
  %517 = add nuw nsw i64 %185, 1
  br label %184

518:                                              ; preds = %188
  %519 = getelementptr inbounds %"class.blink::CustomStateSet", %"class.blink::CustomStateSet"* %0, i64 0, i32 3
  %520 = getelementptr inbounds %"class.WTF::Vector.21", %"class.WTF::Vector.21"* %519, i64 0, i32 0, i32 0, i32 0
  %521 = load %"class.WTF::String"*, %"class.WTF::String"** %520, align 8
  %522 = getelementptr inbounds %"class.blink::CustomStateSet", %"class.blink::CustomStateSet"* %0, i64 0, i32 3, i32 0, i32 0, i32 2
  %523 = load i32, i32* %522, align 4
  %524 = zext i32 %523 to i64
  %525 = getelementptr inbounds %"class.WTF::String", %"class.WTF::String"* %521, i64 %524
  %526 = icmp eq i32 %523, 0
  br i1 %526, label %548, label %527

527:                                              ; preds = %518
  %528 = getelementptr inbounds %"class.WTF::String", %"class.WTF::String"* %521, i64 0, i32 0, i32 0
  %529 = load %"class.WTF::StringImpl"*, %"class.WTF::StringImpl"** %528, align 8
  %530 = call zeroext i1 @_ZN3WTF5EqualEPKNS_10StringImplES2_(%"class.WTF::StringImpl"* %529, %"class.WTF::StringImpl"* %22) #9
  br i1 %530, label %540, label %531

531:                                              ; preds = %527, %535
  %532 = phi %"class.WTF::String"* [ %533, %535 ], [ %521, %527 ]
  %533 = getelementptr inbounds %"class.WTF::String", %"class.WTF::String"* %532, i64 1
  %534 = icmp ult %"class.WTF::String"* %533, %525
  br i1 %534, label %535, label %548

535:                                              ; preds = %531
  %536 = load %"class.WTF::StringImpl"*, %"class.WTF::StringImpl"** %14, align 8
  %537 = getelementptr inbounds %"class.WTF::String", %"class.WTF::String"* %533, i64 0, i32 0, i32 0
  %538 = load %"class.WTF::StringImpl"*, %"class.WTF::StringImpl"** %537, align 8
  %539 = call zeroext i1 @_ZN3WTF5EqualEPKNS_10StringImplES2_(%"class.WTF::StringImpl"* %538, %"class.WTF::StringImpl"* %536) #9
  br i1 %539, label %540, label %531

540:                                              ; preds = %535, %527
  %541 = phi %"class.WTF::String"* [ %521, %527 ], [ %533, %535 ]
  %542 = ptrtoint %"class.WTF::String"* %541 to i64
  %543 = ptrtoint %"class.WTF::String"* %521 to i64
  %544 = sub i64 %542, %543
  %545 = lshr exact i64 %544, 3
  %546 = trunc i64 %545 to i32
  %547 = icmp eq i32 %546, -1
  br i1 %547, label %548, label %580

548:                                              ; preds = %531, %540, %518
  %549 = load i32, i32* %522, align 4
  %550 = getelementptr inbounds %"class.blink::CustomStateSet", %"class.blink::CustomStateSet"* %0, i64 0, i32 3, i32 0, i32 0, i32 1
  %551 = load i32, i32* %550, align 8
  %552 = icmp eq i32 %549, %551
  br i1 %552, label %579, label %553, !prof !2

553:                                              ; preds = %548
  %554 = load %"class.WTF::String"*, %"class.WTF::String"** %520, align 8
  %555 = zext i32 %549 to i64
  %556 = load %"class.WTF::StringImpl"*, %"class.WTF::StringImpl"** %14, align 8
  %557 = getelementptr inbounds %"class.WTF::String", %"class.WTF::String"* %554, i64 %555, i32 0, i32 0
  store %"class.WTF::StringImpl"* %556, %"class.WTF::StringImpl"** %557, align 8
  %558 = icmp eq %"class.WTF::StringImpl"* %556, null
  br i1 %558, label %576, label %559

559:                                              ; preds = %553
  %560 = getelementptr inbounds %"class.WTF::StringImpl", %"class.WTF::StringImpl"* %556, i64 0, i32 2, i32 0, i32 0, i32 0, i32 0, i32 0
  %561 = load atomic i32, i32* %560 monotonic, align 4
  %562 = and i32 %561, 2
  %563 = icmp eq i32 %562, 0
  br i1 %563, label %564, label %576

564:                                              ; preds = %559
  %565 = getelementptr inbounds %"class.WTF::StringImpl", %"class.WTF::StringImpl"* %556, i64 0, i32 0
  %566 = load i32, i32* %565, align 4
  %567 = zext i32 %566 to i33
  %568 = call { i33, i1 } @llvm.sadd.with.overflow.i33(i33 %567, i33 1) #9
  %569 = extractvalue { i33, i1 } %568, 1
  %570 = extractvalue { i33, i1 } %568, 0
  %571 = icmp slt i33 %570, 0
  %572 = or i1 %569, %571
  br i1 %572, label %573, label %574, !prof !2

573:                                              ; preds = %564
  call void @llvm.trap() #9
  unreachable

574:                                              ; preds = %564
  %575 = trunc i33 %570 to i32
  store i32 %575, i32* %565, align 4
  br label %576

576:                                              ; preds = %574, %559, %553
  %577 = load i32, i32* %522, align 4
  %578 = add i32 %577, 1
  store i32 %578, i32* %522, align 4
  br label %580

579:                                              ; preds = %548
  call void @_ZN3WTF6VectorINS_6StringELj0ENS_18PartitionAllocatorEE14AppendSlowCaseIRKS1_EEvOT_(%"class.WTF::Vector.21"* %519, %"class.WTF::String"* dereferenceable(8) %1) #9
  br label %580

580:                                              ; preds = %540, %579, %576
  %581 = getelementptr inbounds %"class.blink::CustomStateSet", %"class.blink::CustomStateSet"* %0, i64 0, i32 2, i32 0, i32 0
  %582 = load %"class.blink::Element"*, %"class.blink::Element"** %581, align 8
  call void @_ZN5blink7Element18PseudoStateChangedENS_11CSSSelector10PseudoTypeE(%"class.blink::Element"* %582, i32 15) #9
  br label %583

583:                                              ; preds = %515, %580, %183
  ret void
}

; Function Attrs: argmemonly nounwind
declare void @llvm.lifetime.start.p0i8(i64 immarg, i8* nocapture) #2

; Function Attrs: argmemonly nounwind
declare void @llvm.lifetime.end.p0i8(i64 immarg, i8* nocapture) #2

; Function Attrs: nounwind ssp uwtable
define linkonce_odr hidden %"class.WTF::StringImpl"* @_ZNK3WTF12StringAppendINS0_IPKcNS_6StringEEES2_EcvS3_Ev(%"class.WTF::StringAppend"*) local_unnamed_addr #0 comdat align 2 {
  %2 = alloca %"class.WTF::StringTypeAdapter.304", align 8
  %3 = alloca %"class.WTF::StringTypeAdapter.304", align 8
  %4 = alloca i8*, align 8
  %5 = alloca i16*, align 8
  %6 = bitcast %"class.WTF::StringTypeAdapter.304"* %3 to i8*
  call void @llvm.lifetime.start.p0i8(i64 16, i8* nonnull %6) #9
  %7 = getelementptr inbounds %"class.WTF::StringAppend", %"class.WTF::StringAppend"* %0, i64 0, i32 1
  call void @llvm.memset.p0i8.i64(i8* nonnull align 8 %6, i8 -86, i64 16, i1 false) #9
  %8 = load i8*, i8** %7, align 8
  call void @_ZN3WTF17StringTypeAdapterIPKcEC1ES2_(%"class.WTF::StringTypeAdapter.304"* nonnull %3, i8* %8) #9
  %9 = bitcast %"class.WTF::StringTypeAdapter.304"* %2 to i8*
  call void @llvm.lifetime.start.p0i8(i64 16, i8* nonnull %9) #9
  %10 = getelementptr inbounds %"class.WTF::StringAppend", %"class.WTF::StringAppend"* %0, i64 0, i32 0, i32 0
  call void @llvm.memset.p0i8.i64(i8* nonnull align 8 %9, i8 -86, i64 16, i1 false) #9
  %11 = load i8*, i8** %10, align 8
  call void @_ZN3WTF17StringTypeAdapterIPKcEC1ES2_(%"class.WTF::StringTypeAdapter.304"* nonnull %2, i8* %11) #9
  %12 = getelementptr inbounds %"class.WTF::StringAppend", %"class.WTF::StringAppend"* %0, i64 0, i32 0, i32 1, i32 0, i32 0
  %13 = load %"class.WTF::StringImpl"*, %"class.WTF::StringImpl"** %12, align 8
  %14 = icmp eq %"class.WTF::StringImpl"* %13, null
  %15 = load %"class.WTF::StringImpl"*, %"class.WTF::StringImpl"** @_ZN3WTF10StringImpl6empty_E, align 8
  %16 = select i1 %14, %"class.WTF::StringImpl"* %15, %"class.WTF::StringImpl"* %13
  %17 = getelementptr inbounds %"class.WTF::StringImpl", %"class.WTF::StringImpl"* %16, i64 0, i32 2, i32 0, i32 0, i32 0, i32 0, i32 0
  %18 = load atomic i32, i32* %17 monotonic, align 4
  %19 = and i32 %18, 1
  %20 = icmp eq i32 %19, 0
  call void @llvm.lifetime.end.p0i8(i64 16, i8* nonnull %9) #9
  call void @llvm.lifetime.end.p0i8(i64 16, i8* nonnull %6) #9
  br i1 %20, label %57, label %21

21:                                               ; preds = %1
  %22 = bitcast i8** %4 to i8*
  call void @llvm.lifetime.start.p0i8(i64 8, i8* nonnull %22) #9
  store i8* inttoptr (i64 -6148914691236517206 to i8*), i8** %4, align 8
  %23 = call i32 @_ZNK3WTF12StringAppendINS0_IPKcNS_6StringEEES2_E6lengthEv(%"class.WTF::StringAppend"* %0)
  %24 = call %"class.WTF::StringImpl"* @_ZN3WTF10StringImpl19CreateUninitializedEjRPh(i32 %23, i8** nonnull dereferenceable(8) %4) #9
  %25 = load i8*, i8** %4, align 8
  call void @_ZNK3WTF12StringAppendINS0_IPKcNS_6StringEEES2_E7WriteToEPh(%"class.WTF::StringAppend"* %0, i8* %25)
  %26 = icmp eq %"class.WTF::StringImpl"* %24, null
  br i1 %26, label %93, label %27

27:                                               ; preds = %21
  %28 = getelementptr inbounds %"class.WTF::StringImpl", %"class.WTF::StringImpl"* %24, i64 0, i32 2, i32 0, i32 0, i32 0, i32 0, i32 0
  %29 = load atomic i32, i32* %28 monotonic, align 4
  %30 = and i32 %29, 2
  %31 = icmp eq i32 %30, 0
  %32 = getelementptr inbounds %"class.WTF::StringImpl", %"class.WTF::StringImpl"* %24, i64 0, i32 0
  %33 = load i32, i32* %32, align 4
  br i1 %31, label %34, label %44

34:                                               ; preds = %27
  %35 = zext i32 %33 to i33
  %36 = call { i33, i1 } @llvm.sadd.with.overflow.i33(i33 %35, i33 1) #9
  %37 = extractvalue { i33, i1 } %36, 1
  %38 = extractvalue { i33, i1 } %36, 0
  %39 = icmp slt i33 %38, 0
  %40 = or i1 %37, %39
  br i1 %40, label %41, label %42, !prof !2

41:                                               ; preds = %34
  call void @llvm.trap() #9
  unreachable

42:                                               ; preds = %34
  %43 = trunc i33 %38 to i32
  store i32 %43, i32* %32, align 4
  br label %44

44:                                               ; preds = %27, %42
  %45 = phi i32 [ %43, %42 ], [ %33, %27 ]
  %46 = ptrtoint %"class.WTF::StringImpl"* %24 to i64
  %47 = load atomic i32, i32* %28 monotonic, align 4
  %48 = and i32 %47, 2
  %49 = icmp eq i32 %48, 0
  br i1 %49, label %50, label %53

50:                                               ; preds = %44
  %51 = getelementptr inbounds %"class.WTF::StringImpl", %"class.WTF::StringImpl"* %24, i64 0, i32 0
  %52 = add i32 %45, -1
  store i32 %52, i32* %51, align 4
  br label %53

53:                                               ; preds = %50, %44
  %54 = phi i32 [ %52, %50 ], [ %45, %44 ]
  %55 = icmp eq i32 %54, 0
  br i1 %55, label %56, label %93

56:                                               ; preds = %53
  call void @_ZNK3WTF10StringImpl18DestroyIfNotStaticEv(%"class.WTF::StringImpl"* nonnull %24) #9
  br label %93

57:                                               ; preds = %1
  %58 = bitcast i16** %5 to i8*
  call void @llvm.lifetime.start.p0i8(i64 8, i8* nonnull %58) #9
  store i16* inttoptr (i64 -6148914691236517206 to i16*), i16** %5, align 8
  %59 = call i32 @_ZNK3WTF12StringAppendINS0_IPKcNS_6StringEEES2_E6lengthEv(%"class.WTF::StringAppend"* %0)
  %60 = call %"class.WTF::StringImpl"* @_ZN3WTF10StringImpl19CreateUninitializedEjRPDs(i32 %59, i16** nonnull dereferenceable(8) %5) #9
  %61 = load i16*, i16** %5, align 8
  call void @_ZNK3WTF12StringAppendINS0_IPKcNS_6StringEEES2_E7WriteToEPDs(%"class.WTF::StringAppend"* %0, i16* %61)
  %62 = icmp eq %"class.WTF::StringImpl"* %60, null
  br i1 %62, label %93, label %63

63:                                               ; preds = %57
  %64 = getelementptr inbounds %"class.WTF::StringImpl", %"class.WTF::StringImpl"* %60, i64 0, i32 2, i32 0, i32 0, i32 0, i32 0, i32 0
  %65 = load atomic i32, i32* %64 monotonic, align 4
  %66 = and i32 %65, 2
  %67 = icmp eq i32 %66, 0
  %68 = getelementptr inbounds %"class.WTF::StringImpl", %"class.WTF::StringImpl"* %60, i64 0, i32 0
  %69 = load i32, i32* %68, align 4
  br i1 %67, label %70, label %80

70:                                               ; preds = %63
  %71 = zext i32 %69 to i33
  %72 = call { i33, i1 } @llvm.sadd.with.overflow.i33(i33 %71, i33 1) #9
  %73 = extractvalue { i33, i1 } %72, 1
  %74 = extractvalue { i33, i1 } %72, 0
  %75 = icmp slt i33 %74, 0
  %76 = or i1 %73, %75
  br i1 %76, label %77, label %78, !prof !2

77:                                               ; preds = %70
  call void @llvm.trap() #9
  unreachable

78:                                               ; preds = %70
  %79 = trunc i33 %74 to i32
  store i32 %79, i32* %68, align 4
  br label %80

80:                                               ; preds = %63, %78
  %81 = phi i32 [ %79, %78 ], [ %69, %63 ]
  %82 = ptrtoint %"class.WTF::StringImpl"* %60 to i64
  %83 = load atomic i32, i32* %64 monotonic, align 4
  %84 = and i32 %83, 2
  %85 = icmp eq i32 %84, 0
  br i1 %85, label %86, label %89

86:                                               ; preds = %80
  %87 = getelementptr inbounds %"class.WTF::StringImpl", %"class.WTF::StringImpl"* %60, i64 0, i32 0
  %88 = add i32 %81, -1
  store i32 %88, i32* %87, align 4
  br label %89

89:                                               ; preds = %86, %80
  %90 = phi i32 [ %88, %86 ], [ %81, %80 ]
  %91 = icmp eq i32 %90, 0
  br i1 %91, label %92, label %93

92:                                               ; preds = %89
  call void @_ZNK3WTF10StringImpl18DestroyIfNotStaticEv(%"class.WTF::StringImpl"* nonnull %60) #9
  br label %93

93:                                               ; preds = %92, %89, %57, %56, %53, %21
  %94 = phi i8* [ %22, %21 ], [ %22, %53 ], [ %22, %56 ], [ %58, %57 ], [ %58, %89 ], [ %58, %92 ]
  %95 = phi i64 [ 0, %21 ], [ %46, %53 ], [ %46, %56 ], [ 0, %57 ], [ %82, %89 ], [ %82, %92 ]
  call void @llvm.lifetime.end.p0i8(i64 8, i8* nonnull %94) #9
  %96 = inttoptr i64 %95 to %"class.WTF::StringImpl"*
  ret %"class.WTF::StringImpl"* %96
}

; Function Attrs: nounwind ssp uwtable
define linkonce_odr hidden %"class.WTF::StringImpl"* @_ZNK3WTF12StringAppendINS0_INS0_INS0_IPKcNS_6StringEEES2_EEDsEES2_EcvS3_Ev(%"class.WTF::StringAppend.260"*) local_unnamed_addr #0 comdat align 2 {
  %2 = alloca %"class.WTF::StringTypeAdapter.304", align 8
  %3 = alloca %"class.WTF::StringTypeAdapter.304", align 8
  %4 = alloca %"class.WTF::StringTypeAdapter.304", align 8
  %5 = alloca %"class.WTF::StringTypeAdapter.304", align 8
  %6 = alloca %"class.WTF::StringTypeAdapter.304", align 8
  %7 = alloca i8*, align 8
  %8 = alloca i16*, align 8
  %9 = bitcast %"class.WTF::StringTypeAdapter.304"* %6 to i8*
  call void @llvm.lifetime.start.p0i8(i64 16, i8* nonnull %9) #9
  %10 = getelementptr inbounds %"class.WTF::StringAppend.260", %"class.WTF::StringAppend.260"* %0, i64 0, i32 1
  call void @llvm.memset.p0i8.i64(i8* nonnull align 8 %9, i8 -86, i64 16, i1 false) #9
  %11 = load i8*, i8** %10, align 8
  call void @_ZN3WTF17StringTypeAdapterIPKcEC1ES2_(%"class.WTF::StringTypeAdapter.304"* nonnull %6, i8* %11) #9
  %12 = getelementptr inbounds %"class.WTF::StringAppend.260", %"class.WTF::StringAppend.260"* %0, i64 0, i32 0, i32 1
  %13 = load i16, i16* %12, align 8
  %14 = bitcast %"class.WTF::StringTypeAdapter.304"* %5 to i8*
  call void @llvm.lifetime.start.p0i8(i64 16, i8* nonnull %14) #9
  %15 = getelementptr inbounds %"class.WTF::StringAppend.260", %"class.WTF::StringAppend.260"* %0, i64 0, i32 0, i32 0, i32 1
  call void @llvm.memset.p0i8.i64(i8* nonnull align 8 %14, i8 -86, i64 16, i1 false) #9
  %16 = load i8*, i8** %15, align 8
  call void @_ZN3WTF17StringTypeAdapterIPKcEC1ES2_(%"class.WTF::StringTypeAdapter.304"* nonnull %5, i8* %16) #9
  %17 = bitcast %"class.WTF::StringTypeAdapter.304"* %4 to i8*
  call void @llvm.lifetime.start.p0i8(i64 16, i8* nonnull %17) #9
  %18 = getelementptr inbounds %"class.WTF::StringAppend.260", %"class.WTF::StringAppend.260"* %0, i64 0, i32 0, i32 0, i32 0, i32 0
  call void @llvm.memset.p0i8.i64(i8* nonnull align 8 %17, i8 -86, i64 16, i1 false) #9
  %19 = load i8*, i8** %18, align 8
  call void @_ZN3WTF17StringTypeAdapterIPKcEC1ES2_(%"class.WTF::StringTypeAdapter.304"* nonnull %4, i8* %19) #9
  %20 = getelementptr inbounds %"class.WTF::StringAppend.260", %"class.WTF::StringAppend.260"* %0, i64 0, i32 0, i32 0, i32 0, i32 1, i32 0, i32 0
  %21 = load %"class.WTF::StringImpl"*, %"class.WTF::StringImpl"** %20, align 8
  %22 = icmp eq %"class.WTF::StringImpl"* %21, null
  %23 = load %"class.WTF::StringImpl"*, %"class.WTF::StringImpl"** @_ZN3WTF10StringImpl6empty_E, align 8
  %24 = select i1 %22, %"class.WTF::StringImpl"* %23, %"class.WTF::StringImpl"* %21
  %25 = getelementptr inbounds %"class.WTF::StringImpl", %"class.WTF::StringImpl"* %24, i64 0, i32 2, i32 0, i32 0, i32 0, i32 0, i32 0
  %26 = load atomic i32, i32* %25 monotonic, align 4
  %27 = and i32 %26, 1
  %28 = icmp ne i32 %27, 0
  call void @llvm.lifetime.end.p0i8(i64 16, i8* nonnull %17) #9
  call void @llvm.lifetime.end.p0i8(i64 16, i8* nonnull %14) #9
  %29 = icmp ult i16 %13, 256
  %30 = and i1 %29, %28
  call void @llvm.lifetime.end.p0i8(i64 16, i8* nonnull %9) #9
  br i1 %30, label %31, label %79

31:                                               ; preds = %1
  %32 = bitcast i8** %7 to i8*
  call void @llvm.lifetime.start.p0i8(i64 8, i8* nonnull %32) #9
  store i8* inttoptr (i64 -6148914691236517206 to i8*), i8** %7, align 8
  %33 = call i32 @_ZNK3WTF12StringAppendINS0_INS0_INS0_IPKcNS_6StringEEES2_EEDsEES2_E6lengthEv(%"class.WTF::StringAppend.260"* %0)
  %34 = call %"class.WTF::StringImpl"* @_ZN3WTF10StringImpl19CreateUninitializedEjRPh(i32 %33, i8** nonnull dereferenceable(8) %7) #9
  %35 = load i8*, i8** %7, align 8
  %36 = getelementptr inbounds %"class.WTF::StringAppend.260", %"class.WTF::StringAppend.260"* %0, i64 0, i32 0
  %37 = bitcast %"class.WTF::StringTypeAdapter.304"* %3 to i8*
  call void @llvm.lifetime.start.p0i8(i64 16, i8* nonnull %37) #9
  call void @llvm.memset.p0i8.i64(i8* nonnull align 8 %37, i8 -86, i64 16, i1 false) #9
  %38 = load i8*, i8** %10, align 8
  call void @_ZN3WTF17StringTypeAdapterIPKcEC1ES2_(%"class.WTF::StringTypeAdapter.304"* nonnull %3, i8* %38) #9
  %39 = getelementptr inbounds %"class.WTF::StringAppend.260", %"class.WTF::StringAppend.260"* %0, i64 0, i32 0, i32 0
  %40 = load i16, i16* %12, align 8
  call void @_ZNK3WTF12StringAppendINS0_IPKcNS_6StringEEES2_E7WriteToEPh(%"class.WTF::StringAppend"* %39, i8* %35) #9
  %41 = call i32 @_ZNK3WTF12StringAppendINS0_IPKcNS_6StringEEES2_E6lengthEv(%"class.WTF::StringAppend"* %39) #9
  %42 = zext i32 %41 to i64
  %43 = getelementptr inbounds i8, i8* %35, i64 %42
  %44 = trunc i16 %40 to i8
  store i8 %44, i8* %43, align 1
  %45 = call i32 @_ZNK3WTF12StringAppendINS0_INS0_IPKcNS_6StringEEES2_EEDsE6lengthEv(%"class.WTF::StringAppend.261"* %36) #9
  %46 = zext i32 %45 to i64
  %47 = getelementptr inbounds i8, i8* %35, i64 %46
  call void @_ZNK3WTF17StringTypeAdapterIPKcE7WriteToEPh(%"class.WTF::StringTypeAdapter.304"* nonnull %3, i8* %47) #9
  call void @llvm.lifetime.end.p0i8(i64 16, i8* nonnull %37) #9
  %48 = icmp eq %"class.WTF::StringImpl"* %34, null
  br i1 %48, label %126, label %49

49:                                               ; preds = %31
  %50 = getelementptr inbounds %"class.WTF::StringImpl", %"class.WTF::StringImpl"* %34, i64 0, i32 2, i32 0, i32 0, i32 0, i32 0, i32 0
  %51 = load atomic i32, i32* %50 monotonic, align 4
  %52 = and i32 %51, 2
  %53 = icmp eq i32 %52, 0
  %54 = getelementptr inbounds %"class.WTF::StringImpl", %"class.WTF::StringImpl"* %34, i64 0, i32 0
  %55 = load i32, i32* %54, align 4
  br i1 %53, label %56, label %66

56:                                               ; preds = %49
  %57 = zext i32 %55 to i33
  %58 = call { i33, i1 } @llvm.sadd.with.overflow.i33(i33 %57, i33 1) #9
  %59 = extractvalue { i33, i1 } %58, 1
  %60 = extractvalue { i33, i1 } %58, 0
  %61 = icmp slt i33 %60, 0
  %62 = or i1 %59, %61
  br i1 %62, label %63, label %64, !prof !2

63:                                               ; preds = %56
  call void @llvm.trap() #9
  unreachable

64:                                               ; preds = %56
  %65 = trunc i33 %60 to i32
  store i32 %65, i32* %54, align 4
  br label %66

66:                                               ; preds = %49, %64
  %67 = phi i32 [ %65, %64 ], [ %55, %49 ]
  %68 = ptrtoint %"class.WTF::StringImpl"* %34 to i64
  %69 = load atomic i32, i32* %50 monotonic, align 4
  %70 = and i32 %69, 2
  %71 = icmp eq i32 %70, 0
  br i1 %71, label %72, label %75

72:                                               ; preds = %66
  %73 = getelementptr inbounds %"class.WTF::StringImpl", %"class.WTF::StringImpl"* %34, i64 0, i32 0
  %74 = add i32 %67, -1
  store i32 %74, i32* %73, align 4
  br label %75

75:                                               ; preds = %72, %66
  %76 = phi i32 [ %74, %72 ], [ %67, %66 ]
  %77 = icmp eq i32 %76, 0
  br i1 %77, label %78, label %126

78:                                               ; preds = %75
  call void @_ZNK3WTF10StringImpl18DestroyIfNotStaticEv(%"class.WTF::StringImpl"* nonnull %34) #9
  br label %126

79:                                               ; preds = %1
  %80 = bitcast i16** %8 to i8*
  call void @llvm.lifetime.start.p0i8(i64 8, i8* nonnull %80) #9
  store i16* inttoptr (i64 -6148914691236517206 to i16*), i16** %8, align 8
  %81 = call i32 @_ZNK3WTF12StringAppendINS0_INS0_INS0_IPKcNS_6StringEEES2_EEDsEES2_E6lengthEv(%"class.WTF::StringAppend.260"* %0)
  %82 = call %"class.WTF::StringImpl"* @_ZN3WTF10StringImpl19CreateUninitializedEjRPDs(i32 %81, i16** nonnull dereferenceable(8) %8) #9
  %83 = load i16*, i16** %8, align 8
  %84 = getelementptr inbounds %"class.WTF::StringAppend.260", %"class.WTF::StringAppend.260"* %0, i64 0, i32 0
  %85 = bitcast %"class.WTF::StringTypeAdapter.304"* %2 to i8*
  call void @llvm.lifetime.start.p0i8(i64 16, i8* nonnull %85) #9
  call void @llvm.memset.p0i8.i64(i8* nonnull align 8 %85, i8 -86, i64 16, i1 false) #9
  %86 = load i8*, i8** %10, align 8
  call void @_ZN3WTF17StringTypeAdapterIPKcEC1ES2_(%"class.WTF::StringTypeAdapter.304"* nonnull %2, i8* %86) #9
  %87 = getelementptr inbounds %"class.WTF::StringAppend.260", %"class.WTF::StringAppend.260"* %0, i64 0, i32 0, i32 0
  %88 = load i16, i16* %12, align 8
  call void @_ZNK3WTF12StringAppendINS0_IPKcNS_6StringEEES2_E7WriteToEPDs(%"class.WTF::StringAppend"* %87, i16* %83) #9
  %89 = call i32 @_ZNK3WTF12StringAppendINS0_IPKcNS_6StringEEES2_E6lengthEv(%"class.WTF::StringAppend"* %87) #9
  %90 = zext i32 %89 to i64
  %91 = getelementptr inbounds i16, i16* %83, i64 %90
  store i16 %88, i16* %91, align 2
  %92 = call i32 @_ZNK3WTF12StringAppendINS0_INS0_IPKcNS_6StringEEES2_EEDsE6lengthEv(%"class.WTF::StringAppend.261"* %84) #9
  %93 = zext i32 %92 to i64
  %94 = getelementptr inbounds i16, i16* %83, i64 %93
  call void @_ZNK3WTF17StringTypeAdapterIPKcE7WriteToEPDs(%"class.WTF::StringTypeAdapter.304"* nonnull %2, i16* %94) #9
  call void @llvm.lifetime.end.p0i8(i64 16, i8* nonnull %85) #9
  %95 = icmp eq %"class.WTF::StringImpl"* %82, null
  br i1 %95, label %126, label %96

96:                                               ; preds = %79
  %97 = getelementptr inbounds %"class.WTF::StringImpl", %"class.WTF::StringImpl"* %82, i64 0, i32 2, i32 0, i32 0, i32 0, i32 0, i32 0
  %98 = load atomic i32, i32* %97 monotonic, align 4
  %99 = and i32 %98, 2
  %100 = icmp eq i32 %99, 0
  %101 = getelementptr inbounds %"class.WTF::StringImpl", %"class.WTF::StringImpl"* %82, i64 0, i32 0
  %102 = load i32, i32* %101, align 4
  br i1 %100, label %103, label %113

103:                                              ; preds = %96
  %104 = zext i32 %102 to i33
  %105 = call { i33, i1 } @llvm.sadd.with.overflow.i33(i33 %104, i33 1) #9
  %106 = extractvalue { i33, i1 } %105, 1
  %107 = extractvalue { i33, i1 } %105, 0
  %108 = icmp slt i33 %107, 0
  %109 = or i1 %106, %108
  br i1 %109, label %110, label %111, !prof !2

110:                                              ; preds = %103
  call void @llvm.trap() #9
  unreachable

111:                                              ; preds = %103
  %112 = trunc i33 %107 to i32
  store i32 %112, i32* %101, align 4
  br label %113

113:                                              ; preds = %96, %111
  %114 = phi i32 [ %112, %111 ], [ %102, %96 ]
  %115 = ptrtoint %"class.WTF::StringImpl"* %82 to i64
  %116 = load atomic i32, i32* %97 monotonic, align 4
  %117 = and i32 %116, 2
  %118 = icmp eq i32 %117, 0
  br i1 %118, label %119, label %122

119:                                              ; preds = %113
  %120 = getelementptr inbounds %"class.WTF::StringImpl", %"class.WTF::StringImpl"* %82, i64 0, i32 0
  %121 = add i32 %114, -1
  store i32 %121, i32* %120, align 4
  br label %122

122:                                              ; preds = %119, %113
  %123 = phi i32 [ %121, %119 ], [ %114, %113 ]
  %124 = icmp eq i32 %123, 0
  br i1 %124, label %125, label %126

125:                                              ; preds = %122
  call void @_ZNK3WTF10StringImpl18DestroyIfNotStaticEv(%"class.WTF::StringImpl"* nonnull %82) #9
  br label %126

126:                                              ; preds = %125, %122, %79, %78, %75, %31
  %127 = phi i8* [ %32, %31 ], [ %32, %75 ], [ %32, %78 ], [ %80, %79 ], [ %80, %122 ], [ %80, %125 ]
  %128 = phi i64 [ 0, %31 ], [ %68, %75 ], [ %68, %78 ], [ 0, %79 ], [ %115, %122 ], [ %115, %125 ]
  call void @llvm.lifetime.end.p0i8(i64 8, i8* nonnull %127) #9
  %129 = inttoptr i64 %128 to %"class.WTF::StringImpl"*
  ret %"class.WTF::StringImpl"* %129
}

; Function Attrs: nounwind ssp uwtable
define hidden void @_ZNK5blink14CustomStateSet15InvalidateStyleEv(%"class.blink::CustomStateSet"* nocapture readonly) local_unnamed_addr #0 align 2 {
  %2 = getelementptr inbounds %"class.blink::CustomStateSet", %"class.blink::CustomStateSet"* %0, i64 0, i32 2, i32 0, i32 0
  %3 = load %"class.blink::Element"*, %"class.blink::Element"** %2, align 8
  tail call void @_ZN5blink7Element18PseudoStateChangedENS_11CSSSelector10PseudoTypeE(%"class.blink::Element"* %3, i32 15) #9
  ret void
}

; Function Attrs: norecurse nounwind readonly ssp uwtable
define hidden i32 @_ZNK5blink14CustomStateSet4sizeEv(%"class.blink::CustomStateSet"* nocapture readonly) local_unnamed_addr #3 align 2 {
  %2 = getelementptr inbounds %"class.blink::CustomStateSet", %"class.blink::CustomStateSet"* %0, i64 0, i32 3, i32 0, i32 0, i32 2
  %3 = load i32, i32* %2, align 4
  ret i32 %3
}

; Function Attrs: nounwind ssp uwtable
define hidden void @_ZN5blink14CustomStateSet15clearForBindingEPNS_11ScriptStateERNS_14ExceptionStateE(%"class.blink::CustomStateSet"* nocapture, %"class.blink::ScriptState"* nocapture readnone, %"class.blink::ExceptionState"* nocapture readnone dereferenceable(72)) local_unnamed_addr #0 align 2 {
  %4 = getelementptr inbounds %"class.blink::CustomStateSet", %"class.blink::CustomStateSet"* %0, i64 0, i32 3
  %5 = getelementptr inbounds %"class.blink::CustomStateSet", %"class.blink::CustomStateSet"* %0, i64 0, i32 3, i32 0, i32 0, i32 1
  %6 = load i32, i32* %5, align 8
  %7 = icmp eq i32 %6, 0
  br i1 %7, label %43, label %8

8:                                                ; preds = %3
  %9 = getelementptr inbounds %"class.blink::CustomStateSet", %"class.blink::CustomStateSet"* %0, i64 0, i32 3, i32 0, i32 0, i32 2
  %10 = load i32, i32* %9, align 4
  %11 = icmp eq i32 %10, 0
  br i1 %11, label %39, label %12

12:                                               ; preds = %8
  %13 = getelementptr inbounds %"class.WTF::Vector.21", %"class.WTF::Vector.21"* %4, i64 0, i32 0, i32 0, i32 0
  %14 = load %"class.WTF::String"*, %"class.WTF::String"** %13, align 8
  %15 = zext i32 %10 to i64
  %16 = getelementptr inbounds %"class.WTF::String", %"class.WTF::String"* %14, i64 %15
  br label %17

17:                                               ; preds = %35, %12
  %18 = phi %"class.WTF::String"* [ %36, %35 ], [ %14, %12 ]
  %19 = getelementptr inbounds %"class.WTF::String", %"class.WTF::String"* %18, i64 0, i32 0, i32 0
  %20 = load %"class.WTF::StringImpl"*, %"class.WTF::StringImpl"** %19, align 8
  %21 = icmp eq %"class.WTF::StringImpl"* %20, null
  br i1 %21, label %35, label %22

22:                                               ; preds = %17
  %23 = getelementptr inbounds %"class.WTF::StringImpl", %"class.WTF::StringImpl"* %20, i64 0, i32 2, i32 0, i32 0, i32 0, i32 0, i32 0
  %24 = load atomic i32, i32* %23 monotonic, align 4
  %25 = and i32 %24, 2
  %26 = icmp eq i32 %25, 0
  %27 = getelementptr inbounds %"class.WTF::StringImpl", %"class.WTF::StringImpl"* %20, i64 0, i32 0
  %28 = load i32, i32* %27, align 4
  br i1 %26, label %29, label %31

29:                                               ; preds = %22
  %30 = add i32 %28, -1
  store i32 %30, i32* %27, align 4
  br label %31

31:                                               ; preds = %29, %22
  %32 = phi i32 [ %30, %29 ], [ %28, %22 ]
  %33 = icmp eq i32 %32, 0
  br i1 %33, label %34, label %35

34:                                               ; preds = %31
  tail call void @_ZNK3WTF10StringImpl18DestroyIfNotStaticEv(%"class.WTF::StringImpl"* nonnull %20) #9
  br label %35

35:                                               ; preds = %34, %31, %17
  %36 = getelementptr inbounds %"class.WTF::String", %"class.WTF::String"* %18, i64 1
  %37 = icmp eq %"class.WTF::String"* %36, %16
  br i1 %37, label %38, label %17

38:                                               ; preds = %35
  store i32 0, i32* %9, align 4
  br label %39

39:                                               ; preds = %38, %8
  %40 = bitcast %"class.WTF::Vector.21"* %4 to i8**
  %41 = load i8*, i8** %40, align 8
  %42 = bitcast %"class.WTF::Vector.21"* %4 to i64*
  store atomic i64 0, i64* %42 monotonic, align 8
  store i32 0, i32* %5, align 8
  tail call void @_ZN3WTF18PartitionAllocator11FreeBackingEPv(i8* %41) #9
  br label %43

43:                                               ; preds = %3, %39
  %44 = getelementptr inbounds %"class.blink::CustomStateSet", %"class.blink::CustomStateSet"* %0, i64 0, i32 2, i32 0, i32 0
  %45 = load %"class.blink::Element"*, %"class.blink::Element"** %44, align 8
  tail call void @_ZN5blink7Element18PseudoStateChangedENS_11CSSSelector10PseudoTypeE(%"class.blink::Element"* %45, i32 15) #9
  ret void
}

; Function Attrs: nounwind ssp uwtable
define hidden zeroext i1 @_ZN5blink14CustomStateSet16deleteForBindingEPNS_11ScriptStateERKN3WTF6StringERNS_14ExceptionStateE(%"class.blink::CustomStateSet"*, %"class.blink::ScriptState"* nocapture readnone, %"class.WTF::String"* nocapture readonly dereferenceable(8), %"class.blink::ExceptionState"* nocapture readnone dereferenceable(72)) local_unnamed_addr #0 align 2 {
  %5 = getelementptr inbounds %"class.blink::CustomStateSet", %"class.blink::CustomStateSet"* %0, i64 0, i32 3
  %6 = getelementptr inbounds %"class.WTF::Vector.21", %"class.WTF::Vector.21"* %5, i64 0, i32 0, i32 0, i32 0
  %7 = load %"class.WTF::String"*, %"class.WTF::String"** %6, align 8
  %8 = getelementptr inbounds %"class.blink::CustomStateSet", %"class.blink::CustomStateSet"* %0, i64 0, i32 3, i32 0, i32 0, i32 2
  %9 = load i32, i32* %8, align 4
  %10 = zext i32 %9 to i64
  %11 = getelementptr inbounds %"class.WTF::String", %"class.WTF::String"* %7, i64 %10
  %12 = icmp eq i32 %9, 0
  br i1 %12, label %77, label %13

13:                                               ; preds = %4
  %14 = getelementptr inbounds %"class.WTF::String", %"class.WTF::String"* %2, i64 0, i32 0, i32 0
  br label %15

15:                                               ; preds = %21, %13
  %16 = phi %"class.WTF::String"* [ %7, %13 ], [ %22, %21 ]
  %17 = getelementptr inbounds %"class.WTF::String", %"class.WTF::String"* %16, i64 0, i32 0, i32 0
  %18 = load %"class.WTF::StringImpl"*, %"class.WTF::StringImpl"** %17, align 8
  %19 = load %"class.WTF::StringImpl"*, %"class.WTF::StringImpl"** %14, align 8
  %20 = tail call zeroext i1 @_ZN3WTF5EqualEPKNS_10StringImplES2_(%"class.WTF::StringImpl"* %18, %"class.WTF::StringImpl"* %19) #9
  br i1 %20, label %24, label %21

21:                                               ; preds = %15
  %22 = getelementptr inbounds %"class.WTF::String", %"class.WTF::String"* %16, i64 1
  %23 = icmp ult %"class.WTF::String"* %22, %11
  br i1 %23, label %15, label %77

24:                                               ; preds = %15
  %25 = ptrtoint %"class.WTF::String"* %16 to i64
  %26 = ptrtoint %"class.WTF::String"* %7 to i64
  %27 = sub i64 %25, %26
  %28 = lshr exact i64 %27, 3
  %29 = trunc i64 %28 to i32
  %30 = icmp eq i32 %29, -1
  br i1 %30, label %77, label %31

31:                                               ; preds = %24
  tail call void @_ZN3WTF6VectorINS_6StringELj0ENS_18PartitionAllocatorEE7EraseAtEj(%"class.WTF::Vector.21"* %5, i32 %29)
  %32 = getelementptr inbounds %"class.blink::CustomStateSet", %"class.blink::CustomStateSet"* %0, i64 0, i32 4, i32 0, i32 0, i32 2
  %33 = load i32, i32* %32, align 4
  %34 = icmp eq i32 %33, 0
  %35 = getelementptr inbounds %"class.blink::CustomStateSet", %"class.blink::CustomStateSet"* %0, i64 0, i32 4, i32 0, i32 0, i32 0
  %36 = load %"class.blink::WeakMember"*, %"class.blink::WeakMember"** %35, align 8
  %37 = getelementptr inbounds %"class.blink::CustomStateSet", %"class.blink::CustomStateSet"* %0, i64 0, i32 4, i32 0, i32 0, i32 1
  %38 = load i32, i32* %37, align 8
  %39 = zext i32 %38 to i64
  %40 = getelementptr inbounds %"class.blink::WeakMember", %"class.blink::WeakMember"* %36, i64 %39
  br i1 %34, label %53, label %41

41:                                               ; preds = %31
  %42 = icmp eq i32 %38, 0
  br i1 %42, label %50, label %43

43:                                               ; preds = %41, %47
  %44 = phi %"class.blink::WeakMember"* [ %48, %47 ], [ %36, %41 ]
  %45 = bitcast %"class.blink::WeakMember"* %44 to i64*
  %46 = load i64, i64* %45, align 8
  switch i64 %46, label %50 [
    i64 -1, label %47
    i64 0, label %47
  ]

47:                                               ; preds = %43, %43
  %48 = getelementptr inbounds %"class.blink::WeakMember", %"class.blink::WeakMember"* %44, i64 1
  %49 = icmp eq %"class.blink::WeakMember"* %48, %40
  br i1 %49, label %53, label %43

50:                                               ; preds = %43, %41
  %51 = phi %"class.blink::WeakMember"* [ %36, %41 ], [ %44, %43 ]
  %52 = icmp eq %"class.blink::WeakMember"* %51, %40
  br i1 %52, label %53, label %56

53:                                               ; preds = %47, %65, %75, %72, %31, %50
  %54 = getelementptr inbounds %"class.blink::CustomStateSet", %"class.blink::CustomStateSet"* %0, i64 0, i32 2, i32 0, i32 0
  %55 = load %"class.blink::Element"*, %"class.blink::Element"** %54, align 8
  tail call void @_ZN5blink7Element18PseudoStateChangedENS_11CSSSelector10PseudoTypeE(%"class.blink::Element"* %55, i32 15) #9
  br label %77

56:                                               ; preds = %50, %75
  %57 = phi %"class.blink::WeakMember"* [ %69, %75 ], [ %51, %50 ]
  %58 = getelementptr inbounds %"class.blink::WeakMember", %"class.blink::WeakMember"* %57, i64 0, i32 0, i32 0
  %59 = load %"class.blink::CustomStateIterationSource"*, %"class.blink::CustomStateIterationSource"** %58, align 8
  %60 = getelementptr inbounds %"class.blink::CustomStateIterationSource", %"class.blink::CustomStateIterationSource"* %59, i64 0, i32 2
  %61 = load i32, i32* %60, align 8
  %62 = icmp ugt i32 %61, %29
  br i1 %62, label %63, label %65

63:                                               ; preds = %56
  %64 = add i32 %61, -1
  store i32 %64, i32* %60, align 8
  br label %65

65:                                               ; preds = %56, %63
  %66 = getelementptr inbounds %"class.blink::WeakMember", %"class.blink::WeakMember"* %57, i64 1
  %67 = icmp eq %"class.blink::WeakMember"* %66, %40
  br i1 %67, label %53, label %68

68:                                               ; preds = %65, %72
  %69 = phi %"class.blink::WeakMember"* [ %73, %72 ], [ %66, %65 ]
  %70 = bitcast %"class.blink::WeakMember"* %69 to i64*
  %71 = load i64, i64* %70, align 8
  switch i64 %71, label %75 [
    i64 -1, label %72
    i64 0, label %72
  ]

72:                                               ; preds = %68, %68
  %73 = getelementptr inbounds %"class.blink::WeakMember", %"class.blink::WeakMember"* %69, i64 1
  %74 = icmp eq %"class.blink::WeakMember"* %73, %40
  br i1 %74, label %53, label %68

75:                                               ; preds = %68
  %76 = icmp eq %"class.blink::WeakMember"* %69, %40
  br i1 %76, label %53, label %56

77:                                               ; preds = %21, %4, %24, %53
  %78 = phi i1 [ true, %53 ], [ false, %24 ], [ false, %4 ], [ false, %21 ]
  ret i1 %78
}

; Function Attrs: inlinehint nounwind ssp uwtable
define linkonce_odr hidden void @_ZN3WTF6VectorINS_6StringELj0ENS_18PartitionAllocatorEE7EraseAtEj(%"class.WTF::Vector.21"*, i32) local_unnamed_addr #4 comdat align 2 {
  %3 = alloca %"class.logging::CheckOpResult", align 8
  %4 = alloca %"class.logging::CheckOpResult", align 8
  %5 = alloca %"class.logging::CheckError", align 8
  %6 = bitcast %"class.logging::CheckOpResult"* %4 to i8*
  call void @llvm.lifetime.start.p0i8(i64 8, i8* nonnull %6) #9
  %7 = getelementptr inbounds %"class.logging::CheckOpResult", %"class.logging::CheckOpResult"* %4, i64 0, i32 0
  store i8* inttoptr (i64 -6148914691236517206 to i8*), i8** %7, align 8
  %8 = getelementptr inbounds %"class.WTF::Vector.21", %"class.WTF::Vector.21"* %0, i64 0, i32 0, i32 0, i32 2
  %9 = load i32, i32* %8, align 4
  %10 = bitcast %"class.logging::CheckOpResult"* %3 to i8*
  call void @llvm.lifetime.start.p0i8(i64 8, i8* nonnull %10)
  %11 = icmp ugt i32 %9, %1
  br i1 %11, label %12, label %13

12:                                               ; preds = %2
  call void @llvm.lifetime.end.p0i8(i64 8, i8* nonnull %10)
  store i8* null, i8** %7, align 8
  br label %22

13:                                               ; preds = %2
  %14 = tail call i8* @_ZN7logging15CheckOpValueStrEj(i32 %1) #9
  %15 = tail call i8* @_ZN7logging15CheckOpValueStrEj(i32 %9) #9
  call void @_ZN7logging13CheckOpResultC1EPKcPcS3_(%"class.logging::CheckOpResult"* nonnull %3, i8* getelementptr inbounds ([18 x i8], [18 x i8]* @.str.12, i64 0, i64 0), i8* %14, i8* %15) #9
  %16 = getelementptr inbounds %"class.logging::CheckOpResult", %"class.logging::CheckOpResult"* %3, i64 0, i32 0
  %17 = load i8*, i8** %16, align 8
  call void @llvm.lifetime.end.p0i8(i64 8, i8* nonnull %10)
  store i8* %17, i8** %7, align 8
  %18 = icmp eq i8* %17, null
  br i1 %18, label %22, label %19

19:                                               ; preds = %13
  %20 = bitcast %"class.logging::CheckError"* %5 to i8*
  call void @llvm.lifetime.start.p0i8(i64 8, i8* nonnull %20) #9
  call void @_ZN7logging10CheckError7CheckOpEPKciPNS_13CheckOpResultE(%"class.logging::CheckError"* nonnull sret %5, i8* getelementptr inbounds ([55 x i8], [55 x i8]* @.str.8, i64 0, i64 0), i32 2050, %"class.logging::CheckOpResult"* nonnull %4) #9
  %21 = call dereferenceable(160) %"class.std::__1::basic_ostream"* @_ZN7logging10CheckError6streamEv(%"class.logging::CheckError"* nonnull %5) #9
  call void @_ZN7logging10CheckErrorD1Ev(%"class.logging::CheckError"* nonnull %5) #9
  call void @llvm.lifetime.end.p0i8(i64 8, i8* nonnull %20) #9
  br label %22

22:                                               ; preds = %12, %13, %19
  call void @llvm.lifetime.end.p0i8(i64 8, i8* nonnull %6) #9
  %23 = getelementptr inbounds %"class.WTF::Vector.21", %"class.WTF::Vector.21"* %0, i64 0, i32 0, i32 0, i32 0
  %24 = load %"class.WTF::String"*, %"class.WTF::String"** %23, align 8
  %25 = zext i32 %1 to i64
  %26 = getelementptr inbounds %"class.WTF::String", %"class.WTF::String"* %24, i64 %25
  %27 = getelementptr inbounds %"class.WTF::String", %"class.WTF::String"* %26, i64 0, i32 0, i32 0
  %28 = load %"class.WTF::StringImpl"*, %"class.WTF::StringImpl"** %27, align 8
  %29 = icmp eq %"class.WTF::StringImpl"* %28, null
  br i1 %29, label %43, label %30

30:                                               ; preds = %22
  %31 = getelementptr inbounds %"class.WTF::StringImpl", %"class.WTF::StringImpl"* %28, i64 0, i32 2, i32 0, i32 0, i32 0, i32 0, i32 0
  %32 = load atomic i32, i32* %31 monotonic, align 4
  %33 = and i32 %32, 2
  %34 = icmp eq i32 %33, 0
  %35 = getelementptr inbounds %"class.WTF::StringImpl", %"class.WTF::StringImpl"* %28, i64 0, i32 0
  %36 = load i32, i32* %35, align 4
  br i1 %34, label %37, label %39

37:                                               ; preds = %30
  %38 = add i32 %36, -1
  store i32 %38, i32* %35, align 4
  br label %39

39:                                               ; preds = %37, %30
  %40 = phi i32 [ %38, %37 ], [ %36, %30 ]
  %41 = icmp eq i32 %40, 0
  br i1 %41, label %42, label %43

42:                                               ; preds = %39
  call void @_ZNK3WTF10StringImpl18DestroyIfNotStaticEv(%"class.WTF::StringImpl"* nonnull %28) #9
  br label %43

43:                                               ; preds = %22, %39, %42
  %44 = getelementptr inbounds %"class.WTF::String", %"class.WTF::String"* %26, i64 1
  %45 = icmp ne %"class.WTF::String"* %26, null
  %46 = icmp ne %"class.WTF::String"* %44, null
  %47 = and i1 %45, %46
  br i1 %47, label %48, label %58, !prof !15

48:                                               ; preds = %43
  %49 = load %"class.WTF::String"*, %"class.WTF::String"** %23, align 8
  %50 = load i32, i32* %8, align 4
  %51 = zext i32 %50 to i64
  %52 = getelementptr inbounds %"class.WTF::String", %"class.WTF::String"* %49, i64 %51
  %53 = bitcast %"class.WTF::String"* %26 to i8*
  %54 = bitcast %"class.WTF::String"* %44 to i8*
  %55 = ptrtoint %"class.WTF::String"* %52 to i64
  %56 = ptrtoint %"class.WTF::String"* %44 to i64
  %57 = sub i64 %55, %56
  call void @llvm.memmove.p0i8.p0i8.i64(i8* nonnull align 8 %53, i8* nonnull align 8 %54, i64 %57, i1 false) #9
  br label %58

58:                                               ; preds = %43, %48
  %59 = load i32, i32* %8, align 4
  %60 = add i32 %59, -1
  store i32 %60, i32* %8, align 4
  ret void
}

; Function Attrs: nounwind ssp uwtable
define hidden zeroext i1 @_ZNK5blink14CustomStateSet13hasForBindingEPNS_11ScriptStateERKN3WTF6StringERNS_14ExceptionStateE(%"class.blink::CustomStateSet"* nocapture readonly, %"class.blink::ScriptState"* nocapture readnone, %"class.WTF::String"* nocapture readonly dereferenceable(8), %"class.blink::ExceptionState"* nocapture readnone dereferenceable(72)) local_unnamed_addr #0 align 2 {
  %5 = getelementptr inbounds %"class.blink::CustomStateSet", %"class.blink::CustomStateSet"* %0, i64 0, i32 3, i32 0, i32 0, i32 0
  %6 = load %"class.WTF::String"*, %"class.WTF::String"** %5, align 8
  %7 = getelementptr inbounds %"class.blink::CustomStateSet", %"class.blink::CustomStateSet"* %0, i64 0, i32 3, i32 0, i32 0, i32 2
  %8 = load i32, i32* %7, align 4
  %9 = zext i32 %8 to i64
  %10 = getelementptr inbounds %"class.WTF::String", %"class.WTF::String"* %6, i64 %9
  %11 = icmp eq i32 %8, 0
  br i1 %11, label %30, label %12

12:                                               ; preds = %4
  %13 = getelementptr inbounds %"class.WTF::String", %"class.WTF::String"* %2, i64 0, i32 0, i32 0
  br label %14

14:                                               ; preds = %20, %12
  %15 = phi %"class.WTF::String"* [ %6, %12 ], [ %21, %20 ]
  %16 = getelementptr inbounds %"class.WTF::String", %"class.WTF::String"* %15, i64 0, i32 0, i32 0
  %17 = load %"class.WTF::StringImpl"*, %"class.WTF::StringImpl"** %16, align 8
  %18 = load %"class.WTF::StringImpl"*, %"class.WTF::StringImpl"** %13, align 8
  %19 = tail call zeroext i1 @_ZN3WTF5EqualEPKNS_10StringImplES2_(%"class.WTF::StringImpl"* %17, %"class.WTF::StringImpl"* %18) #9
  br i1 %19, label %23, label %20

20:                                               ; preds = %14
  %21 = getelementptr inbounds %"class.WTF::String", %"class.WTF::String"* %15, i64 1
  %22 = icmp ult %"class.WTF::String"* %21, %10
  br i1 %22, label %14, label %30

23:                                               ; preds = %14
  %24 = ptrtoint %"class.WTF::String"* %15 to i64
  %25 = ptrtoint %"class.WTF::String"* %6 to i64
  %26 = sub i64 %24, %25
  %27 = lshr exact i64 %26, 3
  %28 = trunc i64 %27 to i32
  %29 = icmp ne i32 %28, -1
  br label %30

30:                                               ; preds = %20, %4, %23
  %31 = phi i1 [ %29, %23 ], [ false, %4 ], [ false, %20 ]
  ret i1 %31
}

; Function Attrs: nounwind ssp uwtable
define hidden zeroext i1 @_ZNK5blink14CustomStateSet3HasERKN3WTF6StringE(%"class.blink::CustomStateSet"* nocapture readonly, %"class.WTF::String"* nocapture readonly dereferenceable(8)) local_unnamed_addr #0 align 2 {
  %3 = getelementptr inbounds %"class.blink::CustomStateSet", %"class.blink::CustomStateSet"* %0, i64 0, i32 3, i32 0, i32 0, i32 0
  %4 = load %"class.WTF::String"*, %"class.WTF::String"** %3, align 8
  %5 = getelementptr inbounds %"class.blink::CustomStateSet", %"class.blink::CustomStateSet"* %0, i64 0, i32 3, i32 0, i32 0, i32 2
  %6 = load i32, i32* %5, align 4
  %7 = zext i32 %6 to i64
  %8 = getelementptr inbounds %"class.WTF::String", %"class.WTF::String"* %4, i64 %7
  %9 = icmp eq i32 %6, 0
  br i1 %9, label %28, label %10

10:                                               ; preds = %2
  %11 = getelementptr inbounds %"class.WTF::String", %"class.WTF::String"* %1, i64 0, i32 0, i32 0
  br label %12

12:                                               ; preds = %18, %10
  %13 = phi %"class.WTF::String"* [ %4, %10 ], [ %19, %18 ]
  %14 = getelementptr inbounds %"class.WTF::String", %"class.WTF::String"* %13, i64 0, i32 0, i32 0
  %15 = load %"class.WTF::StringImpl"*, %"class.WTF::StringImpl"** %14, align 8
  %16 = load %"class.WTF::StringImpl"*, %"class.WTF::StringImpl"** %11, align 8
  %17 = tail call zeroext i1 @_ZN3WTF5EqualEPKNS_10StringImplES2_(%"class.WTF::StringImpl"* %15, %"class.WTF::StringImpl"* %16) #9
  br i1 %17, label %21, label %18

18:                                               ; preds = %12
  %19 = getelementptr inbounds %"class.WTF::String", %"class.WTF::String"* %13, i64 1
  %20 = icmp ult %"class.WTF::String"* %19, %8
  br i1 %20, label %12, label %28

21:                                               ; preds = %12
  %22 = ptrtoint %"class.WTF::String"* %13 to i64
  %23 = ptrtoint %"class.WTF::String"* %4 to i64
  %24 = sub i64 %22, %23
  %25 = lshr exact i64 %24, 3
  %26 = trunc i64 %25 to i32
  %27 = icmp ne i32 %26, -1
  br label %28

28:                                               ; preds = %18, %2, %21
  %29 = phi i1 [ %27, %21 ], [ false, %2 ], [ false, %18 ]
  ret i1 %29
}

; Function Attrs: nounwind ssp uwtable
define hidden %"class.blink::Iterable<WTF::String, WTF::String>::IterationSource"* @_ZN5blink14CustomStateSet14StartIterationEPNS_11ScriptStateERNS_14ExceptionStateE(%"class.blink::CustomStateSet"*, %"class.blink::ScriptState"* nocapture readnone, %"class.blink::ExceptionState"* nocapture readnone dereferenceable(72)) unnamed_addr #0 align 2 {
  %4 = alloca %"class.blink::CustomStateIterationSource"*, align 8
  %5 = bitcast %"class.blink::CustomStateIterationSource"** %4 to i8*
  call void @llvm.lifetime.start.p0i8(i64 8, i8* nonnull %5) #9
  store %"class.blink::CustomStateIterationSource"* inttoptr (i64 -6148914691236517206 to %"class.blink::CustomStateIterationSource"*), %"class.blink::CustomStateIterationSource"** %4, align 8
  %6 = tail call i8* @_ZN5blink10ThreadHeap8AllocateINS_8IterableIN3WTF6StringES4_E15IterationSourceEEEPhm(i64 24) #9
  %7 = bitcast i8* %6 to i32 (...)***
  store i32 (...)** bitcast (i8** getelementptr inbounds ({ [6 x i8*] }, { [6 x i8*] }* @_ZTVN5blink26CustomStateIterationSourceE, i64 0, inrange i32 0, i64 2) to i32 (...)**), i32 (...)*** %7, align 8
  %8 = getelementptr inbounds i8, i8* %6, i64 8
  %9 = bitcast i8* %8 to %"class.blink::CustomStateSet"**
  store %"class.blink::CustomStateSet"* %0, %"class.blink::CustomStateSet"** %9, align 8
  %10 = getelementptr inbounds i8, i8* %6, i64 16
  %11 = bitcast i8* %10 to i32*
  store i32 0, i32* %11, align 8
  %12 = getelementptr inbounds i8, i8* %6, i64 -4
  %13 = bitcast i8* %12 to i16*
  %14 = load atomic i16, i16* %13 monotonic, align 2
  %15 = or i16 %14, 1
  store atomic i16 %15, i16* %13 release, align 2
  %16 = bitcast %"class.blink::CustomStateIterationSource"** %4 to i8**
  store i8* %6, i8** %16, align 8
  %17 = getelementptr inbounds %"class.blink::CustomStateSet", %"class.blink::CustomStateSet"* %0, i64 0, i32 4, i32 0, i32 0
  %18 = call { %"class.blink::WeakMember"*, i8 } @_ZN3WTF9HashTableIN5blink10WeakMemberINS1_26CustomStateIterationSourceEEES4_NS_17IdentityExtractorENS_10MemberHashIS3_EENS_10HashTraitsIS4_EES9_NS1_13HeapAllocatorEE6insertINS_22IdentityHashTranslatorIS7_S9_SA_EERKPS3_RSF_EENS_18HashTableAddResultISB_S4_EEOT0_OT1_(%"class.WTF::HashTable"* %17, %"class.blink::CustomStateIterationSource"** nonnull dereferenceable(8) %4, %"class.blink::CustomStateIterationSource"** nonnull dereferenceable(8) %4) #9
  %19 = bitcast %"class.blink::CustomStateIterationSource"** %4 to %"class.blink::Iterable<WTF::String, WTF::String>::IterationSource"**
  %20 = load %"class.blink::Iterable<WTF::String, WTF::String>::IterationSource"*, %"class.blink::Iterable<WTF::String, WTF::String>::IterationSource"** %19, align 8
  call void @llvm.lifetime.end.p0i8(i64 8, i8* nonnull %5) #9
  ret %"class.blink::Iterable<WTF::String, WTF::String>::IterationSource"* %20
}

; Function Attrs: nounwind ssp uwtable
define hidden %"class.blink::Iterable<WTF::String, WTF::String>::IterationSource"* @_ZThn16_N5blink14CustomStateSet14StartIterationEPNS_11ScriptStateERNS_14ExceptionStateE(%"class.blink::CustomStateSet"*, %"class.blink::ScriptState"* nocapture readnone, %"class.blink::ExceptionState"* nocapture readnone dereferenceable(72)) unnamed_addr #0 align 2 {
  %4 = alloca %"class.blink::CustomStateIterationSource"*, align 8
  %5 = getelementptr inbounds %"class.blink::CustomStateSet", %"class.blink::CustomStateSet"* %0, i64 -1, i32 4, i32 0, i32 0, i32 1
  %6 = bitcast %"class.blink::CustomStateIterationSource"** %4 to i8*
  call void @llvm.lifetime.start.p0i8(i64 8, i8* nonnull %6) #9
  store %"class.blink::CustomStateIterationSource"* inttoptr (i64 -6148914691236517206 to %"class.blink::CustomStateIterationSource"*), %"class.blink::CustomStateIterationSource"** %4, align 8
  %7 = tail call i8* @_ZN5blink10ThreadHeap8AllocateINS_8IterableIN3WTF6StringES4_E15IterationSourceEEEPhm(i64 24) #9
  %8 = bitcast i8* %7 to i32 (...)***
  store i32 (...)** bitcast (i8** getelementptr inbounds ({ [6 x i8*] }, { [6 x i8*] }* @_ZTVN5blink26CustomStateIterationSourceE, i64 0, inrange i32 0, i64 2) to i32 (...)**), i32 (...)*** %8, align 8
  %9 = getelementptr inbounds i8, i8* %7, i64 8
  %10 = bitcast i8* %9 to i32**
  store i32* %5, i32** %10, align 8
  %11 = getelementptr inbounds i8, i8* %7, i64 16
  %12 = bitcast i8* %11 to i32*
  store i32 0, i32* %12, align 8
  %13 = getelementptr inbounds i8, i8* %7, i64 -4
  %14 = bitcast i8* %13 to i16*
  %15 = load atomic i16, i16* %14 monotonic, align 2
  %16 = or i16 %15, 1
  store atomic i16 %16, i16* %14 release, align 2
  %17 = bitcast %"class.blink::CustomStateIterationSource"** %4 to i8**
  store i8* %7, i8** %17, align 8
  %18 = getelementptr inbounds i32, i32* %5, i64 12
  %19 = bitcast i32* %18 to %"class.WTF::HashTable"*
  %20 = call { %"class.blink::WeakMember"*, i8 } @_ZN3WTF9HashTableIN5blink10WeakMemberINS1_26CustomStateIterationSourceEEES4_NS_17IdentityExtractorENS_10MemberHashIS3_EENS_10HashTraitsIS4_EES9_NS1_13HeapAllocatorEE6insertINS_22IdentityHashTranslatorIS7_S9_SA_EERKPS3_RSF_EENS_18HashTableAddResultISB_S4_EEOT0_OT1_(%"class.WTF::HashTable"* %19, %"class.blink::CustomStateIterationSource"** nonnull dereferenceable(8) %4, %"class.blink::CustomStateIterationSource"** nonnull dereferenceable(8) %4) #9
  %21 = bitcast %"class.blink::CustomStateIterationSource"** %4 to %"class.blink::Iterable<WTF::String, WTF::String>::IterationSource"**
  %22 = load %"class.blink::Iterable<WTF::String, WTF::String>::IterationSource"*, %"class.blink::Iterable<WTF::String, WTF::String>::IterationSource"** %21, align 8
  call void @llvm.lifetime.end.p0i8(i64 8, i8* nonnull %6) #9
  ret %"class.blink::Iterable<WTF::String, WTF::String>::IterationSource"* %22
}

declare void @_ZN5blink7Element18PseudoStateChangedENS_11CSSSelector10PseudoTypeE(%"class.blink::Element"*, i32) local_unnamed_addr #1

declare i8* @_ZNK5blink15ScriptWrappable18NameInHeapSnapshotEv(%"class.blink::ScriptWrappable"*) unnamed_addr #1

; Function Attrs: inlinehint nounwind ssp uwtable
define linkonce_odr hidden void @_ZN5blink14CustomStateSetD2Ev(%"class.blink::CustomStateSet"*) unnamed_addr #4 comdat align 2 {
  %2 = getelementptr inbounds %"class.blink::CustomStateSet", %"class.blink::CustomStateSet"* %0, i64 0, i32 0, i32 0, i32 0
  store i32 (...)** bitcast (i8** getelementptr inbounds ({ [12 x i8*], [3 x i8*] }, { [12 x i8*], [3 x i8*] }* @_ZTVN5blink14CustomStateSetE, i64 0, inrange i32 0, i64 2) to i32 (...)**), i32 (...)*** %2, align 8
  %3 = getelementptr inbounds %"class.blink::CustomStateSet", %"class.blink::CustomStateSet"* %0, i64 0, i32 1, i32 0, i32 0
  store i32 (...)** bitcast (i8** getelementptr inbounds ({ [12 x i8*], [3 x i8*] }, { [12 x i8*], [3 x i8*] }* @_ZTVN5blink14CustomStateSetE, i64 0, inrange i32 1, i64 2) to i32 (...)**), i32 (...)*** %3, align 8
  %4 = getelementptr inbounds %"class.blink::CustomStateSet", %"class.blink::CustomStateSet"* %0, i64 0, i32 3
  %5 = getelementptr inbounds %"class.WTF::Vector.21", %"class.WTF::Vector.21"* %4, i64 0, i32 0, i32 0, i32 0
  %6 = load %"class.WTF::String"*, %"class.WTF::String"** %5, align 8
  %7 = icmp eq %"class.WTF::String"* %6, null
  br i1 %7, label %42, label %8, !prof !15

8:                                                ; preds = %1
  %9 = bitcast %"class.WTF::String"* %6 to i8*
  %10 = getelementptr inbounds %"class.blink::CustomStateSet", %"class.blink::CustomStateSet"* %0, i64 0, i32 3, i32 0, i32 0, i32 2
  %11 = load i32, i32* %10, align 4
  %12 = icmp eq i32 %11, 0
  br i1 %12, label %40, label %13, !prof !2

13:                                               ; preds = %8
  %14 = zext i32 %11 to i64
  %15 = getelementptr inbounds %"class.WTF::String", %"class.WTF::String"* %6, i64 %14
  br label %16

16:                                               ; preds = %34, %13
  %17 = phi %"class.WTF::String"* [ %35, %34 ], [ %6, %13 ]
  %18 = getelementptr inbounds %"class.WTF::String", %"class.WTF::String"* %17, i64 0, i32 0, i32 0
  %19 = load %"class.WTF::StringImpl"*, %"class.WTF::StringImpl"** %18, align 8
  %20 = icmp eq %"class.WTF::StringImpl"* %19, null
  br i1 %20, label %34, label %21

21:                                               ; preds = %16
  %22 = getelementptr inbounds %"class.WTF::StringImpl", %"class.WTF::StringImpl"* %19, i64 0, i32 2, i32 0, i32 0, i32 0, i32 0, i32 0
  %23 = load atomic i32, i32* %22 monotonic, align 4
  %24 = and i32 %23, 2
  %25 = icmp eq i32 %24, 0
  %26 = getelementptr inbounds %"class.WTF::StringImpl", %"class.WTF::StringImpl"* %19, i64 0, i32 0
  %27 = load i32, i32* %26, align 4
  br i1 %25, label %28, label %30

28:                                               ; preds = %21
  %29 = add i32 %27, -1
  store i32 %29, i32* %26, align 4
  br label %30

30:                                               ; preds = %28, %21
  %31 = phi i32 [ %29, %28 ], [ %27, %21 ]
  %32 = icmp eq i32 %31, 0
  br i1 %32, label %33, label %34

33:                                               ; preds = %30
  tail call void @_ZNK3WTF10StringImpl18DestroyIfNotStaticEv(%"class.WTF::StringImpl"* nonnull %19) #9
  br label %34

34:                                               ; preds = %33, %30, %16
  %35 = getelementptr inbounds %"class.WTF::String", %"class.WTF::String"* %17, i64 1
  %36 = icmp eq %"class.WTF::String"* %35, %15
  br i1 %36, label %37, label %16

37:                                               ; preds = %34
  store i32 0, i32* %10, align 4
  %38 = bitcast %"class.WTF::Vector.21"* %4 to i8**
  %39 = load i8*, i8** %38, align 8
  br label %40

40:                                               ; preds = %37, %8
  %41 = phi i8* [ %39, %37 ], [ %9, %8 ]
  tail call void @_ZN3WTF18PartitionAllocator11FreeBackingEPv(i8* %41) #9
  store %"class.WTF::String"* null, %"class.WTF::String"** %5, align 8
  br label %42

42:                                               ; preds = %1, %40
  ret void
}

; Function Attrs: inlinehint nounwind ssp uwtable
define linkonce_odr hidden void @_ZN5blink14CustomStateSetD0Ev(%"class.blink::CustomStateSet"*) unnamed_addr #4 comdat align 2 {
  %2 = getelementptr inbounds %"class.blink::CustomStateSet", %"class.blink::CustomStateSet"* %0, i64 0, i32 0, i32 0, i32 0
  store i32 (...)** bitcast (i8** getelementptr inbounds ({ [12 x i8*], [3 x i8*] }, { [12 x i8*], [3 x i8*] }* @_ZTVN5blink14CustomStateSetE, i64 0, inrange i32 0, i64 2) to i32 (...)**), i32 (...)*** %2, align 8
  %3 = getelementptr inbounds %"class.blink::CustomStateSet", %"class.blink::CustomStateSet"* %0, i64 0, i32 1, i32 0, i32 0
  store i32 (...)** bitcast (i8** getelementptr inbounds ({ [12 x i8*], [3 x i8*] }, { [12 x i8*], [3 x i8*] }* @_ZTVN5blink14CustomStateSetE, i64 0, inrange i32 1, i64 2) to i32 (...)**), i32 (...)*** %3, align 8
  %4 = getelementptr inbounds %"class.blink::CustomStateSet", %"class.blink::CustomStateSet"* %0, i64 0, i32 3
  %5 = getelementptr inbounds %"class.WTF::Vector.21", %"class.WTF::Vector.21"* %4, i64 0, i32 0, i32 0, i32 0
  %6 = load %"class.WTF::String"*, %"class.WTF::String"** %5, align 8
  %7 = icmp eq %"class.WTF::String"* %6, null
  br i1 %7, label %42, label %8, !prof !15

8:                                                ; preds = %1
  %9 = bitcast %"class.WTF::String"* %6 to i8*
  %10 = getelementptr inbounds %"class.blink::CustomStateSet", %"class.blink::CustomStateSet"* %0, i64 0, i32 3, i32 0, i32 0, i32 2
  %11 = load i32, i32* %10, align 4
  %12 = icmp eq i32 %11, 0
  br i1 %12, label %40, label %13, !prof !2

13:                                               ; preds = %8
  %14 = zext i32 %11 to i64
  %15 = getelementptr inbounds %"class.WTF::String", %"class.WTF::String"* %6, i64 %14
  br label %16

16:                                               ; preds = %34, %13
  %17 = phi %"class.WTF::String"* [ %35, %34 ], [ %6, %13 ]
  %18 = getelementptr inbounds %"class.WTF::String", %"class.WTF::String"* %17, i64 0, i32 0, i32 0
  %19 = load %"class.WTF::StringImpl"*, %"class.WTF::StringImpl"** %18, align 8
  %20 = icmp eq %"class.WTF::StringImpl"* %19, null
  br i1 %20, label %34, label %21

21:                                               ; preds = %16
  %22 = getelementptr inbounds %"class.WTF::StringImpl", %"class.WTF::StringImpl"* %19, i64 0, i32 2, i32 0, i32 0, i32 0, i32 0, i32 0
  %23 = load atomic i32, i32* %22 monotonic, align 4
  %24 = and i32 %23, 2
  %25 = icmp eq i32 %24, 0
  %26 = getelementptr inbounds %"class.WTF::StringImpl", %"class.WTF::StringImpl"* %19, i64 0, i32 0
  %27 = load i32, i32* %26, align 4
  br i1 %25, label %28, label %30

28:                                               ; preds = %21
  %29 = add i32 %27, -1
  store i32 %29, i32* %26, align 4
  br label %30

30:                                               ; preds = %28, %21
  %31 = phi i32 [ %29, %28 ], [ %27, %21 ]
  %32 = icmp eq i32 %31, 0
  br i1 %32, label %33, label %34

33:                                               ; preds = %30
  tail call void @_ZNK3WTF10StringImpl18DestroyIfNotStaticEv(%"class.WTF::StringImpl"* nonnull %19) #9
  br label %34

34:                                               ; preds = %33, %30, %16
  %35 = getelementptr inbounds %"class.WTF::String", %"class.WTF::String"* %17, i64 1
  %36 = icmp eq %"class.WTF::String"* %35, %15
  br i1 %36, label %37, label %16

37:                                               ; preds = %34
  store i32 0, i32* %10, align 4
  %38 = bitcast %"class.WTF::Vector.21"* %4 to i8**
  %39 = load i8*, i8** %38, align 8
  br label %40

40:                                               ; preds = %37, %8
  %41 = phi i8* [ %39, %37 ], [ %9, %8 ]
  tail call void @_ZN3WTF18PartitionAllocator11FreeBackingEPv(i8* %41) #9
  store %"class.WTF::String"* null, %"class.WTF::String"** %5, align 8
  br label %42

42:                                               ; preds = %1, %40
  ret void
}

; Function Attrs: nounwind ssp uwtable
define linkonce_odr hidden zeroext i1 @_ZNK5blink15ScriptWrappable18HasPendingActivityEv(%"class.blink::ScriptWrappable"*) unnamed_addr #0 comdat align 2 {
  ret i1 false
}

; Function Attrs: nounwind ssp uwtable
define linkonce_odr hidden zeroext i1 @_ZNK5blink15ScriptWrappable17HasEventListenersEv(%"class.blink::ScriptWrappable"*) unnamed_addr #0 comdat align 2 {
  ret i1 false
}

; Function Attrs: nounwind ssp uwtable
define linkonce_odr hidden %"struct.blink::WrapperTypeInfo"* @_ZNK5blink14CustomStateSet18GetWrapperTypeInfoEv(%"class.blink::CustomStateSet"*) unnamed_addr #0 comdat align 2 {
  %2 = load %"struct.blink::WrapperTypeInfo"*, %"struct.blink::WrapperTypeInfo"** @_ZN5blink14CustomStateSet18wrapper_type_info_E, align 8
  ret %"struct.blink::WrapperTypeInfo"* %2
}

declare %"class.v8::Value"* @_ZN5blink15ScriptWrappable4WrapEPNS_11ScriptStateE(%"class.blink::ScriptWrappable"*, %"class.blink::ScriptState"*) unnamed_addr #1

declare %"class.v8::Object"* @_ZN5blink15ScriptWrappable20AssociateWithWrapperEPN2v87IsolateEPKNS_15WrapperTypeInfoENS1_5LocalINS1_6ObjectEEE(%"class.blink::ScriptWrappable"*, %"class.v8::Isolate"*, %"struct.blink::WrapperTypeInfo"*, %"class.v8::Object"*) unnamed_addr #1

; Function Attrs: argmemonly nounwind
declare void @llvm.memset.p0i8.i64(i8* nocapture writeonly, i8, i64, i1 immarg) #2

declare zeroext i1 @_ZNK3WTF10StringImpl10StartsWithERKNS_10StringViewE(%"class.WTF::StringImpl"*, %"class.WTF::StringView"* dereferenceable(24)) local_unnamed_addr #1

; Function Attrs: cold noreturn nounwind
declare void @llvm.trap() #5

; Function Attrs: nounwind readnone speculatable
declare { i33, i1 } @llvm.sadd.with.overflow.i33(i33, i33) #6

declare void @_ZNK3WTF10StringImpl18DestroyIfNotStaticEv(%"class.WTF::StringImpl"*) local_unnamed_addr #1

declare void @_ZN3WTF18PartitionAllocator11FreeBackingEPv(i8*) local_unnamed_addr #1

; Function Attrs: nounwind ssp uwtable
define linkonce_odr hidden void @_ZN5blink10TraceTraitINS_7ElementEE5TraceEPNS_7VisitorEPKv(%"class.blink::Visitor"*, i8*) #0 comdat align 2 {
  %3 = bitcast i8* %1 to %"class.blink::Element"*
  %4 = bitcast i8* %1 to void (%"class.blink::Element"*, %"class.blink::Visitor"*)***
  %5 = load void (%"class.blink::Element"*, %"class.blink::Visitor"*)**, void (%"class.blink::Element"*, %"class.blink::Visitor"*)*** %4, align 8
  %6 = getelementptr inbounds void (%"class.blink::Element"*, %"class.blink::Visitor"*)*, void (%"class.blink::Element"*, %"class.blink::Visitor"*)** %5, i64 5
  %7 = load void (%"class.blink::Element"*, %"class.blink::Visitor"*)*, void (%"class.blink::Element"*, %"class.blink::Visitor"*)** %6, align 8
  tail call void %7(%"class.blink::Element"* %3, %"class.blink::Visitor"* %0) #9
  ret void
}

; Function Attrs: nounwind ssp uwtable
define linkonce_odr hidden void @_ZN3WTF29WeakProcessingHashTableHelperILNS_16WeakHandlingFlagE1EN5blink10WeakMemberINS2_26CustomStateIterationSourceEEES5_NS_17IdentityExtractorENS_10MemberHashIS4_EENS_10HashTraitsIS5_EESA_NS2_13HeapAllocatorEE7ProcessERKNS2_14LivenessBrokerEPKv(%"class.blink::LivenessBroker"* dereferenceable(1), i8*) #0 comdat align 2 {
  %3 = bitcast i8* %1 to %"class.blink::WeakMember"**
  %4 = load %"class.blink::WeakMember"*, %"class.blink::WeakMember"** %3, align 8
  %5 = icmp eq %"class.blink::WeakMember"* %4, null
  br i1 %5, label %61, label %6

6:                                                ; preds = %2
  %7 = getelementptr inbounds i8, i8* %1, i64 8
  %8 = bitcast i8* %7 to i32*
  %9 = load i32, i32* %8, align 8
  %10 = zext i32 %9 to i64
  %11 = getelementptr inbounds %"class.blink::WeakMember", %"class.blink::WeakMember"* %4, i64 %10
  %12 = getelementptr inbounds %"class.blink::WeakMember", %"class.blink::WeakMember"* %11, i64 -1
  %13 = icmp ult %"class.blink::WeakMember"* %12, %4
  br i1 %13, label %61, label %14

14:                                               ; preds = %6
  %15 = getelementptr inbounds i8, i8* %1, i64 16
  %16 = bitcast i8* %15 to i32*
  %17 = getelementptr inbounds i8, i8* %1, i64 12
  %18 = bitcast i8* %17 to i32*
  br label %19

19:                                               ; preds = %14, %57
  %20 = phi %"class.blink::WeakMember"* [ %12, %14 ], [ %58, %57 ]
  %21 = getelementptr inbounds %"class.blink::WeakMember", %"class.blink::WeakMember"* %20, i64 0, i32 0, i32 0
  %22 = load %"class.blink::CustomStateIterationSource"*, %"class.blink::CustomStateIterationSource"** %21, align 8
  %23 = ptrtoint %"class.blink::CustomStateIterationSource"* %22 to i64
  switch i64 %23, label %24 [
    i64 -1, label %57
    i64 0, label %57
  ]

24:                                               ; preds = %19
  %25 = load %"class.WTF::ThreadSpecific"*, %"class.WTF::ThreadSpecific"** @_ZN5blink11ThreadState16thread_specific_E, align 8
  %26 = getelementptr inbounds %"class.WTF::ThreadSpecific", %"class.WTF::ThreadSpecific"* %25, i64 0, i32 1
  %27 = tail call i8* @_ZNK4base18ThreadLocalStorage4Slot3GetEv(%"class.base::ThreadLocalStorage::Slot"* %26) #9
  %28 = icmp eq i8* %27, null
  br i1 %28, label %29, label %31, !prof !2

29:                                               ; preds = %24
  %30 = tail call i8* @_ZN3WTF10Partitions16FastZeroedMallocEmPKc(i64 8, i8* getelementptr inbounds ([68 x i8], [68 x i8]* @__PRETTY_FUNCTION__._ZN3WTF21GetStringWithTypeNameIPN5blink11ThreadStateEEEPKcv, i64 0, i64 0)) #9
  tail call void @_ZN4base18ThreadLocalStorage4Slot3SetEPv(%"class.base::ThreadLocalStorage::Slot"* %26, i8* %30) #9
  br label %31

31:                                               ; preds = %29, %24
  %32 = phi i8* [ %30, %29 ], [ %27, %24 ]
  %33 = bitcast i8* %32 to %"class.blink::ThreadState"**
  %34 = load %"class.blink::ThreadState"*, %"class.blink::ThreadState"** %33, align 8
  %35 = icmp eq %"class.blink::ThreadState"* %34, null
  br i1 %35, label %57, label %36

36:                                               ; preds = %31
  %37 = getelementptr inbounds %"class.blink::CustomStateIterationSource", %"class.blink::CustomStateIterationSource"* %22, i64 -1, i32 2
  %38 = bitcast i32* %37 to %"class.blink::HeapObjectHeader"*
  %39 = getelementptr inbounds %"class.blink::HeapObjectHeader", %"class.blink::HeapObjectHeader"* %38, i64 0, i32 2
  %40 = load i16, i16* %39, align 2
  %41 = and i16 %40, 1
  %42 = icmp eq i16 %41, 0
  br i1 %42, label %43, label %57

43:                                               ; preds = %36
  %44 = bitcast %"class.blink::WeakMember"* %20 to i64*
  store atomic i64 -1, i64* %44 monotonic, align 8
  %45 = load atomic i32, i32* getelementptr inbounds (%"class.blink::AtomicEntryFlag", %"class.blink::AtomicEntryFlag"* @_ZN5blink11ThreadState25incremental_marking_flag_E, i64 0, i32 0, i32 0, i32 0, i32 0, i32 0, i32 0) monotonic, align 4
  %46 = icmp eq i32 %45, 0
  br i1 %46, label %49, label %47

47:                                               ; preds = %43
  %48 = tail call zeroext i1 @_ZN5blink14MarkingVisitor16WriteBarrierSlowEPv(i8* nonnull inttoptr (i64 -1 to i8*)) #9
  br label %49

49:                                               ; preds = %43, %47
  %50 = load i32, i32* %16, align 8
  %51 = add i32 %50, 1
  %52 = and i32 %51, 2147483647
  %53 = and i32 %50, -2147483648
  %54 = or i32 %52, %53
  store i32 %54, i32* %16, align 8
  %55 = load i32, i32* %18, align 4
  %56 = add i32 %55, -1
  store i32 %56, i32* %18, align 4
  br label %57

57:                                               ; preds = %36, %19, %19, %31, %49
  %58 = getelementptr inbounds %"class.blink::WeakMember", %"class.blink::WeakMember"* %20, i64 -1
  %59 = load %"class.blink::WeakMember"*, %"class.blink::WeakMember"** %3, align 8
  %60 = icmp ult %"class.blink::WeakMember"* %58, %59
  br i1 %60, label %61, label %19

61:                                               ; preds = %57, %6, %2
  ret void
}

; Function Attrs: argmemonly nounwind
declare void @llvm.memcpy.p0i8.p0i8.i64(i8* nocapture writeonly, i8* nocapture readonly, i64, i1 immarg) #2

; Function Attrs: nounwind ssp uwtable
define linkonce_odr hidden void @_ZN5blink10TraceTraitINS_20HeapHashTableBackingIN3WTF9HashTableINS_10WeakMemberINS_26CustomStateIterationSourceEEES6_NS2_17IdentityExtractorENS2_10MemberHashIS5_EENS2_10HashTraitsIS6_EESB_NS_13HeapAllocatorEEEEEE5TraceILNS2_16WeakHandlingFlagE0EEEvPNS_7VisitorEPKv(%"class.blink::Visitor"*, i8*) #0 comdat align 2 {
  %3 = bitcast i8* %1 to %"class.blink::WeakMember"*
  %4 = getelementptr inbounds i8, i8* %1, i64 -2
  %5 = bitcast i8* %4 to i16*
  %6 = load i16, i16* %5, align 2
  %7 = lshr i16 %6, 2
  %8 = icmp eq i16 %7, 0
  br i1 %8, label %9, label %17, !prof !2

9:                                                ; preds = %2
  %10 = getelementptr inbounds i8, i8* %1, i64 -8
  %11 = ptrtoint i8* %10 to i64
  %12 = and i64 %11, -131072
  %13 = inttoptr i64 %12 to i8*
  %14 = getelementptr inbounds i8, i8* %13, i64 4144
  %15 = bitcast i8* %14 to i64*
  %16 = load i64, i64* %15, align 16
  br label %20

17:                                               ; preds = %2
  %18 = zext i16 %7 to i64
  %19 = shl nuw nsw i64 %18, 3
  br label %20

20:                                               ; preds = %17, %9
  %21 = phi i64 [ %16, %9 ], [ %19, %17 ]
  %22 = add i64 %21, -8
  %23 = lshr i64 %22, 3
  %24 = bitcast %"class.blink::Visitor"* %0 to i1 (%"class.blink::Visitor"*)***
  %25 = load i1 (%"class.blink::Visitor"*)**, i1 (%"class.blink::Visitor"*)*** %24, align 8
  %26 = getelementptr inbounds i1 (%"class.blink::Visitor"*)*, i1 (%"class.blink::Visitor"*)** %25, i64 3
  %27 = load i1 (%"class.blink::Visitor"*)*, i1 (%"class.blink::Visitor"*)** %26, align 8
  %28 = tail call zeroext i1 %27(%"class.blink::Visitor"* %0) #9
  %29 = icmp eq i64 %23, 0
  br i1 %29, label %56, label %30

30:                                               ; preds = %20
  %31 = bitcast %"class.blink::Visitor"* %0 to void (%"class.blink::Visitor"*, i8*, i8*, void (%"class.blink::Visitor"*, i8*)*)***
  br label %32

32:                                               ; preds = %53, %30
  %33 = phi i64 [ 0, %30 ], [ %54, %53 ]
  %34 = getelementptr inbounds %"class.blink::WeakMember", %"class.blink::WeakMember"* %3, i64 %33
  %35 = bitcast %"class.blink::WeakMember"* %34 to i64*
  br i1 %28, label %36, label %43

36:                                               ; preds = %32
  %37 = load atomic i64, i64* %35 monotonic, align 8
  switch i64 %37, label %38 [
    i64 -1, label %53
    i64 0, label %53
  ]

38:                                               ; preds = %36
  %39 = inttoptr i64 %37 to i8*
  %40 = load void (%"class.blink::Visitor"*, i8*, i8*, void (%"class.blink::Visitor"*, i8*)*)**, void (%"class.blink::Visitor"*, i8*, i8*, void (%"class.blink::Visitor"*, i8*)*)*** %31, align 8
  %41 = getelementptr inbounds void (%"class.blink::Visitor"*, i8*, i8*, void (%"class.blink::Visitor"*, i8*)*)*, void (%"class.blink::Visitor"*, i8*, i8*, void (%"class.blink::Visitor"*, i8*)*)** %40, i64 5
  %42 = load void (%"class.blink::Visitor"*, i8*, i8*, void (%"class.blink::Visitor"*, i8*)*)*, void (%"class.blink::Visitor"*, i8*, i8*, void (%"class.blink::Visitor"*, i8*)*)** %41, align 8
  tail call void %42(%"class.blink::Visitor"* %0, i8* nonnull %39, i8* nonnull %39, void (%"class.blink::Visitor"*, i8*)* nonnull @_ZN5blink10TraceTraitINS_26CustomStateIterationSourceEE5TraceEPNS_7VisitorEPKv) #9
  br label %53

43:                                               ; preds = %32
  %44 = load i64, i64* %35, align 8
  switch i64 %44, label %45 [
    i64 -1, label %53
    i64 0, label %53
  ]

45:                                               ; preds = %43
  %46 = load atomic i64, i64* %35 monotonic, align 8
  %47 = icmp eq i64 %46, 0
  br i1 %47, label %53, label %48

48:                                               ; preds = %45
  %49 = inttoptr i64 %46 to i8*
  %50 = load void (%"class.blink::Visitor"*, i8*, i8*, void (%"class.blink::Visitor"*, i8*)*)**, void (%"class.blink::Visitor"*, i8*, i8*, void (%"class.blink::Visitor"*, i8*)*)*** %31, align 8
  %51 = getelementptr inbounds void (%"class.blink::Visitor"*, i8*, i8*, void (%"class.blink::Visitor"*, i8*)*)*, void (%"class.blink::Visitor"*, i8*, i8*, void (%"class.blink::Visitor"*, i8*)*)** %50, i64 5
  %52 = load void (%"class.blink::Visitor"*, i8*, i8*, void (%"class.blink::Visitor"*, i8*)*)*, void (%"class.blink::Visitor"*, i8*, i8*, void (%"class.blink::Visitor"*, i8*)*)** %51, align 8
  tail call void %52(%"class.blink::Visitor"* %0, i8* nonnull %49, i8* nonnull %49, void (%"class.blink::Visitor"*, i8*)* nonnull @_ZN5blink10TraceTraitINS_26CustomStateIterationSourceEE5TraceEPNS_7VisitorEPKv) #9
  br label %53

53:                                               ; preds = %48, %45, %43, %43, %38, %36, %36
  %54 = add nuw nsw i64 %33, 1
  %55 = icmp eq i64 %54, %23
  br i1 %55, label %56, label %32

56:                                               ; preds = %53, %20
  ret void
}

; Function Attrs: nounwind ssp uwtable
define linkonce_odr hidden void @_ZN5blink10TraceTraitINS_26CustomStateIterationSourceEE5TraceEPNS_7VisitorEPKv(%"class.blink::Visitor"*, i8*) #0 comdat align 2 {
  %3 = bitcast i8* %1 to %"class.blink::CustomStateIterationSource"*
  %4 = bitcast i8* %1 to void (%"class.blink::CustomStateIterationSource"*, %"class.blink::Visitor"*)***
  %5 = load void (%"class.blink::CustomStateIterationSource"*, %"class.blink::Visitor"*)**, void (%"class.blink::CustomStateIterationSource"*, %"class.blink::Visitor"*)*** %4, align 8
  %6 = getelementptr inbounds void (%"class.blink::CustomStateIterationSource"*, %"class.blink::Visitor"*)*, void (%"class.blink::CustomStateIterationSource"*, %"class.blink::Visitor"*)** %5, i64 3
  %7 = load void (%"class.blink::CustomStateIterationSource"*, %"class.blink::Visitor"*)*, void (%"class.blink::CustomStateIterationSource"*, %"class.blink::Visitor"*)** %6, align 8
  tail call void %7(%"class.blink::CustomStateIterationSource"* %3, %"class.blink::Visitor"* %0) #9
  ret void
}

declare i8* @_ZN3WTF10Partitions16FastZeroedMallocEmPKc(i64, i8*) local_unnamed_addr #1

declare i8* @_ZNK4base18ThreadLocalStorage4Slot3GetEv(%"class.base::ThreadLocalStorage::Slot"*) local_unnamed_addr #1

declare void @_ZN4base18ThreadLocalStorage4Slot3SetEPv(%"class.base::ThreadLocalStorage::Slot"*, i8*) local_unnamed_addr #1

declare zeroext i1 @_ZN5blink14MarkingVisitor16WriteBarrierSlowEPv(i8*) local_unnamed_addr #1

declare %"class.WTF::StringImpl"* @_ZN3WTF10StringImpl19CreateUninitializedEjRPh(i32, i8** dereferenceable(8)) local_unnamed_addr #1

; Function Attrs: nounwind ssp uwtable
define linkonce_odr hidden i32 @_ZNK3WTF12StringAppendINS0_IPKcNS_6StringEEES2_E6lengthEv(%"class.WTF::StringAppend"*) local_unnamed_addr #0 comdat align 2 {
  %2 = alloca %"class.logging::CheckOpResult", align 8
  %3 = alloca %"class.logging::CheckOpResult", align 8
  %4 = alloca %"class.WTF::StringTypeAdapter.304", align 8
  %5 = alloca %"class.logging::CheckOpResult", align 8
  %6 = alloca %"class.logging::CheckError", align 8
  %7 = alloca %"class.logging::CheckOpResult", align 8
  %8 = alloca %"class.logging::CheckError", align 8
  %9 = getelementptr inbounds %"class.WTF::StringAppend", %"class.WTF::StringAppend"* %0, i64 0, i32 0
  %10 = bitcast %"class.WTF::StringTypeAdapter.304"* %4 to i8*
  call void @llvm.lifetime.start.p0i8(i64 16, i8* nonnull %10) #9
  %11 = getelementptr inbounds %"class.WTF::StringTypeAdapter.304", %"class.WTF::StringTypeAdapter.304"* %4, i64 0, i32 1
  %12 = getelementptr inbounds %"class.WTF::StringAppend", %"class.WTF::StringAppend"* %0, i64 0, i32 1
  %13 = bitcast %"class.WTF::StringTypeAdapter.304"* %4 to i8*
  call void @llvm.memset.p0i8.i64(i8* nonnull align 8 %13, i8 -86, i64 16, i1 false)
  %14 = load i8*, i8** %12, align 8
  call void @_ZN3WTF17StringTypeAdapterIPKcEC1ES2_(%"class.WTF::StringTypeAdapter.304"* nonnull %4, i8* %14) #9
  %15 = call i32 @_ZNK3WTF12StringAppendIPKcNS_6StringEE6lengthEv(%"class.WTF::StringAppend.259"* %9) #9
  %16 = load i32, i32* %11, align 8
  %17 = add i32 %16, %15
  %18 = bitcast %"class.logging::CheckOpResult"* %5 to i8*
  call void @llvm.lifetime.start.p0i8(i64 8, i8* nonnull %18) #9
  %19 = getelementptr inbounds %"class.logging::CheckOpResult", %"class.logging::CheckOpResult"* %5, i64 0, i32 0
  store i8* inttoptr (i64 -6148914691236517206 to i8*), i8** %19, align 8
  %20 = call i32 @_ZNK3WTF12StringAppendIPKcNS_6StringEE6lengthEv(%"class.WTF::StringAppend.259"* %9) #9
  %21 = bitcast %"class.logging::CheckOpResult"* %2 to i8*
  call void @llvm.lifetime.start.p0i8(i64 8, i8* nonnull %21)
  %22 = icmp ult i32 %17, %20
  br i1 %22, label %24, label %23

23:                                               ; preds = %1
  call void @llvm.lifetime.end.p0i8(i64 8, i8* nonnull %21)
  store i8* null, i8** %19, align 8
  br label %33

24:                                               ; preds = %1
  %25 = call i8* @_ZN7logging15CheckOpValueStrEj(i32 %17) #9
  %26 = call i8* @_ZN7logging15CheckOpValueStrEj(i32 %20) #9
  call void @_ZN7logging13CheckOpResultC1EPKcPcS3_(%"class.logging::CheckOpResult"* nonnull %2, i8* getelementptr inbounds ([27 x i8], [27 x i8]* @.str.5, i64 0, i64 0), i8* %25, i8* %26) #9
  %27 = getelementptr inbounds %"class.logging::CheckOpResult", %"class.logging::CheckOpResult"* %2, i64 0, i32 0
  %28 = load i8*, i8** %27, align 8
  call void @llvm.lifetime.end.p0i8(i64 8, i8* nonnull %21)
  store i8* %28, i8** %19, align 8
  %29 = icmp eq i8* %28, null
  br i1 %29, label %33, label %30

30:                                               ; preds = %24
  %31 = bitcast %"class.logging::CheckError"* %6 to i8*
  call void @llvm.lifetime.start.p0i8(i64 8, i8* nonnull %31) #9
  call void @_ZN7logging10CheckError7CheckOpEPKciPNS_13CheckOpResultE(%"class.logging::CheckError"* nonnull sret %6, i8* getelementptr inbounds ([70 x i8], [70 x i8]* @.str.6, i64 0, i64 0), i32 108, %"class.logging::CheckOpResult"* nonnull %5) #9
  %32 = call dereferenceable(160) %"class.std::__1::basic_ostream"* @_ZN7logging10CheckError6streamEv(%"class.logging::CheckError"* nonnull %6) #9
  call void @_ZN7logging10CheckErrorD1Ev(%"class.logging::CheckError"* nonnull %6) #9
  call void @llvm.lifetime.end.p0i8(i64 8, i8* nonnull %31) #9
  br label %33

33:                                               ; preds = %23, %24, %30
  call void @llvm.lifetime.end.p0i8(i64 8, i8* nonnull %18) #9
  %34 = bitcast %"class.logging::CheckOpResult"* %7 to i8*
  call void @llvm.lifetime.start.p0i8(i64 8, i8* nonnull %34) #9
  %35 = getelementptr inbounds %"class.logging::CheckOpResult", %"class.logging::CheckOpResult"* %7, i64 0, i32 0
  store i8* inttoptr (i64 -6148914691236517206 to i8*), i8** %35, align 8
  %36 = load i32, i32* %11, align 8
  %37 = bitcast %"class.logging::CheckOpResult"* %3 to i8*
  call void @llvm.lifetime.start.p0i8(i64 8, i8* nonnull %37)
  %38 = icmp ult i32 %17, %36
  br i1 %38, label %40, label %39

39:                                               ; preds = %33
  call void @llvm.lifetime.end.p0i8(i64 8, i8* nonnull %37)
  store i8* null, i8** %35, align 8
  br label %49

40:                                               ; preds = %33
  %41 = call i8* @_ZN7logging15CheckOpValueStrEj(i32 %17) #9
  %42 = call i8* @_ZN7logging15CheckOpValueStrEj(i32 %36) #9
  call void @_ZN7logging13CheckOpResultC1EPKcPcS3_(%"class.logging::CheckOpResult"* nonnull %3, i8* getelementptr inbounds ([27 x i8], [27 x i8]* @.str.7, i64 0, i64 0), i8* %41, i8* %42) #9
  %43 = getelementptr inbounds %"class.logging::CheckOpResult", %"class.logging::CheckOpResult"* %3, i64 0, i32 0
  %44 = load i8*, i8** %43, align 8
  call void @llvm.lifetime.end.p0i8(i64 8, i8* nonnull %37)
  store i8* %44, i8** %35, align 8
  %45 = icmp eq i8* %44, null
  br i1 %45, label %49, label %46

46:                                               ; preds = %40
  %47 = bitcast %"class.logging::CheckError"* %8 to i8*
  call void @llvm.lifetime.start.p0i8(i64 8, i8* nonnull %47) #9
  call void @_ZN7logging10CheckError7CheckOpEPKciPNS_13CheckOpResultE(%"class.logging::CheckError"* nonnull sret %8, i8* getelementptr inbounds ([70 x i8], [70 x i8]* @.str.6, i64 0, i64 0), i32 109, %"class.logging::CheckOpResult"* nonnull %7) #9
  %48 = call dereferenceable(160) %"class.std::__1::basic_ostream"* @_ZN7logging10CheckError6streamEv(%"class.logging::CheckError"* nonnull %8) #9
  call void @_ZN7logging10CheckErrorD1Ev(%"class.logging::CheckError"* nonnull %8) #9
  call void @llvm.lifetime.end.p0i8(i64 8, i8* nonnull %47) #9
  br label %49

49:                                               ; preds = %39, %40, %46
  call void @llvm.lifetime.end.p0i8(i64 8, i8* nonnull %34) #9
  call void @llvm.lifetime.end.p0i8(i64 16, i8* nonnull %10) #9
  ret i32 %17
}

; Function Attrs: nounwind ssp uwtable
define linkonce_odr hidden void @_ZNK3WTF12StringAppendINS0_IPKcNS_6StringEEES2_E7WriteToEPh(%"class.WTF::StringAppend"*, i8*) local_unnamed_addr #0 comdat align 2 {
  %3 = alloca %"class.WTF::StringTypeAdapter.304", align 8
  %4 = alloca %"class.WTF::StringTypeAdapter.305", align 8
  %5 = alloca %"class.WTF::StringTypeAdapter.304", align 8
  %6 = getelementptr inbounds %"class.WTF::StringAppend", %"class.WTF::StringAppend"* %0, i64 0, i32 0
  %7 = bitcast %"class.WTF::StringTypeAdapter.304"* %5 to i8*
  call void @llvm.lifetime.start.p0i8(i64 16, i8* nonnull %7) #9
  %8 = getelementptr inbounds %"class.WTF::StringAppend", %"class.WTF::StringAppend"* %0, i64 0, i32 1
  %9 = bitcast %"class.WTF::StringTypeAdapter.304"* %5 to i8*
  call void @llvm.memset.p0i8.i64(i8* nonnull align 8 %9, i8 -86, i64 16, i1 false)
  %10 = load i8*, i8** %8, align 8
  call void @_ZN3WTF17StringTypeAdapterIPKcEC1ES2_(%"class.WTF::StringTypeAdapter.304"* nonnull %5, i8* %10) #9
  %11 = bitcast %"class.WTF::StringTypeAdapter.304"* %3 to i8*
  call void @llvm.lifetime.start.p0i8(i64 16, i8* nonnull %11) #9
  %12 = getelementptr inbounds %"class.WTF::StringTypeAdapter.304", %"class.WTF::StringTypeAdapter.304"* %3, i64 0, i32 1
  %13 = getelementptr inbounds %"class.WTF::StringAppend", %"class.WTF::StringAppend"* %0, i64 0, i32 0, i32 0
  call void @llvm.memset.p0i8.i64(i8* nonnull align 8 %11, i8 -86, i64 16, i1 false) #9
  %14 = load i8*, i8** %13, align 8
  call void @_ZN3WTF17StringTypeAdapterIPKcEC1ES2_(%"class.WTF::StringTypeAdapter.304"* nonnull %3, i8* %14) #9
  %15 = bitcast %"class.WTF::StringTypeAdapter.305"* %4 to i8*
  call void @llvm.lifetime.start.p0i8(i64 24, i8* nonnull %15) #9
  %16 = getelementptr inbounds %"class.WTF::StringTypeAdapter.305", %"class.WTF::StringTypeAdapter.305"* %4, i64 0, i32 0, i32 0, i32 1
  %17 = getelementptr inbounds %"class.WTF::StringTypeAdapter.305", %"class.WTF::StringTypeAdapter.305"* %4, i64 0, i32 0, i32 0, i32 2
  %18 = getelementptr inbounds %"class.WTF::StringAppend", %"class.WTF::StringAppend"* %0, i64 0, i32 0, i32 1, i32 0, i32 0
  call void @llvm.memset.p0i8.i64(i8* nonnull align 8 %15, i8 -86, i64 24, i1 false) #9
  %19 = load %"class.WTF::StringImpl"*, %"class.WTF::StringImpl"** %18, align 8
  %20 = icmp eq %"class.WTF::StringImpl"* %19, null
  br i1 %20, label %21, label %23

21:                                               ; preds = %2
  %22 = load i64, i64* bitcast (%"class.WTF::StringImpl"** @_ZN3WTF10StringImpl6empty_E to i64*), align 8
  br label %29

23:                                               ; preds = %2
  %24 = ptrtoint %"class.WTF::StringImpl"* %19 to i64
  %25 = getelementptr inbounds %"class.WTF::StringImpl", %"class.WTF::StringImpl"* %19, i64 0, i32 1
  %26 = load i32, i32* %25, align 4
  %27 = getelementptr inbounds %"class.WTF::StringImpl", %"class.WTF::StringImpl"* %19, i64 1
  %28 = bitcast %"class.WTF::StringImpl"* %27 to i8*
  br label %29

29:                                               ; preds = %21, %23
  %30 = phi i8* [ null, %21 ], [ %28, %23 ]
  %31 = phi i64 [ %22, %21 ], [ %24, %23 ]
  %32 = phi i32 [ 0, %21 ], [ %26, %23 ]
  %33 = bitcast %"class.WTF::StringTypeAdapter.305"* %4 to i64*
  store i64 %31, i64* %33, align 8
  store i8* %30, i8** %16, align 8
  store i32 %32, i32* %17, align 8
  call void @_ZNK3WTF17StringTypeAdapterIPKcE7WriteToEPh(%"class.WTF::StringTypeAdapter.304"* nonnull %3, i8* %1) #9
  %34 = getelementptr inbounds %"class.WTF::StringTypeAdapter.305", %"class.WTF::StringTypeAdapter.305"* %4, i64 0, i32 0
  %35 = load i32, i32* %12, align 8
  %36 = zext i32 %35 to i64
  %37 = getelementptr inbounds i8, i8* %1, i64 %36
  call void @_ZNK3WTF17StringTypeAdapterINS_10StringViewEE7WriteToEPh(%"class.WTF::StringTypeAdapter.306"* nonnull %34, i8* %37) #9
  call void @llvm.lifetime.end.p0i8(i64 24, i8* nonnull %15) #9
  call void @llvm.lifetime.end.p0i8(i64 16, i8* nonnull %11) #9
  %38 = call i32 @_ZNK3WTF12StringAppendIPKcNS_6StringEE6lengthEv(%"class.WTF::StringAppend.259"* %6) #9
  %39 = zext i32 %38 to i64
  %40 = getelementptr inbounds i8, i8* %1, i64 %39
  call void @_ZNK3WTF17StringTypeAdapterIPKcE7WriteToEPh(%"class.WTF::StringTypeAdapter.304"* nonnull %5, i8* %40) #9
  call void @llvm.lifetime.end.p0i8(i64 16, i8* nonnull %7) #9
  ret void
}

declare %"class.WTF::StringImpl"* @_ZN3WTF10StringImpl19CreateUninitializedEjRPDs(i32, i16** dereferenceable(8)) local_unnamed_addr #1

; Function Attrs: nounwind ssp uwtable
define linkonce_odr hidden void @_ZNK3WTF12StringAppendINS0_IPKcNS_6StringEEES2_E7WriteToEPDs(%"class.WTF::StringAppend"*, i16*) local_unnamed_addr #0 comdat align 2 {
  %3 = alloca %"class.WTF::StringTypeAdapter.304", align 8
  %4 = alloca %"class.WTF::StringTypeAdapter.305", align 8
  %5 = alloca %"class.WTF::StringTypeAdapter.304", align 8
  %6 = getelementptr inbounds %"class.WTF::StringAppend", %"class.WTF::StringAppend"* %0, i64 0, i32 0
  %7 = bitcast %"class.WTF::StringTypeAdapter.304"* %5 to i8*
  call void @llvm.lifetime.start.p0i8(i64 16, i8* nonnull %7) #9
  %8 = getelementptr inbounds %"class.WTF::StringAppend", %"class.WTF::StringAppend"* %0, i64 0, i32 1
  %9 = bitcast %"class.WTF::StringTypeAdapter.304"* %5 to i8*
  call void @llvm.memset.p0i8.i64(i8* nonnull align 8 %9, i8 -86, i64 16, i1 false)
  %10 = load i8*, i8** %8, align 8
  call void @_ZN3WTF17StringTypeAdapterIPKcEC1ES2_(%"class.WTF::StringTypeAdapter.304"* nonnull %5, i8* %10) #9
  %11 = bitcast %"class.WTF::StringTypeAdapter.304"* %3 to i8*
  call void @llvm.lifetime.start.p0i8(i64 16, i8* nonnull %11) #9
  %12 = getelementptr inbounds %"class.WTF::StringTypeAdapter.304", %"class.WTF::StringTypeAdapter.304"* %3, i64 0, i32 1
  %13 = getelementptr inbounds %"class.WTF::StringAppend", %"class.WTF::StringAppend"* %0, i64 0, i32 0, i32 0
  call void @llvm.memset.p0i8.i64(i8* nonnull align 8 %11, i8 -86, i64 16, i1 false) #9
  %14 = load i8*, i8** %13, align 8
  call void @_ZN3WTF17StringTypeAdapterIPKcEC1ES2_(%"class.WTF::StringTypeAdapter.304"* nonnull %3, i8* %14) #9
  %15 = bitcast %"class.WTF::StringTypeAdapter.305"* %4 to i8*
  call void @llvm.lifetime.start.p0i8(i64 24, i8* nonnull %15) #9
  %16 = getelementptr inbounds %"class.WTF::StringTypeAdapter.305", %"class.WTF::StringTypeAdapter.305"* %4, i64 0, i32 0, i32 0, i32 1
  %17 = getelementptr inbounds %"class.WTF::StringTypeAdapter.305", %"class.WTF::StringTypeAdapter.305"* %4, i64 0, i32 0, i32 0, i32 2
  %18 = getelementptr inbounds %"class.WTF::StringAppend", %"class.WTF::StringAppend"* %0, i64 0, i32 0, i32 1, i32 0, i32 0
  call void @llvm.memset.p0i8.i64(i8* nonnull align 8 %15, i8 -86, i64 24, i1 false) #9
  %19 = load %"class.WTF::StringImpl"*, %"class.WTF::StringImpl"** %18, align 8
  %20 = icmp eq %"class.WTF::StringImpl"* %19, null
  br i1 %20, label %21, label %23

21:                                               ; preds = %2
  %22 = load i64, i64* bitcast (%"class.WTF::StringImpl"** @_ZN3WTF10StringImpl6empty_E to i64*), align 8
  br label %29

23:                                               ; preds = %2
  %24 = ptrtoint %"class.WTF::StringImpl"* %19 to i64
  %25 = getelementptr inbounds %"class.WTF::StringImpl", %"class.WTF::StringImpl"* %19, i64 0, i32 1
  %26 = load i32, i32* %25, align 4
  %27 = getelementptr inbounds %"class.WTF::StringImpl", %"class.WTF::StringImpl"* %19, i64 1
  %28 = bitcast %"class.WTF::StringImpl"* %27 to i8*
  br label %29

29:                                               ; preds = %21, %23
  %30 = phi i8* [ null, %21 ], [ %28, %23 ]
  %31 = phi i64 [ %22, %21 ], [ %24, %23 ]
  %32 = phi i32 [ 0, %21 ], [ %26, %23 ]
  %33 = bitcast %"class.WTF::StringTypeAdapter.305"* %4 to i64*
  store i64 %31, i64* %33, align 8
  store i8* %30, i8** %16, align 8
  store i32 %32, i32* %17, align 8
  call void @_ZNK3WTF17StringTypeAdapterIPKcE7WriteToEPDs(%"class.WTF::StringTypeAdapter.304"* nonnull %3, i16* %1) #9
  %34 = getelementptr inbounds %"class.WTF::StringTypeAdapter.305", %"class.WTF::StringTypeAdapter.305"* %4, i64 0, i32 0
  %35 = load i32, i32* %12, align 8
  %36 = zext i32 %35 to i64
  %37 = getelementptr inbounds i16, i16* %1, i64 %36
  call void @_ZNK3WTF17StringTypeAdapterINS_10StringViewEE7WriteToEPDs(%"class.WTF::StringTypeAdapter.306"* nonnull %34, i16* %37) #9
  call void @llvm.lifetime.end.p0i8(i64 24, i8* nonnull %15) #9
  call void @llvm.lifetime.end.p0i8(i64 16, i8* nonnull %11) #9
  %38 = call i32 @_ZNK3WTF12StringAppendIPKcNS_6StringEE6lengthEv(%"class.WTF::StringAppend.259"* %6) #9
  %39 = zext i32 %38 to i64
  %40 = getelementptr inbounds i16, i16* %1, i64 %39
  call void @_ZNK3WTF17StringTypeAdapterIPKcE7WriteToEPDs(%"class.WTF::StringTypeAdapter.304"* nonnull %5, i16* %40) #9
  call void @llvm.lifetime.end.p0i8(i64 16, i8* nonnull %7) #9
  ret void
}

declare void @_ZN3WTF17StringTypeAdapterIPKcEC1ES2_(%"class.WTF::StringTypeAdapter.304"*, i8*) unnamed_addr #1

declare void @_ZN7logging10CheckError7CheckOpEPKciPNS_13CheckOpResultE(%"class.logging::CheckError"* sret, i8*, i32, %"class.logging::CheckOpResult"*) local_unnamed_addr #1

declare dereferenceable(160) %"class.std::__1::basic_ostream"* @_ZN7logging10CheckError6streamEv(%"class.logging::CheckError"*) local_unnamed_addr #1

; Function Attrs: nounwind
declare void @_ZN7logging10CheckErrorD1Ev(%"class.logging::CheckError"*) unnamed_addr #7

; Function Attrs: nounwind ssp uwtable
define linkonce_odr hidden i32 @_ZNK3WTF12StringAppendIPKcNS_6StringEE6lengthEv(%"class.WTF::StringAppend.259"*) local_unnamed_addr #0 comdat align 2 {
  %2 = alloca %"class.logging::CheckOpResult", align 8
  %3 = alloca %"class.logging::CheckOpResult", align 8
  %4 = alloca %"class.WTF::StringTypeAdapter.304", align 8
  %5 = alloca %"class.logging::CheckOpResult", align 8
  %6 = alloca %"class.logging::CheckError", align 8
  %7 = alloca %"class.logging::CheckOpResult", align 8
  %8 = alloca %"class.logging::CheckError", align 8
  %9 = bitcast %"class.WTF::StringTypeAdapter.304"* %4 to i8*
  call void @llvm.lifetime.start.p0i8(i64 16, i8* nonnull %9) #9
  %10 = getelementptr inbounds %"class.WTF::StringTypeAdapter.304", %"class.WTF::StringTypeAdapter.304"* %4, i64 0, i32 1
  %11 = getelementptr inbounds %"class.WTF::StringAppend.259", %"class.WTF::StringAppend.259"* %0, i64 0, i32 0
  %12 = bitcast %"class.WTF::StringTypeAdapter.304"* %4 to i8*
  call void @llvm.memset.p0i8.i64(i8* nonnull align 8 %12, i8 -86, i64 16, i1 false)
  %13 = load i8*, i8** %11, align 8
  call void @_ZN3WTF17StringTypeAdapterIPKcEC1ES2_(%"class.WTF::StringTypeAdapter.304"* nonnull %4, i8* %13) #9
  %14 = getelementptr inbounds %"class.WTF::StringAppend.259", %"class.WTF::StringAppend.259"* %0, i64 0, i32 1, i32 0, i32 0
  %15 = load %"class.WTF::StringImpl"*, %"class.WTF::StringImpl"** %14, align 8
  %16 = icmp eq %"class.WTF::StringImpl"* %15, null
  br i1 %16, label %20, label %17

17:                                               ; preds = %1
  %18 = getelementptr inbounds %"class.WTF::StringImpl", %"class.WTF::StringImpl"* %15, i64 0, i32 1
  %19 = load i32, i32* %18, align 4
  br label %20

20:                                               ; preds = %1, %17
  %21 = phi i32 [ %19, %17 ], [ 0, %1 ]
  %22 = load i32, i32* %10, align 8
  %23 = add i32 %22, %21
  %24 = bitcast %"class.logging::CheckOpResult"* %5 to i8*
  call void @llvm.lifetime.start.p0i8(i64 8, i8* nonnull %24) #9
  %25 = getelementptr inbounds %"class.logging::CheckOpResult", %"class.logging::CheckOpResult"* %5, i64 0, i32 0
  store i8* inttoptr (i64 -6148914691236517206 to i8*), i8** %25, align 8
  %26 = bitcast %"class.logging::CheckOpResult"* %2 to i8*
  call void @llvm.lifetime.start.p0i8(i64 8, i8* nonnull %26)
  %27 = icmp ult i32 %23, %22
  br i1 %27, label %29, label %28

28:                                               ; preds = %20
  call void @llvm.lifetime.end.p0i8(i64 8, i8* nonnull %26)
  store i8* null, i8** %25, align 8
  br label %38

29:                                               ; preds = %20
  %30 = call i8* @_ZN7logging15CheckOpValueStrEj(i32 %23) #9
  %31 = call i8* @_ZN7logging15CheckOpValueStrEj(i32 %22) #9
  call void @_ZN7logging13CheckOpResultC1EPKcPcS3_(%"class.logging::CheckOpResult"* nonnull %2, i8* getelementptr inbounds ([27 x i8], [27 x i8]* @.str.5, i64 0, i64 0), i8* %30, i8* %31) #9
  %32 = getelementptr inbounds %"class.logging::CheckOpResult", %"class.logging::CheckOpResult"* %2, i64 0, i32 0
  %33 = load i8*, i8** %32, align 8
  call void @llvm.lifetime.end.p0i8(i64 8, i8* nonnull %26)
  store i8* %33, i8** %25, align 8
  %34 = icmp eq i8* %33, null
  br i1 %34, label %38, label %35

35:                                               ; preds = %29
  %36 = bitcast %"class.logging::CheckError"* %6 to i8*
  call void @llvm.lifetime.start.p0i8(i64 8, i8* nonnull %36) #9
  call void @_ZN7logging10CheckError7CheckOpEPKciPNS_13CheckOpResultE(%"class.logging::CheckError"* nonnull sret %6, i8* getelementptr inbounds ([70 x i8], [70 x i8]* @.str.6, i64 0, i64 0), i32 108, %"class.logging::CheckOpResult"* nonnull %5) #9
  %37 = call dereferenceable(160) %"class.std::__1::basic_ostream"* @_ZN7logging10CheckError6streamEv(%"class.logging::CheckError"* nonnull %6) #9
  call void @_ZN7logging10CheckErrorD1Ev(%"class.logging::CheckError"* nonnull %6) #9
  call void @llvm.lifetime.end.p0i8(i64 8, i8* nonnull %36) #9
  br label %38

38:                                               ; preds = %28, %29, %35
  call void @llvm.lifetime.end.p0i8(i64 8, i8* nonnull %24) #9
  %39 = bitcast %"class.logging::CheckOpResult"* %7 to i8*
  call void @llvm.lifetime.start.p0i8(i64 8, i8* nonnull %39) #9
  %40 = getelementptr inbounds %"class.logging::CheckOpResult", %"class.logging::CheckOpResult"* %7, i64 0, i32 0
  store i8* inttoptr (i64 -6148914691236517206 to i8*), i8** %40, align 8
  %41 = bitcast %"class.logging::CheckOpResult"* %3 to i8*
  call void @llvm.lifetime.start.p0i8(i64 8, i8* nonnull %41)
  %42 = icmp ult i32 %23, %21
  br i1 %42, label %44, label %43

43:                                               ; preds = %38
  call void @llvm.lifetime.end.p0i8(i64 8, i8* nonnull %41)
  store i8* null, i8** %40, align 8
  br label %53

44:                                               ; preds = %38
  %45 = call i8* @_ZN7logging15CheckOpValueStrEj(i32 %23) #9
  %46 = call i8* @_ZN7logging15CheckOpValueStrEj(i32 %21) #9
  call void @_ZN7logging13CheckOpResultC1EPKcPcS3_(%"class.logging::CheckOpResult"* nonnull %3, i8* getelementptr inbounds ([27 x i8], [27 x i8]* @.str.7, i64 0, i64 0), i8* %45, i8* %46) #9
  %47 = getelementptr inbounds %"class.logging::CheckOpResult", %"class.logging::CheckOpResult"* %3, i64 0, i32 0
  %48 = load i8*, i8** %47, align 8
  call void @llvm.lifetime.end.p0i8(i64 8, i8* nonnull %41)
  store i8* %48, i8** %40, align 8
  %49 = icmp eq i8* %48, null
  br i1 %49, label %53, label %50

50:                                               ; preds = %44
  %51 = bitcast %"class.logging::CheckError"* %8 to i8*
  call void @llvm.lifetime.start.p0i8(i64 8, i8* nonnull %51) #9
  call void @_ZN7logging10CheckError7CheckOpEPKciPNS_13CheckOpResultE(%"class.logging::CheckError"* nonnull sret %8, i8* getelementptr inbounds ([70 x i8], [70 x i8]* @.str.6, i64 0, i64 0), i32 109, %"class.logging::CheckOpResult"* nonnull %7) #9
  %52 = call dereferenceable(160) %"class.std::__1::basic_ostream"* @_ZN7logging10CheckError6streamEv(%"class.logging::CheckError"* nonnull %8) #9
  call void @_ZN7logging10CheckErrorD1Ev(%"class.logging::CheckError"* nonnull %8) #9
  call void @llvm.lifetime.end.p0i8(i64 8, i8* nonnull %51) #9
  br label %53

53:                                               ; preds = %43, %44, %50
  call void @llvm.lifetime.end.p0i8(i64 8, i8* nonnull %39) #9
  call void @llvm.lifetime.end.p0i8(i64 16, i8* nonnull %9) #9
  ret i32 %23
}

declare i8* @_ZN7logging15CheckOpValueStrEj(i32) local_unnamed_addr #1

declare void @_ZN7logging13CheckOpResultC1EPKcPcS3_(%"class.logging::CheckOpResult"*, i8*, i8*, i8*) unnamed_addr #1

declare void @_ZNK3WTF17StringTypeAdapterIPKcE7WriteToEPh(%"class.WTF::StringTypeAdapter.304"*, i8*) local_unnamed_addr #1

declare void @_ZNK3WTF17StringTypeAdapterINS_10StringViewEE7WriteToEPh(%"class.WTF::StringTypeAdapter.306"*, i8*) local_unnamed_addr #1

declare void @_ZNK3WTF17StringTypeAdapterIPKcE7WriteToEPDs(%"class.WTF::StringTypeAdapter.304"*, i16*) local_unnamed_addr #1

declare void @_ZNK3WTF17StringTypeAdapterINS_10StringViewEE7WriteToEPDs(%"class.WTF::StringTypeAdapter.306"*, i16*) local_unnamed_addr #1

; Function Attrs: nounwind ssp uwtable
define linkonce_odr hidden i32 @_ZNK3WTF12StringAppendINS0_INS0_INS0_IPKcNS_6StringEEES2_EEDsEES2_E6lengthEv(%"class.WTF::StringAppend.260"*) local_unnamed_addr #0 comdat align 2 {
  %2 = alloca %"class.logging::CheckOpResult", align 8
  %3 = alloca %"class.logging::CheckOpResult", align 8
  %4 = alloca %"class.WTF::StringTypeAdapter.304", align 8
  %5 = alloca %"class.logging::CheckOpResult", align 8
  %6 = alloca %"class.logging::CheckError", align 8
  %7 = alloca %"class.logging::CheckOpResult", align 8
  %8 = alloca %"class.logging::CheckError", align 8
  %9 = getelementptr inbounds %"class.WTF::StringAppend.260", %"class.WTF::StringAppend.260"* %0, i64 0, i32 0
  %10 = bitcast %"class.WTF::StringTypeAdapter.304"* %4 to i8*
  call void @llvm.lifetime.start.p0i8(i64 16, i8* nonnull %10) #9
  %11 = getelementptr inbounds %"class.WTF::StringTypeAdapter.304", %"class.WTF::StringTypeAdapter.304"* %4, i64 0, i32 1
  %12 = getelementptr inbounds %"class.WTF::StringAppend.260", %"class.WTF::StringAppend.260"* %0, i64 0, i32 1
  %13 = bitcast %"class.WTF::StringTypeAdapter.304"* %4 to i8*
  call void @llvm.memset.p0i8.i64(i8* nonnull align 8 %13, i8 -86, i64 16, i1 false)
  %14 = load i8*, i8** %12, align 8
  call void @_ZN3WTF17StringTypeAdapterIPKcEC1ES2_(%"class.WTF::StringTypeAdapter.304"* nonnull %4, i8* %14) #9
  %15 = call i32 @_ZNK3WTF12StringAppendINS0_INS0_IPKcNS_6StringEEES2_EEDsE6lengthEv(%"class.WTF::StringAppend.261"* %9) #9
  %16 = load i32, i32* %11, align 8
  %17 = add i32 %16, %15
  %18 = bitcast %"class.logging::CheckOpResult"* %5 to i8*
  call void @llvm.lifetime.start.p0i8(i64 8, i8* nonnull %18) #9
  %19 = getelementptr inbounds %"class.logging::CheckOpResult", %"class.logging::CheckOpResult"* %5, i64 0, i32 0
  store i8* inttoptr (i64 -6148914691236517206 to i8*), i8** %19, align 8
  %20 = call i32 @_ZNK3WTF12StringAppendINS0_INS0_IPKcNS_6StringEEES2_EEDsE6lengthEv(%"class.WTF::StringAppend.261"* %9) #9
  %21 = bitcast %"class.logging::CheckOpResult"* %2 to i8*
  call void @llvm.lifetime.start.p0i8(i64 8, i8* nonnull %21)
  %22 = icmp ult i32 %17, %20
  br i1 %22, label %24, label %23

23:                                               ; preds = %1
  call void @llvm.lifetime.end.p0i8(i64 8, i8* nonnull %21)
  store i8* null, i8** %19, align 8
  br label %33

24:                                               ; preds = %1
  %25 = call i8* @_ZN7logging15CheckOpValueStrEj(i32 %17) #9
  %26 = call i8* @_ZN7logging15CheckOpValueStrEj(i32 %20) #9
  call void @_ZN7logging13CheckOpResultC1EPKcPcS3_(%"class.logging::CheckOpResult"* nonnull %2, i8* getelementptr inbounds ([27 x i8], [27 x i8]* @.str.5, i64 0, i64 0), i8* %25, i8* %26) #9
  %27 = getelementptr inbounds %"class.logging::CheckOpResult", %"class.logging::CheckOpResult"* %2, i64 0, i32 0
  %28 = load i8*, i8** %27, align 8
  call void @llvm.lifetime.end.p0i8(i64 8, i8* nonnull %21)
  store i8* %28, i8** %19, align 8
  %29 = icmp eq i8* %28, null
  br i1 %29, label %33, label %30

30:                                               ; preds = %24
  %31 = bitcast %"class.logging::CheckError"* %6 to i8*
  call void @llvm.lifetime.start.p0i8(i64 8, i8* nonnull %31) #9
  call void @_ZN7logging10CheckError7CheckOpEPKciPNS_13CheckOpResultE(%"class.logging::CheckError"* nonnull sret %6, i8* getelementptr inbounds ([70 x i8], [70 x i8]* @.str.6, i64 0, i64 0), i32 108, %"class.logging::CheckOpResult"* nonnull %5) #9
  %32 = call dereferenceable(160) %"class.std::__1::basic_ostream"* @_ZN7logging10CheckError6streamEv(%"class.logging::CheckError"* nonnull %6) #9
  call void @_ZN7logging10CheckErrorD1Ev(%"class.logging::CheckError"* nonnull %6) #9
  call void @llvm.lifetime.end.p0i8(i64 8, i8* nonnull %31) #9
  br label %33

33:                                               ; preds = %23, %24, %30
  call void @llvm.lifetime.end.p0i8(i64 8, i8* nonnull %18) #9
  %34 = bitcast %"class.logging::CheckOpResult"* %7 to i8*
  call void @llvm.lifetime.start.p0i8(i64 8, i8* nonnull %34) #9
  %35 = getelementptr inbounds %"class.logging::CheckOpResult", %"class.logging::CheckOpResult"* %7, i64 0, i32 0
  store i8* inttoptr (i64 -6148914691236517206 to i8*), i8** %35, align 8
  %36 = load i32, i32* %11, align 8
  %37 = bitcast %"class.logging::CheckOpResult"* %3 to i8*
  call void @llvm.lifetime.start.p0i8(i64 8, i8* nonnull %37)
  %38 = icmp ult i32 %17, %36
  br i1 %38, label %40, label %39

39:                                               ; preds = %33
  call void @llvm.lifetime.end.p0i8(i64 8, i8* nonnull %37)
  store i8* null, i8** %35, align 8
  br label %49

40:                                               ; preds = %33
  %41 = call i8* @_ZN7logging15CheckOpValueStrEj(i32 %17) #9
  %42 = call i8* @_ZN7logging15CheckOpValueStrEj(i32 %36) #9
  call void @_ZN7logging13CheckOpResultC1EPKcPcS3_(%"class.logging::CheckOpResult"* nonnull %3, i8* getelementptr inbounds ([27 x i8], [27 x i8]* @.str.7, i64 0, i64 0), i8* %41, i8* %42) #9
  %43 = getelementptr inbounds %"class.logging::CheckOpResult", %"class.logging::CheckOpResult"* %3, i64 0, i32 0
  %44 = load i8*, i8** %43, align 8
  call void @llvm.lifetime.end.p0i8(i64 8, i8* nonnull %37)
  store i8* %44, i8** %35, align 8
  %45 = icmp eq i8* %44, null
  br i1 %45, label %49, label %46

46:                                               ; preds = %40
  %47 = bitcast %"class.logging::CheckError"* %8 to i8*
  call void @llvm.lifetime.start.p0i8(i64 8, i8* nonnull %47) #9
  call void @_ZN7logging10CheckError7CheckOpEPKciPNS_13CheckOpResultE(%"class.logging::CheckError"* nonnull sret %8, i8* getelementptr inbounds ([70 x i8], [70 x i8]* @.str.6, i64 0, i64 0), i32 109, %"class.logging::CheckOpResult"* nonnull %7) #9
  %48 = call dereferenceable(160) %"class.std::__1::basic_ostream"* @_ZN7logging10CheckError6streamEv(%"class.logging::CheckError"* nonnull %8) #9
  call void @_ZN7logging10CheckErrorD1Ev(%"class.logging::CheckError"* nonnull %8) #9
  call void @llvm.lifetime.end.p0i8(i64 8, i8* nonnull %47) #9
  br label %49

49:                                               ; preds = %39, %40, %46
  call void @llvm.lifetime.end.p0i8(i64 8, i8* nonnull %34) #9
  call void @llvm.lifetime.end.p0i8(i64 16, i8* nonnull %10) #9
  ret i32 %17
}

; Function Attrs: nounwind ssp uwtable
define linkonce_odr hidden i32 @_ZNK3WTF12StringAppendINS0_INS0_IPKcNS_6StringEEES2_EEDsE6lengthEv(%"class.WTF::StringAppend.261"*) local_unnamed_addr #0 comdat align 2 {
  %2 = alloca %"class.logging::CheckOpResult", align 8
  %3 = alloca %"class.logging::CheckOpResult", align 8
  %4 = alloca %"class.logging::CheckOpResult", align 8
  %5 = alloca %"class.logging::CheckError", align 8
  %6 = alloca %"class.logging::CheckOpResult", align 8
  %7 = alloca %"class.logging::CheckError", align 8
  %8 = getelementptr inbounds %"class.WTF::StringAppend.261", %"class.WTF::StringAppend.261"* %0, i64 0, i32 0
  %9 = tail call i32 @_ZNK3WTF12StringAppendINS0_IPKcNS_6StringEEES2_E6lengthEv(%"class.WTF::StringAppend"* %8) #9
  %10 = add i32 %9, 1
  %11 = bitcast %"class.logging::CheckOpResult"* %4 to i8*
  call void @llvm.lifetime.start.p0i8(i64 8, i8* nonnull %11) #9
  %12 = getelementptr inbounds %"class.logging::CheckOpResult", %"class.logging::CheckOpResult"* %4, i64 0, i32 0
  store i8* inttoptr (i64 -6148914691236517206 to i8*), i8** %12, align 8
  %13 = tail call i32 @_ZNK3WTF12StringAppendINS0_IPKcNS_6StringEEES2_E6lengthEv(%"class.WTF::StringAppend"* %8) #9
  %14 = bitcast %"class.logging::CheckOpResult"* %2 to i8*
  call void @llvm.lifetime.start.p0i8(i64 8, i8* nonnull %14)
  %15 = icmp ult i32 %10, %13
  br i1 %15, label %17, label %16

16:                                               ; preds = %1
  call void @llvm.lifetime.end.p0i8(i64 8, i8* nonnull %14)
  store i8* null, i8** %12, align 8
  br label %26

17:                                               ; preds = %1
  %18 = tail call i8* @_ZN7logging15CheckOpValueStrEj(i32 %10) #9
  %19 = tail call i8* @_ZN7logging15CheckOpValueStrEj(i32 %13) #9
  call void @_ZN7logging13CheckOpResultC1EPKcPcS3_(%"class.logging::CheckOpResult"* nonnull %2, i8* getelementptr inbounds ([27 x i8], [27 x i8]* @.str.5, i64 0, i64 0), i8* %18, i8* %19) #9
  %20 = getelementptr inbounds %"class.logging::CheckOpResult", %"class.logging::CheckOpResult"* %2, i64 0, i32 0
  %21 = load i8*, i8** %20, align 8
  call void @llvm.lifetime.end.p0i8(i64 8, i8* nonnull %14)
  store i8* %21, i8** %12, align 8
  %22 = icmp eq i8* %21, null
  br i1 %22, label %26, label %23

23:                                               ; preds = %17
  %24 = bitcast %"class.logging::CheckError"* %5 to i8*
  call void @llvm.lifetime.start.p0i8(i64 8, i8* nonnull %24) #9
  call void @_ZN7logging10CheckError7CheckOpEPKciPNS_13CheckOpResultE(%"class.logging::CheckError"* nonnull sret %5, i8* getelementptr inbounds ([70 x i8], [70 x i8]* @.str.6, i64 0, i64 0), i32 108, %"class.logging::CheckOpResult"* nonnull %4) #9
  %25 = call dereferenceable(160) %"class.std::__1::basic_ostream"* @_ZN7logging10CheckError6streamEv(%"class.logging::CheckError"* nonnull %5) #9
  call void @_ZN7logging10CheckErrorD1Ev(%"class.logging::CheckError"* nonnull %5) #9
  call void @llvm.lifetime.end.p0i8(i64 8, i8* nonnull %24) #9
  br label %26

26:                                               ; preds = %16, %17, %23
  call void @llvm.lifetime.end.p0i8(i64 8, i8* nonnull %11) #9
  %27 = bitcast %"class.logging::CheckOpResult"* %6 to i8*
  call void @llvm.lifetime.start.p0i8(i64 8, i8* nonnull %27) #9
  %28 = getelementptr inbounds %"class.logging::CheckOpResult", %"class.logging::CheckOpResult"* %6, i64 0, i32 0
  store i8* inttoptr (i64 -6148914691236517206 to i8*), i8** %28, align 8
  %29 = bitcast %"class.logging::CheckOpResult"* %3 to i8*
  call void @llvm.lifetime.start.p0i8(i64 8, i8* nonnull %29)
  %30 = icmp eq i32 %10, 0
  br i1 %30, label %32, label %31

31:                                               ; preds = %26
  call void @llvm.lifetime.end.p0i8(i64 8, i8* nonnull %29)
  store i8* null, i8** %28, align 8
  br label %41

32:                                               ; preds = %26
  %33 = call i8* @_ZN7logging15CheckOpValueStrEj(i32 0) #9
  %34 = call i8* @_ZN7logging15CheckOpValueStrEj(i32 1) #9
  call void @_ZN7logging13CheckOpResultC1EPKcPcS3_(%"class.logging::CheckOpResult"* nonnull %3, i8* getelementptr inbounds ([27 x i8], [27 x i8]* @.str.7, i64 0, i64 0), i8* %33, i8* %34) #9
  %35 = getelementptr inbounds %"class.logging::CheckOpResult", %"class.logging::CheckOpResult"* %3, i64 0, i32 0
  %36 = load i8*, i8** %35, align 8
  call void @llvm.lifetime.end.p0i8(i64 8, i8* nonnull %29)
  store i8* %36, i8** %28, align 8
  %37 = icmp eq i8* %36, null
  br i1 %37, label %41, label %38

38:                                               ; preds = %32
  %39 = bitcast %"class.logging::CheckError"* %7 to i8*
  call void @llvm.lifetime.start.p0i8(i64 8, i8* nonnull %39) #9
  call void @_ZN7logging10CheckError7CheckOpEPKciPNS_13CheckOpResultE(%"class.logging::CheckError"* nonnull sret %7, i8* getelementptr inbounds ([70 x i8], [70 x i8]* @.str.6, i64 0, i64 0), i32 109, %"class.logging::CheckOpResult"* nonnull %6) #9
  %40 = call dereferenceable(160) %"class.std::__1::basic_ostream"* @_ZN7logging10CheckError6streamEv(%"class.logging::CheckError"* nonnull %7) #9
  call void @_ZN7logging10CheckErrorD1Ev(%"class.logging::CheckError"* nonnull %7) #9
  call void @llvm.lifetime.end.p0i8(i64 8, i8* nonnull %39) #9
  br label %41

41:                                               ; preds = %31, %32, %38
  call void @llvm.lifetime.end.p0i8(i64 8, i8* nonnull %27) #9
  ret i32 %10
}

; Function Attrs: noinline nounwind ssp uwtable
define linkonce_odr hidden void @_ZN3WTF6VectorINS_6StringELj0ENS_18PartitionAllocatorEE14AppendSlowCaseIRKS1_EEvOT_(%"class.WTF::Vector.21"*, %"class.WTF::String"* dereferenceable(8)) local_unnamed_addr #8 comdat align 2 {
  %3 = getelementptr inbounds %"class.WTF::Vector.21", %"class.WTF::Vector.21"* %0, i64 0, i32 0, i32 0, i32 2
  %4 = load i32, i32* %3, align 4
  %5 = add i32 %4, 1
  %6 = getelementptr inbounds %"class.WTF::Vector.21", %"class.WTF::Vector.21"* %0, i64 0, i32 0, i32 0, i32 0
  %7 = load %"class.WTF::String"*, %"class.WTF::String"** %6, align 8
  %8 = icmp ugt %"class.WTF::String"* %7, %1
  br i1 %8, label %13, label %9

9:                                                ; preds = %2
  %10 = zext i32 %4 to i64
  %11 = getelementptr inbounds %"class.WTF::String", %"class.WTF::String"* %7, i64 %10
  %12 = icmp ugt %"class.WTF::String"* %11, %1
  br i1 %12, label %54, label %13

13:                                               ; preds = %9, %2
  %14 = getelementptr inbounds %"class.WTF::Vector.21", %"class.WTF::Vector.21"* %0, i64 0, i32 0, i32 0, i32 1
  %15 = load i32, i32* %14, align 8
  %16 = lshr i32 %15, 2
  %17 = add i32 %15, 1
  %18 = add i32 %17, %16
  %19 = icmp ugt i32 %18, 4
  %20 = select i1 %19, i32 %18, i32 4
  %21 = icmp ugt i32 %20, %5
  %22 = select i1 %21, i32 %20, i32 %5
  %23 = icmp ult i32 %15, %22
  br i1 %23, label %24, label %99, !prof !15

24:                                               ; preds = %13
  %25 = icmp eq %"class.WTF::String"* %7, null
  %26 = zext i32 %22 to i64
  %27 = tail call i64 @_ZN3WTF18PartitionAllocator13QuantizedSizeINS_6StringEEEmm(i64 %26) #9
  %28 = tail call i8* @_ZN3WTF18PartitionAllocator15AllocateBackingEmPKc(i64 %27, i8* getelementptr inbounds ([59 x i8], [59 x i8]* @__PRETTY_FUNCTION__._ZN3WTF21GetStringWithTypeNameINS_6StringEEEPKcv, i64 0, i64 0)) #9
  br i1 %25, label %29, label %35

29:                                               ; preds = %24
  %30 = ptrtoint i8* %28 to i64
  %31 = bitcast %"class.WTF::Vector.21"* %0 to i64*
  store atomic i64 %30, i64* %31 monotonic, align 8
  %32 = lshr i64 %27, 3
  %33 = trunc i64 %32 to i32
  store i32 %33, i32* %14, align 8
  %34 = bitcast i8* %28 to %"class.WTF::String"*
  br label %99

35:                                               ; preds = %24
  %36 = lshr i64 %27, 3
  %37 = ptrtoint i8* %28 to i64
  %38 = load %"class.WTF::String"*, %"class.WTF::String"** %6, align 8
  %39 = icmp ne i8* %28, null
  %40 = icmp ne %"class.WTF::String"* %38, null
  %41 = and i1 %39, %40
  %42 = bitcast %"class.WTF::String"* %38 to i8*
  br i1 %41, label %43, label %49, !prof !15

43:                                               ; preds = %35
  %44 = load i32, i32* %3, align 4
  %45 = zext i32 %44 to i64
  %46 = shl nuw nsw i64 %45, 3
  tail call void @llvm.memcpy.p0i8.p0i8.i64(i8* nonnull align 8 %28, i8* nonnull align 8 %42, i64 %46, i1 false) #9
  %47 = bitcast %"class.WTF::Vector.21"* %0 to i8**
  %48 = load i8*, i8** %47, align 8
  br label %49

49:                                               ; preds = %43, %35
  %50 = phi i8* [ %48, %43 ], [ %42, %35 ]
  tail call void @_ZN3WTF18PartitionAllocator11FreeBackingEPv(i8* %50) #9
  %51 = bitcast %"class.WTF::Vector.21"* %0 to i64*
  store atomic i64 %37, i64* %51 monotonic, align 8
  %52 = trunc i64 %36 to i32
  store i32 %52, i32* %14, align 8
  %53 = bitcast i8* %28 to %"class.WTF::String"*
  br label %99

54:                                               ; preds = %9
  %55 = ptrtoint %"class.WTF::String"* %1 to i64
  %56 = ptrtoint %"class.WTF::String"* %7 to i64
  %57 = sub i64 %55, %56
  %58 = ashr exact i64 %57, 3
  %59 = getelementptr inbounds %"class.WTF::Vector.21", %"class.WTF::Vector.21"* %0, i64 0, i32 0, i32 0, i32 1
  %60 = load i32, i32* %59, align 8
  %61 = lshr i32 %60, 2
  %62 = add i32 %60, 1
  %63 = add i32 %62, %61
  %64 = icmp ugt i32 %63, 4
  %65 = select i1 %64, i32 %63, i32 4
  %66 = icmp ugt i32 %65, %5
  %67 = select i1 %66, i32 %65, i32 %5
  %68 = icmp ult i32 %60, %67
  br i1 %68, label %69, label %96, !prof !15

69:                                               ; preds = %54
  %70 = icmp eq %"class.WTF::String"* %7, null
  %71 = zext i32 %67 to i64
  %72 = tail call i64 @_ZN3WTF18PartitionAllocator13QuantizedSizeINS_6StringEEEmm(i64 %71) #9
  %73 = tail call i8* @_ZN3WTF18PartitionAllocator15AllocateBackingEmPKc(i64 %72, i8* getelementptr inbounds ([59 x i8], [59 x i8]* @__PRETTY_FUNCTION__._ZN3WTF21GetStringWithTypeNameINS_6StringEEEPKcv, i64 0, i64 0)) #9
  %74 = ptrtoint i8* %73 to i64
  br i1 %70, label %75, label %77

75:                                               ; preds = %69
  %76 = bitcast %"class.WTF::Vector.21"* %0 to i64*
  store atomic i64 %74, i64* %76 monotonic, align 8
  br label %92

77:                                               ; preds = %69
  %78 = load %"class.WTF::String"*, %"class.WTF::String"** %6, align 8
  %79 = icmp ne i8* %73, null
  %80 = icmp ne %"class.WTF::String"* %78, null
  %81 = and i1 %79, %80
  %82 = bitcast %"class.WTF::String"* %78 to i8*
  br i1 %81, label %83, label %89, !prof !15

83:                                               ; preds = %77
  %84 = load i32, i32* %3, align 4
  %85 = zext i32 %84 to i64
  %86 = shl nuw nsw i64 %85, 3
  tail call void @llvm.memcpy.p0i8.p0i8.i64(i8* nonnull align 8 %73, i8* nonnull align 8 %82, i64 %86, i1 false) #9
  %87 = bitcast %"class.WTF::Vector.21"* %0 to i8**
  %88 = load i8*, i8** %87, align 8
  br label %89

89:                                               ; preds = %83, %77
  %90 = phi i8* [ %88, %83 ], [ %82, %77 ]
  tail call void @_ZN3WTF18PartitionAllocator11FreeBackingEPv(i8* %90) #9
  %91 = bitcast %"class.WTF::Vector.21"* %0 to i64*
  store atomic i64 %74, i64* %91 monotonic, align 8
  br label %92

92:                                               ; preds = %89, %75
  %93 = lshr i64 %72, 3
  %94 = trunc i64 %93 to i32
  store i32 %94, i32* %59, align 8
  %95 = bitcast i8* %73 to %"class.WTF::String"*
  br label %96

96:                                               ; preds = %92, %54
  %97 = phi %"class.WTF::String"* [ %7, %54 ], [ %95, %92 ]
  %98 = getelementptr inbounds %"class.WTF::String", %"class.WTF::String"* %97, i64 %58
  br label %99

99:                                               ; preds = %49, %29, %13, %96
  %100 = phi %"class.WTF::String"* [ %97, %96 ], [ %7, %13 ], [ %34, %29 ], [ %53, %49 ]
  %101 = phi %"class.WTF::String"* [ %98, %96 ], [ %1, %13 ], [ %1, %29 ], [ %1, %49 ]
  %102 = load i32, i32* %3, align 4
  %103 = zext i32 %102 to i64
  %104 = getelementptr inbounds %"class.WTF::String", %"class.WTF::String"* %101, i64 0, i32 0, i32 0
  %105 = load %"class.WTF::StringImpl"*, %"class.WTF::StringImpl"** %104, align 8
  %106 = getelementptr inbounds %"class.WTF::String", %"class.WTF::String"* %100, i64 %103, i32 0, i32 0
  store %"class.WTF::StringImpl"* %105, %"class.WTF::StringImpl"** %106, align 8
  %107 = icmp eq %"class.WTF::StringImpl"* %105, null
  br i1 %107, label %125, label %108

108:                                              ; preds = %99
  %109 = getelementptr inbounds %"class.WTF::StringImpl", %"class.WTF::StringImpl"* %105, i64 0, i32 2, i32 0, i32 0, i32 0, i32 0, i32 0
  %110 = load atomic i32, i32* %109 monotonic, align 4
  %111 = and i32 %110, 2
  %112 = icmp eq i32 %111, 0
  br i1 %112, label %113, label %125

113:                                              ; preds = %108
  %114 = getelementptr inbounds %"class.WTF::StringImpl", %"class.WTF::StringImpl"* %105, i64 0, i32 0
  %115 = load i32, i32* %114, align 4
  %116 = zext i32 %115 to i33
  %117 = tail call { i33, i1 } @llvm.sadd.with.overflow.i33(i33 %116, i33 1) #9
  %118 = extractvalue { i33, i1 } %117, 1
  %119 = extractvalue { i33, i1 } %117, 0
  %120 = icmp slt i33 %119, 0
  %121 = or i1 %118, %120
  br i1 %121, label %122, label %123, !prof !2

122:                                              ; preds = %113
  tail call void @llvm.trap() #9
  unreachable

123:                                              ; preds = %113
  %124 = trunc i33 %119 to i32
  store i32 %124, i32* %114, align 4
  br label %125

125:                                              ; preds = %99, %108, %123
  %126 = load i32, i32* %3, align 4
  %127 = add i32 %126, 1
  store i32 %127, i32* %3, align 4
  ret void
}

declare void @_ZN7logging10CheckError5CheckEPKciS2_(%"class.logging::CheckError"* sret, i8*, i32, i8*) local_unnamed_addr #1

; Function Attrs: nounwind ssp uwtable
define linkonce_odr hidden i64 @_ZN3WTF18PartitionAllocator13QuantizedSizeINS_6StringEEEmm(i64) local_unnamed_addr #0 comdat align 2 {
  %2 = alloca %"class.logging::CheckOpResult", align 8
  %3 = alloca %"class.logging::CheckOpResult", align 8
  %4 = alloca %"class.logging::CheckError", align 8
  %5 = bitcast %"class.logging::CheckOpResult"* %3 to i8*
  call void @llvm.lifetime.start.p0i8(i64 8, i8* nonnull %5) #9
  %6 = getelementptr inbounds %"class.logging::CheckOpResult", %"class.logging::CheckOpResult"* %3, i64 0, i32 0
  store i8* inttoptr (i64 -6148914691236517206 to i8*), i8** %6, align 8
  %7 = bitcast %"class.logging::CheckOpResult"* %2 to i8*
  call void @llvm.lifetime.start.p0i8(i64 8, i8* nonnull %7)
  %8 = icmp ugt i64 %0, 268173312
  br i1 %8, label %10, label %9

9:                                                ; preds = %1
  call void @llvm.lifetime.end.p0i8(i64 8, i8* nonnull %7)
  store i8* null, i8** %6, align 8
  br label %19

10:                                               ; preds = %1
  %11 = tail call i8* @_ZN7logging15CheckOpValueStrEm(i64 %0) #9
  %12 = tail call i8* @_ZN7logging15CheckOpValueStrEm(i64 268173312) #9
  call void @_ZN7logging13CheckOpResultC1EPKcPcS3_(%"class.logging::CheckOpResult"* nonnull %2, i8* getelementptr inbounds ([44 x i8], [44 x i8]* @.str.10, i64 0, i64 0), i8* %11, i8* %12) #9
  %13 = getelementptr inbounds %"class.logging::CheckOpResult", %"class.logging::CheckOpResult"* %2, i64 0, i32 0
  %14 = load i8*, i8** %13, align 8
  call void @llvm.lifetime.end.p0i8(i64 8, i8* nonnull %7)
  store i8* %14, i8** %6, align 8
  %15 = icmp eq i8* %14, null
  br i1 %15, label %19, label %16

16:                                               ; preds = %10
  %17 = bitcast %"class.logging::CheckError"* %4 to i8*
  call void @llvm.lifetime.start.p0i8(i64 8, i8* nonnull %17) #9
  call void @_ZN7logging10CheckError7CheckOpEPKciPNS_13CheckOpResultE(%"class.logging::CheckError"* nonnull sret %4, i8* getelementptr inbounds ([78 x i8], [78 x i8]* @.str.11, i64 0, i64 0), i32 31, %"class.logging::CheckOpResult"* nonnull %3) #9
  %18 = call dereferenceable(160) %"class.std::__1::basic_ostream"* @_ZN7logging10CheckError6streamEv(%"class.logging::CheckError"* nonnull %4) #9
  call void @_ZN7logging10CheckErrorD1Ev(%"class.logging::CheckError"* nonnull %4) #9
  call void @llvm.lifetime.end.p0i8(i64 8, i8* nonnull %17) #9
  br label %19

19:                                               ; preds = %9, %10, %16
  call void @llvm.lifetime.end.p0i8(i64 8, i8* nonnull %5) #9
  %20 = shl i64 %0, 3
  %21 = call i64 @_ZN3WTF10Partitions23BufferPotentialCapacityEm(i64 %20) #9
  ret i64 %21
}

declare i64 @_ZN3WTF10Partitions23BufferPotentialCapacityEm(i64) local_unnamed_addr #1

declare i8* @_ZN7logging15CheckOpValueStrEm(i64) local_unnamed_addr #1

declare i8* @_ZN3WTF18PartitionAllocator15AllocateBackingEmPKc(i64, i8*) local_unnamed_addr #1

declare zeroext i1 @_ZN3WTF5EqualEPKNS_10StringImplES2_(%"class.WTF::StringImpl"*, %"class.WTF::StringImpl"*) local_unnamed_addr #1

; Function Attrs: argmemonly nounwind
declare void @llvm.memmove.p0i8.p0i8.i64(i8* nocapture, i8* nocapture readonly, i64, i1 immarg) #2

; Function Attrs: nounwind ssp uwtable
define linkonce_odr hidden i8* @_ZN5blink10ThreadHeap8AllocateINS_8IterableIN3WTF6StringES4_E15IterationSourceEEEPhm(i64) local_unnamed_addr #0 comdat align 2 {
  %2 = load %"class.WTF::ThreadSpecific"*, %"class.WTF::ThreadSpecific"** @_ZN5blink11ThreadState16thread_specific_E, align 8
  %3 = getelementptr inbounds %"class.WTF::ThreadSpecific", %"class.WTF::ThreadSpecific"* %2, i64 0, i32 1
  %4 = tail call i8* @_ZNK4base18ThreadLocalStorage4Slot3GetEv(%"class.base::ThreadLocalStorage::Slot"* %3) #9
  %5 = icmp eq i8* %4, null
  br i1 %5, label %6, label %8, !prof !2

6:                                                ; preds = %1
  %7 = tail call i8* @_ZN3WTF10Partitions16FastZeroedMallocEmPKc(i64 8, i8* getelementptr inbounds ([68 x i8], [68 x i8]* @__PRETTY_FUNCTION__._ZN3WTF21GetStringWithTypeNameIPN5blink11ThreadStateEEEPKcv, i64 0, i64 0)) #9
  tail call void @_ZN4base18ThreadLocalStorage4Slot3SetEPv(%"class.base::ThreadLocalStorage::Slot"* %3, i8* %7) #9
  br label %8

8:                                                ; preds = %1, %6
  %9 = phi i8* [ %7, %6 ], [ %4, %1 ]
  %10 = bitcast i8* %9 to %"class.blink::ThreadState"**
  %11 = load %"class.blink::ThreadState"*, %"class.blink::ThreadState"** %10, align 8
  %12 = getelementptr inbounds %"class.blink::ThreadState", %"class.blink::ThreadState"* %11, i64 0, i32 0, i32 0, i32 0, i32 0
  %13 = load %"class.blink::ThreadHeap"*, %"class.blink::ThreadHeap"** %12, align 8
  %14 = icmp ult i64 %0, 64
  %15 = icmp ugt i64 %0, 31
  %16 = zext i1 %15 to i32
  %17 = icmp ult i64 %0, 128
  %18 = select i1 %17, i32 2, i32 3
  %19 = select i1 %14, i32 %16, i32 %18
  %20 = load atomic i32, i32* getelementptr inbounds ({ { i32 } }, { { i32 } }* @_ZZN5blink11GCInfoTraitINS_8IterableIN3WTF6StringES3_E15IterationSourceEE5IndexEvE13gc_info_index, i64 0, i32 0, i32 0) acquire, align 4
  %21 = icmp eq i32 %20, 0
  br i1 %21, label %22, label %25

22:                                               ; preds = %8
  %23 = load %"class.blink::GCInfoTable"*, %"class.blink::GCInfoTable"** @_ZN5blink11GCInfoTable13global_table_E, align 8
  %24 = tail call i32 @_ZN5blink11GCInfoTable17EnsureGCInfoIndexEPKNS_6GCInfoEPNSt3__16atomicIjEE(%"class.blink::GCInfoTable"* %23, %"struct.blink::GCInfo"* nonnull @_ZZN5blink11GCInfoTraitINS_8IterableIN3WTF6StringES3_E15IterationSourceEE5IndexEvE7kGcInfo, %"struct.std::__1::atomic"* bitcast ({ { i32 } }* @_ZZN5blink11GCInfoTraitINS_8IterableIN3WTF6StringES3_E15IterationSourceEE5IndexEvE13gc_info_index to %"struct.std::__1::atomic"*)) #9
  br label %25

25:                                               ; preds = %8, %22
  %26 = phi i32 [ %20, %8 ], [ %24, %22 ]
  %27 = tail call i8* @_ZN5blink10ThreadHeap20AllocateOnArenaIndexEPNS_11ThreadStateEmijPKc(%"class.blink::ThreadHeap"* %13, %"class.blink::ThreadState"* %11, i64 %0, i32 %19, i32 %26, i8* getelementptr inbounds ([106 x i8], [106 x i8]* @__PRETTY_FUNCTION__._ZN3WTF21GetStringWithTypeNameIN5blink8IterableINS_6StringES3_E15IterationSourceEEEPKcv, i64 0, i64 0))
  ret i8* %27
}

; Function Attrs: inlinehint nounwind ssp uwtable
define linkonce_odr hidden i8* @_ZN5blink10ThreadHeap20AllocateOnArenaIndexEPNS_11ThreadStateEmijPKc(%"class.blink::ThreadHeap"*, %"class.blink::ThreadState"*, i64, i32, i32, i8*) local_unnamed_addr #4 comdat align 2 {
  %7 = alloca %"class.logging::CheckOpResult", align 8
  %8 = alloca %"class.logging::CheckOpResult", align 8
  %9 = alloca %"class.logging::CheckError", align 8
  %10 = sext i32 %3 to i64
  %11 = getelementptr inbounds %"class.blink::ThreadHeap", %"class.blink::ThreadHeap"* %0, i64 0, i32 19, i64 %10
  %12 = bitcast %"class.blink::BaseArena"** %11 to %"class.blink::NormalPageArena"**
  %13 = load %"class.blink::NormalPageArena"*, %"class.blink::NormalPageArena"** %12, align 8
  %14 = bitcast %"class.logging::CheckOpResult"* %8 to i8*
  call void @llvm.lifetime.start.p0i8(i64 8, i8* nonnull %14) #9
  %15 = getelementptr inbounds %"class.logging::CheckOpResult", %"class.logging::CheckOpResult"* %8, i64 0, i32 0
  store i8* inttoptr (i64 -6148914691236517206 to i8*), i8** %15, align 8
  %16 = bitcast %"class.logging::CheckOpResult"* %7 to i8*
  call void @llvm.lifetime.start.p0i8(i64 8, i8* nonnull %16) #9
  %17 = icmp ult i64 %2, -8
  br i1 %17, label %18, label %19

18:                                               ; preds = %6
  call void @llvm.lifetime.end.p0i8(i64 8, i8* nonnull %16) #9
  store i8* null, i8** %15, align 8
  br label %29

19:                                               ; preds = %6
  %20 = add nsw i64 %2, 8
  %21 = tail call i8* @_ZN7logging15CheckOpValueStrEm(i64 %20) #9
  %22 = tail call i8* @_ZN7logging15CheckOpValueStrEm(i64 %2) #9
  call void @_ZN7logging13CheckOpResultC1EPKcPcS3_(%"class.logging::CheckOpResult"* nonnull %7, i8* getelementptr inbounds ([23 x i8], [23 x i8]* @.str.13, i64 0, i64 0), i8* %21, i8* %22) #9
  %23 = getelementptr inbounds %"class.logging::CheckOpResult", %"class.logging::CheckOpResult"* %7, i64 0, i32 0
  %24 = load i8*, i8** %23, align 8
  call void @llvm.lifetime.end.p0i8(i64 8, i8* nonnull %16) #9
  store i8* %24, i8** %15, align 8
  %25 = icmp eq i8* %24, null
  br i1 %25, label %29, label %26

26:                                               ; preds = %19
  %27 = bitcast %"class.logging::CheckError"* %9 to i8*
  call void @llvm.lifetime.start.p0i8(i64 8, i8* nonnull %27) #9
  call void @_ZN7logging10CheckError7CheckOpEPKciPNS_13CheckOpResultE(%"class.logging::CheckError"* nonnull sret %9, i8* getelementptr inbounds ([59 x i8], [59 x i8]* @.str.14, i64 0, i64 0), i32 246, %"class.logging::CheckOpResult"* nonnull %8) #9
  %28 = call dereferenceable(160) %"class.std::__1::basic_ostream"* @_ZN7logging10CheckError6streamEv(%"class.logging::CheckError"* nonnull %9) #9
  call void @_ZN7logging10CheckErrorD1Ev(%"class.logging::CheckError"* nonnull %9) #9
  call void @llvm.lifetime.end.p0i8(i64 8, i8* nonnull %27) #9
  br label %29

29:                                               ; preds = %18, %19, %26
  call void @llvm.lifetime.end.p0i8(i64 8, i8* nonnull %14) #9
  %30 = add i64 %2, 15
  %31 = and i64 %30, -8
  %32 = getelementptr inbounds %"class.blink::NormalPageArena", %"class.blink::NormalPageArena"* %13, i64 0, i32 4
  %33 = load i64, i64* %32, align 8
  %34 = icmp ult i64 %33, %31
  br i1 %34, label %67, label %35, !prof !2

35:                                               ; preds = %29
  %36 = getelementptr inbounds %"class.blink::NormalPageArena", %"class.blink::NormalPageArena"* %13, i64 0, i32 3
  %37 = load i8*, i8** %36, align 8
  %38 = getelementptr inbounds i8, i8* %37, i64 %31
  store i8* %38, i8** %36, align 8
  %39 = sub i64 %33, %31
  store i64 %39, i64* %32, align 8
  %40 = bitcast i8* %37 to i32*
  store i32 0, i32* %40, align 4
  %41 = getelementptr inbounds i8, i8* %37, i64 4
  %42 = bitcast i8* %41 to i16*
  %43 = trunc i32 %4 to i16
  %44 = shl i16 %43, 2
  store atomic i16 %44, i16* %42 monotonic, align 2
  %45 = lshr exact i64 %31, 1
  %46 = trunc i64 %45 to i16
  %47 = getelementptr inbounds i8, i8* %37, i64 6
  %48 = bitcast i8* %47 to i16*
  store i16 %46, i16* %48, align 2
  %49 = ptrtoint i8* %37 to i64
  %50 = and i64 %49, -131072
  %51 = inttoptr i64 %50 to i8*
  %52 = getelementptr inbounds i8, i8* %51, i64 4400
  %53 = bitcast i8* %52 to %"class.blink::PlatformAwareObjectStartBitmap"*
  %54 = bitcast i8* %52 to i64*
  %55 = load i64, i64* %54, align 16
  %56 = sub i64 %49, %55
  %57 = lshr i64 %56, 3
  %58 = lshr i64 %56, 6
  %59 = getelementptr inbounds %"class.blink::PlatformAwareObjectStartBitmap", %"class.blink::PlatformAwareObjectStartBitmap"* %53, i64 0, i32 0, i32 1, i64 %58
  %60 = load i8, i8* %59, align 1
  %61 = trunc i64 %57 to i32
  %62 = and i32 %61, 7
  %63 = shl i32 1, %62
  %64 = trunc i32 %63 to i8
  %65 = or i8 %60, %64
  store atomic i8 %65, i8* %59 release, align 1
  %66 = getelementptr inbounds i8, i8* %37, i64 8
  br label %70

67:                                               ; preds = %29
  %68 = zext i32 %4 to i64
  %69 = call i8* @_ZN5blink15NormalPageArena17OutOfLineAllocateEmm(%"class.blink::NormalPageArena"* %13, i64 %31, i64 %68) #9
  br label %70

70:                                               ; preds = %35, %67
  %71 = phi i8* [ %66, %35 ], [ %69, %67 ]
  ret i8* %71
}

declare i8* @_ZN5blink15NormalPageArena17OutOfLineAllocateEmm(%"class.blink::NormalPageArena"*, i64, i64) local_unnamed_addr #1

; Function Attrs: nounwind ssp uwtable
define linkonce_odr hidden void @_ZN5blink10TraceTraitINS_8IterableIN3WTF6StringES3_E15IterationSourceEE5TraceEPNS_7VisitorEPKv(%"class.blink::Visitor"*, i8*) #0 comdat align 2 {
  %3 = bitcast i8* %1 to %"class.blink::Iterable<WTF::String, WTF::String>::IterationSource"*
  %4 = bitcast i8* %1 to void (%"class.blink::Iterable<WTF::String, WTF::String>::IterationSource"*, %"class.blink::Visitor"*)***
  %5 = load void (%"class.blink::Iterable<WTF::String, WTF::String>::IterationSource"*, %"class.blink::Visitor"*)**, void (%"class.blink::Iterable<WTF::String, WTF::String>::IterationSource"*, %"class.blink::Visitor"*)*** %4, align 8
  %6 = getelementptr inbounds void (%"class.blink::Iterable<WTF::String, WTF::String>::IterationSource"*, %"class.blink::Visitor"*)*, void (%"class.blink::Iterable<WTF::String, WTF::String>::IterationSource"*, %"class.blink::Visitor"*)** %5, i64 3
  %7 = load void (%"class.blink::Iterable<WTF::String, WTF::String>::IterationSource"*, %"class.blink::Visitor"*)*, void (%"class.blink::Iterable<WTF::String, WTF::String>::IterationSource"*, %"class.blink::Visitor"*)** %6, align 8
  tail call void %7(%"class.blink::Iterable<WTF::String, WTF::String>::IterationSource"* %3, %"class.blink::Visitor"* %0) #9
  ret void
}

; Function Attrs: nounwind ssp uwtable
define linkonce_odr hidden void @_ZN5blink8internal14FinalizerTraitINS_8IterableIN3WTF6StringES4_E15IterationSourceEE8FinalizeEPv(i8*) #0 comdat align 2 {
  %2 = bitcast i8* %0 to %"class.blink::Iterable<WTF::String, WTF::String>::IterationSource"*
  %3 = bitcast i8* %0 to void (%"class.blink::Iterable<WTF::String, WTF::String>::IterationSource"*)***
  %4 = load void (%"class.blink::Iterable<WTF::String, WTF::String>::IterationSource"*)**, void (%"class.blink::Iterable<WTF::String, WTF::String>::IterationSource"*)*** %3, align 8
  %5 = load void (%"class.blink::Iterable<WTF::String, WTF::String>::IterationSource"*)*, void (%"class.blink::Iterable<WTF::String, WTF::String>::IterationSource"*)** %4, align 8
  tail call void %5(%"class.blink::Iterable<WTF::String, WTF::String>::IterationSource"* %2) #9
  ret void
}

; Function Attrs: nounwind ssp uwtable
define linkonce_odr hidden { i8*, i8 } @_ZN5blink9NameTraitINS_8IterableIN3WTF6StringES3_E15IterationSourceEE7GetNameEPKv(i8*) #0 comdat align 2 {
  ret { i8*, i8 } { i8* getelementptr inbounds ([13 x i8], [13 x i8]* @.str.15, i64 0, i64 0), i8 1 }
}

declare i32 @_ZN5blink11GCInfoTable17EnsureGCInfoIndexEPKNS_6GCInfoEPNSt3__16atomicIjEE(%"class.blink::GCInfoTable"*, %"struct.blink::GCInfo"*, %"struct.std::__1::atomic"*) local_unnamed_addr #1

; Function Attrs: nounwind ssp uwtable
define linkonce_odr hidden void @_ZN5blink8IterableIN3WTF6StringES2_E15IterationSourceD2Ev(%"class.blink::Iterable<WTF::String, WTF::String>::IterationSource"*) unnamed_addr #0 comdat align 2 {
  ret void
}

; Function Attrs: inlinehint nounwind ssp uwtable
define linkonce_odr hidden void @_ZN5blink26CustomStateIterationSourceD0Ev(%"class.blink::CustomStateIterationSource"*) unnamed_addr #4 comdat align 2 {
  ret void
}

; Function Attrs: nounwind ssp uwtable
define linkonce_odr hidden zeroext i1 @_ZN5blink26CustomStateIterationSource4NextEPNS_11ScriptStateERN3WTF6StringES5_RNS_14ExceptionStateE(%"class.blink::CustomStateIterationSource"*, %"class.blink::ScriptState"*, %"class.WTF::String"* dereferenceable(8), %"class.WTF::String"* dereferenceable(8), %"class.blink::ExceptionState"* dereferenceable(72)) unnamed_addr #0 comdat align 2 {
  %6 = getelementptr inbounds %"class.blink::CustomStateIterationSource", %"class.blink::CustomStateIterationSource"* %0, i64 0, i32 2
  %7 = load i32, i32* %6, align 8
  %8 = getelementptr inbounds %"class.blink::CustomStateIterationSource", %"class.blink::CustomStateIterationSource"* %0, i64 0, i32 1, i32 0, i32 0
  %9 = load %"class.blink::CustomStateSet"*, %"class.blink::CustomStateSet"** %8, align 8
  %10 = getelementptr inbounds %"class.blink::CustomStateSet", %"class.blink::CustomStateSet"* %9, i64 0, i32 3, i32 0, i32 0, i32 2
  %11 = load i32, i32* %10, align 4
  %12 = icmp ult i32 %7, %11
  br i1 %12, label %13, label %122

13:                                               ; preds = %5
  %14 = getelementptr inbounds %"class.blink::CustomStateSet", %"class.blink::CustomStateSet"* %9, i64 0, i32 3
  %15 = add nuw i32 %7, 1
  store i32 %15, i32* %6, align 8
  %16 = tail call dereferenceable(8) %"class.WTF::String"* @_ZN3WTF6VectorINS_6StringELj0ENS_18PartitionAllocatorEE2atEj(%"class.WTF::Vector.21"* %14, i32 %7) #9
  %17 = getelementptr inbounds %"class.WTF::String", %"class.WTF::String"* %16, i64 0, i32 0, i32 0
  %18 = load %"class.WTF::StringImpl"*, %"class.WTF::StringImpl"** %17, align 8
  %19 = icmp eq %"class.WTF::StringImpl"* %18, null
  br i1 %19, label %53, label %20

20:                                               ; preds = %13
  %21 = getelementptr inbounds %"class.WTF::StringImpl", %"class.WTF::StringImpl"* %18, i64 0, i32 2, i32 0, i32 0, i32 0, i32 0, i32 0
  %22 = load atomic i32, i32* %21 monotonic, align 4
  %23 = and i32 %22, 2
  %24 = icmp eq i32 %23, 0
  br i1 %24, label %25, label %37

25:                                               ; preds = %20
  %26 = getelementptr inbounds %"class.WTF::StringImpl", %"class.WTF::StringImpl"* %18, i64 0, i32 0
  %27 = load i32, i32* %26, align 4
  %28 = zext i32 %27 to i33
  %29 = tail call { i33, i1 } @llvm.sadd.with.overflow.i33(i33 %28, i33 1) #9
  %30 = extractvalue { i33, i1 } %29, 1
  %31 = extractvalue { i33, i1 } %29, 0
  %32 = icmp slt i33 %31, 0
  %33 = or i1 %30, %32
  br i1 %33, label %34, label %35, !prof !2

34:                                               ; preds = %25
  tail call void @llvm.trap() #9
  unreachable

35:                                               ; preds = %25
  %36 = trunc i33 %31 to i32
  store i32 %36, i32* %26, align 4
  br label %37

37:                                               ; preds = %20, %35
  %38 = load atomic i32, i32* %21 monotonic, align 4
  %39 = and i32 %38, 2
  %40 = icmp eq i32 %39, 0
  br i1 %40, label %41, label %53

41:                                               ; preds = %37
  %42 = getelementptr inbounds %"class.WTF::StringImpl", %"class.WTF::StringImpl"* %18, i64 0, i32 0
  %43 = load i32, i32* %42, align 4
  %44 = zext i32 %43 to i33
  %45 = tail call { i33, i1 } @llvm.sadd.with.overflow.i33(i33 %44, i33 1) #9
  %46 = extractvalue { i33, i1 } %45, 1
  %47 = extractvalue { i33, i1 } %45, 0
  %48 = icmp slt i33 %47, 0
  %49 = or i1 %46, %48
  br i1 %49, label %50, label %51, !prof !2

50:                                               ; preds = %41
  tail call void @llvm.trap() #9
  unreachable

51:                                               ; preds = %41
  %52 = trunc i33 %47 to i32
  store i32 %52, i32* %42, align 4
  br label %53

53:                                               ; preds = %13, %51, %37
  %54 = ptrtoint %"class.WTF::StringImpl"* %18 to i64
  %55 = bitcast %"class.WTF::String"* %2 to i64*
  %56 = getelementptr inbounds %"class.WTF::String", %"class.WTF::String"* %2, i64 0, i32 0, i32 0
  %57 = load %"class.WTF::StringImpl"*, %"class.WTF::StringImpl"** %56, align 8
  store i64 %54, i64* %55, align 8
  %58 = icmp eq %"class.WTF::StringImpl"* %57, null
  br i1 %58, label %72, label %59

59:                                               ; preds = %53
  %60 = getelementptr inbounds %"class.WTF::StringImpl", %"class.WTF::StringImpl"* %57, i64 0, i32 2, i32 0, i32 0, i32 0, i32 0, i32 0
  %61 = load atomic i32, i32* %60 monotonic, align 4
  %62 = and i32 %61, 2
  %63 = icmp eq i32 %62, 0
  %64 = getelementptr inbounds %"class.WTF::StringImpl", %"class.WTF::StringImpl"* %57, i64 0, i32 0
  %65 = load i32, i32* %64, align 4
  br i1 %63, label %66, label %68

66:                                               ; preds = %59
  %67 = add i32 %65, -1
  store i32 %67, i32* %64, align 4
  br label %68

68:                                               ; preds = %66, %59
  %69 = phi i32 [ %67, %66 ], [ %65, %59 ]
  %70 = icmp eq i32 %69, 0
  br i1 %70, label %71, label %72

71:                                               ; preds = %68
  tail call void @_ZNK3WTF10StringImpl18DestroyIfNotStaticEv(%"class.WTF::StringImpl"* nonnull %57) #9
  br label %72

72:                                               ; preds = %53, %68, %71
  br i1 %19, label %90, label %73

73:                                               ; preds = %72
  %74 = getelementptr inbounds %"class.WTF::StringImpl", %"class.WTF::StringImpl"* %18, i64 0, i32 2, i32 0, i32 0, i32 0, i32 0, i32 0
  %75 = load atomic i32, i32* %74 monotonic, align 4
  %76 = and i32 %75, 2
  %77 = icmp eq i32 %76, 0
  br i1 %77, label %78, label %90

78:                                               ; preds = %73
  %79 = getelementptr inbounds %"class.WTF::StringImpl", %"class.WTF::StringImpl"* %18, i64 0, i32 0
  %80 = load i32, i32* %79, align 4
  %81 = zext i32 %80 to i33
  %82 = tail call { i33, i1 } @llvm.sadd.with.overflow.i33(i33 %81, i33 1) #9
  %83 = extractvalue { i33, i1 } %82, 1
  %84 = extractvalue { i33, i1 } %82, 0
  %85 = icmp slt i33 %84, 0
  %86 = or i1 %83, %85
  br i1 %86, label %87, label %88, !prof !2

87:                                               ; preds = %78
  tail call void @llvm.trap() #9
  unreachable

88:                                               ; preds = %78
  %89 = trunc i33 %84 to i32
  store i32 %89, i32* %79, align 4
  br label %90

90:                                               ; preds = %88, %73, %72
  %91 = bitcast %"class.WTF::String"* %3 to i64*
  %92 = getelementptr inbounds %"class.WTF::String", %"class.WTF::String"* %3, i64 0, i32 0, i32 0
  %93 = load %"class.WTF::StringImpl"*, %"class.WTF::StringImpl"** %92, align 8
  store i64 %54, i64* %91, align 8
  %94 = icmp eq %"class.WTF::StringImpl"* %93, null
  br i1 %94, label %108, label %95

95:                                               ; preds = %90
  %96 = getelementptr inbounds %"class.WTF::StringImpl", %"class.WTF::StringImpl"* %93, i64 0, i32 2, i32 0, i32 0, i32 0, i32 0, i32 0
  %97 = load atomic i32, i32* %96 monotonic, align 4
  %98 = and i32 %97, 2
  %99 = icmp eq i32 %98, 0
  %100 = getelementptr inbounds %"class.WTF::StringImpl", %"class.WTF::StringImpl"* %93, i64 0, i32 0
  %101 = load i32, i32* %100, align 4
  br i1 %99, label %102, label %104

102:                                              ; preds = %95
  %103 = add i32 %101, -1
  store i32 %103, i32* %100, align 4
  br label %104

104:                                              ; preds = %102, %95
  %105 = phi i32 [ %103, %102 ], [ %101, %95 ]
  %106 = icmp eq i32 %105, 0
  br i1 %106, label %107, label %108

107:                                              ; preds = %104
  tail call void @_ZNK3WTF10StringImpl18DestroyIfNotStaticEv(%"class.WTF::StringImpl"* nonnull %93) #9
  br label %108

108:                                              ; preds = %90, %104, %107
  br i1 %19, label %122, label %109

109:                                              ; preds = %108
  %110 = getelementptr inbounds %"class.WTF::StringImpl", %"class.WTF::StringImpl"* %18, i64 0, i32 2, i32 0, i32 0, i32 0, i32 0, i32 0
  %111 = load atomic i32, i32* %110 monotonic, align 4
  %112 = and i32 %111, 2
  %113 = icmp eq i32 %112, 0
  %114 = getelementptr inbounds %"class.WTF::StringImpl", %"class.WTF::StringImpl"* %18, i64 0, i32 0
  %115 = load i32, i32* %114, align 4
  br i1 %113, label %116, label %118

116:                                              ; preds = %109
  %117 = add i32 %115, -1
  store i32 %117, i32* %114, align 4
  br label %118

118:                                              ; preds = %116, %109
  %119 = phi i32 [ %117, %116 ], [ %115, %109 ]
  %120 = icmp eq i32 %119, 0
  br i1 %120, label %121, label %122

121:                                              ; preds = %118
  tail call void @_ZNK3WTF10StringImpl18DestroyIfNotStaticEv(%"class.WTF::StringImpl"* nonnull %18) #9
  br label %122

122:                                              ; preds = %121, %118, %108, %5
  %123 = phi i1 [ false, %5 ], [ true, %108 ], [ true, %118 ], [ true, %121 ]
  ret i1 %123
}

; Function Attrs: nounwind ssp uwtable
define linkonce_odr hidden void @_ZNK5blink26CustomStateIterationSource5TraceEPNS_7VisitorE(%"class.blink::CustomStateIterationSource"*, %"class.blink::Visitor"*) unnamed_addr #0 comdat align 2 {
  %3 = getelementptr inbounds %"class.blink::CustomStateIterationSource", %"class.blink::CustomStateIterationSource"* %0, i64 0, i32 1
  %4 = bitcast %"class.blink::Member.32"* %3 to i64*
  %5 = load atomic i64, i64* %4 monotonic, align 8
  %6 = icmp eq i64 %5, 0
  br i1 %6, label %13, label %7

7:                                                ; preds = %2
  %8 = inttoptr i64 %5 to i8*
  %9 = bitcast %"class.blink::Visitor"* %1 to void (%"class.blink::Visitor"*, i8*, i8*, void (%"class.blink::Visitor"*, i8*)*)***
  %10 = load void (%"class.blink::Visitor"*, i8*, i8*, void (%"class.blink::Visitor"*, i8*)*)**, void (%"class.blink::Visitor"*, i8*, i8*, void (%"class.blink::Visitor"*, i8*)*)*** %9, align 8
  %11 = getelementptr inbounds void (%"class.blink::Visitor"*, i8*, i8*, void (%"class.blink::Visitor"*, i8*)*)*, void (%"class.blink::Visitor"*, i8*, i8*, void (%"class.blink::Visitor"*, i8*)*)** %10, i64 5
  %12 = load void (%"class.blink::Visitor"*, i8*, i8*, void (%"class.blink::Visitor"*, i8*)*)*, void (%"class.blink::Visitor"*, i8*, i8*, void (%"class.blink::Visitor"*, i8*)*)** %11, align 8
  tail call void %12(%"class.blink::Visitor"* %1, i8* nonnull %8, i8* nonnull %8, void (%"class.blink::Visitor"*, i8*)* nonnull @_ZN5blink10TraceTraitINS_14CustomStateSetEE5TraceEPNS_7VisitorEPKv) #9
  br label %13

13:                                               ; preds = %2, %7
  ret void
}

; Function Attrs: nounwind ssp uwtable
define linkonce_odr hidden dereferenceable(8) %"class.WTF::String"* @_ZN3WTF6VectorINS_6StringELj0ENS_18PartitionAllocatorEE2atEj(%"class.WTF::Vector.21"*, i32) local_unnamed_addr #0 comdat align 2 {
  %3 = alloca %"class.logging::CheckOpResult", align 8
  %4 = alloca %"class.logging::CheckOpResult", align 8
  %5 = alloca %"class.logging::CheckError", align 8
  %6 = bitcast %"class.logging::CheckOpResult"* %4 to i8*
  call void @llvm.lifetime.start.p0i8(i64 8, i8* nonnull %6) #9
  %7 = getelementptr inbounds %"class.logging::CheckOpResult", %"class.logging::CheckOpResult"* %4, i64 0, i32 0
  store i8* inttoptr (i64 -6148914691236517206 to i8*), i8** %7, align 8
  %8 = getelementptr inbounds %"class.WTF::Vector.21", %"class.WTF::Vector.21"* %0, i64 0, i32 0, i32 0, i32 2
  %9 = load i32, i32* %8, align 4
  %10 = bitcast %"class.logging::CheckOpResult"* %3 to i8*
  call void @llvm.lifetime.start.p0i8(i64 8, i8* nonnull %10)
  %11 = icmp ugt i32 %9, %1
  br i1 %11, label %12, label %13

12:                                               ; preds = %2
  call void @llvm.lifetime.end.p0i8(i64 8, i8* nonnull %10)
  store i8* null, i8** %7, align 8
  br label %22

13:                                               ; preds = %2
  %14 = tail call i8* @_ZN7logging15CheckOpValueStrEj(i32 %1) #9
  %15 = tail call i8* @_ZN7logging15CheckOpValueStrEj(i32 %9) #9
  call void @_ZN7logging13CheckOpResultC1EPKcPcS3_(%"class.logging::CheckOpResult"* nonnull %3, i8* getelementptr inbounds ([11 x i8], [11 x i8]* @.str.16, i64 0, i64 0), i8* %14, i8* %15) #9
  %16 = getelementptr inbounds %"class.logging::CheckOpResult", %"class.logging::CheckOpResult"* %3, i64 0, i32 0
  %17 = load i8*, i8** %16, align 8
  call void @llvm.lifetime.end.p0i8(i64 8, i8* nonnull %10)
  store i8* %17, i8** %7, align 8
  %18 = icmp eq i8* %17, null
  br i1 %18, label %22, label %19

19:                                               ; preds = %13
  %20 = bitcast %"class.logging::CheckError"* %5 to i8*
  call void @llvm.lifetime.start.p0i8(i64 8, i8* nonnull %20) #9
  call void @_ZN7logging10CheckError7CheckOpEPKciPNS_13CheckOpResultE(%"class.logging::CheckError"* nonnull sret %5, i8* getelementptr inbounds ([55 x i8], [55 x i8]* @.str.8, i64 0, i64 0), i32 1172, %"class.logging::CheckOpResult"* nonnull %4) #9
  %21 = call dereferenceable(160) %"class.std::__1::basic_ostream"* @_ZN7logging10CheckError6streamEv(%"class.logging::CheckError"* nonnull %5) #9
  call void @_ZN7logging10CheckErrorD1Ev(%"class.logging::CheckError"* nonnull %5) #9
  call void @llvm.lifetime.end.p0i8(i64 8, i8* nonnull %20) #9
  br label %22

22:                                               ; preds = %12, %13, %19
  call void @llvm.lifetime.end.p0i8(i64 8, i8* nonnull %6) #9
  %23 = getelementptr inbounds %"class.WTF::Vector.21", %"class.WTF::Vector.21"* %0, i64 0, i32 0, i32 0, i32 0
  %24 = load %"class.WTF::String"*, %"class.WTF::String"** %23, align 8
  %25 = zext i32 %1 to i64
  %26 = getelementptr inbounds %"class.WTF::String", %"class.WTF::String"* %24, i64 %25
  ret %"class.WTF::String"* %26
}

; Function Attrs: nounwind ssp uwtable
define linkonce_odr hidden void @_ZN5blink10TraceTraitINS_14CustomStateSetEE5TraceEPNS_7VisitorEPKv(%"class.blink::Visitor"*, i8*) #0 comdat align 2 {
  %3 = alloca %"struct.blink::TraceDescriptor", align 8
  %4 = getelementptr inbounds i8, i8* %1, i64 24
  %5 = bitcast i8* %4 to i64*
  %6 = load atomic i64, i64* %5 monotonic, align 8
  %7 = icmp eq i64 %6, 0
  br i1 %7, label %14, label %8

8:                                                ; preds = %2
  %9 = inttoptr i64 %6 to i8*
  %10 = bitcast %"class.blink::Visitor"* %0 to void (%"class.blink::Visitor"*, i8*, i8*, void (%"class.blink::Visitor"*, i8*)*)***
  %11 = load void (%"class.blink::Visitor"*, i8*, i8*, void (%"class.blink::Visitor"*, i8*)*)**, void (%"class.blink::Visitor"*, i8*, i8*, void (%"class.blink::Visitor"*, i8*)*)*** %10, align 8
  %12 = getelementptr inbounds void (%"class.blink::Visitor"*, i8*, i8*, void (%"class.blink::Visitor"*, i8*)*)*, void (%"class.blink::Visitor"*, i8*, i8*, void (%"class.blink::Visitor"*, i8*)*)** %11, i64 5
  %13 = load void (%"class.blink::Visitor"*, i8*, i8*, void (%"class.blink::Visitor"*, i8*)*)*, void (%"class.blink::Visitor"*, i8*, i8*, void (%"class.blink::Visitor"*, i8*)*)** %12, align 8
  tail call void %13(%"class.blink::Visitor"* %0, i8* nonnull %9, i8* nonnull %9, void (%"class.blink::Visitor"*, i8*)* nonnull @_ZN5blink10TraceTraitINS_7ElementEE5TraceEPNS_7VisitorEPKv) #9
  br label %14

14:                                               ; preds = %2, %8
  %15 = getelementptr inbounds i8, i8* %1, i64 48
  %16 = bitcast i8* %15 to i64*
  %17 = load atomic i64, i64* %16 monotonic, align 8
  %18 = inttoptr i64 %17 to %"class.blink::WeakMember"*
  %19 = bitcast i8* %15 to i8**
  %20 = bitcast %"class.blink::Visitor"* %0 to void (%"class.blink::Visitor"*, i8**)***
  %21 = load void (%"class.blink::Visitor"*, i8**)**, void (%"class.blink::Visitor"*, i8**)*** %20, align 8
  %22 = getelementptr inbounds void (%"class.blink::Visitor"*, i8**)*, void (%"class.blink::Visitor"*, i8**)** %21, i64 11
  %23 = load void (%"class.blink::Visitor"*, i8**)*, void (%"class.blink::Visitor"*, i8**)** %22, align 8
  tail call void %23(%"class.blink::Visitor"* %0, i8** %19) #9
  %24 = inttoptr i64 %17 to i8*
  %25 = bitcast %"struct.blink::TraceDescriptor"* %3 to i8*
  call void @llvm.lifetime.start.p0i8(i64 16, i8* nonnull %25) #9
  %26 = bitcast %"struct.blink::TraceDescriptor"* %3 to %"class.blink::WeakMember"**
  store %"class.blink::WeakMember"* %18, %"class.blink::WeakMember"** %26, align 8
