; ModuleID = '../../components/data_reduction_proxy/core/browser/data_store.cc'
source_filename = "../../components/data_reduction_proxy/core/browser/data_store.cc"
target datalayout = "e-m:e-i64:64-f80:128-n8:16:32:64-S128"
target triple = "x86_64-unknown-linux-gnu"

%"class.data_reduction_proxy::DataStore" = type { i32 (...)** }
%"class.std::__1::basic_string" = type { %"class.std::__1::__compressed_pair" }
%"class.std::__1::__compressed_pair" = type { %"struct.std::__1::__compressed_pair_elem" }
%"struct.std::__1::__compressed_pair_elem" = type { %"struct.std::__1::basic_string<char, std::__1::char_traits<char>, std::__1::allocator<char> >::__rep" }
%"struct.std::__1::basic_string<char, std::__1::char_traits<char>, std::__1::allocator<char> >::__rep" = type { %union.anon }
%union.anon = type { %"struct.std::__1::basic_string<char, std::__1::char_traits<char>, std::__1::allocator<char> >::__long" }
%"struct.std::__1::basic_string<char, std::__1::char_traits<char>, std::__1::allocator<char> >::__long" = type { i8*, i64, i64 }
%"class.std::__1::map" = type opaque

@_ZTVN20data_reduction_proxy9DataStoreE = hidden unnamed_addr constant { [9 x i8*] } { [9 x i8*] [i8* null, i8* null, i8* bitcast (void (%"class.data_reduction_proxy::DataStore"*)* @_ZN20data_reduction_proxy9DataStoreD2Ev to i8*), i8* bitcast (void (%"class.data_reduction_proxy::DataStore"*)* @_ZN20data_reduction_proxy9DataStoreD0Ev to i8*), i8* bitcast (void (%"class.data_reduction_proxy::DataStore"*)* @_ZN20data_reduction_proxy9DataStore20InitializeOnDBThreadEv to i8*), i8* bitcast (i32 (%"class.data_reduction_proxy::DataStore"*, i8*, i64, %"class.std::__1::basic_string"*)* @_ZN20data_reduction_proxy9DataStore3GetEN4base16BasicStringPieceIcNSt3__111char_traitsIcEEEEPNS3_12basic_stringIcS5_NS3_9allocatorIcEEEE to i8*), i8* bitcast (i32 (%"class.data_reduction_proxy::DataStore"*, %"class.std::__1::map"*)* @_ZN20data_reduction_proxy9DataStore3PutERKNSt3__13mapINS1_12basic_stringIcNS1_11char_traitsIcEENS1_9allocatorIcEEEES8_NS1_4lessIS8_EENS6_INS1_4pairIKS8_S8_EEEEEE to i8*), i8* bitcast (i32 (%"class.data_reduction_proxy::DataStore"*, i8*, i64)* @_ZN20data_reduction_proxy9DataStore6DeleteEN4base16BasicStringPieceIcNSt3__111char_traitsIcEEEE to i8*), i8* bitcast (i32 (%"class.data_reduction_proxy::DataStore"*)* @_ZN20data_reduction_proxy9DataStore10RecreateDBEv to i8*)] }, align 8

@_ZN20data_reduction_proxy9DataStoreC1Ev = hidden unnamed_addr alias void (%"class.data_reduction_proxy::DataStore"*), void (%"class.data_reduction_proxy::DataStore"*)* @_ZN20data_reduction_proxy9DataStoreC2Ev
@_ZN20data_reduction_proxy9DataStoreD1Ev = hidden unnamed_addr alias void (%"class.data_reduction_proxy::DataStore"*), void (%"class.data_reduction_proxy::DataStore"*)* @_ZN20data_reduction_proxy9DataStoreD2Ev

; Function Attrs: nofree norecurse nounwind ssp uwtable writeonly
define hidden void @_ZN20data_reduction_proxy9DataStoreC2Ev(%"class.data_reduction_proxy::DataStore"* nocapture) unnamed_addr #0 align 2 {
  %2 = getelementptr inbounds %"class.data_reduction_proxy::DataStore", %"class.data_reduction_proxy::DataStore"* %0, i64 0, i32 0
  store i32 (...)** bitcast (i8** getelementptr inbounds ({ [9 x i8*] }, { [9 x i8*] }* @_ZTVN20data_reduction_proxy9DataStoreE, i64 0, inrange i32 0, i64 2) to i32 (...)**), i32 (...)*** %2, align 8
  ret void
}

; Function Attrs: norecurse nounwind readnone ssp uwtable
define hidden void @_ZN20data_reduction_proxy9DataStoreD2Ev(%"class.data_reduction_proxy::DataStore"* nocapture) unnamed_addr #1 align 2 {
  ret void
}

; Function Attrs: nounwind ssp uwtable
define hidden void @_ZN20data_reduction_proxy9DataStoreD0Ev(%"class.data_reduction_proxy::DataStore"*) unnamed_addr #2 align 2 {
  %2 = bitcast %"class.data_reduction_proxy::DataStore"* %0 to i8*
  tail call void @_ZdlPv(i8* %2) #4
  ret void
}

; Function Attrs: nobuiltin nounwind
declare void @_ZdlPv(i8*) local_unnamed_addr #3

; Function Attrs: norecurse nounwind readnone ssp uwtable
define hidden void @_ZN20data_reduction_proxy9DataStore20InitializeOnDBThreadEv(%"class.data_reduction_proxy::DataStore"* nocapture) unnamed_addr #1 align 2 {
  ret void
}

; Function Attrs: norecurse nounwind readnone ssp uwtable
define hidden i32 @_ZN20data_reduction_proxy9DataStore3GetEN4base16BasicStringPieceIcNSt3__111char_traitsIcEEEEPNS3_12basic_stringIcS5_NS3_9allocatorIcEEEE(%"class.data_reduction_proxy::DataStore"* nocapture readnone, i8* nocapture readnone, i64, %"class.std::__1::basic_string"* nocapture readnone) unnamed_addr #1 align 2 {
  ret i32 1
}

; Function Attrs: norecurse nounwind readnone ssp uwtable
define hidden i32 @_ZN20data_reduction_proxy9DataStore3PutERKNSt3__13mapINS1_12basic_stringIcNS1_11char_traitsIcEENS1_9allocatorIcEEEES8_NS1_4lessIS8_EENS6_INS1_4pairIKS8_S8_EEEEEE(%"class.data_reduction_proxy::DataStore"* nocapture readnone, %"class.std::__1::map"* nocapture readnone) unnamed_addr #1 align 2 {
  ret i32 0
}

; Function Attrs: norecurse nounwind readnone ssp uwtable
define hidden i32 @_ZN20data_reduction_proxy9DataStore6DeleteEN4base16BasicStringPieceIcNSt3__111char_traitsIcEEEE(%"class.data_reduction_proxy::DataStore"* nocapture readnone, i8* nocapture readnone, i64) unnamed_addr #1 align 2 {
  ret i32 0
}

; Function Attrs: norecurse nounwind readnone ssp uwtable
define hidden i32 @_ZN20data_reduction_proxy9DataStore10RecreateDBEv(%"class.data_reduction_proxy::DataStore"* nocapture readnone) unnamed_addr #1 align 2 {
  ret i32 0
}

attributes #0 = { nofree norecurse nounwind ssp uwtable writeonly "correctly-rounded-divide-sqrt-fp-math"="false" "disable-tail-calls"="false" "less-precise-fpmad"="false" "min-legal-vector-width"="0" "no-frame-pointer-elim"="false" "no-frame-pointer-elim-non-leaf" "no-infs-fp-math"="false" "no-jump-tables"="false" "no-nans-fp-math"="false" "no-signed-zeros-fp-math"="false" "no-trapping-math"="false" "null-pointer-is-valid"="true" "stack-protector-buffer-size"="4" "target-cpu"="x86-64" "target-features"="+cx8,+fxsr,+mmx,+sse,+sse2,+sse3,+x87" "unsafe-fp-math"="false" "use-soft-float"="false" }
attributes #1 = { norecurse nounwind readnone ssp uwtable "correctly-rounded-divide-sqrt-fp-math"="false" "disable-tail-calls"="false" "less-precise-fpmad"="false" "min-legal-vector-width"="0" "no-frame-pointer-elim"="false" "no-frame-pointer-elim-non-leaf" "no-infs-fp-math"="false" "no-jump-tables"="false" "no-nans-fp-math"="false" "no-signed-zeros-fp-math"="false" "no-trapping-math"="false" "null-pointer-is-valid"="true" "stack-protector-buffer-size"="4" "target-cpu"="x86-64" "target-features"="+cx8,+fxsr,+mmx,+sse,+sse2,+sse3,+x87" "unsafe-fp-math"="false" "use-soft-float"="false" }
attributes #2 = { nounwind ssp uwtable "correctly-rounded-divide-sqrt-fp-math"="false" "disable-tail-calls"="false" "less-precise-fpmad"="false" "min-legal-vector-width"="0" "no-frame-pointer-elim"="false" "no-frame-pointer-elim-non-leaf" "no-infs-fp-math"="false" "no-jump-tables"="false" "no-nans-fp-math"="false" "no-signed-zeros-fp-math"="false" "no-trapping-math"="false" "null-pointer-is-valid"="true" "stack-protector-buffer-size"="4" "target-cpu"="x86-64" "target-features"="+cx8,+fxsr,+mmx,+sse,+sse2,+sse3,+x87" "unsafe-fp-math"="false" "use-soft-float"="false" }
attributes #3 = { nobuiltin nounwind "correctly-rounded-divide-sqrt-fp-math"="false" "disable-tail-calls"="false" "less-precise-fpmad"="false" "no-frame-pointer-elim"="false" "no-frame-pointer-elim-non-leaf" "no-infs-fp-math"="false" "no-nans-fp-math"="false" "no-signed-zeros-fp-math"="false" "no-trapping-math"="false" "null-pointer-is-valid"="true" "stack-protector-buffer-size"="4" "target-cpu"="x86-64" "target-features"="+cx8,+fxsr,+mmx,+sse,+sse2,+sse3,+x87" "unsafe-fp-math"="false" "use-soft-float"="false" }
attributes #4 = { builtin nounwind }

!llvm.module.flags = !{!0, !1}

!0 = !{i32 1, !"wchar_size", i32 4}
!1 = !{i32 7, !"PIC Level", i32 2}
