; ModuleID = '../../third_party/libgav1/src/src/post_filter/deblock.cc'
source_filename = "../../third_party/libgav1/src/src/post_filter/deblock.cc"
target datalayout = "e-m:e-i64:64-f80:128-n8:16:32:64-S128"
target triple = "x86_64-unknown-linux-gnu"

%"class.libgav1::PostFilter" = type <{ [2 x { i64, i64 }], %"struct.libgav1::ObuFrameHeader"*, %"struct.libgav1::LoopRestoration"*, %"struct.libgav1::dsp::Dsp"*, i32, i32, i32, i32, i8, [3 x i8], [3 x i8], i8, i32, [4 x i8], i8*, i8*, i8, [8 x [4 x [8 x [2 x i8]]]], [3 x i8], [3 x %struct.anon], %"class.libgav1::Array2D.23"*, %"class.libgav1::Array2D.31"*, %"class.libgav1::LoopRestorationInfo"*, [2 x i8*], %"class.libgav1::YuvBuffer"*, %"class.libgav1::BlockParametersHolder"*, %"class.libgav1::YuvBuffer", %"class.libgav1::YuvBuffer"*, [3 x i8*], [3 x i8*], [3 x i8*], [3 x i8*], %"class.libgav1::YuvBuffer"*, %"class.libgav1::YuvBuffer"*, i8, [7 x i8], %"class.libgav1::ThreadPool"*, i32, [9248 x i16], [4 x i8] }>
%"struct.libgav1::ObuFrameHeader" = type { i16, i16, i64, [7 x i16], i32, i32, i32, i32, i32, i32, i32, %"struct.libgav1::LoopRestoration", [32 x i32], i32, %"struct.std::__1::array", %"struct.libgav1::TileInfo", %"struct.libgav1::QuantizerParameters", %"struct.libgav1::Segmentation", i8, i8, i8, i8, i8, i8, i8, i8, i8, i8, i8, i8, i8, i8, i8, i8, i8, i8, i8, i8, i8, i8, i8, i8, i8, i8, i8, i8, [2 x i8], i8, i8, i8, %"struct.libgav1::Delta", %"struct.libgav1::Delta", [7 x i8], [8 x i8], %"struct.libgav1::LoopFilter", %"struct.libgav1::Cdef", %"struct.libgav1::FilmGrainParams" }
%"struct.libgav1::LoopRestoration" = type { [3 x i8], [3 x i32] }
%"struct.std::__1::array" = type { [8 x %"struct.libgav1::GlobalMotion"] }
%"struct.libgav1::GlobalMotion" = type { i8, [6 x i32], i16, i16, i16, i16 }
%"struct.libgav1::TileInfo" = type { i8, i32, i32, i32, i32, i32, [65 x i32], [65 x i32], i32, i32, [65 x i32], [65 x i32], i16, i8 }
%"struct.libgav1::QuantizerParameters" = type { i8, [3 x i8], [3 x i8], i8, [3 x i8] }
%"struct.libgav1::Segmentation" = type { i8, i8, i8, i8, i8, i8, [8 x [8 x i8]], [8 x [8 x i16]], [8 x i8], [8 x i8] }
%"struct.libgav1::Delta" = type { i8, i8, i8 }
%"struct.libgav1::LoopFilter" = type { %"struct.std::__1::array.0", i8, i8, i8, %"struct.std::__1::array.1", %"struct.std::__1::array.2" }
%"struct.std::__1::array.0" = type { [4 x i8] }
%"struct.std::__1::array.1" = type { [8 x i8] }
%"struct.std::__1::array.2" = type { [2 x i8] }
%"struct.libgav1::Cdef" = type { i8, i8, [8 x i8], [8 x i8], [8 x i8], [8 x i8] }
%"struct.libgav1::FilmGrainParams" = type { i8, i8, i8, i8, i8, i8, i8, i8, [14 x i8], [14 x i8], [10 x i8], [10 x i8], [10 x i8], [10 x i8], i8, i8, [24 x i8], [25 x i8], [25 x i8], i8, i16, i32, i32, i8, i8, i16, i8, i8, i16 }
%"struct.libgav1::dsp::Dsp" = type { void (i8*, i8*, i32, i32, i8*, i64)*, void (i8*, i64, i8*, i32*)*, [2 x [3 x void (i16*, i64, i32, i32, i32, i32, i32, i8*, i64)*]], [19 x void (i8*, i64, [32 x i16]*, i32)*], [19 x [3 x void ([32 x i16]*, i32, i32, i8*, i64)*]], [2 x [2 x [2 x [2 x void (i8*, i64, i32, i32, i32, i32, i32, i32, i8*, i64)*]]]], [2 x void (i8*, i64, i32, i32, i32, i32, i32, i32, i32, i32, i8*, i64)*], void (i8*, i64, i8*, i32, i32, i32, i1)*, void (i8*, i64, i8*, i8*, i32, i32, i32, i32, i1, i1)*, void (i8*, i64, i8*, i32, i32, i32, i1)*, void (i8*, i8*, i8, i8, i32, i32, i8*, i64)*, %"struct.libgav1::dsp::FilmGrainFuncs", void (i8*, i64, i8*, i8*, i8, i32, i32)*, [3 x void (i8*, i8*, i64, i8*, i64, i32, i32)*], void (i8*, i32, i32)*, void (i8*, i32)*, [19 x [10 x void (i8*, i64, i8*, i8*)*]], [4 x [5 x [2 x void (i8, i8, i32, i8*, i32, i32, i8*)*]]], [4 x [2 x void (i8*, i64, i32, i32, i32)*]], [2 x void (%"struct.libgav1::RestorationUnitInfo"*, i8*, i64, i8*, i64, i8*, i64, i32, i32, %"union.libgav1::RestorationBuffer"*, i8*)*], [3 x [2 x void (i8*, i8*, i64, i8*, i64, i32, i32, i8*, i64)*]], void (%"struct.libgav1::ReferenceInfo"*, i32, i32, i32, i32, i32, i32, %"struct.libgav1::TemporalMotionField"*)*, [3 x void (%"struct.libgav1::MotionVector"*, i8*, i32*, i32, %"union.libgav1::CompoundMotionVector"*)*], [3 x void (%"struct.libgav1::MotionVector"*, i8*, i32, i32, %"struct.libgav1::MotionVector"*)*], [2 x void (i8*, i64, i32, i32, i8*, i64)*], void (i32, i32, i32, i8*)*, void (i8*, i8*, i64, i32, i32, i32, i32, i32, i8*, i64)*, void (i8*, i64, i32, i32, i32*, i32, i32, i32, i32, i32, i32, i16, i16, i16, i16, i8*, i64)*, void (i8*, i64, i32, i32, i32*, i32, i32, i32, i32, i32, i32, i16, i16, i16, i16, i8*, i64)*, [6 x [6 x [2 x void (i8*, i8*, i8*, i64)*]]] }
%"struct.libgav1::dsp::FilmGrainFuncs" = type { [3 x void (%"struct.libgav1::FilmGrainParams"*, i8*)*], [2 x [4 x void (%"struct.libgav1::FilmGrainParams"*, i8*, i32, i32, i8*, i8*)*]], [2 x void (i8*, i32, i32, i32, i32, i32, i8*)*], void (i8*, i32, i32, i32, i32, i8*)*, void (i32, i8*, i8*, i8*)*, void (i8*, i32, i32, i32, i32, i32, i32, i8*, i8*, i64, i8*, i64)*, [2 x void (i8, %"struct.libgav1::FilmGrainParams"*, i8*, i32, i32, i32, i32, i32, i32, i32, i8*, i8*, i64, i8*, i64, i8*, i64)*] }
%"struct.libgav1::RestorationUnitInfo" = type { i8, %"struct.libgav1::SgrProjInfo", [16 x i8], %"struct.libgav1::WienerInfo" }
%"struct.libgav1::SgrProjInfo" = type { i32, [2 x i32] }
%"struct.libgav1::WienerInfo" = type { [2 x i16], [28 x i8], [2 x [4 x i16]], [16 x i8] }
%"union.libgav1::RestorationBuffer" = type { %"struct.libgav1::SgrBuffer", [5024 x i8] }
%"struct.libgav1::SgrBuffer" = type { [1152 x i16], [1440 x i16], [1152 x i32], [1440 x i32], [1024 x i16], [768 x i16], [512 x i16], [1024 x i32], [768 x i32], [512 x i32], [288 x i8], [288 x i32] }
%"struct.libgav1::ReferenceInfo" = type { %"struct.std::__1::array.3", %"struct.std::__1::array.1", %"struct.std::__1::array.1", %"struct.std::__1::array.4", %"struct.std::__1::array.5", %"class.libgav1::Array2D", %"class.libgav1::Array2D.7" }
%"struct.std::__1::array.3" = type { [8 x i8] }
%"struct.std::__1::array.4" = type { [8 x i8] }
%"struct.std::__1::array.5" = type { [8 x i16] }
%"class.libgav1::Array2D" = type { %"class.std::__1::unique_ptr", i64, i64, %"class.libgav1::Array2DView" }
%"class.std::__1::unique_ptr" = type { %"class.std::__1::__compressed_pair" }
%"class.std::__1::__compressed_pair" = type { %"struct.std::__1::__compressed_pair_elem" }
%"struct.std::__1::__compressed_pair_elem" = type { i8* }
%"class.libgav1::Array2DView" = type { i32, i32, i8* }
%"class.libgav1::Array2D.7" = type { %"class.std::__1::unique_ptr.8", i64, i64, %"class.libgav1::Array2DView.14" }
%"class.std::__1::unique_ptr.8" = type { %"class.std::__1::__compressed_pair.9" }
%"class.std::__1::__compressed_pair.9" = type { %"struct.std::__1::__compressed_pair_elem.10" }
%"struct.std::__1::__compressed_pair_elem.10" = type { %"struct.libgav1::MotionVector"* }
%"struct.libgav1::MotionVector" = type { %union.anon }
%union.anon = type { i32 }
%"class.libgav1::Array2DView.14" = type { i32, i32, %"struct.libgav1::MotionVector"* }
%"struct.libgav1::TemporalMotionField" = type { %"class.libgav1::Array2D.7", %"class.libgav1::Array2D.15" }
%"class.libgav1::Array2D.15" = type { %"class.std::__1::unique_ptr.16", i64, i64, %"class.libgav1::Array2DView.22" }
%"class.std::__1::unique_ptr.16" = type { %"class.std::__1::__compressed_pair.17" }
%"class.std::__1::__compressed_pair.17" = type { %"struct.std::__1::__compressed_pair_elem.18" }
%"struct.std::__1::__compressed_pair_elem.18" = type { i8* }
%"class.libgav1::Array2DView.22" = type { i32, i32, i8* }
%"union.libgav1::CompoundMotionVector" = type { i64 }
%struct.anon = type { i32, i32, i32 }
%"class.libgav1::Array2D.23" = type { %"class.std::__1::unique_ptr.24", i64, i64, %"class.libgav1::Array2DView.30" }
%"class.std::__1::unique_ptr.24" = type { %"class.std::__1::__compressed_pair.25" }
%"class.std::__1::__compressed_pair.25" = type { %"struct.std::__1::__compressed_pair_elem.26" }
%"struct.std::__1::__compressed_pair_elem.26" = type { i16* }
%"class.libgav1::Array2DView.30" = type { i32, i32, i16* }
%"class.libgav1::Array2D.31" = type { %"class.std::__1::unique_ptr.32", i64, i64, %"class.libgav1::Array2DView.38" }
%"class.std::__1::unique_ptr.32" = type { %"class.std::__1::__compressed_pair.33" }
%"class.std::__1::__compressed_pair.33" = type { %"struct.std::__1::__compressed_pair_elem.34" }
%"struct.std::__1::__compressed_pair_elem.34" = type { i8* }
%"class.libgav1::Array2DView.38" = type { i32, i32, i8* }
%"class.libgav1::LoopRestorationInfo" = type { [3 x %"struct.libgav1::RestorationUnitInfo"*], %"class.libgav1::DynamicBuffer", [3 x i8], %"struct.libgav1::LoopRestoration"*, i8, i8, [3 x i32], [3 x i32], [3 x i32] }
%"class.libgav1::DynamicBuffer" = type { %"class.std::__1::unique_ptr.39", i64 }
%"class.std::__1::unique_ptr.39" = type { %"class.std::__1::__compressed_pair.40" }
%"class.std::__1::__compressed_pair.40" = type { %"struct.std::__1::__compressed_pair_elem.41" }
%"struct.std::__1::__compressed_pair_elem.41" = type { %"struct.libgav1::RestorationUnitInfo"* }
%"class.libgav1::BlockParametersHolder" = type { i32, i32, %"class.libgav1::DynamicBuffer.51", %"struct.std::__1::atomic", %"class.libgav1::Array2D.60" }
%"class.libgav1::DynamicBuffer.51" = type { %"class.std::__1::unique_ptr.52", i64 }
%"class.std::__1::unique_ptr.52" = type { %"class.std::__1::__compressed_pair.53" }
%"class.std::__1::__compressed_pair.53" = type { %"struct.std::__1::__compressed_pair_elem.54" }
%"struct.std::__1::__compressed_pair_elem.54" = type { %"class.std::__1::unique_ptr.55"* }
%"class.std::__1::unique_ptr.55" = type { %"class.std::__1::__compressed_pair.87" }
%"class.std::__1::__compressed_pair.87" = type { %"struct.std::__1::__compressed_pair_elem.88" }
%"struct.std::__1::__compressed_pair_elem.88" = type { %"struct.libgav1::BlockParameters"* }
%"struct.libgav1::BlockParameters" = type { i8, i8, i8, i8, i8, i8, i8, i8, i8, i8, i8, i8, i8, [2 x i8], [2 x i8], [4 x i8], %"union.libgav1::CompoundMotionVector", %"struct.libgav1::PaletteModeInfo", %"class.std::__1::unique_ptr.64" }
%"struct.libgav1::PaletteModeInfo" = type { [2 x i8], [3 x [8 x i16]] }
%"class.std::__1::unique_ptr.64" = type { %"class.std::__1::__compressed_pair.65" }
%"class.std::__1::__compressed_pair.65" = type { %"struct.std::__1::__compressed_pair_elem.66" }
%"struct.std::__1::__compressed_pair_elem.66" = type { %"struct.libgav1::PredictionParameters"* }
%"struct.libgav1::PredictionParameters" = type { i8, i8, [2 x i32], i8, i8, i32, i32, [2 x %"class.libgav1::Array2D.67"], i8, i8, i8, i32, i32, i8, i8, i8, %union.anon.69, [8 x i16], i32, i32, i32, [2 x %"struct.libgav1::MotionVector"], i32, [8 x [4 x i32]] }
%"class.libgav1::Array2D.67" = type { %"class.std::__1::unique_ptr.45", i64, i64, %"class.libgav1::Array2DView.68" }
%"class.std::__1::unique_ptr.45" = type { %"class.std::__1::__compressed_pair.46" }
%"class.std::__1::__compressed_pair.46" = type { %"struct.std::__1::__compressed_pair_elem.47" }
%"struct.std::__1::__compressed_pair_elem.47" = type { i8* }
%"class.libgav1::Array2DView.68" = type { i32, i32, i8* }
%union.anon.69 = type { [8 x %"union.libgav1::CompoundMotionVector"] }
%"struct.std::__1::atomic" = type { %"struct.std::__1::__atomic_base" }
%"struct.std::__1::__atomic_base" = type { %"struct.std::__1::__atomic_base.59" }
%"struct.std::__1::__atomic_base.59" = type { %"struct.std::__1::__cxx_atomic_impl" }
%"struct.std::__1::__cxx_atomic_impl" = type { %"struct.std::__1::__cxx_atomic_base_impl" }
%"struct.std::__1::__cxx_atomic_base_impl" = type { i32 }
%"class.libgav1::Array2D.60" = type { %"class.std::__1::unique_ptr.61", i64, i64, %"class.libgav1::Array2DView.76" }
%"class.std::__1::unique_ptr.61" = type { %"class.std::__1::__compressed_pair.62" }
%"class.std::__1::__compressed_pair.62" = type { %"struct.std::__1::__compressed_pair_elem.63" }
%"struct.std::__1::__compressed_pair_elem.63" = type { %"struct.libgav1::BlockParameters"** }
%"class.libgav1::Array2DView.76" = type { i32, i32, %"struct.libgav1::BlockParameters"** }
%"class.libgav1::YuvBuffer" = type <{ i32, i8, [3 x i8], i32, i32, i32, i32, [3 x i32], [3 x i32], [3 x i32], [3 x i32], [3 x i32], [4 x i8], [3 x i8*], %"class.std::__1::unique_ptr.45", i64, i8, i8, [6 x i8] }>
%"class.libgav1::ThreadPool" = type { %"class.libgav1::Executor", %"class.std::__1::condition_variable", %"class.std::__1::mutex", %"class.libgav1::UnboundedQueue", %"class.std::__1::unique_ptr.81", i8, i32, [16 x i8] }
%"class.libgav1::Executor" = type { i32 (...)** }
%"class.std::__1::condition_variable" = type { %union.pthread_cond_t }
%union.pthread_cond_t = type { %struct.__pthread_cond_s }
%struct.__pthread_cond_s = type { %union.anon.77, %union.anon.79, [2 x i32], [2 x i32], i32, i32, [2 x i32] }
%union.anon.77 = type { i64 }
%union.anon.79 = type { i64 }
%"class.std::__1::mutex" = type { %union.pthread_mutex_t }
%union.pthread_mutex_t = type { %struct.__pthread_mutex_s }
%struct.__pthread_mutex_s = type { i32, i32, i32, i32, i32, i16, i16, %struct.__pthread_internal_list }
%struct.__pthread_internal_list = type { %struct.__pthread_internal_list*, %struct.__pthread_internal_list* }
%"class.libgav1::UnboundedQueue" = type { %"struct.libgav1::UnboundedQueue<std::__1::function<void ()> >::Block"*, i64, %"struct.libgav1::UnboundedQueue<std::__1::function<void ()> >::Block"*, i64 }
%"struct.libgav1::UnboundedQueue<std::__1::function<void ()> >::Block" = type opaque
%"class.std::__1::unique_ptr.81" = type { %"class.std::__1::__compressed_pair.82" }
%"class.std::__1::__compressed_pair.82" = type { %"struct.std::__1::__compressed_pair_elem.83" }
%"struct.std::__1::__compressed_pair_elem.83" = type { %"class.libgav1::ThreadPool::WorkerThread"** }
%"class.libgav1::ThreadPool::WorkerThread" = type opaque

$_ZN7libgav110PostFilter19DeblockFilterWorkerILNS_14LoopFilterTypeE0EEEvPNSt3__16atomicIiEE = comdat any

$_ZN7libgav110PostFilter19DeblockFilterWorkerILNS_14LoopFilterTypeE1EEEvPNSt3__16atomicIiEE = comdat any

@_ZN7libgav116kTransformHeightE = external local_unnamed_addr constant [19 x i8], align 16
@_ZN7libgav124kDeblockFilterLevelIndexE = external local_unnamed_addr constant [3 x [2 x i8]], align 1
@_ZN7libgav115kTransformWidthE = external local_unnamed_addr constant [19 x i8], align 16

; Function Attrs: nounwind ssp uwtable
define weak_odr hidden void @_ZN7libgav110PostFilter19DeblockFilterWorkerILNS_14LoopFilterTypeE0EEEvPNSt3__16atomicIiEE(%"class.libgav1::PostFilter"*, %"struct.std::__1::atomic"*) local_unnamed_addr #0 comdat align 2 {
  %3 = getelementptr inbounds %"struct.std::__1::atomic", %"struct.std::__1::atomic"* %1, i64 0, i32 0, i32 0, i32 0, i32 0, i32 0
  %4 = atomicrmw add i32* %3, i32 16 monotonic
  %5 = getelementptr inbounds %"class.libgav1::PostFilter", %"class.libgav1::PostFilter"* %0, i64 0, i32 1
  %6 = load %"struct.libgav1::ObuFrameHeader"*, %"struct.libgav1::ObuFrameHeader"** %5, align 8
  %7 = getelementptr inbounds %"struct.libgav1::ObuFrameHeader", %"struct.libgav1::ObuFrameHeader"* %6, i64 0, i32 7
  %8 = load i32, i32* %7, align 4
  %9 = icmp slt i32 %4, %8
  br i1 %9, label %10, label %50

10:                                               ; preds = %2
  %11 = getelementptr inbounds %"class.libgav1::PostFilter", %"class.libgav1::PostFilter"* %0, i64 0, i32 0, i64 0, i32 0
  %12 = getelementptr inbounds %"class.libgav1::PostFilter", %"class.libgav1::PostFilter"* %0, i64 0, i32 0, i64 0, i32 1
  %13 = bitcast %"class.libgav1::PostFilter"* %0 to i8*
  br label %20

14:                                               ; preds = %43, %20
  %15 = atomicrmw add i32* %3, i32 16 monotonic
  %16 = load %"struct.libgav1::ObuFrameHeader"*, %"struct.libgav1::ObuFrameHeader"** %5, align 8
  %17 = getelementptr inbounds %"struct.libgav1::ObuFrameHeader", %"struct.libgav1::ObuFrameHeader"* %16, i64 0, i32 7
  %18 = load i32, i32* %17, align 4
  %19 = icmp slt i32 %15, %18
  br i1 %19, label %20, label %50

20:                                               ; preds = %10, %14
  %21 = phi %"struct.libgav1::ObuFrameHeader"* [ %6, %10 ], [ %16, %14 ]
  %22 = phi i32 [ %4, %10 ], [ %15, %14 ]
  %23 = getelementptr inbounds %"struct.libgav1::ObuFrameHeader", %"struct.libgav1::ObuFrameHeader"* %21, i64 0, i32 6
  %24 = load i32, i32* %23, align 8
  %25 = icmp sgt i32 %24, 0
  br i1 %25, label %26, label %14

26:                                               ; preds = %20, %43
  %27 = phi i32 [ %45, %43 ], [ 0, %20 ]
  %28 = load i64, i64* %11, align 8
  %29 = load i64, i64* %12, align 8
  %30 = getelementptr inbounds i8, i8* %13, i64 %29
  %31 = bitcast i8* %30 to %"class.libgav1::PostFilter"*
  %32 = and i64 %28, 1
  %33 = icmp eq i64 %32, 0
  br i1 %33, label %41, label %34

34:                                               ; preds = %26
  %35 = bitcast i8* %30 to i8**
  %36 = load i8*, i8** %35, align 8
  %37 = add i64 %28, -1
  %38 = getelementptr i8, i8* %36, i64 %37
  %39 = bitcast i8* %38 to void (%"class.libgav1::PostFilter"*, i32, i32)**
  %40 = load void (%"class.libgav1::PostFilter"*, i32, i32)*, void (%"class.libgav1::PostFilter"*, i32, i32)** %39, align 8
  br label %43

41:                                               ; preds = %26
  %42 = inttoptr i64 %28 to void (%"class.libgav1::PostFilter"*, i32, i32)*
  br label %43

43:                                               ; preds = %41, %34
  %44 = phi void (%"class.libgav1::PostFilter"*, i32, i32)* [ %40, %34 ], [ %42, %41 ]
  tail call void %44(%"class.libgav1::PostFilter"* %31, i32 %22, i32 %27) #2
  %45 = add nuw nsw i32 %27, 16
  %46 = load %"struct.libgav1::ObuFrameHeader"*, %"struct.libgav1::ObuFrameHeader"** %5, align 8
  %47 = getelementptr inbounds %"struct.libgav1::ObuFrameHeader", %"struct.libgav1::ObuFrameHeader"* %46, i64 0, i32 6
  %48 = load i32, i32* %47, align 8
  %49 = icmp slt i32 %45, %48
  br i1 %49, label %26, label %14

50:                                               ; preds = %14, %2
  ret void
}

; Function Attrs: argmemonly nounwind
declare void @llvm.lifetime.start.p0i8(i64 immarg, i8* nocapture) #1

; Function Attrs: argmemonly nounwind
declare void @llvm.lifetime.end.p0i8(i64 immarg, i8* nocapture) #1

; Function Attrs: nounwind ssp uwtable
define weak_odr hidden void @_ZN7libgav110PostFilter19DeblockFilterWorkerILNS_14LoopFilterTypeE1EEEvPNSt3__16atomicIiEE(%"class.libgav1::PostFilter"*, %"struct.std::__1::atomic"*) local_unnamed_addr #0 comdat align 2 {
  %3 = getelementptr inbounds %"struct.std::__1::atomic", %"struct.std::__1::atomic"* %1, i64 0, i32 0, i32 0, i32 0, i32 0, i32 0
  %4 = atomicrmw add i32* %3, i32 16 monotonic
  %5 = getelementptr inbounds %"class.libgav1::PostFilter", %"class.libgav1::PostFilter"* %0, i64 0, i32 1
  %6 = load %"struct.libgav1::ObuFrameHeader"*, %"struct.libgav1::ObuFrameHeader"** %5, align 8
  %7 = getelementptr inbounds %"struct.libgav1::ObuFrameHeader", %"struct.libgav1::ObuFrameHeader"* %6, i64 0, i32 7
  %8 = load i32, i32* %7, align 4
  %9 = icmp slt i32 %4, %8
  br i1 %9, label %10, label %50

10:                                               ; preds = %2
  %11 = getelementptr inbounds %"class.libgav1::PostFilter", %"class.libgav1::PostFilter"* %0, i64 0, i32 0, i64 1, i32 0
  %12 = getelementptr inbounds %"class.libgav1::PostFilter", %"class.libgav1::PostFilter"* %0, i64 0, i32 0, i64 1, i32 1
  %13 = bitcast %"class.libgav1::PostFilter"* %0 to i8*
  br label %20

14:                                               ; preds = %43, %20
  %15 = atomicrmw add i32* %3, i32 16 monotonic
  %16 = load %"struct.libgav1::ObuFrameHeader"*, %"struct.libgav1::ObuFrameHeader"** %5, align 8
  %17 = getelementptr inbounds %"struct.libgav1::ObuFrameHeader", %"struct.libgav1::ObuFrameHeader"* %16, i64 0, i32 7
  %18 = load i32, i32* %17, align 4
  %19 = icmp slt i32 %15, %18
  br i1 %19, label %20, label %50

20:                                               ; preds = %10, %14
  %21 = phi %"struct.libgav1::ObuFrameHeader"* [ %6, %10 ], [ %16, %14 ]
  %22 = phi i32 [ %4, %10 ], [ %15, %14 ]
  %23 = getelementptr inbounds %"struct.libgav1::ObuFrameHeader", %"struct.libgav1::ObuFrameHeader"* %21, i64 0, i32 6
  %24 = load i32, i32* %23, align 8
  %25 = icmp sgt i32 %24, 0
  br i1 %25, label %26, label %14

26:                                               ; preds = %20, %43
  %27 = phi i32 [ %45, %43 ], [ 0, %20 ]
  %28 = load i64, i64* %11, align 8
  %29 = load i64, i64* %12, align 8
  %30 = getelementptr inbounds i8, i8* %13, i64 %29
  %31 = bitcast i8* %30 to %"class.libgav1::PostFilter"*
  %32 = and i64 %28, 1
  %33 = icmp eq i64 %32, 0
  br i1 %33, label %41, label %34

34:                                               ; preds = %26
  %35 = bitcast i8* %30 to i8**
  %36 = load i8*, i8** %35, align 8
  %37 = add i64 %28, -1
  %38 = getelementptr i8, i8* %36, i64 %37
  %39 = bitcast i8* %38 to void (%"class.libgav1::PostFilter"*, i32, i32)**
  %40 = load void (%"class.libgav1::PostFilter"*, i32, i32)*, void (%"class.libgav1::PostFilter"*, i32, i32)** %39, align 8
  br label %43

41:                                               ; preds = %26
  %42 = inttoptr i64 %28 to void (%"class.libgav1::PostFilter"*, i32, i32)*
  br label %43

43:                                               ; preds = %41, %34
  %44 = phi void (%"class.libgav1::PostFilter"*, i32, i32)* [ %40, %34 ], [ %42, %41 ]
  tail call void %44(%"class.libgav1::PostFilter"* %31, i32 %22, i32 %27) #2
  %45 = add nuw nsw i32 %27, 16
  %46 = load %"struct.libgav1::ObuFrameHeader"*, %"struct.libgav1::ObuFrameHeader"** %5, align 8
  %47 = getelementptr inbounds %"struct.libgav1::ObuFrameHeader", %"struct.libgav1::ObuFrameHeader"* %46, i64 0, i32 6
  %48 = load i32, i32* %47, align 8
  %49 = icmp slt i32 %45, %48
  br i1 %49, label %26, label %14

50:                                               ; preds = %14, %2
  ret void
}

; Function Attrs: nounwind ssp uwtable
define hidden void @_ZNK7libgav110PostFilter26ComputeDeblockFilterLevelsEPKaPA4_A8_A2_h(%"class.libgav1::PostFilter"* nocapture readonly, i8* nocapture readonly, [4 x [8 x [2 x i8]]]* nocapture) local_unnamed_addr #0 align 2 {
  %4 = getelementptr inbounds %"class.libgav1::PostFilter", %"class.libgav1::PostFilter"* %0, i64 0, i32 1
  %5 = load %"struct.libgav1::ObuFrameHeader"*, %"struct.libgav1::ObuFrameHeader"** %4, align 8
  %6 = getelementptr inbounds %"class.libgav1::PostFilter", %"class.libgav1::PostFilter"* %0, i64 0, i32 34
  %7 = load i8, i8* %6, align 8
  %8 = getelementptr inbounds %"struct.libgav1::ObuFrameHeader", %"struct.libgav1::ObuFrameHeader"* %5, i64 0, i32 54, i32 0, i32 0, i64 0
  %9 = load i8, i8* %8, align 1
  %10 = icmp sgt i8 %9, 0
  br i1 %10, label %15, label %11

11:                                               ; preds = %3
  %12 = getelementptr inbounds %"struct.libgav1::ObuFrameHeader", %"struct.libgav1::ObuFrameHeader"* %5, i64 0, i32 54, i32 0, i32 0, i64 1
  %13 = load i8, i8* %12, align 1
  %14 = icmp sgt i8 %13, 0
  br i1 %14, label %15, label %45

15:                                               ; preds = %3, %11
  %16 = and i8 %7, 1
  %17 = icmp eq i8 %16, 0
  br i1 %17, label %45, label %18

18:                                               ; preds = %15, %37
  %19 = phi %"struct.libgav1::ObuFrameHeader"* [ %39, %37 ], [ %5, %15 ]
  %20 = phi i64 [ %38, %37 ], [ 0, %15 ]
  %21 = getelementptr inbounds [4 x [8 x [2 x i8]]], [4 x [8 x [2 x i8]]]* %2, i64 %20, i64 0, i64 0
  %22 = trunc i64 %20 to i32
  tail call fastcc void @_ZN7libgav112_GLOBAL__N_132ComputeDeblockFilterLevelsHelperERKNS_14ObuFrameHeaderEiiPKaPA2_h(%"struct.libgav1::ObuFrameHeader"* dereferenceable(2080) %19, i32 %22, i32 0, i8* %1, [2 x i8]* %21)
  %23 = load %"struct.libgav1::ObuFrameHeader"*, %"struct.libgav1::ObuFrameHeader"** %4, align 8
  %24 = getelementptr inbounds [4 x [8 x [2 x i8]]], [4 x [8 x [2 x i8]]]* %2, i64 %20, i64 1, i64 0
  tail call fastcc void @_ZN7libgav112_GLOBAL__N_132ComputeDeblockFilterLevelsHelperERKNS_14ObuFrameHeaderEiiPKaPA2_h(%"struct.libgav1::ObuFrameHeader"* dereferenceable(2080) %23, i32 %22, i32 1, i8* %1, [2 x i8]* %24)
  %25 = load %"struct.libgav1::ObuFrameHeader"*, %"struct.libgav1::ObuFrameHeader"** %4, align 8
  %26 = getelementptr inbounds %"struct.libgav1::ObuFrameHeader", %"struct.libgav1::ObuFrameHeader"* %25, i64 0, i32 54, i32 0, i32 0, i64 2
  %27 = load i8, i8* %26, align 1
  %28 = icmp eq i8 %27, 0
  br i1 %28, label %32, label %29

29:                                               ; preds = %18
  %30 = getelementptr inbounds [4 x [8 x [2 x i8]]], [4 x [8 x [2 x i8]]]* %2, i64 %20, i64 2, i64 0
  tail call fastcc void @_ZN7libgav112_GLOBAL__N_132ComputeDeblockFilterLevelsHelperERKNS_14ObuFrameHeaderEiiPKaPA2_h(%"struct.libgav1::ObuFrameHeader"* dereferenceable(2080) %25, i32 %22, i32 2, i8* %1, [2 x i8]* %30)
  %31 = load %"struct.libgav1::ObuFrameHeader"*, %"struct.libgav1::ObuFrameHeader"** %4, align 8
  br label %32

32:                                               ; preds = %18, %29
  %33 = phi %"struct.libgav1::ObuFrameHeader"* [ %25, %18 ], [ %31, %29 ]
  %34 = getelementptr inbounds %"struct.libgav1::ObuFrameHeader", %"struct.libgav1::ObuFrameHeader"* %33, i64 0, i32 54, i32 0, i32 0, i64 3
  %35 = load i8, i8* %34, align 1
  %36 = icmp eq i8 %35, 0
  br i1 %36, label %37, label %46

37:                                               ; preds = %32, %46
  %38 = add nuw nsw i64 %20, 1
  %39 = load %"struct.libgav1::ObuFrameHeader"*, %"struct.libgav1::ObuFrameHeader"** %4, align 8
  %40 = getelementptr inbounds %"struct.libgav1::ObuFrameHeader", %"struct.libgav1::ObuFrameHeader"* %39, i64 0, i32 17, i32 0
  %41 = load i8, i8* %40, align 8, !range !2
  %42 = icmp eq i8 %41, 0
  %43 = select i1 %42, i64 1, i64 8
  %44 = icmp ult i64 %38, %43
  br i1 %44, label %18, label %45

45:                                               ; preds = %37, %15, %11
  ret void

46:                                               ; preds = %32
  %47 = getelementptr inbounds [4 x [8 x [2 x i8]]], [4 x [8 x [2 x i8]]]* %2, i64 %20, i64 3, i64 0
  tail call fastcc void @_ZN7libgav112_GLOBAL__N_132ComputeDeblockFilterLevelsHelperERKNS_14ObuFrameHeaderEiiPKaPA2_h(%"struct.libgav1::ObuFrameHeader"* dereferenceable(2080) %33, i32 %22, i32 3, i8* %1, [2 x i8]* %47)
  br label %37
}

; Function Attrs: nounwind ssp uwtable
define internal fastcc void @_ZN7libgav112_GLOBAL__N_132ComputeDeblockFilterLevelsHelperERKNS_14ObuFrameHeaderEiiPKaPA2_h(%"struct.libgav1::ObuFrameHeader"* nocapture readonly dereferenceable(2080), i32, i32, i8* nocapture readonly, [2 x i8]* nocapture) unnamed_addr #0 {
  %6 = getelementptr inbounds %"struct.libgav1::ObuFrameHeader", %"struct.libgav1::ObuFrameHeader"* %0, i64 0, i32 51, i32 2
  %7 = load i8, i8* %6, align 2, !range !2
  %8 = icmp eq i8 %7, 0
  %9 = sext i32 %2 to i64
  %10 = select i1 %8, i64 0, i64 %9
  %11 = getelementptr inbounds i8, i8* %3, i64 %10
  %12 = load i8, i8* %11, align 1
  %13 = sext i8 %12 to i32
  %14 = getelementptr inbounds %"struct.libgav1::ObuFrameHeader", %"struct.libgav1::ObuFrameHeader"* %0, i64 0, i32 54, i32 0, i32 0, i64 %9
  %15 = load i8, i8* %14, align 1
  %16 = sext i8 %15 to i32
  %17 = add nsw i32 %16, %13
  %18 = icmp slt i32 %17, 63
  %19 = select i1 %18, i32 %17, i32 63
  %20 = icmp sgt i32 %19, 0
  %21 = select i1 %20, i32 %19, i32 0
  %22 = and i32 %21, 255
  %23 = sext i32 %1 to i64
  %24 = add i32 %2, 1
  %25 = and i32 %24, 255
  %26 = zext i32 %25 to i64
  %27 = getelementptr inbounds %"struct.libgav1::ObuFrameHeader", %"struct.libgav1::ObuFrameHeader"* %0, i64 0, i32 17, i32 7, i64 %23, i64 %26
  %28 = load i16, i16* %27, align 2
  %29 = sext i16 %28 to i32
  %30 = add nsw i32 %22, %29
  %31 = icmp slt i32 %30, 63
  %32 = select i1 %31, i32 %30, i32 63
  %33 = icmp sgt i32 %32, 0
  %34 = select i1 %33, i32 %32, i32 0
  %35 = getelementptr inbounds %"struct.libgav1::ObuFrameHeader", %"struct.libgav1::ObuFrameHeader"* %0, i64 0, i32 54, i32 2
  %36 = load i8, i8* %35, align 1, !range !2
  %37 = icmp eq i8 %36, 0
  br i1 %37, label %38, label %41

38:                                               ; preds = %5
  %39 = trunc i32 %34 to i8
  %40 = getelementptr inbounds [2 x i8], [2 x i8]* %4, i64 0, i64 0
  tail call void @llvm.memset.p0i8.i64(i8* align 1 %40, i8 %39, i64 16, i1 false)
  br label %246

41:                                               ; preds = %5
  %42 = and i32 %34, 255
  %43 = lshr i32 %42, 5
  %44 = getelementptr inbounds %"struct.libgav1::ObuFrameHeader", %"struct.libgav1::ObuFrameHeader"* %0, i64 0, i32 54, i32 4, i32 0, i64 0
  %45 = load i8, i8* %44, align 1
  %46 = sext i8 %45 to i32
  %47 = shl i32 %46, %43
  %48 = add nsw i32 %47, %42
  %49 = icmp slt i32 %48, 63
  %50 = select i1 %49, i32 %48, i32 63
  %51 = icmp sgt i32 %50, 0
  %52 = select i1 %51, i32 %50, i32 0
  %53 = trunc i32 %52 to i8
  %54 = getelementptr inbounds [2 x i8], [2 x i8]* %4, i64 0, i64 0
  store i8 %53, i8* %54, align 1
  %55 = getelementptr inbounds %"struct.libgav1::ObuFrameHeader", %"struct.libgav1::ObuFrameHeader"* %0, i64 0, i32 54, i32 4, i32 0, i64 1
  %56 = load i8, i8* %55, align 1
  %57 = sext i8 %56 to i32
  %58 = getelementptr inbounds %"struct.libgav1::ObuFrameHeader", %"struct.libgav1::ObuFrameHeader"* %0, i64 0, i32 54, i32 5, i32 0, i64 0
  %59 = load i8, i8* %58, align 1
  %60 = sext i8 %59 to i32
  %61 = add nsw i32 %60, %57
  %62 = shl i32 %61, %43
  %63 = add nsw i32 %62, %42
  %64 = icmp slt i32 %63, 63
  %65 = select i1 %64, i32 %63, i32 63
  %66 = icmp sgt i32 %65, 0
  %67 = select i1 %66, i32 %65, i32 0
  %68 = trunc i32 %67 to i8
  %69 = getelementptr inbounds [2 x i8], [2 x i8]* %4, i64 1, i64 0
  store i8 %68, i8* %69, align 1
  %70 = load i8, i8* %55, align 1
  %71 = sext i8 %70 to i32
  %72 = getelementptr inbounds %"struct.libgav1::ObuFrameHeader", %"struct.libgav1::ObuFrameHeader"* %0, i64 0, i32 54, i32 5, i32 0, i64 1
  %73 = load i8, i8* %72, align 1
  %74 = sext i8 %73 to i32
  %75 = add nsw i32 %74, %71
  %76 = shl i32 %75, %43
  %77 = add nsw i32 %76, %42
  %78 = icmp slt i32 %77, 63
  %79 = select i1 %78, i32 %77, i32 63
  %80 = icmp sgt i32 %79, 0
  %81 = select i1 %80, i32 %79, i32 0
  %82 = trunc i32 %81 to i8
  %83 = getelementptr inbounds [2 x i8], [2 x i8]* %4, i64 1, i64 1
  store i8 %82, i8* %83, align 1
  %84 = getelementptr inbounds %"struct.libgav1::ObuFrameHeader", %"struct.libgav1::ObuFrameHeader"* %0, i64 0, i32 54, i32 4, i32 0, i64 2
  %85 = load i8, i8* %84, align 1
  %86 = sext i8 %85 to i32
  %87 = load i8, i8* %58, align 1
  %88 = sext i8 %87 to i32
  %89 = add nsw i32 %88, %86
  %90 = shl i32 %89, %43
  %91 = add nsw i32 %90, %42
  %92 = icmp slt i32 %91, 63
  %93 = select i1 %92, i32 %91, i32 63
  %94 = icmp sgt i32 %93, 0
  %95 = select i1 %94, i32 %93, i32 0
  %96 = trunc i32 %95 to i8
  %97 = getelementptr inbounds [2 x i8], [2 x i8]* %4, i64 2, i64 0
  store i8 %96, i8* %97, align 1
  %98 = load i8, i8* %84, align 1
  %99 = sext i8 %98 to i32
  %100 = load i8, i8* %72, align 1
  %101 = sext i8 %100 to i32
  %102 = add nsw i32 %101, %99
  %103 = shl i32 %102, %43
  %104 = add nsw i32 %103, %42
  %105 = icmp slt i32 %104, 63
  %106 = select i1 %105, i32 %104, i32 63
  %107 = icmp sgt i32 %106, 0
  %108 = select i1 %107, i32 %106, i32 0
  %109 = trunc i32 %108 to i8
  %110 = getelementptr inbounds [2 x i8], [2 x i8]* %4, i64 2, i64 1
  store i8 %109, i8* %110, align 1
  %111 = getelementptr inbounds %"struct.libgav1::ObuFrameHeader", %"struct.libgav1::ObuFrameHeader"* %0, i64 0, i32 54, i32 4, i32 0, i64 3
  %112 = load i8, i8* %111, align 1
  %113 = sext i8 %112 to i32
  %114 = load i8, i8* %58, align 1
  %115 = sext i8 %114 to i32
  %116 = add nsw i32 %115, %113
  %117 = shl i32 %116, %43
  %118 = add nsw i32 %117, %42
  %119 = icmp slt i32 %118, 63
  %120 = select i1 %119, i32 %118, i32 63
  %121 = icmp sgt i32 %120, 0
  %122 = select i1 %121, i32 %120, i32 0
  %123 = trunc i32 %122 to i8
  %124 = getelementptr inbounds [2 x i8], [2 x i8]* %4, i64 3, i64 0
  store i8 %123, i8* %124, align 1
  %125 = load i8, i8* %111, align 1
  %126 = sext i8 %125 to i32
  %127 = load i8, i8* %72, align 1
  %128 = sext i8 %127 to i32
  %129 = add nsw i32 %128, %126
  %130 = shl i32 %129, %43
  %131 = add nsw i32 %130, %42
  %132 = icmp slt i32 %131, 63
  %133 = select i1 %132, i32 %131, i32 63
  %134 = icmp sgt i32 %133, 0
  %135 = select i1 %134, i32 %133, i32 0
  %136 = trunc i32 %135 to i8
  %137 = getelementptr inbounds [2 x i8], [2 x i8]* %4, i64 3, i64 1
  store i8 %136, i8* %137, align 1
  %138 = getelementptr inbounds %"struct.libgav1::ObuFrameHeader", %"struct.libgav1::ObuFrameHeader"* %0, i64 0, i32 54, i32 4, i32 0, i64 4
  %139 = load i8, i8* %138, align 1
  %140 = sext i8 %139 to i32
  %141 = load i8, i8* %58, align 1
  %142 = sext i8 %141 to i32
  %143 = add nsw i32 %142, %140
  %144 = shl i32 %143, %43
  %145 = add nsw i32 %144, %42
  %146 = icmp slt i32 %145, 63
  %147 = select i1 %146, i32 %145, i32 63
  %148 = icmp sgt i32 %147, 0
  %149 = select i1 %148, i32 %147, i32 0
  %150 = trunc i32 %149 to i8
  %151 = getelementptr inbounds [2 x i8], [2 x i8]* %4, i64 4, i64 0
  store i8 %150, i8* %151, align 1
  %152 = load i8, i8* %138, align 1
  %153 = sext i8 %152 to i32
  %154 = load i8, i8* %72, align 1
  %155 = sext i8 %154 to i32
  %156 = add nsw i32 %155, %153
  %157 = shl i32 %156, %43
  %158 = add nsw i32 %157, %42
  %159 = icmp slt i32 %158, 63
  %160 = select i1 %159, i32 %158, i32 63
  %161 = icmp sgt i32 %160, 0
  %162 = select i1 %161, i32 %160, i32 0
  %163 = trunc i32 %162 to i8
  %164 = getelementptr inbounds [2 x i8], [2 x i8]* %4, i64 4, i64 1
  store i8 %163, i8* %164, align 1
  %165 = getelementptr inbounds %"struct.libgav1::ObuFrameHeader", %"struct.libgav1::ObuFrameHeader"* %0, i64 0, i32 54, i32 4, i32 0, i64 5
  %166 = load i8, i8* %165, align 1
  %167 = sext i8 %166 to i32
  %168 = load i8, i8* %58, align 1
  %169 = sext i8 %168 to i32
  %170 = add nsw i32 %169, %167
  %171 = shl i32 %170, %43
  %172 = add nsw i32 %171, %42
  %173 = icmp slt i32 %172, 63
  %174 = select i1 %173, i32 %172, i32 63
  %175 = icmp sgt i32 %174, 0
  %176 = select i1 %175, i32 %174, i32 0
  %177 = trunc i32 %176 to i8
  %178 = getelementptr inbounds [2 x i8], [2 x i8]* %4, i64 5, i64 0
  store i8 %177, i8* %178, align 1
  %179 = load i8, i8* %165, align 1
  %180 = sext i8 %179 to i32
  %181 = load i8, i8* %72, align 1
  %182 = sext i8 %181 to i32
  %183 = add nsw i32 %182, %180
  %184 = shl i32 %183, %43
  %185 = add nsw i32 %184, %42
  %186 = icmp slt i32 %185, 63
  %187 = select i1 %186, i32 %185, i32 63
  %188 = icmp sgt i32 %187, 0
  %189 = select i1 %188, i32 %187, i32 0
  %190 = trunc i32 %189 to i8
  %191 = getelementptr inbounds [2 x i8], [2 x i8]* %4, i64 5, i64 1
  store i8 %190, i8* %191, align 1
  %192 = getelementptr inbounds %"struct.libgav1::ObuFrameHeader", %"struct.libgav1::ObuFrameHeader"* %0, i64 0, i32 54, i32 4, i32 0, i64 6
  %193 = load i8, i8* %192, align 1
  %194 = sext i8 %193 to i32
  %195 = load i8, i8* %58, align 1
  %196 = sext i8 %195 to i32
  %197 = add nsw i32 %196, %194
  %198 = shl i32 %197, %43
  %199 = add nsw i32 %198, %42
  %200 = icmp slt i32 %199, 63
  %201 = select i1 %200, i32 %199, i32 63
  %202 = icmp sgt i32 %201, 0
  %203 = select i1 %202, i32 %201, i32 0
  %204 = trunc i32 %203 to i8
  %205 = getelementptr inbounds [2 x i8], [2 x i8]* %4, i64 6, i64 0
  store i8 %204, i8* %205, align 1
  %206 = load i8, i8* %192, align 1
  %207 = sext i8 %206 to i32
  %208 = load i8, i8* %72, align 1
  %209 = sext i8 %208 to i32
  %210 = add nsw i32 %209, %207
  %211 = shl i32 %210, %43
  %212 = add nsw i32 %211, %42
  %213 = icmp slt i32 %212, 63
  %214 = select i1 %213, i32 %212, i32 63
  %215 = icmp sgt i32 %214, 0
  %216 = select i1 %215, i32 %214, i32 0
  %217 = trunc i32 %216 to i8
  %218 = getelementptr inbounds [2 x i8], [2 x i8]* %4, i64 6, i64 1
  store i8 %217, i8* %218, align 1
  %219 = getelementptr inbounds %"struct.libgav1::ObuFrameHeader", %"struct.libgav1::ObuFrameHeader"* %0, i64 0, i32 54, i32 4, i32 0, i64 7
  %220 = load i8, i8* %219, align 1
  %221 = sext i8 %220 to i32
  %222 = load i8, i8* %58, align 1
  %223 = sext i8 %222 to i32
  %224 = add nsw i32 %223, %221
  %225 = shl i32 %224, %43
  %226 = add nsw i32 %225, %42
  %227 = icmp slt i32 %226, 63
  %228 = select i1 %227, i32 %226, i32 63
  %229 = icmp sgt i32 %228, 0
  %230 = select i1 %229, i32 %228, i32 0
  %231 = trunc i32 %230 to i8
  %232 = getelementptr inbounds [2 x i8], [2 x i8]* %4, i64 7, i64 0
  store i8 %231, i8* %232, align 1
  %233 = load i8, i8* %219, align 1
  %234 = sext i8 %233 to i32
  %235 = load i8, i8* %72, align 1
  %236 = sext i8 %235 to i32
  %237 = add nsw i32 %236, %234
  %238 = shl i32 %237, %43
  %239 = add nsw i32 %238, %42
  %240 = icmp slt i32 %239, 63
  %241 = select i1 %240, i32 %239, i32 63
  %242 = icmp sgt i32 %241, 0
  %243 = select i1 %242, i32 %241, i32 0
  %244 = trunc i32 %243 to i8
  %245 = getelementptr inbounds [2 x i8], [2 x i8]* %4, i64 7, i64 1
  store i8 %244, i8* %245, align 1
  br label %246

246:                                              ; preds = %41, %38
  ret void
}

; Function Attrs: nounwind ssp uwtable
define hidden zeroext i1 @_ZNK7libgav110PostFilter34GetHorizontalDeblockFilterEdgeInfoEiiPhPiS2_(%"class.libgav1::PostFilter"* nocapture readonly, i32, i32, i8* nocapture, i32* nocapture, i32* nocapture) local_unnamed_addr #0 align 2 {
  %7 = getelementptr inbounds %"class.libgav1::PostFilter", %"class.libgav1::PostFilter"* %0, i64 0, i32 21
  %8 = load %"class.libgav1::Array2D.31"*, %"class.libgav1::Array2D.31"** %7, align 8
  %9 = sext i32 %1 to i64
  %10 = getelementptr inbounds %"class.libgav1::Array2D.31", %"class.libgav1::Array2D.31"* %8, i64 0, i32 3, i32 1
  %11 = load i32, i32* %10, align 4
  %12 = sext i32 %11 to i64
  %13 = mul nsw i64 %12, %9
  %14 = getelementptr inbounds %"class.libgav1::Array2D.31", %"class.libgav1::Array2D.31"* %8, i64 0, i32 3, i32 2
  %15 = load i8*, i8** %14, align 8
  %16 = getelementptr inbounds i8, i8* %15, i64 %13
  %17 = sext i32 %2 to i64
  %18 = getelementptr inbounds i8, i8* %16, i64 %17
  %19 = load i8, i8* %18, align 1
  %20 = zext i8 %19 to i64
  %21 = getelementptr inbounds [19 x i8], [19 x i8]* @_ZN7libgav116kTransformHeightE, i64 0, i64 %20
  %22 = load i8, i8* %21, align 1
  %23 = zext i8 %22 to i32
  store i32 %23, i32* %4, align 4
  %24 = icmp eq i32 %1, 0
  br i1 %24, label %82, label %25

25:                                               ; preds = %6
  %26 = getelementptr inbounds %"class.libgav1::PostFilter", %"class.libgav1::PostFilter"* %0, i64 0, i32 25
  %27 = load %"class.libgav1::BlockParametersHolder"*, %"class.libgav1::BlockParametersHolder"** %26, align 8
  %28 = getelementptr inbounds %"class.libgav1::BlockParametersHolder", %"class.libgav1::BlockParametersHolder"* %27, i64 0, i32 4, i32 3, i32 1
  %29 = load i32, i32* %28, align 4
  %30 = sext i32 %29 to i64
  %31 = mul nsw i64 %30, %9
  %32 = getelementptr inbounds %"class.libgav1::BlockParametersHolder", %"class.libgav1::BlockParametersHolder"* %27, i64 0, i32 4, i32 3, i32 2
  %33 = load %"struct.libgav1::BlockParameters"**, %"struct.libgav1::BlockParameters"*** %32, align 8
  %34 = getelementptr inbounds %"struct.libgav1::BlockParameters"*, %"struct.libgav1::BlockParameters"** %33, i64 %31
  %35 = getelementptr inbounds %"struct.libgav1::BlockParameters"*, %"struct.libgav1::BlockParameters"** %34, i64 %17
  %36 = load %"struct.libgav1::BlockParameters"*, %"struct.libgav1::BlockParameters"** %35, align 8
  %37 = add nsw i32 %1, -1
  %38 = sext i32 %37 to i64
  %39 = mul nsw i64 %30, %38
  %40 = getelementptr inbounds %"struct.libgav1::BlockParameters"*, %"struct.libgav1::BlockParameters"** %33, i64 %39
  %41 = getelementptr inbounds %"struct.libgav1::BlockParameters"*, %"struct.libgav1::BlockParameters"** %40, i64 %17
  %42 = load %"struct.libgav1::BlockParameters"*, %"struct.libgav1::BlockParameters"** %41, align 8
  %43 = icmp eq %"struct.libgav1::BlockParameters"* %36, %42
  %44 = getelementptr inbounds %"struct.libgav1::BlockParameters", %"struct.libgav1::BlockParameters"* %36, i64 0, i32 15, i64 1
  %45 = load i8, i8* %44, align 1
  br i1 %43, label %46, label %56

46:                                               ; preds = %25
  %47 = icmp eq i8 %45, 0
  br i1 %47, label %82, label %48

48:                                               ; preds = %46
  %49 = getelementptr inbounds %"struct.libgav1::BlockParameters", %"struct.libgav1::BlockParameters"* %36, i64 0, i32 1
  %50 = load i8, i8* %49, align 1, !range !2
  %51 = icmp eq i8 %50, 0
  br i1 %51, label %62, label %52

52:                                               ; preds = %48
  %53 = getelementptr inbounds %"struct.libgav1::BlockParameters", %"struct.libgav1::BlockParameters"* %36, i64 0, i32 3
  %54 = load i8, i8* %53, align 1, !range !2
  %55 = icmp eq i8 %54, 0
  br i1 %55, label %62, label %82

56:                                               ; preds = %25
  store i8 %45, i8* %3, align 1
  %57 = icmp eq i8 %45, 0
  br i1 %57, label %58, label %64

58:                                               ; preds = %56
  %59 = getelementptr inbounds %"struct.libgav1::BlockParameters", %"struct.libgav1::BlockParameters"* %42, i64 0, i32 15, i64 1
  %60 = load i8, i8* %59, align 1
  %61 = icmp eq i8 %60, 0
  br i1 %61, label %82, label %62

62:                                               ; preds = %58, %52, %48
  %63 = phi i8 [ %45, %48 ], [ %45, %52 ], [ %60, %58 ]
  store i8 %63, i8* %3, align 1
  br label %64

64:                                               ; preds = %62, %56
  %65 = load %"class.libgav1::Array2D.31"*, %"class.libgav1::Array2D.31"** %7, align 8
  %66 = getelementptr inbounds %"class.libgav1::Array2D.31", %"class.libgav1::Array2D.31"* %65, i64 0, i32 3, i32 1
  %67 = load i32, i32* %66, align 4
  %68 = sext i32 %67 to i64
  %69 = mul nsw i64 %68, %38
  %70 = getelementptr inbounds %"class.libgav1::Array2D.31", %"class.libgav1::Array2D.31"* %65, i64 0, i32 3, i32 2
  %71 = load i8*, i8** %70, align 8
  %72 = getelementptr inbounds i8, i8* %71, i64 %69
  %73 = getelementptr inbounds i8, i8* %72, i64 %17
  %74 = load i8, i8* %73, align 1
  %75 = zext i8 %74 to i64
  %76 = getelementptr inbounds [19 x i8], [19 x i8]* @_ZN7libgav116kTransformHeightE, i64 0, i64 %75
  %77 = load i8, i8* %76, align 1
  %78 = zext i8 %77 to i32
  %79 = load i32, i32* %4, align 4
  %80 = icmp sgt i32 %79, %78
  %81 = select i1 %80, i32 %78, i32 %79
  store i32 %81, i32* %5, align 4
  br label %82

82:                                               ; preds = %46, %52, %58, %64, %6
  %83 = phi i1 [ false, %6 ], [ true, %64 ], [ false, %58 ], [ false, %52 ], [ false, %46 ]
  ret i1 %83
}

; Function Attrs: nounwind ssp uwtable
define hidden void @_ZNK7libgav110PostFilter36GetHorizontalDeblockFilterEdgeInfoUVEiiPhS1_PiS2_(%"class.libgav1::PostFilter"* nocapture readonly, i32, i32, i8* nocapture, i8* nocapture, i32* nocapture, i32* nocapture) local_unnamed_addr #0 align 2 {
  %8 = getelementptr inbounds %"class.libgav1::PostFilter", %"class.libgav1::PostFilter"* %0, i64 0, i32 9, i64 1
  %9 = load i8, i8* %8, align 1
  %10 = sext i8 %9 to i32
  %11 = getelementptr inbounds %"class.libgav1::PostFilter", %"class.libgav1::PostFilter"* %0, i64 0, i32 10, i64 1
  %12 = load i8, i8* %11, align 1
  %13 = sext i8 %12 to i32
  %14 = or i32 %13, %1
  %15 = or i32 %10, %2
  %16 = getelementptr inbounds %"class.libgav1::PostFilter", %"class.libgav1::PostFilter"* %0, i64 0, i32 25
  %17 = load %"class.libgav1::BlockParametersHolder"*, %"class.libgav1::BlockParametersHolder"** %16, align 8
  %18 = sext i32 %14 to i64
  %19 = getelementptr inbounds %"class.libgav1::BlockParametersHolder", %"class.libgav1::BlockParametersHolder"* %17, i64 0, i32 4, i32 3, i32 1
  %20 = load i32, i32* %19, align 4
  %21 = sext i32 %20 to i64
  %22 = mul nsw i64 %21, %18
  %23 = getelementptr inbounds %"class.libgav1::BlockParametersHolder", %"class.libgav1::BlockParametersHolder"* %17, i64 0, i32 4, i32 3, i32 2
  %24 = load %"struct.libgav1::BlockParameters"**, %"struct.libgav1::BlockParameters"*** %23, align 8
  %25 = getelementptr inbounds %"struct.libgav1::BlockParameters"*, %"struct.libgav1::BlockParameters"** %24, i64 %22
  %26 = sext i32 %15 to i64
  %27 = getelementptr inbounds %"struct.libgav1::BlockParameters"*, %"struct.libgav1::BlockParameters"** %25, i64 %26
  %28 = load %"struct.libgav1::BlockParameters"*, %"struct.libgav1::BlockParameters"** %27, align 8
  store i8 0, i8* %3, align 1
  store i8 0, i8* %4, align 1
  %29 = getelementptr inbounds %"struct.libgav1::BlockParameters", %"struct.libgav1::BlockParameters"* %28, i64 0, i32 12
  %30 = load i8, i8* %29, align 4
  %31 = zext i8 %30 to i64
  %32 = getelementptr inbounds [19 x i8], [19 x i8]* @_ZN7libgav116kTransformHeightE, i64 0, i64 %31
  %33 = load i8, i8* %32, align 1
  %34 = zext i8 %33 to i32
  store i32 %34, i32* %5, align 4
  %35 = icmp eq i32 %14, %13
  br i1 %35, label %128, label %36

36:                                               ; preds = %7
  %37 = getelementptr inbounds %"class.libgav1::PostFilter", %"class.libgav1::PostFilter"* %0, i64 0, i32 1
  %38 = load %"struct.libgav1::ObuFrameHeader"*, %"struct.libgav1::ObuFrameHeader"** %37, align 8
  %39 = getelementptr inbounds %"struct.libgav1::ObuFrameHeader", %"struct.libgav1::ObuFrameHeader"* %38, i64 0, i32 54, i32 0, i32 0, i64 2
  %40 = load i8, i8* %39, align 1
  %41 = icmp ne i8 %40, 0
  %42 = getelementptr inbounds %"struct.libgav1::ObuFrameHeader", %"struct.libgav1::ObuFrameHeader"* %38, i64 0, i32 54, i32 0, i32 0, i64 3
  %43 = load i8, i8* %42, align 1
  %44 = icmp ne i8 %43, 0
  %45 = load i8, i8* getelementptr inbounds ([3 x [2 x i8]], [3 x [2 x i8]]* @_ZN7libgav124kDeblockFilterLevelIndexE, i64 0, i64 1, i64 1), align 1
  %46 = load i8, i8* getelementptr inbounds ([3 x [2 x i8]], [3 x [2 x i8]]* @_ZN7libgav124kDeblockFilterLevelIndexE, i64 0, i64 2, i64 1), align 1
  %47 = shl i32 1, %13
  %48 = sub nsw i32 %14, %47
  %49 = load %"class.libgav1::BlockParametersHolder"*, %"class.libgav1::BlockParametersHolder"** %16, align 8
  %50 = sext i32 %48 to i64
  %51 = getelementptr inbounds %"class.libgav1::BlockParametersHolder", %"class.libgav1::BlockParametersHolder"* %49, i64 0, i32 4, i32 3, i32 1
  %52 = load i32, i32* %51, align 4
  %53 = sext i32 %52 to i64
  %54 = mul nsw i64 %53, %50
  %55 = getelementptr inbounds %"class.libgav1::BlockParametersHolder", %"class.libgav1::BlockParametersHolder"* %49, i64 0, i32 4, i32 3, i32 2
  %56 = load %"struct.libgav1::BlockParameters"**, %"struct.libgav1::BlockParameters"*** %55, align 8
  %57 = getelementptr inbounds %"struct.libgav1::BlockParameters"*, %"struct.libgav1::BlockParameters"** %56, i64 %54
  %58 = getelementptr inbounds %"struct.libgav1::BlockParameters"*, %"struct.libgav1::BlockParameters"** %57, i64 %26
  %59 = load %"struct.libgav1::BlockParameters"*, %"struct.libgav1::BlockParameters"** %58, align 8
  %60 = icmp eq %"struct.libgav1::BlockParameters"* %28, %59
  br i1 %60, label %61, label %100

61:                                               ; preds = %36
  %62 = getelementptr inbounds %"struct.libgav1::BlockParameters", %"struct.libgav1::BlockParameters"* %28, i64 0, i32 1
  %63 = load i8, i8* %62, align 1, !range !2
  %64 = icmp eq i8 %63, 0
  br i1 %64, label %69, label %65

65:                                               ; preds = %61
  %66 = getelementptr inbounds %"struct.libgav1::BlockParameters", %"struct.libgav1::BlockParameters"* %28, i64 0, i32 3
  %67 = load i8, i8* %66, align 1, !range !2
  %68 = icmp eq i8 %67, 0
  br label %69

69:                                               ; preds = %61, %65
  %70 = phi i1 [ true, %61 ], [ %68, %65 ]
  br i1 %41, label %71, label %77

71:                                               ; preds = %69
  %72 = zext i8 %45 to i64
  %73 = getelementptr inbounds %"struct.libgav1::BlockParameters", %"struct.libgav1::BlockParameters"* %28, i64 0, i32 15, i64 %72
  %74 = load i8, i8* %73, align 1
  %75 = icmp ne i8 %74, 0
  %76 = and i1 %70, %75
  br label %77

77:                                               ; preds = %71, %69
  %78 = phi i1 [ false, %69 ], [ %76, %71 ]
  br i1 %44, label %79, label %85

79:                                               ; preds = %77
  %80 = zext i8 %46 to i64
  %81 = getelementptr inbounds %"struct.libgav1::BlockParameters", %"struct.libgav1::BlockParameters"* %28, i64 0, i32 15, i64 %80
  %82 = load i8, i8* %81, align 1
  %83 = icmp ne i8 %82, 0
  %84 = and i1 %70, %83
  br label %85

85:                                               ; preds = %79, %77
  %86 = phi i1 [ false, %77 ], [ %84, %79 ]
  %87 = or i1 %78, %86
  br i1 %87, label %88, label %128

88:                                               ; preds = %85
  br i1 %78, label %89, label %93

89:                                               ; preds = %88
  %90 = zext i8 %45 to i64
  %91 = getelementptr inbounds %"struct.libgav1::BlockParameters", %"struct.libgav1::BlockParameters"* %28, i64 0, i32 15, i64 %90
  %92 = load i8, i8* %91, align 1
  store i8 %92, i8* %3, align 1
  br label %93

93:                                               ; preds = %89, %88
  br i1 %86, label %94, label %98

94:                                               ; preds = %93
  %95 = zext i8 %46 to i64
  %96 = getelementptr inbounds %"struct.libgav1::BlockParameters", %"struct.libgav1::BlockParameters"* %28, i64 0, i32 15, i64 %95
  %97 = load i8, i8* %96, align 1
  store i8 %97, i8* %4, align 1
  br label %98

98:                                               ; preds = %94, %93
  %99 = load i32, i32* %5, align 4
  store i32 %99, i32* %6, align 4
  br label %128

100:                                              ; preds = %36
  br i1 %41, label %101, label %109

101:                                              ; preds = %100
  %102 = zext i8 %45 to i64
  %103 = getelementptr inbounds %"struct.libgav1::BlockParameters", %"struct.libgav1::BlockParameters"* %28, i64 0, i32 15, i64 %102
  %104 = load i8, i8* %103, align 1
  store i8 %104, i8* %3, align 1
  %105 = icmp eq i8 %104, 0
  br i1 %105, label %106, label %109

106:                                              ; preds = %101
  %107 = getelementptr inbounds %"struct.libgav1::BlockParameters", %"struct.libgav1::BlockParameters"* %59, i64 0, i32 15, i64 %102
  %108 = load i8, i8* %107, align 1
  store i8 %108, i8* %3, align 1
  br label %109

109:                                              ; preds = %101, %106, %100
  br i1 %44, label %110, label %118

110:                                              ; preds = %109
  %111 = zext i8 %46 to i64
  %112 = getelementptr inbounds %"struct.libgav1::BlockParameters", %"struct.libgav1::BlockParameters"* %28, i64 0, i32 15, i64 %111
  %113 = load i8, i8* %112, align 1
  store i8 %113, i8* %4, align 1
  %114 = icmp eq i8 %113, 0
  br i1 %114, label %115, label %118

115:                                              ; preds = %110
  %116 = getelementptr inbounds %"struct.libgav1::BlockParameters", %"struct.libgav1::BlockParameters"* %59, i64 0, i32 15, i64 %111
  %117 = load i8, i8* %116, align 1
  store i8 %117, i8* %4, align 1
  br label %118

118:                                              ; preds = %110, %115, %109
  %119 = getelementptr inbounds %"struct.libgav1::BlockParameters", %"struct.libgav1::BlockParameters"* %59, i64 0, i32 12
  %120 = load i8, i8* %119, align 4
  %121 = zext i8 %120 to i64
  %122 = getelementptr inbounds [19 x i8], [19 x i8]* @_ZN7libgav116kTransformHeightE, i64 0, i64 %121
  %123 = load i8, i8* %122, align 1
  %124 = zext i8 %123 to i32
  %125 = load i32, i32* %5, align 4
  %126 = icmp sgt i32 %125, %124
  %127 = select i1 %126, i32 %124, i32 %125
  store i32 %127, i32* %6, align 4
  br label %128

128:                                              ; preds = %118, %85, %98, %7
  ret void
}

; Function Attrs: nounwind ssp uwtable
define hidden zeroext i1 @_ZNK7libgav110PostFilter32GetVerticalDeblockFilterEdgeInfoEiiPKPNS_15BlockParametersEPhPiS6_(%"class.libgav1::PostFilter"* nocapture readonly, i32, i32, %"struct.libgav1::BlockParameters"** nocapture readonly, i8* nocapture, i32* nocapture, i32* nocapture) local_unnamed_addr #0 align 2 {
  %8 = load %"struct.libgav1::BlockParameters"*, %"struct.libgav1::BlockParameters"** %3, align 8
  %9 = getelementptr inbounds %"class.libgav1::PostFilter", %"class.libgav1::PostFilter"* %0, i64 0, i32 21
  %10 = load %"class.libgav1::Array2D.31"*, %"class.libgav1::Array2D.31"** %9, align 8
  %11 = sext i32 %1 to i64
  %12 = getelementptr inbounds %"class.libgav1::Array2D.31", %"class.libgav1::Array2D.31"* %10, i64 0, i32 3, i32 1
  %13 = load i32, i32* %12, align 4
  %14 = sext i32 %13 to i64
  %15 = mul nsw i64 %14, %11
  %16 = getelementptr inbounds %"class.libgav1::Array2D.31", %"class.libgav1::Array2D.31"* %10, i64 0, i32 3, i32 2
  %17 = load i8*, i8** %16, align 8
  %18 = getelementptr inbounds i8, i8* %17, i64 %15
  %19 = sext i32 %2 to i64
  %20 = getelementptr inbounds i8, i8* %18, i64 %19
  %21 = load i8, i8* %20, align 1
  %22 = zext i8 %21 to i64
  %23 = getelementptr inbounds [19 x i8], [19 x i8]* @_ZN7libgav115kTransformWidthE, i64 0, i64 %22
  %24 = load i8, i8* %23, align 1
  %25 = zext i8 %24 to i32
  store i32 %25, i32* %5, align 4
  %26 = icmp eq i32 %2, 0
  br i1 %26, label %71, label %27

27:                                               ; preds = %7
  %28 = add nsw i32 %2, -1
  %29 = getelementptr inbounds %"struct.libgav1::BlockParameters"*, %"struct.libgav1::BlockParameters"** %3, i64 -1
  %30 = load %"struct.libgav1::BlockParameters"*, %"struct.libgav1::BlockParameters"** %29, align 8
  %31 = icmp eq %"struct.libgav1::BlockParameters"* %8, %30
  %32 = getelementptr inbounds %"struct.libgav1::BlockParameters", %"struct.libgav1::BlockParameters"* %8, i64 0, i32 15, i64 0
  %33 = load i8, i8* %32, align 1
  br i1 %31, label %34, label %44

34:                                               ; preds = %27
  %35 = icmp eq i8 %33, 0
  br i1 %35, label %71, label %36

36:                                               ; preds = %34
  %37 = getelementptr inbounds %"struct.libgav1::BlockParameters", %"struct.libgav1::BlockParameters"* %8, i64 0, i32 1
  %38 = load i8, i8* %37, align 1, !range !2
  %39 = icmp eq i8 %38, 0
  br i1 %39, label %50, label %40

40:                                               ; preds = %36
  %41 = getelementptr inbounds %"struct.libgav1::BlockParameters", %"struct.libgav1::BlockParameters"* %8, i64 0, i32 3
  %42 = load i8, i8* %41, align 1, !range !2
  %43 = icmp eq i8 %42, 0
  br i1 %43, label %50, label %71

44:                                               ; preds = %27
  store i8 %33, i8* %4, align 1
  %45 = icmp eq i8 %33, 0
  br i1 %45, label %46, label %52

46:                                               ; preds = %44
  %47 = getelementptr inbounds %"struct.libgav1::BlockParameters", %"struct.libgav1::BlockParameters"* %30, i64 0, i32 15, i64 0
  %48 = load i8, i8* %47, align 1
  %49 = icmp eq i8 %48, 0
  br i1 %49, label %71, label %50

50:                                               ; preds = %46, %40, %36
  %51 = phi i8 [ %33, %36 ], [ %33, %40 ], [ %48, %46 ]
  store i8 %51, i8* %4, align 1
  br label %52

52:                                               ; preds = %50, %44
  %53 = load %"class.libgav1::Array2D.31"*, %"class.libgav1::Array2D.31"** %9, align 8
  %54 = getelementptr inbounds %"class.libgav1::Array2D.31", %"class.libgav1::Array2D.31"* %53, i64 0, i32 3, i32 1
  %55 = load i32, i32* %54, align 4
  %56 = sext i32 %55 to i64
  %57 = mul nsw i64 %56, %11
  %58 = getelementptr inbounds %"class.libgav1::Array2D.31", %"class.libgav1::Array2D.31"* %53, i64 0, i32 3, i32 2
  %59 = load i8*, i8** %58, align 8
  %60 = getelementptr inbounds i8, i8* %59, i64 %57
  %61 = sext i32 %28 to i64
  %62 = getelementptr inbounds i8, i8* %60, i64 %61
  %63 = load i8, i8* %62, align 1
  %64 = zext i8 %63 to i64
  %65 = getelementptr inbounds [19 x i8], [19 x i8]* @_ZN7libgav115kTransformWidthE, i64 0, i64 %64
  %66 = load i8, i8* %65, align 1
  %67 = zext i8 %66 to i32
  %68 = load i32, i32* %5, align 4
  %69 = icmp sgt i32 %68, %67
  %70 = select i1 %69, i32 %67, i32 %68
  store i32 %70, i32* %6, align 4
  br label %71

71:                                               ; preds = %34, %40, %46, %52, %7
  %72 = phi i1 [ false, %7 ], [ true, %52 ], [ false, %46 ], [ false, %40 ], [ false, %34 ]
  ret i1 %72
}

; Function Attrs: nounwind ssp uwtable
define hidden void @_ZNK7libgav110PostFilter34GetVerticalDeblockFilterEdgeInfoUVEiPKPNS_15BlockParametersEPhS5_PiS6_(%"class.libgav1::PostFilter"* nocapture readonly, i32, %"struct.libgav1::BlockParameters"** nocapture readonly, i8* nocapture, i8* nocapture, i32* nocapture, i32* nocapture) local_unnamed_addr #0 align 2 {
  %8 = getelementptr inbounds %"class.libgav1::PostFilter", %"class.libgav1::PostFilter"* %0, i64 0, i32 9, i64 1
  %9 = load i8, i8* %8, align 1
  %10 = sext i8 %9 to i32
  %11 = or i32 %10, %1
  %12 = load %"struct.libgav1::BlockParameters"*, %"struct.libgav1::BlockParameters"** %2, align 8
  store i8 0, i8* %3, align 1
  store i8 0, i8* %4, align 1
  %13 = getelementptr inbounds %"struct.libgav1::BlockParameters", %"struct.libgav1::BlockParameters"* %12, i64 0, i32 12
  %14 = load i8, i8* %13, align 4
  %15 = zext i8 %14 to i64
  %16 = getelementptr inbounds [19 x i8], [19 x i8]* @_ZN7libgav115kTransformWidthE, i64 0, i64 %15
  %17 = load i8, i8* %16, align 1
  %18 = zext i8 %17 to i32
  store i32 %18, i32* %5, align 4
  %19 = icmp eq i32 %11, %10
  br i1 %19, label %103, label %20

20:                                               ; preds = %7
  %21 = getelementptr inbounds %"class.libgav1::PostFilter", %"class.libgav1::PostFilter"* %0, i64 0, i32 1
  %22 = load %"struct.libgav1::ObuFrameHeader"*, %"struct.libgav1::ObuFrameHeader"** %21, align 8
  %23 = getelementptr inbounds %"struct.libgav1::ObuFrameHeader", %"struct.libgav1::ObuFrameHeader"* %22, i64 0, i32 54, i32 0, i32 0, i64 2
  %24 = load i8, i8* %23, align 1
  %25 = icmp ne i8 %24, 0
  %26 = getelementptr inbounds %"struct.libgav1::ObuFrameHeader", %"struct.libgav1::ObuFrameHeader"* %22, i64 0, i32 54, i32 0, i32 0, i64 3
  %27 = load i8, i8* %26, align 1
  %28 = icmp ne i8 %27, 0
  %29 = load i8, i8* getelementptr inbounds ([3 x [2 x i8]], [3 x [2 x i8]]* @_ZN7libgav124kDeblockFilterLevelIndexE, i64 0, i64 1, i64 0), align 1
  %30 = load i8, i8* getelementptr inbounds ([3 x [2 x i8]], [3 x [2 x i8]]* @_ZN7libgav124kDeblockFilterLevelIndexE, i64 0, i64 2, i64 0), align 1
  %31 = zext i32 %10 to i64
  %32 = shl i64 -1, %31
  %33 = getelementptr inbounds %"struct.libgav1::BlockParameters"*, %"struct.libgav1::BlockParameters"** %2, i64 %32
  %34 = load %"struct.libgav1::BlockParameters"*, %"struct.libgav1::BlockParameters"** %33, align 8
  %35 = icmp eq %"struct.libgav1::BlockParameters"* %12, %34
  br i1 %35, label %36, label %75

36:                                               ; preds = %20
  %37 = getelementptr inbounds %"struct.libgav1::BlockParameters", %"struct.libgav1::BlockParameters"* %12, i64 0, i32 1
  %38 = load i8, i8* %37, align 1, !range !2
  %39 = icmp eq i8 %38, 0
  br i1 %39, label %44, label %40

40:                                               ; preds = %36
  %41 = getelementptr inbounds %"struct.libgav1::BlockParameters", %"struct.libgav1::BlockParameters"* %12, i64 0, i32 3
  %42 = load i8, i8* %41, align 1, !range !2
  %43 = icmp eq i8 %42, 0
  br label %44

44:                                               ; preds = %36, %40
  %45 = phi i1 [ true, %36 ], [ %43, %40 ]
  br i1 %25, label %46, label %52

46:                                               ; preds = %44
  %47 = zext i8 %29 to i64
  %48 = getelementptr inbounds %"struct.libgav1::BlockParameters", %"struct.libgav1::BlockParameters"* %12, i64 0, i32 15, i64 %47
  %49 = load i8, i8* %48, align 1
  %50 = icmp ne i8 %49, 0
  %51 = and i1 %45, %50
  br label %52

52:                                               ; preds = %46, %44
  %53 = phi i1 [ false, %44 ], [ %51, %46 ]
  br i1 %28, label %54, label %60

54:                                               ; preds = %52
  %55 = zext i8 %30 to i64
  %56 = getelementptr inbounds %"struct.libgav1::BlockParameters", %"struct.libgav1::BlockParameters"* %12, i64 0, i32 15, i64 %55
  %57 = load i8, i8* %56, align 1
  %58 = icmp ne i8 %57, 0
  %59 = and i1 %45, %58
  br label %60

60:                                               ; preds = %54, %52
  %61 = phi i1 [ false, %52 ], [ %59, %54 ]
  %62 = or i1 %53, %61
  br i1 %62, label %63, label %103

63:                                               ; preds = %60
  br i1 %53, label %64, label %68

64:                                               ; preds = %63
  %65 = zext i8 %29 to i64
  %66 = getelementptr inbounds %"struct.libgav1::BlockParameters", %"struct.libgav1::BlockParameters"* %12, i64 0, i32 15, i64 %65
  %67 = load i8, i8* %66, align 1
  store i8 %67, i8* %3, align 1
  br label %68

68:                                               ; preds = %64, %63
  br i1 %61, label %69, label %73

69:                                               ; preds = %68
  %70 = zext i8 %30 to i64
  %71 = getelementptr inbounds %"struct.libgav1::BlockParameters", %"struct.libgav1::BlockParameters"* %12, i64 0, i32 15, i64 %70
  %72 = load i8, i8* %71, align 1
  store i8 %72, i8* %4, align 1
  br label %73

73:                                               ; preds = %69, %68
  %74 = load i32, i32* %5, align 4
  store i32 %74, i32* %6, align 4
  br label %103

75:                                               ; preds = %20
  br i1 %25, label %76, label %84

76:                                               ; preds = %75
  %77 = zext i8 %29 to i64
  %78 = getelementptr inbounds %"struct.libgav1::BlockParameters", %"struct.libgav1::BlockParameters"* %12, i64 0, i32 15, i64 %77
  %79 = load i8, i8* %78, align 1
  store i8 %79, i8* %3, align 1
  %80 = icmp eq i8 %79, 0
  br i1 %80, label %81, label %84

81:                                               ; preds = %76
  %82 = getelementptr inbounds %"struct.libgav1::BlockParameters", %"struct.libgav1::BlockParameters"* %34, i64 0, i32 15, i64 %77
  %83 = load i8, i8* %82, align 1
  store i8 %83, i8* %3, align 1
  br label %84

84:                                               ; preds = %76, %81, %75
  br i1 %28, label %85, label %93

85:                                               ; preds = %84
  %86 = zext i8 %30 to i64
  %87 = getelementptr inbounds %"struct.libgav1::BlockParameters", %"struct.libgav1::BlockParameters"* %12, i64 0, i32 15, i64 %86
  %88 = load i8, i8* %87, align 1
  store i8 %88, i8* %4, align 1
  %89 = icmp eq i8 %88, 0
  br i1 %89, label %90, label %93

90:                                               ; preds = %85
  %91 = getelementptr inbounds %"struct.libgav1::BlockParameters", %"struct.libgav1::BlockParameters"* %34, i64 0, i32 15, i64 %86
  %92 = load i8, i8* %91, align 1
  store i8 %92, i8* %4, align 1
  br label %93

93:                                               ; preds = %85, %90, %84
  %94 = getelementptr inbounds %"struct.libgav1::BlockParameters", %"struct.libgav1::BlockParameters"* %34, i64 0, i32 12
  %95 = load i8, i8* %94, align 4
  %96 = zext i8 %95 to i64
  %97 = getelementptr inbounds [19 x i8], [19 x i8]* @_ZN7libgav115kTransformWidthE, i64 0, i64 %96
  %98 = load i8, i8* %97, align 1
  %99 = zext i8 %98 to i32
  %100 = load i32, i32* %5, align 4
  %101 = icmp sgt i32 %100, %99
  %102 = select i1 %101, i32 %99, i32 %100
  store i32 %102, i32* %6, align 4
  br label %103

103:                                              ; preds = %93, %60, %73, %7
  ret void
}

; Function Attrs: nounwind ssp uwtable
define hidden void @_ZN7libgav110PostFilter23HorizontalDeblockFilterEii(%"class.libgav1::PostFilter"* readonly, i32, i32) local_unnamed_addr #0 align 2 {
  %4 = alloca i32, align 4
  %5 = alloca i8, align 1
  %6 = alloca i8, align 1
  %7 = alloca i32, align 4
  %8 = getelementptr inbounds %"class.libgav1::PostFilter", %"class.libgav1::PostFilter"* %0, i64 0, i32 12
  %9 = load i32, i32* %8, align 8
  %10 = shl i32 4, %9
  %11 = getelementptr inbounds %"class.libgav1::PostFilter", %"class.libgav1::PostFilter"* %0, i64 0, i32 27
  %12 = load %"class.libgav1::YuvBuffer"*, %"class.libgav1::YuvBuffer"** %11, align 8
  %13 = getelementptr inbounds %"class.libgav1::YuvBuffer", %"class.libgav1::YuvBuffer"* %12, i64 0, i32 11, i64 0
  %14 = load i32, i32* %13, align 4
  %15 = sext i32 %14 to i64
  %16 = getelementptr inbounds %"class.libgav1::PostFilter", %"class.libgav1::PostFilter"* %0, i64 0, i32 28, i64 0
  %17 = load i8*, i8** %16, align 8
  %18 = shl i32 %1, 2
  %19 = shl i32 %2, 2
  %20 = getelementptr inbounds %"class.libgav1::PostFilter", %"class.libgav1::PostFilter"* %0, i64 0, i32 10, i64 0
  %21 = load i8, i8* %20, align 1
  %22 = sext i8 %21 to i32
  %23 = ashr i32 %18, %22
  %24 = mul nsw i32 %23, %14
  %25 = sext i32 %24 to i64
  %26 = getelementptr inbounds i8, i8* %17, i64 %25
  %27 = getelementptr inbounds %"class.libgav1::PostFilter", %"class.libgav1::PostFilter"* %0, i64 0, i32 9, i64 0
  %28 = load i8, i8* %27, align 1
  %29 = sext i8 %28 to i32
  %30 = ashr i32 %19, %29
  %31 = shl i32 %30, %9
  %32 = sext i32 %31 to i64
  %33 = getelementptr inbounds i8, i8* %26, i64 %32
  %34 = getelementptr inbounds %"class.libgav1::PostFilter", %"class.libgav1::PostFilter"* %0, i64 0, i32 6
  %35 = getelementptr inbounds %"class.libgav1::PostFilter", %"class.libgav1::PostFilter"* %0, i64 0, i32 7
  %36 = getelementptr inbounds %"class.libgav1::PostFilter", %"class.libgav1::PostFilter"* %0, i64 0, i32 21
  %37 = getelementptr inbounds %"class.libgav1::PostFilter", %"class.libgav1::PostFilter"* %0, i64 0, i32 25
  %38 = getelementptr inbounds %"class.libgav1::PostFilter", %"class.libgav1::PostFilter"* %0, i64 0, i32 3
  %39 = getelementptr inbounds %"class.libgav1::PostFilter", %"class.libgav1::PostFilter"* %0, i64 0, i32 15
  %40 = getelementptr inbounds %"class.libgav1::PostFilter", %"class.libgav1::PostFilter"* %0, i64 0, i32 14
  %41 = sext i32 %10 to i64
  %42 = sext i32 %2 to i64
  br label %43

43:                                               ; preds = %62, %3
  %44 = phi i64 [ 0, %3 ], [ %63, %62 ]
  %45 = phi i8* [ %33, %3 ], [ %64, %62 ]
  %46 = add nsw i64 %44, %42
  %47 = trunc i64 %46 to i32
  %48 = shl i32 %47, 2
  %49 = load i32, i32* %34, align 8
  %50 = icmp slt i32 %48, %49
  br i1 %50, label %55, label %51

51:                                               ; preds = %62, %43
  %52 = getelementptr inbounds %"class.libgav1::PostFilter", %"class.libgav1::PostFilter"* %0, i64 0, i32 16
  %53 = load i8, i8* %52, align 8, !range !2
  %54 = icmp eq i8 %53, 0
  br i1 %54, label %274, label %155

55:                                               ; preds = %43, %148
  %56 = phi i32 [ %153, %148 ], [ 0, %43 ]
  %57 = phi i8* [ %151, %148 ], [ %45, %43 ]
  %58 = add nsw i32 %56, %1
  %59 = shl i32 %58, 2
  %60 = load i32, i32* %35, align 4
  %61 = icmp slt i32 %59, %60
  br i1 %61, label %66, label %62

62:                                               ; preds = %148, %55
  %63 = add nuw nsw i64 %44, 1
  %64 = getelementptr inbounds i8, i8* %45, i64 %41
  %65 = icmp eq i64 %63, 16
  br i1 %65, label %51, label %43

66:                                               ; preds = %55
  %67 = load %"class.libgav1::Array2D.31"*, %"class.libgav1::Array2D.31"** %36, align 8
  %68 = sext i32 %58 to i64
  %69 = getelementptr inbounds %"class.libgav1::Array2D.31", %"class.libgav1::Array2D.31"* %67, i64 0, i32 3, i32 1
  %70 = load i32, i32* %69, align 4
  %71 = sext i32 %70 to i64
  %72 = mul nsw i64 %71, %68
  %73 = getelementptr inbounds %"class.libgav1::Array2D.31", %"class.libgav1::Array2D.31"* %67, i64 0, i32 3, i32 2
  %74 = load i8*, i8** %73, align 8
  %75 = getelementptr inbounds i8, i8* %74, i64 %46
  %76 = getelementptr inbounds i8, i8* %75, i64 %72
  %77 = load i8, i8* %76, align 1
  %78 = zext i8 %77 to i64
  %79 = getelementptr inbounds [19 x i8], [19 x i8]* @_ZN7libgav116kTransformHeightE, i64 0, i64 %78
  %80 = load i8, i8* %79, align 1
  %81 = zext i8 %80 to i32
  %82 = icmp eq i32 %58, 0
  br i1 %82, label %148, label %83

83:                                               ; preds = %66
  %84 = load %"class.libgav1::BlockParametersHolder"*, %"class.libgav1::BlockParametersHolder"** %37, align 8
  %85 = getelementptr inbounds %"class.libgav1::BlockParametersHolder", %"class.libgav1::BlockParametersHolder"* %84, i64 0, i32 4, i32 3, i32 1
  %86 = load i32, i32* %85, align 4
  %87 = sext i32 %86 to i64
  %88 = mul nsw i64 %87, %68
  %89 = getelementptr inbounds %"class.libgav1::BlockParametersHolder", %"class.libgav1::BlockParametersHolder"* %84, i64 0, i32 4, i32 3, i32 2
  %90 = load %"struct.libgav1::BlockParameters"**, %"struct.libgav1::BlockParameters"*** %89, align 8
  %91 = getelementptr inbounds %"struct.libgav1::BlockParameters"*, %"struct.libgav1::BlockParameters"** %90, i64 %46
  %92 = getelementptr inbounds %"struct.libgav1::BlockParameters"*, %"struct.libgav1::BlockParameters"** %91, i64 %88
  %93 = load %"struct.libgav1::BlockParameters"*, %"struct.libgav1::BlockParameters"** %92, align 8
  %94 = add nsw i32 %58, -1
  %95 = sext i32 %94 to i64
  %96 = mul nsw i64 %87, %95
  %97 = getelementptr inbounds %"struct.libgav1::BlockParameters"*, %"struct.libgav1::BlockParameters"** %91, i64 %96
  %98 = load %"struct.libgav1::BlockParameters"*, %"struct.libgav1::BlockParameters"** %97, align 8
  %99 = icmp eq %"struct.libgav1::BlockParameters"* %93, %98
  %100 = getelementptr inbounds %"struct.libgav1::BlockParameters", %"struct.libgav1::BlockParameters"* %93, i64 0, i32 15, i64 1
  %101 = load i8, i8* %100, align 1
  %102 = icmp eq i8 %101, 0
  br i1 %99, label %103, label %112

103:                                              ; preds = %83
  br i1 %102, label %148, label %104

104:                                              ; preds = %103
  %105 = getelementptr inbounds %"struct.libgav1::BlockParameters", %"struct.libgav1::BlockParameters"* %93, i64 0, i32 1
  %106 = load i8, i8* %105, align 1, !range !2
  %107 = icmp eq i8 %106, 0
  br i1 %107, label %117, label %108

108:                                              ; preds = %104
  %109 = getelementptr inbounds %"struct.libgav1::BlockParameters", %"struct.libgav1::BlockParameters"* %93, i64 0, i32 3
  %110 = load i8, i8* %109, align 1, !range !2
  %111 = icmp eq i8 %110, 0
  br i1 %111, label %117, label %148

112:                                              ; preds = %83
  br i1 %102, label %113, label %117

113:                                              ; preds = %112
  %114 = getelementptr inbounds %"struct.libgav1::BlockParameters", %"struct.libgav1::BlockParameters"* %98, i64 0, i32 15, i64 1
  %115 = load i8, i8* %114, align 1
  %116 = icmp eq i8 %115, 0
  br i1 %116, label %148, label %117

117:                                              ; preds = %113, %104, %108, %112
  %118 = phi i8 [ %101, %112 ], [ %101, %108 ], [ %101, %104 ], [ %115, %113 ]
  %119 = mul nsw i64 %71, %95
  %120 = getelementptr inbounds i8, i8* %75, i64 %119
  %121 = load i8, i8* %120, align 1
  %122 = zext i8 %121 to i64
  %123 = getelementptr inbounds [19 x i8], [19 x i8]* @_ZN7libgav116kTransformHeightE, i64 0, i64 %122
  %124 = load i8, i8* %123, align 1
  %125 = zext i8 %124 to i32
  %126 = icmp ugt i32 %81, %125
  %127 = select i1 %126, i32 %125, i32 %81
  %128 = icmp sgt i32 %127, 4
  %129 = zext i1 %128 to i64
  %130 = shl nuw nsw i64 %129, 1
  %131 = icmp sgt i32 %127, 8
  %132 = zext i1 %131 to i64
  %133 = or i64 %130, %132
  %134 = load %"struct.libgav1::dsp::Dsp"*, %"struct.libgav1::dsp::Dsp"** %38, align 8
  %135 = getelementptr inbounds %"struct.libgav1::dsp::Dsp", %"struct.libgav1::dsp::Dsp"* %134, i64 0, i32 18, i64 %133, i64 1
  %136 = load void (i8*, i64, i32, i32, i32)*, void (i8*, i64, i32, i32, i32)** %135, align 8
  %137 = load i8*, i8** %39, align 8
  %138 = zext i8 %118 to i64
  %139 = getelementptr inbounds i8, i8* %137, i64 %138
  %140 = load i8, i8* %139, align 1
  %141 = zext i8 %140 to i32
  %142 = load i8*, i8** %40, align 8
  %143 = getelementptr inbounds i8, i8* %142, i64 %138
  %144 = load i8, i8* %143, align 1
  %145 = zext i8 %144 to i32
  %146 = lshr i8 %118, 4
  %147 = zext i8 %146 to i32
  tail call void %136(i8* %57, i64 %15, i32 %141, i32 %145, i32 %147) #2
  br label %148

148:                                              ; preds = %103, %108, %113, %66, %117
  %149 = zext i8 %80 to i64
  %150 = mul nsw i64 %149, %15
  %151 = getelementptr inbounds i8, i8* %57, i64 %150
  %152 = lshr i32 %81, 2
  %153 = add nuw nsw i32 %152, %56
  %154 = icmp ult i32 %153, 16
  br i1 %154, label %55, label %62

155:                                              ; preds = %51
  %156 = getelementptr inbounds %"class.libgav1::PostFilter", %"class.libgav1::PostFilter"* %0, i64 0, i32 9, i64 1
  %157 = load i8, i8* %156, align 1
  %158 = getelementptr inbounds %"class.libgav1::PostFilter", %"class.libgav1::PostFilter"* %0, i64 0, i32 10, i64 1
  %159 = load i8, i8* %158, align 1
  %160 = sext i8 %157 to i32
  %161 = shl i32 1, %160
  %162 = load %"class.libgav1::YuvBuffer"*, %"class.libgav1::YuvBuffer"** %11, align 8
  %163 = getelementptr inbounds %"class.libgav1::YuvBuffer", %"class.libgav1::YuvBuffer"* %162, i64 0, i32 11, i64 1
  %164 = load i32, i32* %163, align 4
  %165 = sext i32 %164 to i64
  %166 = getelementptr inbounds %"class.libgav1::YuvBuffer", %"class.libgav1::YuvBuffer"* %162, i64 0, i32 11, i64 2
  %167 = load i32, i32* %166, align 4
  %168 = sext i32 %167 to i64
  %169 = getelementptr inbounds %"class.libgav1::PostFilter", %"class.libgav1::PostFilter"* %0, i64 0, i32 28, i64 1
  %170 = load i8*, i8** %169, align 8
  %171 = sext i8 %159 to i32
  %172 = ashr i32 %18, %171
  %173 = mul nsw i32 %172, %164
  %174 = sext i32 %173 to i64
  %175 = getelementptr inbounds i8, i8* %170, i64 %174
  %176 = ashr i32 %19, %160
  %177 = load i32, i32* %8, align 8
  %178 = shl i32 %176, %177
  %179 = sext i32 %178 to i64
  %180 = getelementptr inbounds i8, i8* %175, i64 %179
  %181 = getelementptr inbounds %"class.libgav1::PostFilter", %"class.libgav1::PostFilter"* %0, i64 0, i32 28, i64 2
  %182 = load i8*, i8** %181, align 8
  %183 = getelementptr inbounds %"class.libgav1::PostFilter", %"class.libgav1::PostFilter"* %0, i64 0, i32 10, i64 2
  %184 = load i8, i8* %183, align 1
  %185 = sext i8 %184 to i32
  %186 = ashr i32 %18, %185
  %187 = mul nsw i32 %186, %167
  %188 = sext i32 %187 to i64
  %189 = getelementptr inbounds i8, i8* %182, i64 %188
  %190 = getelementptr inbounds %"class.libgav1::PostFilter", %"class.libgav1::PostFilter"* %0, i64 0, i32 9, i64 2
  %191 = load i8, i8* %190, align 1
  %192 = sext i8 %191 to i32
  %193 = ashr i32 %19, %192
  %194 = shl i32 %193, %177
  %195 = sext i32 %194 to i64
  %196 = getelementptr inbounds i8, i8* %189, i64 %195
  %197 = bitcast i32* %4 to i8*
  call void @llvm.lifetime.start.p0i8(i64 4, i8* nonnull %197) #2
  store i32 -1431655766, i32* %4, align 4
  call void @llvm.lifetime.start.p0i8(i64 1, i8* nonnull %5) #2
  store i8 -86, i8* %5, align 1
  call void @llvm.lifetime.start.p0i8(i64 1, i8* nonnull %6) #2
  store i8 -86, i8* %6, align 1
  %198 = bitcast i32* %7 to i8*
  call void @llvm.lifetime.start.p0i8(i64 4, i8* nonnull %198) #2
  store i32 -1431655766, i32* %7, align 4
  br label %199

199:                                              ; preds = %155, %216
  %200 = phi i32 [ 0, %155 ], [ %217, %216 ]
  %201 = phi i8* [ %196, %155 ], [ %219, %216 ]
  %202 = phi i8* [ %180, %155 ], [ %218, %216 ]
  %203 = add nsw i32 %200, %2
  %204 = shl i32 %203, 2
  %205 = load i32, i32* %34, align 8
  %206 = icmp slt i32 %204, %205
  br i1 %206, label %208, label %207

207:                                              ; preds = %216, %199
  call void @llvm.lifetime.end.p0i8(i64 4, i8* nonnull %198) #2
  call void @llvm.lifetime.end.p0i8(i64 1, i8* nonnull %6) #2
  call void @llvm.lifetime.end.p0i8(i64 1, i8* nonnull %5) #2
  call void @llvm.lifetime.end.p0i8(i64 4, i8* nonnull %197) #2
  br label %274

208:                                              ; preds = %199, %263
  %209 = phi i32 [ %272, %263 ], [ 0, %199 ]
  %210 = phi i8* [ %269, %263 ], [ %201, %199 ]
  %211 = phi i8* [ %267, %263 ], [ %202, %199 ]
  %212 = add nsw i32 %209, %1
  %213 = shl i32 %212, 2
  %214 = load i32, i32* %35, align 4
  %215 = icmp slt i32 %213, %214
  br i1 %215, label %221, label %216

216:                                              ; preds = %263, %208
  %217 = add nsw i32 %200, %161
  %218 = getelementptr inbounds i8, i8* %202, i64 %41
  %219 = getelementptr inbounds i8, i8* %201, i64 %41
  %220 = icmp slt i32 %217, 16
  br i1 %220, label %199, label %207

221:                                              ; preds = %208
  call void @_ZNK7libgav110PostFilter36GetHorizontalDeblockFilterEdgeInfoUVEiiPhS1_PiS2_(%"class.libgav1::PostFilter"* %0, i32 %212, i32 %203, i8* nonnull %5, i8* nonnull %6, i32* nonnull %4, i32* nonnull %7)
  %222 = load i8, i8* %5, align 1
  %223 = icmp eq i8 %222, 0
  br i1 %223, label %242, label %224

224:                                              ; preds = %221
  %225 = load i32, i32* %7, align 4
  %226 = icmp ne i32 %225, 4
  %227 = load %"struct.libgav1::dsp::Dsp"*, %"struct.libgav1::dsp::Dsp"** %38, align 8
  %228 = zext i1 %226 to i64
  %229 = getelementptr inbounds %"struct.libgav1::dsp::Dsp", %"struct.libgav1::dsp::Dsp"* %227, i64 0, i32 18, i64 %228, i64 1
  %230 = load void (i8*, i64, i32, i32, i32)*, void (i8*, i64, i32, i32, i32)** %229, align 8
  %231 = load i8*, i8** %39, align 8
  %232 = zext i8 %222 to i64
  %233 = getelementptr inbounds i8, i8* %231, i64 %232
  %234 = load i8, i8* %233, align 1
  %235 = zext i8 %234 to i32
  %236 = load i8*, i8** %40, align 8
  %237 = getelementptr inbounds i8, i8* %236, i64 %232
  %238 = load i8, i8* %237, align 1
  %239 = zext i8 %238 to i32
  %240 = lshr i8 %222, 4
  %241 = zext i8 %240 to i32
  tail call void %230(i8* %211, i64 %165, i32 %235, i32 %239, i32 %241) #2
  br label %242

242:                                              ; preds = %221, %224
  %243 = load i8, i8* %6, align 1
  %244 = icmp eq i8 %243, 0
  br i1 %244, label %263, label %245

245:                                              ; preds = %242
  %246 = load i32, i32* %7, align 4
  %247 = icmp ne i32 %246, 4
  %248 = load %"struct.libgav1::dsp::Dsp"*, %"struct.libgav1::dsp::Dsp"** %38, align 8
  %249 = zext i1 %247 to i64
  %250 = getelementptr inbounds %"struct.libgav1::dsp::Dsp", %"struct.libgav1::dsp::Dsp"* %248, i64 0, i32 18, i64 %249, i64 1
  %251 = load void (i8*, i64, i32, i32, i32)*, void (i8*, i64, i32, i32, i32)** %250, align 8
  %252 = load i8*, i8** %39, align 8
  %253 = zext i8 %243 to i64
  %254 = getelementptr inbounds i8, i8* %252, i64 %253
  %255 = load i8, i8* %254, align 1
  %256 = zext i8 %255 to i32
  %257 = load i8*, i8** %40, align 8
  %258 = getelementptr inbounds i8, i8* %257, i64 %253
  %259 = load i8, i8* %258, align 1
  %260 = zext i8 %259 to i32
  %261 = lshr i8 %243, 4
  %262 = zext i8 %261 to i32
  tail call void %251(i8* %210, i64 %168, i32 %256, i32 %260, i32 %262) #2
  br label %263

263:                                              ; preds = %242, %245
  %264 = load i32, i32* %4, align 4
  %265 = sext i32 %264 to i64
  %266 = mul nsw i64 %265, %165
  %267 = getelementptr inbounds i8, i8* %211, i64 %266
  %268 = mul nsw i64 %265, %168
  %269 = getelementptr inbounds i8, i8* %210, i64 %268
  %270 = shl i32 %264, %171
  %271 = ashr i32 %270, 2
  store i32 %271, i32* %4, align 4
  %272 = add nsw i32 %271, %209
  %273 = icmp slt i32 %272, 16
  br i1 %273, label %208, label %216

274:                                              ; preds = %51, %207
  ret void
}

; Function Attrs: nounwind ssp uwtable
define hidden void @_ZN7libgav110PostFilter21VerticalDeblockFilterEii(%"class.libgav1::PostFilter"* readonly, i32, i32) local_unnamed_addr #0 align 2 {
  %4 = getelementptr inbounds %"class.libgav1::PostFilter", %"class.libgav1::PostFilter"* %0, i64 0, i32 27
  %5 = load %"class.libgav1::YuvBuffer"*, %"class.libgav1::YuvBuffer"** %4, align 8
  %6 = getelementptr inbounds %"class.libgav1::YuvBuffer", %"class.libgav1::YuvBuffer"* %5, i64 0, i32 11, i64 0
  %7 = load i32, i32* %6, align 4
  %8 = shl i32 %7, 2
  %9 = sext i32 %8 to i64
  %10 = sext i32 %7 to i64
  %11 = getelementptr inbounds %"class.libgav1::PostFilter", %"class.libgav1::PostFilter"* %0, i64 0, i32 28, i64 0
  %12 = load i8*, i8** %11, align 8
  %13 = shl i32 %1, 2
  %14 = shl i32 %2, 2
  %15 = getelementptr inbounds %"class.libgav1::PostFilter", %"class.libgav1::PostFilter"* %0, i64 0, i32 10, i64 0
  %16 = load i8, i8* %15, align 1
  %17 = sext i8 %16 to i32
  %18 = ashr i32 %13, %17
  %19 = mul nsw i32 %18, %7
  %20 = sext i32 %19 to i64
  %21 = getelementptr inbounds i8, i8* %12, i64 %20
  %22 = getelementptr inbounds %"class.libgav1::PostFilter", %"class.libgav1::PostFilter"* %0, i64 0, i32 9, i64 0
  %23 = load i8, i8* %22, align 1
  %24 = sext i8 %23 to i32
  %25 = ashr i32 %14, %24
  %26 = getelementptr inbounds %"class.libgav1::PostFilter", %"class.libgav1::PostFilter"* %0, i64 0, i32 12
  %27 = load i32, i32* %26, align 8
  %28 = shl i32 %25, %27
  %29 = sext i32 %28 to i64
  %30 = getelementptr inbounds i8, i8* %21, i64 %29
  %31 = getelementptr inbounds %"class.libgav1::PostFilter", %"class.libgav1::PostFilter"* %0, i64 0, i32 25
  %32 = load %"class.libgav1::BlockParametersHolder"*, %"class.libgav1::BlockParametersHolder"** %31, align 8
  %33 = getelementptr inbounds %"class.libgav1::BlockParametersHolder", %"class.libgav1::BlockParametersHolder"* %32, i64 0, i32 4, i32 0, i32 0, i32 0, i32 0
  %34 = load %"struct.libgav1::BlockParameters"**, %"struct.libgav1::BlockParameters"*** %33, align 8
  %35 = getelementptr inbounds %"class.libgav1::BlockParametersHolder", %"class.libgav1::BlockParametersHolder"* %32, i64 0, i32 1
  %36 = load i32, i32* %35, align 4
  %37 = mul nsw i32 %36, %1
  %38 = sext i32 %37 to i64
  %39 = getelementptr inbounds %"struct.libgav1::BlockParameters"*, %"struct.libgav1::BlockParameters"** %34, i64 %38
  %40 = sext i32 %2 to i64
  %41 = getelementptr inbounds %"struct.libgav1::BlockParameters"*, %"struct.libgav1::BlockParameters"** %39, i64 %40
  %42 = getelementptr inbounds %"class.libgav1::PostFilter", %"class.libgav1::PostFilter"* %0, i64 0, i32 7
  %43 = getelementptr inbounds %"class.libgav1::PostFilter", %"class.libgav1::PostFilter"* %0, i64 0, i32 6
  %44 = getelementptr inbounds %"class.libgav1::PostFilter", %"class.libgav1::PostFilter"* %0, i64 0, i32 21
  %45 = getelementptr inbounds %"class.libgav1::PostFilter", %"class.libgav1::PostFilter"* %0, i64 0, i32 3
  %46 = getelementptr inbounds %"class.libgav1::PostFilter", %"class.libgav1::PostFilter"* %0, i64 0, i32 15
  %47 = getelementptr inbounds %"class.libgav1::PostFilter", %"class.libgav1::PostFilter"* %0, i64 0, i32 14
  %48 = sext i32 %36 to i64
  %49 = sext i32 %1 to i64
  br label %50

50:                                               ; preds = %71, %3
  %51 = phi i64 [ 0, %3 ], [ %72, %71 ]
  %52 = phi i8* [ %30, %3 ], [ %73, %71 ]
  %53 = phi %"struct.libgav1::BlockParameters"** [ %41, %3 ], [ %74, %71 ]
  %54 = add nsw i64 %51, %49
  %55 = trunc i64 %54 to i32
  %56 = shl i32 %55, 2
  %57 = load i32, i32* %42, align 4
  %58 = icmp slt i32 %56, %57
  br i1 %58, label %63, label %59

59:                                               ; preds = %71, %50
  %60 = getelementptr inbounds %"class.libgav1::PostFilter", %"class.libgav1::PostFilter"* %0, i64 0, i32 16
  %61 = load i8, i8* %60, align 8, !range !2
  %62 = icmp eq i8 %61, 0
  br i1 %62, label %383, label %156

63:                                               ; preds = %50, %147
  %64 = phi i32 [ %152, %147 ], [ 0, %50 ]
  %65 = phi %"struct.libgav1::BlockParameters"** [ %154, %147 ], [ %53, %50 ]
  %66 = phi i8* [ %150, %147 ], [ %52, %50 ]
  %67 = add nsw i32 %64, %2
  %68 = shl i32 %67, 2
  %69 = load i32, i32* %43, align 8
  %70 = icmp slt i32 %68, %69
  br i1 %70, label %76, label %71

71:                                               ; preds = %147, %63
  %72 = add nuw nsw i64 %51, 1
  %73 = getelementptr inbounds i8, i8* %52, i64 %9
  %74 = getelementptr inbounds %"struct.libgav1::BlockParameters"*, %"struct.libgav1::BlockParameters"** %53, i64 %48
  %75 = icmp eq i64 %72, 16
  br i1 %75, label %59, label %50

76:                                               ; preds = %63
  %77 = load %"struct.libgav1::BlockParameters"*, %"struct.libgav1::BlockParameters"** %65, align 8
  %78 = load %"class.libgav1::Array2D.31"*, %"class.libgav1::Array2D.31"** %44, align 8
  %79 = getelementptr inbounds %"class.libgav1::Array2D.31", %"class.libgav1::Array2D.31"* %78, i64 0, i32 3, i32 1
  %80 = load i32, i32* %79, align 4
  %81 = sext i32 %80 to i64
  %82 = mul nsw i64 %54, %81
  %83 = getelementptr inbounds %"class.libgav1::Array2D.31", %"class.libgav1::Array2D.31"* %78, i64 0, i32 3, i32 2
  %84 = load i8*, i8** %83, align 8
  %85 = getelementptr inbounds i8, i8* %84, i64 %82
  %86 = sext i32 %67 to i64
  %87 = getelementptr inbounds i8, i8* %85, i64 %86
  %88 = load i8, i8* %87, align 1
  %89 = zext i8 %88 to i64
  %90 = getelementptr inbounds [19 x i8], [19 x i8]* @_ZN7libgav115kTransformWidthE, i64 0, i64 %89
  %91 = load i8, i8* %90, align 1
  %92 = zext i8 %91 to i32
  %93 = icmp eq i32 %67, 0
  br i1 %93, label %147, label %94

94:                                               ; preds = %76
  %95 = add nsw i32 %67, -1
  %96 = getelementptr inbounds %"struct.libgav1::BlockParameters"*, %"struct.libgav1::BlockParameters"** %65, i64 -1
  %97 = load %"struct.libgav1::BlockParameters"*, %"struct.libgav1::BlockParameters"** %96, align 8
  %98 = icmp eq %"struct.libgav1::BlockParameters"* %77, %97
  %99 = getelementptr inbounds %"struct.libgav1::BlockParameters", %"struct.libgav1::BlockParameters"* %77, i64 0, i32 15, i64 0
  %100 = load i8, i8* %99, align 1
  %101 = icmp eq i8 %100, 0
  br i1 %98, label %102, label %111

102:                                              ; preds = %94
  br i1 %101, label %147, label %103

103:                                              ; preds = %102
  %104 = getelementptr inbounds %"struct.libgav1::BlockParameters", %"struct.libgav1::BlockParameters"* %77, i64 0, i32 1
  %105 = load i8, i8* %104, align 1, !range !2
  %106 = icmp eq i8 %105, 0
  br i1 %106, label %116, label %107

107:                                              ; preds = %103
  %108 = getelementptr inbounds %"struct.libgav1::BlockParameters", %"struct.libgav1::BlockParameters"* %77, i64 0, i32 3
  %109 = load i8, i8* %108, align 1, !range !2
  %110 = icmp eq i8 %109, 0
  br i1 %110, label %116, label %147

111:                                              ; preds = %94
  br i1 %101, label %112, label %116

112:                                              ; preds = %111
  %113 = getelementptr inbounds %"struct.libgav1::BlockParameters", %"struct.libgav1::BlockParameters"* %97, i64 0, i32 15, i64 0
  %114 = load i8, i8* %113, align 1
  %115 = icmp eq i8 %114, 0
  br i1 %115, label %147, label %116

116:                                              ; preds = %112, %103, %107, %111
  %117 = phi i8 [ %100, %111 ], [ %100, %107 ], [ %100, %103 ], [ %114, %112 ]
  %118 = sext i32 %95 to i64
  %119 = getelementptr inbounds i8, i8* %85, i64 %118
  %120 = load i8, i8* %119, align 1
  %121 = zext i8 %120 to i64
  %122 = getelementptr inbounds [19 x i8], [19 x i8]* @_ZN7libgav115kTransformWidthE, i64 0, i64 %121
  %123 = load i8, i8* %122, align 1
  %124 = zext i8 %123 to i32
  %125 = icmp ugt i32 %92, %124
  %126 = select i1 %125, i32 %124, i32 %92
  %127 = icmp sgt i32 %126, 4
  %128 = zext i1 %127 to i64
  %129 = shl nuw nsw i64 %128, 1
  %130 = icmp sgt i32 %126, 8
  %131 = zext i1 %130 to i64
  %132 = or i64 %129, %131
  %133 = load %"struct.libgav1::dsp::Dsp"*, %"struct.libgav1::dsp::Dsp"** %45, align 8
  %134 = getelementptr inbounds %"struct.libgav1::dsp::Dsp", %"struct.libgav1::dsp::Dsp"* %133, i64 0, i32 18, i64 %132, i64 0
  %135 = load void (i8*, i64, i32, i32, i32)*, void (i8*, i64, i32, i32, i32)** %134, align 8
  %136 = load i8*, i8** %46, align 8
  %137 = zext i8 %117 to i64
  %138 = getelementptr inbounds i8, i8* %136, i64 %137
  %139 = load i8, i8* %138, align 1
  %140 = zext i8 %139 to i32
  %141 = load i8*, i8** %47, align 8
  %142 = getelementptr inbounds i8, i8* %141, i64 %137
  %143 = load i8, i8* %142, align 1
  %144 = zext i8 %143 to i32
  %145 = lshr i8 %117, 4
  %146 = zext i8 %145 to i32
  tail call void %135(i8* %66, i64 %10, i32 %140, i32 %144, i32 %146) #2
  br label %147

147:                                              ; preds = %102, %107, %112, %76, %116
  %148 = shl i32 %92, %27
  %149 = sext i32 %148 to i64
  %150 = getelementptr inbounds i8, i8* %66, i64 %149
  %151 = lshr i32 %92, 2
  %152 = add nuw nsw i32 %151, %64
  %153 = zext i32 %151 to i64
  %154 = getelementptr inbounds %"struct.libgav1::BlockParameters"*, %"struct.libgav1::BlockParameters"** %65, i64 %153
  %155 = icmp ult i32 %152, 16
  br i1 %155, label %63, label %71

156:                                              ; preds = %59
  %157 = getelementptr inbounds %"class.libgav1::PostFilter", %"class.libgav1::PostFilter"* %0, i64 0, i32 9, i64 1
  %158 = load i8, i8* %157, align 1
  %159 = getelementptr inbounds %"class.libgav1::PostFilter", %"class.libgav1::PostFilter"* %0, i64 0, i32 10, i64 1
  %160 = load i8, i8* %159, align 1
  %161 = sext i8 %160 to i32
  %162 = shl i32 1, %161
  %163 = getelementptr inbounds %"class.libgav1::PostFilter", %"class.libgav1::PostFilter"* %0, i64 0, i32 28, i64 1
  %164 = load i8*, i8** %163, align 8
  %165 = load %"class.libgav1::YuvBuffer"*, %"class.libgav1::YuvBuffer"** %4, align 8
  %166 = getelementptr inbounds %"class.libgav1::YuvBuffer", %"class.libgav1::YuvBuffer"* %165, i64 0, i32 11, i64 1
  %167 = load i32, i32* %166, align 4
  %168 = ashr i32 %13, %161
  %169 = mul nsw i32 %167, %168
  %170 = sext i32 %169 to i64
  %171 = getelementptr inbounds i8, i8* %164, i64 %170
  %172 = sext i8 %158 to i32
  %173 = ashr i32 %14, %172
  %174 = load i32, i32* %26, align 8
  %175 = shl i32 %173, %174
  %176 = sext i32 %175 to i64
  %177 = getelementptr inbounds i8, i8* %171, i64 %176
  %178 = getelementptr inbounds %"class.libgav1::PostFilter", %"class.libgav1::PostFilter"* %0, i64 0, i32 28, i64 2
  %179 = load i8*, i8** %178, align 8
  %180 = getelementptr inbounds %"class.libgav1::YuvBuffer", %"class.libgav1::YuvBuffer"* %165, i64 0, i32 11, i64 2
  %181 = load i32, i32* %180, align 4
  %182 = getelementptr inbounds %"class.libgav1::PostFilter", %"class.libgav1::PostFilter"* %0, i64 0, i32 10, i64 2
  %183 = load i8, i8* %182, align 1
  %184 = sext i8 %183 to i32
  %185 = ashr i32 %13, %184
  %186 = mul nsw i32 %185, %181
  %187 = sext i32 %186 to i64
  %188 = getelementptr inbounds i8, i8* %179, i64 %187
  %189 = getelementptr inbounds %"class.libgav1::PostFilter", %"class.libgav1::PostFilter"* %0, i64 0, i32 9, i64 2
  %190 = load i8, i8* %189, align 1
  %191 = sext i8 %190 to i32
  %192 = ashr i32 %14, %191
  %193 = shl i32 %192, %174
  %194 = sext i32 %193 to i64
  %195 = getelementptr inbounds i8, i8* %188, i64 %194
  %196 = sext i32 %167 to i64
  %197 = sext i32 %181 to i64
  %198 = shl i32 %167, 2
  %199 = sext i32 %198 to i64
  %200 = shl i32 %181, 2
  %201 = sext i32 %200 to i64
  %202 = load %"class.libgav1::BlockParametersHolder"*, %"class.libgav1::BlockParametersHolder"** %31, align 8
  %203 = or i32 %161, %1
  %204 = or i32 %172, %2
  %205 = getelementptr inbounds %"class.libgav1::BlockParametersHolder", %"class.libgav1::BlockParametersHolder"* %202, i64 0, i32 4, i32 0, i32 0, i32 0, i32 0
  %206 = load %"struct.libgav1::BlockParameters"**, %"struct.libgav1::BlockParameters"*** %205, align 8
  %207 = getelementptr inbounds %"class.libgav1::BlockParametersHolder", %"class.libgav1::BlockParametersHolder"* %202, i64 0, i32 1
  %208 = load i32, i32* %207, align 4
  %209 = mul nsw i32 %208, %203
  %210 = sext i32 %209 to i64
  %211 = getelementptr inbounds %"struct.libgav1::BlockParameters"*, %"struct.libgav1::BlockParameters"** %206, i64 %210
  %212 = sext i32 %204 to i64
  %213 = getelementptr inbounds %"struct.libgav1::BlockParameters"*, %"struct.libgav1::BlockParameters"** %211, i64 %212
  %214 = shl i32 %208, %161
  %215 = getelementptr inbounds %"class.libgav1::PostFilter", %"class.libgav1::PostFilter"* %0, i64 0, i32 1
  %216 = load i8, i8* getelementptr inbounds ([3 x [2 x i8]], [3 x [2 x i8]]* @_ZN7libgav124kDeblockFilterLevelIndexE, i64 0, i64 1, i64 0), align 1
  %217 = load i8, i8* getelementptr inbounds ([3 x [2 x i8]], [3 x [2 x i8]]* @_ZN7libgav124kDeblockFilterLevelIndexE, i64 0, i64 2, i64 0), align 1
  %218 = zext i8 %216 to i64
  %219 = zext i8 %217 to i64
  %220 = sext i32 %214 to i64
  br label %221

221:                                              ; preds = %156, %239
  %222 = phi i32 [ 0, %156 ], [ %240, %239 ]
  %223 = phi %"struct.libgav1::BlockParameters"** [ %213, %156 ], [ %243, %239 ]
  %224 = phi i8* [ %195, %156 ], [ %242, %239 ]
  %225 = phi i8* [ %177, %156 ], [ %241, %239 ]
  %226 = add nsw i32 %222, %1
  %227 = shl i32 %226, 2
  %228 = load i32, i32* %42, align 4
  %229 = icmp slt i32 %227, %228
  br i1 %229, label %230, label %383

230:                                              ; preds = %221, %372
  %231 = phi i32 [ %379, %372 ], [ 0, %221 ]
  %232 = phi %"struct.libgav1::BlockParameters"** [ %381, %372 ], [ %223, %221 ]
  %233 = phi i8* [ %376, %372 ], [ %224, %221 ]
  %234 = phi i8* [ %375, %372 ], [ %225, %221 ]
  %235 = add nsw i32 %231, %2
  %236 = shl i32 %235, 2
  %237 = load i32, i32* %43, align 8
  %238 = icmp slt i32 %236, %237
  br i1 %238, label %245, label %239

239:                                              ; preds = %372, %230
  %240 = add nsw i32 %222, %162
  %241 = getelementptr inbounds i8, i8* %225, i64 %199
  %242 = getelementptr inbounds i8, i8* %224, i64 %201
  %243 = getelementptr inbounds %"struct.libgav1::BlockParameters"*, %"struct.libgav1::BlockParameters"** %223, i64 %220
  %244 = icmp slt i32 %240, 16
  br i1 %244, label %221, label %383

245:                                              ; preds = %230
  %246 = load i8, i8* %157, align 1
  %247 = sext i8 %246 to i32
  %248 = or i32 %235, %247
  %249 = load %"struct.libgav1::BlockParameters"*, %"struct.libgav1::BlockParameters"** %232, align 8
  %250 = getelementptr inbounds %"struct.libgav1::BlockParameters", %"struct.libgav1::BlockParameters"* %249, i64 0, i32 12
  %251 = load i8, i8* %250, align 4
  %252 = zext i8 %251 to i64
  %253 = getelementptr inbounds [19 x i8], [19 x i8]* @_ZN7libgav115kTransformWidthE, i64 0, i64 %252
  %254 = load i8, i8* %253, align 1
  %255 = zext i8 %254 to i32
  %256 = icmp eq i32 %248, %247
  br i1 %256, label %372, label %257

257:                                              ; preds = %245
  %258 = load %"struct.libgav1::ObuFrameHeader"*, %"struct.libgav1::ObuFrameHeader"** %215, align 8
  %259 = getelementptr inbounds %"struct.libgav1::ObuFrameHeader", %"struct.libgav1::ObuFrameHeader"* %258, i64 0, i32 54, i32 0, i32 0, i64 2
  %260 = load i8, i8* %259, align 1
  %261 = icmp ne i8 %260, 0
  %262 = getelementptr inbounds %"struct.libgav1::ObuFrameHeader", %"struct.libgav1::ObuFrameHeader"* %258, i64 0, i32 54, i32 0, i32 0, i64 3
  %263 = load i8, i8* %262, align 1
  %264 = icmp ne i8 %263, 0
  %265 = zext i32 %247 to i64
  %266 = shl i64 -1, %265
  %267 = getelementptr inbounds %"struct.libgav1::BlockParameters"*, %"struct.libgav1::BlockParameters"** %232, i64 %266
  %268 = load %"struct.libgav1::BlockParameters"*, %"struct.libgav1::BlockParameters"** %267, align 8
  %269 = icmp eq %"struct.libgav1::BlockParameters"* %249, %268
  br i1 %269, label %270, label %304

270:                                              ; preds = %257
  %271 = getelementptr inbounds %"struct.libgav1::BlockParameters", %"struct.libgav1::BlockParameters"* %249, i64 0, i32 1
  %272 = load i8, i8* %271, align 1, !range !2
  %273 = icmp eq i8 %272, 0
  br i1 %273, label %278, label %274

274:                                              ; preds = %270
  %275 = getelementptr inbounds %"struct.libgav1::BlockParameters", %"struct.libgav1::BlockParameters"* %249, i64 0, i32 3
  %276 = load i8, i8* %275, align 1, !range !2
  %277 = icmp eq i8 %276, 0
  br label %278

278:                                              ; preds = %274, %270
  %279 = phi i1 [ true, %270 ], [ %277, %274 ]
  br i1 %261, label %280, label %285

280:                                              ; preds = %278
  %281 = getelementptr inbounds %"struct.libgav1::BlockParameters", %"struct.libgav1::BlockParameters"* %249, i64 0, i32 15, i64 %218
  %282 = load i8, i8* %281, align 1
  %283 = icmp ne i8 %282, 0
  %284 = and i1 %279, %283
  br label %285

285:                                              ; preds = %280, %278
  %286 = phi i1 [ false, %278 ], [ %284, %280 ]
  br i1 %264, label %287, label %292

287:                                              ; preds = %285
  %288 = getelementptr inbounds %"struct.libgav1::BlockParameters", %"struct.libgav1::BlockParameters"* %249, i64 0, i32 15, i64 %219
  %289 = load i8, i8* %288, align 1
  %290 = icmp ne i8 %289, 0
  %291 = and i1 %279, %290
  br label %292

292:                                              ; preds = %287, %285
  %293 = phi i1 [ false, %285 ], [ %291, %287 ]
  %294 = or i1 %286, %293
  br i1 %294, label %295, label %372

295:                                              ; preds = %292
  br i1 %286, label %296, label %299

296:                                              ; preds = %295
  %297 = getelementptr inbounds %"struct.libgav1::BlockParameters", %"struct.libgav1::BlockParameters"* %249, i64 0, i32 15, i64 %218
  %298 = load i8, i8* %297, align 1
  br label %299

299:                                              ; preds = %296, %295
  %300 = phi i8 [ %298, %296 ], [ 0, %295 ]
  br i1 %293, label %301, label %331

301:                                              ; preds = %299
  %302 = getelementptr inbounds %"struct.libgav1::BlockParameters", %"struct.libgav1::BlockParameters"* %249, i64 0, i32 15, i64 %219
  %303 = load i8, i8* %302, align 1
  br label %331

304:                                              ; preds = %257
  br i1 %261, label %305, label %312

305:                                              ; preds = %304
  %306 = getelementptr inbounds %"struct.libgav1::BlockParameters", %"struct.libgav1::BlockParameters"* %249, i64 0, i32 15, i64 %218
  %307 = load i8, i8* %306, align 1
  %308 = icmp eq i8 %307, 0
  br i1 %308, label %309, label %312

309:                                              ; preds = %305
  %310 = getelementptr inbounds %"struct.libgav1::BlockParameters", %"struct.libgav1::BlockParameters"* %268, i64 0, i32 15, i64 %218
  %311 = load i8, i8* %310, align 1
  br label %312

312:                                              ; preds = %309, %305, %304
  %313 = phi i8 [ %311, %309 ], [ %307, %305 ], [ 0, %304 ]
  br i1 %264, label %314, label %321

314:                                              ; preds = %312
  %315 = getelementptr inbounds %"struct.libgav1::BlockParameters", %"struct.libgav1::BlockParameters"* %249, i64 0, i32 15, i64 %219
  %316 = load i8, i8* %315, align 1
  %317 = icmp eq i8 %316, 0
  br i1 %317, label %318, label %321

318:                                              ; preds = %314
  %319 = getelementptr inbounds %"struct.libgav1::BlockParameters", %"struct.libgav1::BlockParameters"* %268, i64 0, i32 15, i64 %219
  %320 = load i8, i8* %319, align 1
  br label %321

321:                                              ; preds = %318, %314, %312
  %322 = phi i8 [ %320, %318 ], [ %316, %314 ], [ 0, %312 ]
  %323 = getelementptr inbounds %"struct.libgav1::BlockParameters", %"struct.libgav1::BlockParameters"* %268, i64 0, i32 12
  %324 = load i8, i8* %323, align 4
  %325 = zext i8 %324 to i64
  %326 = getelementptr inbounds [19 x i8], [19 x i8]* @_ZN7libgav115kTransformWidthE, i64 0, i64 %325
  %327 = load i8, i8* %326, align 1
  %328 = zext i8 %327 to i32
  %329 = icmp ugt i32 %255, %328
  %330 = select i1 %329, i32 %328, i32 %255
  br label %331

331:                                              ; preds = %299, %301, %321
  %332 = phi i8 [ %313, %321 ], [ %300, %301 ], [ %300, %299 ]
  %333 = phi i8 [ %322, %321 ], [ %303, %301 ], [ 0, %299 ]
  %334 = phi i32 [ %330, %321 ], [ %255, %301 ], [ %255, %299 ]
  %335 = icmp eq i8 %332, 0
  br i1 %335, label %353, label %336

336:                                              ; preds = %331
  %337 = icmp ne i32 %334, 4
  %338 = load %"struct.libgav1::dsp::Dsp"*, %"struct.libgav1::dsp::Dsp"** %45, align 8
  %339 = zext i1 %337 to i64
  %340 = getelementptr inbounds %"struct.libgav1::dsp::Dsp", %"struct.libgav1::dsp::Dsp"* %338, i64 0, i32 18, i64 %339, i64 0
  %341 = load void (i8*, i64, i32, i32, i32)*, void (i8*, i64, i32, i32, i32)** %340, align 8
  %342 = load i8*, i8** %46, align 8
  %343 = zext i8 %332 to i64
  %344 = getelementptr inbounds i8, i8* %342, i64 %343
  %345 = load i8, i8* %344, align 1
  %346 = zext i8 %345 to i32
  %347 = load i8*, i8** %47, align 8
  %348 = getelementptr inbounds i8, i8* %347, i64 %343
  %349 = load i8, i8* %348, align 1
  %350 = zext i8 %349 to i32
  %351 = lshr i8 %332, 4
  %352 = zext i8 %351 to i32
  tail call void %341(i8* %234, i64 %196, i32 %346, i32 %350, i32 %352) #2
  br label %353

353:                                              ; preds = %331, %336
  %354 = icmp eq i8 %333, 0
  br i1 %354, label %372, label %355

355:                                              ; preds = %353
  %356 = icmp ne i32 %334, 4
  %357 = load %"struct.libgav1::dsp::Dsp"*, %"struct.libgav1::dsp::Dsp"** %45, align 8
  %358 = zext i1 %356 to i64
  %359 = getelementptr inbounds %"struct.libgav1::dsp::Dsp", %"struct.libgav1::dsp::Dsp"* %357, i64 0, i32 18, i64 %358, i64 0
  %360 = load void (i8*, i64, i32, i32, i32)*, void (i8*, i64, i32, i32, i32)** %359, align 8
  %361 = load i8*, i8** %46, align 8
  %362 = zext i8 %333 to i64
  %363 = getelementptr inbounds i8, i8* %361, i64 %362
  %364 = load i8, i8* %363, align 1
  %365 = zext i8 %364 to i32
  %366 = load i8*, i8** %47, align 8
  %367 = getelementptr inbounds i8, i8* %366, i64 %362
  %368 = load i8, i8* %367, align 1
  %369 = zext i8 %368 to i32
  %370 = lshr i8 %333, 4
  %371 = zext i8 %370 to i32
  tail call void %360(i8* %233, i64 %197, i32 %365, i32 %369, i32 %371) #2
  br label %372

372:                                              ; preds = %245, %292, %353, %355
  %373 = shl i32 %255, %27
  %374 = sext i32 %373 to i64
  %375 = getelementptr inbounds i8, i8* %234, i64 %374
  %376 = getelementptr inbounds i8, i8* %233, i64 %374
  %377 = shl i32 %255, %172
  %378 = ashr i32 %377, 2
  %379 = add nsw i32 %378, %231
  %380 = sext i32 %378 to i64
  %381 = getelementptr inbounds %"struct.libgav1::BlockParameters"*, %"struct.libgav1::BlockParameters"** %232, i64 %380
  %382 = icmp slt i32 %379, 16
  br i1 %382, label %230, label %239

383:                                              ; preds = %221, %239, %59
  ret void
}

; Function Attrs: nounwind ssp uwtable
define hidden void @_ZN7libgav110PostFilter37ApplyDeblockFilterForOneSuperBlockRowEii(%"class.libgav1::PostFilter"* readonly, i32, i32) local_unnamed_addr #0 align 2 {
  %4 = icmp sgt i32 %2, 0
  br i1 %4, label %5, label %34

5:                                                ; preds = %3
  %6 = getelementptr inbounds %"class.libgav1::PostFilter", %"class.libgav1::PostFilter"* %0, i64 0, i32 1
  br label %7

7:                                                ; preds = %5, %29
  %8 = phi i32 [ 0, %5 ], [ %32, %29 ]
  %9 = add nsw i32 %8, %1
  %10 = load %"struct.libgav1::ObuFrameHeader"*, %"struct.libgav1::ObuFrameHeader"** %6, align 8
  %11 = getelementptr inbounds %"struct.libgav1::ObuFrameHeader", %"struct.libgav1::ObuFrameHeader"* %10, i64 0, i32 7
  %12 = load i32, i32* %11, align 4
  %13 = icmp slt i32 %9, %12
  br i1 %13, label %14, label %34

14:                                               ; preds = %7
  %15 = getelementptr inbounds %"struct.libgav1::ObuFrameHeader", %"struct.libgav1::ObuFrameHeader"* %10, i64 0, i32 6
  %16 = load i32, i32* %15, align 8
  %17 = icmp sgt i32 %16, 0
  br i1 %17, label %18, label %29

18:                                               ; preds = %14, %23
  %19 = phi i32 [ %24, %23 ], [ 0, %14 ]
  tail call void @_ZN7libgav110PostFilter21VerticalDeblockFilterEii(%"class.libgav1::PostFilter"* %0, i32 %9, i32 %19)
  %20 = icmp eq i32 %19, 0
  br i1 %20, label %23, label %21

21:                                               ; preds = %18
  %22 = add nsw i32 %19, -16
  tail call void @_ZN7libgav110PostFilter23HorizontalDeblockFilterEii(%"class.libgav1::PostFilter"* %0, i32 %9, i32 %22)
  br label %23

23:                                               ; preds = %18, %21
  %24 = add nuw nsw i32 %19, 16
  %25 = load %"struct.libgav1::ObuFrameHeader"*, %"struct.libgav1::ObuFrameHeader"** %6, align 8
  %26 = getelementptr inbounds %"struct.libgav1::ObuFrameHeader", %"struct.libgav1::ObuFrameHeader"* %25, i64 0, i32 6
  %27 = load i32, i32* %26, align 8
  %28 = icmp slt i32 %24, %27
  br i1 %28, label %18, label %29

29:                                               ; preds = %23, %14
  %30 = phi i32 [ 0, %14 ], [ %24, %23 ]
  %31 = add nsw i32 %30, -16
  tail call void @_ZN7libgav110PostFilter23HorizontalDeblockFilterEii(%"class.libgav1::PostFilter"* %0, i32 %9, i32 %31)
  %32 = add nuw nsw i32 %8, 16
  %33 = icmp slt i32 %32, %2
  br i1 %33, label %7, label %34

34:                                               ; preds = %29, %7, %3
  ret void
}

; Function Attrs: nounwind ssp uwtable
define hidden void @_ZN7libgav110PostFilter18ApplyDeblockFilterENS_14LoopFilterTypeEiiii(%"class.libgav1::PostFilter"*, i8 zeroext, i32, i32, i32, i32) local_unnamed_addr #0 align 2 {
  %7 = getelementptr inbounds %"class.libgav1::PostFilter", %"class.libgav1::PostFilter"* %0, i64 0, i32 1
  %8 = load %"struct.libgav1::ObuFrameHeader"*, %"struct.libgav1::ObuFrameHeader"** %7, align 8
  %9 = getelementptr inbounds %"struct.libgav1::ObuFrameHeader", %"struct.libgav1::ObuFrameHeader"* %8, i64 0, i32 6
  %10 = load i32, i32* %9, align 4
  %11 = icmp slt i32 %10, %4
  %12 = select i1 %11, i32 %10, i32 %4
  %13 = icmp sgt i32 %12, %3
  br i1 %13, label %14, label %52

14:                                               ; preds = %6
  %15 = zext i8 %1 to i64
  %16 = getelementptr inbounds %"class.libgav1::PostFilter", %"class.libgav1::PostFilter"* %0, i64 0, i32 0, i64 %15, i32 0
  %17 = load i64, i64* %16, align 8
  %18 = getelementptr inbounds %"struct.libgav1::ObuFrameHeader", %"struct.libgav1::ObuFrameHeader"* %8, i64 0, i32 7
  %19 = load i32, i32* %18, align 4
  %20 = sub nsw i32 %19, %2
  %21 = icmp slt i32 %20, %5
  %22 = select i1 %21, i32 %20, i32 %5
  %23 = icmp sgt i32 %22, 0
  br i1 %23, label %24, label %52

24:                                               ; preds = %14
  %25 = getelementptr inbounds %"class.libgav1::PostFilter", %"class.libgav1::PostFilter"* %0, i64 0, i32 0, i64 %15, i32 1
  %26 = load i64, i64* %25, align 8
  %27 = bitcast %"class.libgav1::PostFilter"* %0 to i8*
  %28 = getelementptr inbounds i8, i8* %27, i64 %26
  %29 = bitcast i8* %28 to %"class.libgav1::PostFilter"*
  %30 = and i64 %17, 1
  %31 = icmp eq i64 %30, 0
  %32 = bitcast i8* %28 to i8**
  %33 = add i64 %17, -1
  %34 = inttoptr i64 %17 to void (%"class.libgav1::PostFilter"*, i32, i32)*
  br label %35

35:                                               ; preds = %38, %24
  %36 = phi i32 [ 0, %24 ], [ %39, %38 ]
  %37 = add nsw i32 %36, %2
  br label %41

38:                                               ; preds = %48
  %39 = add nuw nsw i32 %36, 16
  %40 = icmp slt i32 %39, %22
  br i1 %40, label %35, label %52

41:                                               ; preds = %35, %48
  %42 = phi i32 [ %50, %48 ], [ %3, %35 ]
  br i1 %31, label %48, label %43

43:                                               ; preds = %41
  %44 = load i8*, i8** %32, align 8
  %45 = getelementptr i8, i8* %44, i64 %33
  %46 = bitcast i8* %45 to void (%"class.libgav1::PostFilter"*, i32, i32)**
  %47 = load void (%"class.libgav1::PostFilter"*, i32, i32)*, void (%"class.libgav1::PostFilter"*, i32, i32)** %46, align 8
  br label %48

48:                                               ; preds = %41, %43
  %49 = phi void (%"class.libgav1::PostFilter"*, i32, i32)* [ %47, %43 ], [ %34, %41 ]
  tail call void %49(%"class.libgav1::PostFilter"* %29, i32 %37, i32 %42) #2
  %50 = add nsw i32 %42, 16
  %51 = icmp slt i32 %50, %12
  br i1 %51, label %41, label %38

52:                                               ; preds = %38, %14, %6
  ret void
}

; Function Attrs: argmemonly nounwind
declare void @llvm.memset.p0i8.i64(i8* nocapture writeonly, i8, i64, i1 immarg) #1

attributes #0 = { nounwind ssp uwtable "correctly-rounded-divide-sqrt-fp-math"="false" "disable-tail-calls"="false" "less-precise-fpmad"="false" "min-legal-vector-width"="0" "no-frame-pointer-elim"="false" "no-frame-pointer-elim-non-leaf" "no-infs-fp-math"="false" "no-jump-tables"="false" "no-nans-fp-math"="false" "no-signed-zeros-fp-math"="false" "no-trapping-math"="false" "null-pointer-is-valid"="true" "stack-protector-buffer-size"="4" "target-cpu"="x86-64" "target-features"="+cx8,+fxsr,+mmx,+sse,+sse2,+sse3,+x87" "unsafe-fp-math"="false" "use-soft-float"="false" }
attributes #1 = { argmemonly nounwind }
attributes #2 = { nounwind }

!llvm.module.flags = !{!0, !1}

!0 = !{i32 1, !"wchar_size", i32 4}
!1 = !{i32 7, !"PIC Level", i32 2}
!2 = !{i8 0, i8 2}
