; ModuleID = '../../third_party/webrtc/modules/audio_processing/utility/delay_estimator.cc'
source_filename = "../../third_party/webrtc/modules/audio_processing/utility/delay_estimator.cc"
target datalayout = "e-m:e-i64:64-f80:128-n8:16:32:64-S128"
target triple = "x86_64-unknown-linux-gnu"

%"struct.webrtc::BinaryDelayEstimatorFarend" = type { i32*, i32*, i32 }
%"struct.webrtc::BinaryDelayEstimator" = type { i32*, i32*, i32*, i32, i32, i32, i32, i32, i32, i32, i32, i32, i32, float*, float, i32, %"struct.webrtc::BinaryDelayEstimatorFarend"* }

; Function Attrs: nounwind ssp uwtable
define hidden void @_ZN6webrtc37WebRtc_FreeBinaryDelayEstimatorFarendEPNS_26BinaryDelayEstimatorFarendE(%"struct.webrtc::BinaryDelayEstimatorFarend"*) local_unnamed_addr #0 {
  %2 = icmp eq %"struct.webrtc::BinaryDelayEstimatorFarend"* %0, null
  br i1 %2, label %10, label %3

3:                                                ; preds = %1
  %4 = getelementptr inbounds %"struct.webrtc::BinaryDelayEstimatorFarend", %"struct.webrtc::BinaryDelayEstimatorFarend"* %0, i64 0, i32 1
  %5 = bitcast i32** %4 to i8**
  %6 = load i8*, i8** %5, align 8
  tail call void @free(i8* %6) #6
  store i32* null, i32** %4, align 8
  %7 = bitcast %"struct.webrtc::BinaryDelayEstimatorFarend"* %0 to i8**
  %8 = load i8*, i8** %7, align 8
  tail call void @free(i8* %8) #6
  %9 = bitcast %"struct.webrtc::BinaryDelayEstimatorFarend"* %0 to i8*
  tail call void @free(i8* %9) #6
  br label %10

10:                                               ; preds = %1, %3
  ret void
}

; Function Attrs: nounwind
declare void @free(i8* nocapture) local_unnamed_addr #1

; Function Attrs: nounwind ssp uwtable
define hidden %"struct.webrtc::BinaryDelayEstimatorFarend"* @_ZN6webrtc39WebRtc_CreateBinaryDelayEstimatorFarendEi(i32) local_unnamed_addr #0 {
  %2 = icmp sgt i32 %0, 1
  br i1 %2, label %3, label %28

3:                                                ; preds = %1
  %4 = tail call noalias i8* @malloc(i64 24) #6
  %5 = bitcast i8* %4 to %"struct.webrtc::BinaryDelayEstimatorFarend"*
  %6 = icmp eq i8* %4, null
  br i1 %6, label %28, label %7

7:                                                ; preds = %3
  %8 = getelementptr inbounds i8, i8* %4, i64 8
  %9 = bitcast i8* %8 to i8**
  %10 = sext i32 %0 to i64
  %11 = shl nsw i64 %10, 2
  %12 = getelementptr inbounds i8, i8* %4, i64 16
  %13 = bitcast i8* %12 to i32*
  store i32 0, i32* %13, align 8
  %14 = tail call i8* @malloc(i64 %11)
  store i8* %14, i8** %9, align 8
  %15 = bitcast i8* %4 to i8**
  %16 = call i8* @malloc(i64 %11)
  store i8* %16, i8** %15, align 8
  %17 = icmp eq i8* %14, null
  %18 = icmp eq i8* %16, null
  %19 = or i1 %17, %18
  %20 = select i1 %19, i32 0, i32 %0
  %21 = icmp sgt i32 %20, 0
  br i1 %21, label %22, label %27

22:                                               ; preds = %7
  %23 = getelementptr inbounds i8, i8* %4, i64 16
  %24 = bitcast i8* %23 to i32*
  %25 = sext i32 %20 to i64
  %26 = shl nsw i64 %25, 2
  tail call void @llvm.memset.p0i8.i64(i8* align 4 %14, i8 0, i64 %26, i1 false) #6
  tail call void @llvm.memset.p0i8.i64(i8* align 4 %16, i8 0, i64 %26, i1 false) #6
  store i32 %20, i32* %24, align 8
  br label %28

27:                                               ; preds = %7
  tail call void @free(i8* %14) #6
  tail call void @free(i8* %16) #6
  tail call void @free(i8* nonnull %4) #6
  br label %28

28:                                               ; preds = %22, %1, %27, %3
  %29 = phi %"struct.webrtc::BinaryDelayEstimatorFarend"* [ null, %3 ], [ null, %27 ], [ %5, %22 ], [ null, %1 ]
  ret %"struct.webrtc::BinaryDelayEstimatorFarend"* %29
}

; Function Attrs: nofree nounwind
declare noalias i8* @malloc(i64) local_unnamed_addr #2

; Function Attrs: nounwind ssp uwtable
define hidden i32 @_ZN6webrtc33WebRtc_AllocateFarendBufferMemoryEPNS_26BinaryDelayEstimatorFarendEi(%"struct.webrtc::BinaryDelayEstimatorFarend"* nocapture, i32) local_unnamed_addr #0 {
  %3 = getelementptr inbounds %"struct.webrtc::BinaryDelayEstimatorFarend", %"struct.webrtc::BinaryDelayEstimatorFarend"* %0, i64 0, i32 1
  %4 = bitcast i32** %3 to i8**
  %5 = load i8*, i8** %4, align 8
  %6 = sext i32 %1 to i64
  %7 = shl nsw i64 %6, 2
  %8 = tail call i8* @realloc(i8* %5, i64 %7) #6
  store i8* %8, i8** %4, align 8
  %9 = bitcast %"struct.webrtc::BinaryDelayEstimatorFarend"* %0 to i8**
  %10 = load i8*, i8** %9, align 8
  %11 = tail call i8* @realloc(i8* %10, i64 %7) #6
  store i8* %11, i8** %9, align 8
  %12 = load i32*, i32** %3, align 8
  %13 = icmp eq i32* %12, null
  %14 = icmp eq i8* %11, null
  %15 = or i1 %14, %13
  %16 = select i1 %15, i32 0, i32 %1
  %17 = getelementptr inbounds %"struct.webrtc::BinaryDelayEstimatorFarend", %"struct.webrtc::BinaryDelayEstimatorFarend"* %0, i64 0, i32 2
  %18 = load i32, i32* %17, align 8
  %19 = icmp sgt i32 %16, %18
  br i1 %19, label %20, label %33

20:                                               ; preds = %2
  %21 = getelementptr inbounds %"struct.webrtc::BinaryDelayEstimatorFarend", %"struct.webrtc::BinaryDelayEstimatorFarend"* %0, i64 0, i32 0
  %22 = sub nsw i32 %16, %18
  %23 = sext i32 %18 to i64
  %24 = getelementptr inbounds i32, i32* %12, i64 %23
  %25 = bitcast i32* %24 to i8*
  %26 = sext i32 %22 to i64
  %27 = shl nsw i64 %26, 2
  tail call void @llvm.memset.p0i8.i64(i8* align 4 %25, i8 0, i64 %27, i1 false)
  %28 = load i32*, i32** %21, align 8
  %29 = load i32, i32* %17, align 8
  %30 = sext i32 %29 to i64
  %31 = getelementptr inbounds i32, i32* %28, i64 %30
  %32 = bitcast i32* %31 to i8*
  tail call void @llvm.memset.p0i8.i64(i8* align 4 %32, i8 0, i64 %27, i1 false)
  br label %33

33:                                               ; preds = %20, %2
  store i32 %16, i32* %17, align 8
  ret i32 %16
}

; Function Attrs: nounwind
declare noalias i8* @realloc(i8* nocapture, i64) local_unnamed_addr #1

; Function Attrs: argmemonly nounwind
declare void @llvm.memset.p0i8.i64(i8* nocapture writeonly, i8, i64, i1 immarg) #3

; Function Attrs: nounwind ssp uwtable
define hidden void @_ZN6webrtc37WebRtc_InitBinaryDelayEstimatorFarendEPNS_26BinaryDelayEstimatorFarendE(%"struct.webrtc::BinaryDelayEstimatorFarend"* nocapture readonly) local_unnamed_addr #0 {
  %2 = getelementptr inbounds %"struct.webrtc::BinaryDelayEstimatorFarend", %"struct.webrtc::BinaryDelayEstimatorFarend"* %0, i64 0, i32 1
  %3 = bitcast i32** %2 to i8**
  %4 = load i8*, i8** %3, align 8
  %5 = getelementptr inbounds %"struct.webrtc::BinaryDelayEstimatorFarend", %"struct.webrtc::BinaryDelayEstimatorFarend"* %0, i64 0, i32 2
  %6 = load i32, i32* %5, align 8
  %7 = sext i32 %6 to i64
  %8 = shl nsw i64 %7, 2
  tail call void @llvm.memset.p0i8.i64(i8* align 4 %4, i8 0, i64 %8, i1 false)
  %9 = bitcast %"struct.webrtc::BinaryDelayEstimatorFarend"* %0 to i8**
  %10 = load i8*, i8** %9, align 8
  %11 = load i32, i32* %5, align 8
  %12 = sext i32 %11 to i64
  %13 = shl nsw i64 %12, 2
  tail call void @llvm.memset.p0i8.i64(i8* align 4 %10, i8 0, i64 %13, i1 false)
  ret void
}

; Function Attrs: nounwind ssp uwtable
define hidden void @_ZN6webrtc42WebRtc_SoftResetBinaryDelayEstimatorFarendEPNS_26BinaryDelayEstimatorFarendEi(%"struct.webrtc::BinaryDelayEstimatorFarend"* nocapture readonly, i32) local_unnamed_addr #0 {
  %3 = icmp slt i32 %1, 0
  %4 = sub nsw i32 0, %1
  %5 = select i1 %3, i32 %4, i32 %1
  %6 = getelementptr inbounds %"struct.webrtc::BinaryDelayEstimatorFarend", %"struct.webrtc::BinaryDelayEstimatorFarend"* %0, i64 0, i32 2
  %7 = load i32, i32* %6, align 8
  %8 = sub nsw i32 %7, %5
  %9 = icmp eq i32 %1, 0
  br i1 %9, label %40, label %10

10:                                               ; preds = %2
  %11 = icmp sgt i32 %1, 0
  %12 = select i1 %11, i32 %5, i32 0
  %13 = zext i32 %12 to i64
  %14 = select i1 %11, i32 0, i32 %5
  %15 = zext i32 %14 to i64
  %16 = select i1 %11, i32 0, i32 %8
  %17 = sext i32 %16 to i64
  %18 = getelementptr inbounds %"struct.webrtc::BinaryDelayEstimatorFarend", %"struct.webrtc::BinaryDelayEstimatorFarend"* %0, i64 0, i32 1
  %19 = load i32*, i32** %18, align 8
  %20 = getelementptr inbounds i32, i32* %19, i64 %13
  %21 = bitcast i32* %20 to i8*
  %22 = getelementptr inbounds i32, i32* %19, i64 %15
  %23 = bitcast i32* %22 to i8*
  %24 = sext i32 %8 to i64
  %25 = shl nsw i64 %24, 2
  tail call void @llvm.memmove.p0i8.p0i8.i64(i8* align 4 %21, i8* align 4 %23, i64 %25, i1 false)
  %26 = load i32*, i32** %18, align 8
  %27 = getelementptr inbounds i32, i32* %26, i64 %17
  %28 = bitcast i32* %27 to i8*
  %29 = zext i32 %5 to i64
  %30 = shl nuw nsw i64 %29, 2
  tail call void @llvm.memset.p0i8.i64(i8* align 4 %28, i8 0, i64 %30, i1 false)
  %31 = getelementptr inbounds %"struct.webrtc::BinaryDelayEstimatorFarend", %"struct.webrtc::BinaryDelayEstimatorFarend"* %0, i64 0, i32 0
  %32 = load i32*, i32** %31, align 8
  %33 = getelementptr inbounds i32, i32* %32, i64 %13
  %34 = bitcast i32* %33 to i8*
  %35 = getelementptr inbounds i32, i32* %32, i64 %15
  %36 = bitcast i32* %35 to i8*
  tail call void @llvm.memmove.p0i8.p0i8.i64(i8* align 4 %34, i8* align 4 %36, i64 %25, i1 false)
  %37 = load i32*, i32** %31, align 8
  %38 = getelementptr inbounds i32, i32* %37, i64 %17
  %39 = bitcast i32* %38 to i8*
  tail call void @llvm.memset.p0i8.i64(i8* align 4 %39, i8 0, i64 %30, i1 false)
  br label %40

40:                                               ; preds = %2, %10
  ret void
}

; Function Attrs: argmemonly nounwind
declare void @llvm.memmove.p0i8.p0i8.i64(i8* nocapture, i8* nocapture readonly, i64, i1 immarg) #3

; Function Attrs: nounwind ssp uwtable
define hidden void @_ZN6webrtc27WebRtc_AddBinaryFarSpectrumEPNS_26BinaryDelayEstimatorFarendEj(%"struct.webrtc::BinaryDelayEstimatorFarend"* nocapture readonly, i32) local_unnamed_addr #0 {
  %3 = getelementptr inbounds %"struct.webrtc::BinaryDelayEstimatorFarend", %"struct.webrtc::BinaryDelayEstimatorFarend"* %0, i64 0, i32 1
  %4 = load i32*, i32** %3, align 8
  %5 = getelementptr inbounds i32, i32* %4, i64 1
  %6 = bitcast i32* %5 to i8*
  %7 = bitcast i32* %4 to i8*
  %8 = getelementptr inbounds %"struct.webrtc::BinaryDelayEstimatorFarend", %"struct.webrtc::BinaryDelayEstimatorFarend"* %0, i64 0, i32 2
  %9 = load i32, i32* %8, align 8
  %10 = add nsw i32 %9, -1
  %11 = sext i32 %10 to i64
  %12 = shl nsw i64 %11, 2
  tail call void @llvm.memmove.p0i8.p0i8.i64(i8* align 4 %6, i8* align 4 %7, i64 %12, i1 false)
  %13 = load i32*, i32** %3, align 8
  store i32 %1, i32* %13, align 4
  %14 = getelementptr inbounds %"struct.webrtc::BinaryDelayEstimatorFarend", %"struct.webrtc::BinaryDelayEstimatorFarend"* %0, i64 0, i32 0
  %15 = load i32*, i32** %14, align 8
  %16 = getelementptr inbounds i32, i32* %15, i64 1
  %17 = bitcast i32* %16 to i8*
  %18 = bitcast i32* %15 to i8*
  %19 = load i32, i32* %8, align 8
  %20 = add nsw i32 %19, -1
  %21 = sext i32 %20 to i64
  %22 = shl nsw i64 %21, 2
  tail call void @llvm.memmove.p0i8.p0i8.i64(i8* align 4 %17, i8* align 4 %18, i64 %22, i1 false)
  %23 = lshr i32 %1, 1
  %24 = and i32 %23, 1533916891
  %25 = sub i32 %1, %24
  %26 = lshr i32 %1, 2
  %27 = and i32 %26, 153391689
  %28 = sub i32 %25, %27
  %29 = lshr i32 %28, 3
  %30 = add i32 %29, %28
  %31 = and i32 %30, -954437177
  %32 = lshr i32 %31, 6
  %33 = add nuw nsw i32 %32, %31
  %34 = lshr i32 %33, 12
  %35 = add nuw nsw i32 %34, %33
  %36 = lshr i32 %33, 24
  %37 = add nuw nsw i32 %35, %36
  %38 = and i32 %37, 63
  %39 = load i32*, i32** %14, align 8
  store i32 %38, i32* %39, align 4
  ret void
}

; Function Attrs: nounwind ssp uwtable
define hidden void @_ZN6webrtc31WebRtc_FreeBinaryDelayEstimatorEPNS_20BinaryDelayEstimatorE(%"struct.webrtc::BinaryDelayEstimator"*) local_unnamed_addr #0 {
  %2 = icmp eq %"struct.webrtc::BinaryDelayEstimator"* %0, null
  br i1 %2, label %17, label %3

3:                                                ; preds = %1
  %4 = getelementptr inbounds %"struct.webrtc::BinaryDelayEstimator", %"struct.webrtc::BinaryDelayEstimator"* %0, i64 0, i32 0
  %5 = bitcast %"struct.webrtc::BinaryDelayEstimator"* %0 to i8**
  %6 = load i8*, i8** %5, align 8
  tail call void @free(i8* %6) #6
  store i32* null, i32** %4, align 8
  %7 = getelementptr inbounds %"struct.webrtc::BinaryDelayEstimator", %"struct.webrtc::BinaryDelayEstimator"* %0, i64 0, i32 1
  %8 = bitcast i32** %7 to i8**
  %9 = load i8*, i8** %8, align 8
  tail call void @free(i8* %9) #6
  store i32* null, i32** %7, align 8
  %10 = getelementptr inbounds %"struct.webrtc::BinaryDelayEstimator", %"struct.webrtc::BinaryDelayEstimator"* %0, i64 0, i32 2
  %11 = bitcast i32** %10 to i8**
  %12 = load i8*, i8** %11, align 8
  tail call void @free(i8* %12) #6
  store i32* null, i32** %10, align 8
  %13 = getelementptr inbounds %"struct.webrtc::BinaryDelayEstimator", %"struct.webrtc::BinaryDelayEstimator"* %0, i64 0, i32 13
  %14 = bitcast float** %13 to i8**
  %15 = load i8*, i8** %14, align 8
  tail call void @free(i8* %15) #6
  %16 = bitcast %"struct.webrtc::BinaryDelayEstimator"* %0 to i8*
  tail call void @free(i8* %16) #6
  br label %17

17:                                               ; preds = %1, %3
  ret void
}

; Function Attrs: nounwind ssp uwtable
define hidden %"struct.webrtc::BinaryDelayEstimator"* @_ZN6webrtc33WebRtc_CreateBinaryDelayEstimatorEPNS_26BinaryDelayEstimatorFarendEi(%"struct.webrtc::BinaryDelayEstimatorFarend"*, i32) local_unnamed_addr #0 {
  %3 = icmp ne %"struct.webrtc::BinaryDelayEstimatorFarend"* %0, null
  %4 = icmp sgt i32 %1, -1
  %5 = and i1 %3, %4
  br i1 %5, label %6, label %51

6:                                                ; preds = %2
  %7 = tail call noalias i8* @malloc(i64 88) #6
  %8 = bitcast i8* %7 to %"struct.webrtc::BinaryDelayEstimator"*
  %9 = icmp eq i8* %7, null
  br i1 %9, label %51, label %10

10:                                               ; preds = %6
  %11 = getelementptr inbounds i8, i8* %7, i64 80
  %12 = bitcast i8* %11 to %"struct.webrtc::BinaryDelayEstimatorFarend"**
  store %"struct.webrtc::BinaryDelayEstimatorFarend"* %0, %"struct.webrtc::BinaryDelayEstimatorFarend"** %12, align 8
  %13 = add nuw nsw i32 %1, 1
  %14 = getelementptr inbounds i8, i8* %7, i64 24
  %15 = bitcast i8* %14 to i32*
  store i32 %13, i32* %15, align 8
  %16 = getelementptr inbounds i8, i8* %7, i64 28
  %17 = bitcast i8* %16 to i32*
  store i32 0, i32* %17, align 4
  %18 = getelementptr inbounds i8, i8* %7, i64 44
  %19 = bitcast i8* %18 to i32*
  store i32 0, i32* %19, align 4
  %20 = getelementptr inbounds i8, i8* %7, i64 48
  %21 = bitcast i8* %20 to i32*
  store i32 0, i32* %21, align 8
  %22 = getelementptr inbounds i8, i8* %7, i64 76
  %23 = bitcast i8* %22 to i32*
  store i32 %1, i32* %23, align 4
  %24 = bitcast i8* %7 to i32**
  %25 = getelementptr inbounds i8, i8* %7, i64 8
  %26 = bitcast i8* %25 to i32**
  %27 = getelementptr inbounds i8, i8* %7, i64 64
  %28 = bitcast i8* %27 to float**
  store float* null, float** %28, align 8
  %29 = sext i32 %13 to i64
  %30 = shl nsw i64 %29, 2
  call void @llvm.memset.p0i8.i64(i8* nonnull align 8 %7, i8 0, i64 16, i1 false)
  %31 = tail call noalias i8* @malloc(i64 %30) #6
  %32 = getelementptr inbounds i8, i8* %7, i64 16
  %33 = bitcast i8* %32 to i32**
  %34 = bitcast i8* %32 to i8**
  store i8* %31, i8** %34, align 8
  %35 = icmp eq i8* %31, null
  br i1 %35, label %44, label %36

36:                                               ; preds = %10
  %37 = getelementptr inbounds %"struct.webrtc::BinaryDelayEstimatorFarend", %"struct.webrtc::BinaryDelayEstimatorFarend"* %0, i64 0, i32 2
  %38 = load i32, i32* %37, align 8
  %39 = tail call i32 @_ZN6webrtc34WebRtc_AllocateHistoryBufferMemoryEPNS_20BinaryDelayEstimatorEi(%"struct.webrtc::BinaryDelayEstimator"* nonnull %8, i32 %38)
  %40 = icmp eq i32 %39, 0
  br i1 %40, label %41, label %51

41:                                               ; preds = %36
  %42 = bitcast i8* %7 to i8**
  %43 = load i8*, i8** %42, align 8
  br label %44

44:                                               ; preds = %10, %41
  %45 = phi i8* [ %43, %41 ], [ null, %10 ]
  tail call void @free(i8* %45) #6
  store i32* null, i32** %24, align 8
  %46 = bitcast i8* %25 to i8**
  %47 = load i8*, i8** %46, align 8
  tail call void @free(i8* %47) #6
  store i32* null, i32** %26, align 8
  %48 = load i8*, i8** %34, align 8
  tail call void @free(i8* %48) #6
  store i32* null, i32** %33, align 8
  %49 = bitcast i8* %27 to i8**
  %50 = load i8*, i8** %49, align 8
  tail call void @free(i8* %50) #6
  tail call void @free(i8* nonnull %7) #6
  br label %51

51:                                               ; preds = %2, %36, %44, %6
  %52 = phi %"struct.webrtc::BinaryDelayEstimator"* [ null, %6 ], [ null, %44 ], [ %8, %36 ], [ null, %2 ]
  ret %"struct.webrtc::BinaryDelayEstimator"* %52
}

; Function Attrs: nounwind ssp uwtable
define hidden i32 @_ZN6webrtc34WebRtc_AllocateHistoryBufferMemoryEPNS_20BinaryDelayEstimatorEi(%"struct.webrtc::BinaryDelayEstimator"* nocapture, i32) local_unnamed_addr #0 {
  %3 = getelementptr inbounds %"struct.webrtc::BinaryDelayEstimator", %"struct.webrtc::BinaryDelayEstimator"* %0, i64 0, i32 16
  %4 = load %"struct.webrtc::BinaryDelayEstimatorFarend"*, %"struct.webrtc::BinaryDelayEstimatorFarend"** %3, align 8
  %5 = getelementptr inbounds %"struct.webrtc::BinaryDelayEstimatorFarend", %"struct.webrtc::BinaryDelayEstimatorFarend"* %4, i64 0, i32 2
  %6 = load i32, i32* %5, align 8
  %7 = icmp eq i32 %6, %1
  br i1 %7, label %39, label %8

8:                                                ; preds = %2
  %9 = getelementptr inbounds %"struct.webrtc::BinaryDelayEstimatorFarend", %"struct.webrtc::BinaryDelayEstimatorFarend"* %4, i64 0, i32 1
  %10 = bitcast i32** %9 to i8**
  %11 = load i8*, i8** %10, align 8
  %12 = sext i32 %1 to i64
  %13 = shl nsw i64 %12, 2
  %14 = tail call i8* @realloc(i8* %11, i64 %13) #6
  store i8* %14, i8** %10, align 8
  %15 = bitcast %"struct.webrtc::BinaryDelayEstimatorFarend"* %4 to i8**
  %16 = load i8*, i8** %15, align 8
  %17 = tail call i8* @realloc(i8* %16, i64 %13) #6
  store i8* %17, i8** %15, align 8
  %18 = load i32*, i32** %9, align 8
  %19 = icmp eq i32* %18, null
  %20 = icmp eq i8* %17, null
  %21 = or i1 %20, %19
  %22 = select i1 %21, i32 0, i32 %1
  %23 = load i32, i32* %5, align 8
  %24 = icmp sgt i32 %22, %23
  br i1 %24, label %25, label %38

25:                                               ; preds = %8
  %26 = getelementptr inbounds %"struct.webrtc::BinaryDelayEstimatorFarend", %"struct.webrtc::BinaryDelayEstimatorFarend"* %4, i64 0, i32 0
  %27 = sub nsw i32 %22, %23
  %28 = sext i32 %23 to i64
  %29 = getelementptr inbounds i32, i32* %18, i64 %28
  %30 = bitcast i32* %29 to i8*
  %31 = sext i32 %27 to i64
  %32 = shl nsw i64 %31, 2
  tail call void @llvm.memset.p0i8.i64(i8* align 4 %30, i8 0, i64 %32, i1 false) #6
  %33 = load i32*, i32** %26, align 8
  %34 = load i32, i32* %5, align 8
  %35 = sext i32 %34 to i64
  %36 = getelementptr inbounds i32, i32* %33, i64 %35
  %37 = bitcast i32* %36 to i8*
  tail call void @llvm.memset.p0i8.i64(i8* align 4 %37, i8 0, i64 %32, i1 false) #6
  br label %38

38:                                               ; preds = %8, %25
  store i32 %22, i32* %5, align 8
  br label %39

39:                                               ; preds = %2, %38
  %40 = phi i32 [ %22, %38 ], [ %1, %2 ]
  %41 = getelementptr inbounds %"struct.webrtc::BinaryDelayEstimator", %"struct.webrtc::BinaryDelayEstimator"* %0, i64 0, i32 0
  %42 = bitcast %"struct.webrtc::BinaryDelayEstimator"* %0 to i8**
  %43 = load i8*, i8** %42, align 8
  %44 = add nsw i32 %40, 1
  %45 = sext i32 %44 to i64
  %46 = shl nsw i64 %45, 2
  %47 = tail call i8* @realloc(i8* %43, i64 %46) #6
  store i8* %47, i8** %42, align 8
  %48 = getelementptr inbounds %"struct.webrtc::BinaryDelayEstimator", %"struct.webrtc::BinaryDelayEstimator"* %0, i64 0, i32 1
  %49 = bitcast i32** %48 to i8**
  %50 = load i8*, i8** %49, align 8
  %51 = sext i32 %40 to i64
  %52 = shl nsw i64 %51, 2
  %53 = tail call i8* @realloc(i8* %50, i64 %52) #6
  store i8* %53, i8** %49, align 8
  %54 = getelementptr inbounds %"struct.webrtc::BinaryDelayEstimator", %"struct.webrtc::BinaryDelayEstimator"* %0, i64 0, i32 13
  %55 = bitcast float** %54 to i8**
  %56 = load i8*, i8** %55, align 8
  %57 = tail call i8* @realloc(i8* %56, i64 %46) #6
  store i8* %57, i8** %55, align 8
  %58 = load i32*, i32** %41, align 8
  %59 = icmp eq i32* %58, null
  br i1 %59, label %65, label %60

60:                                               ; preds = %39
  %61 = load i32*, i32** %48, align 8
  %62 = icmp eq i32* %61, null
  %63 = icmp eq i8* %57, null
  %64 = or i1 %63, %62
  br i1 %64, label %65, label %66

65:                                               ; preds = %60, %39
  br label %66

66:                                               ; preds = %60, %65
  %67 = phi i32 [ 0, %65 ], [ %40, %60 ]
  %68 = getelementptr inbounds %"struct.webrtc::BinaryDelayEstimator", %"struct.webrtc::BinaryDelayEstimator"* %0, i64 0, i32 4
  %69 = load i32, i32* %68, align 4
  %70 = icmp sgt i32 %67, %69
  br i1 %70, label %71, label %88

71:                                               ; preds = %66
  %72 = sub nsw i32 %67, %69
  %73 = sext i32 %69 to i64
  %74 = getelementptr inbounds i32, i32* %58, i64 %73
  %75 = bitcast i32* %74 to i8*
  %76 = sext i32 %72 to i64
  %77 = shl nsw i64 %76, 2
  tail call void @llvm.memset.p0i8.i64(i8* align 4 %75, i8 0, i64 %77, i1 false)
  %78 = load i32*, i32** %48, align 8
  %79 = load i32, i32* %68, align 4
  %80 = sext i32 %79 to i64
  %81 = getelementptr inbounds i32, i32* %78, i64 %80
  %82 = bitcast i32* %81 to i8*
  tail call void @llvm.memset.p0i8.i64(i8* align 4 %82, i8 0, i64 %77, i1 false)
  %83 = load float*, float** %54, align 8
  %84 = load i32, i32* %68, align 4
  %85 = sext i32 %84 to i64
  %86 = getelementptr inbounds float, float* %83, i64 %85
  %87 = bitcast float* %86 to i8*
  tail call void @llvm.memset.p0i8.i64(i8* align 4 %87, i8 0, i64 %77, i1 false)
  br label %88

88:                                               ; preds = %71, %66
  store i32 %67, i32* %68, align 4
  ret i32 %67
}

; Function Attrs: nounwind ssp uwtable
define hidden void @_ZN6webrtc31WebRtc_InitBinaryDelayEstimatorEPNS_20BinaryDelayEstimatorE(%"struct.webrtc::BinaryDelayEstimator"* nocapture) local_unnamed_addr #0 {
  %2 = getelementptr inbounds %"struct.webrtc::BinaryDelayEstimator", %"struct.webrtc::BinaryDelayEstimator"* %0, i64 0, i32 1
  %3 = bitcast i32** %2 to i8**
  %4 = load i8*, i8** %3, align 8
  %5 = getelementptr inbounds %"struct.webrtc::BinaryDelayEstimator", %"struct.webrtc::BinaryDelayEstimator"* %0, i64 0, i32 4
  %6 = load i32, i32* %5, align 4
  %7 = sext i32 %6 to i64
  %8 = shl nsw i64 %7, 2
  tail call void @llvm.memset.p0i8.i64(i8* align 4 %4, i8 0, i64 %8, i1 false)
  %9 = getelementptr inbounds %"struct.webrtc::BinaryDelayEstimator", %"struct.webrtc::BinaryDelayEstimator"* %0, i64 0, i32 2
  %10 = bitcast i32** %9 to i8**
  %11 = load i8*, i8** %10, align 8
  %12 = getelementptr inbounds %"struct.webrtc::BinaryDelayEstimator", %"struct.webrtc::BinaryDelayEstimator"* %0, i64 0, i32 3
  %13 = load i32, i32* %12, align 8
  %14 = sext i32 %13 to i64
  %15 = shl nsw i64 %14, 2
  tail call void @llvm.memset.p0i8.i64(i8* align 4 %11, i8 0, i64 %15, i1 false)
  %16 = load i32, i32* %5, align 4
  %17 = icmp slt i32 %16, 0
  br i1 %17, label %31, label %18

18:                                               ; preds = %1
  %19 = getelementptr inbounds %"struct.webrtc::BinaryDelayEstimator", %"struct.webrtc::BinaryDelayEstimator"* %0, i64 0, i32 0
  %20 = getelementptr inbounds %"struct.webrtc::BinaryDelayEstimator", %"struct.webrtc::BinaryDelayEstimator"* %0, i64 0, i32 13
  br label %21

21:                                               ; preds = %21, %18
  %22 = phi i64 [ %27, %21 ], [ 0, %18 ]
  %23 = load i32*, i32** %19, align 8
  %24 = getelementptr inbounds i32, i32* %23, i64 %22
  store i32 10240, i32* %24, align 4
  %25 = load float*, float** %20, align 8
  %26 = getelementptr inbounds float, float* %25, i64 %22
  store float 0.000000e+00, float* %26, align 4
  %27 = add nuw nsw i64 %22, 1
  %28 = load i32, i32* %5, align 4
  %29 = sext i32 %28 to i64
  %30 = icmp slt i64 %22, %29
  br i1 %30, label %21, label %31

31:                                               ; preds = %21, %1
  %32 = phi i32 [ %16, %1 ], [ %28, %21 ]
  %33 = getelementptr inbounds %"struct.webrtc::BinaryDelayEstimator", %"struct.webrtc::BinaryDelayEstimator"* %0, i64 0, i32 5
  store i32 16384, i32* %33, align 8
  %34 = getelementptr inbounds %"struct.webrtc::BinaryDelayEstimator", %"struct.webrtc::BinaryDelayEstimator"* %0, i64 0, i32 6
  store i32 16384, i32* %34, align 4
  %35 = getelementptr inbounds %"struct.webrtc::BinaryDelayEstimator", %"struct.webrtc::BinaryDelayEstimator"* %0, i64 0, i32 7
  store i32 -2, i32* %35, align 8
  %36 = getelementptr inbounds %"struct.webrtc::BinaryDelayEstimator", %"struct.webrtc::BinaryDelayEstimator"* %0, i64 0, i32 10
  store i32 -2, i32* %36, align 4
  %37 = getelementptr inbounds %"struct.webrtc::BinaryDelayEstimator", %"struct.webrtc::BinaryDelayEstimator"* %0, i64 0, i32 11
  store i32 %32, i32* %37, align 8
  %38 = getelementptr inbounds %"struct.webrtc::BinaryDelayEstimator", %"struct.webrtc::BinaryDelayEstimator"* %0, i64 0, i32 12
  store i32 0, i32* %38, align 4
  %39 = getelementptr inbounds %"struct.webrtc::BinaryDelayEstimator", %"struct.webrtc::BinaryDelayEstimator"* %0, i64 0, i32 14
  store float 0.000000e+00, float* %39, align 8
  ret void
}

; Function Attrs: nofree norecurse nounwind ssp uwtable
define hidden i32 @_ZN6webrtc36WebRtc_SoftResetBinaryDelayEstimatorEPNS_20BinaryDelayEstimatorEi(%"struct.webrtc::BinaryDelayEstimator"* nocapture, i32) local_unnamed_addr #4 {
  %3 = getelementptr inbounds %"struct.webrtc::BinaryDelayEstimator", %"struct.webrtc::BinaryDelayEstimator"* %0, i64 0, i32 15
  %4 = load i32, i32* %3, align 4
  %5 = sub nsw i32 %4, %1
  %6 = icmp sgt i32 %5, 0
  %7 = select i1 %6, i32 %5, i32 0
  store i32 %7, i32* %3, align 4
  %8 = getelementptr inbounds %"struct.webrtc::BinaryDelayEstimator", %"struct.webrtc::BinaryDelayEstimator"* %0, i64 0, i32 3
  %9 = load i32, i32* %8, align 8
  %10 = icmp slt i32 %7, %9
  br i1 %10, label %13, label %11

11:                                               ; preds = %2
  %12 = add nsw i32 %9, -1
  store i32 %12, i32* %3, align 4
  br label %13

13:                                               ; preds = %2, %11
  %14 = phi i32 [ %7, %2 ], [ %12, %11 ]
  %15 = sub nsw i32 %4, %14
  ret i32 %15
}

; Function Attrs: nounwind ssp uwtable
define hidden i32 @_ZN6webrtc28WebRtc_ProcessBinarySpectrumEPNS_20BinaryDelayEstimatorEj(%"struct.webrtc::BinaryDelayEstimator"*, i32) local_unnamed_addr #0 {
  %3 = getelementptr inbounds %"struct.webrtc::BinaryDelayEstimator", %"struct.webrtc::BinaryDelayEstimator"* %0, i64 0, i32 16
  %4 = load %"struct.webrtc::BinaryDelayEstimatorFarend"*, %"struct.webrtc::BinaryDelayEstimatorFarend"** %3, align 8
  %5 = getelementptr inbounds %"struct.webrtc::BinaryDelayEstimatorFarend", %"struct.webrtc::BinaryDelayEstimatorFarend"* %4, i64 0, i32 2
  %6 = load i32, i32* %5, align 8
  %7 = getelementptr inbounds %"struct.webrtc::BinaryDelayEstimator", %"struct.webrtc::BinaryDelayEstimator"* %0, i64 0, i32 4
  %8 = load i32, i32* %7, align 4
  %9 = icmp eq i32 %6, %8
  br i1 %9, label %10, label %440

10:                                               ; preds = %2
  %11 = getelementptr inbounds %"struct.webrtc::BinaryDelayEstimator", %"struct.webrtc::BinaryDelayEstimator"* %0, i64 0, i32 3
  %12 = load i32, i32* %11, align 8
  %13 = icmp sgt i32 %12, 1
  br i1 %13, label %14, label %32

14:                                               ; preds = %10
  %15 = getelementptr inbounds %"struct.webrtc::BinaryDelayEstimator", %"struct.webrtc::BinaryDelayEstimator"* %0, i64 0, i32 2
  %16 = load i32*, i32** %15, align 8
  %17 = getelementptr inbounds i32, i32* %16, i64 1
  %18 = bitcast i32* %17 to i8*
  %19 = bitcast i32* %16 to i8*
  %20 = add nsw i32 %12, -1
  %21 = sext i32 %20 to i64
  %22 = shl nsw i64 %21, 2
  tail call void @llvm.memmove.p0i8.p0i8.i64(i8* align 4 %18, i8* align 4 %19, i64 %22, i1 false)
  %23 = load i32*, i32** %15, align 8
  store i32 %1, i32* %23, align 4
  %24 = load i32*, i32** %15, align 8
  %25 = getelementptr inbounds %"struct.webrtc::BinaryDelayEstimator", %"struct.webrtc::BinaryDelayEstimator"* %0, i64 0, i32 15
  %26 = load i32, i32* %25, align 4
  %27 = sext i32 %26 to i64
  %28 = getelementptr inbounds i32, i32* %24, i64 %27
  %29 = load i32, i32* %28, align 4
  %30 = load %"struct.webrtc::BinaryDelayEstimatorFarend"*, %"struct.webrtc::BinaryDelayEstimatorFarend"** %3, align 8
  %31 = load i32, i32* %7, align 4
  br label %32

32:                                               ; preds = %14, %10
  %33 = phi i32 [ %31, %14 ], [ %6, %10 ]
  %34 = phi %"struct.webrtc::BinaryDelayEstimatorFarend"* [ %30, %14 ], [ %4, %10 ]
  %35 = phi i32 [ %29, %14 ], [ %1, %10 ]
  %36 = getelementptr inbounds %"struct.webrtc::BinaryDelayEstimatorFarend", %"struct.webrtc::BinaryDelayEstimatorFarend"* %34, i64 0, i32 1
  %37 = load i32*, i32** %36, align 8
  %38 = getelementptr inbounds %"struct.webrtc::BinaryDelayEstimator", %"struct.webrtc::BinaryDelayEstimator"* %0, i64 0, i32 1
  %39 = load i32*, i32** %38, align 8
  %40 = icmp sgt i32 %33, 0
  br i1 %40, label %41, label %204

41:                                               ; preds = %32
  %42 = zext i32 %33 to i64
  %43 = icmp ult i32 %33, 4
  br i1 %43, label %82, label %44

44:                                               ; preds = %41
  %45 = getelementptr i32, i32* %39, i64 %42
  %46 = getelementptr i32, i32* %37, i64 %42
  %47 = icmp ult i32* %39, %46
  %48 = icmp ult i32* %37, %45
  %49 = and i1 %47, %48
  br i1 %49, label %82, label %50

50:                                               ; preds = %44
  %51 = and i64 %42, 4294967292
  %52 = insertelement <4 x i32> undef, i32 %35, i32 0
  %53 = shufflevector <4 x i32> %52, <4 x i32> undef, <4 x i32> zeroinitializer
  br label %54

54:                                               ; preds = %54, %50
  %55 = phi i64 [ 0, %50 ], [ %78, %54 ]
  %56 = getelementptr inbounds i32, i32* %37, i64 %55
  %57 = bitcast i32* %56 to <4 x i32>*
  %58 = load <4 x i32>, <4 x i32>* %57, align 4, !alias.scope !2
  %59 = xor <4 x i32> %58, %53
  %60 = lshr <4 x i32> %59, <i32 1, i32 1, i32 1, i32 1>
  %61 = and <4 x i32> %60, <i32 1533916891, i32 1533916891, i32 1533916891, i32 1533916891>
  %62 = sub <4 x i32> %59, %61
  %63 = lshr <4 x i32> %59, <i32 2, i32 2, i32 2, i32 2>
  %64 = and <4 x i32> %63, <i32 153391689, i32 153391689, i32 153391689, i32 153391689>
  %65 = sub <4 x i32> %62, %64
  %66 = lshr <4 x i32> %65, <i32 3, i32 3, i32 3, i32 3>
  %67 = add <4 x i32> %66, %65
  %68 = and <4 x i32> %67, <i32 -954437177, i32 -954437177, i32 -954437177, i32 -954437177>
  %69 = lshr <4 x i32> %68, <i32 6, i32 6, i32 6, i32 6>
  %70 = add nuw nsw <4 x i32> %69, %68
  %71 = lshr <4 x i32> %70, <i32 12, i32 12, i32 12, i32 12>
  %72 = add nuw nsw <4 x i32> %71, %70
  %73 = lshr <4 x i32> %70, <i32 24, i32 24, i32 24, i32 24>
  %74 = add nuw nsw <4 x i32> %72, %73
  %75 = and <4 x i32> %74, <i32 63, i32 63, i32 63, i32 63>
  %76 = getelementptr inbounds i32, i32* %39, i64 %55
  %77 = bitcast i32* %76 to <4 x i32>*
  store <4 x i32> %75, <4 x i32>* %77, align 4, !alias.scope !5, !noalias !2
  %78 = add i64 %55, 4
  %79 = icmp eq i64 %78, %51
  br i1 %79, label %80, label %54, !llvm.loop !7

80:                                               ; preds = %54
  %81 = icmp eq i64 %51, %42
  br i1 %81, label %108, label %82

82:                                               ; preds = %80, %44, %41
  %83 = phi i64 [ 0, %44 ], [ 0, %41 ], [ %51, %80 ]
  br label %84

84:                                               ; preds = %82, %84
  %85 = phi i64 [ %106, %84 ], [ %83, %82 ]
  %86 = getelementptr inbounds i32, i32* %37, i64 %85
  %87 = load i32, i32* %86, align 4
  %88 = xor i32 %87, %35
  %89 = lshr i32 %88, 1
  %90 = and i32 %89, 1533916891
  %91 = sub i32 %88, %90
  %92 = lshr i32 %88, 2
  %93 = and i32 %92, 153391689
  %94 = sub i32 %91, %93
  %95 = lshr i32 %94, 3
  %96 = add i32 %95, %94
  %97 = and i32 %96, -954437177
  %98 = lshr i32 %97, 6
  %99 = add nuw nsw i32 %98, %97
  %100 = lshr i32 %99, 12
  %101 = add nuw nsw i32 %100, %99
  %102 = lshr i32 %99, 24
  %103 = add nuw nsw i32 %101, %102
  %104 = and i32 %103, 63
  %105 = getelementptr inbounds i32, i32* %39, i64 %85
  store i32 %104, i32* %105, align 4
  %106 = add nuw nsw i64 %85, 1
  %107 = icmp eq i64 %106, %42
  br i1 %107, label %108, label %84, !llvm.loop !9

108:                                              ; preds = %84, %80
  %109 = load i32, i32* %7, align 4
  %110 = icmp sgt i32 %109, 0
  br i1 %110, label %111, label %204

111:                                              ; preds = %108
  %112 = getelementptr inbounds %"struct.webrtc::BinaryDelayEstimator", %"struct.webrtc::BinaryDelayEstimator"* %0, i64 0, i32 0
  br label %123

113:                                              ; preds = %155
  %114 = icmp sgt i32 %156, 0
  br i1 %114, label %115, label %204

115:                                              ; preds = %113
  %116 = getelementptr inbounds %"struct.webrtc::BinaryDelayEstimator", %"struct.webrtc::BinaryDelayEstimator"* %0, i64 0, i32 0
  %117 = load i32*, i32** %116, align 8
  %118 = zext i32 %156 to i64
  %119 = and i64 %118, 1
  %120 = icmp eq i32 %156, 1
  br i1 %120, label %186, label %121

121:                                              ; preds = %115
  %122 = sub nsw i64 %118, %119
  br label %160

123:                                              ; preds = %111, %155
  %124 = phi i32 [ %109, %111 ], [ %156, %155 ]
  %125 = phi i64 [ 0, %111 ], [ %157, %155 ]
  %126 = load %"struct.webrtc::BinaryDelayEstimatorFarend"*, %"struct.webrtc::BinaryDelayEstimatorFarend"** %3, align 8
  %127 = getelementptr inbounds %"struct.webrtc::BinaryDelayEstimatorFarend", %"struct.webrtc::BinaryDelayEstimatorFarend"* %126, i64 0, i32 0
  %128 = load i32*, i32** %127, align 8
  %129 = getelementptr inbounds i32, i32* %128, i64 %125
  %130 = load i32, i32* %129, align 4
  %131 = icmp sgt i32 %130, 0
  br i1 %131, label %132, label %155

132:                                              ; preds = %123
  %133 = load i32*, i32** %38, align 8
  %134 = getelementptr inbounds i32, i32* %133, i64 %125
  %135 = load i32, i32* %134, align 4
  %136 = shl i32 %135, 9
  %137 = mul nsw i32 %130, 3
  %138 = ashr i32 %137, 4
  %139 = sub nsw i32 13, %138
  %140 = load i32*, i32** %112, align 8
  %141 = getelementptr inbounds i32, i32* %140, i64 %125
  %142 = load i32, i32* %141, align 4
  %143 = sub nsw i32 %136, %142
  %144 = icmp slt i32 %143, 0
  br i1 %144, label %145, label %149

145:                                              ; preds = %132
  %146 = sub nsw i32 0, %143
  %147 = ashr i32 %146, %139
  %148 = sub nsw i32 0, %147
  br label %151

149:                                              ; preds = %132
  %150 = lshr i32 %143, %139
  br label %151

151:                                              ; preds = %145, %149
  %152 = phi i32 [ %148, %145 ], [ %150, %149 ]
  %153 = add nsw i32 %152, %142
  store i32 %153, i32* %141, align 4
  %154 = load i32, i32* %7, align 4
  br label %155

155:                                              ; preds = %151, %123
  %156 = phi i32 [ %154, %151 ], [ %124, %123 ]
  %157 = add nuw nsw i64 %125, 1
  %158 = sext i32 %156 to i64
  %159 = icmp slt i64 %157, %158
  br i1 %159, label %123, label %113

160:                                              ; preds = %160, %121
  %161 = phi i64 [ 0, %121 ], [ %183, %160 ]
  %162 = phi i32 [ 0, %121 ], [ %182, %160 ]
  %163 = phi i32 [ 16384, %121 ], [ %180, %160 ]
  %164 = phi i32 [ -1, %121 ], [ %179, %160 ]
  %165 = phi i64 [ %122, %121 ], [ %184, %160 ]
  %166 = getelementptr inbounds i32, i32* %117, i64 %161
  %167 = load i32, i32* %166, align 4
  %168 = icmp slt i32 %167, %163
  %169 = trunc i64 %161 to i32
  %170 = select i1 %168, i32 %169, i32 %164
  %171 = select i1 %168, i32 %167, i32 %163
  %172 = icmp sgt i32 %167, %162
  %173 = select i1 %172, i32 %167, i32 %162
  %174 = or i64 %161, 1
  %175 = getelementptr inbounds i32, i32* %117, i64 %174
  %176 = load i32, i32* %175, align 4
  %177 = icmp slt i32 %176, %171
  %178 = trunc i64 %174 to i32
  %179 = select i1 %177, i32 %178, i32 %170
  %180 = select i1 %177, i32 %176, i32 %171
  %181 = icmp sgt i32 %176, %173
  %182 = select i1 %181, i32 %176, i32 %173
  %183 = add nuw nsw i64 %161, 2
  %184 = add i64 %165, -2
  %185 = icmp eq i64 %184, 0
  br i1 %185, label %186, label %160

186:                                              ; preds = %160, %115
  %187 = phi i32 [ undef, %115 ], [ %179, %160 ]
  %188 = phi i32 [ undef, %115 ], [ %180, %160 ]
  %189 = phi i32 [ undef, %115 ], [ %182, %160 ]
  %190 = phi i64 [ 0, %115 ], [ %183, %160 ]
  %191 = phi i32 [ 0, %115 ], [ %182, %160 ]
  %192 = phi i32 [ 16384, %115 ], [ %180, %160 ]
  %193 = phi i32 [ -1, %115 ], [ %179, %160 ]
  %194 = icmp eq i64 %119, 0
  br i1 %194, label %204, label %195

195:                                              ; preds = %186
  %196 = getelementptr inbounds i32, i32* %117, i64 %190
  %197 = load i32, i32* %196, align 4
  %198 = icmp slt i32 %197, %192
  %199 = icmp sgt i32 %197, %191
  %200 = select i1 %199, i32 %197, i32 %191
  %201 = select i1 %198, i32 %197, i32 %192
  %202 = trunc i64 %190 to i32
  %203 = select i1 %198, i32 %202, i32 %193
  br label %204

204:                                              ; preds = %195, %186, %32, %108, %113
  %205 = phi i32 [ %156, %113 ], [ %109, %108 ], [ %33, %32 ], [ %156, %186 ], [ %156, %195 ]
  %206 = phi i32 [ -1, %113 ], [ -1, %108 ], [ -1, %32 ], [ %187, %186 ], [ %203, %195 ]
  %207 = phi i32 [ 16384, %113 ], [ 16384, %108 ], [ 16384, %32 ], [ %188, %186 ], [ %201, %195 ]
  %208 = phi i32 [ 0, %113 ], [ 0, %108 ], [ 0, %32 ], [ %189, %186 ], [ %200, %195 ]
  %209 = sub nsw i32 %208, %207
  %210 = getelementptr inbounds %"struct.webrtc::BinaryDelayEstimator", %"struct.webrtc::BinaryDelayEstimator"* %0, i64 0, i32 5
  %211 = load i32, i32* %210, align 8
  %212 = icmp sgt i32 %211, 8704
  %213 = icmp sgt i32 %209, 2816
  %214 = and i1 %213, %212
  br i1 %214, label %215, label %226

215:                                              ; preds = %204
  %216 = icmp sgt i32 %207, 7680
  %217 = select i1 %216, i32 %207, i32 7680
  %218 = add nuw nsw i32 %217, 1024
  %219 = icmp sgt i32 %211, %218
  br i1 %219, label %220, label %221

220:                                              ; preds = %215
  store i32 %218, i32* %210, align 8
  br label %221

221:                                              ; preds = %215, %220
  %222 = phi i32 [ %211, %215 ], [ %218, %220 ]
  %223 = getelementptr inbounds %"struct.webrtc::BinaryDelayEstimator", %"struct.webrtc::BinaryDelayEstimator"* %0, i64 0, i32 6
  %224 = load i32, i32* %223, align 4
  %225 = add nsw i32 %224, 1
  store i32 %225, i32* %223, align 4
  br label %231

226:                                              ; preds = %204
  %227 = getelementptr inbounds %"struct.webrtc::BinaryDelayEstimator", %"struct.webrtc::BinaryDelayEstimator"* %0, i64 0, i32 6
  %228 = load i32, i32* %227, align 4
  %229 = add nsw i32 %228, 1
  store i32 %229, i32* %227, align 4
  %230 = icmp sgt i32 %209, 1024
  br i1 %230, label %231, label %239

231:                                              ; preds = %221, %226
  %232 = phi i32 [ %222, %221 ], [ %211, %226 ]
  %233 = phi i32 [ %224, %221 ], [ %228, %226 ]
  %234 = phi i32* [ %223, %221 ], [ %227, %226 ]
  %235 = icmp slt i32 %207, %232
  br i1 %235, label %239, label %236

236:                                              ; preds = %231
  %237 = icmp sle i32 %207, %233
  %238 = zext i1 %237 to i32
  br label %239

239:                                              ; preds = %231, %236, %226
  %240 = phi i32* [ %227, %226 ], [ %234, %231 ], [ %234, %236 ]
  %241 = phi i32 [ 0, %226 ], [ 1, %231 ], [ %238, %236 ]
  %242 = load %"struct.webrtc::BinaryDelayEstimatorFarend"*, %"struct.webrtc::BinaryDelayEstimatorFarend"** %3, align 8
  %243 = getelementptr inbounds %"struct.webrtc::BinaryDelayEstimatorFarend", %"struct.webrtc::BinaryDelayEstimatorFarend"* %242, i64 0, i32 0
  %244 = load i32*, i32** %243, align 8
  %245 = sext i32 %205 to i64
  %246 = getelementptr inbounds i32, i32* %244, i64 %245
  %247 = icmp eq i32 %205, 0
  br i1 %247, label %343, label %250

248:                                              ; preds = %250
  %249 = icmp eq i32* %254, %246
  br i1 %249, label %343, label %250

250:                                              ; preds = %239, %248
  %251 = phi i32* [ %254, %248 ], [ %244, %239 ]
  %252 = load i32, i32* %251, align 4
  %253 = icmp sgt i32 %252, 0
  %254 = getelementptr inbounds i32, i32* %251, i64 1
  br i1 %253, label %255, label %248

255:                                              ; preds = %250
  %256 = sitofp i32 %209 to float
  %257 = fmul float %256, 0x3F10000000000000
  %258 = getelementptr inbounds %"struct.webrtc::BinaryDelayEstimator", %"struct.webrtc::BinaryDelayEstimator"* %0, i64 0, i32 7
  %259 = load i32, i32* %258, align 8
  %260 = icmp sgt i32 %259, %206
  %261 = select i1 %260, i32 10, i32 1000
  %262 = getelementptr inbounds %"struct.webrtc::BinaryDelayEstimator", %"struct.webrtc::BinaryDelayEstimator"* %0, i64 0, i32 10
  %263 = load i32, i32* %262, align 4
  %264 = icmp eq i32 %263, %206
  %265 = getelementptr inbounds %"struct.webrtc::BinaryDelayEstimator", %"struct.webrtc::BinaryDelayEstimator"* %0, i64 0, i32 12
  br i1 %264, label %266, label %269

266:                                              ; preds = %255
  %267 = load i32, i32* %265, align 4
  %268 = add i32 %267, 1
  br label %270

269:                                              ; preds = %255
  store i32 0, i32* %265, align 4
  store i32 %206, i32* %262, align 4
  br label %270

270:                                              ; preds = %269, %266
  %271 = phi i32 [ %268, %266 ], [ 1, %269 ]
  store i32 %271, i32* %265, align 4
  %272 = getelementptr inbounds %"struct.webrtc::BinaryDelayEstimator", %"struct.webrtc::BinaryDelayEstimator"* %0, i64 0, i32 13
  %273 = load float*, float** %272, align 8
  %274 = sext i32 %206 to i64
  %275 = getelementptr inbounds float, float* %273, i64 %274
  %276 = load float, float* %275, align 4
  %277 = fadd float %257, %276
  store float %277, float* %275, align 4
  %278 = load float*, float** %272, align 8
  %279 = getelementptr inbounds float, float* %278, i64 %274
  %280 = load float, float* %279, align 4
  %281 = fcmp ogt float %280, 3.000000e+03
  br i1 %281, label %282, label %283

282:                                              ; preds = %270
  store float 3.000000e+03, float* %279, align 4
  br label %283

283:                                              ; preds = %282, %270
  %284 = load i32, i32* %265, align 4
  %285 = icmp slt i32 %284, %261
  br i1 %285, label %286, label %297

286:                                              ; preds = %283
  %287 = getelementptr inbounds %"struct.webrtc::BinaryDelayEstimator", %"struct.webrtc::BinaryDelayEstimator"* %0, i64 0, i32 0
  %288 = load i32*, i32** %287, align 8
  %289 = getelementptr inbounds %"struct.webrtc::BinaryDelayEstimator", %"struct.webrtc::BinaryDelayEstimator"* %0, i64 0, i32 11
  %290 = load i32, i32* %289, align 8
  %291 = sext i32 %290 to i64
  %292 = getelementptr inbounds i32, i32* %288, i64 %291
  %293 = load i32, i32* %292, align 4
  %294 = sub nsw i32 %293, %207
  %295 = sitofp i32 %294 to float
  %296 = fmul float %295, 0x3F10000000000000
  br label %297

297:                                              ; preds = %286, %283
  %298 = phi float [ %296, %286 ], [ %257, %283 ]
  %299 = load i32, i32* %7, align 4
  %300 = icmp sgt i32 %299, 0
  br i1 %300, label %301, label %343

301:                                              ; preds = %297
  %302 = add nsw i32 %206, -2
  %303 = add nsw i32 %206, 1
  %304 = sext i32 %303 to i64
  %305 = zext i32 %206 to i64
  %306 = sext i32 %302 to i64
  br label %307

307:                                              ; preds = %338, %301
  %308 = phi i64 [ 0, %301 ], [ %339, %338 ]
  %309 = load i32, i32* %258, align 8
  %310 = add nsw i32 %309, -2
  %311 = sext i32 %310 to i64
  %312 = icmp sge i64 %308, %311
  %313 = add nsw i32 %309, 1
  %314 = sext i32 %313 to i64
  %315 = icmp sle i64 %308, %314
  %316 = icmp ne i64 %308, %305
  %317 = and i1 %315, %312
  %318 = and i1 %316, %317
  %319 = icmp slt i64 %308, %306
  %320 = icmp sgt i64 %308, %304
  %321 = uitofp i1 %318 to float
  %322 = fmul float %298, %321
  %323 = or i1 %319, %320
  %324 = xor i1 %318, true
  %325 = and i1 %323, %324
  %326 = uitofp i1 %325 to float
  %327 = fmul float %257, %326
  %328 = fadd float %322, %327
  %329 = load float*, float** %272, align 8
  %330 = getelementptr inbounds float, float* %329, i64 %308
  %331 = load float, float* %330, align 4
  %332 = fsub float %331, %328
  store float %332, float* %330, align 4
  %333 = load float*, float** %272, align 8
  %334 = getelementptr inbounds float, float* %333, i64 %308
  %335 = load float, float* %334, align 4
  %336 = fcmp olt float %335, 0.000000e+00
  br i1 %336, label %337, label %338

337:                                              ; preds = %307
  store float 0.000000e+00, float* %334, align 4
  br label %338

338:                                              ; preds = %337, %307
  %339 = add nuw nsw i64 %308, 1
  %340 = load i32, i32* %7, align 4
  %341 = sext i32 %340 to i64
  %342 = icmp slt i64 %339, %341
  br i1 %342, label %307, label %343

343:                                              ; preds = %248, %338, %239, %297
  %344 = phi i1 [ true, %297 ], [ false, %239 ], [ true, %338 ], [ false, %248 ]
  %345 = getelementptr inbounds %"struct.webrtc::BinaryDelayEstimator", %"struct.webrtc::BinaryDelayEstimator"* %0, i64 0, i32 8
  %346 = load i32, i32* %345, align 4
  %347 = icmp eq i32 %346, 0
  br i1 %347, label %409, label %348

348:                                              ; preds = %343
  %349 = getelementptr inbounds %"struct.webrtc::BinaryDelayEstimator", %"struct.webrtc::BinaryDelayEstimator"* %0, i64 0, i32 13
  %350 = load float*, float** %349, align 8
  %351 = getelementptr inbounds %"struct.webrtc::BinaryDelayEstimator", %"struct.webrtc::BinaryDelayEstimator"* %0, i64 0, i32 11
  %352 = load i32, i32* %351, align 8
  %353 = sext i32 %352 to i64
  %354 = getelementptr inbounds float, float* %350, i64 %353
  %355 = load float, float* %354, align 4
  %356 = getelementptr inbounds %"struct.webrtc::BinaryDelayEstimator", %"struct.webrtc::BinaryDelayEstimator"* %0, i64 0, i32 7
  %357 = load i32, i32* %356, align 8
  %358 = sub nsw i32 %206, %357
  %359 = getelementptr inbounds %"struct.webrtc::BinaryDelayEstimator", %"struct.webrtc::BinaryDelayEstimator"* %0, i64 0, i32 9
  %360 = load i32, i32* %359, align 8
  %361 = icmp sgt i32 %358, %360
  br i1 %361, label %362, label %369

362:                                              ; preds = %348
  %363 = sub nsw i32 %358, %360
  %364 = sitofp i32 %363 to float
  %365 = fmul float %364, 0x3FA99999A0000000
  %366 = fsub float 1.000000e+00, %365
  %367 = fcmp ogt float %366, 5.000000e-01
  %368 = select i1 %367, float %366, float 5.000000e-01
  br label %377

369:                                              ; preds = %348
  %370 = icmp slt i32 %358, 0
  br i1 %370, label %371, label %377

371:                                              ; preds = %369
  %372 = sitofp i32 %358 to float
  %373 = fmul float %372, 0x3FA99999A0000000
  %374 = fsub float 2.500000e-01, %373
  %375 = fcmp ogt float %374, 1.000000e+00
  %376 = select i1 %375, float 1.000000e+00, float %374
  br label %377

377:                                              ; preds = %371, %369, %362
  %378 = phi float [ %368, %362 ], [ %376, %371 ], [ 1.000000e+00, %369 ]
  %379 = fmul float %355, %378
  %380 = fcmp ogt float %379, 1.500000e+00
  %381 = select i1 %380, float %379, float 1.500000e+00
  %382 = sext i32 %206 to i64
  %383 = getelementptr inbounds float, float* %350, i64 %382
  %384 = load float, float* %383, align 4
  %385 = fcmp ult float %384, %381
  br i1 %385, label %391, label %386

386:                                              ; preds = %377
  %387 = getelementptr inbounds %"struct.webrtc::BinaryDelayEstimator", %"struct.webrtc::BinaryDelayEstimator"* %0, i64 0, i32 12
  %388 = load i32, i32* %387, align 4
  %389 = icmp sgt i32 %388, 10
  %390 = zext i1 %389 to i32
  br label %391

391:                                              ; preds = %377, %386
  %392 = phi i32 [ 0, %377 ], [ %390, %386 ]
  %393 = icmp slt i32 %357, 0
  %394 = or i32 %392, %241
  %395 = select i1 %393, i32 %394, i32 0
  %396 = icmp ne i32 %241, 0
  %397 = icmp ne i32 %392, 0
  %398 = and i1 %396, %397
  %399 = zext i1 %398 to i32
  %400 = or i32 %395, %399
  br i1 %397, label %401, label %406

401:                                              ; preds = %391
  %402 = getelementptr inbounds %"struct.webrtc::BinaryDelayEstimator", %"struct.webrtc::BinaryDelayEstimator"* %0, i64 0, i32 14
  %403 = load float, float* %402, align 8
  %404 = fcmp ogt float %384, %403
  %405 = zext i1 %404 to i32
  br label %406

406:                                              ; preds = %391, %401
  %407 = phi i32 [ 0, %391 ], [ %405, %401 ]
  %408 = or i32 %400, %407
  br label %409

409:                                              ; preds = %343, %406
  %410 = phi i32 [ %408, %406 ], [ %241, %343 ]
  %411 = icmp ne i32 %410, 0
  %412 = and i1 %344, %411
  %413 = getelementptr inbounds %"struct.webrtc::BinaryDelayEstimator", %"struct.webrtc::BinaryDelayEstimator"* %0, i64 0, i32 7
  %414 = load i32, i32* %413, align 8
  br i1 %412, label %415, label %440

415:                                              ; preds = %409
  %416 = icmp eq i32 %206, %414
  br i1 %416, label %434, label %417

417:                                              ; preds = %415
  %418 = getelementptr inbounds %"struct.webrtc::BinaryDelayEstimator", %"struct.webrtc::BinaryDelayEstimator"* %0, i64 0, i32 13
  %419 = load float*, float** %418, align 8
  %420 = sext i32 %206 to i64
  %421 = getelementptr inbounds float, float* %419, i64 %420
  %422 = load float, float* %421, align 4
  %423 = fcmp ogt float %422, 2.500000e+02
  %424 = select i1 %423, float 2.500000e+02, float %422
  %425 = getelementptr inbounds %"struct.webrtc::BinaryDelayEstimator", %"struct.webrtc::BinaryDelayEstimator"* %0, i64 0, i32 14
  store float %424, float* %425, align 8
  %426 = load float, float* %421, align 4
  %427 = getelementptr inbounds %"struct.webrtc::BinaryDelayEstimator", %"struct.webrtc::BinaryDelayEstimator"* %0, i64 0, i32 11
  %428 = load i32, i32* %427, align 8
  %429 = sext i32 %428 to i64
  %430 = getelementptr inbounds float, float* %419, i64 %429
  %431 = load float, float* %430, align 4
  %432 = fcmp olt float %426, %431
  br i1 %432, label %433, label %434

433:                                              ; preds = %417
  store float %426, float* %430, align 4
  br label %434

434:                                              ; preds = %415, %417, %433
  store i32 %206, i32* %413, align 8
  %435 = load i32, i32* %240, align 4
  %436 = icmp slt i32 %207, %435
  br i1 %436, label %437, label %438

437:                                              ; preds = %434
  store i32 %207, i32* %240, align 4
  br label %438

438:                                              ; preds = %437, %434
  %439 = getelementptr inbounds %"struct.webrtc::BinaryDelayEstimator", %"struct.webrtc::BinaryDelayEstimator"* %0, i64 0, i32 11
  store i32 %206, i32* %439, align 8
  br label %440

440:                                              ; preds = %409, %438, %2
  %441 = phi i32 [ -1, %2 ], [ %206, %438 ], [ %414, %409 ]
  ret i32 %441
}

; Function Attrs: nofree norecurse nounwind ssp uwtable
define hidden void @_ZN6webrtc23WebRtc_MeanEstimatorFixEiiPi(i32, i32, i32* nocapture) local_unnamed_addr #4 {
  %4 = load i32, i32* %2, align 4
  %5 = sub nsw i32 %0, %4
  %6 = icmp slt i32 %5, 0
  br i1 %6, label %7, label %11

7:                                                ; preds = %3
  %8 = sub nsw i32 0, %5
  %9 = ashr i32 %8, %1
  %10 = sub nsw i32 0, %9
  br label %13

11:                                               ; preds = %3
  %12 = lshr i32 %5, %1
  br label %13

13:                                               ; preds = %11, %7
  %14 = phi i32 [ %10, %7 ], [ %12, %11 ]
  %15 = add nsw i32 %14, %4
  store i32 %15, i32* %2, align 4
  ret void
}

; Function Attrs: norecurse nounwind readonly ssp uwtable
define hidden i32 @_ZN6webrtc24WebRtc_binary_last_delayEPNS_20BinaryDelayEstimatorE(%"struct.webrtc::BinaryDelayEstimator"* nocapture readonly) local_unnamed_addr #5 {
  %2 = getelementptr inbounds %"struct.webrtc::BinaryDelayEstimator", %"struct.webrtc::BinaryDelayEstimator"* %0, i64 0, i32 7
  %3 = load i32, i32* %2, align 8
  ret i32 %3
}

; Function Attrs: norecurse nounwind readonly ssp uwtable
define hidden float @_ZN6webrtc32WebRtc_binary_last_delay_qualityEPNS_20BinaryDelayEstimatorE(%"struct.webrtc::BinaryDelayEstimator"* nocapture readonly) local_unnamed_addr #5 {
  %2 = getelementptr inbounds %"struct.webrtc::BinaryDelayEstimator", %"struct.webrtc::BinaryDelayEstimator"* %0, i64 0, i32 8
  %3 = load i32, i32* %2, align 4
  %4 = icmp eq i32 %3, 0
  br i1 %4, label %14, label %5

5:                                                ; preds = %1
  %6 = getelementptr inbounds %"struct.webrtc::BinaryDelayEstimator", %"struct.webrtc::BinaryDelayEstimator"* %0, i64 0, i32 13
  %7 = load float*, float** %6, align 8
  %8 = getelementptr inbounds %"struct.webrtc::BinaryDelayEstimator", %"struct.webrtc::BinaryDelayEstimator"* %0, i64 0, i32 11
  %9 = load i32, i32* %8, align 8
  %10 = sext i32 %9 to i64
  %11 = getelementptr inbounds float, float* %7, i64 %10
  %12 = load float, float* %11, align 4
  %13 = fdiv float %12, 3.000000e+03
  br label %22

14:                                               ; preds = %1
  %15 = getelementptr inbounds %"struct.webrtc::BinaryDelayEstimator", %"struct.webrtc::BinaryDelayEstimator"* %0, i64 0, i32 6
  %16 = load i32, i32* %15, align 4
  %17 = sub nsw i32 16384, %16
  %18 = sitofp i32 %17 to float
  %19 = fmul float %18, 0x3F10000000000000
  %20 = fcmp olt float %19, 0.000000e+00
  br i1 %20, label %21, label %22

21:                                               ; preds = %14
  br label %22

22:                                               ; preds = %14, %21, %5
  %23 = phi float [ %13, %5 ], [ 0.000000e+00, %21 ], [ %19, %14 ]
  ret float %23
}

attributes #0 = { nounwind ssp uwtable "correctly-rounded-divide-sqrt-fp-math"="false" "disable-tail-calls"="false" "less-precise-fpmad"="false" "min-legal-vector-width"="0" "no-frame-pointer-elim"="false" "no-frame-pointer-elim-non-leaf" "no-infs-fp-math"="false" "no-jump-tables"="false" "no-nans-fp-math"="false" "no-signed-zeros-fp-math"="false" "no-trapping-math"="false" "null-pointer-is-valid"="true" "stack-protector-buffer-size"="4" "target-cpu"="x86-64" "target-features"="+cx8,+fxsr,+mmx,+sse,+sse2,+sse3,+x87" "unsafe-fp-math"="false" "use-soft-float"="false" }
attributes #1 = { nounwind "correctly-rounded-divide-sqrt-fp-math"="false" "disable-tail-calls"="false" "less-precise-fpmad"="false" "no-frame-pointer-elim"="false" "no-frame-pointer-elim-non-leaf" "no-infs-fp-math"="false" "no-nans-fp-math"="false" "no-signed-zeros-fp-math"="false" "no-trapping-math"="false" "null-pointer-is-valid"="true" "stack-protector-buffer-size"="4" "target-cpu"="x86-64" "target-features"="+cx8,+fxsr,+mmx,+sse,+sse2,+sse3,+x87" "unsafe-fp-math"="false" "use-soft-float"="false" }
attributes #2 = { nofree nounwind "correctly-rounded-divide-sqrt-fp-math"="false" "disable-tail-calls"="false" "less-precise-fpmad"="false" "no-frame-pointer-elim"="false" "no-frame-pointer-elim-non-leaf" "no-infs-fp-math"="false" "no-nans-fp-math"="false" "no-signed-zeros-fp-math"="false" "no-trapping-math"="false" "null-pointer-is-valid"="true" "stack-protector-buffer-size"="4" "target-cpu"="x86-64" "target-features"="+cx8,+fxsr,+mmx,+sse,+sse2,+sse3,+x87" "unsafe-fp-math"="false" "use-soft-float"="false" }
attributes #3 = { argmemonly nounwind }
attributes #4 = { nofree norecurse nounwind ssp uwtable "correctly-rounded-divide-sqrt-fp-math"="false" "disable-tail-calls"="false" "less-precise-fpmad"="false" "min-legal-vector-width"="0" "no-frame-pointer-elim"="false" "no-frame-pointer-elim-non-leaf" "no-infs-fp-math"="false" "no-jump-tables"="false" "no-nans-fp-math"="false" "no-signed-zeros-fp-math"="false" "no-trapping-math"="false" "null-pointer-is-valid"="true" "stack-protector-buffer-size"="4" "target-cpu"="x86-64" "target-features"="+cx8,+fxsr,+mmx,+sse,+sse2,+sse3,+x87" "unsafe-fp-math"="false" "use-soft-float"="false" }
attributes #5 = { norecurse nounwind readonly ssp uwtable "correctly-rounded-divide-sqrt-fp-math"="false" "disable-tail-calls"="false" "less-precise-fpmad"="false" "min-legal-vector-width"="0" "no-frame-pointer-elim"="false" "no-frame-pointer-elim-non-leaf" "no-infs-fp-math"="false" "no-jump-tables"="false" "no-nans-fp-math"="false" "no-signed-zeros-fp-math"="false" "no-trapping-math"="false" "null-pointer-is-valid"="true" "stack-protector-buffer-size"="4" "target-cpu"="x86-64" "target-features"="+cx8,+fxsr,+mmx,+sse,+sse2,+sse3,+x87" "unsafe-fp-math"="false" "use-soft-float"="false" }
attributes #6 = { nounwind }

!llvm.module.flags = !{!0, !1}

!0 = !{i32 1, !"wchar_size", i32 4}
!1 = !{i32 7, !"PIC Level", i32 2}
!2 = !{!3}
!3 = distinct !{!3, !4}
!4 = distinct !{!4, !"LVerDomain"}
!5 = !{!6}
!6 = distinct !{!6, !4}
!7 = distinct !{!7, !8}
!8 = !{!"llvm.loop.isvectorized", i32 1}
!9 = distinct !{!9, !8}
