; ModuleID = '../../chrome/browser/metrics/desktop_session_duration/desktop_profile_session_durations_service_factory.cc'
source_filename = "../../chrome/browser/metrics/desktop_session_duration/desktop_profile_session_durations_service_factory.cc"
target datalayout = "e-m:e-i64:64-f80:128-n8:16:32:64-S128"
target triple = "x86_64-unknown-linux-gnu"

module asm ".symver exp, exp@GLIBC_2.2.5"
module asm ".symver exp2, exp2@GLIBC_2.2.5"
module asm ".symver exp2f, exp2f@GLIBC_2.2.5"
module asm ".symver expf, expf@GLIBC_2.2.5"
module asm ".symver lgamma, lgamma@GLIBC_2.2.5"
module asm ".symver lgammaf, lgammaf@GLIBC_2.2.5"
module asm ".symver lgammal, lgammal@GLIBC_2.2.5"
module asm ".symver log, log@GLIBC_2.2.5"
module asm ".symver log2, log2@GLIBC_2.2.5"
module asm ".symver log2f, log2f@GLIBC_2.2.5"
module asm ".symver logf, logf@GLIBC_2.2.5"
module asm ".symver pow, pow@GLIBC_2.2.5"
module asm ".symver powf, powf@GLIBC_2.2.5"

%"class.metrics::DesktopProfileSessionDurationsServiceFactory" = type { %class.BrowserContextKeyedServiceFactory }
%class.BrowserContextKeyedServiceFactory = type { %class.KeyedServiceFactory }
%class.KeyedServiceFactory = type { %class.KeyedServiceBaseFactory.base, %"class.std::__1::map.233", %"class.std::__1::map.242" }
%class.KeyedServiceBaseFactory.base = type <{ i32 (...)**, %class.DependencyManager*, i8*, i32 }>
%class.DependencyManager = type { i32 (...)**, %class.DependencyGraph, %"class.std::__1::set.223" }
%class.DependencyGraph = type { %"class.std::__1::vector.206", %"class.std::__1::multimap", %"class.std::__1::vector.206" }
%"class.std::__1::multimap" = type { %"class.std::__1::__tree.213" }
%"class.std::__1::__tree.213" = type { %"class.std::__1::__tree_end_node"*, %"class.std::__1::__compressed_pair.214", %"class.std::__1::__compressed_pair.218" }
%"class.std::__1::__tree_end_node" = type { %"class.std::__1::__tree_node_base"* }
%"class.std::__1::__tree_node_base" = type opaque
%"class.std::__1::__compressed_pair.214" = type { %"struct.std::__1::__compressed_pair_elem.23" }
%"struct.std::__1::__compressed_pair_elem.23" = type { %"class.std::__1::__tree_end_node" }
%"class.std::__1::__compressed_pair.218" = type { %"struct.std::__1::__compressed_pair_elem.26" }
%"struct.std::__1::__compressed_pair_elem.26" = type { i64 }
%"class.std::__1::vector.206" = type { %"class.std::__1::__vector_base.207" }
%"class.std::__1::__vector_base.207" = type { %class.DependencyNode**, %class.DependencyNode**, %"class.std::__1::__compressed_pair.208" }
%class.DependencyNode = type { i8 }
%"class.std::__1::__compressed_pair.208" = type { %"struct.std::__1::__compressed_pair_elem.209" }
%"struct.std::__1::__compressed_pair_elem.209" = type { %class.DependencyNode** }
%"class.std::__1::set.223" = type { %"class.std::__1::__tree.224" }
%"class.std::__1::__tree.224" = type { %"class.std::__1::__tree_end_node"*, %"class.std::__1::__compressed_pair.225", %"class.std::__1::__compressed_pair.229" }
%"class.std::__1::__compressed_pair.225" = type { %"struct.std::__1::__compressed_pair_elem.23" }
%"class.std::__1::__compressed_pair.229" = type { %"struct.std::__1::__compressed_pair_elem.26" }
%"class.std::__1::map.233" = type { %"class.std::__1::__tree.234" }
%"class.std::__1::__tree.234" = type { %"class.std::__1::__tree_end_node"*, %"class.std::__1::__compressed_pair.235", %"class.std::__1::__compressed_pair.239" }
%"class.std::__1::__compressed_pair.235" = type { %"struct.std::__1::__compressed_pair_elem.23" }
%"class.std::__1::__compressed_pair.239" = type { %"struct.std::__1::__compressed_pair_elem.26" }
%"class.std::__1::map.242" = type { %"class.std::__1::__tree.243" }
%"class.std::__1::__tree.243" = type { %"class.std::__1::__tree_end_node"*, %"class.std::__1::__compressed_pair.244", %"class.std::__1::__compressed_pair.248" }
%"class.std::__1::__compressed_pair.244" = type { %"struct.std::__1::__compressed_pair_elem.23" }
%"class.std::__1::__compressed_pair.248" = type { %"struct.std::__1::__compressed_pair_elem.26" }
%"class.metrics::DesktopProfileSessionDurationsService" = type { %class.KeyedService, %"class.metrics::DesktopSessionDurationTracker::Observer", %"class.std::__1::unique_ptr", %"class.std::__1::unique_ptr.142", %"class.base::ScopedObservation.160" }
%class.KeyedService = type { i32 (...)** }
%"class.metrics::DesktopSessionDurationTracker::Observer" = type { i32 (...)** }
%"class.std::__1::unique_ptr" = type { %"class.std::__1::__compressed_pair" }
%"class.std::__1::__compressed_pair" = type { %"struct.std::__1::__compressed_pair_elem" }
%"struct.std::__1::__compressed_pair_elem" = type { %"class.syncer::SyncSessionDurationsMetricsRecorder"* }
%"class.syncer::SyncSessionDurationsMetricsRecorder" = type { %"class.syncer::SyncServiceObserver", %"class.signin::IdentityManager::Observer", %"class.syncer::SyncService"*, %"class.signin::IdentityManager"*, %"class.base::ScopedObservation.131", %"class.base::ScopedObservation.132", %"class.std::__1::unique_ptr.133", i32, %"class.std::__1::unique_ptr.133", i32, i32, %"class.std::__1::unique_ptr.133" }
%"class.syncer::SyncServiceObserver" = type { i32 (...)** }
%"class.signin::IdentityManager::Observer" = type { i32 (...)** }
%"class.syncer::SyncService" = type { %class.KeyedService }
%"class.signin::IdentityManager" = type <{ %class.KeyedService, %"class.OAuth2AccessTokenManager::DiagnosticsObserver", %"class.PrimaryAccountManager::Observer", %class.ProfileOAuth2TokenServiceObserver, %"class.std::__1::unique_ptr.6", %"class.std::__1::unique_ptr.10", %"class.std::__1::unique_ptr.51", %"class.std::__1::unique_ptr.57", %"class.std::__1::unique_ptr.86", %"class.signin::IdentityMutator", %"class.std::__1::unique_ptr.116", %"class.base::ScopedObservation", %"class.base::ScopedObservation.122", %"class.base::ObserverList.123", %"class.base::ObserverList.127", i8, [7 x i8] }>
%"class.OAuth2AccessTokenManager::DiagnosticsObserver" = type { i32 (...)** }
%"class.PrimaryAccountManager::Observer" = type { %"class.base::CheckedObserver" }
%"class.base::CheckedObserver" = type { i32 (...)**, %"class.base::WeakPtrFactory" }
%"class.base::WeakPtrFactory" = type { %"class.base::internal::WeakPtrFactoryBase" }
%"class.base::internal::WeakPtrFactoryBase" = type { %"class.base::internal::WeakReferenceOwner", i64 }
%"class.base::internal::WeakReferenceOwner" = type { %class.scoped_refptr }
%class.scoped_refptr = type { %"class.base::internal::WeakReference::Flag"* }
%"class.base::internal::WeakReference::Flag" = type <{ %"class.base::RefCountedThreadSafe", %"class.base::AtomicFlag", [3 x i8] }>
%"class.base::RefCountedThreadSafe" = type { %"class.base::subtle::RefCountedThreadSafeBase" }
%"class.base::subtle::RefCountedThreadSafeBase" = type { %"class.base::AtomicRefCount" }
%"class.base::AtomicRefCount" = type { %"struct.std::__1::atomic" }
%"struct.std::__1::atomic" = type { %"struct.std::__1::__atomic_base" }
%"struct.std::__1::__atomic_base" = type { %"struct.std::__1::__atomic_base.0" }
%"struct.std::__1::__atomic_base.0" = type { %"struct.std::__1::__cxx_atomic_impl" }
%"struct.std::__1::__cxx_atomic_impl" = type { %"struct.std::__1::__cxx_atomic_base_impl" }
%"struct.std::__1::__cxx_atomic_base_impl" = type { i32 }
%"class.base::AtomicFlag" = type { %"struct.std::__1::atomic.1" }
%"struct.std::__1::atomic.1" = type { %"struct.std::__1::__atomic_base.2" }
%"struct.std::__1::__atomic_base.2" = type { %"struct.std::__1::__atomic_base.3" }
%"struct.std::__1::__atomic_base.3" = type { %"struct.std::__1::__cxx_atomic_impl.4" }
%"struct.std::__1::__cxx_atomic_impl.4" = type { %"struct.std::__1::__cxx_atomic_base_impl.5" }
%"struct.std::__1::__cxx_atomic_base_impl.5" = type { i8 }
%class.ProfileOAuth2TokenServiceObserver = type { i32 (...)** }
%"class.std::__1::unique_ptr.6" = type { %"class.std::__1::__compressed_pair.7" }
%"class.std::__1::__compressed_pair.7" = type { %"struct.std::__1::__compressed_pair_elem.8" }
%"struct.std::__1::__compressed_pair_elem.8" = type { %class.AccountTrackerService* }
%class.AccountTrackerService = type opaque
%"class.std::__1::unique_ptr.10" = type { %"class.std::__1::__compressed_pair.11" }
%"class.std::__1::__compressed_pair.11" = type { %"struct.std::__1::__compressed_pair_elem.12" }
%"struct.std::__1::__compressed_pair_elem.12" = type { %class.ProfileOAuth2TokenService* }
%class.ProfileOAuth2TokenService = type <{ %"class.OAuth2AccessTokenManager::Delegate", %class.ProfileOAuth2TokenServiceObserver, %class.PrefService*, %"class.std::__1::unique_ptr.13", i8, [7 x i8], %"class.std::__1::unique_ptr.19", %"class.base::RepeatingCallback", %"class.base::RepeatingCallback.47", i32, [4 x i8] }>
%"class.OAuth2AccessTokenManager::Delegate" = type { i32 (...)** }
%class.PrefService = type opaque
%"class.std::__1::unique_ptr.13" = type { %"class.std::__1::__compressed_pair.14" }
%"class.std::__1::__compressed_pair.14" = type { %"struct.std::__1::__compressed_pair_elem.15" }
%"struct.std::__1::__compressed_pair_elem.15" = type { %class.ProfileOAuth2TokenServiceDelegate* }
%class.ProfileOAuth2TokenServiceDelegate = type opaque
%"class.std::__1::unique_ptr.19" = type { %"class.std::__1::__compressed_pair.20" }
%"class.std::__1::__compressed_pair.20" = type { %"struct.std::__1::__compressed_pair_elem.21" }
%"struct.std::__1::__compressed_pair_elem.21" = type { %class.OAuth2AccessTokenManager* }
%class.OAuth2AccessTokenManager = type { i32 (...)**, %"class.std::__1::map", %"class.base::ObserverList", %"class.OAuth2AccessTokenManager::Delegate"*, %"class.std::__1::map.33" }
%"class.std::__1::map" = type { %"class.std::__1::__tree" }
%"class.std::__1::__tree" = type { %"class.std::__1::__tree_end_node"*, %"class.std::__1::__compressed_pair.22", %"class.std::__1::__compressed_pair.25" }
%"class.std::__1::__compressed_pair.22" = type { %"struct.std::__1::__compressed_pair_elem.23" }
%"class.std::__1::__compressed_pair.25" = type { %"struct.std::__1::__compressed_pair_elem.26" }
%"class.base::ObserverList" = type <{ %"class.std::__1::vector", %"class.base::LinkedList", i64, i32, [4 x i8] }>
%"class.std::__1::vector" = type { %"class.std::__1::__vector_base" }
%"class.std::__1::__vector_base" = type { %"class.base::internal::UncheckedObserverAdapter"*, %"class.base::internal::UncheckedObserverAdapter"*, %"class.std::__1::__compressed_pair.28" }
%"class.base::internal::UncheckedObserverAdapter" = type { i8* }
%"class.std::__1::__compressed_pair.28" = type { %"struct.std::__1::__compressed_pair_elem.29" }
%"struct.std::__1::__compressed_pair_elem.29" = type { %"class.base::internal::UncheckedObserverAdapter"* }
%"class.base::LinkedList" = type { %"class.base::LinkNode" }
%"class.base::LinkNode" = type { %"class.base::internal::LinkNodeBase" }
%"class.base::internal::LinkNodeBase" = type { %"class.base::internal::LinkNodeBase"*, %"class.base::internal::LinkNodeBase"* }
%"class.std::__1::map.33" = type { %"class.std::__1::__tree.34" }
%"class.std::__1::__tree.34" = type { %"class.std::__1::__tree_end_node"*, %"class.std::__1::__compressed_pair.35", %"class.std::__1::__compressed_pair.39" }
%"class.std::__1::__compressed_pair.35" = type { %"struct.std::__1::__compressed_pair_elem.23" }
%"class.std::__1::__compressed_pair.39" = type { %"struct.std::__1::__compressed_pair_elem.26" }
%"class.base::RepeatingCallback" = type { %"class.base::internal::CallbackBaseCopyable" }
%"class.base::internal::CallbackBaseCopyable" = type { %"class.base::internal::CallbackBase" }
%"class.base::internal::CallbackBase" = type { %class.scoped_refptr.45 }
%class.scoped_refptr.45 = type { %"class.base::internal::BindStateBase"* }
%"class.base::internal::BindStateBase" = type { %"class.base::RefCountedThreadSafe.46", void ()*, void (%"class.base::internal::BindStateBase"*)*, i1 (%"class.base::internal::BindStateBase"*, i32)* }
%"class.base::RefCountedThreadSafe.46" = type { %"class.base::subtle::RefCountedThreadSafeBase" }
%"class.base::RepeatingCallback.47" = type { %"class.base::internal::CallbackBaseCopyable" }
%"class.std::__1::unique_ptr.51" = type { %"class.std::__1::__compressed_pair.52" }
%"class.std::__1::__compressed_pair.52" = type { %"struct.std::__1::__compressed_pair_elem.53" }
%"struct.std::__1::__compressed_pair_elem.53" = type { %class.GaiaCookieManagerService* }
%class.GaiaCookieManagerService = type opaque
%"class.std::__1::unique_ptr.57" = type { %"class.std::__1::__compressed_pair.58" }
%"class.std::__1::__compressed_pair.58" = type { %"struct.std::__1::__compressed_pair_elem.59" }
%"struct.std::__1::__compressed_pair_elem.59" = type { %class.PrimaryAccountManager* }
%class.PrimaryAccountManager = type { %class.ProfileOAuth2TokenServiceObserver, %class.SigninClient*, %class.ProfileOAuth2TokenService*, %class.AccountTrackerService*, i8, [7 x i8], %struct.CoreAccountInfo, %"class.std::__1::unique_ptr.65", %"class.base::ObserverList.71" }
%class.SigninClient = type { %class.KeyedService }
%struct.CoreAccountInfo = type <{ %struct.CoreAccountId, %"class.std::__1::basic_string", %"class.std::__1::basic_string", i8, [7 x i8] }>
%struct.CoreAccountId = type { %"class.std::__1::basic_string" }
%"class.std::__1::basic_string" = type { %"class.std::__1::__compressed_pair.60" }
%"class.std::__1::__compressed_pair.60" = type { %"struct.std::__1::__compressed_pair_elem.61" }
%"struct.std::__1::__compressed_pair_elem.61" = type { %"struct.std::__1::basic_string<char, std::__1::char_traits<char>, std::__1::allocator<char> >::__rep" }
%"struct.std::__1::basic_string<char, std::__1::char_traits<char>, std::__1::allocator<char> >::__rep" = type { %union.anon }
%union.anon = type { %"struct.std::__1::basic_string<char, std::__1::char_traits<char>, std::__1::allocator<char> >::__long" }
%"struct.std::__1::basic_string<char, std::__1::char_traits<char>, std::__1::allocator<char> >::__long" = type { i8*, i64, i64 }
%"class.std::__1::unique_ptr.65" = type { %"class.std::__1::__compressed_pair.66" }
%"class.std::__1::__compressed_pair.66" = type { %"struct.std::__1::__compressed_pair_elem.67" }
%"struct.std::__1::__compressed_pair_elem.67" = type { %class.PrimaryAccountPolicyManager* }
%class.PrimaryAccountPolicyManager = type opaque
%"class.base::ObserverList.71" = type <{ %"class.std::__1::vector.72", %"class.base::LinkedList.80", i64, i32, [4 x i8] }>
%"class.std::__1::vector.72" = type { %"class.std::__1::__vector_base.73" }
%"class.std::__1::__vector_base.73" = type { %"class.base::internal::CheckedObserverAdapter"*, %"class.base::internal::CheckedObserverAdapter"*, %"class.std::__1::__compressed_pair.75" }
%"class.base::internal::CheckedObserverAdapter" = type { %"class.base::WeakPtr" }
%"class.base::WeakPtr" = type { %"class.base::internal::WeakPtrBase" }
%"class.base::internal::WeakPtrBase" = type { %"class.base::internal::WeakReference", i64 }
%"class.base::internal::WeakReference" = type { %class.scoped_refptr.74 }
%class.scoped_refptr.74 = type { %"class.base::internal::WeakReference::Flag"* }
%"class.std::__1::__compressed_pair.75" = type { %"struct.std::__1::__compressed_pair_elem.76" }
%"struct.std::__1::__compressed_pair_elem.76" = type { %"class.base::internal::CheckedObserverAdapter"* }
%"class.base::LinkedList.80" = type { %"class.base::LinkNode.81" }
%"class.base::LinkNode.81" = type { %"class.base::internal::LinkNodeBase" }
%"class.std::__1::unique_ptr.86" = type { %"class.std::__1::__compressed_pair.87" }
%"class.std::__1::__compressed_pair.87" = type { %"struct.std::__1::__compressed_pair_elem.88" }
%"struct.std::__1::__compressed_pair_elem.88" = type { %class.AccountFetcherService* }
%class.AccountFetcherService = type opaque
%"class.signin::IdentityMutator" = type { i32 (...)**, %"class.std::__1::unique_ptr.92", %"class.std::__1::unique_ptr.98", %"class.std::__1::unique_ptr.104", %"class.std::__1::unique_ptr.110" }
%"class.std::__1::unique_ptr.92" = type { %"class.std::__1::__compressed_pair.93" }
%"class.std::__1::__compressed_pair.93" = type { %"struct.std::__1::__compressed_pair_elem.94" }
%"struct.std::__1::__compressed_pair_elem.94" = type { %"class.signin::PrimaryAccountMutator"* }
%"class.signin::PrimaryAccountMutator" = type opaque
%"class.std::__1::unique_ptr.98" = type { %"class.std::__1::__compressed_pair.99" }
%"class.std::__1::__compressed_pair.99" = type { %"struct.std::__1::__compressed_pair_elem.100" }
%"struct.std::__1::__compressed_pair_elem.100" = type { %"class.signin::AccountsMutator"* }
%"class.signin::AccountsMutator" = type opaque
%"class.std::__1::unique_ptr.104" = type { %"class.std::__1::__compressed_pair.105" }
%"class.std::__1::__compressed_pair.105" = type { %"struct.std::__1::__compressed_pair_elem.106" }
%"struct.std::__1::__compressed_pair_elem.106" = type { %"class.signin::AccountsCookieMutator"* }
%"class.signin::AccountsCookieMutator" = type opaque
%"class.std::__1::unique_ptr.110" = type { %"class.std::__1::__compressed_pair.111" }
%"class.std::__1::__compressed_pair.111" = type { %"struct.std::__1::__compressed_pair_elem.112" }
%"struct.std::__1::__compressed_pair_elem.112" = type { %"class.signin::DeviceAccountsSynchronizer"* }
%"class.signin::DeviceAccountsSynchronizer" = type opaque
%"class.std::__1::unique_ptr.116" = type { %"class.std::__1::__compressed_pair.117" }
%"class.std::__1::__compressed_pair.117" = type { %"struct.std::__1::__compressed_pair_elem.118" }
%"struct.std::__1::__compressed_pair_elem.118" = type { %"class.signin::DiagnosticsProvider"* }
%"class.signin::DiagnosticsProvider" = type opaque
%"class.base::ScopedObservation" = type { %"class.PrimaryAccountManager::Observer"*, %class.PrimaryAccountManager* }
%"class.base::ScopedObservation.122" = type { %class.ProfileOAuth2TokenServiceObserver*, %class.ProfileOAuth2TokenService* }
%"class.base::ObserverList.123" = type <{ %"class.std::__1::vector", %"class.base::LinkedList.124", i64, i32, [4 x i8] }>
%"class.base::LinkedList.124" = type { %"class.base::LinkNode.125" }
%"class.base::LinkNode.125" = type { %"class.base::internal::LinkNodeBase" }
%"class.base::ObserverList.127" = type <{ %"class.std::__1::vector", %"class.base::LinkedList.128", i64, i32, [4 x i8] }>
%"class.base::LinkedList.128" = type { %"class.base::LinkNode.129" }
%"class.base::LinkNode.129" = type { %"class.base::internal::LinkNodeBase" }
%"class.base::ScopedObservation.131" = type { %"class.syncer::SyncServiceObserver"*, %"class.syncer::SyncService"* }
%"class.base::ScopedObservation.132" = type { %"class.signin::IdentityManager::Observer"*, %"class.signin::IdentityManager"* }
%"class.std::__1::unique_ptr.133" = type { %"class.std::__1::__compressed_pair.134" }
%"class.std::__1::__compressed_pair.134" = type { %"struct.std::__1::__compressed_pair_elem.135" }
%"struct.std::__1::__compressed_pair_elem.135" = type { %"class.base::ElapsedTimer"* }
%"class.base::ElapsedTimer" = type { %"class.base::TimeTicks" }
%"class.base::TimeTicks" = type { %"class.base::time_internal::TimeBase" }
%"class.base::time_internal::TimeBase" = type { i64 }
%"class.std::__1::unique_ptr.142" = type { %"class.std::__1::__compressed_pair.143" }
%"class.std::__1::__compressed_pair.143" = type { %"struct.std::__1::__compressed_pair_elem.144" }
%"struct.std::__1::__compressed_pair_elem.144" = type { %"class.password_manager::PasswordSessionDurationsMetricsRecorder"* }
%"class.password_manager::PasswordSessionDurationsMetricsRecorder" = type { %"class.syncer::SyncServiceObserver", %class.PrefService*, %"class.syncer::SyncService"*, %"class.password_manager::PasswordAccountStorageSettingsWatcher", %"class.base::ScopedObservation.131", %"class.std::__1::unique_ptr.133", i32, %"class.std::__1::unique_ptr.133" }
%"class.password_manager::PasswordAccountStorageSettingsWatcher" = type { %"class.syncer::SyncServiceObserver", %"class.syncer::SyncService"*, %"class.base::RepeatingCallback.145", %class.PrefChangeRegistrar }
%"class.base::RepeatingCallback.145" = type { %"class.base::internal::CallbackBaseCopyable" }
%class.PrefChangeRegistrar = type { %class.PrefObserver, %"class.std::__1::map.146", %class.PrefService* }
%class.PrefObserver = type { i32 (...)** }
%"class.std::__1::map.146" = type { %"class.std::__1::__tree.147" }
%"class.std::__1::__tree.147" = type { %"class.std::__1::__tree_end_node"*, %"class.std::__1::__compressed_pair.148", %"class.std::__1::__compressed_pair.152" }
%"class.std::__1::__compressed_pair.148" = type { %"struct.std::__1::__compressed_pair_elem.23" }
%"class.std::__1::__compressed_pair.152" = type { %"struct.std::__1::__compressed_pair_elem.26" }
%"class.base::ScopedObservation.160" = type { %"class.metrics::DesktopSessionDurationTracker::Observer"*, %"class.metrics::DesktopSessionDurationTracker"* }
%"class.metrics::DesktopSessionDurationTracker" = type { %"class.metrics::AudibleContentsTracker::Observer", %"class.base::TimeTicks", %"class.base::TimeTicks", i8, i8, i8, i8, %"class.base::TimeDelta", %"class.base::OneShotTimer", %"class.base::ObserverList.164", %"class.metrics::ChromeVisibilityObserver", %"class.metrics::AudibleContentsTracker", %"class.base::WeakPtrFactory.188" }
%"class.metrics::AudibleContentsTracker::Observer" = type { i32 (...)** }
%"class.base::TimeDelta" = type { i64 }
%"class.base::OneShotTimer" = type { %"class.base::internal::TimerBase", %"class.base::OnceCallback" }
%"class.base::internal::TimerBase" = type { i32 (...)**, %class.scoped_refptr.161, %"class.base::SequenceCheckerDoNothing", %"class.base::internal::TaskDestructionDetector"*, %"class.base::Location", %"class.base::TimeDelta", %"class.base::TimeTicks", %"class.base::TimeTicks", %"class.base::TickClock"*, i8, %"class.base::WeakPtrFactory.163" }
%class.scoped_refptr.161 = type { %"class.base::SequencedTaskRunner"* }
%"class.base::SequencedTaskRunner" = type { %"class.base::TaskRunner.base", [4 x i8] }
%"class.base::TaskRunner.base" = type <{ i32 (...)**, %"class.base::RefCountedThreadSafe.162" }>
%"class.base::RefCountedThreadSafe.162" = type { %"class.base::subtle::RefCountedThreadSafeBase" }
%"class.base::SequenceCheckerDoNothing" = type { i8 }
%"class.base::internal::TaskDestructionDetector" = type opaque
%"class.base::Location" = type { i8*, i8*, i32, i8* }
%"class.base::TickClock" = type { i32 (...)** }
%"class.base::WeakPtrFactory.163" = type { %"class.base::internal::WeakPtrFactoryBase" }
%"class.base::OnceCallback" = type { %"class.base::internal::CallbackBase" }
%"class.base::ObserverList.164" = type <{ %"class.std::__1::vector", %"class.base::LinkedList.165", i64, i32, [4 x i8] }>
%"class.base::LinkedList.165" = type { %"class.base::LinkNode.166" }
%"class.base::LinkNode.166" = type { %"class.base::internal::LinkNodeBase" }
%"class.metrics::ChromeVisibilityObserver" = type { %class.BrowserListObserver, %"class.base::TimeDelta", %"class.base::WeakPtrFactory.168" }
%class.BrowserListObserver = type { i32 (...)** }
%"class.base::WeakPtrFactory.168" = type { %"class.base::internal::WeakPtrFactoryBase" }
%"class.metrics::AudibleContentsTracker" = type { %class.BrowserListObserver, %class.TabStripModelObserver, %"class.metrics::AudibleContentsTracker::Observer"*, %"class.std::__1::set.178" }
%class.TabStripModelObserver = type { i32 (...)**, %"class.std::__1::set" }
%"class.std::__1::set" = type { %"class.std::__1::__tree.169" }
%"class.std::__1::__tree.169" = type { %"class.std::__1::__tree_end_node"*, %"class.std::__1::__compressed_pair.170", %"class.std::__1::__compressed_pair.174" }
%"class.std::__1::__compressed_pair.170" = type { %"struct.std::__1::__compressed_pair_elem.23" }
%"class.std::__1::__compressed_pair.174" = type { %"struct.std::__1::__compressed_pair_elem.26" }
%"class.std::__1::set.178" = type { %"class.std::__1::__tree.179" }
%"class.std::__1::__tree.179" = type { %"class.std::__1::__tree_end_node"*, %"class.std::__1::__compressed_pair.180", %"class.std::__1::__compressed_pair.184" }
%"class.std::__1::__compressed_pair.180" = type { %"struct.std::__1::__compressed_pair_elem.23" }
%"class.std::__1::__compressed_pair.184" = type { %"struct.std::__1::__compressed_pair_elem.26" }
%"class.base::WeakPtrFactory.188" = type { %"class.base::internal::WeakPtrFactoryBase" }
%"class.content::BrowserContext" = type { %"class.base::SupportsUserData.base", %"class.std::__1::unique_ptr.200" }
%"class.base::SupportsUserData.base" = type <{ i32 (...)**, %"class.std::__1::map.189", %"class.base::SequenceCheckerDoNothing" }>
%"class.std::__1::map.189" = type { %"class.std::__1::__tree.190" }
%"class.std::__1::__tree.190" = type { %"class.std::__1::__tree_end_node"*, %"class.std::__1::__compressed_pair.191", %"class.std::__1::__compressed_pair.195" }
%"class.std::__1::__compressed_pair.191" = type { %"struct.std::__1::__compressed_pair_elem.23" }
%"class.std::__1::__compressed_pair.195" = type { %"struct.std::__1::__compressed_pair_elem.26" }
%"class.std::__1::unique_ptr.200" = type { %"class.std::__1::__compressed_pair.201" }
%"class.std::__1::__compressed_pair.201" = type { %"struct.std::__1::__compressed_pair_elem.202" }
%"struct.std::__1::__compressed_pair_elem.202" = type { %"class.content::BrowserContext::Impl"* }
%"class.content::BrowserContext::Impl" = type opaque
%class.BrowserContextDependencyManager = type { %class.DependencyManager, %"class.base::RepeatingCallbackList" }
%"class.base::RepeatingCallbackList" = type { %"class.base::internal::CallbackListBase" }
%"class.base::internal::CallbackListBase" = type { %"class.std::__1::list", i8, %"class.base::RepeatingCallback.145", %"class.base::WeakPtrFactory.255" }
%"class.std::__1::list" = type { %"class.std::__1::__list_imp" }
%"class.std::__1::__list_imp" = type { %"struct.std::__1::__list_node_base", %"class.std::__1::__compressed_pair.251" }
%"struct.std::__1::__list_node_base" = type { %"struct.std::__1::__list_node_base"*, %"struct.std::__1::__list_node_base"* }
%"class.std::__1::__compressed_pair.251" = type { %"struct.std::__1::__compressed_pair_elem.26" }
%"class.base::WeakPtrFactory.255" = type { %"class.base::internal::WeakPtrFactoryBase" }
%class.KeyedServiceBaseFactory = type <{ i32 (...)**, %class.DependencyManager*, i8*, i32, [4 x i8] }>
%class.ProfileSyncServiceFactory = type { %class.BrowserContextKeyedServiceFactory }
%class.IdentityManagerFactory = type { %class.BrowserContextKeyedServiceFactory, %"class.base::ObserverList.256" }
%"class.base::ObserverList.256" = type <{ %"class.std::__1::vector.72", %"class.base::LinkedList.257", i64, i32, [4 x i8] }>
%"class.base::LinkedList.257" = type { %"class.base::LinkNode.258" }
%"class.base::LinkNode.258" = type { %"class.base::internal::LinkNodeBase" }
%class.Profile = type { %"class.content::BrowserContext", %"class.std::__1::unique_ptr.260", i8, i8, i32, %"class.base::ObserverList.266", %"class.std::__1::unique_ptr.270" }
%"class.std::__1::unique_ptr.260" = type { %"class.std::__1::__compressed_pair.261" }
%"class.std::__1::__compressed_pair.261" = type { %"struct.std::__1::__compressed_pair_elem.262" }
%"struct.std::__1::__compressed_pair_elem.262" = type { %"class.content::ResourceContext"* }
%"class.content::ResourceContext" = type opaque
%"class.base::ObserverList.266" = type <{ %"class.std::__1::vector.72", %"class.base::LinkedList.267", i64, i32, [4 x i8] }>
%"class.base::LinkedList.267" = type { %"class.base::LinkNode.268" }
%"class.base::LinkNode.268" = type { %"class.base::internal::LinkNodeBase" }
%"class.std::__1::unique_ptr.270" = type { %"class.std::__1::__compressed_pair.271" }
%"class.std::__1::__compressed_pair.271" = type { %"struct.std::__1::__compressed_pair_elem.272" }
%"struct.std::__1::__compressed_pair_elem.272" = type { %"class.variations::VariationsClient"* }
%"class.variations::VariationsClient" = type opaque
%"class.user_prefs::PrefRegistrySyncable" = type opaque

$_ZN33BrowserContextKeyedServiceFactory20RegisterProfilePrefsEPN10user_prefs20PrefRegistrySyncableE = comdat any

$_ZN4base9SingletonIN7metrics44DesktopProfileSessionDurationsServiceFactoryENS_22DefaultSingletonTraitsIS2_EES2_E6OnExitEPv = comdat any

$_ZN4base9SingletonIN7metrics44DesktopProfileSessionDurationsServiceFactoryENS_22DefaultSingletonTraitsIS2_EES2_E9instance_E = comdat any

@.str = private unnamed_addr constant [38 x i8] c"DesktopProfileSessionDurationsService\00", align 1
@_ZTVN7metrics44DesktopProfileSessionDurationsServiceFactoryE = hidden unnamed_addr constant { [20 x i8*] } { [20 x i8*] [i8* null, i8* null, i8* bitcast (void (%"class.metrics::DesktopProfileSessionDurationsServiceFactory"*)* @_ZN7metrics44DesktopProfileSessionDurationsServiceFactoryD2Ev to i8*), i8* bitcast (void (%"class.metrics::DesktopProfileSessionDurationsServiceFactory"*)* @_ZN7metrics44DesktopProfileSessionDurationsServiceFactoryD0Ev to i8*), i8* bitcast (i8* (%class.BrowserContextKeyedServiceFactory*, i8*)* @_ZNK33BrowserContextKeyedServiceFactory15GetContextToUseEPv to i8*), i8* bitcast (i1 (%class.BrowserContextKeyedServiceFactory*)* @_ZNK33BrowserContextKeyedServiceFactory27ServiceIsCreatedWithContextEv to i8*), i8* bitcast (i1 (%class.BrowserContextKeyedServiceFactory*)* @_ZNK33BrowserContextKeyedServiceFactory25ServiceIsNULLWhileTestingEv to i8*), i8* bitcast (void (%class.BrowserContextKeyedServiceFactory*, i8*)* @_ZN33BrowserContextKeyedServiceFactory15ContextShutdownEPv to i8*), i8* bitcast (void (%class.BrowserContextKeyedServiceFactory*, i8*)* @_ZN33BrowserContextKeyedServiceFactory16ContextDestroyedEPv to i8*), i8* bitcast (void (%class.BrowserContextKeyedServiceFactory*, %"class.user_prefs::PrefRegistrySyncable"*)* @_ZN33BrowserContextKeyedServiceFactory13RegisterPrefsEPN10user_prefs20PrefRegistrySyncableE to i8*), i8* bitcast (void (%class.KeyedServiceFactory*, i8*)* @_ZN19KeyedServiceFactory22SetEmptyTestingFactoryEPv to i8*), i8* bitcast (i1 (%class.KeyedServiceFactory*, i8*)* @_ZN19KeyedServiceFactory17HasTestingFactoryEPv to i8*), i8* bitcast (void (%class.BrowserContextKeyedServiceFactory*, i8*)* @_ZN33BrowserContextKeyedServiceFactory16CreateServiceNowEPv to i8*), i8* bitcast (void ()* @_ZNK33BrowserContextKeyedServiceFactory23BuildServiceInstanceForEPv to i8*), i8* bitcast (i1 (%class.BrowserContextKeyedServiceFactory*, i8*)* @_ZNK33BrowserContextKeyedServiceFactory14IsOffTheRecordEPv to i8*), i8* bitcast (%"class.content::BrowserContext"* (%"class.metrics::DesktopProfileSessionDurationsServiceFactory"*, %"class.content::BrowserContext"*)* @_ZNK7metrics44DesktopProfileSessionDurationsServiceFactory22GetBrowserContextToUseEPN7content14BrowserContextE to i8*), i8* bitcast (i1 (%class.BrowserContextKeyedServiceFactory*)* @_ZNK33BrowserContextKeyedServiceFactory34ServiceIsCreatedWithBrowserContextEv to i8*), i8* bitcast (%class.KeyedService* (%"class.metrics::DesktopProfileSessionDurationsServiceFactory"*, %"class.content::BrowserContext"*)* @_ZNK7metrics44DesktopProfileSessionDurationsServiceFactory23BuildServiceInstanceForEPN7content14BrowserContextE to i8*), i8* bitcast (void (%class.BrowserContextKeyedServiceFactory*, %"class.content::BrowserContext"*)* @_ZN33BrowserContextKeyedServiceFactory22BrowserContextShutdownEPN7content14BrowserContextE to i8*), i8* bitcast (void (%class.BrowserContextKeyedServiceFactory*, %"class.user_prefs::PrefRegistrySyncable"*)* @_ZN33BrowserContextKeyedServiceFactory20RegisterProfilePrefsEPN10user_prefs20PrefRegistrySyncableE to i8*)] }, align 8
@_ZN4base9SingletonIN7metrics44DesktopProfileSessionDurationsServiceFactoryENS_22DefaultSingletonTraitsIS2_EES2_E9instance_E = linkonce_odr hidden global i64 0, comdat, align 8

@_ZN7metrics44DesktopProfileSessionDurationsServiceFactoryC1Ev = hidden unnamed_addr alias void (%"class.metrics::DesktopProfileSessionDurationsServiceFactory"*), void (%"class.metrics::DesktopProfileSessionDurationsServiceFactory"*)* @_ZN7metrics44DesktopProfileSessionDurationsServiceFactoryC2Ev
@_ZN7metrics44DesktopProfileSessionDurationsServiceFactoryD1Ev = hidden unnamed_addr alias void (%"class.metrics::DesktopProfileSessionDurationsServiceFactory"*), void (%"class.metrics::DesktopProfileSessionDurationsServiceFactory"*)* @_ZN7metrics44DesktopProfileSessionDurationsServiceFactoryD2Ev

; Function Attrs: nounwind ssp uwtable
define hidden %"class.metrics::DesktopProfileSessionDurationsService"* @_ZN7metrics44DesktopProfileSessionDurationsServiceFactory20GetForBrowserContextEPN7content14BrowserContextE(%"class.content::BrowserContext"*) local_unnamed_addr #0 align 2 {
  %2 = tail call %"class.metrics::DesktopProfileSessionDurationsServiceFactory"* @_ZN7metrics44DesktopProfileSessionDurationsServiceFactory11GetInstanceEv()
  %3 = getelementptr inbounds %"class.metrics::DesktopProfileSessionDurationsServiceFactory", %"class.metrics::DesktopProfileSessionDurationsServiceFactory"* %2, i64 0, i32 0
  %4 = tail call %class.KeyedService* @_ZN33BrowserContextKeyedServiceFactory27GetServiceForBrowserContextEPN7content14BrowserContextEb(%class.BrowserContextKeyedServiceFactory* %3, %"class.content::BrowserContext"* %0, i1 zeroext true) #5
  %5 = bitcast %class.KeyedService* %4 to %"class.metrics::DesktopProfileSessionDurationsService"*
  ret %"class.metrics::DesktopProfileSessionDurationsService"* %5
}

; Function Attrs: nounwind ssp uwtable
define hidden %"class.metrics::DesktopProfileSessionDurationsServiceFactory"* @_ZN7metrics44DesktopProfileSessionDurationsServiceFactory11GetInstanceEv() local_unnamed_addr #0 align 2 {
  %1 = load atomic i64, i64* @_ZN4base9SingletonIN7metrics44DesktopProfileSessionDurationsServiceFactoryENS_22DefaultSingletonTraitsIS2_EES2_E9instance_E acquire, align 8
  %2 = icmp ugt i64 %1, 1
  br i1 %2, label %18, label %3

3:                                                ; preds = %0
  %4 = tail call zeroext i1 @_ZN4base8internal17NeedsLazyInstanceEPl(i64* nonnull @_ZN4base9SingletonIN7metrics44DesktopProfileSessionDurationsServiceFactoryENS_22DefaultSingletonTraitsIS2_EES2_E9instance_E) #5
  br i1 %4, label %5, label %16

5:                                                ; preds = %3
  %6 = tail call i8* @_Znwm(i64 80) #6
  %7 = bitcast i8* %6 to %class.BrowserContextKeyedServiceFactory*
  %8 = tail call %class.BrowserContextDependencyManager* @_ZN31BrowserContextDependencyManager11GetInstanceEv() #5
  tail call void @_ZN33BrowserContextKeyedServiceFactoryC2EPKcP31BrowserContextDependencyManager(%class.BrowserContextKeyedServiceFactory* nonnull %7, i8* getelementptr inbounds ([38 x i8], [38 x i8]* @.str, i64 0, i64 0), %class.BrowserContextDependencyManager* %8) #5
  %9 = bitcast i8* %6 to i32 (...)***
  store i32 (...)** bitcast (i8** getelementptr inbounds ({ [20 x i8*] }, { [20 x i8*] }* @_ZTVN7metrics44DesktopProfileSessionDurationsServiceFactoryE, i64 0, inrange i32 0, i64 2) to i32 (...)**), i32 (...)*** %9, align 8
  %10 = bitcast i8* %6 to %class.KeyedServiceBaseFactory*
  %11 = tail call %class.ProfileSyncServiceFactory* @_ZN25ProfileSyncServiceFactory11GetInstanceEv() #5
  %12 = bitcast %class.ProfileSyncServiceFactory* %11 to %class.KeyedServiceBaseFactory*
  tail call void @_ZN23KeyedServiceBaseFactory9DependsOnEPS_(%class.KeyedServiceBaseFactory* nonnull %10, %class.KeyedServiceBaseFactory* %12) #5
  %13 = tail call %class.IdentityManagerFactory* @_ZN22IdentityManagerFactory11GetInstanceEv() #5
  %14 = bitcast %class.IdentityManagerFactory* %13 to %class.KeyedServiceBaseFactory*
  tail call void @_ZN23KeyedServiceBaseFactory9DependsOnEPS_(%class.KeyedServiceBaseFactory* nonnull %10, %class.KeyedServiceBaseFactory* %14) #5
  %15 = ptrtoint i8* %6 to i64
  tail call void @_ZN4base8internal20CompleteLazyInstanceEPllPFvPvES2_(i64* nonnull @_ZN4base9SingletonIN7metrics44DesktopProfileSessionDurationsServiceFactoryENS_22DefaultSingletonTraitsIS2_EES2_E9instance_E, i64 %15, void (i8*)* nonnull @_ZN4base9SingletonIN7metrics44DesktopProfileSessionDurationsServiceFactoryENS_22DefaultSingletonTraitsIS2_EES2_E6OnExitEPv, i8* null) #5
  br label %18

16:                                               ; preds = %3
  %17 = load atomic i64, i64* @_ZN4base9SingletonIN7metrics44DesktopProfileSessionDurationsServiceFactoryENS_22DefaultSingletonTraitsIS2_EES2_E9instance_E acquire, align 8
  br label %18

18:                                               ; preds = %0, %5, %16
  %19 = phi i64 [ %1, %0 ], [ %15, %5 ], [ %17, %16 ]
  %20 = inttoptr i64 %19 to %"class.metrics::DesktopProfileSessionDurationsServiceFactory"*
  ret %"class.metrics::DesktopProfileSessionDurationsServiceFactory"* %20
}

declare %class.KeyedService* @_ZN33BrowserContextKeyedServiceFactory27GetServiceForBrowserContextEPN7content14BrowserContextEb(%class.BrowserContextKeyedServiceFactory*, %"class.content::BrowserContext"*, i1 zeroext) local_unnamed_addr #1

; Function Attrs: nounwind ssp uwtable
define hidden void @_ZN7metrics44DesktopProfileSessionDurationsServiceFactoryC2Ev(%"class.metrics::DesktopProfileSessionDurationsServiceFactory"*) unnamed_addr #0 align 2 {
  %2 = getelementptr inbounds %"class.metrics::DesktopProfileSessionDurationsServiceFactory", %"class.metrics::DesktopProfileSessionDurationsServiceFactory"* %0, i64 0, i32 0
  %3 = tail call %class.BrowserContextDependencyManager* @_ZN31BrowserContextDependencyManager11GetInstanceEv() #5
  tail call void @_ZN33BrowserContextKeyedServiceFactoryC2EPKcP31BrowserContextDependencyManager(%class.BrowserContextKeyedServiceFactory* %2, i8* getelementptr inbounds ([38 x i8], [38 x i8]* @.str, i64 0, i64 0), %class.BrowserContextDependencyManager* %3) #5
  %4 = getelementptr inbounds %"class.metrics::DesktopProfileSessionDurationsServiceFactory", %"class.metrics::DesktopProfileSessionDurationsServiceFactory"* %0, i64 0, i32 0, i32 0, i32 0, i32 0
  store i32 (...)** bitcast (i8** getelementptr inbounds ({ [20 x i8*] }, { [20 x i8*] }* @_ZTVN7metrics44DesktopProfileSessionDurationsServiceFactoryE, i64 0, inrange i32 0, i64 2) to i32 (...)**), i32 (...)*** %4, align 8
  %5 = bitcast %"class.metrics::DesktopProfileSessionDurationsServiceFactory"* %0 to %class.KeyedServiceBaseFactory*
  %6 = tail call %class.ProfileSyncServiceFactory* @_ZN25ProfileSyncServiceFactory11GetInstanceEv() #5
  %7 = bitcast %class.ProfileSyncServiceFactory* %6 to %class.KeyedServiceBaseFactory*
  tail call void @_ZN23KeyedServiceBaseFactory9DependsOnEPS_(%class.KeyedServiceBaseFactory* %5, %class.KeyedServiceBaseFactory* %7) #5
  %8 = tail call %class.IdentityManagerFactory* @_ZN22IdentityManagerFactory11GetInstanceEv() #5
  %9 = bitcast %class.IdentityManagerFactory* %8 to %class.KeyedServiceBaseFactory*
  tail call void @_ZN23KeyedServiceBaseFactory9DependsOnEPS_(%class.KeyedServiceBaseFactory* %5, %class.KeyedServiceBaseFactory* %9) #5
  ret void
}

declare %class.BrowserContextDependencyManager* @_ZN31BrowserContextDependencyManager11GetInstanceEv() local_unnamed_addr #1

declare void @_ZN33BrowserContextKeyedServiceFactoryC2EPKcP31BrowserContextDependencyManager(%class.BrowserContextKeyedServiceFactory*, i8*, %class.BrowserContextDependencyManager*) unnamed_addr #1

declare void @_ZN23KeyedServiceBaseFactory9DependsOnEPS_(%class.KeyedServiceBaseFactory*, %class.KeyedServiceBaseFactory*) local_unnamed_addr #1

declare %class.ProfileSyncServiceFactory* @_ZN25ProfileSyncServiceFactory11GetInstanceEv() local_unnamed_addr #1

declare %class.IdentityManagerFactory* @_ZN22IdentityManagerFactory11GetInstanceEv() local_unnamed_addr #1

; Function Attrs: nounwind
declare void @_ZN33BrowserContextKeyedServiceFactoryD2Ev(%class.BrowserContextKeyedServiceFactory*) unnamed_addr #2

; Function Attrs: nounwind ssp uwtable
define hidden void @_ZN7metrics44DesktopProfileSessionDurationsServiceFactoryD2Ev(%"class.metrics::DesktopProfileSessionDurationsServiceFactory"*) unnamed_addr #0 align 2 {
  %2 = getelementptr inbounds %"class.metrics::DesktopProfileSessionDurationsServiceFactory", %"class.metrics::DesktopProfileSessionDurationsServiceFactory"* %0, i64 0, i32 0
  tail call void @_ZN33BrowserContextKeyedServiceFactoryD2Ev(%class.BrowserContextKeyedServiceFactory* %2) #5
  ret void
}

; Function Attrs: nounwind ssp uwtable
define hidden void @_ZN7metrics44DesktopProfileSessionDurationsServiceFactoryD0Ev(%"class.metrics::DesktopProfileSessionDurationsServiceFactory"*) unnamed_addr #0 align 2 {
  %2 = getelementptr inbounds %"class.metrics::DesktopProfileSessionDurationsServiceFactory", %"class.metrics::DesktopProfileSessionDurationsServiceFactory"* %0, i64 0, i32 0
  tail call void @_ZN33BrowserContextKeyedServiceFactoryD2Ev(%class.BrowserContextKeyedServiceFactory* %2) #5
  %3 = bitcast %"class.metrics::DesktopProfileSessionDurationsServiceFactory"* %0 to i8*
  tail call void @_ZdlPv(i8* %3) #6
  ret void
}

; Function Attrs: nobuiltin nounwind
declare void @_ZdlPv(i8*) local_unnamed_addr #3

; Function Attrs: nounwind ssp uwtable
define hidden nonnull %class.KeyedService* @_ZNK7metrics44DesktopProfileSessionDurationsServiceFactory23BuildServiceInstanceForEPN7content14BrowserContextE(%"class.metrics::DesktopProfileSessionDurationsServiceFactory"* nocapture readnone, %"class.content::BrowserContext"*) unnamed_addr #0 align 2 {
  %3 = tail call %class.Profile* @_ZN7Profile18FromBrowserContextEPN7content14BrowserContextE(%"class.content::BrowserContext"* %1) #5
  %4 = tail call %"class.syncer::SyncService"* @_ZN25ProfileSyncServiceFactory13GetForProfileEP7Profile(%class.Profile* %3) #5
  %5 = tail call %"class.metrics::DesktopSessionDurationTracker"* @_ZN7metrics29DesktopSessionDurationTracker3GetEv() #5
  %6 = tail call %"class.signin::IdentityManager"* @_ZN22IdentityManagerFactory13GetForProfileEP7Profile(%class.Profile* %3) #5
  %7 = tail call i8* @_Znwm(i64 48) #6
  %8 = bitcast i8* %7 to %"class.metrics::DesktopProfileSessionDurationsService"*
  %9 = bitcast %class.Profile* %3 to %class.PrefService* (%class.Profile*)***
  %10 = load %class.PrefService* (%class.Profile*)**, %class.PrefService* (%class.Profile*)*** %9, align 8
  %11 = getelementptr inbounds %class.PrefService* (%class.Profile*)*, %class.PrefService* (%class.Profile*)** %10, i64 46
  %12 = load %class.PrefService* (%class.Profile*)*, %class.PrefService* (%class.Profile*)** %11, align 8
  %13 = tail call %class.PrefService* %12(%class.Profile* %3) #5
  tail call void @_ZN7metrics37DesktopProfileSessionDurationsServiceC1EP11PrefServicePN6syncer11SyncServiceEPN6signin15IdentityManagerEPNS_29DesktopSessionDurationTrackerE(%"class.metrics::DesktopProfileSessionDurationsService"* nonnull %8, %class.PrefService* %13, %"class.syncer::SyncService"* %4, %"class.signin::IdentityManager"* %6, %"class.metrics::DesktopSessionDurationTracker"* %5) #5
  %14 = bitcast i8* %7 to %class.KeyedService*
  ret %class.KeyedService* %14
}

declare %class.Profile* @_ZN7Profile18FromBrowserContextEPN7content14BrowserContextE(%"class.content::BrowserContext"*) local_unnamed_addr #1

declare %"class.syncer::SyncService"* @_ZN25ProfileSyncServiceFactory13GetForProfileEP7Profile(%class.Profile*) local_unnamed_addr #1

declare %"class.metrics::DesktopSessionDurationTracker"* @_ZN7metrics29DesktopSessionDurationTracker3GetEv() local_unnamed_addr #1

declare %"class.signin::IdentityManager"* @_ZN22IdentityManagerFactory13GetForProfileEP7Profile(%class.Profile*) local_unnamed_addr #1

; Function Attrs: nobuiltin nofree
declare noalias nonnull i8* @_Znwm(i64) local_unnamed_addr #4

declare void @_ZN7metrics37DesktopProfileSessionDurationsServiceC1EP11PrefServicePN6syncer11SyncServiceEPN6signin15IdentityManagerEPNS_29DesktopSessionDurationTrackerE(%"class.metrics::DesktopProfileSessionDurationsService"*, %class.PrefService*, %"class.syncer::SyncService"*, %"class.signin::IdentityManager"*, %"class.metrics::DesktopSessionDurationTracker"*) unnamed_addr #1

; Function Attrs: nounwind ssp uwtable
define hidden %"class.content::BrowserContext"* @_ZNK7metrics44DesktopProfileSessionDurationsServiceFactory22GetBrowserContextToUseEPN7content14BrowserContextE(%"class.metrics::DesktopProfileSessionDurationsServiceFactory"* nocapture readnone, %"class.content::BrowserContext"*) unnamed_addr #0 align 2 {
  %3 = tail call %"class.content::BrowserContext"* @_ZN6chrome38GetBrowserContextRedirectedInIncognitoEPN7content14BrowserContextE(%"class.content::BrowserContext"* %1) #5
  ret %"class.content::BrowserContext"* %3
}

declare %"class.content::BrowserContext"* @_ZN6chrome38GetBrowserContextRedirectedInIncognitoEPN7content14BrowserContextE(%"class.content::BrowserContext"*) local_unnamed_addr #1

declare i8* @_ZNK33BrowserContextKeyedServiceFactory15GetContextToUseEPv(%class.BrowserContextKeyedServiceFactory*, i8*) unnamed_addr #1

declare zeroext i1 @_ZNK33BrowserContextKeyedServiceFactory27ServiceIsCreatedWithContextEv(%class.BrowserContextKeyedServiceFactory*) unnamed_addr #1

declare zeroext i1 @_ZNK33BrowserContextKeyedServiceFactory25ServiceIsNULLWhileTestingEv(%class.BrowserContextKeyedServiceFactory*) unnamed_addr #1

declare void @_ZN33BrowserContextKeyedServiceFactory15ContextShutdownEPv(%class.BrowserContextKeyedServiceFactory*, i8*) unnamed_addr #1

declare void @_ZN33BrowserContextKeyedServiceFactory16ContextDestroyedEPv(%class.BrowserContextKeyedServiceFactory*, i8*) unnamed_addr #1

declare void @_ZN33BrowserContextKeyedServiceFactory13RegisterPrefsEPN10user_prefs20PrefRegistrySyncableE(%class.BrowserContextKeyedServiceFactory*, %"class.user_prefs::PrefRegistrySyncable"*) unnamed_addr #1

declare void @_ZN19KeyedServiceFactory22SetEmptyTestingFactoryEPv(%class.KeyedServiceFactory*, i8*) unnamed_addr #1

declare zeroext i1 @_ZN19KeyedServiceFactory17HasTestingFactoryEPv(%class.KeyedServiceFactory*, i8*) unnamed_addr #1

declare void @_ZN33BrowserContextKeyedServiceFactory16CreateServiceNowEPv(%class.BrowserContextKeyedServiceFactory*, i8*) unnamed_addr #1

declare void @_ZNK33BrowserContextKeyedServiceFactory23BuildServiceInstanceForEPv() unnamed_addr

declare zeroext i1 @_ZNK33BrowserContextKeyedServiceFactory14IsOffTheRecordEPv(%class.BrowserContextKeyedServiceFactory*, i8*) unnamed_addr #1

declare zeroext i1 @_ZNK33BrowserContextKeyedServiceFactory34ServiceIsCreatedWithBrowserContextEv(%class.BrowserContextKeyedServiceFactory*) unnamed_addr #1

declare void @_ZN33BrowserContextKeyedServiceFactory22BrowserContextShutdownEPN7content14BrowserContextE(%class.BrowserContextKeyedServiceFactory*, %"class.content::BrowserContext"*) unnamed_addr #1

; Function Attrs: nounwind ssp uwtable
define linkonce_odr hidden void @_ZN33BrowserContextKeyedServiceFactory20RegisterProfilePrefsEPN10user_prefs20PrefRegistrySyncableE(%class.BrowserContextKeyedServiceFactory*, %"class.user_prefs::PrefRegistrySyncable"*) unnamed_addr #0 comdat align 2 {
  ret void
}

; Function Attrs: nounwind ssp uwtable
define linkonce_odr hidden void @_ZN4base9SingletonIN7metrics44DesktopProfileSessionDurationsServiceFactoryENS_22DefaultSingletonTraitsIS2_EES2_E6OnExitEPv(i8*) #0 comdat align 2 {
  %2 = load atomic i64, i64* @_ZN4base9SingletonIN7metrics44DesktopProfileSessionDurationsServiceFactoryENS_22DefaultSingletonTraitsIS2_EES2_E9instance_E monotonic, align 8
  %3 = icmp eq i64 %2, 0
  br i1 %3, label %10, label %4

4:                                                ; preds = %1
  %5 = inttoptr i64 %2 to %"class.metrics::DesktopProfileSessionDurationsServiceFactory"*
  %6 = inttoptr i64 %2 to void (%"class.metrics::DesktopProfileSessionDurationsServiceFactory"*)***
  %7 = load void (%"class.metrics::DesktopProfileSessionDurationsServiceFactory"*)**, void (%"class.metrics::DesktopProfileSessionDurationsServiceFactory"*)*** %6, align 8
  %8 = getelementptr inbounds void (%"class.metrics::DesktopProfileSessionDurationsServiceFactory"*)*, void (%"class.metrics::DesktopProfileSessionDurationsServiceFactory"*)** %7, i64 1
  %9 = load void (%"class.metrics::DesktopProfileSessionDurationsServiceFactory"*)*, void (%"class.metrics::DesktopProfileSessionDurationsServiceFactory"*)** %8, align 8
  tail call void %9(%"class.metrics::DesktopProfileSessionDurationsServiceFactory"* nonnull %5) #5
  br label %10

10:                                               ; preds = %1, %4
  store i64 0, i64* @_ZN4base9SingletonIN7metrics44DesktopProfileSessionDurationsServiceFactoryENS_22DefaultSingletonTraitsIS2_EES2_E9instance_E, align 8
  ret void
}

declare zeroext i1 @_ZN4base8internal17NeedsLazyInstanceEPl(i64*) local_unnamed_addr #1

declare void @_ZN4base8internal20CompleteLazyInstanceEPllPFvPvES2_(i64*, i64, void (i8*)*, i8*) local_unnamed_addr #1

attributes #0 = { nounwind ssp uwtable "correctly-rounded-divide-sqrt-fp-math"="false" "disable-tail-calls"="false" "less-precise-fpmad"="false" "min-legal-vector-width"="0" "no-frame-pointer-elim"="false" "no-frame-pointer-elim-non-leaf" "no-infs-fp-math"="false" "no-jump-tables"="false" "no-nans-fp-math"="false" "no-signed-zeros-fp-math"="false" "no-trapping-math"="false" "null-pointer-is-valid"="true" "stack-protector-buffer-size"="4" "target-cpu"="x86-64" "target-features"="+cx8,+fxsr,+mmx,+sse,+sse2,+sse3,+x87" "unsafe-fp-math"="false" "use-soft-float"="false" }
attributes #1 = { "correctly-rounded-divide-sqrt-fp-math"="false" "disable-tail-calls"="false" "less-precise-fpmad"="false" "no-frame-pointer-elim"="false" "no-frame-pointer-elim-non-leaf" "no-infs-fp-math"="false" "no-nans-fp-math"="false" "no-signed-zeros-fp-math"="false" "no-trapping-math"="false" "null-pointer-is-valid"="true" "stack-protector-buffer-size"="4" "target-cpu"="x86-64" "target-features"="+cx8,+fxsr,+mmx,+sse,+sse2,+sse3,+x87" "unsafe-fp-math"="false" "use-soft-float"="false" }
attributes #2 = { nounwind "correctly-rounded-divide-sqrt-fp-math"="false" "disable-tail-calls"="false" "less-precise-fpmad"="false" "no-frame-pointer-elim"="false" "no-frame-pointer-elim-non-leaf" "no-infs-fp-math"="false" "no-nans-fp-math"="false" "no-signed-zeros-fp-math"="false" "no-trapping-math"="false" "null-pointer-is-valid"="true" "stack-protector-buffer-size"="4" "target-cpu"="x86-64" "target-features"="+cx8,+fxsr,+mmx,+sse,+sse2,+sse3,+x87" "unsafe-fp-math"="false" "use-soft-float"="false" }
attributes #3 = { nobuiltin nounwind "correctly-rounded-divide-sqrt-fp-math"="false" "disable-tail-calls"="false" "less-precise-fpmad"="false" "no-frame-pointer-elim"="false" "no-frame-pointer-elim-non-leaf" "no-infs-fp-math"="false" "no-nans-fp-math"="false" "no-signed-zeros-fp-math"="false" "no-trapping-math"="false" "null-pointer-is-valid"="true" "stack-protector-buffer-size"="4" "target-cpu"="x86-64" "target-features"="+cx8,+fxsr,+mmx,+sse,+sse2,+sse3,+x87" "unsafe-fp-math"="false" "use-soft-float"="false" }
attributes #4 = { nobuiltin nofree "correctly-rounded-divide-sqrt-fp-math"="false" "disable-tail-calls"="false" "less-precise-fpmad"="false" "no-frame-pointer-elim"="false" "no-frame-pointer-elim-non-leaf" "no-infs-fp-math"="false" "no-nans-fp-math"="false" "no-signed-zeros-fp-math"="false" "no-trapping-math"="false" "null-pointer-is-valid"="true" "stack-protector-buffer-size"="4" "target-cpu"="x86-64" "target-features"="+cx8,+fxsr,+mmx,+sse,+sse2,+sse3,+x87" "unsafe-fp-math"="false" "use-soft-float"="false" }
attributes #5 = { nounwind }
attributes #6 = { builtin nounwind }

!llvm.module.flags = !{!0, !1}

!0 = !{i32 1, !"wchar_size", i32 4}
!1 = !{i32 7, !"PIC Level", i32 2}
