; ModuleID = 'gen/chrome/browser/enterprise/connectors/device_trust/device_trust_attestation_ca.pb.cc'
source_filename = "gen/chrome/browser/enterprise/connectors/device_trust/device_trust_attestation_ca.pb.cc"
target datalayout = "e-m:e-i64:64-f80:128-n8:16:32:64-S128"
target triple = "x86_64-unknown-linux-gnu"

module asm ".symver exp, exp@GLIBC_2.2.5"
module asm ".symver exp2, exp2@GLIBC_2.2.5"
module asm ".symver exp2f, exp2f@GLIBC_2.2.5"
module asm ".symver expf, expf@GLIBC_2.2.5"
module asm ".symver lgamma, lgamma@GLIBC_2.2.5"
module asm ".symver lgammaf, lgammaf@GLIBC_2.2.5"
module asm ".symver lgammal, lgammal@GLIBC_2.2.5"
module asm ".symver log, log@GLIBC_2.2.5"
module asm ".symver log2, log2@GLIBC_2.2.5"
module asm ".symver log2f, log2f@GLIBC_2.2.5"
module asm ".symver logf, logf@GLIBC_2.2.5"
module asm ".symver pow, pow@GLIBC_2.2.5"
module asm ".symver powf, powf@GLIBC_2.2.5"

%"class.enterprise_connectors::QuoteDefaultTypeInternal" = type { %"class.google::protobuf::internal::ExplicitlyConstructed" }
%"class.google::protobuf::internal::ExplicitlyConstructed" = type { %"union.google::protobuf::internal::ExplicitlyConstructed<enterprise_connectors::Quote>::AlignedUnion" }
%"union.google::protobuf::internal::ExplicitlyConstructed<enterprise_connectors::Quote>::AlignedUnion" = type { i64, [48 x i8] }
%"class.enterprise_connectors::EncryptedDataDefaultTypeInternal" = type { %"class.google::protobuf::internal::ExplicitlyConstructed.0" }
%"class.google::protobuf::internal::ExplicitlyConstructed.0" = type { %"union.google::protobuf::internal::ExplicitlyConstructed<enterprise_connectors::EncryptedData>::AlignedUnion" }
%"union.google::protobuf::internal::ExplicitlyConstructed<enterprise_connectors::EncryptedData>::AlignedUnion" = type { i64, [56 x i8] }
%"class.enterprise_connectors::SignedDataDefaultTypeInternal" = type { %"class.google::protobuf::internal::ExplicitlyConstructed.1" }
%"class.google::protobuf::internal::ExplicitlyConstructed.1" = type { %"union.google::protobuf::internal::ExplicitlyConstructed<enterprise_connectors::SignedData>::AlignedUnion" }
%"union.google::protobuf::internal::ExplicitlyConstructed<enterprise_connectors::SignedData>::AlignedUnion" = type { i64, [32 x i8] }
%"class.enterprise_connectors::EncryptedIdentityCredentialDefaultTypeInternal" = type { %"class.google::protobuf::internal::ExplicitlyConstructed.2" }
%"class.google::protobuf::internal::ExplicitlyConstructed.2" = type { %"union.google::protobuf::internal::ExplicitlyConstructed<enterprise_connectors::EncryptedIdentityCredential>::AlignedUnion" }
%"union.google::protobuf::internal::ExplicitlyConstructed<enterprise_connectors::EncryptedIdentityCredential>::AlignedUnion" = type { i64, [64 x i8] }
%"class.enterprise_connectors::AttestationEnrollmentRequestDefaultTypeInternal" = type { %"class.google::protobuf::internal::ExplicitlyConstructed.3" }
%"class.google::protobuf::internal::ExplicitlyConstructed.3" = type { %"union.google::protobuf::internal::ExplicitlyConstructed<enterprise_connectors::AttestationEnrollmentRequest>::AlignedUnion" }
%"union.google::protobuf::internal::ExplicitlyConstructed<enterprise_connectors::AttestationEnrollmentRequest>::AlignedUnion" = type { i64, [72 x i8] }
%"class.enterprise_connectors::AttestationEnrollmentResponseDefaultTypeInternal" = type { %"class.google::protobuf::internal::ExplicitlyConstructed.4" }
%"class.google::protobuf::internal::ExplicitlyConstructed.4" = type { %"union.google::protobuf::internal::ExplicitlyConstructed<enterprise_connectors::AttestationEnrollmentResponse>::AlignedUnion" }
%"union.google::protobuf::internal::ExplicitlyConstructed<enterprise_connectors::AttestationEnrollmentResponse>::AlignedUnion" = type { i64, [48 x i8] }
%"class.enterprise_connectors::AttestationCertificateRequest_NvramQuotesEntry_DoNotUseDefaultTypeInternal" = type { %"class.google::protobuf::internal::ExplicitlyConstructed.5" }
%"class.google::protobuf::internal::ExplicitlyConstructed.5" = type { %"union.google::protobuf::internal::ExplicitlyConstructed<enterprise_connectors::AttestationCertificateRequest_NvramQuotesEntry_DoNotUse>::AlignedUnion" }
%"union.google::protobuf::internal::ExplicitlyConstructed<enterprise_connectors::AttestationCertificateRequest_NvramQuotesEntry_DoNotUse>::AlignedUnion" = type { i64, [32 x i8] }
%"class.enterprise_connectors::AttestationCertificateRequestDefaultTypeInternal" = type { %"class.google::protobuf::internal::ExplicitlyConstructed.6" }
%"class.google::protobuf::internal::ExplicitlyConstructed.6" = type { %"union.google::protobuf::internal::ExplicitlyConstructed<enterprise_connectors::AttestationCertificateRequest>::AlignedUnion" }
%"union.google::protobuf::internal::ExplicitlyConstructed<enterprise_connectors::AttestationCertificateRequest>::AlignedUnion" = type { i64, [128 x i8] }
%"class.enterprise_connectors::AttestationCertificateResponseDefaultTypeInternal" = type { %"class.google::protobuf::internal::ExplicitlyConstructed.7" }
%"class.google::protobuf::internal::ExplicitlyConstructed.7" = type { %"union.google::protobuf::internal::ExplicitlyConstructed<enterprise_connectors::AttestationCertificateResponse>::AlignedUnion" }
%"union.google::protobuf::internal::ExplicitlyConstructed<enterprise_connectors::AttestationCertificateResponse>::AlignedUnion" = type { i64, [88 x i8] }
%"class.enterprise_connectors::AttestationResetRequestDefaultTypeInternal" = type { %"class.google::protobuf::internal::ExplicitlyConstructed.8" }
%"class.google::protobuf::internal::ExplicitlyConstructed.8" = type { %"union.google::protobuf::internal::ExplicitlyConstructed<enterprise_connectors::AttestationResetRequest>::AlignedUnion" }
%"union.google::protobuf::internal::ExplicitlyConstructed<enterprise_connectors::AttestationResetRequest>::AlignedUnion" = type { i64, [40 x i8] }
%"class.enterprise_connectors::AttestationResetResponseDefaultTypeInternal" = type { %"class.google::protobuf::internal::ExplicitlyConstructed.9" }
%"class.google::protobuf::internal::ExplicitlyConstructed.9" = type { %"union.google::protobuf::internal::ExplicitlyConstructed<enterprise_connectors::AttestationResetResponse>::AlignedUnion" }
%"union.google::protobuf::internal::ExplicitlyConstructed<enterprise_connectors::AttestationResetResponse>::AlignedUnion" = type { i64, [40 x i8] }
%"class.enterprise_connectors::ChallengeDefaultTypeInternal" = type { %"class.google::protobuf::internal::ExplicitlyConstructed.10" }
%"class.google::protobuf::internal::ExplicitlyConstructed.10" = type { %"union.google::protobuf::internal::ExplicitlyConstructed<enterprise_connectors::Challenge>::AlignedUnion" }
%"union.google::protobuf::internal::ExplicitlyConstructed<enterprise_connectors::Challenge>::AlignedUnion" = type { i64, [40 x i8] }
%"class.enterprise_connectors::ChallengeResponseDefaultTypeInternal" = type { %"class.google::protobuf::internal::ExplicitlyConstructed.11" }
%"class.google::protobuf::internal::ExplicitlyConstructed.11" = type { %"union.google::protobuf::internal::ExplicitlyConstructed<enterprise_connectors::ChallengeResponse>::AlignedUnion" }
%"union.google::protobuf::internal::ExplicitlyConstructed<enterprise_connectors::ChallengeResponse>::AlignedUnion" = type { i64, [40 x i8] }
%"class.enterprise_connectors::KeyInfoDefaultTypeInternal" = type { %"class.google::protobuf::internal::ExplicitlyConstructed.12" }
%"class.google::protobuf::internal::ExplicitlyConstructed.12" = type { %"union.google::protobuf::internal::ExplicitlyConstructed<enterprise_connectors::KeyInfo>::AlignedUnion" }
%"union.google::protobuf::internal::ExplicitlyConstructed<enterprise_connectors::KeyInfo>::AlignedUnion" = type { i64, [88 x i8] }
%"class.enterprise_connectors::DeviceTrustSignalsDefaultTypeInternal" = type { %"class.google::protobuf::internal::ExplicitlyConstructed.13" }
%"class.google::protobuf::internal::ExplicitlyConstructed.13" = type { %"union.google::protobuf::internal::ExplicitlyConstructed<enterprise_connectors::DeviceTrustSignals>::AlignedUnion" }
%"union.google::protobuf::internal::ExplicitlyConstructed<enterprise_connectors::DeviceTrustSignals>::AlignedUnion" = type { i64, [168 x i8] }
%"struct.google::protobuf::internal::EnumEntry" = type <{ %"class.google::protobuf::StringPiece", i32, [4 x i8] }>
%"class.google::protobuf::StringPiece" = type { i8*, i64 }
%"class.google::protobuf::internal::ExplicitlyConstructed.18" = type { %"union.google::protobuf::internal::ExplicitlyConstructed<std::__1::basic_string<char, std::__1::char_traits<char>, std::__1::allocator<char> > >::AlignedUnion" }
%"union.google::protobuf::internal::ExplicitlyConstructed<std::__1::basic_string<char, std::__1::char_traits<char>, std::__1::allocator<char> > >::AlignedUnion" = type { i64, [16 x i8] }
%"struct.google::protobuf::MapPair" = type { i32, %"class.enterprise_connectors::Quote" }
%"class.enterprise_connectors::Quote" = type { %"class.google::protobuf::MessageLite", %"class.google::protobuf::internal::HasBits", %"class.google::protobuf::internal::CachedSize", %"struct.google::protobuf::internal::ArenaStringPtr", %"struct.google::protobuf::internal::ArenaStringPtr", %"struct.google::protobuf::internal::ArenaStringPtr", %"struct.google::protobuf::internal::ArenaStringPtr" }
%"class.google::protobuf::MessageLite" = type { i32 (...)**, %"class.google::protobuf::internal::InternalMetadata" }
%"class.google::protobuf::internal::InternalMetadata" = type { i8* }
%"class.google::protobuf::internal::HasBits" = type { [1 x i32] }
%"class.google::protobuf::internal::CachedSize" = type { %"struct.std::__1::atomic" }
%"struct.std::__1::atomic" = type { %"struct.std::__1::__atomic_base" }
%"struct.std::__1::__atomic_base" = type { %"struct.std::__1::__atomic_base.14" }
%"struct.std::__1::__atomic_base.14" = type { %"struct.std::__1::__cxx_atomic_impl" }
%"struct.std::__1::__cxx_atomic_impl" = type { %"struct.std::__1::__cxx_atomic_base_impl" }
%"struct.std::__1::__cxx_atomic_base_impl" = type { i32 }
%"struct.google::protobuf::internal::ArenaStringPtr" = type { %"class.std::__1::basic_string"* }
%"class.std::__1::basic_string" = type { %"class.std::__1::__compressed_pair" }
%"class.std::__1::__compressed_pair" = type { %"struct.std::__1::__compressed_pair_elem" }
%"struct.std::__1::__compressed_pair_elem" = type { %"struct.std::__1::basic_string<char, std::__1::char_traits<char>, std::__1::allocator<char> >::__rep" }
%"struct.std::__1::basic_string<char, std::__1::char_traits<char>, std::__1::allocator<char> >::__rep" = type { %union.anon }
%union.anon = type { %"struct.std::__1::basic_string<char, std::__1::char_traits<char>, std::__1::allocator<char> >::__long" }
%"struct.std::__1::basic_string<char, std::__1::char_traits<char>, std::__1::allocator<char> >::__long" = type { i8*, i64, i64 }
%"class.google::protobuf::Arena" = type { %"class.google::protobuf::internal::ArenaImpl", void (%"class.std::type_info"*, i64, i8*)*, void (%"class.google::protobuf::Arena"*, i8*, i64)*, void (%"class.google::protobuf::Arena"*, i8*, i64)*, i8* }
%"class.google::protobuf::internal::ArenaImpl" = type { %"struct.std::__1::atomic.19", %"struct.std::__1::atomic.19", %"struct.std::__1::atomic.23", %"class.google::protobuf::internal::ArenaImpl::Block"*, i64, %"struct.google::protobuf::internal::ArenaImpl::Options" }
%"struct.std::__1::atomic.19" = type { %"struct.std::__1::__atomic_base.20" }
%"struct.std::__1::__atomic_base.20" = type { %"struct.std::__1::__cxx_atomic_impl.21" }
%"struct.std::__1::__cxx_atomic_impl.21" = type { %"struct.std::__1::__cxx_atomic_base_impl.22" }
%"struct.std::__1::__cxx_atomic_base_impl.22" = type { %"class.google::protobuf::internal::ArenaImpl::SerialArena"* }
%"class.google::protobuf::internal::ArenaImpl::SerialArena" = type { %"class.google::protobuf::internal::ArenaImpl"*, i8*, %"class.google::protobuf::internal::ArenaImpl::Block"*, %"struct.google::protobuf::internal::ArenaImpl::CleanupChunk"*, %"class.google::protobuf::internal::ArenaImpl::SerialArena"*, i8*, i8*, %"struct.google::protobuf::internal::ArenaImpl::CleanupNode"*, %"struct.google::protobuf::internal::ArenaImpl::CleanupNode"* }
%"struct.google::protobuf::internal::ArenaImpl::CleanupChunk" = type { i64, %"struct.google::protobuf::internal::ArenaImpl::CleanupChunk"*, [1 x %"struct.google::protobuf::internal::ArenaImpl::CleanupNode"] }
%"struct.google::protobuf::internal::ArenaImpl::CleanupNode" = type { i8*, void (i8*)* }
%"struct.std::__1::atomic.23" = type { %"struct.std::__1::__atomic_base.24" }
%"struct.std::__1::__atomic_base.24" = type { %"struct.std::__1::__atomic_base.25" }
%"struct.std::__1::__atomic_base.25" = type { %"struct.std::__1::__cxx_atomic_impl.26" }
%"struct.std::__1::__cxx_atomic_impl.26" = type { %"struct.std::__1::__cxx_atomic_base_impl.27" }
%"struct.std::__1::__cxx_atomic_base_impl.27" = type { i64 }
%"class.google::protobuf::internal::ArenaImpl::Block" = type { %"class.google::protobuf::internal::ArenaImpl::Block"*, i64, i64 }
%"struct.google::protobuf::internal::ArenaImpl::Options" = type { i64, i64, i8*, i64, i8* (i64)*, void (i8*, i64)* }
%"class.std::type_info" = type { i32 (...)**, i8* }
%"class.enterprise_connectors::EncryptedData" = type { %"class.google::protobuf::MessageLite", %"class.google::protobuf::internal::HasBits", %"class.google::protobuf::internal::CachedSize", %"struct.google::protobuf::internal::ArenaStringPtr", %"struct.google::protobuf::internal::ArenaStringPtr", %"struct.google::protobuf::internal::ArenaStringPtr", %"struct.google::protobuf::internal::ArenaStringPtr", %"struct.google::protobuf::internal::ArenaStringPtr" }
%"class.enterprise_connectors::SignedData" = type { %"class.google::protobuf::MessageLite", %"class.google::protobuf::internal::HasBits", %"class.google::protobuf::internal::CachedSize", %"struct.google::protobuf::internal::ArenaStringPtr", %"struct.google::protobuf::internal::ArenaStringPtr" }
%"class.enterprise_connectors::EncryptedIdentityCredential" = type <{ %"class.google::protobuf::MessageLite", %"class.google::protobuf::internal::HasBits", %"class.google::protobuf::internal::CachedSize", %"struct.google::protobuf::internal::ArenaStringPtr", %"struct.google::protobuf::internal::ArenaStringPtr", %"struct.google::protobuf::internal::ArenaStringPtr", %"struct.google::protobuf::internal::ArenaStringPtr", %"class.enterprise_connectors::EncryptedData"*, i32, [4 x i8] }>
%"class.enterprise_connectors::AttestationEnrollmentRequest" = type <{ %"class.google::protobuf::MessageLite", %"class.google::protobuf::internal::HasBits", %"class.google::protobuf::internal::CachedSize", %"struct.google::protobuf::internal::ArenaStringPtr", %"struct.google::protobuf::internal::ArenaStringPtr", %"class.enterprise_connectors::EncryptedData"*, %"class.enterprise_connectors::Quote"*, %"class.enterprise_connectors::Quote"*, %"class.enterprise_connectors::EncryptedData"*, i32, [4 x i8] }>
%"class.enterprise_connectors::AttestationEnrollmentResponse" = type <{ %"class.google::protobuf::MessageLite", %"class.google::protobuf::internal::HasBits", %"class.google::protobuf::internal::CachedSize", %"struct.google::protobuf::internal::ArenaStringPtr", %"struct.google::protobuf::internal::ArenaStringPtr", %"class.enterprise_connectors::EncryptedIdentityCredential"*, i32, [4 x i8] }>
%"class.enterprise_connectors::AttestationCertificateRequest_NvramQuotesEntry_DoNotUse" = type { %"class.google::protobuf::internal::MapEntryLite.base", [4 x i8] }
%"class.google::protobuf::internal::MapEntryLite.base" = type { %"class.google::protobuf::internal::MapEntryImpl.base" }
%"class.google::protobuf::internal::MapEntryImpl.base" = type <{ %"class.google::protobuf::MessageLite", i32, [4 x i8], %"class.enterprise_connectors::Quote"*, [1 x i32] }>
%"class.enterprise_connectors::AttestationCertificateRequest" = type <{ %"class.google::protobuf::MessageLite", %"class.google::protobuf::internal::HasBits", %"class.google::protobuf::internal::CachedSize", %"class.google::protobuf::internal::MapFieldLite", %"struct.google::protobuf::internal::ArenaStringPtr", %"struct.google::protobuf::internal::ArenaStringPtr", %"struct.google::protobuf::internal::ArenaStringPtr", %"struct.google::protobuf::internal::ArenaStringPtr", %"struct.google::protobuf::internal::ArenaStringPtr", %"struct.google::protobuf::internal::ArenaStringPtr", i32, i32, i32, [4 x i8] }>
%"class.google::protobuf::internal::MapFieldLite" = type { %"class.google::protobuf::Map" }
%"class.google::protobuf::Map" = type { %"class.google::protobuf::Map<int, enterprise_connectors::Quote>::InnerMap" }
%"class.google::protobuf::Map<int, enterprise_connectors::Quote>::InnerMap" = type { i64, i64, i64, i64, i8**, %"class.google::protobuf::internal::MapAllocator" }
%"class.google::protobuf::internal::MapAllocator" = type { %"class.google::protobuf::Arena"* }
%"class.enterprise_connectors::AttestationCertificateResponse" = type <{ %"class.google::protobuf::MessageLite", %"class.google::protobuf::internal::HasBits", %"class.google::protobuf::internal::CachedSize", %"class.google::protobuf::RepeatedPtrField", %"struct.google::protobuf::internal::ArenaStringPtr", %"struct.google::protobuf::internal::ArenaStringPtr", %"struct.google::protobuf::internal::ArenaStringPtr", %"struct.google::protobuf::internal::ArenaStringPtr", %"struct.google::protobuf::internal::ArenaStringPtr", i32, [4 x i8] }>
%"class.google::protobuf::RepeatedPtrField" = type { %"class.google::protobuf::internal::RepeatedPtrFieldBase" }
%"class.google::protobuf::internal::RepeatedPtrFieldBase" = type { %"class.google::protobuf::Arena"*, i32, i32, %"struct.google::protobuf::internal::RepeatedPtrFieldBase::Rep"* }
%"struct.google::protobuf::internal::RepeatedPtrFieldBase::Rep" = type { i32, [268435454 x i8*] }
%"class.enterprise_connectors::AttestationResetRequest" = type { %"class.google::protobuf::MessageLite", %"class.google::protobuf::internal::HasBits", %"class.google::protobuf::internal::CachedSize", %"struct.google::protobuf::internal::ArenaStringPtr", %"class.enterprise_connectors::EncryptedData"*, %"class.enterprise_connectors::EncryptedData"* }
%"class.enterprise_connectors::AttestationResetResponse" = type <{ %"class.google::protobuf::MessageLite", %"class.google::protobuf::internal::HasBits", %"class.google::protobuf::internal::CachedSize", %"struct.google::protobuf::internal::ArenaStringPtr", %"struct.google::protobuf::internal::ArenaStringPtr", i32, [4 x i8] }>
%"class.enterprise_connectors::Challenge" = type { %"class.google::protobuf::MessageLite", %"class.google::protobuf::internal::HasBits", %"class.google::protobuf::internal::CachedSize", %"struct.google::protobuf::internal::ArenaStringPtr", %"struct.google::protobuf::internal::ArenaStringPtr", i64 }
%"class.enterprise_connectors::ChallengeResponse" = type { %"class.google::protobuf::MessageLite", %"class.google::protobuf::internal::HasBits", %"class.google::protobuf::internal::CachedSize", %"struct.google::protobuf::internal::ArenaStringPtr", %"class.enterprise_connectors::SignedData"*, %"class.enterprise_connectors::EncryptedData"* }
%"class.enterprise_connectors::KeyInfo" = type <{ %"class.google::protobuf::MessageLite", %"class.google::protobuf::internal::HasBits", %"class.google::protobuf::internal::CachedSize", %"struct.google::protobuf::internal::ArenaStringPtr", %"struct.google::protobuf::internal::ArenaStringPtr", %"struct.google::protobuf::internal::ArenaStringPtr", %"struct.google::protobuf::internal::ArenaStringPtr", %"struct.google::protobuf::internal::ArenaStringPtr", %"struct.google::protobuf::internal::ArenaStringPtr", %"struct.google::protobuf::internal::ArenaStringPtr", %"class.enterprise_connectors::DeviceTrustSignals"*, i32, [4 x i8] }>
%"class.enterprise_connectors::DeviceTrustSignals" = type <{ %"class.google::protobuf::MessageLite", %"class.google::protobuf::internal::HasBits", %"class.google::protobuf::internal::CachedSize", %"struct.google::protobuf::internal::ArenaStringPtr", %"struct.google::protobuf::internal::ArenaStringPtr", %"struct.google::protobuf::internal::ArenaStringPtr", %"struct.google::protobuf::internal::ArenaStringPtr", %"struct.google::protobuf::internal::ArenaStringPtr", %"struct.google::protobuf::internal::ArenaStringPtr", %"struct.google::protobuf::internal::ArenaStringPtr", %"struct.google::protobuf::internal::ArenaStringPtr", %"struct.google::protobuf::internal::ArenaStringPtr", %"struct.google::protobuf::internal::ArenaStringPtr", %"struct.google::protobuf::internal::ArenaStringPtr", %"struct.google::protobuf::internal::ArenaStringPtr", %"struct.google::protobuf::internal::ArenaStringPtr", %"struct.google::protobuf::internal::ArenaStringPtr", %"struct.google::protobuf::internal::ArenaStringPtr", %"struct.google::protobuf::internal::ArenaStringPtr", i8, i8, i8, i8, i32, i8, i8, i8, i8, i32, i8, i8, [6 x i8] }>
%"struct.google::protobuf::internal::SCCInfoBase" = type { %"struct.std::__1::atomic", i32, i32, void ()* }
%"struct.std::__1::basic_string<char, std::__1::char_traits<char>, std::__1::allocator<char> >::__short" = type { [23 x i8], %struct.anon }
%struct.anon = type { i8 }
%"struct.google::protobuf::internal::InternalMetadata::Container" = type { %"struct.google::protobuf::internal::InternalMetadata::ContainerBase", %"class.std::__1::basic_string" }
%"struct.google::protobuf::internal::InternalMetadata::ContainerBase" = type { %"class.google::protobuf::Arena"* }
%"class.google::protobuf::internal::ParseContext" = type { %"class.google::protobuf::internal::EpsCopyInputStream", i32, i32, %"struct.google::protobuf::internal::ParseContext::Data" }
%"class.google::protobuf::internal::EpsCopyInputStream" = type { i8*, i8*, i8*, i32, i32, %"class.google::protobuf::io::ZeroCopyInputStream"*, [32 x i8], i64, i32, i32 }
%"class.google::protobuf::io::ZeroCopyInputStream" = type { i32 (...)** }
%"struct.google::protobuf::internal::ParseContext::Data" = type { %"class.google::protobuf::DescriptorPool"*, %"class.google::protobuf::MessageFactory"* }
%"class.google::protobuf::DescriptorPool" = type opaque
%"class.google::protobuf::MessageFactory" = type opaque
%"class.google::protobuf::io::EpsCopyOutputStream" = type <{ i8*, i8*, [32 x i8], %"class.google::protobuf::io::ZeroCopyOutputStream"*, i8, i8, i8, [5 x i8] }>
%"class.google::protobuf::io::ZeroCopyOutputStream" = type { i32 (...)** }
%"class.google::protobuf::internal::MapEntryImpl" = type <{ %"class.google::protobuf::MessageLite", i32, [4 x i8], %"class.enterprise_connectors::Quote"*, [1 x i32], [4 x i8] }>
%"struct.std::__1::pair.45" = type <{ %"class.google::protobuf::Map<int, enterprise_connectors::Quote>::InnerMap::iterator_base.46", i8, [7 x i8] }>
%"class.google::protobuf::Map<int, enterprise_connectors::Quote>::InnerMap::iterator_base.46" = type { %"struct.google::protobuf::Map<int, enterprise_connectors::Quote>::InnerMap::Node"*, %"class.google::protobuf::Map<int, enterprise_connectors::Quote>::InnerMap"*, i64 }
%"struct.google::protobuf::Map<int, enterprise_connectors::Quote>::InnerMap::Node" = type { %"struct.google::protobuf::MapPair", %"struct.google::protobuf::Map<int, enterprise_connectors::Quote>::InnerMap::Node"* }
%"class.google::protobuf::Map<int, enterprise_connectors::Quote>::const_iterator" = type { %"class.google::protobuf::Map<int, enterprise_connectors::Quote>::InnerMap::iterator_base" }
%"class.google::protobuf::Map<int, enterprise_connectors::Quote>::InnerMap::iterator_base" = type { %"struct.google::protobuf::Map<int, enterprise_connectors::Quote>::InnerMap::Node"*, %"class.google::protobuf::Map<int, enterprise_connectors::Quote>::InnerMap"*, i64 }
%"class.std::__1::__tree_end_node" = type { %"class.std::__1::__tree_node_base"* }
%"class.std::__1::__tree_node_base" = type <{ %"class.std::__1::__tree_end_node", %"class.std::__1::__tree_node_base"*, %"class.std::__1::__tree_end_node"*, i8, [7 x i8] }>
%"class.google::protobuf::internal::MapEntryImpl<enterprise_connectors::AttestationCertificateRequest_NvramQuotesEntry_DoNotUse, google::protobuf::MessageLite, int, enterprise_connectors::Quote, google::protobuf::internal::WireFormatLite::TYPE_INT32, google::protobuf::internal::WireFormatLite::TYPE_MESSAGE>::Parser" = type { %"class.google::protobuf::internal::MapFieldLite"*, %"class.google::protobuf::Map"*, i32, %"class.enterprise_connectors::Quote"*, %"class.google::protobuf::internal::MapEntryImpl"* }
%"struct.google::protobuf::internal::CompareByFirstField" = type { i8 }
%"struct.google::protobuf::internal::SortItem" = type { i32, %"struct.google::protobuf::MapPair"* }
%"class.google::protobuf::internal::MapEntryLite" = type { %"class.google::protobuf::internal::MapEntryImpl.base", [4 x i8] }
%"class.std::__1::__tree" = type { %"class.std::__1::__tree_end_node"*, %"class.std::__1::__compressed_pair.34", %"class.std::__1::__compressed_pair.38" }
%"class.std::__1::__compressed_pair.34" = type { %"struct.std::__1::__compressed_pair_elem.35", %"struct.std::__1::__compressed_pair_elem.36" }
%"struct.std::__1::__compressed_pair_elem.35" = type { %"class.std::__1::__tree_end_node" }
%"struct.std::__1::__compressed_pair_elem.36" = type { %"class.google::protobuf::internal::MapAllocator.37" }
%"class.google::protobuf::internal::MapAllocator.37" = type { %"class.google::protobuf::Arena"* }
%"class.std::__1::__compressed_pair.38" = type { %"struct.std::__1::__compressed_pair_elem.39" }
%"struct.std::__1::__compressed_pair_elem.39" = type { i64 }
%"class.std::__1::__tree_node" = type { %"class.std::__1::__tree_node_base.base", %"struct.std::__1::__value_type" }
%"class.std::__1::__tree_node_base.base" = type <{ %"class.std::__1::__tree_end_node", %"class.std::__1::__tree_node_base"*, %"class.std::__1::__tree_end_node"*, i8 }>
%"struct.std::__1::__value_type" = type { %"struct.std::__1::pair.41" }
%"struct.std::__1::pair.41" = type { i32, i8* }
%"class.std::__1::map" = type { %"class.std::__1::__tree" }
%"class.google::protobuf::Map<int, enterprise_connectors::Quote>::iterator" = type { %"class.google::protobuf::Map<int, enterprise_connectors::Quote>::InnerMap::iterator_base.46" }
%"class.std::__1::__map_iterator" = type { %"class.std::__1::__tree_iterator" }
%"class.std::__1::__tree_iterator" = type { %"class.std::__1::__tree_end_node"* }

$_ZN6google8protobuf8internal12ParseContext12ParseMessageIN21enterprise_connectors13EncryptedDataEEEPKcPT_S7_ = comdat any

$_ZN6google8protobuf8internal12ParseContext12ParseMessageIN21enterprise_connectors5QuoteEEEPKcPT_S7_ = comdat any

$_ZN6google8protobuf8internal12ParseContext12ParseMessageIN21enterprise_connectors27EncryptedIdentityCredentialEEEPKcPT_S7_ = comdat any

$_ZN6google8protobuf8internal12MapFieldLiteIN21enterprise_connectors55AttestationCertificateRequest_NvramQuotesEntry_DoNotUseEiNS3_5QuoteELNS1_14WireFormatLite9FieldTypeE5ELS7_11EE9MergeFromERKS8_ = comdat any

$_ZN6google8protobuf8internal12ParseContext12ParseMessageINS1_12MapFieldLiteIN21enterprise_connectors55AttestationCertificateRequest_NvramQuotesEntry_DoNotUseEiNS5_5QuoteELNS1_14WireFormatLite9FieldTypeE5ELS9_11EEEEEPKcPT_SC_ = comdat any

$_ZN6google8protobuf8internal13MapEntryFuncsIiN21enterprise_connectors5QuoteELNS1_14WireFormatLite9FieldTypeE5ELS6_11EE17InternalSerializeEiRKiRKS4_PhPNS0_2io19EpsCopyOutputStreamE = comdat any

$_ZN6google8protobuf8internal12ParseContext12ParseMessageIN21enterprise_connectors10SignedDataEEEPKcPT_S7_ = comdat any

$_ZN6google8protobuf8internal12ParseContext12ParseMessageIN21enterprise_connectors18DeviceTrustSignalsEEEPKcPT_S7_ = comdat any

$_ZN21enterprise_connectors18DeviceTrustSignals10SharedDtorEv = comdat any

$_ZNK21enterprise_connectors5Quote3NewEv = comdat any

$_ZNK21enterprise_connectors5Quote3NewEPN6google8protobuf5ArenaE = comdat any

$_ZNK21enterprise_connectors5Quote13GetCachedSizeEv = comdat any

$_ZNK6google8protobuf11MessageLite16InternalGetTableEv = comdat any

$_ZNK21enterprise_connectors13EncryptedData3NewEv = comdat any

$_ZNK21enterprise_connectors13EncryptedData3NewEPN6google8protobuf5ArenaE = comdat any

$_ZNK21enterprise_connectors13EncryptedData13GetCachedSizeEv = comdat any

$_ZNK21enterprise_connectors10SignedData3NewEv = comdat any

$_ZNK21enterprise_connectors10SignedData3NewEPN6google8protobuf5ArenaE = comdat any

$_ZNK21enterprise_connectors10SignedData13GetCachedSizeEv = comdat any

$_ZNK21enterprise_connectors27EncryptedIdentityCredential3NewEv = comdat any

$_ZNK21enterprise_connectors27EncryptedIdentityCredential3NewEPN6google8protobuf5ArenaE = comdat any

$_ZNK21enterprise_connectors27EncryptedIdentityCredential13GetCachedSizeEv = comdat any

$_ZNK21enterprise_connectors28AttestationEnrollmentRequest3NewEv = comdat any

$_ZNK21enterprise_connectors28AttestationEnrollmentRequest3NewEPN6google8protobuf5ArenaE = comdat any

$_ZNK21enterprise_connectors28AttestationEnrollmentRequest13GetCachedSizeEv = comdat any

$_ZNK21enterprise_connectors29AttestationEnrollmentResponse3NewEv = comdat any

$_ZNK21enterprise_connectors29AttestationEnrollmentResponse3NewEPN6google8protobuf5ArenaE = comdat any

$_ZNK21enterprise_connectors29AttestationEnrollmentResponse13GetCachedSizeEv = comdat any

$_ZNK21enterprise_connectors29AttestationCertificateRequest3NewEv = comdat any

$_ZNK21enterprise_connectors29AttestationCertificateRequest3NewEPN6google8protobuf5ArenaE = comdat any

$_ZNK21enterprise_connectors29AttestationCertificateRequest13GetCachedSizeEv = comdat any

$_ZNK21enterprise_connectors30AttestationCertificateResponse3NewEv = comdat any

$_ZNK21enterprise_connectors30AttestationCertificateResponse3NewEPN6google8protobuf5ArenaE = comdat any

$_ZNK21enterprise_connectors30AttestationCertificateResponse13GetCachedSizeEv = comdat any

$_ZNK21enterprise_connectors23AttestationResetRequest3NewEv = comdat any

$_ZNK21enterprise_connectors23AttestationResetRequest3NewEPN6google8protobuf5ArenaE = comdat any

$_ZNK21enterprise_connectors23AttestationResetRequest13GetCachedSizeEv = comdat any

$_ZNK21enterprise_connectors24AttestationResetResponse3NewEv = comdat any

$_ZNK21enterprise_connectors24AttestationResetResponse3NewEPN6google8protobuf5ArenaE = comdat any

$_ZNK21enterprise_connectors24AttestationResetResponse13GetCachedSizeEv = comdat any

$_ZNK21enterprise_connectors9Challenge3NewEv = comdat any

$_ZNK21enterprise_connectors9Challenge3NewEPN6google8protobuf5ArenaE = comdat any

$_ZNK21enterprise_connectors9Challenge13GetCachedSizeEv = comdat any

$_ZNK21enterprise_connectors17ChallengeResponse3NewEv = comdat any

$_ZNK21enterprise_connectors17ChallengeResponse3NewEPN6google8protobuf5ArenaE = comdat any

$_ZNK21enterprise_connectors17ChallengeResponse13GetCachedSizeEv = comdat any

$_ZNK21enterprise_connectors7KeyInfo3NewEv = comdat any

$_ZNK21enterprise_connectors7KeyInfo3NewEPN6google8protobuf5ArenaE = comdat any

$_ZNK21enterprise_connectors7KeyInfo13GetCachedSizeEv = comdat any

$_ZNK21enterprise_connectors18DeviceTrustSignals3NewEv = comdat any

$_ZNK21enterprise_connectors18DeviceTrustSignals3NewEPN6google8protobuf5ArenaE = comdat any

$_ZNK21enterprise_connectors18DeviceTrustSignals13GetCachedSizeEv = comdat any

$_ZN6google8protobuf8internal12MapEntryLiteIN21enterprise_connectors55AttestationCertificateRequest_NvramQuotesEntry_DoNotUseEiNS3_5QuoteELNS1_14WireFormatLite9FieldTypeE5ELS7_11EED2Ev = comdat any

$_ZN21enterprise_connectors55AttestationCertificateRequest_NvramQuotesEntry_DoNotUseD0Ev = comdat any

$_ZNK6google8protobuf8internal12MapEntryImplIN21enterprise_connectors55AttestationCertificateRequest_NvramQuotesEntry_DoNotUseENS0_11MessageLiteEiNS3_5QuoteELNS1_14WireFormatLite9FieldTypeE5ELS8_11EE11GetTypeNameEv = comdat any

$_ZNK6google8protobuf8internal12MapEntryImplIN21enterprise_connectors55AttestationCertificateRequest_NvramQuotesEntry_DoNotUseENS0_11MessageLiteEiNS3_5QuoteELNS1_14WireFormatLite9FieldTypeE5ELS8_11EE3NewEv = comdat any

$_ZNK6google8protobuf8internal12MapEntryImplIN21enterprise_connectors55AttestationCertificateRequest_NvramQuotesEntry_DoNotUseENS0_11MessageLiteEiNS3_5QuoteELNS1_14WireFormatLite9FieldTypeE5ELS8_11EE3NewEPNS0_5ArenaE = comdat any

$_ZN6google8protobuf8internal12MapEntryImplIN21enterprise_connectors55AttestationCertificateRequest_NvramQuotesEntry_DoNotUseENS0_11MessageLiteEiNS3_5QuoteELNS1_14WireFormatLite9FieldTypeE5ELS8_11EE5ClearEv = comdat any

$_ZNK6google8protobuf8internal12MapEntryImplIN21enterprise_connectors55AttestationCertificateRequest_NvramQuotesEntry_DoNotUseENS0_11MessageLiteEiNS3_5QuoteELNS1_14WireFormatLite9FieldTypeE5ELS8_11EE13IsInitializedEv = comdat any

$_ZN6google8protobuf8internal12MapEntryImplIN21enterprise_connectors55AttestationCertificateRequest_NvramQuotesEntry_DoNotUseENS0_11MessageLiteEiNS3_5QuoteELNS1_14WireFormatLite9FieldTypeE5ELS8_11EE21CheckTypeAndMergeFromERKS5_ = comdat any

$_ZNK6google8protobuf8internal12MapEntryImplIN21enterprise_connectors55AttestationCertificateRequest_NvramQuotesEntry_DoNotUseENS0_11MessageLiteEiNS3_5QuoteELNS1_14WireFormatLite9FieldTypeE5ELS8_11EE12ByteSizeLongEv = comdat any

$_ZNK6google8protobuf8internal12MapEntryImplIN21enterprise_connectors55AttestationCertificateRequest_NvramQuotesEntry_DoNotUseENS0_11MessageLiteEiNS3_5QuoteELNS1_14WireFormatLite9FieldTypeE5ELS8_11EE13GetCachedSizeEv = comdat any

$_ZN6google8protobuf8internal12MapEntryImplIN21enterprise_connectors55AttestationCertificateRequest_NvramQuotesEntry_DoNotUseENS0_11MessageLiteEiNS3_5QuoteELNS1_14WireFormatLite9FieldTypeE5ELS8_11EE14_InternalParseEPKcPNS1_12ParseContextE = comdat any

$_ZNK6google8protobuf8internal12MapEntryImplIN21enterprise_connectors55AttestationCertificateRequest_NvramQuotesEntry_DoNotUseENS0_11MessageLiteEiNS3_5QuoteELNS1_14WireFormatLite9FieldTypeE5ELS8_11EE18_InternalSerializeEPhPNS0_2io19EpsCopyOutputStreamE = comdat any

$_ZNK6google8protobuf8internal12MapEntryImplIN21enterprise_connectors55AttestationCertificateRequest_NvramQuotesEntry_DoNotUseENS0_11MessageLiteEiNS3_5QuoteELNS1_14WireFormatLite9FieldTypeE5ELS8_11EE3keyEv = comdat any

$_ZNK6google8protobuf8internal12MapEntryImplIN21enterprise_connectors55AttestationCertificateRequest_NvramQuotesEntry_DoNotUseENS0_11MessageLiteEiNS3_5QuoteELNS1_14WireFormatLite9FieldTypeE5ELS8_11EE5valueEv = comdat any

$_ZN6google8protobuf8internal14ArenaStringPtr14CreateInstanceEPNS0_5ArenaEPKNSt3__112basic_stringIcNS5_11char_traitsIcEENS5_9allocatorIcEEEE = comdat any

$_ZN6google8protobuf8internal21arena_destruct_objectINSt3__112basic_stringIcNS3_11char_traitsIcEENS3_9allocatorIcEEEEEEvPv = comdat any

$_ZN6google8protobuf3MapIiN21enterprise_connectors5QuoteEE8InnerMap5clearEv = comdat any

$_ZNSt3__113__tree_removeIPNS_16__tree_node_baseIPvEEEEvT_S5_ = comdat any

$_ZNSt3__16__treeINS_12__value_typeIiPvEENS_19__map_value_compareIiS3_NS_4lessIiEELb1EEEN6google8protobuf8internal12MapAllocatorIS3_EEE7destroyEPNS_11__tree_nodeIS3_S2_EE = comdat any

$_ZN6google8protobuf8internal16InternalMetadata27mutable_unknown_fields_slowINSt3__112basic_stringIcNS4_11char_traitsIcEENS4_9allocatorIcEEEEEEPT_v = comdat any

$_ZN6google8protobuf8internal21arena_destruct_objectINS1_16InternalMetadata9ContainerINSt3__112basic_stringIcNS5_11char_traitsIcEENS5_9allocatorIcEEEEEEEEvPv = comdat any

$_ZN6google8protobuf8internal12MapEntryLiteIN21enterprise_connectors55AttestationCertificateRequest_NvramQuotesEntry_DoNotUseEiNS3_5QuoteELNS1_14WireFormatLite9FieldTypeE5ELS7_11EED0Ev = comdat any

$_ZN6google8protobuf8internal12MapEntryImplIN21enterprise_connectors55AttestationCertificateRequest_NvramQuotesEntry_DoNotUseENS0_11MessageLiteEiNS3_5QuoteELNS1_14WireFormatLite9FieldTypeE5ELS8_11EED2Ev = comdat any

$_ZN6google8protobuf8internal12MapEntryImplIN21enterprise_connectors55AttestationCertificateRequest_NvramQuotesEntry_DoNotUseENS0_11MessageLiteEiNS3_5QuoteELNS1_14WireFormatLite9FieldTypeE5ELS8_11EED0Ev = comdat any

$_ZN6google8protobuf3MapIiN21enterprise_connectors5QuoteEE8InnerMap6insertERKi = comdat any

$_ZN6google8protobuf3MapIiN21enterprise_connectors5QuoteEE8InnerMap12InsertUniqueEmPNS5_4NodeE = comdat any

$_ZN6google8protobuf3MapIiN21enterprise_connectors5QuoteEE8InnerMap6ResizeEm = comdat any

$_ZN6google8protobuf3MapIiN21enterprise_connectors5QuoteEE8InnerMap12TransferTreeEPKPvm = comdat any

$_ZN6google8protobuf3MapIiN21enterprise_connectors5QuoteEE8InnerMap11TreeConvertEm = comdat any

$_ZN6google8protobuf8internal21arena_destruct_objectINSt3__13mapIiPvNS3_4lessIiEENS1_12MapAllocatorINS3_4pairIKiS5_EEEEEEEEvS5_ = comdat any

$_ZNSt3__16__treeINS_12__value_typeIiPvEENS_19__map_value_compareIiS3_NS_4lessIiEELb1EEEN6google8protobuf8internal12MapAllocatorIS3_EEE25__emplace_unique_key_argsIiJNS_4pairIKiS2_EEEEENSF_INS_15__tree_iteratorIS3_PNS_11__tree_nodeIS3_S2_EElEEbEERKT_DpOT0_ = comdat any

$_ZNSt3__127__tree_balance_after_insertIPNS_16__tree_node_baseIPvEEEEvT_S5_ = comdat any

$_ZN6google8protobuf8internal12MapEntryImplIN21enterprise_connectors55AttestationCertificateRequest_NvramQuotesEntry_DoNotUseENS0_11MessageLiteEiNS3_5QuoteELNS1_14WireFormatLite9FieldTypeE5ELS8_11EE6ParserINS1_12MapFieldLiteIS4_iS6_LS8_5ELS8_11EEENS0_3MapIiS6_EEE14_InternalParseEPKcPNS1_12ParseContextE = comdat any

$_ZN6google8protobuf3MapIiN21enterprise_connectors5QuoteEE5eraseIiEEmRKi = comdat any

$_ZN6google8protobuf3MapIiN21enterprise_connectors5QuoteEE8InnerMap5eraseENS5_13iterator_baseINS0_7MapPairIiS3_EEEE = comdat any

$_ZN6google8protobuf3MapIiN21enterprise_connectors5QuoteEE8InnerMap13iterator_baseINS0_7MapPairIiS3_EEEppEv = comdat any

$_ZN6google8protobuf3MapIiN21enterprise_connectors5QuoteEE8InnerMap13iterator_baseINS0_7MapPairIiS3_EEE23revalidate_if_necessaryEPNSt3__114__map_iteratorINSA_15__tree_iteratorINSA_12__value_typeIiPvEEPNSA_11__tree_nodeISF_SE_EElEEEE = comdat any

$_ZN6google8protobuf3MapIiN21enterprise_connectors5QuoteEE8InnerMap19EraseFromLinkedListEPNS5_4NodeES7_ = comdat any

$_ZN21enterprise_connectors5Quote4SwapEPS0_ = comdat any

$_ZN6google8protobuf3MapIiN21enterprise_connectors5QuoteEE8InnerMap13iterator_baseIKNS0_7MapPairIiS3_EEEppEv = comdat any

$_ZN6google8protobuf3MapIiN21enterprise_connectors5QuoteEE8InnerMap13iterator_baseIKNS0_7MapPairIiS3_EEE23revalidate_if_necessaryEPNSt3__114__map_iteratorINSB_15__tree_iteratorINSB_12__value_typeIiPvEEPNSB_11__tree_nodeISG_SF_EElEEEE = comdat any

$_ZNSt3__16__sortIRN6google8protobuf8internal19CompareByFirstFieldINS3_8SortItemIiPKNS2_7MapPairIiN21enterprise_connectors5QuoteEEEEEEEPSC_EEvT0_SG_T_ = comdat any

$_ZNSt3__17__sort4IRN6google8protobuf8internal19CompareByFirstFieldINS3_8SortItemIiPKNS2_7MapPairIiN21enterprise_connectors5QuoteEEEEEEEPSC_EEjT0_SG_SG_SG_T_ = comdat any

$_ZNSt3__127__insertion_sort_incompleteIRN6google8protobuf8internal19CompareByFirstFieldINS3_8SortItemIiPKNS2_7MapPairIiN21enterprise_connectors5QuoteEEEEEEEPSC_EEbT0_SG_T_ = comdat any

$_ZN6google8protobuf3MapIiN21enterprise_connectors5QuoteEE4swapERS4_ = comdat any

$_ZN6google8protobuf3MapIiN21enterprise_connectors5QuoteEE6insertINS4_14const_iteratorEEEvT_S7_ = comdat any

$_ZN6google8protobuf8internal20RepeatedPtrFieldBase9MergeFromINS0_16RepeatedPtrFieldINSt3__112basic_stringIcNS5_11char_traitsIcEENS5_9allocatorIcEEEEE11TypeHandlerEEEvRKS2_ = comdat any

$_ZTVN21enterprise_connectors55AttestationCertificateRequest_NvramQuotesEntry_DoNotUseE = comdat any

$_ZTVN6google8protobuf8internal12MapEntryLiteIN21enterprise_connectors55AttestationCertificateRequest_NvramQuotesEntry_DoNotUseEiNS3_5QuoteELNS1_14WireFormatLite9FieldTypeE5ELS7_11EEE = comdat any

$_ZTVN6google8protobuf8internal12MapEntryImplIN21enterprise_connectors55AttestationCertificateRequest_NvramQuotesEntry_DoNotUseENS0_11MessageLiteEiNS3_5QuoteELNS1_14WireFormatLite9FieldTypeE5ELS8_11EEE = comdat any

@_ZN21enterprise_connectors24_Quote_default_instance_E = hidden global %"class.enterprise_connectors::QuoteDefaultTypeInternal" zeroinitializer, align 8
@_ZN21enterprise_connectors32_EncryptedData_default_instance_E = hidden global %"class.enterprise_connectors::EncryptedDataDefaultTypeInternal" zeroinitializer, align 8
@_ZN21enterprise_connectors29_SignedData_default_instance_E = hidden global %"class.enterprise_connectors::SignedDataDefaultTypeInternal" zeroinitializer, align 8
@_ZN21enterprise_connectors46_EncryptedIdentityCredential_default_instance_E = hidden global %"class.enterprise_connectors::EncryptedIdentityCredentialDefaultTypeInternal" zeroinitializer, align 8
@_ZN21enterprise_connectors47_AttestationEnrollmentRequest_default_instance_E = hidden global %"class.enterprise_connectors::AttestationEnrollmentRequestDefaultTypeInternal" zeroinitializer, align 8
@_ZN21enterprise_connectors48_AttestationEnrollmentResponse_default_instance_E = hidden global %"class.enterprise_connectors::AttestationEnrollmentResponseDefaultTypeInternal" zeroinitializer, align 8
@_ZN21enterprise_connectors74_AttestationCertificateRequest_NvramQuotesEntry_DoNotUse_default_instance_E = hidden local_unnamed_addr global %"class.enterprise_connectors::AttestationCertificateRequest_NvramQuotesEntry_DoNotUseDefaultTypeInternal" zeroinitializer, align 8
@_ZN21enterprise_connectors48_AttestationCertificateRequest_default_instance_E = hidden global %"class.enterprise_connectors::AttestationCertificateRequestDefaultTypeInternal" zeroinitializer, align 8
@_ZN21enterprise_connectors49_AttestationCertificateResponse_default_instance_E = hidden global %"class.enterprise_connectors::AttestationCertificateResponseDefaultTypeInternal" zeroinitializer, align 8
@_ZN21enterprise_connectors42_AttestationResetRequest_default_instance_E = hidden global %"class.enterprise_connectors::AttestationResetRequestDefaultTypeInternal" zeroinitializer, align 8
@_ZN21enterprise_connectors43_AttestationResetResponse_default_instance_E = hidden global %"class.enterprise_connectors::AttestationResetResponseDefaultTypeInternal" zeroinitializer, align 8
@_ZN21enterprise_connectors28_Challenge_default_instance_E = hidden global %"class.enterprise_connectors::ChallengeDefaultTypeInternal" zeroinitializer, align 8
@_ZN21enterprise_connectors36_ChallengeResponse_default_instance_E = hidden global %"class.enterprise_connectors::ChallengeResponseDefaultTypeInternal" zeroinitializer, align 8
@_ZN21enterprise_connectors26_KeyInfo_default_instance_E = hidden global %"class.enterprise_connectors::KeyInfoDefaultTypeInternal" zeroinitializer, align 8
@_ZN21enterprise_connectors37_DeviceTrustSignals_default_instance_E = hidden global %"class.enterprise_connectors::DeviceTrustSignalsDefaultTypeInternal" zeroinitializer, align 8
@scc_info_AttestationCertificateRequest_device_5ftrust_5fattestation_5fca_2eproto = hidden global { { { { i32 } }, i32, i32, void ()* }, [1 x i8*] } { { { { i32 } }, i32, i32, void ()* } { { { i32 } } { { i32 } { i32 -1 } }, i32 1, i32 0, void ()* @_ZL92InitDefaultsscc_info_AttestationCertificateRequest_device_5ftrust_5fattestation_5fca_2eprotov }, [1 x i8*] [i8* bitcast ({ { { { i32 } }, i32, i32, void ()* }, [1 x i8*] }* @scc_info_AttestationCertificateRequest_NvramQuotesEntry_DoNotUse_device_5ftrust_5fattestation_5fca_2eproto to i8*)] }, align 8
@scc_info_AttestationCertificateRequest_NvramQuotesEntry_DoNotUse_device_5ftrust_5fattestation_5fca_2eproto = hidden global { { { { i32 } }, i32, i32, void ()* }, [1 x i8*] } { { { { i32 } }, i32, i32, void ()* } { { { i32 } } { { i32 } { i32 -1 } }, i32 1, i32 0, void ()* @_ZL118InitDefaultsscc_info_AttestationCertificateRequest_NvramQuotesEntry_DoNotUse_device_5ftrust_5fattestation_5fca_2eprotov }, [1 x i8*] [i8* bitcast ({ { { { i32 } }, i32, i32, void ()* }, [0 x i8*] }* @scc_info_Quote_device_5ftrust_5fattestation_5fca_2eproto to i8*)] }, align 8
@scc_info_AttestationCertificateResponse_device_5ftrust_5fattestation_5fca_2eproto = hidden global { { { { i32 } }, i32, i32, void ()* }, [0 x i8*] } { { { { i32 } }, i32, i32, void ()* } { { { i32 } } { { i32 } { i32 -1 } }, i32 0, i32 0, void ()* @_ZL93InitDefaultsscc_info_AttestationCertificateResponse_device_5ftrust_5fattestation_5fca_2eprotov }, [0 x i8*] zeroinitializer }, align 8
@scc_info_AttestationEnrollmentRequest_device_5ftrust_5fattestation_5fca_2eproto = hidden global { { { { i32 } }, i32, i32, void ()* }, [2 x i8*] } { { { { i32 } }, i32, i32, void ()* } { { { i32 } } { { i32 } { i32 -1 } }, i32 2, i32 0, void ()* @_ZL91InitDefaultsscc_info_AttestationEnrollmentRequest_device_5ftrust_5fattestation_5fca_2eprotov }, [2 x i8*] [i8* bitcast ({ { { { i32 } }, i32, i32, void ()* }, [0 x i8*] }* @scc_info_EncryptedData_device_5ftrust_5fattestation_5fca_2eproto to i8*), i8* bitcast ({ { { { i32 } }, i32, i32, void ()* }, [0 x i8*] }* @scc_info_Quote_device_5ftrust_5fattestation_5fca_2eproto to i8*)] }, align 8
@scc_info_AttestationEnrollmentResponse_device_5ftrust_5fattestation_5fca_2eproto = hidden global { { { { i32 } }, i32, i32, void ()* }, [1 x i8*] } { { { { i32 } }, i32, i32, void ()* } { { { i32 } } { { i32 } { i32 -1 } }, i32 1, i32 0, void ()* @_ZL92InitDefaultsscc_info_AttestationEnrollmentResponse_device_5ftrust_5fattestation_5fca_2eprotov }, [1 x i8*] [i8* bitcast ({ { { { i32 } }, i32, i32, void ()* }, [1 x i8*] }* @scc_info_EncryptedIdentityCredential_device_5ftrust_5fattestation_5fca_2eproto to i8*)] }, align 8
@scc_info_AttestationResetRequest_device_5ftrust_5fattestation_5fca_2eproto = hidden global { { { { i32 } }, i32, i32, void ()* }, [1 x i8*] } { { { { i32 } }, i32, i32, void ()* } { { { i32 } } { { i32 } { i32 -1 } }, i32 1, i32 0, void ()* @_ZL86InitDefaultsscc_info_AttestationResetRequest_device_5ftrust_5fattestation_5fca_2eprotov }, [1 x i8*] [i8* bitcast ({ { { { i32 } }, i32, i32, void ()* }, [0 x i8*] }* @scc_info_EncryptedData_device_5ftrust_5fattestation_5fca_2eproto to i8*)] }, align 8
@scc_info_AttestationResetResponse_device_5ftrust_5fattestation_5fca_2eproto = hidden global { { { { i32 } }, i32, i32, void ()* }, [0 x i8*] } { { { { i32 } }, i32, i32, void ()* } { { { i32 } } { { i32 } { i32 -1 } }, i32 0, i32 0, void ()* @_ZL87InitDefaultsscc_info_AttestationResetResponse_device_5ftrust_5fattestation_5fca_2eprotov }, [0 x i8*] zeroinitializer }, align 8
@scc_info_Challenge_device_5ftrust_5fattestation_5fca_2eproto = hidden global { { { { i32 } }, i32, i32, void ()* }, [0 x i8*] } { { { { i32 } }, i32, i32, void ()* } { { { i32 } } { { i32 } { i32 -1 } }, i32 0, i32 0, void ()* @_ZL72InitDefaultsscc_info_Challenge_device_5ftrust_5fattestation_5fca_2eprotov }, [0 x i8*] zeroinitializer }, align 8
@scc_info_ChallengeResponse_device_5ftrust_5fattestation_5fca_2eproto = hidden global { { { { i32 } }, i32, i32, void ()* }, [2 x i8*] } { { { { i32 } }, i32, i32, void ()* } { { { i32 } } { { i32 } { i32 -1 } }, i32 2, i32 0, void ()* @_ZL80InitDefaultsscc_info_ChallengeResponse_device_5ftrust_5fattestation_5fca_2eprotov }, [2 x i8*] [i8* bitcast ({ { { { i32 } }, i32, i32, void ()* }, [0 x i8*] }* @scc_info_SignedData_device_5ftrust_5fattestation_5fca_2eproto to i8*), i8* bitcast ({ { { { i32 } }, i32, i32, void ()* }, [0 x i8*] }* @scc_info_EncryptedData_device_5ftrust_5fattestation_5fca_2eproto to i8*)] }, align 8
@scc_info_DeviceTrustSignals_device_5ftrust_5fattestation_5fca_2eproto = hidden global { { { { i32 } }, i32, i32, void ()* }, [0 x i8*] } { { { { i32 } }, i32, i32, void ()* } { { { i32 } } { { i32 } { i32 -1 } }, i32 0, i32 0, void ()* @_ZL81InitDefaultsscc_info_DeviceTrustSignals_device_5ftrust_5fattestation_5fca_2eprotov }, [0 x i8*] zeroinitializer }, align 8
@scc_info_EncryptedData_device_5ftrust_5fattestation_5fca_2eproto = hidden global { { { { i32 } }, i32, i32, void ()* }, [0 x i8*] } { { { { i32 } }, i32, i32, void ()* } { { { i32 } } { { i32 } { i32 -1 } }, i32 0, i32 0, void ()* @_ZL76InitDefaultsscc_info_EncryptedData_device_5ftrust_5fattestation_5fca_2eprotov }, [0 x i8*] zeroinitializer }, align 8
@scc_info_EncryptedIdentityCredential_device_5ftrust_5fattestation_5fca_2eproto = hidden global { { { { i32 } }, i32, i32, void ()* }, [1 x i8*] } { { { { i32 } }, i32, i32, void ()* } { { { i32 } } { { i32 } { i32 -1 } }, i32 1, i32 0, void ()* @_ZL90InitDefaultsscc_info_EncryptedIdentityCredential_device_5ftrust_5fattestation_5fca_2eprotov }, [1 x i8*] [i8* bitcast ({ { { { i32 } }, i32, i32, void ()* }, [0 x i8*] }* @scc_info_EncryptedData_device_5ftrust_5fattestation_5fca_2eproto to i8*)] }, align 8
@scc_info_KeyInfo_device_5ftrust_5fattestation_5fca_2eproto = hidden global { { { { i32 } }, i32, i32, void ()* }, [1 x i8*] } { { { { i32 } }, i32, i32, void ()* } { { { i32 } } { { i32 } { i32 -1 } }, i32 1, i32 0, void ()* @_ZL70InitDefaultsscc_info_KeyInfo_device_5ftrust_5fattestation_5fca_2eprotov }, [1 x i8*] [i8* bitcast ({ { { { i32 } }, i32, i32, void ()* }, [0 x i8*] }* @scc_info_DeviceTrustSignals_device_5ftrust_5fattestation_5fca_2eproto to i8*)] }, align 8
@scc_info_Quote_device_5ftrust_5fattestation_5fca_2eproto = hidden global { { { { i32 } }, i32, i32, void ()* }, [0 x i8*] } { { { { i32 } }, i32, i32, void ()* } { { { i32 } } { { i32 } { i32 -1 } }, i32 0, i32 0, void ()* @_ZL68InitDefaultsscc_info_Quote_device_5ftrust_5fattestation_5fca_2eprotov }, [0 x i8*] zeroinitializer }, align 8
@scc_info_SignedData_device_5ftrust_5fattestation_5fca_2eproto = hidden global { { { { i32 } }, i32, i32, void ()* }, [0 x i8*] } { { { { i32 } }, i32, i32, void ()* } { { { i32 } } { { i32 } { i32 -1 } }, i32 0, i32 0, void ()* @_ZL73InitDefaultsscc_info_SignedData_device_5ftrust_5fattestation_5fca_2eprotov }, [0 x i8*] zeroinitializer }, align 8
@_ZN21enterprise_connectorsL26CertificateProfile_entriesE = internal constant [10 x %"struct.google::protobuf::internal::EnumEntry"] [%"struct.google::protobuf::internal::EnumEntry" <{ %"class.google::protobuf::StringPiece" { i8* getelementptr inbounds ([264 x i8], [264 x i8]* @_ZN21enterprise_connectorsL24CertificateProfile_namesE, i64 0, i64 0), i64 16 }, i32 4, [4 x i8] zeroinitializer }>, %"struct.google::protobuf::internal::EnumEntry" <{ %"class.google::protobuf::StringPiece" { i8* getelementptr inbounds ([264 x i8], [264 x i8]* @_ZN21enterprise_connectorsL24CertificateProfile_namesE, i64 0, i64 16), i64 30 }, i32 2, [4 x i8] zeroinitializer }>, %"struct.google::protobuf::internal::EnumEntry" <{ %"class.google::protobuf::StringPiece" { i8* getelementptr inbounds ([264 x i8], [264 x i8]* @_ZN21enterprise_connectorsL24CertificateProfile_namesE, i64 0, i64 46), i64 45 }, i32 3, [4 x i8] zeroinitializer }>, %"struct.google::protobuf::internal::EnumEntry" <{ %"class.google::protobuf::StringPiece" { i8* getelementptr inbounds ([264 x i8], [264 x i8]* @_ZN21enterprise_connectorsL24CertificateProfile_namesE, i64 0, i64 91), i64 33 }, i32 7, [4 x i8] zeroinitializer }>, %"struct.google::protobuf::internal::EnumEntry" <{ %"class.google::protobuf::StringPiece" { i8* getelementptr inbounds ([264 x i8], [264 x i8]* @_ZN21enterprise_connectorsL24CertificateProfile_namesE, i64 0, i64 124), i64 30 }, i32 0, [4 x i8] zeroinitializer }>, %"struct.google::protobuf::internal::EnumEntry" <{ %"class.google::protobuf::StringPiece" { i8* getelementptr inbounds ([264 x i8], [264 x i8]* @_ZN21enterprise_connectorsL24CertificateProfile_namesE, i64 0, i64 154), i64 27 }, i32 1, [4 x i8] zeroinitializer }>, %"struct.google::protobuf::internal::EnumEntry" <{ %"class.google::protobuf::StringPiece" { i8* getelementptr inbounds ([264 x i8], [264 x i8]* @_ZN21enterprise_connectorsL24CertificateProfile_namesE, i64 0, i64 181), i64 30 }, i32 9, [4 x i8] zeroinitializer }>, %"struct.google::protobuf::internal::EnumEntry" <{ %"class.google::protobuf::StringPiece" { i8* getelementptr inbounds ([264 x i8], [264 x i8]* @_ZN21enterprise_connectorsL24CertificateProfile_namesE, i64 0, i64 211), i64 16 }, i32 5, [4 x i8] zeroinitializer }>, %"struct.google::protobuf::internal::EnumEntry" <{ %"class.google::protobuf::StringPiece" { i8* getelementptr inbounds ([264 x i8], [264 x i8]* @_ZN21enterprise_connectorsL24CertificateProfile_namesE, i64 0, i64 227), i64 21 }, i32 6, [4 x i8] zeroinitializer }>, %"struct.google::protobuf::internal::EnumEntry" <{ %"class.google::protobuf::StringPiece" { i8* getelementptr inbounds ([264 x i8], [264 x i8]* @_ZN21enterprise_connectorsL24CertificateProfile_namesE, i64 0, i64 248), i64 15 }, i32 8, [4 x i8] zeroinitializer }>], align 16
@_ZN21enterprise_connectorsL24CertificateProfile_namesE = internal constant [264 x i8] c"CAST_CERTIFICATECONTENT_PROTECTION_CERTIFICATECONTENT_PROTECTION_CERTIFICATE_WITH_STABLE_IDENTERPRISE_ENROLLMENT_CERTIFICATEENTERPRISE_MACHINE_CERTIFICATEENTERPRISE_USER_CERTIFICATEENTERPRISE_VTPM_EK_CERTIFICATEGFSC_CERTIFICATEJETSTREAM_CERTIFICATEXTS_CERTIFICATE\00", align 16
@_ZZN21enterprise_connectors23CertificateProfile_NameENS_18CertificateProfileEE5dummy = internal global i8 0, align 1
@_ZGVZN21enterprise_connectors23CertificateProfile_NameENS_18CertificateProfileEE5dummy = internal global i64 0, align 8
@_ZN21enterprise_connectorsL36CertificateProfile_entries_by_numberE = internal constant [10 x i32] [i32 4, i32 5, i32 1, i32 2, i32 0, i32 7, i32 8, i32 3, i32 9, i32 6], align 16
@_ZN21enterprise_connectorsL26CertificateProfile_stringsE = internal global [10 x %"class.google::protobuf::internal::ExplicitlyConstructed.18"] zeroinitializer, align 16
@_ZN21enterprise_connectorsL18TpmVersion_entriesE = internal constant [2 x %"struct.google::protobuf::internal::EnumEntry"] [%"struct.google::protobuf::internal::EnumEntry" <{ %"class.google::protobuf::StringPiece" { i8* getelementptr inbounds ([15 x i8], [15 x i8]* @_ZN21enterprise_connectorsL16TpmVersion_namesE, i64 0, i64 0), i64 7 }, i32 1, [4 x i8] zeroinitializer }>, %"struct.google::protobuf::internal::EnumEntry" <{ %"class.google::protobuf::StringPiece" { i8* getelementptr inbounds ([15 x i8], [15 x i8]* @_ZN21enterprise_connectorsL16TpmVersion_namesE, i64 0, i64 7), i64 7 }, i32 2, [4 x i8] zeroinitializer }>], align 16
@_ZN21enterprise_connectorsL16TpmVersion_namesE = internal constant [15 x i8] c"TPM_1_2TPM_2_0\00", align 1
@_ZZN21enterprise_connectors15TpmVersion_NameENS_10TpmVersionEE5dummy = internal global i8 0, align 1
@_ZGVZN21enterprise_connectors15TpmVersion_NameENS_10TpmVersionEE5dummy = internal global i64 0, align 8
@_ZN21enterprise_connectorsL28TpmVersion_entries_by_numberE = internal constant [2 x i32] [i32 0, i32 1], align 4
@_ZN21enterprise_connectorsL18TpmVersion_stringsE = internal global [2 x %"class.google::protobuf::internal::ExplicitlyConstructed.18"] zeroinitializer, align 16
@_ZN21enterprise_connectorsL22NVRAMQuoteType_entriesE = internal constant [4 x %"struct.google::protobuf::internal::EnumEntry"] [%"struct.google::protobuf::internal::EnumEntry" <{ %"class.google::protobuf::StringPiece" { i8* getelementptr inbounds ([44 x i8], [44 x i8]* @_ZN21enterprise_connectorsL20NVRAMQuoteType_namesE, i64 0, i64 0), i64 8 }, i32 0, [4 x i8] zeroinitializer }>, %"struct.google::protobuf::internal::EnumEntry" <{ %"class.google::protobuf::StringPiece" { i8* getelementptr inbounds ([44 x i8], [44 x i8]* @_ZN21enterprise_connectorsL20NVRAMQuoteType_namesE, i64 0, i64 8), i64 15 }, i32 2, [4 x i8] zeroinitializer }>, %"struct.google::protobuf::internal::EnumEntry" <{ %"class.google::protobuf::StringPiece" { i8* getelementptr inbounds ([44 x i8], [44 x i8]* @_ZN21enterprise_connectorsL20NVRAMQuoteType_namesE, i64 0, i64 23), i64 13 }, i32 3, [4 x i8] zeroinitializer }>, %"struct.google::protobuf::internal::EnumEntry" <{ %"class.google::protobuf::StringPiece" { i8* getelementptr inbounds ([44 x i8], [44 x i8]* @_ZN21enterprise_connectorsL20NVRAMQuoteType_namesE, i64 0, i64 36), i64 7 }, i32 1, [4 x i8] zeroinitializer }>], align 16
@_ZN21enterprise_connectorsL20NVRAMQuoteType_namesE = internal constant [44 x i8] c"BOARD_IDRSA_PUB_EK_CERTRSU_DEVICE_IDSN_BITS\00", align 16
@_ZZN21enterprise_connectors19NVRAMQuoteType_NameENS_14NVRAMQuoteTypeEE5dummy = internal global i8 0, align 1
@_ZGVZN21enterprise_connectors19NVRAMQuoteType_NameENS_14NVRAMQuoteTypeEE5dummy = internal global i64 0, align 8
@_ZN21enterprise_connectorsL32NVRAMQuoteType_entries_by_numberE = internal constant [4 x i32] [i32 0, i32 3, i32 1, i32 2], align 16
@_ZN21enterprise_connectorsL22NVRAMQuoteType_stringsE = internal global [4 x %"class.google::protobuf::internal::ExplicitlyConstructed.18"] zeroinitializer, align 16
@_ZN21enterprise_connectorsL22ResponseStatus_entriesE = internal constant [5 x %"struct.google::protobuf::internal::EnumEntry"] [%"struct.google::protobuf::internal::EnumEntry" <{ %"class.google::protobuf::StringPiece" { i8* getelementptr inbounds ([52 x i8], [52 x i8]* @_ZN21enterprise_connectorsL20ResponseStatus_namesE, i64 0, i64 0), i64 11 }, i32 2, [4 x i8] zeroinitializer }>, %"struct.google::protobuf::internal::EnumEntry" <{ %"class.google::protobuf::StringPiece" { i8* getelementptr inbounds ([52 x i8], [52 x i8]* @_ZN21enterprise_connectorsL20ResponseStatus_namesE, i64 0, i64 11), i64 2 }, i32 0, [4 x i8] zeroinitializer }>, %"struct.google::protobuf::internal::EnumEntry" <{ %"class.google::protobuf::StringPiece" { i8* getelementptr inbounds ([52 x i8], [52 x i8]* @_ZN21enterprise_connectorsL20ResponseStatus_namesE, i64 0, i64 13), i64 20 }, i32 4, [4 x i8] zeroinitializer }>, %"struct.google::protobuf::internal::EnumEntry" <{ %"class.google::protobuf::StringPiece" { i8* getelementptr inbounds ([52 x i8], [52 x i8]* @_ZN21enterprise_connectorsL20ResponseStatus_namesE, i64 0, i64 33), i64 6 }, i32 3, [4 x i8] zeroinitializer }>, %"struct.google::protobuf::internal::EnumEntry" <{ %"class.google::protobuf::StringPiece" { i8* getelementptr inbounds ([52 x i8], [52 x i8]* @_ZN21enterprise_connectorsL20ResponseStatus_namesE, i64 0, i64 39), i64 12 }, i32 1, [4 x i8] zeroinitializer }>], align 16
@_ZN21enterprise_connectorsL20ResponseStatus_namesE = internal constant [52 x i8] c"BAD_REQUESTOKQUOTA_LIMIT_EXCEEDEDREJECTSERVER_ERROR\00", align 16
@_ZZN21enterprise_connectors19ResponseStatus_NameENS_14ResponseStatusEE5dummy = internal global i8 0, align 1
@_ZGVZN21enterprise_connectors19ResponseStatus_NameENS_14ResponseStatusEE5dummy = internal global i64 0, align 8
@_ZN21enterprise_connectorsL32ResponseStatus_entries_by_numberE = internal constant [5 x i32] [i32 1, i32 4, i32 0, i32 3, i32 2], align 16
@_ZN21enterprise_connectorsL22ResponseStatus_stringsE = internal global [5 x %"class.google::protobuf::internal::ExplicitlyConstructed.18"] zeroinitializer, align 16
@_ZN21enterprise_connectorsL18KeyProfile_entriesE = internal constant [3 x %"struct.google::protobuf::internal::EnumEntry"] [%"struct.google::protobuf::internal::EnumEntry" <{ %"class.google::protobuf::StringPiece" { i8* getelementptr inbounds ([11 x i8], [11 x i8]* @_ZN21enterprise_connectorsL16KeyProfile_namesE, i64 0, i64 0), i64 4 }, i32 2, [4 x i8] zeroinitializer }>, %"struct.google::protobuf::internal::EnumEntry" <{ %"class.google::protobuf::StringPiece" { i8* getelementptr inbounds ([11 x i8], [11 x i8]* @_ZN21enterprise_connectorsL16KeyProfile_namesE, i64 0, i64 4), i64 3 }, i32 0, [4 x i8] zeroinitializer }>, %"struct.google::protobuf::internal::EnumEntry" <{ %"class.google::protobuf::StringPiece" { i8* getelementptr inbounds ([11 x i8], [11 x i8]* @_ZN21enterprise_connectorsL16KeyProfile_namesE, i64 0, i64 7), i64 3 }, i32 1, [4 x i8] zeroinitializer }>], align 16
@_ZN21enterprise_connectorsL16KeyProfile_namesE = internal constant [11 x i8] c"CBCMEMKEUK\00", align 1
@_ZZN21enterprise_connectors15KeyProfile_NameENS_10KeyProfileEE5dummy = internal global i8 0, align 1
@_ZGVZN21enterprise_connectors15KeyProfile_NameENS_10KeyProfileEE5dummy = internal global i64 0, align 8
@_ZN21enterprise_connectorsL28KeyProfile_entries_by_numberE = internal constant [3 x i32] [i32 1, i32 2, i32 0], align 4
@_ZN21enterprise_connectorsL18KeyProfile_stringsE = internal global [3 x %"class.google::protobuf::internal::ExplicitlyConstructed.18"] zeroinitializer, align 16
@_ZTVN21enterprise_connectors5QuoteE = hidden unnamed_addr constant { [16 x i8*] } { [16 x i8*] [i8* null, i8* null, i8* bitcast (void (%"class.enterprise_connectors::Quote"*)* @_ZN21enterprise_connectors5QuoteD2Ev to i8*), i8* bitcast (void (%"class.enterprise_connectors::Quote"*)* @_ZN21enterprise_connectors5QuoteD0Ev to i8*), i8* bitcast (void (%"class.std::__1::basic_string"*, %"class.enterprise_connectors::Quote"*)* @_ZNK21enterprise_connectors5Quote11GetTypeNameEv to i8*), i8* bitcast (%"class.enterprise_connectors::Quote"* (%"class.enterprise_connectors::Quote"*)* @_ZNK21enterprise_connectors5Quote3NewEv to i8*), i8* bitcast (%"class.enterprise_connectors::Quote"* (%"class.enterprise_connectors::Quote"*, %"class.google::protobuf::Arena"*)* @_ZNK21enterprise_connectors5Quote3NewEPN6google8protobuf5ArenaE to i8*), i8* bitcast (void (%"class.enterprise_connectors::Quote"*)* @_ZN21enterprise_connectors5Quote5ClearEv to i8*), i8* bitcast (i1 (%"class.enterprise_connectors::Quote"*)* @_ZNK21enterprise_connectors5Quote13IsInitializedEv to i8*), i8* bitcast (void (%"class.std::__1::basic_string"*, %"class.google::protobuf::MessageLite"*)* @_ZNK6google8protobuf11MessageLite25InitializationErrorStringEv to i8*), i8* bitcast (void (%"class.enterprise_connectors::Quote"*, %"class.google::protobuf::MessageLite"*)* @_ZN21enterprise_connectors5Quote21CheckTypeAndMergeFromERKN6google8protobuf11MessageLiteE to i8*), i8* bitcast (i64 (%"class.enterprise_connectors::Quote"*)* @_ZNK21enterprise_connectors5Quote12ByteSizeLongEv to i8*), i8* bitcast (i32 (%"class.enterprise_connectors::Quote"*)* @_ZNK21enterprise_connectors5Quote13GetCachedSizeEv to i8*), i8* bitcast (i8* (%"class.enterprise_connectors::Quote"*, i8*, %"class.google::protobuf::internal::ParseContext"*)* @_ZN21enterprise_connectors5Quote14_InternalParseEPKcPN6google8protobuf8internal12ParseContextE to i8*), i8* bitcast (i8* (%"class.enterprise_connectors::Quote"*, i8*, %"class.google::protobuf::io::EpsCopyOutputStream"*)* @_ZNK21enterprise_connectors5Quote18_InternalSerializeEPhPN6google8protobuf2io19EpsCopyOutputStreamE to i8*), i8* bitcast (i8* (%"class.google::protobuf::MessageLite"*)* @_ZNK6google8protobuf11MessageLite16InternalGetTableEv to i8*)] }, align 8
@.str = private unnamed_addr constant [88 x i8] c"gen/chrome/browser/enterprise/connectors/device_trust/device_trust_attestation_ca.pb.cc\00", align 1
@.str.11 = private unnamed_addr constant [28 x i8] c"enterprise_connectors.Quote\00", align 1
@_ZTVN21enterprise_connectors13EncryptedDataE = hidden unnamed_addr constant { [16 x i8*] } { [16 x i8*] [i8* null, i8* null, i8* bitcast (void (%"class.enterprise_connectors::EncryptedData"*)* @_ZN21enterprise_connectors13EncryptedDataD2Ev to i8*), i8* bitcast (void (%"class.enterprise_connectors::EncryptedData"*)* @_ZN21enterprise_connectors13EncryptedDataD0Ev to i8*), i8* bitcast (void (%"class.std::__1::basic_string"*, %"class.enterprise_connectors::EncryptedData"*)* @_ZNK21enterprise_connectors13EncryptedData11GetTypeNameEv to i8*), i8* bitcast (%"class.enterprise_connectors::EncryptedData"* (%"class.enterprise_connectors::EncryptedData"*)* @_ZNK21enterprise_connectors13EncryptedData3NewEv to i8*), i8* bitcast (%"class.enterprise_connectors::EncryptedData"* (%"class.enterprise_connectors::EncryptedData"*, %"class.google::protobuf::Arena"*)* @_ZNK21enterprise_connectors13EncryptedData3NewEPN6google8protobuf5ArenaE to i8*), i8* bitcast (void (%"class.enterprise_connectors::EncryptedData"*)* @_ZN21enterprise_connectors13EncryptedData5ClearEv to i8*), i8* bitcast (i1 (%"class.enterprise_connectors::EncryptedData"*)* @_ZNK21enterprise_connectors13EncryptedData13IsInitializedEv to i8*), i8* bitcast (void (%"class.std::__1::basic_string"*, %"class.google::protobuf::MessageLite"*)* @_ZNK6google8protobuf11MessageLite25InitializationErrorStringEv to i8*), i8* bitcast (void (%"class.enterprise_connectors::EncryptedData"*, %"class.google::protobuf::MessageLite"*)* @_ZN21enterprise_connectors13EncryptedData21CheckTypeAndMergeFromERKN6google8protobuf11MessageLiteE to i8*), i8* bitcast (i64 (%"class.enterprise_connectors::EncryptedData"*)* @_ZNK21enterprise_connectors13EncryptedData12ByteSizeLongEv to i8*), i8* bitcast (i32 (%"class.enterprise_connectors::EncryptedData"*)* @_ZNK21enterprise_connectors13EncryptedData13GetCachedSizeEv to i8*), i8* bitcast (i8* (%"class.enterprise_connectors::EncryptedData"*, i8*, %"class.google::protobuf::internal::ParseContext"*)* @_ZN21enterprise_connectors13EncryptedData14_InternalParseEPKcPN6google8protobuf8internal12ParseContextE to i8*), i8* bitcast (i8* (%"class.enterprise_connectors::EncryptedData"*, i8*, %"class.google::protobuf::io::EpsCopyOutputStream"*)* @_ZNK21enterprise_connectors13EncryptedData18_InternalSerializeEPhPN6google8protobuf2io19EpsCopyOutputStreamE to i8*), i8* bitcast (i8* (%"class.google::protobuf::MessageLite"*)* @_ZNK6google8protobuf11MessageLite16InternalGetTableEv to i8*)] }, align 8
@.str.12 = private unnamed_addr constant [36 x i8] c"enterprise_connectors.EncryptedData\00", align 1
@_ZTVN21enterprise_connectors10SignedDataE = hidden unnamed_addr constant { [16 x i8*] } { [16 x i8*] [i8* null, i8* null, i8* bitcast (void (%"class.enterprise_connectors::SignedData"*)* @_ZN21enterprise_connectors10SignedDataD2Ev to i8*), i8* bitcast (void (%"class.enterprise_connectors::SignedData"*)* @_ZN21enterprise_connectors10SignedDataD0Ev to i8*), i8* bitcast (void (%"class.std::__1::basic_string"*, %"class.enterprise_connectors::SignedData"*)* @_ZNK21enterprise_connectors10SignedData11GetTypeNameEv to i8*), i8* bitcast (%"class.enterprise_connectors::SignedData"* (%"class.enterprise_connectors::SignedData"*)* @_ZNK21enterprise_connectors10SignedData3NewEv to i8*), i8* bitcast (%"class.enterprise_connectors::SignedData"* (%"class.enterprise_connectors::SignedData"*, %"class.google::protobuf::Arena"*)* @_ZNK21enterprise_connectors10SignedData3NewEPN6google8protobuf5ArenaE to i8*), i8* bitcast (void (%"class.enterprise_connectors::SignedData"*)* @_ZN21enterprise_connectors10SignedData5ClearEv to i8*), i8* bitcast (i1 (%"class.enterprise_connectors::SignedData"*)* @_ZNK21enterprise_connectors10SignedData13IsInitializedEv to i8*), i8* bitcast (void (%"class.std::__1::basic_string"*, %"class.google::protobuf::MessageLite"*)* @_ZNK6google8protobuf11MessageLite25InitializationErrorStringEv to i8*), i8* bitcast (void (%"class.enterprise_connectors::SignedData"*, %"class.google::protobuf::MessageLite"*)* @_ZN21enterprise_connectors10SignedData21CheckTypeAndMergeFromERKN6google8protobuf11MessageLiteE to i8*), i8* bitcast (i64 (%"class.enterprise_connectors::SignedData"*)* @_ZNK21enterprise_connectors10SignedData12ByteSizeLongEv to i8*), i8* bitcast (i32 (%"class.enterprise_connectors::SignedData"*)* @_ZNK21enterprise_connectors10SignedData13GetCachedSizeEv to i8*), i8* bitcast (i8* (%"class.enterprise_connectors::SignedData"*, i8*, %"class.google::protobuf::internal::ParseContext"*)* @_ZN21enterprise_connectors10SignedData14_InternalParseEPKcPN6google8protobuf8internal12ParseContextE to i8*), i8* bitcast (i8* (%"class.enterprise_connectors::SignedData"*, i8*, %"class.google::protobuf::io::EpsCopyOutputStream"*)* @_ZNK21enterprise_connectors10SignedData18_InternalSerializeEPhPN6google8protobuf2io19EpsCopyOutputStreamE to i8*), i8* bitcast (i8* (%"class.google::protobuf::MessageLite"*)* @_ZNK6google8protobuf11MessageLite16InternalGetTableEv to i8*)] }, align 8
@.str.13 = private unnamed_addr constant [33 x i8] c"enterprise_connectors.SignedData\00", align 1
@_ZTVN21enterprise_connectors27EncryptedIdentityCredentialE = hidden unnamed_addr constant { [16 x i8*] } { [16 x i8*] [i8* null, i8* null, i8* bitcast (void (%"class.enterprise_connectors::EncryptedIdentityCredential"*)* @_ZN21enterprise_connectors27EncryptedIdentityCredentialD2Ev to i8*), i8* bitcast (void (%"class.enterprise_connectors::EncryptedIdentityCredential"*)* @_ZN21enterprise_connectors27EncryptedIdentityCredentialD0Ev to i8*), i8* bitcast (void (%"class.std::__1::basic_string"*, %"class.enterprise_connectors::EncryptedIdentityCredential"*)* @_ZNK21enterprise_connectors27EncryptedIdentityCredential11GetTypeNameEv to i8*), i8* bitcast (%"class.enterprise_connectors::EncryptedIdentityCredential"* (%"class.enterprise_connectors::EncryptedIdentityCredential"*)* @_ZNK21enterprise_connectors27EncryptedIdentityCredential3NewEv to i8*), i8* bitcast (%"class.enterprise_connectors::EncryptedIdentityCredential"* (%"class.enterprise_connectors::EncryptedIdentityCredential"*, %"class.google::protobuf::Arena"*)* @_ZNK21enterprise_connectors27EncryptedIdentityCredential3NewEPN6google8protobuf5ArenaE to i8*), i8* bitcast (void (%"class.enterprise_connectors::EncryptedIdentityCredential"*)* @_ZN21enterprise_connectors27EncryptedIdentityCredential5ClearEv to i8*), i8* bitcast (i1 (%"class.enterprise_connectors::EncryptedIdentityCredential"*)* @_ZNK21enterprise_connectors27EncryptedIdentityCredential13IsInitializedEv to i8*), i8* bitcast (void (%"class.std::__1::basic_string"*, %"class.google::protobuf::MessageLite"*)* @_ZNK6google8protobuf11MessageLite25InitializationErrorStringEv to i8*), i8* bitcast (void (%"class.enterprise_connectors::EncryptedIdentityCredential"*, %"class.google::protobuf::MessageLite"*)* @_ZN21enterprise_connectors27EncryptedIdentityCredential21CheckTypeAndMergeFromERKN6google8protobuf11MessageLiteE to i8*), i8* bitcast (i64 (%"class.enterprise_connectors::EncryptedIdentityCredential"*)* @_ZNK21enterprise_connectors27EncryptedIdentityCredential12ByteSizeLongEv to i8*), i8* bitcast (i32 (%"class.enterprise_connectors::EncryptedIdentityCredential"*)* @_ZNK21enterprise_connectors27EncryptedIdentityCredential13GetCachedSizeEv to i8*), i8* bitcast (i8* (%"class.enterprise_connectors::EncryptedIdentityCredential"*, i8*, %"class.google::protobuf::internal::ParseContext"*)* @_ZN21enterprise_connectors27EncryptedIdentityCredential14_InternalParseEPKcPN6google8protobuf8internal12ParseContextE to i8*), i8* bitcast (i8* (%"class.enterprise_connectors::EncryptedIdentityCredential"*, i8*, %"class.google::protobuf::io::EpsCopyOutputStream"*)* @_ZNK21enterprise_connectors27EncryptedIdentityCredential18_InternalSerializeEPhPN6google8protobuf2io19EpsCopyOutputStreamE to i8*), i8* bitcast (i8* (%"class.google::protobuf::MessageLite"*)* @_ZNK6google8protobuf11MessageLite16InternalGetTableEv to i8*)] }, align 8
@.str.15 = private unnamed_addr constant [50 x i8] c"enterprise_connectors.EncryptedIdentityCredential\00", align 1
@_ZTVN21enterprise_connectors28AttestationEnrollmentRequestE = hidden unnamed_addr constant { [16 x i8*] } { [16 x i8*] [i8* null, i8* null, i8* bitcast (void (%"class.enterprise_connectors::AttestationEnrollmentRequest"*)* @_ZN21enterprise_connectors28AttestationEnrollmentRequestD2Ev to i8*), i8* bitcast (void (%"class.enterprise_connectors::AttestationEnrollmentRequest"*)* @_ZN21enterprise_connectors28AttestationEnrollmentRequestD0Ev to i8*), i8* bitcast (void (%"class.std::__1::basic_string"*, %"class.enterprise_connectors::AttestationEnrollmentRequest"*)* @_ZNK21enterprise_connectors28AttestationEnrollmentRequest11GetTypeNameEv to i8*), i8* bitcast (%"class.enterprise_connectors::AttestationEnrollmentRequest"* (%"class.enterprise_connectors::AttestationEnrollmentRequest"*)* @_ZNK21enterprise_connectors28AttestationEnrollmentRequest3NewEv to i8*), i8* bitcast (%"class.enterprise_connectors::AttestationEnrollmentRequest"* (%"class.enterprise_connectors::AttestationEnrollmentRequest"*, %"class.google::protobuf::Arena"*)* @_ZNK21enterprise_connectors28AttestationEnrollmentRequest3NewEPN6google8protobuf5ArenaE to i8*), i8* bitcast (void (%"class.enterprise_connectors::AttestationEnrollmentRequest"*)* @_ZN21enterprise_connectors28AttestationEnrollmentRequest5ClearEv to i8*), i8* bitcast (i1 (%"class.enterprise_connectors::AttestationEnrollmentRequest"*)* @_ZNK21enterprise_connectors28AttestationEnrollmentRequest13IsInitializedEv to i8*), i8* bitcast (void (%"class.std::__1::basic_string"*, %"class.google::protobuf::MessageLite"*)* @_ZNK6google8protobuf11MessageLite25InitializationErrorStringEv to i8*), i8* bitcast (void (%"class.enterprise_connectors::AttestationEnrollmentRequest"*, %"class.google::protobuf::MessageLite"*)* @_ZN21enterprise_connectors28AttestationEnrollmentRequest21CheckTypeAndMergeFromERKN6google8protobuf11MessageLiteE to i8*), i8* bitcast (i64 (%"class.enterprise_connectors::AttestationEnrollmentRequest"*)* @_ZNK21enterprise_connectors28AttestationEnrollmentRequest12ByteSizeLongEv to i8*), i8* bitcast (i32 (%"class.enterprise_connectors::AttestationEnrollmentRequest"*)* @_ZNK21enterprise_connectors28AttestationEnrollmentRequest13GetCachedSizeEv to i8*), i8* bitcast (i8* (%"class.enterprise_connectors::AttestationEnrollmentRequest"*, i8*, %"class.google::protobuf::internal::ParseContext"*)* @_ZN21enterprise_connectors28AttestationEnrollmentRequest14_InternalParseEPKcPN6google8protobuf8internal12ParseContextE to i8*), i8* bitcast (i8* (%"class.enterprise_connectors::AttestationEnrollmentRequest"*, i8*, %"class.google::protobuf::io::EpsCopyOutputStream"*)* @_ZNK21enterprise_connectors28AttestationEnrollmentRequest18_InternalSerializeEPhPN6google8protobuf2io19EpsCopyOutputStreamE to i8*), i8* bitcast (i8* (%"class.google::protobuf::MessageLite"*)* @_ZNK6google8protobuf11MessageLite16InternalGetTableEv to i8*)] }, align 8
@.str.20 = private unnamed_addr constant [51 x i8] c"enterprise_connectors.AttestationEnrollmentRequest\00", align 1
@_ZTVN21enterprise_connectors29AttestationEnrollmentResponseE = hidden unnamed_addr constant { [16 x i8*] } { [16 x i8*] [i8* null, i8* null, i8* bitcast (void (%"class.enterprise_connectors::AttestationEnrollmentResponse"*)* @_ZN21enterprise_connectors29AttestationEnrollmentResponseD2Ev to i8*), i8* bitcast (void (%"class.enterprise_connectors::AttestationEnrollmentResponse"*)* @_ZN21enterprise_connectors29AttestationEnrollmentResponseD0Ev to i8*), i8* bitcast (void (%"class.std::__1::basic_string"*, %"class.enterprise_connectors::AttestationEnrollmentResponse"*)* @_ZNK21enterprise_connectors29AttestationEnrollmentResponse11GetTypeNameEv to i8*), i8* bitcast (%"class.enterprise_connectors::AttestationEnrollmentResponse"* (%"class.enterprise_connectors::AttestationEnrollmentResponse"*)* @_ZNK21enterprise_connectors29AttestationEnrollmentResponse3NewEv to i8*), i8* bitcast (%"class.enterprise_connectors::AttestationEnrollmentResponse"* (%"class.enterprise_connectors::AttestationEnrollmentResponse"*, %"class.google::protobuf::Arena"*)* @_ZNK21enterprise_connectors29AttestationEnrollmentResponse3NewEPN6google8protobuf5ArenaE to i8*), i8* bitcast (void (%"class.enterprise_connectors::AttestationEnrollmentResponse"*)* @_ZN21enterprise_connectors29AttestationEnrollmentResponse5ClearEv to i8*), i8* bitcast (i1 (%"class.enterprise_connectors::AttestationEnrollmentResponse"*)* @_ZNK21enterprise_connectors29AttestationEnrollmentResponse13IsInitializedEv to i8*), i8* bitcast (void (%"class.std::__1::basic_string"*, %"class.google::protobuf::MessageLite"*)* @_ZNK6google8protobuf11MessageLite25InitializationErrorStringEv to i8*), i8* bitcast (void (%"class.enterprise_connectors::AttestationEnrollmentResponse"*, %"class.google::protobuf::MessageLite"*)* @_ZN21enterprise_connectors29AttestationEnrollmentResponse21CheckTypeAndMergeFromERKN6google8protobuf11MessageLiteE to i8*), i8* bitcast (i64 (%"class.enterprise_connectors::AttestationEnrollmentResponse"*)* @_ZNK21enterprise_connectors29AttestationEnrollmentResponse12ByteSizeLongEv to i8*), i8* bitcast (i32 (%"class.enterprise_connectors::AttestationEnrollmentResponse"*)* @_ZNK21enterprise_connectors29AttestationEnrollmentResponse13GetCachedSizeEv to i8*), i8* bitcast (i8* (%"class.enterprise_connectors::AttestationEnrollmentResponse"*, i8*, %"class.google::protobuf::internal::ParseContext"*)* @_ZN21enterprise_connectors29AttestationEnrollmentResponse14_InternalParseEPKcPN6google8protobuf8internal12ParseContextE to i8*), i8* bitcast (i8* (%"class.enterprise_connectors::AttestationEnrollmentResponse"*, i8*, %"class.google::protobuf::io::EpsCopyOutputStream"*)* @_ZNK21enterprise_connectors29AttestationEnrollmentResponse18_InternalSerializeEPhPN6google8protobuf2io19EpsCopyOutputStreamE to i8*), i8* bitcast (i8* (%"class.google::protobuf::MessageLite"*)* @_ZNK6google8protobuf11MessageLite16InternalGetTableEv to i8*)] }, align 8
@.str.22 = private unnamed_addr constant [52 x i8] c"enterprise_connectors.AttestationEnrollmentResponse\00", align 1
@_ZTVN21enterprise_connectors55AttestationCertificateRequest_NvramQuotesEntry_DoNotUseE = linkonce_odr hidden unnamed_addr constant { [18 x i8*] } { [18 x i8*] [i8* null, i8* null, i8* bitcast (void (%"class.google::protobuf::internal::MapEntryLite"*)* @_ZN6google8protobuf8internal12MapEntryLiteIN21enterprise_connectors55AttestationCertificateRequest_NvramQuotesEntry_DoNotUseEiNS3_5QuoteELNS1_14WireFormatLite9FieldTypeE5ELS7_11EED2Ev to i8*), i8* bitcast (void (%"class.enterprise_connectors::AttestationCertificateRequest_NvramQuotesEntry_DoNotUse"*)* @_ZN21enterprise_connectors55AttestationCertificateRequest_NvramQuotesEntry_DoNotUseD0Ev to i8*), i8* bitcast (void (%"class.std::__1::basic_string"*, %"class.google::protobuf::internal::MapEntryImpl"*)* @_ZNK6google8protobuf8internal12MapEntryImplIN21enterprise_connectors55AttestationCertificateRequest_NvramQuotesEntry_DoNotUseENS0_11MessageLiteEiNS3_5QuoteELNS1_14WireFormatLite9FieldTypeE5ELS8_11EE11GetTypeNameEv to i8*), i8* bitcast (%"class.google::protobuf::MessageLite"* (%"class.google::protobuf::internal::MapEntryImpl"*)* @_ZNK6google8protobuf8internal12MapEntryImplIN21enterprise_connectors55AttestationCertificateRequest_NvramQuotesEntry_DoNotUseENS0_11MessageLiteEiNS3_5QuoteELNS1_14WireFormatLite9FieldTypeE5ELS8_11EE3NewEv to i8*), i8* bitcast (%"class.google::protobuf::MessageLite"* (%"class.google::protobuf::internal::MapEntryImpl"*, %"class.google::protobuf::Arena"*)* @_ZNK6google8protobuf8internal12MapEntryImplIN21enterprise_connectors55AttestationCertificateRequest_NvramQuotesEntry_DoNotUseENS0_11MessageLiteEiNS3_5QuoteELNS1_14WireFormatLite9FieldTypeE5ELS8_11EE3NewEPNS0_5ArenaE to i8*), i8* bitcast (void (%"class.google::protobuf::internal::MapEntryImpl"*)* @_ZN6google8protobuf8internal12MapEntryImplIN21enterprise_connectors55AttestationCertificateRequest_NvramQuotesEntry_DoNotUseENS0_11MessageLiteEiNS3_5QuoteELNS1_14WireFormatLite9FieldTypeE5ELS8_11EE5ClearEv to i8*), i8* bitcast (i1 (%"class.google::protobuf::internal::MapEntryImpl"*)* @_ZNK6google8protobuf8internal12MapEntryImplIN21enterprise_connectors55AttestationCertificateRequest_NvramQuotesEntry_DoNotUseENS0_11MessageLiteEiNS3_5QuoteELNS1_14WireFormatLite9FieldTypeE5ELS8_11EE13IsInitializedEv to i8*), i8* bitcast (void (%"class.std::__1::basic_string"*, %"class.google::protobuf::MessageLite"*)* @_ZNK6google8protobuf11MessageLite25InitializationErrorStringEv to i8*), i8* bitcast (void (%"class.google::protobuf::internal::MapEntryImpl"*, %"class.google::protobuf::MessageLite"*)* @_ZN6google8protobuf8internal12MapEntryImplIN21enterprise_connectors55AttestationCertificateRequest_NvramQuotesEntry_DoNotUseENS0_11MessageLiteEiNS3_5QuoteELNS1_14WireFormatLite9FieldTypeE5ELS8_11EE21CheckTypeAndMergeFromERKS5_ to i8*), i8* bitcast (i64 (%"class.google::protobuf::internal::MapEntryImpl"*)* @_ZNK6google8protobuf8internal12MapEntryImplIN21enterprise_connectors55AttestationCertificateRequest_NvramQuotesEntry_DoNotUseENS0_11MessageLiteEiNS3_5QuoteELNS1_14WireFormatLite9FieldTypeE5ELS8_11EE12ByteSizeLongEv to i8*), i8* bitcast (i32 (%"class.google::protobuf::internal::MapEntryImpl"*)* @_ZNK6google8protobuf8internal12MapEntryImplIN21enterprise_connectors55AttestationCertificateRequest_NvramQuotesEntry_DoNotUseENS0_11MessageLiteEiNS3_5QuoteELNS1_14WireFormatLite9FieldTypeE5ELS8_11EE13GetCachedSizeEv to i8*), i8* bitcast (i8* (%"class.google::protobuf::internal::MapEntryImpl"*, i8*, %"class.google::protobuf::internal::ParseContext"*)* @_ZN6google8protobuf8internal12MapEntryImplIN21enterprise_connectors55AttestationCertificateRequest_NvramQuotesEntry_DoNotUseENS0_11MessageLiteEiNS3_5QuoteELNS1_14WireFormatLite9FieldTypeE5ELS8_11EE14_InternalParseEPKcPNS1_12ParseContextE to i8*), i8* bitcast (i8* (%"class.google::protobuf::internal::MapEntryImpl"*, i8*, %"class.google::protobuf::io::EpsCopyOutputStream"*)* @_ZNK6google8protobuf8internal12MapEntryImplIN21enterprise_connectors55AttestationCertificateRequest_NvramQuotesEntry_DoNotUseENS0_11MessageLiteEiNS3_5QuoteELNS1_14WireFormatLite9FieldTypeE5ELS8_11EE18_InternalSerializeEPhPNS0_2io19EpsCopyOutputStreamE to i8*), i8* bitcast (i8* (%"class.google::protobuf::MessageLite"*)* @_ZNK6google8protobuf11MessageLite16InternalGetTableEv to i8*), i8* bitcast (i32* (%"class.google::protobuf::internal::MapEntryImpl"*)* @_ZNK6google8protobuf8internal12MapEntryImplIN21enterprise_connectors55AttestationCertificateRequest_NvramQuotesEntry_DoNotUseENS0_11MessageLiteEiNS3_5QuoteELNS1_14WireFormatLite9FieldTypeE5ELS8_11EE3keyEv to i8*), i8* bitcast (%"class.enterprise_connectors::Quote"* (%"class.google::protobuf::internal::MapEntryImpl"*)* @_ZNK6google8protobuf8internal12MapEntryImplIN21enterprise_connectors55AttestationCertificateRequest_NvramQuotesEntry_DoNotUseENS0_11MessageLiteEiNS3_5QuoteELNS1_14WireFormatLite9FieldTypeE5ELS8_11EE5valueEv to i8*)] }, comdat, align 8
@_ZTVN21enterprise_connectors29AttestationCertificateRequestE = hidden unnamed_addr constant { [16 x i8*] } { [16 x i8*] [i8* null, i8* null, i8* bitcast (void (%"class.enterprise_connectors::AttestationCertificateRequest"*)* @_ZN21enterprise_connectors29AttestationCertificateRequestD2Ev to i8*), i8* bitcast (void (%"class.enterprise_connectors::AttestationCertificateRequest"*)* @_ZN21enterprise_connectors29AttestationCertificateRequestD0Ev to i8*), i8* bitcast (void (%"class.std::__1::basic_string"*, %"class.enterprise_connectors::AttestationCertificateRequest"*)* @_ZNK21enterprise_connectors29AttestationCertificateRequest11GetTypeNameEv to i8*), i8* bitcast (%"class.enterprise_connectors::AttestationCertificateRequest"* (%"class.enterprise_connectors::AttestationCertificateRequest"*)* @_ZNK21enterprise_connectors29AttestationCertificateRequest3NewEv to i8*), i8* bitcast (%"class.enterprise_connectors::AttestationCertificateRequest"* (%"class.enterprise_connectors::AttestationCertificateRequest"*, %"class.google::protobuf::Arena"*)* @_ZNK21enterprise_connectors29AttestationCertificateRequest3NewEPN6google8protobuf5ArenaE to i8*), i8* bitcast (void (%"class.enterprise_connectors::AttestationCertificateRequest"*)* @_ZN21enterprise_connectors29AttestationCertificateRequest5ClearEv to i8*), i8* bitcast (i1 (%"class.enterprise_connectors::AttestationCertificateRequest"*)* @_ZNK21enterprise_connectors29AttestationCertificateRequest13IsInitializedEv to i8*), i8* bitcast (void (%"class.std::__1::basic_string"*, %"class.google::protobuf::MessageLite"*)* @_ZNK6google8protobuf11MessageLite25InitializationErrorStringEv to i8*), i8* bitcast (void (%"class.enterprise_connectors::AttestationCertificateRequest"*, %"class.google::protobuf::MessageLite"*)* @_ZN21enterprise_connectors29AttestationCertificateRequest21CheckTypeAndMergeFromERKN6google8protobuf11MessageLiteE to i8*), i8* bitcast (i64 (%"class.enterprise_connectors::AttestationCertificateRequest"*)* @_ZNK21enterprise_connectors29AttestationCertificateRequest12ByteSizeLongEv to i8*), i8* bitcast (i32 (%"class.enterprise_connectors::AttestationCertificateRequest"*)* @_ZNK21enterprise_connectors29AttestationCertificateRequest13GetCachedSizeEv to i8*), i8* bitcast (i8* (%"class.enterprise_connectors::AttestationCertificateRequest"*, i8*, %"class.google::protobuf::internal::ParseContext"*)* @_ZN21enterprise_connectors29AttestationCertificateRequest14_InternalParseEPKcPN6google8protobuf8internal12ParseContextE to i8*), i8* bitcast (i8* (%"class.enterprise_connectors::AttestationCertificateRequest"*, i8*, %"class.google::protobuf::io::EpsCopyOutputStream"*)* @_ZNK21enterprise_connectors29AttestationCertificateRequest18_InternalSerializeEPhPN6google8protobuf2io19EpsCopyOutputStreamE to i8*), i8* bitcast (i8* (%"class.google::protobuf::MessageLite"*)* @_ZNK6google8protobuf11MessageLite16InternalGetTableEv to i8*)] }, align 8
@.str.23 = private unnamed_addr constant [52 x i8] c"enterprise_connectors.AttestationCertificateRequest\00", align 1
@_ZTVN21enterprise_connectors30AttestationCertificateResponseE = hidden unnamed_addr constant { [16 x i8*] } { [16 x i8*] [i8* null, i8* null, i8* bitcast (void (%"class.enterprise_connectors::AttestationCertificateResponse"*)* @_ZN21enterprise_connectors30AttestationCertificateResponseD2Ev to i8*), i8* bitcast (void (%"class.enterprise_connectors::AttestationCertificateResponse"*)* @_ZN21enterprise_connectors30AttestationCertificateResponseD0Ev to i8*), i8* bitcast (void (%"class.std::__1::basic_string"*, %"class.enterprise_connectors::AttestationCertificateResponse"*)* @_ZNK21enterprise_connectors30AttestationCertificateResponse11GetTypeNameEv to i8*), i8* bitcast (%"class.enterprise_connectors::AttestationCertificateResponse"* (%"class.enterprise_connectors::AttestationCertificateResponse"*)* @_ZNK21enterprise_connectors30AttestationCertificateResponse3NewEv to i8*), i8* bitcast (%"class.enterprise_connectors::AttestationCertificateResponse"* (%"class.enterprise_connectors::AttestationCertificateResponse"*, %"class.google::protobuf::Arena"*)* @_ZNK21enterprise_connectors30AttestationCertificateResponse3NewEPN6google8protobuf5ArenaE to i8*), i8* bitcast (void (%"class.enterprise_connectors::AttestationCertificateResponse"*)* @_ZN21enterprise_connectors30AttestationCertificateResponse5ClearEv to i8*), i8* bitcast (i1 (%"class.enterprise_connectors::AttestationCertificateResponse"*)* @_ZNK21enterprise_connectors30AttestationCertificateResponse13IsInitializedEv to i8*), i8* bitcast (void (%"class.std::__1::basic_string"*, %"class.google::protobuf::MessageLite"*)* @_ZNK6google8protobuf11MessageLite25InitializationErrorStringEv to i8*), i8* bitcast (void (%"class.enterprise_connectors::AttestationCertificateResponse"*, %"class.google::protobuf::MessageLite"*)* @_ZN21enterprise_connectors30AttestationCertificateResponse21CheckTypeAndMergeFromERKN6google8protobuf11MessageLiteE to i8*), i8* bitcast (i64 (%"class.enterprise_connectors::AttestationCertificateResponse"*)* @_ZNK21enterprise_connectors30AttestationCertificateResponse12ByteSizeLongEv to i8*), i8* bitcast (i32 (%"class.enterprise_connectors::AttestationCertificateResponse"*)* @_ZNK21enterprise_connectors30AttestationCertificateResponse13GetCachedSizeEv to i8*), i8* bitcast (i8* (%"class.enterprise_connectors::AttestationCertificateResponse"*, i8*, %"class.google::protobuf::internal::ParseContext"*)* @_ZN21enterprise_connectors30AttestationCertificateResponse14_InternalParseEPKcPN6google8protobuf8internal12ParseContextE to i8*), i8* bitcast (i8* (%"class.enterprise_connectors::AttestationCertificateResponse"*, i8*, %"class.google::protobuf::io::EpsCopyOutputStream"*)* @_ZNK21enterprise_connectors30AttestationCertificateResponse18_InternalSerializeEPhPN6google8protobuf2io19EpsCopyOutputStreamE to i8*), i8* bitcast (i8* (%"class.google::protobuf::MessageLite"*)* @_ZNK6google8protobuf11MessageLite16InternalGetTableEv to i8*)] }, align 8
@.str.24 = private unnamed_addr constant [53 x i8] c"enterprise_connectors.AttestationCertificateResponse\00", align 1
@_ZTVN21enterprise_connectors23AttestationResetRequestE = hidden unnamed_addr constant { [16 x i8*] } { [16 x i8*] [i8* null, i8* null, i8* bitcast (void (%"class.enterprise_connectors::AttestationResetRequest"*)* @_ZN21enterprise_connectors23AttestationResetRequestD2Ev to i8*), i8* bitcast (void (%"class.enterprise_connectors::AttestationResetRequest"*)* @_ZN21enterprise_connectors23AttestationResetRequestD0Ev to i8*), i8* bitcast (void (%"class.std::__1::basic_string"*, %"class.enterprise_connectors::AttestationResetRequest"*)* @_ZNK21enterprise_connectors23AttestationResetRequest11GetTypeNameEv to i8*), i8* bitcast (%"class.enterprise_connectors::AttestationResetRequest"* (%"class.enterprise_connectors::AttestationResetRequest"*)* @_ZNK21enterprise_connectors23AttestationResetRequest3NewEv to i8*), i8* bitcast (%"class.enterprise_connectors::AttestationResetRequest"* (%"class.enterprise_connectors::AttestationResetRequest"*, %"class.google::protobuf::Arena"*)* @_ZNK21enterprise_connectors23AttestationResetRequest3NewEPN6google8protobuf5ArenaE to i8*), i8* bitcast (void (%"class.enterprise_connectors::AttestationResetRequest"*)* @_ZN21enterprise_connectors23AttestationResetRequest5ClearEv to i8*), i8* bitcast (i1 (%"class.enterprise_connectors::AttestationResetRequest"*)* @_ZNK21enterprise_connectors23AttestationResetRequest13IsInitializedEv to i8*), i8* bitcast (void (%"class.std::__1::basic_string"*, %"class.google::protobuf::MessageLite"*)* @_ZNK6google8protobuf11MessageLite25InitializationErrorStringEv to i8*), i8* bitcast (void (%"class.enterprise_connectors::AttestationResetRequest"*, %"class.google::protobuf::MessageLite"*)* @_ZN21enterprise_connectors23AttestationResetRequest21CheckTypeAndMergeFromERKN6google8protobuf11MessageLiteE to i8*), i8* bitcast (i64 (%"class.enterprise_connectors::AttestationResetRequest"*)* @_ZNK21enterprise_connectors23AttestationResetRequest12ByteSizeLongEv to i8*), i8* bitcast (i32 (%"class.enterprise_connectors::AttestationResetRequest"*)* @_ZNK21enterprise_connectors23AttestationResetRequest13GetCachedSizeEv to i8*), i8* bitcast (i8* (%"class.enterprise_connectors::AttestationResetRequest"*, i8*, %"class.google::protobuf::internal::ParseContext"*)* @_ZN21enterprise_connectors23AttestationResetRequest14_InternalParseEPKcPN6google8protobuf8internal12ParseContextE to i8*), i8* bitcast (i8* (%"class.enterprise_connectors::AttestationResetRequest"*, i8*, %"class.google::protobuf::io::EpsCopyOutputStream"*)* @_ZNK21enterprise_connectors23AttestationResetRequest18_InternalSerializeEPhPN6google8protobuf2io19EpsCopyOutputStreamE to i8*), i8* bitcast (i8* (%"class.google::protobuf::MessageLite"*)* @_ZNK6google8protobuf11MessageLite16InternalGetTableEv to i8*)] }, align 8
@.str.25 = private unnamed_addr constant [46 x i8] c"enterprise_connectors.AttestationResetRequest\00", align 1
@_ZTVN21enterprise_connectors24AttestationResetResponseE = hidden unnamed_addr constant { [16 x i8*] } { [16 x i8*] [i8* null, i8* null, i8* bitcast (void (%"class.enterprise_connectors::AttestationResetResponse"*)* @_ZN21enterprise_connectors24AttestationResetResponseD2Ev to i8*), i8* bitcast (void (%"class.enterprise_connectors::AttestationResetResponse"*)* @_ZN21enterprise_connectors24AttestationResetResponseD0Ev to i8*), i8* bitcast (void (%"class.std::__1::basic_string"*, %"class.enterprise_connectors::AttestationResetResponse"*)* @_ZNK21enterprise_connectors24AttestationResetResponse11GetTypeNameEv to i8*), i8* bitcast (%"class.enterprise_connectors::AttestationResetResponse"* (%"class.enterprise_connectors::AttestationResetResponse"*)* @_ZNK21enterprise_connectors24AttestationResetResponse3NewEv to i8*), i8* bitcast (%"class.enterprise_connectors::AttestationResetResponse"* (%"class.enterprise_connectors::AttestationResetResponse"*, %"class.google::protobuf::Arena"*)* @_ZNK21enterprise_connectors24AttestationResetResponse3NewEPN6google8protobuf5ArenaE to i8*), i8* bitcast (void (%"class.enterprise_connectors::AttestationResetResponse"*)* @_ZN21enterprise_connectors24AttestationResetResponse5ClearEv to i8*), i8* bitcast (i1 (%"class.enterprise_connectors::AttestationResetResponse"*)* @_ZNK21enterprise_connectors24AttestationResetResponse13IsInitializedEv to i8*), i8* bitcast (void (%"class.std::__1::basic_string"*, %"class.google::protobuf::MessageLite"*)* @_ZNK6google8protobuf11MessageLite25InitializationErrorStringEv to i8*), i8* bitcast (void (%"class.enterprise_connectors::AttestationResetResponse"*, %"class.google::protobuf::MessageLite"*)* @_ZN21enterprise_connectors24AttestationResetResponse21CheckTypeAndMergeFromERKN6google8protobuf11MessageLiteE to i8*), i8* bitcast (i64 (%"class.enterprise_connectors::AttestationResetResponse"*)* @_ZNK21enterprise_connectors24AttestationResetResponse12ByteSizeLongEv to i8*), i8* bitcast (i32 (%"class.enterprise_connectors::AttestationResetResponse"*)* @_ZNK21enterprise_connectors24AttestationResetResponse13GetCachedSizeEv to i8*), i8* bitcast (i8* (%"class.enterprise_connectors::AttestationResetResponse"*, i8*, %"class.google::protobuf::internal::ParseContext"*)* @_ZN21enterprise_connectors24AttestationResetResponse14_InternalParseEPKcPN6google8protobuf8internal12ParseContextE to i8*), i8* bitcast (i8* (%"class.enterprise_connectors::AttestationResetResponse"*, i8*, %"class.google::protobuf::io::EpsCopyOutputStream"*)* @_ZNK21enterprise_connectors24AttestationResetResponse18_InternalSerializeEPhPN6google8protobuf2io19EpsCopyOutputStreamE to i8*), i8* bitcast (i8* (%"class.google::protobuf::MessageLite"*)* @_ZNK6google8protobuf11MessageLite16InternalGetTableEv to i8*)] }, align 8
@.str.26 = private unnamed_addr constant [47 x i8] c"enterprise_connectors.AttestationResetResponse\00", align 1
@_ZTVN21enterprise_connectors9ChallengeE = hidden unnamed_addr constant { [16 x i8*] } { [16 x i8*] [i8* null, i8* null, i8* bitcast (void (%"class.enterprise_connectors::Challenge"*)* @_ZN21enterprise_connectors9ChallengeD2Ev to i8*), i8* bitcast (void (%"class.enterprise_connectors::Challenge"*)* @_ZN21enterprise_connectors9ChallengeD0Ev to i8*), i8* bitcast (void (%"class.std::__1::basic_string"*, %"class.enterprise_connectors::Challenge"*)* @_ZNK21enterprise_connectors9Challenge11GetTypeNameEv to i8*), i8* bitcast (%"class.enterprise_connectors::Challenge"* (%"class.enterprise_connectors::Challenge"*)* @_ZNK21enterprise_connectors9Challenge3NewEv to i8*), i8* bitcast (%"class.enterprise_connectors::Challenge"* (%"class.enterprise_connectors::Challenge"*, %"class.google::protobuf::Arena"*)* @_ZNK21enterprise_connectors9Challenge3NewEPN6google8protobuf5ArenaE to i8*), i8* bitcast (void (%"class.enterprise_connectors::Challenge"*)* @_ZN21enterprise_connectors9Challenge5ClearEv to i8*), i8* bitcast (i1 (%"class.enterprise_connectors::Challenge"*)* @_ZNK21enterprise_connectors9Challenge13IsInitializedEv to i8*), i8* bitcast (void (%"class.std::__1::basic_string"*, %"class.google::protobuf::MessageLite"*)* @_ZNK6google8protobuf11MessageLite25InitializationErrorStringEv to i8*), i8* bitcast (void (%"class.enterprise_connectors::Challenge"*, %"class.google::protobuf::MessageLite"*)* @_ZN21enterprise_connectors9Challenge21CheckTypeAndMergeFromERKN6google8protobuf11MessageLiteE to i8*), i8* bitcast (i64 (%"class.enterprise_connectors::Challenge"*)* @_ZNK21enterprise_connectors9Challenge12ByteSizeLongEv to i8*), i8* bitcast (i32 (%"class.enterprise_connectors::Challenge"*)* @_ZNK21enterprise_connectors9Challenge13GetCachedSizeEv to i8*), i8* bitcast (i8* (%"class.enterprise_connectors::Challenge"*, i8*, %"class.google::protobuf::internal::ParseContext"*)* @_ZN21enterprise_connectors9Challenge14_InternalParseEPKcPN6google8protobuf8internal12ParseContextE to i8*), i8* bitcast (i8* (%"class.enterprise_connectors::Challenge"*, i8*, %"class.google::protobuf::io::EpsCopyOutputStream"*)* @_ZNK21enterprise_connectors9Challenge18_InternalSerializeEPhPN6google8protobuf2io19EpsCopyOutputStreamE to i8*), i8* bitcast (i8* (%"class.google::protobuf::MessageLite"*)* @_ZNK6google8protobuf11MessageLite16InternalGetTableEv to i8*)] }, align 8
@.str.27 = private unnamed_addr constant [32 x i8] c"enterprise_connectors.Challenge\00", align 1
@_ZTVN21enterprise_connectors17ChallengeResponseE = hidden unnamed_addr constant { [16 x i8*] } { [16 x i8*] [i8* null, i8* null, i8* bitcast (void (%"class.enterprise_connectors::ChallengeResponse"*)* @_ZN21enterprise_connectors17ChallengeResponseD2Ev to i8*), i8* bitcast (void (%"class.enterprise_connectors::ChallengeResponse"*)* @_ZN21enterprise_connectors17ChallengeResponseD0Ev to i8*), i8* bitcast (void (%"class.std::__1::basic_string"*, %"class.enterprise_connectors::ChallengeResponse"*)* @_ZNK21enterprise_connectors17ChallengeResponse11GetTypeNameEv to i8*), i8* bitcast (%"class.enterprise_connectors::ChallengeResponse"* (%"class.enterprise_connectors::ChallengeResponse"*)* @_ZNK21enterprise_connectors17ChallengeResponse3NewEv to i8*), i8* bitcast (%"class.enterprise_connectors::ChallengeResponse"* (%"class.enterprise_connectors::ChallengeResponse"*, %"class.google::protobuf::Arena"*)* @_ZNK21enterprise_connectors17ChallengeResponse3NewEPN6google8protobuf5ArenaE to i8*), i8* bitcast (void (%"class.enterprise_connectors::ChallengeResponse"*)* @_ZN21enterprise_connectors17ChallengeResponse5ClearEv to i8*), i8* bitcast (i1 (%"class.enterprise_connectors::ChallengeResponse"*)* @_ZNK21enterprise_connectors17ChallengeResponse13IsInitializedEv to i8*), i8* bitcast (void (%"class.std::__1::basic_string"*, %"class.google::protobuf::MessageLite"*)* @_ZNK6google8protobuf11MessageLite25InitializationErrorStringEv to i8*), i8* bitcast (void (%"class.enterprise_connectors::ChallengeResponse"*, %"class.google::protobuf::MessageLite"*)* @_ZN21enterprise_connectors17ChallengeResponse21CheckTypeAndMergeFromERKN6google8protobuf11MessageLiteE to i8*), i8* bitcast (i64 (%"class.enterprise_connectors::ChallengeResponse"*)* @_ZNK21enterprise_connectors17ChallengeResponse12ByteSizeLongEv to i8*), i8* bitcast (i32 (%"class.enterprise_connectors::ChallengeResponse"*)* @_ZNK21enterprise_connectors17ChallengeResponse13GetCachedSizeEv to i8*), i8* bitcast (i8* (%"class.enterprise_connectors::ChallengeResponse"*, i8*, %"class.google::protobuf::internal::ParseContext"*)* @_ZN21enterprise_connectors17ChallengeResponse14_InternalParseEPKcPN6google8protobuf8internal12ParseContextE to i8*), i8* bitcast (i8* (%"class.enterprise_connectors::ChallengeResponse"*, i8*, %"class.google::protobuf::io::EpsCopyOutputStream"*)* @_ZNK21enterprise_connectors17ChallengeResponse18_InternalSerializeEPhPN6google8protobuf2io19EpsCopyOutputStreamE to i8*), i8* bitcast (i8* (%"class.google::protobuf::MessageLite"*)* @_ZNK6google8protobuf11MessageLite16InternalGetTableEv to i8*)] }, align 8
@.str.30 = private unnamed_addr constant [40 x i8] c"enterprise_connectors.ChallengeResponse\00", align 1
@_ZTVN21enterprise_connectors7KeyInfoE = hidden unnamed_addr constant { [16 x i8*] } { [16 x i8*] [i8* null, i8* null, i8* bitcast (void (%"class.enterprise_connectors::KeyInfo"*)* @_ZN21enterprise_connectors7KeyInfoD2Ev to i8*), i8* bitcast (void (%"class.enterprise_connectors::KeyInfo"*)* @_ZN21enterprise_connectors7KeyInfoD0Ev to i8*), i8* bitcast (void (%"class.std::__1::basic_string"*, %"class.enterprise_connectors::KeyInfo"*)* @_ZNK21enterprise_connectors7KeyInfo11GetTypeNameEv to i8*), i8* bitcast (%"class.enterprise_connectors::KeyInfo"* (%"class.enterprise_connectors::KeyInfo"*)* @_ZNK21enterprise_connectors7KeyInfo3NewEv to i8*), i8* bitcast (%"class.enterprise_connectors::KeyInfo"* (%"class.enterprise_connectors::KeyInfo"*, %"class.google::protobuf::Arena"*)* @_ZNK21enterprise_connectors7KeyInfo3NewEPN6google8protobuf5ArenaE to i8*), i8* bitcast (void (%"class.enterprise_connectors::KeyInfo"*)* @_ZN21enterprise_connectors7KeyInfo5ClearEv to i8*), i8* bitcast (i1 (%"class.enterprise_connectors::KeyInfo"*)* @_ZNK21enterprise_connectors7KeyInfo13IsInitializedEv to i8*), i8* bitcast (void (%"class.std::__1::basic_string"*, %"class.google::protobuf::MessageLite"*)* @_ZNK6google8protobuf11MessageLite25InitializationErrorStringEv to i8*), i8* bitcast (void (%"class.enterprise_connectors::KeyInfo"*, %"class.google::protobuf::MessageLite"*)* @_ZN21enterprise_connectors7KeyInfo21CheckTypeAndMergeFromERKN6google8protobuf11MessageLiteE to i8*), i8* bitcast (i64 (%"class.enterprise_connectors::KeyInfo"*)* @_ZNK21enterprise_connectors7KeyInfo12ByteSizeLongEv to i8*), i8* bitcast (i32 (%"class.enterprise_connectors::KeyInfo"*)* @_ZNK21enterprise_connectors7KeyInfo13GetCachedSizeEv to i8*), i8* bitcast (i8* (%"class.enterprise_connectors::KeyInfo"*, i8*, %"class.google::protobuf::internal::ParseContext"*)* @_ZN21enterprise_connectors7KeyInfo14_InternalParseEPKcPN6google8protobuf8internal12ParseContextE to i8*), i8* bitcast (i8* (%"class.enterprise_connectors::KeyInfo"*, i8*, %"class.google::protobuf::io::EpsCopyOutputStream"*)* @_ZNK21enterprise_connectors7KeyInfo18_InternalSerializeEPhPN6google8protobuf2io19EpsCopyOutputStreamE to i8*), i8* bitcast (i8* (%"class.google::protobuf::MessageLite"*)* @_ZNK6google8protobuf11MessageLite16InternalGetTableEv to i8*)] }, align 8
@.str.32 = private unnamed_addr constant [30 x i8] c"enterprise_connectors.KeyInfo\00", align 1
@_ZTVN21enterprise_connectors18DeviceTrustSignalsE = hidden unnamed_addr constant { [16 x i8*] } { [16 x i8*] [i8* null, i8* null, i8* bitcast (void (%"class.enterprise_connectors::DeviceTrustSignals"*)* @_ZN21enterprise_connectors18DeviceTrustSignalsD2Ev to i8*), i8* bitcast (void (%"class.enterprise_connectors::DeviceTrustSignals"*)* @_ZN21enterprise_connectors18DeviceTrustSignalsD0Ev to i8*), i8* bitcast (void (%"class.std::__1::basic_string"*, %"class.enterprise_connectors::DeviceTrustSignals"*)* @_ZNK21enterprise_connectors18DeviceTrustSignals11GetTypeNameEv to i8*), i8* bitcast (%"class.enterprise_connectors::DeviceTrustSignals"* (%"class.enterprise_connectors::DeviceTrustSignals"*)* @_ZNK21enterprise_connectors18DeviceTrustSignals3NewEv to i8*), i8* bitcast (%"class.enterprise_connectors::DeviceTrustSignals"* (%"class.enterprise_connectors::DeviceTrustSignals"*, %"class.google::protobuf::Arena"*)* @_ZNK21enterprise_connectors18DeviceTrustSignals3NewEPN6google8protobuf5ArenaE to i8*), i8* bitcast (void (%"class.enterprise_connectors::DeviceTrustSignals"*)* @_ZN21enterprise_connectors18DeviceTrustSignals5ClearEv to i8*), i8* bitcast (i1 (%"class.enterprise_connectors::DeviceTrustSignals"*)* @_ZNK21enterprise_connectors18DeviceTrustSignals13IsInitializedEv to i8*), i8* bitcast (void (%"class.std::__1::basic_string"*, %"class.google::protobuf::MessageLite"*)* @_ZNK6google8protobuf11MessageLite25InitializationErrorStringEv to i8*), i8* bitcast (void (%"class.enterprise_connectors::DeviceTrustSignals"*, %"class.google::protobuf::MessageLite"*)* @_ZN21enterprise_connectors18DeviceTrustSignals21CheckTypeAndMergeFromERKN6google8protobuf11MessageLiteE to i8*), i8* bitcast (i64 (%"class.enterprise_connectors::DeviceTrustSignals"*)* @_ZNK21enterprise_connectors18DeviceTrustSignals12ByteSizeLongEv to i8*), i8* bitcast (i32 (%"class.enterprise_connectors::DeviceTrustSignals"*)* @_ZNK21enterprise_connectors18DeviceTrustSignals13GetCachedSizeEv to i8*), i8* bitcast (i8* (%"class.enterprise_connectors::DeviceTrustSignals"*, i8*, %"class.google::protobuf::internal::ParseContext"*)* @_ZN21enterprise_connectors18DeviceTrustSignals14_InternalParseEPKcPN6google8protobuf8internal12ParseContextE to i8*), i8* bitcast (i8* (%"class.enterprise_connectors::DeviceTrustSignals"*, i8*, %"class.google::protobuf::io::EpsCopyOutputStream"*)* @_ZNK21enterprise_connectors18DeviceTrustSignals18_InternalSerializeEPhPN6google8protobuf2io19EpsCopyOutputStreamE to i8*), i8* bitcast (i8* (%"class.google::protobuf::MessageLite"*)* @_ZNK6google8protobuf11MessageLite16InternalGetTableEv to i8*)] }, align 8
@.str.33 = private unnamed_addr constant [41 x i8] c"enterprise_connectors.DeviceTrustSignals\00", align 1
@_ZN6google8protobuf8internal26fixed_address_empty_stringE = external global %"class.google::protobuf::internal::ExplicitlyConstructed.18", align 8
@.str.52 = private unnamed_addr constant [25 x i8] c"size_t to int conversion\00", align 1
@_ZTVN6google8protobuf8internal12MapEntryLiteIN21enterprise_connectors55AttestationCertificateRequest_NvramQuotesEntry_DoNotUseEiNS3_5QuoteELNS1_14WireFormatLite9FieldTypeE5ELS7_11EEE = linkonce_odr hidden unnamed_addr constant { [18 x i8*] } { [18 x i8*] [i8* null, i8* null, i8* bitcast (void (%"class.google::protobuf::internal::MapEntryLite"*)* @_ZN6google8protobuf8internal12MapEntryLiteIN21enterprise_connectors55AttestationCertificateRequest_NvramQuotesEntry_DoNotUseEiNS3_5QuoteELNS1_14WireFormatLite9FieldTypeE5ELS7_11EED2Ev to i8*), i8* bitcast (void (%"class.google::protobuf::internal::MapEntryLite"*)* @_ZN6google8protobuf8internal12MapEntryLiteIN21enterprise_connectors55AttestationCertificateRequest_NvramQuotesEntry_DoNotUseEiNS3_5QuoteELNS1_14WireFormatLite9FieldTypeE5ELS7_11EED0Ev to i8*), i8* bitcast (void (%"class.std::__1::basic_string"*, %"class.google::protobuf::internal::MapEntryImpl"*)* @_ZNK6google8protobuf8internal12MapEntryImplIN21enterprise_connectors55AttestationCertificateRequest_NvramQuotesEntry_DoNotUseENS0_11MessageLiteEiNS3_5QuoteELNS1_14WireFormatLite9FieldTypeE5ELS8_11EE11GetTypeNameEv to i8*), i8* bitcast (%"class.google::protobuf::MessageLite"* (%"class.google::protobuf::internal::MapEntryImpl"*)* @_ZNK6google8protobuf8internal12MapEntryImplIN21enterprise_connectors55AttestationCertificateRequest_NvramQuotesEntry_DoNotUseENS0_11MessageLiteEiNS3_5QuoteELNS1_14WireFormatLite9FieldTypeE5ELS8_11EE3NewEv to i8*), i8* bitcast (%"class.google::protobuf::MessageLite"* (%"class.google::protobuf::internal::MapEntryImpl"*, %"class.google::protobuf::Arena"*)* @_ZNK6google8protobuf8internal12MapEntryImplIN21enterprise_connectors55AttestationCertificateRequest_NvramQuotesEntry_DoNotUseENS0_11MessageLiteEiNS3_5QuoteELNS1_14WireFormatLite9FieldTypeE5ELS8_11EE3NewEPNS0_5ArenaE to i8*), i8* bitcast (void (%"class.google::protobuf::internal::MapEntryImpl"*)* @_ZN6google8protobuf8internal12MapEntryImplIN21enterprise_connectors55AttestationCertificateRequest_NvramQuotesEntry_DoNotUseENS0_11MessageLiteEiNS3_5QuoteELNS1_14WireFormatLite9FieldTypeE5ELS8_11EE5ClearEv to i8*), i8* bitcast (i1 (%"class.google::protobuf::internal::MapEntryImpl"*)* @_ZNK6google8protobuf8internal12MapEntryImplIN21enterprise_connectors55AttestationCertificateRequest_NvramQuotesEntry_DoNotUseENS0_11MessageLiteEiNS3_5QuoteELNS1_14WireFormatLite9FieldTypeE5ELS8_11EE13IsInitializedEv to i8*), i8* bitcast (void (%"class.std::__1::basic_string"*, %"class.google::protobuf::MessageLite"*)* @_ZNK6google8protobuf11MessageLite25InitializationErrorStringEv to i8*), i8* bitcast (void (%"class.google::protobuf::internal::MapEntryImpl"*, %"class.google::protobuf::MessageLite"*)* @_ZN6google8protobuf8internal12MapEntryImplIN21enterprise_connectors55AttestationCertificateRequest_NvramQuotesEntry_DoNotUseENS0_11MessageLiteEiNS3_5QuoteELNS1_14WireFormatLite9FieldTypeE5ELS8_11EE21CheckTypeAndMergeFromERKS5_ to i8*), i8* bitcast (i64 (%"class.google::protobuf::internal::MapEntryImpl"*)* @_ZNK6google8protobuf8internal12MapEntryImplIN21enterprise_connectors55AttestationCertificateRequest_NvramQuotesEntry_DoNotUseENS0_11MessageLiteEiNS3_5QuoteELNS1_14WireFormatLite9FieldTypeE5ELS8_11EE12ByteSizeLongEv to i8*), i8* bitcast (i32 (%"class.google::protobuf::internal::MapEntryImpl"*)* @_ZNK6google8protobuf8internal12MapEntryImplIN21enterprise_connectors55AttestationCertificateRequest_NvramQuotesEntry_DoNotUseENS0_11MessageLiteEiNS3_5QuoteELNS1_14WireFormatLite9FieldTypeE5ELS8_11EE13GetCachedSizeEv to i8*), i8* bitcast (i8* (%"class.google::protobuf::internal::MapEntryImpl"*, i8*, %"class.google::protobuf::internal::ParseContext"*)* @_ZN6google8protobuf8internal12MapEntryImplIN21enterprise_connectors55AttestationCertificateRequest_NvramQuotesEntry_DoNotUseENS0_11MessageLiteEiNS3_5QuoteELNS1_14WireFormatLite9FieldTypeE5ELS8_11EE14_InternalParseEPKcPNS1_12ParseContextE to i8*), i8* bitcast (i8* (%"class.google::protobuf::internal::MapEntryImpl"*, i8*, %"class.google::protobuf::io::EpsCopyOutputStream"*)* @_ZNK6google8protobuf8internal12MapEntryImplIN21enterprise_connectors55AttestationCertificateRequest_NvramQuotesEntry_DoNotUseENS0_11MessageLiteEiNS3_5QuoteELNS1_14WireFormatLite9FieldTypeE5ELS8_11EE18_InternalSerializeEPhPNS0_2io19EpsCopyOutputStreamE to i8*), i8* bitcast (i8* (%"class.google::protobuf::MessageLite"*)* @_ZNK6google8protobuf11MessageLite16InternalGetTableEv to i8*), i8* bitcast (i32* (%"class.google::protobuf::internal::MapEntryImpl"*)* @_ZNK6google8protobuf8internal12MapEntryImplIN21enterprise_connectors55AttestationCertificateRequest_NvramQuotesEntry_DoNotUseENS0_11MessageLiteEiNS3_5QuoteELNS1_14WireFormatLite9FieldTypeE5ELS8_11EE3keyEv to i8*), i8* bitcast (%"class.enterprise_connectors::Quote"* (%"class.google::protobuf::internal::MapEntryImpl"*)* @_ZNK6google8protobuf8internal12MapEntryImplIN21enterprise_connectors55AttestationCertificateRequest_NvramQuotesEntry_DoNotUseENS0_11MessageLiteEiNS3_5QuoteELNS1_14WireFormatLite9FieldTypeE5ELS8_11EE5valueEv to i8*)] }, comdat, align 8
@_ZTVN6google8protobuf8internal12MapEntryImplIN21enterprise_connectors55AttestationCertificateRequest_NvramQuotesEntry_DoNotUseENS0_11MessageLiteEiNS3_5QuoteELNS1_14WireFormatLite9FieldTypeE5ELS8_11EEE = linkonce_odr hidden unnamed_addr constant { [18 x i8*] } { [18 x i8*] [i8* null, i8* null, i8* bitcast (void (%"class.google::protobuf::internal::MapEntryImpl"*)* @_ZN6google8protobuf8internal12MapEntryImplIN21enterprise_connectors55AttestationCertificateRequest_NvramQuotesEntry_DoNotUseENS0_11MessageLiteEiNS3_5QuoteELNS1_14WireFormatLite9FieldTypeE5ELS8_11EED2Ev to i8*), i8* bitcast (void (%"class.google::protobuf::internal::MapEntryImpl"*)* @_ZN6google8protobuf8internal12MapEntryImplIN21enterprise_connectors55AttestationCertificateRequest_NvramQuotesEntry_DoNotUseENS0_11MessageLiteEiNS3_5QuoteELNS1_14WireFormatLite9FieldTypeE5ELS8_11EED0Ev to i8*), i8* bitcast (void (%"class.std::__1::basic_string"*, %"class.google::protobuf::internal::MapEntryImpl"*)* @_ZNK6google8protobuf8internal12MapEntryImplIN21enterprise_connectors55AttestationCertificateRequest_NvramQuotesEntry_DoNotUseENS0_11MessageLiteEiNS3_5QuoteELNS1_14WireFormatLite9FieldTypeE5ELS8_11EE11GetTypeNameEv to i8*), i8* bitcast (%"class.google::protobuf::MessageLite"* (%"class.google::protobuf::internal::MapEntryImpl"*)* @_ZNK6google8protobuf8internal12MapEntryImplIN21enterprise_connectors55AttestationCertificateRequest_NvramQuotesEntry_DoNotUseENS0_11MessageLiteEiNS3_5QuoteELNS1_14WireFormatLite9FieldTypeE5ELS8_11EE3NewEv to i8*), i8* bitcast (%"class.google::protobuf::MessageLite"* (%"class.google::protobuf::internal::MapEntryImpl"*, %"class.google::protobuf::Arena"*)* @_ZNK6google8protobuf8internal12MapEntryImplIN21enterprise_connectors55AttestationCertificateRequest_NvramQuotesEntry_DoNotUseENS0_11MessageLiteEiNS3_5QuoteELNS1_14WireFormatLite9FieldTypeE5ELS8_11EE3NewEPNS0_5ArenaE to i8*), i8* bitcast (void (%"class.google::protobuf::internal::MapEntryImpl"*)* @_ZN6google8protobuf8internal12MapEntryImplIN21enterprise_connectors55AttestationCertificateRequest_NvramQuotesEntry_DoNotUseENS0_11MessageLiteEiNS3_5QuoteELNS1_14WireFormatLite9FieldTypeE5ELS8_11EE5ClearEv to i8*), i8* bitcast (i1 (%"class.google::protobuf::internal::MapEntryImpl"*)* @_ZNK6google8protobuf8internal12MapEntryImplIN21enterprise_connectors55AttestationCertificateRequest_NvramQuotesEntry_DoNotUseENS0_11MessageLiteEiNS3_5QuoteELNS1_14WireFormatLite9FieldTypeE5ELS8_11EE13IsInitializedEv to i8*), i8* bitcast (void (%"class.std::__1::basic_string"*, %"class.google::protobuf::MessageLite"*)* @_ZNK6google8protobuf11MessageLite25InitializationErrorStringEv to i8*), i8* bitcast (void (%"class.google::protobuf::internal::MapEntryImpl"*, %"class.google::protobuf::MessageLite"*)* @_ZN6google8protobuf8internal12MapEntryImplIN21enterprise_connectors55AttestationCertificateRequest_NvramQuotesEntry_DoNotUseENS0_11MessageLiteEiNS3_5QuoteELNS1_14WireFormatLite9FieldTypeE5ELS8_11EE21CheckTypeAndMergeFromERKS5_ to i8*), i8* bitcast (i64 (%"class.google::protobuf::internal::MapEntryImpl"*)* @_ZNK6google8protobuf8internal12MapEntryImplIN21enterprise_connectors55AttestationCertificateRequest_NvramQuotesEntry_DoNotUseENS0_11MessageLiteEiNS3_5QuoteELNS1_14WireFormatLite9FieldTypeE5ELS8_11EE12ByteSizeLongEv to i8*), i8* bitcast (i32 (%"class.google::protobuf::internal::MapEntryImpl"*)* @_ZNK6google8protobuf8internal12MapEntryImplIN21enterprise_connectors55AttestationCertificateRequest_NvramQuotesEntry_DoNotUseENS0_11MessageLiteEiNS3_5QuoteELNS1_14WireFormatLite9FieldTypeE5ELS8_11EE13GetCachedSizeEv to i8*), i8* bitcast (i8* (%"class.google::protobuf::internal::MapEntryImpl"*, i8*, %"class.google::protobuf::internal::ParseContext"*)* @_ZN6google8protobuf8internal12MapEntryImplIN21enterprise_connectors55AttestationCertificateRequest_NvramQuotesEntry_DoNotUseENS0_11MessageLiteEiNS3_5QuoteELNS1_14WireFormatLite9FieldTypeE5ELS8_11EE14_InternalParseEPKcPNS1_12ParseContextE to i8*), i8* bitcast (i8* (%"class.google::protobuf::internal::MapEntryImpl"*, i8*, %"class.google::protobuf::io::EpsCopyOutputStream"*)* @_ZNK6google8protobuf8internal12MapEntryImplIN21enterprise_connectors55AttestationCertificateRequest_NvramQuotesEntry_DoNotUseENS0_11MessageLiteEiNS3_5QuoteELNS1_14WireFormatLite9FieldTypeE5ELS8_11EE18_InternalSerializeEPhPNS0_2io19EpsCopyOutputStreamE to i8*), i8* bitcast (i8* (%"class.google::protobuf::MessageLite"*)* @_ZNK6google8protobuf11MessageLite16InternalGetTableEv to i8*), i8* bitcast (i32* (%"class.google::protobuf::internal::MapEntryImpl"*)* @_ZNK6google8protobuf8internal12MapEntryImplIN21enterprise_connectors55AttestationCertificateRequest_NvramQuotesEntry_DoNotUseENS0_11MessageLiteEiNS3_5QuoteELNS1_14WireFormatLite9FieldTypeE5ELS8_11EE3keyEv to i8*), i8* bitcast (%"class.enterprise_connectors::Quote"* (%"class.google::protobuf::internal::MapEntryImpl"*)* @_ZNK6google8protobuf8internal12MapEntryImplIN21enterprise_connectors55AttestationCertificateRequest_NvramQuotesEntry_DoNotUseENS0_11MessageLiteEiNS3_5QuoteELNS1_14WireFormatLite9FieldTypeE5ELS8_11EE5valueEv to i8*)] }, comdat, align 8
@_ZN6google8protobuf8internal17kGlobalEmptyTableE = external constant [1 x i8*], align 8
@__const._ZNSt3__127__insertion_sort_incompleteIRN6google8protobuf8internal19CompareByFirstFieldINS3_8SortItemIiPKNS2_7MapPairIiN21enterprise_connectors5QuoteEEEEEEEPSC_EEbT0_SG_T_.__t = private unnamed_addr constant { i32, [4 x i8], %"struct.google::protobuf::MapPair"* } { i32 -1431655766, [4 x i8] c"\AA\AA\AA\AA", %"struct.google::protobuf::MapPair"* inttoptr (i64 -6148914691236517206 to %"struct.google::protobuf::MapPair"*) }, align 8
@llvm.global_ctors = appending global [0 x { i32, void ()*, i8* }] zeroinitializer

@_ZN21enterprise_connectors5QuoteC1EPN6google8protobuf5ArenaE = hidden unnamed_addr alias void (%"class.enterprise_connectors::Quote"*, %"class.google::protobuf::Arena"*), void (%"class.enterprise_connectors::Quote"*, %"class.google::protobuf::Arena"*)* @_ZN21enterprise_connectors5QuoteC2EPN6google8protobuf5ArenaE
@_ZN21enterprise_connectors5QuoteC1ERKS0_ = hidden unnamed_addr alias void (%"class.enterprise_connectors::Quote"*, %"class.enterprise_connectors::Quote"*), void (%"class.enterprise_connectors::Quote"*, %"class.enterprise_connectors::Quote"*)* @_ZN21enterprise_connectors5QuoteC2ERKS0_
@_ZN21enterprise_connectors5QuoteD1Ev = hidden unnamed_addr alias void (%"class.enterprise_connectors::Quote"*), void (%"class.enterprise_connectors::Quote"*)* @_ZN21enterprise_connectors5QuoteD2Ev
@_ZN21enterprise_connectors13EncryptedDataC1EPN6google8protobuf5ArenaE = hidden unnamed_addr alias void (%"class.enterprise_connectors::EncryptedData"*, %"class.google::protobuf::Arena"*), void (%"class.enterprise_connectors::EncryptedData"*, %"class.google::protobuf::Arena"*)* @_ZN21enterprise_connectors13EncryptedDataC2EPN6google8protobuf5ArenaE
@_ZN21enterprise_connectors13EncryptedDataC1ERKS0_ = hidden unnamed_addr alias void (%"class.enterprise_connectors::EncryptedData"*, %"class.enterprise_connectors::EncryptedData"*), void (%"class.enterprise_connectors::EncryptedData"*, %"class.enterprise_connectors::EncryptedData"*)* @_ZN21enterprise_connectors13EncryptedDataC2ERKS0_
@_ZN21enterprise_connectors13EncryptedDataD1Ev = hidden unnamed_addr alias void (%"class.enterprise_connectors::EncryptedData"*), void (%"class.enterprise_connectors::EncryptedData"*)* @_ZN21enterprise_connectors13EncryptedDataD2Ev
@_ZN21enterprise_connectors10SignedDataC1EPN6google8protobuf5ArenaE = hidden unnamed_addr alias void (%"class.enterprise_connectors::SignedData"*, %"class.google::protobuf::Arena"*), void (%"class.enterprise_connectors::SignedData"*, %"class.google::protobuf::Arena"*)* @_ZN21enterprise_connectors10SignedDataC2EPN6google8protobuf5ArenaE
@_ZN21enterprise_connectors10SignedDataC1ERKS0_ = hidden unnamed_addr alias void (%"class.enterprise_connectors::SignedData"*, %"class.enterprise_connectors::SignedData"*), void (%"class.enterprise_connectors::SignedData"*, %"class.enterprise_connectors::SignedData"*)* @_ZN21enterprise_connectors10SignedDataC2ERKS0_
@_ZN21enterprise_connectors10SignedDataD1Ev = hidden unnamed_addr alias void (%"class.enterprise_connectors::SignedData"*), void (%"class.enterprise_connectors::SignedData"*)* @_ZN21enterprise_connectors10SignedDataD2Ev
@_ZN21enterprise_connectors27EncryptedIdentityCredentialC1EPN6google8protobuf5ArenaE = hidden unnamed_addr alias void (%"class.enterprise_connectors::EncryptedIdentityCredential"*, %"class.google::protobuf::Arena"*), void (%"class.enterprise_connectors::EncryptedIdentityCredential"*, %"class.google::protobuf::Arena"*)* @_ZN21enterprise_connectors27EncryptedIdentityCredentialC2EPN6google8protobuf5ArenaE
@_ZN21enterprise_connectors27EncryptedIdentityCredentialC1ERKS0_ = hidden unnamed_addr alias void (%"class.enterprise_connectors::EncryptedIdentityCredential"*, %"class.enterprise_connectors::EncryptedIdentityCredential"*), void (%"class.enterprise_connectors::EncryptedIdentityCredential"*, %"class.enterprise_connectors::EncryptedIdentityCredential"*)* @_ZN21enterprise_connectors27EncryptedIdentityCredentialC2ERKS0_
@_ZN21enterprise_connectors27EncryptedIdentityCredentialD1Ev = hidden unnamed_addr alias void (%"class.enterprise_connectors::EncryptedIdentityCredential"*), void (%"class.enterprise_connectors::EncryptedIdentityCredential"*)* @_ZN21enterprise_connectors27EncryptedIdentityCredentialD2Ev
@_ZN21enterprise_connectors28AttestationEnrollmentRequestC1EPN6google8protobuf5ArenaE = hidden unnamed_addr alias void (%"class.enterprise_connectors::AttestationEnrollmentRequest"*, %"class.google::protobuf::Arena"*), void (%"class.enterprise_connectors::AttestationEnrollmentRequest"*, %"class.google::protobuf::Arena"*)* @_ZN21enterprise_connectors28AttestationEnrollmentRequestC2EPN6google8protobuf5ArenaE
@_ZN21enterprise_connectors28AttestationEnrollmentRequestC1ERKS0_ = hidden unnamed_addr alias void (%"class.enterprise_connectors::AttestationEnrollmentRequest"*, %"class.enterprise_connectors::AttestationEnrollmentRequest"*), void (%"class.enterprise_connectors::AttestationEnrollmentRequest"*, %"class.enterprise_connectors::AttestationEnrollmentRequest"*)* @_ZN21enterprise_connectors28AttestationEnrollmentRequestC2ERKS0_
@_ZN21enterprise_connectors28AttestationEnrollmentRequestD1Ev = hidden unnamed_addr alias void (%"class.enterprise_connectors::AttestationEnrollmentRequest"*), void (%"class.enterprise_connectors::AttestationEnrollmentRequest"*)* @_ZN21enterprise_connectors28AttestationEnrollmentRequestD2Ev
@_ZN21enterprise_connectors29AttestationEnrollmentResponseC1EPN6google8protobuf5ArenaE = hidden unnamed_addr alias void (%"class.enterprise_connectors::AttestationEnrollmentResponse"*, %"class.google::protobuf::Arena"*), void (%"class.enterprise_connectors::AttestationEnrollmentResponse"*, %"class.google::protobuf::Arena"*)* @_ZN21enterprise_connectors29AttestationEnrollmentResponseC2EPN6google8protobuf5ArenaE
@_ZN21enterprise_connectors29AttestationEnrollmentResponseC1ERKS0_ = hidden unnamed_addr alias void (%"class.enterprise_connectors::AttestationEnrollmentResponse"*, %"class.enterprise_connectors::AttestationEnrollmentResponse"*), void (%"class.enterprise_connectors::AttestationEnrollmentResponse"*, %"class.enterprise_connectors::AttestationEnrollmentResponse"*)* @_ZN21enterprise_connectors29AttestationEnrollmentResponseC2ERKS0_
@_ZN21enterprise_connectors29AttestationEnrollmentResponseD1Ev = hidden unnamed_addr alias void (%"class.enterprise_connectors::AttestationEnrollmentResponse"*), void (%"class.enterprise_connectors::AttestationEnrollmentResponse"*)* @_ZN21enterprise_connectors29AttestationEnrollmentResponseD2Ev
@_ZN21enterprise_connectors55AttestationCertificateRequest_NvramQuotesEntry_DoNotUseC1Ev = hidden unnamed_addr alias void (%"class.enterprise_connectors::AttestationCertificateRequest_NvramQuotesEntry_DoNotUse"*), void (%"class.enterprise_connectors::AttestationCertificateRequest_NvramQuotesEntry_DoNotUse"*)* @_ZN21enterprise_connectors55AttestationCertificateRequest_NvramQuotesEntry_DoNotUseC2Ev
@_ZN21enterprise_connectors55AttestationCertificateRequest_NvramQuotesEntry_DoNotUseC1EPN6google8protobuf5ArenaE = hidden unnamed_addr alias void (%"class.enterprise_connectors::AttestationCertificateRequest_NvramQuotesEntry_DoNotUse"*, %"class.google::protobuf::Arena"*), void (%"class.enterprise_connectors::AttestationCertificateRequest_NvramQuotesEntry_DoNotUse"*, %"class.google::protobuf::Arena"*)* @_ZN21enterprise_connectors55AttestationCertificateRequest_NvramQuotesEntry_DoNotUseC2EPN6google8protobuf5ArenaE
@_ZN21enterprise_connectors29AttestationCertificateRequestC1EPN6google8protobuf5ArenaE = hidden unnamed_addr alias void (%"class.enterprise_connectors::AttestationCertificateRequest"*, %"class.google::protobuf::Arena"*), void (%"class.enterprise_connectors::AttestationCertificateRequest"*, %"class.google::protobuf::Arena"*)* @_ZN21enterprise_connectors29AttestationCertificateRequestC2EPN6google8protobuf5ArenaE
@_ZN21enterprise_connectors29AttestationCertificateRequestC1ERKS0_ = hidden unnamed_addr alias void (%"class.enterprise_connectors::AttestationCertificateRequest"*, %"class.enterprise_connectors::AttestationCertificateRequest"*), void (%"class.enterprise_connectors::AttestationCertificateRequest"*, %"class.enterprise_connectors::AttestationCertificateRequest"*)* @_ZN21enterprise_connectors29AttestationCertificateRequestC2ERKS0_
@_ZN21enterprise_connectors29AttestationCertificateRequestD1Ev = hidden unnamed_addr alias void (%"class.enterprise_connectors::AttestationCertificateRequest"*), void (%"class.enterprise_connectors::AttestationCertificateRequest"*)* @_ZN21enterprise_connectors29AttestationCertificateRequestD2Ev
@_ZN21enterprise_connectors30AttestationCertificateResponseC1EPN6google8protobuf5ArenaE = hidden unnamed_addr alias void (%"class.enterprise_connectors::AttestationCertificateResponse"*, %"class.google::protobuf::Arena"*), void (%"class.enterprise_connectors::AttestationCertificateResponse"*, %"class.google::protobuf::Arena"*)* @_ZN21enterprise_connectors30AttestationCertificateResponseC2EPN6google8protobuf5ArenaE
@_ZN21enterprise_connectors30AttestationCertificateResponseC1ERKS0_ = hidden unnamed_addr alias void (%"class.enterprise_connectors::AttestationCertificateResponse"*, %"class.enterprise_connectors::AttestationCertificateResponse"*), void (%"class.enterprise_connectors::AttestationCertificateResponse"*, %"class.enterprise_connectors::AttestationCertificateResponse"*)* @_ZN21enterprise_connectors30AttestationCertificateResponseC2ERKS0_
@_ZN21enterprise_connectors30AttestationCertificateResponseD1Ev = hidden unnamed_addr alias void (%"class.enterprise_connectors::AttestationCertificateResponse"*), void (%"class.enterprise_connectors::AttestationCertificateResponse"*)* @_ZN21enterprise_connectors30AttestationCertificateResponseD2Ev
@_ZN21enterprise_connectors23AttestationResetRequestC1EPN6google8protobuf5ArenaE = hidden unnamed_addr alias void (%"class.enterprise_connectors::AttestationResetRequest"*, %"class.google::protobuf::Arena"*), void (%"class.enterprise_connectors::AttestationResetRequest"*, %"class.google::protobuf::Arena"*)* @_ZN21enterprise_connectors23AttestationResetRequestC2EPN6google8protobuf5ArenaE
@_ZN21enterprise_connectors23AttestationResetRequestC1ERKS0_ = hidden unnamed_addr alias void (%"class.enterprise_connectors::AttestationResetRequest"*, %"class.enterprise_connectors::AttestationResetRequest"*), void (%"class.enterprise_connectors::AttestationResetRequest"*, %"class.enterprise_connectors::AttestationResetRequest"*)* @_ZN21enterprise_connectors23AttestationResetRequestC2ERKS0_
@_ZN21enterprise_connectors23AttestationResetRequestD1Ev = hidden unnamed_addr alias void (%"class.enterprise_connectors::AttestationResetRequest"*), void (%"class.enterprise_connectors::AttestationResetRequest"*)* @_ZN21enterprise_connectors23AttestationResetRequestD2Ev
@_ZN21enterprise_connectors24AttestationResetResponseC1EPN6google8protobuf5ArenaE = hidden unnamed_addr alias void (%"class.enterprise_connectors::AttestationResetResponse"*, %"class.google::protobuf::Arena"*), void (%"class.enterprise_connectors::AttestationResetResponse"*, %"class.google::protobuf::Arena"*)* @_ZN21enterprise_connectors24AttestationResetResponseC2EPN6google8protobuf5ArenaE
@_ZN21enterprise_connectors24AttestationResetResponseC1ERKS0_ = hidden unnamed_addr alias void (%"class.enterprise_connectors::AttestationResetResponse"*, %"class.enterprise_connectors::AttestationResetResponse"*), void (%"class.enterprise_connectors::AttestationResetResponse"*, %"class.enterprise_connectors::AttestationResetResponse"*)* @_ZN21enterprise_connectors24AttestationResetResponseC2ERKS0_
@_ZN21enterprise_connectors24AttestationResetResponseD1Ev = hidden unnamed_addr alias void (%"class.enterprise_connectors::AttestationResetResponse"*), void (%"class.enterprise_connectors::AttestationResetResponse"*)* @_ZN21enterprise_connectors24AttestationResetResponseD2Ev
@_ZN21enterprise_connectors9ChallengeC1EPN6google8protobuf5ArenaE = hidden unnamed_addr alias void (%"class.enterprise_connectors::Challenge"*, %"class.google::protobuf::Arena"*), void (%"class.enterprise_connectors::Challenge"*, %"class.google::protobuf::Arena"*)* @_ZN21enterprise_connectors9ChallengeC2EPN6google8protobuf5ArenaE
@_ZN21enterprise_connectors9ChallengeC1ERKS0_ = hidden unnamed_addr alias void (%"class.enterprise_connectors::Challenge"*, %"class.enterprise_connectors::Challenge"*), void (%"class.enterprise_connectors::Challenge"*, %"class.enterprise_connectors::Challenge"*)* @_ZN21enterprise_connectors9ChallengeC2ERKS0_
@_ZN21enterprise_connectors9ChallengeD1Ev = hidden unnamed_addr alias void (%"class.enterprise_connectors::Challenge"*), void (%"class.enterprise_connectors::Challenge"*)* @_ZN21enterprise_connectors9ChallengeD2Ev
@_ZN21enterprise_connectors17ChallengeResponseC1EPN6google8protobuf5ArenaE = hidden unnamed_addr alias void (%"class.enterprise_connectors::ChallengeResponse"*, %"class.google::protobuf::Arena"*), void (%"class.enterprise_connectors::ChallengeResponse"*, %"class.google::protobuf::Arena"*)* @_ZN21enterprise_connectors17ChallengeResponseC2EPN6google8protobuf5ArenaE
@_ZN21enterprise_connectors17ChallengeResponseC1ERKS0_ = hidden unnamed_addr alias void (%"class.enterprise_connectors::ChallengeResponse"*, %"class.enterprise_connectors::ChallengeResponse"*), void (%"class.enterprise_connectors::ChallengeResponse"*, %"class.enterprise_connectors::ChallengeResponse"*)* @_ZN21enterprise_connectors17ChallengeResponseC2ERKS0_
@_ZN21enterprise_connectors17ChallengeResponseD1Ev = hidden unnamed_addr alias void (%"class.enterprise_connectors::ChallengeResponse"*), void (%"class.enterprise_connectors::ChallengeResponse"*)* @_ZN21enterprise_connectors17ChallengeResponseD2Ev
@_ZN21enterprise_connectors7KeyInfoC1EPN6google8protobuf5ArenaE = hidden unnamed_addr alias void (%"class.enterprise_connectors::KeyInfo"*, %"class.google::protobuf::Arena"*), void (%"class.enterprise_connectors::KeyInfo"*, %"class.google::protobuf::Arena"*)* @_ZN21enterprise_connectors7KeyInfoC2EPN6google8protobuf5ArenaE
@_ZN21enterprise_connectors7KeyInfoC1ERKS0_ = hidden unnamed_addr alias void (%"class.enterprise_connectors::KeyInfo"*, %"class.enterprise_connectors::KeyInfo"*), void (%"class.enterprise_connectors::KeyInfo"*, %"class.enterprise_connectors::KeyInfo"*)* @_ZN21enterprise_connectors7KeyInfoC2ERKS0_
@_ZN21enterprise_connectors7KeyInfoD1Ev = hidden unnamed_addr alias void (%"class.enterprise_connectors::KeyInfo"*), void (%"class.enterprise_connectors::KeyInfo"*)* @_ZN21enterprise_connectors7KeyInfoD2Ev
@_ZN21enterprise_connectors18DeviceTrustSignalsC1EPN6google8protobuf5ArenaE = hidden unnamed_addr alias void (%"class.enterprise_connectors::DeviceTrustSignals"*, %"class.google::protobuf::Arena"*), void (%"class.enterprise_connectors::DeviceTrustSignals"*, %"class.google::protobuf::Arena"*)* @_ZN21enterprise_connectors18DeviceTrustSignalsC2EPN6google8protobuf5ArenaE
@_ZN21enterprise_connectors18DeviceTrustSignalsC1ERKS0_ = hidden unnamed_addr alias void (%"class.enterprise_connectors::DeviceTrustSignals"*, %"class.enterprise_connectors::DeviceTrustSignals"*), void (%"class.enterprise_connectors::DeviceTrustSignals"*, %"class.enterprise_connectors::DeviceTrustSignals"*)* @_ZN21enterprise_connectors18DeviceTrustSignalsC2ERKS0_
@_ZN21enterprise_connectors18DeviceTrustSignalsD1Ev = hidden unnamed_addr alias void (%"class.enterprise_connectors::DeviceTrustSignals"*), void (%"class.enterprise_connectors::DeviceTrustSignals"*)* @_ZN21enterprise_connectors18DeviceTrustSignalsD2Ev

; Function Attrs: nounwind ssp uwtable
define internal void @_ZL92InitDefaultsscc_info_AttestationCertificateRequest_device_5ftrust_5fattestation_5fca_2eprotov() #0 {
  tail call void @_ZN6google8protobuf8internal13VerifyVersionEiiPKc(i32 3013000, i32 3013000, i8* getelementptr inbounds ([88 x i8], [88 x i8]* @.str, i64 0, i64 0)) #14
  store %"class.google::protobuf::Arena"* null, %"class.google::protobuf::Arena"** bitcast (i8* getelementptr inbounds (%"class.enterprise_connectors::AttestationCertificateRequestDefaultTypeInternal", %"class.enterprise_connectors::AttestationCertificateRequestDefaultTypeInternal"* @_ZN21enterprise_connectors48_AttestationCertificateRequest_default_instance_E, i64 0, i32 0, i32 0, i32 1, i64 0) to %"class.google::protobuf::Arena"**), align 8
  store i32 (...)** bitcast (i8** getelementptr inbounds ({ [16 x i8*] }, { [16 x i8*] }* @_ZTVN21enterprise_connectors29AttestationCertificateRequestE, i64 0, inrange i32 0, i64 2) to i32 (...)**), i32 (...)*** bitcast (%"class.enterprise_connectors::AttestationCertificateRequestDefaultTypeInternal"* @_ZN21enterprise_connectors48_AttestationCertificateRequest_default_instance_E to i32 (...)***), align 8
  tail call void @llvm.memset.p0i8.i64(i8* align 8 getelementptr inbounds (%"class.enterprise_connectors::AttestationCertificateRequestDefaultTypeInternal", %"class.enterprise_connectors::AttestationCertificateRequestDefaultTypeInternal"* @_ZN21enterprise_connectors48_AttestationCertificateRequest_default_instance_E, i64 0, i32 0, i32 0, i32 1, i64 8), i8 0, i64 16, i1 false) #14
  store i64 1, i64* bitcast (i8* getelementptr inbounds (%"class.enterprise_connectors::AttestationCertificateRequestDefaultTypeInternal", %"class.enterprise_connectors::AttestationCertificateRequestDefaultTypeInternal"* @_ZN21enterprise_connectors48_AttestationCertificateRequest_default_instance_E, i64 0, i32 0, i32 0, i32 1, i64 24) to i64*), align 8
  %1 = tail call { i32, i32 } asm sideeffect "rdtsc", "={ax},={dx},~{dirflag},~{fpsr},~{flags}"() #14, !srcloc !2
  %2 = extractvalue { i32, i32 } %1, 0
  %3 = extractvalue { i32, i32 } %1, 1
  %4 = zext i32 %3 to i64
  %5 = shl nuw i64 %4, 32
  %6 = zext i32 %2 to i64
  %7 = or i64 %5, %6
  %8 = add i64 %7, lshr (i64 ptrtoint (i8* getelementptr inbounds (%"class.enterprise_connectors::AttestationCertificateRequestDefaultTypeInternal", %"class.enterprise_connectors::AttestationCertificateRequestDefaultTypeInternal"* @_ZN21enterprise_connectors48_AttestationCertificateRequest_default_instance_E, i64 0, i32 0, i32 0, i32 1, i64 16) to i64), i64 12)
  store i64 %8, i64* bitcast (i8* getelementptr inbounds (%"class.enterprise_connectors::AttestationCertificateRequestDefaultTypeInternal", %"class.enterprise_connectors::AttestationCertificateRequestDefaultTypeInternal"* @_ZN21enterprise_connectors48_AttestationCertificateRequest_default_instance_E, i64 0, i32 0, i32 0, i32 1, i64 32) to i64*), align 8
  %9 = load i64, i64* bitcast (i8* getelementptr inbounds (%"class.enterprise_connectors::AttestationCertificateRequestDefaultTypeInternal", %"class.enterprise_connectors::AttestationCertificateRequestDefaultTypeInternal"* @_ZN21enterprise_connectors48_AttestationCertificateRequest_default_instance_E, i64 0, i32 0, i32 0, i32 1, i64 24) to i64*), align 8
  store i64 %9, i64* bitcast (i8* getelementptr inbounds (%"class.enterprise_connectors::AttestationCertificateRequestDefaultTypeInternal", %"class.enterprise_connectors::AttestationCertificateRequestDefaultTypeInternal"* @_ZN21enterprise_connectors48_AttestationCertificateRequest_default_instance_E, i64 0, i32 0, i32 0, i32 1, i64 40) to i64*), align 8
  store i8** getelementptr inbounds ([1 x i8*], [1 x i8*]* @_ZN6google8protobuf8internal17kGlobalEmptyTableE, i64 0, i64 0), i8*** bitcast (i8* getelementptr inbounds (%"class.enterprise_connectors::AttestationCertificateRequestDefaultTypeInternal", %"class.enterprise_connectors::AttestationCertificateRequestDefaultTypeInternal"* @_ZN21enterprise_connectors48_AttestationCertificateRequest_default_instance_E, i64 0, i32 0, i32 0, i32 1, i64 48) to i8***), align 8
  store %"class.google::protobuf::Arena"* null, %"class.google::protobuf::Arena"** bitcast (i8* getelementptr inbounds (%"class.enterprise_connectors::AttestationCertificateRequestDefaultTypeInternal", %"class.enterprise_connectors::AttestationCertificateRequestDefaultTypeInternal"* @_ZN21enterprise_connectors48_AttestationCertificateRequest_default_instance_E, i64 0, i32 0, i32 0, i32 1, i64 56) to %"class.google::protobuf::Arena"**), align 8
  %10 = load atomic i32, i32* getelementptr inbounds ({ { { { i32 } }, i32, i32, void ()* }, [1 x i8*] }, { { { { i32 } }, i32, i32, void ()* }, [1 x i8*] }* @scc_info_AttestationCertificateRequest_device_5ftrust_5fattestation_5fca_2eproto, i64 0, i32 0, i32 0, i32 0, i32 0) acquire, align 8
  %11 = icmp eq i32 %10, 0
  br i1 %11, label %13, label %12, !prof !3

12:                                               ; preds = %0
  tail call void @_ZN6google8protobuf8internal11InitSCCImplEPNS1_11SCCInfoBaseE(%"struct.google::protobuf::internal::SCCInfoBase"* bitcast ({ { { { i32 } }, i32, i32, void ()* }, [1 x i8*] }* @scc_info_AttestationCertificateRequest_device_5ftrust_5fattestation_5fca_2eproto to %"struct.google::protobuf::internal::SCCInfoBase"*)) #14
  br label %13

13:                                               ; preds = %0, %12
  store <2 x %"class.std::__1::basic_string"*> <%"class.std::__1::basic_string"* bitcast (%"class.google::protobuf::internal::ExplicitlyConstructed.18"* @_ZN6google8protobuf8internal26fixed_address_empty_stringE to %"class.std::__1::basic_string"*), %"class.std::__1::basic_string"* bitcast (%"class.google::protobuf::internal::ExplicitlyConstructed.18"* @_ZN6google8protobuf8internal26fixed_address_empty_stringE to %"class.std::__1::basic_string"*)>, <2 x %"class.std::__1::basic_string"*>* bitcast (i8* getelementptr inbounds (%"class.enterprise_connectors::AttestationCertificateRequestDefaultTypeInternal", %"class.enterprise_connectors::AttestationCertificateRequestDefaultTypeInternal"* @_ZN21enterprise_connectors48_AttestationCertificateRequest_default_instance_E, i64 0, i32 0, i32 0, i32 1, i64 64) to <2 x %"class.std::__1::basic_string"*>*), align 8
  store <2 x %"class.std::__1::basic_string"*> <%"class.std::__1::basic_string"* bitcast (%"class.google::protobuf::internal::ExplicitlyConstructed.18"* @_ZN6google8protobuf8internal26fixed_address_empty_stringE to %"class.std::__1::basic_string"*), %"class.std::__1::basic_string"* bitcast (%"class.google::protobuf::internal::ExplicitlyConstructed.18"* @_ZN6google8protobuf8internal26fixed_address_empty_stringE to %"class.std::__1::basic_string"*)>, <2 x %"class.std::__1::basic_string"*>* bitcast (i8* getelementptr inbounds (%"class.enterprise_connectors::AttestationCertificateRequestDefaultTypeInternal", %"class.enterprise_connectors::AttestationCertificateRequestDefaultTypeInternal"* @_ZN21enterprise_connectors48_AttestationCertificateRequest_default_instance_E, i64 0, i32 0, i32 0, i32 1, i64 80) to <2 x %"class.std::__1::basic_string"*>*), align 8
  store <2 x %"class.std::__1::basic_string"*> <%"class.std::__1::basic_string"* bitcast (%"class.google::protobuf::internal::ExplicitlyConstructed.18"* @_ZN6google8protobuf8internal26fixed_address_empty_stringE to %"class.std::__1::basic_string"*), %"class.std::__1::basic_string"* bitcast (%"class.google::protobuf::internal::ExplicitlyConstructed.18"* @_ZN6google8protobuf8internal26fixed_address_empty_stringE to %"class.std::__1::basic_string"*)>, <2 x %"class.std::__1::basic_string"*>* bitcast (i8* getelementptr inbounds (%"class.enterprise_connectors::AttestationCertificateRequestDefaultTypeInternal", %"class.enterprise_connectors::AttestationCertificateRequestDefaultTypeInternal"* @_ZN21enterprise_connectors48_AttestationCertificateRequest_default_instance_E, i64 0, i32 0, i32 0, i32 1, i64 96) to <2 x %"class.std::__1::basic_string"*>*), align 8
  store i64 0, i64* bitcast (i8* getelementptr inbounds (%"class.enterprise_connectors::AttestationCertificateRequestDefaultTypeInternal", %"class.enterprise_connectors::AttestationCertificateRequestDefaultTypeInternal"* @_ZN21enterprise_connectors48_AttestationCertificateRequest_default_instance_E, i64 0, i32 0, i32 0, i32 1, i64 112) to i64*), align 8
  store i32 1, i32* bitcast (i8* getelementptr inbounds (%"class.enterprise_connectors::AttestationCertificateRequestDefaultTypeInternal", %"class.enterprise_connectors::AttestationCertificateRequestDefaultTypeInternal"* @_ZN21enterprise_connectors48_AttestationCertificateRequest_default_instance_E, i64 0, i32 0, i32 0, i32 1, i64 120) to i32*), align 8
  tail call void @_ZN6google8protobuf8internal13OnShutdownRunEPFvPKvES3_(void (i8*)* nonnull @_ZN6google8protobuf8internal14DestroyMessageEPKv, i8* bitcast (%"class.enterprise_connectors::AttestationCertificateRequestDefaultTypeInternal"* @_ZN21enterprise_connectors48_AttestationCertificateRequest_default_instance_E to i8*)) #14
  ret void
}

; Function Attrs: nounwind ssp uwtable
define internal void @_ZL118InitDefaultsscc_info_AttestationCertificateRequest_NvramQuotesEntry_DoNotUse_device_5ftrust_5fattestation_5fca_2eprotov() #0 {
  tail call void @_ZN6google8protobuf8internal13VerifyVersionEiiPKc(i32 3013000, i32 3013000, i8* getelementptr inbounds ([88 x i8], [88 x i8]* @.str, i64 0, i64 0)) #14
  store i8* null, i8** bitcast (i8* getelementptr inbounds (%"class.enterprise_connectors::AttestationCertificateRequest_NvramQuotesEntry_DoNotUseDefaultTypeInternal", %"class.enterprise_connectors::AttestationCertificateRequest_NvramQuotesEntry_DoNotUseDefaultTypeInternal"* @_ZN21enterprise_connectors74_AttestationCertificateRequest_NvramQuotesEntry_DoNotUse_default_instance_E, i64 0, i32 0, i32 0, i32 1, i64 0) to i8**), align 8
  store i32 0, i32* bitcast (i8* getelementptr inbounds (%"class.enterprise_connectors::AttestationCertificateRequest_NvramQuotesEntry_DoNotUseDefaultTypeInternal", %"class.enterprise_connectors::AttestationCertificateRequest_NvramQuotesEntry_DoNotUseDefaultTypeInternal"* @_ZN21enterprise_connectors74_AttestationCertificateRequest_NvramQuotesEntry_DoNotUse_default_instance_E, i64 0, i32 0, i32 0, i32 1, i64 8) to i32*), align 8
  store %"class.enterprise_connectors::Quote"* null, %"class.enterprise_connectors::Quote"** bitcast (i8* getelementptr inbounds (%"class.enterprise_connectors::AttestationCertificateRequest_NvramQuotesEntry_DoNotUseDefaultTypeInternal", %"class.enterprise_connectors::AttestationCertificateRequest_NvramQuotesEntry_DoNotUseDefaultTypeInternal"* @_ZN21enterprise_connectors74_AttestationCertificateRequest_NvramQuotesEntry_DoNotUse_default_instance_E, i64 0, i32 0, i32 0, i32 1, i64 16) to %"class.enterprise_connectors::Quote"**), align 8
  store i32 0, i32* bitcast (i8* getelementptr inbounds (%"class.enterprise_connectors::AttestationCertificateRequest_NvramQuotesEntry_DoNotUseDefaultTypeInternal", %"class.enterprise_connectors::AttestationCertificateRequest_NvramQuotesEntry_DoNotUseDefaultTypeInternal"* @_ZN21enterprise_connectors74_AttestationCertificateRequest_NvramQuotesEntry_DoNotUse_default_instance_E, i64 0, i32 0, i32 0, i32 1, i64 24) to i32*), align 8
  store i32 (...)** bitcast (i8** getelementptr inbounds ({ [18 x i8*] }, { [18 x i8*] }* @_ZTVN21enterprise_connectors55AttestationCertificateRequest_NvramQuotesEntry_DoNotUseE, i64 0, inrange i32 0, i64 2) to i32 (...)**), i32 (...)*** bitcast (%"class.enterprise_connectors::AttestationCertificateRequest_NvramQuotesEntry_DoNotUseDefaultTypeInternal"* @_ZN21enterprise_connectors74_AttestationCertificateRequest_NvramQuotesEntry_DoNotUse_default_instance_E to i32 (...)***), align 8
  ret void
}

; Function Attrs: nounwind ssp uwtable
define internal void @_ZL93InitDefaultsscc_info_AttestationCertificateResponse_device_5ftrust_5fattestation_5fca_2eprotov() #0 {
  tail call void @_ZN6google8protobuf8internal13VerifyVersionEiiPKc(i32 3013000, i32 3013000, i8* getelementptr inbounds ([88 x i8], [88 x i8]* @.str, i64 0, i64 0)) #14
  store %"class.google::protobuf::Arena"* null, %"class.google::protobuf::Arena"** bitcast (i8* getelementptr inbounds (%"class.enterprise_connectors::AttestationCertificateResponseDefaultTypeInternal", %"class.enterprise_connectors::AttestationCertificateResponseDefaultTypeInternal"* @_ZN21enterprise_connectors49_AttestationCertificateResponse_default_instance_E, i64 0, i32 0, i32 0, i32 1, i64 0) to %"class.google::protobuf::Arena"**), align 8
  store i32 (...)** bitcast (i8** getelementptr inbounds ({ [16 x i8*] }, { [16 x i8*] }* @_ZTVN21enterprise_connectors30AttestationCertificateResponseE, i64 0, inrange i32 0, i64 2) to i32 (...)**), i32 (...)*** bitcast (%"class.enterprise_connectors::AttestationCertificateResponseDefaultTypeInternal"* @_ZN21enterprise_connectors49_AttestationCertificateResponse_default_instance_E to i32 (...)***), align 8
  tail call void @llvm.memset.p0i8.i64(i8* align 8 getelementptr inbounds (%"class.enterprise_connectors::AttestationCertificateResponseDefaultTypeInternal", %"class.enterprise_connectors::AttestationCertificateResponseDefaultTypeInternal"* @_ZN21enterprise_connectors49_AttestationCertificateResponse_default_instance_E, i64 0, i32 0, i32 0, i32 1, i64 8), i8 0, i64 32, i1 false) #14
  %1 = load atomic i32, i32* getelementptr inbounds ({ { { { i32 } }, i32, i32, void ()* }, [0 x i8*] }, { { { { i32 } }, i32, i32, void ()* }, [0 x i8*] }* @scc_info_AttestationCertificateResponse_device_5ftrust_5fattestation_5fca_2eproto, i64 0, i32 0, i32 0, i32 0, i32 0) acquire, align 8
  %2 = icmp eq i32 %1, 0
  br i1 %2, label %4, label %3, !prof !3

3:                                                ; preds = %0
  tail call void @_ZN6google8protobuf8internal11InitSCCImplEPNS1_11SCCInfoBaseE(%"struct.google::protobuf::internal::SCCInfoBase"* bitcast ({ { { { i32 } }, i32, i32, void ()* }, [0 x i8*] }* @scc_info_AttestationCertificateResponse_device_5ftrust_5fattestation_5fca_2eproto to %"struct.google::protobuf::internal::SCCInfoBase"*)) #14
  br label %4

4:                                                ; preds = %0, %3
  store <2 x %"class.std::__1::basic_string"*> <%"class.std::__1::basic_string"* bitcast (%"class.google::protobuf::internal::ExplicitlyConstructed.18"* @_ZN6google8protobuf8internal26fixed_address_empty_stringE to %"class.std::__1::basic_string"*), %"class.std::__1::basic_string"* bitcast (%"class.google::protobuf::internal::ExplicitlyConstructed.18"* @_ZN6google8protobuf8internal26fixed_address_empty_stringE to %"class.std::__1::basic_string"*)>, <2 x %"class.std::__1::basic_string"*>* bitcast (i8* getelementptr inbounds (%"class.enterprise_connectors::AttestationCertificateResponseDefaultTypeInternal", %"class.enterprise_connectors::AttestationCertificateResponseDefaultTypeInternal"* @_ZN21enterprise_connectors49_AttestationCertificateResponse_default_instance_E, i64 0, i32 0, i32 0, i32 1, i64 40) to <2 x %"class.std::__1::basic_string"*>*), align 8
  store <2 x %"class.std::__1::basic_string"*> <%"class.std::__1::basic_string"* bitcast (%"class.google::protobuf::internal::ExplicitlyConstructed.18"* @_ZN6google8protobuf8internal26fixed_address_empty_stringE to %"class.std::__1::basic_string"*), %"class.std::__1::basic_string"* bitcast (%"class.google::protobuf::internal::ExplicitlyConstructed.18"* @_ZN6google8protobuf8internal26fixed_address_empty_stringE to %"class.std::__1::basic_string"*)>, <2 x %"class.std::__1::basic_string"*>* bitcast (i8* getelementptr inbounds (%"class.enterprise_connectors::AttestationCertificateResponseDefaultTypeInternal", %"class.enterprise_connectors::AttestationCertificateResponseDefaultTypeInternal"* @_ZN21enterprise_connectors49_AttestationCertificateResponse_default_instance_E, i64 0, i32 0, i32 0, i32 1, i64 56) to <2 x %"class.std::__1::basic_string"*>*), align 8
  store %"class.std::__1::basic_string"* bitcast (%"class.google::protobuf::internal::ExplicitlyConstructed.18"* @_ZN6google8protobuf8internal26fixed_address_empty_stringE to %"class.std::__1::basic_string"*), %"class.std::__1::basic_string"** bitcast (i8* getelementptr inbounds (%"class.enterprise_connectors::AttestationCertificateResponseDefaultTypeInternal", %"class.enterprise_connectors::AttestationCertificateResponseDefaultTypeInternal"* @_ZN21enterprise_connectors49_AttestationCertificateResponse_default_instance_E, i64 0, i32 0, i32 0, i32 1, i64 72) to %"class.std::__1::basic_string"**), align 8
  store i32 0, i32* bitcast (i8* getelementptr inbounds (%"class.enterprise_connectors::AttestationCertificateResponseDefaultTypeInternal", %"class.enterprise_connectors::AttestationCertificateResponseDefaultTypeInternal"* @_ZN21enterprise_connectors49_AttestationCertificateResponse_default_instance_E, i64 0, i32 0, i32 0, i32 1, i64 80) to i32*), align 8
  tail call void @_ZN6google8protobuf8internal13OnShutdownRunEPFvPKvES3_(void (i8*)* nonnull @_ZN6google8protobuf8internal14DestroyMessageEPKv, i8* bitcast (%"class.enterprise_connectors::AttestationCertificateResponseDefaultTypeInternal"* @_ZN21enterprise_connectors49_AttestationCertificateResponse_default_instance_E to i8*)) #14
  ret void
}

; Function Attrs: nounwind ssp uwtable
define internal void @_ZL91InitDefaultsscc_info_AttestationEnrollmentRequest_device_5ftrust_5fattestation_5fca_2eprotov() #0 {
  tail call void @_ZN6google8protobuf8internal13VerifyVersionEiiPKc(i32 3013000, i32 3013000, i8* getelementptr inbounds ([88 x i8], [88 x i8]* @.str, i64 0, i64 0)) #14
  store %"class.google::protobuf::Arena"* null, %"class.google::protobuf::Arena"** bitcast (i8* getelementptr inbounds (%"class.enterprise_connectors::AttestationEnrollmentRequestDefaultTypeInternal", %"class.enterprise_connectors::AttestationEnrollmentRequestDefaultTypeInternal"* @_ZN21enterprise_connectors47_AttestationEnrollmentRequest_default_instance_E, i64 0, i32 0, i32 0, i32 1, i64 0) to %"class.google::protobuf::Arena"**), align 8
  store i32 (...)** bitcast (i8** getelementptr inbounds ({ [16 x i8*] }, { [16 x i8*] }* @_ZTVN21enterprise_connectors28AttestationEnrollmentRequestE, i64 0, inrange i32 0, i64 2) to i32 (...)**), i32 (...)*** bitcast (%"class.enterprise_connectors::AttestationEnrollmentRequestDefaultTypeInternal"* @_ZN21enterprise_connectors47_AttestationEnrollmentRequest_default_instance_E to i32 (...)***), align 8
  store i32 0, i32* bitcast (i8* getelementptr inbounds (%"class.enterprise_connectors::AttestationEnrollmentRequestDefaultTypeInternal", %"class.enterprise_connectors::AttestationEnrollmentRequestDefaultTypeInternal"* @_ZN21enterprise_connectors47_AttestationEnrollmentRequest_default_instance_E, i64 0, i32 0, i32 0, i32 1, i64 8) to i32*), align 8
  store i32 0, i32* bitcast (i8* getelementptr inbounds (%"class.enterprise_connectors::AttestationEnrollmentRequestDefaultTypeInternal", %"class.enterprise_connectors::AttestationEnrollmentRequestDefaultTypeInternal"* @_ZN21enterprise_connectors47_AttestationEnrollmentRequest_default_instance_E, i64 0, i32 0, i32 0, i32 1, i64 12) to i32*), align 4
  %1 = load atomic i32, i32* getelementptr inbounds ({ { { { i32 } }, i32, i32, void ()* }, [2 x i8*] }, { { { { i32 } }, i32, i32, void ()* }, [2 x i8*] }* @scc_info_AttestationEnrollmentRequest_device_5ftrust_5fattestation_5fca_2eproto, i64 0, i32 0, i32 0, i32 0, i32 0) acquire, align 8
  %2 = icmp eq i32 %1, 0
  br i1 %2, label %4, label %3, !prof !3

3:                                                ; preds = %0
  tail call void @_ZN6google8protobuf8internal11InitSCCImplEPNS1_11SCCInfoBaseE(%"struct.google::protobuf::internal::SCCInfoBase"* bitcast ({ { { { i32 } }, i32, i32, void ()* }, [2 x i8*] }* @scc_info_AttestationEnrollmentRequest_device_5ftrust_5fattestation_5fca_2eproto to %"struct.google::protobuf::internal::SCCInfoBase"*)) #14
  br label %4

4:                                                ; preds = %0, %3
  store <2 x %"class.std::__1::basic_string"*> <%"class.std::__1::basic_string"* bitcast (%"class.google::protobuf::internal::ExplicitlyConstructed.18"* @_ZN6google8protobuf8internal26fixed_address_empty_stringE to %"class.std::__1::basic_string"*), %"class.std::__1::basic_string"* bitcast (%"class.google::protobuf::internal::ExplicitlyConstructed.18"* @_ZN6google8protobuf8internal26fixed_address_empty_stringE to %"class.std::__1::basic_string"*)>, <2 x %"class.std::__1::basic_string"*>* bitcast (i8* getelementptr inbounds (%"class.enterprise_connectors::AttestationEnrollmentRequestDefaultTypeInternal", %"class.enterprise_connectors::AttestationEnrollmentRequestDefaultTypeInternal"* @_ZN21enterprise_connectors47_AttestationEnrollmentRequest_default_instance_E, i64 0, i32 0, i32 0, i32 1, i64 16) to <2 x %"class.std::__1::basic_string"*>*), align 8
  tail call void @llvm.memset.p0i8.i64(i8* align 8 getelementptr inbounds (%"class.enterprise_connectors::AttestationEnrollmentRequestDefaultTypeInternal", %"class.enterprise_connectors::AttestationEnrollmentRequestDefaultTypeInternal"* @_ZN21enterprise_connectors47_AttestationEnrollmentRequest_default_instance_E, i64 0, i32 0, i32 0, i32 1, i64 32), i8 0, i64 32, i1 false) #14
  store i32 1, i32* bitcast (i8* getelementptr inbounds (%"class.enterprise_connectors::AttestationEnrollmentRequestDefaultTypeInternal", %"class.enterprise_connectors::AttestationEnrollmentRequestDefaultTypeInternal"* @_ZN21enterprise_connectors47_AttestationEnrollmentRequest_default_instance_E, i64 0, i32 0, i32 0, i32 1, i64 64) to i32*), align 8
  tail call void @_ZN6google8protobuf8internal13OnShutdownRunEPFvPKvES3_(void (i8*)* nonnull @_ZN6google8protobuf8internal14DestroyMessageEPKv, i8* bitcast (%"class.enterprise_connectors::AttestationEnrollmentRequestDefaultTypeInternal"* @_ZN21enterprise_connectors47_AttestationEnrollmentRequest_default_instance_E to i8*)) #14
  ret void
}

; Function Attrs: nounwind ssp uwtable
define internal void @_ZL92InitDefaultsscc_info_AttestationEnrollmentResponse_device_5ftrust_5fattestation_5fca_2eprotov() #0 {
  tail call void @_ZN6google8protobuf8internal13VerifyVersionEiiPKc(i32 3013000, i32 3013000, i8* getelementptr inbounds ([88 x i8], [88 x i8]* @.str, i64 0, i64 0)) #14
  store %"class.google::protobuf::Arena"* null, %"class.google::protobuf::Arena"** bitcast (i8* getelementptr inbounds (%"class.enterprise_connectors::AttestationEnrollmentResponseDefaultTypeInternal", %"class.enterprise_connectors::AttestationEnrollmentResponseDefaultTypeInternal"* @_ZN21enterprise_connectors48_AttestationEnrollmentResponse_default_instance_E, i64 0, i32 0, i32 0, i32 1, i64 0) to %"class.google::protobuf::Arena"**), align 8
  store i32 (...)** bitcast (i8** getelementptr inbounds ({ [16 x i8*] }, { [16 x i8*] }* @_ZTVN21enterprise_connectors29AttestationEnrollmentResponseE, i64 0, inrange i32 0, i64 2) to i32 (...)**), i32 (...)*** bitcast (%"class.enterprise_connectors::AttestationEnrollmentResponseDefaultTypeInternal"* @_ZN21enterprise_connectors48_AttestationEnrollmentResponse_default_instance_E to i32 (...)***), align 8
  store i32 0, i32* bitcast (i8* getelementptr inbounds (%"class.enterprise_connectors::AttestationEnrollmentResponseDefaultTypeInternal", %"class.enterprise_connectors::AttestationEnrollmentResponseDefaultTypeInternal"* @_ZN21enterprise_connectors48_AttestationEnrollmentResponse_default_instance_E, i64 0, i32 0, i32 0, i32 1, i64 8) to i32*), align 8
  store i32 0, i32* bitcast (i8* getelementptr inbounds (%"class.enterprise_connectors::AttestationEnrollmentResponseDefaultTypeInternal", %"class.enterprise_connectors::AttestationEnrollmentResponseDefaultTypeInternal"* @_ZN21enterprise_connectors48_AttestationEnrollmentResponse_default_instance_E, i64 0, i32 0, i32 0, i32 1, i64 12) to i32*), align 4
  %1 = load atomic i32, i32* getelementptr inbounds ({ { { { i32 } }, i32, i32, void ()* }, [1 x i8*] }, { { { { i32 } }, i32, i32, void ()* }, [1 x i8*] }* @scc_info_AttestationEnrollmentResponse_device_5ftrust_5fattestation_5fca_2eproto, i64 0, i32 0, i32 0, i32 0, i32 0) acquire, align 8
  %2 = icmp eq i32 %1, 0
  br i1 %2, label %4, label %3, !prof !3

3:                                                ; preds = %0
  tail call void @_ZN6google8protobuf8internal11InitSCCImplEPNS1_11SCCInfoBaseE(%"struct.google::protobuf::internal::SCCInfoBase"* bitcast ({ { { { i32 } }, i32, i32, void ()* }, [1 x i8*] }* @scc_info_AttestationEnrollmentResponse_device_5ftrust_5fattestation_5fca_2eproto to %"struct.google::protobuf::internal::SCCInfoBase"*)) #14
  br label %4

4:                                                ; preds = %0, %3
  store <2 x %"class.std::__1::basic_string"*> <%"class.std::__1::basic_string"* bitcast (%"class.google::protobuf::internal::ExplicitlyConstructed.18"* @_ZN6google8protobuf8internal26fixed_address_empty_stringE to %"class.std::__1::basic_string"*), %"class.std::__1::basic_string"* bitcast (%"class.google::protobuf::internal::ExplicitlyConstructed.18"* @_ZN6google8protobuf8internal26fixed_address_empty_stringE to %"class.std::__1::basic_string"*)>, <2 x %"class.std::__1::basic_string"*>* bitcast (i8* getelementptr inbounds (%"class.enterprise_connectors::AttestationEnrollmentResponseDefaultTypeInternal", %"class.enterprise_connectors::AttestationEnrollmentResponseDefaultTypeInternal"* @_ZN21enterprise_connectors48_AttestationEnrollmentResponse_default_instance_E, i64 0, i32 0, i32 0, i32 1, i64 16) to <2 x %"class.std::__1::basic_string"*>*), align 8
  tail call void @llvm.memset.p0i8.i64(i8* align 8 getelementptr inbounds (%"class.enterprise_connectors::AttestationEnrollmentResponseDefaultTypeInternal", %"class.enterprise_connectors::AttestationEnrollmentResponseDefaultTypeInternal"* @_ZN21enterprise_connectors48_AttestationEnrollmentResponse_default_instance_E, i64 0, i32 0, i32 0, i32 1, i64 32), i8 0, i64 12, i1 false) #14
  tail call void @_ZN6google8protobuf8internal13OnShutdownRunEPFvPKvES3_(void (i8*)* nonnull @_ZN6google8protobuf8internal14DestroyMessageEPKv, i8* bitcast (%"class.enterprise_connectors::AttestationEnrollmentResponseDefaultTypeInternal"* @_ZN21enterprise_connectors48_AttestationEnrollmentResponse_default_instance_E to i8*)) #14
  ret void
}

; Function Attrs: nounwind ssp uwtable
define internal void @_ZL86InitDefaultsscc_info_AttestationResetRequest_device_5ftrust_5fattestation_5fca_2eprotov() #0 {
  tail call void @_ZN6google8protobuf8internal13VerifyVersionEiiPKc(i32 3013000, i32 3013000, i8* getelementptr inbounds ([88 x i8], [88 x i8]* @.str, i64 0, i64 0)) #14
  store %"class.google::protobuf::Arena"* null, %"class.google::protobuf::Arena"** bitcast (i8* getelementptr inbounds (%"class.enterprise_connectors::AttestationResetRequestDefaultTypeInternal", %"class.enterprise_connectors::AttestationResetRequestDefaultTypeInternal"* @_ZN21enterprise_connectors42_AttestationResetRequest_default_instance_E, i64 0, i32 0, i32 0, i32 1, i64 0) to %"class.google::protobuf::Arena"**), align 8
  store i32 (...)** bitcast (i8** getelementptr inbounds ({ [16 x i8*] }, { [16 x i8*] }* @_ZTVN21enterprise_connectors23AttestationResetRequestE, i64 0, inrange i32 0, i64 2) to i32 (...)**), i32 (...)*** bitcast (%"class.enterprise_connectors::AttestationResetRequestDefaultTypeInternal"* @_ZN21enterprise_connectors42_AttestationResetRequest_default_instance_E to i32 (...)***), align 8
  store i32 0, i32* bitcast (i8* getelementptr inbounds (%"class.enterprise_connectors::AttestationResetRequestDefaultTypeInternal", %"class.enterprise_connectors::AttestationResetRequestDefaultTypeInternal"* @_ZN21enterprise_connectors42_AttestationResetRequest_default_instance_E, i64 0, i32 0, i32 0, i32 1, i64 8) to i32*), align 8
  store i32 0, i32* bitcast (i8* getelementptr inbounds (%"class.enterprise_connectors::AttestationResetRequestDefaultTypeInternal", %"class.enterprise_connectors::AttestationResetRequestDefaultTypeInternal"* @_ZN21enterprise_connectors42_AttestationResetRequest_default_instance_E, i64 0, i32 0, i32 0, i32 1, i64 12) to i32*), align 4
  %1 = load atomic i32, i32* getelementptr inbounds ({ { { { i32 } }, i32, i32, void ()* }, [1 x i8*] }, { { { { i32 } }, i32, i32, void ()* }, [1 x i8*] }* @scc_info_AttestationResetRequest_device_5ftrust_5fattestation_5fca_2eproto, i64 0, i32 0, i32 0, i32 0, i32 0) acquire, align 8
  %2 = icmp eq i32 %1, 0
  br i1 %2, label %4, label %3, !prof !3

3:                                                ; preds = %0
  tail call void @_ZN6google8protobuf8internal11InitSCCImplEPNS1_11SCCInfoBaseE(%"struct.google::protobuf::internal::SCCInfoBase"* bitcast ({ { { { i32 } }, i32, i32, void ()* }, [1 x i8*] }* @scc_info_AttestationResetRequest_device_5ftrust_5fattestation_5fca_2eproto to %"struct.google::protobuf::internal::SCCInfoBase"*)) #14
  br label %4

4:                                                ; preds = %0, %3
  store %"class.std::__1::basic_string"* bitcast (%"class.google::protobuf::internal::ExplicitlyConstructed.18"* @_ZN6google8protobuf8internal26fixed_address_empty_stringE to %"class.std::__1::basic_string"*), %"class.std::__1::basic_string"** bitcast (i8* getelementptr inbounds (%"class.enterprise_connectors::AttestationResetRequestDefaultTypeInternal", %"class.enterprise_connectors::AttestationResetRequestDefaultTypeInternal"* @_ZN21enterprise_connectors42_AttestationResetRequest_default_instance_E, i64 0, i32 0, i32 0, i32 1, i64 16) to %"class.std::__1::basic_string"**), align 8
  tail call void @llvm.memset.p0i8.i64(i8* align 8 getelementptr inbounds (%"class.enterprise_connectors::AttestationResetRequestDefaultTypeInternal", %"class.enterprise_connectors::AttestationResetRequestDefaultTypeInternal"* @_ZN21enterprise_connectors42_AttestationResetRequest_default_instance_E, i64 0, i32 0, i32 0, i32 1, i64 24), i8 0, i64 16, i1 false) #14
  tail call void @_ZN6google8protobuf8internal13OnShutdownRunEPFvPKvES3_(void (i8*)* nonnull @_ZN6google8protobuf8internal14DestroyMessageEPKv, i8* bitcast (%"class.enterprise_connectors::AttestationResetRequestDefaultTypeInternal"* @_ZN21enterprise_connectors42_AttestationResetRequest_default_instance_E to i8*)) #14
  ret void
}

; Function Attrs: nounwind ssp uwtable
define internal void @_ZL87InitDefaultsscc_info_AttestationResetResponse_device_5ftrust_5fattestation_5fca_2eprotov() #0 {
  tail call void @_ZN6google8protobuf8internal13VerifyVersionEiiPKc(i32 3013000, i32 3013000, i8* getelementptr inbounds ([88 x i8], [88 x i8]* @.str, i64 0, i64 0)) #14
  store %"class.google::protobuf::Arena"* null, %"class.google::protobuf::Arena"** bitcast (i8* getelementptr inbounds (%"class.enterprise_connectors::AttestationResetResponseDefaultTypeInternal", %"class.enterprise_connectors::AttestationResetResponseDefaultTypeInternal"* @_ZN21enterprise_connectors43_AttestationResetResponse_default_instance_E, i64 0, i32 0, i32 0, i32 1, i64 0) to %"class.google::protobuf::Arena"**), align 8
  store i32 (...)** bitcast (i8** getelementptr inbounds ({ [16 x i8*] }, { [16 x i8*] }* @_ZTVN21enterprise_connectors24AttestationResetResponseE, i64 0, inrange i32 0, i64 2) to i32 (...)**), i32 (...)*** bitcast (%"class.enterprise_connectors::AttestationResetResponseDefaultTypeInternal"* @_ZN21enterprise_connectors43_AttestationResetResponse_default_instance_E to i32 (...)***), align 8
  store i32 0, i32* bitcast (i8* getelementptr inbounds (%"class.enterprise_connectors::AttestationResetResponseDefaultTypeInternal", %"class.enterprise_connectors::AttestationResetResponseDefaultTypeInternal"* @_ZN21enterprise_connectors43_AttestationResetResponse_default_instance_E, i64 0, i32 0, i32 0, i32 1, i64 8) to i32*), align 8
  store i32 0, i32* bitcast (i8* getelementptr inbounds (%"class.enterprise_connectors::AttestationResetResponseDefaultTypeInternal", %"class.enterprise_connectors::AttestationResetResponseDefaultTypeInternal"* @_ZN21enterprise_connectors43_AttestationResetResponse_default_instance_E, i64 0, i32 0, i32 0, i32 1, i64 12) to i32*), align 4
  %1 = load atomic i32, i32* getelementptr inbounds ({ { { { i32 } }, i32, i32, void ()* }, [0 x i8*] }, { { { { i32 } }, i32, i32, void ()* }, [0 x i8*] }* @scc_info_AttestationResetResponse_device_5ftrust_5fattestation_5fca_2eproto, i64 0, i32 0, i32 0, i32 0, i32 0) acquire, align 8
  %2 = icmp eq i32 %1, 0
  br i1 %2, label %4, label %3, !prof !3

3:                                                ; preds = %0
  tail call void @_ZN6google8protobuf8internal11InitSCCImplEPNS1_11SCCInfoBaseE(%"struct.google::protobuf::internal::SCCInfoBase"* bitcast ({ { { { i32 } }, i32, i32, void ()* }, [0 x i8*] }* @scc_info_AttestationResetResponse_device_5ftrust_5fattestation_5fca_2eproto to %"struct.google::protobuf::internal::SCCInfoBase"*)) #14
  br label %4

4:                                                ; preds = %0, %3
  store <2 x %"class.std::__1::basic_string"*> <%"class.std::__1::basic_string"* bitcast (%"class.google::protobuf::internal::ExplicitlyConstructed.18"* @_ZN6google8protobuf8internal26fixed_address_empty_stringE to %"class.std::__1::basic_string"*), %"class.std::__1::basic_string"* bitcast (%"class.google::protobuf::internal::ExplicitlyConstructed.18"* @_ZN6google8protobuf8internal26fixed_address_empty_stringE to %"class.std::__1::basic_string"*)>, <2 x %"class.std::__1::basic_string"*>* bitcast (i8* getelementptr inbounds (%"class.enterprise_connectors::AttestationResetResponseDefaultTypeInternal", %"class.enterprise_connectors::AttestationResetResponseDefaultTypeInternal"* @_ZN21enterprise_connectors43_AttestationResetResponse_default_instance_E, i64 0, i32 0, i32 0, i32 1, i64 16) to <2 x %"class.std::__1::basic_string"*>*), align 8
  store i32 0, i32* bitcast (i8* getelementptr inbounds (%"class.enterprise_connectors::AttestationResetResponseDefaultTypeInternal", %"class.enterprise_connectors::AttestationResetResponseDefaultTypeInternal"* @_ZN21enterprise_connectors43_AttestationResetResponse_default_instance_E, i64 0, i32 0, i32 0, i32 1, i64 32) to i32*), align 8
  tail call void @_ZN6google8protobuf8internal13OnShutdownRunEPFvPKvES3_(void (i8*)* nonnull @_ZN6google8protobuf8internal14DestroyMessageEPKv, i8* bitcast (%"class.enterprise_connectors::AttestationResetResponseDefaultTypeInternal"* @_ZN21enterprise_connectors43_AttestationResetResponse_default_instance_E to i8*)) #14
  ret void
}

; Function Attrs: nounwind ssp uwtable
define internal void @_ZL72InitDefaultsscc_info_Challenge_device_5ftrust_5fattestation_5fca_2eprotov() #0 {
  tail call void @_ZN6google8protobuf8internal13VerifyVersionEiiPKc(i32 3013000, i32 3013000, i8* getelementptr inbounds ([88 x i8], [88 x i8]* @.str, i64 0, i64 0)) #14
  store %"class.google::protobuf::Arena"* null, %"class.google::protobuf::Arena"** bitcast (i8* getelementptr inbounds (%"class.enterprise_connectors::ChallengeDefaultTypeInternal", %"class.enterprise_connectors::ChallengeDefaultTypeInternal"* @_ZN21enterprise_connectors28_Challenge_default_instance_E, i64 0, i32 0, i32 0, i32 1, i64 0) to %"class.google::protobuf::Arena"**), align 8
  store i32 (...)** bitcast (i8** getelementptr inbounds ({ [16 x i8*] }, { [16 x i8*] }* @_ZTVN21enterprise_connectors9ChallengeE, i64 0, inrange i32 0, i64 2) to i32 (...)**), i32 (...)*** bitcast (%"class.enterprise_connectors::ChallengeDefaultTypeInternal"* @_ZN21enterprise_connectors28_Challenge_default_instance_E to i32 (...)***), align 8
  store i32 0, i32* bitcast (i8* getelementptr inbounds (%"class.enterprise_connectors::ChallengeDefaultTypeInternal", %"class.enterprise_connectors::ChallengeDefaultTypeInternal"* @_ZN21enterprise_connectors28_Challenge_default_instance_E, i64 0, i32 0, i32 0, i32 1, i64 8) to i32*), align 8
  store i32 0, i32* bitcast (i8* getelementptr inbounds (%"class.enterprise_connectors::ChallengeDefaultTypeInternal", %"class.enterprise_connectors::ChallengeDefaultTypeInternal"* @_ZN21enterprise_connectors28_Challenge_default_instance_E, i64 0, i32 0, i32 0, i32 1, i64 12) to i32*), align 4
  %1 = load atomic i32, i32* getelementptr inbounds ({ { { { i32 } }, i32, i32, void ()* }, [0 x i8*] }, { { { { i32 } }, i32, i32, void ()* }, [0 x i8*] }* @scc_info_Challenge_device_5ftrust_5fattestation_5fca_2eproto, i64 0, i32 0, i32 0, i32 0, i32 0) acquire, align 8
  %2 = icmp eq i32 %1, 0
  br i1 %2, label %4, label %3, !prof !3

3:                                                ; preds = %0
  tail call void @_ZN6google8protobuf8internal11InitSCCImplEPNS1_11SCCInfoBaseE(%"struct.google::protobuf::internal::SCCInfoBase"* bitcast ({ { { { i32 } }, i32, i32, void ()* }, [0 x i8*] }* @scc_info_Challenge_device_5ftrust_5fattestation_5fca_2eproto to %"struct.google::protobuf::internal::SCCInfoBase"*)) #14
  br label %4

4:                                                ; preds = %0, %3
  store <2 x %"class.std::__1::basic_string"*> <%"class.std::__1::basic_string"* bitcast (%"class.google::protobuf::internal::ExplicitlyConstructed.18"* @_ZN6google8protobuf8internal26fixed_address_empty_stringE to %"class.std::__1::basic_string"*), %"class.std::__1::basic_string"* bitcast (%"class.google::protobuf::internal::ExplicitlyConstructed.18"* @_ZN6google8protobuf8internal26fixed_address_empty_stringE to %"class.std::__1::basic_string"*)>, <2 x %"class.std::__1::basic_string"*>* bitcast (i8* getelementptr inbounds (%"class.enterprise_connectors::ChallengeDefaultTypeInternal", %"class.enterprise_connectors::ChallengeDefaultTypeInternal"* @_ZN21enterprise_connectors28_Challenge_default_instance_E, i64 0, i32 0, i32 0, i32 1, i64 16) to <2 x %"class.std::__1::basic_string"*>*), align 8
  store i64 0, i64* bitcast (i8* getelementptr inbounds (%"class.enterprise_connectors::ChallengeDefaultTypeInternal", %"class.enterprise_connectors::ChallengeDefaultTypeInternal"* @_ZN21enterprise_connectors28_Challenge_default_instance_E, i64 0, i32 0, i32 0, i32 1, i64 32) to i64*), align 8
  tail call void @_ZN6google8protobuf8internal13OnShutdownRunEPFvPKvES3_(void (i8*)* nonnull @_ZN6google8protobuf8internal14DestroyMessageEPKv, i8* bitcast (%"class.enterprise_connectors::ChallengeDefaultTypeInternal"* @_ZN21enterprise_connectors28_Challenge_default_instance_E to i8*)) #14
  ret void
}

; Function Attrs: nounwind ssp uwtable
define internal void @_ZL80InitDefaultsscc_info_ChallengeResponse_device_5ftrust_5fattestation_5fca_2eprotov() #0 {
  tail call void @_ZN6google8protobuf8internal13VerifyVersionEiiPKc(i32 3013000, i32 3013000, i8* getelementptr inbounds ([88 x i8], [88 x i8]* @.str, i64 0, i64 0)) #14
  store %"class.google::protobuf::Arena"* null, %"class.google::protobuf::Arena"** bitcast (i8* getelementptr inbounds (%"class.enterprise_connectors::ChallengeResponseDefaultTypeInternal", %"class.enterprise_connectors::ChallengeResponseDefaultTypeInternal"* @_ZN21enterprise_connectors36_ChallengeResponse_default_instance_E, i64 0, i32 0, i32 0, i32 1, i64 0) to %"class.google::protobuf::Arena"**), align 8
  store i32 (...)** bitcast (i8** getelementptr inbounds ({ [16 x i8*] }, { [16 x i8*] }* @_ZTVN21enterprise_connectors17ChallengeResponseE, i64 0, inrange i32 0, i64 2) to i32 (...)**), i32 (...)*** bitcast (%"class.enterprise_connectors::ChallengeResponseDefaultTypeInternal"* @_ZN21enterprise_connectors36_ChallengeResponse_default_instance_E to i32 (...)***), align 8
  store i32 0, i32* bitcast (i8* getelementptr inbounds (%"class.enterprise_connectors::ChallengeResponseDefaultTypeInternal", %"class.enterprise_connectors::ChallengeResponseDefaultTypeInternal"* @_ZN21enterprise_connectors36_ChallengeResponse_default_instance_E, i64 0, i32 0, i32 0, i32 1, i64 8) to i32*), align 8
  store i32 0, i32* bitcast (i8* getelementptr inbounds (%"class.enterprise_connectors::ChallengeResponseDefaultTypeInternal", %"class.enterprise_connectors::ChallengeResponseDefaultTypeInternal"* @_ZN21enterprise_connectors36_ChallengeResponse_default_instance_E, i64 0, i32 0, i32 0, i32 1, i64 12) to i32*), align 4
  %1 = load atomic i32, i32* getelementptr inbounds ({ { { { i32 } }, i32, i32, void ()* }, [2 x i8*] }, { { { { i32 } }, i32, i32, void ()* }, [2 x i8*] }* @scc_info_ChallengeResponse_device_5ftrust_5fattestation_5fca_2eproto, i64 0, i32 0, i32 0, i32 0, i32 0) acquire, align 8
  %2 = icmp eq i32 %1, 0
  br i1 %2, label %4, label %3, !prof !3

3:                                                ; preds = %0
  tail call void @_ZN6google8protobuf8internal11InitSCCImplEPNS1_11SCCInfoBaseE(%"struct.google::protobuf::internal::SCCInfoBase"* bitcast ({ { { { i32 } }, i32, i32, void ()* }, [2 x i8*] }* @scc_info_ChallengeResponse_device_5ftrust_5fattestation_5fca_2eproto to %"struct.google::protobuf::internal::SCCInfoBase"*)) #14
  br label %4

4:                                                ; preds = %0, %3
  store %"class.std::__1::basic_string"* bitcast (%"class.google::protobuf::internal::ExplicitlyConstructed.18"* @_ZN6google8protobuf8internal26fixed_address_empty_stringE to %"class.std::__1::basic_string"*), %"class.std::__1::basic_string"** bitcast (i8* getelementptr inbounds (%"class.enterprise_connectors::ChallengeResponseDefaultTypeInternal", %"class.enterprise_connectors::ChallengeResponseDefaultTypeInternal"* @_ZN21enterprise_connectors36_ChallengeResponse_default_instance_E, i64 0, i32 0, i32 0, i32 1, i64 16) to %"class.std::__1::basic_string"**), align 8
  tail call void @llvm.memset.p0i8.i64(i8* align 8 getelementptr inbounds (%"class.enterprise_connectors::ChallengeResponseDefaultTypeInternal", %"class.enterprise_connectors::ChallengeResponseDefaultTypeInternal"* @_ZN21enterprise_connectors36_ChallengeResponse_default_instance_E, i64 0, i32 0, i32 0, i32 1, i64 24), i8 0, i64 16, i1 false) #14
  tail call void @_ZN6google8protobuf8internal13OnShutdownRunEPFvPKvES3_(void (i8*)* nonnull @_ZN6google8protobuf8internal14DestroyMessageEPKv, i8* bitcast (%"class.enterprise_connectors::ChallengeResponseDefaultTypeInternal"* @_ZN21enterprise_connectors36_ChallengeResponse_default_instance_E to i8*)) #14
  ret void
}

; Function Attrs: nounwind ssp uwtable
define internal void @_ZL81InitDefaultsscc_info_DeviceTrustSignals_device_5ftrust_5fattestation_5fca_2eprotov() #0 {
  tail call void @_ZN6google8protobuf8internal13VerifyVersionEiiPKc(i32 3013000, i32 3013000, i8* getelementptr inbounds ([88 x i8], [88 x i8]* @.str, i64 0, i64 0)) #14
  store %"class.google::protobuf::Arena"* null, %"class.google::protobuf::Arena"** bitcast (i8* getelementptr inbounds (%"class.enterprise_connectors::DeviceTrustSignalsDefaultTypeInternal", %"class.enterprise_connectors::DeviceTrustSignalsDefaultTypeInternal"* @_ZN21enterprise_connectors37_DeviceTrustSignals_default_instance_E, i64 0, i32 0, i32 0, i32 1, i64 0) to %"class.google::protobuf::Arena"**), align 8
  store i32 (...)** bitcast (i8** getelementptr inbounds ({ [16 x i8*] }, { [16 x i8*] }* @_ZTVN21enterprise_connectors18DeviceTrustSignalsE, i64 0, inrange i32 0, i64 2) to i32 (...)**), i32 (...)*** bitcast (%"class.enterprise_connectors::DeviceTrustSignalsDefaultTypeInternal"* @_ZN21enterprise_connectors37_DeviceTrustSignals_default_instance_E to i32 (...)***), align 8
  store i32 0, i32* bitcast (i8* getelementptr inbounds (%"class.enterprise_connectors::DeviceTrustSignalsDefaultTypeInternal", %"class.enterprise_connectors::DeviceTrustSignalsDefaultTypeInternal"* @_ZN21enterprise_connectors37_DeviceTrustSignals_default_instance_E, i64 0, i32 0, i32 0, i32 1, i64 8) to i32*), align 8
  store i32 0, i32* bitcast (i8* getelementptr inbounds (%"class.enterprise_connectors::DeviceTrustSignalsDefaultTypeInternal", %"class.enterprise_connectors::DeviceTrustSignalsDefaultTypeInternal"* @_ZN21enterprise_connectors37_DeviceTrustSignals_default_instance_E, i64 0, i32 0, i32 0, i32 1, i64 12) to i32*), align 4
  %1 = load atomic i32, i32* getelementptr inbounds ({ { { { i32 } }, i32, i32, void ()* }, [0 x i8*] }, { { { { i32 } }, i32, i32, void ()* }, [0 x i8*] }* @scc_info_DeviceTrustSignals_device_5ftrust_5fattestation_5fca_2eproto, i64 0, i32 0, i32 0, i32 0, i32 0) acquire, align 8
  %2 = icmp eq i32 %1, 0
  br i1 %2, label %4, label %3, !prof !3

3:                                                ; preds = %0
  tail call void @_ZN6google8protobuf8internal11InitSCCImplEPNS1_11SCCInfoBaseE(%"struct.google::protobuf::internal::SCCInfoBase"* bitcast ({ { { { i32 } }, i32, i32, void ()* }, [0 x i8*] }* @scc_info_DeviceTrustSignals_device_5ftrust_5fattestation_5fca_2eproto to %"struct.google::protobuf::internal::SCCInfoBase"*)) #14
  br label %4

4:                                                ; preds = %0, %3
  store <2 x %"class.std::__1::basic_string"*> <%"class.std::__1::basic_string"* bitcast (%"class.google::protobuf::internal::ExplicitlyConstructed.18"* @_ZN6google8protobuf8internal26fixed_address_empty_stringE to %"class.std::__1::basic_string"*), %"class.std::__1::basic_string"* bitcast (%"class.google::protobuf::internal::ExplicitlyConstructed.18"* @_ZN6google8protobuf8internal26fixed_address_empty_stringE to %"class.std::__1::basic_string"*)>, <2 x %"class.std::__1::basic_string"*>* bitcast (i8* getelementptr inbounds (%"class.enterprise_connectors::DeviceTrustSignalsDefaultTypeInternal", %"class.enterprise_connectors::DeviceTrustSignalsDefaultTypeInternal"* @_ZN21enterprise_connectors37_DeviceTrustSignals_default_instance_E, i64 0, i32 0, i32 0, i32 1, i64 16) to <2 x %"class.std::__1::basic_string"*>*), align 8
  store <2 x %"class.std::__1::basic_string"*> <%"class.std::__1::basic_string"* bitcast (%"class.google::protobuf::internal::ExplicitlyConstructed.18"* @_ZN6google8protobuf8internal26fixed_address_empty_stringE to %"class.std::__1::basic_string"*), %"class.std::__1::basic_string"* bitcast (%"class.google::protobuf::internal::ExplicitlyConstructed.18"* @_ZN6google8protobuf8internal26fixed_address_empty_stringE to %"class.std::__1::basic_string"*)>, <2 x %"class.std::__1::basic_string"*>* bitcast (i8* getelementptr inbounds (%"class.enterprise_connectors::DeviceTrustSignalsDefaultTypeInternal", %"class.enterprise_connectors::DeviceTrustSignalsDefaultTypeInternal"* @_ZN21enterprise_connectors37_DeviceTrustSignals_default_instance_E, i64 0, i32 0, i32 0, i32 1, i64 32) to <2 x %"class.std::__1::basic_string"*>*), align 8
  store <2 x %"class.std::__1::basic_string"*> <%"class.std::__1::basic_string"* bitcast (%"class.google::protobuf::internal::ExplicitlyConstructed.18"* @_ZN6google8protobuf8internal26fixed_address_empty_stringE to %"class.std::__1::basic_string"*), %"class.std::__1::basic_string"* bitcast (%"class.google::protobuf::internal::ExplicitlyConstructed.18"* @_ZN6google8protobuf8internal26fixed_address_empty_stringE to %"class.std::__1::basic_string"*)>, <2 x %"class.std::__1::basic_string"*>* bitcast (i8* getelementptr inbounds (%"class.enterprise_connectors::DeviceTrustSignalsDefaultTypeInternal", %"class.enterprise_connectors::DeviceTrustSignalsDefaultTypeInternal"* @_ZN21enterprise_connectors37_DeviceTrustSignals_default_instance_E, i64 0, i32 0, i32 0, i32 1, i64 48) to <2 x %"class.std::__1::basic_string"*>*), align 8
  store <2 x %"class.std::__1::basic_string"*> <%"class.std::__1::basic_string"* bitcast (%"class.google::protobuf::internal::ExplicitlyConstructed.18"* @_ZN6google8protobuf8internal26fixed_address_empty_stringE to %"class.std::__1::basic_string"*), %"class.std::__1::basic_string"* bitcast (%"class.google::protobuf::internal::ExplicitlyConstructed.18"* @_ZN6google8protobuf8internal26fixed_address_empty_stringE to %"class.std::__1::basic_string"*)>, <2 x %"class.std::__1::basic_string"*>* bitcast (i8* getelementptr inbounds (%"class.enterprise_connectors::DeviceTrustSignalsDefaultTypeInternal", %"class.enterprise_connectors::DeviceTrustSignalsDefaultTypeInternal"* @_ZN21enterprise_connectors37_DeviceTrustSignals_default_instance_E, i64 0, i32 0, i32 0, i32 1, i64 64) to <2 x %"class.std::__1::basic_string"*>*), align 8
  store <2 x %"class.std::__1::basic_string"*> <%"class.std::__1::basic_string"* bitcast (%"class.google::protobuf::internal::ExplicitlyConstructed.18"* @_ZN6google8protobuf8internal26fixed_address_empty_stringE to %"class.std::__1::basic_string"*), %"class.std::__1::basic_string"* bitcast (%"class.google::protobuf::internal::ExplicitlyConstructed.18"* @_ZN6google8protobuf8internal26fixed_address_empty_stringE to %"class.std::__1::basic_string"*)>, <2 x %"class.std::__1::basic_string"*>* bitcast (i8* getelementptr inbounds (%"class.enterprise_connectors::DeviceTrustSignalsDefaultTypeInternal", %"class.enterprise_connectors::DeviceTrustSignalsDefaultTypeInternal"* @_ZN21enterprise_connectors37_DeviceTrustSignals_default_instance_E, i64 0, i32 0, i32 0, i32 1, i64 80) to <2 x %"class.std::__1::basic_string"*>*), align 8
  store <2 x %"class.std::__1::basic_string"*> <%"class.std::__1::basic_string"* bitcast (%"class.google::protobuf::internal::ExplicitlyConstructed.18"* @_ZN6google8protobuf8internal26fixed_address_empty_stringE to %"class.std::__1::basic_string"*), %"class.std::__1::basic_string"* bitcast (%"class.google::protobuf::internal::ExplicitlyConstructed.18"* @_ZN6google8protobuf8internal26fixed_address_empty_stringE to %"class.std::__1::basic_string"*)>, <2 x %"class.std::__1::basic_string"*>* bitcast (i8* getelementptr inbounds (%"class.enterprise_connectors::DeviceTrustSignalsDefaultTypeInternal", %"class.enterprise_connectors::DeviceTrustSignalsDefaultTypeInternal"* @_ZN21enterprise_connectors37_DeviceTrustSignals_default_instance_E, i64 0, i32 0, i32 0, i32 1, i64 96) to <2 x %"class.std::__1::basic_string"*>*), align 8
  store <2 x %"class.std::__1::basic_string"*> <%"class.std::__1::basic_string"* bitcast (%"class.google::protobuf::internal::ExplicitlyConstructed.18"* @_ZN6google8protobuf8internal26fixed_address_empty_stringE to %"class.std::__1::basic_string"*), %"class.std::__1::basic_string"* bitcast (%"class.google::protobuf::internal::ExplicitlyConstructed.18"* @_ZN6google8protobuf8internal26fixed_address_empty_stringE to %"class.std::__1::basic_string"*)>, <2 x %"class.std::__1::basic_string"*>* bitcast (i8* getelementptr inbounds (%"class.enterprise_connectors::DeviceTrustSignalsDefaultTypeInternal", %"class.enterprise_connectors::DeviceTrustSignalsDefaultTypeInternal"* @_ZN21enterprise_connectors37_DeviceTrustSignals_default_instance_E, i64 0, i32 0, i32 0, i32 1, i64 112) to <2 x %"class.std::__1::basic_string"*>*), align 8
  store <2 x %"class.std::__1::basic_string"*> <%"class.std::__1::basic_string"* bitcast (%"class.google::protobuf::internal::ExplicitlyConstructed.18"* @_ZN6google8protobuf8internal26fixed_address_empty_stringE to %"class.std::__1::basic_string"*), %"class.std::__1::basic_string"* bitcast (%"class.google::protobuf::internal::ExplicitlyConstructed.18"* @_ZN6google8protobuf8internal26fixed_address_empty_stringE to %"class.std::__1::basic_string"*)>, <2 x %"class.std::__1::basic_string"*>* bitcast (i8* getelementptr inbounds (%"class.enterprise_connectors::DeviceTrustSignalsDefaultTypeInternal", %"class.enterprise_connectors::DeviceTrustSignalsDefaultTypeInternal"* @_ZN21enterprise_connectors37_DeviceTrustSignals_default_instance_E, i64 0, i32 0, i32 0, i32 1, i64 128) to <2 x %"class.std::__1::basic_string"*>*), align 8
  tail call void @llvm.memset.p0i8.i64(i8* align 8 getelementptr inbounds (%"class.enterprise_connectors::DeviceTrustSignalsDefaultTypeInternal", %"class.enterprise_connectors::DeviceTrustSignalsDefaultTypeInternal"* @_ZN21enterprise_connectors37_DeviceTrustSignals_default_instance_E, i64 0, i32 0, i32 0, i32 1, i64 144), i8 0, i64 18, i1 false) #14
  tail call void @_ZN6google8protobuf8internal13OnShutdownRunEPFvPKvES3_(void (i8*)* nonnull @_ZN6google8protobuf8internal14DestroyMessageEPKv, i8* bitcast (%"class.enterprise_connectors::DeviceTrustSignalsDefaultTypeInternal"* @_ZN21enterprise_connectors37_DeviceTrustSignals_default_instance_E to i8*)) #14
  ret void
}

; Function Attrs: nounwind ssp uwtable
define internal void @_ZL76InitDefaultsscc_info_EncryptedData_device_5ftrust_5fattestation_5fca_2eprotov() #0 {
  tail call void @_ZN6google8protobuf8internal13VerifyVersionEiiPKc(i32 3013000, i32 3013000, i8* getelementptr inbounds ([88 x i8], [88 x i8]* @.str, i64 0, i64 0)) #14
  store %"class.google::protobuf::Arena"* null, %"class.google::protobuf::Arena"** bitcast (i8* getelementptr inbounds (%"class.enterprise_connectors::EncryptedDataDefaultTypeInternal", %"class.enterprise_connectors::EncryptedDataDefaultTypeInternal"* @_ZN21enterprise_connectors32_EncryptedData_default_instance_E, i64 0, i32 0, i32 0, i32 1, i64 0) to %"class.google::protobuf::Arena"**), align 8
  store i32 (...)** bitcast (i8** getelementptr inbounds ({ [16 x i8*] }, { [16 x i8*] }* @_ZTVN21enterprise_connectors13EncryptedDataE, i64 0, inrange i32 0, i64 2) to i32 (...)**), i32 (...)*** bitcast (%"class.enterprise_connectors::EncryptedDataDefaultTypeInternal"* @_ZN21enterprise_connectors32_EncryptedData_default_instance_E to i32 (...)***), align 8
  store i32 0, i32* bitcast (i8* getelementptr inbounds (%"class.enterprise_connectors::EncryptedDataDefaultTypeInternal", %"class.enterprise_connectors::EncryptedDataDefaultTypeInternal"* @_ZN21enterprise_connectors32_EncryptedData_default_instance_E, i64 0, i32 0, i32 0, i32 1, i64 8) to i32*), align 8
  store i32 0, i32* bitcast (i8* getelementptr inbounds (%"class.enterprise_connectors::EncryptedDataDefaultTypeInternal", %"class.enterprise_connectors::EncryptedDataDefaultTypeInternal"* @_ZN21enterprise_connectors32_EncryptedData_default_instance_E, i64 0, i32 0, i32 0, i32 1, i64 12) to i32*), align 4
  %1 = load atomic i32, i32* getelementptr inbounds ({ { { { i32 } }, i32, i32, void ()* }, [0 x i8*] }, { { { { i32 } }, i32, i32, void ()* }, [0 x i8*] }* @scc_info_EncryptedData_device_5ftrust_5fattestation_5fca_2eproto, i64 0, i32 0, i32 0, i32 0, i32 0) acquire, align 8
  %2 = icmp eq i32 %1, 0
  br i1 %2, label %4, label %3, !prof !3

3:                                                ; preds = %0
  tail call void @_ZN6google8protobuf8internal11InitSCCImplEPNS1_11SCCInfoBaseE(%"struct.google::protobuf::internal::SCCInfoBase"* bitcast ({ { { { i32 } }, i32, i32, void ()* }, [0 x i8*] }* @scc_info_EncryptedData_device_5ftrust_5fattestation_5fca_2eproto to %"struct.google::protobuf::internal::SCCInfoBase"*)) #14
  br label %4

4:                                                ; preds = %0, %3
  store <2 x %"class.std::__1::basic_string"*> <%"class.std::__1::basic_string"* bitcast (%"class.google::protobuf::internal::ExplicitlyConstructed.18"* @_ZN6google8protobuf8internal26fixed_address_empty_stringE to %"class.std::__1::basic_string"*), %"class.std::__1::basic_string"* bitcast (%"class.google::protobuf::internal::ExplicitlyConstructed.18"* @_ZN6google8protobuf8internal26fixed_address_empty_stringE to %"class.std::__1::basic_string"*)>, <2 x %"class.std::__1::basic_string"*>* bitcast (i8* getelementptr inbounds (%"class.enterprise_connectors::EncryptedDataDefaultTypeInternal", %"class.enterprise_connectors::EncryptedDataDefaultTypeInternal"* @_ZN21enterprise_connectors32_EncryptedData_default_instance_E, i64 0, i32 0, i32 0, i32 1, i64 16) to <2 x %"class.std::__1::basic_string"*>*), align 8
  store <2 x %"class.std::__1::basic_string"*> <%"class.std::__1::basic_string"* bitcast (%"class.google::protobuf::internal::ExplicitlyConstructed.18"* @_ZN6google8protobuf8internal26fixed_address_empty_stringE to %"class.std::__1::basic_string"*), %"class.std::__1::basic_string"* bitcast (%"class.google::protobuf::internal::ExplicitlyConstructed.18"* @_ZN6google8protobuf8internal26fixed_address_empty_stringE to %"class.std::__1::basic_string"*)>, <2 x %"class.std::__1::basic_string"*>* bitcast (i8* getelementptr inbounds (%"class.enterprise_connectors::EncryptedDataDefaultTypeInternal", %"class.enterprise_connectors::EncryptedDataDefaultTypeInternal"* @_ZN21enterprise_connectors32_EncryptedData_default_instance_E, i64 0, i32 0, i32 0, i32 1, i64 32) to <2 x %"class.std::__1::basic_string"*>*), align 8
  store %"class.std::__1::basic_string"* bitcast (%"class.google::protobuf::internal::ExplicitlyConstructed.18"* @_ZN6google8protobuf8internal26fixed_address_empty_stringE to %"class.std::__1::basic_string"*), %"class.std::__1::basic_string"** bitcast (i8* getelementptr inbounds (%"class.enterprise_connectors::EncryptedDataDefaultTypeInternal", %"class.enterprise_connectors::EncryptedDataDefaultTypeInternal"* @_ZN21enterprise_connectors32_EncryptedData_default_instance_E, i64 0, i32 0, i32 0, i32 1, i64 48) to %"class.std::__1::basic_string"**), align 8
  tail call void @_ZN6google8protobuf8internal13OnShutdownRunEPFvPKvES3_(void (i8*)* nonnull @_ZN6google8protobuf8internal14DestroyMessageEPKv, i8* bitcast (%"class.enterprise_connectors::EncryptedDataDefaultTypeInternal"* @_ZN21enterprise_connectors32_EncryptedData_default_instance_E to i8*)) #14
  ret void
}

; Function Attrs: nounwind ssp uwtable
define internal void @_ZL90InitDefaultsscc_info_EncryptedIdentityCredential_device_5ftrust_5fattestation_5fca_2eprotov() #0 {
  tail call void @_ZN6google8protobuf8internal13VerifyVersionEiiPKc(i32 3013000, i32 3013000, i8* getelementptr inbounds ([88 x i8], [88 x i8]* @.str, i64 0, i64 0)) #14
  store %"class.google::protobuf::Arena"* null, %"class.google::protobuf::Arena"** bitcast (i8* getelementptr inbounds (%"class.enterprise_connectors::EncryptedIdentityCredentialDefaultTypeInternal", %"class.enterprise_connectors::EncryptedIdentityCredentialDefaultTypeInternal"* @_ZN21enterprise_connectors46_EncryptedIdentityCredential_default_instance_E, i64 0, i32 0, i32 0, i32 1, i64 0) to %"class.google::protobuf::Arena"**), align 8
  store i32 (...)** bitcast (i8** getelementptr inbounds ({ [16 x i8*] }, { [16 x i8*] }* @_ZTVN21enterprise_connectors27EncryptedIdentityCredentialE, i64 0, inrange i32 0, i64 2) to i32 (...)**), i32 (...)*** bitcast (%"class.enterprise_connectors::EncryptedIdentityCredentialDefaultTypeInternal"* @_ZN21enterprise_connectors46_EncryptedIdentityCredential_default_instance_E to i32 (...)***), align 8
  store i32 0, i32* bitcast (i8* getelementptr inbounds (%"class.enterprise_connectors::EncryptedIdentityCredentialDefaultTypeInternal", %"class.enterprise_connectors::EncryptedIdentityCredentialDefaultTypeInternal"* @_ZN21enterprise_connectors46_EncryptedIdentityCredential_default_instance_E, i64 0, i32 0, i32 0, i32 1, i64 8) to i32*), align 8
  store i32 0, i32* bitcast (i8* getelementptr inbounds (%"class.enterprise_connectors::EncryptedIdentityCredentialDefaultTypeInternal", %"class.enterprise_connectors::EncryptedIdentityCredentialDefaultTypeInternal"* @_ZN21enterprise_connectors46_EncryptedIdentityCredential_default_instance_E, i64 0, i32 0, i32 0, i32 1, i64 12) to i32*), align 4
  %1 = load atomic i32, i32* getelementptr inbounds ({ { { { i32 } }, i32, i32, void ()* }, [1 x i8*] }, { { { { i32 } }, i32, i32, void ()* }, [1 x i8*] }* @scc_info_EncryptedIdentityCredential_device_5ftrust_5fattestation_5fca_2eproto, i64 0, i32 0, i32 0, i32 0, i32 0) acquire, align 8
  %2 = icmp eq i32 %1, 0
  br i1 %2, label %4, label %3, !prof !3

3:                                                ; preds = %0
  tail call void @_ZN6google8protobuf8internal11InitSCCImplEPNS1_11SCCInfoBaseE(%"struct.google::protobuf::internal::SCCInfoBase"* bitcast ({ { { { i32 } }, i32, i32, void ()* }, [1 x i8*] }* @scc_info_EncryptedIdentityCredential_device_5ftrust_5fattestation_5fca_2eproto to %"struct.google::protobuf::internal::SCCInfoBase"*)) #14
  br label %4

4:                                                ; preds = %0, %3
  store <2 x %"class.std::__1::basic_string"*> <%"class.std::__1::basic_string"* bitcast (%"class.google::protobuf::internal::ExplicitlyConstructed.18"* @_ZN6google8protobuf8internal26fixed_address_empty_stringE to %"class.std::__1::basic_string"*), %"class.std::__1::basic_string"* bitcast (%"class.google::protobuf::internal::ExplicitlyConstructed.18"* @_ZN6google8protobuf8internal26fixed_address_empty_stringE to %"class.std::__1::basic_string"*)>, <2 x %"class.std::__1::basic_string"*>* bitcast (i8* getelementptr inbounds (%"class.enterprise_connectors::EncryptedIdentityCredentialDefaultTypeInternal", %"class.enterprise_connectors::EncryptedIdentityCredentialDefaultTypeInternal"* @_ZN21enterprise_connectors46_EncryptedIdentityCredential_default_instance_E, i64 0, i32 0, i32 0, i32 1, i64 16) to <2 x %"class.std::__1::basic_string"*>*), align 8
  store <2 x %"class.std::__1::basic_string"*> <%"class.std::__1::basic_string"* bitcast (%"class.google::protobuf::internal::ExplicitlyConstructed.18"* @_ZN6google8protobuf8internal26fixed_address_empty_stringE to %"class.std::__1::basic_string"*), %"class.std::__1::basic_string"* bitcast (%"class.google::protobuf::internal::ExplicitlyConstructed.18"* @_ZN6google8protobuf8internal26fixed_address_empty_stringE to %"class.std::__1::basic_string"*)>, <2 x %"class.std::__1::basic_string"*>* bitcast (i8* getelementptr inbounds (%"class.enterprise_connectors::EncryptedIdentityCredentialDefaultTypeInternal", %"class.enterprise_connectors::EncryptedIdentityCredentialDefaultTypeInternal"* @_ZN21enterprise_connectors46_EncryptedIdentityCredential_default_instance_E, i64 0, i32 0, i32 0, i32 1, i64 32) to <2 x %"class.std::__1::basic_string"*>*), align 8
  store %"class.enterprise_connectors::EncryptedData"* null, %"class.enterprise_connectors::EncryptedData"** bitcast (i8* getelementptr inbounds (%"class.enterprise_connectors::EncryptedIdentityCredentialDefaultTypeInternal", %"class.enterprise_connectors::EncryptedIdentityCredentialDefaultTypeInternal"* @_ZN21enterprise_connectors46_EncryptedIdentityCredential_default_instance_E, i64 0, i32 0, i32 0, i32 1, i64 48) to %"class.enterprise_connectors::EncryptedData"**), align 8
  store i32 1, i32* bitcast (i8* getelementptr inbounds (%"class.enterprise_connectors::EncryptedIdentityCredentialDefaultTypeInternal", %"class.enterprise_connectors::EncryptedIdentityCredentialDefaultTypeInternal"* @_ZN21enterprise_connectors46_EncryptedIdentityCredential_default_instance_E, i64 0, i32 0, i32 0, i32 1, i64 56) to i32*), align 8
  tail call void @_ZN6google8protobuf8internal13OnShutdownRunEPFvPKvES3_(void (i8*)* nonnull @_ZN6google8protobuf8internal14DestroyMessageEPKv, i8* bitcast (%"class.enterprise_connectors::EncryptedIdentityCredentialDefaultTypeInternal"* @_ZN21enterprise_connectors46_EncryptedIdentityCredential_default_instance_E to i8*)) #14
  ret void
}

; Function Attrs: nounwind ssp uwtable
define internal void @_ZL70InitDefaultsscc_info_KeyInfo_device_5ftrust_5fattestation_5fca_2eprotov() #0 {
  tail call void @_ZN6google8protobuf8internal13VerifyVersionEiiPKc(i32 3013000, i32 3013000, i8* getelementptr inbounds ([88 x i8], [88 x i8]* @.str, i64 0, i64 0)) #14
  store %"class.google::protobuf::Arena"* null, %"class.google::protobuf::Arena"** bitcast (i8* getelementptr inbounds (%"class.enterprise_connectors::KeyInfoDefaultTypeInternal", %"class.enterprise_connectors::KeyInfoDefaultTypeInternal"* @_ZN21enterprise_connectors26_KeyInfo_default_instance_E, i64 0, i32 0, i32 0, i32 1, i64 0) to %"class.google::protobuf::Arena"**), align 8
  store i32 (...)** bitcast (i8** getelementptr inbounds ({ [16 x i8*] }, { [16 x i8*] }* @_ZTVN21enterprise_connectors7KeyInfoE, i64 0, inrange i32 0, i64 2) to i32 (...)**), i32 (...)*** bitcast (%"class.enterprise_connectors::KeyInfoDefaultTypeInternal"* @_ZN21enterprise_connectors26_KeyInfo_default_instance_E to i32 (...)***), align 8
  store i32 0, i32* bitcast (i8* getelementptr inbounds (%"class.enterprise_connectors::KeyInfoDefaultTypeInternal", %"class.enterprise_connectors::KeyInfoDefaultTypeInternal"* @_ZN21enterprise_connectors26_KeyInfo_default_instance_E, i64 0, i32 0, i32 0, i32 1, i64 8) to i32*), align 8
  store i32 0, i32* bitcast (i8* getelementptr inbounds (%"class.enterprise_connectors::KeyInfoDefaultTypeInternal", %"class.enterprise_connectors::KeyInfoDefaultTypeInternal"* @_ZN21enterprise_connectors26_KeyInfo_default_instance_E, i64 0, i32 0, i32 0, i32 1, i64 12) to i32*), align 4
  %1 = load atomic i32, i32* getelementptr inbounds ({ { { { i32 } }, i32, i32, void ()* }, [1 x i8*] }, { { { { i32 } }, i32, i32, void ()* }, [1 x i8*] }* @scc_info_KeyInfo_device_5ftrust_5fattestation_5fca_2eproto, i64 0, i32 0, i32 0, i32 0, i32 0) acquire, align 8
  %2 = icmp eq i32 %1, 0
  br i1 %2, label %4, label %3, !prof !3

3:                                                ; preds = %0
  tail call void @_ZN6google8protobuf8internal11InitSCCImplEPNS1_11SCCInfoBaseE(%"struct.google::protobuf::internal::SCCInfoBase"* bitcast ({ { { { i32 } }, i32, i32, void ()* }, [1 x i8*] }* @scc_info_KeyInfo_device_5ftrust_5fattestation_5fca_2eproto to %"struct.google::protobuf::internal::SCCInfoBase"*)) #14
  br label %4

4:                                                ; preds = %0, %3
  store <2 x %"class.std::__1::basic_string"*> <%"class.std::__1::basic_string"* bitcast (%"class.google::protobuf::internal::ExplicitlyConstructed.18"* @_ZN6google8protobuf8internal26fixed_address_empty_stringE to %"class.std::__1::basic_string"*), %"class.std::__1::basic_string"* bitcast (%"class.google::protobuf::internal::ExplicitlyConstructed.18"* @_ZN6google8protobuf8internal26fixed_address_empty_stringE to %"class.std::__1::basic_string"*)>, <2 x %"class.std::__1::basic_string"*>* bitcast (i8* getelementptr inbounds (%"class.enterprise_connectors::KeyInfoDefaultTypeInternal", %"class.enterprise_connectors::KeyInfoDefaultTypeInternal"* @_ZN21enterprise_connectors26_KeyInfo_default_instance_E, i64 0, i32 0, i32 0, i32 1, i64 16) to <2 x %"class.std::__1::basic_string"*>*), align 8
  store <2 x %"class.std::__1::basic_string"*> <%"class.std::__1::basic_string"* bitcast (%"class.google::protobuf::internal::ExplicitlyConstructed.18"* @_ZN6google8protobuf8internal26fixed_address_empty_stringE to %"class.std::__1::basic_string"*), %"class.std::__1::basic_string"* bitcast (%"class.google::protobuf::internal::ExplicitlyConstructed.18"* @_ZN6google8protobuf8internal26fixed_address_empty_stringE to %"class.std::__1::basic_string"*)>, <2 x %"class.std::__1::basic_string"*>* bitcast (i8* getelementptr inbounds (%"class.enterprise_connectors::KeyInfoDefaultTypeInternal", %"class.enterprise_connectors::KeyInfoDefaultTypeInternal"* @_ZN21enterprise_connectors26_KeyInfo_default_instance_E, i64 0, i32 0, i32 0, i32 1, i64 32) to <2 x %"class.std::__1::basic_string"*>*), align 8
  store <2 x %"class.std::__1::basic_string"*> <%"class.std::__1::basic_string"* bitcast (%"class.google::protobuf::internal::ExplicitlyConstructed.18"* @_ZN6google8protobuf8internal26fixed_address_empty_stringE to %"class.std::__1::basic_string"*), %"class.std::__1::basic_string"* bitcast (%"class.google::protobuf::internal::ExplicitlyConstructed.18"* @_ZN6google8protobuf8internal26fixed_address_empty_stringE to %"class.std::__1::basic_string"*)>, <2 x %"class.std::__1::basic_string"*>* bitcast (i8* getelementptr inbounds (%"class.enterprise_connectors::KeyInfoDefaultTypeInternal", %"class.enterprise_connectors::KeyInfoDefaultTypeInternal"* @_ZN21enterprise_connectors26_KeyInfo_default_instance_E, i64 0, i32 0, i32 0, i32 1, i64 48) to <2 x %"class.std::__1::basic_string"*>*), align 8
  store %"class.std::__1::basic_string"* bitcast (%"class.google::protobuf::internal::ExplicitlyConstructed.18"* @_ZN6google8protobuf8internal26fixed_address_empty_stringE to %"class.std::__1::basic_string"*), %"class.std::__1::basic_string"** bitcast (i8* getelementptr inbounds (%"class.enterprise_connectors::KeyInfoDefaultTypeInternal", %"class.enterprise_connectors::KeyInfoDefaultTypeInternal"* @_ZN21enterprise_connectors26_KeyInfo_default_instance_E, i64 0, i32 0, i32 0, i32 1, i64 64) to %"class.std::__1::basic_string"**), align 8
  tail call void @llvm.memset.p0i8.i64(i8* align 8 getelementptr inbounds (%"class.enterprise_connectors::KeyInfoDefaultTypeInternal", %"class.enterprise_connectors::KeyInfoDefaultTypeInternal"* @_ZN21enterprise_connectors26_KeyInfo_default_instance_E, i64 0, i32 0, i32 0, i32 1, i64 72), i8 0, i64 12, i1 false) #14
  tail call void @_ZN6google8protobuf8internal13OnShutdownRunEPFvPKvES3_(void (i8*)* nonnull @_ZN6google8protobuf8internal14DestroyMessageEPKv, i8* bitcast (%"class.enterprise_connectors::KeyInfoDefaultTypeInternal"* @_ZN21enterprise_connectors26_KeyInfo_default_instance_E to i8*)) #14
  ret void
}

; Function Attrs: nounwind ssp uwtable
define internal void @_ZL68InitDefaultsscc_info_Quote_device_5ftrust_5fattestation_5fca_2eprotov() #0 {
  tail call void @_ZN6google8protobuf8internal13VerifyVersionEiiPKc(i32 3013000, i32 3013000, i8* getelementptr inbounds ([88 x i8], [88 x i8]* @.str, i64 0, i64 0)) #14
  store %"class.google::protobuf::Arena"* null, %"class.google::protobuf::Arena"** bitcast (i8* getelementptr inbounds (%"class.enterprise_connectors::QuoteDefaultTypeInternal", %"class.enterprise_connectors::QuoteDefaultTypeInternal"* @_ZN21enterprise_connectors24_Quote_default_instance_E, i64 0, i32 0, i32 0, i32 1, i64 0) to %"class.google::protobuf::Arena"**), align 8
  store i32 (...)** bitcast (i8** getelementptr inbounds ({ [16 x i8*] }, { [16 x i8*] }* @_ZTVN21enterprise_connectors5QuoteE, i64 0, inrange i32 0, i64 2) to i32 (...)**), i32 (...)*** bitcast (%"class.enterprise_connectors::QuoteDefaultTypeInternal"* @_ZN21enterprise_connectors24_Quote_default_instance_E to i32 (...)***), align 8
  store i32 0, i32* bitcast (i8* getelementptr inbounds (%"class.enterprise_connectors::QuoteDefaultTypeInternal", %"class.enterprise_connectors::QuoteDefaultTypeInternal"* @_ZN21enterprise_connectors24_Quote_default_instance_E, i64 0, i32 0, i32 0, i32 1, i64 8) to i32*), align 8
  store i32 0, i32* bitcast (i8* getelementptr inbounds (%"class.enterprise_connectors::QuoteDefaultTypeInternal", %"class.enterprise_connectors::QuoteDefaultTypeInternal"* @_ZN21enterprise_connectors24_Quote_default_instance_E, i64 0, i32 0, i32 0, i32 1, i64 12) to i32*), align 4
  %1 = load atomic i32, i32* getelementptr inbounds ({ { { { i32 } }, i32, i32, void ()* }, [0 x i8*] }, { { { { i32 } }, i32, i32, void ()* }, [0 x i8*] }* @scc_info_Quote_device_5ftrust_5fattestation_5fca_2eproto, i64 0, i32 0, i32 0, i32 0, i32 0) acquire, align 8
  %2 = icmp eq i32 %1, 0
  br i1 %2, label %4, label %3, !prof !3

3:                                                ; preds = %0
  tail call void @_ZN6google8protobuf8internal11InitSCCImplEPNS1_11SCCInfoBaseE(%"struct.google::protobuf::internal::SCCInfoBase"* bitcast ({ { { { i32 } }, i32, i32, void ()* }, [0 x i8*] }* @scc_info_Quote_device_5ftrust_5fattestation_5fca_2eproto to %"struct.google::protobuf::internal::SCCInfoBase"*)) #14
  br label %4

4:                                                ; preds = %0, %3
  store <2 x %"class.std::__1::basic_string"*> <%"class.std::__1::basic_string"* bitcast (%"class.google::protobuf::internal::ExplicitlyConstructed.18"* @_ZN6google8protobuf8internal26fixed_address_empty_stringE to %"class.std::__1::basic_string"*), %"class.std::__1::basic_string"* bitcast (%"class.google::protobuf::internal::ExplicitlyConstructed.18"* @_ZN6google8protobuf8internal26fixed_address_empty_stringE to %"class.std::__1::basic_string"*)>, <2 x %"class.std::__1::basic_string"*>* bitcast (i8* getelementptr inbounds (%"class.enterprise_connectors::QuoteDefaultTypeInternal", %"class.enterprise_connectors::QuoteDefaultTypeInternal"* @_ZN21enterprise_connectors24_Quote_default_instance_E, i64 0, i32 0, i32 0, i32 1, i64 16) to <2 x %"class.std::__1::basic_string"*>*), align 8
  store <2 x %"class.std::__1::basic_string"*> <%"class.std::__1::basic_string"* bitcast (%"class.google::protobuf::internal::ExplicitlyConstructed.18"* @_ZN6google8protobuf8internal26fixed_address_empty_stringE to %"class.std::__1::basic_string"*), %"class.std::__1::basic_string"* bitcast (%"class.google::protobuf::internal::ExplicitlyConstructed.18"* @_ZN6google8protobuf8internal26fixed_address_empty_stringE to %"class.std::__1::basic_string"*)>, <2 x %"class.std::__1::basic_string"*>* bitcast (i8* getelementptr inbounds (%"class.enterprise_connectors::QuoteDefaultTypeInternal", %"class.enterprise_connectors::QuoteDefaultTypeInternal"* @_ZN21enterprise_connectors24_Quote_default_instance_E, i64 0, i32 0, i32 0, i32 1, i64 32) to <2 x %"class.std::__1::basic_string"*>*), align 8
  tail call void @_ZN6google8protobuf8internal13OnShutdownRunEPFvPKvES3_(void (i8*)* nonnull @_ZN6google8protobuf8internal14DestroyMessageEPKv, i8* bitcast (%"class.enterprise_connectors::QuoteDefaultTypeInternal"* @_ZN21enterprise_connectors24_Quote_default_instance_E to i8*)) #14
  ret void
}

; Function Attrs: nounwind ssp uwtable
define internal void @_ZL73InitDefaultsscc_info_SignedData_device_5ftrust_5fattestation_5fca_2eprotov() #0 {
  tail call void @_ZN6google8protobuf8internal13VerifyVersionEiiPKc(i32 3013000, i32 3013000, i8* getelementptr inbounds ([88 x i8], [88 x i8]* @.str, i64 0, i64 0)) #14
  store %"class.google::protobuf::Arena"* null, %"class.google::protobuf::Arena"** bitcast (i8* getelementptr inbounds (%"class.enterprise_connectors::SignedDataDefaultTypeInternal", %"class.enterprise_connectors::SignedDataDefaultTypeInternal"* @_ZN21enterprise_connectors29_SignedData_default_instance_E, i64 0, i32 0, i32 0, i32 1, i64 0) to %"class.google::protobuf::Arena"**), align 8
  store i32 (...)** bitcast (i8** getelementptr inbounds ({ [16 x i8*] }, { [16 x i8*] }* @_ZTVN21enterprise_connectors10SignedDataE, i64 0, inrange i32 0, i64 2) to i32 (...)**), i32 (...)*** bitcast (%"class.enterprise_connectors::SignedDataDefaultTypeInternal"* @_ZN21enterprise_connectors29_SignedData_default_instance_E to i32 (...)***), align 8
  store i32 0, i32* bitcast (i8* getelementptr inbounds (%"class.enterprise_connectors::SignedDataDefaultTypeInternal", %"class.enterprise_connectors::SignedDataDefaultTypeInternal"* @_ZN21enterprise_connectors29_SignedData_default_instance_E, i64 0, i32 0, i32 0, i32 1, i64 8) to i32*), align 8
  store i32 0, i32* bitcast (i8* getelementptr inbounds (%"class.enterprise_connectors::SignedDataDefaultTypeInternal", %"class.enterprise_connectors::SignedDataDefaultTypeInternal"* @_ZN21enterprise_connectors29_SignedData_default_instance_E, i64 0, i32 0, i32 0, i32 1, i64 12) to i32*), align 4
  %1 = load atomic i32, i32* getelementptr inbounds ({ { { { i32 } }, i32, i32, void ()* }, [0 x i8*] }, { { { { i32 } }, i32, i32, void ()* }, [0 x i8*] }* @scc_info_SignedData_device_5ftrust_5fattestation_5fca_2eproto, i64 0, i32 0, i32 0, i32 0, i32 0) acquire, align 8
  %2 = icmp eq i32 %1, 0
  br i1 %2, label %4, label %3, !prof !3

3:                                                ; preds = %0
  tail call void @_ZN6google8protobuf8internal11InitSCCImplEPNS1_11SCCInfoBaseE(%"struct.google::protobuf::internal::SCCInfoBase"* bitcast ({ { { { i32 } }, i32, i32, void ()* }, [0 x i8*] }* @scc_info_SignedData_device_5ftrust_5fattestation_5fca_2eproto to %"struct.google::protobuf::internal::SCCInfoBase"*)) #14
  br label %4

4:                                                ; preds = %0, %3
  store <2 x %"class.std::__1::basic_string"*> <%"class.std::__1::basic_string"* bitcast (%"class.google::protobuf::internal::ExplicitlyConstructed.18"* @_ZN6google8protobuf8internal26fixed_address_empty_stringE to %"class.std::__1::basic_string"*), %"class.std::__1::basic_string"* bitcast (%"class.google::protobuf::internal::ExplicitlyConstructed.18"* @_ZN6google8protobuf8internal26fixed_address_empty_stringE to %"class.std::__1::basic_string"*)>, <2 x %"class.std::__1::basic_string"*>* bitcast (i8* getelementptr inbounds (%"class.enterprise_connectors::SignedDataDefaultTypeInternal", %"class.enterprise_connectors::SignedDataDefaultTypeInternal"* @_ZN21enterprise_connectors29_SignedData_default_instance_E, i64 0, i32 0, i32 0, i32 1, i64 16) to <2 x %"class.std::__1::basic_string"*>*), align 8
  tail call void @_ZN6google8protobuf8internal13OnShutdownRunEPFvPKvES3_(void (i8*)* nonnull @_ZN6google8protobuf8internal14DestroyMessageEPKv, i8* bitcast (%"class.enterprise_connectors::SignedDataDefaultTypeInternal"* @_ZN21enterprise_connectors29_SignedData_default_instance_E to i8*)) #14
  ret void
}

; Function Attrs: norecurse nounwind readnone ssp uwtable
define hidden zeroext i1 @_ZN21enterprise_connectors26CertificateProfile_IsValidEi(i32) local_unnamed_addr #1 {
  %2 = icmp ult i32 %0, 10
  ret i1 %2
}

; Function Attrs: argmemonly nounwind
declare {}* @llvm.invariant.start.p0i8(i64 immarg, i8* nocapture) #2

; Function Attrs: nounwind ssp uwtable
define hidden dereferenceable(24) %"class.std::__1::basic_string"* @_ZN21enterprise_connectors23CertificateProfile_NameENS_18CertificateProfileE(i32) local_unnamed_addr #0 {
  %2 = load atomic i8, i8* bitcast (i64* @_ZGVZN21enterprise_connectors23CertificateProfile_NameENS_18CertificateProfileEE5dummy to i8*) acquire, align 8
  %3 = icmp eq i8 %2, 0
  br i1 %3, label %4, label %11, !prof !4

4:                                                ; preds = %1
  %5 = tail call i32 @__cxa_guard_acquire(i64* nonnull @_ZGVZN21enterprise_connectors23CertificateProfile_NameENS_18CertificateProfileEE5dummy) #14
  %6 = icmp eq i32 %5, 0
  br i1 %6, label %11, label %7

7:                                                ; preds = %4
  %8 = tail call zeroext i1 @_ZN6google8protobuf8internal21InitializeEnumStringsEPKNS1_9EnumEntryEPKimPNS1_21ExplicitlyConstructedINSt3__112basic_stringIcNS8_11char_traitsIcEENS8_9allocatorIcEEEEEE(%"struct.google::protobuf::internal::EnumEntry"* getelementptr inbounds ([10 x %"struct.google::protobuf::internal::EnumEntry"], [10 x %"struct.google::protobuf::internal::EnumEntry"]* @_ZN21enterprise_connectorsL26CertificateProfile_entriesE, i64 0, i64 0), i32* getelementptr inbounds ([10 x i32], [10 x i32]* @_ZN21enterprise_connectorsL36CertificateProfile_entries_by_numberE, i64 0, i64 0), i64 10, %"class.google::protobuf::internal::ExplicitlyConstructed.18"* getelementptr inbounds ([10 x %"class.google::protobuf::internal::ExplicitlyConstructed.18"], [10 x %"class.google::protobuf::internal::ExplicitlyConstructed.18"]* @_ZN21enterprise_connectorsL26CertificateProfile_stringsE, i64 0, i64 0)) #14
  %9 = zext i1 %8 to i8
  store i8 %9, i8* @_ZZN21enterprise_connectors23CertificateProfile_NameENS_18CertificateProfileEE5dummy, align 1
  %10 = tail call {}* @llvm.invariant.start.p0i8(i64 1, i8* nonnull @_ZZN21enterprise_connectors23CertificateProfile_NameENS_18CertificateProfileEE5dummy)
  tail call void @__cxa_guard_release(i64* nonnull @_ZGVZN21enterprise_connectors23CertificateProfile_NameENS_18CertificateProfileEE5dummy) #14
  br label %11

11:                                               ; preds = %4, %7, %1
  %12 = tail call i32 @_ZN6google8protobuf8internal14LookUpEnumNameEPKNS1_9EnumEntryEPKimi(%"struct.google::protobuf::internal::EnumEntry"* getelementptr inbounds ([10 x %"struct.google::protobuf::internal::EnumEntry"], [10 x %"struct.google::protobuf::internal::EnumEntry"]* @_ZN21enterprise_connectorsL26CertificateProfile_entriesE, i64 0, i64 0), i32* getelementptr inbounds ([10 x i32], [10 x i32]* @_ZN21enterprise_connectorsL36CertificateProfile_entries_by_numberE, i64 0, i64 0), i64 10, i32 %0) #14
  %13 = icmp eq i32 %12, -1
  br i1 %13, label %14, label %16

14:                                               ; preds = %11
  %15 = tail call dereferenceable(24) %"class.std::__1::basic_string"* @_ZN6google8protobuf8internal14GetEmptyStringEv() #14
  br label %20

16:                                               ; preds = %11
  %17 = sext i32 %12 to i64
  %18 = getelementptr inbounds [10 x %"class.google::protobuf::internal::ExplicitlyConstructed.18"], [10 x %"class.google::protobuf::internal::ExplicitlyConstructed.18"]* @_ZN21enterprise_connectorsL26CertificateProfile_stringsE, i64 0, i64 %17
  %19 = bitcast %"class.google::protobuf::internal::ExplicitlyConstructed.18"* %18 to %"class.std::__1::basic_string"*
  br label %20

20:                                               ; preds = %16, %14
  %21 = phi %"class.std::__1::basic_string"* [ %15, %14 ], [ %19, %16 ]
  ret %"class.std::__1::basic_string"* %21
}

; Function Attrs: nofree nounwind
declare i32 @__cxa_guard_acquire(i64*) local_unnamed_addr #3

declare zeroext i1 @_ZN6google8protobuf8internal21InitializeEnumStringsEPKNS1_9EnumEntryEPKimPNS1_21ExplicitlyConstructedINSt3__112basic_stringIcNS8_11char_traitsIcEENS8_9allocatorIcEEEEEE(%"struct.google::protobuf::internal::EnumEntry"*, i32*, i64, %"class.google::protobuf::internal::ExplicitlyConstructed.18"*) local_unnamed_addr #4

; Function Attrs: nofree nounwind
declare void @__cxa_guard_release(i64*) local_unnamed_addr #3

; Function Attrs: argmemonly nounwind
declare void @llvm.lifetime.start.p0i8(i64 immarg, i8* nocapture) #2

declare i32 @_ZN6google8protobuf8internal14LookUpEnumNameEPKNS1_9EnumEntryEPKimi(%"struct.google::protobuf::internal::EnumEntry"*, i32*, i64, i32) local_unnamed_addr #4

declare dereferenceable(24) %"class.std::__1::basic_string"* @_ZN6google8protobuf8internal14GetEmptyStringEv() local_unnamed_addr #4

; Function Attrs: argmemonly nounwind
declare void @llvm.lifetime.end.p0i8(i64 immarg, i8* nocapture) #2

; Function Attrs: nounwind ssp uwtable
define hidden zeroext i1 @_ZN21enterprise_connectors24CertificateProfile_ParseERKNSt3__112basic_stringIcNS0_11char_traitsIcEENS0_9allocatorIcEEEEPNS_18CertificateProfileE(%"class.std::__1::basic_string"* dereferenceable(24), i32* nocapture) local_unnamed_addr #0 {
  %3 = alloca i32, align 4
  %4 = bitcast i32* %3 to i8*
  call void @llvm.lifetime.start.p0i8(i64 4, i8* nonnull %4) #14
  store i32 -1431655766, i32* %3, align 4
  %5 = bitcast %"class.std::__1::basic_string"* %0 to %"struct.std::__1::basic_string<char, std::__1::char_traits<char>, std::__1::allocator<char> >::__short"*
  %6 = getelementptr inbounds %"struct.std::__1::basic_string<char, std::__1::char_traits<char>, std::__1::allocator<char> >::__short", %"struct.std::__1::basic_string<char, std::__1::char_traits<char>, std::__1::allocator<char> >::__short"* %5, i64 0, i32 1, i32 0
  %7 = load i8, i8* %6, align 1
  %8 = icmp slt i8 %7, 0
  %9 = getelementptr inbounds %"class.std::__1::basic_string", %"class.std::__1::basic_string"* %0, i64 0, i32 0, i32 0, i32 0, i32 0, i32 0, i32 0
  %10 = load i8*, i8** %9, align 8
  %11 = bitcast %"class.std::__1::basic_string"* %0 to i8*
  %12 = select i1 %8, i8* %10, i8* %11
  br i1 %8, label %15, label %13

13:                                               ; preds = %2
  %14 = zext i8 %7 to i64
  br label %20

15:                                               ; preds = %2
  %16 = getelementptr inbounds %"class.std::__1::basic_string", %"class.std::__1::basic_string"* %0, i64 0, i32 0, i32 0, i32 0, i32 0, i32 0, i32 1
  %17 = load i64, i64* %16, align 8
  %18 = icmp slt i64 %17, 0
  br i1 %18, label %19, label %20

19:                                               ; preds = %15
  tail call void @_ZN6google8protobuf11StringPiece18LogFatalSizeTooBigEmPKc(i64 %17, i8* getelementptr inbounds ([25 x i8], [25 x i8]* @.str.52, i64 0, i64 0)) #14
  br label %20

20:                                               ; preds = %13, %15, %19
  %21 = phi i64 [ %14, %13 ], [ %17, %15 ], [ %17, %19 ]
  %22 = call zeroext i1 @_ZN6google8protobuf8internal15LookUpEnumValueEPKNS1_9EnumEntryEmNS0_11StringPieceEPi(%"struct.google::protobuf::internal::EnumEntry"* getelementptr inbounds ([10 x %"struct.google::protobuf::internal::EnumEntry"], [10 x %"struct.google::protobuf::internal::EnumEntry"]* @_ZN21enterprise_connectorsL26CertificateProfile_entriesE, i64 0, i64 0), i64 10, i8* %12, i64 %21, i32* nonnull %3) #14
  br i1 %22, label %23, label %25

23:                                               ; preds = %20
  %24 = load i32, i32* %3, align 4
  store i32 %24, i32* %1, align 4
  br label %25

25:                                               ; preds = %23, %20
  call void @llvm.lifetime.end.p0i8(i64 4, i8* nonnull %4) #14
  ret i1 %22
}

declare zeroext i1 @_ZN6google8protobuf8internal15LookUpEnumValueEPKNS1_9EnumEntryEmNS0_11StringPieceEPi(%"struct.google::protobuf::internal::EnumEntry"*, i64, i8*, i64, i32*) local_unnamed_addr #4

; Function Attrs: norecurse nounwind readnone ssp uwtable
define hidden zeroext i1 @_ZN21enterprise_connectors18TpmVersion_IsValidEi(i32) local_unnamed_addr #1 {
  %2 = add i32 %0, -1
  %3 = icmp ult i32 %2, 2
  ret i1 %3
}

; Function Attrs: nounwind ssp uwtable
define hidden dereferenceable(24) %"class.std::__1::basic_string"* @_ZN21enterprise_connectors15TpmVersion_NameENS_10TpmVersionE(i32) local_unnamed_addr #0 {
  %2 = load atomic i8, i8* bitcast (i64* @_ZGVZN21enterprise_connectors15TpmVersion_NameENS_10TpmVersionEE5dummy to i8*) acquire, align 8
  %3 = icmp eq i8 %2, 0
  br i1 %3, label %4, label %11, !prof !4

4:                                                ; preds = %1
  %5 = tail call i32 @__cxa_guard_acquire(i64* nonnull @_ZGVZN21enterprise_connectors15TpmVersion_NameENS_10TpmVersionEE5dummy) #14
  %6 = icmp eq i32 %5, 0
  br i1 %6, label %11, label %7

7:                                                ; preds = %4
  %8 = tail call zeroext i1 @_ZN6google8protobuf8internal21InitializeEnumStringsEPKNS1_9EnumEntryEPKimPNS1_21ExplicitlyConstructedINSt3__112basic_stringIcNS8_11char_traitsIcEENS8_9allocatorIcEEEEEE(%"struct.google::protobuf::internal::EnumEntry"* getelementptr inbounds ([2 x %"struct.google::protobuf::internal::EnumEntry"], [2 x %"struct.google::protobuf::internal::EnumEntry"]* @_ZN21enterprise_connectorsL18TpmVersion_entriesE, i64 0, i64 0), i32* getelementptr inbounds ([2 x i32], [2 x i32]* @_ZN21enterprise_connectorsL28TpmVersion_entries_by_numberE, i64 0, i64 0), i64 2, %"class.google::protobuf::internal::ExplicitlyConstructed.18"* getelementptr inbounds ([2 x %"class.google::protobuf::internal::ExplicitlyConstructed.18"], [2 x %"class.google::protobuf::internal::ExplicitlyConstructed.18"]* @_ZN21enterprise_connectorsL18TpmVersion_stringsE, i64 0, i64 0)) #14
  %9 = zext i1 %8 to i8
  store i8 %9, i8* @_ZZN21enterprise_connectors15TpmVersion_NameENS_10TpmVersionEE5dummy, align 1
  %10 = tail call {}* @llvm.invariant.start.p0i8(i64 1, i8* nonnull @_ZZN21enterprise_connectors15TpmVersion_NameENS_10TpmVersionEE5dummy)
  tail call void @__cxa_guard_release(i64* nonnull @_ZGVZN21enterprise_connectors15TpmVersion_NameENS_10TpmVersionEE5dummy) #14
  br label %11

11:                                               ; preds = %4, %7, %1
  %12 = tail call i32 @_ZN6google8protobuf8internal14LookUpEnumNameEPKNS1_9EnumEntryEPKimi(%"struct.google::protobuf::internal::EnumEntry"* getelementptr inbounds ([2 x %"struct.google::protobuf::internal::EnumEntry"], [2 x %"struct.google::protobuf::internal::EnumEntry"]* @_ZN21enterprise_connectorsL18TpmVersion_entriesE, i64 0, i64 0), i32* getelementptr inbounds ([2 x i32], [2 x i32]* @_ZN21enterprise_connectorsL28TpmVersion_entries_by_numberE, i64 0, i64 0), i64 2, i32 %0) #14
  %13 = icmp eq i32 %12, -1
  br i1 %13, label %14, label %16

14:                                               ; preds = %11
  %15 = tail call dereferenceable(24) %"class.std::__1::basic_string"* @_ZN6google8protobuf8internal14GetEmptyStringEv() #14
  br label %20

16:                                               ; preds = %11
  %17 = sext i32 %12 to i64
  %18 = getelementptr inbounds [2 x %"class.google::protobuf::internal::ExplicitlyConstructed.18"], [2 x %"class.google::protobuf::internal::ExplicitlyConstructed.18"]* @_ZN21enterprise_connectorsL18TpmVersion_stringsE, i64 0, i64 %17
  %19 = bitcast %"class.google::protobuf::internal::ExplicitlyConstructed.18"* %18 to %"class.std::__1::basic_string"*
  br label %20

20:                                               ; preds = %16, %14
  %21 = phi %"class.std::__1::basic_string"* [ %15, %14 ], [ %19, %16 ]
  ret %"class.std::__1::basic_string"* %21
}

; Function Attrs: nounwind ssp uwtable
define hidden zeroext i1 @_ZN21enterprise_connectors16TpmVersion_ParseERKNSt3__112basic_stringIcNS0_11char_traitsIcEENS0_9allocatorIcEEEEPNS_10TpmVersionE(%"class.std::__1::basic_string"* dereferenceable(24), i32* nocapture) local_unnamed_addr #0 {
  %3 = alloca i32, align 4
  %4 = bitcast i32* %3 to i8*
  call void @llvm.lifetime.start.p0i8(i64 4, i8* nonnull %4) #14
  store i32 -1431655766, i32* %3, align 4
  %5 = bitcast %"class.std::__1::basic_string"* %0 to %"struct.std::__1::basic_string<char, std::__1::char_traits<char>, std::__1::allocator<char> >::__short"*
  %6 = getelementptr inbounds %"struct.std::__1::basic_string<char, std::__1::char_traits<char>, std::__1::allocator<char> >::__short", %"struct.std::__1::basic_string<char, std::__1::char_traits<char>, std::__1::allocator<char> >::__short"* %5, i64 0, i32 1, i32 0
  %7 = load i8, i8* %6, align 1
  %8 = icmp slt i8 %7, 0
  %9 = getelementptr inbounds %"class.std::__1::basic_string", %"class.std::__1::basic_string"* %0, i64 0, i32 0, i32 0, i32 0, i32 0, i32 0, i32 0
  %10 = load i8*, i8** %9, align 8
  %11 = bitcast %"class.std::__1::basic_string"* %0 to i8*
  %12 = select i1 %8, i8* %10, i8* %11
  br i1 %8, label %15, label %13

13:                                               ; preds = %2
  %14 = zext i8 %7 to i64
  br label %20

15:                                               ; preds = %2
  %16 = getelementptr inbounds %"class.std::__1::basic_string", %"class.std::__1::basic_string"* %0, i64 0, i32 0, i32 0, i32 0, i32 0, i32 0, i32 1
  %17 = load i64, i64* %16, align 8
  %18 = icmp slt i64 %17, 0
  br i1 %18, label %19, label %20

19:                                               ; preds = %15
  tail call void @_ZN6google8protobuf11StringPiece18LogFatalSizeTooBigEmPKc(i64 %17, i8* getelementptr inbounds ([25 x i8], [25 x i8]* @.str.52, i64 0, i64 0)) #14
  br label %20

20:                                               ; preds = %13, %15, %19
  %21 = phi i64 [ %14, %13 ], [ %17, %15 ], [ %17, %19 ]
  %22 = call zeroext i1 @_ZN6google8protobuf8internal15LookUpEnumValueEPKNS1_9EnumEntryEmNS0_11StringPieceEPi(%"struct.google::protobuf::internal::EnumEntry"* getelementptr inbounds ([2 x %"struct.google::protobuf::internal::EnumEntry"], [2 x %"struct.google::protobuf::internal::EnumEntry"]* @_ZN21enterprise_connectorsL18TpmVersion_entriesE, i64 0, i64 0), i64 2, i8* %12, i64 %21, i32* nonnull %3) #14
  br i1 %22, label %23, label %25

23:                                               ; preds = %20
  %24 = load i32, i32* %3, align 4
  store i32 %24, i32* %1, align 4
  br label %25

25:                                               ; preds = %23, %20
  call void @llvm.lifetime.end.p0i8(i64 4, i8* nonnull %4) #14
  ret i1 %22
}

; Function Attrs: norecurse nounwind readnone ssp uwtable
define hidden zeroext i1 @_ZN21enterprise_connectors22NVRAMQuoteType_IsValidEi(i32) local_unnamed_addr #1 {
  %2 = icmp ult i32 %0, 4
  ret i1 %2
}

; Function Attrs: nounwind ssp uwtable
define hidden dereferenceable(24) %"class.std::__1::basic_string"* @_ZN21enterprise_connectors19NVRAMQuoteType_NameENS_14NVRAMQuoteTypeE(i32) local_unnamed_addr #0 {
  %2 = load atomic i8, i8* bitcast (i64* @_ZGVZN21enterprise_connectors19NVRAMQuoteType_NameENS_14NVRAMQuoteTypeEE5dummy to i8*) acquire, align 8
  %3 = icmp eq i8 %2, 0
  br i1 %3, label %4, label %11, !prof !4

4:                                                ; preds = %1
  %5 = tail call i32 @__cxa_guard_acquire(i64* nonnull @_ZGVZN21enterprise_connectors19NVRAMQuoteType_NameENS_14NVRAMQuoteTypeEE5dummy) #14
  %6 = icmp eq i32 %5, 0
  br i1 %6, label %11, label %7

7:                                                ; preds = %4
  %8 = tail call zeroext i1 @_ZN6google8protobuf8internal21InitializeEnumStringsEPKNS1_9EnumEntryEPKimPNS1_21ExplicitlyConstructedINSt3__112basic_stringIcNS8_11char_traitsIcEENS8_9allocatorIcEEEEEE(%"struct.google::protobuf::internal::EnumEntry"* getelementptr inbounds ([4 x %"struct.google::protobuf::internal::EnumEntry"], [4 x %"struct.google::protobuf::internal::EnumEntry"]* @_ZN21enterprise_connectorsL22NVRAMQuoteType_entriesE, i64 0, i64 0), i32* getelementptr inbounds ([4 x i32], [4 x i32]* @_ZN21enterprise_connectorsL32NVRAMQuoteType_entries_by_numberE, i64 0, i64 0), i64 4, %"class.google::protobuf::internal::ExplicitlyConstructed.18"* getelementptr inbounds ([4 x %"class.google::protobuf::internal::ExplicitlyConstructed.18"], [4 x %"class.google::protobuf::internal::ExplicitlyConstructed.18"]* @_ZN21enterprise_connectorsL22NVRAMQuoteType_stringsE, i64 0, i64 0)) #14
  %9 = zext i1 %8 to i8
  store i8 %9, i8* @_ZZN21enterprise_connectors19NVRAMQuoteType_NameENS_14NVRAMQuoteTypeEE5dummy, align 1
  %10 = tail call {}* @llvm.invariant.start.p0i8(i64 1, i8* nonnull @_ZZN21enterprise_connectors19NVRAMQuoteType_NameENS_14NVRAMQuoteTypeEE5dummy)
  tail call void @__cxa_guard_release(i64* nonnull @_ZGVZN21enterprise_connectors19NVRAMQuoteType_NameENS_14NVRAMQuoteTypeEE5dummy) #14
  br label %11

11:                                               ; preds = %4, %7, %1
  %12 = tail call i32 @_ZN6google8protobuf8internal14LookUpEnumNameEPKNS1_9EnumEntryEPKimi(%"struct.google::protobuf::internal::EnumEntry"* getelementptr inbounds ([4 x %"struct.google::protobuf::internal::EnumEntry"], [4 x %"struct.google::protobuf::internal::EnumEntry"]* @_ZN21enterprise_connectorsL22NVRAMQuoteType_entriesE, i64 0, i64 0), i32* getelementptr inbounds ([4 x i32], [4 x i32]* @_ZN21enterprise_connectorsL32NVRAMQuoteType_entries_by_numberE, i64 0, i64 0), i64 4, i32 %0) #14
  %13 = icmp eq i32 %12, -1
  br i1 %13, label %14, label %16

14:                                               ; preds = %11
  %15 = tail call dereferenceable(24) %"class.std::__1::basic_string"* @_ZN6google8protobuf8internal14GetEmptyStringEv() #14
  br label %20

16:                                               ; preds = %11
  %17 = sext i32 %12 to i64
  %18 = getelementptr inbounds [4 x %"class.google::protobuf::internal::ExplicitlyConstructed.18"], [4 x %"class.google::protobuf::internal::ExplicitlyConstructed.18"]* @_ZN21enterprise_connectorsL22NVRAMQuoteType_stringsE, i64 0, i64 %17
  %19 = bitcast %"class.google::protobuf::internal::ExplicitlyConstructed.18"* %18 to %"class.std::__1::basic_string"*
  br label %20

20:                                               ; preds = %16, %14
  %21 = phi %"class.std::__1::basic_string"* [ %15, %14 ], [ %19, %16 ]
  ret %"class.std::__1::basic_string"* %21
}

; Function Attrs: nounwind ssp uwtable
define hidden zeroext i1 @_ZN21enterprise_connectors20NVRAMQuoteType_ParseERKNSt3__112basic_stringIcNS0_11char_traitsIcEENS0_9allocatorIcEEEEPNS_14NVRAMQuoteTypeE(%"class.std::__1::basic_string"* dereferenceable(24), i32* nocapture) local_unnamed_addr #0 {
  %3 = alloca i32, align 4
  %4 = bitcast i32* %3 to i8*
  call void @llvm.lifetime.start.p0i8(i64 4, i8* nonnull %4) #14
  store i32 -1431655766, i32* %3, align 4
  %5 = bitcast %"class.std::__1::basic_string"* %0 to %"struct.std::__1::basic_string<char, std::__1::char_traits<char>, std::__1::allocator<char> >::__short"*
  %6 = getelementptr inbounds %"struct.std::__1::basic_string<char, std::__1::char_traits<char>, std::__1::allocator<char> >::__short", %"struct.std::__1::basic_string<char, std::__1::char_traits<char>, std::__1::allocator<char> >::__short"* %5, i64 0, i32 1, i32 0
  %7 = load i8, i8* %6, align 1
  %8 = icmp slt i8 %7, 0
  %9 = getelementptr inbounds %"class.std::__1::basic_string", %"class.std::__1::basic_string"* %0, i64 0, i32 0, i32 0, i32 0, i32 0, i32 0, i32 0
  %10 = load i8*, i8** %9, align 8
  %11 = bitcast %"class.std::__1::basic_string"* %0 to i8*
  %12 = select i1 %8, i8* %10, i8* %11
  br i1 %8, label %15, label %13

13:                                               ; preds = %2
  %14 = zext i8 %7 to i64
  br label %20

15:                                               ; preds = %2
  %16 = getelementptr inbounds %"class.std::__1::basic_string", %"class.std::__1::basic_string"* %0, i64 0, i32 0, i32 0, i32 0, i32 0, i32 0, i32 1
  %17 = load i64, i64* %16, align 8
  %18 = icmp slt i64 %17, 0
  br i1 %18, label %19, label %20

19:                                               ; preds = %15
  tail call void @_ZN6google8protobuf11StringPiece18LogFatalSizeTooBigEmPKc(i64 %17, i8* getelementptr inbounds ([25 x i8], [25 x i8]* @.str.52, i64 0, i64 0)) #14
  br label %20

20:                                               ; preds = %13, %15, %19
  %21 = phi i64 [ %14, %13 ], [ %17, %15 ], [ %17, %19 ]
  %22 = call zeroext i1 @_ZN6google8protobuf8internal15LookUpEnumValueEPKNS1_9EnumEntryEmNS0_11StringPieceEPi(%"struct.google::protobuf::internal::EnumEntry"* getelementptr inbounds ([4 x %"struct.google::protobuf::internal::EnumEntry"], [4 x %"struct.google::protobuf::internal::EnumEntry"]* @_ZN21enterprise_connectorsL22NVRAMQuoteType_entriesE, i64 0, i64 0), i64 4, i8* %12, i64 %21, i32* nonnull %3) #14
  br i1 %22, label %23, label %25

23:                                               ; preds = %20
  %24 = load i32, i32* %3, align 4
  store i32 %24, i32* %1, align 4
  br label %25

25:                                               ; preds = %23, %20
  call void @llvm.lifetime.end.p0i8(i64 4, i8* nonnull %4) #14
  ret i1 %22
}

; Function Attrs: norecurse nounwind readnone ssp uwtable
define hidden zeroext i1 @_ZN21enterprise_connectors22ResponseStatus_IsValidEi(i32) local_unnamed_addr #1 {
  %2 = icmp ult i32 %0, 5
  ret i1 %2
}

; Function Attrs: nounwind ssp uwtable
define hidden dereferenceable(24) %"class.std::__1::basic_string"* @_ZN21enterprise_connectors19ResponseStatus_NameENS_14ResponseStatusE(i32) local_unnamed_addr #0 {
  %2 = load atomic i8, i8* bitcast (i64* @_ZGVZN21enterprise_connectors19ResponseStatus_NameENS_14ResponseStatusEE5dummy to i8*) acquire, align 8
  %3 = icmp eq i8 %2, 0
  br i1 %3, label %4, label %11, !prof !4

4:                                                ; preds = %1
  %5 = tail call i32 @__cxa_guard_acquire(i64* nonnull @_ZGVZN21enterprise_connectors19ResponseStatus_NameENS_14ResponseStatusEE5dummy) #14
  %6 = icmp eq i32 %5, 0
  br i1 %6, label %11, label %7

7:                                                ; preds = %4
  %8 = tail call zeroext i1 @_ZN6google8protobuf8internal21InitializeEnumStringsEPKNS1_9EnumEntryEPKimPNS1_21ExplicitlyConstructedINSt3__112basic_stringIcNS8_11char_traitsIcEENS8_9allocatorIcEEEEEE(%"struct.google::protobuf::internal::EnumEntry"* getelementptr inbounds ([5 x %"struct.google::protobuf::internal::EnumEntry"], [5 x %"struct.google::protobuf::internal::EnumEntry"]* @_ZN21enterprise_connectorsL22ResponseStatus_entriesE, i64 0, i64 0), i32* getelementptr inbounds ([5 x i32], [5 x i32]* @_ZN21enterprise_connectorsL32ResponseStatus_entries_by_numberE, i64 0, i64 0), i64 5, %"class.google::protobuf::internal::ExplicitlyConstructed.18"* getelementptr inbounds ([5 x %"class.google::protobuf::internal::ExplicitlyConstructed.18"], [5 x %"class.google::protobuf::internal::ExplicitlyConstructed.18"]* @_ZN21enterprise_connectorsL22ResponseStatus_stringsE, i64 0, i64 0)) #14
  %9 = zext i1 %8 to i8
  store i8 %9, i8* @_ZZN21enterprise_connectors19ResponseStatus_NameENS_14ResponseStatusEE5dummy, align 1
  %10 = tail call {}* @llvm.invariant.start.p0i8(i64 1, i8* nonnull @_ZZN21enterprise_connectors19ResponseStatus_NameENS_14ResponseStatusEE5dummy)
  tail call void @__cxa_guard_release(i64* nonnull @_ZGVZN21enterprise_connectors19ResponseStatus_NameENS_14ResponseStatusEE5dummy) #14
  br label %11

11:                                               ; preds = %4, %7, %1
  %12 = tail call i32 @_ZN6google8protobuf8internal14LookUpEnumNameEPKNS1_9EnumEntryEPKimi(%"struct.google::protobuf::internal::EnumEntry"* getelementptr inbounds ([5 x %"struct.google::protobuf::internal::EnumEntry"], [5 x %"struct.google::protobuf::internal::EnumEntry"]* @_ZN21enterprise_connectorsL22ResponseStatus_entriesE, i64 0, i64 0), i32* getelementptr inbounds ([5 x i32], [5 x i32]* @_ZN21enterprise_connectorsL32ResponseStatus_entries_by_numberE, i64 0, i64 0), i64 5, i32 %0) #14
  %13 = icmp eq i32 %12, -1
  br i1 %13, label %14, label %16

14:                                               ; preds = %11
  %15 = tail call dereferenceable(24) %"class.std::__1::basic_string"* @_ZN6google8protobuf8internal14GetEmptyStringEv() #14
  br label %20

16:                                               ; preds = %11
  %17 = sext i32 %12 to i64
  %18 = getelementptr inbounds [5 x %"class.google::protobuf::internal::ExplicitlyConstructed.18"], [5 x %"class.google::protobuf::internal::ExplicitlyConstructed.18"]* @_ZN21enterprise_connectorsL22ResponseStatus_stringsE, i64 0, i64 %17
  %19 = bitcast %"class.google::protobuf::internal::ExplicitlyConstructed.18"* %18 to %"class.std::__1::basic_string"*
  br label %20

20:                                               ; preds = %16, %14
  %21 = phi %"class.std::__1::basic_string"* [ %15, %14 ], [ %19, %16 ]
  ret %"class.std::__1::basic_string"* %21
}

; Function Attrs: nounwind ssp uwtable
define hidden zeroext i1 @_ZN21enterprise_connectors20ResponseStatus_ParseERKNSt3__112basic_stringIcNS0_11char_traitsIcEENS0_9allocatorIcEEEEPNS_14ResponseStatusE(%"class.std::__1::basic_string"* dereferenceable(24), i32* nocapture) local_unnamed_addr #0 {
  %3 = alloca i32, align 4
  %4 = bitcast i32* %3 to i8*
  call void @llvm.lifetime.start.p0i8(i64 4, i8* nonnull %4) #14
  store i32 -1431655766, i32* %3, align 4
  %5 = bitcast %"class.std::__1::basic_string"* %0 to %"struct.std::__1::basic_string<char, std::__1::char_traits<char>, std::__1::allocator<char> >::__short"*
  %6 = getelementptr inbounds %"struct.std::__1::basic_string<char, std::__1::char_traits<char>, std::__1::allocator<char> >::__short", %"struct.std::__1::basic_string<char, std::__1::char_traits<char>, std::__1::allocator<char> >::__short"* %5, i64 0, i32 1, i32 0
  %7 = load i8, i8* %6, align 1
  %8 = icmp slt i8 %7, 0
  %9 = getelementptr inbounds %"class.std::__1::basic_string", %"class.std::__1::basic_string"* %0, i64 0, i32 0, i32 0, i32 0, i32 0, i32 0, i32 0
  %10 = load i8*, i8** %9, align 8
  %11 = bitcast %"class.std::__1::basic_string"* %0 to i8*
  %12 = select i1 %8, i8* %10, i8* %11
  br i1 %8, label %15, label %13

13:                                               ; preds = %2
  %14 = zext i8 %7 to i64
  br label %20

15:                                               ; preds = %2
  %16 = getelementptr inbounds %"class.std::__1::basic_string", %"class.std::__1::basic_string"* %0, i64 0, i32 0, i32 0, i32 0, i32 0, i32 0, i32 1
  %17 = load i64, i64* %16, align 8
  %18 = icmp slt i64 %17, 0
  br i1 %18, label %19, label %20

19:                                               ; preds = %15
  tail call void @_ZN6google8protobuf11StringPiece18LogFatalSizeTooBigEmPKc(i64 %17, i8* getelementptr inbounds ([25 x i8], [25 x i8]* @.str.52, i64 0, i64 0)) #14
  br label %20

20:                                               ; preds = %13, %15, %19
  %21 = phi i64 [ %14, %13 ], [ %17, %15 ], [ %17, %19 ]
  %22 = call zeroext i1 @_ZN6google8protobuf8internal15LookUpEnumValueEPKNS1_9EnumEntryEmNS0_11StringPieceEPi(%"struct.google::protobuf::internal::EnumEntry"* getelementptr inbounds ([5 x %"struct.google::protobuf::internal::EnumEntry"], [5 x %"struct.google::protobuf::internal::EnumEntry"]* @_ZN21enterprise_connectorsL22ResponseStatus_entriesE, i64 0, i64 0), i64 5, i8* %12, i64 %21, i32* nonnull %3) #14
  br i1 %22, label %23, label %25

23:                                               ; preds = %20
  %24 = load i32, i32* %3, align 4
  store i32 %24, i32* %1, align 4
  br label %25

25:                                               ; preds = %23, %20
  call void @llvm.lifetime.end.p0i8(i64 4, i8* nonnull %4) #14
  ret i1 %22
}

; Function Attrs: norecurse nounwind readnone ssp uwtable
define hidden zeroext i1 @_ZN21enterprise_connectors18KeyProfile_IsValidEi(i32) local_unnamed_addr #1 {
  %2 = icmp ult i32 %0, 3
  ret i1 %2
}

; Function Attrs: nounwind ssp uwtable
define hidden dereferenceable(24) %"class.std::__1::basic_string"* @_ZN21enterprise_connectors15KeyProfile_NameENS_10KeyProfileE(i32) local_unnamed_addr #0 {
  %2 = load atomic i8, i8* bitcast (i64* @_ZGVZN21enterprise_connectors15KeyProfile_NameENS_10KeyProfileEE5dummy to i8*) acquire, align 8
  %3 = icmp eq i8 %2, 0
  br i1 %3, label %4, label %11, !prof !4

4:                                                ; preds = %1
  %5 = tail call i32 @__cxa_guard_acquire(i64* nonnull @_ZGVZN21enterprise_connectors15KeyProfile_NameENS_10KeyProfileEE5dummy) #14
  %6 = icmp eq i32 %5, 0
  br i1 %6, label %11, label %7

7:                                                ; preds = %4
  %8 = tail call zeroext i1 @_ZN6google8protobuf8internal21InitializeEnumStringsEPKNS1_9EnumEntryEPKimPNS1_21ExplicitlyConstructedINSt3__112basic_stringIcNS8_11char_traitsIcEENS8_9allocatorIcEEEEEE(%"struct.google::protobuf::internal::EnumEntry"* getelementptr inbounds ([3 x %"struct.google::protobuf::internal::EnumEntry"], [3 x %"struct.google::protobuf::internal::EnumEntry"]* @_ZN21enterprise_connectorsL18KeyProfile_entriesE, i64 0, i64 0), i32* getelementptr inbounds ([3 x i32], [3 x i32]* @_ZN21enterprise_connectorsL28KeyProfile_entries_by_numberE, i64 0, i64 0), i64 3, %"class.google::protobuf::internal::ExplicitlyConstructed.18"* getelementptr inbounds ([3 x %"class.google::protobuf::internal::ExplicitlyConstructed.18"], [3 x %"class.google::protobuf::internal::ExplicitlyConstructed.18"]* @_ZN21enterprise_connectorsL18KeyProfile_stringsE, i64 0, i64 0)) #14
  %9 = zext i1 %8 to i8
  store i8 %9, i8* @_ZZN21enterprise_connectors15KeyProfile_NameENS_10KeyProfileEE5dummy, align 1
  %10 = tail call {}* @llvm.invariant.start.p0i8(i64 1, i8* nonnull @_ZZN21enterprise_connectors15KeyProfile_NameENS_10KeyProfileEE5dummy)
  tail call void @__cxa_guard_release(i64* nonnull @_ZGVZN21enterprise_connectors15KeyProfile_NameENS_10KeyProfileEE5dummy) #14
  br label %11

11:                                               ; preds = %4, %7, %1
  %12 = tail call i32 @_ZN6google8protobuf8internal14LookUpEnumNameEPKNS1_9EnumEntryEPKimi(%"struct.google::protobuf::internal::EnumEntry"* getelementptr inbounds ([3 x %"struct.google::protobuf::internal::EnumEntry"], [3 x %"struct.google::protobuf::internal::EnumEntry"]* @_ZN21enterprise_connectorsL18KeyProfile_entriesE, i64 0, i64 0), i32* getelementptr inbounds ([3 x i32], [3 x i32]* @_ZN21enterprise_connectorsL28KeyProfile_entries_by_numberE, i64 0, i64 0), i64 3, i32 %0) #14
  %13 = icmp eq i32 %12, -1
  br i1 %13, label %14, label %16

14:                                               ; preds = %11
  %15 = tail call dereferenceable(24) %"class.std::__1::basic_string"* @_ZN6google8protobuf8internal14GetEmptyStringEv() #14
  br label %20

16:                                               ; preds = %11
  %17 = sext i32 %12 to i64
  %18 = getelementptr inbounds [3 x %"class.google::protobuf::internal::ExplicitlyConstructed.18"], [3 x %"class.google::protobuf::internal::ExplicitlyConstructed.18"]* @_ZN21enterprise_connectorsL18KeyProfile_stringsE, i64 0, i64 %17
  %19 = bitcast %"class.google::protobuf::internal::ExplicitlyConstructed.18"* %18 to %"class.std::__1::basic_string"*
  br label %20

20:                                               ; preds = %16, %14
  %21 = phi %"class.std::__1::basic_string"* [ %15, %14 ], [ %19, %16 ]
  ret %"class.std::__1::basic_string"* %21
}

; Function Attrs: nounwind ssp uwtable
define hidden zeroext i1 @_ZN21enterprise_connectors16KeyProfile_ParseERKNSt3__112basic_stringIcNS0_11char_traitsIcEENS0_9allocatorIcEEEEPNS_10KeyProfileE(%"class.std::__1::basic_string"* dereferenceable(24), i32* nocapture) local_unnamed_addr #0 {
  %3 = alloca i32, align 4
  %4 = bitcast i32* %3 to i8*
  call void @llvm.lifetime.start.p0i8(i64 4, i8* nonnull %4) #14
  store i32 -1431655766, i32* %3, align 4
  %5 = bitcast %"class.std::__1::basic_string"* %0 to %"struct.std::__1::basic_string<char, std::__1::char_traits<char>, std::__1::allocator<char> >::__short"*
  %6 = getelementptr inbounds %"struct.std::__1::basic_string<char, std::__1::char_traits<char>, std::__1::allocator<char> >::__short", %"struct.std::__1::basic_string<char, std::__1::char_traits<char>, std::__1::allocator<char> >::__short"* %5, i64 0, i32 1, i32 0
  %7 = load i8, i8* %6, align 1
  %8 = icmp slt i8 %7, 0
  %9 = getelementptr inbounds %"class.std::__1::basic_string", %"class.std::__1::basic_string"* %0, i64 0, i32 0, i32 0, i32 0, i32 0, i32 0, i32 0
  %10 = load i8*, i8** %9, align 8
  %11 = bitcast %"class.std::__1::basic_string"* %0 to i8*
  %12 = select i1 %8, i8* %10, i8* %11
  br i1 %8, label %15, label %13

13:                                               ; preds = %2
  %14 = zext i8 %7 to i64
  br label %20

15:                                               ; preds = %2
  %16 = getelementptr inbounds %"class.std::__1::basic_string", %"class.std::__1::basic_string"* %0, i64 0, i32 0, i32 0, i32 0, i32 0, i32 0, i32 1
  %17 = load i64, i64* %16, align 8
  %18 = icmp slt i64 %17, 0
  br i1 %18, label %19, label %20

19:                                               ; preds = %15
  tail call void @_ZN6google8protobuf11StringPiece18LogFatalSizeTooBigEmPKc(i64 %17, i8* getelementptr inbounds ([25 x i8], [25 x i8]* @.str.52, i64 0, i64 0)) #14
  br label %20

20:                                               ; preds = %13, %15, %19
  %21 = phi i64 [ %14, %13 ], [ %17, %15 ], [ %17, %19 ]
  %22 = call zeroext i1 @_ZN6google8protobuf8internal15LookUpEnumValueEPKNS1_9EnumEntryEmNS0_11StringPieceEPi(%"struct.google::protobuf::internal::EnumEntry"* getelementptr inbounds ([3 x %"struct.google::protobuf::internal::EnumEntry"], [3 x %"struct.google::protobuf::internal::EnumEntry"]* @_ZN21enterprise_connectorsL18KeyProfile_entriesE, i64 0, i64 0), i64 3, i8* %12, i64 %21, i32* nonnull %3) #14
  br i1 %22, label %23, label %25

23:                                               ; preds = %20
  %24 = load i32, i32* %3, align 4
  store i32 %24, i32* %1, align 4
  br label %25

25:                                               ; preds = %23, %20
  call void @llvm.lifetime.end.p0i8(i64 4, i8* nonnull %4) #14
  ret i1 %22
}

; Function Attrs: nounwind ssp uwtable
define hidden void @_ZN21enterprise_connectors5QuoteC2EPN6google8protobuf5ArenaE(%"class.enterprise_connectors::Quote"* nocapture, %"class.google::protobuf::Arena"*) unnamed_addr #0 align 2 {
  %3 = getelementptr inbounds %"class.enterprise_connectors::Quote", %"class.enterprise_connectors::Quote"* %0, i64 0, i32 0, i32 0
  %4 = getelementptr inbounds %"class.enterprise_connectors::Quote", %"class.enterprise_connectors::Quote"* %0, i64 0, i32 0, i32 1
  %5 = bitcast %"class.google::protobuf::internal::InternalMetadata"* %4 to %"class.google::protobuf::Arena"**
  store %"class.google::protobuf::Arena"* %1, %"class.google::protobuf::Arena"** %5, align 8
  store i32 (...)** bitcast (i8** getelementptr inbounds ({ [16 x i8*] }, { [16 x i8*] }* @_ZTVN21enterprise_connectors5QuoteE, i64 0, inrange i32 0, i64 2) to i32 (...)**), i32 (...)*** %3, align 8
  %6 = getelementptr inbounds %"class.enterprise_connectors::Quote", %"class.enterprise_connectors::Quote"* %0, i64 0, i32 1, i32 0, i64 0
  store i32 0, i32* %6, align 4
  %7 = getelementptr inbounds %"class.enterprise_connectors::Quote", %"class.enterprise_connectors::Quote"* %0, i64 0, i32 2, i32 0, i32 0, i32 0, i32 0, i32 0, i32 0
  store i32 0, i32* %7, align 4
  %8 = load atomic i32, i32* getelementptr inbounds ({ { { { i32 } }, i32, i32, void ()* }, [0 x i8*] }, { { { { i32 } }, i32, i32, void ()* }, [0 x i8*] }* @scc_info_Quote_device_5ftrust_5fattestation_5fca_2eproto, i64 0, i32 0, i32 0, i32 0, i32 0) acquire, align 8
  %9 = icmp eq i32 %8, 0
  br i1 %9, label %11, label %10, !prof !3

10:                                               ; preds = %2
  tail call void @_ZN6google8protobuf8internal11InitSCCImplEPNS1_11SCCInfoBaseE(%"struct.google::protobuf::internal::SCCInfoBase"* bitcast ({ { { { i32 } }, i32, i32, void ()* }, [0 x i8*] }* @scc_info_Quote_device_5ftrust_5fattestation_5fca_2eproto to %"struct.google::protobuf::internal::SCCInfoBase"*)) #14
  br label %11

11:                                               ; preds = %2, %10
  %12 = getelementptr inbounds %"class.enterprise_connectors::Quote", %"class.enterprise_connectors::Quote"* %0, i64 0, i32 3, i32 0
  %13 = bitcast %"class.std::__1::basic_string"** %12 to <2 x %"class.std::__1::basic_string"*>*
  store <2 x %"class.std::__1::basic_string"*> <%"class.std::__1::basic_string"* bitcast (%"class.google::protobuf::internal::ExplicitlyConstructed.18"* @_ZN6google8protobuf8internal26fixed_address_empty_stringE to %"class.std::__1::basic_string"*), %"class.std::__1::basic_string"* bitcast (%"class.google::protobuf::internal::ExplicitlyConstructed.18"* @_ZN6google8protobuf8internal26fixed_address_empty_stringE to %"class.std::__1::basic_string"*)>, <2 x %"class.std::__1::basic_string"*>* %13, align 8
  %14 = getelementptr inbounds %"class.enterprise_connectors::Quote", %"class.enterprise_connectors::Quote"* %0, i64 0, i32 5, i32 0
  %15 = bitcast %"class.std::__1::basic_string"** %14 to <2 x %"class.std::__1::basic_string"*>*
  store <2 x %"class.std::__1::basic_string"*> <%"class.std::__1::basic_string"* bitcast (%"class.google::protobuf::internal::ExplicitlyConstructed.18"* @_ZN6google8protobuf8internal26fixed_address_empty_stringE to %"class.std::__1::basic_string"*), %"class.std::__1::basic_string"* bitcast (%"class.google::protobuf::internal::ExplicitlyConstructed.18"* @_ZN6google8protobuf8internal26fixed_address_empty_stringE to %"class.std::__1::basic_string"*)>, <2 x %"class.std::__1::basic_string"*>* %15, align 8
  ret void
}

; Function Attrs: nounwind ssp uwtable
define hidden void @_ZN21enterprise_connectors5QuoteC2ERKS0_(%"class.enterprise_connectors::Quote"*, %"class.enterprise_connectors::Quote"* nocapture readonly dereferenceable(56)) unnamed_addr #0 align 2 {
  %3 = getelementptr inbounds %"class.enterprise_connectors::Quote", %"class.enterprise_connectors::Quote"* %0, i64 0, i32 0, i32 0
  %4 = getelementptr inbounds %"class.enterprise_connectors::Quote", %"class.enterprise_connectors::Quote"* %0, i64 0, i32 0, i32 1, i32 0
  store i8* null, i8** %4, align 8
  store i32 (...)** bitcast (i8** getelementptr inbounds ({ [16 x i8*] }, { [16 x i8*] }* @_ZTVN21enterprise_connectors5QuoteE, i64 0, inrange i32 0, i64 2) to i32 (...)**), i32 (...)*** %3, align 8
  %5 = getelementptr inbounds %"class.enterprise_connectors::Quote", %"class.enterprise_connectors::Quote"* %1, i64 0, i32 1, i32 0, i64 0
  %6 = getelementptr inbounds %"class.enterprise_connectors::Quote", %"class.enterprise_connectors::Quote"* %0, i64 0, i32 1, i32 0, i64 0
  %7 = load i32, i32* %5, align 8
  store i32 %7, i32* %6, align 8
  %8 = getelementptr inbounds %"class.enterprise_connectors::Quote", %"class.enterprise_connectors::Quote"* %0, i64 0, i32 2, i32 0, i32 0, i32 0, i32 0, i32 0, i32 0
  store i32 0, i32* %8, align 4
  %9 = getelementptr inbounds %"class.enterprise_connectors::Quote", %"class.enterprise_connectors::Quote"* %0, i64 0, i32 0, i32 1
  %10 = getelementptr inbounds %"class.enterprise_connectors::Quote", %"class.enterprise_connectors::Quote"* %1, i64 0, i32 0, i32 1
  %11 = bitcast %"class.google::protobuf::internal::InternalMetadata"* %10 to i64*
  %12 = load i64, i64* %11, align 8
  %13 = and i64 %12, 1
  %14 = icmp eq i64 %13, 0
  br i1 %14, label %33, label %15

15:                                               ; preds = %2
  %16 = and i64 %12, -2
  %17 = inttoptr i64 %16 to %"struct.google::protobuf::internal::InternalMetadata::Container"*
  %18 = getelementptr inbounds %"struct.google::protobuf::internal::InternalMetadata::Container", %"struct.google::protobuf::internal::InternalMetadata::Container"* %17, i64 0, i32 1
  %19 = tail call %"class.std::__1::basic_string"* @_ZN6google8protobuf8internal16InternalMetadata27mutable_unknown_fields_slowINSt3__112basic_stringIcNS4_11char_traitsIcEENS4_9allocatorIcEEEEEEPT_v(%"class.google::protobuf::internal::InternalMetadata"* %9) #14
  %20 = bitcast %"class.std::__1::basic_string"* %18 to %"struct.std::__1::basic_string<char, std::__1::char_traits<char>, std::__1::allocator<char> >::__short"*
  %21 = getelementptr inbounds %"struct.std::__1::basic_string<char, std::__1::char_traits<char>, std::__1::allocator<char> >::__short", %"struct.std::__1::basic_string<char, std::__1::char_traits<char>, std::__1::allocator<char> >::__short"* %20, i64 0, i32 1, i32 0
  %22 = load i8, i8* %21, align 1
  %23 = icmp slt i8 %22, 0
  %24 = getelementptr inbounds %"class.std::__1::basic_string", %"class.std::__1::basic_string"* %18, i64 0, i32 0, i32 0, i32 0, i32 0, i32 0, i32 0
  %25 = load i8*, i8** %24, align 8
  %26 = getelementptr inbounds %"struct.google::protobuf::internal::InternalMetadata::Container", %"struct.google::protobuf::internal::InternalMetadata::Container"* %17, i64 0, i32 1, i32 0, i32 0, i32 0, i32 0, i32 0, i32 1
  %27 = load i64, i64* %26, align 8
  %28 = bitcast %"class.std::__1::basic_string"* %18 to i8*
  %29 = zext i8 %22 to i64
  %30 = select i1 %23, i8* %25, i8* %28
  %31 = select i1 %23, i64 %27, i64 %29
  %32 = tail call dereferenceable(24) %"class.std::__1::basic_string"* @_ZNSt3__112basic_stringIcNS_11char_traitsIcEENS_9allocatorIcEEE6appendEPKcm(%"class.std::__1::basic_string"* %19, i8* %30, i64 %31) #14
  br label %33

33:                                               ; preds = %2, %15
  %34 = getelementptr inbounds %"class.enterprise_connectors::Quote", %"class.enterprise_connectors::Quote"* %0, i64 0, i32 3
  %35 = getelementptr inbounds %"struct.google::protobuf::internal::ArenaStringPtr", %"struct.google::protobuf::internal::ArenaStringPtr"* %34, i64 0, i32 0
  store %"class.std::__1::basic_string"* bitcast (%"class.google::protobuf::internal::ExplicitlyConstructed.18"* @_ZN6google8protobuf8internal26fixed_address_empty_stringE to %"class.std::__1::basic_string"*), %"class.std::__1::basic_string"** %35, align 8
  %36 = load i32, i32* %5, align 4
  %37 = and i32 %36, 1
  %38 = icmp eq i32 %37, 0
  br i1 %38, label %55, label %39

39:                                               ; preds = %33
  %40 = getelementptr inbounds %"class.enterprise_connectors::Quote", %"class.enterprise_connectors::Quote"* %1, i64 0, i32 3, i32 0
  %41 = load %"class.std::__1::basic_string"*, %"class.std::__1::basic_string"** %40, align 8
  %42 = bitcast %"class.google::protobuf::internal::InternalMetadata"* %9 to i64*
  %43 = load i64, i64* %42, align 8
  %44 = and i64 %43, 1
  %45 = icmp eq i64 %44, 0
  %46 = and i64 %43, -2
  br i1 %45, label %51, label %47, !prof !3

47:                                               ; preds = %39
  %48 = inttoptr i64 %46 to %"struct.google::protobuf::internal::InternalMetadata::ContainerBase"*
  %49 = getelementptr inbounds %"struct.google::protobuf::internal::InternalMetadata::ContainerBase", %"struct.google::protobuf::internal::InternalMetadata::ContainerBase"* %48, i64 0, i32 0
  %50 = load %"class.google::protobuf::Arena"*, %"class.google::protobuf::Arena"** %49, align 8
  br label %53

51:                                               ; preds = %39
  %52 = inttoptr i64 %46 to %"class.google::protobuf::Arena"*
  br label %53

53:                                               ; preds = %47, %51
  %54 = phi %"class.google::protobuf::Arena"* [ %50, %47 ], [ %52, %51 ]
  tail call void @_ZN6google8protobuf8internal14ArenaStringPtr14CreateInstanceEPNS0_5ArenaEPKNSt3__112basic_stringIcNS5_11char_traitsIcEENS5_9allocatorIcEEEE(%"struct.google::protobuf::internal::ArenaStringPtr"* %34, %"class.google::protobuf::Arena"* %54, %"class.std::__1::basic_string"* %41) #14
  br label %55

55:                                               ; preds = %33, %53
  %56 = getelementptr inbounds %"class.enterprise_connectors::Quote", %"class.enterprise_connectors::Quote"* %0, i64 0, i32 4
  %57 = getelementptr inbounds %"struct.google::protobuf::internal::ArenaStringPtr", %"struct.google::protobuf::internal::ArenaStringPtr"* %56, i64 0, i32 0
  store %"class.std::__1::basic_string"* bitcast (%"class.google::protobuf::internal::ExplicitlyConstructed.18"* @_ZN6google8protobuf8internal26fixed_address_empty_stringE to %"class.std::__1::basic_string"*), %"class.std::__1::basic_string"** %57, align 8
  %58 = load i32, i32* %5, align 4
  %59 = and i32 %58, 2
  %60 = icmp eq i32 %59, 0
  br i1 %60, label %77, label %61

61:                                               ; preds = %55
  %62 = getelementptr inbounds %"class.enterprise_connectors::Quote", %"class.enterprise_connectors::Quote"* %1, i64 0, i32 4, i32 0
  %63 = load %"class.std::__1::basic_string"*, %"class.std::__1::basic_string"** %62, align 8
  %64 = bitcast %"class.google::protobuf::internal::InternalMetadata"* %9 to i64*
  %65 = load i64, i64* %64, align 8
  %66 = and i64 %65, 1
  %67 = icmp eq i64 %66, 0
  %68 = and i64 %65, -2
  br i1 %67, label %73, label %69, !prof !3

69:                                               ; preds = %61
  %70 = inttoptr i64 %68 to %"struct.google::protobuf::internal::InternalMetadata::ContainerBase"*
  %71 = getelementptr inbounds %"struct.google::protobuf::internal::InternalMetadata::ContainerBase", %"struct.google::protobuf::internal::InternalMetadata::ContainerBase"* %70, i64 0, i32 0
  %72 = load %"class.google::protobuf::Arena"*, %"class.google::protobuf::Arena"** %71, align 8
  br label %75

73:                                               ; preds = %61
  %74 = inttoptr i64 %68 to %"class.google::protobuf::Arena"*
  br label %75

75:                                               ; preds = %69, %73
  %76 = phi %"class.google::protobuf::Arena"* [ %72, %69 ], [ %74, %73 ]
  tail call void @_ZN6google8protobuf8internal14ArenaStringPtr14CreateInstanceEPNS0_5ArenaEPKNSt3__112basic_stringIcNS5_11char_traitsIcEENS5_9allocatorIcEEEE(%"struct.google::protobuf::internal::ArenaStringPtr"* %56, %"class.google::protobuf::Arena"* %76, %"class.std::__1::basic_string"* %63) #14
  br label %77

77:                                               ; preds = %55, %75
  %78 = getelementptr inbounds %"class.enterprise_connectors::Quote", %"class.enterprise_connectors::Quote"* %0, i64 0, i32 5
  %79 = getelementptr inbounds %"struct.google::protobuf::internal::ArenaStringPtr", %"struct.google::protobuf::internal::ArenaStringPtr"* %78, i64 0, i32 0
  store %"class.std::__1::basic_string"* bitcast (%"class.google::protobuf::internal::ExplicitlyConstructed.18"* @_ZN6google8protobuf8internal26fixed_address_empty_stringE to %"class.std::__1::basic_string"*), %"class.std::__1::basic_string"** %79, align 8
  %80 = load i32, i32* %5, align 4
  %81 = and i32 %80, 4
  %82 = icmp eq i32 %81, 0
  br i1 %82, label %99, label %83

83:                                               ; preds = %77
  %84 = getelementptr inbounds %"class.enterprise_connectors::Quote", %"class.enterprise_connectors::Quote"* %1, i64 0, i32 5, i32 0
  %85 = load %"class.std::__1::basic_string"*, %"class.std::__1::basic_string"** %84, align 8
  %86 = bitcast %"class.google::protobuf::internal::InternalMetadata"* %9 to i64*
  %87 = load i64, i64* %86, align 8
  %88 = and i64 %87, 1
  %89 = icmp eq i64 %88, 0
  %90 = and i64 %87, -2
  br i1 %89, label %95, label %91, !prof !3

91:                                               ; preds = %83
  %92 = inttoptr i64 %90 to %"struct.google::protobuf::internal::InternalMetadata::ContainerBase"*
  %93 = getelementptr inbounds %"struct.google::protobuf::internal::InternalMetadata::ContainerBase", %"struct.google::protobuf::internal::InternalMetadata::ContainerBase"* %92, i64 0, i32 0
  %94 = load %"class.google::protobuf::Arena"*, %"class.google::protobuf::Arena"** %93, align 8
  br label %97

95:                                               ; preds = %83
  %96 = inttoptr i64 %90 to %"class.google::protobuf::Arena"*
  br label %97

97:                                               ; preds = %91, %95
  %98 = phi %"class.google::protobuf::Arena"* [ %94, %91 ], [ %96, %95 ]
  tail call void @_ZN6google8protobuf8internal14ArenaStringPtr14CreateInstanceEPNS0_5ArenaEPKNSt3__112basic_stringIcNS5_11char_traitsIcEENS5_9allocatorIcEEEE(%"struct.google::protobuf::internal::ArenaStringPtr"* %78, %"class.google::protobuf::Arena"* %98, %"class.std::__1::basic_string"* %85) #14
  br label %99

99:                                               ; preds = %77, %97
  %100 = getelementptr inbounds %"class.enterprise_connectors::Quote", %"class.enterprise_connectors::Quote"* %0, i64 0, i32 6
  %101 = getelementptr inbounds %"struct.google::protobuf::internal::ArenaStringPtr", %"struct.google::protobuf::internal::ArenaStringPtr"* %100, i64 0, i32 0
  store %"class.std::__1::basic_string"* bitcast (%"class.google::protobuf::internal::ExplicitlyConstructed.18"* @_ZN6google8protobuf8internal26fixed_address_empty_stringE to %"class.std::__1::basic_string"*), %"class.std::__1::basic_string"** %101, align 8
  %102 = load i32, i32* %5, align 4
  %103 = and i32 %102, 8
  %104 = icmp eq i32 %103, 0
  br i1 %104, label %121, label %105

105:                                              ; preds = %99
  %106 = getelementptr inbounds %"class.enterprise_connectors::Quote", %"class.enterprise_connectors::Quote"* %1, i64 0, i32 6, i32 0
  %107 = load %"class.std::__1::basic_string"*, %"class.std::__1::basic_string"** %106, align 8
  %108 = bitcast %"class.google::protobuf::internal::InternalMetadata"* %9 to i64*
  %109 = load i64, i64* %108, align 8
  %110 = and i64 %109, 1
  %111 = icmp eq i64 %110, 0
  %112 = and i64 %109, -2
  br i1 %111, label %117, label %113, !prof !3

113:                                              ; preds = %105
  %114 = inttoptr i64 %112 to %"struct.google::protobuf::internal::InternalMetadata::ContainerBase"*
  %115 = getelementptr inbounds %"struct.google::protobuf::internal::InternalMetadata::ContainerBase", %"struct.google::protobuf::internal::InternalMetadata::ContainerBase"* %114, i64 0, i32 0
  %116 = load %"class.google::protobuf::Arena"*, %"class.google::protobuf::Arena"** %115, align 8
  br label %119

117:                                              ; preds = %105
  %118 = inttoptr i64 %112 to %"class.google::protobuf::Arena"*
  br label %119

119:                                              ; preds = %113, %117
  %120 = phi %"class.google::protobuf::Arena"* [ %116, %113 ], [ %118, %117 ]
  tail call void @_ZN6google8protobuf8internal14ArenaStringPtr14CreateInstanceEPNS0_5ArenaEPKNSt3__112basic_stringIcNS5_11char_traitsIcEENS5_9allocatorIcEEEE(%"struct.google::protobuf::internal::ArenaStringPtr"* %100, %"class.google::protobuf::Arena"* %120, %"class.std::__1::basic_string"* %107) #14
  br label %121

121:                                              ; preds = %99, %119
  ret void
}

; Function Attrs: argmemonly nounwind
declare void @llvm.memcpy.p0i8.p0i8.i64(i8* nocapture writeonly, i8* nocapture readonly, i64, i1 immarg) #2

; Function Attrs: nounwind ssp uwtable
define hidden void @_ZN21enterprise_connectors5QuoteD2Ev(%"class.enterprise_connectors::Quote"*) unnamed_addr #0 align 2 {
  %2 = getelementptr inbounds %"class.enterprise_connectors::Quote", %"class.enterprise_connectors::Quote"* %0, i64 0, i32 0, i32 0
  store i32 (...)** bitcast (i8** getelementptr inbounds ({ [16 x i8*] }, { [16 x i8*] }* @_ZTVN21enterprise_connectors5QuoteE, i64 0, inrange i32 0, i64 2) to i32 (...)**), i32 (...)*** %2, align 8
  %3 = getelementptr inbounds %"class.enterprise_connectors::Quote", %"class.enterprise_connectors::Quote"* %0, i64 0, i32 3
  tail call void @_ZN6google8protobuf8internal14ArenaStringPtr14DestroyNoArenaEPKNSt3__112basic_stringIcNS3_11char_traitsIcEENS3_9allocatorIcEEEE(%"struct.google::protobuf::internal::ArenaStringPtr"* %3, %"class.std::__1::basic_string"* bitcast (%"class.google::protobuf::internal::ExplicitlyConstructed.18"* @_ZN6google8protobuf8internal26fixed_address_empty_stringE to %"class.std::__1::basic_string"*)) #14
  %4 = getelementptr inbounds %"class.enterprise_connectors::Quote", %"class.enterprise_connectors::Quote"* %0, i64 0, i32 4
  tail call void @_ZN6google8protobuf8internal14ArenaStringPtr14DestroyNoArenaEPKNSt3__112basic_stringIcNS3_11char_traitsIcEENS3_9allocatorIcEEEE(%"struct.google::protobuf::internal::ArenaStringPtr"* %4, %"class.std::__1::basic_string"* bitcast (%"class.google::protobuf::internal::ExplicitlyConstructed.18"* @_ZN6google8protobuf8internal26fixed_address_empty_stringE to %"class.std::__1::basic_string"*)) #14
  %5 = getelementptr inbounds %"class.enterprise_connectors::Quote", %"class.enterprise_connectors::Quote"* %0, i64 0, i32 5
  tail call void @_ZN6google8protobuf8internal14ArenaStringPtr14DestroyNoArenaEPKNSt3__112basic_stringIcNS3_11char_traitsIcEENS3_9allocatorIcEEEE(%"struct.google::protobuf::internal::ArenaStringPtr"* %5, %"class.std::__1::basic_string"* bitcast (%"class.google::protobuf::internal::ExplicitlyConstructed.18"* @_ZN6google8protobuf8internal26fixed_address_empty_stringE to %"class.std::__1::basic_string"*)) #14
  %6 = getelementptr inbounds %"class.enterprise_connectors::Quote", %"class.enterprise_connectors::Quote"* %0, i64 0, i32 6
  tail call void @_ZN6google8protobuf8internal14ArenaStringPtr14DestroyNoArenaEPKNSt3__112basic_stringIcNS3_11char_traitsIcEENS3_9allocatorIcEEEE(%"struct.google::protobuf::internal::ArenaStringPtr"* %6, %"class.std::__1::basic_string"* bitcast (%"class.google::protobuf::internal::ExplicitlyConstructed.18"* @_ZN6google8protobuf8internal26fixed_address_empty_stringE to %"class.std::__1::basic_string"*)) #14
  %7 = getelementptr inbounds %"class.enterprise_connectors::Quote", %"class.enterprise_connectors::Quote"* %0, i64 0, i32 0, i32 1
  %8 = bitcast %"class.google::protobuf::internal::InternalMetadata"* %7 to i64*
  %9 = load i64, i64* %8, align 8
  %10 = and i64 %9, 1
  %11 = icmp eq i64 %10, 0
  br i1 %11, label %32, label %12

12:                                               ; preds = %1
  %13 = and i64 %9, -2
  %14 = inttoptr i64 %13 to %"struct.google::protobuf::internal::InternalMetadata::ContainerBase"*
  %15 = getelementptr inbounds %"struct.google::protobuf::internal::InternalMetadata::ContainerBase", %"struct.google::protobuf::internal::InternalMetadata::ContainerBase"* %14, i64 0, i32 0
  %16 = load %"class.google::protobuf::Arena"*, %"class.google::protobuf::Arena"** %15, align 8
  %17 = icmp ne %"class.google::protobuf::Arena"* %16, null
  %18 = icmp eq i64 %13, 0
  %19 = or i1 %18, %17
  br i1 %19, label %32, label %20

20:                                               ; preds = %12
  %21 = inttoptr i64 %13 to %"struct.google::protobuf::internal::InternalMetadata::Container"*
  %22 = getelementptr inbounds %"struct.google::protobuf::internal::InternalMetadata::Container", %"struct.google::protobuf::internal::InternalMetadata::Container"* %21, i64 0, i32 1
  %23 = bitcast %"class.std::__1::basic_string"* %22 to %"struct.std::__1::basic_string<char, std::__1::char_traits<char>, std::__1::allocator<char> >::__short"*
  %24 = getelementptr inbounds %"struct.std::__1::basic_string<char, std::__1::char_traits<char>, std::__1::allocator<char> >::__short", %"struct.std::__1::basic_string<char, std::__1::char_traits<char>, std::__1::allocator<char> >::__short"* %23, i64 0, i32 1, i32 0
  %25 = load i8, i8* %24, align 1
  %26 = icmp slt i8 %25, 0
  br i1 %26, label %27, label %30

27:                                               ; preds = %20
  %28 = getelementptr inbounds %"class.std::__1::basic_string", %"class.std::__1::basic_string"* %22, i64 0, i32 0, i32 0, i32 0, i32 0, i32 0, i32 0
  %29 = load i8*, i8** %28, align 8
  tail call void @_ZdlPv(i8* %29) #15
  br label %30

30:                                               ; preds = %27, %20
  %31 = inttoptr i64 %13 to i8*
  tail call void @_ZdlPv(i8* %31) #15
  br label %32

32:                                               ; preds = %1, %12, %30
  ret void
}

; Function Attrs: nounwind ssp uwtable
define hidden void @_ZN21enterprise_connectors5QuoteD0Ev(%"class.enterprise_connectors::Quote"*) unnamed_addr #0 align 2 {
  tail call void @_ZN21enterprise_connectors5QuoteD2Ev(%"class.enterprise_connectors::Quote"* %0) #14
  %2 = bitcast %"class.enterprise_connectors::Quote"* %0 to i8*
  tail call void @_ZdlPv(i8* %2) #15
  ret void
}

; Function Attrs: nobuiltin nounwind
declare void @_ZdlPv(i8*) local_unnamed_addr #5

; Function Attrs: norecurse nounwind readnone ssp uwtable
define hidden void @_ZN21enterprise_connectors5Quote9ArenaDtorEPv(i8* nocapture) local_unnamed_addr #1 align 2 {
  ret void
}

; Function Attrs: nofree norecurse nounwind ssp uwtable
define hidden void @_ZNK21enterprise_connectors5Quote13SetCachedSizeEi(%"class.enterprise_connectors::Quote"* nocapture, i32) local_unnamed_addr #6 align 2 {
  %3 = getelementptr inbounds %"class.enterprise_connectors::Quote", %"class.enterprise_connectors::Quote"* %0, i64 0, i32 2, i32 0, i32 0, i32 0, i32 0, i32 0, i32 0
  store atomic i32 %1, i32* %3 monotonic, align 4
  ret void
}

; Function Attrs: nounwind ssp uwtable
define hidden dereferenceable(56) %"class.enterprise_connectors::Quote"* @_ZN21enterprise_connectors5Quote16default_instanceEv() local_unnamed_addr #0 align 2 {
  %1 = load atomic i32, i32* getelementptr inbounds ({ { { { i32 } }, i32, i32, void ()* }, [0 x i8*] }, { { { { i32 } }, i32, i32, void ()* }, [0 x i8*] }* @scc_info_Quote_device_5ftrust_5fattestation_5fca_2eproto, i64 0, i32 0, i32 0, i32 0, i32 0) acquire, align 8
  %2 = icmp eq i32 %1, 0
  br i1 %2, label %4, label %3, !prof !3

3:                                                ; preds = %0
  tail call void @_ZN6google8protobuf8internal11InitSCCImplEPNS1_11SCCInfoBaseE(%"struct.google::protobuf::internal::SCCInfoBase"* bitcast ({ { { { i32 } }, i32, i32, void ()* }, [0 x i8*] }* @scc_info_Quote_device_5ftrust_5fattestation_5fca_2eproto to %"struct.google::protobuf::internal::SCCInfoBase"*)) #14
  br label %4

4:                                                ; preds = %0, %3
  ret %"class.enterprise_connectors::Quote"* bitcast (%"class.enterprise_connectors::QuoteDefaultTypeInternal"* @_ZN21enterprise_connectors24_Quote_default_instance_E to %"class.enterprise_connectors::Quote"*)
}

; Function Attrs: nofree norecurse nounwind ssp uwtable
define hidden void @_ZN21enterprise_connectors5Quote5ClearEv(%"class.enterprise_connectors::Quote"* nocapture) unnamed_addr #6 align 2 {
  %2 = getelementptr inbounds %"class.enterprise_connectors::Quote", %"class.enterprise_connectors::Quote"* %0, i64 0, i32 1, i32 0, i64 0
  %3 = load i32, i32* %2, align 4
  %4 = and i32 %3, 15
  %5 = icmp eq i32 %4, 0
  br i1 %5, label %70, label %6

6:                                                ; preds = %1
  %7 = and i32 %3, 1
  %8 = icmp eq i32 %7, 0
  br i1 %8, label %22, label %9

9:                                                ; preds = %6
  %10 = getelementptr inbounds %"class.enterprise_connectors::Quote", %"class.enterprise_connectors::Quote"* %0, i64 0, i32 3, i32 0
  %11 = load %"class.std::__1::basic_string"*, %"class.std::__1::basic_string"** %10, align 8
  %12 = bitcast %"class.std::__1::basic_string"* %11 to %"struct.std::__1::basic_string<char, std::__1::char_traits<char>, std::__1::allocator<char> >::__short"*
  %13 = getelementptr inbounds %"struct.std::__1::basic_string<char, std::__1::char_traits<char>, std::__1::allocator<char> >::__short", %"struct.std::__1::basic_string<char, std::__1::char_traits<char>, std::__1::allocator<char> >::__short"* %12, i64 0, i32 1, i32 0
  %14 = load i8, i8* %13, align 1
  %15 = icmp slt i8 %14, 0
  br i1 %15, label %16, label %20

16:                                               ; preds = %9
  %17 = getelementptr inbounds %"class.std::__1::basic_string", %"class.std::__1::basic_string"* %11, i64 0, i32 0, i32 0, i32 0, i32 0, i32 0, i32 0
  %18 = load i8*, i8** %17, align 8
  store i8 0, i8* %18, align 1
  %19 = getelementptr inbounds %"class.std::__1::basic_string", %"class.std::__1::basic_string"* %11, i64 0, i32 0, i32 0, i32 0, i32 0, i32 0, i32 1
  store i64 0, i64* %19, align 8
  br label %22

20:                                               ; preds = %9
  %21 = bitcast %"class.std::__1::basic_string"* %11 to i8*
  store i8 0, i8* %21, align 1
  store i8 0, i8* %13, align 1
  br label %22

22:                                               ; preds = %20, %16, %6
  %23 = and i32 %3, 2
  %24 = icmp eq i32 %23, 0
  br i1 %24, label %38, label %25

25:                                               ; preds = %22
  %26 = getelementptr inbounds %"class.enterprise_connectors::Quote", %"class.enterprise_connectors::Quote"* %0, i64 0, i32 4, i32 0
  %27 = load %"class.std::__1::basic_string"*, %"class.std::__1::basic_string"** %26, align 8
  %28 = bitcast %"class.std::__1::basic_string"* %27 to %"struct.std::__1::basic_string<char, std::__1::char_traits<char>, std::__1::allocator<char> >::__short"*
  %29 = getelementptr inbounds %"struct.std::__1::basic_string<char, std::__1::char_traits<char>, std::__1::allocator<char> >::__short", %"struct.std::__1::basic_string<char, std::__1::char_traits<char>, std::__1::allocator<char> >::__short"* %28, i64 0, i32 1, i32 0
  %30 = load i8, i8* %29, align 1
  %31 = icmp slt i8 %30, 0
  br i1 %31, label %32, label %36

32:                                               ; preds = %25
  %33 = getelementptr inbounds %"class.std::__1::basic_string", %"class.std::__1::basic_string"* %27, i64 0, i32 0, i32 0, i32 0, i32 0, i32 0, i32 0
  %34 = load i8*, i8** %33, align 8
  store i8 0, i8* %34, align 1
  %35 = getelementptr inbounds %"class.std::__1::basic_string", %"class.std::__1::basic_string"* %27, i64 0, i32 0, i32 0, i32 0, i32 0, i32 0, i32 1
  store i64 0, i64* %35, align 8
  br label %38

36:                                               ; preds = %25
  %37 = bitcast %"class.std::__1::basic_string"* %27 to i8*
  store i8 0, i8* %37, align 1
  store i8 0, i8* %29, align 1
  br label %38

38:                                               ; preds = %36, %32, %22
  %39 = and i32 %3, 4
  %40 = icmp eq i32 %39, 0
  br i1 %40, label %54, label %41

41:                                               ; preds = %38
  %42 = getelementptr inbounds %"class.enterprise_connectors::Quote", %"class.enterprise_connectors::Quote"* %0, i64 0, i32 5, i32 0
  %43 = load %"class.std::__1::basic_string"*, %"class.std::__1::basic_string"** %42, align 8
  %44 = bitcast %"class.std::__1::basic_string"* %43 to %"struct.std::__1::basic_string<char, std::__1::char_traits<char>, std::__1::allocator<char> >::__short"*
  %45 = getelementptr inbounds %"struct.std::__1::basic_string<char, std::__1::char_traits<char>, std::__1::allocator<char> >::__short", %"struct.std::__1::basic_string<char, std::__1::char_traits<char>, std::__1::allocator<char> >::__short"* %44, i64 0, i32 1, i32 0
  %46 = load i8, i8* %45, align 1
  %47 = icmp slt i8 %46, 0
  br i1 %47, label %48, label %52

48:                                               ; preds = %41
  %49 = getelementptr inbounds %"class.std::__1::basic_string", %"class.std::__1::basic_string"* %43, i64 0, i32 0, i32 0, i32 0, i32 0, i32 0, i32 0
  %50 = load i8*, i8** %49, align 8
  store i8 0, i8* %50, align 1
  %51 = getelementptr inbounds %"class.std::__1::basic_string", %"class.std::__1::basic_string"* %43, i64 0, i32 0, i32 0, i32 0, i32 0, i32 0, i32 1
  store i64 0, i64* %51, align 8
  br label %54

52:                                               ; preds = %41
  %53 = bitcast %"class.std::__1::basic_string"* %43 to i8*
  store i8 0, i8* %53, align 1
  store i8 0, i8* %45, align 1
  br label %54

54:                                               ; preds = %52, %48, %38
  %55 = and i32 %3, 8
  %56 = icmp eq i32 %55, 0
  br i1 %56, label %70, label %57

57:                                               ; preds = %54
  %58 = getelementptr inbounds %"class.enterprise_connectors::Quote", %"class.enterprise_connectors::Quote"* %0, i64 0, i32 6, i32 0
  %59 = load %"class.std::__1::basic_string"*, %"class.std::__1::basic_string"** %58, align 8
  %60 = bitcast %"class.std::__1::basic_string"* %59 to %"struct.std::__1::basic_string<char, std::__1::char_traits<char>, std::__1::allocator<char> >::__short"*
  %61 = getelementptr inbounds %"struct.std::__1::basic_string<char, std::__1::char_traits<char>, std::__1::allocator<char> >::__short", %"struct.std::__1::basic_string<char, std::__1::char_traits<char>, std::__1::allocator<char> >::__short"* %60, i64 0, i32 1, i32 0
  %62 = load i8, i8* %61, align 1
  %63 = icmp slt i8 %62, 0
  br i1 %63, label %64, label %68

64:                                               ; preds = %57
  %65 = getelementptr inbounds %"class.std::__1::basic_string", %"class.std::__1::basic_string"* %59, i64 0, i32 0, i32 0, i32 0, i32 0, i32 0, i32 0
  %66 = load i8*, i8** %65, align 8
  store i8 0, i8* %66, align 1
  %67 = getelementptr inbounds %"class.std::__1::basic_string", %"class.std::__1::basic_string"* %59, i64 0, i32 0, i32 0, i32 0, i32 0, i32 0, i32 1
  store i64 0, i64* %67, align 8
  br label %70

68:                                               ; preds = %57
  %69 = bitcast %"class.std::__1::basic_string"* %59 to i8*
  store i8 0, i8* %69, align 1
  store i8 0, i8* %61, align 1
  br label %70

70:                                               ; preds = %68, %64, %54, %1
  store i32 0, i32* %2, align 4
  %71 = getelementptr inbounds %"class.enterprise_connectors::Quote", %"class.enterprise_connectors::Quote"* %0, i64 0, i32 0, i32 1
  %72 = bitcast %"class.google::protobuf::internal::InternalMetadata"* %71 to i64*
  %73 = load i64, i64* %72, align 8
  %74 = and i64 %73, 1
  %75 = icmp eq i64 %74, 0
  br i1 %75, label %90, label %76

76:                                               ; preds = %70
  %77 = and i64 %73, -2
  %78 = inttoptr i64 %77 to %"struct.google::protobuf::internal::InternalMetadata::Container"*
  %79 = getelementptr inbounds %"struct.google::protobuf::internal::InternalMetadata::Container", %"struct.google::protobuf::internal::InternalMetadata::Container"* %78, i64 0, i32 1
  %80 = bitcast %"class.std::__1::basic_string"* %79 to %"struct.std::__1::basic_string<char, std::__1::char_traits<char>, std::__1::allocator<char> >::__short"*
  %81 = getelementptr inbounds %"struct.std::__1::basic_string<char, std::__1::char_traits<char>, std::__1::allocator<char> >::__short", %"struct.std::__1::basic_string<char, std::__1::char_traits<char>, std::__1::allocator<char> >::__short"* %80, i64 0, i32 1, i32 0
  %82 = load i8, i8* %81, align 1
  %83 = icmp slt i8 %82, 0
  br i1 %83, label %84, label %88

84:                                               ; preds = %76
  %85 = getelementptr inbounds %"class.std::__1::basic_string", %"class.std::__1::basic_string"* %79, i64 0, i32 0, i32 0, i32 0, i32 0, i32 0, i32 0
  %86 = load i8*, i8** %85, align 8
  store i8 0, i8* %86, align 1
  %87 = getelementptr inbounds %"struct.google::protobuf::internal::InternalMetadata::Container", %"struct.google::protobuf::internal::InternalMetadata::Container"* %78, i64 0, i32 1, i32 0, i32 0, i32 0, i32 0, i32 0, i32 1
  store i64 0, i64* %87, align 8
  br label %90

88:                                               ; preds = %76
  %89 = bitcast %"class.std::__1::basic_string"* %79 to i8*
  store i8 0, i8* %89, align 2
  store i8 0, i8* %81, align 1
  br label %90

90:                                               ; preds = %70, %84, %88
  ret void
}

; Function Attrs: nounwind ssp uwtable
define hidden i8* @_ZN21enterprise_connectors5Quote14_InternalParseEPKcPN6google8protobuf8internal12ParseContextE(%"class.enterprise_connectors::Quote"*, i8*, %"class.google::protobuf::internal::ParseContext"*) unnamed_addr #0 align 2 {
  %4 = getelementptr inbounds %"class.google::protobuf::internal::ParseContext", %"class.google::protobuf::internal::ParseContext"* %2, i64 0, i32 0
  %5 = getelementptr inbounds %"class.google::protobuf::internal::ParseContext", %"class.google::protobuf::internal::ParseContext"* %2, i64 0, i32 2
  %6 = getelementptr inbounds %"class.google::protobuf::internal::ParseContext", %"class.google::protobuf::internal::ParseContext"* %2, i64 0, i32 0, i32 0
  %7 = getelementptr inbounds %"class.google::protobuf::internal::ParseContext", %"class.google::protobuf::internal::ParseContext"* %2, i64 0, i32 0, i32 1
  %8 = bitcast i8** %7 to i64*
  %9 = getelementptr inbounds %"class.google::protobuf::internal::ParseContext", %"class.google::protobuf::internal::ParseContext"* %2, i64 0, i32 0, i32 4
  %10 = getelementptr inbounds %"class.enterprise_connectors::Quote", %"class.enterprise_connectors::Quote"* %0, i64 0, i32 1, i32 0, i64 0
  %11 = getelementptr inbounds %"class.enterprise_connectors::Quote", %"class.enterprise_connectors::Quote"* %0, i64 0, i32 6
  %12 = getelementptr inbounds %"class.enterprise_connectors::Quote", %"class.enterprise_connectors::Quote"* %0, i64 0, i32 0, i32 1
  %13 = bitcast %"class.google::protobuf::internal::InternalMetadata"* %12 to i64*
  %14 = getelementptr inbounds %"struct.google::protobuf::internal::ArenaStringPtr", %"struct.google::protobuf::internal::ArenaStringPtr"* %11, i64 0, i32 0
  %15 = getelementptr inbounds %"class.enterprise_connectors::Quote", %"class.enterprise_connectors::Quote"* %0, i64 0, i32 5
  %16 = getelementptr inbounds %"struct.google::protobuf::internal::ArenaStringPtr", %"struct.google::protobuf::internal::ArenaStringPtr"* %15, i64 0, i32 0
  %17 = getelementptr inbounds %"class.enterprise_connectors::Quote", %"class.enterprise_connectors::Quote"* %0, i64 0, i32 4
  %18 = getelementptr inbounds %"struct.google::protobuf::internal::ArenaStringPtr", %"struct.google::protobuf::internal::ArenaStringPtr"* %17, i64 0, i32 0
  %19 = getelementptr inbounds %"class.enterprise_connectors::Quote", %"class.enterprise_connectors::Quote"* %0, i64 0, i32 3
  %20 = getelementptr inbounds %"struct.google::protobuf::internal::ArenaStringPtr", %"struct.google::protobuf::internal::ArenaStringPtr"* %19, i64 0, i32 0
  br label %21

21:                                               ; preds = %168, %3
  %22 = phi i8* [ %1, %3 ], [ %169, %168 ]
  %23 = load i32, i32* %5, align 4
  %24 = load i8*, i8** %6, align 8
  %25 = icmp ult i8* %22, %24
  br i1 %25, label %39, label %26, !prof !3

26:                                               ; preds = %21
  %27 = load i64, i64* %8, align 8
  %28 = ptrtoint i8* %22 to i64
  %29 = sub i64 %28, %27
  %30 = load i32, i32* %9, align 4
  %31 = sext i32 %30 to i64
  %32 = icmp eq i64 %29, %31
  br i1 %32, label %192, label %33

33:                                               ; preds = %26
  %34 = tail call { i8*, i8 } @_ZN6google8protobuf8internal18EpsCopyInputStream12DoneFallbackEPKci(%"class.google::protobuf::internal::EpsCopyInputStream"* %4, i8* %22, i32 %23) #14
  %35 = extractvalue { i8*, i8 } %34, 0
  %36 = extractvalue { i8*, i8 } %34, 1
  %37 = and i8 %36, 1
  %38 = icmp eq i8 %37, 0
  br i1 %38, label %39, label %192

39:                                               ; preds = %33, %21
  %40 = phi i8* [ %35, %33 ], [ %22, %21 ]
  %41 = load i8, i8* %40, align 1
  %42 = zext i8 %41 to i32
  %43 = icmp sgt i8 %41, -1
  %44 = getelementptr inbounds i8, i8* %40, i64 1
  br i1 %43, label %58, label %45

45:                                               ; preds = %39
  %46 = load i8, i8* %44, align 1
  %47 = zext i8 %46 to i32
  %48 = shl nuw nsw i32 %47, 7
  %49 = add nsw i32 %42, -128
  %50 = add nsw i32 %49, %48
  %51 = icmp sgt i8 %46, -1
  br i1 %51, label %52, label %54

52:                                               ; preds = %45
  %53 = getelementptr inbounds i8, i8* %40, i64 2
  br label %58

54:                                               ; preds = %45
  %55 = tail call { i8*, i32 } @_ZN6google8protobuf8internal15ReadTagFallbackEPKcj(i8* %40, i32 %50) #14
  %56 = extractvalue { i8*, i32 } %55, 0
  %57 = extractvalue { i8*, i32 } %55, 1
  br label %58

58:                                               ; preds = %39, %52, %54
  %59 = phi i32 [ %50, %52 ], [ %57, %54 ], [ %42, %39 ]
  %60 = phi i8* [ %53, %52 ], [ %56, %54 ], [ %44, %39 ]
  %61 = icmp eq i8* %60, null
  br i1 %61, label %192, label %62, !prof !5

62:                                               ; preds = %58
  %63 = lshr i32 %59, 3
  switch i32 %63, label %170 [
    i32 1, label %64
    i32 2, label %90
    i32 3, label %116
    i32 4, label %142
  ]

64:                                               ; preds = %62
  %65 = and i32 %59, 255
  %66 = icmp eq i32 %65, 10
  br i1 %66, label %67, label %170, !prof !3

67:                                               ; preds = %64
  %68 = load i32, i32* %10, align 4
  %69 = or i32 %68, 1
  store i32 %69, i32* %10, align 4
  %70 = load i64, i64* %13, align 8
  %71 = and i64 %70, 1
  %72 = icmp eq i64 %71, 0
  %73 = and i64 %70, -2
  br i1 %72, label %78, label %74, !prof !3

74:                                               ; preds = %67
  %75 = inttoptr i64 %73 to %"struct.google::protobuf::internal::InternalMetadata::ContainerBase"*
  %76 = getelementptr inbounds %"struct.google::protobuf::internal::InternalMetadata::ContainerBase", %"struct.google::protobuf::internal::InternalMetadata::ContainerBase"* %75, i64 0, i32 0
  %77 = load %"class.google::protobuf::Arena"*, %"class.google::protobuf::Arena"** %76, align 8
  br label %80

78:                                               ; preds = %67
  %79 = inttoptr i64 %73 to %"class.google::protobuf::Arena"*
  br label %80

80:                                               ; preds = %78, %74
  %81 = phi %"class.google::protobuf::Arena"* [ %77, %74 ], [ %79, %78 ]
  %82 = load %"class.std::__1::basic_string"*, %"class.std::__1::basic_string"** %20, align 8
  %83 = icmp eq %"class.std::__1::basic_string"* %82, bitcast (%"class.google::protobuf::internal::ExplicitlyConstructed.18"* @_ZN6google8protobuf8internal26fixed_address_empty_stringE to %"class.std::__1::basic_string"*)
  br i1 %83, label %84, label %86

84:                                               ; preds = %80
  tail call void @_ZN6google8protobuf8internal14ArenaStringPtr14CreateInstanceEPNS0_5ArenaEPKNSt3__112basic_stringIcNS5_11char_traitsIcEENS5_9allocatorIcEEEE(%"struct.google::protobuf::internal::ArenaStringPtr"* %19, %"class.google::protobuf::Arena"* %81, %"class.std::__1::basic_string"* bitcast (%"class.google::protobuf::internal::ExplicitlyConstructed.18"* @_ZN6google8protobuf8internal26fixed_address_empty_stringE to %"class.std::__1::basic_string"*)) #14
  %85 = load %"class.std::__1::basic_string"*, %"class.std::__1::basic_string"** %20, align 8
  br label %86

86:                                               ; preds = %80, %84
  %87 = phi %"class.std::__1::basic_string"* [ %85, %84 ], [ %82, %80 ]
  %88 = tail call i8* @_ZN6google8protobuf8internal24InlineGreedyStringParserEPNSt3__112basic_stringIcNS2_11char_traitsIcEENS2_9allocatorIcEEEEPKcPNS1_12ParseContextE(%"class.std::__1::basic_string"* %87, i8* nonnull %60, %"class.google::protobuf::internal::ParseContext"* %2) #14
  %89 = icmp eq i8* %88, null
  br i1 %89, label %192, label %168

90:                                               ; preds = %62
  %91 = and i32 %59, 255
  %92 = icmp eq i32 %91, 18
  br i1 %92, label %93, label %170, !prof !3

93:                                               ; preds = %90
  %94 = load i32, i32* %10, align 4
  %95 = or i32 %94, 2
  store i32 %95, i32* %10, align 4
  %96 = load i64, i64* %13, align 8
  %97 = and i64 %96, 1
  %98 = icmp eq i64 %97, 0
  %99 = and i64 %96, -2
  br i1 %98, label %104, label %100, !prof !3

100:                                              ; preds = %93
  %101 = inttoptr i64 %99 to %"struct.google::protobuf::internal::InternalMetadata::ContainerBase"*
  %102 = getelementptr inbounds %"struct.google::protobuf::internal::InternalMetadata::ContainerBase", %"struct.google::protobuf::internal::InternalMetadata::ContainerBase"* %101, i64 0, i32 0
  %103 = load %"class.google::protobuf::Arena"*, %"class.google::protobuf::Arena"** %102, align 8
  br label %106

104:                                              ; preds = %93
  %105 = inttoptr i64 %99 to %"class.google::protobuf::Arena"*
  br label %106

106:                                              ; preds = %104, %100
  %107 = phi %"class.google::protobuf::Arena"* [ %103, %100 ], [ %105, %104 ]
  %108 = load %"class.std::__1::basic_string"*, %"class.std::__1::basic_string"** %18, align 8
  %109 = icmp eq %"class.std::__1::basic_string"* %108, bitcast (%"class.google::protobuf::internal::ExplicitlyConstructed.18"* @_ZN6google8protobuf8internal26fixed_address_empty_stringE to %"class.std::__1::basic_string"*)
  br i1 %109, label %110, label %112

110:                                              ; preds = %106
  tail call void @_ZN6google8protobuf8internal14ArenaStringPtr14CreateInstanceEPNS0_5ArenaEPKNSt3__112basic_stringIcNS5_11char_traitsIcEENS5_9allocatorIcEEEE(%"struct.google::protobuf::internal::ArenaStringPtr"* %17, %"class.google::protobuf::Arena"* %107, %"class.std::__1::basic_string"* bitcast (%"class.google::protobuf::internal::ExplicitlyConstructed.18"* @_ZN6google8protobuf8internal26fixed_address_empty_stringE to %"class.std::__1::basic_string"*)) #14
  %111 = load %"class.std::__1::basic_string"*, %"class.std::__1::basic_string"** %18, align 8
  br label %112

112:                                              ; preds = %106, %110
  %113 = phi %"class.std::__1::basic_string"* [ %111, %110 ], [ %108, %106 ]
  %114 = tail call i8* @_ZN6google8protobuf8internal24InlineGreedyStringParserEPNSt3__112basic_stringIcNS2_11char_traitsIcEENS2_9allocatorIcEEEEPKcPNS1_12ParseContextE(%"class.std::__1::basic_string"* %113, i8* nonnull %60, %"class.google::protobuf::internal::ParseContext"* %2) #14
  %115 = icmp eq i8* %114, null
  br i1 %115, label %192, label %168

116:                                              ; preds = %62
  %117 = and i32 %59, 255
  %118 = icmp eq i32 %117, 26
  br i1 %118, label %119, label %170, !prof !3

119:                                              ; preds = %116
  %120 = load i32, i32* %10, align 4
  %121 = or i32 %120, 4
  store i32 %121, i32* %10, align 4
  %122 = load i64, i64* %13, align 8
  %123 = and i64 %122, 1
  %124 = icmp eq i64 %123, 0
  %125 = and i64 %122, -2
  br i1 %124, label %130, label %126, !prof !3

126:                                              ; preds = %119
  %127 = inttoptr i64 %125 to %"struct.google::protobuf::internal::InternalMetadata::ContainerBase"*
  %128 = getelementptr inbounds %"struct.google::protobuf::internal::InternalMetadata::ContainerBase", %"struct.google::protobuf::internal::InternalMetadata::ContainerBase"* %127, i64 0, i32 0
  %129 = load %"class.google::protobuf::Arena"*, %"class.google::protobuf::Arena"** %128, align 8
  br label %132

130:                                              ; preds = %119
  %131 = inttoptr i64 %125 to %"class.google::protobuf::Arena"*
  br label %132

132:                                              ; preds = %130, %126
  %133 = phi %"class.google::protobuf::Arena"* [ %129, %126 ], [ %131, %130 ]
  %134 = load %"class.std::__1::basic_string"*, %"class.std::__1::basic_string"** %16, align 8
  %135 = icmp eq %"class.std::__1::basic_string"* %134, bitcast (%"class.google::protobuf::internal::ExplicitlyConstructed.18"* @_ZN6google8protobuf8internal26fixed_address_empty_stringE to %"class.std::__1::basic_string"*)
  br i1 %135, label %136, label %138

136:                                              ; preds = %132
  tail call void @_ZN6google8protobuf8internal14ArenaStringPtr14CreateInstanceEPNS0_5ArenaEPKNSt3__112basic_stringIcNS5_11char_traitsIcEENS5_9allocatorIcEEEE(%"struct.google::protobuf::internal::ArenaStringPtr"* %15, %"class.google::protobuf::Arena"* %133, %"class.std::__1::basic_string"* bitcast (%"class.google::protobuf::internal::ExplicitlyConstructed.18"* @_ZN6google8protobuf8internal26fixed_address_empty_stringE to %"class.std::__1::basic_string"*)) #14
  %137 = load %"class.std::__1::basic_string"*, %"class.std::__1::basic_string"** %16, align 8
  br label %138

138:                                              ; preds = %132, %136
  %139 = phi %"class.std::__1::basic_string"* [ %137, %136 ], [ %134, %132 ]
  %140 = tail call i8* @_ZN6google8protobuf8internal24InlineGreedyStringParserEPNSt3__112basic_stringIcNS2_11char_traitsIcEENS2_9allocatorIcEEEEPKcPNS1_12ParseContextE(%"class.std::__1::basic_string"* %139, i8* nonnull %60, %"class.google::protobuf::internal::ParseContext"* %2) #14
  %141 = icmp eq i8* %140, null
  br i1 %141, label %192, label %168

142:                                              ; preds = %62
  %143 = and i32 %59, 255
  %144 = icmp eq i32 %143, 34
  br i1 %144, label %145, label %170, !prof !3

145:                                              ; preds = %142
  %146 = load i32, i32* %10, align 4
  %147 = or i32 %146, 8
  store i32 %147, i32* %10, align 4
  %148 = load i64, i64* %13, align 8
  %149 = and i64 %148, 1
  %150 = icmp eq i64 %149, 0
  %151 = and i64 %148, -2
  br i1 %150, label %156, label %152, !prof !3

152:                                              ; preds = %145
  %153 = inttoptr i64 %151 to %"struct.google::protobuf::internal::InternalMetadata::ContainerBase"*
  %154 = getelementptr inbounds %"struct.google::protobuf::internal::InternalMetadata::ContainerBase", %"struct.google::protobuf::internal::InternalMetadata::ContainerBase"* %153, i64 0, i32 0
  %155 = load %"class.google::protobuf::Arena"*, %"class.google::protobuf::Arena"** %154, align 8
  br label %158

156:                                              ; preds = %145
  %157 = inttoptr i64 %151 to %"class.google::protobuf::Arena"*
  br label %158

158:                                              ; preds = %156, %152
  %159 = phi %"class.google::protobuf::Arena"* [ %155, %152 ], [ %157, %156 ]
  %160 = load %"class.std::__1::basic_string"*, %"class.std::__1::basic_string"** %14, align 8
  %161 = icmp eq %"class.std::__1::basic_string"* %160, bitcast (%"class.google::protobuf::internal::ExplicitlyConstructed.18"* @_ZN6google8protobuf8internal26fixed_address_empty_stringE to %"class.std::__1::basic_string"*)
  br i1 %161, label %162, label %164

162:                                              ; preds = %158
  tail call void @_ZN6google8protobuf8internal14ArenaStringPtr14CreateInstanceEPNS0_5ArenaEPKNSt3__112basic_stringIcNS5_11char_traitsIcEENS5_9allocatorIcEEEE(%"struct.google::protobuf::internal::ArenaStringPtr"* %11, %"class.google::protobuf::Arena"* %159, %"class.std::__1::basic_string"* bitcast (%"class.google::protobuf::internal::ExplicitlyConstructed.18"* @_ZN6google8protobuf8internal26fixed_address_empty_stringE to %"class.std::__1::basic_string"*)) #14
  %163 = load %"class.std::__1::basic_string"*, %"class.std::__1::basic_string"** %14, align 8
  br label %164

164:                                              ; preds = %158, %162
  %165 = phi %"class.std::__1::basic_string"* [ %163, %162 ], [ %160, %158 ]
  %166 = tail call i8* @_ZN6google8protobuf8internal24InlineGreedyStringParserEPNSt3__112basic_stringIcNS2_11char_traitsIcEENS2_9allocatorIcEEEEPKcPNS1_12ParseContextE(%"class.std::__1::basic_string"* %165, i8* nonnull %60, %"class.google::protobuf::internal::ParseContext"* %2) #14
  %167 = icmp eq i8* %166, null
  br i1 %167, label %192, label %168

168:                                              ; preds = %164, %138, %112, %86, %188
  %169 = phi i8* [ %190, %188 ], [ %88, %86 ], [ %114, %112 ], [ %140, %138 ], [ %166, %164 ]
  br label %21

170:                                              ; preds = %62, %142, %116, %90, %64
  %171 = and i32 %59, 7
  %172 = icmp eq i32 %171, 4
  %173 = icmp eq i32 %59, 0
  %174 = or i1 %173, %172
  br i1 %174, label %175, label %178

175:                                              ; preds = %170
  %176 = add i32 %59, -1
  %177 = getelementptr inbounds %"class.google::protobuf::internal::ParseContext", %"class.google::protobuf::internal::ParseContext"* %2, i64 0, i32 0, i32 8
  store i32 %176, i32* %177, align 8
  br label %192

178:                                              ; preds = %170
  %179 = load i64, i64* %13, align 8
  %180 = and i64 %179, 1
  %181 = icmp eq i64 %180, 0
  br i1 %181, label %186, label %182, !prof !5

182:                                              ; preds = %178
  %183 = and i64 %179, -2
  %184 = inttoptr i64 %183 to %"struct.google::protobuf::internal::InternalMetadata::Container"*
  %185 = getelementptr inbounds %"struct.google::protobuf::internal::InternalMetadata::Container", %"struct.google::protobuf::internal::InternalMetadata::Container"* %184, i64 0, i32 1
  br label %188

186:                                              ; preds = %178
  %187 = tail call %"class.std::__1::basic_string"* @_ZN6google8protobuf8internal16InternalMetadata27mutable_unknown_fields_slowINSt3__112basic_stringIcNS4_11char_traitsIcEENS4_9allocatorIcEEEEEEPT_v(%"class.google::protobuf::internal::InternalMetadata"* %12) #14
  br label %188

188:                                              ; preds = %182, %186
  %189 = phi %"class.std::__1::basic_string"* [ %185, %182 ], [ %187, %186 ]
  %190 = tail call i8* @_ZN6google8protobuf8internal17UnknownFieldParseEjPNSt3__112basic_stringIcNS2_11char_traitsIcEENS2_9allocatorIcEEEEPKcPNS1_12ParseContextE(i32 %59, %"class.std::__1::basic_string"* %189, i8* nonnull %60, %"class.google::protobuf::internal::ParseContext"* %2) #14
  %191 = icmp eq i8* %190, null
  br i1 %191, label %192, label %168

192:                                              ; preds = %164, %138, %112, %86, %26, %188, %58, %33, %175
  %193 = phi i8* [ %60, %175 ], [ null, %164 ], [ null, %138 ], [ null, %112 ], [ null, %86 ], [ null, %58 ], [ null, %188 ], [ %22, %26 ], [ %35, %33 ]
  ret i8* %193
}

declare i8* @_ZN6google8protobuf8internal24InlineGreedyStringParserEPNSt3__112basic_stringIcNS2_11char_traitsIcEENS2_9allocatorIcEEEEPKcPNS1_12ParseContextE(%"class.std::__1::basic_string"*, i8*, %"class.google::protobuf::internal::ParseContext"*) local_unnamed_addr #4

declare i8* @_ZN6google8protobuf8internal17UnknownFieldParseEjPNSt3__112basic_stringIcNS2_11char_traitsIcEENS2_9allocatorIcEEEEPKcPNS1_12ParseContextE(i32, %"class.std::__1::basic_string"*, i8*, %"class.google::protobuf::internal::ParseContext"*) local_unnamed_addr #4

; Function Attrs: nounwind ssp uwtable
define hidden i8* @_ZNK21enterprise_connectors5Quote18_InternalSerializeEPhPN6google8protobuf2io19EpsCopyOutputStreamE(%"class.enterprise_connectors::Quote"* nocapture readonly, i8*, %"class.google::protobuf::io::EpsCopyOutputStream"*) unnamed_addr #0 align 2 {
  %4 = getelementptr inbounds %"class.enterprise_connectors::Quote", %"class.enterprise_connectors::Quote"* %0, i64 0, i32 1, i32 0, i64 0
  %5 = load i32, i32* %4, align 4
  %6 = and i32 %5, 1
  %7 = icmp eq i32 %6, 0
  br i1 %7, label %42, label %8

8:                                                ; preds = %3
  %9 = getelementptr inbounds %"class.enterprise_connectors::Quote", %"class.enterprise_connectors::Quote"* %0, i64 0, i32 3, i32 0
  %10 = load %"class.std::__1::basic_string"*, %"class.std::__1::basic_string"** %9, align 8
  %11 = bitcast %"class.std::__1::basic_string"* %10 to %"struct.std::__1::basic_string<char, std::__1::char_traits<char>, std::__1::allocator<char> >::__short"*
  %12 = getelementptr inbounds %"struct.std::__1::basic_string<char, std::__1::char_traits<char>, std::__1::allocator<char> >::__short", %"struct.std::__1::basic_string<char, std::__1::char_traits<char>, std::__1::allocator<char> >::__short"* %11, i64 0, i32 1, i32 0
  %13 = load i8, i8* %12, align 1
  %14 = icmp slt i8 %13, 0
  br i1 %14, label %17, label %15

15:                                               ; preds = %8
  %16 = zext i8 %13 to i64
  br label %21

17:                                               ; preds = %8
  %18 = getelementptr inbounds %"class.std::__1::basic_string", %"class.std::__1::basic_string"* %10, i64 0, i32 0, i32 0, i32 0, i32 0, i32 0, i32 1
  %19 = load i64, i64* %18, align 8
  %20 = icmp sgt i64 %19, 127
  br i1 %20, label %29, label %21, !prof !5

21:                                               ; preds = %17, %15
  %22 = phi i64 [ %16, %15 ], [ %19, %17 ]
  %23 = bitcast %"class.google::protobuf::io::EpsCopyOutputStream"* %2 to i64*
  %24 = load i64, i64* %23, align 8
  %25 = ptrtoint i8* %1 to i64
  %26 = sub i64 14, %25
  %27 = add i64 %26, %24
  %28 = icmp slt i64 %27, %22
  br i1 %28, label %29, label %31, !prof !5

29:                                               ; preds = %21, %17
  %30 = tail call i8* @_ZN6google8protobuf2io19EpsCopyOutputStream30WriteStringMaybeAliasedOutlineEjRKNSt3__112basic_stringIcNS3_11char_traitsIcEENS3_9allocatorIcEEEEPh(%"class.google::protobuf::io::EpsCopyOutputStream"* %2, i32 1, %"class.std::__1::basic_string"* dereferenceable(24) %10, i8* %1) #14
  br label %42

31:                                               ; preds = %21
  store i8 10, i8* %1, align 1
  %32 = getelementptr inbounds i8, i8* %1, i64 1
  %33 = trunc i64 %22 to i8
  %34 = getelementptr inbounds i8, i8* %1, i64 2
  store i8 %33, i8* %32, align 1
  %35 = load i8, i8* %12, align 1
  %36 = icmp slt i8 %35, 0
  %37 = getelementptr inbounds %"class.std::__1::basic_string", %"class.std::__1::basic_string"* %10, i64 0, i32 0, i32 0, i32 0, i32 0, i32 0, i32 0
  %38 = load i8*, i8** %37, align 8
  %39 = bitcast %"class.std::__1::basic_string"* %10 to i8*
  %40 = select i1 %36, i8* %38, i8* %39
  tail call void @llvm.memcpy.p0i8.p0i8.i64(i8* align 1 %34, i8* align 1 %40, i64 %22, i1 false) #14
  %41 = getelementptr inbounds i8, i8* %34, i64 %22
  br label %42

42:                                               ; preds = %31, %29, %3
  %43 = phi i8* [ %1, %3 ], [ %30, %29 ], [ %41, %31 ]
  %44 = and i32 %5, 2
  %45 = icmp eq i32 %44, 0
  br i1 %45, label %80, label %46

46:                                               ; preds = %42
  %47 = getelementptr inbounds %"class.enterprise_connectors::Quote", %"class.enterprise_connectors::Quote"* %0, i64 0, i32 4, i32 0
  %48 = load %"class.std::__1::basic_string"*, %"class.std::__1::basic_string"** %47, align 8
  %49 = bitcast %"class.std::__1::basic_string"* %48 to %"struct.std::__1::basic_string<char, std::__1::char_traits<char>, std::__1::allocator<char> >::__short"*
  %50 = getelementptr inbounds %"struct.std::__1::basic_string<char, std::__1::char_traits<char>, std::__1::allocator<char> >::__short", %"struct.std::__1::basic_string<char, std::__1::char_traits<char>, std::__1::allocator<char> >::__short"* %49, i64 0, i32 1, i32 0
  %51 = load i8, i8* %50, align 1
  %52 = icmp slt i8 %51, 0
  br i1 %52, label %55, label %53

53:                                               ; preds = %46
  %54 = zext i8 %51 to i64
  br label %59

55:                                               ; preds = %46
  %56 = getelementptr inbounds %"class.std::__1::basic_string", %"class.std::__1::basic_string"* %48, i64 0, i32 0, i32 0, i32 0, i32 0, i32 0, i32 1
  %57 = load i64, i64* %56, align 8
  %58 = icmp sgt i64 %57, 127
  br i1 %58, label %67, label %59, !prof !5

59:                                               ; preds = %55, %53
  %60 = phi i64 [ %54, %53 ], [ %57, %55 ]
  %61 = bitcast %"class.google::protobuf::io::EpsCopyOutputStream"* %2 to i64*
  %62 = load i64, i64* %61, align 8
  %63 = ptrtoint i8* %43 to i64
  %64 = sub i64 14, %63
  %65 = add i64 %64, %62
  %66 = icmp slt i64 %65, %60
  br i1 %66, label %67, label %69, !prof !5

67:                                               ; preds = %59, %55
  %68 = tail call i8* @_ZN6google8protobuf2io19EpsCopyOutputStream30WriteStringMaybeAliasedOutlineEjRKNSt3__112basic_stringIcNS3_11char_traitsIcEENS3_9allocatorIcEEEEPh(%"class.google::protobuf::io::EpsCopyOutputStream"* %2, i32 2, %"class.std::__1::basic_string"* dereferenceable(24) %48, i8* %43) #14
  br label %80

69:                                               ; preds = %59
  store i8 18, i8* %43, align 1
  %70 = getelementptr inbounds i8, i8* %43, i64 1
  %71 = trunc i64 %60 to i8
  %72 = getelementptr inbounds i8, i8* %43, i64 2
  store i8 %71, i8* %70, align 1
  %73 = load i8, i8* %50, align 1
  %74 = icmp slt i8 %73, 0
  %75 = getelementptr inbounds %"class.std::__1::basic_string", %"class.std::__1::basic_string"* %48, i64 0, i32 0, i32 0, i32 0, i32 0, i32 0, i32 0
  %76 = load i8*, i8** %75, align 8
  %77 = bitcast %"class.std::__1::basic_string"* %48 to i8*
  %78 = select i1 %74, i8* %76, i8* %77
  tail call void @llvm.memcpy.p0i8.p0i8.i64(i8* align 1 %72, i8* align 1 %78, i64 %60, i1 false) #14
  %79 = getelementptr inbounds i8, i8* %72, i64 %60
  br label %80

80:                                               ; preds = %69, %67, %42
  %81 = phi i8* [ %43, %42 ], [ %68, %67 ], [ %79, %69 ]
  %82 = and i32 %5, 4
  %83 = icmp eq i32 %82, 0
  br i1 %83, label %118, label %84

84:                                               ; preds = %80
  %85 = getelementptr inbounds %"class.enterprise_connectors::Quote", %"class.enterprise_connectors::Quote"* %0, i64 0, i32 5, i32 0
  %86 = load %"class.std::__1::basic_string"*, %"class.std::__1::basic_string"** %85, align 8
  %87 = bitcast %"class.std::__1::basic_string"* %86 to %"struct.std::__1::basic_string<char, std::__1::char_traits<char>, std::__1::allocator<char> >::__short"*
  %88 = getelementptr inbounds %"struct.std::__1::basic_string<char, std::__1::char_traits<char>, std::__1::allocator<char> >::__short", %"struct.std::__1::basic_string<char, std::__1::char_traits<char>, std::__1::allocator<char> >::__short"* %87, i64 0, i32 1, i32 0
  %89 = load i8, i8* %88, align 1
  %90 = icmp slt i8 %89, 0
  br i1 %90, label %93, label %91

91:                                               ; preds = %84
  %92 = zext i8 %89 to i64
  br label %97

93:                                               ; preds = %84
  %94 = getelementptr inbounds %"class.std::__1::basic_string", %"class.std::__1::basic_string"* %86, i64 0, i32 0, i32 0, i32 0, i32 0, i32 0, i32 1
  %95 = load i64, i64* %94, align 8
  %96 = icmp sgt i64 %95, 127
  br i1 %96, label %105, label %97, !prof !5

97:                                               ; preds = %93, %91
  %98 = phi i64 [ %92, %91 ], [ %95, %93 ]
  %99 = bitcast %"class.google::protobuf::io::EpsCopyOutputStream"* %2 to i64*
  %100 = load i64, i64* %99, align 8
  %101 = ptrtoint i8* %81 to i64
  %102 = sub i64 14, %101
  %103 = add i64 %102, %100
  %104 = icmp slt i64 %103, %98
  br i1 %104, label %105, label %107, !prof !5

105:                                              ; preds = %97, %93
  %106 = tail call i8* @_ZN6google8protobuf2io19EpsCopyOutputStream30WriteStringMaybeAliasedOutlineEjRKNSt3__112basic_stringIcNS3_11char_traitsIcEENS3_9allocatorIcEEEEPh(%"class.google::protobuf::io::EpsCopyOutputStream"* %2, i32 3, %"class.std::__1::basic_string"* dereferenceable(24) %86, i8* %81) #14
  br label %118

107:                                              ; preds = %97
  store i8 26, i8* %81, align 1
  %108 = getelementptr inbounds i8, i8* %81, i64 1
  %109 = trunc i64 %98 to i8
  %110 = getelementptr inbounds i8, i8* %81, i64 2
  store i8 %109, i8* %108, align 1
  %111 = load i8, i8* %88, align 1
  %112 = icmp slt i8 %111, 0
  %113 = getelementptr inbounds %"class.std::__1::basic_string", %"class.std::__1::basic_string"* %86, i64 0, i32 0, i32 0, i32 0, i32 0, i32 0, i32 0
  %114 = load i8*, i8** %113, align 8
  %115 = bitcast %"class.std::__1::basic_string"* %86 to i8*
  %116 = select i1 %112, i8* %114, i8* %115
  tail call void @llvm.memcpy.p0i8.p0i8.i64(i8* align 1 %110, i8* align 1 %116, i64 %98, i1 false) #14
  %117 = getelementptr inbounds i8, i8* %110, i64 %98
  br label %118

118:                                              ; preds = %107, %105, %80
  %119 = phi i8* [ %81, %80 ], [ %106, %105 ], [ %117, %107 ]
  %120 = and i32 %5, 8
  %121 = icmp eq i32 %120, 0
  br i1 %121, label %156, label %122

122:                                              ; preds = %118
  %123 = getelementptr inbounds %"class.enterprise_connectors::Quote", %"class.enterprise_connectors::Quote"* %0, i64 0, i32 6, i32 0
  %124 = load %"class.std::__1::basic_string"*, %"class.std::__1::basic_string"** %123, align 8
  %125 = bitcast %"class.std::__1::basic_string"* %124 to %"struct.std::__1::basic_string<char, std::__1::char_traits<char>, std::__1::allocator<char> >::__short"*
  %126 = getelementptr inbounds %"struct.std::__1::basic_string<char, std::__1::char_traits<char>, std::__1::allocator<char> >::__short", %"struct.std::__1::basic_string<char, std::__1::char_traits<char>, std::__1::allocator<char> >::__short"* %125, i64 0, i32 1, i32 0
  %127 = load i8, i8* %126, align 1
  %128 = icmp slt i8 %127, 0
  br i1 %128, label %131, label %129

129:                                              ; preds = %122
  %130 = zext i8 %127 to i64
  br label %135

131:                                              ; preds = %122
  %132 = getelementptr inbounds %"class.std::__1::basic_string", %"class.std::__1::basic_string"* %124, i64 0, i32 0, i32 0, i32 0, i32 0, i32 0, i32 1
  %133 = load i64, i64* %132, align 8
  %134 = icmp sgt i64 %133, 127
  br i1 %134, label %143, label %135, !prof !5

135:                                              ; preds = %131, %129
  %136 = phi i64 [ %130, %129 ], [ %133, %131 ]
  %137 = bitcast %"class.google::protobuf::io::EpsCopyOutputStream"* %2 to i64*
  %138 = load i64, i64* %137, align 8
  %139 = ptrtoint i8* %119 to i64
  %140 = sub i64 14, %139
  %141 = add i64 %140, %138
  %142 = icmp slt i64 %141, %136
  br i1 %142, label %143, label %145, !prof !5

143:                                              ; preds = %135, %131
  %144 = tail call i8* @_ZN6google8protobuf2io19EpsCopyOutputStream30WriteStringMaybeAliasedOutlineEjRKNSt3__112basic_stringIcNS3_11char_traitsIcEENS3_9allocatorIcEEEEPh(%"class.google::protobuf::io::EpsCopyOutputStream"* %2, i32 4, %"class.std::__1::basic_string"* dereferenceable(24) %124, i8* %119) #14
  br label %156

145:                                              ; preds = %135
  store i8 34, i8* %119, align 1
  %146 = getelementptr inbounds i8, i8* %119, i64 1
  %147 = trunc i64 %136 to i8
  %148 = getelementptr inbounds i8, i8* %119, i64 2
  store i8 %147, i8* %146, align 1
  %149 = load i8, i8* %126, align 1
  %150 = icmp slt i8 %149, 0
  %151 = getelementptr inbounds %"class.std::__1::basic_string", %"class.std::__1::basic_string"* %124, i64 0, i32 0, i32 0, i32 0, i32 0, i32 0, i32 0
  %152 = load i8*, i8** %151, align 8
  %153 = bitcast %"class.std::__1::basic_string"* %124 to i8*
  %154 = select i1 %150, i8* %152, i8* %153
  tail call void @llvm.memcpy.p0i8.p0i8.i64(i8* align 1 %148, i8* align 1 %154, i64 %136, i1 false) #14
  %155 = getelementptr inbounds i8, i8* %148, i64 %136
  br label %156

156:                                              ; preds = %145, %143, %118
  %157 = phi i8* [ %119, %118 ], [ %144, %143 ], [ %155, %145 ]
  %158 = getelementptr inbounds %"class.enterprise_connectors::Quote", %"class.enterprise_connectors::Quote"* %0, i64 0, i32 0, i32 1
  %159 = bitcast %"class.google::protobuf::internal::InternalMetadata"* %158 to i64*
  %160 = load i64, i64* %159, align 8
  %161 = and i64 %160, 1
  %162 = icmp eq i64 %161, 0
  br i1 %162, label %194, label %163, !prof !3

163:                                              ; preds = %156
  %164 = and i64 %160, -2
  %165 = inttoptr i64 %164 to %"struct.google::protobuf::internal::InternalMetadata::Container"*
  %166 = getelementptr inbounds %"struct.google::protobuf::internal::InternalMetadata::Container", %"struct.google::protobuf::internal::InternalMetadata::Container"* %165, i64 0, i32 1
  %167 = bitcast %"class.std::__1::basic_string"* %166 to %"struct.std::__1::basic_string<char, std::__1::char_traits<char>, std::__1::allocator<char> >::__short"*
  %168 = getelementptr inbounds %"struct.std::__1::basic_string<char, std::__1::char_traits<char>, std::__1::allocator<char> >::__short", %"struct.std::__1::basic_string<char, std::__1::char_traits<char>, std::__1::allocator<char> >::__short"* %167, i64 0, i32 1, i32 0
  %169 = load i8, i8* %168, align 1
  %170 = icmp slt i8 %169, 0
  br i1 %170, label %171, label %176

171:                                              ; preds = %163
  %172 = getelementptr inbounds %"class.std::__1::basic_string", %"class.std::__1::basic_string"* %166, i64 0, i32 0, i32 0, i32 0, i32 0, i32 0, i32 0
  %173 = load i8*, i8** %172, align 8
  %174 = getelementptr inbounds %"struct.google::protobuf::internal::InternalMetadata::Container", %"struct.google::protobuf::internal::InternalMetadata::Container"* %165, i64 0, i32 1, i32 0, i32 0, i32 0, i32 0, i32 0, i32 1
  %175 = load i64, i64* %174, align 8
  br label %179

176:                                              ; preds = %163
  %177 = bitcast %"class.std::__1::basic_string"* %166 to i8*
  %178 = zext i8 %169 to i64
  br label %179

179:                                              ; preds = %171, %176
  %180 = phi i8* [ %173, %171 ], [ %177, %176 ]
  %181 = phi i64 [ %175, %171 ], [ %178, %176 ]
  %182 = bitcast %"class.google::protobuf::io::EpsCopyOutputStream"* %2 to i64*
  %183 = load i64, i64* %182, align 8
  %184 = ptrtoint i8* %157 to i64
  %185 = sub i64 %183, %184
  %186 = shl i64 %181, 32
  %187 = ashr exact i64 %186, 32
  %188 = icmp slt i64 %185, %187
  br i1 %188, label %189, label %192, !prof !5

189:                                              ; preds = %179
  %190 = trunc i64 %181 to i32
  %191 = tail call i8* @_ZN6google8protobuf2io19EpsCopyOutputStream16WriteRawFallbackEPKviPh(%"class.google::protobuf::io::EpsCopyOutputStream"* %2, i8* %180, i32 %190, i8* %157) #14
  br label %194

192:                                              ; preds = %179
  tail call void @llvm.memcpy.p0i8.p0i8.i64(i8* align 1 %157, i8* align 1 %180, i64 %187, i1 false) #14
  %193 = getelementptr inbounds i8, i8* %157, i64 %187
  br label %194

194:                                              ; preds = %156, %192, %189
  %195 = phi i8* [ %157, %156 ], [ %191, %189 ], [ %193, %192 ]
  ret i8* %195
}

; Function Attrs: nounwind ssp uwtable
define hidden i64 @_ZNK21enterprise_connectors5Quote12ByteSizeLongEv(%"class.enterprise_connectors::Quote"* nocapture) unnamed_addr #0 align 2 {
  %2 = getelementptr inbounds %"class.enterprise_connectors::Quote", %"class.enterprise_connectors::Quote"* %0, i64 0, i32 1, i32 0, i64 0
  %3 = load i32, i32* %2, align 4
  %4 = and i32 %3, 15
  %5 = icmp eq i32 %4, 0
  br i1 %5, label %108, label %6

6:                                                ; preds = %1
  %7 = and i32 %3, 1
  %8 = icmp eq i32 %7, 0
  br i1 %8, label %30, label %9

9:                                                ; preds = %6
  %10 = getelementptr inbounds %"class.enterprise_connectors::Quote", %"class.enterprise_connectors::Quote"* %0, i64 0, i32 3, i32 0
  %11 = load %"class.std::__1::basic_string"*, %"class.std::__1::basic_string"** %10, align 8
  %12 = bitcast %"class.std::__1::basic_string"* %11 to %"struct.std::__1::basic_string<char, std::__1::char_traits<char>, std::__1::allocator<char> >::__short"*
  %13 = getelementptr inbounds %"struct.std::__1::basic_string<char, std::__1::char_traits<char>, std::__1::allocator<char> >::__short", %"struct.std::__1::basic_string<char, std::__1::char_traits<char>, std::__1::allocator<char> >::__short"* %12, i64 0, i32 1, i32 0
  %14 = load i8, i8* %13, align 1
  %15 = icmp slt i8 %14, 0
  %16 = getelementptr inbounds %"class.std::__1::basic_string", %"class.std::__1::basic_string"* %11, i64 0, i32 0, i32 0, i32 0, i32 0, i32 0, i32 1
  %17 = load i64, i64* %16, align 8
  %18 = zext i8 %14 to i64
  %19 = select i1 %15, i64 %17, i64 %18
  %20 = trunc i64 %19 to i32
  %21 = or i32 %20, 1
  %22 = tail call i32 @llvm.ctlz.i32(i32 %21, i1 true) #14, !range !6
  %23 = xor i32 %22, 31
  %24 = mul nuw nsw i32 %23, 9
  %25 = add nuw nsw i32 %24, 73
  %26 = lshr i32 %25, 6
  %27 = zext i32 %26 to i64
  %28 = add i64 %19, 1
  %29 = add i64 %28, %27
  br label %30

30:                                               ; preds = %6, %9
  %31 = phi i64 [ %29, %9 ], [ 0, %6 ]
  %32 = and i32 %3, 2
  %33 = icmp eq i32 %32, 0
  br i1 %33, label %56, label %34

34:                                               ; preds = %30
  %35 = getelementptr inbounds %"class.enterprise_connectors::Quote", %"class.enterprise_connectors::Quote"* %0, i64 0, i32 4, i32 0
  %36 = load %"class.std::__1::basic_string"*, %"class.std::__1::basic_string"** %35, align 8
  %37 = bitcast %"class.std::__1::basic_string"* %36 to %"struct.std::__1::basic_string<char, std::__1::char_traits<char>, std::__1::allocator<char> >::__short"*
  %38 = getelementptr inbounds %"struct.std::__1::basic_string<char, std::__1::char_traits<char>, std::__1::allocator<char> >::__short", %"struct.std::__1::basic_string<char, std::__1::char_traits<char>, std::__1::allocator<char> >::__short"* %37, i64 0, i32 1, i32 0
  %39 = load i8, i8* %38, align 1
  %40 = icmp slt i8 %39, 0
  %41 = getelementptr inbounds %"class.std::__1::basic_string", %"class.std::__1::basic_string"* %36, i64 0, i32 0, i32 0, i32 0, i32 0, i32 0, i32 1
  %42 = load i64, i64* %41, align 8
  %43 = zext i8 %39 to i64
  %44 = select i1 %40, i64 %42, i64 %43
  %45 = trunc i64 %44 to i32
  %46 = or i32 %45, 1
  %47 = tail call i32 @llvm.ctlz.i32(i32 %46, i1 true) #14, !range !6
  %48 = xor i32 %47, 31
  %49 = mul nuw nsw i32 %48, 9
  %50 = add nuw nsw i32 %49, 73
  %51 = lshr i32 %50, 6
  %52 = zext i32 %51 to i64
  %53 = add i64 %31, 1
  %54 = add i64 %53, %44
  %55 = add i64 %54, %52
  br label %56

56:                                               ; preds = %30, %34
  %57 = phi i64 [ %55, %34 ], [ %31, %30 ]
  %58 = and i32 %3, 4
  %59 = icmp eq i32 %58, 0
  br i1 %59, label %82, label %60

60:                                               ; preds = %56
  %61 = getelementptr inbounds %"class.enterprise_connectors::Quote", %"class.enterprise_connectors::Quote"* %0, i64 0, i32 5, i32 0
  %62 = load %"class.std::__1::basic_string"*, %"class.std::__1::basic_string"** %61, align 8
  %63 = bitcast %"class.std::__1::basic_string"* %62 to %"struct.std::__1::basic_string<char, std::__1::char_traits<char>, std::__1::allocator<char> >::__short"*
  %64 = getelementptr inbounds %"struct.std::__1::basic_string<char, std::__1::char_traits<char>, std::__1::allocator<char> >::__short", %"struct.std::__1::basic_string<char, std::__1::char_traits<char>, std::__1::allocator<char> >::__short"* %63, i64 0, i32 1, i32 0
  %65 = load i8, i8* %64, align 1
  %66 = icmp slt i8 %65, 0
  %67 = getelementptr inbounds %"class.std::__1::basic_string", %"class.std::__1::basic_string"* %62, i64 0, i32 0, i32 0, i32 0, i32 0, i32 0, i32 1
  %68 = load i64, i64* %67, align 8
  %69 = zext i8 %65 to i64
  %70 = select i1 %66, i64 %68, i64 %69
  %71 = trunc i64 %70 to i32
  %72 = or i32 %71, 1
  %73 = tail call i32 @llvm.ctlz.i32(i32 %72, i1 true) #14, !range !6
  %74 = xor i32 %73, 31
  %75 = mul nuw nsw i32 %74, 9
  %76 = add nuw nsw i32 %75, 73
  %77 = lshr i32 %76, 6
  %78 = zext i32 %77 to i64
  %79 = add i64 %57, 1
  %80 = add i64 %79, %70
  %81 = add i64 %80, %78
  br label %82

82:                                               ; preds = %56, %60
  %83 = phi i64 [ %81, %60 ], [ %57, %56 ]
  %84 = and i32 %3, 8
  %85 = icmp eq i32 %84, 0
  br i1 %85, label %108, label %86

86:                                               ; preds = %82
  %87 = getelementptr inbounds %"class.enterprise_connectors::Quote", %"class.enterprise_connectors::Quote"* %0, i64 0, i32 6, i32 0
  %88 = load %"class.std::__1::basic_string"*, %"class.std::__1::basic_string"** %87, align 8
  %89 = bitcast %"class.std::__1::basic_string"* %88 to %"struct.std::__1::basic_string<char, std::__1::char_traits<char>, std::__1::allocator<char> >::__short"*
  %90 = getelementptr inbounds %"struct.std::__1::basic_string<char, std::__1::char_traits<char>, std::__1::allocator<char> >::__short", %"struct.std::__1::basic_string<char, std::__1::char_traits<char>, std::__1::allocator<char> >::__short"* %89, i64 0, i32 1, i32 0
  %91 = load i8, i8* %90, align 1
  %92 = icmp slt i8 %91, 0
  %93 = getelementptr inbounds %"class.std::__1::basic_string", %"class.std::__1::basic_string"* %88, i64 0, i32 0, i32 0, i32 0, i32 0, i32 0, i32 1
  %94 = load i64, i64* %93, align 8
  %95 = zext i8 %91 to i64
  %96 = select i1 %92, i64 %94, i64 %95
  %97 = trunc i64 %96 to i32
  %98 = or i32 %97, 1
  %99 = tail call i32 @llvm.ctlz.i32(i32 %98, i1 true) #14, !range !6
  %100 = xor i32 %99, 31
  %101 = mul nuw nsw i32 %100, 9
  %102 = add nuw nsw i32 %101, 73
  %103 = lshr i32 %102, 6
  %104 = zext i32 %103 to i64
  %105 = add i64 %83, 1
  %106 = add i64 %105, %96
  %107 = add i64 %106, %104
  br label %108

108:                                              ; preds = %82, %1, %86
  %109 = phi i64 [ %107, %86 ], [ %83, %82 ], [ 0, %1 ]
  %110 = getelementptr inbounds %"class.enterprise_connectors::Quote", %"class.enterprise_connectors::Quote"* %0, i64 0, i32 0, i32 1
  %111 = bitcast %"class.google::protobuf::internal::InternalMetadata"* %110 to i64*
  %112 = load i64, i64* %111, align 8
  %113 = and i64 %112, 1
  %114 = icmp eq i64 %113, 0
  br i1 %114, label %131, label %115, !prof !3

115:                                              ; preds = %108
  %116 = and i64 %112, -2
  %117 = inttoptr i64 %116 to %"struct.google::protobuf::internal::InternalMetadata::Container"*
  %118 = getelementptr inbounds %"struct.google::protobuf::internal::InternalMetadata::Container", %"struct.google::protobuf::internal::InternalMetadata::Container"* %117, i64 0, i32 1
  %119 = bitcast %"class.std::__1::basic_string"* %118 to %"struct.std::__1::basic_string<char, std::__1::char_traits<char>, std::__1::allocator<char> >::__short"*
  %120 = getelementptr inbounds %"struct.std::__1::basic_string<char, std::__1::char_traits<char>, std::__1::allocator<char> >::__short", %"struct.std::__1::basic_string<char, std::__1::char_traits<char>, std::__1::allocator<char> >::__short"* %119, i64 0, i32 1, i32 0
  %121 = load i8, i8* %120, align 1
  %122 = icmp slt i8 %121, 0
  br i1 %122, label %123, label %126

123:                                              ; preds = %115
  %124 = getelementptr inbounds %"struct.google::protobuf::internal::InternalMetadata::Container", %"struct.google::protobuf::internal::InternalMetadata::Container"* %117, i64 0, i32 1, i32 0, i32 0, i32 0, i32 0, i32 0, i32 1
  %125 = load i64, i64* %124, align 8
  br label %128

126:                                              ; preds = %115
  %127 = zext i8 %121 to i64
  br label %128

128:                                              ; preds = %123, %126
  %129 = phi i64 [ %125, %123 ], [ %127, %126 ]
  %130 = add i64 %129, %109
  br label %131

131:                                              ; preds = %108, %128
  %132 = phi i64 [ %130, %128 ], [ %109, %108 ]
  %133 = trunc i64 %132 to i32
  %134 = getelementptr inbounds %"class.enterprise_connectors::Quote", %"class.enterprise_connectors::Quote"* %0, i64 0, i32 2, i32 0, i32 0, i32 0, i32 0, i32 0, i32 0
  store atomic i32 %133, i32* %134 monotonic, align 4
  ret i64 %132
}

; Function Attrs: nounwind ssp uwtable
define hidden void @_ZN21enterprise_connectors5Quote21CheckTypeAndMergeFromERKN6google8protobuf11MessageLiteE(%"class.enterprise_connectors::Quote"*, %"class.google::protobuf::MessageLite"* nocapture readonly dereferenceable(16)) unnamed_addr #0 align 2 {
  %3 = bitcast %"class.google::protobuf::MessageLite"* %1 to %"class.enterprise_connectors::Quote"*
  tail call void @_ZN21enterprise_connectors5Quote9MergeFromERKS0_(%"class.enterprise_connectors::Quote"* %0, %"class.enterprise_connectors::Quote"* dereferenceable(56) %3)
  ret void
}

; Function Attrs: nounwind ssp uwtable
define hidden void @_ZN21enterprise_connectors5Quote9MergeFromERKS0_(%"class.enterprise_connectors::Quote"*, %"class.enterprise_connectors::Quote"* nocapture readonly dereferenceable(56)) local_unnamed_addr #0 align 2 {
  %3 = getelementptr inbounds %"class.enterprise_connectors::Quote", %"class.enterprise_connectors::Quote"* %0, i64 0, i32 0, i32 1
  %4 = getelementptr inbounds %"class.enterprise_connectors::Quote", %"class.enterprise_connectors::Quote"* %1, i64 0, i32 0, i32 1
  %5 = bitcast %"class.google::protobuf::internal::InternalMetadata"* %4 to i64*
  %6 = load i64, i64* %5, align 8
  %7 = and i64 %6, 1
  %8 = icmp eq i64 %7, 0
  br i1 %8, label %38, label %9

9:                                                ; preds = %2
  %10 = and i64 %6, -2
  %11 = inttoptr i64 %10 to %"struct.google::protobuf::internal::InternalMetadata::Container"*
  %12 = getelementptr inbounds %"struct.google::protobuf::internal::InternalMetadata::Container", %"struct.google::protobuf::internal::InternalMetadata::Container"* %11, i64 0, i32 1
  %13 = bitcast %"class.google::protobuf::internal::InternalMetadata"* %3 to i64*
  %14 = load i64, i64* %13, align 8
  %15 = and i64 %14, 1
  %16 = icmp eq i64 %15, 0
  br i1 %16, label %21, label %17, !prof !5

17:                                               ; preds = %9
  %18 = and i64 %14, -2
  %19 = inttoptr i64 %18 to %"struct.google::protobuf::internal::InternalMetadata::Container"*
  %20 = getelementptr inbounds %"struct.google::protobuf::internal::InternalMetadata::Container", %"struct.google::protobuf::internal::InternalMetadata::Container"* %19, i64 0, i32 1
  br label %23

21:                                               ; preds = %9
  %22 = tail call %"class.std::__1::basic_string"* @_ZN6google8protobuf8internal16InternalMetadata27mutable_unknown_fields_slowINSt3__112basic_stringIcNS4_11char_traitsIcEENS4_9allocatorIcEEEEEEPT_v(%"class.google::protobuf::internal::InternalMetadata"* %3) #14
  br label %23

23:                                               ; preds = %21, %17
  %24 = phi %"class.std::__1::basic_string"* [ %20, %17 ], [ %22, %21 ]
  %25 = bitcast %"class.std::__1::basic_string"* %12 to %"struct.std::__1::basic_string<char, std::__1::char_traits<char>, std::__1::allocator<char> >::__short"*
  %26 = getelementptr inbounds %"struct.std::__1::basic_string<char, std::__1::char_traits<char>, std::__1::allocator<char> >::__short", %"struct.std::__1::basic_string<char, std::__1::char_traits<char>, std::__1::allocator<char> >::__short"* %25, i64 0, i32 1, i32 0
  %27 = load i8, i8* %26, align 1
  %28 = icmp slt i8 %27, 0
  %29 = getelementptr inbounds %"class.std::__1::basic_string", %"class.std::__1::basic_string"* %12, i64 0, i32 0, i32 0, i32 0, i32 0, i32 0, i32 0
  %30 = load i8*, i8** %29, align 8
  %31 = getelementptr inbounds %"struct.google::protobuf::internal::InternalMetadata::Container", %"struct.google::protobuf::internal::InternalMetadata::Container"* %11, i64 0, i32 1, i32 0, i32 0, i32 0, i32 0, i32 0, i32 1
  %32 = load i64, i64* %31, align 8
  %33 = bitcast %"class.std::__1::basic_string"* %12 to i8*
  %34 = zext i8 %27 to i64
  %35 = select i1 %28, i8* %30, i8* %33
  %36 = select i1 %28, i64 %32, i64 %34
  %37 = tail call dereferenceable(24) %"class.std::__1::basic_string"* @_ZNSt3__112basic_stringIcNS_11char_traitsIcEENS_9allocatorIcEEE6appendEPKcm(%"class.std::__1::basic_string"* %24, i8* %35, i64 %36) #14
  br label %38

38:                                               ; preds = %2, %23
  %39 = getelementptr inbounds %"class.enterprise_connectors::Quote", %"class.enterprise_connectors::Quote"* %1, i64 0, i32 1, i32 0, i64 0
  %40 = load i32, i32* %39, align 4
  %41 = and i32 %40, 15
  %42 = icmp eq i32 %41, 0
  br i1 %42, label %275, label %43

43:                                               ; preds = %38
  %44 = and i32 %40, 1
  %45 = icmp eq i32 %44, 0
  br i1 %45, label %101, label %46

46:                                               ; preds = %43
  %47 = getelementptr inbounds %"class.enterprise_connectors::Quote", %"class.enterprise_connectors::Quote"* %1, i64 0, i32 3, i32 0
  %48 = load %"class.std::__1::basic_string"*, %"class.std::__1::basic_string"** %47, align 8
  %49 = getelementptr inbounds %"class.enterprise_connectors::Quote", %"class.enterprise_connectors::Quote"* %0, i64 0, i32 1, i32 0, i64 0
  %50 = load i32, i32* %49, align 4
  %51 = or i32 %50, 1
  store i32 %51, i32* %49, align 4
  %52 = getelementptr inbounds %"class.enterprise_connectors::Quote", %"class.enterprise_connectors::Quote"* %0, i64 0, i32 3
  %53 = bitcast %"class.google::protobuf::internal::InternalMetadata"* %3 to i64*
  %54 = load i64, i64* %53, align 8
  %55 = and i64 %54, 1
  %56 = icmp eq i64 %55, 0
  %57 = and i64 %54, -2
  br i1 %56, label %62, label %58, !prof !3

58:                                               ; preds = %46
  %59 = inttoptr i64 %57 to %"struct.google::protobuf::internal::InternalMetadata::ContainerBase"*
  %60 = getelementptr inbounds %"struct.google::protobuf::internal::InternalMetadata::ContainerBase", %"struct.google::protobuf::internal::InternalMetadata::ContainerBase"* %59, i64 0, i32 0
  %61 = load %"class.google::protobuf::Arena"*, %"class.google::protobuf::Arena"** %60, align 8
  br label %64

62:                                               ; preds = %46
  %63 = inttoptr i64 %57 to %"class.google::protobuf::Arena"*
  br label %64

64:                                               ; preds = %62, %58
  %65 = phi %"class.google::protobuf::Arena"* [ %61, %58 ], [ %63, %62 ]
  %66 = getelementptr inbounds %"struct.google::protobuf::internal::ArenaStringPtr", %"struct.google::protobuf::internal::ArenaStringPtr"* %52, i64 0, i32 0
  %67 = load %"class.std::__1::basic_string"*, %"class.std::__1::basic_string"** %66, align 8
  %68 = icmp eq %"class.std::__1::basic_string"* %67, bitcast (%"class.google::protobuf::internal::ExplicitlyConstructed.18"* @_ZN6google8protobuf8internal26fixed_address_empty_stringE to %"class.std::__1::basic_string"*)
  br i1 %68, label %69, label %70

69:                                               ; preds = %64
  tail call void @_ZN6google8protobuf8internal14ArenaStringPtr14CreateInstanceEPNS0_5ArenaEPKNSt3__112basic_stringIcNS5_11char_traitsIcEENS5_9allocatorIcEEEE(%"struct.google::protobuf::internal::ArenaStringPtr"* %52, %"class.google::protobuf::Arena"* %65, %"class.std::__1::basic_string"* %48) #14
  br label %101

70:                                               ; preds = %64
  %71 = icmp eq %"class.std::__1::basic_string"* %67, %48
  br i1 %71, label %101, label %72

72:                                               ; preds = %70
  %73 = bitcast %"class.std::__1::basic_string"* %67 to %"struct.std::__1::basic_string<char, std::__1::char_traits<char>, std::__1::allocator<char> >::__short"*
  %74 = getelementptr inbounds %"struct.std::__1::basic_string<char, std::__1::char_traits<char>, std::__1::allocator<char> >::__short", %"struct.std::__1::basic_string<char, std::__1::char_traits<char>, std::__1::allocator<char> >::__short"* %73, i64 0, i32 1, i32 0
  %75 = load i8, i8* %74, align 1
  %76 = icmp slt i8 %75, 0
  %77 = bitcast %"class.std::__1::basic_string"* %48 to %"struct.std::__1::basic_string<char, std::__1::char_traits<char>, std::__1::allocator<char> >::__short"*
  %78 = getelementptr inbounds %"struct.std::__1::basic_string<char, std::__1::char_traits<char>, std::__1::allocator<char> >::__short", %"struct.std::__1::basic_string<char, std::__1::char_traits<char>, std::__1::allocator<char> >::__short"* %77, i64 0, i32 1, i32 0
  %79 = load i8, i8* %78, align 1
  %80 = icmp slt i8 %79, 0
  br i1 %76, label %91, label %81

81:                                               ; preds = %72
  br i1 %80, label %85, label %82

82:                                               ; preds = %81
  %83 = bitcast %"class.std::__1::basic_string"* %67 to i8*
  %84 = bitcast %"class.std::__1::basic_string"* %48 to i8*
  tail call void @llvm.memcpy.p0i8.p0i8.i64(i8* align 8 %83, i8* align 8 %84, i64 24, i1 false) #14
  br label %101

85:                                               ; preds = %81
  %86 = getelementptr inbounds %"class.std::__1::basic_string", %"class.std::__1::basic_string"* %48, i64 0, i32 0, i32 0, i32 0, i32 0, i32 0, i32 0
  %87 = load i8*, i8** %86, align 8
  %88 = getelementptr inbounds %"class.std::__1::basic_string", %"class.std::__1::basic_string"* %48, i64 0, i32 0, i32 0, i32 0, i32 0, i32 0, i32 1
  %89 = load i64, i64* %88, align 8
  %90 = tail call dereferenceable(24) %"class.std::__1::basic_string"* @_ZNSt3__112basic_stringIcNS_11char_traitsIcEENS_9allocatorIcEEE17__assign_no_aliasILb1EEERS5_PKcm(%"class.std::__1::basic_string"* %67, i8* %87, i64 %89) #14
  br label %101

91:                                               ; preds = %72
  %92 = getelementptr inbounds %"class.std::__1::basic_string", %"class.std::__1::basic_string"* %48, i64 0, i32 0, i32 0, i32 0, i32 0, i32 0, i32 0
  %93 = load i8*, i8** %92, align 8
  %94 = getelementptr inbounds %"class.std::__1::basic_string", %"class.std::__1::basic_string"* %48, i64 0, i32 0, i32 0, i32 0, i32 0, i32 0, i32 1
  %95 = load i64, i64* %94, align 8
  %96 = bitcast %"class.std::__1::basic_string"* %48 to i8*
  %97 = zext i8 %79 to i64
  %98 = select i1 %80, i8* %93, i8* %96
  %99 = select i1 %80, i64 %95, i64 %97
  %100 = tail call dereferenceable(24) %"class.std::__1::basic_string"* @_ZNSt3__112basic_stringIcNS_11char_traitsIcEENS_9allocatorIcEEE17__assign_no_aliasILb0EEERS5_PKcm(%"class.std::__1::basic_string"* %67, i8* %98, i64 %99) #14
  br label %101

101:                                              ; preds = %91, %85, %82, %70, %69, %43
  %102 = and i32 %40, 2
  %103 = icmp eq i32 %102, 0
  br i1 %103, label %159, label %104

104:                                              ; preds = %101
  %105 = getelementptr inbounds %"class.enterprise_connectors::Quote", %"class.enterprise_connectors::Quote"* %1, i64 0, i32 4, i32 0
  %106 = load %"class.std::__1::basic_string"*, %"class.std::__1::basic_string"** %105, align 8
  %107 = getelementptr inbounds %"class.enterprise_connectors::Quote", %"class.enterprise_connectors::Quote"* %0, i64 0, i32 1, i32 0, i64 0
  %108 = load i32, i32* %107, align 4
  %109 = or i32 %108, 2
  store i32 %109, i32* %107, align 4
  %110 = getelementptr inbounds %"class.enterprise_connectors::Quote", %"class.enterprise_connectors::Quote"* %0, i64 0, i32 4
  %111 = bitcast %"class.google::protobuf::internal::InternalMetadata"* %3 to i64*
  %112 = load i64, i64* %111, align 8
  %113 = and i64 %112, 1
  %114 = icmp eq i64 %113, 0
  %115 = and i64 %112, -2
  br i1 %114, label %120, label %116, !prof !3

116:                                              ; preds = %104
  %117 = inttoptr i64 %115 to %"struct.google::protobuf::internal::InternalMetadata::ContainerBase"*
  %118 = getelementptr inbounds %"struct.google::protobuf::internal::InternalMetadata::ContainerBase", %"struct.google::protobuf::internal::InternalMetadata::ContainerBase"* %117, i64 0, i32 0
  %119 = load %"class.google::protobuf::Arena"*, %"class.google::protobuf::Arena"** %118, align 8
  br label %122

120:                                              ; preds = %104
  %121 = inttoptr i64 %115 to %"class.google::protobuf::Arena"*
  br label %122

122:                                              ; preds = %120, %116
  %123 = phi %"class.google::protobuf::Arena"* [ %119, %116 ], [ %121, %120 ]
  %124 = getelementptr inbounds %"struct.google::protobuf::internal::ArenaStringPtr", %"struct.google::protobuf::internal::ArenaStringPtr"* %110, i64 0, i32 0
  %125 = load %"class.std::__1::basic_string"*, %"class.std::__1::basic_string"** %124, align 8
  %126 = icmp eq %"class.std::__1::basic_string"* %125, bitcast (%"class.google::protobuf::internal::ExplicitlyConstructed.18"* @_ZN6google8protobuf8internal26fixed_address_empty_stringE to %"class.std::__1::basic_string"*)
  br i1 %126, label %127, label %128

127:                                              ; preds = %122
  tail call void @_ZN6google8protobuf8internal14ArenaStringPtr14CreateInstanceEPNS0_5ArenaEPKNSt3__112basic_stringIcNS5_11char_traitsIcEENS5_9allocatorIcEEEE(%"struct.google::protobuf::internal::ArenaStringPtr"* %110, %"class.google::protobuf::Arena"* %123, %"class.std::__1::basic_string"* %106) #14
  br label %159

128:                                              ; preds = %122
  %129 = icmp eq %"class.std::__1::basic_string"* %125, %106
  br i1 %129, label %159, label %130

130:                                              ; preds = %128
  %131 = bitcast %"class.std::__1::basic_string"* %125 to %"struct.std::__1::basic_string<char, std::__1::char_traits<char>, std::__1::allocator<char> >::__short"*
  %132 = getelementptr inbounds %"struct.std::__1::basic_string<char, std::__1::char_traits<char>, std::__1::allocator<char> >::__short", %"struct.std::__1::basic_string<char, std::__1::char_traits<char>, std::__1::allocator<char> >::__short"* %131, i64 0, i32 1, i32 0
  %133 = load i8, i8* %132, align 1
  %134 = icmp slt i8 %133, 0
  %135 = bitcast %"class.std::__1::basic_string"* %106 to %"struct.std::__1::basic_string<char, std::__1::char_traits<char>, std::__1::allocator<char> >::__short"*
  %136 = getelementptr inbounds %"struct.std::__1::basic_string<char, std::__1::char_traits<char>, std::__1::allocator<char> >::__short", %"struct.std::__1::basic_string<char, std::__1::char_traits<char>, std::__1::allocator<char> >::__short"* %135, i64 0, i32 1, i32 0
  %137 = load i8, i8* %136, align 1
  %138 = icmp slt i8 %137, 0
  br i1 %134, label %149, label %139

139:                                              ; preds = %130
  br i1 %138, label %143, label %140

140:                                              ; preds = %139
  %141 = bitcast %"class.std::__1::basic_string"* %125 to i8*
  %142 = bitcast %"class.std::__1::basic_string"* %106 to i8*
  tail call void @llvm.memcpy.p0i8.p0i8.i64(i8* align 8 %141, i8* align 8 %142, i64 24, i1 false) #14
  br label %159

143:                                              ; preds = %139
  %144 = getelementptr inbounds %"class.std::__1::basic_string", %"class.std::__1::basic_string"* %106, i64 0, i32 0, i32 0, i32 0, i32 0, i32 0, i32 0
  %145 = load i8*, i8** %144, align 8
  %146 = getelementptr inbounds %"class.std::__1::basic_string", %"class.std::__1::basic_string"* %106, i64 0, i32 0, i32 0, i32 0, i32 0, i32 0, i32 1
  %147 = load i64, i64* %146, align 8
  %148 = tail call dereferenceable(24) %"class.std::__1::basic_string"* @_ZNSt3__112basic_stringIcNS_11char_traitsIcEENS_9allocatorIcEEE17__assign_no_aliasILb1EEERS5_PKcm(%"class.std::__1::basic_string"* %125, i8* %145, i64 %147) #14
  br label %159

149:                                              ; preds = %130
  %150 = getelementptr inbounds %"class.std::__1::basic_string", %"class.std::__1::basic_string"* %106, i64 0, i32 0, i32 0, i32 0, i32 0, i32 0, i32 0
  %151 = load i8*, i8** %150, align 8
  %152 = getelementptr inbounds %"class.std::__1::basic_string", %"class.std::__1::basic_string"* %106, i64 0, i32 0, i32 0, i32 0, i32 0, i32 0, i32 1
  %153 = load i64, i64* %152, align 8
  %154 = bitcast %"class.std::__1::basic_string"* %106 to i8*
  %155 = zext i8 %137 to i64
  %156 = select i1 %138, i8* %151, i8* %154
  %157 = select i1 %138, i64 %153, i64 %155
  %158 = tail call dereferenceable(24) %"class.std::__1::basic_string"* @_ZNSt3__112basic_stringIcNS_11char_traitsIcEENS_9allocatorIcEEE17__assign_no_aliasILb0EEERS5_PKcm(%"class.std::__1::basic_string"* %125, i8* %156, i64 %157) #14
  br label %159

159:                                              ; preds = %149, %143, %140, %128, %127, %101
  %160 = and i32 %40, 4
  %161 = icmp eq i32 %160, 0
  br i1 %161, label %217, label %162

162:                                              ; preds = %159
  %163 = getelementptr inbounds %"class.enterprise_connectors::Quote", %"class.enterprise_connectors::Quote"* %1, i64 0, i32 5, i32 0
  %164 = load %"class.std::__1::basic_string"*, %"class.std::__1::basic_string"** %163, align 8
  %165 = getelementptr inbounds %"class.enterprise_connectors::Quote", %"class.enterprise_connectors::Quote"* %0, i64 0, i32 1, i32 0, i64 0
  %166 = load i32, i32* %165, align 4
  %167 = or i32 %166, 4
  store i32 %167, i32* %165, align 4
  %168 = getelementptr inbounds %"class.enterprise_connectors::Quote", %"class.enterprise_connectors::Quote"* %0, i64 0, i32 5
  %169 = bitcast %"class.google::protobuf::internal::InternalMetadata"* %3 to i64*
  %170 = load i64, i64* %169, align 8
  %171 = and i64 %170, 1
  %172 = icmp eq i64 %171, 0
  %173 = and i64 %170, -2
  br i1 %172, label %178, label %174, !prof !3

174:                                              ; preds = %162
  %175 = inttoptr i64 %173 to %"struct.google::protobuf::internal::InternalMetadata::ContainerBase"*
  %176 = getelementptr inbounds %"struct.google::protobuf::internal::InternalMetadata::ContainerBase", %"struct.google::protobuf::internal::InternalMetadata::ContainerBase"* %175, i64 0, i32 0
  %177 = load %"class.google::protobuf::Arena"*, %"class.google::protobuf::Arena"** %176, align 8
  br label %180

178:                                              ; preds = %162
  %179 = inttoptr i64 %173 to %"class.google::protobuf::Arena"*
  br label %180

180:                                              ; preds = %178, %174
  %181 = phi %"class.google::protobuf::Arena"* [ %177, %174 ], [ %179, %178 ]
  %182 = getelementptr inbounds %"struct.google::protobuf::internal::ArenaStringPtr", %"struct.google::protobuf::internal::ArenaStringPtr"* %168, i64 0, i32 0
  %183 = load %"class.std::__1::basic_string"*, %"class.std::__1::basic_string"** %182, align 8
  %184 = icmp eq %"class.std::__1::basic_string"* %183, bitcast (%"class.google::protobuf::internal::ExplicitlyConstructed.18"* @_ZN6google8protobuf8internal26fixed_address_empty_stringE to %"class.std::__1::basic_string"*)
  br i1 %184, label %185, label %186

185:                                              ; preds = %180
  tail call void @_ZN6google8protobuf8internal14ArenaStringPtr14CreateInstanceEPNS0_5ArenaEPKNSt3__112basic_stringIcNS5_11char_traitsIcEENS5_9allocatorIcEEEE(%"struct.google::protobuf::internal::ArenaStringPtr"* %168, %"class.google::protobuf::Arena"* %181, %"class.std::__1::basic_string"* %164) #14
  br label %217

186:                                              ; preds = %180
  %187 = icmp eq %"class.std::__1::basic_string"* %183, %164
  br i1 %187, label %217, label %188

188:                                              ; preds = %186
  %189 = bitcast %"class.std::__1::basic_string"* %183 to %"struct.std::__1::basic_string<char, std::__1::char_traits<char>, std::__1::allocator<char> >::__short"*
  %190 = getelementptr inbounds %"struct.std::__1::basic_string<char, std::__1::char_traits<char>, std::__1::allocator<char> >::__short", %"struct.std::__1::basic_string<char, std::__1::char_traits<char>, std::__1::allocator<char> >::__short"* %189, i64 0, i32 1, i32 0
  %191 = load i8, i8* %190, align 1
  %192 = icmp slt i8 %191, 0
  %193 = bitcast %"class.std::__1::basic_string"* %164 to %"struct.std::__1::basic_string<char, std::__1::char_traits<char>, std::__1::allocator<char> >::__short"*
  %194 = getelementptr inbounds %"struct.std::__1::basic_string<char, std::__1::char_traits<char>, std::__1::allocator<char> >::__short", %"struct.std::__1::basic_string<char, std::__1::char_traits<char>, std::__1::allocator<char> >::__short"* %193, i64 0, i32 1, i32 0
  %195 = load i8, i8* %194, align 1
  %196 = icmp slt i8 %195, 0
  br i1 %192, label %207, label %197

197:                                              ; preds = %188
  br i1 %196, label %201, label %198

198:                                              ; preds = %197
  %199 = bitcast %"class.std::__1::basic_string"* %183 to i8*
  %200 = bitcast %"class.std::__1::basic_string"* %164 to i8*
  tail call void @llvm.memcpy.p0i8.p0i8.i64(i8* align 8 %199, i8* align 8 %200, i64 24, i1 false) #14
  br label %217

201:                                              ; preds = %197
  %202 = getelementptr inbounds %"class.std::__1::basic_string", %"class.std::__1::basic_string"* %164, i64 0, i32 0, i32 0, i32 0, i32 0, i32 0, i32 0
  %203 = load i8*, i8** %202, align 8
  %204 = getelementptr inbounds %"class.std::__1::basic_string", %"class.std::__1::basic_string"* %164, i64 0, i32 0, i32 0, i32 0, i32 0, i32 0, i32 1
  %205 = load i64, i64* %204, align 8
  %206 = tail call dereferenceable(24) %"class.std::__1::basic_string"* @_ZNSt3__112basic_stringIcNS_11char_traitsIcEENS_9allocatorIcEEE17__assign_no_aliasILb1EEERS5_PKcm(%"class.std::__1::basic_string"* %183, i8* %203, i64 %205) #14
  br label %217

207:                                              ; preds = %188
  %208 = getelementptr inbounds %"class.std::__1::basic_string", %"class.std::__1::basic_string"* %164, i64 0, i32 0, i32 0, i32 0, i32 0, i32 0, i32 0
  %209 = load i8*, i8** %208, align 8
  %210 = getelementptr inbounds %"class.std::__1::basic_string", %"class.std::__1::basic_string"* %164, i64 0, i32 0, i32 0, i32 0, i32 0, i32 0, i32 1
  %211 = load i64, i64* %210, align 8
  %212 = bitcast %"class.std::__1::basic_string"* %164 to i8*
  %213 = zext i8 %195 to i64
  %214 = select i1 %196, i8* %209, i8* %212
  %215 = select i1 %196, i64 %211, i64 %213
  %216 = tail call dereferenceable(24) %"class.std::__1::basic_string"* @_ZNSt3__112basic_stringIcNS_11char_traitsIcEENS_9allocatorIcEEE17__assign_no_aliasILb0EEERS5_PKcm(%"class.std::__1::basic_string"* %183, i8* %214, i64 %215) #14
  br label %217

217:                                              ; preds = %207, %201, %198, %186, %185, %159
  %218 = and i32 %40, 8
  %219 = icmp eq i32 %218, 0
  br i1 %219, label %275, label %220

220:                                              ; preds = %217
  %221 = getelementptr inbounds %"class.enterprise_connectors::Quote", %"class.enterprise_connectors::Quote"* %1, i64 0, i32 6, i32 0
  %222 = load %"class.std::__1::basic_string"*, %"class.std::__1::basic_string"** %221, align 8
  %223 = getelementptr inbounds %"class.enterprise_connectors::Quote", %"class.enterprise_connectors::Quote"* %0, i64 0, i32 1, i32 0, i64 0
  %224 = load i32, i32* %223, align 4
  %225 = or i32 %224, 8
  store i32 %225, i32* %223, align 4
  %226 = getelementptr inbounds %"class.enterprise_connectors::Quote", %"class.enterprise_connectors::Quote"* %0, i64 0, i32 6
  %227 = bitcast %"class.google::protobuf::internal::InternalMetadata"* %3 to i64*
  %228 = load i64, i64* %227, align 8
  %229 = and i64 %228, 1
  %230 = icmp eq i64 %229, 0
  %231 = and i64 %228, -2
  br i1 %230, label %236, label %232, !prof !3

232:                                              ; preds = %220
  %233 = inttoptr i64 %231 to %"struct.google::protobuf::internal::InternalMetadata::ContainerBase"*
  %234 = getelementptr inbounds %"struct.google::protobuf::internal::InternalMetadata::ContainerBase", %"struct.google::protobuf::internal::InternalMetadata::ContainerBase"* %233, i64 0, i32 0
  %235 = load %"class.google::protobuf::Arena"*, %"class.google::protobuf::Arena"** %234, align 8
  br label %238

236:                                              ; preds = %220
  %237 = inttoptr i64 %231 to %"class.google::protobuf::Arena"*
  br label %238

238:                                              ; preds = %236, %232
  %239 = phi %"class.google::protobuf::Arena"* [ %235, %232 ], [ %237, %236 ]
  %240 = getelementptr inbounds %"struct.google::protobuf::internal::ArenaStringPtr", %"struct.google::protobuf::internal::ArenaStringPtr"* %226, i64 0, i32 0
  %241 = load %"class.std::__1::basic_string"*, %"class.std::__1::basic_string"** %240, align 8
  %242 = icmp eq %"class.std::__1::basic_string"* %241, bitcast (%"class.google::protobuf::internal::ExplicitlyConstructed.18"* @_ZN6google8protobuf8internal26fixed_address_empty_stringE to %"class.std::__1::basic_string"*)
  br i1 %242, label %243, label %244

243:                                              ; preds = %238
  tail call void @_ZN6google8protobuf8internal14ArenaStringPtr14CreateInstanceEPNS0_5ArenaEPKNSt3__112basic_stringIcNS5_11char_traitsIcEENS5_9allocatorIcEEEE(%"struct.google::protobuf::internal::ArenaStringPtr"* %226, %"class.google::protobuf::Arena"* %239, %"class.std::__1::basic_string"* %222) #14
  br label %275

244:                                              ; preds = %238
  %245 = icmp eq %"class.std::__1::basic_string"* %241, %222
  br i1 %245, label %275, label %246

246:                                              ; preds = %244
  %247 = bitcast %"class.std::__1::basic_string"* %241 to %"struct.std::__1::basic_string<char, std::__1::char_traits<char>, std::__1::allocator<char> >::__short"*
  %248 = getelementptr inbounds %"struct.std::__1::basic_string<char, std::__1::char_traits<char>, std::__1::allocator<char> >::__short", %"struct.std::__1::basic_string<char, std::__1::char_traits<char>, std::__1::allocator<char> >::__short"* %247, i64 0, i32 1, i32 0
  %249 = load i8, i8* %248, align 1
  %250 = icmp slt i8 %249, 0
  %251 = bitcast %"class.std::__1::basic_string"* %222 to %"struct.std::__1::basic_string<char, std::__1::char_traits<char>, std::__1::allocator<char> >::__short"*
  %252 = getelementptr inbounds %"struct.std::__1::basic_string<char, std::__1::char_traits<char>, std::__1::allocator<char> >::__short", %"struct.std::__1::basic_string<char, std::__1::char_traits<char>, std::__1::allocator<char> >::__short"* %251, i64 0, i32 1, i32 0
  %253 = load i8, i8* %252, align 1
  %254 = icmp slt i8 %253, 0
  br i1 %250, label %265, label %255

255:                                              ; preds = %246
  br i1 %254, label %259, label %256

256:                                              ; preds = %255
  %257 = bitcast %"class.std::__1::basic_string"* %241 to i8*
  %258 = bitcast %"class.std::__1::basic_string"* %222 to i8*
  tail call void @llvm.memcpy.p0i8.p0i8.i64(i8* align 8 %257, i8* align 8 %258, i64 24, i1 false) #14
  br label %275

259:                                              ; preds = %255
  %260 = getelementptr inbounds %"class.std::__1::basic_string", %"class.std::__1::basic_string"* %222, i64 0, i32 0, i32 0, i32 0, i32 0, i32 0, i32 0
  %261 = load i8*, i8** %260, align 8
  %262 = getelementptr inbounds %"class.std::__1::basic_string", %"class.std::__1::basic_string"* %222, i64 0, i32 0, i32 0, i32 0, i32 0, i32 0, i32 1
  %263 = load i64, i64* %262, align 8
  %264 = tail call dereferenceable(24) %"class.std::__1::basic_string"* @_ZNSt3__112basic_stringIcNS_11char_traitsIcEENS_9allocatorIcEEE17__assign_no_aliasILb1EEERS5_PKcm(%"class.std::__1::basic_string"* %241, i8* %261, i64 %263) #14
  br label %275

265:                                              ; preds = %246
  %266 = getelementptr inbounds %"class.std::__1::basic_string", %"class.std::__1::basic_string"* %222, i64 0, i32 0, i32 0, i32 0, i32 0, i32 0, i32 0
  %267 = load i8*, i8** %266, align 8
  %268 = getelementptr inbounds %"class.std::__1::basic_string", %"class.std::__1::basic_string"* %222, i64 0, i32 0, i32 0, i32 0, i32 0, i32 0, i32 1
  %269 = load i64, i64* %268, align 8
  %270 = bitcast %"class.std::__1::basic_string"* %222 to i8*
  %271 = zext i8 %253 to i64
  %272 = select i1 %254, i8* %267, i8* %270
  %273 = select i1 %254, i64 %269, i64 %271
  %274 = tail call dereferenceable(24) %"class.std::__1::basic_string"* @_ZNSt3__112basic_stringIcNS_11char_traitsIcEENS_9allocatorIcEEE17__assign_no_aliasILb0EEERS5_PKcm(%"class.std::__1::basic_string"* %241, i8* %272, i64 %273) #14
  br label %275

275:                                              ; preds = %265, %259, %256, %244, %243, %217, %38
  ret void
}

; Function Attrs: nounwind ssp uwtable
define hidden void @_ZN21enterprise_connectors5Quote8CopyFromERKS0_(%"class.enterprise_connectors::Quote"*, %"class.enterprise_connectors::Quote"* readonly dereferenceable(56)) local_unnamed_addr #0 align 2 {
  %3 = icmp eq %"class.enterprise_connectors::Quote"* %1, %0
  br i1 %3, label %5, label %4

4:                                                ; preds = %2
  tail call void @_ZN21enterprise_connectors5Quote5ClearEv(%"class.enterprise_connectors::Quote"* %0)
  tail call void @_ZN21enterprise_connectors5Quote9MergeFromERKS0_(%"class.enterprise_connectors::Quote"* %0, %"class.enterprise_connectors::Quote"* dereferenceable(56) %1)
  br label %5

5:                                                ; preds = %2, %4
  ret void
}

; Function Attrs: norecurse nounwind readnone ssp uwtable
define hidden zeroext i1 @_ZNK21enterprise_connectors5Quote13IsInitializedEv(%"class.enterprise_connectors::Quote"* nocapture readnone) unnamed_addr #1 align 2 {
  ret i1 true
}

; Function Attrs: nounwind ssp uwtable
define hidden void @_ZN21enterprise_connectors5Quote12InternalSwapEPS0_(%"class.enterprise_connectors::Quote"*, %"class.enterprise_connectors::Quote"*) local_unnamed_addr #0 align 2 {
  %3 = getelementptr inbounds %"class.enterprise_connectors::Quote", %"class.enterprise_connectors::Quote"* %0, i64 0, i32 0, i32 1
  %4 = getelementptr inbounds %"class.enterprise_connectors::Quote", %"class.enterprise_connectors::Quote"* %1, i64 0, i32 0, i32 1
  %5 = bitcast %"class.google::protobuf::internal::InternalMetadata"* %3 to i64*
  %6 = load i64, i64* %5, align 8
  %7 = bitcast %"class.google::protobuf::internal::InternalMetadata"* %4 to i64*
  %8 = load i64, i64* %7, align 8
  %9 = or i64 %8, %6
  %10 = and i64 %9, 1
  %11 = icmp eq i64 %10, 0
  br i1 %11, label %43, label %12

12:                                               ; preds = %2
  %13 = and i64 %8, 1
  %14 = icmp eq i64 %13, 0
  br i1 %14, label %19, label %15, !prof !5

15:                                               ; preds = %12
  %16 = and i64 %8, -2
  %17 = inttoptr i64 %16 to %"struct.google::protobuf::internal::InternalMetadata::Container"*
  %18 = getelementptr inbounds %"struct.google::protobuf::internal::InternalMetadata::Container", %"struct.google::protobuf::internal::InternalMetadata::Container"* %17, i64 0, i32 1
  br label %22

19:                                               ; preds = %12
  %20 = tail call %"class.std::__1::basic_string"* @_ZN6google8protobuf8internal16InternalMetadata27mutable_unknown_fields_slowINSt3__112basic_stringIcNS4_11char_traitsIcEENS4_9allocatorIcEEEEEEPT_v(%"class.google::protobuf::internal::InternalMetadata"* %4) #14
  %21 = load i64, i64* %5, align 8
  br label %22

22:                                               ; preds = %19, %15
  %23 = phi i64 [ %6, %15 ], [ %21, %19 ]
  %24 = phi %"class.std::__1::basic_string"* [ %18, %15 ], [ %20, %19 ]
  %25 = and i64 %23, 1
  %26 = icmp eq i64 %25, 0
  br i1 %26, label %31, label %27, !prof !5

27:                                               ; preds = %22
  %28 = and i64 %23, -2
  %29 = inttoptr i64 %28 to %"struct.google::protobuf::internal::InternalMetadata::Container"*
  %30 = getelementptr inbounds %"struct.google::protobuf::internal::InternalMetadata::Container", %"struct.google::protobuf::internal::InternalMetadata::Container"* %29, i64 0, i32 1
  br label %33

31:                                               ; preds = %22
  %32 = tail call %"class.std::__1::basic_string"* @_ZN6google8protobuf8internal16InternalMetadata27mutable_unknown_fields_slowINSt3__112basic_stringIcNS4_11char_traitsIcEENS4_9allocatorIcEEEEEEPT_v(%"class.google::protobuf::internal::InternalMetadata"* %3) #14
  br label %33

33:                                               ; preds = %31, %27
  %34 = phi %"class.std::__1::basic_string"* [ %30, %27 ], [ %32, %31 ]
  %35 = bitcast %"class.std::__1::basic_string"* %34 to <2 x i64>*
  %36 = load <2 x i64>, <2 x i64>* %35, align 8
  %37 = getelementptr inbounds %"class.std::__1::basic_string", %"class.std::__1::basic_string"* %34, i64 0, i32 0, i32 0, i32 0, i32 0, i32 0, i32 2
  %38 = load i64, i64* %37, align 8
  %39 = bitcast %"class.std::__1::basic_string"* %34 to i8*
  %40 = bitcast %"class.std::__1::basic_string"* %24 to i8*
  tail call void @llvm.memcpy.p0i8.p0i8.i64(i8* align 8 %39, i8* align 8 %40, i64 24, i1 false) #14
  %41 = bitcast %"class.std::__1::basic_string"* %24 to <2 x i64>*
  store <2 x i64> %36, <2 x i64>* %41, align 8
  %42 = getelementptr inbounds %"class.std::__1::basic_string", %"class.std::__1::basic_string"* %24, i64 0, i32 0, i32 0, i32 0, i32 0, i32 0, i32 2
  store i64 %38, i64* %42, align 8
  br label %43

43:                                               ; preds = %2, %33
  %44 = getelementptr inbounds %"class.enterprise_connectors::Quote", %"class.enterprise_connectors::Quote"* %0, i64 0, i32 1, i32 0, i64 0
  %45 = getelementptr inbounds %"class.enterprise_connectors::Quote", %"class.enterprise_connectors::Quote"* %1, i64 0, i32 1, i32 0, i64 0
  %46 = load i32, i32* %44, align 4
  %47 = load i32, i32* %45, align 4
  store i32 %47, i32* %44, align 4
  store i32 %46, i32* %45, align 4
  %48 = getelementptr inbounds %"class.enterprise_connectors::Quote", %"class.enterprise_connectors::Quote"* %0, i64 0, i32 3
  %49 = getelementptr inbounds %"class.enterprise_connectors::Quote", %"class.enterprise_connectors::Quote"* %1, i64 0, i32 3
  %50 = bitcast %"struct.google::protobuf::internal::ArenaStringPtr"* %48 to i64*
  %51 = load i64, i64* %50, align 8
  %52 = bitcast %"struct.google::protobuf::internal::ArenaStringPtr"* %49 to i64*
  %53 = load i64, i64* %52, align 8
  store i64 %53, i64* %50, align 8
  store i64 %51, i64* %52, align 8
  %54 = getelementptr inbounds %"class.enterprise_connectors::Quote", %"class.enterprise_connectors::Quote"* %0, i64 0, i32 4
  %55 = getelementptr inbounds %"class.enterprise_connectors::Quote", %"class.enterprise_connectors::Quote"* %1, i64 0, i32 4
  %56 = bitcast %"struct.google::protobuf::internal::ArenaStringPtr"* %54 to i64*
  %57 = load i64, i64* %56, align 8
  %58 = bitcast %"struct.google::protobuf::internal::ArenaStringPtr"* %55 to i64*
  %59 = load i64, i64* %58, align 8
  store i64 %59, i64* %56, align 8
  store i64 %57, i64* %58, align 8
  %60 = getelementptr inbounds %"class.enterprise_connectors::Quote", %"class.enterprise_connectors::Quote"* %0, i64 0, i32 5
  %61 = getelementptr inbounds %"class.enterprise_connectors::Quote", %"class.enterprise_connectors::Quote"* %1, i64 0, i32 5
  %62 = bitcast %"struct.google::protobuf::internal::ArenaStringPtr"* %60 to i64*
  %63 = load i64, i64* %62, align 8
  %64 = bitcast %"struct.google::protobuf::internal::ArenaStringPtr"* %61 to i64*
  %65 = load i64, i64* %64, align 8
  store i64 %65, i64* %62, align 8
  store i64 %63, i64* %64, align 8
  %66 = getelementptr inbounds %"class.enterprise_connectors::Quote", %"class.enterprise_connectors::Quote"* %0, i64 0, i32 6
  %67 = getelementptr inbounds %"class.enterprise_connectors::Quote", %"class.enterprise_connectors::Quote"* %1, i64 0, i32 6
  %68 = bitcast %"struct.google::protobuf::internal::ArenaStringPtr"* %66 to i64*
  %69 = load i64, i64* %68, align 8
  %70 = bitcast %"struct.google::protobuf::internal::ArenaStringPtr"* %67 to i64*
  %71 = load i64, i64* %70, align 8
  store i64 %71, i64* %68, align 8
  store i64 %69, i64* %70, align 8
  ret void
}

; Function Attrs: nounwind ssp uwtable
define hidden void @_ZNK21enterprise_connectors5Quote11GetTypeNameEv(%"class.std::__1::basic_string"* noalias sret, %"class.enterprise_connectors::Quote"* nocapture readnone) unnamed_addr #0 align 2 {
  %3 = tail call i8* @_Znwm(i64 32) #15
  %4 = getelementptr inbounds %"class.std::__1::basic_string", %"class.std::__1::basic_string"* %0, i64 0, i32 0, i32 0, i32 0, i32 0, i32 0, i32 0
  store i8* %3, i8** %4, align 8
  %5 = getelementptr inbounds %"class.std::__1::basic_string", %"class.std::__1::basic_string"* %0, i64 0, i32 0, i32 0, i32 0, i32 0, i32 0, i32 1
  %6 = bitcast i64* %5 to <2 x i64>*
  store <2 x i64> <i64 27, i64 -9223372036854775776>, <2 x i64>* %6, align 8
  tail call void @llvm.memcpy.p0i8.p0i8.i64(i8* nonnull align 1 %3, i8* align 1 getelementptr inbounds ([28 x i8], [28 x i8]* @.str.11, i64 0, i64 0), i64 27, i1 false) #14
  %7 = getelementptr inbounds i8, i8* %3, i64 27
  store i8 0, i8* %7, align 1
  ret void
}

; Function Attrs: nounwind ssp uwtable
define hidden void @_ZN21enterprise_connectors13EncryptedDataC2EPN6google8protobuf5ArenaE(%"class.enterprise_connectors::EncryptedData"* nocapture, %"class.google::protobuf::Arena"*) unnamed_addr #0 align 2 {
  %3 = getelementptr inbounds %"class.enterprise_connectors::EncryptedData", %"class.enterprise_connectors::EncryptedData"* %0, i64 0, i32 0, i32 0
  %4 = getelementptr inbounds %"class.enterprise_connectors::EncryptedData", %"class.enterprise_connectors::EncryptedData"* %0, i64 0, i32 0, i32 1
  %5 = bitcast %"class.google::protobuf::internal::InternalMetadata"* %4 to %"class.google::protobuf::Arena"**
  store %"class.google::protobuf::Arena"* %1, %"class.google::protobuf::Arena"** %5, align 8
  store i32 (...)** bitcast (i8** getelementptr inbounds ({ [16 x i8*] }, { [16 x i8*] }* @_ZTVN21enterprise_connectors13EncryptedDataE, i64 0, inrange i32 0, i64 2) to i32 (...)**), i32 (...)*** %3, align 8
  %6 = getelementptr inbounds %"class.enterprise_connectors::EncryptedData", %"class.enterprise_connectors::EncryptedData"* %0, i64 0, i32 1, i32 0, i64 0
  store i32 0, i32* %6, align 4
  %7 = getelementptr inbounds %"class.enterprise_connectors::EncryptedData", %"class.enterprise_connectors::EncryptedData"* %0, i64 0, i32 2, i32 0, i32 0, i32 0, i32 0, i32 0, i32 0
  store i32 0, i32* %7, align 4
  %8 = load atomic i32, i32* getelementptr inbounds ({ { { { i32 } }, i32, i32, void ()* }, [0 x i8*] }, { { { { i32 } }, i32, i32, void ()* }, [0 x i8*] }* @scc_info_EncryptedData_device_5ftrust_5fattestation_5fca_2eproto, i64 0, i32 0, i32 0, i32 0, i32 0) acquire, align 8
  %9 = icmp eq i32 %8, 0
  br i1 %9, label %11, label %10, !prof !3

10:                                               ; preds = %2
  tail call void @_ZN6google8protobuf8internal11InitSCCImplEPNS1_11SCCInfoBaseE(%"struct.google::protobuf::internal::SCCInfoBase"* bitcast ({ { { { i32 } }, i32, i32, void ()* }, [0 x i8*] }* @scc_info_EncryptedData_device_5ftrust_5fattestation_5fca_2eproto to %"struct.google::protobuf::internal::SCCInfoBase"*)) #14
  br label %11

11:                                               ; preds = %2, %10
  %12 = getelementptr inbounds %"class.enterprise_connectors::EncryptedData", %"class.enterprise_connectors::EncryptedData"* %0, i64 0, i32 3, i32 0
  %13 = bitcast %"class.std::__1::basic_string"** %12 to <2 x %"class.std::__1::basic_string"*>*
  store <2 x %"class.std::__1::basic_string"*> <%"class.std::__1::basic_string"* bitcast (%"class.google::protobuf::internal::ExplicitlyConstructed.18"* @_ZN6google8protobuf8internal26fixed_address_empty_stringE to %"class.std::__1::basic_string"*), %"class.std::__1::basic_string"* bitcast (%"class.google::protobuf::internal::ExplicitlyConstructed.18"* @_ZN6google8protobuf8internal26fixed_address_empty_stringE to %"class.std::__1::basic_string"*)>, <2 x %"class.std::__1::basic_string"*>* %13, align 8
  %14 = getelementptr inbounds %"class.enterprise_connectors::EncryptedData", %"class.enterprise_connectors::EncryptedData"* %0, i64 0, i32 5, i32 0
  %15 = bitcast %"class.std::__1::basic_string"** %14 to <2 x %"class.std::__1::basic_string"*>*
  store <2 x %"class.std::__1::basic_string"*> <%"class.std::__1::basic_string"* bitcast (%"class.google::protobuf::internal::ExplicitlyConstructed.18"* @_ZN6google8protobuf8internal26fixed_address_empty_stringE to %"class.std::__1::basic_string"*), %"class.std::__1::basic_string"* bitcast (%"class.google::protobuf::internal::ExplicitlyConstructed.18"* @_ZN6google8protobuf8internal26fixed_address_empty_stringE to %"class.std::__1::basic_string"*)>, <2 x %"class.std::__1::basic_string"*>* %15, align 8
  %16 = getelementptr inbounds %"class.enterprise_connectors::EncryptedData", %"class.enterprise_connectors::EncryptedData"* %0, i64 0, i32 7, i32 0
  store %"class.std::__1::basic_string"* bitcast (%"class.google::protobuf::internal::ExplicitlyConstructed.18"* @_ZN6google8protobuf8internal26fixed_address_empty_stringE to %"class.std::__1::basic_string"*), %"class.std::__1::basic_string"** %16, align 8
  ret void
}

; Function Attrs: nounwind ssp uwtable
define hidden void @_ZN21enterprise_connectors13EncryptedDataC2ERKS0_(%"class.enterprise_connectors::EncryptedData"*, %"class.enterprise_connectors::EncryptedData"* nocapture readonly dereferenceable(64)) unnamed_addr #0 align 2 {
  %3 = getelementptr inbounds %"class.enterprise_connectors::EncryptedData", %"class.enterprise_connectors::EncryptedData"* %0, i64 0, i32 0, i32 0
  %4 = getelementptr inbounds %"class.enterprise_connectors::EncryptedData", %"class.enterprise_connectors::EncryptedData"* %0, i64 0, i32 0, i32 1, i32 0
  store i8* null, i8** %4, align 8
  store i32 (...)** bitcast (i8** getelementptr inbounds ({ [16 x i8*] }, { [16 x i8*] }* @_ZTVN21enterprise_connectors13EncryptedDataE, i64 0, inrange i32 0, i64 2) to i32 (...)**), i32 (...)*** %3, align 8
  %5 = getelementptr inbounds %"class.enterprise_connectors::EncryptedData", %"class.enterprise_connectors::EncryptedData"* %1, i64 0, i32 1, i32 0, i64 0
  %6 = getelementptr inbounds %"class.enterprise_connectors::EncryptedData", %"class.enterprise_connectors::EncryptedData"* %0, i64 0, i32 1, i32 0, i64 0
  %7 = load i32, i32* %5, align 8
  store i32 %7, i32* %6, align 8
  %8 = getelementptr inbounds %"class.enterprise_connectors::EncryptedData", %"class.enterprise_connectors::EncryptedData"* %0, i64 0, i32 2, i32 0, i32 0, i32 0, i32 0, i32 0, i32 0
  store i32 0, i32* %8, align 4
  %9 = getelementptr inbounds %"class.enterprise_connectors::EncryptedData", %"class.enterprise_connectors::EncryptedData"* %0, i64 0, i32 0, i32 1
  %10 = getelementptr inbounds %"class.enterprise_connectors::EncryptedData", %"class.enterprise_connectors::EncryptedData"* %1, i64 0, i32 0, i32 1
  %11 = bitcast %"class.google::protobuf::internal::InternalMetadata"* %10 to i64*
  %12 = load i64, i64* %11, align 8
  %13 = and i64 %12, 1
  %14 = icmp eq i64 %13, 0
  br i1 %14, label %33, label %15

15:                                               ; preds = %2
  %16 = and i64 %12, -2
  %17 = inttoptr i64 %16 to %"struct.google::protobuf::internal::InternalMetadata::Container"*
  %18 = getelementptr inbounds %"struct.google::protobuf::internal::InternalMetadata::Container", %"struct.google::protobuf::internal::InternalMetadata::Container"* %17, i64 0, i32 1
  %19 = tail call %"class.std::__1::basic_string"* @_ZN6google8protobuf8internal16InternalMetadata27mutable_unknown_fields_slowINSt3__112basic_stringIcNS4_11char_traitsIcEENS4_9allocatorIcEEEEEEPT_v(%"class.google::protobuf::internal::InternalMetadata"* %9) #14
  %20 = bitcast %"class.std::__1::basic_string"* %18 to %"struct.std::__1::basic_string<char, std::__1::char_traits<char>, std::__1::allocator<char> >::__short"*
  %21 = getelementptr inbounds %"struct.std::__1::basic_string<char, std::__1::char_traits<char>, std::__1::allocator<char> >::__short", %"struct.std::__1::basic_string<char, std::__1::char_traits<char>, std::__1::allocator<char> >::__short"* %20, i64 0, i32 1, i32 0
  %22 = load i8, i8* %21, align 1
  %23 = icmp slt i8 %22, 0
  %24 = getelementptr inbounds %"class.std::__1::basic_string", %"class.std::__1::basic_string"* %18, i64 0, i32 0, i32 0, i32 0, i32 0, i32 0, i32 0
  %25 = load i8*, i8** %24, align 8
  %26 = getelementptr inbounds %"struct.google::protobuf::internal::InternalMetadata::Container", %"struct.google::protobuf::internal::InternalMetadata::Container"* %17, i64 0, i32 1, i32 0, i32 0, i32 0, i32 0, i32 0, i32 1
  %27 = load i64, i64* %26, align 8
  %28 = bitcast %"class.std::__1::basic_string"* %18 to i8*
  %29 = zext i8 %22 to i64
  %30 = select i1 %23, i8* %25, i8* %28
  %31 = select i1 %23, i64 %27, i64 %29
  %32 = tail call dereferenceable(24) %"class.std::__1::basic_string"* @_ZNSt3__112basic_stringIcNS_11char_traitsIcEENS_9allocatorIcEEE6appendEPKcm(%"class.std::__1::basic_string"* %19, i8* %30, i64 %31) #14
  br label %33

33:                                               ; preds = %2, %15
  %34 = getelementptr inbounds %"class.enterprise_connectors::EncryptedData", %"class.enterprise_connectors::EncryptedData"* %0, i64 0, i32 3
  %35 = getelementptr inbounds %"struct.google::protobuf::internal::ArenaStringPtr", %"struct.google::protobuf::internal::ArenaStringPtr"* %34, i64 0, i32 0
  store %"class.std::__1::basic_string"* bitcast (%"class.google::protobuf::internal::ExplicitlyConstructed.18"* @_ZN6google8protobuf8internal26fixed_address_empty_stringE to %"class.std::__1::basic_string"*), %"class.std::__1::basic_string"** %35, align 8
  %36 = load i32, i32* %5, align 4
  %37 = and i32 %36, 1
  %38 = icmp eq i32 %37, 0
  br i1 %38, label %55, label %39

39:                                               ; preds = %33
  %40 = getelementptr inbounds %"class.enterprise_connectors::EncryptedData", %"class.enterprise_connectors::EncryptedData"* %1, i64 0, i32 3, i32 0
  %41 = load %"class.std::__1::basic_string"*, %"class.std::__1::basic_string"** %40, align 8
  %42 = bitcast %"class.google::protobuf::internal::InternalMetadata"* %9 to i64*
  %43 = load i64, i64* %42, align 8
  %44 = and i64 %43, 1
  %45 = icmp eq i64 %44, 0
  %46 = and i64 %43, -2
  br i1 %45, label %51, label %47, !prof !3

47:                                               ; preds = %39
  %48 = inttoptr i64 %46 to %"struct.google::protobuf::internal::InternalMetadata::ContainerBase"*
  %49 = getelementptr inbounds %"struct.google::protobuf::internal::InternalMetadata::ContainerBase", %"struct.google::protobuf::internal::InternalMetadata::ContainerBase"* %48, i64 0, i32 0
  %50 = load %"class.google::protobuf::Arena"*, %"class.google::protobuf::Arena"** %49, align 8
  br label %53

51:                                               ; preds = %39
  %52 = inttoptr i64 %46 to %"class.google::protobuf::Arena"*
  br label %53

53:                                               ; preds = %47, %51
  %54 = phi %"class.google::protobuf::Arena"* [ %50, %47 ], [ %52, %51 ]
  tail call void @_ZN6google8protobuf8internal14ArenaStringPtr14CreateInstanceEPNS0_5ArenaEPKNSt3__112basic_stringIcNS5_11char_traitsIcEENS5_9allocatorIcEEEE(%"struct.google::protobuf::internal::ArenaStringPtr"* %34, %"class.google::protobuf::Arena"* %54, %"class.std::__1::basic_string"* %41) #14
  br label %55

55:                                               ; preds = %33, %53
  %56 = getelementptr inbounds %"class.enterprise_connectors::EncryptedData", %"class.enterprise_connectors::EncryptedData"* %0, i64 0, i32 4
  %57 = getelementptr inbounds %"struct.google::protobuf::internal::ArenaStringPtr", %"struct.google::protobuf::internal::ArenaStringPtr"* %56, i64 0, i32 0
  store %"class.std::__1::basic_string"* bitcast (%"class.google::protobuf::internal::ExplicitlyConstructed.18"* @_ZN6google8protobuf8internal26fixed_address_empty_stringE to %"class.std::__1::basic_string"*), %"class.std::__1::basic_string"** %57, align 8
  %58 = load i32, i32* %5, align 4
  %59 = and i32 %58, 2
  %60 = icmp eq i32 %59, 0
  br i1 %60, label %77, label %61

61:                                               ; preds = %55
  %62 = getelementptr inbounds %"class.enterprise_connectors::EncryptedData", %"class.enterprise_connectors::EncryptedData"* %1, i64 0, i32 4, i32 0
  %63 = load %"class.std::__1::basic_string"*, %"class.std::__1::basic_string"** %62, align 8
  %64 = bitcast %"class.google::protobuf::internal::InternalMetadata"* %9 to i64*
  %65 = load i64, i64* %64, align 8
  %66 = and i64 %65, 1
  %67 = icmp eq i64 %66, 0
  %68 = and i64 %65, -2
  br i1 %67, label %73, label %69, !prof !3

69:                                               ; preds = %61
  %70 = inttoptr i64 %68 to %"struct.google::protobuf::internal::InternalMetadata::ContainerBase"*
  %71 = getelementptr inbounds %"struct.google::protobuf::internal::InternalMetadata::ContainerBase", %"struct.google::protobuf::internal::InternalMetadata::ContainerBase"* %70, i64 0, i32 0
  %72 = load %"class.google::protobuf::Arena"*, %"class.google::protobuf::Arena"** %71, align 8
  br label %75

73:                                               ; preds = %61
  %74 = inttoptr i64 %68 to %"class.google::protobuf::Arena"*
  br label %75

75:                                               ; preds = %69, %73
  %76 = phi %"class.google::protobuf::Arena"* [ %72, %69 ], [ %74, %73 ]
  tail call void @_ZN6google8protobuf8internal14ArenaStringPtr14CreateInstanceEPNS0_5ArenaEPKNSt3__112basic_stringIcNS5_11char_traitsIcEENS5_9allocatorIcEEEE(%"struct.google::protobuf::internal::ArenaStringPtr"* %56, %"class.google::protobuf::Arena"* %76, %"class.std::__1::basic_string"* %63) #14
  br label %77

77:                                               ; preds = %55, %75
  %78 = getelementptr inbounds %"class.enterprise_connectors::EncryptedData", %"class.enterprise_connectors::EncryptedData"* %0, i64 0, i32 5
  %79 = getelementptr inbounds %"struct.google::protobuf::internal::ArenaStringPtr", %"struct.google::protobuf::internal::ArenaStringPtr"* %78, i64 0, i32 0
  store %"class.std::__1::basic_string"* bitcast (%"class.google::protobuf::internal::ExplicitlyConstructed.18"* @_ZN6google8protobuf8internal26fixed_address_empty_stringE to %"class.std::__1::basic_string"*), %"class.std::__1::basic_string"** %79, align 8
  %80 = load i32, i32* %5, align 4
  %81 = and i32 %80, 4
  %82 = icmp eq i32 %81, 0
  br i1 %82, label %99, label %83

83:                                               ; preds = %77
  %84 = getelementptr inbounds %"class.enterprise_connectors::EncryptedData", %"class.enterprise_connectors::EncryptedData"* %1, i64 0, i32 5, i32 0
  %85 = load %"class.std::__1::basic_string"*, %"class.std::__1::basic_string"** %84, align 8
  %86 = bitcast %"class.google::protobuf::internal::InternalMetadata"* %9 to i64*
  %87 = load i64, i64* %86, align 8
  %88 = and i64 %87, 1
  %89 = icmp eq i64 %88, 0
  %90 = and i64 %87, -2
  br i1 %89, label %95, label %91, !prof !3

91:                                               ; preds = %83
  %92 = inttoptr i64 %90 to %"struct.google::protobuf::internal::InternalMetadata::ContainerBase"*
  %93 = getelementptr inbounds %"struct.google::protobuf::internal::InternalMetadata::ContainerBase", %"struct.google::protobuf::internal::InternalMetadata::ContainerBase"* %92, i64 0, i32 0
  %94 = load %"class.google::protobuf::Arena"*, %"class.google::protobuf::Arena"** %93, align 8
  br label %97

95:                                               ; preds = %83
  %96 = inttoptr i64 %90 to %"class.google::protobuf::Arena"*
  br label %97

97:                                               ; preds = %91, %95
  %98 = phi %"class.google::protobuf::Arena"* [ %94, %91 ], [ %96, %95 ]
  tail call void @_ZN6google8protobuf8internal14ArenaStringPtr14CreateInstanceEPNS0_5ArenaEPKNSt3__112basic_stringIcNS5_11char_traitsIcEENS5_9allocatorIcEEEE(%"struct.google::protobuf::internal::ArenaStringPtr"* %78, %"class.google::protobuf::Arena"* %98, %"class.std::__1::basic_string"* %85) #14
  br label %99

99:                                               ; preds = %77, %97
  %100 = getelementptr inbounds %"class.enterprise_connectors::EncryptedData", %"class.enterprise_connectors::EncryptedData"* %0, i64 0, i32 6
  %101 = getelementptr inbounds %"struct.google::protobuf::internal::ArenaStringPtr", %"struct.google::protobuf::internal::ArenaStringPtr"* %100, i64 0, i32 0
  store %"class.std::__1::basic_string"* bitcast (%"class.google::protobuf::internal::ExplicitlyConstructed.18"* @_ZN6google8protobuf8internal26fixed_address_empty_stringE to %"class.std::__1::basic_string"*), %"class.std::__1::basic_string"** %101, align 8
  %102 = load i32, i32* %5, align 4
  %103 = and i32 %102, 8
  %104 = icmp eq i32 %103, 0
  br i1 %104, label %121, label %105

105:                                              ; preds = %99
  %106 = getelementptr inbounds %"class.enterprise_connectors::EncryptedData", %"class.enterprise_connectors::EncryptedData"* %1, i64 0, i32 6, i32 0
  %107 = load %"class.std::__1::basic_string"*, %"class.std::__1::basic_string"** %106, align 8
  %108 = bitcast %"class.google::protobuf::internal::InternalMetadata"* %9 to i64*
  %109 = load i64, i64* %108, align 8
  %110 = and i64 %109, 1
  %111 = icmp eq i64 %110, 0
  %112 = and i64 %109, -2
  br i1 %111, label %117, label %113, !prof !3

113:                                              ; preds = %105
  %114 = inttoptr i64 %112 to %"struct.google::protobuf::internal::InternalMetadata::ContainerBase"*
  %115 = getelementptr inbounds %"struct.google::protobuf::internal::InternalMetadata::ContainerBase", %"struct.google::protobuf::internal::InternalMetadata::ContainerBase"* %114, i64 0, i32 0
  %116 = load %"class.google::protobuf::Arena"*, %"class.google::protobuf::Arena"** %115, align 8
  br label %119

117:                                              ; preds = %105
  %118 = inttoptr i64 %112 to %"class.google::protobuf::Arena"*
  br label %119

119:                                              ; preds = %113, %117
  %120 = phi %"class.google::protobuf::Arena"* [ %116, %113 ], [ %118, %117 ]
  tail call void @_ZN6google8protobuf8internal14ArenaStringPtr14CreateInstanceEPNS0_5ArenaEPKNSt3__112basic_stringIcNS5_11char_traitsIcEENS5_9allocatorIcEEEE(%"struct.google::protobuf::internal::ArenaStringPtr"* %100, %"class.google::protobuf::Arena"* %120, %"class.std::__1::basic_string"* %107) #14
  br label %121

121:                                              ; preds = %99, %119
  %122 = getelementptr inbounds %"class.enterprise_connectors::EncryptedData", %"class.enterprise_connectors::EncryptedData"* %0, i64 0, i32 7
  %123 = getelementptr inbounds %"struct.google::protobuf::internal::ArenaStringPtr", %"struct.google::protobuf::internal::ArenaStringPtr"* %122, i64 0, i32 0
  store %"class.std::__1::basic_string"* bitcast (%"class.google::protobuf::internal::ExplicitlyConstructed.18"* @_ZN6google8protobuf8internal26fixed_address_empty_stringE to %"class.std::__1::basic_string"*), %"class.std::__1::basic_string"** %123, align 8
  %124 = load i32, i32* %5, align 4
  %125 = and i32 %124, 16
  %126 = icmp eq i32 %125, 0
  br i1 %126, label %143, label %127

127:                                              ; preds = %121
  %128 = getelementptr inbounds %"class.enterprise_connectors::EncryptedData", %"class.enterprise_connectors::EncryptedData"* %1, i64 0, i32 7, i32 0
  %129 = load %"class.std::__1::basic_string"*, %"class.std::__1::basic_string"** %128, align 8
  %130 = bitcast %"class.google::protobuf::internal::InternalMetadata"* %9 to i64*
  %131 = load i64, i64* %130, align 8
  %132 = and i64 %131, 1
  %133 = icmp eq i64 %132, 0
  %134 = and i64 %131, -2
  br i1 %133, label %139, label %135, !prof !3

135:                                              ; preds = %127
  %136 = inttoptr i64 %134 to %"struct.google::protobuf::internal::InternalMetadata::ContainerBase"*
  %137 = getelementptr inbounds %"struct.google::protobuf::internal::InternalMetadata::ContainerBase", %"struct.google::protobuf::internal::InternalMetadata::ContainerBase"* %136, i64 0, i32 0
  %138 = load %"class.google::protobuf::Arena"*, %"class.google::protobuf::Arena"** %137, align 8
  br label %141

139:                                              ; preds = %127
  %140 = inttoptr i64 %134 to %"class.google::protobuf::Arena"*
  br label %141

141:                                              ; preds = %135, %139
  %142 = phi %"class.google::protobuf::Arena"* [ %138, %135 ], [ %140, %139 ]
  tail call void @_ZN6google8protobuf8internal14ArenaStringPtr14CreateInstanceEPNS0_5ArenaEPKNSt3__112basic_stringIcNS5_11char_traitsIcEENS5_9allocatorIcEEEE(%"struct.google::protobuf::internal::ArenaStringPtr"* %122, %"class.google::protobuf::Arena"* %142, %"class.std::__1::basic_string"* %129) #14
  br label %143

143:                                              ; preds = %121, %141
  ret void
}

; Function Attrs: nounwind ssp uwtable
define hidden void @_ZN21enterprise_connectors13EncryptedDataD2Ev(%"class.enterprise_connectors::EncryptedData"*) unnamed_addr #0 align 2 {
  %2 = getelementptr inbounds %"class.enterprise_connectors::EncryptedData", %"class.enterprise_connectors::EncryptedData"* %0, i64 0, i32 0, i32 0
  store i32 (...)** bitcast (i8** getelementptr inbounds ({ [16 x i8*] }, { [16 x i8*] }* @_ZTVN21enterprise_connectors13EncryptedDataE, i64 0, inrange i32 0, i64 2) to i32 (...)**), i32 (...)*** %2, align 8
  %3 = getelementptr inbounds %"class.enterprise_connectors::EncryptedData", %"class.enterprise_connectors::EncryptedData"* %0, i64 0, i32 3
  tail call void @_ZN6google8protobuf8internal14ArenaStringPtr14DestroyNoArenaEPKNSt3__112basic_stringIcNS3_11char_traitsIcEENS3_9allocatorIcEEEE(%"struct.google::protobuf::internal::ArenaStringPtr"* %3, %"class.std::__1::basic_string"* bitcast (%"class.google::protobuf::internal::ExplicitlyConstructed.18"* @_ZN6google8protobuf8internal26fixed_address_empty_stringE to %"class.std::__1::basic_string"*)) #14
  %4 = getelementptr inbounds %"class.enterprise_connectors::EncryptedData", %"class.enterprise_connectors::EncryptedData"* %0, i64 0, i32 4
  tail call void @_ZN6google8protobuf8internal14ArenaStringPtr14DestroyNoArenaEPKNSt3__112basic_stringIcNS3_11char_traitsIcEENS3_9allocatorIcEEEE(%"struct.google::protobuf::internal::ArenaStringPtr"* %4, %"class.std::__1::basic_string"* bitcast (%"class.google::protobuf::internal::ExplicitlyConstructed.18"* @_ZN6google8protobuf8internal26fixed_address_empty_stringE to %"class.std::__1::basic_string"*)) #14
  %5 = getelementptr inbounds %"class.enterprise_connectors::EncryptedData", %"class.enterprise_connectors::EncryptedData"* %0, i64 0, i32 5
  tail call void @_ZN6google8protobuf8internal14ArenaStringPtr14DestroyNoArenaEPKNSt3__112basic_stringIcNS3_11char_traitsIcEENS3_9allocatorIcEEEE(%"struct.google::protobuf::internal::ArenaStringPtr"* %5, %"class.std::__1::basic_string"* bitcast (%"class.google::protobuf::internal::ExplicitlyConstructed.18"* @_ZN6google8protobuf8internal26fixed_address_empty_stringE to %"class.std::__1::basic_string"*)) #14
  %6 = getelementptr inbounds %"class.enterprise_connectors::EncryptedData", %"class.enterprise_connectors::EncryptedData"* %0, i64 0, i32 6
  tail call void @_ZN6google8protobuf8internal14ArenaStringPtr14DestroyNoArenaEPKNSt3__112basic_stringIcNS3_11char_traitsIcEENS3_9allocatorIcEEEE(%"struct.google::protobuf::internal::ArenaStringPtr"* %6, %"class.std::__1::basic_string"* bitcast (%"class.google::protobuf::internal::ExplicitlyConstructed.18"* @_ZN6google8protobuf8internal26fixed_address_empty_stringE to %"class.std::__1::basic_string"*)) #14
  %7 = getelementptr inbounds %"class.enterprise_connectors::EncryptedData", %"class.enterprise_connectors::EncryptedData"* %0, i64 0, i32 7
  tail call void @_ZN6google8protobuf8internal14ArenaStringPtr14DestroyNoArenaEPKNSt3__112basic_stringIcNS3_11char_traitsIcEENS3_9allocatorIcEEEE(%"struct.google::protobuf::internal::ArenaStringPtr"* %7, %"class.std::__1::basic_string"* bitcast (%"class.google::protobuf::internal::ExplicitlyConstructed.18"* @_ZN6google8protobuf8internal26fixed_address_empty_stringE to %"class.std::__1::basic_string"*)) #14
  %8 = getelementptr inbounds %"class.enterprise_connectors::EncryptedData", %"class.enterprise_connectors::EncryptedData"* %0, i64 0, i32 0, i32 1
  %9 = bitcast %"class.google::protobuf::internal::InternalMetadata"* %8 to i64*
  %10 = load i64, i64* %9, align 8
  %11 = and i64 %10, 1
  %12 = icmp eq i64 %11, 0
  br i1 %12, label %33, label %13

13:                                               ; preds = %1
  %14 = and i64 %10, -2
  %15 = inttoptr i64 %14 to %"struct.google::protobuf::internal::InternalMetadata::ContainerBase"*
  %16 = getelementptr inbounds %"struct.google::protobuf::internal::InternalMetadata::ContainerBase", %"struct.google::protobuf::internal::InternalMetadata::ContainerBase"* %15, i64 0, i32 0
  %17 = load %"class.google::protobuf::Arena"*, %"class.google::protobuf::Arena"** %16, align 8
  %18 = icmp ne %"class.google::protobuf::Arena"* %17, null
  %19 = icmp eq i64 %14, 0
  %20 = or i1 %19, %18
  br i1 %20, label %33, label %21

21:                                               ; preds = %13
  %22 = inttoptr i64 %14 to %"struct.google::protobuf::internal::InternalMetadata::Container"*
  %23 = getelementptr inbounds %"struct.google::protobuf::internal::InternalMetadata::Container", %"struct.google::protobuf::internal::InternalMetadata::Container"* %22, i64 0, i32 1
  %24 = bitcast %"class.std::__1::basic_string"* %23 to %"struct.std::__1::basic_string<char, std::__1::char_traits<char>, std::__1::allocator<char> >::__short"*
  %25 = getelementptr inbounds %"struct.std::__1::basic_string<char, std::__1::char_traits<char>, std::__1::allocator<char> >::__short", %"struct.std::__1::basic_string<char, std::__1::char_traits<char>, std::__1::allocator<char> >::__short"* %24, i64 0, i32 1, i32 0
  %26 = load i8, i8* %25, align 1
  %27 = icmp slt i8 %26, 0
  br i1 %27, label %28, label %31

28:                                               ; preds = %21
  %29 = getelementptr inbounds %"class.std::__1::basic_string", %"class.std::__1::basic_string"* %23, i64 0, i32 0, i32 0, i32 0, i32 0, i32 0, i32 0
  %30 = load i8*, i8** %29, align 8
  tail call void @_ZdlPv(i8* %30) #15
  br label %31

31:                                               ; preds = %28, %21
  %32 = inttoptr i64 %14 to i8*
  tail call void @_ZdlPv(i8* %32) #15
  br label %33

33:                                               ; preds = %1, %13, %31
  ret void
}

; Function Attrs: nounwind ssp uwtable
define hidden void @_ZN21enterprise_connectors13EncryptedDataD0Ev(%"class.enterprise_connectors::EncryptedData"*) unnamed_addr #0 align 2 {
  tail call void @_ZN21enterprise_connectors13EncryptedDataD2Ev(%"class.enterprise_connectors::EncryptedData"* %0) #14
  %2 = bitcast %"class.enterprise_connectors::EncryptedData"* %0 to i8*
  tail call void @_ZdlPv(i8* %2) #15
  ret void
}

; Function Attrs: norecurse nounwind readnone ssp uwtable
define hidden void @_ZN21enterprise_connectors13EncryptedData9ArenaDtorEPv(i8* nocapture) local_unnamed_addr #1 align 2 {
  ret void
}

; Function Attrs: nofree norecurse nounwind ssp uwtable
define hidden void @_ZNK21enterprise_connectors13EncryptedData13SetCachedSizeEi(%"class.enterprise_connectors::EncryptedData"* nocapture, i32) local_unnamed_addr #6 align 2 {
  %3 = getelementptr inbounds %"class.enterprise_connectors::EncryptedData", %"class.enterprise_connectors::EncryptedData"* %0, i64 0, i32 2, i32 0, i32 0, i32 0, i32 0, i32 0, i32 0
  store atomic i32 %1, i32* %3 monotonic, align 4
  ret void
}

; Function Attrs: nounwind ssp uwtable
define hidden dereferenceable(64) %"class.enterprise_connectors::EncryptedData"* @_ZN21enterprise_connectors13EncryptedData16default_instanceEv() local_unnamed_addr #0 align 2 {
  %1 = load atomic i32, i32* getelementptr inbounds ({ { { { i32 } }, i32, i32, void ()* }, [0 x i8*] }, { { { { i32 } }, i32, i32, void ()* }, [0 x i8*] }* @scc_info_EncryptedData_device_5ftrust_5fattestation_5fca_2eproto, i64 0, i32 0, i32 0, i32 0, i32 0) acquire, align 8
  %2 = icmp eq i32 %1, 0
  br i1 %2, label %4, label %3, !prof !3

3:                                                ; preds = %0
  tail call void @_ZN6google8protobuf8internal11InitSCCImplEPNS1_11SCCInfoBaseE(%"struct.google::protobuf::internal::SCCInfoBase"* bitcast ({ { { { i32 } }, i32, i32, void ()* }, [0 x i8*] }* @scc_info_EncryptedData_device_5ftrust_5fattestation_5fca_2eproto to %"struct.google::protobuf::internal::SCCInfoBase"*)) #14
  br label %4

4:                                                ; preds = %0, %3
  ret %"class.enterprise_connectors::EncryptedData"* bitcast (%"class.enterprise_connectors::EncryptedDataDefaultTypeInternal"* @_ZN21enterprise_connectors32_EncryptedData_default_instance_E to %"class.enterprise_connectors::EncryptedData"*)
}

; Function Attrs: nofree norecurse nounwind ssp uwtable
define hidden void @_ZN21enterprise_connectors13EncryptedData5ClearEv(%"class.enterprise_connectors::EncryptedData"* nocapture) unnamed_addr #6 align 2 {
  %2 = getelementptr inbounds %"class.enterprise_connectors::EncryptedData", %"class.enterprise_connectors::EncryptedData"* %0, i64 0, i32 1, i32 0, i64 0
  %3 = load i32, i32* %2, align 4
  %4 = and i32 %3, 31
  %5 = icmp eq i32 %4, 0
  br i1 %5, label %86, label %6

6:                                                ; preds = %1
  %7 = and i32 %3, 1
  %8 = icmp eq i32 %7, 0
  br i1 %8, label %22, label %9

9:                                                ; preds = %6
  %10 = getelementptr inbounds %"class.enterprise_connectors::EncryptedData", %"class.enterprise_connectors::EncryptedData"* %0, i64 0, i32 3, i32 0
  %11 = load %"class.std::__1::basic_string"*, %"class.std::__1::basic_string"** %10, align 8
  %12 = bitcast %"class.std::__1::basic_string"* %11 to %"struct.std::__1::basic_string<char, std::__1::char_traits<char>, std::__1::allocator<char> >::__short"*
  %13 = getelementptr inbounds %"struct.std::__1::basic_string<char, std::__1::char_traits<char>, std::__1::allocator<char> >::__short", %"struct.std::__1::basic_string<char, std::__1::char_traits<char>, std::__1::allocator<char> >::__short"* %12, i64 0, i32 1, i32 0
  %14 = load i8, i8* %13, align 1
  %15 = icmp slt i8 %14, 0
  br i1 %15, label %16, label %20

16:                                               ; preds = %9
  %17 = getelementptr inbounds %"class.std::__1::basic_string", %"class.std::__1::basic_string"* %11, i64 0, i32 0, i32 0, i32 0, i32 0, i32 0, i32 0
  %18 = load i8*, i8** %17, align 8
  store i8 0, i8* %18, align 1
  %19 = getelementptr inbounds %"class.std::__1::basic_string", %"class.std::__1::basic_string"* %11, i64 0, i32 0, i32 0, i32 0, i32 0, i32 0, i32 1
  store i64 0, i64* %19, align 8
  br label %22

20:                                               ; preds = %9
  %21 = bitcast %"class.std::__1::basic_string"* %11 to i8*
  store i8 0, i8* %21, align 1
  store i8 0, i8* %13, align 1
  br label %22

22:                                               ; preds = %20, %16, %6
  %23 = and i32 %3, 2
  %24 = icmp eq i32 %23, 0
  br i1 %24, label %38, label %25

25:                                               ; preds = %22
  %26 = getelementptr inbounds %"class.enterprise_connectors::EncryptedData", %"class.enterprise_connectors::EncryptedData"* %0, i64 0, i32 4, i32 0
  %27 = load %"class.std::__1::basic_string"*, %"class.std::__1::basic_string"** %26, align 8
  %28 = bitcast %"class.std::__1::basic_string"* %27 to %"struct.std::__1::basic_string<char, std::__1::char_traits<char>, std::__1::allocator<char> >::__short"*
  %29 = getelementptr inbounds %"struct.std::__1::basic_string<char, std::__1::char_traits<char>, std::__1::allocator<char> >::__short", %"struct.std::__1::basic_string<char, std::__1::char_traits<char>, std::__1::allocator<char> >::__short"* %28, i64 0, i32 1, i32 0
  %30 = load i8, i8* %29, align 1
  %31 = icmp slt i8 %30, 0
  br i1 %31, label %32, label %36

32:                                               ; preds = %25
  %33 = getelementptr inbounds %"class.std::__1::basic_string", %"class.std::__1::basic_string"* %27, i64 0, i32 0, i32 0, i32 0, i32 0, i32 0, i32 0
  %34 = load i8*, i8** %33, align 8
  store i8 0, i8* %34, align 1
  %35 = getelementptr inbounds %"class.std::__1::basic_string", %"class.std::__1::basic_string"* %27, i64 0, i32 0, i32 0, i32 0, i32 0, i32 0, i32 1
  store i64 0, i64* %35, align 8
  br label %38

36:                                               ; preds = %25
  %37 = bitcast %"class.std::__1::basic_string"* %27 to i8*
  store i8 0, i8* %37, align 1
  store i8 0, i8* %29, align 1
  br label %38

38:                                               ; preds = %36, %32, %22
  %39 = and i32 %3, 4
  %40 = icmp eq i32 %39, 0
  br i1 %40, label %54, label %41

41:                                               ; preds = %38
  %42 = getelementptr inbounds %"class.enterprise_connectors::EncryptedData", %"class.enterprise_connectors::EncryptedData"* %0, i64 0, i32 5, i32 0
  %43 = load %"class.std::__1::basic_string"*, %"class.std::__1::basic_string"** %42, align 8
  %44 = bitcast %"class.std::__1::basic_string"* %43 to %"struct.std::__1::basic_string<char, std::__1::char_traits<char>, std::__1::allocator<char> >::__short"*
  %45 = getelementptr inbounds %"struct.std::__1::basic_string<char, std::__1::char_traits<char>, std::__1::allocator<char> >::__short", %"struct.std::__1::basic_string<char, std::__1::char_traits<char>, std::__1::allocator<char> >::__short"* %44, i64 0, i32 1, i32 0
  %46 = load i8, i8* %45, align 1
  %47 = icmp slt i8 %46, 0
  br i1 %47, label %48, label %52

48:                                               ; preds = %41
  %49 = getelementptr inbounds %"class.std::__1::basic_string", %"class.std::__1::basic_string"* %43, i64 0, i32 0, i32 0, i32 0, i32 0, i32 0, i32 0
  %50 = load i8*, i8** %49, align 8
  store i8 0, i8* %50, align 1
  %51 = getelementptr inbounds %"class.std::__1::basic_string", %"class.std::__1::basic_string"* %43, i64 0, i32 0, i32 0, i32 0, i32 0, i32 0, i32 1
  store i64 0, i64* %51, align 8
  br label %54

52:                                               ; preds = %41
  %53 = bitcast %"class.std::__1::basic_string"* %43 to i8*
  store i8 0, i8* %53, align 1
  store i8 0, i8* %45, align 1
  br label %54

54:                                               ; preds = %52, %48, %38
  %55 = and i32 %3, 8
  %56 = icmp eq i32 %55, 0
  br i1 %56, label %70, label %57

57:                                               ; preds = %54
  %58 = getelementptr inbounds %"class.enterprise_connectors::EncryptedData", %"class.enterprise_connectors::EncryptedData"* %0, i64 0, i32 6, i32 0
  %59 = load %"class.std::__1::basic_string"*, %"class.std::__1::basic_string"** %58, align 8
  %60 = bitcast %"class.std::__1::basic_string"* %59 to %"struct.std::__1::basic_string<char, std::__1::char_traits<char>, std::__1::allocator<char> >::__short"*
  %61 = getelementptr inbounds %"struct.std::__1::basic_string<char, std::__1::char_traits<char>, std::__1::allocator<char> >::__short", %"struct.std::__1::basic_string<char, std::__1::char_traits<char>, std::__1::allocator<char> >::__short"* %60, i64 0, i32 1, i32 0
  %62 = load i8, i8* %61, align 1
  %63 = icmp slt i8 %62, 0
  br i1 %63, label %64, label %68

64:                                               ; preds = %57
  %65 = getelementptr inbounds %"class.std::__1::basic_string", %"class.std::__1::basic_string"* %59, i64 0, i32 0, i32 0, i32 0, i32 0, i32 0, i32 0
  %66 = load i8*, i8** %65, align 8
  store i8 0, i8* %66, align 1
  %67 = getelementptr inbounds %"class.std::__1::basic_string", %"class.std::__1::basic_string"* %59, i64 0, i32 0, i32 0, i32 0, i32 0, i32 0, i32 1
  store i64 0, i64* %67, align 8
  br label %70

68:                                               ; preds = %57
  %69 = bitcast %"class.std::__1::basic_string"* %59 to i8*
  store i8 0, i8* %69, align 1
  store i8 0, i8* %61, align 1
  br label %70

70:                                               ; preds = %68, %64, %54
  %71 = and i32 %3, 16
  %72 = icmp eq i32 %71, 0
  br i1 %72, label %86, label %73

73:                                               ; preds = %70
  %74 = getelementptr inbounds %"class.enterprise_connectors::EncryptedData", %"class.enterprise_connectors::EncryptedData"* %0, i64 0, i32 7, i32 0
  %75 = load %"class.std::__1::basic_string"*, %"class.std::__1::basic_string"** %74, align 8
  %76 = bitcast %"class.std::__1::basic_string"* %75 to %"struct.std::__1::basic_string<char, std::__1::char_traits<char>, std::__1::allocator<char> >::__short"*
  %77 = getelementptr inbounds %"struct.std::__1::basic_string<char, std::__1::char_traits<char>, std::__1::allocator<char> >::__short", %"struct.std::__1::basic_string<char, std::__1::char_traits<char>, std::__1::allocator<char> >::__short"* %76, i64 0, i32 1, i32 0
  %78 = load i8, i8* %77, align 1
  %79 = icmp slt i8 %78, 0
  br i1 %79, label %80, label %84

80:                                               ; preds = %73
  %81 = getelementptr inbounds %"class.std::__1::basic_string", %"class.std::__1::basic_string"* %75, i64 0, i32 0, i32 0, i32 0, i32 0, i32 0, i32 0
  %82 = load i8*, i8** %81, align 8
  store i8 0, i8* %82, align 1
  %83 = getelementptr inbounds %"class.std::__1::basic_string", %"class.std::__1::basic_string"* %75, i64 0, i32 0, i32 0, i32 0, i32 0, i32 0, i32 1
  store i64 0, i64* %83, align 8
  br label %86

84:                                               ; preds = %73
  %85 = bitcast %"class.std::__1::basic_string"* %75 to i8*
  store i8 0, i8* %85, align 1
  store i8 0, i8* %77, align 1
  br label %86

86:                                               ; preds = %84, %80, %70, %1
  store i32 0, i32* %2, align 4
  %87 = getelementptr inbounds %"class.enterprise_connectors::EncryptedData", %"class.enterprise_connectors::EncryptedData"* %0, i64 0, i32 0, i32 1
  %88 = bitcast %"class.google::protobuf::internal::InternalMetadata"* %87 to i64*
  %89 = load i64, i64* %88, align 8
  %90 = and i64 %89, 1
  %91 = icmp eq i64 %90, 0
  br i1 %91, label %106, label %92

92:                                               ; preds = %86
  %93 = and i64 %89, -2
  %94 = inttoptr i64 %93 to %"struct.google::protobuf::internal::InternalMetadata::Container"*
  %95 = getelementptr inbounds %"struct.google::protobuf::internal::InternalMetadata::Container", %"struct.google::protobuf::internal::InternalMetadata::Container"* %94, i64 0, i32 1
  %96 = bitcast %"class.std::__1::basic_string"* %95 to %"struct.std::__1::basic_string<char, std::__1::char_traits<char>, std::__1::allocator<char> >::__short"*
  %97 = getelementptr inbounds %"struct.std::__1::basic_string<char, std::__1::char_traits<char>, std::__1::allocator<char> >::__short", %"struct.std::__1::basic_string<char, std::__1::char_traits<char>, std::__1::allocator<char> >::__short"* %96, i64 0, i32 1, i32 0
  %98 = load i8, i8* %97, align 1
  %99 = icmp slt i8 %98, 0
  br i1 %99, label %100, label %104

100:                                              ; preds = %92
  %101 = getelementptr inbounds %"class.std::__1::basic_string", %"class.std::__1::basic_string"* %95, i64 0, i32 0, i32 0, i32 0, i32 0, i32 0, i32 0
  %102 = load i8*, i8** %101, align 8
  store i8 0, i8* %102, align 1
  %103 = getelementptr inbounds %"struct.google::protobuf::internal::InternalMetadata::Container", %"struct.google::protobuf::internal::InternalMetadata::Container"* %94, i64 0, i32 1, i32 0, i32 0, i32 0, i32 0, i32 0, i32 1
  store i64 0, i64* %103, align 8
  br label %106

104:                                              ; preds = %92
  %105 = bitcast %"class.std::__1::basic_string"* %95 to i8*
  store i8 0, i8* %105, align 2
  store i8 0, i8* %97, align 1
  br label %106

106:                                              ; preds = %86, %100, %104
  ret void
}

; Function Attrs: nounwind ssp uwtable
define hidden i8* @_ZN21enterprise_connectors13EncryptedData14_InternalParseEPKcPN6google8protobuf8internal12ParseContextE(%"class.enterprise_connectors::EncryptedData"*, i8*, %"class.google::protobuf::internal::ParseContext"*) unnamed_addr #0 align 2 {
  %4 = getelementptr inbounds %"class.google::protobuf::internal::ParseContext", %"class.google::protobuf::internal::ParseContext"* %2, i64 0, i32 0
  %5 = getelementptr inbounds %"class.google::protobuf::internal::ParseContext", %"class.google::protobuf::internal::ParseContext"* %2, i64 0, i32 2
  %6 = getelementptr inbounds %"class.google::protobuf::internal::ParseContext", %"class.google::protobuf::internal::ParseContext"* %2, i64 0, i32 0, i32 0
  %7 = getelementptr inbounds %"class.google::protobuf::internal::ParseContext", %"class.google::protobuf::internal::ParseContext"* %2, i64 0, i32 0, i32 1
  %8 = bitcast i8** %7 to i64*
  %9 = getelementptr inbounds %"class.google::protobuf::internal::ParseContext", %"class.google::protobuf::internal::ParseContext"* %2, i64 0, i32 0, i32 4
  %10 = getelementptr inbounds %"class.enterprise_connectors::EncryptedData", %"class.enterprise_connectors::EncryptedData"* %0, i64 0, i32 1, i32 0, i64 0
  %11 = getelementptr inbounds %"class.enterprise_connectors::EncryptedData", %"class.enterprise_connectors::EncryptedData"* %0, i64 0, i32 7
  %12 = getelementptr inbounds %"class.enterprise_connectors::EncryptedData", %"class.enterprise_connectors::EncryptedData"* %0, i64 0, i32 0, i32 1
  %13 = bitcast %"class.google::protobuf::internal::InternalMetadata"* %12 to i64*
  %14 = getelementptr inbounds %"struct.google::protobuf::internal::ArenaStringPtr", %"struct.google::protobuf::internal::ArenaStringPtr"* %11, i64 0, i32 0
  %15 = getelementptr inbounds %"class.enterprise_connectors::EncryptedData", %"class.enterprise_connectors::EncryptedData"* %0, i64 0, i32 6
  %16 = getelementptr inbounds %"struct.google::protobuf::internal::ArenaStringPtr", %"struct.google::protobuf::internal::ArenaStringPtr"* %15, i64 0, i32 0
  %17 = getelementptr inbounds %"class.enterprise_connectors::EncryptedData", %"class.enterprise_connectors::EncryptedData"* %0, i64 0, i32 5
  %18 = getelementptr inbounds %"struct.google::protobuf::internal::ArenaStringPtr", %"struct.google::protobuf::internal::ArenaStringPtr"* %17, i64 0, i32 0
  %19 = getelementptr inbounds %"class.enterprise_connectors::EncryptedData", %"class.enterprise_connectors::EncryptedData"* %0, i64 0, i32 4
  %20 = getelementptr inbounds %"struct.google::protobuf::internal::ArenaStringPtr", %"struct.google::protobuf::internal::ArenaStringPtr"* %19, i64 0, i32 0
  %21 = getelementptr inbounds %"class.enterprise_connectors::EncryptedData", %"class.enterprise_connectors::EncryptedData"* %0, i64 0, i32 3
  %22 = getelementptr inbounds %"struct.google::protobuf::internal::ArenaStringPtr", %"struct.google::protobuf::internal::ArenaStringPtr"* %21, i64 0, i32 0
  br label %23

23:                                               ; preds = %196, %3
  %24 = phi i8* [ %1, %3 ], [ %197, %196 ]
  %25 = load i32, i32* %5, align 4
  %26 = load i8*, i8** %6, align 8
  %27 = icmp ult i8* %24, %26
  br i1 %27, label %41, label %28, !prof !3

28:                                               ; preds = %23
  %29 = load i64, i64* %8, align 8
  %30 = ptrtoint i8* %24 to i64
  %31 = sub i64 %30, %29
  %32 = load i32, i32* %9, align 4
  %33 = sext i32 %32 to i64
  %34 = icmp eq i64 %31, %33
  br i1 %34, label %220, label %35

35:                                               ; preds = %28
  %36 = tail call { i8*, i8 } @_ZN6google8protobuf8internal18EpsCopyInputStream12DoneFallbackEPKci(%"class.google::protobuf::internal::EpsCopyInputStream"* %4, i8* %24, i32 %25) #14
  %37 = extractvalue { i8*, i8 } %36, 0
  %38 = extractvalue { i8*, i8 } %36, 1
  %39 = and i8 %38, 1
  %40 = icmp eq i8 %39, 0
  br i1 %40, label %41, label %220

41:                                               ; preds = %35, %23
  %42 = phi i8* [ %37, %35 ], [ %24, %23 ]
  %43 = load i8, i8* %42, align 1
  %44 = zext i8 %43 to i32
  %45 = icmp sgt i8 %43, -1
  %46 = getelementptr inbounds i8, i8* %42, i64 1
  br i1 %45, label %60, label %47

47:                                               ; preds = %41
  %48 = load i8, i8* %46, align 1
  %49 = zext i8 %48 to i32
  %50 = shl nuw nsw i32 %49, 7
  %51 = add nsw i32 %44, -128
  %52 = add nsw i32 %51, %50
  %53 = icmp sgt i8 %48, -1
  br i1 %53, label %54, label %56

54:                                               ; preds = %47
  %55 = getelementptr inbounds i8, i8* %42, i64 2
  br label %60

56:                                               ; preds = %47
  %57 = tail call { i8*, i32 } @_ZN6google8protobuf8internal15ReadTagFallbackEPKcj(i8* %42, i32 %52) #14
  %58 = extractvalue { i8*, i32 } %57, 0
  %59 = extractvalue { i8*, i32 } %57, 1
  br label %60

60:                                               ; preds = %41, %54, %56
  %61 = phi i32 [ %52, %54 ], [ %59, %56 ], [ %44, %41 ]
  %62 = phi i8* [ %55, %54 ], [ %58, %56 ], [ %46, %41 ]
  %63 = icmp eq i8* %62, null
  br i1 %63, label %220, label %64, !prof !5

64:                                               ; preds = %60
  %65 = lshr i32 %61, 3
  switch i32 %65, label %198 [
    i32 2, label %66
    i32 3, label %92
    i32 4, label %118
    i32 5, label %144
    i32 6, label %170
  ]

66:                                               ; preds = %64
  %67 = and i32 %61, 255
  %68 = icmp eq i32 %67, 18
  br i1 %68, label %69, label %198, !prof !3

69:                                               ; preds = %66
  %70 = load i32, i32* %10, align 4
  %71 = or i32 %70, 1
  store i32 %71, i32* %10, align 4
  %72 = load i64, i64* %13, align 8
  %73 = and i64 %72, 1
  %74 = icmp eq i64 %73, 0
  %75 = and i64 %72, -2
  br i1 %74, label %80, label %76, !prof !3

76:                                               ; preds = %69
  %77 = inttoptr i64 %75 to %"struct.google::protobuf::internal::InternalMetadata::ContainerBase"*
  %78 = getelementptr inbounds %"struct.google::protobuf::internal::InternalMetadata::ContainerBase", %"struct.google::protobuf::internal::InternalMetadata::ContainerBase"* %77, i64 0, i32 0
  %79 = load %"class.google::protobuf::Arena"*, %"class.google::protobuf::Arena"** %78, align 8
  br label %82

80:                                               ; preds = %69
  %81 = inttoptr i64 %75 to %"class.google::protobuf::Arena"*
  br label %82

82:                                               ; preds = %80, %76
  %83 = phi %"class.google::protobuf::Arena"* [ %79, %76 ], [ %81, %80 ]
  %84 = load %"class.std::__1::basic_string"*, %"class.std::__1::basic_string"** %22, align 8
  %85 = icmp eq %"class.std::__1::basic_string"* %84, bitcast (%"class.google::protobuf::internal::ExplicitlyConstructed.18"* @_ZN6google8protobuf8internal26fixed_address_empty_stringE to %"class.std::__1::basic_string"*)
  br i1 %85, label %86, label %88

86:                                               ; preds = %82
  tail call void @_ZN6google8protobuf8internal14ArenaStringPtr14CreateInstanceEPNS0_5ArenaEPKNSt3__112basic_stringIcNS5_11char_traitsIcEENS5_9allocatorIcEEEE(%"struct.google::protobuf::internal::ArenaStringPtr"* %21, %"class.google::protobuf::Arena"* %83, %"class.std::__1::basic_string"* bitcast (%"class.google::protobuf::internal::ExplicitlyConstructed.18"* @_ZN6google8protobuf8internal26fixed_address_empty_stringE to %"class.std::__1::basic_string"*)) #14
  %87 = load %"class.std::__1::basic_string"*, %"class.std::__1::basic_string"** %22, align 8
  br label %88

88:                                               ; preds = %82, %86
  %89 = phi %"class.std::__1::basic_string"* [ %87, %86 ], [ %84, %82 ]
  %90 = tail call i8* @_ZN6google8protobuf8internal24InlineGreedyStringParserEPNSt3__112basic_stringIcNS2_11char_traitsIcEENS2_9allocatorIcEEEEPKcPNS1_12ParseContextE(%"class.std::__1::basic_string"* %89, i8* nonnull %62, %"class.google::protobuf::internal::ParseContext"* %2) #14
  %91 = icmp eq i8* %90, null
  br i1 %91, label %220, label %196

92:                                               ; preds = %64
  %93 = and i32 %61, 255
  %94 = icmp eq i32 %93, 26
  br i1 %94, label %95, label %198, !prof !3

95:                                               ; preds = %92
  %96 = load i32, i32* %10, align 4
  %97 = or i32 %96, 2
  store i32 %97, i32* %10, align 4
  %98 = load i64, i64* %13, align 8
  %99 = and i64 %98, 1
  %100 = icmp eq i64 %99, 0
  %101 = and i64 %98, -2
  br i1 %100, label %106, label %102, !prof !3

102:                                              ; preds = %95
  %103 = inttoptr i64 %101 to %"struct.google::protobuf::internal::InternalMetadata::ContainerBase"*
  %104 = getelementptr inbounds %"struct.google::protobuf::internal::InternalMetadata::ContainerBase", %"struct.google::protobuf::internal::InternalMetadata::ContainerBase"* %103, i64 0, i32 0
  %105 = load %"class.google::protobuf::Arena"*, %"class.google::protobuf::Arena"** %104, align 8
  br label %108

106:                                              ; preds = %95
  %107 = inttoptr i64 %101 to %"class.google::protobuf::Arena"*
  br label %108

108:                                              ; preds = %106, %102
  %109 = phi %"class.google::protobuf::Arena"* [ %105, %102 ], [ %107, %106 ]
  %110 = load %"class.std::__1::basic_string"*, %"class.std::__1::basic_string"** %20, align 8
  %111 = icmp eq %"class.std::__1::basic_string"* %110, bitcast (%"class.google::protobuf::internal::ExplicitlyConstructed.18"* @_ZN6google8protobuf8internal26fixed_address_empty_stringE to %"class.std::__1::basic_string"*)
  br i1 %111, label %112, label %114

112:                                              ; preds = %108
  tail call void @_ZN6google8protobuf8internal14ArenaStringPtr14CreateInstanceEPNS0_5ArenaEPKNSt3__112basic_stringIcNS5_11char_traitsIcEENS5_9allocatorIcEEEE(%"struct.google::protobuf::internal::ArenaStringPtr"* %19, %"class.google::protobuf::Arena"* %109, %"class.std::__1::basic_string"* bitcast (%"class.google::protobuf::internal::ExplicitlyConstructed.18"* @_ZN6google8protobuf8internal26fixed_address_empty_stringE to %"class.std::__1::basic_string"*)) #14
  %113 = load %"class.std::__1::basic_string"*, %"class.std::__1::basic_string"** %20, align 8
  br label %114

114:                                              ; preds = %108, %112
  %115 = phi %"class.std::__1::basic_string"* [ %113, %112 ], [ %110, %108 ]
  %116 = tail call i8* @_ZN6google8protobuf8internal24InlineGreedyStringParserEPNSt3__112basic_stringIcNS2_11char_traitsIcEENS2_9allocatorIcEEEEPKcPNS1_12ParseContextE(%"class.std::__1::basic_string"* %115, i8* nonnull %62, %"class.google::protobuf::internal::ParseContext"* %2) #14
  %117 = icmp eq i8* %116, null
  br i1 %117, label %220, label %196

118:                                              ; preds = %64
  %119 = and i32 %61, 255
  %120 = icmp eq i32 %119, 34
  br i1 %120, label %121, label %198, !prof !3

121:                                              ; preds = %118
  %122 = load i32, i32* %10, align 4
  %123 = or i32 %122, 4
  store i32 %123, i32* %10, align 4
  %124 = load i64, i64* %13, align 8
  %125 = and i64 %124, 1
  %126 = icmp eq i64 %125, 0
  %127 = and i64 %124, -2
  br i1 %126, label %132, label %128, !prof !3

128:                                              ; preds = %121
  %129 = inttoptr i64 %127 to %"struct.google::protobuf::internal::InternalMetadata::ContainerBase"*
  %130 = getelementptr inbounds %"struct.google::protobuf::internal::InternalMetadata::ContainerBase", %"struct.google::protobuf::internal::InternalMetadata::ContainerBase"* %129, i64 0, i32 0
  %131 = load %"class.google::protobuf::Arena"*, %"class.google::protobuf::Arena"** %130, align 8
  br label %134

132:                                              ; preds = %121
  %133 = inttoptr i64 %127 to %"class.google::protobuf::Arena"*
  br label %134

134:                                              ; preds = %132, %128
  %135 = phi %"class.google::protobuf::Arena"* [ %131, %128 ], [ %133, %132 ]
  %136 = load %"class.std::__1::basic_string"*, %"class.std::__1::basic_string"** %18, align 8
  %137 = icmp eq %"class.std::__1::basic_string"* %136, bitcast (%"class.google::protobuf::internal::ExplicitlyConstructed.18"* @_ZN6google8protobuf8internal26fixed_address_empty_stringE to %"class.std::__1::basic_string"*)
  br i1 %137, label %138, label %140

138:                                              ; preds = %134
  tail call void @_ZN6google8protobuf8internal14ArenaStringPtr14CreateInstanceEPNS0_5ArenaEPKNSt3__112basic_stringIcNS5_11char_traitsIcEENS5_9allocatorIcEEEE(%"struct.google::protobuf::internal::ArenaStringPtr"* %17, %"class.google::protobuf::Arena"* %135, %"class.std::__1::basic_string"* bitcast (%"class.google::protobuf::internal::ExplicitlyConstructed.18"* @_ZN6google8protobuf8internal26fixed_address_empty_stringE to %"class.std::__1::basic_string"*)) #14
  %139 = load %"class.std::__1::basic_string"*, %"class.std::__1::basic_string"** %18, align 8
  br label %140

140:                                              ; preds = %134, %138
  %141 = phi %"class.std::__1::basic_string"* [ %139, %138 ], [ %136, %134 ]
  %142 = tail call i8* @_ZN6google8protobuf8internal24InlineGreedyStringParserEPNSt3__112basic_stringIcNS2_11char_traitsIcEENS2_9allocatorIcEEEEPKcPNS1_12ParseContextE(%"class.std::__1::basic_string"* %141, i8* nonnull %62, %"class.google::protobuf::internal::ParseContext"* %2) #14
  %143 = icmp eq i8* %142, null
  br i1 %143, label %220, label %196

144:                                              ; preds = %64
  %145 = and i32 %61, 255
  %146 = icmp eq i32 %145, 42
  br i1 %146, label %147, label %198, !prof !3

147:                                              ; preds = %144
  %148 = load i32, i32* %10, align 4
  %149 = or i32 %148, 8
  store i32 %149, i32* %10, align 4
  %150 = load i64, i64* %13, align 8
  %151 = and i64 %150, 1
  %152 = icmp eq i64 %151, 0
  %153 = and i64 %150, -2
  br i1 %152, label %158, label %154, !prof !3

154:                                              ; preds = %147
  %155 = inttoptr i64 %153 to %"struct.google::protobuf::internal::InternalMetadata::ContainerBase"*
  %156 = getelementptr inbounds %"struct.google::protobuf::internal::InternalMetadata::ContainerBase", %"struct.google::protobuf::internal::InternalMetadata::ContainerBase"* %155, i64 0, i32 0
  %157 = load %"class.google::protobuf::Arena"*, %"class.google::protobuf::Arena"** %156, align 8
  br label %160

158:                                              ; preds = %147
  %159 = inttoptr i64 %153 to %"class.google::protobuf::Arena"*
  br label %160

160:                                              ; preds = %158, %154
  %161 = phi %"class.google::protobuf::Arena"* [ %157, %154 ], [ %159, %158 ]
  %162 = load %"class.std::__1::basic_string"*, %"class.std::__1::basic_string"** %16, align 8
  %163 = icmp eq %"class.std::__1::basic_string"* %162, bitcast (%"class.google::protobuf::internal::ExplicitlyConstructed.18"* @_ZN6google8protobuf8internal26fixed_address_empty_stringE to %"class.std::__1::basic_string"*)
  br i1 %163, label %164, label %166

164:                                              ; preds = %160
  tail call void @_ZN6google8protobuf8internal14ArenaStringPtr14CreateInstanceEPNS0_5ArenaEPKNSt3__112basic_stringIcNS5_11char_traitsIcEENS5_9allocatorIcEEEE(%"struct.google::protobuf::internal::ArenaStringPtr"* %15, %"class.google::protobuf::Arena"* %161, %"class.std::__1::basic_string"* bitcast (%"class.google::protobuf::internal::ExplicitlyConstructed.18"* @_ZN6google8protobuf8internal26fixed_address_empty_stringE to %"class.std::__1::basic_string"*)) #14
  %165 = load %"class.std::__1::basic_string"*, %"class.std::__1::basic_string"** %16, align 8
  br label %166

166:                                              ; preds = %160, %164
  %167 = phi %"class.std::__1::basic_string"* [ %165, %164 ], [ %162, %160 ]
  %168 = tail call i8* @_ZN6google8protobuf8internal24InlineGreedyStringParserEPNSt3__112basic_stringIcNS2_11char_traitsIcEENS2_9allocatorIcEEEEPKcPNS1_12ParseContextE(%"class.std::__1::basic_string"* %167, i8* nonnull %62, %"class.google::protobuf::internal::ParseContext"* %2) #14
  %169 = icmp eq i8* %168, null
  br i1 %169, label %220, label %196

170:                                              ; preds = %64
  %171 = and i32 %61, 255
  %172 = icmp eq i32 %171, 50
  br i1 %172, label %173, label %198, !prof !3

173:                                              ; preds = %170
  %174 = load i32, i32* %10, align 4
  %175 = or i32 %174, 16
  store i32 %175, i32* %10, align 4
  %176 = load i64, i64* %13, align 8
  %177 = and i64 %176, 1
  %178 = icmp eq i64 %177, 0
  %179 = and i64 %176, -2
  br i1 %178, label %184, label %180, !prof !3

180:                                              ; preds = %173
  %181 = inttoptr i64 %179 to %"struct.google::protobuf::internal::InternalMetadata::ContainerBase"*
  %182 = getelementptr inbounds %"struct.google::protobuf::internal::InternalMetadata::ContainerBase", %"struct.google::protobuf::internal::InternalMetadata::ContainerBase"* %181, i64 0, i32 0
  %183 = load %"class.google::protobuf::Arena"*, %"class.google::protobuf::Arena"** %182, align 8
  br label %186

184:                                              ; preds = %173
  %185 = inttoptr i64 %179 to %"class.google::protobuf::Arena"*
  br label %186

186:                                              ; preds = %184, %180
  %187 = phi %"class.google::protobuf::Arena"* [ %183, %180 ], [ %185, %184 ]
  %188 = load %"class.std::__1::basic_string"*, %"class.std::__1::basic_string"** %14, align 8
  %189 = icmp eq %"class.std::__1::basic_string"* %188, bitcast (%"class.google::protobuf::internal::ExplicitlyConstructed.18"* @_ZN6google8protobuf8internal26fixed_address_empty_stringE to %"class.std::__1::basic_string"*)
  br i1 %189, label %190, label %192

190:                                              ; preds = %186
  tail call void @_ZN6google8protobuf8internal14ArenaStringPtr14CreateInstanceEPNS0_5ArenaEPKNSt3__112basic_stringIcNS5_11char_traitsIcEENS5_9allocatorIcEEEE(%"struct.google::protobuf::internal::ArenaStringPtr"* %11, %"class.google::protobuf::Arena"* %187, %"class.std::__1::basic_string"* bitcast (%"class.google::protobuf::internal::ExplicitlyConstructed.18"* @_ZN6google8protobuf8internal26fixed_address_empty_stringE to %"class.std::__1::basic_string"*)) #14
  %191 = load %"class.std::__1::basic_string"*, %"class.std::__1::basic_string"** %14, align 8
  br label %192

192:                                              ; preds = %186, %190
  %193 = phi %"class.std::__1::basic_string"* [ %191, %190 ], [ %188, %186 ]
  %194 = tail call i8* @_ZN6google8protobuf8internal24InlineGreedyStringParserEPNSt3__112basic_stringIcNS2_11char_traitsIcEENS2_9allocatorIcEEEEPKcPNS1_12ParseContextE(%"class.std::__1::basic_string"* %193, i8* nonnull %62, %"class.google::protobuf::internal::ParseContext"* %2) #14
  %195 = icmp eq i8* %194, null
  br i1 %195, label %220, label %196

196:                                              ; preds = %192, %166, %140, %114, %88, %216
  %197 = phi i8* [ %218, %216 ], [ %90, %88 ], [ %116, %114 ], [ %142, %140 ], [ %168, %166 ], [ %194, %192 ]
  br label %23

198:                                              ; preds = %64, %170, %144, %118, %92, %66
  %199 = and i32 %61, 7
  %200 = icmp eq i32 %199, 4
  %201 = icmp eq i32 %61, 0
  %202 = or i1 %201, %200
  br i1 %202, label %203, label %206

203:                                              ; preds = %198
  %204 = add i32 %61, -1
  %205 = getelementptr inbounds %"class.google::protobuf::internal::ParseContext", %"class.google::protobuf::internal::ParseContext"* %2, i64 0, i32 0, i32 8
  store i32 %204, i32* %205, align 8
  br label %220

206:                                              ; preds = %198
  %207 = load i64, i64* %13, align 8
  %208 = and i64 %207, 1
  %209 = icmp eq i64 %208, 0
  br i1 %209, label %214, label %210, !prof !5

210:                                              ; preds = %206
  %211 = and i64 %207, -2
  %212 = inttoptr i64 %211 to %"struct.google::protobuf::internal::InternalMetadata::Container"*
  %213 = getelementptr inbounds %"struct.google::protobuf::internal::InternalMetadata::Container", %"struct.google::protobuf::internal::InternalMetadata::Container"* %212, i64 0, i32 1
  br label %216

214:                                              ; preds = %206
  %215 = tail call %"class.std::__1::basic_string"* @_ZN6google8protobuf8internal16InternalMetadata27mutable_unknown_fields_slowINSt3__112basic_stringIcNS4_11char_traitsIcEENS4_9allocatorIcEEEEEEPT_v(%"class.google::protobuf::internal::InternalMetadata"* %12) #14
  br label %216

216:                                              ; preds = %210, %214
  %217 = phi %"class.std::__1::basic_string"* [ %213, %210 ], [ %215, %214 ]
  %218 = tail call i8* @_ZN6google8protobuf8internal17UnknownFieldParseEjPNSt3__112basic_stringIcNS2_11char_traitsIcEENS2_9allocatorIcEEEEPKcPNS1_12ParseContextE(i32 %61, %"class.std::__1::basic_string"* %217, i8* nonnull %62, %"class.google::protobuf::internal::ParseContext"* %2) #14
  %219 = icmp eq i8* %218, null
  br i1 %219, label %220, label %196

220:                                              ; preds = %192, %166, %140, %114, %88, %28, %216, %60, %35, %203
  %221 = phi i8* [ %62, %203 ], [ null, %192 ], [ null, %166 ], [ null, %140 ], [ null, %114 ], [ null, %88 ], [ null, %60 ], [ null, %216 ], [ %24, %28 ], [ %37, %35 ]
  ret i8* %221
}

; Function Attrs: nounwind ssp uwtable
define hidden i8* @_ZNK21enterprise_connectors13EncryptedData18_InternalSerializeEPhPN6google8protobuf2io19EpsCopyOutputStreamE(%"class.enterprise_connectors::EncryptedData"* nocapture readonly, i8*, %"class.google::protobuf::io::EpsCopyOutputStream"*) unnamed_addr #0 align 2 {
  %4 = getelementptr inbounds %"class.enterprise_connectors::EncryptedData", %"class.enterprise_connectors::EncryptedData"* %0, i64 0, i32 1, i32 0, i64 0
  %5 = load i32, i32* %4, align 4
  %6 = and i32 %5, 1
  %7 = icmp eq i32 %6, 0
  br i1 %7, label %42, label %8

8:                                                ; preds = %3
  %9 = getelementptr inbounds %"class.enterprise_connectors::EncryptedData", %"class.enterprise_connectors::EncryptedData"* %0, i64 0, i32 3, i32 0
  %10 = load %"class.std::__1::basic_string"*, %"class.std::__1::basic_string"** %9, align 8
  %11 = bitcast %"class.std::__1::basic_string"* %10 to %"struct.std::__1::basic_string<char, std::__1::char_traits<char>, std::__1::allocator<char> >::__short"*
  %12 = getelementptr inbounds %"struct.std::__1::basic_string<char, std::__1::char_traits<char>, std::__1::allocator<char> >::__short", %"struct.std::__1::basic_string<char, std::__1::char_traits<char>, std::__1::allocator<char> >::__short"* %11, i64 0, i32 1, i32 0
  %13 = load i8, i8* %12, align 1
  %14 = icmp slt i8 %13, 0
  br i1 %14, label %17, label %15

15:                                               ; preds = %8
  %16 = zext i8 %13 to i64
  br label %21

17:                                               ; preds = %8
  %18 = getelementptr inbounds %"class.std::__1::basic_string", %"class.std::__1::basic_string"* %10, i64 0, i32 0, i32 0, i32 0, i32 0, i32 0, i32 1
  %19 = load i64, i64* %18, align 8
  %20 = icmp sgt i64 %19, 127
  br i1 %20, label %29, label %21, !prof !5

21:                                               ; preds = %17, %15
  %22 = phi i64 [ %16, %15 ], [ %19, %17 ]
  %23 = bitcast %"class.google::protobuf::io::EpsCopyOutputStream"* %2 to i64*
  %24 = load i64, i64* %23, align 8
  %25 = ptrtoint i8* %1 to i64
  %26 = sub i64 14, %25
  %27 = add i64 %26, %24
  %28 = icmp slt i64 %27, %22
  br i1 %28, label %29, label %31, !prof !5

29:                                               ; preds = %21, %17
  %30 = tail call i8* @_ZN6google8protobuf2io19EpsCopyOutputStream30WriteStringMaybeAliasedOutlineEjRKNSt3__112basic_stringIcNS3_11char_traitsIcEENS3_9allocatorIcEEEEPh(%"class.google::protobuf::io::EpsCopyOutputStream"* %2, i32 2, %"class.std::__1::basic_string"* dereferenceable(24) %10, i8* %1) #14
  br label %42

31:                                               ; preds = %21
  store i8 18, i8* %1, align 1
  %32 = getelementptr inbounds i8, i8* %1, i64 1
  %33 = trunc i64 %22 to i8
  %34 = getelementptr inbounds i8, i8* %1, i64 2
  store i8 %33, i8* %32, align 1
  %35 = load i8, i8* %12, align 1
  %36 = icmp slt i8 %35, 0
  %37 = getelementptr inbounds %"class.std::__1::basic_string", %"class.std::__1::basic_string"* %10, i64 0, i32 0, i32 0, i32 0, i32 0, i32 0, i32 0
  %38 = load i8*, i8** %37, align 8
  %39 = bitcast %"class.std::__1::basic_string"* %10 to i8*
  %40 = select i1 %36, i8* %38, i8* %39
  tail call void @llvm.memcpy.p0i8.p0i8.i64(i8* align 1 %34, i8* align 1 %40, i64 %22, i1 false) #14
  %41 = getelementptr inbounds i8, i8* %34, i64 %22
  br label %42

42:                                               ; preds = %31, %29, %3
  %43 = phi i8* [ %1, %3 ], [ %30, %29 ], [ %41, %31 ]
  %44 = and i32 %5, 2
  %45 = icmp eq i32 %44, 0
  br i1 %45, label %80, label %46

46:                                               ; preds = %42
  %47 = getelementptr inbounds %"class.enterprise_connectors::EncryptedData", %"class.enterprise_connectors::EncryptedData"* %0, i64 0, i32 4, i32 0
  %48 = load %"class.std::__1::basic_string"*, %"class.std::__1::basic_string"** %47, align 8
  %49 = bitcast %"class.std::__1::basic_string"* %48 to %"struct.std::__1::basic_string<char, std::__1::char_traits<char>, std::__1::allocator<char> >::__short"*
  %50 = getelementptr inbounds %"struct.std::__1::basic_string<char, std::__1::char_traits<char>, std::__1::allocator<char> >::__short", %"struct.std::__1::basic_string<char, std::__1::char_traits<char>, std::__1::allocator<char> >::__short"* %49, i64 0, i32 1, i32 0
  %51 = load i8, i8* %50, align 1
  %52 = icmp slt i8 %51, 0
  br i1 %52, label %55, label %53

53:                                               ; preds = %46
  %54 = zext i8 %51 to i64
  br label %59

55:                                               ; preds = %46
  %56 = getelementptr inbounds %"class.std::__1::basic_string", %"class.std::__1::basic_string"* %48, i64 0, i32 0, i32 0, i32 0, i32 0, i32 0, i32 1
  %57 = load i64, i64* %56, align 8
  %58 = icmp sgt i64 %57, 127
  br i1 %58, label %67, label %59, !prof !5

59:                                               ; preds = %55, %53
  %60 = phi i64 [ %54, %53 ], [ %57, %55 ]
  %61 = bitcast %"class.google::protobuf::io::EpsCopyOutputStream"* %2 to i64*
  %62 = load i64, i64* %61, align 8
  %63 = ptrtoint i8* %43 to i64
  %64 = sub i64 14, %63
  %65 = add i64 %64, %62
  %66 = icmp slt i64 %65, %60
  br i1 %66, label %67, label %69, !prof !5

67:                                               ; preds = %59, %55
  %68 = tail call i8* @_ZN6google8protobuf2io19EpsCopyOutputStream30WriteStringMaybeAliasedOutlineEjRKNSt3__112basic_stringIcNS3_11char_traitsIcEENS3_9allocatorIcEEEEPh(%"class.google::protobuf::io::EpsCopyOutputStream"* %2, i32 3, %"class.std::__1::basic_string"* dereferenceable(24) %48, i8* %43) #14
  br label %80

69:                                               ; preds = %59
  store i8 26, i8* %43, align 1
  %70 = getelementptr inbounds i8, i8* %43, i64 1
  %71 = trunc i64 %60 to i8
  %72 = getelementptr inbounds i8, i8* %43, i64 2
  store i8 %71, i8* %70, align 1
  %73 = load i8, i8* %50, align 1
  %74 = icmp slt i8 %73, 0
  %75 = getelementptr inbounds %"class.std::__1::basic_string", %"class.std::__1::basic_string"* %48, i64 0, i32 0, i32 0, i32 0, i32 0, i32 0, i32 0
  %76 = load i8*, i8** %75, align 8
  %77 = bitcast %"class.std::__1::basic_string"* %48 to i8*
  %78 = select i1 %74, i8* %76, i8* %77
  tail call void @llvm.memcpy.p0i8.p0i8.i64(i8* align 1 %72, i8* align 1 %78, i64 %60, i1 false) #14
  %79 = getelementptr inbounds i8, i8* %72, i64 %60
  br label %80

80:                                               ; preds = %69, %67, %42
  %81 = phi i8* [ %43, %42 ], [ %68, %67 ], [ %79, %69 ]
  %82 = and i32 %5, 4
  %83 = icmp eq i32 %82, 0
  br i1 %83, label %118, label %84

84:                                               ; preds = %80
  %85 = getelementptr inbounds %"class.enterprise_connectors::EncryptedData", %"class.enterprise_connectors::EncryptedData"* %0, i64 0, i32 5, i32 0
  %86 = load %"class.std::__1::basic_string"*, %"class.std::__1::basic_string"** %85, align 8
  %87 = bitcast %"class.std::__1::basic_string"* %86 to %"struct.std::__1::basic_string<char, std::__1::char_traits<char>, std::__1::allocator<char> >::__short"*
  %88 = getelementptr inbounds %"struct.std::__1::basic_string<char, std::__1::char_traits<char>, std::__1::allocator<char> >::__short", %"struct.std::__1::basic_string<char, std::__1::char_traits<char>, std::__1::allocator<char> >::__short"* %87, i64 0, i32 1, i32 0
  %89 = load i8, i8* %88, align 1
  %90 = icmp slt i8 %89, 0
  br i1 %90, label %93, label %91

91:                                               ; preds = %84
  %92 = zext i8 %89 to i64
  br label %97

93:                                               ; preds = %84
  %94 = getelementptr inbounds %"class.std::__1::basic_string", %"class.std::__1::basic_string"* %86, i64 0, i32 0, i32 0, i32 0, i32 0, i32 0, i32 1
  %95 = load i64, i64* %94, align 8
  %96 = icmp sgt i64 %95, 127
  br i1 %96, label %105, label %97, !prof !5

97:                                               ; preds = %93, %91
  %98 = phi i64 [ %92, %91 ], [ %95, %93 ]
  %99 = bitcast %"class.google::protobuf::io::EpsCopyOutputStream"* %2 to i64*
  %100 = load i64, i64* %99, align 8
  %101 = ptrtoint i8* %81 to i64
  %102 = sub i64 14, %101
  %103 = add i64 %102, %100
  %104 = icmp slt i64 %103, %98
  br i1 %104, label %105, label %107, !prof !5

105:                                              ; preds = %97, %93
  %106 = tail call i8* @_ZN6google8protobuf2io19EpsCopyOutputStream30WriteStringMaybeAliasedOutlineEjRKNSt3__112basic_stringIcNS3_11char_traitsIcEENS3_9allocatorIcEEEEPh(%"class.google::protobuf::io::EpsCopyOutputStream"* %2, i32 4, %"class.std::__1::basic_string"* dereferenceable(24) %86, i8* %81) #14
  br label %118

107:                                              ; preds = %97
  store i8 34, i8* %81, align 1
  %108 = getelementptr inbounds i8, i8* %81, i64 1
  %109 = trunc i64 %98 to i8
  %110 = getelementptr inbounds i8, i8* %81, i64 2
  store i8 %109, i8* %108, align 1
  %111 = load i8, i8* %88, align 1
  %112 = icmp slt i8 %111, 0
  %113 = getelementptr inbounds %"class.std::__1::basic_string", %"class.std::__1::basic_string"* %86, i64 0, i32 0, i32 0, i32 0, i32 0, i32 0, i32 0
  %114 = load i8*, i8** %113, align 8
  %115 = bitcast %"class.std::__1::basic_string"* %86 to i8*
  %116 = select i1 %112, i8* %114, i8* %115
  tail call void @llvm.memcpy.p0i8.p0i8.i64(i8* align 1 %110, i8* align 1 %116, i64 %98, i1 false) #14
  %117 = getelementptr inbounds i8, i8* %110, i64 %98
  br label %118

118:                                              ; preds = %107, %105, %80
  %119 = phi i8* [ %81, %80 ], [ %106, %105 ], [ %117, %107 ]
  %120 = and i32 %5, 8
  %121 = icmp eq i32 %120, 0
  br i1 %121, label %156, label %122

122:                                              ; preds = %118
  %123 = getelementptr inbounds %"class.enterprise_connectors::EncryptedData", %"class.enterprise_connectors::EncryptedData"* %0, i64 0, i32 6, i32 0
  %124 = load %"class.std::__1::basic_string"*, %"class.std::__1::basic_string"** %123, align 8
  %125 = bitcast %"class.std::__1::basic_string"* %124 to %"struct.std::__1::basic_string<char, std::__1::char_traits<char>, std::__1::allocator<char> >::__short"*
  %126 = getelementptr inbounds %"struct.std::__1::basic_string<char, std::__1::char_traits<char>, std::__1::allocator<char> >::__short", %"struct.std::__1::basic_string<char, std::__1::char_traits<char>, std::__1::allocator<char> >::__short"* %125, i64 0, i32 1, i32 0
  %127 = load i8, i8* %126, align 1
  %128 = icmp slt i8 %127, 0
  br i1 %128, label %131, label %129

129:                                              ; preds = %122
  %130 = zext i8 %127 to i64
  br label %135

131:                                              ; preds = %122
  %132 = getelementptr inbounds %"class.std::__1::basic_string", %"class.std::__1::basic_string"* %124, i64 0, i32 0, i32 0, i32 0, i32 0, i32 0, i32 1
  %133 = load i64, i64* %132, align 8
  %134 = icmp sgt i64 %133, 127
  br i1 %134, label %143, label %135, !prof !5

135:                                              ; preds = %131, %129
  %136 = phi i64 [ %130, %129 ], [ %133, %131 ]
  %137 = bitcast %"class.google::protobuf::io::EpsCopyOutputStream"* %2 to i64*
  %138 = load i64, i64* %137, align 8
  %139 = ptrtoint i8* %119 to i64
  %140 = sub i64 14, %139
  %141 = add i64 %140, %138
  %142 = icmp slt i64 %141, %136
  br i1 %142, label %143, label %145, !prof !5

143:                                              ; preds = %135, %131
  %144 = tail call i8* @_ZN6google8protobuf2io19EpsCopyOutputStream30WriteStringMaybeAliasedOutlineEjRKNSt3__112basic_stringIcNS3_11char_traitsIcEENS3_9allocatorIcEEEEPh(%"class.google::protobuf::io::EpsCopyOutputStream"* %2, i32 5, %"class.std::__1::basic_string"* dereferenceable(24) %124, i8* %119) #14
  br label %156

145:                                              ; preds = %135
  store i8 42, i8* %119, align 1
  %146 = getelementptr inbounds i8, i8* %119, i64 1
  %147 = trunc i64 %136 to i8
  %148 = getelementptr inbounds i8, i8* %119, i64 2
  store i8 %147, i8* %146, align 1
  %149 = load i8, i8* %126, align 1
  %150 = icmp slt i8 %149, 0
  %151 = getelementptr inbounds %"class.std::__1::basic_string", %"class.std::__1::basic_string"* %124, i64 0, i32 0, i32 0, i32 0, i32 0, i32 0, i32 0
  %152 = load i8*, i8** %151, align 8
  %153 = bitcast %"class.std::__1::basic_string"* %124 to i8*
  %154 = select i1 %150, i8* %152, i8* %153
  tail call void @llvm.memcpy.p0i8.p0i8.i64(i8* align 1 %148, i8* align 1 %154, i64 %136, i1 false) #14
  %155 = getelementptr inbounds i8, i8* %148, i64 %136
  br label %156

156:                                              ; preds = %145, %143, %118
  %157 = phi i8* [ %119, %118 ], [ %144, %143 ], [ %155, %145 ]
  %158 = and i32 %5, 16
  %159 = icmp eq i32 %158, 0
  br i1 %159, label %194, label %160

160:                                              ; preds = %156
  %161 = getelementptr inbounds %"class.enterprise_connectors::EncryptedData", %"class.enterprise_connectors::EncryptedData"* %0, i64 0, i32 7, i32 0
  %162 = load %"class.std::__1::basic_string"*, %"class.std::__1::basic_string"** %161, align 8
  %163 = bitcast %"class.std::__1::basic_string"* %162 to %"struct.std::__1::basic_string<char, std::__1::char_traits<char>, std::__1::allocator<char> >::__short"*
  %164 = getelementptr inbounds %"struct.std::__1::basic_string<char, std::__1::char_traits<char>, std::__1::allocator<char> >::__short", %"struct.std::__1::basic_string<char, std::__1::char_traits<char>, std::__1::allocator<char> >::__short"* %163, i64 0, i32 1, i32 0
  %165 = load i8, i8* %164, align 1
  %166 = icmp slt i8 %165, 0
  br i1 %166, label %169, label %167

167:                                              ; preds = %160
  %168 = zext i8 %165 to i64
  br label %173

169:                                              ; preds = %160
  %170 = getelementptr inbounds %"class.std::__1::basic_string", %"class.std::__1::basic_string"* %162, i64 0, i32 0, i32 0, i32 0, i32 0, i32 0, i32 1
  %171 = load i64, i64* %170, align 8
  %172 = icmp sgt i64 %171, 127
  br i1 %172, label %181, label %173, !prof !5

173:                                              ; preds = %169, %167
  %174 = phi i64 [ %168, %167 ], [ %171, %169 ]
  %175 = bitcast %"class.google::protobuf::io::EpsCopyOutputStream"* %2 to i64*
  %176 = load i64, i64* %175, align 8
  %177 = ptrtoint i8* %157 to i64
  %178 = sub i64 14, %177
  %179 = add i64 %178, %176
  %180 = icmp slt i64 %179, %174
  br i1 %180, label %181, label %183, !prof !5

181:                                              ; preds = %173, %169
  %182 = tail call i8* @_ZN6google8protobuf2io19EpsCopyOutputStream30WriteStringMaybeAliasedOutlineEjRKNSt3__112basic_stringIcNS3_11char_traitsIcEENS3_9allocatorIcEEEEPh(%"class.google::protobuf::io::EpsCopyOutputStream"* %2, i32 6, %"class.std::__1::basic_string"* dereferenceable(24) %162, i8* %157) #14
  br label %194

183:                                              ; preds = %173
  store i8 50, i8* %157, align 1
  %184 = getelementptr inbounds i8, i8* %157, i64 1
  %185 = trunc i64 %174 to i8
  %186 = getelementptr inbounds i8, i8* %157, i64 2
  store i8 %185, i8* %184, align 1
  %187 = load i8, i8* %164, align 1
  %188 = icmp slt i8 %187, 0
  %189 = getelementptr inbounds %"class.std::__1::basic_string", %"class.std::__1::basic_string"* %162, i64 0, i32 0, i32 0, i32 0, i32 0, i32 0, i32 0
  %190 = load i8*, i8** %189, align 8
  %191 = bitcast %"class.std::__1::basic_string"* %162 to i8*
  %192 = select i1 %188, i8* %190, i8* %191
  tail call void @llvm.memcpy.p0i8.p0i8.i64(i8* align 1 %186, i8* align 1 %192, i64 %174, i1 false) #14
  %193 = getelementptr inbounds i8, i8* %186, i64 %174
  br label %194

194:                                              ; preds = %183, %181, %156
  %195 = phi i8* [ %157, %156 ], [ %182, %181 ], [ %193, %183 ]
  %196 = getelementptr inbounds %"class.enterprise_connectors::EncryptedData", %"class.enterprise_connectors::EncryptedData"* %0, i64 0, i32 0, i32 1
  %197 = bitcast %"class.google::protobuf::internal::InternalMetadata"* %196 to i64*
  %198 = load i64, i64* %197, align 8
  %199 = and i64 %198, 1
  %200 = icmp eq i64 %199, 0
  br i1 %200, label %232, label %201, !prof !3

201:                                              ; preds = %194
  %202 = and i64 %198, -2
  %203 = inttoptr i64 %202 to %"struct.google::protobuf::internal::InternalMetadata::Container"*
  %204 = getelementptr inbounds %"struct.google::protobuf::internal::InternalMetadata::Container", %"struct.google::protobuf::internal::InternalMetadata::Container"* %203, i64 0, i32 1
  %205 = bitcast %"class.std::__1::basic_string"* %204 to %"struct.std::__1::basic_string<char, std::__1::char_traits<char>, std::__1::allocator<char> >::__short"*
  %206 = getelementptr inbounds %"struct.std::__1::basic_string<char, std::__1::char_traits<char>, std::__1::allocator<char> >::__short", %"struct.std::__1::basic_string<char, std::__1::char_traits<char>, std::__1::allocator<char> >::__short"* %205, i64 0, i32 1, i32 0
  %207 = load i8, i8* %206, align 1
  %208 = icmp slt i8 %207, 0
  br i1 %208, label %209, label %214

209:                                              ; preds = %201
  %210 = getelementptr inbounds %"class.std::__1::basic_string", %"class.std::__1::basic_string"* %204, i64 0, i32 0, i32 0, i32 0, i32 0, i32 0, i32 0
  %211 = load i8*, i8** %210, align 8
  %212 = getelementptr inbounds %"struct.google::protobuf::internal::InternalMetadata::Container", %"struct.google::protobuf::internal::InternalMetadata::Container"* %203, i64 0, i32 1, i32 0, i32 0, i32 0, i32 0, i32 0, i32 1
  %213 = load i64, i64* %212, align 8
  br label %217

214:                                              ; preds = %201
  %215 = bitcast %"class.std::__1::basic_string"* %204 to i8*
  %216 = zext i8 %207 to i64
  br label %217

217:                                              ; preds = %209, %214
  %218 = phi i8* [ %211, %209 ], [ %215, %214 ]
  %219 = phi i64 [ %213, %209 ], [ %216, %214 ]
  %220 = bitcast %"class.google::protobuf::io::EpsCopyOutputStream"* %2 to i64*
  %221 = load i64, i64* %220, align 8
  %222 = ptrtoint i8* %195 to i64
  %223 = sub i64 %221, %222
  %224 = shl i64 %219, 32
  %225 = ashr exact i64 %224, 32
  %226 = icmp slt i64 %223, %225
  br i1 %226, label %227, label %230, !prof !5

227:                                              ; preds = %217
  %228 = trunc i64 %219 to i32
  %229 = tail call i8* @_ZN6google8protobuf2io19EpsCopyOutputStream16WriteRawFallbackEPKviPh(%"class.google::protobuf::io::EpsCopyOutputStream"* %2, i8* %218, i32 %228, i8* %195) #14
  br label %232

230:                                              ; preds = %217
  tail call void @llvm.memcpy.p0i8.p0i8.i64(i8* align 1 %195, i8* align 1 %218, i64 %225, i1 false) #14
  %231 = getelementptr inbounds i8, i8* %195, i64 %225
  br label %232

232:                                              ; preds = %194, %230, %227
  %233 = phi i8* [ %195, %194 ], [ %229, %227 ], [ %231, %230 ]
  ret i8* %233
}

; Function Attrs: nounwind ssp uwtable
define hidden i64 @_ZNK21enterprise_connectors13EncryptedData12ByteSizeLongEv(%"class.enterprise_connectors::EncryptedData"* nocapture) unnamed_addr #0 align 2 {
  %2 = getelementptr inbounds %"class.enterprise_connectors::EncryptedData", %"class.enterprise_connectors::EncryptedData"* %0, i64 0, i32 1, i32 0, i64 0
  %3 = load i32, i32* %2, align 4
  %4 = and i32 %3, 31
  %5 = icmp eq i32 %4, 0
  br i1 %5, label %134, label %6

6:                                                ; preds = %1
  %7 = and i32 %3, 1
  %8 = icmp eq i32 %7, 0
  br i1 %8, label %30, label %9

9:                                                ; preds = %6
  %10 = getelementptr inbounds %"class.enterprise_connectors::EncryptedData", %"class.enterprise_connectors::EncryptedData"* %0, i64 0, i32 3, i32 0
  %11 = load %"class.std::__1::basic_string"*, %"class.std::__1::basic_string"** %10, align 8
  %12 = bitcast %"class.std::__1::basic_string"* %11 to %"struct.std::__1::basic_string<char, std::__1::char_traits<char>, std::__1::allocator<char> >::__short"*
  %13 = getelementptr inbounds %"struct.std::__1::basic_string<char, std::__1::char_traits<char>, std::__1::allocator<char> >::__short", %"struct.std::__1::basic_string<char, std::__1::char_traits<char>, std::__1::allocator<char> >::__short"* %12, i64 0, i32 1, i32 0
  %14 = load i8, i8* %13, align 1
  %15 = icmp slt i8 %14, 0
  %16 = getelementptr inbounds %"class.std::__1::basic_string", %"class.std::__1::basic_string"* %11, i64 0, i32 0, i32 0, i32 0, i32 0, i32 0, i32 1
  %17 = load i64, i64* %16, align 8
  %18 = zext i8 %14 to i64
  %19 = select i1 %15, i64 %17, i64 %18
  %20 = trunc i64 %19 to i32
  %21 = or i32 %20, 1
  %22 = tail call i32 @llvm.ctlz.i32(i32 %21, i1 true) #14, !range !6
  %23 = xor i32 %22, 31
  %24 = mul nuw nsw i32 %23, 9
  %25 = add nuw nsw i32 %24, 73
  %26 = lshr i32 %25, 6
  %27 = zext i32 %26 to i64
  %28 = add i64 %19, 1
  %29 = add i64 %28, %27
  br label %30

30:                                               ; preds = %6, %9
  %31 = phi i64 [ %29, %9 ], [ 0, %6 ]
  %32 = and i32 %3, 2
  %33 = icmp eq i32 %32, 0
  br i1 %33, label %56, label %34

34:                                               ; preds = %30
  %35 = getelementptr inbounds %"class.enterprise_connectors::EncryptedData", %"class.enterprise_connectors::EncryptedData"* %0, i64 0, i32 4, i32 0
  %36 = load %"class.std::__1::basic_string"*, %"class.std::__1::basic_string"** %35, align 8
  %37 = bitcast %"class.std::__1::basic_string"* %36 to %"struct.std::__1::basic_string<char, std::__1::char_traits<char>, std::__1::allocator<char> >::__short"*
  %38 = getelementptr inbounds %"struct.std::__1::basic_string<char, std::__1::char_traits<char>, std::__1::allocator<char> >::__short", %"struct.std::__1::basic_string<char, std::__1::char_traits<char>, std::__1::allocator<char> >::__short"* %37, i64 0, i32 1, i32 0
  %39 = load i8, i8* %38, align 1
  %40 = icmp slt i8 %39, 0
  %41 = getelementptr inbounds %"class.std::__1::basic_string", %"class.std::__1::basic_string"* %36, i64 0, i32 0, i32 0, i32 0, i32 0, i32 0, i32 1
  %42 = load i64, i64* %41, align 8
  %43 = zext i8 %39 to i64
  %44 = select i1 %40, i64 %42, i64 %43
  %45 = trunc i64 %44 to i32
  %46 = or i32 %45, 1
  %47 = tail call i32 @llvm.ctlz.i32(i32 %46, i1 true) #14, !range !6
  %48 = xor i32 %47, 31
  %49 = mul nuw nsw i32 %48, 9
  %50 = add nuw nsw i32 %49, 73
  %51 = lshr i32 %50, 6
  %52 = zext i32 %51 to i64
  %53 = add i64 %31, 1
  %54 = add i64 %53, %44
  %55 = add i64 %54, %52
  br label %56

56:                                               ; preds = %30, %34
  %57 = phi i64 [ %55, %34 ], [ %31, %30 ]
  %58 = and i32 %3, 4
  %59 = icmp eq i32 %58, 0
  br i1 %59, label %82, label %60

60:                                               ; preds = %56
  %61 = getelementptr inbounds %"class.enterprise_connectors::EncryptedData", %"class.enterprise_connectors::EncryptedData"* %0, i64 0, i32 5, i32 0
  %62 = load %"class.std::__1::basic_string"*, %"class.std::__1::basic_string"** %61, align 8
  %63 = bitcast %"class.std::__1::basic_string"* %62 to %"struct.std::__1::basic_string<char, std::__1::char_traits<char>, std::__1::allocator<char> >::__short"*
  %64 = getelementptr inbounds %"struct.std::__1::basic_string<char, std::__1::char_traits<char>, std::__1::allocator<char> >::__short", %"struct.std::__1::basic_string<char, std::__1::char_traits<char>, std::__1::allocator<char> >::__short"* %63, i64 0, i32 1, i32 0
  %65 = load i8, i8* %64, align 1
  %66 = icmp slt i8 %65, 0
  %67 = getelementptr inbounds %"class.std::__1::basic_string", %"class.std::__1::basic_string"* %62, i64 0, i32 0, i32 0, i32 0, i32 0, i32 0, i32 1
  %68 = load i64, i64* %67, align 8
  %69 = zext i8 %65 to i64
  %70 = select i1 %66, i64 %68, i64 %69
  %71 = trunc i64 %70 to i32
  %72 = or i32 %71, 1
  %73 = tail call i32 @llvm.ctlz.i32(i32 %72, i1 true) #14, !range !6
  %74 = xor i32 %73, 31
  %75 = mul nuw nsw i32 %74, 9
  %76 = add nuw nsw i32 %75, 73
  %77 = lshr i32 %76, 6
  %78 = zext i32 %77 to i64
  %79 = add i64 %57, 1
  %80 = add i64 %79, %70
  %81 = add i64 %80, %78
  br label %82

82:                                               ; preds = %56, %60
  %83 = phi i64 [ %81, %60 ], [ %57, %56 ]
  %84 = and i32 %3, 8
  %85 = icmp eq i32 %84, 0
  br i1 %85, label %108, label %86

86:                                               ; preds = %82
  %87 = getelementptr inbounds %"class.enterprise_connectors::EncryptedData", %"class.enterprise_connectors::EncryptedData"* %0, i64 0, i32 6, i32 0
  %88 = load %"class.std::__1::basic_string"*, %"class.std::__1::basic_string"** %87, align 8
  %89 = bitcast %"class.std::__1::basic_string"* %88 to %"struct.std::__1::basic_string<char, std::__1::char_traits<char>, std::__1::allocator<char> >::__short"*
  %90 = getelementptr inbounds %"struct.std::__1::basic_string<char, std::__1::char_traits<char>, std::__1::allocator<char> >::__short", %"struct.std::__1::basic_string<char, std::__1::char_traits<char>, std::__1::allocator<char> >::__short"* %89, i64 0, i32 1, i32 0
  %91 = load i8, i8* %90, align 1
  %92 = icmp slt i8 %91, 0
  %93 = getelementptr inbounds %"class.std::__1::basic_string", %"class.std::__1::basic_string"* %88, i64 0, i32 0, i32 0, i32 0, i32 0, i32 0, i32 1
  %94 = load i64, i64* %93, align 8
  %95 = zext i8 %91 to i64
  %96 = select i1 %92, i64 %94, i64 %95
  %97 = trunc i64 %96 to i32
  %98 = or i32 %97, 1
  %99 = tail call i32 @llvm.ctlz.i32(i32 %98, i1 true) #14, !range !6
  %100 = xor i32 %99, 31
  %101 = mul nuw nsw i32 %100, 9
  %102 = add nuw nsw i32 %101, 73
  %103 = lshr i32 %102, 6
  %104 = zext i32 %103 to i64
  %105 = add i64 %83, 1
  %106 = add i64 %105, %96
  %107 = add i64 %106, %104
  br label %108

108:                                              ; preds = %82, %86
  %109 = phi i64 [ %107, %86 ], [ %83, %82 ]
  %110 = and i32 %3, 16
  %111 = icmp eq i32 %110, 0
  br i1 %111, label %134, label %112

112:                                              ; preds = %108
  %113 = getelementptr inbounds %"class.enterprise_connectors::EncryptedData", %"class.enterprise_connectors::EncryptedData"* %0, i64 0, i32 7, i32 0
  %114 = load %"class.std::__1::basic_string"*, %"class.std::__1::basic_string"** %113, align 8
  %115 = bitcast %"class.std::__1::basic_string"* %114 to %"struct.std::__1::basic_string<char, std::__1::char_traits<char>, std::__1::allocator<char> >::__short"*
  %116 = getelementptr inbounds %"struct.std::__1::basic_string<char, std::__1::char_traits<char>, std::__1::allocator<char> >::__short", %"struct.std::__1::basic_string<char, std::__1::char_traits<char>, std::__1::allocator<char> >::__short"* %115, i64 0, i32 1, i32 0
  %117 = load i8, i8* %116, align 1
  %118 = icmp slt i8 %117, 0
  %119 = getelementptr inbounds %"class.std::__1::basic_string", %"class.std::__1::basic_string"* %114, i64 0, i32 0, i32 0, i32 0, i32 0, i32 0, i32 1
  %120 = load i64, i64* %119, align 8
  %121 = zext i8 %117 to i64
  %122 = select i1 %118, i64 %120, i64 %121
  %123 = trunc i64 %122 to i32
  %124 = or i32 %123, 1
  %125 = tail call i32 @llvm.ctlz.i32(i32 %124, i1 true) #14, !range !6
  %126 = xor i32 %125, 31
  %127 = mul nuw nsw i32 %126, 9
  %128 = add nuw nsw i32 %127, 73
  %129 = lshr i32 %128, 6
  %130 = zext i32 %129 to i64
  %131 = add i64 %109, 1
  %132 = add i64 %131, %122
  %133 = add i64 %132, %130
  br label %134

134:                                              ; preds = %108, %1, %112
  %135 = phi i64 [ %133, %112 ], [ %109, %108 ], [ 0, %1 ]
  %136 = getelementptr inbounds %"class.enterprise_connectors::EncryptedData", %"class.enterprise_connectors::EncryptedData"* %0, i64 0, i32 0, i32 1
  %137 = bitcast %"class.google::protobuf::internal::InternalMetadata"* %136 to i64*
  %138 = load i64, i64* %137, align 8
  %139 = and i64 %138, 1
  %140 = icmp eq i64 %139, 0
  br i1 %140, label %157, label %141, !prof !3

141:                                              ; preds = %134
  %142 = and i64 %138, -2
  %143 = inttoptr i64 %142 to %"struct.google::protobuf::internal::InternalMetadata::Container"*
  %144 = getelementptr inbounds %"struct.google::protobuf::internal::InternalMetadata::Container", %"struct.google::protobuf::internal::InternalMetadata::Container"* %143, i64 0, i32 1
  %145 = bitcast %"class.std::__1::basic_string"* %144 to %"struct.std::__1::basic_string<char, std::__1::char_traits<char>, std::__1::allocator<char> >::__short"*
  %146 = getelementptr inbounds %"struct.std::__1::basic_string<char, std::__1::char_traits<char>, std::__1::allocator<char> >::__short", %"struct.std::__1::basic_string<char, std::__1::char_traits<char>, std::__1::allocator<char> >::__short"* %145, i64 0, i32 1, i32 0
  %147 = load i8, i8* %146, align 1
  %148 = icmp slt i8 %147, 0
  br i1 %148, label %149, label %152

149:                                              ; preds = %141
  %150 = getelementptr inbounds %"struct.google::protobuf::internal::InternalMetadata::Container", %"struct.google::protobuf::internal::InternalMetadata::Container"* %143, i64 0, i32 1, i32 0, i32 0, i32 0, i32 0, i32 0, i32 1
  %151 = load i64, i64* %150, align 8
  br label %154

152:                                              ; preds = %141
  %153 = zext i8 %147 to i64
  br label %154

154:                                              ; preds = %149, %152
  %155 = phi i64 [ %151, %149 ], [ %153, %152 ]
  %156 = add i64 %155, %135
  br label %157

157:                                              ; preds = %134, %154
  %158 = phi i64 [ %156, %154 ], [ %135, %134 ]
  %159 = trunc i64 %158 to i32
  %160 = getelementptr inbounds %"class.enterprise_connectors::EncryptedData", %"class.enterprise_connectors::EncryptedData"* %0, i64 0, i32 2, i32 0, i32 0, i32 0, i32 0, i32 0, i32 0
  store atomic i32 %159, i32* %160 monotonic, align 4
  ret i64 %158
}

; Function Attrs: nounwind ssp uwtable
define hidden void @_ZN21enterprise_connectors13EncryptedData21CheckTypeAndMergeFromERKN6google8protobuf11MessageLiteE(%"class.enterprise_connectors::EncryptedData"*, %"class.google::protobuf::MessageLite"* nocapture readonly dereferenceable(16)) unnamed_addr #0 align 2 {
  %3 = bitcast %"class.google::protobuf::MessageLite"* %1 to %"class.enterprise_connectors::EncryptedData"*
  tail call void @_ZN21enterprise_connectors13EncryptedData9MergeFromERKS0_(%"class.enterprise_connectors::EncryptedData"* %0, %"class.enterprise_connectors::EncryptedData"* dereferenceable(64) %3)
  ret void
}

; Function Attrs: nounwind ssp uwtable
define hidden void @_ZN21enterprise_connectors13EncryptedData9MergeFromERKS0_(%"class.enterprise_connectors::EncryptedData"*, %"class.enterprise_connectors::EncryptedData"* nocapture readonly dereferenceable(64)) local_unnamed_addr #0 align 2 {
  %3 = getelementptr inbounds %"class.enterprise_connectors::EncryptedData", %"class.enterprise_connectors::EncryptedData"* %0, i64 0, i32 0, i32 1
  %4 = getelementptr inbounds %"class.enterprise_connectors::EncryptedData", %"class.enterprise_connectors::EncryptedData"* %1, i64 0, i32 0, i32 1
  %5 = bitcast %"class.google::protobuf::internal::InternalMetadata"* %4 to i64*
  %6 = load i64, i64* %5, align 8
  %7 = and i64 %6, 1
  %8 = icmp eq i64 %7, 0
  br i1 %8, label %38, label %9

9:                                                ; preds = %2
  %10 = and i64 %6, -2
  %11 = inttoptr i64 %10 to %"struct.google::protobuf::internal::InternalMetadata::Container"*
  %12 = getelementptr inbounds %"struct.google::protobuf::internal::InternalMetadata::Container", %"struct.google::protobuf::internal::InternalMetadata::Container"* %11, i64 0, i32 1
  %13 = bitcast %"class.google::protobuf::internal::InternalMetadata"* %3 to i64*
  %14 = load i64, i64* %13, align 8
  %15 = and i64 %14, 1
  %16 = icmp eq i64 %15, 0
  br i1 %16, label %21, label %17, !prof !5

17:                                               ; preds = %9
  %18 = and i64 %14, -2
  %19 = inttoptr i64 %18 to %"struct.google::protobuf::internal::InternalMetadata::Container"*
  %20 = getelementptr inbounds %"struct.google::protobuf::internal::InternalMetadata::Container", %"struct.google::protobuf::internal::InternalMetadata::Container"* %19, i64 0, i32 1
  br label %23

21:                                               ; preds = %9
  %22 = tail call %"class.std::__1::basic_string"* @_ZN6google8protobuf8internal16InternalMetadata27mutable_unknown_fields_slowINSt3__112basic_stringIcNS4_11char_traitsIcEENS4_9allocatorIcEEEEEEPT_v(%"class.google::protobuf::internal::InternalMetadata"* %3) #14
  br label %23

23:                                               ; preds = %21, %17
  %24 = phi %"class.std::__1::basic_string"* [ %20, %17 ], [ %22, %21 ]
  %25 = bitcast %"class.std::__1::basic_string"* %12 to %"struct.std::__1::basic_string<char, std::__1::char_traits<char>, std::__1::allocator<char> >::__short"*
  %26 = getelementptr inbounds %"struct.std::__1::basic_string<char, std::__1::char_traits<char>, std::__1::allocator<char> >::__short", %"struct.std::__1::basic_string<char, std::__1::char_traits<char>, std::__1::allocator<char> >::__short"* %25, i64 0, i32 1, i32 0
  %27 = load i8, i8* %26, align 1
  %28 = icmp slt i8 %27, 0
  %29 = getelementptr inbounds %"class.std::__1::basic_string", %"class.std::__1::basic_string"* %12, i64 0, i32 0, i32 0, i32 0, i32 0, i32 0, i32 0
  %30 = load i8*, i8** %29, align 8
  %31 = getelementptr inbounds %"struct.google::protobuf::internal::InternalMetadata::Container", %"struct.google::protobuf::internal::InternalMetadata::Container"* %11, i64 0, i32 1, i32 0, i32 0, i32 0, i32 0, i32 0, i32 1
  %32 = load i64, i64* %31, align 8
  %33 = bitcast %"class.std::__1::basic_string"* %12 to i8*
  %34 = zext i8 %27 to i64
  %35 = select i1 %28, i8* %30, i8* %33
  %36 = select i1 %28, i64 %32, i64 %34
  %37 = tail call dereferenceable(24) %"class.std::__1::basic_string"* @_ZNSt3__112basic_stringIcNS_11char_traitsIcEENS_9allocatorIcEEE6appendEPKcm(%"class.std::__1::basic_string"* %24, i8* %35, i64 %36) #14
  br label %38

38:                                               ; preds = %2, %23
  %39 = getelementptr inbounds %"class.enterprise_connectors::EncryptedData", %"class.enterprise_connectors::EncryptedData"* %1, i64 0, i32 1, i32 0, i64 0
  %40 = load i32, i32* %39, align 4
  %41 = and i32 %40, 31
  %42 = icmp eq i32 %41, 0
  br i1 %42, label %333, label %43

43:                                               ; preds = %38
  %44 = and i32 %40, 1
  %45 = icmp eq i32 %44, 0
  br i1 %45, label %101, label %46

46:                                               ; preds = %43
  %47 = getelementptr inbounds %"class.enterprise_connectors::EncryptedData", %"class.enterprise_connectors::EncryptedData"* %1, i64 0, i32 3, i32 0
  %48 = load %"class.std::__1::basic_string"*, %"class.std::__1::basic_string"** %47, align 8
  %49 = getelementptr inbounds %"class.enterprise_connectors::EncryptedData", %"class.enterprise_connectors::EncryptedData"* %0, i64 0, i32 1, i32 0, i64 0
  %50 = load i32, i32* %49, align 4
  %51 = or i32 %50, 1
  store i32 %51, i32* %49, align 4
  %52 = getelementptr inbounds %"class.enterprise_connectors::EncryptedData", %"class.enterprise_connectors::EncryptedData"* %0, i64 0, i32 3
  %53 = bitcast %"class.google::protobuf::internal::InternalMetadata"* %3 to i64*
  %54 = load i64, i64* %53, align 8
  %55 = and i64 %54, 1
  %56 = icmp eq i64 %55, 0
  %57 = and i64 %54, -2
  br i1 %56, label %62, label %58, !prof !3

58:                                               ; preds = %46
  %59 = inttoptr i64 %57 to %"struct.google::protobuf::internal::InternalMetadata::ContainerBase"*
  %60 = getelementptr inbounds %"struct.google::protobuf::internal::InternalMetadata::ContainerBase", %"struct.google::protobuf::internal::InternalMetadata::ContainerBase"* %59, i64 0, i32 0
  %61 = load %"class.google::protobuf::Arena"*, %"class.google::protobuf::Arena"** %60, align 8
  br label %64

62:                                               ; preds = %46
  %63 = inttoptr i64 %57 to %"class.google::protobuf::Arena"*
  br label %64

64:                                               ; preds = %62, %58
  %65 = phi %"class.google::protobuf::Arena"* [ %61, %58 ], [ %63, %62 ]
  %66 = getelementptr inbounds %"struct.google::protobuf::internal::ArenaStringPtr", %"struct.google::protobuf::internal::ArenaStringPtr"* %52, i64 0, i32 0
  %67 = load %"class.std::__1::basic_string"*, %"class.std::__1::basic_string"** %66, align 8
  %68 = icmp eq %"class.std::__1::basic_string"* %67, bitcast (%"class.google::protobuf::internal::ExplicitlyConstructed.18"* @_ZN6google8protobuf8internal26fixed_address_empty_stringE to %"class.std::__1::basic_string"*)
  br i1 %68, label %69, label %70

69:                                               ; preds = %64
  tail call void @_ZN6google8protobuf8internal14ArenaStringPtr14CreateInstanceEPNS0_5ArenaEPKNSt3__112basic_stringIcNS5_11char_traitsIcEENS5_9allocatorIcEEEE(%"struct.google::protobuf::internal::ArenaStringPtr"* %52, %"class.google::protobuf::Arena"* %65, %"class.std::__1::basic_string"* %48) #14
  br label %101

70:                                               ; preds = %64
  %71 = icmp eq %"class.std::__1::basic_string"* %67, %48
  br i1 %71, label %101, label %72

72:                                               ; preds = %70
  %73 = bitcast %"class.std::__1::basic_string"* %67 to %"struct.std::__1::basic_string<char, std::__1::char_traits<char>, std::__1::allocator<char> >::__short"*
  %74 = getelementptr inbounds %"struct.std::__1::basic_string<char, std::__1::char_traits<char>, std::__1::allocator<char> >::__short", %"struct.std::__1::basic_string<char, std::__1::char_traits<char>, std::__1::allocator<char> >::__short"* %73, i64 0, i32 1, i32 0
  %75 = load i8, i8* %74, align 1
  %76 = icmp slt i8 %75, 0
  %77 = bitcast %"class.std::__1::basic_string"* %48 to %"struct.std::__1::basic_string<char, std::__1::char_traits<char>, std::__1::allocator<char> >::__short"*
  %78 = getelementptr inbounds %"struct.std::__1::basic_string<char, std::__1::char_traits<char>, std::__1::allocator<char> >::__short", %"struct.std::__1::basic_string<char, std::__1::char_traits<char>, std::__1::allocator<char> >::__short"* %77, i64 0, i32 1, i32 0
  %79 = load i8, i8* %78, align 1
  %80 = icmp slt i8 %79, 0
  br i1 %76, label %91, label %81

81:                                               ; preds = %72
  br i1 %80, label %85, label %82

82:                                               ; preds = %81
  %83 = bitcast %"class.std::__1::basic_string"* %67 to i8*
  %84 = bitcast %"class.std::__1::basic_string"* %48 to i8*
  tail call void @llvm.memcpy.p0i8.p0i8.i64(i8* align 8 %83, i8* align 8 %84, i64 24, i1 false) #14
  br label %101

85:                                               ; preds = %81
  %86 = getelementptr inbounds %"class.std::__1::basic_string", %"class.std::__1::basic_string"* %48, i64 0, i32 0, i32 0, i32 0, i32 0, i32 0, i32 0
  %87 = load i8*, i8** %86, align 8
  %88 = getelementptr inbounds %"class.std::__1::basic_string", %"class.std::__1::basic_string"* %48, i64 0, i32 0, i32 0, i32 0, i32 0, i32 0, i32 1
  %89 = load i64, i64* %88, align 8
  %90 = tail call dereferenceable(24) %"class.std::__1::basic_string"* @_ZNSt3__112basic_stringIcNS_11char_traitsIcEENS_9allocatorIcEEE17__assign_no_aliasILb1EEERS5_PKcm(%"class.std::__1::basic_string"* %67, i8* %87, i64 %89) #14
  br label %101

91:                                               ; preds = %72
  %92 = getelementptr inbounds %"class.std::__1::basic_string", %"class.std::__1::basic_string"* %48, i64 0, i32 0, i32 0, i32 0, i32 0, i32 0, i32 0
  %93 = load i8*, i8** %92, align 8
  %94 = getelementptr inbounds %"class.std::__1::basic_string", %"class.std::__1::basic_string"* %48, i64 0, i32 0, i32 0, i32 0, i32 0, i32 0, i32 1
  %95 = load i64, i64* %94, align 8
  %96 = bitcast %"class.std::__1::basic_string"* %48 to i8*
  %97 = zext i8 %79 to i64
  %98 = select i1 %80, i8* %93, i8* %96
  %99 = select i1 %80, i64 %95, i64 %97
  %100 = tail call dereferenceable(24) %"class.std::__1::basic_string"* @_ZNSt3__112basic_stringIcNS_11char_traitsIcEENS_9allocatorIcEEE17__assign_no_aliasILb0EEERS5_PKcm(%"class.std::__1::basic_string"* %67, i8* %98, i64 %99) #14
  br label %101

101:                                              ; preds = %91, %85, %82, %70, %69, %43
  %102 = and i32 %40, 2
  %103 = icmp eq i32 %102, 0
  br i1 %103, label %159, label %104

104:                                              ; preds = %101
  %105 = getelementptr inbounds %"class.enterprise_connectors::EncryptedData", %"class.enterprise_connectors::EncryptedData"* %1, i64 0, i32 4, i32 0
  %106 = load %"class.std::__1::basic_string"*, %"class.std::__1::basic_string"** %105, align 8
  %107 = getelementptr inbounds %"class.enterprise_connectors::EncryptedData", %"class.enterprise_connectors::EncryptedData"* %0, i64 0, i32 1, i32 0, i64 0
  %108 = load i32, i32* %107, align 4
  %109 = or i32 %108, 2
  store i32 %109, i32* %107, align 4
  %110 = getelementptr inbounds %"class.enterprise_connectors::EncryptedData", %"class.enterprise_connectors::EncryptedData"* %0, i64 0, i32 4
  %111 = bitcast %"class.google::protobuf::internal::InternalMetadata"* %3 to i64*
  %112 = load i64, i64* %111, align 8
  %113 = and i64 %112, 1
  %114 = icmp eq i64 %113, 0
  %115 = and i64 %112, -2
  br i1 %114, label %120, label %116, !prof !3

116:                                              ; preds = %104
  %117 = inttoptr i64 %115 to %"struct.google::protobuf::internal::InternalMetadata::ContainerBase"*
  %118 = getelementptr inbounds %"struct.google::protobuf::internal::InternalMetadata::ContainerBase", %"struct.google::protobuf::internal::InternalMetadata::ContainerBase"* %117, i64 0, i32 0
  %119 = load %"class.google::protobuf::Arena"*, %"class.google::protobuf::Arena"** %118, align 8
  br label %122

120:                                              ; preds = %104
  %121 = inttoptr i64 %115 to %"class.google::protobuf::Arena"*
  br label %122

122:                                              ; preds = %120, %116
  %123 = phi %"class.google::protobuf::Arena"* [ %119, %116 ], [ %121, %120 ]
  %124 = getelementptr inbounds %"struct.google::protobuf::internal::ArenaStringPtr", %"struct.google::protobuf::internal::ArenaStringPtr"* %110, i64 0, i32 0
  %125 = load %"class.std::__1::basic_string"*, %"class.std::__1::basic_string"** %124, align 8
  %126 = icmp eq %"class.std::__1::basic_string"* %125, bitcast (%"class.google::protobuf::internal::ExplicitlyConstructed.18"* @_ZN6google8protobuf8internal26fixed_address_empty_stringE to %"class.std::__1::basic_string"*)
  br i1 %126, label %127, label %128

127:                                              ; preds = %122
  tail call void @_ZN6google8protobuf8internal14ArenaStringPtr14CreateInstanceEPNS0_5ArenaEPKNSt3__112basic_stringIcNS5_11char_traitsIcEENS5_9allocatorIcEEEE(%"struct.google::protobuf::internal::ArenaStringPtr"* %110, %"class.google::protobuf::Arena"* %123, %"class.std::__1::basic_string"* %106) #14
  br label %159

128:                                              ; preds = %122
  %129 = icmp eq %"class.std::__1::basic_string"* %125, %106
  br i1 %129, label %159, label %130

130:                                              ; preds = %128
  %131 = bitcast %"class.std::__1::basic_string"* %125 to %"struct.std::__1::basic_string<char, std::__1::char_traits<char>, std::__1::allocator<char> >::__short"*
  %132 = getelementptr inbounds %"struct.std::__1::basic_string<char, std::__1::char_traits<char>, std::__1::allocator<char> >::__short", %"struct.std::__1::basic_string<char, std::__1::char_traits<char>, std::__1::allocator<char> >::__short"* %131, i64 0, i32 1, i32 0
  %133 = load i8, i8* %132, align 1
  %134 = icmp slt i8 %133, 0
  %135 = bitcast %"class.std::__1::basic_string"* %106 to %"struct.std::__1::basic_string<char, std::__1::char_traits<char>, std::__1::allocator<char> >::__short"*
  %136 = getelementptr inbounds %"struct.std::__1::basic_string<char, std::__1::char_traits<char>, std::__1::allocator<char> >::__short", %"struct.std::__1::basic_string<char, std::__1::char_traits<char>, std::__1::allocator<char> >::__short"* %135, i64 0, i32 1, i32 0
  %137 = load i8, i8* %136, align 1
  %138 = icmp slt i8 %137, 0
  br i1 %134, label %149, label %139

139:                                              ; preds = %130
  br i1 %138, label %143, label %140

140:                                              ; preds = %139
  %141 = bitcast %"class.std::__1::basic_string"* %125 to i8*
  %142 = bitcast %"class.std::__1::basic_string"* %106 to i8*
  tail call void @llvm.memcpy.p0i8.p0i8.i64(i8* align 8 %141, i8* align 8 %142, i64 24, i1 false) #14
  br label %159

143:                                              ; preds = %139
  %144 = getelementptr inbounds %"class.std::__1::basic_string", %"class.std::__1::basic_string"* %106, i64 0, i32 0, i32 0, i32 0, i32 0, i32 0, i32 0
  %145 = load i8*, i8** %144, align 8
  %146 = getelementptr inbounds %"class.std::__1::basic_string", %"class.std::__1::basic_string"* %106, i64 0, i32 0, i32 0, i32 0, i32 0, i32 0, i32 1
  %147 = load i64, i64* %146, align 8
  %148 = tail call dereferenceable(24) %"class.std::__1::basic_string"* @_ZNSt3__112basic_stringIcNS_11char_traitsIcEENS_9allocatorIcEEE17__assign_no_aliasILb1EEERS5_PKcm(%"class.std::__1::basic_string"* %125, i8* %145, i64 %147) #14
  br label %159

149:                                              ; preds = %130
  %150 = getelementptr inbounds %"class.std::__1::basic_string", %"class.std::__1::basic_string"* %106, i64 0, i32 0, i32 0, i32 0, i32 0, i32 0, i32 0
  %151 = load i8*, i8** %150, align 8
  %152 = getelementptr inbounds %"class.std::__1::basic_string", %"class.std::__1::basic_string"* %106, i64 0, i32 0, i32 0, i32 0, i32 0, i32 0, i32 1
  %153 = load i64, i64* %152, align 8
  %154 = bitcast %"class.std::__1::basic_string"* %106 to i8*
  %155 = zext i8 %137 to i64
  %156 = select i1 %138, i8* %151, i8* %154
  %157 = select i1 %138, i64 %153, i64 %155
  %158 = tail call dereferenceable(24) %"class.std::__1::basic_string"* @_ZNSt3__112basic_stringIcNS_11char_traitsIcEENS_9allocatorIcEEE17__assign_no_aliasILb0EEERS5_PKcm(%"class.std::__1::basic_string"* %125, i8* %156, i64 %157) #14
  br label %159

159:                                              ; preds = %149, %143, %140, %128, %127, %101
  %160 = and i32 %40, 4
  %161 = icmp eq i32 %160, 0
  br i1 %161, label %217, label %162

162:                                              ; preds = %159
  %163 = getelementptr inbounds %"class.enterprise_connectors::EncryptedData", %"class.enterprise_connectors::EncryptedData"* %1, i64 0, i32 5, i32 0
  %164 = load %"class.std::__1::basic_string"*, %"class.std::__1::basic_string"** %163, align 8
  %165 = getelementptr inbounds %"class.enterprise_connectors::EncryptedData", %"class.enterprise_connectors::EncryptedData"* %0, i64 0, i32 1, i32 0, i64 0
  %166 = load i32, i32* %165, align 4
  %167 = or i32 %166, 4
  store i32 %167, i32* %165, align 4
  %168 = getelementptr inbounds %"class.enterprise_connectors::EncryptedData", %"class.enterprise_connectors::EncryptedData"* %0, i64 0, i32 5
  %169 = bitcast %"class.google::protobuf::internal::InternalMetadata"* %3 to i64*
  %170 = load i64, i64* %169, align 8
  %171 = and i64 %170, 1
  %172 = icmp eq i64 %171, 0
  %173 = and i64 %170, -2
  br i1 %172, label %178, label %174, !prof !3

174:                                              ; preds = %162
  %175 = inttoptr i64 %173 to %"struct.google::protobuf::internal::InternalMetadata::ContainerBase"*
  %176 = getelementptr inbounds %"struct.google::protobuf::internal::InternalMetadata::ContainerBase", %"struct.google::protobuf::internal::InternalMetadata::ContainerBase"* %175, i64 0, i32 0
  %177 = load %"class.google::protobuf::Arena"*, %"class.google::protobuf::Arena"** %176, align 8
  br label %180

178:                                              ; preds = %162
  %179 = inttoptr i64 %173 to %"class.google::protobuf::Arena"*
  br label %180

180:                                              ; preds = %178, %174
  %181 = phi %"class.google::protobuf::Arena"* [ %177, %174 ], [ %179, %178 ]
  %182 = getelementptr inbounds %"struct.google::protobuf::internal::ArenaStringPtr", %"struct.google::protobuf::internal::ArenaStringPtr"* %168, i64 0, i32 0
  %183 = load %"class.std::__1::basic_string"*, %"class.std::__1::basic_string"** %182, align 8
  %184 = icmp eq %"class.std::__1::basic_string"* %183, bitcast (%"class.google::protobuf::internal::ExplicitlyConstructed.18"* @_ZN6google8protobuf8internal26fixed_address_empty_stringE to %"class.std::__1::basic_string"*)
  br i1 %184, label %185, label %186

185:                                              ; preds = %180
  tail call void @_ZN6google8protobuf8internal14ArenaStringPtr14CreateInstanceEPNS0_5ArenaEPKNSt3__112basic_stringIcNS5_11char_traitsIcEENS5_9allocatorIcEEEE(%"struct.google::protobuf::internal::ArenaStringPtr"* %168, %"class.google::protobuf::Arena"* %181, %"class.std::__1::basic_string"* %164) #14
  br label %217

186:                                              ; preds = %180
  %187 = icmp eq %"class.std::__1::basic_string"* %183, %164
  br i1 %187, label %217, label %188

188:                                              ; preds = %186
  %189 = bitcast %"class.std::__1::basic_string"* %183 to %"struct.std::__1::basic_string<char, std::__1::char_traits<char>, std::__1::allocator<char> >::__short"*
  %190 = getelementptr inbounds %"struct.std::__1::basic_string<char, std::__1::char_traits<char>, std::__1::allocator<char> >::__short", %"struct.std::__1::basic_string<char, std::__1::char_traits<char>, std::__1::allocator<char> >::__short"* %189, i64 0, i32 1, i32 0
  %191 = load i8, i8* %190, align 1
  %192 = icmp slt i8 %191, 0
  %193 = bitcast %"class.std::__1::basic_string"* %164 to %"struct.std::__1::basic_string<char, std::__1::char_traits<char>, std::__1::allocator<char> >::__short"*
  %194 = getelementptr inbounds %"struct.std::__1::basic_string<char, std::__1::char_traits<char>, std::__1::allocator<char> >::__short", %"struct.std::__1::basic_string<char, std::__1::char_traits<char>, std::__1::allocator<char> >::__short"* %193, i64 0, i32 1, i32 0
  %195 = load i8, i8* %194, align 1
  %196 = icmp slt i8 %195, 0
  br i1 %192, label %207, label %197

197:                                              ; preds = %188
  br i1 %196, label %201, label %198

198:                                              ; preds = %197
  %199 = bitcast %"class.std::__1::basic_string"* %183 to i8*
  %200 = bitcast %"class.std::__1::basic_string"* %164 to i8*
  tail call void @llvm.memcpy.p0i8.p0i8.i64(i8* align 8 %199, i8* align 8 %200, i64 24, i1 false) #14
  br label %217

201:                                              ; preds = %197
  %202 = getelementptr inbounds %"class.std::__1::basic_string", %"class.std::__1::basic_string"* %164, i64 0, i32 0, i32 0, i32 0, i32 0, i32 0, i32 0
  %203 = load i8*, i8** %202, align 8
  %204 = getelementptr inbounds %"class.std::__1::basic_string", %"class.std::__1::basic_string"* %164, i64 0, i32 0, i32 0, i32 0, i32 0, i32 0, i32 1
  %205 = load i64, i64* %204, align 8
  %206 = tail call dereferenceable(24) %"class.std::__1::basic_string"* @_ZNSt3__112basic_stringIcNS_11char_traitsIcEENS_9allocatorIcEEE17__assign_no_aliasILb1EEERS5_PKcm(%"class.std::__1::basic_string"* %183, i8* %203, i64 %205) #14
  br label %217

207:                                              ; preds = %188
  %208 = getelementptr inbounds %"class.std::__1::basic_string", %"class.std::__1::basic_string"* %164, i64 0, i32 0, i32 0, i32 0, i32 0, i32 0, i32 0
  %209 = load i8*, i8** %208, align 8
  %210 = getelementptr inbounds %"class.std::__1::basic_string", %"class.std::__1::basic_string"* %164, i64 0, i32 0, i32 0, i32 0, i32 0, i32 0, i32 1
  %211 = load i64, i64* %210, align 8
  %212 = bitcast %"class.std::__1::basic_string"* %164 to i8*
  %213 = zext i8 %195 to i64
  %214 = select i1 %196, i8* %209, i8* %212
  %215 = select i1 %196, i64 %211, i64 %213
  %216 = tail call dereferenceable(24) %"class.std::__1::basic_string"* @_ZNSt3__112basic_stringIcNS_11char_traitsIcEENS_9allocatorIcEEE17__assign_no_aliasILb0EEERS5_PKcm(%"class.std::__1::basic_string"* %183, i8* %214, i64 %215) #14
  br label %217

217:                                              ; preds = %207, %201, %198, %186, %185, %159
  %218 = and i32 %40, 8
  %219 = icmp eq i32 %218, 0
  br i1 %219, label %275, label %220

220:                                              ; preds = %217
  %221 = getelementptr inbounds %"class.enterprise_connectors::EncryptedData", %"class.enterprise_connectors::EncryptedData"* %1, i64 0, i32 6, i32 0
  %222 = load %"class.std::__1::basic_string"*, %"class.std::__1::basic_string"** %221, align 8
  %223 = getelementptr inbounds %"class.enterprise_connectors::EncryptedData", %"class.enterprise_connectors::EncryptedData"* %0, i64 0, i32 1, i32 0, i64 0
  %224 = load i32, i32* %223, align 4
  %225 = or i32 %224, 8
  store i32 %225, i32* %223, align 4
  %226 = getelementptr inbounds %"class.enterprise_connectors::EncryptedData", %"class.enterprise_connectors::EncryptedData"* %0, i64 0, i32 6
  %227 = bitcast %"class.google::protobuf::internal::InternalMetadata"* %3 to i64*
  %228 = load i64, i64* %227, align 8
  %229 = and i64 %228, 1
  %230 = icmp eq i64 %229, 0
  %231 = and i64 %228, -2
  br i1 %230, label %236, label %232, !prof !3

232:                                              ; preds = %220
  %233 = inttoptr i64 %231 to %"struct.google::protobuf::internal::InternalMetadata::ContainerBase"*
  %234 = getelementptr inbounds %"struct.google::protobuf::internal::InternalMetadata::ContainerBase", %"struct.google::protobuf::internal::InternalMetadata::ContainerBase"* %233, i64 0, i32 0
  %235 = load %"class.google::protobuf::Arena"*, %"class.google::protobuf::Arena"** %234, align 8
  br label %238

236:                                              ; preds = %220
  %237 = inttoptr i64 %231 to %"class.google::protobuf::Arena"*
  br label %238

238:                                              ; preds = %236, %232
  %239 = phi %"class.google::protobuf::Arena"* [ %235, %232 ], [ %237, %236 ]
  %240 = getelementptr inbounds %"struct.google::protobuf::internal::ArenaStringPtr", %"struct.google::protobuf::internal::ArenaStringPtr"* %226, i64 0, i32 0
  %241 = load %"class.std::__1::basic_string"*, %"class.std::__1::basic_string"** %240, align 8
  %242 = icmp eq %"class.std::__1::basic_string"* %241, bitcast (%"class.google::protobuf::internal::ExplicitlyConstructed.18"* @_ZN6google8protobuf8internal26fixed_address_empty_stringE to %"class.std::__1::basic_string"*)
  br i1 %242, label %243, label %244

243:                                              ; preds = %238
  tail call void @_ZN6google8protobuf8internal14ArenaStringPtr14CreateInstanceEPNS0_5ArenaEPKNSt3__112basic_stringIcNS5_11char_traitsIcEENS5_9allocatorIcEEEE(%"struct.google::protobuf::internal::ArenaStringPtr"* %226, %"class.google::protobuf::Arena"* %239, %"class.std::__1::basic_string"* %222) #14
  br label %275

244:                                              ; preds = %238
  %245 = icmp eq %"class.std::__1::basic_string"* %241, %222
  br i1 %245, label %275, label %246

246:                                              ; preds = %244
  %247 = bitcast %"class.std::__1::basic_string"* %241 to %"struct.std::__1::basic_string<char, std::__1::char_traits<char>, std::__1::allocator<char> >::__short"*
  %248 = getelementptr inbounds %"struct.std::__1::basic_string<char, std::__1::char_traits<char>, std::__1::allocator<char> >::__short", %"struct.std::__1::basic_string<char, std::__1::char_traits<char>, std::__1::allocator<char> >::__short"* %247, i64 0, i32 1, i32 0
  %249 = load i8, i8* %248, align 1
  %250 = icmp slt i8 %249, 0
  %251 = bitcast %"class.std::__1::basic_string"* %222 to %"struct.std::__1::basic_string<char, std::__1::char_traits<char>, std::__1::allocator<char> >::__short"*
  %252 = getelementptr inbounds %"struct.std::__1::basic_string<char, std::__1::char_traits<char>, std::__1::allocator<char> >::__short", %"struct.std::__1::basic_string<char, std::__1::char_traits<char>, std::__1::allocator<char> >::__short"* %251, i64 0, i32 1, i32 0
  %253 = load i8, i8* %252, align 1
  %254 = icmp slt i8 %253, 0
  br i1 %250, label %265, label %255

255:                                              ; preds = %246
  br i1 %254, label %259, label %256

256:                                              ; preds = %255
  %257 = bitcast %"class.std::__1::basic_string"* %241 to i8*
  %258 = bitcast %"class.std::__1::basic_string"* %222 to i8*
  tail call void @llvm.memcpy.p0i8.p0i8.i64(i8* align 8 %257, i8* align 8 %258, i64 24, i1 false) #14
  br label %275

259:                                              ; preds = %255
  %260 = getelementptr inbounds %"class.std::__1::basic_string", %"class.std::__1::basic_string"* %222, i64 0, i32 0, i32 0, i32 0, i32 0, i32 0, i32 0
  %261 = load i8*, i8** %260, align 8
  %262 = getelementptr inbounds %"class.std::__1::basic_string", %"class.std::__1::basic_string"* %222, i64 0, i32 0, i32 0, i32 0, i32 0, i32 0, i32 1
  %263 = load i64, i64* %262, align 8
  %264 = tail call dereferenceable(24) %"class.std::__1::basic_string"* @_ZNSt3__112basic_stringIcNS_11char_traitsIcEENS_9allocatorIcEEE17__assign_no_aliasILb1EEERS5_PKcm(%"class.std::__1::basic_string"* %241, i8* %261, i64 %263) #14
  br label %275

265:                                              ; preds = %246
  %266 = getelementptr inbounds %"class.std::__1::basic_string", %"class.std::__1::basic_string"* %222, i64 0, i32 0, i32 0, i32 0, i32 0, i32 0, i32 0
  %267 = load i8*, i8** %266, align 8
  %268 = getelementptr inbounds %"class.std::__1::basic_string", %"class.std::__1::basic_string"* %222, i64 0, i32 0, i32 0, i32 0, i32 0, i32 0, i32 1
  %269 = load i64, i64* %268, align 8
  %270 = bitcast %"class.std::__1::basic_string"* %222 to i8*
  %271 = zext i8 %253 to i64
  %272 = select i1 %254, i8* %267, i8* %270
  %273 = select i1 %254, i64 %269, i64 %271
  %274 = tail call dereferenceable(24) %"class.std::__1::basic_string"* @_ZNSt3__112basic_stringIcNS_11char_traitsIcEENS_9allocatorIcEEE17__assign_no_aliasILb0EEERS5_PKcm(%"class.std::__1::basic_string"* %241, i8* %272, i64 %273) #14
  br label %275

275:                                              ; preds = %265, %259, %256, %244, %243, %217
  %276 = and i32 %40, 16
  %277 = icmp eq i32 %276, 0
  br i1 %277, label %333, label %278

278:                                              ; preds = %275
  %279 = getelementptr inbounds %"class.enterprise_connectors::EncryptedData", %"class.enterprise_connectors::EncryptedData"* %1, i64 0, i32 7, i32 0
  %280 = load %"class.std::__1::basic_string"*, %"class.std::__1::basic_string"** %279, align 8
  %281 = getelementptr inbounds %"class.enterprise_connectors::EncryptedData", %"class.enterprise_connectors::EncryptedData"* %0, i64 0, i32 1, i32 0, i64 0
  %282 = load i32, i32* %281, align 4
  %283 = or i32 %282, 16
  store i32 %283, i32* %281, align 4
  %284 = getelementptr inbounds %"class.enterprise_connectors::EncryptedData", %"class.enterprise_connectors::EncryptedData"* %0, i64 0, i32 7
  %285 = bitcast %"class.google::protobuf::internal::InternalMetadata"* %3 to i64*
  %286 = load i64, i64* %285, align 8
  %287 = and i64 %286, 1
  %288 = icmp eq i64 %287, 0
  %289 = and i64 %286, -2
  br i1 %288, label %294, label %290, !prof !3

290:                                              ; preds = %278
  %291 = inttoptr i64 %289 to %"struct.google::protobuf::internal::InternalMetadata::ContainerBase"*
  %292 = getelementptr inbounds %"struct.google::protobuf::internal::InternalMetadata::ContainerBase", %"struct.google::protobuf::internal::InternalMetadata::ContainerBase"* %291, i64 0, i32 0
  %293 = load %"class.google::protobuf::Arena"*, %"class.google::protobuf::Arena"** %292, align 8
  br label %296

294:                                              ; preds = %278
  %295 = inttoptr i64 %289 to %"class.google::protobuf::Arena"*
  br label %296

296:                                              ; preds = %294, %290
  %297 = phi %"class.google::protobuf::Arena"* [ %293, %290 ], [ %295, %294 ]
  %298 = getelementptr inbounds %"struct.google::protobuf::internal::ArenaStringPtr", %"struct.google::protobuf::internal::ArenaStringPtr"* %284, i64 0, i32 0
  %299 = load %"class.std::__1::basic_string"*, %"class.std::__1::basic_string"** %298, align 8
  %300 = icmp eq %"class.std::__1::basic_string"* %299, bitcast (%"class.google::protobuf::internal::ExplicitlyConstructed.18"* @_ZN6google8protobuf8internal26fixed_address_empty_stringE to %"class.std::__1::basic_string"*)
  br i1 %300, label %301, label %302

301:                                              ; preds = %296
  tail call void @_ZN6google8protobuf8internal14ArenaStringPtr14CreateInstanceEPNS0_5ArenaEPKNSt3__112basic_stringIcNS5_11char_traitsIcEENS5_9allocatorIcEEEE(%"struct.google::protobuf::internal::ArenaStringPtr"* %284, %"class.google::protobuf::Arena"* %297, %"class.std::__1::basic_string"* %280) #14
  br label %333

302:                                              ; preds = %296
  %303 = icmp eq %"class.std::__1::basic_string"* %299, %280
  br i1 %303, label %333, label %304

304:                                              ; preds = %302
  %305 = bitcast %"class.std::__1::basic_string"* %299 to %"struct.std::__1::basic_string<char, std::__1::char_traits<char>, std::__1::allocator<char> >::__short"*
  %306 = getelementptr inbounds %"struct.std::__1::basic_string<char, std::__1::char_traits<char>, std::__1::allocator<char> >::__short", %"struct.std::__1::basic_string<char, std::__1::char_traits<char>, std::__1::allocator<char> >::__short"* %305, i64 0, i32 1, i32 0
  %307 = load i8, i8* %306, align 1
  %308 = icmp slt i8 %307, 0
  %309 = bitcast %"class.std::__1::basic_string"* %280 to %"struct.std::__1::basic_string<char, std::__1::char_traits<char>, std::__1::allocator<char> >::__short"*
  %310 = getelementptr inbounds %"struct.std::__1::basic_string<char, std::__1::char_traits<char>, std::__1::allocator<char> >::__short", %"struct.std::__1::basic_string<char, std::__1::char_traits<char>, std::__1::allocator<char> >::__short"* %309, i64 0, i32 1, i32 0
  %311 = load i8, i8* %310, align 1
  %312 = icmp slt i8 %311, 0
  br i1 %308, label %323, label %313

313:                                              ; preds = %304
  br i1 %312, label %317, label %314

314:                                              ; preds = %313
  %315 = bitcast %"class.std::__1::basic_string"* %299 to i8*
  %316 = bitcast %"class.std::__1::basic_string"* %280 to i8*
  tail call void @llvm.memcpy.p0i8.p0i8.i64(i8* align 8 %315, i8* align 8 %316, i64 24, i1 false) #14
  br label %333

317:                                              ; preds = %313
  %318 = getelementptr inbounds %"class.std::__1::basic_string", %"class.std::__1::basic_string"* %280, i64 0, i32 0, i32 0, i32 0, i32 0, i32 0, i32 0
  %319 = load i8*, i8** %318, align 8
  %320 = getelementptr inbounds %"class.std::__1::basic_string", %"class.std::__1::basic_string"* %280, i64 0, i32 0, i32 0, i32 0, i32 0, i32 0, i32 1
  %321 = load i64, i64* %320, align 8
  %322 = tail call dereferenceable(24) %"class.std::__1::basic_string"* @_ZNSt3__112basic_stringIcNS_11char_traitsIcEENS_9allocatorIcEEE17__assign_no_aliasILb1EEERS5_PKcm(%"class.std::__1::basic_string"* %299, i8* %319, i64 %321) #14
  br label %333

323:                                              ; preds = %304
  %324 = getelementptr inbounds %"class.std::__1::basic_string", %"class.std::__1::basic_string"* %280, i64 0, i32 0, i32 0, i32 0, i32 0, i32 0, i32 0
  %325 = load i8*, i8** %324, align 8
  %326 = getelementptr inbounds %"class.std::__1::basic_string", %"class.std::__1::basic_string"* %280, i64 0, i32 0, i32 0, i32 0, i32 0, i32 0, i32 1
  %327 = load i64, i64* %326, align 8
  %328 = bitcast %"class.std::__1::basic_string"* %280 to i8*
  %329 = zext i8 %311 to i64
  %330 = select i1 %312, i8* %325, i8* %328
  %331 = select i1 %312, i64 %327, i64 %329
  %332 = tail call dereferenceable(24) %"class.std::__1::basic_string"* @_ZNSt3__112basic_stringIcNS_11char_traitsIcEENS_9allocatorIcEEE17__assign_no_aliasILb0EEERS5_PKcm(%"class.std::__1::basic_string"* %299, i8* %330, i64 %331) #14
  br label %333

333:                                              ; preds = %323, %317, %314, %302, %301, %275, %38
  ret void
}

; Function Attrs: nounwind ssp uwtable
define hidden void @_ZN21enterprise_connectors13EncryptedData8CopyFromERKS0_(%"class.enterprise_connectors::EncryptedData"*, %"class.enterprise_connectors::EncryptedData"* readonly dereferenceable(64)) local_unnamed_addr #0 align 2 {
  %3 = icmp eq %"class.enterprise_connectors::EncryptedData"* %1, %0
  br i1 %3, label %5, label %4

4:                                                ; preds = %2
  tail call void @_ZN21enterprise_connectors13EncryptedData5ClearEv(%"class.enterprise_connectors::EncryptedData"* %0)
  tail call void @_ZN21enterprise_connectors13EncryptedData9MergeFromERKS0_(%"class.enterprise_connectors::EncryptedData"* %0, %"class.enterprise_connectors::EncryptedData"* dereferenceable(64) %1)
  br label %5

5:                                                ; preds = %2, %4
  ret void
}

; Function Attrs: norecurse nounwind readnone ssp uwtable
define hidden zeroext i1 @_ZNK21enterprise_connectors13EncryptedData13IsInitializedEv(%"class.enterprise_connectors::EncryptedData"* nocapture readnone) unnamed_addr #1 align 2 {
  ret i1 true
}

; Function Attrs: nounwind ssp uwtable
define hidden void @_ZN21enterprise_connectors13EncryptedData12InternalSwapEPS0_(%"class.enterprise_connectors::EncryptedData"*, %"class.enterprise_connectors::EncryptedData"*) local_unnamed_addr #0 align 2 {
  %3 = getelementptr inbounds %"class.enterprise_connectors::EncryptedData", %"class.enterprise_connectors::EncryptedData"* %0, i64 0, i32 0, i32 1
  %4 = getelementptr inbounds %"class.enterprise_connectors::EncryptedData", %"class.enterprise_connectors::EncryptedData"* %1, i64 0, i32 0, i32 1
  %5 = bitcast %"class.google::protobuf::internal::InternalMetadata"* %3 to i64*
  %6 = load i64, i64* %5, align 8
  %7 = bitcast %"class.google::protobuf::internal::InternalMetadata"* %4 to i64*
  %8 = load i64, i64* %7, align 8
  %9 = or i64 %8, %6
  %10 = and i64 %9, 1
  %11 = icmp eq i64 %10, 0
  br i1 %11, label %43, label %12

12:                                               ; preds = %2
  %13 = and i64 %8, 1
  %14 = icmp eq i64 %13, 0
  br i1 %14, label %19, label %15, !prof !5

15:                                               ; preds = %12
  %16 = and i64 %8, -2
  %17 = inttoptr i64 %16 to %"struct.google::protobuf::internal::InternalMetadata::Container"*
  %18 = getelementptr inbounds %"struct.google::protobuf::internal::InternalMetadata::Container", %"struct.google::protobuf::internal::InternalMetadata::Container"* %17, i64 0, i32 1
  br label %22

19:                                               ; preds = %12
  %20 = tail call %"class.std::__1::basic_string"* @_ZN6google8protobuf8internal16InternalMetadata27mutable_unknown_fields_slowINSt3__112basic_stringIcNS4_11char_traitsIcEENS4_9allocatorIcEEEEEEPT_v(%"class.google::protobuf::internal::InternalMetadata"* %4) #14
  %21 = load i64, i64* %5, align 8
  br label %22

22:                                               ; preds = %19, %15
  %23 = phi i64 [ %6, %15 ], [ %21, %19 ]
  %24 = phi %"class.std::__1::basic_string"* [ %18, %15 ], [ %20, %19 ]
  %25 = and i64 %23, 1
  %26 = icmp eq i64 %25, 0
  br i1 %26, label %31, label %27, !prof !5

27:                                               ; preds = %22
  %28 = and i64 %23, -2
  %29 = inttoptr i64 %28 to %"struct.google::protobuf::internal::InternalMetadata::Container"*
  %30 = getelementptr inbounds %"struct.google::protobuf::internal::InternalMetadata::Container", %"struct.google::protobuf::internal::InternalMetadata::Container"* %29, i64 0, i32 1
  br label %33

31:                                               ; preds = %22
  %32 = tail call %"class.std::__1::basic_string"* @_ZN6google8protobuf8internal16InternalMetadata27mutable_unknown_fields_slowINSt3__112basic_stringIcNS4_11char_traitsIcEENS4_9allocatorIcEEEEEEPT_v(%"class.google::protobuf::internal::InternalMetadata"* %3) #14
  br label %33

33:                                               ; preds = %31, %27
  %34 = phi %"class.std::__1::basic_string"* [ %30, %27 ], [ %32, %31 ]
  %35 = bitcast %"class.std::__1::basic_string"* %34 to <2 x i64>*
  %36 = load <2 x i64>, <2 x i64>* %35, align 8
  %37 = getelementptr inbounds %"class.std::__1::basic_string", %"class.std::__1::basic_string"* %34, i64 0, i32 0, i32 0, i32 0, i32 0, i32 0, i32 2
  %38 = load i64, i64* %37, align 8
  %39 = bitcast %"class.std::__1::basic_string"* %34 to i8*
  %40 = bitcast %"class.std::__1::basic_string"* %24 to i8*
  tail call void @llvm.memcpy.p0i8.p0i8.i64(i8* align 8 %39, i8* align 8 %40, i64 24, i1 false) #14
  %41 = bitcast %"class.std::__1::basic_string"* %24 to <2 x i64>*
  store <2 x i64> %36, <2 x i64>* %41, align 8
  %42 = getelementptr inbounds %"class.std::__1::basic_string", %"class.std::__1::basic_string"* %24, i64 0, i32 0, i32 0, i32 0, i32 0, i32 0, i32 2
  store i64 %38, i64* %42, align 8
  br label %43

43:                                               ; preds = %2, %33
  %44 = getelementptr inbounds %"class.enterprise_connectors::EncryptedData", %"class.enterprise_connectors::EncryptedData"* %0, i64 0, i32 1, i32 0, i64 0
  %45 = getelementptr inbounds %"class.enterprise_connectors::EncryptedData", %"class.enterprise_connectors::EncryptedData"* %1, i64 0, i32 1, i32 0, i64 0
  %46 = load i32, i32* %44, align 4
  %47 = load i32, i32* %45, align 4
  store i32 %47, i32* %44, align 4
  store i32 %46, i32* %45, align 4
  %48 = getelementptr inbounds %"class.enterprise_connectors::EncryptedData", %"class.enterprise_connectors::EncryptedData"* %0, i64 0, i32 3
  %49 = getelementptr inbounds %"class.enterprise_connectors::EncryptedData", %"class.enterprise_connectors::EncryptedData"* %1, i64 0, i32 3
  %50 = bitcast %"struct.google::protobuf::internal::ArenaStringPtr"* %48 to i64*
  %51 = load i64, i64* %50, align 8
  %52 = bitcast %"struct.google::protobuf::internal::ArenaStringPtr"* %49 to i64*
  %53 = load i64, i64* %52, align 8
  store i64 %53, i64* %50, align 8
  store i64 %51, i64* %52, align 8
  %54 = getelementptr inbounds %"class.enterprise_connectors::EncryptedData", %"class.enterprise_connectors::EncryptedData"* %0, i64 0, i32 4
  %55 = getelementptr inbounds %"class.enterprise_connectors::EncryptedData", %"class.enterprise_connectors::EncryptedData"* %1, i64 0, i32 4
  %56 = bitcast %"struct.google::protobuf::internal::ArenaStringPtr"* %54 to i64*
  %57 = load i64, i64* %56, align 8
  %58 = bitcast %"struct.google::protobuf::internal::ArenaStringPtr"* %55 to i64*
  %59 = load i64, i64* %58, align 8
  store i64 %59, i64* %56, align 8
  store i64 %57, i64* %58, align 8
  %60 = getelementptr inbounds %"class.enterprise_connectors::EncryptedData", %"class.enterprise_connectors::EncryptedData"* %0, i64 0, i32 5
  %61 = getelementptr inbounds %"class.enterprise_connectors::EncryptedData", %"class.enterprise_connectors::EncryptedData"* %1, i64 0, i32 5
  %62 = bitcast %"struct.google::protobuf::internal::ArenaStringPtr"* %60 to i64*
  %63 = load i64, i64* %62, align 8
  %64 = bitcast %"struct.google::protobuf::internal::ArenaStringPtr"* %61 to i64*
  %65 = load i64, i64* %64, align 8
  store i64 %65, i64* %62, align 8
  store i64 %63, i64* %64, align 8
  %66 = getelementptr inbounds %"class.enterprise_connectors::EncryptedData", %"class.enterprise_connectors::EncryptedData"* %0, i64 0, i32 6
  %67 = getelementptr inbounds %"class.enterprise_connectors::EncryptedData", %"class.enterprise_connectors::EncryptedData"* %1, i64 0, i32 6
  %68 = bitcast %"struct.google::protobuf::internal::ArenaStringPtr"* %66 to i64*
  %69 = load i64, i64* %68, align 8
  %70 = bitcast %"struct.google::protobuf::internal::ArenaStringPtr"* %67 to i64*
  %71 = load i64, i64* %70, align 8
  store i64 %71, i64* %68, align 8
  store i64 %69, i64* %70, align 8
  %72 = getelementptr inbounds %"class.enterprise_connectors::EncryptedData", %"class.enterprise_connectors::EncryptedData"* %0, i64 0, i32 7
  %73 = getelementptr inbounds %"class.enterprise_connectors::EncryptedData", %"class.enterprise_connectors::EncryptedData"* %1, i64 0, i32 7
  %74 = bitcast %"struct.google::protobuf::internal::ArenaStringPtr"* %72 to i64*
  %75 = load i64, i64* %74, align 8
  %76 = bitcast %"struct.google::protobuf::internal::ArenaStringPtr"* %73 to i64*
  %77 = load i64, i64* %76, align 8
  store i64 %77, i64* %74, align 8
  store i64 %75, i64* %76, align 8
  ret void
}

; Function Attrs: nounwind ssp uwtable
define hidden void @_ZNK21enterprise_connectors13EncryptedData11GetTypeNameEv(%"class.std::__1::basic_string"* noalias sret, %"class.enterprise_connectors::EncryptedData"* nocapture readnone) unnamed_addr #0 align 2 {
  %3 = tail call i8* @_Znwm(i64 48) #15
  %4 = getelementptr inbounds %"class.std::__1::basic_string", %"class.std::__1::basic_string"* %0, i64 0, i32 0, i32 0, i32 0, i32 0, i32 0, i32 0
  store i8* %3, i8** %4, align 8
  %5 = getelementptr inbounds %"class.std::__1::basic_string", %"class.std::__1::basic_string"* %0, i64 0, i32 0, i32 0, i32 0, i32 0, i32 0, i32 1
  %6 = bitcast i64* %5 to <2 x i64>*
  store <2 x i64> <i64 35, i64 -9223372036854775760>, <2 x i64>* %6, align 8
  tail call void @llvm.memcpy.p0i8.p0i8.i64(i8* nonnull align 1 %3, i8* align 1 getelementptr inbounds ([36 x i8], [36 x i8]* @.str.12, i64 0, i64 0), i64 35, i1 false) #14
  %7 = getelementptr inbounds i8, i8* %3, i64 35
  store i8 0, i8* %7, align 1
  ret void
}

; Function Attrs: nounwind ssp uwtable
define hidden void @_ZN21enterprise_connectors10SignedDataC2EPN6google8protobuf5ArenaE(%"class.enterprise_connectors::SignedData"* nocapture, %"class.google::protobuf::Arena"*) unnamed_addr #0 align 2 {
  %3 = getelementptr inbounds %"class.enterprise_connectors::SignedData", %"class.enterprise_connectors::SignedData"* %0, i64 0, i32 0, i32 0
  %4 = getelementptr inbounds %"class.enterprise_connectors::SignedData", %"class.enterprise_connectors::SignedData"* %0, i64 0, i32 0, i32 1
  %5 = bitcast %"class.google::protobuf::internal::InternalMetadata"* %4 to %"class.google::protobuf::Arena"**
  store %"class.google::protobuf::Arena"* %1, %"class.google::protobuf::Arena"** %5, align 8
  store i32 (...)** bitcast (i8** getelementptr inbounds ({ [16 x i8*] }, { [16 x i8*] }* @_ZTVN21enterprise_connectors10SignedDataE, i64 0, inrange i32 0, i64 2) to i32 (...)**), i32 (...)*** %3, align 8
  %6 = getelementptr inbounds %"class.enterprise_connectors::SignedData", %"class.enterprise_connectors::SignedData"* %0, i64 0, i32 1, i32 0, i64 0
  store i32 0, i32* %6, align 4
  %7 = getelementptr inbounds %"class.enterprise_connectors::SignedData", %"class.enterprise_connectors::SignedData"* %0, i64 0, i32 2, i32 0, i32 0, i32 0, i32 0, i32 0, i32 0
  store i32 0, i32* %7, align 4
  %8 = load atomic i32, i32* getelementptr inbounds ({ { { { i32 } }, i32, i32, void ()* }, [0 x i8*] }, { { { { i32 } }, i32, i32, void ()* }, [0 x i8*] }* @scc_info_SignedData_device_5ftrust_5fattestation_5fca_2eproto, i64 0, i32 0, i32 0, i32 0, i32 0) acquire, align 8
  %9 = icmp eq i32 %8, 0
  br i1 %9, label %11, label %10, !prof !3

10:                                               ; preds = %2
  tail call void @_ZN6google8protobuf8internal11InitSCCImplEPNS1_11SCCInfoBaseE(%"struct.google::protobuf::internal::SCCInfoBase"* bitcast ({ { { { i32 } }, i32, i32, void ()* }, [0 x i8*] }* @scc_info_SignedData_device_5ftrust_5fattestation_5fca_2eproto to %"struct.google::protobuf::internal::SCCInfoBase"*)) #14
  br label %11

11:                                               ; preds = %2, %10
  %12 = getelementptr inbounds %"class.enterprise_connectors::SignedData", %"class.enterprise_connectors::SignedData"* %0, i64 0, i32 3, i32 0
  %13 = bitcast %"class.std::__1::basic_string"** %12 to <2 x %"class.std::__1::basic_string"*>*
  store <2 x %"class.std::__1::basic_string"*> <%"class.std::__1::basic_string"* bitcast (%"class.google::protobuf::internal::ExplicitlyConstructed.18"* @_ZN6google8protobuf8internal26fixed_address_empty_stringE to %"class.std::__1::basic_string"*), %"class.std::__1::basic_string"* bitcast (%"class.google::protobuf::internal::ExplicitlyConstructed.18"* @_ZN6google8protobuf8internal26fixed_address_empty_stringE to %"class.std::__1::basic_string"*)>, <2 x %"class.std::__1::basic_string"*>* %13, align 8
  ret void
}

; Function Attrs: nounwind ssp uwtable
define hidden void @_ZN21enterprise_connectors10SignedDataC2ERKS0_(%"class.enterprise_connectors::SignedData"*, %"class.enterprise_connectors::SignedData"* nocapture readonly dereferenceable(40)) unnamed_addr #0 align 2 {
  %3 = getelementptr inbounds %"class.enterprise_connectors::SignedData", %"class.enterprise_connectors::SignedData"* %0, i64 0, i32 0, i32 0
  %4 = getelementptr inbounds %"class.enterprise_connectors::SignedData", %"class.enterprise_connectors::SignedData"* %0, i64 0, i32 0, i32 1, i32 0
  store i8* null, i8** %4, align 8
  store i32 (...)** bitcast (i8** getelementptr inbounds ({ [16 x i8*] }, { [16 x i8*] }* @_ZTVN21enterprise_connectors10SignedDataE, i64 0, inrange i32 0, i64 2) to i32 (...)**), i32 (...)*** %3, align 8
  %5 = getelementptr inbounds %"class.enterprise_connectors::SignedData", %"class.enterprise_connectors::SignedData"* %1, i64 0, i32 1, i32 0, i64 0
  %6 = getelementptr inbounds %"class.enterprise_connectors::SignedData", %"class.enterprise_connectors::SignedData"* %0, i64 0, i32 1, i32 0, i64 0
  %7 = load i32, i32* %5, align 8
  store i32 %7, i32* %6, align 8
  %8 = getelementptr inbounds %"class.enterprise_connectors::SignedData", %"class.enterprise_connectors::SignedData"* %0, i64 0, i32 2, i32 0, i32 0, i32 0, i32 0, i32 0, i32 0
  store i32 0, i32* %8, align 4
  %9 = getelementptr inbounds %"class.enterprise_connectors::SignedData", %"class.enterprise_connectors::SignedData"* %0, i64 0, i32 0, i32 1
  %10 = getelementptr inbounds %"class.enterprise_connectors::SignedData", %"class.enterprise_connectors::SignedData"* %1, i64 0, i32 0, i32 1
  %11 = bitcast %"class.google::protobuf::internal::InternalMetadata"* %10 to i64*
  %12 = load i64, i64* %11, align 8
  %13 = and i64 %12, 1
  %14 = icmp eq i64 %13, 0
  br i1 %14, label %33, label %15

15:                                               ; preds = %2
  %16 = and i64 %12, -2
  %17 = inttoptr i64 %16 to %"struct.google::protobuf::internal::InternalMetadata::Container"*
  %18 = getelementptr inbounds %"struct.google::protobuf::internal::InternalMetadata::Container", %"struct.google::protobuf::internal::InternalMetadata::Container"* %17, i64 0, i32 1
  %19 = tail call %"class.std::__1::basic_string"* @_ZN6google8protobuf8internal16InternalMetadata27mutable_unknown_fields_slowINSt3__112basic_stringIcNS4_11char_traitsIcEENS4_9allocatorIcEEEEEEPT_v(%"class.google::protobuf::internal::InternalMetadata"* %9) #14
  %20 = bitcast %"class.std::__1::basic_string"* %18 to %"struct.std::__1::basic_string<char, std::__1::char_traits<char>, std::__1::allocator<char> >::__short"*
  %21 = getelementptr inbounds %"struct.std::__1::basic_string<char, std::__1::char_traits<char>, std::__1::allocator<char> >::__short", %"struct.std::__1::basic_string<char, std::__1::char_traits<char>, std::__1::allocator<char> >::__short"* %20, i64 0, i32 1, i32 0
  %22 = load i8, i8* %21, align 1
  %23 = icmp slt i8 %22, 0
  %24 = getelementptr inbounds %"class.std::__1::basic_string", %"class.std::__1::basic_string"* %18, i64 0, i32 0, i32 0, i32 0, i32 0, i32 0, i32 0
  %25 = load i8*, i8** %24, align 8
  %26 = getelementptr inbounds %"struct.google::protobuf::internal::InternalMetadata::Container", %"struct.google::protobuf::internal::InternalMetadata::Container"* %17, i64 0, i32 1, i32 0, i32 0, i32 0, i32 0, i32 0, i32 1
  %27 = load i64, i64* %26, align 8
  %28 = bitcast %"class.std::__1::basic_string"* %18 to i8*
  %29 = zext i8 %22 to i64
  %30 = select i1 %23, i8* %25, i8* %28
  %31 = select i1 %23, i64 %27, i64 %29
  %32 = tail call dereferenceable(24) %"class.std::__1::basic_string"* @_ZNSt3__112basic_stringIcNS_11char_traitsIcEENS_9allocatorIcEEE6appendEPKcm(%"class.std::__1::basic_string"* %19, i8* %30, i64 %31) #14
  br label %33

33:                                               ; preds = %2, %15
  %34 = getelementptr inbounds %"class.enterprise_connectors::SignedData", %"class.enterprise_connectors::SignedData"* %0, i64 0, i32 3
  %35 = getelementptr inbounds %"struct.google::protobuf::internal::ArenaStringPtr", %"struct.google::protobuf::internal::ArenaStringPtr"* %34, i64 0, i32 0
  store %"class.std::__1::basic_string"* bitcast (%"class.google::protobuf::internal::ExplicitlyConstructed.18"* @_ZN6google8protobuf8internal26fixed_address_empty_stringE to %"class.std::__1::basic_string"*), %"class.std::__1::basic_string"** %35, align 8
  %36 = load i32, i32* %5, align 4
  %37 = and i32 %36, 1
  %38 = icmp eq i32 %37, 0
  br i1 %38, label %55, label %39

39:                                               ; preds = %33
  %40 = getelementptr inbounds %"class.enterprise_connectors::SignedData", %"class.enterprise_connectors::SignedData"* %1, i64 0, i32 3, i32 0
  %41 = load %"class.std::__1::basic_string"*, %"class.std::__1::basic_string"** %40, align 8
  %42 = bitcast %"class.google::protobuf::internal::InternalMetadata"* %9 to i64*
  %43 = load i64, i64* %42, align 8
  %44 = and i64 %43, 1
  %45 = icmp eq i64 %44, 0
  %46 = and i64 %43, -2
  br i1 %45, label %51, label %47, !prof !3

47:                                               ; preds = %39
  %48 = inttoptr i64 %46 to %"struct.google::protobuf::internal::InternalMetadata::ContainerBase"*
  %49 = getelementptr inbounds %"struct.google::protobuf::internal::InternalMetadata::ContainerBase", %"struct.google::protobuf::internal::InternalMetadata::ContainerBase"* %48, i64 0, i32 0
  %50 = load %"class.google::protobuf::Arena"*, %"class.google::protobuf::Arena"** %49, align 8
  br label %53

51:                                               ; preds = %39
  %52 = inttoptr i64 %46 to %"class.google::protobuf::Arena"*
  br label %53

53:                                               ; preds = %47, %51
  %54 = phi %"class.google::protobuf::Arena"* [ %50, %47 ], [ %52, %51 ]
  tail call void @_ZN6google8protobuf8internal14ArenaStringPtr14CreateInstanceEPNS0_5ArenaEPKNSt3__112basic_stringIcNS5_11char_traitsIcEENS5_9allocatorIcEEEE(%"struct.google::protobuf::internal::ArenaStringPtr"* %34, %"class.google::protobuf::Arena"* %54, %"class.std::__1::basic_string"* %41) #14
  br label %55

55:                                               ; preds = %33, %53
  %56 = getelementptr inbounds %"class.enterprise_connectors::SignedData", %"class.enterprise_connectors::SignedData"* %0, i64 0, i32 4
  %57 = getelementptr inbounds %"struct.google::protobuf::internal::ArenaStringPtr", %"struct.google::protobuf::internal::ArenaStringPtr"* %56, i64 0, i32 0
  store %"class.std::__1::basic_string"* bitcast (%"class.google::protobuf::internal::ExplicitlyConstructed.18"* @_ZN6google8protobuf8internal26fixed_address_empty_stringE to %"class.std::__1::basic_string"*), %"class.std::__1::basic_string"** %57, align 8
  %58 = load i32, i32* %5, align 4
  %59 = and i32 %58, 2
  %60 = icmp eq i32 %59, 0
  br i1 %60, label %77, label %61

61:                                               ; preds = %55
  %62 = getelementptr inbounds %"class.enterprise_connectors::SignedData", %"class.enterprise_connectors::SignedData"* %1, i64 0, i32 4, i32 0
  %63 = load %"class.std::__1::basic_string"*, %"class.std::__1::basic_string"** %62, align 8
  %64 = bitcast %"class.google::protobuf::internal::InternalMetadata"* %9 to i64*
  %65 = load i64, i64* %64, align 8
  %66 = and i64 %65, 1
  %67 = icmp eq i64 %66, 0
  %68 = and i64 %65, -2
  br i1 %67, label %73, label %69, !prof !3

69:                                               ; preds = %61
  %70 = inttoptr i64 %68 to %"struct.google::protobuf::internal::InternalMetadata::ContainerBase"*
  %71 = getelementptr inbounds %"struct.google::protobuf::internal::InternalMetadata::ContainerBase", %"struct.google::protobuf::internal::InternalMetadata::ContainerBase"* %70, i64 0, i32 0
  %72 = load %"class.google::protobuf::Arena"*, %"class.google::protobuf::Arena"** %71, align 8
  br label %75

73:                                               ; preds = %61
  %74 = inttoptr i64 %68 to %"class.google::protobuf::Arena"*
  br label %75

75:                                               ; preds = %69, %73
  %76 = phi %"class.google::protobuf::Arena"* [ %72, %69 ], [ %74, %73 ]
  tail call void @_ZN6google8protobuf8internal14ArenaStringPtr14CreateInstanceEPNS0_5ArenaEPKNSt3__112basic_stringIcNS5_11char_traitsIcEENS5_9allocatorIcEEEE(%"struct.google::protobuf::internal::ArenaStringPtr"* %56, %"class.google::protobuf::Arena"* %76, %"class.std::__1::basic_string"* %63) #14
  br label %77

77:                                               ; preds = %55, %75
  ret void
}

; Function Attrs: nounwind ssp uwtable
define hidden void @_ZN21enterprise_connectors10SignedDataD2Ev(%"class.enterprise_connectors::SignedData"*) unnamed_addr #0 align 2 {
