; ModuleID = '../../chrome/browser/media/router/providers/dial/dial_internal_message_util.cc'
source_filename = "../../chrome/browser/media/router/providers/dial/dial_internal_message_util.cc"
target datalayout = "e-m:e-i64:64-f80:128-n8:16:32:64-S128"
target triple = "x86_64-unknown-linux-gnu"

module asm ".symver exp, exp@GLIBC_2.2.5"
module asm ".symver exp2, exp2@GLIBC_2.2.5"
module asm ".symver exp2f, exp2f@GLIBC_2.2.5"
module asm ".symver expf, expf@GLIBC_2.2.5"
module asm ".symver lgamma, lgamma@GLIBC_2.2.5"
module asm ".symver lgammaf, lgammaf@GLIBC_2.2.5"
module asm ".symver lgammal, lgammal@GLIBC_2.2.5"
module asm ".symver log, log@GLIBC_2.2.5"
module asm ".symver log2, log2@GLIBC_2.2.5"
module asm ".symver log2f, log2f@GLIBC_2.2.5"
module asm ".symver logf, logf@GLIBC_2.2.5"
module asm ".symver pow, pow@GLIBC_2.2.5"
module asm ".symver powf, powf@GLIBC_2.2.5"

%"struct.media_router::DialInternalMessage" = type <{ i32, [4 x i8], %"class.absl::optional", %"class.std::__1::basic_string", i32, [4 x i8] }>
%"class.absl::optional" = type { %"class.absl::optional_internal::optional_data" }
%"class.absl::optional_internal::optional_data" = type { %"class.absl::optional_internal::optional_data_base" }
%"class.absl::optional_internal::optional_data_base" = type { %"class.absl::optional_internal::optional_data_dtor_base" }
%"class.absl::optional_internal::optional_data_dtor_base" = type { i8, %union.anon }
%union.anon = type { %"class.base::Value" }
%"class.base::Value" = type { %"class.absl::variant" }
%"class.absl::variant" = type { %"class.absl::variant_internal::VariantCopyAssignBaseNontrivial" }
%"class.absl::variant_internal::VariantCopyAssignBaseNontrivial" = type { %"class.absl::variant_internal::VariantMoveAssignBaseNontrivial" }
%"class.absl::variant_internal::VariantMoveAssignBaseNontrivial" = type { %"class.absl::variant_internal::VariantCopyBaseNontrivial" }
%"class.absl::variant_internal::VariantCopyBaseNontrivial" = type { %"class.absl::variant_internal::VariantMoveBaseNontrivial" }
%"class.absl::variant_internal::VariantMoveBaseNontrivial" = type { %"class.absl::variant_internal::VariantStateBaseDestructorNontrivial" }
%"class.absl::variant_internal::VariantStateBaseDestructorNontrivial" = type { %"class.absl::variant_internal::VariantStateBase" }
%"class.absl::variant_internal::VariantStateBase" = type { %"union.absl::variant_internal::DestructibleUnionImpl", i64 }
%"union.absl::variant_internal::DestructibleUnionImpl" = type { %"union.absl::variant_internal::DestructibleUnionImpl.0" }
%"union.absl::variant_internal::DestructibleUnionImpl.0" = type { %"union.absl::variant_internal::DestructibleUnionImpl.1" }
%"union.absl::variant_internal::DestructibleUnionImpl.1" = type { %"union.absl::variant_internal::DestructibleUnionImpl.2" }
%"union.absl::variant_internal::DestructibleUnionImpl.2" = type { %"union.absl::variant_internal::DestructibleUnionImpl.3" }
%"union.absl::variant_internal::DestructibleUnionImpl.3" = type { %"class.std::__1::basic_string" }
%"class.std::__1::basic_string" = type { %"class.std::__1::__compressed_pair.4" }
%"class.std::__1::__compressed_pair.4" = type { %"struct.std::__1::__compressed_pair_elem.5" }
%"struct.std::__1::__compressed_pair_elem.5" = type { %"struct.std::__1::basic_string<char, std::__1::char_traits<char>, std::__1::allocator<char> >::__rep" }
%"struct.std::__1::basic_string<char, std::__1::char_traits<char>, std::__1::allocator<char> >::__rep" = type { %union.anon.6 }
%union.anon.6 = type { %"struct.std::__1::basic_string<char, std::__1::char_traits<char>, std::__1::allocator<char> >::__long" }
%"struct.std::__1::basic_string<char, std::__1::char_traits<char>, std::__1::allocator<char> >::__long" = type { i8*, i64, i64 }
%"struct.media_router::CustomDialLaunchMessageBody" = type { i8, %"class.absl::optional.32" }
%"class.absl::optional.32" = type { %"class.absl::optional_internal::optional_data.33" }
%"class.absl::optional_internal::optional_data.33" = type { %"class.absl::optional_internal::optional_data_base.34" }
%"class.absl::optional_internal::optional_data_base.34" = type { %"class.absl::optional_internal::optional_data_dtor_base.35" }
%"class.absl::optional_internal::optional_data_dtor_base.35" = type { i8, %union.anon.36 }
%union.anon.36 = type { %"class.std::__1::basic_string" }
%"class.media_router::DialInternalMessageUtil" = type { %"class.std::__1::basic_string" }
%"struct.std::__1::basic_string<char, std::__1::char_traits<char>, std::__1::allocator<char> >::__short" = type { [23 x i8], %struct.anon }
%struct.anon = type { i8 }
%"class.mojo::StructPtr" = type { %"class.std::__1::unique_ptr.48" }
%"class.std::__1::unique_ptr.48" = type { %"class.std::__1::__compressed_pair.49" }
%"class.std::__1::__compressed_pair.49" = type { %"struct.std::__1::__compressed_pair_elem.50" }
%"struct.std::__1::__compressed_pair_elem.50" = type { %"class.media_router::mojom::RouteMessage"* }
%"class.media_router::mojom::RouteMessage" = type { i32, %"class.absl::optional.32", %"class.absl::optional.51" }
%"class.absl::optional.51" = type { %"class.absl::optional_internal::optional_data.52" }
%"class.absl::optional_internal::optional_data.52" = type { %"class.absl::optional_internal::optional_data_base.53" }
%"class.absl::optional_internal::optional_data_base.53" = type { %"class.absl::optional_internal::optional_data_dtor_base.54" }
%"class.absl::optional_internal::optional_data_dtor_base.54" = type { i8, %union.anon.55 }
%union.anon.55 = type { %"class.std::__1::vector" }
%"class.std::__1::vector" = type { %"class.std::__1::__vector_base" }
%"class.std::__1::__vector_base" = type { i8*, i8*, %"class.std::__1::__compressed_pair.9" }
%"class.std::__1::__compressed_pair.9" = type { %"struct.std::__1::__compressed_pair_elem.10" }
%"struct.std::__1::__compressed_pair_elem.10" = type { i8* }
%"class.media_router::MediaSinkInternal" = type { %"class.media_router::MediaSink", i32, %union.anon.41 }
%"class.media_router::MediaSink" = type { %"class.std::__1::basic_string", %"class.std::__1::basic_string", %"class.absl::optional.32", %"class.absl::optional.32", i32, i32 }
%union.anon.41 = type { %"struct.media_router::DialSinkExtraData" }
%"struct.media_router::DialSinkExtraData" = type { %"class.net::IPAddress", %"class.std::__1::basic_string", %class.GURL }
%"class.net::IPAddress" = type { %"class.net::IPAddressBytes" }
%"class.net::IPAddressBytes" = type { %"struct.std::__1::array", i8 }
%"struct.std::__1::array" = type { [16 x i8] }
%class.GURL = type { %"class.std::__1::basic_string", i8, %"struct.url::Parsed", %"class.std::__1::unique_ptr.42" }
%"struct.url::Parsed" = type { %"struct.url::Component", %"struct.url::Component", %"struct.url::Component", %"struct.url::Component", %"struct.url::Component", %"struct.url::Component", %"struct.url::Component", %"struct.url::Component", i8, %"struct.url::Parsed"* }
%"struct.url::Component" = type { i32, i32 }
%"class.std::__1::unique_ptr.42" = type { %"class.std::__1::__compressed_pair.43" }
%"class.std::__1::__compressed_pair.43" = type { %"struct.std::__1::__compressed_pair_elem.44" }
%"struct.std::__1::__compressed_pair_elem.44" = type { %class.GURL* }
%"class.base::ListValue" = type { %"class.base::Value" }
%"struct.std::__1::pair.67" = type <{ %"class.mojo::StructPtr", i32, [4 x i8] }>
%"struct.media_router::ParsedDialAppInfo" = type { %"class.std::__1::basic_string", %"class.std::__1::basic_string", i8, i32, %"class.std::__1::basic_string", %"class.std::__1::map" }
%"class.std::__1::map" = type { %"class.std::__1::__tree" }
%"class.std::__1::__tree" = type { %"class.std::__1::__tree_end_node"*, %"class.std::__1::__compressed_pair.59", %"class.std::__1::__compressed_pair.64" }
%"class.std::__1::__tree_end_node" = type { %"class.std::__1::__tree_node_base"* }
%"class.std::__1::__tree_node_base" = type <{ %"class.std::__1::__tree_end_node", %"class.std::__1::__tree_node_base"*, %"class.std::__1::__tree_end_node"*, i8, [7 x i8] }>
%"class.std::__1::__compressed_pair.59" = type { %"struct.std::__1::__compressed_pair_elem.60" }
%"struct.std::__1::__compressed_pair_elem.60" = type { %"class.std::__1::__tree_end_node" }
%"class.std::__1::__compressed_pair.64" = type { %"struct.std::__1::__compressed_pair_elem.65" }
%"struct.std::__1::__compressed_pair_elem.65" = type { i64 }
%"class.base::BasicStringPiece" = type { i8*, i64 }
%"class.std::__1::__basic_string_common" = type { i8 }

@.str = private unnamed_addr constant [35 x i8] c"Input message was not a dictionary\00", align 1
@.str.1 = private unnamed_addr constant [5 x i8] c"type\00", align 1
@.str.2 = private unnamed_addr constant [19 x i8] c"Missing type value\00", align 1
@.str.3 = private unnamed_addr constant [25 x i8] c"Unsupported message type\00", align 1
@.str.4 = private unnamed_addr constant [9 x i8] c"clientId\00", align 1
@.str.5 = private unnamed_addr constant [17 x i8] c"Missing clientId\00", align 1
@.str.6 = private unnamed_addr constant [8 x i8] c"message\00", align 1
@.str.7 = private unnamed_addr constant [15 x i8] c"sequenceNumber\00", align 1
@.str.8 = private unnamed_addr constant [9 x i8] c"doLaunch\00", align 1
@.str.9 = private unnamed_addr constant [16 x i8] c"launchParameter\00", align 1
@.str.10 = private unnamed_addr constant [5 x i8] c"STOP\00", align 1
@.str.11 = private unnamed_addr constant [5 x i8] c"code\00", align 1
@.str.12 = private unnamed_addr constant [12 x i8] c"description\00", align 1
@.str.13 = private unnamed_addr constant [16 x i8] c"http_error_code\00", align 1
@.str.14 = private unnamed_addr constant [8 x i8] c"details\00", align 1
@.str.15 = private unnamed_addr constant [6 x i8] c"label\00", align 1
@.str.16 = private unnamed_addr constant [13 x i8] c"friendlyName\00", align 1
@.str.17 = private unnamed_addr constant [13 x i8] c"capabilities\00", align 1
@.str.18 = private unnamed_addr constant [7 x i8] c"volume\00", align 1
@.str.19 = private unnamed_addr constant [14 x i8] c"isActiveInput\00", align 1
@.str.20 = private unnamed_addr constant [14 x i8] c"displayStatus\00", align 1
@.str.21 = private unnamed_addr constant [13 x i8] c"receiverType\00", align 1
@.str.22 = private unnamed_addr constant [5 x i8] c"dial\00", align 1
@.str.23 = private unnamed_addr constant [10 x i8] c"ipAddress\00", align 1
@.str.24 = private unnamed_addr constant [9 x i8] c"receiver\00", align 1
@.str.25 = private unnamed_addr constant [7 x i8] c"action\00", align 1
@.str.26 = private unnamed_addr constant [10 x i8] c"sessionId\00", align 1
@.str.27 = private unnamed_addr constant [6 x i8] c"appId\00", align 1
@.str.28 = private unnamed_addr constant [1 x i8] zeroinitializer, align 1
@.str.29 = private unnamed_addr constant [12 x i8] c"displayName\00", align 1
@.str.30 = private unnamed_addr constant [11 x i8] c"statusText\00", align 1
@.str.31 = private unnamed_addr constant [10 x i8] c"appImages\00", align 1
@.str.32 = private unnamed_addr constant [11 x i8] c"senderApps\00", align 1
@.str.33 = private unnamed_addr constant [11 x i8] c"namespaces\00", align 1
@.str.34 = private unnamed_addr constant [6 x i8] c"media\00", align 1
@.str.35 = private unnamed_addr constant [7 x i8] c"status\00", align 1
@.str.36 = private unnamed_addr constant [10 x i8] c"connected\00", align 1
@.str.37 = private unnamed_addr constant [12 x i8] c"transportId\00", align 1
@.str.38 = private unnamed_addr constant [9 x i8] c"appState\00", align 1
@.str.39 = private unnamed_addr constant [10 x i8] c"extraData\00", align 1
@.str.40 = private unnamed_addr constant [14 x i8] c"timeoutMillis\00", align 1
@.str.43 = private unnamed_addr constant [15 x i8] c"client_connect\00", align 1
@.str.44 = private unnamed_addr constant [11 x i8] c"v2_message\00", align 1
@.str.45 = private unnamed_addr constant [16 x i8] c"receiver_action\00", align 1
@.str.46 = private unnamed_addr constant [12 x i8] c"new_session\00", align 1
@.str.47 = private unnamed_addr constant [19 x i8] c"custom_dial_launch\00", align 1
@.str.48 = private unnamed_addr constant [14 x i8] c"dial_app_info\00", align 1
@.str.49 = private unnamed_addr constant [6 x i8] c"error\00", align 1
@_ZZN12media_router12_GLOBAL__N_131GetNextDialLaunchSequenceNumberEvE15next_seq_number = internal unnamed_addr global i32 0, align 4
@.str.50 = private unnamed_addr constant [14 x i8] c"network_error\00", align 1
@.str.51 = private unnamed_addr constant [14 x i8] c"parsing_error\00", align 1
@.str.52 = private unnamed_addr constant [11 x i8] c"http_error\00", align 1
@_ZZN12media_router12_GLOBAL__N_116GetNextSessionIdEvE10session_id = internal unnamed_addr global i32 0, align 4
@.str.56 = private unnamed_addr constant [8 x i8] c"unknown\00", align 1

@_ZN12media_router19DialInternalMessageC1ENS_23DialInternalMessageTypeEN4absl8optionalIN4base5ValueEEERKNSt3__112basic_stringIcNS7_11char_traitsIcEENS7_9allocatorIcEEEEi = hidden unnamed_addr alias void (%"struct.media_router::DialInternalMessage"*, i32, %"class.absl::optional"*, %"class.std::__1::basic_string"*, i32), void (%"struct.media_router::DialInternalMessage"*, i32, %"class.absl::optional"*, %"class.std::__1::basic_string"*, i32)* @_ZN12media_router19DialInternalMessageC2ENS_23DialInternalMessageTypeEN4absl8optionalIN4base5ValueEEERKNSt3__112basic_stringIcNS7_11char_traitsIcEENS7_9allocatorIcEEEEi
@_ZN12media_router19DialInternalMessageD1Ev = hidden unnamed_addr alias void (%"struct.media_router::DialInternalMessage"*), void (%"struct.media_router::DialInternalMessage"*)* @_ZN12media_router19DialInternalMessageD2Ev
@_ZN12media_router27CustomDialLaunchMessageBodyC1Ev = hidden unnamed_addr alias void (%"struct.media_router::CustomDialLaunchMessageBody"*), void (%"struct.media_router::CustomDialLaunchMessageBody"*)* @_ZN12media_router27CustomDialLaunchMessageBodyC2Ev
@_ZN12media_router27CustomDialLaunchMessageBodyC1EbRKN4absl8optionalINSt3__112basic_stringIcNS3_11char_traitsIcEENS3_9allocatorIcEEEEEE = hidden unnamed_addr alias void (%"struct.media_router::CustomDialLaunchMessageBody"*, i1, %"class.absl::optional.32"*), void (%"struct.media_router::CustomDialLaunchMessageBody"*, i1, %"class.absl::optional.32"*)* @_ZN12media_router27CustomDialLaunchMessageBodyC2EbRKN4absl8optionalINSt3__112basic_stringIcNS3_11char_traitsIcEENS3_9allocatorIcEEEEEE
@_ZN12media_router27CustomDialLaunchMessageBodyC1ERKS0_ = hidden unnamed_addr alias void (%"struct.media_router::CustomDialLaunchMessageBody"*, %"struct.media_router::CustomDialLaunchMessageBody"*), void (%"struct.media_router::CustomDialLaunchMessageBody"*, %"struct.media_router::CustomDialLaunchMessageBody"*)* @_ZN12media_router27CustomDialLaunchMessageBodyC2ERKS0_
@_ZN12media_router27CustomDialLaunchMessageBodyD1Ev = hidden unnamed_addr alias void (%"struct.media_router::CustomDialLaunchMessageBody"*), void (%"struct.media_router::CustomDialLaunchMessageBody"*)* @_ZN12media_router27CustomDialLaunchMessageBodyD2Ev
@_ZN12media_router23DialInternalMessageUtilC1ERKNSt3__112basic_stringIcNS1_11char_traitsIcEENS1_9allocatorIcEEEE = hidden unnamed_addr alias void (%"class.media_router::DialInternalMessageUtil"*, %"class.std::__1::basic_string"*), void (%"class.media_router::DialInternalMessageUtil"*, %"class.std::__1::basic_string"*)* @_ZN12media_router23DialInternalMessageUtilC2ERKNSt3__112basic_stringIcNS1_11char_traitsIcEENS1_9allocatorIcEEEE
@_ZN12media_router23DialInternalMessageUtilD1Ev = hidden unnamed_addr alias void (%"class.media_router::DialInternalMessageUtil"*), void (%"class.media_router::DialInternalMessageUtil"*)* @_ZN12media_router23DialInternalMessageUtilD2Ev

; Function Attrs: nounwind ssp uwtable
define hidden %"struct.media_router::DialInternalMessage"* @_ZN12media_router19DialInternalMessage4FromEN4base5ValueEPNSt3__112basic_stringIcNS3_11char_traitsIcEENS3_9allocatorIcEEEE(%"class.base::Value"*, %"class.std::__1::basic_string"*) local_unnamed_addr #0 align 2 {
  %3 = alloca %"class.absl::optional", align 8
  %4 = alloca %"class.absl::optional", align 8
  %5 = getelementptr inbounds %"class.base::Value", %"class.base::Value"* %0, i64 0, i32 0, i32 0, i32 0, i32 0, i32 0, i32 0, i32 0, i32 1
  %6 = load i64, i64* %5, align 8
  %7 = trunc i64 %6 to i8
  %8 = icmp eq i8 %7, 6
  br i1 %8, label %11, label %9

9:                                                ; preds = %2
  %10 = tail call dereferenceable(24) %"class.std::__1::basic_string"* @_ZNSt3__112basic_stringIcNS_11char_traitsIcEENS_9allocatorIcEEE17__assign_externalEPKcm(%"class.std::__1::basic_string"* %1, i8* getelementptr inbounds ([35 x i8], [35 x i8]* @.str, i64 0, i64 0), i64 34) #8
  br label %205

11:                                               ; preds = %2
  %12 = tail call %"class.base::Value"* @_ZN4base5Value13FindKeyOfTypeENS_16BasicStringPieceIcNSt3__111char_traitsIcEEEENS0_4TypeE(%"class.base::Value"* %0, i8* getelementptr inbounds ([5 x i8], [5 x i8]* @.str.1, i64 0, i64 0), i64 4, i8 zeroext 4) #8
  %13 = icmp eq %"class.base::Value"* %12, null
  br i1 %13, label %14, label %28

14:                                               ; preds = %11
  %15 = bitcast %"class.std::__1::basic_string"* %1 to %"struct.std::__1::basic_string<char, std::__1::char_traits<char>, std::__1::allocator<char> >::__short"*
  %16 = getelementptr inbounds %"struct.std::__1::basic_string<char, std::__1::char_traits<char>, std::__1::allocator<char> >::__short", %"struct.std::__1::basic_string<char, std::__1::char_traits<char>, std::__1::allocator<char> >::__short"* %15, i64 0, i32 1, i32 0
  %17 = load i8, i8* %16, align 1
  %18 = icmp slt i8 %17, 0
  br i1 %18, label %19, label %23

19:                                               ; preds = %14
  %20 = getelementptr inbounds %"class.std::__1::basic_string", %"class.std::__1::basic_string"* %1, i64 0, i32 0, i32 0, i32 0, i32 0, i32 0, i32 1
  store i64 18, i64* %20, align 8
  %21 = getelementptr inbounds %"class.std::__1::basic_string", %"class.std::__1::basic_string"* %1, i64 0, i32 0, i32 0, i32 0, i32 0, i32 0, i32 0
  %22 = load i8*, i8** %21, align 8
  br label %25

23:                                               ; preds = %14
  store i8 18, i8* %16, align 1
  %24 = bitcast %"class.std::__1::basic_string"* %1 to i8*
  br label %25

25:                                               ; preds = %19, %23
  %26 = phi i8* [ %22, %19 ], [ %24, %23 ]
  tail call void @llvm.memcpy.p0i8.p0i8.i64(i8* align 1 %26, i8* align 1 getelementptr inbounds ([19 x i8], [19 x i8]* @.str.2, i64 0, i64 0), i64 18, i1 false) #8
  %27 = getelementptr inbounds i8, i8* %26, i64 18
  store i8 0, i8* %27, align 1
  br label %205

28:                                               ; preds = %11
  %29 = tail call dereferenceable(24) %"class.std::__1::basic_string"* @_ZN4base5Value9GetStringEv(%"class.base::Value"* nonnull %12) #8
  %30 = bitcast %"class.std::__1::basic_string"* %29 to %"struct.std::__1::basic_string<char, std::__1::char_traits<char>, std::__1::allocator<char> >::__short"*
  %31 = getelementptr inbounds %"struct.std::__1::basic_string<char, std::__1::char_traits<char>, std::__1::allocator<char> >::__short", %"struct.std::__1::basic_string<char, std::__1::char_traits<char>, std::__1::allocator<char> >::__short"* %30, i64 0, i32 1, i32 0
  %32 = load i8, i8* %31, align 1
  %33 = icmp slt i8 %32, 0
  %34 = getelementptr inbounds %"class.std::__1::basic_string", %"class.std::__1::basic_string"* %29, i64 0, i32 0, i32 0, i32 0, i32 0, i32 0, i32 1
  %35 = load i64, i64* %34, align 8
  %36 = zext i8 %32 to i64
  %37 = select i1 %33, i64 %35, i64 %36
  %38 = icmp eq i64 %37, 14
  br i1 %38, label %39, label %46

39:                                               ; preds = %28
  %40 = tail call i32 @_ZNKSt3__112basic_stringIcNS_11char_traitsIcEENS_9allocatorIcEEE7compareEmmPKcm(%"class.std::__1::basic_string"* %29, i64 0, i64 -1, i8* getelementptr inbounds ([15 x i8], [15 x i8]* @.str.43, i64 0, i64 0), i64 14) #8
  %41 = icmp eq i32 %40, 0
  br i1 %41, label %128, label %42

42:                                               ; preds = %39
  %43 = load i8, i8* %31, align 1
  %44 = load i64, i64* %34, align 8
  %45 = zext i8 %43 to i64
  br label %46

46:                                               ; preds = %42, %28
  %47 = phi i64 [ %45, %42 ], [ %36, %28 ]
  %48 = phi i64 [ %44, %42 ], [ %35, %28 ]
  %49 = phi i8 [ %43, %42 ], [ %32, %28 ]
  %50 = icmp slt i8 %49, 0
  %51 = select i1 %50, i64 %48, i64 %47
  %52 = icmp eq i64 %51, 10
  br i1 %52, label %53, label %60

53:                                               ; preds = %46
  %54 = tail call i32 @_ZNKSt3__112basic_stringIcNS_11char_traitsIcEENS_9allocatorIcEEE7compareEmmPKcm(%"class.std::__1::basic_string"* %29, i64 0, i64 -1, i8* getelementptr inbounds ([11 x i8], [11 x i8]* @.str.44, i64 0, i64 0), i64 10) #8
  %55 = icmp eq i32 %54, 0
  br i1 %55, label %128, label %56

56:                                               ; preds = %53
  %57 = load i8, i8* %31, align 1
  %58 = load i64, i64* %34, align 8
  %59 = zext i8 %57 to i64
  br label %60

60:                                               ; preds = %56, %46
  %61 = phi i64 [ %59, %56 ], [ %47, %46 ]
  %62 = phi i64 [ %58, %56 ], [ %48, %46 ]
  %63 = phi i8 [ %57, %56 ], [ %49, %46 ]
  %64 = icmp slt i8 %63, 0
  %65 = select i1 %64, i64 %62, i64 %61
  %66 = icmp eq i64 %65, 15
  br i1 %66, label %67, label %74

67:                                               ; preds = %60
  %68 = tail call i32 @_ZNKSt3__112basic_stringIcNS_11char_traitsIcEENS_9allocatorIcEEE7compareEmmPKcm(%"class.std::__1::basic_string"* %29, i64 0, i64 -1, i8* getelementptr inbounds ([16 x i8], [16 x i8]* @.str.45, i64 0, i64 0), i64 15) #8
  %69 = icmp eq i32 %68, 0
  br i1 %69, label %128, label %70

70:                                               ; preds = %67
  %71 = load i8, i8* %31, align 1
  %72 = load i64, i64* %34, align 8
  %73 = zext i8 %71 to i64
  br label %74

74:                                               ; preds = %70, %60
  %75 = phi i64 [ %73, %70 ], [ %61, %60 ]
  %76 = phi i64 [ %72, %70 ], [ %62, %60 ]
  %77 = phi i8 [ %71, %70 ], [ %63, %60 ]
  %78 = icmp slt i8 %77, 0
  %79 = select i1 %78, i64 %76, i64 %75
  %80 = icmp eq i64 %79, 11
  br i1 %80, label %81, label %88

81:                                               ; preds = %74
  %82 = tail call i32 @_ZNKSt3__112basic_stringIcNS_11char_traitsIcEENS_9allocatorIcEEE7compareEmmPKcm(%"class.std::__1::basic_string"* %29, i64 0, i64 -1, i8* getelementptr inbounds ([12 x i8], [12 x i8]* @.str.46, i64 0, i64 0), i64 11) #8
  %83 = icmp eq i32 %82, 0
  br i1 %83, label %128, label %84

84:                                               ; preds = %81
  %85 = load i8, i8* %31, align 1
  %86 = load i64, i64* %34, align 8
  %87 = zext i8 %85 to i64
  br label %88

88:                                               ; preds = %84, %74
  %89 = phi i64 [ %87, %84 ], [ %75, %74 ]
  %90 = phi i64 [ %86, %84 ], [ %76, %74 ]
  %91 = phi i8 [ %85, %84 ], [ %77, %74 ]
  %92 = icmp slt i8 %91, 0
  %93 = select i1 %92, i64 %90, i64 %89
  %94 = icmp eq i64 %93, 18
  br i1 %94, label %95, label %102

95:                                               ; preds = %88
  %96 = tail call i32 @_ZNKSt3__112basic_stringIcNS_11char_traitsIcEENS_9allocatorIcEEE7compareEmmPKcm(%"class.std::__1::basic_string"* %29, i64 0, i64 -1, i8* getelementptr inbounds ([19 x i8], [19 x i8]* @.str.47, i64 0, i64 0), i64 18) #8
  %97 = icmp eq i32 %96, 0
  br i1 %97, label %128, label %98

98:                                               ; preds = %95
  %99 = load i8, i8* %31, align 1
  %100 = load i64, i64* %34, align 8
  %101 = zext i8 %99 to i64
  br label %102

102:                                              ; preds = %98, %88
  %103 = phi i64 [ %101, %98 ], [ %89, %88 ]
  %104 = phi i64 [ %100, %98 ], [ %90, %88 ]
  %105 = phi i8 [ %99, %98 ], [ %91, %88 ]
  %106 = icmp slt i8 %105, 0
  %107 = select i1 %106, i64 %104, i64 %103
  %108 = icmp eq i64 %107, 13
  br i1 %108, label %109, label %116

109:                                              ; preds = %102
  %110 = tail call i32 @_ZNKSt3__112basic_stringIcNS_11char_traitsIcEENS_9allocatorIcEEE7compareEmmPKcm(%"class.std::__1::basic_string"* %29, i64 0, i64 -1, i8* getelementptr inbounds ([14 x i8], [14 x i8]* @.str.48, i64 0, i64 0), i64 13) #8
  %111 = icmp eq i32 %110, 0
  br i1 %111, label %128, label %112

112:                                              ; preds = %109
  %113 = load i8, i8* %31, align 1
  %114 = load i64, i64* %34, align 8
  %115 = zext i8 %113 to i64
  br label %116

116:                                              ; preds = %112, %102
  %117 = phi i64 [ %115, %112 ], [ %103, %102 ]
  %118 = phi i64 [ %114, %112 ], [ %104, %102 ]
  %119 = phi i8 [ %113, %112 ], [ %105, %102 ]
  %120 = icmp slt i8 %119, 0
  %121 = select i1 %120, i64 %118, i64 %117
  %122 = icmp eq i64 %121, 5
  br i1 %122, label %123, label %126

123:                                              ; preds = %116
  %124 = tail call i32 @_ZNKSt3__112basic_stringIcNS_11char_traitsIcEENS_9allocatorIcEEE7compareEmmPKcm(%"class.std::__1::basic_string"* %29, i64 0, i64 -1, i8* getelementptr inbounds ([6 x i8], [6 x i8]* @.str.49, i64 0, i64 0), i64 5) #8
  %125 = icmp eq i32 %124, 0
  br i1 %125, label %128, label %126

126:                                              ; preds = %123, %116
  %127 = tail call dereferenceable(24) %"class.std::__1::basic_string"* @_ZNSt3__112basic_stringIcNS_11char_traitsIcEENS_9allocatorIcEEE17__assign_externalEPKcm(%"class.std::__1::basic_string"* %1, i8* getelementptr inbounds ([25 x i8], [25 x i8]* @.str.3, i64 0, i64 0), i64 24) #8
  br label %205

128:                                              ; preds = %123, %39, %53, %67, %81, %95, %109
  %129 = phi i32 [ 6, %109 ], [ 5, %95 ], [ 2, %81 ], [ 3, %67 ], [ 1, %53 ], [ 0, %39 ], [ 4, %123 ]
  %130 = tail call %"class.base::Value"* @_ZN4base5Value13FindKeyOfTypeENS_16BasicStringPieceIcNSt3__111char_traitsIcEEEENS0_4TypeE(%"class.base::Value"* %0, i8* getelementptr inbounds ([9 x i8], [9 x i8]* @.str.4, i64 0, i64 0), i64 8, i8 zeroext 4) #8
  %131 = icmp eq %"class.base::Value"* %130, null
  br i1 %131, label %132, label %146

132:                                              ; preds = %128
  %133 = bitcast %"class.std::__1::basic_string"* %1 to %"struct.std::__1::basic_string<char, std::__1::char_traits<char>, std::__1::allocator<char> >::__short"*
  %134 = getelementptr inbounds %"struct.std::__1::basic_string<char, std::__1::char_traits<char>, std::__1::allocator<char> >::__short", %"struct.std::__1::basic_string<char, std::__1::char_traits<char>, std::__1::allocator<char> >::__short"* %133, i64 0, i32 1, i32 0
  %135 = load i8, i8* %134, align 1
  %136 = icmp slt i8 %135, 0
  br i1 %136, label %137, label %141

137:                                              ; preds = %132
  %138 = getelementptr inbounds %"class.std::__1::basic_string", %"class.std::__1::basic_string"* %1, i64 0, i32 0, i32 0, i32 0, i32 0, i32 0, i32 1
  store i64 16, i64* %138, align 8
  %139 = getelementptr inbounds %"class.std::__1::basic_string", %"class.std::__1::basic_string"* %1, i64 0, i32 0, i32 0, i32 0, i32 0, i32 0, i32 0
  %140 = load i8*, i8** %139, align 8
  br label %143

141:                                              ; preds = %132
  store i8 16, i8* %134, align 1
  %142 = bitcast %"class.std::__1::basic_string"* %1 to i8*
  br label %143

143:                                              ; preds = %137, %141
  %144 = phi i8* [ %140, %137 ], [ %142, %141 ]
  tail call void @llvm.memcpy.p0i8.p0i8.i64(i8* align 1 %144, i8* align 1 getelementptr inbounds ([17 x i8], [17 x i8]* @.str.5, i64 0, i64 0), i64 16, i1 false) #8
  %145 = getelementptr inbounds i8, i8* %144, i64 16
  store i8 0, i8* %145, align 1
  br label %205

146:                                              ; preds = %128
  %147 = getelementptr inbounds %"class.absl::optional", %"class.absl::optional"* %4, i64 0, i32 0, i32 0, i32 0, i32 0
  call void @llvm.lifetime.start.p0i8(i64 40, i8* nonnull %147) #8
  %148 = bitcast %"class.absl::optional"* %4 to i64*
  store i64 -6148914691236517206, i64* %148, align 8
  store i8 0, i8* %147, align 8
  %149 = getelementptr inbounds %"class.absl::optional", %"class.absl::optional"* %4, i64 0, i32 0, i32 0, i32 0, i32 1
  %150 = bitcast %union.anon* %149 to i8*
  call void @llvm.memset.p0i8.i64(i8* align 8 %150, i8 0, i64 32, i1 false) #8
  %151 = tail call %"class.base::Value"* @_ZN4base5Value7FindKeyENS_16BasicStringPieceIcNSt3__111char_traitsIcEEEE(%"class.base::Value"* %0, i8* getelementptr inbounds ([8 x i8], [8 x i8]* @.str.6, i64 0, i64 0), i64 7) #8
  %152 = icmp eq %"class.base::Value"* %151, null
  br i1 %152, label %155, label %153

153:                                              ; preds = %146
  %154 = getelementptr inbounds %"class.absl::optional", %"class.absl::optional"* %4, i64 0, i32 0, i32 0, i32 0, i32 1, i32 0
  call void @_ZN4base5ValueC1EOS0_(%"class.base::Value"* %154, %"class.base::Value"* nonnull dereferenceable(32) %151) #8
  store i8 1, i8* %147, align 8
  br label %155

155:                                              ; preds = %153, %146
  %156 = call %"class.base::Value"* @_ZN4base5Value13FindKeyOfTypeENS_16BasicStringPieceIcNSt3__111char_traitsIcEEEENS0_4TypeE(%"class.base::Value"* %0, i8* getelementptr inbounds ([15 x i8], [15 x i8]* @.str.7, i64 0, i64 0), i64 14, i8 zeroext 2) #8
  %157 = icmp eq %"class.base::Value"* %156, null
  br i1 %157, label %160, label %158

158:                                              ; preds = %155
  %159 = call i32 @_ZNK4base5Value6GetIntEv(%"class.base::Value"* nonnull %156) #8
  br label %160

160:                                              ; preds = %155, %158
  %161 = phi i32 [ -1, %155 ], [ %159, %158 ]
  %162 = call dereferenceable(24) %"class.std::__1::basic_string"* @_ZN4base5Value9GetStringEv(%"class.base::Value"* nonnull %130) #8
  %163 = getelementptr inbounds %"class.absl::optional", %"class.absl::optional"* %3, i64 0, i32 0, i32 0, i32 0, i32 0
  call void @llvm.lifetime.start.p0i8(i64 40, i8* nonnull %163)
  %164 = call i8* @_Znwm(i64 80) #9
  %165 = bitcast i8* %164 to %"struct.media_router::DialInternalMessage"*
  call void @llvm.memset.p0i8.i64(i8* nonnull align 8 %163, i8 0, i64 40, i1 false) #8
  %166 = load i8, i8* %147, align 8, !range !2
  %167 = icmp eq i8 %166, 0
  br i1 %167, label %168, label %171

168:                                              ; preds = %160
  %169 = bitcast i8* %164 to i32*
  store i32 %129, i32* %169, align 8
  %170 = getelementptr inbounds i8, i8* %164, i64 8
  call void @llvm.memset.p0i8.i64(i8* align 8 %170, i8 0, i64 40, i1 false) #8
  br label %178

171:                                              ; preds = %160
  %172 = getelementptr inbounds %"class.absl::optional", %"class.absl::optional"* %4, i64 0, i32 0, i32 0, i32 0, i32 1, i32 0
  %173 = getelementptr inbounds %"class.absl::optional", %"class.absl::optional"* %3, i64 0, i32 0, i32 0, i32 0, i32 1, i32 0
  call void @_ZN4base5ValueC1EOS0_(%"class.base::Value"* %173, %"class.base::Value"* dereferenceable(32) %172) #8
  store i8 1, i8* %163, align 8
  %174 = bitcast i8* %164 to i32*
  store i32 %129, i32* %174, align 8
  %175 = getelementptr inbounds i8, i8* %164, i64 8
  call void @llvm.memset.p0i8.i64(i8* align 8 %175, i8 0, i64 40, i1 false) #8
  %176 = getelementptr inbounds i8, i8* %164, i64 16
  %177 = bitcast i8* %176 to %"class.base::Value"*
  call void @_ZN4base5ValueC1EOS0_(%"class.base::Value"* %177, %"class.base::Value"* dereferenceable(32) %173) #8
  store i8 1, i8* %175, align 8
  br label %178

178:                                              ; preds = %171, %168
  %179 = getelementptr inbounds i8, i8* %164, i64 48
  %180 = bitcast %"class.std::__1::basic_string"* %162 to %"struct.std::__1::basic_string<char, std::__1::char_traits<char>, std::__1::allocator<char> >::__short"*
  %181 = getelementptr inbounds %"struct.std::__1::basic_string<char, std::__1::char_traits<char>, std::__1::allocator<char> >::__short", %"struct.std::__1::basic_string<char, std::__1::char_traits<char>, std::__1::allocator<char> >::__short"* %180, i64 0, i32 1, i32 0
  %182 = load i8, i8* %181, align 1
  %183 = icmp slt i8 %182, 0
  br i1 %183, label %186, label %184

184:                                              ; preds = %178
  %185 = bitcast %"class.std::__1::basic_string"* %162 to i8*
  call void @llvm.memcpy.p0i8.p0i8.i64(i8* align 8 %179, i8* align 8 %185, i64 24, i1 false) #8
  br label %192

186:                                              ; preds = %178
  %187 = bitcast i8* %179 to %"class.std::__1::basic_string"*
  %188 = getelementptr inbounds %"class.std::__1::basic_string", %"class.std::__1::basic_string"* %162, i64 0, i32 0, i32 0, i32 0, i32 0, i32 0, i32 0
  %189 = load i8*, i8** %188, align 8
  %190 = getelementptr inbounds %"class.std::__1::basic_string", %"class.std::__1::basic_string"* %162, i64 0, i32 0, i32 0, i32 0, i32 0, i32 0, i32 1
  %191 = load i64, i64* %190, align 8
  call void @_ZNSt3__112basic_stringIcNS_11char_traitsIcEENS_9allocatorIcEEE25__init_copy_ctor_externalEPKcm(%"class.std::__1::basic_string"* %187, i8* %189, i64 %191) #8
  br label %192

192:                                              ; preds = %186, %184
  %193 = getelementptr inbounds i8, i8* %164, i64 72
  %194 = bitcast i8* %193 to i32*
  store i32 %161, i32* %194, align 8
  %195 = load i8, i8* %163, align 8, !range !2
  %196 = icmp eq i8 %195, 0
  br i1 %196, label %199, label %197

197:                                              ; preds = %192
  %198 = getelementptr inbounds %"class.absl::optional", %"class.absl::optional"* %3, i64 0, i32 0, i32 0, i32 0, i32 1, i32 0
  call void @_ZN4base5ValueD1Ev(%"class.base::Value"* %198) #8
  store i8 0, i8* %163, align 8
  br label %199

199:                                              ; preds = %192, %197
  call void @llvm.lifetime.end.p0i8(i64 40, i8* nonnull %163)
  %200 = load i8, i8* %147, align 8, !range !2
  %201 = icmp eq i8 %200, 0
  br i1 %201, label %204, label %202

202:                                              ; preds = %199
  %203 = getelementptr inbounds %"class.absl::optional", %"class.absl::optional"* %4, i64 0, i32 0, i32 0, i32 0, i32 1, i32 0
  call void @_ZN4base5ValueD1Ev(%"class.base::Value"* %203) #8
  store i8 0, i8* %147, align 8
  br label %204

204:                                              ; preds = %199, %202
  call void @llvm.lifetime.end.p0i8(i64 40, i8* nonnull %147) #8
  br label %205

205:                                              ; preds = %204, %126, %143, %25, %9
  %206 = phi %"struct.media_router::DialInternalMessage"* [ null, %9 ], [ null, %25 ], [ %165, %204 ], [ null, %126 ], [ null, %143 ]
  ret %"struct.media_router::DialInternalMessage"* %206
}

; Function Attrs: argmemonly nounwind
declare void @llvm.lifetime.start.p0i8(i64 immarg, i8* nocapture) #1

declare %"class.base::Value"* @_ZN4base5Value13FindKeyOfTypeENS_16BasicStringPieceIcNSt3__111char_traitsIcEEEENS0_4TypeE(%"class.base::Value"*, i8*, i64, i8 zeroext) local_unnamed_addr #2

declare dereferenceable(24) %"class.std::__1::basic_string"* @_ZN4base5Value9GetStringEv(%"class.base::Value"*) local_unnamed_addr #2

; Function Attrs: argmemonly nounwind
declare void @llvm.memset.p0i8.i64(i8* nocapture writeonly, i8, i64, i1 immarg) #1

declare %"class.base::Value"* @_ZN4base5Value7FindKeyENS_16BasicStringPieceIcNSt3__111char_traitsIcEEEE(%"class.base::Value"*, i8*, i64) local_unnamed_addr #2

declare i32 @_ZNK4base5Value6GetIntEv(%"class.base::Value"*) local_unnamed_addr #2

; Function Attrs: argmemonly nounwind
declare void @llvm.lifetime.end.p0i8(i64 immarg, i8* nocapture) #1

; Function Attrs: nounwind ssp uwtable
define hidden void @_ZN12media_router19DialInternalMessageC2ENS_23DialInternalMessageTypeEN4absl8optionalIN4base5ValueEEERKNSt3__112basic_stringIcNS7_11char_traitsIcEENS7_9allocatorIcEEEEi(%"struct.media_router::DialInternalMessage"*, i32, %"class.absl::optional"*, %"class.std::__1::basic_string"* nocapture readonly dereferenceable(24), i32) unnamed_addr #0 align 2 {
  %6 = getelementptr inbounds %"struct.media_router::DialInternalMessage", %"struct.media_router::DialInternalMessage"* %0, i64 0, i32 0
  store i32 %1, i32* %6, align 8
  %7 = getelementptr inbounds %"struct.media_router::DialInternalMessage", %"struct.media_router::DialInternalMessage"* %0, i64 0, i32 2, i32 0, i32 0, i32 0, i32 0
  %8 = getelementptr inbounds %"class.absl::optional", %"class.absl::optional"* %2, i64 0, i32 0, i32 0, i32 0, i32 0
  tail call void @llvm.memset.p0i8.i64(i8* align 8 %7, i8 0, i64 40, i1 false) #8
  %9 = load i8, i8* %8, align 8, !range !2
  %10 = icmp eq i8 %9, 0
  br i1 %10, label %14, label %11

11:                                               ; preds = %5
  %12 = getelementptr inbounds %"class.absl::optional", %"class.absl::optional"* %2, i64 0, i32 0, i32 0, i32 0, i32 1, i32 0
  %13 = getelementptr inbounds %"struct.media_router::DialInternalMessage", %"struct.media_router::DialInternalMessage"* %0, i64 0, i32 2, i32 0, i32 0, i32 0, i32 1, i32 0
  tail call void @_ZN4base5ValueC1EOS0_(%"class.base::Value"* %13, %"class.base::Value"* dereferenceable(32) %12) #8
  store i8 1, i8* %7, align 8
  br label %14

14:                                               ; preds = %5, %11
  %15 = getelementptr inbounds %"struct.media_router::DialInternalMessage", %"struct.media_router::DialInternalMessage"* %0, i64 0, i32 3
  %16 = bitcast %"class.std::__1::basic_string"* %3 to %"struct.std::__1::basic_string<char, std::__1::char_traits<char>, std::__1::allocator<char> >::__short"*
  %17 = getelementptr inbounds %"struct.std::__1::basic_string<char, std::__1::char_traits<char>, std::__1::allocator<char> >::__short", %"struct.std::__1::basic_string<char, std::__1::char_traits<char>, std::__1::allocator<char> >::__short"* %16, i64 0, i32 1, i32 0
  %18 = load i8, i8* %17, align 1
  %19 = icmp slt i8 %18, 0
  br i1 %19, label %23, label %20

20:                                               ; preds = %14
  %21 = bitcast %"class.std::__1::basic_string"* %15 to i8*
  %22 = bitcast %"class.std::__1::basic_string"* %3 to i8*
  tail call void @llvm.memcpy.p0i8.p0i8.i64(i8* align 8 %21, i8* align 8 %22, i64 24, i1 false) #8
  br label %28

23:                                               ; preds = %14
  %24 = getelementptr inbounds %"class.std::__1::basic_string", %"class.std::__1::basic_string"* %3, i64 0, i32 0, i32 0, i32 0, i32 0, i32 0, i32 0
  %25 = load i8*, i8** %24, align 8
  %26 = getelementptr inbounds %"class.std::__1::basic_string", %"class.std::__1::basic_string"* %3, i64 0, i32 0, i32 0, i32 0, i32 0, i32 0, i32 1
  %27 = load i64, i64* %26, align 8
  tail call void @_ZNSt3__112basic_stringIcNS_11char_traitsIcEENS_9allocatorIcEEE25__init_copy_ctor_externalEPKcm(%"class.std::__1::basic_string"* %15, i8* %25, i64 %27) #8
  br label %28

28:                                               ; preds = %20, %23
  %29 = getelementptr inbounds %"struct.media_router::DialInternalMessage", %"struct.media_router::DialInternalMessage"* %0, i64 0, i32 4
  store i32 %4, i32* %29, align 8
  ret void
}

; Function Attrs: nounwind ssp uwtable
define hidden void @_ZN12media_router19DialInternalMessageD2Ev(%"struct.media_router::DialInternalMessage"*) unnamed_addr #0 align 2 {
  %2 = getelementptr inbounds %"struct.media_router::DialInternalMessage", %"struct.media_router::DialInternalMessage"* %0, i64 0, i32 3
  %3 = bitcast %"class.std::__1::basic_string"* %2 to %"struct.std::__1::basic_string<char, std::__1::char_traits<char>, std::__1::allocator<char> >::__short"*
  %4 = getelementptr inbounds %"struct.std::__1::basic_string<char, std::__1::char_traits<char>, std::__1::allocator<char> >::__short", %"struct.std::__1::basic_string<char, std::__1::char_traits<char>, std::__1::allocator<char> >::__short"* %3, i64 0, i32 1, i32 0
  %5 = load i8, i8* %4, align 1
  %6 = icmp slt i8 %5, 0
  br i1 %6, label %7, label %10

7:                                                ; preds = %1
  %8 = getelementptr inbounds %"class.std::__1::basic_string", %"class.std::__1::basic_string"* %2, i64 0, i32 0, i32 0, i32 0, i32 0, i32 0, i32 0
  %9 = load i8*, i8** %8, align 8
  tail call void @_ZdlPv(i8* %9) #9
  br label %10

10:                                               ; preds = %1, %7
  %11 = getelementptr inbounds %"struct.media_router::DialInternalMessage", %"struct.media_router::DialInternalMessage"* %0, i64 0, i32 2, i32 0, i32 0, i32 0, i32 0
  %12 = load i8, i8* %11, align 8, !range !2
  %13 = icmp eq i8 %12, 0
  br i1 %13, label %16, label %14

14:                                               ; preds = %10
  %15 = getelementptr inbounds %"struct.media_router::DialInternalMessage", %"struct.media_router::DialInternalMessage"* %0, i64 0, i32 2, i32 0, i32 0, i32 0, i32 1, i32 0
  tail call void @_ZN4base5ValueD1Ev(%"class.base::Value"* %15) #8
  store i8 0, i8* %11, align 8
  br label %16

16:                                               ; preds = %10, %14
  ret void
}

; Function Attrs: nounwind ssp uwtable
define hidden void @_ZN12media_router27CustomDialLaunchMessageBody4FromERKNS_19DialInternalMessageE(%"struct.media_router::CustomDialLaunchMessageBody"* noalias sret, %"struct.media_router::DialInternalMessage"* dereferenceable(80)) local_unnamed_addr #0 align 2 {
  %3 = alloca %"class.absl::optional.32", align 8
  %4 = getelementptr inbounds %"struct.media_router::DialInternalMessage", %"struct.media_router::DialInternalMessage"* %1, i64 0, i32 2, i32 0, i32 0, i32 0, i32 0
  %5 = load i8, i8* %4, align 8, !range !2
  %6 = icmp eq i8 %5, 0
  br i1 %6, label %13, label %7

7:                                                ; preds = %2
  %8 = getelementptr inbounds %"struct.media_router::DialInternalMessage", %"struct.media_router::DialInternalMessage"* %1, i64 0, i32 2, i32 0, i32 0, i32 0, i32 1, i32 0
  %9 = getelementptr inbounds %"struct.media_router::DialInternalMessage", %"struct.media_router::DialInternalMessage"* %1, i64 0, i32 2, i32 0, i32 0, i32 0, i32 1, i32 0, i32 0, i32 0, i32 0, i32 0, i32 0, i32 0, i32 0, i32 1
  %10 = load i64, i64* %9, align 8
  %11 = trunc i64 %10 to i8
  %12 = icmp eq i8 %11, 6
  br i1 %12, label %18, label %13

13:                                               ; preds = %2, %7
  %14 = getelementptr inbounds %"struct.media_router::CustomDialLaunchMessageBody", %"struct.media_router::CustomDialLaunchMessageBody"* %0, i64 0, i32 0
  store i8 1, i8* %14, align 8
  %15 = getelementptr inbounds %"struct.media_router::CustomDialLaunchMessageBody", %"struct.media_router::CustomDialLaunchMessageBody"* %0, i64 0, i32 1, i32 0, i32 0, i32 0, i32 0
  store i8 0, i8* %15, align 8
  %16 = getelementptr inbounds %"struct.media_router::CustomDialLaunchMessageBody", %"struct.media_router::CustomDialLaunchMessageBody"* %0, i64 0, i32 1, i32 0, i32 0, i32 0, i32 1
  %17 = bitcast %union.anon.36* %16 to i8*
  tail call void @llvm.memset.p0i8.i64(i8* align 8 %17, i8 0, i64 24, i1 false) #8
  br label %88

18:                                               ; preds = %7
  %19 = tail call %"class.base::Value"* @_ZNK4base5Value13FindKeyOfTypeENS_16BasicStringPieceIcNSt3__111char_traitsIcEEEENS0_4TypeE(%"class.base::Value"* %8, i8* getelementptr inbounds ([9 x i8], [9 x i8]* @.str.8, i64 0, i64 0), i64 8, i8 zeroext 1) #8
  %20 = icmp eq %"class.base::Value"* %19, null
  br i1 %20, label %21, label %26

21:                                               ; preds = %18
  %22 = getelementptr inbounds %"struct.media_router::CustomDialLaunchMessageBody", %"struct.media_router::CustomDialLaunchMessageBody"* %0, i64 0, i32 0
  store i8 1, i8* %22, align 8
  %23 = getelementptr inbounds %"struct.media_router::CustomDialLaunchMessageBody", %"struct.media_router::CustomDialLaunchMessageBody"* %0, i64 0, i32 1, i32 0, i32 0, i32 0, i32 0
  store i8 0, i8* %23, align 8
  %24 = getelementptr inbounds %"struct.media_router::CustomDialLaunchMessageBody", %"struct.media_router::CustomDialLaunchMessageBody"* %0, i64 0, i32 1, i32 0, i32 0, i32 0, i32 1
  %25 = bitcast %union.anon.36* %24 to i8*
  tail call void @llvm.memset.p0i8.i64(i8* align 8 %25, i8 0, i64 24, i1 false) #8
  br label %88

26:                                               ; preds = %18
  %27 = tail call zeroext i1 @_ZNK4base5Value7GetBoolEv(%"class.base::Value"* nonnull %19) #8
  %28 = getelementptr inbounds %"class.absl::optional.32", %"class.absl::optional.32"* %3, i64 0, i32 0, i32 0, i32 0, i32 0
  call void @llvm.lifetime.start.p0i8(i64 32, i8* nonnull %28) #8
  %29 = bitcast %"class.absl::optional.32"* %3 to i64*
  store i64 -6148914691236517206, i64* %29, align 8
  store i8 0, i8* %28, align 8
  %30 = getelementptr inbounds %"class.absl::optional.32", %"class.absl::optional.32"* %3, i64 0, i32 0, i32 0, i32 0, i32 1
  %31 = bitcast %union.anon.36* %30 to i8*
  call void @llvm.memset.p0i8.i64(i8* align 8 %31, i8 0, i64 24, i1 false) #8
  %32 = load i8, i8* %4, align 8, !range !2
  %33 = icmp eq i8 %32, 0
  br i1 %33, label %34, label %35, !prof !3

34:                                               ; preds = %26
  tail call void @llvm.trap() #8
  unreachable

35:                                               ; preds = %26
  %36 = tail call %"class.base::Value"* @_ZNK4base5Value13FindKeyOfTypeENS_16BasicStringPieceIcNSt3__111char_traitsIcEEEENS0_4TypeE(%"class.base::Value"* %8, i8* getelementptr inbounds ([16 x i8], [16 x i8]* @.str.9, i64 0, i64 0), i64 15, i8 zeroext 4) #8
  %37 = icmp eq %"class.base::Value"* %36, null
  br i1 %37, label %38, label %42

38:                                               ; preds = %35
  %39 = zext i1 %27 to i8
  %40 = getelementptr inbounds %"struct.media_router::CustomDialLaunchMessageBody", %"struct.media_router::CustomDialLaunchMessageBody"* %0, i64 0, i32 0
  store i8 %39, i8* %40, align 8
  %41 = getelementptr inbounds %"struct.media_router::CustomDialLaunchMessageBody", %"struct.media_router::CustomDialLaunchMessageBody"* %0, i64 0, i32 1, i32 0, i32 0, i32 0, i32 0
  call void @llvm.memset.p0i8.i64(i8* align 8 %41, i8 0, i64 32, i1 false) #8
  br label %87

42:                                               ; preds = %35
  %43 = tail call dereferenceable(24) %"class.std::__1::basic_string"* @_ZNK4base5Value9GetStringEv(%"class.base::Value"* nonnull %36) #8
  %44 = getelementptr inbounds %"class.absl::optional.32", %"class.absl::optional.32"* %3, i64 0, i32 0, i32 0, i32 0, i32 1, i32 0
  %45 = bitcast %"class.std::__1::basic_string"* %43 to %"struct.std::__1::basic_string<char, std::__1::char_traits<char>, std::__1::allocator<char> >::__short"*
  %46 = getelementptr inbounds %"struct.std::__1::basic_string<char, std::__1::char_traits<char>, std::__1::allocator<char> >::__short", %"struct.std::__1::basic_string<char, std::__1::char_traits<char>, std::__1::allocator<char> >::__short"* %45, i64 0, i32 1, i32 0
  %47 = load i8, i8* %46, align 1
  %48 = icmp slt i8 %47, 0
  br i1 %48, label %52, label %49

49:                                               ; preds = %42
  %50 = bitcast %"class.std::__1::basic_string"* %44 to i8*
  %51 = bitcast %"class.std::__1::basic_string"* %43 to i8*
  call void @llvm.memcpy.p0i8.p0i8.i64(i8* align 8 %50, i8* align 8 %51, i64 24, i1 false) #8
  br label %57

52:                                               ; preds = %42
  %53 = getelementptr inbounds %"class.std::__1::basic_string", %"class.std::__1::basic_string"* %43, i64 0, i32 0, i32 0, i32 0, i32 0, i32 0, i32 0
  %54 = load i8*, i8** %53, align 8
  %55 = getelementptr inbounds %"class.std::__1::basic_string", %"class.std::__1::basic_string"* %43, i64 0, i32 0, i32 0, i32 0, i32 0, i32 0, i32 1
  %56 = load i64, i64* %55, align 8
  call void @_ZNSt3__112basic_stringIcNS_11char_traitsIcEENS_9allocatorIcEEE25__init_copy_ctor_externalEPKcm(%"class.std::__1::basic_string"* %44, i8* %54, i64 %56) #8
  br label %57

57:                                               ; preds = %52, %49
  store i8 1, i8* %28, align 8
  %58 = zext i1 %27 to i8
  %59 = getelementptr inbounds %"struct.media_router::CustomDialLaunchMessageBody", %"struct.media_router::CustomDialLaunchMessageBody"* %0, i64 0, i32 0
  store i8 %58, i8* %59, align 8
  %60 = getelementptr inbounds %"struct.media_router::CustomDialLaunchMessageBody", %"struct.media_router::CustomDialLaunchMessageBody"* %0, i64 0, i32 1, i32 0, i32 0, i32 0, i32 0
  call void @llvm.memset.p0i8.i64(i8* align 8 %60, i8 0, i64 32, i1 false) #8
  %61 = getelementptr inbounds %"class.absl::optional.32", %"class.absl::optional.32"* %3, i64 0, i32 0, i32 0, i32 0, i32 1, i32 0
  %62 = getelementptr inbounds %"struct.media_router::CustomDialLaunchMessageBody", %"struct.media_router::CustomDialLaunchMessageBody"* %0, i64 0, i32 1, i32 0, i32 0, i32 0, i32 1, i32 0
  %63 = bitcast %"class.std::__1::basic_string"* %61 to %"struct.std::__1::basic_string<char, std::__1::char_traits<char>, std::__1::allocator<char> >::__short"*
  %64 = getelementptr inbounds %"struct.std::__1::basic_string<char, std::__1::char_traits<char>, std::__1::allocator<char> >::__short", %"struct.std::__1::basic_string<char, std::__1::char_traits<char>, std::__1::allocator<char> >::__short"* %63, i64 0, i32 1, i32 0
  %65 = load i8, i8* %64, align 1
  %66 = icmp slt i8 %65, 0
  br i1 %66, label %70, label %67

67:                                               ; preds = %57
  %68 = bitcast %"class.std::__1::basic_string"* %62 to i8*
  %69 = bitcast %"class.std::__1::basic_string"* %61 to i8*
  call void @llvm.memcpy.p0i8.p0i8.i64(i8* align 8 %68, i8* align 8 %69, i64 24, i1 false) #8
  store i8 1, i8* %60, align 8
  br label %77

70:                                               ; preds = %57
  %71 = getelementptr inbounds %"class.std::__1::basic_string", %"class.std::__1::basic_string"* %61, i64 0, i32 0, i32 0, i32 0, i32 0, i32 0, i32 0
  %72 = load i8*, i8** %71, align 8
  %73 = getelementptr inbounds %"class.absl::optional.32", %"class.absl::optional.32"* %3, i64 0, i32 0, i32 0, i32 0, i32 1, i32 0, i32 0, i32 0, i32 0, i32 0, i32 0, i32 1
  %74 = load i64, i64* %73, align 8
  call void @_ZNSt3__112basic_stringIcNS_11char_traitsIcEENS_9allocatorIcEEE25__init_copy_ctor_externalEPKcm(%"class.std::__1::basic_string"* %62, i8* %72, i64 %74) #8
  %75 = load i8, i8* %28, align 8, !range !2
  store i8 1, i8* %60, align 8
  %76 = icmp eq i8 %75, 0
  br i1 %76, label %87, label %77

77:                                               ; preds = %67, %70
  %78 = getelementptr inbounds %"class.absl::optional.32", %"class.absl::optional.32"* %3, i64 0, i32 0, i32 0, i32 0, i32 1, i32 0
  %79 = bitcast %"class.std::__1::basic_string"* %78 to %"struct.std::__1::basic_string<char, std::__1::char_traits<char>, std::__1::allocator<char> >::__short"*
  %80 = getelementptr inbounds %"struct.std::__1::basic_string<char, std::__1::char_traits<char>, std::__1::allocator<char> >::__short", %"struct.std::__1::basic_string<char, std::__1::char_traits<char>, std::__1::allocator<char> >::__short"* %79, i64 0, i32 1, i32 0
  %81 = load i8, i8* %80, align 1
  %82 = icmp slt i8 %81, 0
  br i1 %82, label %83, label %86

83:                                               ; preds = %77
  %84 = getelementptr inbounds %"class.std::__1::basic_string", %"class.std::__1::basic_string"* %78, i64 0, i32 0, i32 0, i32 0, i32 0, i32 0, i32 0
  %85 = load i8*, i8** %84, align 8
  call void @_ZdlPv(i8* %85) #9
  br label %86

86:                                               ; preds = %83, %77
  store i8 0, i8* %28, align 8
  br label %87

87:                                               ; preds = %38, %70, %86
  call void @llvm.lifetime.end.p0i8(i64 32, i8* nonnull %28) #8
  br label %88

88:                                               ; preds = %21, %87, %13
  ret void
}

declare %"class.base::Value"* @_ZNK4base5Value13FindKeyOfTypeENS_16BasicStringPieceIcNSt3__111char_traitsIcEEEENS0_4TypeE(%"class.base::Value"*, i8*, i64, i8 zeroext) local_unnamed_addr #2

declare zeroext i1 @_ZNK4base5Value7GetBoolEv(%"class.base::Value"*) local_unnamed_addr #2

; Function Attrs: argmemonly nounwind
declare void @llvm.memcpy.p0i8.p0i8.i64(i8* nocapture writeonly, i8* nocapture readonly, i64, i1 immarg) #1

declare dereferenceable(24) %"class.std::__1::basic_string"* @_ZNK4base5Value9GetStringEv(%"class.base::Value"*) local_unnamed_addr #2

; Function Attrs: nounwind ssp uwtable
define hidden void @_ZN12media_router27CustomDialLaunchMessageBodyC2Ev(%"struct.media_router::CustomDialLaunchMessageBody"* nocapture) unnamed_addr #0 align 2 {
  %2 = getelementptr inbounds %"struct.media_router::CustomDialLaunchMessageBody", %"struct.media_router::CustomDialLaunchMessageBody"* %0, i64 0, i32 0
  store i8 1, i8* %2, align 8
  %3 = getelementptr inbounds %"struct.media_router::CustomDialLaunchMessageBody", %"struct.media_router::CustomDialLaunchMessageBody"* %0, i64 0, i32 1, i32 0, i32 0, i32 0, i32 0
  store i8 0, i8* %3, align 8
  %4 = getelementptr inbounds %"struct.media_router::CustomDialLaunchMessageBody", %"struct.media_router::CustomDialLaunchMessageBody"* %0, i64 0, i32 1, i32 0, i32 0, i32 0, i32 1
  %5 = bitcast %union.anon.36* %4 to i8*
  tail call void @llvm.memset.p0i8.i64(i8* align 8 %5, i8 0, i64 24, i1 false) #8
  ret void
}

; Function Attrs: nounwind ssp uwtable
define hidden void @_ZN12media_router27CustomDialLaunchMessageBodyC2EbRKN4absl8optionalINSt3__112basic_stringIcNS3_11char_traitsIcEENS3_9allocatorIcEEEEEE(%"struct.media_router::CustomDialLaunchMessageBody"*, i1 zeroext, %"class.absl::optional.32"* nocapture readonly dereferenceable(32)) unnamed_addr #0 align 2 {
  %4 = zext i1 %1 to i8
  %5 = getelementptr inbounds %"struct.media_router::CustomDialLaunchMessageBody", %"struct.media_router::CustomDialLaunchMessageBody"* %0, i64 0, i32 0
  store i8 %4, i8* %5, align 8
  %6 = getelementptr inbounds %"struct.media_router::CustomDialLaunchMessageBody", %"struct.media_router::CustomDialLaunchMessageBody"* %0, i64 0, i32 1, i32 0, i32 0, i32 0, i32 0
  %7 = getelementptr inbounds %"class.absl::optional.32", %"class.absl::optional.32"* %2, i64 0, i32 0, i32 0, i32 0, i32 0
  tail call void @llvm.memset.p0i8.i64(i8* align 8 %6, i8 0, i64 32, i1 false) #8
  %8 = load i8, i8* %7, align 8, !range !2
  %9 = icmp eq i8 %8, 0
  br i1 %9, label %26, label %10

10:                                               ; preds = %3
  %11 = getelementptr inbounds %"class.absl::optional.32", %"class.absl::optional.32"* %2, i64 0, i32 0, i32 0, i32 0, i32 1, i32 0
  %12 = getelementptr inbounds %"struct.media_router::CustomDialLaunchMessageBody", %"struct.media_router::CustomDialLaunchMessageBody"* %0, i64 0, i32 1, i32 0, i32 0, i32 0, i32 1, i32 0
  %13 = bitcast %"class.std::__1::basic_string"* %11 to %"struct.std::__1::basic_string<char, std::__1::char_traits<char>, std::__1::allocator<char> >::__short"*
  %14 = getelementptr inbounds %"struct.std::__1::basic_string<char, std::__1::char_traits<char>, std::__1::allocator<char> >::__short", %"struct.std::__1::basic_string<char, std::__1::char_traits<char>, std::__1::allocator<char> >::__short"* %13, i64 0, i32 1, i32 0
  %15 = load i8, i8* %14, align 1
  %16 = icmp slt i8 %15, 0
  br i1 %16, label %20, label %17

17:                                               ; preds = %10
  %18 = bitcast %"class.std::__1::basic_string"* %12 to i8*
  %19 = bitcast %"class.std::__1::basic_string"* %11 to i8*
  tail call void @llvm.memcpy.p0i8.p0i8.i64(i8* align 8 %18, i8* align 8 %19, i64 24, i1 false) #8
  br label %25

20:                                               ; preds = %10
  %21 = getelementptr inbounds %"class.std::__1::basic_string", %"class.std::__1::basic_string"* %11, i64 0, i32 0, i32 0, i32 0, i32 0, i32 0, i32 0
  %22 = load i8*, i8** %21, align 8
  %23 = getelementptr inbounds %"class.absl::optional.32", %"class.absl::optional.32"* %2, i64 0, i32 0, i32 0, i32 0, i32 1, i32 0, i32 0, i32 0, i32 0, i32 0, i32 0, i32 1
  %24 = load i64, i64* %23, align 8
  tail call void @_ZNSt3__112basic_stringIcNS_11char_traitsIcEENS_9allocatorIcEEE25__init_copy_ctor_externalEPKcm(%"class.std::__1::basic_string"* %12, i8* %22, i64 %24) #8
  br label %25

25:                                               ; preds = %20, %17
  store i8 1, i8* %6, align 8
  br label %26

26:                                               ; preds = %3, %25
  ret void
}

; Function Attrs: nounwind ssp uwtable
define hidden void @_ZN12media_router27CustomDialLaunchMessageBodyC2ERKS0_(%"struct.media_router::CustomDialLaunchMessageBody"*, %"struct.media_router::CustomDialLaunchMessageBody"* nocapture readonly dereferenceable(40)) unnamed_addr #0 align 2 {
  %3 = getelementptr inbounds %"struct.media_router::CustomDialLaunchMessageBody", %"struct.media_router::CustomDialLaunchMessageBody"* %0, i64 0, i32 0
  %4 = getelementptr inbounds %"struct.media_router::CustomDialLaunchMessageBody", %"struct.media_router::CustomDialLaunchMessageBody"* %1, i64 0, i32 0
  %5 = load i8, i8* %4, align 8, !range !2
  store i8 %5, i8* %3, align 8
  %6 = getelementptr inbounds %"struct.media_router::CustomDialLaunchMessageBody", %"struct.media_router::CustomDialLaunchMessageBody"* %0, i64 0, i32 1, i32 0, i32 0, i32 0, i32 0
  %7 = getelementptr inbounds %"struct.media_router::CustomDialLaunchMessageBody", %"struct.media_router::CustomDialLaunchMessageBody"* %1, i64 0, i32 1, i32 0, i32 0, i32 0, i32 0
  tail call void @llvm.memset.p0i8.i64(i8* align 8 %6, i8 0, i64 32, i1 false) #8
  %8 = load i8, i8* %7, align 8, !range !2
  %9 = icmp eq i8 %8, 0
  br i1 %9, label %26, label %10

10:                                               ; preds = %2
  %11 = getelementptr inbounds %"struct.media_router::CustomDialLaunchMessageBody", %"struct.media_router::CustomDialLaunchMessageBody"* %1, i64 0, i32 1, i32 0, i32 0, i32 0, i32 1, i32 0
  %12 = getelementptr inbounds %"struct.media_router::CustomDialLaunchMessageBody", %"struct.media_router::CustomDialLaunchMessageBody"* %0, i64 0, i32 1, i32 0, i32 0, i32 0, i32 1, i32 0
  %13 = bitcast %"class.std::__1::basic_string"* %11 to %"struct.std::__1::basic_string<char, std::__1::char_traits<char>, std::__1::allocator<char> >::__short"*
  %14 = getelementptr inbounds %"struct.std::__1::basic_string<char, std::__1::char_traits<char>, std::__1::allocator<char> >::__short", %"struct.std::__1::basic_string<char, std::__1::char_traits<char>, std::__1::allocator<char> >::__short"* %13, i64 0, i32 1, i32 0
  %15 = load i8, i8* %14, align 1
  %16 = icmp slt i8 %15, 0
  br i1 %16, label %20, label %17

17:                                               ; preds = %10
  %18 = bitcast %"class.std::__1::basic_string"* %12 to i8*
  %19 = bitcast %"class.std::__1::basic_string"* %11 to i8*
  tail call void @llvm.memcpy.p0i8.p0i8.i64(i8* align 8 %18, i8* align 8 %19, i64 24, i1 false) #8
  br label %25

20:                                               ; preds = %10
  %21 = getelementptr inbounds %"class.std::__1::basic_string", %"class.std::__1::basic_string"* %11, i64 0, i32 0, i32 0, i32 0, i32 0, i32 0, i32 0
  %22 = load i8*, i8** %21, align 8
  %23 = getelementptr inbounds %"struct.media_router::CustomDialLaunchMessageBody", %"struct.media_router::CustomDialLaunchMessageBody"* %1, i64 0, i32 1, i32 0, i32 0, i32 0, i32 1, i32 0, i32 0, i32 0, i32 0, i32 0, i32 0, i32 1
  %24 = load i64, i64* %23, align 8
  tail call void @_ZNSt3__112basic_stringIcNS_11char_traitsIcEENS_9allocatorIcEEE25__init_copy_ctor_externalEPKcm(%"class.std::__1::basic_string"* %12, i8* %22, i64 %24) #8
  br label %25

25:                                               ; preds = %20, %17
  store i8 1, i8* %6, align 8
  br label %26

26:                                               ; preds = %2, %25
  ret void
}

; Function Attrs: nounwind ssp uwtable
define hidden void @_ZN12media_router27CustomDialLaunchMessageBodyD2Ev(%"struct.media_router::CustomDialLaunchMessageBody"* nocapture) unnamed_addr #0 align 2 {
  %2 = getelementptr inbounds %"struct.media_router::CustomDialLaunchMessageBody", %"struct.media_router::CustomDialLaunchMessageBody"* %0, i64 0, i32 1, i32 0, i32 0, i32 0, i32 0
  %3 = load i8, i8* %2, align 8, !range !2
  %4 = icmp eq i8 %3, 0
  br i1 %4, label %15, label %5

5:                                                ; preds = %1
  %6 = getelementptr inbounds %"struct.media_router::CustomDialLaunchMessageBody", %"struct.media_router::CustomDialLaunchMessageBody"* %0, i64 0, i32 1, i32 0, i32 0, i32 0, i32 1, i32 0
  %7 = bitcast %"class.std::__1::basic_string"* %6 to %"struct.std::__1::basic_string<char, std::__1::char_traits<char>, std::__1::allocator<char> >::__short"*
  %8 = getelementptr inbounds %"struct.std::__1::basic_string<char, std::__1::char_traits<char>, std::__1::allocator<char> >::__short", %"struct.std::__1::basic_string<char, std::__1::char_traits<char>, std::__1::allocator<char> >::__short"* %7, i64 0, i32 1, i32 0
  %9 = load i8, i8* %8, align 1
  %10 = icmp slt i8 %9, 0
  br i1 %10, label %11, label %14

11:                                               ; preds = %5
  %12 = getelementptr inbounds %"class.std::__1::basic_string", %"class.std::__1::basic_string"* %6, i64 0, i32 0, i32 0, i32 0, i32 0, i32 0, i32 0
  %13 = load i8*, i8** %12, align 8
  tail call void @_ZdlPv(i8* %13) #9
  br label %14

14:                                               ; preds = %11, %5
  store i8 0, i8* %2, align 8
  br label %15

15:                                               ; preds = %1, %14
  ret void
}

; Function Attrs: nounwind ssp uwtable
define hidden void @_ZN12media_router23DialInternalMessageUtilC2ERKNSt3__112basic_stringIcNS1_11char_traitsIcEENS1_9allocatorIcEEEE(%"class.media_router::DialInternalMessageUtil"*, %"class.std::__1::basic_string"* nocapture readonly dereferenceable(24)) unnamed_addr #0 align 2 {
  %3 = bitcast %"class.std::__1::basic_string"* %1 to %"struct.std::__1::basic_string<char, std::__1::char_traits<char>, std::__1::allocator<char> >::__short"*
  %4 = getelementptr inbounds %"struct.std::__1::basic_string<char, std::__1::char_traits<char>, std::__1::allocator<char> >::__short", %"struct.std::__1::basic_string<char, std::__1::char_traits<char>, std::__1::allocator<char> >::__short"* %3, i64 0, i32 1, i32 0
  %5 = load i8, i8* %4, align 1
  %6 = icmp slt i8 %5, 0
  br i1 %6, label %10, label %7

7:                                                ; preds = %2
  %8 = bitcast %"class.media_router::DialInternalMessageUtil"* %0 to i8*
  %9 = bitcast %"class.std::__1::basic_string"* %1 to i8*
  tail call void @llvm.memcpy.p0i8.p0i8.i64(i8* align 8 %8, i8* align 8 %9, i64 24, i1 false) #8
  br label %16

10:                                               ; preds = %2
  %11 = getelementptr inbounds %"class.media_router::DialInternalMessageUtil", %"class.media_router::DialInternalMessageUtil"* %0, i64 0, i32 0
  %12 = getelementptr inbounds %"class.std::__1::basic_string", %"class.std::__1::basic_string"* %1, i64 0, i32 0, i32 0, i32 0, i32 0, i32 0, i32 0
  %13 = load i8*, i8** %12, align 8
  %14 = getelementptr inbounds %"class.std::__1::basic_string", %"class.std::__1::basic_string"* %1, i64 0, i32 0, i32 0, i32 0, i32 0, i32 0, i32 1
  %15 = load i64, i64* %14, align 8
  tail call void @_ZNSt3__112basic_stringIcNS_11char_traitsIcEENS_9allocatorIcEEE25__init_copy_ctor_externalEPKcm(%"class.std::__1::basic_string"* %11, i8* %13, i64 %15) #8
  br label %16

16:                                               ; preds = %7, %10
  ret void
}

; Function Attrs: nounwind ssp uwtable
define hidden void @_ZN12media_router23DialInternalMessageUtilD2Ev(%"class.media_router::DialInternalMessageUtil"* nocapture readonly) unnamed_addr #0 align 2 {
  %2 = bitcast %"class.media_router::DialInternalMessageUtil"* %0 to %"struct.std::__1::basic_string<char, std::__1::char_traits<char>, std::__1::allocator<char> >::__short"*
  %3 = getelementptr inbounds %"struct.std::__1::basic_string<char, std::__1::char_traits<char>, std::__1::allocator<char> >::__short", %"struct.std::__1::basic_string<char, std::__1::char_traits<char>, std::__1::allocator<char> >::__short"* %2, i64 0, i32 1, i32 0
  %4 = load i8, i8* %3, align 1
  %5 = icmp slt i8 %4, 0
  br i1 %5, label %6, label %9

6:                                                ; preds = %1
  %7 = getelementptr inbounds %"class.media_router::DialInternalMessageUtil", %"class.media_router::DialInternalMessageUtil"* %0, i64 0, i32 0, i32 0, i32 0, i32 0, i32 0, i32 0, i32 0
  %8 = load i8*, i8** %7, align 8
  tail call void @_ZdlPv(i8* %8) #9
  br label %9

9:                                                ; preds = %1, %6
  ret void
}

; Function Attrs: nounwind ssp uwtable
define hidden zeroext i1 @_ZN12media_router23DialInternalMessageUtil20IsStopSessionMessageERKNS_19DialInternalMessageE(%"struct.media_router::DialInternalMessage"* dereferenceable(80)) local_unnamed_addr #0 align 2 {
  %2 = getelementptr inbounds %"struct.media_router::DialInternalMessage", %"struct.media_router::DialInternalMessage"* %0, i64 0, i32 0
  %3 = load i32, i32* %2, align 8
  %4 = icmp eq i32 %3, 1
  br i1 %4, label %5, label %32

5:                                                ; preds = %1
  %6 = getelementptr inbounds %"struct.media_router::DialInternalMessage", %"struct.media_router::DialInternalMessage"* %0, i64 0, i32 2, i32 0, i32 0, i32 0, i32 0
  %7 = load i8, i8* %6, align 8, !range !2
  %8 = icmp eq i8 %7, 0
  br i1 %8, label %32, label %9

9:                                                ; preds = %5
  %10 = getelementptr inbounds %"struct.media_router::DialInternalMessage", %"struct.media_router::DialInternalMessage"* %0, i64 0, i32 2, i32 0, i32 0, i32 0, i32 1, i32 0, i32 0, i32 0, i32 0, i32 0, i32 0, i32 0, i32 0, i32 1
  %11 = load i64, i64* %10, align 8
  %12 = trunc i64 %11 to i8
  %13 = icmp eq i8 %12, 6
  br i1 %13, label %14, label %32

14:                                               ; preds = %9
  %15 = getelementptr inbounds %"struct.media_router::DialInternalMessage", %"struct.media_router::DialInternalMessage"* %0, i64 0, i32 2, i32 0, i32 0, i32 0, i32 1, i32 0
  %16 = tail call %"class.base::Value"* @_ZNK4base5Value13FindKeyOfTypeENS_16BasicStringPieceIcNSt3__111char_traitsIcEEEENS0_4TypeE(%"class.base::Value"* %15, i8* getelementptr inbounds ([5 x i8], [5 x i8]* @.str.1, i64 0, i64 0), i64 4, i8 zeroext 4) #8
  %17 = icmp eq %"class.base::Value"* %16, null
  br i1 %17, label %32, label %18

18:                                               ; preds = %14
  %19 = tail call dereferenceable(24) %"class.std::__1::basic_string"* @_ZNK4base5Value9GetStringEv(%"class.base::Value"* nonnull %16) #8
  %20 = bitcast %"class.std::__1::basic_string"* %19 to %"struct.std::__1::basic_string<char, std::__1::char_traits<char>, std::__1::allocator<char> >::__short"*
  %21 = getelementptr inbounds %"struct.std::__1::basic_string<char, std::__1::char_traits<char>, std::__1::allocator<char> >::__short", %"struct.std::__1::basic_string<char, std::__1::char_traits<char>, std::__1::allocator<char> >::__short"* %20, i64 0, i32 1, i32 0
  %22 = load i8, i8* %21, align 1
  %23 = icmp slt i8 %22, 0
  %24 = getelementptr inbounds %"class.std::__1::basic_string", %"class.std::__1::basic_string"* %19, i64 0, i32 0, i32 0, i32 0, i32 0, i32 0, i32 1
  %25 = load i64, i64* %24, align 8
  %26 = zext i8 %22 to i64
  %27 = select i1 %23, i64 %25, i64 %26
  %28 = icmp eq i64 %27, 4
  br i1 %28, label %29, label %32

29:                                               ; preds = %18
  %30 = tail call i32 @_ZNKSt3__112basic_stringIcNS_11char_traitsIcEENS_9allocatorIcEEE7compareEmmPKcm(%"class.std::__1::basic_string"* %19, i64 0, i64 -1, i8* getelementptr inbounds ([5 x i8], [5 x i8]* @.str.10, i64 0, i64 0), i64 4) #8
  %31 = icmp eq i32 %30, 0
  br label %32

32:                                               ; preds = %5, %29, %18, %9, %14, %1
  %33 = phi i1 [ false, %1 ], [ false, %9 ], [ false, %5 ], [ false, %14 ], [ %31, %29 ], [ false, %18 ]
  ret i1 %33
}

; Function Attrs: nounwind ssp uwtable
define hidden void @_ZNK12media_router23DialInternalMessageUtil23CreateNewSessionMessageERKNSt3__112basic_stringIcNS1_11char_traitsIcEENS1_9allocatorIcEEEES9_RKNS_17MediaSinkInternalE(%"class.mojo::StructPtr"* noalias sret, %"class.media_router::DialInternalMessageUtil"*, %"class.std::__1::basic_string"* dereferenceable(24), %"class.std::__1::basic_string"* dereferenceable(24), %"class.media_router::MediaSinkInternal"* dereferenceable(296)) local_unnamed_addr #0 align 2 {
  %6 = alloca %"class.base::Value", align 8
  %7 = alloca %"class.base::Value", align 8
  %8 = alloca %"class.base::Value", align 8
  %9 = bitcast %"class.base::Value"* %6 to i8*
  call void @llvm.lifetime.start.p0i8(i64 32, i8* nonnull %9) #8
  %10 = bitcast %"class.base::Value"* %6 to i8*
  call void @llvm.memset.p0i8.i64(i8* nonnull align 8 %10, i8 -86, i64 32, i1 false)
  call void @_ZNK12media_router23DialInternalMessageUtil20CreateNewSessionBodyERKNSt3__112basic_stringIcNS1_11char_traitsIcEENS1_9allocatorIcEEEERKNS_17MediaSinkInternalE(%"class.base::Value"* nonnull sret %7, %"class.media_router::DialInternalMessageUtil"* %1, %"class.std::__1::basic_string"* dereferenceable(24) %2, %"class.media_router::MediaSinkInternal"* dereferenceable(296) %4)
  call void @_ZNK12media_router23DialInternalMessageUtil23CreateDialMessageCommonENS_23DialInternalMessageTypeEN4base5ValueERKNSt3__112basic_stringIcNS4_11char_traitsIcEENS4_9allocatorIcEEEEi(%"class.base::Value"* nonnull sret %6, %"class.media_router::DialInternalMessageUtil"* undef, i32 2, %"class.base::Value"* nonnull %7, %"class.std::__1::basic_string"* dereferenceable(24) %3, i32 -1)
  call void @_ZN4base5ValueD1Ev(%"class.base::Value"* nonnull %7) #8
  call void @_ZN4base5ValueC1EOS0_(%"class.base::Value"* nonnull %8, %"class.base::Value"* nonnull dereferenceable(32) %6) #8
  call void @_ZN12media_router12message_util21RouteMessageFromValueEN4base5ValueE(%"class.mojo::StructPtr"* sret %0, %"class.base::Value"* nonnull %8) #8
  call void @_ZN4base5ValueD1Ev(%"class.base::Value"* nonnull %8) #8
  call void @_ZN4base5ValueD1Ev(%"class.base::Value"* nonnull %6) #8
  call void @llvm.lifetime.end.p0i8(i64 32, i8* nonnull %9) #8
  ret void
}

; Function Attrs: nounwind ssp uwtable
define hidden void @_ZNK12media_router23DialInternalMessageUtil23CreateDialMessageCommonENS_23DialInternalMessageTypeEN4base5ValueERKNSt3__112basic_stringIcNS4_11char_traitsIcEENS4_9allocatorIcEEEEi(%"class.base::Value"* noalias sret, %"class.media_router::DialInternalMessageUtil"* nocapture readnone, i32, %"class.base::Value"*, %"class.std::__1::basic_string"* dereferenceable(24), i32) local_unnamed_addr #0 align 2 {
  %7 = alloca %"class.base::Value", align 8
  %8 = alloca %"class.std::__1::basic_string", align 8
  %9 = alloca %"class.base::Value", align 8
  %10 = alloca %"class.base::Value", align 8
  %11 = alloca %"class.base::Value", align 8
  %12 = bitcast %"class.base::Value"* %0 to i8*
  call void @llvm.memset.p0i8.i64(i8* align 8 %12, i8 -86, i64 32, i1 false)
  tail call void @_ZN4base5ValueC1ENS0_4TypeE(%"class.base::Value"* %0, i8 zeroext 6) #8
  %13 = bitcast %"class.base::Value"* %7 to i8*
  call void @llvm.lifetime.start.p0i8(i64 32, i8* nonnull %13) #8
  %14 = bitcast %"class.std::__1::basic_string"* %8 to i8*
  call void @llvm.lifetime.start.p0i8(i64 24, i8* nonnull %14) #8
  switch i32 %2, label %43 [
    i32 0, label %15
    i32 1, label %19
    i32 3, label %23
    i32 2, label %27
    i32 5, label %31
    i32 6, label %35
    i32 4, label %39
  ]

15:                                               ; preds = %6
  %16 = bitcast %"class.std::__1::basic_string"* %8 to %"struct.std::__1::basic_string<char, std::__1::char_traits<char>, std::__1::allocator<char> >::__short"*
  %17 = getelementptr inbounds %"struct.std::__1::basic_string<char, std::__1::char_traits<char>, std::__1::allocator<char> >::__short", %"struct.std::__1::basic_string<char, std::__1::char_traits<char>, std::__1::allocator<char> >::__short"* %16, i64 0, i32 1, i32 0
  store i8 14, i8* %17, align 1, !alias.scope !4
  call void @llvm.memcpy.p0i8.p0i8.i64(i8* nonnull align 8 %14, i8* align 1 getelementptr inbounds ([15 x i8], [15 x i8]* @.str.43, i64 0, i64 0), i64 14, i1 false) #8
  %18 = getelementptr inbounds i8, i8* %14, i64 14
  store i8 0, i8* %18, align 2, !alias.scope !4
  br label %47

19:                                               ; preds = %6
  %20 = bitcast %"class.std::__1::basic_string"* %8 to %"struct.std::__1::basic_string<char, std::__1::char_traits<char>, std::__1::allocator<char> >::__short"*
  %21 = getelementptr inbounds %"struct.std::__1::basic_string<char, std::__1::char_traits<char>, std::__1::allocator<char> >::__short", %"struct.std::__1::basic_string<char, std::__1::char_traits<char>, std::__1::allocator<char> >::__short"* %20, i64 0, i32 1, i32 0
  store i8 10, i8* %21, align 1, !alias.scope !4
  call void @llvm.memcpy.p0i8.p0i8.i64(i8* nonnull align 8 %14, i8* align 1 getelementptr inbounds ([11 x i8], [11 x i8]* @.str.44, i64 0, i64 0), i64 10, i1 false) #8
  %22 = getelementptr inbounds i8, i8* %14, i64 10
  store i8 0, i8* %22, align 2, !alias.scope !4
  br label %47

23:                                               ; preds = %6
  %24 = bitcast %"class.std::__1::basic_string"* %8 to %"struct.std::__1::basic_string<char, std::__1::char_traits<char>, std::__1::allocator<char> >::__short"*
  %25 = getelementptr inbounds %"struct.std::__1::basic_string<char, std::__1::char_traits<char>, std::__1::allocator<char> >::__short", %"struct.std::__1::basic_string<char, std::__1::char_traits<char>, std::__1::allocator<char> >::__short"* %24, i64 0, i32 1, i32 0
  store i8 15, i8* %25, align 1, !alias.scope !4
  call void @llvm.memcpy.p0i8.p0i8.i64(i8* nonnull align 8 %14, i8* align 1 getelementptr inbounds ([16 x i8], [16 x i8]* @.str.45, i64 0, i64 0), i64 15, i1 false) #8
  %26 = getelementptr inbounds i8, i8* %14, i64 15
  store i8 0, i8* %26, align 1, !alias.scope !4
  br label %47

27:                                               ; preds = %6
  %28 = bitcast %"class.std::__1::basic_string"* %8 to %"struct.std::__1::basic_string<char, std::__1::char_traits<char>, std::__1::allocator<char> >::__short"*
  %29 = getelementptr inbounds %"struct.std::__1::basic_string<char, std::__1::char_traits<char>, std::__1::allocator<char> >::__short", %"struct.std::__1::basic_string<char, std::__1::char_traits<char>, std::__1::allocator<char> >::__short"* %28, i64 0, i32 1, i32 0
  store i8 11, i8* %29, align 1, !alias.scope !4
  call void @llvm.memcpy.p0i8.p0i8.i64(i8* nonnull align 8 %14, i8* align 1 getelementptr inbounds ([12 x i8], [12 x i8]* @.str.46, i64 0, i64 0), i64 11, i1 false) #8
  %30 = getelementptr inbounds i8, i8* %14, i64 11
  store i8 0, i8* %30, align 1, !alias.scope !4
  br label %47

31:                                               ; preds = %6
  %32 = bitcast %"class.std::__1::basic_string"* %8 to %"struct.std::__1::basic_string<char, std::__1::char_traits<char>, std::__1::allocator<char> >::__short"*
  %33 = getelementptr inbounds %"struct.std::__1::basic_string<char, std::__1::char_traits<char>, std::__1::allocator<char> >::__short", %"struct.std::__1::basic_string<char, std::__1::char_traits<char>, std::__1::allocator<char> >::__short"* %32, i64 0, i32 1, i32 0
  store i8 18, i8* %33, align 1, !alias.scope !4
  call void @llvm.memcpy.p0i8.p0i8.i64(i8* nonnull align 8 %14, i8* align 1 getelementptr inbounds ([19 x i8], [19 x i8]* @.str.47, i64 0, i64 0), i64 18, i1 false) #8
  %34 = getelementptr inbounds i8, i8* %14, i64 18
  store i8 0, i8* %34, align 2, !alias.scope !4
  br label %47

35:                                               ; preds = %6
  %36 = bitcast %"class.std::__1::basic_string"* %8 to %"struct.std::__1::basic_string<char, std::__1::char_traits<char>, std::__1::allocator<char> >::__short"*
  %37 = getelementptr inbounds %"struct.std::__1::basic_string<char, std::__1::char_traits<char>, std::__1::allocator<char> >::__short", %"struct.std::__1::basic_string<char, std::__1::char_traits<char>, std::__1::allocator<char> >::__short"* %36, i64 0, i32 1, i32 0
  store i8 13, i8* %37, align 1, !alias.scope !4
  call void @llvm.memcpy.p0i8.p0i8.i64(i8* nonnull align 8 %14, i8* align 1 getelementptr inbounds ([14 x i8], [14 x i8]* @.str.48, i64 0, i64 0), i64 13, i1 false) #8
  %38 = getelementptr inbounds i8, i8* %14, i64 13
  store i8 0, i8* %38, align 1, !alias.scope !4
  br label %47

39:                                               ; preds = %6
  %40 = bitcast %"class.std::__1::basic_string"* %8 to %"struct.std::__1::basic_string<char, std::__1::char_traits<char>, std::__1::allocator<char> >::__short"*
  %41 = getelementptr inbounds %"struct.std::__1::basic_string<char, std::__1::char_traits<char>, std::__1::allocator<char> >::__short", %"struct.std::__1::basic_string<char, std::__1::char_traits<char>, std::__1::allocator<char> >::__short"* %40, i64 0, i32 1, i32 0
  store i8 5, i8* %41, align 1, !alias.scope !4
  call void @llvm.memcpy.p0i8.p0i8.i64(i8* nonnull align 8 %14, i8* align 1 getelementptr inbounds ([6 x i8], [6 x i8]* @.str.49, i64 0, i64 0), i64 5, i1 false) #8
  %42 = getelementptr inbounds i8, i8* %14, i64 5
  store i8 0, i8* %42, align 1, !alias.scope !4
  br label %47

43:                                               ; preds = %6
  %44 = bitcast %"class.std::__1::basic_string"* %8 to %"struct.std::__1::basic_string<char, std::__1::char_traits<char>, std::__1::allocator<char> >::__short"*
  %45 = getelementptr inbounds %"struct.std::__1::basic_string<char, std::__1::char_traits<char>, std::__1::allocator<char> >::__short", %"struct.std::__1::basic_string<char, std::__1::char_traits<char>, std::__1::allocator<char> >::__short"* %44, i64 0, i32 1, i32 0
  store i8 7, i8* %45, align 1, !alias.scope !4
  call void @llvm.memcpy.p0i8.p0i8.i64(i8* nonnull align 8 %14, i8* align 1 getelementptr inbounds ([8 x i8], [8 x i8]* @.str.56, i64 0, i64 0), i64 7, i1 false) #8
  %46 = getelementptr inbounds i8, i8* %14, i64 7
  store i8 0, i8* %46, align 1, !alias.scope !4
  br label %47

47:                                               ; preds = %15, %19, %23, %27, %31, %35, %39, %43
  %48 = phi %"struct.std::__1::basic_string<char, std::__1::char_traits<char>, std::__1::allocator<char> >::__short"* [ %16, %15 ], [ %20, %19 ], [ %24, %23 ], [ %28, %27 ], [ %32, %31 ], [ %36, %35 ], [ %40, %39 ], [ %44, %43 ]
  call void @_ZN4base5ValueC1EONSt3__112basic_stringIcNS1_11char_traitsIcEENS1_9allocatorIcEEEE(%"class.base::Value"* nonnull %7, %"class.std::__1::basic_string"* nonnull dereferenceable(24) %8) #8
  %49 = call %"class.base::Value"* @_ZN4base5Value6SetKeyEPKcOS0_(%"class.base::Value"* %0, i8* getelementptr inbounds ([5 x i8], [5 x i8]* @.str.1, i64 0, i64 0), %"class.base::Value"* nonnull dereferenceable(32) %7) #8
  call void @_ZN4base5ValueD1Ev(%"class.base::Value"* nonnull %7) #8
  %50 = getelementptr inbounds %"struct.std::__1::basic_string<char, std::__1::char_traits<char>, std::__1::allocator<char> >::__short", %"struct.std::__1::basic_string<char, std::__1::char_traits<char>, std::__1::allocator<char> >::__short"* %48, i64 0, i32 1, i32 0
  %51 = load i8, i8* %50, align 1
  %52 = icmp slt i8 %51, 0
  br i1 %52, label %53, label %56

53:                                               ; preds = %47
  %54 = getelementptr inbounds %"class.std::__1::basic_string", %"class.std::__1::basic_string"* %8, i64 0, i32 0, i32 0, i32 0, i32 0, i32 0, i32 0
  %55 = load i8*, i8** %54, align 8
  call void @_ZdlPv(i8* %55) #9
  br label %56

56:                                               ; preds = %47, %53
  call void @llvm.lifetime.end.p0i8(i64 24, i8* nonnull %14) #8
  call void @llvm.lifetime.end.p0i8(i64 32, i8* nonnull %13) #8
  %57 = call %"class.base::Value"* @_ZN4base5Value6SetKeyEPKcOS0_(%"class.base::Value"* %0, i8* getelementptr inbounds ([8 x i8], [8 x i8]* @.str.6, i64 0, i64 0), %"class.base::Value"* dereferenceable(32) %3) #8
  %58 = bitcast %"class.base::Value"* %9 to i8*
  call void @llvm.lifetime.start.p0i8(i64 32, i8* nonnull %58) #8
  %59 = bitcast %"class.std::__1::basic_string"* %4 to %"struct.std::__1::basic_string<char, std::__1::char_traits<char>, std::__1::allocator<char> >::__short"*
  %60 = getelementptr inbounds %"struct.std::__1::basic_string<char, std::__1::char_traits<char>, std::__1::allocator<char> >::__short", %"struct.std::__1::basic_string<char, std::__1::char_traits<char>, std::__1::allocator<char> >::__short"* %59, i64 0, i32 1, i32 0
  %61 = load i8, i8* %60, align 1
  %62 = icmp slt i8 %61, 0
  %63 = getelementptr inbounds %"class.std::__1::basic_string", %"class.std::__1::basic_string"* %4, i64 0, i32 0, i32 0, i32 0, i32 0, i32 0, i32 0
  %64 = load i8*, i8** %63, align 8
  %65 = bitcast %"class.std::__1::basic_string"* %4 to i8*
  %66 = select i1 %62, i8* %64, i8* %65
  %67 = getelementptr inbounds %"class.std::__1::basic_string", %"class.std::__1::basic_string"* %4, i64 0, i32 0, i32 0, i32 0, i32 0, i32 0, i32 1
  %68 = load i64, i64* %67, align 8
  %69 = zext i8 %61 to i64
  %70 = select i1 %62, i64 %68, i64 %69
  call void @_ZN4base5ValueC1ENS_16BasicStringPieceIcNSt3__111char_traitsIcEEEE(%"class.base::Value"* nonnull %9, i8* %66, i64 %70) #8
  %71 = call %"class.base::Value"* @_ZN4base5Value6SetKeyEPKcOS0_(%"class.base::Value"* %0, i8* getelementptr inbounds ([9 x i8], [9 x i8]* @.str.4, i64 0, i64 0), %"class.base::Value"* nonnull dereferenceable(32) %9) #8
  call void @_ZN4base5ValueD1Ev(%"class.base::Value"* nonnull %9) #8
  call void @llvm.lifetime.end.p0i8(i64 32, i8* nonnull %58) #8
  %72 = bitcast %"class.base::Value"* %10 to i8*
  call void @llvm.lifetime.start.p0i8(i64 32, i8* nonnull %72) #8
  call void @_ZN4base5ValueC1Ei(%"class.base::Value"* nonnull %10, i32 %5) #8
  %73 = call %"class.base::Value"* @_ZN4base5Value6SetKeyEPKcOS0_(%"class.base::Value"* %0, i8* getelementptr inbounds ([15 x i8], [15 x i8]* @.str.7, i64 0, i64 0), %"class.base::Value"* nonnull dereferenceable(32) %10) #8
  call void @_ZN4base5ValueD1Ev(%"class.base::Value"* nonnull %10) #8
  call void @llvm.lifetime.end.p0i8(i64 32, i8* nonnull %72) #8
  %74 = bitcast %"class.base::Value"* %11 to i8*
  call void @llvm.lifetime.start.p0i8(i64 32, i8* nonnull %74) #8
  call void @_ZN4base5ValueC1Ei(%"class.base::Value"* nonnull %11, i32 0) #8
  %75 = call %"class.base::Value"* @_ZN4base5Value6SetKeyEPKcOS0_(%"class.base::Value"* %0, i8* getelementptr inbounds ([14 x i8], [14 x i8]* @.str.40, i64 0, i64 0), %"class.base::Value"* nonnull dereferenceable(32) %11) #8
  call void @_ZN4base5ValueD1Ev(%"class.base::Value"* nonnull %11) #8
  call void @llvm.lifetime.end.p0i8(i64 32, i8* nonnull %74) #8
  ret void
}

; Function Attrs: nounwind ssp uwtable
define hidden void @_ZNK12media_router23DialInternalMessageUtil20CreateNewSessionBodyERKNSt3__112basic_stringIcNS1_11char_traitsIcEENS1_9allocatorIcEEEERKNS_17MediaSinkInternalE(%"class.base::Value"* noalias sret, %"class.media_router::DialInternalMessageUtil"*, %"class.std::__1::basic_string"* dereferenceable(24), %"class.media_router::MediaSinkInternal"* dereferenceable(296)) local_unnamed_addr #0 align 2 {
  %5 = alloca %"class.base::Value", align 8
  %6 = alloca %"class.std::__1::basic_string", align 8
  %7 = alloca %"class.base::Value", align 8
  %8 = alloca %"class.base::Value", align 8
  %9 = alloca %"class.base::Value", align 8
  %10 = alloca %"class.base::ListValue", align 8
  %11 = alloca %"class.base::Value", align 8
  %12 = alloca %"class.base::ListValue", align 8
  %13 = alloca %"class.base::ListValue", align 8
  %14 = alloca %"class.base::ListValue", align 8
  %15 = alloca %"class.base::Value", align 8
  %16 = alloca %"class.base::Value", align 8
  %17 = bitcast %"class.base::Value"* %0 to i8*
  call void @llvm.memset.p0i8.i64(i8* align 8 %17, i8 -86, i64 32, i1 false)
  tail call void @_ZN4base5ValueC1ENS0_4TypeE(%"class.base::Value"* %0, i8 zeroext 6) #8
  %18 = bitcast %"class.base::Value"* %5 to i8*
  call void @llvm.lifetime.start.p0i8(i64 32, i8* nonnull %18) #8
  %19 = bitcast %"class.std::__1::basic_string"* %6 to i8*
  call void @llvm.lifetime.start.p0i8(i64 24, i8* nonnull %19) #8
  %20 = load i32, i32* @_ZZN12media_router12_GLOBAL__N_116GetNextSessionIdEvE10session_id, align 4, !noalias !7
  %21 = add nsw i32 %20, 1
  store i32 %21, i32* @_ZZN12media_router12_GLOBAL__N_116GetNextSessionIdEvE10session_id, align 4, !noalias !7
  call void @_ZN4base14NumberToStringEi(%"class.std::__1::basic_string"* nonnull sret %6, i32 %21) #8
  call void @_ZN4base5ValueC1EONSt3__112basic_stringIcNS1_11char_traitsIcEENS1_9allocatorIcEEEE(%"class.base::Value"* nonnull %5, %"class.std::__1::basic_string"* nonnull dereferenceable(24) %6) #8
  %22 = call %"class.base::Value"* @_ZN4base5Value6SetKeyEPKcOS0_(%"class.base::Value"* %0, i8* getelementptr inbounds ([10 x i8], [10 x i8]* @.str.26, i64 0, i64 0), %"class.base::Value"* nonnull dereferenceable(32) %5) #8
  call void @_ZN4base5ValueD1Ev(%"class.base::Value"* nonnull %5) #8
  %23 = bitcast %"class.std::__1::basic_string"* %6 to %"struct.std::__1::basic_string<char, std::__1::char_traits<char>, std::__1::allocator<char> >::__short"*
  %24 = getelementptr inbounds %"struct.std::__1::basic_string<char, std::__1::char_traits<char>, std::__1::allocator<char> >::__short", %"struct.std::__1::basic_string<char, std::__1::char_traits<char>, std::__1::allocator<char> >::__short"* %23, i64 0, i32 1, i32 0
  %25 = load i8, i8* %24, align 1
  %26 = icmp slt i8 %25, 0
  br i1 %26, label %27, label %30

27:                                               ; preds = %4
  %28 = getelementptr inbounds %"class.std::__1::basic_string", %"class.std::__1::basic_string"* %6, i64 0, i32 0, i32 0, i32 0, i32 0, i32 0, i32 0
  %29 = load i8*, i8** %28, align 8
  call void @_ZdlPv(i8* %29) #9
  br label %30

30:                                               ; preds = %4, %27
  call void @llvm.lifetime.end.p0i8(i64 24, i8* nonnull %19) #8
  call void @llvm.lifetime.end.p0i8(i64 32, i8* nonnull %18) #8
  %31 = bitcast %"class.base::Value"* %7 to i8*
  call void @llvm.lifetime.start.p0i8(i64 32, i8* nonnull %31) #8
  call void @_ZN4base5ValueC1EPKc(%"class.base::Value"* nonnull %7, i8* getelementptr inbounds ([1 x i8], [1 x i8]* @.str.28, i64 0, i64 0)) #8
  %32 = call %"class.base::Value"* @_ZN4base5Value6SetKeyEPKcOS0_(%"class.base::Value"* %0, i8* getelementptr inbounds ([6 x i8], [6 x i8]* @.str.27, i64 0, i64 0), %"class.base::Value"* nonnull dereferenceable(32) %7) #8
  call void @_ZN4base5ValueD1Ev(%"class.base::Value"* nonnull %7) #8
  call void @llvm.lifetime.end.p0i8(i64 32, i8* nonnull %31) #8
  %33 = bitcast %"class.base::Value"* %8 to i8*
  call void @llvm.lifetime.start.p0i8(i64 32, i8* nonnull %33) #8
  %34 = bitcast %"class.std::__1::basic_string"* %2 to %"struct.std::__1::basic_string<char, std::__1::char_traits<char>, std::__1::allocator<char> >::__short"*
  %35 = getelementptr inbounds %"struct.std::__1::basic_string<char, std::__1::char_traits<char>, std::__1::allocator<char> >::__short", %"struct.std::__1::basic_string<char, std::__1::char_traits<char>, std::__1::allocator<char> >::__short"* %34, i64 0, i32 1, i32 0
  %36 = load i8, i8* %35, align 1
  %37 = icmp slt i8 %36, 0
  %38 = getelementptr inbounds %"class.std::__1::basic_string", %"class.std::__1::basic_string"* %2, i64 0, i32 0, i32 0, i32 0, i32 0, i32 0, i32 0
  %39 = load i8*, i8** %38, align 8
  %40 = bitcast %"class.std::__1::basic_string"* %2 to i8*
  %41 = select i1 %37, i8* %39, i8* %40
  %42 = getelementptr inbounds %"class.std::__1::basic_string", %"class.std::__1::basic_string"* %2, i64 0, i32 0, i32 0, i32 0, i32 0, i32 0, i32 1
  %43 = load i64, i64* %42, align 8
  %44 = zext i8 %36 to i64
  %45 = select i1 %37, i64 %43, i64 %44
  call void @_ZN4base5ValueC1ENS_16BasicStringPieceIcNSt3__111char_traitsIcEEEE(%"class.base::Value"* nonnull %8, i8* %41, i64 %45) #8
  %46 = call %"class.base::Value"* @_ZN4base5Value6SetKeyEPKcOS0_(%"class.base::Value"* %0, i8* getelementptr inbounds ([12 x i8], [12 x i8]* @.str.29, i64 0, i64 0), %"class.base::Value"* nonnull dereferenceable(32) %8) #8
  call void @_ZN4base5ValueD1Ev(%"class.base::Value"* nonnull %8) #8
  call void @llvm.lifetime.end.p0i8(i64 32, i8* nonnull %33) #8
  %47 = bitcast %"class.base::Value"* %9 to i8*
  call void @llvm.lifetime.start.p0i8(i64 32, i8* nonnull %47) #8
  call void @_ZN4base5ValueC1EPKc(%"class.base::Value"* nonnull %9, i8* getelementptr inbounds ([1 x i8], [1 x i8]* @.str.28, i64 0, i64 0)) #8
  %48 = call %"class.base::Value"* @_ZN4base5Value6SetKeyEPKcOS0_(%"class.base::Value"* %0, i8* getelementptr inbounds ([11 x i8], [11 x i8]* @.str.30, i64 0, i64 0), %"class.base::Value"* nonnull dereferenceable(32) %9) #8
  call void @_ZN4base5ValueD1Ev(%"class.base::Value"* nonnull %9) #8
  call void @llvm.lifetime.end.p0i8(i64 32, i8* nonnull %47) #8
  %49 = bitcast %"class.base::ListValue"* %10 to i8*
  call void @llvm.lifetime.start.p0i8(i64 32, i8* nonnull %49) #8
  call void @_ZN4base9ListValueC1Ev(%"class.base::ListValue"* nonnull %10) #8
  %50 = getelementptr inbounds %"class.base::ListValue", %"class.base::ListValue"* %10, i64 0, i32 0
  %51 = call %"class.base::Value"* @_ZN4base5Value6SetKeyEPKcOS0_(%"class.base::Value"* %0, i8* getelementptr inbounds ([10 x i8], [10 x i8]* @.str.31, i64 0, i64 0), %"class.base::Value"* nonnull dereferenceable(32) %50) #8
  call void @_ZN4base5ValueD2Ev(%"class.base::Value"* nonnull %50) #8
  call void @llvm.lifetime.end.p0i8(i64 32, i8* nonnull %49) #8
  %52 = bitcast %"class.base::Value"* %11 to i8*
  call void @llvm.lifetime.start.p0i8(i64 32, i8* nonnull %52) #8
  call void @_ZNK12media_router23DialInternalMessageUtil14CreateReceiverERKNS_17MediaSinkInternalE(%"class.base::Value"* nonnull sret %11, %"class.media_router::DialInternalMessageUtil"* %1, %"class.media_router::MediaSinkInternal"* dereferenceable(296) %3)
  %53 = call %"class.base::Value"* @_ZN4base5Value6SetKeyEPKcOS0_(%"class.base::Value"* %0, i8* getelementptr inbounds ([9 x i8], [9 x i8]* @.str.24, i64 0, i64 0), %"class.base::Value"* nonnull dereferenceable(32) %11) #8
  call void @_ZN4base5ValueD1Ev(%"class.base::Value"* nonnull %11) #8
  call void @llvm.lifetime.end.p0i8(i64 32, i8* nonnull %52) #8
  %54 = bitcast %"class.base::ListValue"* %12 to i8*
  call void @llvm.lifetime.start.p0i8(i64 32, i8* nonnull %54) #8
  call void @_ZN4base9ListValueC1Ev(%"class.base::ListValue"* nonnull %12) #8
  %55 = getelementptr inbounds %"class.base::ListValue", %"class.base::ListValue"* %12, i64 0, i32 0
  %56 = call %"class.base::Value"* @_ZN4base5Value6SetKeyEPKcOS0_(%"class.base::Value"* %0, i8* getelementptr inbounds ([11 x i8], [11 x i8]* @.str.32, i64 0, i64 0), %"class.base::Value"* nonnull dereferenceable(32) %55) #8
  call void @_ZN4base5ValueD2Ev(%"class.base::Value"* nonnull %55) #8
  call void @llvm.lifetime.end.p0i8(i64 32, i8* nonnull %54) #8
  %57 = bitcast %"class.base::ListValue"* %13 to i8*
  call void @llvm.lifetime.start.p0i8(i64 32, i8* nonnull %57) #8
  call void @_ZN4base9ListValueC1Ev(%"class.base::ListValue"* nonnull %13) #8
  %58 = getelementptr inbounds %"class.base::ListValue", %"class.base::ListValue"* %13, i64 0, i32 0
  %59 = call %"class.base::Value"* @_ZN4base5Value6SetKeyEPKcOS0_(%"class.base::Value"* %0, i8* getelementptr inbounds ([11 x i8], [11 x i8]* @.str.33, i64 0, i64 0), %"class.base::Value"* nonnull dereferenceable(32) %58) #8
  call void @_ZN4base5ValueD2Ev(%"class.base::Value"* nonnull %58) #8
  call void @llvm.lifetime.end.p0i8(i64 32, i8* nonnull %57) #8
  %60 = bitcast %"class.base::ListValue"* %14 to i8*
  call void @llvm.lifetime.start.p0i8(i64 32, i8* nonnull %60) #8
  call void @_ZN4base9ListValueC1Ev(%"class.base::ListValue"* nonnull %14) #8
  %61 = getelementptr inbounds %"class.base::ListValue", %"class.base::ListValue"* %14, i64 0, i32 0
  %62 = call %"class.base::Value"* @_ZN4base5Value6SetKeyEPKcOS0_(%"class.base::Value"* %0, i8* getelementptr inbounds ([6 x i8], [6 x i8]* @.str.34, i64 0, i64 0), %"class.base::Value"* nonnull dereferenceable(32) %61) #8
  call void @_ZN4base5ValueD2Ev(%"class.base::Value"* nonnull %61) #8
  call void @llvm.lifetime.end.p0i8(i64 32, i8* nonnull %60) #8
  %63 = bitcast %"class.base::Value"* %15 to i8*
  call void @llvm.lifetime.start.p0i8(i64 32, i8* nonnull %63) #8
  call void @_ZN4base5ValueC1EPKc(%"class.base::Value"* nonnull %15, i8* getelementptr inbounds ([10 x i8], [10 x i8]* @.str.36, i64 0, i64 0)) #8
  %64 = call %"class.base::Value"* @_ZN4base5Value6SetKeyEPKcOS0_(%"class.base::Value"* %0, i8* getelementptr inbounds ([7 x i8], [7 x i8]* @.str.35, i64 0, i64 0), %"class.base::Value"* nonnull dereferenceable(32) %15) #8
  call void @_ZN4base5ValueD1Ev(%"class.base::Value"* nonnull %15) #8
  call void @llvm.lifetime.end.p0i8(i64 32, i8* nonnull %63) #8
  %65 = bitcast %"class.base::Value"* %16 to i8*
  call void @llvm.lifetime.start.p0i8(i64 32, i8* nonnull %65) #8
  call void @_ZN4base5ValueC1EPKc(%"class.base::Value"* nonnull %16, i8* getelementptr inbounds ([1 x i8], [1 x i8]* @.str.28, i64 0, i64 0)) #8
  %66 = call %"class.base::Value"* @_ZN4base5Value6SetKeyEPKcOS0_(%"class.base::Value"* %0, i8* getelementptr inbounds ([12 x i8], [12 x i8]* @.str.37, i64 0, i64 0), %"class.base::Value"* nonnull dereferenceable(32) %16) #8
  call void @_ZN4base5ValueD1Ev(%"class.base::Value"* nonnull %16) #8
  call void @llvm.lifetime.end.p0i8(i64 32, i8* nonnull %65) #8
  ret void
}

; Function Attrs: nounwind
declare void @_ZN4base5ValueD1Ev(%"class.base::Value"*) unnamed_addr #3

declare void @_ZN12media_router12message_util21RouteMessageFromValueEN4base5ValueE(%"class.mojo::StructPtr"* sret, %"class.base::Value"*) local_unnamed_addr #2

; Function Attrs: nounwind
declare void @_ZN4base5ValueC1EOS0_(%"class.base::Value"*, %"class.base::Value"* dereferenceable(32)) unnamed_addr #3

; Function Attrs: nounwind ssp uwtable
define hidden void @_ZNK12media_router23DialInternalMessageUtil31CreateReceiverActionCastMessageERKNSt3__112basic_stringIcNS1_11char_traitsIcEENS1_9allocatorIcEEEERKNS_17MediaSinkInternalE(%"class.mojo::StructPtr"* noalias sret, %"class.media_router::DialInternalMessageUtil"*, %"class.std::__1::basic_string"* dereferenceable(24), %"class.media_router::MediaSinkInternal"* dereferenceable(296)) local_unnamed_addr #0 align 2 {
  %5 = alloca %"class.base::Value", align 8
  %6 = alloca %"class.base::Value", align 8
  %7 = alloca %"class.base::Value", align 8
  %8 = bitcast %"class.base::Value"* %5 to i8*
  call void @llvm.lifetime.start.p0i8(i64 32, i8* nonnull %8) #8
  %9 = bitcast %"class.base::Value"* %5 to i8*
  call void @llvm.memset.p0i8.i64(i8* nonnull align 8 %9, i8 -86, i64 32, i1 false)
  call void @_ZNK12media_router23DialInternalMessageUtil24CreateReceiverActionBodyERKNS_17MediaSinkInternalENS_18DialReceiverActionE(%"class.base::Value"* nonnull sret %6, %"class.media_router::DialInternalMessageUtil"* %1, %"class.media_router::MediaSinkInternal"* dereferenceable(296) %3, i32 0)
  call void @_ZNK12media_router23DialInternalMessageUtil23CreateDialMessageCommonENS_23DialInternalMessageTypeEN4base5ValueERKNSt3__112basic_stringIcNS4_11char_traitsIcEENS4_9allocatorIcEEEEi(%"class.base::Value"* nonnull sret %5, %"class.media_router::DialInternalMessageUtil"* undef, i32 3, %"class.base::Value"* nonnull %6, %"class.std::__1::basic_string"* dereferenceable(24) %2, i32 -1)
  call void @_ZN4base5ValueD1Ev(%"class.base::Value"* nonnull %6) #8
  call void @_ZN4base5ValueC1EOS0_(%"class.base::Value"* nonnull %7, %"class.base::Value"* nonnull dereferenceable(32) %5) #8
  call void @_ZN12media_router12message_util21RouteMessageFromValueEN4base5ValueE(%"class.mojo::StructPtr"* sret %0, %"class.base::Value"* nonnull %7) #8
  call void @_ZN4base5ValueD1Ev(%"class.base::Value"* nonnull %7) #8
  call void @_ZN4base5ValueD1Ev(%"class.base::Value"* nonnull %5) #8
  call void @llvm.lifetime.end.p0i8(i64 32, i8* nonnull %8) #8
  ret void
}

; Function Attrs: nounwind ssp uwtable
define hidden void @_ZNK12media_router23DialInternalMessageUtil24CreateReceiverActionBodyERKNS_17MediaSinkInternalENS_18DialReceiverActionE(%"class.base::Value"* noalias sret, %"class.media_router::DialInternalMessageUtil"*, %"class.media_router::MediaSinkInternal"* dereferenceable(296), i32) local_unnamed_addr #0 align 2 {
  %5 = alloca %"class.base::Value", align 8
  %6 = alloca %"class.base::Value", align 8
  %7 = alloca %"class.std::__1::basic_string", align 8
  %8 = bitcast %"class.base::Value"* %0 to i8*
  call void @llvm.memset.p0i8.i64(i8* align 8 %8, i8 -86, i64 32, i1 false)
  tail call void @_ZN4base5ValueC1ENS0_4TypeE(%"class.base::Value"* %0, i8 zeroext 6) #8
  %9 = bitcast %"class.base::Value"* %5 to i8*
  call void @llvm.lifetime.start.p0i8(i64 32, i8* nonnull %9) #8
  call void @_ZNK12media_router23DialInternalMessageUtil14CreateReceiverERKNS_17MediaSinkInternalE(%"class.base::Value"* nonnull sret %5, %"class.media_router::DialInternalMessageUtil"* %1, %"class.media_router::MediaSinkInternal"* dereferenceable(296) %2)
  %10 = call %"class.base::Value"* @_ZN4base5Value6SetKeyEPKcOS0_(%"class.base::Value"* %0, i8* getelementptr inbounds ([9 x i8], [9 x i8]* @.str.24, i64 0, i64 0), %"class.base::Value"* nonnull dereferenceable(32) %5) #8
  call void @_ZN4base5ValueD1Ev(%"class.base::Value"* nonnull %5) #8
  call void @llvm.lifetime.end.p0i8(i64 32, i8* nonnull %9) #8
  %11 = bitcast %"class.base::Value"* %6 to i8*
  call void @llvm.lifetime.start.p0i8(i64 32, i8* nonnull %11) #8
  %12 = bitcast %"class.std::__1::basic_string"* %7 to i8*
  call void @llvm.lifetime.start.p0i8(i64 24, i8* nonnull %12) #8
  switch i32 %3, label %23 [
    i32 0, label %13
    i32 1, label %18
  ]

13:                                               ; preds = %4
  %14 = bitcast %"class.std::__1::basic_string"* %7 to %"struct.std::__1::basic_string<char, std::__1::char_traits<char>, std::__1::allocator<char> >::__short"*
  %15 = getelementptr inbounds %"struct.std::__1::basic_string<char, std::__1::char_traits<char>, std::__1::allocator<char> >::__short", %"struct.std::__1::basic_string<char, std::__1::char_traits<char>, std::__1::allocator<char> >::__short"* %14, i64 0, i32 1, i32 0
  store i8 4, i8* %15, align 1, !alias.scope !10
  %16 = bitcast %"class.std::__1::basic_string"* %7 to i32*
  store i32 1953718627, i32* %16, align 8, !alias.scope !10
  %17 = getelementptr inbounds i8, i8* %12, i64 4
  store i8 0, i8* %17, align 4, !alias.scope !10
  br label %26

18:                                               ; preds = %4
  %19 = bitcast %"class.std::__1::basic_string"* %7 to %"struct.std::__1::basic_string<char, std::__1::char_traits<char>, std::__1::allocator<char> >::__short"*
  %20 = getelementptr inbounds %"struct.std::__1::basic_string<char, std::__1::char_traits<char>, std::__1::allocator<char> >::__short", %"struct.std::__1::basic_string<char, std::__1::char_traits<char>, std::__1::allocator<char> >::__short"* %19, i64 0, i32 1, i32 0
  store i8 4, i8* %20, align 1, !alias.scope !10
  %21 = bitcast %"class.std::__1::basic_string"* %7 to i32*
  store i32 1886352499, i32* %21, align 8, !alias.scope !10
  %22 = getelementptr inbounds i8, i8* %12, i64 4
  store i8 0, i8* %22, align 4, !alias.scope !10
  br label %26

23:                                               ; preds = %4
  %24 = bitcast %"class.std::__1::basic_string"* %7 to %"struct.std::__1::basic_string<char, std::__1::char_traits<char>, std::__1::allocator<char> >::__short"*
  %25 = getelementptr inbounds %"struct.std::__1::basic_string<char, std::__1::char_traits<char>, std::__1::allocator<char> >::__short", %"struct.std::__1::basic_string<char, std::__1::char_traits<char>, std::__1::allocator<char> >::__short"* %24, i64 0, i32 1, i32 0
  store i8 0, i8* %25, align 1, !alias.scope !10
  store i8 0, i8* %12, align 8, !alias.scope !10
  br label %26

26:                                               ; preds = %13, %18, %23
  %27 = phi %"struct.std::__1::basic_string<char, std::__1::char_traits<char>, std::__1::allocator<char> >::__short"* [ %14, %13 ], [ %19, %18 ], [ %24, %23 ]
  call void @_ZN4base5ValueC1EONSt3__112basic_stringIcNS1_11char_traitsIcEENS1_9allocatorIcEEEE(%"class.base::Value"* nonnull %6, %"class.std::__1::basic_string"* nonnull dereferenceable(24) %7) #8
  %28 = call %"class.base::Value"* @_ZN4base5Value6SetKeyEPKcOS0_(%"class.base::Value"* %0, i8* getelementptr inbounds ([7 x i8], [7 x i8]* @.str.25, i64 0, i64 0), %"class.base::Value"* nonnull dereferenceable(32) %6) #8
  call void @_ZN4base5ValueD1Ev(%"class.base::Value"* nonnull %6) #8
  %29 = getelementptr inbounds %"struct.std::__1::basic_string<char, std::__1::char_traits<char>, std::__1::allocator<char> >::__short", %"struct.std::__1::basic_string<char, std::__1::char_traits<char>, std::__1::allocator<char> >::__short"* %27, i64 0, i32 1, i32 0
  %30 = load i8, i8* %29, align 1
  %31 = icmp slt i8 %30, 0
  br i1 %31, label %32, label %35

32:                                               ; preds = %26
  %33 = getelementptr inbounds %"class.std::__1::basic_string", %"class.std::__1::basic_string"* %7, i64 0, i32 0, i32 0, i32 0, i32 0, i32 0, i32 0
  %34 = load i8*, i8** %33, align 8
  call void @_ZdlPv(i8* %34) #9
  br label %35

35:                                               ; preds = %26, %32
  call void @llvm.lifetime.end.p0i8(i64 24, i8* nonnull %12) #8
  call void @llvm.lifetime.end.p0i8(i64 32, i8* nonnull %11) #8
  ret void
}

; Function Attrs: nounwind ssp uwtable
define hidden void @_ZNK12media_router23DialInternalMessageUtil31CreateReceiverActionStopMessageERKNSt3__112basic_stringIcNS1_11char_traitsIcEENS1_9allocatorIcEEEERKNS_17MediaSinkInternalE(%"class.mojo::StructPtr"* noalias sret, %"class.media_router::DialInternalMessageUtil"*, %"class.std::__1::basic_string"* dereferenceable(24), %"class.media_router::MediaSinkInternal"* dereferenceable(296)) local_unnamed_addr #0 align 2 {
  %5 = alloca %"class.base::Value", align 8
  %6 = alloca %"class.base::Value", align 8
  %7 = alloca %"class.base::Value", align 8
  %8 = bitcast %"class.base::Value"* %5 to i8*
  call void @llvm.lifetime.start.p0i8(i64 32, i8* nonnull %8) #8
  %9 = bitcast %"class.base::Value"* %5 to i8*
  call void @llvm.memset.p0i8.i64(i8* nonnull align 8 %9, i8 -86, i64 32, i1 false)
  call void @_ZNK12media_router23DialInternalMessageUtil24CreateReceiverActionBodyERKNS_17MediaSinkInternalENS_18DialReceiverActionE(%"class.base::Value"* nonnull sret %6, %"class.media_router::DialInternalMessageUtil"* %1, %"class.media_router::MediaSinkInternal"* dereferenceable(296) %3, i32 1)
  call void @_ZNK12media_router23DialInternalMessageUtil23CreateDialMessageCommonENS_23DialInternalMessageTypeEN4base5ValueERKNSt3__112basic_stringIcNS4_11char_traitsIcEENS4_9allocatorIcEEEEi(%"class.base::Value"* nonnull sret %5, %"class.media_router::DialInternalMessageUtil"* undef, i32 3, %"class.base::Value"* nonnull %6, %"class.std::__1::basic_string"* dereferenceable(24) %2, i32 -1)
  call void @_ZN4base5ValueD1Ev(%"class.base::Value"* nonnull %6) #8
  call void @_ZN4base5ValueC1EOS0_(%"class.base::Value"* nonnull %7, %"class.base::Value"* nonnull dereferenceable(32) %5) #8
  call void @_ZN12media_router12message_util21RouteMessageFromValueEN4base5ValueE(%"class.mojo::StructPtr"* sret %0, %"class.base::Value"* nonnull %7) #8
  call void @_ZN4base5ValueD1Ev(%"class.base::Value"* nonnull %7) #8
  call void @_ZN4base5ValueD1Ev(%"class.base::Value"* nonnull %5) #8
  call void @llvm.lifetime.end.p0i8(i64 32, i8* nonnull %8) #8
  ret void
}

; Function Attrs: nounwind ssp uwtable
define hidden void @_ZNK12media_router23DialInternalMessageUtil29CreateCustomDialLaunchMessageERKNSt3__112basic_stringIcNS1_11char_traitsIcEENS1_9allocatorIcEEEERKNS_17MediaSinkInternalERKNS_17ParsedDialAppInfoE(%"struct.std::__1::pair.67"* noalias nocapture sret, %"class.media_router::DialInternalMessageUtil"*, %"class.std::__1::basic_string"* dereferenceable(24), %"class.media_router::MediaSinkInternal"* dereferenceable(296), %"struct.media_router::ParsedDialAppInfo"* dereferenceable(104)) local_unnamed_addr #0 align 2 {
  %6 = alloca %"class.base::Value", align 8
  %7 = alloca %"class.base::Value", align 8
  %8 = alloca %"class.base::Value", align 8
  %9 = alloca %"class.mojo::StructPtr", align 8
  %10 = load i32, i32* @_ZZN12media_router12_GLOBAL__N_131GetNextDialLaunchSequenceNumberEvE15next_seq_number, align 4
  %11 = add nsw i32 %10, 1
  store i32 %11, i32* @_ZZN12media_router12_GLOBAL__N_131GetNextDialLaunchSequenceNumberEvE15next_seq_number, align 4
  %12 = bitcast %"class.mojo::StructPtr"* %9 to i8*
  call void @llvm.lifetime.start.p0i8(i64 8, i8* nonnull %12) #8
  %13 = bitcast %"class.base::Value"* %7 to i8*
  call void @llvm.lifetime.start.p0i8(i64 32, i8* nonnull %13)
  %14 = bitcast %"class.base::Value"* %8 to i8*
  call void @llvm.lifetime.start.p0i8(i64 32, i8* nonnull %14)
  %15 = bitcast %"class.base::Value"* %6 to i8*
  call void @llvm.lifetime.start.p0i8(i64 32, i8* nonnull %15) #8, !noalias !13
  call void @llvm.memset.p0i8.i64(i8* nonnull align 8 %15, i8 -86, i64 32, i1 false) #8, !noalias !13
  call void @_ZNK12media_router23DialInternalMessageUtil21CreateDialAppInfoBodyERKNS_17MediaSinkInternalERKNS_17ParsedDialAppInfoE(%"class.base::Value"* nonnull sret %7, %"class.media_router::DialInternalMessageUtil"* %1, %"class.media_router::MediaSinkInternal"* dereferenceable(296) %3, %"struct.media_router::ParsedDialAppInfo"* dereferenceable(104) %4) #8, !noalias !13
  call void @_ZNK12media_router23DialInternalMessageUtil23CreateDialMessageCommonENS_23DialInternalMessageTypeEN4base5ValueERKNSt3__112basic_stringIcNS4_11char_traitsIcEENS4_9allocatorIcEEEEi(%"class.base::Value"* nonnull sret %6, %"class.media_router::DialInternalMessageUtil"* undef, i32 5, %"class.base::Value"* nonnull %7, %"class.std::__1::basic_string"* dereferenceable(24) %2, i32 %11) #8, !noalias !13
  call void @_ZN4base5ValueD1Ev(%"class.base::Value"* nonnull %7) #8, !noalias !13
  call void @_ZN4base5ValueC1EOS0_(%"class.base::Value"* nonnull %8, %"class.base::Value"* nonnull dereferenceable(32) %6) #8, !noalias !13
  call void @_ZN12media_router12message_util21RouteMessageFromValueEN4base5ValueE(%"class.mojo::StructPtr"* nonnull sret %9, %"class.base::Value"* nonnull %8) #8
  call void @_ZN4base5ValueD1Ev(%"class.base::Value"* nonnull %8) #8
  call void @_ZN4base5ValueD1Ev(%"class.base::Value"* nonnull %6) #8
  call void @llvm.lifetime.end.p0i8(i64 32, i8* nonnull %15) #8, !noalias !13
  call void @llvm.lifetime.end.p0i8(i64 32, i8* nonnull %13)
  call void @llvm.lifetime.end.p0i8(i64 32, i8* nonnull %14)
  %16 = bitcast %"struct.std::__1::pair.67"* %0 to i64*
  %17 = bitcast %"class.mojo::StructPtr"* %9 to i64*
  %18 = load i64, i64* %17, align 8
  store i64 %18, i64* %16, align 8
  %19 = getelementptr inbounds %"struct.std::__1::pair.67", %"struct.std::__1::pair.67"* %0, i64 0, i32 1
  store i32 %11, i32* %19, align 8
  call void @llvm.lifetime.end.p0i8(i64 8, i8* nonnull %12) #8
  ret void
}

; Function Attrs: nounwind ssp uwtable
define hidden void @_ZNK12media_router23DialInternalMessageUtil24CreateDialAppInfoMessageERKNSt3__112basic_stringIcNS1_11char_traitsIcEENS1_9allocatorIcEEEERKNS_17MediaSinkInternalERKNS_17ParsedDialAppInfoEiNS_23DialInternalMessageTypeE(%"class.mojo::StructPtr"* noalias sret, %"class.media_router::DialInternalMessageUtil"*, %"class.std::__1::basic_string"* dereferenceable(24), %"class.media_router::MediaSinkInternal"* dereferenceable(296), %"struct.media_router::ParsedDialAppInfo"* dereferenceable(104), i32, i32) local_unnamed_addr #0 align 2 {
  %8 = alloca %"class.base::Value", align 8
  %9 = alloca %"class.base::Value", align 8
  %10 = alloca %"class.base::Value", align 8
  %11 = bitcast %"class.base::Value"* %8 to i8*
  call void @llvm.lifetime.start.p0i8(i64 32, i8* nonnull %11) #8
  %12 = bitcast %"class.base::Value"* %8 to i8*
  call void @llvm.memset.p0i8.i64(i8* nonnull align 8 %12, i8 -86, i64 32, i1 false)
  call void @_ZNK12media_router23DialInternalMessageUtil21CreateDialAppInfoBodyERKNS_17MediaSinkInternalERKNS_17ParsedDialAppInfoE(%"class.base::Value"* nonnull sret %9, %"class.media_router::DialInternalMessageUtil"* %1, %"class.media_router::MediaSinkInternal"* dereferenceable(296) %3, %"struct.media_router::ParsedDialAppInfo"* dereferenceable(104) %4)
  call void @_ZNK12media_router23DialInternalMessageUtil23CreateDialMessageCommonENS_23DialInternalMessageTypeEN4base5ValueERKNSt3__112basic_stringIcNS4_11char_traitsIcEENS4_9allocatorIcEEEEi(%"class.base::Value"* nonnull sret %8, %"class.media_router::DialInternalMessageUtil"* undef, i32 %6, %"class.base::Value"* nonnull %9, %"class.std::__1::basic_string"* dereferenceable(24) %2, i32 %5)
  call void @_ZN4base5ValueD1Ev(%"class.base::Value"* nonnull %9) #8
  call void @_ZN4base5ValueC1EOS0_(%"class.base::Value"* nonnull %10, %"class.base::Value"* nonnull dereferenceable(32) %8) #8
  call void @_ZN12media_router12message_util21RouteMessageFromValueEN4base5ValueE(%"class.mojo::StructPtr"* sret %0, %"class.base::Value"* nonnull %10) #8
  call void @_ZN4base5ValueD1Ev(%"class.base::Value"* nonnull %10) #8
  call void @_ZN4base5ValueD1Ev(%"class.base::Value"* nonnull %8) #8
  call void @llvm.lifetime.end.p0i8(i64 32, i8* nonnull %11) #8
  ret void
}

; Function Attrs: nounwind ssp uwtable
define hidden void @_ZNK12media_router23DialInternalMessageUtil21CreateDialAppInfoBodyERKNS_17MediaSinkInternalERKNS_17ParsedDialAppInfoE(%"class.base::Value"* noalias sret, %"class.media_router::DialInternalMessageUtil"*, %"class.media_router::MediaSinkInternal"* dereferenceable(296), %"struct.media_router::ParsedDialAppInfo"* dereferenceable(104)) local_unnamed_addr #0 align 2 {
  %5 = alloca %"class.base::Value", align 8
  %6 = alloca %"class.base::Value", align 8
  %7 = alloca %"class.std::__1::basic_string", align 8
  %8 = alloca %"class.base::Value", align 8
  %9 = alloca %"class.base::Value", align 8
  %10 = bitcast %"class.base::Value"* %0 to i8*
  call void @llvm.memset.p0i8.i64(i8* align 8 %10, i8 -86, i64 32, i1 false)
  tail call void @_ZN4base5ValueC1ENS0_4TypeE(%"class.base::Value"* %0, i8 zeroext 6) #8
  %11 = bitcast %"class.base::Value"* %5 to i8*
  call void @llvm.lifetime.start.p0i8(i64 32, i8* nonnull %11) #8
  call void @_ZNK12media_router23DialInternalMessageUtil14CreateReceiverERKNS_17MediaSinkInternalE(%"class.base::Value"* nonnull sret %5, %"class.media_router::DialInternalMessageUtil"* %1, %"class.media_router::MediaSinkInternal"* dereferenceable(296) %2)
  %12 = call %"class.base::Value"* @_ZN4base5Value6SetKeyEPKcOS0_(%"class.base::Value"* %0, i8* getelementptr inbounds ([9 x i8], [9 x i8]* @.str.24, i64 0, i64 0), %"class.base::Value"* nonnull dereferenceable(32) %5) #8
  call void @_ZN4base5ValueD1Ev(%"class.base::Value"* nonnull %5) #8
  call void @llvm.lifetime.end.p0i8(i64 32, i8* nonnull %11) #8
  %13 = bitcast %"class.base::Value"* %6 to i8*
  call void @llvm.lifetime.start.p0i8(i64 32, i8* nonnull %13) #8
  %14 = bitcast %"class.std::__1::basic_string"* %7 to i8*
  call void @llvm.lifetime.start.p0i8(i64 24, i8* nonnull %14) #8
  %15 = getelementptr inbounds %"struct.media_router::ParsedDialAppInfo", %"struct.media_router::ParsedDialAppInfo"* %3, i64 0, i32 3
  %16 = load i32, i32* %15, align 4
  call void @_ZN12media_router20DialAppStateToStringENS_12DialAppStateE(%"class.std::__1::basic_string"* nonnull sret %7, i32 %16) #8
  call void @_ZN4base5ValueC1EONSt3__112basic_stringIcNS1_11char_traitsIcEENS1_9allocatorIcEEEE(%"class.base::Value"* nonnull %6, %"class.std::__1::basic_string"* nonnull dereferenceable(24) %7) #8
  %17 = call %"class.base::Value"* @_ZN4base5Value6SetKeyEPKcOS0_(%"class.base::Value"* %0, i8* getelementptr inbounds ([9 x i8], [9 x i8]* @.str.38, i64 0, i64 0), %"class.base::Value"* nonnull dereferenceable(32) %6) #8
  call void @_ZN4base5ValueD1Ev(%"class.base::Value"* nonnull %6) #8
  %18 = bitcast %"class.std::__1::basic_string"* %7 to %"struct.std::__1::basic_string<char, std::__1::char_traits<char>, std::__1::allocator<char> >::__short"*
  %19 = getelementptr inbounds %"struct.std::__1::basic_string<char, std::__1::char_traits<char>, std::__1::allocator<char> >::__short", %"struct.std::__1::basic_string<char, std::__1::char_traits<char>, std::__1::allocator<char> >::__short"* %18, i64 0, i32 1, i32 0
  %20 = load i8, i8* %19, align 1
  %21 = icmp slt i8 %20, 0
  br i1 %21, label %22, label %25

22:                                               ; preds = %4
  %23 = getelementptr inbounds %"class.std::__1::basic_string", %"class.std::__1::basic_string"* %7, i64 0, i32 0, i32 0, i32 0, i32 0, i32 0, i32 0
  %24 = load i8*, i8** %23, align 8
  call void @_ZdlPv(i8* %24) #9
  br label %25

25:                                               ; preds = %4, %22
  call void @llvm.lifetime.end.p0i8(i64 24, i8* nonnull %14) #8
  call void @llvm.lifetime.end.p0i8(i64 32, i8* nonnull %13) #8
  %26 = bitcast %"class.base::Value"* %8 to i8*
  call void @llvm.lifetime.start.p0i8(i64 32, i8* nonnull %26) #8
  %27 = bitcast %"class.base::Value"* %8 to i8*
  call void @llvm.memset.p0i8.i64(i8* nonnull align 8 %27, i8 -86, i64 32, i1 false)
  call void @_ZN4base5ValueC1ENS0_4TypeE(%"class.base::Value"* nonnull %8, i8 zeroext 6) #8
  %28 = getelementptr inbounds %"struct.media_router::ParsedDialAppInfo", %"struct.media_router::ParsedDialAppInfo"* %3, i64 0, i32 5, i32 0, i32 0
  %29 = load %"class.std::__1::__tree_end_node"*, %"class.std::__1::__tree_end_node"** %28, align 8
  %30 = getelementptr inbounds %"struct.media_router::ParsedDialAppInfo", %"struct.media_router::ParsedDialAppInfo"* %3, i64 0, i32 5, i32 0, i32 1, i32 0, i32 0
  %31 = icmp eq %"class.std::__1::__tree_end_node"* %29, %30
  br i1 %31, label %34, label %32

32:                                               ; preds = %25
  %33 = bitcast %"class.base::Value"* %9 to i8*
  br label %36

34:                                               ; preds = %94, %25
  %35 = call %"class.base::Value"* @_ZN4base5Value6SetKeyEPKcOS0_(%"class.base::Value"* %0, i8* getelementptr inbounds ([10 x i8], [10 x i8]* @.str.39, i64 0, i64 0), %"class.base::Value"* nonnull dereferenceable(32) %8) #8
  call void @_ZN4base5ValueD1Ev(%"class.base::Value"* nonnull %8) #8
  call void @llvm.lifetime.end.p0i8(i64 32, i8* nonnull %26) #8
  ret void

36:                                               ; preds = %32, %94
  %37 = phi %"class.std::__1::__tree_end_node"* [ %29, %32 ], [ %95, %94 ]
  %38 = getelementptr inbounds %"class.std::__1::__tree_end_node", %"class.std::__1::__tree_end_node"* %37, i64 4
  %39 = bitcast %"class.std::__1::__tree_end_node"* %38 to %"struct.std::__1::basic_string<char, std::__1::char_traits<char>, std::__1::allocator<char> >::__short"*
  %40 = getelementptr inbounds %"struct.std::__1::basic_string<char, std::__1::char_traits<char>, std::__1::allocator<char> >::__short", %"struct.std::__1::basic_string<char, std::__1::char_traits<char>, std::__1::allocator<char> >::__short"* %39, i64 0, i32 1, i32 0
  %41 = load i8, i8* %40, align 1
  %42 = icmp slt i8 %41, 0
  %43 = bitcast %"class.std::__1::__tree_end_node"* %38 to i8**
  %44 = load i8*, i8** %43, align 8
  %45 = bitcast %"class.std::__1::__tree_end_node"* %38 to i8*
  %46 = select i1 %42, i8* %44, i8* %45
  %47 = getelementptr inbounds %"class.std::__1::__tree_end_node", %"class.std::__1::__tree_end_node"* %37, i64 5
  %48 = bitcast %"class.std::__1::__tree_end_node"* %47 to i64*
  %49 = load i64, i64* %48, align 8
  %50 = zext i8 %41 to i64
  %51 = select i1 %42, i64 %49, i64 %50
  call void @llvm.lifetime.start.p0i8(i64 32, i8* nonnull %33) #8
  %52 = getelementptr inbounds %"class.std::__1::__tree_end_node", %"class.std::__1::__tree_end_node"* %37, i64 7
  %53 = bitcast %"class.std::__1::__tree_end_node"* %52 to %"struct.std::__1::basic_string<char, std::__1::char_traits<char>, std::__1::allocator<char> >::__short"*
  %54 = getelementptr inbounds %"struct.std::__1::basic_string<char, std::__1::char_traits<char>, std::__1::allocator<char> >::__short", %"struct.std::__1::basic_string<char, std::__1::char_traits<char>, std::__1::allocator<char> >::__short"* %53, i64 0, i32 1, i32 0
  %55 = load i8, i8* %54, align 1
  %56 = icmp slt i8 %55, 0
  %57 = bitcast %"class.std::__1::__tree_end_node"* %52 to i8**
  %58 = load i8*, i8** %57, align 8
  %59 = bitcast %"class.std::__1::__tree_end_node"* %52 to i8*
  %60 = select i1 %56, i8* %58, i8* %59
  %61 = getelementptr inbounds %"class.std::__1::__tree_end_node", %"class.std::__1::__tree_end_node"* %37, i64 8
  %62 = bitcast %"class.std::__1::__tree_end_node"* %61 to i64*
  %63 = load i64, i64* %62, align 8
  %64 = zext i8 %55 to i64
  %65 = select i1 %56, i64 %63, i64 %64
  call void @_ZN4base5ValueC1ENS_16BasicStringPieceIcNSt3__111char_traitsIcEEEE(%"class.base::Value"* nonnull %9, i8* %60, i64 %65) #8
  %66 = call %"class.base::Value"* @_ZN4base5Value6SetKeyENS_16BasicStringPieceIcNSt3__111char_traitsIcEEEEOS0_(%"class.base::Value"* nonnull %8, i8* %46, i64 %51, %"class.base::Value"* nonnull dereferenceable(32) %9) #8
  call void @_ZN4base5ValueD1Ev(%"class.base::Value"* nonnull %9) #8
  call void @llvm.lifetime.end.p0i8(i64 32, i8* nonnull %33) #8
  %67 = getelementptr inbounds %"class.std::__1::__tree_end_node", %"class.std::__1::__tree_end_node"* %37, i64 1, i32 0
  %68 = load %"class.std::__1::__tree_node_base"*, %"class.std::__1::__tree_node_base"** %67, align 8
  %69 = icmp eq %"class.std::__1::__tree_node_base"* %68, null
  br i1 %69, label %70, label %78

70:                                               ; preds = %36
  %71 = bitcast %"class.std::__1::__tree_end_node"* %37 to %"class.std::__1::__tree_node_base"*
  %72 = getelementptr inbounds %"class.std::__1::__tree_end_node", %"class.std::__1::__tree_end_node"* %37, i64 2
  %73 = bitcast %"class.std::__1::__tree_end_node"* %72 to %"class.std::__1::__tree_end_node"**
  %74 = load %"class.std::__1::__tree_end_node"*, %"class.std::__1::__tree_end_node"** %73, align 8
  %75 = getelementptr inbounds %"class.std::__1::__tree_end_node", %"class.std::__1::__tree_end_node"* %74, i64 0, i32 0
  %76 = load %"class.std::__1::__tree_node_base"*, %"class.std::__1::__tree_node_base"** %75, align 8
  %77 = icmp eq %"class.std::__1::__tree_node_base"* %76, %71
  br i1 %77, label %94, label %85

78:                                               ; preds = %36, %78
  %79 = phi %"class.std::__1::__tree_node_base"* [ %81, %78 ], [ %68, %36 ]
  %80 = getelementptr inbounds %"class.std::__1::__tree_node_base", %"class.std::__1::__tree_node_base"* %79, i64 0, i32 0, i32 0
  %81 = load %"class.std::__1::__tree_node_base"*, %"class.std::__1::__tree_node_base"** %80, align 8
  %82 = icmp eq %"class.std::__1::__tree_node_base"* %81, null
  br i1 %82, label %83, label %78

83:                                               ; preds = %78
  %84 = getelementptr inbounds %"class.std::__1::__tree_node_base", %"class.std::__1::__tree_node_base"* %79, i64 0, i32 0
  br label %94

85:                                               ; preds = %70, %85
  %86 = phi %"class.std::__1::__tree_end_node"** [ %89, %85 ], [ %73, %70 ]
  %87 = bitcast %"class.std::__1::__tree_end_node"** %86 to %"class.std::__1::__tree_node_base"**
  %88 = load %"class.std::__1::__tree_node_base"*, %"class.std::__1::__tree_node_base"** %87, align 8
  %89 = getelementptr inbounds %"class.std::__1::__tree_node_base", %"class.std::__1::__tree_node_base"* %88, i64 0, i32 2
  %90 = load %"class.std::__1::__tree_end_node"*, %"class.std::__1::__tree_end_node"** %89, align 8
  %91 = getelementptr inbounds %"class.std::__1::__tree_end_node", %"class.std::__1::__tree_end_node"* %90, i64 0, i32 0
  %92 = load %"class.std::__1::__tree_node_base"*, %"class.std::__1::__tree_node_base"** %91, align 8
  %93 = icmp eq %"class.std::__1::__tree_node_base"* %92, %88
  br i1 %93, label %94, label %85

94:                                               ; preds = %85, %70, %83
  %95 = phi %"class.std::__1::__tree_end_node"* [ %84, %83 ], [ %74, %70 ], [ %90, %85 ]
  %96 = icmp eq %"class.std::__1::__tree_end_node"* %95, %30
  br i1 %96, label %34, label %36
}

; Function Attrs: nounwind ssp uwtable
define hidden void @_ZNK12media_router23DialInternalMessageUtil29CreateDialAppInfoErrorMessageENS_21DialAppInfoResultCodeERKNSt3__112basic_stringIcNS2_11char_traitsIcEENS2_9allocatorIcEEEEiSA_N4absl8optionalIiEE(%"class.mojo::StructPtr"* noalias sret, %"class.media_router::DialInternalMessageUtil"* nocapture readnone, i32, %"class.std::__1::basic_string"* dereferenceable(24), i32, %"class.std::__1::basic_string"* dereferenceable(24), i64) local_unnamed_addr #0 align 2 {
  %8 = alloca %"class.base::Value", align 8
  %9 = alloca %"class.std::__1::basic_string", align 8
  %10 = alloca %"class.base::Value", align 8
  %11 = alloca %"class.base::Value", align 8
  %12 = alloca %"class.base::Value", align 8
  %13 = alloca %"class.base::Value", align 8
  %14 = trunc i64 %6 to i8
  %15 = lshr i64 %6, 32
  %16 = trunc i64 %15 to i32
  %17 = bitcast %"class.base::Value"* %8 to i8*
  call void @llvm.lifetime.start.p0i8(i64 32, i8* nonnull %17) #8
  %18 = bitcast %"class.base::Value"* %8 to i8*
  call void @llvm.memset.p0i8.i64(i8* nonnull align 8 %18, i8 -86, i64 32, i1 false)
  call void @_ZN4base5ValueC1ENS0_4TypeE(%"class.base::Value"* nonnull %8, i8 zeroext 6) #8
  %19 = bitcast %"class.std::__1::basic_string"* %9 to i8*
  call void @llvm.lifetime.start.p0i8(i64 24, i8* nonnull %19) #8
  switch i32 %2, label %35 [
    i32 2, label %20
    i32 3, label %24
    i32 4, label %28
    i32 0, label %32
    i32 5, label %32
  ]

20:                                               ; preds = %7
  %21 = bitcast %"class.std::__1::basic_string"* %9 to %"struct.std::__1::basic_string<char, std::__1::char_traits<char>, std::__1::allocator<char> >::__short"*
  %22 = getelementptr inbounds %"struct.std::__1::basic_string<char, std::__1::char_traits<char>, std::__1::allocator<char> >::__short", %"struct.std::__1::basic_string<char, std::__1::char_traits<char>, std::__1::allocator<char> >::__short"* %21, i64 0, i32 1, i32 0
  store i8 13, i8* %22, align 1, !alias.scope !16
  call void @llvm.memcpy.p0i8.p0i8.i64(i8* nonnull align 8 %19, i8* align 1 getelementptr inbounds ([14 x i8], [14 x i8]* @.str.50, i64 0, i64 0), i64 13, i1 false) #8
  %23 = getelementptr inbounds i8, i8* %19, i64 13
  store i8 0, i8* %23, align 1, !alias.scope !16
  br label %36

24:                                               ; preds = %7
  %25 = bitcast %"class.std::__1::basic_string"* %9 to %"struct.std::__1::basic_string<char, std::__1::char_traits<char>, std::__1::allocator<char> >::__short"*
  %26 = getelementptr inbounds %"struct.std::__1::basic_string<char, std::__1::char_traits<char>, std::__1::allocator<char> >::__short", %"struct.std::__1::basic_string<char, std::__1::char_traits<char>, std::__1::allocator<char> >::__short"* %25, i64 0, i32 1, i32 0
  store i8 13, i8* %26, align 1, !alias.scope !16
  call void @llvm.memcpy.p0i8.p0i8.i64(i8* nonnull align 8 %19, i8* align 1 getelementptr inbounds ([14 x i8], [14 x i8]* @.str.51, i64 0, i64 0), i64 13, i1 false) #8
  %27 = getelementptr inbounds i8, i8* %19, i64 13
  store i8 0, i8* %27, align 1, !alias.scope !16
  br label %36

28:                                               ; preds = %7
  %29 = bitcast %"class.std::__1::basic_string"* %9 to %"struct.std::__1::basic_string<char, std::__1::char_traits<char>, std::__1::allocator<char> >::__short"*
  %30 = getelementptr inbounds %"struct.std::__1::basic_string<char, std::__1::char_traits<char>, std::__1::allocator<char> >::__short", %"struct.std::__1::basic_string<char, std::__1::char_traits<char>, std::__1::allocator<char> >::__short"* %29, i64 0, i32 1, i32 0
  store i8 10, i8* %30, align 1, !alias.scope !16
  call void @llvm.memcpy.p0i8.p0i8.i64(i8* nonnull align 8 %19, i8* align 1 getelementptr inbounds ([11 x i8], [11 x i8]* @.str.52, i64 0, i64 0), i64 10, i1 false) #8
  %31 = getelementptr inbounds i8, i8* %19, i64 10
  store i8 0, i8* %31, align 2, !alias.scope !16
  br label %36

32:                                               ; preds = %7, %7
  %33 = bitcast %"class.std::__1::basic_string"* %9 to %"struct.std::__1::basic_string<char, std::__1::char_traits<char>, std::__1::allocator<char> >::__short"*
  %34 = getelementptr inbounds %"struct.std::__1::basic_string<char, std::__1::char_traits<char>, std::__1::allocator<char> >::__short", %"struct.std::__1::basic_string<char, std::__1::char_traits<char>, std::__1::allocator<char> >::__short"* %33, i64 0, i32 1, i32 0
  store i8 0, i8* %34, align 1, !alias.scope !16
  store i8 0, i8* %19, align 8, !alias.scope !16
  br label %36

35:                                               ; preds = %7
  unreachable

36:                                               ; preds = %20, %24, %28, %32
  %37 = phi %"struct.std::__1::basic_string<char, std::__1::char_traits<char>, std::__1::allocator<char> >::__short"* [ %21, %20 ], [ %25, %24 ], [ %29, %28 ], [ %33, %32 ]
  %38 = call %"class.base::Value"* @_ZN4base5Value12SetStringKeyENS_16BasicStringPieceIcNSt3__111char_traitsIcEEEEONS2_12basic_stringIcS4_NS2_9allocatorIcEEEE(%"class.base::Value"* nonnull %8, i8* getelementptr inbounds ([5 x i8], [5 x i8]* @.str.11, i64 0, i64 0), i64 4, %"class.std::__1::basic_string"* nonnull dereferenceable(24) %9) #8
  %39 = getelementptr inbounds %"struct.std::__1::basic_string<char, std::__1::char_traits<char>, std::__1::allocator<char> >::__short", %"struct.std::__1::basic_string<char, std::__1::char_traits<char>, std::__1::allocator<char> >::__short"* %37, i64 0, i32 1, i32 0
  %40 = load i8, i8* %39, align 1
  %41 = icmp slt i8 %40, 0
  br i1 %41, label %42, label %45

42:                                               ; preds = %36
  %43 = getelementptr inbounds %"class.std::__1::basic_string", %"class.std::__1::basic_string"* %9, i64 0, i32 0, i32 0, i32 0, i32 0, i32 0, i32 0
  %44 = load i8*, i8** %43, align 8
  call void @_ZdlPv(i8* %44) #9
  br label %45

45:                                               ; preds = %36, %42
  call void @llvm.lifetime.end.p0i8(i64 24, i8* nonnull %19) #8
  %46 = bitcast %"class.std::__1::basic_string"* %5 to %"struct.std::__1::basic_string<char, std::__1::char_traits<char>, std::__1::allocator<char> >::__short"*
  %47 = getelementptr inbounds %"struct.std::__1::basic_string<char, std::__1::char_traits<char>, std::__1::allocator<char> >::__short", %"struct.std::__1::basic_string<char, std::__1::char_traits<char>, std::__1::allocator<char> >::__short"* %46, i64 0, i32 1, i32 0
  %48 = load i8, i8* %47, align 1
  %49 = icmp slt i8 %48, 0
  %50 = getelementptr inbounds %"class.std::__1::basic_string", %"class.std::__1::basic_string"* %5, i64 0, i32 0, i32 0, i32 0, i32 0, i32 0, i32 0
  %51 = load i8*, i8** %50, align 8
  %52 = bitcast %"class.std::__1::basic_string"* %5 to i8*
  %53 = select i1 %49, i8* %51, i8* %52
  %54 = getelementptr inbounds %"class.std::__1::basic_string", %"class.std::__1::basic_string"* %5, i64 0, i32 0, i32 0, i32 0, i32 0, i32 0, i32 1
  %55 = load i64, i64* %54, align 8
  %56 = zext i8 %48 to i64
  %57 = select i1 %49, i64 %55, i64 %56
  %58 = call %"class.base::Value"* @_ZN4base5Value12SetStringKeyENS_16BasicStringPieceIcNSt3__111char_traitsIcEEEES5_(%"class.base::Value"* nonnull %8, i8* getelementptr inbounds ([12 x i8], [12 x i8]* @.str.12, i64 0, i64 0), i64 11, i8* %53, i64 %57) #8
  %59 = icmp eq i32 %2, 4
  br i1 %59, label %60, label %68

60:                                               ; preds = %45
  %61 = bitcast %"class.base::Value"* %10 to i8*
  call void @llvm.lifetime.start.p0i8(i64 32, i8* nonnull %61) #8
  %62 = bitcast %"class.base::Value"* %10 to i8*
  call void @llvm.memset.p0i8.i64(i8* nonnull align 8 %62, i8 -86, i64 32, i1 false)
  call void @_ZN4base5ValueC1ENS0_4TypeE(%"class.base::Value"* nonnull %10, i8 zeroext 6) #8
  %63 = icmp eq i8 %14, 0
  br i1 %63, label %64, label %65, !prof !3

64:                                               ; preds = %60
  call void @llvm.trap() #8
  unreachable

65:                                               ; preds = %60
  %66 = call %"class.base::Value"* @_ZN4base5Value9SetIntKeyENS_16BasicStringPieceIcNSt3__111char_traitsIcEEEEi(%"class.base::Value"* nonnull %10, i8* getelementptr inbounds ([16 x i8], [16 x i8]* @.str.13, i64 0, i64 0), i64 15, i32 %16) #8
  %67 = call %"class.base::Value"* @_ZN4base5Value6SetKeyEPKcOS0_(%"class.base::Value"* nonnull %8, i8* getelementptr inbounds ([8 x i8], [8 x i8]* @.str.14, i64 0, i64 0), %"class.base::Value"* nonnull dereferenceable(32) %10) #8
  call void @_ZN4base5ValueD1Ev(%"class.base::Value"* nonnull %10) #8
  call void @llvm.lifetime.end.p0i8(i64 32, i8* nonnull %61) #8
  br label %68

68:                                               ; preds = %65, %45
  %69 = bitcast %"class.base::Value"* %11 to i8*
  call void @llvm.lifetime.start.p0i8(i64 32, i8* nonnull %69) #8
  %70 = bitcast %"class.base::Value"* %11 to i8*
  call void @llvm.memset.p0i8.i64(i8* nonnull align 8 %70, i8 -86, i64 32, i1 false)
  call void @_ZN4base5ValueC1EOS0_(%"class.base::Value"* nonnull %12, %"class.base::Value"* nonnull dereferenceable(32) %8) #8
  call void @_ZNK12media_router23DialInternalMessageUtil23CreateDialMessageCommonENS_23DialInternalMessageTypeEN4base5ValueERKNSt3__112basic_stringIcNS4_11char_traitsIcEENS4_9allocatorIcEEEEi(%"class.base::Value"* nonnull sret %11, %"class.media_router::DialInternalMessageUtil"* undef, i32 4, %"class.base::Value"* nonnull %12, %"class.std::__1::basic_string"* dereferenceable(24) %3, i32 %4)
  call void @_ZN4base5ValueD1Ev(%"class.base::Value"* nonnull %12) #8
  call void @_ZN4base5ValueC1EOS0_(%"class.base::Value"* nonnull %13, %"class.base::Value"* nonnull dereferenceable(32) %11) #8
  call void @_ZN12media_router12message_util21RouteMessageFromValueEN4base5ValueE(%"class.mojo::StructPtr"* sret %0, %"class.base::Value"* nonnull %13) #8
  call void @_ZN4base5ValueD1Ev(%"class.base::Value"* nonnull %13) #8
  call void @_ZN4base5ValueD1Ev(%"class.base::Value"* nonnull %11) #8
  call void @llvm.lifetime.end.p0i8(i64 32, i8* nonnull %69) #8
  call void @_ZN4base5ValueD1Ev(%"class.base::Value"* nonnull %8) #8
  call void @llvm.lifetime.end.p0i8(i64 32, i8* nonnull %17) #8
  ret void
}

declare void @_ZN4base5ValueC1ENS0_4TypeE(%"class.base::Value"*, i8 zeroext) unnamed_addr #2

declare %"class.base::Value"* @_ZN4base5Value12SetStringKeyENS_16BasicStringPieceIcNSt3__111char_traitsIcEEEEONS2_12basic_stringIcS4_NS2_9allocatorIcEEEE(%"class.base::Value"*, i8*, i64, %"class.std::__1::basic_string"* dereferenceable(24)) local_unnamed_addr #2

declare %"class.base::Value"* @_ZN4base5Value12SetStringKeyENS_16BasicStringPieceIcNSt3__111char_traitsIcEEEES5_(%"class.base::Value"*, i8*, i64, i8*, i64) local_unnamed_addr #2

declare %"class.base::Value"* @_ZN4base5Value9SetIntKeyENS_16BasicStringPieceIcNSt3__111char_traitsIcEEEEi(%"class.base::Value"*, i8*, i64, i32) local_unnamed_addr #2

declare %"class.base::Value"* @_ZN4base5Value6SetKeyEPKcOS0_(%"class.base::Value"*, i8*, %"class.base::Value"* dereferenceable(32)) local_unnamed_addr #2

; Function Attrs: nounwind ssp uwtable
define hidden void @_ZNK12media_router23DialInternalMessageUtil14CreateReceiverERKNS_17MediaSinkInternalE(%"class.base::Value"* noalias sret, %"class.media_router::DialInternalMessageUtil"*, %"class.media_router::MediaSinkInternal"* dereferenceable(296)) local_unnamed_addr #0 align 2 {
  %4 = alloca %"class.std::__1::basic_string", align 8
  %5 = alloca %"class.std::__1::basic_string", align 8
  %6 = alloca %"class.base::BasicStringPiece", align 8
  %7 = alloca %"class.base::Value", align 8
  %8 = alloca %"class.base::Value", align 8
  %9 = alloca %"class.std::__1::basic_string", align 8
  %10 = alloca %"class.base::ListValue", align 8
  %11 = alloca %"class.base::Value", align 8
  %12 = alloca %"class.base::Value", align 8
  %13 = alloca %"class.base::Value", align 8
  %14 = alloca %"class.base::Value", align 8
  %15 = alloca %"class.base::Value", align 8
  %16 = alloca %"class.std::__1::basic_string", align 8
  %17 = bitcast %"class.base::Value"* %0 to i8*
  call void @llvm.memset.p0i8.i64(i8* align 8 %17, i8 -86, i64 32, i1 false)
  tail call void @_ZN4base5ValueC1ENS0_4TypeE(%"class.base::Value"* %0, i8 zeroext 6) #8
  %18 = bitcast %"class.std::__1::basic_string"* %4 to i8*
  call void @llvm.lifetime.start.p0i8(i64 24, i8* nonnull %18) #8
  %19 = getelementptr inbounds %"class.std::__1::basic_string", %"class.std::__1::basic_string"* %4, i64 0, i32 0, i32 0, i32 0, i32 0, i32 0, i32 0
  %20 = getelementptr inbounds %"class.std::__1::basic_string", %"class.std::__1::basic_string"* %4, i64 0, i32 0, i32 0, i32 0, i32 0, i32 0, i32 1
  %21 = bitcast %"class.std::__1::basic_string"* %5 to i8*
  %22 = bitcast %"class.std::__1::basic_string"* %4 to i8*
  call void @llvm.memset.p0i8.i64(i8* nonnull align 8 %22, i8 -86, i64 24, i1 false)
  call void @llvm.lifetime.start.p0i8(i64 24, i8* nonnull %21) #8
  %23 = getelementptr inbounds %"class.std::__1::basic_string", %"class.std::__1::basic_string"* %5, i64 0, i32 0, i32 0, i32 0, i32 0, i32 0, i32 0
  %24 = getelementptr inbounds %"class.std::__1::basic_string", %"class.std::__1::basic_string"* %5, i64 0, i32 0, i32 0, i32 0, i32 0, i32 0, i32 1
  %25 = getelementptr inbounds %"class.std::__1::basic_string", %"class.std::__1::basic_string"* %5, i64 0, i32 0, i32 0, i32 0, i32 0, i32 0, i32 2
  call void @llvm.memset.p0i8.i64(i8* nonnull align 8 %21, i8 0, i64 24, i1 false) #8, !alias.scope !19
  %26 = bitcast %"class.media_router::MediaSinkInternal"* %2 to %"struct.std::__1::basic_string<char, std::__1::char_traits<char>, std::__1::allocator<char> >::__short"*
  %27 = getelementptr inbounds %"struct.std::__1::basic_string<char, std::__1::char_traits<char>, std::__1::allocator<char> >::__short", %"struct.std::__1::basic_string<char, std::__1::char_traits<char>, std::__1::allocator<char> >::__short"* %26, i64 0, i32 1, i32 0
  %28 = load i8, i8* %27, align 1, !noalias !19
  %29 = icmp slt i8 %28, 0
  %30 = getelementptr inbounds %"class.media_router::MediaSinkInternal", %"class.media_router::MediaSinkInternal"* %2, i64 0, i32 0, i32 0, i32 0, i32 0, i32 0, i32 0, i32 0, i32 1
  %31 = load i64, i64* %30, align 8, !noalias !19
  %32 = zext i8 %28 to i64
  %33 = select i1 %29, i64 %31, i64 %32
  %34 = bitcast %"class.media_router::DialInternalMessageUtil"* %1 to %"struct.std::__1::basic_string<char, std::__1::char_traits<char>, std::__1::allocator<char> >::__short"*
  %35 = getelementptr inbounds %"struct.std::__1::basic_string<char, std::__1::char_traits<char>, std::__1::allocator<char> >::__short", %"struct.std::__1::basic_string<char, std::__1::char_traits<char>, std::__1::allocator<char> >::__short"* %34, i64 0, i32 1, i32 0
  %36 = load i8, i8* %35, align 1, !noalias !19
  %37 = icmp slt i8 %36, 0
  %38 = getelementptr inbounds %"class.media_router::DialInternalMessageUtil", %"class.media_router::DialInternalMessageUtil"* %1, i64 0, i32 0, i32 0, i32 0, i32 0, i32 0, i32 0, i32 1
  %39 = load i64, i64* %38, align 8, !noalias !19
  %40 = zext i8 %36 to i64
  %41 = select i1 %37, i64 %39, i64 %40
  %42 = getelementptr inbounds %"class.media_router::MediaSinkInternal", %"class.media_router::MediaSinkInternal"* %2, i64 0, i32 0, i32 0, i32 0, i32 0, i32 0, i32 0, i32 0, i32 0
  %43 = load i8*, i8** %42, align 8, !noalias !19
  %44 = bitcast %"class.media_router::MediaSinkInternal"* %2 to i8*
  %45 = select i1 %29, i8* %43, i8* %44
  %46 = add i64 %41, %33
  %47 = icmp ugt i64 %46, -17
  br i1 %47, label %48, label %50

48:                                               ; preds = %3
  %49 = bitcast %"class.std::__1::basic_string"* %5 to %"class.std::__1::__basic_string_common"*
  call void @_ZNKSt3__121__basic_string_commonILb1EE20__throw_length_errorEv(%"class.std::__1::__basic_string_common"* nonnull %49) #10
  unreachable

50:                                               ; preds = %3
  %51 = icmp ult i64 %46, 23
  br i1 %51, label %52, label %56

52:                                               ; preds = %50
  %53 = trunc i64 %33 to i8
  %54 = bitcast %"class.std::__1::basic_string"* %5 to %"struct.std::__1::basic_string<char, std::__1::char_traits<char>, std::__1::allocator<char> >::__short"*
  %55 = getelementptr inbounds %"struct.std::__1::basic_string<char, std::__1::char_traits<char>, std::__1::allocator<char> >::__short", %"struct.std::__1::basic_string<char, std::__1::char_traits<char>, std::__1::allocator<char> >::__short"* %54, i64 0, i32 1, i32 0
  store i8 %53, i8* %55, align 1, !alias.scope !19
  br label %61

56:                                               ; preds = %50
  %57 = add nuw i64 %46, 16
  %58 = and i64 %57, -16
  %59 = tail call i8* @_Znwm(i64 %58) #9
  store i8* %59, i8** %23, align 8, !alias.scope !19
  %60 = or i64 %58, -9223372036854775808
  store i64 %60, i64* %25, align 8, !alias.scope !19
  store i64 %33, i64* %24, align 8, !alias.scope !19
  br label %61

61:                                               ; preds = %56, %52
  %62 = phi i8* [ %21, %52 ], [ %59, %56 ]
  %63 = icmp eq i64 %33, 0
  br i1 %63, label %65, label %64

64:                                               ; preds = %61
  call void @llvm.memcpy.p0i8.p0i8.i64(i8* nonnull align 1 %62, i8* align 1 %45, i64 %33, i1 false) #8
  br label %65

65:                                               ; preds = %61, %64
  %66 = getelementptr inbounds i8, i8* %62, i64 %33
  store i8 0, i8* %66, align 1
  %67 = getelementptr inbounds %"class.media_router::DialInternalMessageUtil", %"class.media_router::DialInternalMessageUtil"* %1, i64 0, i32 0, i32 0, i32 0, i32 0, i32 0, i32 0, i32 0
  %68 = load i8*, i8** %67, align 8, !noalias !19
  %69 = bitcast %"class.media_router::DialInternalMessageUtil"* %1 to i8*
  %70 = select i1 %37, i8* %68, i8* %69
  %71 = call dereferenceable(24) %"class.std::__1::basic_string"* @_ZNSt3__112basic_stringIcNS_11char_traitsIcEENS_9allocatorIcEEE6appendEPKcm(%"class.std::__1::basic_string"* nonnull %5, i8* %70, i64 %41) #8
  %72 = bitcast %"class.std::__1::basic_string"* %5 to %"struct.std::__1::basic_string<char, std::__1::char_traits<char>, std::__1::allocator<char> >::__short"*
  %73 = getelementptr inbounds %"struct.std::__1::basic_string<char, std::__1::char_traits<char>, std::__1::allocator<char> >::__short", %"struct.std::__1::basic_string<char, std::__1::char_traits<char>, std::__1::allocator<char> >::__short"* %72, i64 0, i32 1, i32 0
  %74 = load i8, i8* %73, align 1
  %75 = icmp slt i8 %74, 0
  %76 = load i8*, i8** %23, align 8
  %77 = select i1 %75, i8* %76, i8* %21
  %78 = load i64, i64* %24, align 8
  %79 = zext i8 %74 to i64
  %80 = select i1 %75, i64 %78, i64 %79
  call void @_ZN4base14SHA1HashStringENS_16BasicStringPieceIcNSt3__111char_traitsIcEEEE(%"class.std::__1::basic_string"* nonnull sret %4, i8* %77, i64 %80) #8
  %81 = load i8, i8* %73, align 1
  %82 = icmp slt i8 %81, 0
  br i1 %82, label %83, label %85

83:                                               ; preds = %65
  %84 = load i8*, i8** %23, align 8
  call void @_ZdlPv(i8* %84) #9
  br label %85

85:                                               ; preds = %65, %83
  call void @llvm.lifetime.end.p0i8(i64 24, i8* nonnull %21) #8
  %86 = bitcast %"class.base::BasicStringPiece"* %6 to i8*
  call void @llvm.lifetime.start.p0i8(i64 16, i8* nonnull %86) #8
  %87 = getelementptr inbounds %"class.base::BasicStringPiece", %"class.base::BasicStringPiece"* %6, i64 0, i32 0
  %88 = bitcast %"class.std::__1::basic_string"* %4 to %"struct.std::__1::basic_string<char, std::__1::char_traits<char>, std::__1::allocator<char> >::__short"*
  %89 = getelementptr inbounds %"struct.std::__1::basic_string<char, std::__1::char_traits<char>, std::__1::allocator<char> >::__short", %"struct.std::__1::basic_string<char, std::__1::char_traits<char>, std::__1::allocator<char> >::__short"* %88, i64 0, i32 1, i32 0
  %90 = load i8, i8* %89, align 1
  %91 = icmp slt i8 %90, 0
  %92 = load i8*, i8** %19, align 8
  %93 = select i1 %91, i8* %92, i8* %18
  store i8* %93, i8** %87, align 8
  %94 = getelementptr inbounds %"class.base::BasicStringPiece", %"class.base::BasicStringPiece"* %6, i64 0, i32 1
  %95 = load i64, i64* %20, align 8
  %96 = zext i8 %90 to i64
  %97 = select i1 %91, i64 %95, i64 %96
  store i64 %97, i64* %94, align 8
  call void @_ZN4base15Base64UrlEncodeERKNS_16BasicStringPieceIcNSt3__111char_traitsIcEEEENS_21Base64UrlEncodePolicyEPNS1_12basic_stringIcS3_NS1_9allocatorIcEEEE(%"class.base::BasicStringPiece"* nonnull dereferenceable(16) %6, i32 1, %"class.std::__1::basic_string"* nonnull %4) #8
  call void @llvm.lifetime.end.p0i8(i64 16, i8* nonnull %86) #8
  %98 = bitcast %"class.base::Value"* %7 to i8*
  call void @llvm.lifetime.start.p0i8(i64 32, i8* nonnull %98) #8
  %99 = load i8, i8* %89, align 1
  %100 = icmp slt i8 %99, 0
  %101 = load i8*, i8** %19, align 8
  %102 = select i1 %100, i8* %101, i8* %18
  %103 = load i64, i64* %20, align 8
  %104 = zext i8 %99 to i64
  %105 = select i1 %100, i64 %103, i64 %104
  call void @_ZN4base5ValueC1ENS_16BasicStringPieceIcNSt3__111char_traitsIcEEEE(%"class.base::Value"* nonnull %7, i8* %102, i64 %105) #8
  %106 = call %"class.base::Value"* @_ZN4base5Value6SetKeyEPKcOS0_(%"class.base::Value"* %0, i8* getelementptr inbounds ([6 x i8], [6 x i8]* @.str.15, i64 0, i64 0), %"class.base::Value"* nonnull dereferenceable(32) %7) #8
  call void @_ZN4base5ValueD1Ev(%"class.base::Value"* nonnull %7) #8
  call void @llvm.lifetime.end.p0i8(i64 32, i8* nonnull %98) #8
  %107 = bitcast %"class.base::Value"* %8 to i8*
  call void @llvm.lifetime.start.p0i8(i64 32, i8* nonnull %107) #8
  %108 = bitcast %"class.std::__1::basic_string"* %9 to i8*
  call void @llvm.lifetime.start.p0i8(i64 24, i8* nonnull %108) #8
  %109 = getelementptr inbounds %"class.media_router::MediaSinkInternal", %"class.media_router::MediaSinkInternal"* %2, i64 0, i32 0, i32 1
  %110 = bitcast %"class.std::__1::basic_string"* %109 to %"struct.std::__1::basic_string<char, std::__1::char_traits<char>, std::__1::allocator<char> >::__short"*
  %111 = getelementptr inbounds %"struct.std::__1::basic_string<char, std::__1::char_traits<char>, std::__1::allocator<char> >::__short", %"struct.std::__1::basic_string<char, std::__1::char_traits<char>, std::__1::allocator<char> >::__short"* %110, i64 0, i32 1, i32 0
  %112 = load i8, i8* %111, align 1
  %113 = icmp slt i8 %112, 0
  %114 = getelementptr inbounds %"class.std::__1::basic_string", %"class.std::__1::basic_string"* %109, i64 0, i32 0, i32 0, i32 0, i32 0, i32 0, i32 0
  %115 = load i8*, i8** %114, align 8
  %116 = bitcast %"class.std::__1::basic_string"* %109 to i8*
  %117 = select i1 %113, i8* %115, i8* %116
  %118 = getelementptr inbounds %"class.media_router::MediaSinkInternal", %"class.media_router::MediaSinkInternal"* %2, i64 0, i32 0, i32 1, i32 0, i32 0, i32 0, i32 0, i32 0, i32 1
  %119 = load i64, i64* %118, align 8
  %120 = zext i8 %112 to i64
  %121 = select i1 %113, i64 %119, i64 %120
  call void @_ZN3net13EscapeForHTMLEN4base16BasicStringPieceIcNSt3__111char_traitsIcEEEE(%"class.std::__1::basic_string"* nonnull sret %9, i8* %117, i64 %121) #8
  call void @_ZN4base5ValueC1EONSt3__112basic_stringIcNS1_11char_traitsIcEENS1_9allocatorIcEEEE(%"class.base::Value"* nonnull %8, %"class.std::__1::basic_string"* nonnull dereferenceable(24) %9) #8
  %122 = call %"class.base::Value"* @_ZN4base5Value6SetKeyEPKcOS0_(%"class.base::Value"* %0, i8* getelementptr inbounds ([13 x i8], [13 x i8]* @.str.16, i64 0, i64 0), %"class.base::Value"* nonnull dereferenceable(32) %8) #8
  call void @_ZN4base5ValueD1Ev(%"class.base::Value"* nonnull %8) #8
  %123 = bitcast %"class.std::__1::basic_string"* %9 to %"struct.std::__1::basic_string<char, std::__1::char_traits<char>, std::__1::allocator<char> >::__short"*
  %124 = getelementptr inbounds %"struct.std::__1::basic_string<char, std::__1::char_traits<char>, std::__1::allocator<char> >::__short", %"struct.std::__1::basic_string<char, std::__1::char_traits<char>, std::__1::allocator<char> >::__short"* %123, i64 0, i32 1, i32 0
  %125 = load i8, i8* %124, align 1
  %126 = icmp slt i8 %125, 0
  br i1 %126, label %127, label %130

127:                                              ; preds = %85
  %128 = getelementptr inbounds %"class.std::__1::basic_string", %"class.std::__1::basic_string"* %9, i64 0, i32 0, i32 0, i32 0, i32 0, i32 0, i32 0
  %129 = load i8*, i8** %128, align 8
  call void @_ZdlPv(i8* %129) #9
  br label %130

130:                                              ; preds = %85, %127
  call void @llvm.lifetime.end.p0i8(i64 24, i8* nonnull %108) #8
  call void @llvm.lifetime.end.p0i8(i64 32, i8* nonnull %107) #8
  %131 = bitcast %"class.base::ListValue"* %10 to i8*
  call void @llvm.lifetime.start.p0i8(i64 32, i8* nonnull %131) #8
  call void @_ZN4base9ListValueC1Ev(%"class.base::ListValue"* nonnull %10) #8
  %132 = getelementptr inbounds %"class.base::ListValue", %"class.base::ListValue"* %10, i64 0, i32 0
  %133 = call %"class.base::Value"* @_ZN4base5Value6SetKeyEPKcOS0_(%"class.base::Value"* %0, i8* getelementptr inbounds ([13 x i8], [13 x i8]* @.str.17, i64 0, i64 0), %"class.base::Value"* nonnull dereferenceable(32) %132) #8
  call void @_ZN4base5ValueD2Ev(%"class.base::Value"* nonnull %132) #8
  call void @llvm.lifetime.end.p0i8(i64 32, i8* nonnull %131) #8
  %134 = bitcast %"class.base::Value"* %11 to i8*
  call void @llvm.lifetime.start.p0i8(i64 32, i8* nonnull %134) #8
  call void @_ZN4base5ValueC1ENS0_4TypeE(%"class.base::Value"* nonnull %11, i8 zeroext 0) #8
  %135 = call %"class.base::Value"* @_ZN4base5Value6SetKeyEPKcOS0_(%"class.base::Value"* %0, i8* getelementptr inbounds ([7 x i8], [7 x i8]* @.str.18, i64 0, i64 0), %"class.base::Value"* nonnull dereferenceable(32) %11) #8
  call void @_ZN4base5ValueD1Ev(%"class.base::Value"* nonnull %11) #8
  call void @llvm.lifetime.end.p0i8(i64 32, i8* nonnull %134) #8
  %136 = bitcast %"class.base::Value"* %12 to i8*
  call void @llvm.lifetime.start.p0i8(i64 32, i8* nonnull %136) #8
  call void @_ZN4base5ValueC1ENS0_4TypeE(%"class.base::Value"* nonnull %12, i8 zeroext 0) #8
  %137 = call %"class.base::Value"* @_ZN4base5Value6SetKeyEPKcOS0_(%"class.base::Value"* %0, i8* getelementptr inbounds ([14 x i8], [14 x i8]* @.str.19, i64 0, i64 0), %"class.base::Value"* nonnull dereferenceable(32) %12) #8
  call void @_ZN4base5ValueD1Ev(%"class.base::Value"* nonnull %12) #8
  call void @llvm.lifetime.end.p0i8(i64 32, i8* nonnull %136) #8
  %138 = bitcast %"class.base::Value"* %13 to i8*
  call void @llvm.lifetime.start.p0i8(i64 32, i8* nonnull %138) #8
  call void @_ZN4base5ValueC1ENS0_4TypeE(%"class.base::Value"* nonnull %13, i8 zeroext 0) #8
  %139 = call %"class.base::Value"* @_ZN4base5Value6SetKeyEPKcOS0_(%"class.base::Value"* %0, i8* getelementptr inbounds ([14 x i8], [14 x i8]* @.str.20, i64 0, i64 0), %"class.base::Value"* nonnull dereferenceable(32) %13) #8
  call void @_ZN4base5ValueD1Ev(%"class.base::Value"* nonnull %13) #8
  call void @llvm.lifetime.end.p0i8(i64 32, i8* nonnull %138) #8
  %140 = bitcast %"class.base::Value"* %14 to i8*
  call void @llvm.lifetime.start.p0i8(i64 32, i8* nonnull %140) #8
  call void @_ZN4base5ValueC1EPKc(%"class.base::Value"* nonnull %14, i8* getelementptr inbounds ([5 x i8], [5 x i8]* @.str.22, i64 0, i64 0)) #8
  %141 = call %"class.base::Value"* @_ZN4base5Value6SetKeyEPKcOS0_(%"class.base::Value"* %0, i8* getelementptr inbounds ([13 x i8], [13 x i8]* @.str.21, i64 0, i64 0), %"class.base::Value"* nonnull dereferenceable(32) %14) #8
  call void @_ZN4base5ValueD1Ev(%"class.base::Value"* nonnull %14) #8
  call void @llvm.lifetime.end.p0i8(i64 32, i8* nonnull %140) #8
  %142 = bitcast %"class.base::Value"* %15 to i8*
  call void @llvm.lifetime.start.p0i8(i64 32, i8* nonnull %142) #8
  %143 = bitcast %"class.std::__1::basic_string"* %16 to i8*
  call void @llvm.lifetime.start.p0i8(i64 24, i8* nonnull %143) #8
  %144 = call dereferenceable(168) %"struct.media_router::DialSinkExtraData"* @_ZNK12media_router17MediaSinkInternal9dial_dataEv(%"class.media_router::MediaSinkInternal"* %2) #8
  %145 = getelementptr inbounds %"struct.media_router::DialSinkExtraData", %"struct.media_router::DialSinkExtraData"* %144, i64 0, i32 0
  call void @_ZNK3net9IPAddress8ToStringEv(%"class.std::__1::basic_string"* nonnull sret %16, %"class.net::IPAddress"* %145) #8
  call void @_ZN4base5ValueC1EONSt3__112basic_stringIcNS1_11char_traitsIcEENS1_9allocatorIcEEEE(%"class.base::Value"* nonnull %15, %"class.std::__1::basic_string"* nonnull dereferenceable(24) %16) #8
  %146 = call %"class.base::Value"* @_ZN4base5Value6SetKeyEPKcOS0_(%"class.base::Value"* %0, i8* getelementptr inbounds ([10 x i8], [10 x i8]* @.str.23, i64 0, i64 0), %"class.base::Value"* nonnull dereferenceable(32) %15) #8
  call void @_ZN4base5ValueD1Ev(%"class.base::Value"* nonnull %15) #8
  %147 = bitcast %"class.std::__1::basic_string"* %16 to %"struct.std::__1::basic_string<char, std::__1::char_traits<char>, std::__1::allocator<char> >::__short"*
  %148 = getelementptr inbounds %"struct.std::__1::basic_string<char, std::__1::char_traits<char>, std::__1::allocator<char> >::__short", %"struct.std::__1::basic_string<char, std::__1::char_traits<char>, std::__1::allocator<char> >::__short"* %147, i64 0, i32 1, i32 0
  %149 = load i8, i8* %148, align 1
  %150 = icmp slt i8 %149, 0
  br i1 %150, label %151, label %154

151:                                              ; preds = %130
  %152 = getelementptr inbounds %"class.std::__1::basic_string", %"class.std::__1::basic_string"* %16, i64 0, i32 0, i32 0, i32 0, i32 0, i32 0, i32 0
  %153 = load i8*, i8** %152, align 8
  call void @_ZdlPv(i8* %153) #9
  br label %154

154:                                              ; preds = %130, %151
  call void @llvm.lifetime.end.p0i8(i64 24, i8* nonnull %143) #8
  call void @llvm.lifetime.end.p0i8(i64 32, i8* nonnull %142) #8
  %155 = load i8, i8* %89, align 1
  %156 = icmp slt i8 %155, 0
  br i1 %156, label %157, label %159

157:                                              ; preds = %154
  %158 = load i8*, i8** %19, align 8
  call void @_ZdlPv(i8* %158) #9
  br label %159

159:                                              ; preds = %154, %157
  call void @llvm.lifetime.end.p0i8(i64 24, i8* nonnull %18) #8
  ret void
}

declare void @_ZN4base14SHA1HashStringENS_16BasicStringPieceIcNSt3__111char_traitsIcEEEE(%"class.std::__1::basic_string"* sret, i8*, i64) local_unnamed_addr #2

declare void @_ZN4base15Base64UrlEncodeERKNS_16BasicStringPieceIcNSt3__111char_traitsIcEEEENS_21Base64UrlEncodePolicyEPNS1_12basic_stringIcS3_NS1_9allocatorIcEEEE(%"class.base::BasicStringPiece"* dereferenceable(16), i32, %"class.std::__1::basic_string"*) local_unnamed_addr #2

declare void @_ZN4base5ValueC1ENS_16BasicStringPieceIcNSt3__111char_traitsIcEEEE(%"class.base::Value"*, i8*, i64) unnamed_addr #2

declare void @_ZN3net13EscapeForHTMLEN4base16BasicStringPieceIcNSt3__111char_traitsIcEEEE(%"class.std::__1::basic_string"* sret, i8*, i64) local_unnamed_addr #2

; Function Attrs: nounwind
declare void @_ZN4base5ValueC1EONSt3__112basic_stringIcNS1_11char_traitsIcEENS1_9allocatorIcEEEE(%"class.base::Value"*, %"class.std::__1::basic_string"* dereferenceable(24)) unnamed_addr #3

declare void @_ZN4base9ListValueC1Ev(%"class.base::ListValue"*) unnamed_addr #2

; Function Attrs: nounwind
declare void @_ZN4base5ValueD2Ev(%"class.base::Value"*) unnamed_addr #3

declare void @_ZN4base5ValueC1EPKc(%"class.base::Value"*, i8*) unnamed_addr #2

declare dereferenceable(168) %"struct.media_router::DialSinkExtraData"* @_ZNK12media_router17MediaSinkInternal9dial_dataEv(%"class.media_router::MediaSinkInternal"*) local_unnamed_addr #2

declare void @_ZNK3net9IPAddress8ToStringEv(%"class.std::__1::basic_string"* sret, %"class.net::IPAddress"*) local_unnamed_addr #2

declare void @_ZN12media_router20DialAppStateToStringENS_12DialAppStateE(%"class.std::__1::basic_string"* sret, i32) local_unnamed_addr #2

declare %"class.base::Value"* @_ZN4base5Value6SetKeyENS_16BasicStringPieceIcNSt3__111char_traitsIcEEEEOS0_(%"class.base::Value"*, i8*, i64, %"class.base::Value"* dereferenceable(32)) local_unnamed_addr #2

declare void @_ZN4base5ValueC1Ei(%"class.base::Value"*, i32) unnamed_addr #2

; Function Attrs: nobuiltin nounwind
declare void @_ZdlPv(i8*) local_unnamed_addr #4

; Function Attrs: noreturn
declare void @_ZNKSt3__121__basic_string_commonILb1EE20__throw_length_errorEv(%"class.std::__1::__basic_string_common"*) local_unnamed_addr #5

; Function Attrs: nobuiltin nofree
declare noalias nonnull i8* @_Znwm(i64) local_unnamed_addr #6

declare void @_ZN4base14NumberToStringEi(%"class.std::__1::basic_string"* sret, i32) local_unnamed_addr #2

declare void @_ZNSt3__112basic_stringIcNS_11char_traitsIcEENS_9allocatorIcEEE25__init_copy_ctor_externalEPKcm(%"class.std::__1::basic_string"*, i8*, i64) local_unnamed_addr #2

declare i32 @_ZNKSt3__112basic_stringIcNS_11char_traitsIcEENS_9allocatorIcEEE7compareEmmPKcm(%"class.std::__1::basic_string"*, i64, i64, i8*, i64) local_unnamed_addr #2

declare dereferenceable(24) %"class.std::__1::basic_string"* @_ZNSt3__112basic_stringIcNS_11char_traitsIcEENS_9allocatorIcEEE17__assign_externalEPKcm(%"class.std::__1::basic_string"*, i8*, i64) local_unnamed_addr #2

; Function Attrs: cold noreturn nounwind
declare void @llvm.trap() #7

declare dereferenceable(24) %"class.std::__1::basic_string"* @_ZNSt3__112basic_stringIcNS_11char_traitsIcEENS_9allocatorIcEEE6appendEPKcm(%"class.std::__1::basic_string"*, i8*, i64) local_unnamed_addr #2

attributes #0 = { nounwind ssp uwtable "correctly-rounded-divide-sqrt-fp-math"="false" "disable-tail-calls"="false" "less-precise-fpmad"="false" "min-legal-vector-width"="0" "no-frame-pointer-elim"="false" "no-frame-pointer-elim-non-leaf" "no-infs-fp-math"="false" "no-jump-tables"="false" "no-nans-fp-math"="false" "no-signed-zeros-fp-math"="false" "no-trapping-math"="false" "null-pointer-is-valid"="true" "stack-protector-buffer-size"="4" "target-cpu"="x86-64" "target-features"="+cx8,+fxsr,+mmx,+sse,+sse2,+sse3,+x87" "unsafe-fp-math"="false" "use-soft-float"="false" }
attributes #1 = { argmemonly nounwind }
attributes #2 = { "correctly-rounded-divide-sqrt-fp-math"="false" "disable-tail-calls"="false" "less-precise-fpmad"="false" "no-frame-pointer-elim"="false" "no-frame-pointer-elim-non-leaf" "no-infs-fp-math"="false" "no-nans-fp-math"="false" "no-signed-zeros-fp-math"="false" "no-trapping-math"="false" "null-pointer-is-valid"="true" "stack-protector-buffer-size"="4" "target-cpu"="x86-64" "target-features"="+cx8,+fxsr,+mmx,+sse,+sse2,+sse3,+x87" "unsafe-fp-math"="false" "use-soft-float"="false" }
attributes #3 = { nounwind "correctly-rounded-divide-sqrt-fp-math"="false" "disable-tail-calls"="false" "less-precise-fpmad"="false" "no-frame-pointer-elim"="false" "no-frame-pointer-elim-non-leaf" "no-infs-fp-math"="false" "no-nans-fp-math"="false" "no-signed-zeros-fp-math"="false" "no-trapping-math"="false" "null-pointer-is-valid"="true" "stack-protector-buffer-size"="4" "target-cpu"="x86-64" "target-features"="+cx8,+fxsr,+mmx,+sse,+sse2,+sse3,+x87" "unsafe-fp-math"="false" "use-soft-float"="false" }
attributes #4 = { nobuiltin nounwind "correctly-rounded-divide-sqrt-fp-math"="false" "disable-tail-calls"="false" "less-precise-fpmad"="false" "no-frame-pointer-elim"="false" "no-frame-pointer-elim-non-leaf" "no-infs-fp-math"="false" "no-nans-fp-math"="false" "no-signed-zeros-fp-math"="false" "no-trapping-math"="false" "null-pointer-is-valid"="true" "stack-protector-buffer-size"="4" "target-cpu"="x86-64" "target-features"="+cx8,+fxsr,+mmx,+sse,+sse2,+sse3,+x87" "unsafe-fp-math"="false" "use-soft-float"="false" }
attributes #5 = { noreturn "correctly-rounded-divide-sqrt-fp-math"="false" "disable-tail-calls"="false" "less-precise-fpmad"="false" "no-frame-pointer-elim"="false" "no-frame-pointer-elim-non-leaf" "no-infs-fp-math"="false" "no-nans-fp-math"="false" "no-signed-zeros-fp-math"="false" "no-trapping-math"="false" "null-pointer-is-valid"="true" "stack-protector-buffer-size"="4" "target-cpu"="x86-64" "target-features"="+cx8,+fxsr,+mmx,+sse,+sse2,+sse3,+x87" "unsafe-fp-math"="false" "use-soft-float"="false" }
attributes #6 = { nobuiltin nofree "correctly-rounded-divide-sqrt-fp-math"="false" "disable-tail-calls"="false" "less-precise-fpmad"="false" "no-frame-pointer-elim"="false" "no-frame-pointer-elim-non-leaf" "no-infs-fp-math"="false" "no-nans-fp-math"="false" "no-signed-zeros-fp-math"="false" "no-trapping-math"="false" "null-pointer-is-valid"="true" "stack-protector-buffer-size"="4" "target-cpu"="x86-64" "target-features"="+cx8,+fxsr,+mmx,+sse,+sse2,+sse3,+x87" "unsafe-fp-math"="false" "use-soft-float"="false" }
attributes #7 = { cold noreturn nounwind }
attributes #8 = { nounwind }
attributes #9 = { builtin nounwind }
attributes #10 = { noreturn nounwind }

!llvm.module.flags = !{!0, !1}

!0 = !{i32 1, !"wchar_size", i32 4}
!1 = !{i32 7, !"PIC Level", i32 2}
!2 = !{i8 0, i8 2}
!3 = !{!"branch_weights", i32 1, i32 2000}
!4 = !{!5}
!5 = distinct !{!5, !6, !"_ZN12media_router12_GLOBAL__N_131DialInternalMessageTypeToStringENS_23DialInternalMessageTypeE: argument 0"}
!6 = distinct !{!6, !"_ZN12media_router12_GLOBAL__N_131DialInternalMessageTypeToStringENS_23DialInternalMessageTypeE"}
!7 = !{!8}
!8 = distinct !{!8, !9, !"_ZN12media_router12_GLOBAL__N_116GetNextSessionIdEv: argument 0"}
!9 = distinct !{!9, !"_ZN12media_router12_GLOBAL__N_116GetNextSessionIdEv"}
!10 = !{!11}
!11 = distinct !{!11, !12, !"_ZN12media_router12_GLOBAL__N_126DialReceiverActionToStringENS_18DialReceiverActionE: argument 0"}
!12 = distinct !{!12, !"_ZN12media_router12_GLOBAL__N_126DialReceiverActionToStringENS_18DialReceiverActionE"}
!13 = !{!14}
!14 = distinct !{!14, !15, !"_ZNK12media_router23DialInternalMessageUtil24CreateDialAppInfoMessageERKNSt3__112basic_stringIcNS1_11char_traitsIcEENS1_9allocatorIcEEEERKNS_17MediaSinkInternalERKNS_17ParsedDialAppInfoEiNS_23DialInternalMessageTypeE: argument 0"}
!15 = distinct !{!15, !"_ZNK12media_router23DialInternalMessageUtil24CreateDialAppInfoMessageERKNSt3__112basic_stringIcNS1_11char_traitsIcEENS1_9allocatorIcEEEERKNS_17MediaSinkInternalERKNS_17ParsedDialAppInfoEiNS_23DialInternalMessageTypeE"}
!16 = !{!17}
!17 = distinct !{!17, !18, !"_ZN12media_router12_GLOBAL__N_124DialAppInfoErrorToStringENS_21DialAppInfoResultCodeE: argument 0"}
!18 = distinct !{!18, !"_ZN12media_router12_GLOBAL__N_124DialAppInfoErrorToStringENS_21DialAppInfoResultCodeE"}
!19 = !{!20}
!20 = distinct !{!20, !21, !"_ZNSt3__1plIcNS_11char_traitsIcEENS_9allocatorIcEEEENS_12basic_stringIT_T0_T1_EERKS9_SB_: argument 0"}
!21 = distinct !{!21, !"_ZNSt3__1plIcNS_11char_traitsIcEENS_9allocatorIcEEEENS_12basic_stringIT_T0_T1_EERKS9_SB_"}
