; ModuleID = '../../third_party/webrtc/modules/desktop_capture/differ_block.cc'
source_filename = "../../third_party/webrtc/modules/desktop_capture/differ_block.cc"
target datalayout = "e-m:e-i64:64-f80:128-n8:16:32:64-S128"
target triple = "x86_64-unknown-linux-gnu"

@_ZZN6webrtc16VectorDifferenceEPKhS1_E9diff_proc = internal unnamed_addr global i1 (i8*, i8*)* null, align 8

; Function Attrs: nounwind ssp uwtable
define hidden zeroext i1 @_ZN6webrtc16VectorDifferenceEPKhS1_(i8*, i8*) local_unnamed_addr #0 {
  %3 = load i1 (i8*, i8*)*, i1 (i8*, i8*)** @_ZZN6webrtc16VectorDifferenceEPKhS1_E9diff_proc, align 8
  %4 = icmp eq i1 (i8*, i8*)* %3, null
  br i1 %4, label %5, label %9

5:                                                ; preds = %2
  %6 = tail call i32 @_ZN6webrtc10GetCPUInfoENS_10CPUFeatureE(i32 0) #4
  %7 = icmp eq i32 %6, 0
  %8 = select i1 %7, i1 (i8*, i8*)* @_ZN6webrtc12_GLOBAL__N_118VectorDifference_CEPKhS2_, i1 (i8*, i8*)* @_ZN6webrtc25VectorDifference_SSE2_W32EPKhS1_
  store i1 (i8*, i8*)* %8, i1 (i8*, i8*)** @_ZZN6webrtc16VectorDifferenceEPKhS1_E9diff_proc, align 8
  br label %9

9:                                                ; preds = %2, %5
  %10 = phi i1 (i8*, i8*)* [ %3, %2 ], [ %8, %5 ]
  %11 = tail call zeroext i1 %10(i8* %0, i8* %1) #4, !callees !2
  ret i1 %11
}

declare i32 @_ZN6webrtc10GetCPUInfoENS_10CPUFeatureE(i32) local_unnamed_addr #1

declare zeroext i1 @_ZN6webrtc25VectorDifference_SSE2_W32EPKhS1_(i8*, i8*) #1

; Function Attrs: nounwind readonly ssp uwtable
define internal zeroext i1 @_ZN6webrtc12_GLOBAL__N_118VectorDifference_CEPKhS2_(i8* nocapture readonly, i8* nocapture readonly) #2 {
  %3 = tail call i32 @bcmp(i8* %0, i8* %1, i64 128)
  %4 = icmp ne i32 %3, 0
  ret i1 %4
}

; Function Attrs: nounwind ssp uwtable
define hidden zeroext i1 @_ZN6webrtc15BlockDifferenceEPKhS1_ii(i8*, i8*, i32, i32) local_unnamed_addr #0 {
  %5 = icmp sgt i32 %2, 0
  br i1 %5, label %6, label %26

6:                                                ; preds = %4
  %7 = sext i32 %3 to i64
  br label %8

8:                                                ; preds = %21, %6
  %9 = phi i32 [ 0, %6 ], [ %24, %21 ]
  %10 = phi i8* [ %0, %6 ], [ %22, %21 ]
  %11 = phi i8* [ %1, %6 ], [ %23, %21 ]
  %12 = load i1 (i8*, i8*)*, i1 (i8*, i8*)** @_ZZN6webrtc16VectorDifferenceEPKhS1_E9diff_proc, align 8
  %13 = icmp eq i1 (i8*, i8*)* %12, null
  br i1 %13, label %14, label %18

14:                                               ; preds = %8
  %15 = tail call i32 @_ZN6webrtc10GetCPUInfoENS_10CPUFeatureE(i32 0) #4
  %16 = icmp eq i32 %15, 0
  %17 = select i1 %16, i1 (i8*, i8*)* @_ZN6webrtc12_GLOBAL__N_118VectorDifference_CEPKhS2_, i1 (i8*, i8*)* @_ZN6webrtc25VectorDifference_SSE2_W32EPKhS1_
  store i1 (i8*, i8*)* %17, i1 (i8*, i8*)** @_ZZN6webrtc16VectorDifferenceEPKhS1_E9diff_proc, align 8
  br label %18

18:                                               ; preds = %8, %14
  %19 = phi i1 (i8*, i8*)* [ %12, %8 ], [ %17, %14 ]
  %20 = tail call zeroext i1 %19(i8* %10, i8* %11) #4, !callees !2
  br i1 %20, label %26, label %21

21:                                               ; preds = %18
  %22 = getelementptr inbounds i8, i8* %10, i64 %7
  %23 = getelementptr inbounds i8, i8* %11, i64 %7
  %24 = add nuw nsw i32 %9, 1
  %25 = icmp eq i32 %24, %2
  br i1 %25, label %26, label %8

26:                                               ; preds = %18, %21, %4
  %27 = phi i1 [ false, %4 ], [ false, %21 ], [ true, %18 ]
  ret i1 %27
}

; Function Attrs: nounwind ssp uwtable
define hidden zeroext i1 @_ZN6webrtc15BlockDifferenceEPKhS1_i(i8*, i8*, i32) local_unnamed_addr #0 {
  %4 = sext i32 %2 to i64
  br label %5

5:                                                ; preds = %18, %3
  %6 = phi i32 [ 0, %3 ], [ %21, %18 ]
  %7 = phi i8* [ %0, %3 ], [ %19, %18 ]
  %8 = phi i8* [ %1, %3 ], [ %20, %18 ]
  %9 = load i1 (i8*, i8*)*, i1 (i8*, i8*)** @_ZZN6webrtc16VectorDifferenceEPKhS1_E9diff_proc, align 8
  %10 = icmp eq i1 (i8*, i8*)* %9, null
  br i1 %10, label %11, label %15

11:                                               ; preds = %5
  %12 = tail call i32 @_ZN6webrtc10GetCPUInfoENS_10CPUFeatureE(i32 0) #4
  %13 = icmp eq i32 %12, 0
  %14 = select i1 %13, i1 (i8*, i8*)* @_ZN6webrtc12_GLOBAL__N_118VectorDifference_CEPKhS2_, i1 (i8*, i8*)* @_ZN6webrtc25VectorDifference_SSE2_W32EPKhS1_
  store i1 (i8*, i8*)* %14, i1 (i8*, i8*)** @_ZZN6webrtc16VectorDifferenceEPKhS1_E9diff_proc, align 8
  br label %15

15:                                               ; preds = %11, %5
  %16 = phi i1 (i8*, i8*)* [ %9, %5 ], [ %14, %11 ]
  %17 = tail call zeroext i1 %16(i8* %7, i8* %8) #4, !callees !2
  br i1 %17, label %23, label %18

18:                                               ; preds = %15
  %19 = getelementptr inbounds i8, i8* %7, i64 %4
  %20 = getelementptr inbounds i8, i8* %8, i64 %4
  %21 = add nuw nsw i32 %6, 1
  %22 = icmp eq i32 %21, 32
  br i1 %22, label %23, label %5

23:                                               ; preds = %15, %18
  %24 = phi i1 [ false, %18 ], [ true, %15 ]
  ret i1 %24
}

; Function Attrs: nofree nounwind readonly
declare i32 @bcmp(i8* nocapture, i8* nocapture, i64) local_unnamed_addr #3

attributes #0 = { nounwind ssp uwtable "correctly-rounded-divide-sqrt-fp-math"="false" "disable-tail-calls"="false" "less-precise-fpmad"="false" "min-legal-vector-width"="0" "no-frame-pointer-elim"="false" "no-frame-pointer-elim-non-leaf" "no-infs-fp-math"="false" "no-jump-tables"="false" "no-nans-fp-math"="false" "no-signed-zeros-fp-math"="false" "no-trapping-math"="false" "null-pointer-is-valid"="true" "stack-protector-buffer-size"="4" "target-cpu"="x86-64" "target-features"="+cx8,+fxsr,+mmx,+sse,+sse2,+sse3,+x87" "unsafe-fp-math"="false" "use-soft-float"="false" }
attributes #1 = { "correctly-rounded-divide-sqrt-fp-math"="false" "disable-tail-calls"="false" "less-precise-fpmad"="false" "no-frame-pointer-elim"="false" "no-frame-pointer-elim-non-leaf" "no-infs-fp-math"="false" "no-nans-fp-math"="false" "no-signed-zeros-fp-math"="false" "no-trapping-math"="false" "null-pointer-is-valid"="true" "stack-protector-buffer-size"="4" "target-cpu"="x86-64" "target-features"="+cx8,+fxsr,+mmx,+sse,+sse2,+sse3,+x87" "unsafe-fp-math"="false" "use-soft-float"="false" }
attributes #2 = { nounwind readonly ssp uwtable "correctly-rounded-divide-sqrt-fp-math"="false" "disable-tail-calls"="false" "less-precise-fpmad"="false" "min-legal-vector-width"="0" "no-frame-pointer-elim"="false" "no-frame-pointer-elim-non-leaf" "no-infs-fp-math"="false" "no-jump-tables"="false" "no-nans-fp-math"="false" "no-signed-zeros-fp-math"="false" "no-trapping-math"="false" "null-pointer-is-valid"="true" "stack-protector-buffer-size"="4" "target-cpu"="x86-64" "target-features"="+cx8,+fxsr,+mmx,+sse,+sse2,+sse3,+x87" "unsafe-fp-math"="false" "use-soft-float"="false" }
attributes #3 = { nofree nounwind readonly }
attributes #4 = { nounwind }

!llvm.module.flags = !{!0, !1}

!0 = !{i32 1, !"wchar_size", i32 4}
!1 = !{i32 7, !"PIC Level", i32 2}
!2 = !{i1 (i8*, i8*)* @_ZN6webrtc12_GLOBAL__N_118VectorDifference_CEPKhS2_, i1 (i8*, i8*)* @_ZN6webrtc25VectorDifference_SSE2_W32EPKhS1_}
