; ModuleID = '../../third_party/blink/renderer/platform/audio/direct_convolver.cc'
source_filename = "../../third_party/blink/renderer/platform/audio/direct_convolver.cc"
target datalayout = "e-m:e-i64:64-f80:128-n8:16:32:64-S128"
target triple = "x86_64-unknown-linux-gnu"

module asm ".symver exp, exp@GLIBC_2.2.5"
module asm ".symver exp2, exp2@GLIBC_2.2.5"
module asm ".symver exp2f, exp2f@GLIBC_2.2.5"
module asm ".symver expf, expf@GLIBC_2.2.5"
module asm ".symver lgamma, lgamma@GLIBC_2.2.5"
module asm ".symver lgammaf, lgammaf@GLIBC_2.2.5"
module asm ".symver lgammal, lgammal@GLIBC_2.2.5"
module asm ".symver log, log@GLIBC_2.2.5"
module asm ".symver log2, log2@GLIBC_2.2.5"
module asm ".symver log2f, log2f@GLIBC_2.2.5"
module asm ".symver logf, logf@GLIBC_2.2.5"
module asm ".symver pow, pow@GLIBC_2.2.5"
module asm ".symver powf, powf@GLIBC_2.2.5"

%"class.blink::DirectConvolver" = type { i64, %"class.blink::AudioArray", %"class.std::__1::unique_ptr", %"class.blink::AudioArray" }
%"class.std::__1::unique_ptr" = type { %"class.std::__1::__compressed_pair" }
%"class.std::__1::__compressed_pair" = type { %"struct.std::__1::__compressed_pair_elem" }
%"struct.std::__1::__compressed_pair_elem" = type { %"class.blink::AudioArray"* }
%"class.blink::AudioArray" = type <{ float*, float*, i32, [4 x i8] }>
%"class.logging::CheckOpResult" = type { i8* }
%"class.logging::CheckError" = type { %"class.logging::LogMessage"* }
%"class.logging::LogMessage" = type { i32 (...)**, i32, %"class.std::__1::basic_ostringstream", i64, i8*, i32, %"class.base::ScopedClearLastErrorBase" }
%"class.std::__1::basic_ostringstream" = type { %"class.std::__1::basic_ostream.base", %"class.std::__1::basic_stringbuf", %"class.std::__1::basic_ios.base" }
%"class.std::__1::basic_ostream.base" = type { i32 (...)** }
%"class.std::__1::basic_stringbuf" = type <{ %"class.std::__1::basic_streambuf", %"class.std::__1::basic_string", i8*, i32, [4 x i8] }>
%"class.std::__1::basic_streambuf" = type { i32 (...)**, %"class.std::__1::locale", i8*, i8*, i8*, i8*, i8*, i8* }
%"class.std::__1::locale" = type { %"class.std::__1::locale::__imp"* }
%"class.std::__1::locale::__imp" = type opaque
%"class.std::__1::basic_string" = type { %"class.std::__1::__compressed_pair.1" }
%"class.std::__1::__compressed_pair.1" = type { %"struct.std::__1::__compressed_pair_elem.2" }
%"struct.std::__1::__compressed_pair_elem.2" = type { %"struct.std::__1::basic_string<char, std::__1::char_traits<char>, std::__1::allocator<char> >::__rep" }
%"struct.std::__1::basic_string<char, std::__1::char_traits<char>, std::__1::allocator<char> >::__rep" = type { %union.anon }
%union.anon = type { %"struct.std::__1::basic_string<char, std::__1::char_traits<char>, std::__1::allocator<char> >::__long" }
%"struct.std::__1::basic_string<char, std::__1::char_traits<char>, std::__1::allocator<char> >::__long" = type { i8*, i64, i64 }
%"class.std::__1::basic_ios.base" = type <{ %"class.std::__1::ios_base", %"class.std::__1::basic_ostream"*, i32 }>
%"class.std::__1::ios_base" = type { i32 (...)**, i32, i64, i64, i32, i32, i8*, i8*, void (i32, %"class.std::__1::ios_base"*, i32)**, i32*, i64, i64, i64*, i64, i64, i8**, i64, i64 }
%"class.std::__1::basic_ostream" = type { i32 (...)**, %"class.std::__1::basic_ios.base" }
%"class.base::ScopedClearLastErrorBase" = type { i32 }

$_ZN5blink10AudioArrayIfE8AllocateEm = comdat any

@.str = private unnamed_addr constant [54 x i8] c"n <= std::numeric_limits<unsigned>::max() / sizeof(T)\00", align 1
@.str.1 = private unnamed_addr constant [62 x i8] c"../../third_party/blink/renderer/platform/audio/audio_array.h\00", align 1
@.str.2 = private unnamed_addr constant [12 x i8] c"allocation_\00", align 1
@__PRETTY_FUNCTION__._ZN3WTF21GetStringWithTypeNameIN5blink10AudioArrayIfEEEEPKcv = private unnamed_addr constant [72 x i8] c"const char *WTF::GetStringWithTypeName() [T = blink::AudioArray<float>]\00", align 1

@_ZN5blink15DirectConvolverC1EmNSt3__110unique_ptrINS_10AudioArrayIfEENS1_14default_deleteIS4_EEEE = hidden unnamed_addr alias void (%"class.blink::DirectConvolver"*, i64, %"class.blink::AudioArray"*), void (%"class.blink::DirectConvolver"*, i64, %"class.blink::AudioArray"*)* @_ZN5blink15DirectConvolverC2EmNSt3__110unique_ptrINS_10AudioArrayIfEENS1_14default_deleteIS4_EEEE

; Function Attrs: nounwind ssp uwtable
define hidden void @_ZN5blink15DirectConvolverC2EmNSt3__110unique_ptrINS_10AudioArrayIfEENS1_14default_deleteIS4_EEEE(%"class.blink::DirectConvolver"*, i64, %"class.blink::AudioArray"*) unnamed_addr #0 align 2 {
  %4 = ptrtoint %"class.blink::AudioArray"* %2 to i64
  %5 = getelementptr inbounds %"class.blink::DirectConvolver", %"class.blink::DirectConvolver"* %0, i64 0, i32 0
  store i64 %1, i64* %5, align 8
  %6 = getelementptr inbounds %"class.blink::DirectConvolver", %"class.blink::DirectConvolver"* %0, i64 0, i32 1
  %7 = shl i64 %1, 1
  %8 = bitcast %"class.blink::AudioArray"* %6 to i8*
  tail call void @llvm.memset.p0i8.i64(i8* align 8 %8, i8 0, i64 20, i1 false) #6
  tail call void @_ZN5blink10AudioArrayIfE8AllocateEm(%"class.blink::AudioArray"* %6, i64 %7) #6
  %9 = getelementptr inbounds %"class.blink::DirectConvolver", %"class.blink::DirectConvolver"* %0, i64 0, i32 2
  %10 = bitcast %"class.std::__1::unique_ptr"* %9 to i64*
  store i64 %4, i64* %10, align 8
  %11 = getelementptr inbounds %"class.blink::DirectConvolver", %"class.blink::DirectConvolver"* %0, i64 0, i32 3
  %12 = bitcast %"class.blink::AudioArray"* %11 to i8*
  tail call void @llvm.memset.p0i8.i64(i8* align 8 %12, i8 0, i64 20, i1 false) #6
  %13 = getelementptr inbounds %"class.blink::AudioArray", %"class.blink::AudioArray"* %2, i64 0, i32 2
  %14 = load i32, i32* %13, align 8
  %15 = zext i32 %14 to i64
  %16 = getelementptr inbounds %"class.blink::AudioArray", %"class.blink::AudioArray"* %2, i64 0, i32 1
  %17 = load float*, float** %16, align 8
  %18 = getelementptr inbounds float, float* %17, i64 %15
  %19 = getelementptr inbounds float, float* %18, i64 -1
  tail call void @_ZN5blink11vector_math20PrepareFilterForConvEPKfimPNS_10AudioArrayIfEE(float* %19, i32 -1, i64 %15, %"class.blink::AudioArray"* %11) #6
  ret void
}

; Function Attrs: argmemonly nounwind
declare void @llvm.lifetime.start.p0i8(i64 immarg, i8* nocapture) #1

declare void @_ZN5blink11vector_math20PrepareFilterForConvEPKfimPNS_10AudioArrayIfEE(float*, i32, i64, %"class.blink::AudioArray"*) local_unnamed_addr #2

; Function Attrs: argmemonly nounwind
declare void @llvm.lifetime.end.p0i8(i64 immarg, i8* nocapture) #1

; Function Attrs: nounwind ssp uwtable
define hidden void @_ZN5blink15DirectConvolver7ProcessEPKfPfj(%"class.blink::DirectConvolver"*, float* nocapture readonly, float*, i32) local_unnamed_addr #0 align 2 {
  %5 = getelementptr inbounds %"class.blink::DirectConvolver", %"class.blink::DirectConvolver"* %0, i64 0, i32 2, i32 0, i32 0, i32 0
  %6 = load %"class.blink::AudioArray"*, %"class.blink::AudioArray"** %5, align 8
  %7 = getelementptr inbounds %"class.blink::AudioArray", %"class.blink::AudioArray"* %6, i64 0, i32 2
  %8 = load i32, i32* %7, align 8
  %9 = zext i32 %8 to i64
  %10 = getelementptr inbounds %"class.blink::AudioArray", %"class.blink::AudioArray"* %6, i64 0, i32 1
  %11 = load float*, float** %10, align 8
  %12 = getelementptr inbounds %"class.blink::DirectConvolver", %"class.blink::DirectConvolver"* %0, i64 0, i32 1, i32 1
  %13 = load float*, float** %12, align 8
  %14 = getelementptr inbounds %"class.blink::DirectConvolver", %"class.blink::DirectConvolver"* %0, i64 0, i32 0
  %15 = load i64, i64* %14, align 8
  %16 = getelementptr inbounds float, float* %13, i64 %15
  %17 = bitcast float* %16 to i8*
  %18 = bitcast float* %1 to i8*
  %19 = zext i32 %3 to i64
  %20 = shl nuw nsw i64 %19, 2
  tail call void @llvm.memcpy.p0i8.p0i8.i64(i8* align 4 %17, i8* align 4 %18, i64 %20, i1 false)
  %21 = sub nsw i64 0, %9
  %22 = getelementptr inbounds float, float* %16, i64 %21
  %23 = getelementptr inbounds float, float* %22, i64 1
  %24 = getelementptr inbounds float, float* %11, i64 %9
  %25 = getelementptr inbounds float, float* %24, i64 -1
  %26 = getelementptr inbounds %"class.blink::DirectConvolver", %"class.blink::DirectConvolver"* %0, i64 0, i32 3
  tail call void @_ZN5blink11vector_math4ConvEPKfiS2_iPfijmPKNS_10AudioArrayIfEE(float* %23, i32 1, float* %25, i32 -1, float* %2, i32 1, i32 %3, i64 %9, %"class.blink::AudioArray"* %26) #6
  %27 = bitcast float** %12 to i8**
  %28 = load i8*, i8** %27, align 8
  tail call void @llvm.memcpy.p0i8.p0i8.i64(i8* align 4 %28, i8* align 4 %17, i64 %20, i1 false)
  ret void
}

; Function Attrs: argmemonly nounwind
declare void @llvm.memcpy.p0i8.p0i8.i64(i8* nocapture writeonly, i8* nocapture readonly, i64, i1 immarg) #1

declare void @_ZN5blink11vector_math4ConvEPKfiS2_iPfijmPKNS_10AudioArrayIfEE(float*, i32, float*, i32, float*, i32, i32, i64, %"class.blink::AudioArray"*) local_unnamed_addr #2

; Function Attrs: nounwind ssp uwtable
define hidden void @_ZN5blink15DirectConvolver5ResetEv(%"class.blink::DirectConvolver"* nocapture readonly) local_unnamed_addr #0 align 2 {
  %2 = getelementptr inbounds %"class.blink::DirectConvolver", %"class.blink::DirectConvolver"* %0, i64 0, i32 1, i32 1
  %3 = bitcast float** %2 to i8**
  %4 = load i8*, i8** %3, align 8
  %5 = getelementptr inbounds %"class.blink::DirectConvolver", %"class.blink::DirectConvolver"* %0, i64 0, i32 1, i32 2
  %6 = load i32, i32* %5, align 8
  %7 = zext i32 %6 to i64
  %8 = shl nuw nsw i64 %7, 2
  tail call void @llvm.memset.p0i8.i64(i8* align 4 %4, i8 0, i64 %8, i1 false) #6
  ret void
}

declare void @_ZN3WTF10Partitions8FastFreeEPv(i8*) local_unnamed_addr #2

; Function Attrs: nounwind ssp uwtable
define linkonce_odr hidden void @_ZN5blink10AudioArrayIfE8AllocateEm(%"class.blink::AudioArray"*, i64) local_unnamed_addr #0 comdat align 2 {
  %3 = alloca %"class.logging::CheckOpResult", align 8
  %4 = alloca %"class.logging::CheckOpResult", align 8
  %5 = alloca %"class.logging::CheckError", align 8
  %6 = alloca %"class.logging::CheckError", align 8
  %7 = bitcast %"class.logging::CheckOpResult"* %4 to i8*
  call void @llvm.lifetime.start.p0i8(i64 8, i8* nonnull %7) #6
  %8 = getelementptr inbounds %"class.logging::CheckOpResult", %"class.logging::CheckOpResult"* %4, i64 0, i32 0
  store i8* inttoptr (i64 -6148914691236517206 to i8*), i8** %8, align 8
  %9 = bitcast %"class.logging::CheckOpResult"* %3 to i8*
  call void @llvm.lifetime.start.p0i8(i64 8, i8* nonnull %9)
  %10 = icmp ugt i64 %1, 1073741823
  br i1 %10, label %12, label %11

11:                                               ; preds = %2
  call void @llvm.lifetime.end.p0i8(i64 8, i8* nonnull %9)
  store i8* null, i8** %8, align 8
  br label %21

12:                                               ; preds = %2
  %13 = tail call i8* @_ZN7logging15CheckOpValueStrEm(i64 %1) #6
  %14 = tail call i8* @_ZN7logging15CheckOpValueStrEm(i64 1073741823) #6
  call void @_ZN7logging13CheckOpResultC1EPKcPcS3_(%"class.logging::CheckOpResult"* nonnull %3, i8* getelementptr inbounds ([54 x i8], [54 x i8]* @.str, i64 0, i64 0), i8* %13, i8* %14) #6
  %15 = getelementptr inbounds %"class.logging::CheckOpResult", %"class.logging::CheckOpResult"* %3, i64 0, i32 0
  %16 = load i8*, i8** %15, align 8
  call void @llvm.lifetime.end.p0i8(i64 8, i8* nonnull %9)
  store i8* %16, i8** %8, align 8
  %17 = icmp eq i8* %16, null
  br i1 %17, label %21, label %18

18:                                               ; preds = %12
  %19 = bitcast %"class.logging::CheckError"* %5 to i8*
  call void @llvm.lifetime.start.p0i8(i64 8, i8* nonnull %19) #6
  call void @_ZN7logging10CheckError7CheckOpEPKciPNS_13CheckOpResultE(%"class.logging::CheckError"* nonnull sret %5, i8* getelementptr inbounds ([62 x i8], [62 x i8]* @.str.1, i64 0, i64 0), i32 63, %"class.logging::CheckOpResult"* nonnull %4) #6
  %20 = call dereferenceable(160) %"class.std::__1::basic_ostream"* @_ZN7logging10CheckError6streamEv(%"class.logging::CheckError"* nonnull %5) #6
  call void @_ZN7logging10CheckErrorD1Ev(%"class.logging::CheckError"* nonnull %5) #6
  call void @llvm.lifetime.end.p0i8(i64 8, i8* nonnull %19) #6
  br label %21

21:                                               ; preds = %11, %12, %18
  call void @llvm.lifetime.end.p0i8(i64 8, i8* nonnull %7) #6
  %22 = trunc i64 %1 to i32
  %23 = shl i32 %22, 2
  %24 = getelementptr inbounds %"class.blink::AudioArray", %"class.blink::AudioArray"* %0, i64 0, i32 0
  %25 = load float*, float** %24, align 8
  %26 = icmp eq float* %25, null
  br i1 %26, label %29, label %27

27:                                               ; preds = %21
  %28 = bitcast float* %25 to i8*
  call void @_ZN3WTF10Partitions8FastFreeEPv(i8* nonnull %28) #6
  br label %29

29:                                               ; preds = %21, %27
  %30 = call { i32, i1 } @llvm.uadd.with.overflow.i32(i32 %23, i32 32) #6
  %31 = extractvalue { i32, i1 } %30, 1
  br i1 %31, label %32, label %33, !prof !2

32:                                               ; preds = %29
  call void @llvm.trap() #6
  unreachable

33:                                               ; preds = %29
  %34 = extractvalue { i32, i1 } %30, 0
  %35 = zext i32 %34 to i64
  %36 = call i8* @_ZN3WTF10Partitions16FastZeroedMallocEmPKc(i64 %35, i8* getelementptr inbounds ([72 x i8], [72 x i8]* @__PRETTY_FUNCTION__._ZN3WTF21GetStringWithTypeNameIN5blink10AudioArrayIfEEEEPKcv, i64 0, i64 0)) #6
  %37 = bitcast %"class.blink::AudioArray"* %0 to i8**
  store i8* %36, i8** %37, align 8
  %38 = icmp eq i8* %36, null
  br i1 %38, label %41, label %39

39:                                               ; preds = %33
  %40 = ptrtoint i8* %36 to i64
  br label %46

41:                                               ; preds = %33
  %42 = bitcast %"class.logging::CheckError"* %6 to i8*
  call void @llvm.lifetime.start.p0i8(i64 8, i8* nonnull %42) #6
  call void @_ZN7logging10CheckError5CheckEPKciS2_(%"class.logging::CheckError"* nonnull sret %6, i8* getelementptr inbounds ([62 x i8], [62 x i8]* @.str.1, i64 0, i64 0), i32 84, i8* getelementptr inbounds ([12 x i8], [12 x i8]* @.str.2, i64 0, i64 0)) #6
  %43 = call dereferenceable(160) %"class.std::__1::basic_ostream"* @_ZN7logging10CheckError6streamEv(%"class.logging::CheckError"* nonnull %6) #6
  call void @_ZN7logging10CheckErrorD1Ev(%"class.logging::CheckError"* nonnull %6) #6
  call void @llvm.lifetime.end.p0i8(i64 8, i8* nonnull %42) #6
  %44 = bitcast %"class.blink::AudioArray"* %0 to i64*
  %45 = load i64, i64* %44, align 8
  br label %46

46:                                               ; preds = %39, %41
  %47 = phi i64 [ %40, %39 ], [ %45, %41 ]
  %48 = add i64 %47, 31
  %49 = and i64 %48, -32
  %50 = inttoptr i64 %49 to float*
  %51 = getelementptr inbounds %"class.blink::AudioArray", %"class.blink::AudioArray"* %0, i64 0, i32 1
  store float* %50, float** %51, align 8
  %52 = getelementptr inbounds %"class.blink::AudioArray", %"class.blink::AudioArray"* %0, i64 0, i32 2
  store i32 %22, i32* %52, align 8
  ret void
}

declare void @_ZN7logging10CheckError7CheckOpEPKciPNS_13CheckOpResultE(%"class.logging::CheckError"* sret, i8*, i32, %"class.logging::CheckOpResult"*) local_unnamed_addr #2

declare dereferenceable(160) %"class.std::__1::basic_ostream"* @_ZN7logging10CheckError6streamEv(%"class.logging::CheckError"*) local_unnamed_addr #2

; Function Attrs: nounwind
declare void @_ZN7logging10CheckErrorD1Ev(%"class.logging::CheckError"*) unnamed_addr #3

declare i8* @_ZN3WTF10Partitions16FastZeroedMallocEmPKc(i64, i8*) local_unnamed_addr #2

declare void @_ZN7logging10CheckError5CheckEPKciS2_(%"class.logging::CheckError"* sret, i8*, i32, i8*) local_unnamed_addr #2

declare i8* @_ZN7logging15CheckOpValueStrEm(i64) local_unnamed_addr #2

declare void @_ZN7logging13CheckOpResultC1EPKcPcS3_(%"class.logging::CheckOpResult"*, i8*, i8*, i8*) unnamed_addr #2

; Function Attrs: nounwind readnone speculatable
declare { i32, i1 } @llvm.uadd.with.overflow.i32(i32, i32) #4

; Function Attrs: cold noreturn nounwind
declare void @llvm.trap() #5

; Function Attrs: argmemonly nounwind
declare void @llvm.memset.p0i8.i64(i8* nocapture writeonly, i8, i64, i1 immarg) #1

attributes #0 = { nounwind ssp uwtable "correctly-rounded-divide-sqrt-fp-math"="false" "disable-tail-calls"="false" "less-precise-fpmad"="false" "min-legal-vector-width"="0" "no-frame-pointer-elim"="false" "no-frame-pointer-elim-non-leaf" "no-infs-fp-math"="false" "no-jump-tables"="false" "no-nans-fp-math"="false" "no-signed-zeros-fp-math"="false" "no-trapping-math"="false" "null-pointer-is-valid"="true" "stack-protector-buffer-size"="4" "target-cpu"="x86-64" "target-features"="+cx8,+fxsr,+mmx,+sse,+sse2,+sse3,+x87" "unsafe-fp-math"="false" "use-soft-float"="false" }
attributes #1 = { argmemonly nounwind }
attributes #2 = { "correctly-rounded-divide-sqrt-fp-math"="false" "disable-tail-calls"="false" "less-precise-fpmad"="false" "no-frame-pointer-elim"="false" "no-frame-pointer-elim-non-leaf" "no-infs-fp-math"="false" "no-nans-fp-math"="false" "no-signed-zeros-fp-math"="false" "no-trapping-math"="false" "null-pointer-is-valid"="true" "stack-protector-buffer-size"="4" "target-cpu"="x86-64" "target-features"="+cx8,+fxsr,+mmx,+sse,+sse2,+sse3,+x87" "unsafe-fp-math"="false" "use-soft-float"="false" }
attributes #3 = { nounwind "correctly-rounded-divide-sqrt-fp-math"="false" "disable-tail-calls"="false" "less-precise-fpmad"="false" "no-frame-pointer-elim"="false" "no-frame-pointer-elim-non-leaf" "no-infs-fp-math"="false" "no-nans-fp-math"="false" "no-signed-zeros-fp-math"="false" "no-trapping-math"="false" "null-pointer-is-valid"="true" "stack-protector-buffer-size"="4" "target-cpu"="x86-64" "target-features"="+cx8,+fxsr,+mmx,+sse,+sse2,+sse3,+x87" "unsafe-fp-math"="false" "use-soft-float"="false" }
attributes #4 = { nounwind readnone speculatable }
attributes #5 = { cold noreturn nounwind }
attributes #6 = { nounwind }

!llvm.module.flags = !{!0, !1}

!0 = !{i32 1, !"wchar_size", i32 4}
!1 = !{i32 7, !"PIC Level", i32 2}
!2 = !{!"branch_weights", i32 1, i32 2000}
