; ModuleID = '../../components/dom_distiller/core/distillable_page_detector.cc'
source_filename = "../../components/dom_distiller/core/distillable_page_detector.cc"
target datalayout = "e-m:e-i64:64-f80:128-n8:16:32:64-S128"
target triple = "x86_64-unknown-linux-gnu"

module asm ".symver exp, exp@GLIBC_2.2.5"
module asm ".symver exp2, exp2@GLIBC_2.2.5"
module asm ".symver exp2f, exp2f@GLIBC_2.2.5"
module asm ".symver expf, expf@GLIBC_2.2.5"
module asm ".symver lgamma, lgamma@GLIBC_2.2.5"
module asm ".symver lgammaf, lgammaf@GLIBC_2.2.5"
module asm ".symver lgammal, lgammal@GLIBC_2.2.5"
module asm ".symver log, log@GLIBC_2.2.5"
module asm ".symver log2, log2@GLIBC_2.2.5"
module asm ".symver log2f, log2f@GLIBC_2.2.5"
module asm ".symver logf, logf@GLIBC_2.2.5"
module asm ".symver pow, pow@GLIBC_2.2.5"
module asm ".symver powf, powf@GLIBC_2.2.5"

%"class.dom_distiller::DistillablePageDetector" = type { %"class.std::__1::unique_ptr", double }
%"class.std::__1::unique_ptr" = type { %"class.std::__1::__compressed_pair" }
%"class.std::__1::__compressed_pair" = type { %"struct.std::__1::__compressed_pair_elem" }
%"struct.std::__1::__compressed_pair_elem" = type { %"class.dom_distiller::AdaBoostProto"* }
%"class.dom_distiller::AdaBoostProto" = type { %"class.google::protobuf::MessageLite", %"class.google::protobuf::internal::HasBits", %"class.google::protobuf::internal::CachedSize", %"class.google::protobuf::RepeatedPtrField", i32, i32 }
%"class.google::protobuf::MessageLite" = type { i32 (...)**, %"class.google::protobuf::internal::InternalMetadata" }
%"class.google::protobuf::internal::InternalMetadata" = type { i8* }
%"class.google::protobuf::internal::HasBits" = type { [1 x i32] }
%"class.google::protobuf::internal::CachedSize" = type { %"struct.std::__1::atomic" }
%"struct.std::__1::atomic" = type { %"struct.std::__1::__atomic_base" }
%"struct.std::__1::__atomic_base" = type { %"struct.std::__1::__atomic_base.0" }
%"struct.std::__1::__atomic_base.0" = type { %"struct.std::__1::__cxx_atomic_impl" }
%"struct.std::__1::__cxx_atomic_impl" = type { %"struct.std::__1::__cxx_atomic_base_impl" }
%"struct.std::__1::__cxx_atomic_base_impl" = type { i32 }
%"class.google::protobuf::RepeatedPtrField" = type { %"class.google::protobuf::internal::RepeatedPtrFieldBase" }
%"class.google::protobuf::internal::RepeatedPtrFieldBase" = type { %"class.google::protobuf::Arena"*, i32, i32, %"struct.google::protobuf::internal::RepeatedPtrFieldBase::Rep"* }
%"class.google::protobuf::Arena" = type { %"class.google::protobuf::internal::ArenaImpl", void (%"class.std::type_info"*, i64, i8*)*, void (%"class.google::protobuf::Arena"*, i8*, i64)*, void (%"class.google::protobuf::Arena"*, i8*, i64)*, i8* }
%"class.google::protobuf::internal::ArenaImpl" = type { %"struct.std::__1::atomic.1", %"struct.std::__1::atomic.1", %"struct.std::__1::atomic.5", %"class.google::protobuf::internal::ArenaImpl::Block"*, i64, %"struct.google::protobuf::internal::ArenaImpl::Options" }
%"struct.std::__1::atomic.1" = type { %"struct.std::__1::__atomic_base.2" }
%"struct.std::__1::__atomic_base.2" = type { %"struct.std::__1::__cxx_atomic_impl.3" }
%"struct.std::__1::__cxx_atomic_impl.3" = type { %"struct.std::__1::__cxx_atomic_base_impl.4" }
%"struct.std::__1::__cxx_atomic_base_impl.4" = type { %"class.google::protobuf::internal::ArenaImpl::SerialArena"* }
%"class.google::protobuf::internal::ArenaImpl::SerialArena" = type { %"class.google::protobuf::internal::ArenaImpl"*, i8*, %"class.google::protobuf::internal::ArenaImpl::Block"*, %"struct.google::protobuf::internal::ArenaImpl::CleanupChunk"*, %"class.google::protobuf::internal::ArenaImpl::SerialArena"*, i8*, i8*, %"struct.google::protobuf::internal::ArenaImpl::CleanupNode"*, %"struct.google::protobuf::internal::ArenaImpl::CleanupNode"* }
%"struct.google::protobuf::internal::ArenaImpl::CleanupChunk" = type { i64, %"struct.google::protobuf::internal::ArenaImpl::CleanupChunk"*, [1 x %"struct.google::protobuf::internal::ArenaImpl::CleanupNode"] }
%"struct.google::protobuf::internal::ArenaImpl::CleanupNode" = type { i8*, void (i8*)* }
%"struct.std::__1::atomic.5" = type { %"struct.std::__1::__atomic_base.6" }
%"struct.std::__1::__atomic_base.6" = type { %"struct.std::__1::__atomic_base.7" }
%"struct.std::__1::__atomic_base.7" = type { %"struct.std::__1::__cxx_atomic_impl.8" }
%"struct.std::__1::__cxx_atomic_impl.8" = type { %"struct.std::__1::__cxx_atomic_base_impl.9" }
%"struct.std::__1::__cxx_atomic_base_impl.9" = type { i64 }
%"class.google::protobuf::internal::ArenaImpl::Block" = type { %"class.google::protobuf::internal::ArenaImpl::Block"*, i64, i64 }
%"struct.google::protobuf::internal::ArenaImpl::Options" = type { i64, i64, i8*, i64, i8* (i64)*, void (i8*, i64)* }
%"class.std::type_info" = type { i32 (...)**, i8* }
%"struct.google::protobuf::internal::RepeatedPtrFieldBase::Rep" = type { i32, [268435454 x i8*] }
%"class.std::__1::basic_string" = type { %"class.std::__1::__compressed_pair.11" }
%"class.std::__1::__compressed_pair.11" = type { %"struct.std::__1::__compressed_pair_elem.12" }
%"struct.std::__1::__compressed_pair_elem.12" = type { %"struct.std::__1::basic_string<char, std::__1::char_traits<char>, std::__1::allocator<char> >::__rep" }
%"struct.std::__1::basic_string<char, std::__1::char_traits<char>, std::__1::allocator<char> >::__rep" = type { %union.anon }
%union.anon = type { %"struct.std::__1::basic_string<char, std::__1::char_traits<char>, std::__1::allocator<char> >::__long" }
%"struct.std::__1::basic_string<char, std::__1::char_traits<char>, std::__1::allocator<char> >::__long" = type { i8*, i64, i64 }
%"class.logging::CheckError" = type { %"class.logging::LogMessage"* }
%"class.logging::LogMessage" = type opaque
%"class.ui::ResourceBundle" = type { %"class.ui::ResourceBundle::Delegate"*, %"class.std::__1::unique_ptr.14", %"class.std::__1::unique_ptr.20", %"class.std::__1::unique_ptr.20", %"class.std::__1::vector", i32, %"class.std::__1::map", %"class.gfx::Image", %"class.std::__1::map.39", %"class.base::FilePath", %"class.std::__1::unordered_map", i8, i8, %"class.std::__1::basic_string" }
%"class.ui::ResourceBundle::Delegate" = type { i32 (...)** }
%"class.std::__1::unique_ptr.14" = type { %"class.std::__1::__compressed_pair.15" }
%"class.std::__1::__compressed_pair.15" = type { %"struct.std::__1::__compressed_pair_elem.16" }
%"struct.std::__1::__compressed_pair_elem.16" = type { %"class.base::Lock"* }
%"class.base::Lock" = type { %"class.base::internal::LockImpl" }
%"class.base::internal::LockImpl" = type { %union.pthread_mutex_t }
%union.pthread_mutex_t = type { %struct.__pthread_mutex_s }
%struct.__pthread_mutex_s = type { i32, i32, i32, i32, i32, i16, i16, %struct.__pthread_internal_list }
%struct.__pthread_internal_list = type { %struct.__pthread_internal_list*, %struct.__pthread_internal_list* }
%"class.std::__1::unique_ptr.20" = type { %"class.std::__1::__compressed_pair.21" }
%"class.std::__1::__compressed_pair.21" = type { %"struct.std::__1::__compressed_pair_elem.22" }
%"struct.std::__1::__compressed_pair_elem.22" = type { %"class.ui::ResourceHandle"* }
%"class.ui::ResourceHandle" = type opaque
%"class.std::__1::vector" = type { %"class.std::__1::__vector_base" }
%"class.std::__1::__vector_base" = type { %"class.std::__1::unique_ptr.20"*, %"class.std::__1::unique_ptr.20"*, %"class.std::__1::__compressed_pair.26" }
%"class.std::__1::__compressed_pair.26" = type { %"struct.std::__1::__compressed_pair_elem.27" }
%"struct.std::__1::__compressed_pair_elem.27" = type { %"class.std::__1::unique_ptr.20"* }
%"class.std::__1::map" = type { %"class.std::__1::__tree" }
%"class.std::__1::__tree" = type { %"class.std::__1::__tree_end_node"*, %"class.std::__1::__compressed_pair.31", %"class.std::__1::__compressed_pair.36" }
%"class.std::__1::__tree_end_node" = type { %"class.std::__1::__tree_node_base"* }
%"class.std::__1::__tree_node_base" = type opaque
%"class.std::__1::__compressed_pair.31" = type { %"struct.std::__1::__compressed_pair_elem.32" }
%"struct.std::__1::__compressed_pair_elem.32" = type { %"class.std::__1::__tree_end_node" }
%"class.std::__1::__compressed_pair.36" = type { %"struct.std::__1::__compressed_pair_elem.37" }
%"struct.std::__1::__compressed_pair_elem.37" = type { i64 }
%"class.gfx::Image" = type { %class.scoped_refptr }
%class.scoped_refptr = type { %"class.gfx::internal::ImageStorage"* }
%"class.gfx::internal::ImageStorage" = type opaque
%"class.std::__1::map.39" = type { %"class.std::__1::__tree.40" }
%"class.std::__1::__tree.40" = type { %"class.std::__1::__tree_end_node"*, %"class.std::__1::__compressed_pair.41", %"class.std::__1::__compressed_pair.45" }
%"class.std::__1::__compressed_pair.41" = type { %"struct.std::__1::__compressed_pair_elem.32" }
%"class.std::__1::__compressed_pair.45" = type { %"struct.std::__1::__compressed_pair_elem.37" }
%"class.base::FilePath" = type { %"class.std::__1::basic_string" }
%"class.std::__1::unordered_map" = type { %"class.std::__1::__hash_table" }
%"class.std::__1::__hash_table" = type <{ %"class.std::__1::unique_ptr.50", %"class.std::__1::__compressed_pair.58", %"class.std::__1::__compressed_pair.63", %"class.std::__1::__compressed_pair.65", [4 x i8] }>
%"class.std::__1::unique_ptr.50" = type { %"class.std::__1::__compressed_pair.51" }
%"class.std::__1::__compressed_pair.51" = type { %"struct.std::__1::__compressed_pair_elem.52", %"struct.std::__1::__compressed_pair_elem.53" }
%"struct.std::__1::__compressed_pair_elem.52" = type { %"struct.std::__1::__hash_node_base"** }
%"struct.std::__1::__hash_node_base" = type { %"struct.std::__1::__hash_node_base"* }
%"struct.std::__1::__compressed_pair_elem.53" = type { %"class.std::__1::__bucket_list_deallocator" }
%"class.std::__1::__bucket_list_deallocator" = type { %"class.std::__1::__compressed_pair.54" }
%"class.std::__1::__compressed_pair.54" = type { %"struct.std::__1::__compressed_pair_elem.37" }
%"class.std::__1::__compressed_pair.58" = type { %"struct.std::__1::__compressed_pair_elem.59" }
%"struct.std::__1::__compressed_pair_elem.59" = type { %"struct.std::__1::__hash_node_base" }
%"class.std::__1::__compressed_pair.63" = type { %"struct.std::__1::__compressed_pair_elem.37" }
%"class.std::__1::__compressed_pair.65" = type { %"struct.std::__1::__compressed_pair_elem.66" }
%"struct.std::__1::__compressed_pair_elem.66" = type { float }
%"class.std::__1::basic_ostream" = type { i32 (...)**, %"class.std::__1::basic_ios.base" }
%"class.std::__1::basic_ios.base" = type <{ %"class.std::__1::ios_base", %"class.std::__1::basic_ostream"*, i32 }>
%"class.std::__1::ios_base" = type { i32 (...)**, i32, i64, i64, i32, i32, i8*, i8*, void (i32, %"class.std::__1::ios_base"*, i32)**, i32*, i64, i64, i64*, i64, i64, i8**, i64, i64 }
%"struct.std::__1::basic_string<char, std::__1::char_traits<char>, std::__1::allocator<char> >::__short" = type { [23 x i8], %struct.anon }
%struct.anon = type { i8 }
%"class.dom_distiller::StumpProto" = type <{ %"class.google::protobuf::MessageLite", %"class.google::protobuf::internal::HasBits", %"class.google::protobuf::internal::CachedSize", double, double, i32, [4 x i8] }>
%"class.std::__1::vector.68" = type { %"class.std::__1::__vector_base.69" }
%"class.std::__1::__vector_base.69" = type { double*, double*, %"class.std::__1::__compressed_pair.70" }
%"class.std::__1::__compressed_pair.70" = type { %"struct.std::__1::__compressed_pair_elem.71" }
%"struct.std::__1::__compressed_pair_elem.71" = type { double* }

@_ZZN13dom_distiller23DistillablePageDetector11GetNewModelEvE8detector = internal unnamed_addr global %"class.dom_distiller::DistillablePageDetector"* null, align 8
@.str = private unnamed_addr constant [65 x i8] c"../../components/dom_distiller/core/distillable_page_detector.cc\00", align 1
@.str.1 = private unnamed_addr constant [41 x i8] c"proto->ParseFromString(serialized_proto)\00", align 1
@_ZZN13dom_distiller23DistillablePageDetector16GetLongPageModelEvE8detector = internal unnamed_addr global %"class.dom_distiller::DistillablePageDetector"* null, align 8
@.str.2 = private unnamed_addr constant [45 x i8] c"proto_->num_stumps() == proto_->stump_size()\00", align 1
@.str.3 = private unnamed_addr constant [28 x i8] c"stump.feature_number() >= 0\00", align 1
@.str.4 = private unnamed_addr constant [48 x i8] c"stump.feature_number() < proto_->num_features()\00", align 1

@_ZN13dom_distiller23DistillablePageDetectorC1ENSt3__110unique_ptrINS_13AdaBoostProtoENS1_14default_deleteIS3_EEEE = hidden unnamed_addr alias void (%"class.dom_distiller::DistillablePageDetector"*, %"class.dom_distiller::AdaBoostProto"*), void (%"class.dom_distiller::DistillablePageDetector"*, %"class.dom_distiller::AdaBoostProto"*)* @_ZN13dom_distiller23DistillablePageDetectorC2ENSt3__110unique_ptrINS_13AdaBoostProtoENS1_14default_deleteIS3_EEEE
@_ZN13dom_distiller23DistillablePageDetectorD1Ev = hidden unnamed_addr alias void (%"class.dom_distiller::DistillablePageDetector"*), void (%"class.dom_distiller::DistillablePageDetector"*)* @_ZN13dom_distiller23DistillablePageDetectorD2Ev

; Function Attrs: nounwind ssp uwtable
define hidden %"class.dom_distiller::DistillablePageDetector"* @_ZN13dom_distiller23DistillablePageDetector11GetNewModelEv() local_unnamed_addr #0 align 2 {
  %1 = alloca %"class.std::__1::basic_string", align 8
  %2 = alloca %"class.logging::CheckError", align 8
  %3 = load %"class.dom_distiller::DistillablePageDetector"*, %"class.dom_distiller::DistillablePageDetector"** @_ZZN13dom_distiller23DistillablePageDetector11GetNewModelEvE8detector, align 8
  %4 = icmp eq %"class.dom_distiller::DistillablePageDetector"* %3, null
  br i1 %4, label %5, label %29

5:                                                ; preds = %0
  %6 = bitcast %"class.std::__1::basic_string"* %1 to i8*
  call void @llvm.lifetime.start.p0i8(i64 24, i8* nonnull %6) #7
  %7 = getelementptr inbounds %"class.std::__1::basic_string", %"class.std::__1::basic_string"* %1, i64 0, i32 0, i32 0, i32 0, i32 0, i32 0, i32 0
  %8 = bitcast %"class.std::__1::basic_string"* %1 to i8*
  call void @llvm.memset.p0i8.i64(i8* nonnull align 8 %8, i8 -86, i64 24, i1 false)
  %9 = tail call dereferenceable(216) %"class.ui::ResourceBundle"* @_ZN2ui14ResourceBundle17GetSharedInstanceEv() #7
  call void @_ZNK2ui14ResourceBundle22LoadDataResourceStringEi(%"class.std::__1::basic_string"* nonnull sret %1, %"class.ui::ResourceBundle"* %9, i32 21650) #7
  %10 = call i8* @_Znwm(i64 56) #8
  %11 = bitcast i8* %10 to %"class.dom_distiller::AdaBoostProto"*
  call void @_ZN13dom_distiller13AdaBoostProtoC2EPN6google8protobuf5ArenaE(%"class.dom_distiller::AdaBoostProto"* nonnull %11, %"class.google::protobuf::Arena"* null) #7
  %12 = bitcast i8* %10 to %"class.google::protobuf::MessageLite"*
  %13 = call zeroext i1 @_ZN6google8protobuf11MessageLite15ParseFromStringERKNSt3__112basic_stringIcNS2_11char_traitsIcEENS2_9allocatorIcEEEE(%"class.google::protobuf::MessageLite"* nonnull %12, %"class.std::__1::basic_string"* nonnull dereferenceable(24) %1) #7
  br i1 %13, label %17, label %14

14:                                               ; preds = %5
  %15 = bitcast %"class.logging::CheckError"* %2 to i8*
  call void @llvm.lifetime.start.p0i8(i64 8, i8* nonnull %15) #7
  call void @_ZN7logging10CheckError5CheckEPKciS2_(%"class.logging::CheckError"* nonnull sret %2, i8* getelementptr inbounds ([65 x i8], [65 x i8]* @.str, i64 0, i64 0), i32 23, i8* getelementptr inbounds ([41 x i8], [41 x i8]* @.str.1, i64 0, i64 0)) #7
  %16 = call dereferenceable(160) %"class.std::__1::basic_ostream"* @_ZN7logging10CheckError6streamEv(%"class.logging::CheckError"* nonnull %2) #7
  call void @_ZN7logging10CheckErrorD1Ev(%"class.logging::CheckError"* nonnull %2) #7
  call void @llvm.lifetime.end.p0i8(i64 8, i8* nonnull %15) #7
  br label %17

17:                                               ; preds = %14, %5
  %18 = call i8* @_Znwm(i64 16) #8
  %19 = bitcast i8* %18 to %"class.dom_distiller::DistillablePageDetector"*
  call void @_ZN13dom_distiller23DistillablePageDetectorC2ENSt3__110unique_ptrINS_13AdaBoostProtoENS1_14default_deleteIS3_EEEE(%"class.dom_distiller::DistillablePageDetector"* nonnull %19, %"class.dom_distiller::AdaBoostProto"* nonnull %11)
  store i8* %18, i8** bitcast (%"class.dom_distiller::DistillablePageDetector"** @_ZZN13dom_distiller23DistillablePageDetector11GetNewModelEvE8detector to i8**), align 8
  %20 = bitcast %"class.std::__1::basic_string"* %1 to %"struct.std::__1::basic_string<char, std::__1::char_traits<char>, std::__1::allocator<char> >::__short"*
  %21 = getelementptr inbounds %"struct.std::__1::basic_string<char, std::__1::char_traits<char>, std::__1::allocator<char> >::__short", %"struct.std::__1::basic_string<char, std::__1::char_traits<char>, std::__1::allocator<char> >::__short"* %20, i64 0, i32 1, i32 0
  %22 = load i8, i8* %21, align 1
  %23 = icmp slt i8 %22, 0
  br i1 %23, label %24, label %27

24:                                               ; preds = %17
  %25 = load i8*, i8** %7, align 8
  call void @_ZdlPv(i8* %25) #8
  %26 = load %"class.dom_distiller::DistillablePageDetector"*, %"class.dom_distiller::DistillablePageDetector"** @_ZZN13dom_distiller23DistillablePageDetector11GetNewModelEvE8detector, align 8
  br label %27

27:                                               ; preds = %17, %24
  %28 = phi %"class.dom_distiller::DistillablePageDetector"* [ %19, %17 ], [ %26, %24 ]
  call void @llvm.lifetime.end.p0i8(i64 24, i8* nonnull %6) #7
  br label %29

29:                                               ; preds = %0, %27
  %30 = phi %"class.dom_distiller::DistillablePageDetector"* [ %3, %0 ], [ %28, %27 ]
  ret %"class.dom_distiller::DistillablePageDetector"* %30
}

; Function Attrs: argmemonly nounwind
declare void @llvm.lifetime.start.p0i8(i64 immarg, i8* nocapture) #1

declare dereferenceable(216) %"class.ui::ResourceBundle"* @_ZN2ui14ResourceBundle17GetSharedInstanceEv() local_unnamed_addr #2

declare void @_ZNK2ui14ResourceBundle22LoadDataResourceStringEi(%"class.std::__1::basic_string"* sret, %"class.ui::ResourceBundle"*, i32) local_unnamed_addr #2

; Function Attrs: nobuiltin nofree
declare noalias nonnull i8* @_Znwm(i64) local_unnamed_addr #3

declare zeroext i1 @_ZN6google8protobuf11MessageLite15ParseFromStringERKNSt3__112basic_stringIcNS2_11char_traitsIcEENS2_9allocatorIcEEEE(%"class.google::protobuf::MessageLite"*, %"class.std::__1::basic_string"* dereferenceable(24)) local_unnamed_addr #2

declare void @_ZN7logging10CheckError5CheckEPKciS2_(%"class.logging::CheckError"* sret, i8*, i32, i8*) local_unnamed_addr #2

declare dereferenceable(160) %"class.std::__1::basic_ostream"* @_ZN7logging10CheckError6streamEv(%"class.logging::CheckError"*) local_unnamed_addr #2

; Function Attrs: nounwind
declare void @_ZN7logging10CheckErrorD1Ev(%"class.logging::CheckError"*) unnamed_addr #4

; Function Attrs: argmemonly nounwind
declare void @llvm.lifetime.end.p0i8(i64 immarg, i8* nocapture) #1

; Function Attrs: nounwind ssp uwtable
define hidden %"class.dom_distiller::DistillablePageDetector"* @_ZN13dom_distiller23DistillablePageDetector16GetLongPageModelEv() local_unnamed_addr #0 align 2 {
  %1 = alloca %"class.std::__1::basic_string", align 8
  %2 = alloca %"class.logging::CheckError", align 8
  %3 = load %"class.dom_distiller::DistillablePageDetector"*, %"class.dom_distiller::DistillablePageDetector"** @_ZZN13dom_distiller23DistillablePageDetector16GetLongPageModelEvE8detector, align 8
  %4 = icmp eq %"class.dom_distiller::DistillablePageDetector"* %3, null
  br i1 %4, label %5, label %29

5:                                                ; preds = %0
  %6 = bitcast %"class.std::__1::basic_string"* %1 to i8*
  call void @llvm.lifetime.start.p0i8(i64 24, i8* nonnull %6) #7
  %7 = getelementptr inbounds %"class.std::__1::basic_string", %"class.std::__1::basic_string"* %1, i64 0, i32 0, i32 0, i32 0, i32 0, i32 0, i32 0
  %8 = bitcast %"class.std::__1::basic_string"* %1 to i8*
  call void @llvm.memset.p0i8.i64(i8* nonnull align 8 %8, i8 -86, i64 24, i1 false)
  %9 = tail call dereferenceable(216) %"class.ui::ResourceBundle"* @_ZN2ui14ResourceBundle17GetSharedInstanceEv() #7
  call void @_ZNK2ui14ResourceBundle22LoadDataResourceStringEi(%"class.std::__1::basic_string"* nonnull sret %1, %"class.ui::ResourceBundle"* %9, i32 21651) #7
  %10 = call i8* @_Znwm(i64 56) #8
  %11 = bitcast i8* %10 to %"class.dom_distiller::AdaBoostProto"*
  call void @_ZN13dom_distiller13AdaBoostProtoC2EPN6google8protobuf5ArenaE(%"class.dom_distiller::AdaBoostProto"* nonnull %11, %"class.google::protobuf::Arena"* null) #7
  %12 = bitcast i8* %10 to %"class.google::protobuf::MessageLite"*
  %13 = call zeroext i1 @_ZN6google8protobuf11MessageLite15ParseFromStringERKNSt3__112basic_stringIcNS2_11char_traitsIcEENS2_9allocatorIcEEEE(%"class.google::protobuf::MessageLite"* nonnull %12, %"class.std::__1::basic_string"* nonnull dereferenceable(24) %1) #7
  br i1 %13, label %17, label %14

14:                                               ; preds = %5
  %15 = bitcast %"class.logging::CheckError"* %2 to i8*
  call void @llvm.lifetime.start.p0i8(i64 8, i8* nonnull %15) #7
  call void @_ZN7logging10CheckError5CheckEPKciS2_(%"class.logging::CheckError"* nonnull sret %2, i8* getelementptr inbounds ([65 x i8], [65 x i8]* @.str, i64 0, i64 0), i32 36, i8* getelementptr inbounds ([41 x i8], [41 x i8]* @.str.1, i64 0, i64 0)) #7
  %16 = call dereferenceable(160) %"class.std::__1::basic_ostream"* @_ZN7logging10CheckError6streamEv(%"class.logging::CheckError"* nonnull %2) #7
  call void @_ZN7logging10CheckErrorD1Ev(%"class.logging::CheckError"* nonnull %2) #7
  call void @llvm.lifetime.end.p0i8(i64 8, i8* nonnull %15) #7
  br label %17

17:                                               ; preds = %14, %5
  %18 = call i8* @_Znwm(i64 16) #8
  %19 = bitcast i8* %18 to %"class.dom_distiller::DistillablePageDetector"*
  call void @_ZN13dom_distiller23DistillablePageDetectorC2ENSt3__110unique_ptrINS_13AdaBoostProtoENS1_14default_deleteIS3_EEEE(%"class.dom_distiller::DistillablePageDetector"* nonnull %19, %"class.dom_distiller::AdaBoostProto"* nonnull %11)
  store i8* %18, i8** bitcast (%"class.dom_distiller::DistillablePageDetector"** @_ZZN13dom_distiller23DistillablePageDetector16GetLongPageModelEvE8detector to i8**), align 8
  %20 = bitcast %"class.std::__1::basic_string"* %1 to %"struct.std::__1::basic_string<char, std::__1::char_traits<char>, std::__1::allocator<char> >::__short"*
  %21 = getelementptr inbounds %"struct.std::__1::basic_string<char, std::__1::char_traits<char>, std::__1::allocator<char> >::__short", %"struct.std::__1::basic_string<char, std::__1::char_traits<char>, std::__1::allocator<char> >::__short"* %20, i64 0, i32 1, i32 0
  %22 = load i8, i8* %21, align 1
  %23 = icmp slt i8 %22, 0
  br i1 %23, label %24, label %27

24:                                               ; preds = %17
  %25 = load i8*, i8** %7, align 8
  call void @_ZdlPv(i8* %25) #8
  %26 = load %"class.dom_distiller::DistillablePageDetector"*, %"class.dom_distiller::DistillablePageDetector"** @_ZZN13dom_distiller23DistillablePageDetector16GetLongPageModelEvE8detector, align 8
  br label %27

27:                                               ; preds = %17, %24
  %28 = phi %"class.dom_distiller::DistillablePageDetector"* [ %19, %17 ], [ %26, %24 ]
  call void @llvm.lifetime.end.p0i8(i64 24, i8* nonnull %6) #7
  br label %29

29:                                               ; preds = %0, %27
  %30 = phi %"class.dom_distiller::DistillablePageDetector"* [ %3, %0 ], [ %28, %27 ]
  ret %"class.dom_distiller::DistillablePageDetector"* %30
}

; Function Attrs: nounwind ssp uwtable
define hidden void @_ZN13dom_distiller23DistillablePageDetectorC2ENSt3__110unique_ptrINS_13AdaBoostProtoENS1_14default_deleteIS3_EEEE(%"class.dom_distiller::DistillablePageDetector"* nocapture, %"class.dom_distiller::AdaBoostProto"*) unnamed_addr #0 align 2 {
  %3 = alloca %"class.logging::CheckError", align 8
  %4 = alloca %"class.logging::CheckError", align 8
  %5 = alloca %"class.logging::CheckError", align 8
  %6 = ptrtoint %"class.dom_distiller::AdaBoostProto"* %1 to i64
  %7 = bitcast %"class.dom_distiller::DistillablePageDetector"* %0 to i64*
  store i64 %6, i64* %7, align 8
  %8 = getelementptr inbounds %"class.dom_distiller::DistillablePageDetector", %"class.dom_distiller::DistillablePageDetector"* %0, i64 0, i32 1
  store double 0.000000e+00, double* %8, align 8
  %9 = getelementptr inbounds %"class.dom_distiller::DistillablePageDetector", %"class.dom_distiller::DistillablePageDetector"* %0, i64 0, i32 0, i32 0, i32 0, i32 0
  %10 = getelementptr inbounds %"class.dom_distiller::AdaBoostProto", %"class.dom_distiller::AdaBoostProto"* %1, i64 0, i32 4
  %11 = load i32, i32* %10, align 8
  %12 = getelementptr inbounds %"class.dom_distiller::AdaBoostProto", %"class.dom_distiller::AdaBoostProto"* %1, i64 0, i32 3, i32 0, i32 1
  %13 = load i32, i32* %12, align 8
  %14 = icmp eq i32 %11, %13
  br i1 %14, label %21, label %15

15:                                               ; preds = %2
  %16 = bitcast %"class.logging::CheckError"* %3 to i8*
  call void @llvm.lifetime.start.p0i8(i64 8, i8* nonnull %16) #7
  call void @_ZN7logging10CheckError5CheckEPKciS2_(%"class.logging::CheckError"* nonnull sret %3, i8* getelementptr inbounds ([65 x i8], [65 x i8]* @.str, i64 0, i64 0), i32 45, i8* getelementptr inbounds ([45 x i8], [45 x i8]* @.str.2, i64 0, i64 0)) #7
  %17 = call dereferenceable(160) %"class.std::__1::basic_ostream"* @_ZN7logging10CheckError6streamEv(%"class.logging::CheckError"* nonnull %3) #7
  call void @_ZN7logging10CheckErrorD1Ev(%"class.logging::CheckError"* nonnull %3) #7
  call void @llvm.lifetime.end.p0i8(i64 8, i8* nonnull %16) #7
  %18 = load %"class.dom_distiller::AdaBoostProto"*, %"class.dom_distiller::AdaBoostProto"** %9, align 8
  %19 = getelementptr inbounds %"class.dom_distiller::AdaBoostProto", %"class.dom_distiller::AdaBoostProto"* %18, i64 0, i32 4
  %20 = load i32, i32* %19, align 8
  br label %21

21:                                               ; preds = %2, %15
  %22 = phi i32 [ %11, %2 ], [ %20, %15 ]
  %23 = phi %"class.dom_distiller::AdaBoostProto"* [ %1, %2 ], [ %18, %15 ]
  %24 = icmp sgt i32 %22, 0
  br i1 %24, label %25, label %28

25:                                               ; preds = %21
  %26 = bitcast %"class.logging::CheckError"* %4 to i8*
  %27 = bitcast %"class.logging::CheckError"* %5 to i8*
  br label %29

28:                                               ; preds = %53, %21
  ret void

29:                                               ; preds = %25, %53
  %30 = phi %"class.dom_distiller::AdaBoostProto"* [ %23, %25 ], [ %54, %53 ]
  %31 = phi i64 [ 0, %25 ], [ %60, %53 ]
  %32 = getelementptr inbounds %"class.dom_distiller::AdaBoostProto", %"class.dom_distiller::AdaBoostProto"* %30, i64 0, i32 3, i32 0, i32 3
  %33 = load %"struct.google::protobuf::internal::RepeatedPtrFieldBase::Rep"*, %"struct.google::protobuf::internal::RepeatedPtrFieldBase::Rep"** %32, align 8
  %34 = getelementptr inbounds %"struct.google::protobuf::internal::RepeatedPtrFieldBase::Rep", %"struct.google::protobuf::internal::RepeatedPtrFieldBase::Rep"* %33, i64 0, i32 1, i64 %31
  %35 = bitcast i8** %34 to %"class.dom_distiller::StumpProto"**
  %36 = load %"class.dom_distiller::StumpProto"*, %"class.dom_distiller::StumpProto"** %35, align 8
  %37 = getelementptr inbounds %"class.dom_distiller::StumpProto", %"class.dom_distiller::StumpProto"* %36, i64 0, i32 5
  %38 = load i32, i32* %37, align 8
  %39 = icmp sgt i32 %38, -1
  br i1 %39, label %44, label %40

40:                                               ; preds = %29
  call void @llvm.lifetime.start.p0i8(i64 8, i8* nonnull %26) #7
  call void @_ZN7logging10CheckError5CheckEPKciS2_(%"class.logging::CheckError"* nonnull sret %4, i8* getelementptr inbounds ([65 x i8], [65 x i8]* @.str, i64 0, i64 0), i32 48, i8* getelementptr inbounds ([28 x i8], [28 x i8]* @.str.3, i64 0, i64 0)) #7
  %41 = call dereferenceable(160) %"class.std::__1::basic_ostream"* @_ZN7logging10CheckError6streamEv(%"class.logging::CheckError"* nonnull %4) #7
  call void @_ZN7logging10CheckErrorD1Ev(%"class.logging::CheckError"* nonnull %4) #7
  call void @llvm.lifetime.end.p0i8(i64 8, i8* nonnull %26) #7
  %42 = load i32, i32* %37, align 8
  %43 = load %"class.dom_distiller::AdaBoostProto"*, %"class.dom_distiller::AdaBoostProto"** %9, align 8
  br label %44

44:                                               ; preds = %29, %40
  %45 = phi %"class.dom_distiller::AdaBoostProto"* [ %30, %29 ], [ %43, %40 ]
  %46 = phi i32 [ %38, %29 ], [ %42, %40 ]
  %47 = getelementptr inbounds %"class.dom_distiller::AdaBoostProto", %"class.dom_distiller::AdaBoostProto"* %45, i64 0, i32 5
  %48 = load i32, i32* %47, align 4
  %49 = icmp slt i32 %46, %48
  br i1 %49, label %53, label %50

50:                                               ; preds = %44
  call void @llvm.lifetime.start.p0i8(i64 8, i8* nonnull %27) #7
  call void @_ZN7logging10CheckError5CheckEPKciS2_(%"class.logging::CheckError"* nonnull sret %5, i8* getelementptr inbounds ([65 x i8], [65 x i8]* @.str, i64 0, i64 0), i32 49, i8* getelementptr inbounds ([48 x i8], [48 x i8]* @.str.4, i64 0, i64 0)) #7
  %51 = call dereferenceable(160) %"class.std::__1::basic_ostream"* @_ZN7logging10CheckError6streamEv(%"class.logging::CheckError"* nonnull %5) #7
  call void @_ZN7logging10CheckErrorD1Ev(%"class.logging::CheckError"* nonnull %5) #7
  call void @llvm.lifetime.end.p0i8(i64 8, i8* nonnull %27) #7
  %52 = load %"class.dom_distiller::AdaBoostProto"*, %"class.dom_distiller::AdaBoostProto"** %9, align 8
  br label %53

53:                                               ; preds = %44, %50
  %54 = phi %"class.dom_distiller::AdaBoostProto"* [ %45, %44 ], [ %52, %50 ]
  %55 = getelementptr inbounds %"class.dom_distiller::StumpProto", %"class.dom_distiller::StumpProto"* %36, i64 0, i32 4
  %56 = load double, double* %55, align 8
  %57 = fmul double %56, 5.000000e-01
  %58 = load double, double* %8, align 8
  %59 = fadd double %58, %57
  store double %59, double* %8, align 8
  %60 = add nuw nsw i64 %31, 1
  %61 = getelementptr inbounds %"class.dom_distiller::AdaBoostProto", %"class.dom_distiller::AdaBoostProto"* %54, i64 0, i32 4
  %62 = load i32, i32* %61, align 8
  %63 = sext i32 %62 to i64
  %64 = icmp slt i64 %60, %63
  br i1 %64, label %29, label %28
}

; Function Attrs: nounwind ssp uwtable
define hidden void @_ZN13dom_distiller23DistillablePageDetectorD2Ev(%"class.dom_distiller::DistillablePageDetector"* nocapture) unnamed_addr #0 align 2 {
  %2 = getelementptr inbounds %"class.dom_distiller::DistillablePageDetector", %"class.dom_distiller::DistillablePageDetector"* %0, i64 0, i32 0, i32 0, i32 0, i32 0
  %3 = load %"class.dom_distiller::AdaBoostProto"*, %"class.dom_distiller::AdaBoostProto"** %2, align 8
  store %"class.dom_distiller::AdaBoostProto"* null, %"class.dom_distiller::AdaBoostProto"** %2, align 8
  %4 = icmp eq %"class.dom_distiller::AdaBoostProto"* %3, null
  br i1 %4, label %10, label %5

5:                                                ; preds = %1
  %6 = bitcast %"class.dom_distiller::AdaBoostProto"* %3 to void (%"class.dom_distiller::AdaBoostProto"*)***
  %7 = load void (%"class.dom_distiller::AdaBoostProto"*)**, void (%"class.dom_distiller::AdaBoostProto"*)*** %6, align 8
  %8 = getelementptr inbounds void (%"class.dom_distiller::AdaBoostProto"*)*, void (%"class.dom_distiller::AdaBoostProto"*)** %7, i64 1
  %9 = load void (%"class.dom_distiller::AdaBoostProto"*)*, void (%"class.dom_distiller::AdaBoostProto"*)** %8, align 8
  tail call void %9(%"class.dom_distiller::AdaBoostProto"* nonnull %3) #7
  br label %10

10:                                               ; preds = %1, %5
  ret void
}

; Function Attrs: norecurse nounwind readonly ssp uwtable
define hidden zeroext i1 @_ZNK13dom_distiller23DistillablePageDetector8ClassifyERKNSt3__16vectorIdNS1_9allocatorIdEEEE(%"class.dom_distiller::DistillablePageDetector"* nocapture readonly, %"class.std::__1::vector.68"* nocapture readonly dereferenceable(24)) local_unnamed_addr #5 align 2 {
  %3 = getelementptr inbounds %"class.std::__1::vector.68", %"class.std::__1::vector.68"* %1, i64 0, i32 0, i32 1
  %4 = bitcast double** %3 to i64*
  %5 = load i64, i64* %4, align 8
  %6 = bitcast %"class.std::__1::vector.68"* %1 to i64*
  %7 = load i64, i64* %6, align 8
  %8 = sub i64 %5, %7
  %9 = ashr exact i64 %8, 3
  %10 = getelementptr inbounds %"class.dom_distiller::DistillablePageDetector", %"class.dom_distiller::DistillablePageDetector"* %0, i64 0, i32 0, i32 0, i32 0, i32 0
  %11 = load %"class.dom_distiller::AdaBoostProto"*, %"class.dom_distiller::AdaBoostProto"** %10, align 8
  %12 = getelementptr inbounds %"class.dom_distiller::AdaBoostProto", %"class.dom_distiller::AdaBoostProto"* %11, i64 0, i32 5
  %13 = load i32, i32* %12, align 4
  %14 = sext i32 %13 to i64
  %15 = icmp eq i64 %9, %14
  %16 = inttoptr i64 %7 to double*
  br i1 %15, label %17, label %83

17:                                               ; preds = %2
  %18 = getelementptr inbounds %"class.dom_distiller::AdaBoostProto", %"class.dom_distiller::AdaBoostProto"* %11, i64 0, i32 4
  %19 = load i32, i32* %18, align 8
  %20 = icmp sgt i32 %19, 0
  br i1 %20, label %21, label %83

21:                                               ; preds = %17
  %22 = getelementptr inbounds %"class.dom_distiller::AdaBoostProto", %"class.dom_distiller::AdaBoostProto"* %11, i64 0, i32 3, i32 0, i32 3
  %23 = load %"struct.google::protobuf::internal::RepeatedPtrFieldBase::Rep"*, %"struct.google::protobuf::internal::RepeatedPtrFieldBase::Rep"** %22, align 8
  %24 = sext i32 %19 to i64
  %25 = and i64 %24, 1
  %26 = icmp eq i32 %19, 1
  br i1 %26, label %62, label %27

27:                                               ; preds = %21
  %28 = sub nsw i64 %24, %25
  br label %29

29:                                               ; preds = %92, %27
  %30 = phi i64 [ 0, %27 ], [ %94, %92 ]
  %31 = phi double [ 0.000000e+00, %27 ], [ %93, %92 ]
  %32 = phi i64 [ %28, %27 ], [ %95, %92 ]
  %33 = getelementptr inbounds %"struct.google::protobuf::internal::RepeatedPtrFieldBase::Rep", %"struct.google::protobuf::internal::RepeatedPtrFieldBase::Rep"* %23, i64 0, i32 1, i64 %30
  %34 = bitcast i8** %33 to %"class.dom_distiller::StumpProto"**
  %35 = load %"class.dom_distiller::StumpProto"*, %"class.dom_distiller::StumpProto"** %34, align 8
  %36 = getelementptr inbounds %"class.dom_distiller::StumpProto", %"class.dom_distiller::StumpProto"* %35, i64 0, i32 5
  %37 = load i32, i32* %36, align 8
  %38 = sext i32 %37 to i64
  %39 = getelementptr inbounds double, double* %16, i64 %38
  %40 = load double, double* %39, align 8
  %41 = getelementptr inbounds %"class.dom_distiller::StumpProto", %"class.dom_distiller::StumpProto"* %35, i64 0, i32 3
  %42 = load double, double* %41, align 8
  %43 = fcmp ogt double %40, %42
  br i1 %43, label %44, label %48

44:                                               ; preds = %29
  %45 = getelementptr inbounds %"class.dom_distiller::StumpProto", %"class.dom_distiller::StumpProto"* %35, i64 0, i32 4
  %46 = load double, double* %45, align 8
  %47 = fadd double %31, %46
  br label %48

48:                                               ; preds = %44, %29
  %49 = phi double [ %47, %44 ], [ %31, %29 ]
  %50 = or i64 %30, 1
  %51 = getelementptr inbounds %"struct.google::protobuf::internal::RepeatedPtrFieldBase::Rep", %"struct.google::protobuf::internal::RepeatedPtrFieldBase::Rep"* %23, i64 0, i32 1, i64 %50
  %52 = bitcast i8** %51 to %"class.dom_distiller::StumpProto"**
  %53 = load %"class.dom_distiller::StumpProto"*, %"class.dom_distiller::StumpProto"** %52, align 8
  %54 = getelementptr inbounds %"class.dom_distiller::StumpProto", %"class.dom_distiller::StumpProto"* %53, i64 0, i32 5
  %55 = load i32, i32* %54, align 8
  %56 = sext i32 %55 to i64
  %57 = getelementptr inbounds double, double* %16, i64 %56
  %58 = load double, double* %57, align 8
  %59 = getelementptr inbounds %"class.dom_distiller::StumpProto", %"class.dom_distiller::StumpProto"* %53, i64 0, i32 3
  %60 = load double, double* %59, align 8
  %61 = fcmp ogt double %58, %60
  br i1 %61, label %88, label %92

62:                                               ; preds = %92, %21
  %63 = phi double [ undef, %21 ], [ %93, %92 ]
  %64 = phi i64 [ 0, %21 ], [ %94, %92 ]
  %65 = phi double [ 0.000000e+00, %21 ], [ %93, %92 ]
  %66 = icmp eq i64 %25, 0
  br i1 %66, label %83, label %67

67:                                               ; preds = %62
  %68 = getelementptr inbounds %"struct.google::protobuf::internal::RepeatedPtrFieldBase::Rep", %"struct.google::protobuf::internal::RepeatedPtrFieldBase::Rep"* %23, i64 0, i32 1, i64 %64
  %69 = bitcast i8** %68 to %"class.dom_distiller::StumpProto"**
  %70 = load %"class.dom_distiller::StumpProto"*, %"class.dom_distiller::StumpProto"** %69, align 8
  %71 = getelementptr inbounds %"class.dom_distiller::StumpProto", %"class.dom_distiller::StumpProto"* %70, i64 0, i32 5
  %72 = load i32, i32* %71, align 8
  %73 = sext i32 %72 to i64
  %74 = getelementptr inbounds double, double* %16, i64 %73
  %75 = load double, double* %74, align 8
  %76 = getelementptr inbounds %"class.dom_distiller::StumpProto", %"class.dom_distiller::StumpProto"* %70, i64 0, i32 3
  %77 = load double, double* %76, align 8
  %78 = fcmp ogt double %75, %77
  br i1 %78, label %79, label %83

79:                                               ; preds = %67
  %80 = getelementptr inbounds %"class.dom_distiller::StumpProto", %"class.dom_distiller::StumpProto"* %70, i64 0, i32 4
  %81 = load double, double* %80, align 8
  %82 = fadd double %65, %81
  br label %83

83:                                               ; preds = %62, %67, %79, %2, %17
  %84 = phi double [ 0.000000e+00, %2 ], [ 0.000000e+00, %17 ], [ %63, %62 ], [ %82, %79 ], [ %65, %67 ]
  %85 = getelementptr inbounds %"class.dom_distiller::DistillablePageDetector", %"class.dom_distiller::DistillablePageDetector"* %0, i64 0, i32 1
  %86 = load double, double* %85, align 8
  %87 = fcmp ogt double %84, %86
  ret i1 %87

88:                                               ; preds = %48
  %89 = getelementptr inbounds %"class.dom_distiller::StumpProto", %"class.dom_distiller::StumpProto"* %53, i64 0, i32 4
  %90 = load double, double* %89, align 8
  %91 = fadd double %49, %90
  br label %92

92:                                               ; preds = %88, %48
  %93 = phi double [ %91, %88 ], [ %49, %48 ]
  %94 = add nuw nsw i64 %30, 2
  %95 = add i64 %32, -2
  %96 = icmp eq i64 %95, 0
  br i1 %96, label %62, label %29
}

; Function Attrs: norecurse nounwind readonly ssp uwtable
define hidden double @_ZNK13dom_distiller23DistillablePageDetector5ScoreERKNSt3__16vectorIdNS1_9allocatorIdEEEE(%"class.dom_distiller::DistillablePageDetector"* nocapture readonly, %"class.std::__1::vector.68"* nocapture readonly dereferenceable(24)) local_unnamed_addr #5 align 2 {
  %3 = getelementptr inbounds %"class.std::__1::vector.68", %"class.std::__1::vector.68"* %1, i64 0, i32 0, i32 1
  %4 = bitcast double** %3 to i64*
  %5 = load i64, i64* %4, align 8
  %6 = bitcast %"class.std::__1::vector.68"* %1 to i64*
  %7 = load i64, i64* %6, align 8
  %8 = sub i64 %5, %7
  %9 = ashr exact i64 %8, 3
  %10 = getelementptr inbounds %"class.dom_distiller::DistillablePageDetector", %"class.dom_distiller::DistillablePageDetector"* %0, i64 0, i32 0, i32 0, i32 0, i32 0
  %11 = load %"class.dom_distiller::AdaBoostProto"*, %"class.dom_distiller::AdaBoostProto"** %10, align 8
  %12 = getelementptr inbounds %"class.dom_distiller::AdaBoostProto", %"class.dom_distiller::AdaBoostProto"* %11, i64 0, i32 5
  %13 = load i32, i32* %12, align 4
  %14 = sext i32 %13 to i64
  %15 = icmp eq i64 %9, %14
  %16 = inttoptr i64 %7 to double*
  br i1 %15, label %17, label %83

17:                                               ; preds = %2
  %18 = getelementptr inbounds %"class.dom_distiller::AdaBoostProto", %"class.dom_distiller::AdaBoostProto"* %11, i64 0, i32 4
  %19 = load i32, i32* %18, align 8
  %20 = icmp sgt i32 %19, 0
  br i1 %20, label %21, label %83

21:                                               ; preds = %17
  %22 = getelementptr inbounds %"class.dom_distiller::AdaBoostProto", %"class.dom_distiller::AdaBoostProto"* %11, i64 0, i32 3, i32 0, i32 3
  %23 = load %"struct.google::protobuf::internal::RepeatedPtrFieldBase::Rep"*, %"struct.google::protobuf::internal::RepeatedPtrFieldBase::Rep"** %22, align 8
  %24 = sext i32 %19 to i64
  %25 = and i64 %24, 1
  %26 = icmp eq i32 %19, 1
  br i1 %26, label %62, label %27

27:                                               ; preds = %21
  %28 = sub nsw i64 %24, %25
  br label %29

29:                                               ; preds = %89, %27
  %30 = phi i64 [ 0, %27 ], [ %91, %89 ]
  %31 = phi double [ 0.000000e+00, %27 ], [ %90, %89 ]
  %32 = phi i64 [ %28, %27 ], [ %92, %89 ]
  %33 = getelementptr inbounds %"struct.google::protobuf::internal::RepeatedPtrFieldBase::Rep", %"struct.google::protobuf::internal::RepeatedPtrFieldBase::Rep"* %23, i64 0, i32 1, i64 %30
  %34 = bitcast i8** %33 to %"class.dom_distiller::StumpProto"**
  %35 = load %"class.dom_distiller::StumpProto"*, %"class.dom_distiller::StumpProto"** %34, align 8
  %36 = getelementptr inbounds %"class.dom_distiller::StumpProto", %"class.dom_distiller::StumpProto"* %35, i64 0, i32 5
  %37 = load i32, i32* %36, align 8
  %38 = sext i32 %37 to i64
  %39 = getelementptr inbounds double, double* %16, i64 %38
  %40 = load double, double* %39, align 8
  %41 = getelementptr inbounds %"class.dom_distiller::StumpProto", %"class.dom_distiller::StumpProto"* %35, i64 0, i32 3
  %42 = load double, double* %41, align 8
  %43 = fcmp ogt double %40, %42
  br i1 %43, label %44, label %48

44:                                               ; preds = %29
  %45 = getelementptr inbounds %"class.dom_distiller::StumpProto", %"class.dom_distiller::StumpProto"* %35, i64 0, i32 4
  %46 = load double, double* %45, align 8
  %47 = fadd double %31, %46
  br label %48

48:                                               ; preds = %44, %29
  %49 = phi double [ %47, %44 ], [ %31, %29 ]
  %50 = or i64 %30, 1
  %51 = getelementptr inbounds %"struct.google::protobuf::internal::RepeatedPtrFieldBase::Rep", %"struct.google::protobuf::internal::RepeatedPtrFieldBase::Rep"* %23, i64 0, i32 1, i64 %50
  %52 = bitcast i8** %51 to %"class.dom_distiller::StumpProto"**
  %53 = load %"class.dom_distiller::StumpProto"*, %"class.dom_distiller::StumpProto"** %52, align 8
  %54 = getelementptr inbounds %"class.dom_distiller::StumpProto", %"class.dom_distiller::StumpProto"* %53, i64 0, i32 5
  %55 = load i32, i32* %54, align 8
  %56 = sext i32 %55 to i64
  %57 = getelementptr inbounds double, double* %16, i64 %56
  %58 = load double, double* %57, align 8
  %59 = getelementptr inbounds %"class.dom_distiller::StumpProto", %"class.dom_distiller::StumpProto"* %53, i64 0, i32 3
  %60 = load double, double* %59, align 8
  %61 = fcmp ogt double %58, %60
  br i1 %61, label %85, label %89

62:                                               ; preds = %89, %21
  %63 = phi double [ undef, %21 ], [ %90, %89 ]
  %64 = phi i64 [ 0, %21 ], [ %91, %89 ]
  %65 = phi double [ 0.000000e+00, %21 ], [ %90, %89 ]
  %66 = icmp eq i64 %25, 0
  br i1 %66, label %83, label %67

67:                                               ; preds = %62
  %68 = getelementptr inbounds %"struct.google::protobuf::internal::RepeatedPtrFieldBase::Rep", %"struct.google::protobuf::internal::RepeatedPtrFieldBase::Rep"* %23, i64 0, i32 1, i64 %64
  %69 = bitcast i8** %68 to %"class.dom_distiller::StumpProto"**
  %70 = load %"class.dom_distiller::StumpProto"*, %"class.dom_distiller::StumpProto"** %69, align 8
  %71 = getelementptr inbounds %"class.dom_distiller::StumpProto", %"class.dom_distiller::StumpProto"* %70, i64 0, i32 5
  %72 = load i32, i32* %71, align 8
  %73 = sext i32 %72 to i64
  %74 = getelementptr inbounds double, double* %16, i64 %73
  %75 = load double, double* %74, align 8
  %76 = getelementptr inbounds %"class.dom_distiller::StumpProto", %"class.dom_distiller::StumpProto"* %70, i64 0, i32 3
  %77 = load double, double* %76, align 8
  %78 = fcmp ogt double %75, %77
  br i1 %78, label %79, label %83

79:                                               ; preds = %67
  %80 = getelementptr inbounds %"class.dom_distiller::StumpProto", %"class.dom_distiller::StumpProto"* %70, i64 0, i32 4
  %81 = load double, double* %80, align 8
  %82 = fadd double %65, %81
  br label %83

83:                                               ; preds = %62, %67, %79, %17, %2
  %84 = phi double [ 0.000000e+00, %2 ], [ 0.000000e+00, %17 ], [ %63, %62 ], [ %82, %79 ], [ %65, %67 ]
  ret double %84

85:                                               ; preds = %48
  %86 = getelementptr inbounds %"class.dom_distiller::StumpProto", %"class.dom_distiller::StumpProto"* %53, i64 0, i32 4
  %87 = load double, double* %86, align 8
  %88 = fadd double %49, %87
  br label %89

89:                                               ; preds = %85, %48
  %90 = phi double [ %88, %85 ], [ %49, %48 ]
  %91 = add nuw nsw i64 %30, 2
  %92 = add i64 %32, -2
  %93 = icmp eq i64 %92, 0
  br i1 %93, label %62, label %29
}

; Function Attrs: norecurse nounwind readonly ssp uwtable
define hidden double @_ZNK13dom_distiller23DistillablePageDetector12GetThresholdEv(%"class.dom_distiller::DistillablePageDetector"* nocapture readonly) local_unnamed_addr #5 align 2 {
  %2 = getelementptr inbounds %"class.dom_distiller::DistillablePageDetector", %"class.dom_distiller::DistillablePageDetector"* %0, i64 0, i32 1
  %3 = load double, double* %2, align 8
  ret double %3
}

declare void @_ZN13dom_distiller13AdaBoostProtoC2EPN6google8protobuf5ArenaE(%"class.dom_distiller::AdaBoostProto"*, %"class.google::protobuf::Arena"*) unnamed_addr #2

; Function Attrs: nobuiltin nounwind
declare void @_ZdlPv(i8*) local_unnamed_addr #6

; Function Attrs: argmemonly nounwind
declare void @llvm.memset.p0i8.i64(i8* nocapture writeonly, i8, i64, i1 immarg) #1

attributes #0 = { nounwind ssp uwtable "correctly-rounded-divide-sqrt-fp-math"="false" "disable-tail-calls"="false" "less-precise-fpmad"="false" "min-legal-vector-width"="0" "no-frame-pointer-elim"="false" "no-frame-pointer-elim-non-leaf" "no-infs-fp-math"="false" "no-jump-tables"="false" "no-nans-fp-math"="false" "no-signed-zeros-fp-math"="false" "no-trapping-math"="false" "null-pointer-is-valid"="true" "stack-protector-buffer-size"="4" "target-cpu"="x86-64" "target-features"="+cx8,+fxsr,+mmx,+sse,+sse2,+sse3,+x87" "unsafe-fp-math"="false" "use-soft-float"="false" }
attributes #1 = { argmemonly nounwind }
attributes #2 = { "correctly-rounded-divide-sqrt-fp-math"="false" "disable-tail-calls"="false" "less-precise-fpmad"="false" "no-frame-pointer-elim"="false" "no-frame-pointer-elim-non-leaf" "no-infs-fp-math"="false" "no-nans-fp-math"="false" "no-signed-zeros-fp-math"="false" "no-trapping-math"="false" "null-pointer-is-valid"="true" "stack-protector-buffer-size"="4" "target-cpu"="x86-64" "target-features"="+cx8,+fxsr,+mmx,+sse,+sse2,+sse3,+x87" "unsafe-fp-math"="false" "use-soft-float"="false" }
attributes #3 = { nobuiltin nofree "correctly-rounded-divide-sqrt-fp-math"="false" "disable-tail-calls"="false" "less-precise-fpmad"="false" "no-frame-pointer-elim"="false" "no-frame-pointer-elim-non-leaf" "no-infs-fp-math"="false" "no-nans-fp-math"="false" "no-signed-zeros-fp-math"="false" "no-trapping-math"="false" "null-pointer-is-valid"="true" "stack-protector-buffer-size"="4" "target-cpu"="x86-64" "target-features"="+cx8,+fxsr,+mmx,+sse,+sse2,+sse3,+x87" "unsafe-fp-math"="false" "use-soft-float"="false" }
attributes #4 = { nounwind "correctly-rounded-divide-sqrt-fp-math"="false" "disable-tail-calls"="false" "less-precise-fpmad"="false" "no-frame-pointer-elim"="false" "no-frame-pointer-elim-non-leaf" "no-infs-fp-math"="false" "no-nans-fp-math"="false" "no-signed-zeros-fp-math"="false" "no-trapping-math"="false" "null-pointer-is-valid"="true" "stack-protector-buffer-size"="4" "target-cpu"="x86-64" "target-features"="+cx8,+fxsr,+mmx,+sse,+sse2,+sse3,+x87" "unsafe-fp-math"="false" "use-soft-float"="false" }
attributes #5 = { norecurse nounwind readonly ssp uwtable "correctly-rounded-divide-sqrt-fp-math"="false" "disable-tail-calls"="false" "less-precise-fpmad"="false" "min-legal-vector-width"="0" "no-frame-pointer-elim"="false" "no-frame-pointer-elim-non-leaf" "no-infs-fp-math"="false" "no-jump-tables"="false" "no-nans-fp-math"="false" "no-signed-zeros-fp-math"="false" "no-trapping-math"="false" "null-pointer-is-valid"="true" "stack-protector-buffer-size"="4" "target-cpu"="x86-64" "target-features"="+cx8,+fxsr,+mmx,+sse,+sse2,+sse3,+x87" "unsafe-fp-math"="false" "use-soft-float"="false" }
attributes #6 = { nobuiltin nounwind "correctly-rounded-divide-sqrt-fp-math"="false" "disable-tail-calls"="false" "less-precise-fpmad"="false" "no-frame-pointer-elim"="false" "no-frame-pointer-elim-non-leaf" "no-infs-fp-math"="false" "no-nans-fp-math"="false" "no-signed-zeros-fp-math"="false" "no-trapping-math"="false" "null-pointer-is-valid"="true" "stack-protector-buffer-size"="4" "target-cpu"="x86-64" "target-features"="+cx8,+fxsr,+mmx,+sse,+sse2,+sse3,+x87" "unsafe-fp-math"="false" "use-soft-float"="false" }
attributes #7 = { nounwind }
attributes #8 = { builtin nounwind }

!llvm.module.flags = !{!0, !1}

!0 = !{i32 1, !"wchar_size", i32 4}
!1 = !{i32 7, !"PIC Level", i32 2}
