; ModuleID = '../../components/download/public/common/download_schedule.cc'
source_filename = "../../components/download/public/common/download_schedule.cc"
target datalayout = "e-m:e-i64:64-f80:128-n8:16:32:64-S128"
target triple = "x86_64-unknown-linux-gnu"

module asm ".symver exp, exp@GLIBC_2.2.5"
module asm ".symver exp2, exp2@GLIBC_2.2.5"
module asm ".symver exp2f, exp2f@GLIBC_2.2.5"
module asm ".symver expf, expf@GLIBC_2.2.5"
module asm ".symver lgamma, lgamma@GLIBC_2.2.5"
module asm ".symver lgammaf, lgammaf@GLIBC_2.2.5"
module asm ".symver lgammal, lgammal@GLIBC_2.2.5"
module asm ".symver log, log@GLIBC_2.2.5"
module asm ".symver log2, log2@GLIBC_2.2.5"
module asm ".symver log2f, log2f@GLIBC_2.2.5"
module asm ".symver logf, logf@GLIBC_2.2.5"
module asm ".symver pow, pow@GLIBC_2.2.5"
module asm ".symver powf, powf@GLIBC_2.2.5"

%"class.download::DownloadSchedule" = type { i8, %"class.absl::optional" }
%"class.absl::optional" = type { %"class.absl::optional_internal::optional_data" }
%"class.absl::optional_internal::optional_data" = type { %"class.absl::optional_internal::optional_data_base" }
%"class.absl::optional_internal::optional_data_base" = type { %"class.absl::optional_internal::optional_data_dtor_base" }
%"class.absl::optional_internal::optional_data_dtor_base" = type { i8, %union.anon }
%union.anon = type { %"class.base::Time" }
%"class.base::Time" = type { %"class.base::time_internal::TimeBase" }
%"class.base::time_internal::TimeBase" = type { i64 }

@_ZN8download16DownloadScheduleC1EbN4absl8optionalIN4base4TimeEEE = hidden unnamed_addr alias void (%"class.download::DownloadSchedule"*, i1, i8, i64), void (%"class.download::DownloadSchedule"*, i1, i8, i64)* @_ZN8download16DownloadScheduleC2EbN4absl8optionalIN4base4TimeEEE
@_ZN8download16DownloadScheduleC1ERKS0_ = hidden unnamed_addr alias void (%"class.download::DownloadSchedule"*, %"class.download::DownloadSchedule"*), void (%"class.download::DownloadSchedule"*, %"class.download::DownloadSchedule"*)* @_ZN8download16DownloadScheduleC2ERKS0_
@_ZN8download16DownloadScheduleD1Ev = hidden unnamed_addr alias void (%"class.download::DownloadSchedule"*), void (%"class.download::DownloadSchedule"*)* @_ZN8download16DownloadScheduleD2Ev

; Function Attrs: nounwind ssp uwtable
define hidden void @_ZN8download16DownloadScheduleC2EbN4absl8optionalIN4base4TimeEEE(%"class.download::DownloadSchedule"* nocapture, i1 zeroext, i8, i64) unnamed_addr #0 align 2 {
  %5 = zext i1 %1 to i8
  %6 = getelementptr inbounds %"class.download::DownloadSchedule", %"class.download::DownloadSchedule"* %0, i64 0, i32 0
  store i8 %5, i8* %6, align 8
  %7 = getelementptr inbounds %"class.download::DownloadSchedule", %"class.download::DownloadSchedule"* %0, i64 0, i32 1, i32 0, i32 0, i32 0, i32 0
  store i8 %2, i8* %7, align 8
  %8 = getelementptr inbounds %"class.download::DownloadSchedule", %"class.download::DownloadSchedule"* %0, i64 0, i32 1, i32 0, i32 0, i32 0, i32 1, i32 0, i32 0, i32 0
  store i64 %3, i64* %8, align 8
  ret void
}

; Function Attrs: argmemonly nounwind
declare void @llvm.memcpy.p0i8.p0i8.i64(i8* nocapture writeonly, i8* nocapture readonly, i64, i1 immarg) #1

; Function Attrs: nounwind ssp uwtable
define hidden void @_ZN8download16DownloadScheduleC2ERKS0_(%"class.download::DownloadSchedule"* nocapture, %"class.download::DownloadSchedule"* nocapture readonly dereferenceable(24)) unnamed_addr #0 align 2 {
  %3 = getelementptr inbounds %"class.download::DownloadSchedule", %"class.download::DownloadSchedule"* %0, i64 0, i32 0
  %4 = getelementptr inbounds %"class.download::DownloadSchedule", %"class.download::DownloadSchedule"* %1, i64 0, i32 0
  tail call void @llvm.memcpy.p0i8.p0i8.i64(i8* align 8 %3, i8* align 8 %4, i64 24, i1 false)
  ret void
}

; Function Attrs: norecurse nounwind readnone ssp uwtable
define hidden void @_ZN8download16DownloadScheduleD2Ev(%"class.download::DownloadSchedule"* nocapture) unnamed_addr #2 align 2 {
  ret void
}

; Function Attrs: nounwind ssp uwtable
define hidden zeroext i1 @_ZNK8download16DownloadScheduleeqERKS0_(%"class.download::DownloadSchedule"* nocapture readonly, %"class.download::DownloadSchedule"* nocapture readonly dereferenceable(24)) local_unnamed_addr #0 align 2 {
  %3 = getelementptr inbounds %"class.download::DownloadSchedule", %"class.download::DownloadSchedule"* %0, i64 0, i32 0
  %4 = load i8, i8* %3, align 8, !range !2
  %5 = getelementptr inbounds %"class.download::DownloadSchedule", %"class.download::DownloadSchedule"* %1, i64 0, i32 0
  %6 = load i8, i8* %5, align 8, !range !2
  %7 = icmp eq i8 %4, %6
  br i1 %7, label %8, label %28

8:                                                ; preds = %2
  %9 = getelementptr inbounds %"class.download::DownloadSchedule", %"class.download::DownloadSchedule"* %0, i64 0, i32 1, i32 0, i32 0, i32 0, i32 0
  %10 = load i8, i8* %9, align 8, !range !2
  %11 = icmp ne i8 %10, 0
  %12 = getelementptr inbounds %"class.download::DownloadSchedule", %"class.download::DownloadSchedule"* %1, i64 0, i32 1, i32 0, i32 0, i32 0, i32 0
  %13 = load i8, i8* %12, align 8, !range !2
  %14 = icmp ne i8 %13, 0
  %15 = xor i1 %11, %14
  %16 = xor i1 %11, true
  %17 = or i1 %15, %16
  %18 = xor i1 %15, true
  br i1 %17, label %28, label %19

19:                                               ; preds = %8
  %20 = icmp eq i8 %13, 0
  br i1 %20, label %21, label %22, !prof !3

21:                                               ; preds = %19
  tail call void @llvm.trap() #4
  unreachable

22:                                               ; preds = %19
  %23 = getelementptr inbounds %"class.download::DownloadSchedule", %"class.download::DownloadSchedule"* %1, i64 0, i32 1, i32 0, i32 0, i32 0, i32 1, i32 0, i32 0, i32 0
  %24 = load i64, i64* %23, align 8
  %25 = getelementptr inbounds %"class.download::DownloadSchedule", %"class.download::DownloadSchedule"* %0, i64 0, i32 1, i32 0, i32 0, i32 0, i32 1, i32 0, i32 0, i32 0
  %26 = load i64, i64* %25, align 8
  %27 = icmp eq i64 %26, %24
  br label %28

28:                                               ; preds = %22, %8, %2
  %29 = phi i1 [ false, %2 ], [ %18, %8 ], [ %27, %22 ]
  ret i1 %29
}

; Function Attrs: cold noreturn nounwind
declare void @llvm.trap() #3

attributes #0 = { nounwind ssp uwtable "correctly-rounded-divide-sqrt-fp-math"="false" "disable-tail-calls"="false" "less-precise-fpmad"="false" "min-legal-vector-width"="0" "no-frame-pointer-elim"="false" "no-frame-pointer-elim-non-leaf" "no-infs-fp-math"="false" "no-jump-tables"="false" "no-nans-fp-math"="false" "no-signed-zeros-fp-math"="false" "no-trapping-math"="false" "null-pointer-is-valid"="true" "stack-protector-buffer-size"="4" "target-cpu"="x86-64" "target-features"="+cx8,+fxsr,+mmx,+sse,+sse2,+sse3,+x87" "unsafe-fp-math"="false" "use-soft-float"="false" }
attributes #1 = { argmemonly nounwind }
attributes #2 = { norecurse nounwind readnone ssp uwtable "correctly-rounded-divide-sqrt-fp-math"="false" "disable-tail-calls"="false" "less-precise-fpmad"="false" "min-legal-vector-width"="0" "no-frame-pointer-elim"="false" "no-frame-pointer-elim-non-leaf" "no-infs-fp-math"="false" "no-jump-tables"="false" "no-nans-fp-math"="false" "no-signed-zeros-fp-math"="false" "no-trapping-math"="false" "null-pointer-is-valid"="true" "stack-protector-buffer-size"="4" "target-cpu"="x86-64" "target-features"="+cx8,+fxsr,+mmx,+sse,+sse2,+sse3,+x87" "unsafe-fp-math"="false" "use-soft-float"="false" }
attributes #3 = { cold noreturn nounwind }
attributes #4 = { nounwind }

!llvm.module.flags = !{!0, !1}

!0 = !{i32 1, !"wchar_size", i32 4}
!1 = !{i32 7, !"PIC Level", i32 2}
!2 = !{i8 0, i8 2}
!3 = !{!"branch_weights", i32 1, i32 2000}
