; ModuleID = 'gen/chrome/browser/ui/webui/downloads/downloads.mojom.cc'
source_filename = "gen/chrome/browser/ui/webui/downloads/downloads.mojom.cc"
target datalayout = "e-m:e-i64:64-f80:128-n8:16:32:64-S128"
target triple = "x86_64-unknown-linux-gnu"

module asm ".symver exp, exp@GLIBC_2.2.5"
module asm ".symver exp2, exp2@GLIBC_2.2.5"
module asm ".symver exp2f, exp2f@GLIBC_2.2.5"
module asm ".symver expf, expf@GLIBC_2.2.5"
module asm ".symver lgamma, lgamma@GLIBC_2.2.5"
module asm ".symver lgammaf, lgammaf@GLIBC_2.2.5"
module asm ".symver lgammal, lgammal@GLIBC_2.2.5"
module asm ".symver log, log@GLIBC_2.2.5"
module asm ".symver log2, log2@GLIBC_2.2.5"
module asm ".symver log2f, log2f@GLIBC_2.2.5"
module asm ".symver logf, logf@GLIBC_2.2.5"
module asm ".symver pow, pow@GLIBC_2.2.5"
module asm ".symver powf, powf@GLIBC_2.2.5"

%"struct.std::__1::pair" = type { i32, %"struct.mojo::internal::GenericValidationInfo" }
%"struct.mojo::internal::GenericValidationInfo" = type { i1 (i8*, %"class.mojo::internal::ValidationContext"*)*, i1 (i8*, %"class.mojo::internal::ValidationContext"*)* }
%"class.mojo::internal::ValidationContext" = type <{ %"class.mojo::Message"*, i8*, i32, [4 x i8], i64, i64, i32, i32, i32, i32, i32, [4 x i8] }>
%"class.mojo::Message" = type { %"class.mojo::ScopedHandleBase", %"class.mojo::internal::Buffer", %"class.std::__1::vector", %"class.std::__1::vector.12", %"class.mojo::ConnectionGroup::Ref"*, i8, i8, i8* }
%"class.mojo::ScopedHandleBase" = type { %"class.mojo::MessageHandle" }
%"class.mojo::MessageHandle" = type { i64 }
%"class.mojo::internal::Buffer" = type { %"class.mojo::MessageHandle", i64, i8*, i64, i64 }
%"class.std::__1::vector" = type { %"class.std::__1::__vector_base" }
%"class.std::__1::__vector_base" = type { %"class.mojo::ScopedHandleBase.6"*, %"class.mojo::ScopedHandleBase.6"*, %"class.std::__1::__compressed_pair.7" }
%"class.mojo::ScopedHandleBase.6" = type { %"class.mojo::Handle" }
%"class.mojo::Handle" = type { i32 }
%"class.std::__1::__compressed_pair.7" = type { %"struct.std::__1::__compressed_pair_elem.8" }
%"struct.std::__1::__compressed_pair_elem.8" = type { %"class.mojo::ScopedHandleBase.6"* }
%"class.std::__1::vector.12" = type { %"class.std::__1::__vector_base.13" }
%"class.std::__1::__vector_base.13" = type { %"class.mojo::ScopedInterfaceEndpointHandle"*, %"class.mojo::ScopedInterfaceEndpointHandle"*, %"class.std::__1::__compressed_pair.14" }
%"class.mojo::ScopedInterfaceEndpointHandle" = type { %class.scoped_refptr }
%class.scoped_refptr = type { %"class.mojo::ScopedInterfaceEndpointHandle::State"* }
%"class.mojo::ScopedInterfaceEndpointHandle::State" = type opaque
%"class.std::__1::__compressed_pair.14" = type { %"struct.std::__1::__compressed_pair_elem.15" }
%"struct.std::__1::__compressed_pair_elem.15" = type { %"class.mojo::ScopedInterfaceEndpointHandle"* }
%"class.mojo::ConnectionGroup::Ref" = type { i32, %class.scoped_refptr.19 }
%class.scoped_refptr.19 = type { %"class.mojo::ConnectionGroup"* }
%"class.mojo::ConnectionGroup" = type <{ i32 (...)**, %"class.base::RefCountedThreadSafe", [4 x i8], %"class.base::RepeatingCallback", %class.scoped_refptr.23, %"class.mojo::ConnectionGroup::Ref", %"struct.std::__1::atomic.25", [4 x i8] }>
%"class.base::RefCountedThreadSafe" = type { %"class.base::subtle::RefCountedThreadSafeBase" }
%"class.base::subtle::RefCountedThreadSafeBase" = type { %"class.base::AtomicRefCount" }
%"class.base::AtomicRefCount" = type { %"struct.std::__1::atomic" }
%"struct.std::__1::atomic" = type { %"struct.std::__1::__atomic_base" }
%"struct.std::__1::__atomic_base" = type { %"struct.std::__1::__atomic_base.20" }
%"struct.std::__1::__atomic_base.20" = type { %"struct.std::__1::__cxx_atomic_impl" }
%"struct.std::__1::__cxx_atomic_impl" = type { %"struct.std::__1::__cxx_atomic_base_impl" }
%"struct.std::__1::__cxx_atomic_base_impl" = type { i32 }
%"class.base::RepeatingCallback" = type { %"class.base::internal::CallbackBaseCopyable" }
%"class.base::internal::CallbackBaseCopyable" = type { %"class.base::internal::CallbackBase" }
%"class.base::internal::CallbackBase" = type { %class.scoped_refptr.21 }
%class.scoped_refptr.21 = type { %"class.base::internal::BindStateBase"* }
%"class.base::internal::BindStateBase" = type { %"class.base::RefCountedThreadSafe.22", void ()*, void (%"class.base::internal::BindStateBase"*)*, i1 (%"class.base::internal::BindStateBase"*, i32)* }
%"class.base::RefCountedThreadSafe.22" = type { %"class.base::subtle::RefCountedThreadSafeBase" }
%class.scoped_refptr.23 = type { %"class.base::SequencedTaskRunner"* }
%"class.base::SequencedTaskRunner" = type { %"class.base::TaskRunner.base", [4 x i8] }
%"class.base::TaskRunner.base" = type <{ i32 (...)**, %"class.base::RefCountedThreadSafe.24" }>
%"class.base::RefCountedThreadSafe.24" = type { %"class.base::subtle::RefCountedThreadSafeBase" }
%"struct.std::__1::atomic.25" = type { %"struct.std::__1::__atomic_base.26" }
%"struct.std::__1::__atomic_base.26" = type { %"struct.std::__1::__atomic_base.27" }
%"struct.std::__1::__atomic_base.27" = type { %"struct.std::__1::__cxx_atomic_impl.28" }
%"struct.std::__1::__cxx_atomic_impl.28" = type { %"struct.std::__1::__cxx_atomic_base_impl.29" }
%"struct.std::__1::__cxx_atomic_base_impl.29" = type { i32 }
%"class.downloads::mojom::Data" = type { i8, i8, i8, i8, i8, i8, i32, i32, i32, %"class.std::__1::basic_string", %"class.std::__1::basic_string", %"class.std::__1::basic_string", %"class.std::__1::basic_string", %"class.std::__1::basic_string", %"class.std::__1::basic_string", %"class.std::__1::basic_string", %"class.std::__1::basic_string", %"class.std::__1::basic_string", %"class.std::__1::basic_string", %"class.std::__1::basic_string", %"class.std::__1::basic_string", %"class.std::__1::basic_string" }
%"class.std::__1::basic_string" = type { %"class.std::__1::__compressed_pair" }
%"class.std::__1::__compressed_pair" = type { %"struct.std::__1::__compressed_pair_elem" }
%"struct.std::__1::__compressed_pair_elem" = type { %"struct.std::__1::basic_string<char, std::__1::char_traits<char>, std::__1::allocator<char> >::__rep" }
%"struct.std::__1::basic_string<char, std::__1::char_traits<char>, std::__1::allocator<char> >::__rep" = type { %union.anon }
%union.anon = type { %"struct.std::__1::basic_string<char, std::__1::char_traits<char>, std::__1::allocator<char> >::__long" }
%"struct.std::__1::basic_string<char, std::__1::char_traits<char>, std::__1::allocator<char> >::__long" = type { i8*, i64, i64 }
%"class.downloads::mojom::PageHandlerFactoryProxy" = type { %"class.downloads::mojom::PageHandlerFactory", %"class.mojo::MessageReceiverWithResponder"* }
%"class.downloads::mojom::PageHandlerFactory" = type { i32 (...)** }
%"class.mojo::MessageReceiverWithResponder" = type { %"class.mojo::MessageReceiver" }
%"class.mojo::MessageReceiver" = type { i32 (...)** }
%"class.downloads::mojom::PageHandlerProxy" = type { %"class.downloads::mojom::PageHandler", %"class.mojo::MessageReceiverWithResponder"* }
%"class.downloads::mojom::PageHandler" = type { i32 (...)** }
%"class.downloads::mojom::PageProxy" = type { %"class.downloads::mojom::Page", %"class.mojo::MessageReceiverWithResponder"* }
%"class.downloads::mojom::Page" = type { i32 (...)** }
%"struct.std::__1::basic_string<char, std::__1::char_traits<char>, std::__1::allocator<char> >::__short" = type { [23 x i8], %struct.anon }
%struct.anon = type { i8 }
%"struct.std::__1::__murmur2_or_cityhash" = type { i8 }
%"class.perfetto::TracedValue" = type <{ %"class.perfetto::protos::pbzero::DebugAnnotation"*, %"class.perfetto::internal::CheckedScope", [7 x i8] }>
%"class.perfetto::protos::pbzero::DebugAnnotation" = type { %"class.protozero::Message.base", [7 x i8] }
%"class.protozero::Message.base" = type <{ %"class.protozero::ScatteredStreamWriter"*, %"class.protozero::MessageArena"*, %"class.protozero::Message"*, i8*, i32, i32, i8 }>
%"class.protozero::ScatteredStreamWriter" = type { %"class.protozero::ScatteredStreamWriter::Delegate"*, %"struct.protozero::ContiguousMemoryRange", i8*, i64 }
%"class.protozero::ScatteredStreamWriter::Delegate" = type { i32 (...)** }
%"struct.protozero::ContiguousMemoryRange" = type { i8*, i8* }
%"class.protozero::MessageArena" = type { %"class.std::__1::list" }
%"class.std::__1::list" = type { %"class.std::__1::__list_imp" }
%"class.std::__1::__list_imp" = type { %"struct.std::__1::__list_node_base", %"class.std::__1::__compressed_pair.1" }
%"struct.std::__1::__list_node_base" = type { %"struct.std::__1::__list_node_base"*, %"struct.std::__1::__list_node_base"* }
%"class.std::__1::__compressed_pair.1" = type { %"struct.std::__1::__compressed_pair_elem.2" }
%"struct.std::__1::__compressed_pair_elem.2" = type { i64 }
%"class.protozero::Message" = type <{ %"class.protozero::ScatteredStreamWriter"*, %"class.protozero::MessageArena"*, %"class.protozero::Message"*, i8*, i32, i32, i8, [7 x i8] }>
%"class.perfetto::internal::CheckedScope" = type { i8 }
%"class.perfetto::TracedDictionary" = type <{ %"class.protozero::Message"*, i32, %"class.perfetto::internal::CheckedScope", [3 x i8] }>
%"class.mojo::PendingRemote" = type { %"struct.mojo::internal::PendingRemoteState" }
%"struct.mojo::internal::PendingRemoteState" = type { %"class.mojo::ScopedHandleBase.30", i32 }
%"class.mojo::ScopedHandleBase.30" = type { %"class.mojo::MessagePipeHandle" }
%"class.mojo::MessagePipeHandle" = type { %"class.mojo::Handle" }
%"class.mojo::PendingReceiver" = type { %"struct.mojo::internal::PendingReceiverState" }
%"struct.mojo::internal::PendingReceiverState" = type { %"class.mojo::ScopedHandleBase.30", %"class.mojo::ConnectionGroup::Ref" }
%"class.downloads::mojom::internal::PageHandlerFactory_CreatePageHandler_Params_Data" = type { %"struct.mojo::internal::StructHeader", %"struct.mojo::internal::Interface_Data", %"struct.mojo::internal::Handle_Data", [4 x i8] }
%"struct.mojo::internal::StructHeader" = type { i32, i32 }
%"struct.mojo::internal::Interface_Data" = type { %"struct.mojo::internal::Handle_Data", i32 }
%"struct.mojo::internal::Handle_Data" = type { i32 }
%"class.base::TaskAnnotator::ScopedSetIpcHash" = type { %"class.base::TaskAnnotator::ScopedSetIpcHash"*, i32, i8* }
%"class.downloads::mojom::PageHandlerFactory_CreatePageHandler_ParamsDataView" = type { %"class.downloads::mojom::internal::PageHandlerFactory_CreatePageHandler_Params_Data"*, %"class.mojo::Message"* }
%"struct.mojo::internal::MessageHeader" = type { %"struct.mojo::internal::StructHeader", i32, i32, i32, i32 }
%"class.mojo::MessageReceiverWithStatus" = type { %"class.mojo::MessageReceiver" }
%"class.downloads::mojom::PageHandlerFactoryRequestValidator" = type { %"class.mojo::MessageReceiver" }
%"class.std::__1::vector.34" = type { %"class.std::__1::__vector_base.35" }
%"class.std::__1::__vector_base.35" = type { %"class.std::__1::basic_string"*, %"class.std::__1::basic_string"*, %"class.std::__1::__compressed_pair.36" }
%"class.std::__1::__compressed_pair.36" = type { %"struct.std::__1::__compressed_pair_elem.37" }
%"struct.std::__1::__compressed_pair_elem.37" = type { %"class.std::__1::basic_string"* }
%"class.mojo::internal::MessageFragment.44" = type { %"class.mojo::Message"*, i64 }
%"class.mojo::internal::ContainerValidateParams" = type { i32, i8, %"class.mojo::internal::ContainerValidateParams"*, %"class.mojo::internal::ContainerValidateParams"*, i1 (i32, %"class.mojo::internal::ValidationContext"*)* }
%"class.downloads::mojom::internal::PageHandler_GetDownloads_Params_Data" = type { %"struct.mojo::internal::StructHeader", %"struct.mojo::internal::Pointer" }
%"struct.mojo::internal::Pointer" = type { i64 }
%"class.mojo::internal::Array_Data" = type { %"struct.mojo::internal::ArrayHeader" }
%"struct.mojo::internal::ArrayHeader" = type { i32, i32 }
%"class.mojo::internal::Array_Data.46" = type { %"struct.mojo::internal::ArrayHeader" }
%"class.downloads::mojom::internal::PageHandler_OpenFileRequiringGesture_Params_Data" = type { %"struct.mojo::internal::StructHeader", %"struct.mojo::internal::Pointer.45" }
%"struct.mojo::internal::Pointer.45" = type { i64 }
%"class.downloads::mojom::internal::PageHandler_Drag_Params_Data" = type { %"struct.mojo::internal::StructHeader", %"struct.mojo::internal::Pointer.45" }
%"class.downloads::mojom::internal::PageHandler_SaveDangerousRequiringGesture_Params_Data" = type { %"struct.mojo::internal::StructHeader", %"struct.mojo::internal::Pointer.45" }
%"class.downloads::mojom::internal::PageHandler_DiscardDangerous_Params_Data" = type { %"struct.mojo::internal::StructHeader", %"struct.mojo::internal::Pointer.45" }
%"class.downloads::mojom::internal::PageHandler_RetryDownload_Params_Data" = type { %"struct.mojo::internal::StructHeader", %"struct.mojo::internal::Pointer.45" }
%"class.downloads::mojom::internal::PageHandler_Show_Params_Data" = type { %"struct.mojo::internal::StructHeader", %"struct.mojo::internal::Pointer.45" }
%"class.downloads::mojom::internal::PageHandler_Pause_Params_Data" = type { %"struct.mojo::internal::StructHeader", %"struct.mojo::internal::Pointer.45" }
%"class.downloads::mojom::internal::PageHandler_Resume_Params_Data" = type { %"struct.mojo::internal::StructHeader", %"struct.mojo::internal::Pointer.45" }
%"class.downloads::mojom::internal::PageHandler_Remove_Params_Data" = type { %"struct.mojo::internal::StructHeader", %"struct.mojo::internal::Pointer.45" }
%"class.downloads::mojom::internal::PageHandler_Undo_Params_Data" = type { %"struct.mojo::internal::StructHeader" }
%"class.downloads::mojom::internal::PageHandler_Cancel_Params_Data" = type { %"struct.mojo::internal::StructHeader", %"struct.mojo::internal::Pointer.45" }
%"class.downloads::mojom::internal::PageHandler_ClearAll_Params_Data" = type { %"struct.mojo::internal::StructHeader" }
%"class.downloads::mojom::internal::PageHandler_OpenDownloadsFolderRequiringGesture_Params_Data" = type { %"struct.mojo::internal::StructHeader" }
%"class.downloads::mojom::internal::PageHandler_OpenDuringScanningRequiringGesture_Params_Data" = type { %"struct.mojo::internal::StructHeader", %"struct.mojo::internal::Pointer.45" }
%"class.downloads::mojom::PageHandlerRequestValidator" = type { %"class.mojo::MessageReceiver" }
%"class.downloads::mojom::internal::Page_RemoveItem_Params_Data" = type { %"struct.mojo::internal::StructHeader", i32, [4 x i8] }
%"class.mojo::StructPtr" = type { %"class.std::__1::unique_ptr.61" }
%"class.std::__1::unique_ptr.61" = type { %"class.std::__1::__compressed_pair.62" }
%"class.std::__1::__compressed_pair.62" = type { %"struct.std::__1::__compressed_pair_elem.63" }
%"struct.std::__1::__compressed_pair_elem.63" = type { %"class.downloads::mojom::Data"* }
%"class.mojo::internal::MessageFragment.69" = type { %"class.mojo::Message"*, i64 }
%"class.downloads::mojom::internal::Page_UpdateItem_Params_Data" = type { %"struct.mojo::internal::StructHeader", i32, [4 x i8], %"struct.mojo::internal::Pointer.68" }
%"struct.mojo::internal::Pointer.68" = type { i64 }
%"class.downloads::mojom::internal::Data_Data" = type { %"struct.mojo::internal::StructHeader", i8, [3 x i8], i32, i32, i32, %"struct.mojo::internal::Pointer.45", %"struct.mojo::internal::Pointer.45", %"struct.mojo::internal::Pointer.45", %"struct.mojo::internal::Pointer.45", %"struct.mojo::internal::Pointer.45", %"struct.mojo::internal::Pointer.45", %"struct.mojo::internal::Pointer.45", %"struct.mojo::internal::Pointer.45", %"struct.mojo::internal::Pointer.45", %"struct.mojo::internal::Pointer.45", %"struct.mojo::internal::Pointer.45", %"struct.mojo::internal::Pointer.45", %"struct.mojo::internal::Pointer.45" }
%"class.std::__1::vector.70" = type { %"class.std::__1::__vector_base.71" }
%"class.std::__1::__vector_base.71" = type { %"class.mojo::StructPtr"*, %"class.mojo::StructPtr"*, %"class.std::__1::__compressed_pair.72" }
%"class.std::__1::__compressed_pair.72" = type { %"struct.std::__1::__compressed_pair_elem.73" }
%"struct.std::__1::__compressed_pair_elem.73" = type { %"class.mojo::StructPtr"* }
%"class.downloads::mojom::internal::Page_InsertItems_Params_Data" = type { %"struct.mojo::internal::StructHeader", i32, [4 x i8], %"struct.mojo::internal::Pointer.78" }
%"struct.mojo::internal::Pointer.78" = type { i64 }
%"class.mojo::internal::Array_Data.80" = type { %"struct.mojo::internal::ArrayHeader" }
%"class.downloads::mojom::internal::Page_ClearAll_Params_Data" = type { %"struct.mojo::internal::StructHeader" }
%"class.downloads::mojom::PageRequestValidator" = type { %"class.mojo::MessageReceiver" }

$_ZN9downloads5mojom51PageHandlerFactory_CreatePageHandler_ParamsDataView8TakePageIN4mojo13PendingRemoteINS0_4PageEEEEET_v = comdat any

$_ZN4mojo8internal23ContainerValidateParamsD2Ev = comdat any

$_ZN9downloads5mojom18PageHandlerFactoryD2Ev = comdat any

$_ZN9downloads5mojom23PageHandlerFactoryProxyD0Ev = comdat any

$_ZN9downloads5mojom34PageHandlerFactoryRequestValidatorD0Ev = comdat any

$_ZN9downloads5mojom16PageHandlerProxyD0Ev = comdat any

$_ZN4mojo15MessageReceiverD2Ev = comdat any

$_ZN9downloads5mojom27PageHandlerRequestValidatorD0Ev = comdat any

$_ZN9downloads5mojom9PageProxyD0Ev = comdat any

$_ZN9downloads5mojom20PageRequestValidatorD0Ev = comdat any

$_ZN9downloads5mojom11PageHandlerD2Ev = comdat any

$_ZN9downloads5mojom4PageD2Ev = comdat any

$_ZNSt3__121__murmur2_or_cityhashImLm64EEclEPKvm = comdat any

$_ZNSt3__121__murmur2_or_cityhashImLm64EE18__hash_len_0_to_16EPKcm = comdat any

$_ZN4mojo8internal10SerializerINS_14StringDataViewEKNSt3__112basic_stringIcNS3_11char_traitsIcEENS3_9allocatorIcEEEEE9SerializeERSA_RNS0_15MessageFragmentINS0_10Array_DataIcEEEE = comdat any

$_ZN4mojo8internal15ArraySerializerINS_13ArrayDataViewINS_14StringDataViewEEENSt3__16vectorINS5_12basic_stringIcNS5_11char_traitsIcEENS5_9allocatorIcEEEENSA_ISC_EEEENS0_13ArrayIteratorINS_11ArrayTraitsISE_EESE_Lb0EEEvE19DeserializeElementsEPNS0_10Array_DataINS0_7PointerINSK_IcEEEEEEPSE_PNS_7MessageE = comdat any

$_ZN4mojo8internal10SerializerIN9downloads5mojom12DataDataViewENS_9StructPtrINS3_4DataEEEE9SerializeERS7_RNS0_15MessageFragmentINS3_8internal9Data_DataEEE = comdat any

@.str = private unnamed_addr constant [24 x i8] c"file_externally_removed\00", align 1
@.str.2 = private unnamed_addr constant [13 x i8] c"is_dangerous\00", align 1
@.str.3 = private unnamed_addr constant [17 x i8] c"is_mixed_content\00", align 1
@.str.4 = private unnamed_addr constant [4 x i8] c"otr\00", align 1
@.str.5 = private unnamed_addr constant [7 x i8] c"resume\00", align 1
@.str.6 = private unnamed_addr constant [6 x i8] c"retry\00", align 1
@.str.7 = private unnamed_addr constant [8 x i8] c"percent\00", align 1
@.str.8 = private unnamed_addr constant [8 x i8] c"started\00", align 1
@.str.9 = private unnamed_addr constant [6 x i8] c"total\00", align 1
@.str.10 = private unnamed_addr constant [10 x i8] c"by_ext_id\00", align 1
@.str.11 = private unnamed_addr constant [12 x i8] c"by_ext_name\00", align 1
@.str.12 = private unnamed_addr constant [12 x i8] c"danger_type\00", align 1
@.str.13 = private unnamed_addr constant [12 x i8] c"date_string\00", align 1
@.str.14 = private unnamed_addr constant [10 x i8] c"file_name\00", align 1
@.str.15 = private unnamed_addr constant [10 x i8] c"file_path\00", align 1
@.str.16 = private unnamed_addr constant [9 x i8] c"file_url\00", align 1
@.str.17 = private unnamed_addr constant [3 x i8] c"id\00", align 1
@.str.18 = private unnamed_addr constant [17 x i8] c"last_reason_text\00", align 1
@.str.19 = private unnamed_addr constant [21 x i8] c"progress_status_text\00", align 1
@.str.20 = private unnamed_addr constant [13 x i8] c"since_string\00", align 1
@.str.21 = private unnamed_addr constant [6 x i8] c"state\00", align 1
@.str.22 = private unnamed_addr constant [4 x i8] c"url\00", align 1
@_ZN9downloads5mojom18PageHandlerFactory5Name_E = hidden constant [35 x i8] c"downloads.mojom.PageHandlerFactory\00", align 16
@_ZTVN9downloads5mojom23PageHandlerFactoryProxyE = hidden unnamed_addr constant { [5 x i8*] } { [5 x i8*] [i8* null, i8* null, i8* bitcast (void (%"class.downloads::mojom::PageHandlerFactory"*)* @_ZN9downloads5mojom18PageHandlerFactoryD2Ev to i8*), i8* bitcast (void (%"class.downloads::mojom::PageHandlerFactoryProxy"*)* @_ZN9downloads5mojom23PageHandlerFactoryProxyD0Ev to i8*), i8* bitcast (void (%"class.downloads::mojom::PageHandlerFactoryProxy"*, %"class.mojo::PendingRemote"*, %"class.mojo::PendingReceiver"*)* @_ZN9downloads5mojom23PageHandlerFactoryProxy17CreatePageHandlerEN4mojo13PendingRemoteINS0_4PageEEENS2_15PendingReceiverINS0_11PageHandlerEEE to i8*)] }, align 8
@_ZN9downloads5mojomL33kPageHandlerFactoryValidationInfoE = internal constant [1 x %"struct.std::__1::pair"] [%"struct.std::__1::pair" { i32 451374288, %"struct.mojo::internal::GenericValidationInfo" { i1 (i8*, %"class.mojo::internal::ValidationContext"*)* @_ZN9downloads5mojom8internal48PageHandlerFactory_CreatePageHandler_Params_Data8ValidateEPKvPN4mojo8internal17ValidationContextE, i1 (i8*, %"class.mojo::internal::ValidationContext"*)* null } }], align 16
@_ZN9downloads5mojom11PageHandler5Name_E = hidden constant [28 x i8] c"downloads.mojom.PageHandler\00", align 16
@_ZTVN9downloads5mojom16PageHandlerProxyE = hidden unnamed_addr constant { [19 x i8*] } { [19 x i8*] [i8* null, i8* null, i8* bitcast (void (%"class.downloads::mojom::PageHandler"*)* @_ZN9downloads5mojom11PageHandlerD2Ev to i8*), i8* bitcast (void (%"class.downloads::mojom::PageHandlerProxy"*)* @_ZN9downloads5mojom16PageHandlerProxyD0Ev to i8*), i8* bitcast (void (%"class.downloads::mojom::PageHandlerProxy"*, %"class.std::__1::vector.34"*)* @_ZN9downloads5mojom16PageHandlerProxy12GetDownloadsERKNSt3__16vectorINS2_12basic_stringIcNS2_11char_traitsIcEENS2_9allocatorIcEEEENS7_IS9_EEEE to i8*), i8* bitcast (void (%"class.downloads::mojom::PageHandlerProxy"*, %"class.std::__1::basic_string"*)* @_ZN9downloads5mojom16PageHandlerProxy24OpenFileRequiringGestureERKNSt3__112basic_stringIcNS2_11char_traitsIcEENS2_9allocatorIcEEEE to i8*), i8* bitcast (void (%"class.downloads::mojom::PageHandlerProxy"*, %"class.std::__1::basic_string"*)* @_ZN9downloads5mojom16PageHandlerProxy4DragERKNSt3__112basic_stringIcNS2_11char_traitsIcEENS2_9allocatorIcEEEE to i8*), i8* bitcast (void (%"class.downloads::mojom::PageHandlerProxy"*, %"class.std::__1::basic_string"*)* @_ZN9downloads5mojom16PageHandlerProxy29SaveDangerousRequiringGestureERKNSt3__112basic_stringIcNS2_11char_traitsIcEENS2_9allocatorIcEEEE to i8*), i8* bitcast (void (%"class.downloads::mojom::PageHandlerProxy"*, %"class.std::__1::basic_string"*)* @_ZN9downloads5mojom16PageHandlerProxy16DiscardDangerousERKNSt3__112basic_stringIcNS2_11char_traitsIcEENS2_9allocatorIcEEEE to i8*), i8* bitcast (void (%"class.downloads::mojom::PageHandlerProxy"*, %"class.std::__1::basic_string"*)* @_ZN9downloads5mojom16PageHandlerProxy13RetryDownloadERKNSt3__112basic_stringIcNS2_11char_traitsIcEENS2_9allocatorIcEEEE to i8*), i8* bitcast (void (%"class.downloads::mojom::PageHandlerProxy"*, %"class.std::__1::basic_string"*)* @_ZN9downloads5mojom16PageHandlerProxy4ShowERKNSt3__112basic_stringIcNS2_11char_traitsIcEENS2_9allocatorIcEEEE to i8*), i8* bitcast (void (%"class.downloads::mojom::PageHandlerProxy"*, %"class.std::__1::basic_string"*)* @_ZN9downloads5mojom16PageHandlerProxy5PauseERKNSt3__112basic_stringIcNS2_11char_traitsIcEENS2_9allocatorIcEEEE to i8*), i8* bitcast (void (%"class.downloads::mojom::PageHandlerProxy"*, %"class.std::__1::basic_string"*)* @_ZN9downloads5mojom16PageHandlerProxy6ResumeERKNSt3__112basic_stringIcNS2_11char_traitsIcEENS2_9allocatorIcEEEE to i8*), i8* bitcast (void (%"class.downloads::mojom::PageHandlerProxy"*, %"class.std::__1::basic_string"*)* @_ZN9downloads5mojom16PageHandlerProxy6RemoveERKNSt3__112basic_stringIcNS2_11char_traitsIcEENS2_9allocatorIcEEEE to i8*), i8* bitcast (void (%"class.downloads::mojom::PageHandlerProxy"*)* @_ZN9downloads5mojom16PageHandlerProxy4UndoEv to i8*), i8* bitcast (void (%"class.downloads::mojom::PageHandlerProxy"*, %"class.std::__1::basic_string"*)* @_ZN9downloads5mojom16PageHandlerProxy6CancelERKNSt3__112basic_stringIcNS2_11char_traitsIcEENS2_9allocatorIcEEEE to i8*), i8* bitcast (void (%"class.downloads::mojom::PageHandlerProxy"*)* @_ZN9downloads5mojom16PageHandlerProxy8ClearAllEv to i8*), i8* bitcast (void (%"class.downloads::mojom::PageHandlerProxy"*)* @_ZN9downloads5mojom16PageHandlerProxy35OpenDownloadsFolderRequiringGestureEv to i8*), i8* bitcast (void (%"class.downloads::mojom::PageHandlerProxy"*, %"class.std::__1::basic_string"*)* @_ZN9downloads5mojom16PageHandlerProxy34OpenDuringScanningRequiringGestureERKNSt3__112basic_stringIcNS2_11char_traitsIcEENS2_9allocatorIcEEEE to i8*)] }, align 8
@_ZN9downloads5mojomL26kPageHandlerValidationInfoE = internal constant [15 x %"struct.std::__1::pair"] [%"struct.std::__1::pair" { i32 419757008, %"struct.mojo::internal::GenericValidationInfo" { i1 (i8*, %"class.mojo::internal::ValidationContext"*)* @_ZN9downloads5mojom8internal36PageHandler_GetDownloads_Params_Data8ValidateEPKvPN4mojo8internal17ValidationContextE, i1 (i8*, %"class.mojo::internal::ValidationContext"*)* null } }, %"struct.std::__1::pair" { i32 1434640820, %"struct.mojo::internal::GenericValidationInfo" { i1 (i8*, %"class.mojo::internal::ValidationContext"*)* @_ZN9downloads5mojom8internal48PageHandler_OpenFileRequiringGesture_Params_Data8ValidateEPKvPN4mojo8internal17ValidationContextE, i1 (i8*, %"class.mojo::internal::ValidationContext"*)* null } }, %"struct.std::__1::pair" { i32 720007318, %"struct.mojo::internal::GenericValidationInfo" { i1 (i8*, %"class.mojo::internal::ValidationContext"*)* @_ZN9downloads5mojom8internal28PageHandler_Drag_Params_Data8ValidateEPKvPN4mojo8internal17ValidationContextE, i1 (i8*, %"class.mojo::internal::ValidationContext"*)* null } }, %"struct.std::__1::pair" { i32 1199387098, %"struct.mojo::internal::GenericValidationInfo" { i1 (i8*, %"class.mojo::internal::ValidationContext"*)* @_ZN9downloads5mojom8internal53PageHandler_SaveDangerousRequiringGesture_Params_Data8ValidateEPKvPN4mojo8internal17ValidationContextE, i1 (i8*, %"class.mojo::internal::ValidationContext"*)* null } }, %"struct.std::__1::pair" { i32 1714121110, %"struct.mojo::internal::GenericValidationInfo" { i1 (i8*, %"class.mojo::internal::ValidationContext"*)* @_ZN9downloads5mojom8internal40PageHandler_DiscardDangerous_Params_Data8ValidateEPKvPN4mojo8internal17ValidationContextE, i1 (i8*, %"class.mojo::internal::ValidationContext"*)* null } }, %"struct.std::__1::pair" { i32 1656907928, %"struct.mojo::internal::GenericValidationInfo" { i1 (i8*, %"class.mojo::internal::ValidationContext"*)* @_ZN9downloads5mojom8internal37PageHandler_RetryDownload_Params_Data8ValidateEPKvPN4mojo8internal17ValidationContextE, i1 (i8*, %"class.mojo::internal::ValidationContext"*)* null } }, %"struct.std::__1::pair" { i32 1331854655, %"struct.mojo::internal::GenericValidationInfo" { i1 (i8*, %"class.mojo::internal::ValidationContext"*)* @_ZN9downloads5mojom8internal28PageHandler_Show_Params_Data8ValidateEPKvPN4mojo8internal17ValidationContextE, i1 (i8*, %"class.mojo::internal::ValidationContext"*)* null } }, %"struct.std::__1::pair" { i32 1215920917, %"struct.mojo::internal::GenericValidationInfo" { i1 (i8*, %"class.mojo::internal::ValidationContext"*)* @_ZN9downloads5mojom8internal29PageHandler_Pause_Params_Data8ValidateEPKvPN4mojo8internal17ValidationContextE, i1 (i8*, %"class.mojo::internal::ValidationContext"*)* null } }, %"struct.std::__1::pair" { i32 736862928, %"struct.mojo::internal::GenericValidationInfo" { i1 (i8*, %"class.mojo::internal::ValidationContext"*)* @_ZN9downloads5mojom8internal30PageHandler_Resume_Params_Data8ValidateEPKvPN4mojo8internal17ValidationContextE, i1 (i8*, %"class.mojo::internal::ValidationContext"*)* null } }, %"struct.std::__1::pair" { i32 1435478827, %"struct.mojo::internal::GenericValidationInfo" { i1 (i8*, %"class.mojo::internal::ValidationContext"*)* @_ZN9downloads5mojom8internal30PageHandler_Remove_Params_Data8ValidateEPKvPN4mojo8internal17ValidationContextE, i1 (i8*, %"class.mojo::internal::ValidationContext"*)* null } }, %"struct.std::__1::pair" { i32 236394735, %"struct.mojo::internal::GenericValidationInfo" { i1 (i8*, %"class.mojo::internal::ValidationContext"*)* @_ZN9downloads5mojom8internal28PageHandler_Undo_Params_Data8ValidateEPKvPN4mojo8internal17ValidationContextE, i1 (i8*, %"class.mojo::internal::ValidationContext"*)* null } }, %"struct.std::__1::pair" { i32 16177670, %"struct.mojo::internal::GenericValidationInfo" { i1 (i8*, %"class.mojo::internal::ValidationContext"*)* @_ZN9downloads5mojom8internal30PageHandler_Cancel_Params_Data8ValidateEPKvPN4mojo8internal17ValidationContextE, i1 (i8*, %"class.mojo::internal::ValidationContext"*)* null } }, %"struct.std::__1::pair" { i32 1170089859, %"struct.mojo::internal::GenericValidationInfo" { i1 (i8*, %"class.mojo::internal::ValidationContext"*)* @_ZN9downloads5mojom8internal32PageHandler_ClearAll_Params_Data8ValidateEPKvPN4mojo8internal17ValidationContextE, i1 (i8*, %"class.mojo::internal::ValidationContext"*)* null } }, %"struct.std::__1::pair" { i32 1508690143, %"struct.mojo::internal::GenericValidationInfo" { i1 (i8*, %"class.mojo::internal::ValidationContext"*)* @_ZN9downloads5mojom8internal59PageHandler_OpenDownloadsFolderRequiringGesture_Params_Data8ValidateEPKvPN4mojo8internal17ValidationContextE, i1 (i8*, %"class.mojo::internal::ValidationContext"*)* null } }, %"struct.std::__1::pair" { i32 1735199682, %"struct.mojo::internal::GenericValidationInfo" { i1 (i8*, %"class.mojo::internal::ValidationContext"*)* @_ZN9downloads5mojom8internal58PageHandler_OpenDuringScanningRequiringGesture_Params_Data8ValidateEPKvPN4mojo8internal17ValidationContextE, i1 (i8*, %"class.mojo::internal::ValidationContext"*)* null } }], align 16
@_ZN9downloads5mojom4Page5Name_E = hidden constant [21 x i8] c"downloads.mojom.Page\00", align 16
@_ZTVN9downloads5mojom9PageProxyE = hidden unnamed_addr constant { [8 x i8*] } { [8 x i8*] [i8* null, i8* null, i8* bitcast (void (%"class.downloads::mojom::Page"*)* @_ZN9downloads5mojom4PageD2Ev to i8*), i8* bitcast (void (%"class.downloads::mojom::PageProxy"*)* @_ZN9downloads5mojom9PageProxyD0Ev to i8*), i8* bitcast (void (%"class.downloads::mojom::PageProxy"*, i32)* @_ZN9downloads5mojom9PageProxy10RemoveItemEi to i8*), i8* bitcast (void (%"class.downloads::mojom::PageProxy"*, i32, %"class.mojo::StructPtr"*)* @_ZN9downloads5mojom9PageProxy10UpdateItemEiN4mojo9StructPtrINS0_4DataEEE to i8*), i8* bitcast (void (%"class.downloads::mojom::PageProxy"*, i32, %"class.std::__1::vector.70"*)* @_ZN9downloads5mojom9PageProxy11InsertItemsEiNSt3__16vectorIN4mojo9StructPtrINS0_4DataEEENS2_9allocatorIS7_EEEE to i8*), i8* bitcast (void (%"class.downloads::mojom::PageProxy"*)* @_ZN9downloads5mojom9PageProxy8ClearAllEv to i8*)] }, align 8
@_ZN9downloads5mojomL19kPageValidationInfoE = internal constant [4 x %"struct.std::__1::pair"] [%"struct.std::__1::pair" { i32 1724621368, %"struct.mojo::internal::GenericValidationInfo" { i1 (i8*, %"class.mojo::internal::ValidationContext"*)* @_ZN9downloads5mojom8internal27Page_RemoveItem_Params_Data8ValidateEPKvPN4mojo8internal17ValidationContextE, i1 (i8*, %"class.mojo::internal::ValidationContext"*)* null } }, %"struct.std::__1::pair" { i32 1982170471, %"struct.mojo::internal::GenericValidationInfo" { i1 (i8*, %"class.mojo::internal::ValidationContext"*)* @_ZN9downloads5mojom8internal27Page_UpdateItem_Params_Data8ValidateEPKvPN4mojo8internal17ValidationContextE, i1 (i8*, %"class.mojo::internal::ValidationContext"*)* null } }, %"struct.std::__1::pair" { i32 253007722, %"struct.mojo::internal::GenericValidationInfo" { i1 (i8*, %"class.mojo::internal::ValidationContext"*)* @_ZN9downloads5mojom8internal28Page_InsertItems_Params_Data8ValidateEPKvPN4mojo8internal17ValidationContextE, i1 (i8*, %"class.mojo::internal::ValidationContext"*)* null } }, %"struct.std::__1::pair" { i32 425451918, %"struct.mojo::internal::GenericValidationInfo" { i1 (i8*, %"class.mojo::internal::ValidationContext"*)* @_ZN9downloads5mojom8internal25Page_ClearAll_Params_Data8ValidateEPKvPN4mojo8internal17ValidationContextE, i1 (i8*, %"class.mojo::internal::ValidationContext"*)* null } }], align 16
@_ZTVN9downloads5mojom34PageHandlerFactoryRequestValidatorE = hidden unnamed_addr constant { [6 x i8*] } { [6 x i8*] [i8* null, i8* null, i8* bitcast (void (%"class.mojo::MessageReceiver"*)* @_ZN4mojo15MessageReceiverD2Ev to i8*), i8* bitcast (void (%"class.downloads::mojom::PageHandlerFactoryRequestValidator"*)* @_ZN9downloads5mojom34PageHandlerFactoryRequestValidatorD0Ev to i8*), i8* bitcast (i1 (%"class.mojo::MessageReceiver"*)* @_ZN4mojo15MessageReceiver25PrefersSerializedMessagesEv to i8*), i8* bitcast (i1 (%"class.downloads::mojom::PageHandlerFactoryRequestValidator"*, %"class.mojo::Message"*)* @_ZN9downloads5mojom34PageHandlerFactoryRequestValidator6AcceptEPN4mojo7MessageE to i8*)] }, align 8
@_ZTVN9downloads5mojom27PageHandlerRequestValidatorE = hidden unnamed_addr constant { [6 x i8*] } { [6 x i8*] [i8* null, i8* null, i8* bitcast (void (%"class.mojo::MessageReceiver"*)* @_ZN4mojo15MessageReceiverD2Ev to i8*), i8* bitcast (void (%"class.downloads::mojom::PageHandlerRequestValidator"*)* @_ZN9downloads5mojom27PageHandlerRequestValidatorD0Ev to i8*), i8* bitcast (i1 (%"class.mojo::MessageReceiver"*)* @_ZN4mojo15MessageReceiver25PrefersSerializedMessagesEv to i8*), i8* bitcast (i1 (%"class.downloads::mojom::PageHandlerRequestValidator"*, %"class.mojo::Message"*)* @_ZN9downloads5mojom27PageHandlerRequestValidator6AcceptEPN4mojo7MessageE to i8*)] }, align 8
@_ZTVN9downloads5mojom20PageRequestValidatorE = hidden unnamed_addr constant { [6 x i8*] } { [6 x i8*] [i8* null, i8* null, i8* bitcast (void (%"class.mojo::MessageReceiver"*)* @_ZN4mojo15MessageReceiverD2Ev to i8*), i8* bitcast (void (%"class.downloads::mojom::PageRequestValidator"*)* @_ZN9downloads5mojom20PageRequestValidatorD0Ev to i8*), i8* bitcast (i1 (%"class.mojo::MessageReceiver"*)* @_ZN4mojo15MessageReceiver25PrefersSerializedMessagesEv to i8*), i8* bitcast (i1 (%"class.downloads::mojom::PageRequestValidator"*, %"class.mojo::Message"*)* @_ZN9downloads5mojom20PageRequestValidator6AcceptEPN4mojo7MessageE to i8*)] }, align 8

@_ZN9downloads5mojom4DataC1Ev = hidden unnamed_addr alias void (%"class.downloads::mojom::Data"*), void (%"class.downloads::mojom::Data"*)* @_ZN9downloads5mojom4DataC2Ev
@_ZN9downloads5mojom4DataC1EbbbbbbiiiRKNSt3__112basic_stringIcNS2_11char_traitsIcEENS2_9allocatorIcEEEESA_SA_SA_SA_SA_SA_SA_SA_SA_SA_SA_SA_ = hidden unnamed_addr alias void (%"class.downloads::mojom::Data"*, i1, i1, i1, i1, i1, i1, i32, i32, i32, %"class.std::__1::basic_string"*, %"class.std::__1::basic_string"*, %"class.std::__1::basic_string"*, %"class.std::__1::basic_string"*, %"class.std::__1::basic_string"*, %"class.std::__1::basic_string"*, %"class.std::__1::basic_string"*, %"class.std::__1::basic_string"*, %"class.std::__1::basic_string"*, %"class.std::__1::basic_string"*, %"class.std::__1::basic_string"*, %"class.std::__1::basic_string"*, %"class.std::__1::basic_string"*), void (%"class.downloads::mojom::Data"*, i1, i1, i1, i1, i1, i1, i32, i32, i32, %"class.std::__1::basic_string"*, %"class.std::__1::basic_string"*, %"class.std::__1::basic_string"*, %"class.std::__1::basic_string"*, %"class.std::__1::basic_string"*, %"class.std::__1::basic_string"*, %"class.std::__1::basic_string"*, %"class.std::__1::basic_string"*, %"class.std::__1::basic_string"*, %"class.std::__1::basic_string"*, %"class.std::__1::basic_string"*, %"class.std::__1::basic_string"*, %"class.std::__1::basic_string"*)* @_ZN9downloads5mojom4DataC2EbbbbbbiiiRKNSt3__112basic_stringIcNS2_11char_traitsIcEENS2_9allocatorIcEEEESA_SA_SA_SA_SA_SA_SA_SA_SA_SA_SA_SA_
@_ZN9downloads5mojom4DataD1Ev = hidden unnamed_addr alias void (%"class.downloads::mojom::Data"*), void (%"class.downloads::mojom::Data"*)* @_ZN9downloads5mojom4DataD2Ev
@_ZN9downloads5mojom23PageHandlerFactoryProxyC1EPN4mojo28MessageReceiverWithResponderE = hidden unnamed_addr alias void (%"class.downloads::mojom::PageHandlerFactoryProxy"*, %"class.mojo::MessageReceiverWithResponder"*), void (%"class.downloads::mojom::PageHandlerFactoryProxy"*, %"class.mojo::MessageReceiverWithResponder"*)* @_ZN9downloads5mojom23PageHandlerFactoryProxyC2EPN4mojo28MessageReceiverWithResponderE
@_ZN9downloads5mojom16PageHandlerProxyC1EPN4mojo28MessageReceiverWithResponderE = hidden unnamed_addr alias void (%"class.downloads::mojom::PageHandlerProxy"*, %"class.mojo::MessageReceiverWithResponder"*), void (%"class.downloads::mojom::PageHandlerProxy"*, %"class.mojo::MessageReceiverWithResponder"*)* @_ZN9downloads5mojom16PageHandlerProxyC2EPN4mojo28MessageReceiverWithResponderE
@_ZN9downloads5mojom9PageProxyC1EPN4mojo28MessageReceiverWithResponderE = hidden unnamed_addr alias void (%"class.downloads::mojom::PageProxy"*, %"class.mojo::MessageReceiverWithResponder"*), void (%"class.downloads::mojom::PageProxy"*, %"class.mojo::MessageReceiverWithResponder"*)* @_ZN9downloads5mojom9PageProxyC2EPN4mojo28MessageReceiverWithResponderE

; Function Attrs: nounwind ssp uwtable
define hidden void @_ZN9downloads5mojom4DataC2Ev(%"class.downloads::mojom::Data"*) unnamed_addr #0 align 2 {
  %2 = getelementptr inbounds %"class.downloads::mojom::Data", %"class.downloads::mojom::Data"* %0, i64 0, i32 0
  %3 = getelementptr inbounds %"class.downloads::mojom::Data", %"class.downloads::mojom::Data"* %0, i64 0, i32 6
  store i32 0, i32* %3, align 8
  %4 = getelementptr inbounds %"class.downloads::mojom::Data", %"class.downloads::mojom::Data"* %0, i64 0, i32 7
  store i32 0, i32* %4, align 4
  %5 = getelementptr inbounds %"class.downloads::mojom::Data", %"class.downloads::mojom::Data"* %0, i64 0, i32 8
  store i32 0, i32* %5, align 8
  %6 = getelementptr inbounds %"class.downloads::mojom::Data", %"class.downloads::mojom::Data"* %0, i64 0, i32 9
  call void @llvm.memset.p0i8.i64(i8* align 8 %2, i8 0, i64 6, i1 false)
  %7 = bitcast %"class.std::__1::basic_string"* %6 to i8*
  call void @llvm.memset.p0i8.i64(i8* align 8 %7, i8 0, i64 312, i1 false)
  ret void
}

; Function Attrs: nounwind ssp uwtable
define hidden void @_ZN9downloads5mojom4DataC2EbbbbbbiiiRKNSt3__112basic_stringIcNS2_11char_traitsIcEENS2_9allocatorIcEEEESA_SA_SA_SA_SA_SA_SA_SA_SA_SA_SA_SA_(%"class.downloads::mojom::Data"*, i1 zeroext, i1 zeroext, i1 zeroext, i1 zeroext, i1 zeroext, i1 zeroext, i32, i32, i32, %"class.std::__1::basic_string"* nocapture readonly dereferenceable(24), %"class.std::__1::basic_string"* nocapture readonly dereferenceable(24), %"class.std::__1::basic_string"* nocapture readonly dereferenceable(24), %"class.std::__1::basic_string"* nocapture readonly dereferenceable(24), %"class.std::__1::basic_string"* nocapture readonly dereferenceable(24), %"class.std::__1::basic_string"* nocapture readonly dereferenceable(24), %"class.std::__1::basic_string"* nocapture readonly dereferenceable(24), %"class.std::__1::basic_string"* nocapture readonly dereferenceable(24), %"class.std::__1::basic_string"* nocapture readonly dereferenceable(24), %"class.std::__1::basic_string"* nocapture readonly dereferenceable(24), %"class.std::__1::basic_string"* nocapture readonly dereferenceable(24), %"class.std::__1::basic_string"* nocapture readonly dereferenceable(24), %"class.std::__1::basic_string"* nocapture readonly dereferenceable(24)) unnamed_addr #0 align 2 {
  %24 = zext i1 %1 to i8
  %25 = zext i1 %2 to i8
  %26 = zext i1 %3 to i8
  %27 = zext i1 %4 to i8
  %28 = zext i1 %5 to i8
  %29 = zext i1 %6 to i8
  %30 = getelementptr inbounds %"class.downloads::mojom::Data", %"class.downloads::mojom::Data"* %0, i64 0, i32 0
  store i8 %24, i8* %30, align 8
  %31 = getelementptr inbounds %"class.downloads::mojom::Data", %"class.downloads::mojom::Data"* %0, i64 0, i32 1
  store i8 %25, i8* %31, align 1
  %32 = getelementptr inbounds %"class.downloads::mojom::Data", %"class.downloads::mojom::Data"* %0, i64 0, i32 2
  store i8 %26, i8* %32, align 2
  %33 = getelementptr inbounds %"class.downloads::mojom::Data", %"class.downloads::mojom::Data"* %0, i64 0, i32 3
  store i8 %27, i8* %33, align 1
  %34 = getelementptr inbounds %"class.downloads::mojom::Data", %"class.downloads::mojom::Data"* %0, i64 0, i32 4
  store i8 %28, i8* %34, align 4
  %35 = getelementptr inbounds %"class.downloads::mojom::Data", %"class.downloads::mojom::Data"* %0, i64 0, i32 5
  store i8 %29, i8* %35, align 1
  %36 = getelementptr inbounds %"class.downloads::mojom::Data", %"class.downloads::mojom::Data"* %0, i64 0, i32 6
  store i32 %7, i32* %36, align 8
  %37 = getelementptr inbounds %"class.downloads::mojom::Data", %"class.downloads::mojom::Data"* %0, i64 0, i32 7
  store i32 %8, i32* %37, align 4
  %38 = getelementptr inbounds %"class.downloads::mojom::Data", %"class.downloads::mojom::Data"* %0, i64 0, i32 8
  store i32 %9, i32* %38, align 8
  %39 = getelementptr inbounds %"class.downloads::mojom::Data", %"class.downloads::mojom::Data"* %0, i64 0, i32 9
  %40 = bitcast %"class.std::__1::basic_string"* %10 to %"struct.std::__1::basic_string<char, std::__1::char_traits<char>, std::__1::allocator<char> >::__short"*
  %41 = getelementptr inbounds %"struct.std::__1::basic_string<char, std::__1::char_traits<char>, std::__1::allocator<char> >::__short", %"struct.std::__1::basic_string<char, std::__1::char_traits<char>, std::__1::allocator<char> >::__short"* %40, i64 0, i32 1, i32 0
  %42 = load i8, i8* %41, align 1
  %43 = icmp slt i8 %42, 0
  br i1 %43, label %47, label %44

44:                                               ; preds = %23
  %45 = bitcast %"class.std::__1::basic_string"* %39 to i8*
  %46 = bitcast %"class.std::__1::basic_string"* %10 to i8*
  tail call void @llvm.memcpy.p0i8.p0i8.i64(i8* align 8 %45, i8* align 8 %46, i64 24, i1 false) #9
  br label %52

47:                                               ; preds = %23
  %48 = getelementptr inbounds %"class.std::__1::basic_string", %"class.std::__1::basic_string"* %10, i64 0, i32 0, i32 0, i32 0, i32 0, i32 0, i32 0
  %49 = load i8*, i8** %48, align 8
  %50 = getelementptr inbounds %"class.std::__1::basic_string", %"class.std::__1::basic_string"* %10, i64 0, i32 0, i32 0, i32 0, i32 0, i32 0, i32 1
  %51 = load i64, i64* %50, align 8
  tail call void @_ZNSt3__112basic_stringIcNS_11char_traitsIcEENS_9allocatorIcEEE25__init_copy_ctor_externalEPKcm(%"class.std::__1::basic_string"* %39, i8* %49, i64 %51) #9
  br label %52

52:                                               ; preds = %44, %47
  %53 = getelementptr inbounds %"class.downloads::mojom::Data", %"class.downloads::mojom::Data"* %0, i64 0, i32 10
  %54 = bitcast %"class.std::__1::basic_string"* %11 to %"struct.std::__1::basic_string<char, std::__1::char_traits<char>, std::__1::allocator<char> >::__short"*
  %55 = getelementptr inbounds %"struct.std::__1::basic_string<char, std::__1::char_traits<char>, std::__1::allocator<char> >::__short", %"struct.std::__1::basic_string<char, std::__1::char_traits<char>, std::__1::allocator<char> >::__short"* %54, i64 0, i32 1, i32 0
  %56 = load i8, i8* %55, align 1
  %57 = icmp slt i8 %56, 0
  br i1 %57, label %61, label %58

58:                                               ; preds = %52
  %59 = bitcast %"class.std::__1::basic_string"* %53 to i8*
  %60 = bitcast %"class.std::__1::basic_string"* %11 to i8*
  tail call void @llvm.memcpy.p0i8.p0i8.i64(i8* align 8 %59, i8* align 8 %60, i64 24, i1 false) #9
  br label %66

61:                                               ; preds = %52
  %62 = getelementptr inbounds %"class.std::__1::basic_string", %"class.std::__1::basic_string"* %11, i64 0, i32 0, i32 0, i32 0, i32 0, i32 0, i32 0
  %63 = load i8*, i8** %62, align 8
  %64 = getelementptr inbounds %"class.std::__1::basic_string", %"class.std::__1::basic_string"* %11, i64 0, i32 0, i32 0, i32 0, i32 0, i32 0, i32 1
  %65 = load i64, i64* %64, align 8
  tail call void @_ZNSt3__112basic_stringIcNS_11char_traitsIcEENS_9allocatorIcEEE25__init_copy_ctor_externalEPKcm(%"class.std::__1::basic_string"* %53, i8* %63, i64 %65) #9
  br label %66

66:                                               ; preds = %58, %61
  %67 = getelementptr inbounds %"class.downloads::mojom::Data", %"class.downloads::mojom::Data"* %0, i64 0, i32 11
  %68 = bitcast %"class.std::__1::basic_string"* %12 to %"struct.std::__1::basic_string<char, std::__1::char_traits<char>, std::__1::allocator<char> >::__short"*
  %69 = getelementptr inbounds %"struct.std::__1::basic_string<char, std::__1::char_traits<char>, std::__1::allocator<char> >::__short", %"struct.std::__1::basic_string<char, std::__1::char_traits<char>, std::__1::allocator<char> >::__short"* %68, i64 0, i32 1, i32 0
  %70 = load i8, i8* %69, align 1
  %71 = icmp slt i8 %70, 0
  br i1 %71, label %75, label %72

72:                                               ; preds = %66
  %73 = bitcast %"class.std::__1::basic_string"* %67 to i8*
  %74 = bitcast %"class.std::__1::basic_string"* %12 to i8*
  tail call void @llvm.memcpy.p0i8.p0i8.i64(i8* align 8 %73, i8* align 8 %74, i64 24, i1 false) #9
  br label %80

75:                                               ; preds = %66
  %76 = getelementptr inbounds %"class.std::__1::basic_string", %"class.std::__1::basic_string"* %12, i64 0, i32 0, i32 0, i32 0, i32 0, i32 0, i32 0
  %77 = load i8*, i8** %76, align 8
  %78 = getelementptr inbounds %"class.std::__1::basic_string", %"class.std::__1::basic_string"* %12, i64 0, i32 0, i32 0, i32 0, i32 0, i32 0, i32 1
  %79 = load i64, i64* %78, align 8
  tail call void @_ZNSt3__112basic_stringIcNS_11char_traitsIcEENS_9allocatorIcEEE25__init_copy_ctor_externalEPKcm(%"class.std::__1::basic_string"* %67, i8* %77, i64 %79) #9
  br label %80

80:                                               ; preds = %72, %75
  %81 = getelementptr inbounds %"class.downloads::mojom::Data", %"class.downloads::mojom::Data"* %0, i64 0, i32 12
  %82 = bitcast %"class.std::__1::basic_string"* %13 to %"struct.std::__1::basic_string<char, std::__1::char_traits<char>, std::__1::allocator<char> >::__short"*
  %83 = getelementptr inbounds %"struct.std::__1::basic_string<char, std::__1::char_traits<char>, std::__1::allocator<char> >::__short", %"struct.std::__1::basic_string<char, std::__1::char_traits<char>, std::__1::allocator<char> >::__short"* %82, i64 0, i32 1, i32 0
  %84 = load i8, i8* %83, align 1
  %85 = icmp slt i8 %84, 0
  br i1 %85, label %89, label %86

86:                                               ; preds = %80
  %87 = bitcast %"class.std::__1::basic_string"* %81 to i8*
  %88 = bitcast %"class.std::__1::basic_string"* %13 to i8*
  tail call void @llvm.memcpy.p0i8.p0i8.i64(i8* align 8 %87, i8* align 8 %88, i64 24, i1 false) #9
  br label %94

89:                                               ; preds = %80
  %90 = getelementptr inbounds %"class.std::__1::basic_string", %"class.std::__1::basic_string"* %13, i64 0, i32 0, i32 0, i32 0, i32 0, i32 0, i32 0
  %91 = load i8*, i8** %90, align 8
  %92 = getelementptr inbounds %"class.std::__1::basic_string", %"class.std::__1::basic_string"* %13, i64 0, i32 0, i32 0, i32 0, i32 0, i32 0, i32 1
  %93 = load i64, i64* %92, align 8
  tail call void @_ZNSt3__112basic_stringIcNS_11char_traitsIcEENS_9allocatorIcEEE25__init_copy_ctor_externalEPKcm(%"class.std::__1::basic_string"* %81, i8* %91, i64 %93) #9
  br label %94

94:                                               ; preds = %86, %89
  %95 = getelementptr inbounds %"class.downloads::mojom::Data", %"class.downloads::mojom::Data"* %0, i64 0, i32 13
  %96 = bitcast %"class.std::__1::basic_string"* %14 to %"struct.std::__1::basic_string<char, std::__1::char_traits<char>, std::__1::allocator<char> >::__short"*
  %97 = getelementptr inbounds %"struct.std::__1::basic_string<char, std::__1::char_traits<char>, std::__1::allocator<char> >::__short", %"struct.std::__1::basic_string<char, std::__1::char_traits<char>, std::__1::allocator<char> >::__short"* %96, i64 0, i32 1, i32 0
  %98 = load i8, i8* %97, align 1
  %99 = icmp slt i8 %98, 0
  br i1 %99, label %103, label %100

100:                                              ; preds = %94
  %101 = bitcast %"class.std::__1::basic_string"* %95 to i8*
  %102 = bitcast %"class.std::__1::basic_string"* %14 to i8*
  tail call void @llvm.memcpy.p0i8.p0i8.i64(i8* align 8 %101, i8* align 8 %102, i64 24, i1 false) #9
  br label %108

103:                                              ; preds = %94
  %104 = getelementptr inbounds %"class.std::__1::basic_string", %"class.std::__1::basic_string"* %14, i64 0, i32 0, i32 0, i32 0, i32 0, i32 0, i32 0
  %105 = load i8*, i8** %104, align 8
  %106 = getelementptr inbounds %"class.std::__1::basic_string", %"class.std::__1::basic_string"* %14, i64 0, i32 0, i32 0, i32 0, i32 0, i32 0, i32 1
  %107 = load i64, i64* %106, align 8
  tail call void @_ZNSt3__112basic_stringIcNS_11char_traitsIcEENS_9allocatorIcEEE25__init_copy_ctor_externalEPKcm(%"class.std::__1::basic_string"* %95, i8* %105, i64 %107) #9
  br label %108

108:                                              ; preds = %100, %103
  %109 = getelementptr inbounds %"class.downloads::mojom::Data", %"class.downloads::mojom::Data"* %0, i64 0, i32 14
  %110 = bitcast %"class.std::__1::basic_string"* %15 to %"struct.std::__1::basic_string<char, std::__1::char_traits<char>, std::__1::allocator<char> >::__short"*
  %111 = getelementptr inbounds %"struct.std::__1::basic_string<char, std::__1::char_traits<char>, std::__1::allocator<char> >::__short", %"struct.std::__1::basic_string<char, std::__1::char_traits<char>, std::__1::allocator<char> >::__short"* %110, i64 0, i32 1, i32 0
  %112 = load i8, i8* %111, align 1
  %113 = icmp slt i8 %112, 0
  br i1 %113, label %117, label %114

114:                                              ; preds = %108
  %115 = bitcast %"class.std::__1::basic_string"* %109 to i8*
  %116 = bitcast %"class.std::__1::basic_string"* %15 to i8*
  tail call void @llvm.memcpy.p0i8.p0i8.i64(i8* align 8 %115, i8* align 8 %116, i64 24, i1 false) #9
  br label %122

117:                                              ; preds = %108
  %118 = getelementptr inbounds %"class.std::__1::basic_string", %"class.std::__1::basic_string"* %15, i64 0, i32 0, i32 0, i32 0, i32 0, i32 0, i32 0
  %119 = load i8*, i8** %118, align 8
  %120 = getelementptr inbounds %"class.std::__1::basic_string", %"class.std::__1::basic_string"* %15, i64 0, i32 0, i32 0, i32 0, i32 0, i32 0, i32 1
  %121 = load i64, i64* %120, align 8
  tail call void @_ZNSt3__112basic_stringIcNS_11char_traitsIcEENS_9allocatorIcEEE25__init_copy_ctor_externalEPKcm(%"class.std::__1::basic_string"* %109, i8* %119, i64 %121) #9
  br label %122

122:                                              ; preds = %114, %117
  %123 = getelementptr inbounds %"class.downloads::mojom::Data", %"class.downloads::mojom::Data"* %0, i64 0, i32 15
  %124 = bitcast %"class.std::__1::basic_string"* %16 to %"struct.std::__1::basic_string<char, std::__1::char_traits<char>, std::__1::allocator<char> >::__short"*
  %125 = getelementptr inbounds %"struct.std::__1::basic_string<char, std::__1::char_traits<char>, std::__1::allocator<char> >::__short", %"struct.std::__1::basic_string<char, std::__1::char_traits<char>, std::__1::allocator<char> >::__short"* %124, i64 0, i32 1, i32 0
  %126 = load i8, i8* %125, align 1
  %127 = icmp slt i8 %126, 0
  br i1 %127, label %131, label %128

128:                                              ; preds = %122
  %129 = bitcast %"class.std::__1::basic_string"* %123 to i8*
  %130 = bitcast %"class.std::__1::basic_string"* %16 to i8*
  tail call void @llvm.memcpy.p0i8.p0i8.i64(i8* align 8 %129, i8* align 8 %130, i64 24, i1 false) #9
  br label %136

131:                                              ; preds = %122
  %132 = getelementptr inbounds %"class.std::__1::basic_string", %"class.std::__1::basic_string"* %16, i64 0, i32 0, i32 0, i32 0, i32 0, i32 0, i32 0
  %133 = load i8*, i8** %132, align 8
  %134 = getelementptr inbounds %"class.std::__1::basic_string", %"class.std::__1::basic_string"* %16, i64 0, i32 0, i32 0, i32 0, i32 0, i32 0, i32 1
  %135 = load i64, i64* %134, align 8
  tail call void @_ZNSt3__112basic_stringIcNS_11char_traitsIcEENS_9allocatorIcEEE25__init_copy_ctor_externalEPKcm(%"class.std::__1::basic_string"* %123, i8* %133, i64 %135) #9
  br label %136

136:                                              ; preds = %128, %131
  %137 = getelementptr inbounds %"class.downloads::mojom::Data", %"class.downloads::mojom::Data"* %0, i64 0, i32 16
  %138 = bitcast %"class.std::__1::basic_string"* %17 to %"struct.std::__1::basic_string<char, std::__1::char_traits<char>, std::__1::allocator<char> >::__short"*
  %139 = getelementptr inbounds %"struct.std::__1::basic_string<char, std::__1::char_traits<char>, std::__1::allocator<char> >::__short", %"struct.std::__1::basic_string<char, std::__1::char_traits<char>, std::__1::allocator<char> >::__short"* %138, i64 0, i32 1, i32 0
  %140 = load i8, i8* %139, align 1
  %141 = icmp slt i8 %140, 0
  br i1 %141, label %145, label %142

142:                                              ; preds = %136
  %143 = bitcast %"class.std::__1::basic_string"* %137 to i8*
  %144 = bitcast %"class.std::__1::basic_string"* %17 to i8*
  tail call void @llvm.memcpy.p0i8.p0i8.i64(i8* align 8 %143, i8* align 8 %144, i64 24, i1 false) #9
  br label %150

145:                                              ; preds = %136
  %146 = getelementptr inbounds %"class.std::__1::basic_string", %"class.std::__1::basic_string"* %17, i64 0, i32 0, i32 0, i32 0, i32 0, i32 0, i32 0
  %147 = load i8*, i8** %146, align 8
  %148 = getelementptr inbounds %"class.std::__1::basic_string", %"class.std::__1::basic_string"* %17, i64 0, i32 0, i32 0, i32 0, i32 0, i32 0, i32 1
  %149 = load i64, i64* %148, align 8
  tail call void @_ZNSt3__112basic_stringIcNS_11char_traitsIcEENS_9allocatorIcEEE25__init_copy_ctor_externalEPKcm(%"class.std::__1::basic_string"* %137, i8* %147, i64 %149) #9
  br label %150

150:                                              ; preds = %142, %145
  %151 = getelementptr inbounds %"class.downloads::mojom::Data", %"class.downloads::mojom::Data"* %0, i64 0, i32 17
  %152 = bitcast %"class.std::__1::basic_string"* %18 to %"struct.std::__1::basic_string<char, std::__1::char_traits<char>, std::__1::allocator<char> >::__short"*
  %153 = getelementptr inbounds %"struct.std::__1::basic_string<char, std::__1::char_traits<char>, std::__1::allocator<char> >::__short", %"struct.std::__1::basic_string<char, std::__1::char_traits<char>, std::__1::allocator<char> >::__short"* %152, i64 0, i32 1, i32 0
  %154 = load i8, i8* %153, align 1
  %155 = icmp slt i8 %154, 0
  br i1 %155, label %159, label %156

156:                                              ; preds = %150
  %157 = bitcast %"class.std::__1::basic_string"* %151 to i8*
  %158 = bitcast %"class.std::__1::basic_string"* %18 to i8*
  tail call void @llvm.memcpy.p0i8.p0i8.i64(i8* align 8 %157, i8* align 8 %158, i64 24, i1 false) #9
  br label %164

159:                                              ; preds = %150
  %160 = getelementptr inbounds %"class.std::__1::basic_string", %"class.std::__1::basic_string"* %18, i64 0, i32 0, i32 0, i32 0, i32 0, i32 0, i32 0
  %161 = load i8*, i8** %160, align 8
  %162 = getelementptr inbounds %"class.std::__1::basic_string", %"class.std::__1::basic_string"* %18, i64 0, i32 0, i32 0, i32 0, i32 0, i32 0, i32 1
  %163 = load i64, i64* %162, align 8
  tail call void @_ZNSt3__112basic_stringIcNS_11char_traitsIcEENS_9allocatorIcEEE25__init_copy_ctor_externalEPKcm(%"class.std::__1::basic_string"* %151, i8* %161, i64 %163) #9
  br label %164

164:                                              ; preds = %156, %159
  %165 = getelementptr inbounds %"class.downloads::mojom::Data", %"class.downloads::mojom::Data"* %0, i64 0, i32 18
  %166 = bitcast %"class.std::__1::basic_string"* %19 to %"struct.std::__1::basic_string<char, std::__1::char_traits<char>, std::__1::allocator<char> >::__short"*
  %167 = getelementptr inbounds %"struct.std::__1::basic_string<char, std::__1::char_traits<char>, std::__1::allocator<char> >::__short", %"struct.std::__1::basic_string<char, std::__1::char_traits<char>, std::__1::allocator<char> >::__short"* %166, i64 0, i32 1, i32 0
  %168 = load i8, i8* %167, align 1
  %169 = icmp slt i8 %168, 0
  br i1 %169, label %173, label %170

170:                                              ; preds = %164
  %171 = bitcast %"class.std::__1::basic_string"* %165 to i8*
  %172 = bitcast %"class.std::__1::basic_string"* %19 to i8*
  tail call void @llvm.memcpy.p0i8.p0i8.i64(i8* align 8 %171, i8* align 8 %172, i64 24, i1 false) #9
  br label %178

173:                                              ; preds = %164
  %174 = getelementptr inbounds %"class.std::__1::basic_string", %"class.std::__1::basic_string"* %19, i64 0, i32 0, i32 0, i32 0, i32 0, i32 0, i32 0
  %175 = load i8*, i8** %174, align 8
  %176 = getelementptr inbounds %"class.std::__1::basic_string", %"class.std::__1::basic_string"* %19, i64 0, i32 0, i32 0, i32 0, i32 0, i32 0, i32 1
  %177 = load i64, i64* %176, align 8
  tail call void @_ZNSt3__112basic_stringIcNS_11char_traitsIcEENS_9allocatorIcEEE25__init_copy_ctor_externalEPKcm(%"class.std::__1::basic_string"* %165, i8* %175, i64 %177) #9
  br label %178

178:                                              ; preds = %170, %173
  %179 = getelementptr inbounds %"class.downloads::mojom::Data", %"class.downloads::mojom::Data"* %0, i64 0, i32 19
  %180 = bitcast %"class.std::__1::basic_string"* %20 to %"struct.std::__1::basic_string<char, std::__1::char_traits<char>, std::__1::allocator<char> >::__short"*
  %181 = getelementptr inbounds %"struct.std::__1::basic_string<char, std::__1::char_traits<char>, std::__1::allocator<char> >::__short", %"struct.std::__1::basic_string<char, std::__1::char_traits<char>, std::__1::allocator<char> >::__short"* %180, i64 0, i32 1, i32 0
  %182 = load i8, i8* %181, align 1
  %183 = icmp slt i8 %182, 0
  br i1 %183, label %187, label %184

184:                                              ; preds = %178
  %185 = bitcast %"class.std::__1::basic_string"* %179 to i8*
  %186 = bitcast %"class.std::__1::basic_string"* %20 to i8*
  tail call void @llvm.memcpy.p0i8.p0i8.i64(i8* align 8 %185, i8* align 8 %186, i64 24, i1 false) #9
  br label %192

187:                                              ; preds = %178
  %188 = getelementptr inbounds %"class.std::__1::basic_string", %"class.std::__1::basic_string"* %20, i64 0, i32 0, i32 0, i32 0, i32 0, i32 0, i32 0
  %189 = load i8*, i8** %188, align 8
  %190 = getelementptr inbounds %"class.std::__1::basic_string", %"class.std::__1::basic_string"* %20, i64 0, i32 0, i32 0, i32 0, i32 0, i32 0, i32 1
  %191 = load i64, i64* %190, align 8
  tail call void @_ZNSt3__112basic_stringIcNS_11char_traitsIcEENS_9allocatorIcEEE25__init_copy_ctor_externalEPKcm(%"class.std::__1::basic_string"* %179, i8* %189, i64 %191) #9
  br label %192

192:                                              ; preds = %184, %187
  %193 = getelementptr inbounds %"class.downloads::mojom::Data", %"class.downloads::mojom::Data"* %0, i64 0, i32 20
  %194 = bitcast %"class.std::__1::basic_string"* %21 to %"struct.std::__1::basic_string<char, std::__1::char_traits<char>, std::__1::allocator<char> >::__short"*
  %195 = getelementptr inbounds %"struct.std::__1::basic_string<char, std::__1::char_traits<char>, std::__1::allocator<char> >::__short", %"struct.std::__1::basic_string<char, std::__1::char_traits<char>, std::__1::allocator<char> >::__short"* %194, i64 0, i32 1, i32 0
  %196 = load i8, i8* %195, align 1
  %197 = icmp slt i8 %196, 0
  br i1 %197, label %201, label %198

198:                                              ; preds = %192
  %199 = bitcast %"class.std::__1::basic_string"* %193 to i8*
  %200 = bitcast %"class.std::__1::basic_string"* %21 to i8*
  tail call void @llvm.memcpy.p0i8.p0i8.i64(i8* align 8 %199, i8* align 8 %200, i64 24, i1 false) #9
  br label %206

201:                                              ; preds = %192
  %202 = getelementptr inbounds %"class.std::__1::basic_string", %"class.std::__1::basic_string"* %21, i64 0, i32 0, i32 0, i32 0, i32 0, i32 0, i32 0
  %203 = load i8*, i8** %202, align 8
  %204 = getelementptr inbounds %"class.std::__1::basic_string", %"class.std::__1::basic_string"* %21, i64 0, i32 0, i32 0, i32 0, i32 0, i32 0, i32 1
  %205 = load i64, i64* %204, align 8
  tail call void @_ZNSt3__112basic_stringIcNS_11char_traitsIcEENS_9allocatorIcEEE25__init_copy_ctor_externalEPKcm(%"class.std::__1::basic_string"* %193, i8* %203, i64 %205) #9
  br label %206

206:                                              ; preds = %198, %201
  %207 = getelementptr inbounds %"class.downloads::mojom::Data", %"class.downloads::mojom::Data"* %0, i64 0, i32 21
  %208 = bitcast %"class.std::__1::basic_string"* %22 to %"struct.std::__1::basic_string<char, std::__1::char_traits<char>, std::__1::allocator<char> >::__short"*
  %209 = getelementptr inbounds %"struct.std::__1::basic_string<char, std::__1::char_traits<char>, std::__1::allocator<char> >::__short", %"struct.std::__1::basic_string<char, std::__1::char_traits<char>, std::__1::allocator<char> >::__short"* %208, i64 0, i32 1, i32 0
  %210 = load i8, i8* %209, align 1
  %211 = icmp slt i8 %210, 0
  br i1 %211, label %215, label %212

212:                                              ; preds = %206
  %213 = bitcast %"class.std::__1::basic_string"* %207 to i8*
  %214 = bitcast %"class.std::__1::basic_string"* %22 to i8*
  tail call void @llvm.memcpy.p0i8.p0i8.i64(i8* align 8 %213, i8* align 8 %214, i64 24, i1 false) #9
  br label %220

215:                                              ; preds = %206
  %216 = getelementptr inbounds %"class.std::__1::basic_string", %"class.std::__1::basic_string"* %22, i64 0, i32 0, i32 0, i32 0, i32 0, i32 0, i32 0
  %217 = load i8*, i8** %216, align 8
  %218 = getelementptr inbounds %"class.std::__1::basic_string", %"class.std::__1::basic_string"* %22, i64 0, i32 0, i32 0, i32 0, i32 0, i32 0, i32 1
  %219 = load i64, i64* %218, align 8
  tail call void @_ZNSt3__112basic_stringIcNS_11char_traitsIcEENS_9allocatorIcEEE25__init_copy_ctor_externalEPKcm(%"class.std::__1::basic_string"* %207, i8* %217, i64 %219) #9
  br label %220

220:                                              ; preds = %212, %215
  ret void
}

; Function Attrs: nounwind ssp uwtable
define hidden void @_ZN9downloads5mojom4DataD2Ev(%"class.downloads::mojom::Data"* nocapture readonly) unnamed_addr #0 align 2 {
  %2 = getelementptr inbounds %"class.downloads::mojom::Data", %"class.downloads::mojom::Data"* %0, i64 0, i32 21
  %3 = bitcast %"class.std::__1::basic_string"* %2 to %"struct.std::__1::basic_string<char, std::__1::char_traits<char>, std::__1::allocator<char> >::__short"*
  %4 = getelementptr inbounds %"struct.std::__1::basic_string<char, std::__1::char_traits<char>, std::__1::allocator<char> >::__short", %"struct.std::__1::basic_string<char, std::__1::char_traits<char>, std::__1::allocator<char> >::__short"* %3, i64 0, i32 1, i32 0
  %5 = load i8, i8* %4, align 1
  %6 = icmp slt i8 %5, 0
  br i1 %6, label %7, label %10

7:                                                ; preds = %1
  %8 = getelementptr inbounds %"class.std::__1::basic_string", %"class.std::__1::basic_string"* %2, i64 0, i32 0, i32 0, i32 0, i32 0, i32 0, i32 0
  %9 = load i8*, i8** %8, align 8
  tail call void @_ZdlPv(i8* %9) #10
  br label %10

10:                                               ; preds = %1, %7
  %11 = getelementptr inbounds %"class.downloads::mojom::Data", %"class.downloads::mojom::Data"* %0, i64 0, i32 20
  %12 = bitcast %"class.std::__1::basic_string"* %11 to %"struct.std::__1::basic_string<char, std::__1::char_traits<char>, std::__1::allocator<char> >::__short"*
  %13 = getelementptr inbounds %"struct.std::__1::basic_string<char, std::__1::char_traits<char>, std::__1::allocator<char> >::__short", %"struct.std::__1::basic_string<char, std::__1::char_traits<char>, std::__1::allocator<char> >::__short"* %12, i64 0, i32 1, i32 0
  %14 = load i8, i8* %13, align 1
  %15 = icmp slt i8 %14, 0
  br i1 %15, label %16, label %19

16:                                               ; preds = %10
  %17 = getelementptr inbounds %"class.std::__1::basic_string", %"class.std::__1::basic_string"* %11, i64 0, i32 0, i32 0, i32 0, i32 0, i32 0, i32 0
  %18 = load i8*, i8** %17, align 8
  tail call void @_ZdlPv(i8* %18) #10
  br label %19

19:                                               ; preds = %10, %16
  %20 = getelementptr inbounds %"class.downloads::mojom::Data", %"class.downloads::mojom::Data"* %0, i64 0, i32 19
  %21 = bitcast %"class.std::__1::basic_string"* %20 to %"struct.std::__1::basic_string<char, std::__1::char_traits<char>, std::__1::allocator<char> >::__short"*
  %22 = getelementptr inbounds %"struct.std::__1::basic_string<char, std::__1::char_traits<char>, std::__1::allocator<char> >::__short", %"struct.std::__1::basic_string<char, std::__1::char_traits<char>, std::__1::allocator<char> >::__short"* %21, i64 0, i32 1, i32 0
  %23 = load i8, i8* %22, align 1
  %24 = icmp slt i8 %23, 0
  br i1 %24, label %25, label %28

25:                                               ; preds = %19
  %26 = getelementptr inbounds %"class.std::__1::basic_string", %"class.std::__1::basic_string"* %20, i64 0, i32 0, i32 0, i32 0, i32 0, i32 0, i32 0
  %27 = load i8*, i8** %26, align 8
  tail call void @_ZdlPv(i8* %27) #10
  br label %28

28:                                               ; preds = %19, %25
  %29 = getelementptr inbounds %"class.downloads::mojom::Data", %"class.downloads::mojom::Data"* %0, i64 0, i32 18
  %30 = bitcast %"class.std::__1::basic_string"* %29 to %"struct.std::__1::basic_string<char, std::__1::char_traits<char>, std::__1::allocator<char> >::__short"*
  %31 = getelementptr inbounds %"struct.std::__1::basic_string<char, std::__1::char_traits<char>, std::__1::allocator<char> >::__short", %"struct.std::__1::basic_string<char, std::__1::char_traits<char>, std::__1::allocator<char> >::__short"* %30, i64 0, i32 1, i32 0
  %32 = load i8, i8* %31, align 1
  %33 = icmp slt i8 %32, 0
  br i1 %33, label %34, label %37

34:                                               ; preds = %28
  %35 = getelementptr inbounds %"class.std::__1::basic_string", %"class.std::__1::basic_string"* %29, i64 0, i32 0, i32 0, i32 0, i32 0, i32 0, i32 0
  %36 = load i8*, i8** %35, align 8
  tail call void @_ZdlPv(i8* %36) #10
  br label %37

37:                                               ; preds = %28, %34
  %38 = getelementptr inbounds %"class.downloads::mojom::Data", %"class.downloads::mojom::Data"* %0, i64 0, i32 17
  %39 = bitcast %"class.std::__1::basic_string"* %38 to %"struct.std::__1::basic_string<char, std::__1::char_traits<char>, std::__1::allocator<char> >::__short"*
  %40 = getelementptr inbounds %"struct.std::__1::basic_string<char, std::__1::char_traits<char>, std::__1::allocator<char> >::__short", %"struct.std::__1::basic_string<char, std::__1::char_traits<char>, std::__1::allocator<char> >::__short"* %39, i64 0, i32 1, i32 0
  %41 = load i8, i8* %40, align 1
  %42 = icmp slt i8 %41, 0
  br i1 %42, label %43, label %46

43:                                               ; preds = %37
  %44 = getelementptr inbounds %"class.std::__1::basic_string", %"class.std::__1::basic_string"* %38, i64 0, i32 0, i32 0, i32 0, i32 0, i32 0, i32 0
  %45 = load i8*, i8** %44, align 8
  tail call void @_ZdlPv(i8* %45) #10
  br label %46

46:                                               ; preds = %37, %43
  %47 = getelementptr inbounds %"class.downloads::mojom::Data", %"class.downloads::mojom::Data"* %0, i64 0, i32 16
  %48 = bitcast %"class.std::__1::basic_string"* %47 to %"struct.std::__1::basic_string<char, std::__1::char_traits<char>, std::__1::allocator<char> >::__short"*
  %49 = getelementptr inbounds %"struct.std::__1::basic_string<char, std::__1::char_traits<char>, std::__1::allocator<char> >::__short", %"struct.std::__1::basic_string<char, std::__1::char_traits<char>, std::__1::allocator<char> >::__short"* %48, i64 0, i32 1, i32 0
  %50 = load i8, i8* %49, align 1
  %51 = icmp slt i8 %50, 0
  br i1 %51, label %52, label %55

52:                                               ; preds = %46
  %53 = getelementptr inbounds %"class.std::__1::basic_string", %"class.std::__1::basic_string"* %47, i64 0, i32 0, i32 0, i32 0, i32 0, i32 0, i32 0
  %54 = load i8*, i8** %53, align 8
  tail call void @_ZdlPv(i8* %54) #10
  br label %55

55:                                               ; preds = %46, %52
  %56 = getelementptr inbounds %"class.downloads::mojom::Data", %"class.downloads::mojom::Data"* %0, i64 0, i32 15
  %57 = bitcast %"class.std::__1::basic_string"* %56 to %"struct.std::__1::basic_string<char, std::__1::char_traits<char>, std::__1::allocator<char> >::__short"*
  %58 = getelementptr inbounds %"struct.std::__1::basic_string<char, std::__1::char_traits<char>, std::__1::allocator<char> >::__short", %"struct.std::__1::basic_string<char, std::__1::char_traits<char>, std::__1::allocator<char> >::__short"* %57, i64 0, i32 1, i32 0
  %59 = load i8, i8* %58, align 1
  %60 = icmp slt i8 %59, 0
  br i1 %60, label %61, label %64

61:                                               ; preds = %55
  %62 = getelementptr inbounds %"class.std::__1::basic_string", %"class.std::__1::basic_string"* %56, i64 0, i32 0, i32 0, i32 0, i32 0, i32 0, i32 0
  %63 = load i8*, i8** %62, align 8
  tail call void @_ZdlPv(i8* %63) #10
  br label %64

64:                                               ; preds = %55, %61
  %65 = getelementptr inbounds %"class.downloads::mojom::Data", %"class.downloads::mojom::Data"* %0, i64 0, i32 14
  %66 = bitcast %"class.std::__1::basic_string"* %65 to %"struct.std::__1::basic_string<char, std::__1::char_traits<char>, std::__1::allocator<char> >::__short"*
  %67 = getelementptr inbounds %"struct.std::__1::basic_string<char, std::__1::char_traits<char>, std::__1::allocator<char> >::__short", %"struct.std::__1::basic_string<char, std::__1::char_traits<char>, std::__1::allocator<char> >::__short"* %66, i64 0, i32 1, i32 0
  %68 = load i8, i8* %67, align 1
  %69 = icmp slt i8 %68, 0
  br i1 %69, label %70, label %73

70:                                               ; preds = %64
  %71 = getelementptr inbounds %"class.std::__1::basic_string", %"class.std::__1::basic_string"* %65, i64 0, i32 0, i32 0, i32 0, i32 0, i32 0, i32 0
  %72 = load i8*, i8** %71, align 8
  tail call void @_ZdlPv(i8* %72) #10
  br label %73

73:                                               ; preds = %64, %70
  %74 = getelementptr inbounds %"class.downloads::mojom::Data", %"class.downloads::mojom::Data"* %0, i64 0, i32 13
  %75 = bitcast %"class.std::__1::basic_string"* %74 to %"struct.std::__1::basic_string<char, std::__1::char_traits<char>, std::__1::allocator<char> >::__short"*
  %76 = getelementptr inbounds %"struct.std::__1::basic_string<char, std::__1::char_traits<char>, std::__1::allocator<char> >::__short", %"struct.std::__1::basic_string<char, std::__1::char_traits<char>, std::__1::allocator<char> >::__short"* %75, i64 0, i32 1, i32 0
  %77 = load i8, i8* %76, align 1
  %78 = icmp slt i8 %77, 0
  br i1 %78, label %79, label %82

79:                                               ; preds = %73
  %80 = getelementptr inbounds %"class.std::__1::basic_string", %"class.std::__1::basic_string"* %74, i64 0, i32 0, i32 0, i32 0, i32 0, i32 0, i32 0
  %81 = load i8*, i8** %80, align 8
  tail call void @_ZdlPv(i8* %81) #10
  br label %82

82:                                               ; preds = %73, %79
  %83 = getelementptr inbounds %"class.downloads::mojom::Data", %"class.downloads::mojom::Data"* %0, i64 0, i32 12
  %84 = bitcast %"class.std::__1::basic_string"* %83 to %"struct.std::__1::basic_string<char, std::__1::char_traits<char>, std::__1::allocator<char> >::__short"*
  %85 = getelementptr inbounds %"struct.std::__1::basic_string<char, std::__1::char_traits<char>, std::__1::allocator<char> >::__short", %"struct.std::__1::basic_string<char, std::__1::char_traits<char>, std::__1::allocator<char> >::__short"* %84, i64 0, i32 1, i32 0
  %86 = load i8, i8* %85, align 1
  %87 = icmp slt i8 %86, 0
  br i1 %87, label %88, label %91

88:                                               ; preds = %82
  %89 = getelementptr inbounds %"class.std::__1::basic_string", %"class.std::__1::basic_string"* %83, i64 0, i32 0, i32 0, i32 0, i32 0, i32 0, i32 0
  %90 = load i8*, i8** %89, align 8
  tail call void @_ZdlPv(i8* %90) #10
  br label %91

91:                                               ; preds = %82, %88
  %92 = getelementptr inbounds %"class.downloads::mojom::Data", %"class.downloads::mojom::Data"* %0, i64 0, i32 11
  %93 = bitcast %"class.std::__1::basic_string"* %92 to %"struct.std::__1::basic_string<char, std::__1::char_traits<char>, std::__1::allocator<char> >::__short"*
  %94 = getelementptr inbounds %"struct.std::__1::basic_string<char, std::__1::char_traits<char>, std::__1::allocator<char> >::__short", %"struct.std::__1::basic_string<char, std::__1::char_traits<char>, std::__1::allocator<char> >::__short"* %93, i64 0, i32 1, i32 0
  %95 = load i8, i8* %94, align 1
  %96 = icmp slt i8 %95, 0
  br i1 %96, label %97, label %100

97:                                               ; preds = %91
  %98 = getelementptr inbounds %"class.std::__1::basic_string", %"class.std::__1::basic_string"* %92, i64 0, i32 0, i32 0, i32 0, i32 0, i32 0, i32 0
  %99 = load i8*, i8** %98, align 8
  tail call void @_ZdlPv(i8* %99) #10
  br label %100

100:                                              ; preds = %91, %97
  %101 = getelementptr inbounds %"class.downloads::mojom::Data", %"class.downloads::mojom::Data"* %0, i64 0, i32 10
  %102 = bitcast %"class.std::__1::basic_string"* %101 to %"struct.std::__1::basic_string<char, std::__1::char_traits<char>, std::__1::allocator<char> >::__short"*
  %103 = getelementptr inbounds %"struct.std::__1::basic_string<char, std::__1::char_traits<char>, std::__1::allocator<char> >::__short", %"struct.std::__1::basic_string<char, std::__1::char_traits<char>, std::__1::allocator<char> >::__short"* %102, i64 0, i32 1, i32 0
  %104 = load i8, i8* %103, align 1
  %105 = icmp slt i8 %104, 0
  br i1 %105, label %106, label %109

106:                                              ; preds = %100
  %107 = getelementptr inbounds %"class.std::__1::basic_string", %"class.std::__1::basic_string"* %101, i64 0, i32 0, i32 0, i32 0, i32 0, i32 0, i32 0
  %108 = load i8*, i8** %107, align 8
  tail call void @_ZdlPv(i8* %108) #10
  br label %109

109:                                              ; preds = %100, %106
  %110 = getelementptr inbounds %"class.downloads::mojom::Data", %"class.downloads::mojom::Data"* %0, i64 0, i32 9
  %111 = bitcast %"class.std::__1::basic_string"* %110 to %"struct.std::__1::basic_string<char, std::__1::char_traits<char>, std::__1::allocator<char> >::__short"*
  %112 = getelementptr inbounds %"struct.std::__1::basic_string<char, std::__1::char_traits<char>, std::__1::allocator<char> >::__short", %"struct.std::__1::basic_string<char, std::__1::char_traits<char>, std::__1::allocator<char> >::__short"* %111, i64 0, i32 1, i32 0
  %113 = load i8, i8* %112, align 1
  %114 = icmp slt i8 %113, 0
  br i1 %114, label %115, label %118

115:                                              ; preds = %109
  %116 = getelementptr inbounds %"class.std::__1::basic_string", %"class.std::__1::basic_string"* %110, i64 0, i32 0, i32 0, i32 0, i32 0, i32 0, i32 0
  %117 = load i8*, i8** %116, align 8
  tail call void @_ZdlPv(i8* %117) #10
  br label %118

118:                                              ; preds = %109, %115
  ret void
}

; Function Attrs: nounwind ssp uwtable
define hidden i64 @_ZNK9downloads5mojom4Data4HashEm(%"class.downloads::mojom::Data"*, i64) local_unnamed_addr #0 align 2 {
  %3 = alloca %"struct.std::__1::__murmur2_or_cityhash", align 1
  %4 = alloca %"struct.std::__1::__murmur2_or_cityhash", align 1
  %5 = alloca %"struct.std::__1::__murmur2_or_cityhash", align 1
  %6 = alloca %"struct.std::__1::__murmur2_or_cityhash", align 1
  %7 = alloca %"struct.std::__1::__murmur2_or_cityhash", align 1
  %8 = alloca %"struct.std::__1::__murmur2_or_cityhash", align 1
  %9 = alloca %"struct.std::__1::__murmur2_or_cityhash", align 1
  %10 = alloca %"struct.std::__1::__murmur2_or_cityhash", align 1
  %11 = alloca %"struct.std::__1::__murmur2_or_cityhash", align 1
  %12 = alloca %"struct.std::__1::__murmur2_or_cityhash", align 1
  %13 = alloca %"struct.std::__1::__murmur2_or_cityhash", align 1
  %14 = alloca %"struct.std::__1::__murmur2_or_cityhash", align 1
  %15 = alloca %"struct.std::__1::__murmur2_or_cityhash", align 1
  %16 = getelementptr inbounds %"class.downloads::mojom::Data", %"class.downloads::mojom::Data"* %0, i64 0, i32 0
  %17 = load i8, i8* %16, align 1, !range !2
  %18 = zext i8 %17 to i64
  %19 = shl i64 %1, 6
  %20 = or i64 %19, %18
  %21 = lshr i64 %1, 2
  %22 = add i64 %20, %21
  %23 = xor i64 %22, %1
  %24 = getelementptr inbounds %"class.downloads::mojom::Data", %"class.downloads::mojom::Data"* %0, i64 0, i32 1
  %25 = load i8, i8* %24, align 1, !range !2
  %26 = zext i8 %25 to i64
  %27 = shl i64 %23, 6
  %28 = or i64 %27, %26
  %29 = lshr i64 %23, 2
  %30 = add i64 %28, %29
  %31 = xor i64 %30, %23
  %32 = getelementptr inbounds %"class.downloads::mojom::Data", %"class.downloads::mojom::Data"* %0, i64 0, i32 2
  %33 = load i8, i8* %32, align 1, !range !2
  %34 = zext i8 %33 to i64
  %35 = shl i64 %31, 6
  %36 = or i64 %35, %34
  %37 = lshr i64 %31, 2
  %38 = add i64 %36, %37
  %39 = xor i64 %38, %31
  %40 = getelementptr inbounds %"class.downloads::mojom::Data", %"class.downloads::mojom::Data"* %0, i64 0, i32 3
  %41 = load i8, i8* %40, align 1, !range !2
  %42 = zext i8 %41 to i64
  %43 = shl i64 %39, 6
  %44 = or i64 %43, %42
  %45 = lshr i64 %39, 2
  %46 = add i64 %44, %45
  %47 = xor i64 %46, %39
  %48 = getelementptr inbounds %"class.downloads::mojom::Data", %"class.downloads::mojom::Data"* %0, i64 0, i32 4
  %49 = load i8, i8* %48, align 1, !range !2
  %50 = zext i8 %49 to i64
  %51 = shl i64 %47, 6
  %52 = or i64 %51, %50
  %53 = lshr i64 %47, 2
  %54 = add i64 %52, %53
  %55 = xor i64 %54, %47
  %56 = getelementptr inbounds %"class.downloads::mojom::Data", %"class.downloads::mojom::Data"* %0, i64 0, i32 5
  %57 = load i8, i8* %56, align 1, !range !2
  %58 = zext i8 %57 to i64
  %59 = shl i64 %55, 6
  %60 = or i64 %59, %58
  %61 = lshr i64 %55, 2
  %62 = add i64 %60, %61
  %63 = xor i64 %62, %55
  %64 = getelementptr inbounds %"class.downloads::mojom::Data", %"class.downloads::mojom::Data"* %0, i64 0, i32 6
  %65 = load i32, i32* %64, align 4
  %66 = sext i32 %65 to i64
  %67 = shl i64 %63, 6
  %68 = lshr i64 %63, 2
  %69 = add i64 %67, %66
  %70 = add i64 %69, %68
  %71 = xor i64 %70, %63
  %72 = getelementptr inbounds %"class.downloads::mojom::Data", %"class.downloads::mojom::Data"* %0, i64 0, i32 7
  %73 = load i32, i32* %72, align 4
  %74 = sext i32 %73 to i64
  %75 = shl i64 %71, 6
  %76 = lshr i64 %71, 2
  %77 = add i64 %75, %74
  %78 = add i64 %77, %76
  %79 = xor i64 %78, %71
  %80 = getelementptr inbounds %"class.downloads::mojom::Data", %"class.downloads::mojom::Data"* %0, i64 0, i32 8
  %81 = load i32, i32* %80, align 4
  %82 = sext i32 %81 to i64
  %83 = shl i64 %79, 6
  %84 = lshr i64 %79, 2
  %85 = add i64 %83, %82
  %86 = add i64 %85, %84
  %87 = xor i64 %86, %79
  %88 = getelementptr inbounds %"class.downloads::mojom::Data", %"class.downloads::mojom::Data"* %0, i64 0, i32 9
  %89 = bitcast %"class.std::__1::basic_string"* %88 to %"struct.std::__1::basic_string<char, std::__1::char_traits<char>, std::__1::allocator<char> >::__short"*
  %90 = getelementptr inbounds %"struct.std::__1::basic_string<char, std::__1::char_traits<char>, std::__1::allocator<char> >::__short", %"struct.std::__1::basic_string<char, std::__1::char_traits<char>, std::__1::allocator<char> >::__short"* %89, i64 0, i32 1, i32 0
  %91 = load i8, i8* %90, align 1
  %92 = icmp slt i8 %91, 0
  %93 = getelementptr inbounds %"class.std::__1::basic_string", %"class.std::__1::basic_string"* %88, i64 0, i32 0, i32 0, i32 0, i32 0, i32 0, i32 0
  %94 = load i8*, i8** %93, align 8
  %95 = getelementptr inbounds %"class.downloads::mojom::Data", %"class.downloads::mojom::Data"* %0, i64 0, i32 9, i32 0, i32 0, i32 0, i32 0, i32 0, i32 1
  %96 = load i64, i64* %95, align 8
  %97 = bitcast %"class.std::__1::basic_string"* %88 to i8*
  %98 = zext i8 %91 to i64
  %99 = select i1 %92, i8* %94, i8* %97
  %100 = select i1 %92, i64 %96, i64 %98
  %101 = getelementptr inbounds %"struct.std::__1::__murmur2_or_cityhash", %"struct.std::__1::__murmur2_or_cityhash"* %6, i64 0, i32 0
  call void @llvm.lifetime.start.p0i8(i64 1, i8* nonnull %101) #9
  %102 = call i64 @_ZNSt3__121__murmur2_or_cityhashImLm64EEclEPKvm(%"struct.std::__1::__murmur2_or_cityhash"* nonnull %6, i8* %99, i64 %100) #9
  call void @llvm.lifetime.end.p0i8(i64 1, i8* nonnull %101) #9
  %103 = shl i64 %87, 6
  %104 = lshr i64 %87, 2
  %105 = add i64 %103, %102
  %106 = add i64 %105, %104
  %107 = xor i64 %106, %87
  %108 = getelementptr inbounds %"class.downloads::mojom::Data", %"class.downloads::mojom::Data"* %0, i64 0, i32 10
  %109 = bitcast %"class.std::__1::basic_string"* %108 to %"struct.std::__1::basic_string<char, std::__1::char_traits<char>, std::__1::allocator<char> >::__short"*
  %110 = getelementptr inbounds %"struct.std::__1::basic_string<char, std::__1::char_traits<char>, std::__1::allocator<char> >::__short", %"struct.std::__1::basic_string<char, std::__1::char_traits<char>, std::__1::allocator<char> >::__short"* %109, i64 0, i32 1, i32 0
  %111 = load i8, i8* %110, align 1
  %112 = icmp slt i8 %111, 0
  %113 = getelementptr inbounds %"class.std::__1::basic_string", %"class.std::__1::basic_string"* %108, i64 0, i32 0, i32 0, i32 0, i32 0, i32 0, i32 0
  %114 = load i8*, i8** %113, align 8
  %115 = getelementptr inbounds %"class.downloads::mojom::Data", %"class.downloads::mojom::Data"* %0, i64 0, i32 10, i32 0, i32 0, i32 0, i32 0, i32 0, i32 1
  %116 = load i64, i64* %115, align 8
  %117 = bitcast %"class.std::__1::basic_string"* %108 to i8*
  %118 = zext i8 %111 to i64
  %119 = select i1 %112, i8* %114, i8* %117
  %120 = select i1 %112, i64 %116, i64 %118
  %121 = getelementptr inbounds %"struct.std::__1::__murmur2_or_cityhash", %"struct.std::__1::__murmur2_or_cityhash"* %5, i64 0, i32 0
  call void @llvm.lifetime.start.p0i8(i64 1, i8* nonnull %121) #9
  %122 = call i64 @_ZNSt3__121__murmur2_or_cityhashImLm64EEclEPKvm(%"struct.std::__1::__murmur2_or_cityhash"* nonnull %5, i8* %119, i64 %120) #9
  call void @llvm.lifetime.end.p0i8(i64 1, i8* nonnull %121) #9
  %123 = shl i64 %107, 6
  %124 = lshr i64 %107, 2
  %125 = add i64 %123, %122
  %126 = add i64 %125, %124
  %127 = xor i64 %126, %107
  %128 = getelementptr inbounds %"class.downloads::mojom::Data", %"class.downloads::mojom::Data"* %0, i64 0, i32 11
  %129 = bitcast %"class.std::__1::basic_string"* %128 to %"struct.std::__1::basic_string<char, std::__1::char_traits<char>, std::__1::allocator<char> >::__short"*
  %130 = getelementptr inbounds %"struct.std::__1::basic_string<char, std::__1::char_traits<char>, std::__1::allocator<char> >::__short", %"struct.std::__1::basic_string<char, std::__1::char_traits<char>, std::__1::allocator<char> >::__short"* %129, i64 0, i32 1, i32 0
  %131 = load i8, i8* %130, align 1
  %132 = icmp slt i8 %131, 0
  %133 = getelementptr inbounds %"class.std::__1::basic_string", %"class.std::__1::basic_string"* %128, i64 0, i32 0, i32 0, i32 0, i32 0, i32 0, i32 0
  %134 = load i8*, i8** %133, align 8
  %135 = getelementptr inbounds %"class.downloads::mojom::Data", %"class.downloads::mojom::Data"* %0, i64 0, i32 11, i32 0, i32 0, i32 0, i32 0, i32 0, i32 1
  %136 = load i64, i64* %135, align 8
  %137 = bitcast %"class.std::__1::basic_string"* %128 to i8*
  %138 = zext i8 %131 to i64
  %139 = select i1 %132, i8* %134, i8* %137
  %140 = select i1 %132, i64 %136, i64 %138
  %141 = getelementptr inbounds %"struct.std::__1::__murmur2_or_cityhash", %"struct.std::__1::__murmur2_or_cityhash"* %4, i64 0, i32 0
  call void @llvm.lifetime.start.p0i8(i64 1, i8* nonnull %141) #9
  %142 = call i64 @_ZNSt3__121__murmur2_or_cityhashImLm64EEclEPKvm(%"struct.std::__1::__murmur2_or_cityhash"* nonnull %4, i8* %139, i64 %140) #9
  call void @llvm.lifetime.end.p0i8(i64 1, i8* nonnull %141) #9
  %143 = shl i64 %127, 6
  %144 = lshr i64 %127, 2
  %145 = add i64 %143, %142
  %146 = add i64 %145, %144
  %147 = xor i64 %146, %127
  %148 = getelementptr inbounds %"class.downloads::mojom::Data", %"class.downloads::mojom::Data"* %0, i64 0, i32 12
  %149 = bitcast %"class.std::__1::basic_string"* %148 to %"struct.std::__1::basic_string<char, std::__1::char_traits<char>, std::__1::allocator<char> >::__short"*
  %150 = getelementptr inbounds %"struct.std::__1::basic_string<char, std::__1::char_traits<char>, std::__1::allocator<char> >::__short", %"struct.std::__1::basic_string<char, std::__1::char_traits<char>, std::__1::allocator<char> >::__short"* %149, i64 0, i32 1, i32 0
  %151 = load i8, i8* %150, align 1
  %152 = icmp slt i8 %151, 0
  %153 = getelementptr inbounds %"class.std::__1::basic_string", %"class.std::__1::basic_string"* %148, i64 0, i32 0, i32 0, i32 0, i32 0, i32 0, i32 0
  %154 = load i8*, i8** %153, align 8
  %155 = getelementptr inbounds %"class.downloads::mojom::Data", %"class.downloads::mojom::Data"* %0, i64 0, i32 12, i32 0, i32 0, i32 0, i32 0, i32 0, i32 1
  %156 = load i64, i64* %155, align 8
  %157 = bitcast %"class.std::__1::basic_string"* %148 to i8*
  %158 = zext i8 %151 to i64
  %159 = select i1 %152, i8* %154, i8* %157
  %160 = select i1 %152, i64 %156, i64 %158
  %161 = getelementptr inbounds %"struct.std::__1::__murmur2_or_cityhash", %"struct.std::__1::__murmur2_or_cityhash"* %3, i64 0, i32 0
  call void @llvm.lifetime.start.p0i8(i64 1, i8* nonnull %161) #9
  %162 = call i64 @_ZNSt3__121__murmur2_or_cityhashImLm64EEclEPKvm(%"struct.std::__1::__murmur2_or_cityhash"* nonnull %3, i8* %159, i64 %160) #9
  call void @llvm.lifetime.end.p0i8(i64 1, i8* nonnull %161) #9
  %163 = shl i64 %147, 6
  %164 = lshr i64 %147, 2
  %165 = add i64 %163, %162
  %166 = add i64 %165, %164
  %167 = xor i64 %166, %147
  %168 = getelementptr inbounds %"class.downloads::mojom::Data", %"class.downloads::mojom::Data"* %0, i64 0, i32 13
  %169 = bitcast %"class.std::__1::basic_string"* %168 to %"struct.std::__1::basic_string<char, std::__1::char_traits<char>, std::__1::allocator<char> >::__short"*
  %170 = getelementptr inbounds %"struct.std::__1::basic_string<char, std::__1::char_traits<char>, std::__1::allocator<char> >::__short", %"struct.std::__1::basic_string<char, std::__1::char_traits<char>, std::__1::allocator<char> >::__short"* %169, i64 0, i32 1, i32 0
  %171 = load i8, i8* %170, align 1
  %172 = icmp slt i8 %171, 0
  %173 = getelementptr inbounds %"class.std::__1::basic_string", %"class.std::__1::basic_string"* %168, i64 0, i32 0, i32 0, i32 0, i32 0, i32 0, i32 0
  %174 = load i8*, i8** %173, align 8
  %175 = getelementptr inbounds %"class.downloads::mojom::Data", %"class.downloads::mojom::Data"* %0, i64 0, i32 13, i32 0, i32 0, i32 0, i32 0, i32 0, i32 1
  %176 = load i64, i64* %175, align 8
  %177 = bitcast %"class.std::__1::basic_string"* %168 to i8*
  %178 = zext i8 %171 to i64
  %179 = select i1 %172, i8* %174, i8* %177
  %180 = select i1 %172, i64 %176, i64 %178
  %181 = getelementptr inbounds %"struct.std::__1::__murmur2_or_cityhash", %"struct.std::__1::__murmur2_or_cityhash"* %7, i64 0, i32 0
  call void @llvm.lifetime.start.p0i8(i64 1, i8* nonnull %181) #9
  %182 = call i64 @_ZNSt3__121__murmur2_or_cityhashImLm64EEclEPKvm(%"struct.std::__1::__murmur2_or_cityhash"* nonnull %7, i8* %179, i64 %180) #9
  call void @llvm.lifetime.end.p0i8(i64 1, i8* nonnull %181) #9
  %183 = shl i64 %167, 6
  %184 = lshr i64 %167, 2
  %185 = add i64 %183, %182
  %186 = add i64 %185, %184
  %187 = xor i64 %186, %167
  %188 = getelementptr inbounds %"class.downloads::mojom::Data", %"class.downloads::mojom::Data"* %0, i64 0, i32 14
  %189 = bitcast %"class.std::__1::basic_string"* %188 to %"struct.std::__1::basic_string<char, std::__1::char_traits<char>, std::__1::allocator<char> >::__short"*
  %190 = getelementptr inbounds %"struct.std::__1::basic_string<char, std::__1::char_traits<char>, std::__1::allocator<char> >::__short", %"struct.std::__1::basic_string<char, std::__1::char_traits<char>, std::__1::allocator<char> >::__short"* %189, i64 0, i32 1, i32 0
  %191 = load i8, i8* %190, align 1
  %192 = icmp slt i8 %191, 0
  %193 = getelementptr inbounds %"class.std::__1::basic_string", %"class.std::__1::basic_string"* %188, i64 0, i32 0, i32 0, i32 0, i32 0, i32 0, i32 0
  %194 = load i8*, i8** %193, align 8
  %195 = getelementptr inbounds %"class.downloads::mojom::Data", %"class.downloads::mojom::Data"* %0, i64 0, i32 14, i32 0, i32 0, i32 0, i32 0, i32 0, i32 1
  %196 = load i64, i64* %195, align 8
  %197 = bitcast %"class.std::__1::basic_string"* %188 to i8*
  %198 = zext i8 %191 to i64
  %199 = select i1 %192, i8* %194, i8* %197
  %200 = select i1 %192, i64 %196, i64 %198
  %201 = getelementptr inbounds %"struct.std::__1::__murmur2_or_cityhash", %"struct.std::__1::__murmur2_or_cityhash"* %8, i64 0, i32 0
  call void @llvm.lifetime.start.p0i8(i64 1, i8* nonnull %201) #9
  %202 = call i64 @_ZNSt3__121__murmur2_or_cityhashImLm64EEclEPKvm(%"struct.std::__1::__murmur2_or_cityhash"* nonnull %8, i8* %199, i64 %200) #9
  call void @llvm.lifetime.end.p0i8(i64 1, i8* nonnull %201) #9
  %203 = shl i64 %187, 6
  %204 = lshr i64 %187, 2
  %205 = add i64 %203, %202
  %206 = add i64 %205, %204
  %207 = xor i64 %206, %187
  %208 = getelementptr inbounds %"class.downloads::mojom::Data", %"class.downloads::mojom::Data"* %0, i64 0, i32 15
  %209 = bitcast %"class.std::__1::basic_string"* %208 to %"struct.std::__1::basic_string<char, std::__1::char_traits<char>, std::__1::allocator<char> >::__short"*
  %210 = getelementptr inbounds %"struct.std::__1::basic_string<char, std::__1::char_traits<char>, std::__1::allocator<char> >::__short", %"struct.std::__1::basic_string<char, std::__1::char_traits<char>, std::__1::allocator<char> >::__short"* %209, i64 0, i32 1, i32 0
  %211 = load i8, i8* %210, align 1
  %212 = icmp slt i8 %211, 0
  %213 = getelementptr inbounds %"class.std::__1::basic_string", %"class.std::__1::basic_string"* %208, i64 0, i32 0, i32 0, i32 0, i32 0, i32 0, i32 0
  %214 = load i8*, i8** %213, align 8
  %215 = getelementptr inbounds %"class.downloads::mojom::Data", %"class.downloads::mojom::Data"* %0, i64 0, i32 15, i32 0, i32 0, i32 0, i32 0, i32 0, i32 1
  %216 = load i64, i64* %215, align 8
  %217 = bitcast %"class.std::__1::basic_string"* %208 to i8*
  %218 = zext i8 %211 to i64
  %219 = select i1 %212, i8* %214, i8* %217
  %220 = select i1 %212, i64 %216, i64 %218
  %221 = getelementptr inbounds %"struct.std::__1::__murmur2_or_cityhash", %"struct.std::__1::__murmur2_or_cityhash"* %9, i64 0, i32 0
  call void @llvm.lifetime.start.p0i8(i64 1, i8* nonnull %221) #9
  %222 = call i64 @_ZNSt3__121__murmur2_or_cityhashImLm64EEclEPKvm(%"struct.std::__1::__murmur2_or_cityhash"* nonnull %9, i8* %219, i64 %220) #9
  call void @llvm.lifetime.end.p0i8(i64 1, i8* nonnull %221) #9
  %223 = shl i64 %207, 6
  %224 = lshr i64 %207, 2
  %225 = add i64 %223, %222
  %226 = add i64 %225, %224
  %227 = xor i64 %226, %207
  %228 = getelementptr inbounds %"class.downloads::mojom::Data", %"class.downloads::mojom::Data"* %0, i64 0, i32 16
  %229 = bitcast %"class.std::__1::basic_string"* %228 to %"struct.std::__1::basic_string<char, std::__1::char_traits<char>, std::__1::allocator<char> >::__short"*
  %230 = getelementptr inbounds %"struct.std::__1::basic_string<char, std::__1::char_traits<char>, std::__1::allocator<char> >::__short", %"struct.std::__1::basic_string<char, std::__1::char_traits<char>, std::__1::allocator<char> >::__short"* %229, i64 0, i32 1, i32 0
  %231 = load i8, i8* %230, align 1
  %232 = icmp slt i8 %231, 0
  %233 = getelementptr inbounds %"class.std::__1::basic_string", %"class.std::__1::basic_string"* %228, i64 0, i32 0, i32 0, i32 0, i32 0, i32 0, i32 0
  %234 = load i8*, i8** %233, align 8
  %235 = getelementptr inbounds %"class.downloads::mojom::Data", %"class.downloads::mojom::Data"* %0, i64 0, i32 16, i32 0, i32 0, i32 0, i32 0, i32 0, i32 1
  %236 = load i64, i64* %235, align 8
  %237 = bitcast %"class.std::__1::basic_string"* %228 to i8*
  %238 = zext i8 %231 to i64
  %239 = select i1 %232, i8* %234, i8* %237
  %240 = select i1 %232, i64 %236, i64 %238
  %241 = getelementptr inbounds %"struct.std::__1::__murmur2_or_cityhash", %"struct.std::__1::__murmur2_or_cityhash"* %10, i64 0, i32 0
  call void @llvm.lifetime.start.p0i8(i64 1, i8* nonnull %241) #9
  %242 = call i64 @_ZNSt3__121__murmur2_or_cityhashImLm64EEclEPKvm(%"struct.std::__1::__murmur2_or_cityhash"* nonnull %10, i8* %239, i64 %240) #9
  call void @llvm.lifetime.end.p0i8(i64 1, i8* nonnull %241) #9
  %243 = shl i64 %227, 6
  %244 = lshr i64 %227, 2
  %245 = add i64 %243, %242
  %246 = add i64 %245, %244
  %247 = xor i64 %246, %227
  %248 = getelementptr inbounds %"class.downloads::mojom::Data", %"class.downloads::mojom::Data"* %0, i64 0, i32 17
  %249 = bitcast %"class.std::__1::basic_string"* %248 to %"struct.std::__1::basic_string<char, std::__1::char_traits<char>, std::__1::allocator<char> >::__short"*
  %250 = getelementptr inbounds %"struct.std::__1::basic_string<char, std::__1::char_traits<char>, std::__1::allocator<char> >::__short", %"struct.std::__1::basic_string<char, std::__1::char_traits<char>, std::__1::allocator<char> >::__short"* %249, i64 0, i32 1, i32 0
  %251 = load i8, i8* %250, align 1
  %252 = icmp slt i8 %251, 0
  %253 = getelementptr inbounds %"class.std::__1::basic_string", %"class.std::__1::basic_string"* %248, i64 0, i32 0, i32 0, i32 0, i32 0, i32 0, i32 0
  %254 = load i8*, i8** %253, align 8
  %255 = getelementptr inbounds %"class.downloads::mojom::Data", %"class.downloads::mojom::Data"* %0, i64 0, i32 17, i32 0, i32 0, i32 0, i32 0, i32 0, i32 1
  %256 = load i64, i64* %255, align 8
  %257 = bitcast %"class.std::__1::basic_string"* %248 to i8*
  %258 = zext i8 %251 to i64
  %259 = select i1 %252, i8* %254, i8* %257
  %260 = select i1 %252, i64 %256, i64 %258
  %261 = getelementptr inbounds %"struct.std::__1::__murmur2_or_cityhash", %"struct.std::__1::__murmur2_or_cityhash"* %11, i64 0, i32 0
  call void @llvm.lifetime.start.p0i8(i64 1, i8* nonnull %261) #9
  %262 = call i64 @_ZNSt3__121__murmur2_or_cityhashImLm64EEclEPKvm(%"struct.std::__1::__murmur2_or_cityhash"* nonnull %11, i8* %259, i64 %260) #9
  call void @llvm.lifetime.end.p0i8(i64 1, i8* nonnull %261) #9
  %263 = shl i64 %247, 6
  %264 = lshr i64 %247, 2
  %265 = add i64 %263, %262
  %266 = add i64 %265, %264
  %267 = xor i64 %266, %247
  %268 = getelementptr inbounds %"class.downloads::mojom::Data", %"class.downloads::mojom::Data"* %0, i64 0, i32 18
  %269 = bitcast %"class.std::__1::basic_string"* %268 to %"struct.std::__1::basic_string<char, std::__1::char_traits<char>, std::__1::allocator<char> >::__short"*
  %270 = getelementptr inbounds %"struct.std::__1::basic_string<char, std::__1::char_traits<char>, std::__1::allocator<char> >::__short", %"struct.std::__1::basic_string<char, std::__1::char_traits<char>, std::__1::allocator<char> >::__short"* %269, i64 0, i32 1, i32 0
  %271 = load i8, i8* %270, align 1
  %272 = icmp slt i8 %271, 0
  %273 = getelementptr inbounds %"class.std::__1::basic_string", %"class.std::__1::basic_string"* %268, i64 0, i32 0, i32 0, i32 0, i32 0, i32 0, i32 0
  %274 = load i8*, i8** %273, align 8
  %275 = getelementptr inbounds %"class.downloads::mojom::Data", %"class.downloads::mojom::Data"* %0, i64 0, i32 18, i32 0, i32 0, i32 0, i32 0, i32 0, i32 1
  %276 = load i64, i64* %275, align 8
  %277 = bitcast %"class.std::__1::basic_string"* %268 to i8*
  %278 = zext i8 %271 to i64
  %279 = select i1 %272, i8* %274, i8* %277
  %280 = select i1 %272, i64 %276, i64 %278
  %281 = getelementptr inbounds %"struct.std::__1::__murmur2_or_cityhash", %"struct.std::__1::__murmur2_or_cityhash"* %12, i64 0, i32 0
  call void @llvm.lifetime.start.p0i8(i64 1, i8* nonnull %281) #9
  %282 = call i64 @_ZNSt3__121__murmur2_or_cityhashImLm64EEclEPKvm(%"struct.std::__1::__murmur2_or_cityhash"* nonnull %12, i8* %279, i64 %280) #9
  call void @llvm.lifetime.end.p0i8(i64 1, i8* nonnull %281) #9
  %283 = shl i64 %267, 6
  %284 = lshr i64 %267, 2
  %285 = add i64 %283, %282
  %286 = add i64 %285, %284
  %287 = xor i64 %286, %267
  %288 = getelementptr inbounds %"class.downloads::mojom::Data", %"class.downloads::mojom::Data"* %0, i64 0, i32 19
  %289 = bitcast %"class.std::__1::basic_string"* %288 to %"struct.std::__1::basic_string<char, std::__1::char_traits<char>, std::__1::allocator<char> >::__short"*
  %290 = getelementptr inbounds %"struct.std::__1::basic_string<char, std::__1::char_traits<char>, std::__1::allocator<char> >::__short", %"struct.std::__1::basic_string<char, std::__1::char_traits<char>, std::__1::allocator<char> >::__short"* %289, i64 0, i32 1, i32 0
  %291 = load i8, i8* %290, align 1
  %292 = icmp slt i8 %291, 0
  %293 = getelementptr inbounds %"class.std::__1::basic_string", %"class.std::__1::basic_string"* %288, i64 0, i32 0, i32 0, i32 0, i32 0, i32 0, i32 0
  %294 = load i8*, i8** %293, align 8
  %295 = getelementptr inbounds %"class.downloads::mojom::Data", %"class.downloads::mojom::Data"* %0, i64 0, i32 19, i32 0, i32 0, i32 0, i32 0, i32 0, i32 1
  %296 = load i64, i64* %295, align 8
  %297 = bitcast %"class.std::__1::basic_string"* %288 to i8*
  %298 = zext i8 %291 to i64
  %299 = select i1 %292, i8* %294, i8* %297
  %300 = select i1 %292, i64 %296, i64 %298
  %301 = getelementptr inbounds %"struct.std::__1::__murmur2_or_cityhash", %"struct.std::__1::__murmur2_or_cityhash"* %13, i64 0, i32 0
  call void @llvm.lifetime.start.p0i8(i64 1, i8* nonnull %301) #9
  %302 = call i64 @_ZNSt3__121__murmur2_or_cityhashImLm64EEclEPKvm(%"struct.std::__1::__murmur2_or_cityhash"* nonnull %13, i8* %299, i64 %300) #9
  call void @llvm.lifetime.end.p0i8(i64 1, i8* nonnull %301) #9
  %303 = shl i64 %287, 6
  %304 = lshr i64 %287, 2
  %305 = add i64 %303, %302
  %306 = add i64 %305, %304
  %307 = xor i64 %306, %287
  %308 = getelementptr inbounds %"class.downloads::mojom::Data", %"class.downloads::mojom::Data"* %0, i64 0, i32 20
  %309 = bitcast %"class.std::__1::basic_string"* %308 to %"struct.std::__1::basic_string<char, std::__1::char_traits<char>, std::__1::allocator<char> >::__short"*
  %310 = getelementptr inbounds %"struct.std::__1::basic_string<char, std::__1::char_traits<char>, std::__1::allocator<char> >::__short", %"struct.std::__1::basic_string<char, std::__1::char_traits<char>, std::__1::allocator<char> >::__short"* %309, i64 0, i32 1, i32 0
  %311 = load i8, i8* %310, align 1
  %312 = icmp slt i8 %311, 0
  %313 = getelementptr inbounds %"class.std::__1::basic_string", %"class.std::__1::basic_string"* %308, i64 0, i32 0, i32 0, i32 0, i32 0, i32 0, i32 0
  %314 = load i8*, i8** %313, align 8
  %315 = getelementptr inbounds %"class.downloads::mojom::Data", %"class.downloads::mojom::Data"* %0, i64 0, i32 20, i32 0, i32 0, i32 0, i32 0, i32 0, i32 1
  %316 = load i64, i64* %315, align 8
  %317 = bitcast %"class.std::__1::basic_string"* %308 to i8*
  %318 = zext i8 %311 to i64
  %319 = select i1 %312, i8* %314, i8* %317
  %320 = select i1 %312, i64 %316, i64 %318
  %321 = getelementptr inbounds %"struct.std::__1::__murmur2_or_cityhash", %"struct.std::__1::__murmur2_or_cityhash"* %14, i64 0, i32 0
  call void @llvm.lifetime.start.p0i8(i64 1, i8* nonnull %321) #9
  %322 = call i64 @_ZNSt3__121__murmur2_or_cityhashImLm64EEclEPKvm(%"struct.std::__1::__murmur2_or_cityhash"* nonnull %14, i8* %319, i64 %320) #9
  call void @llvm.lifetime.end.p0i8(i64 1, i8* nonnull %321) #9
  %323 = shl i64 %307, 6
  %324 = lshr i64 %307, 2
  %325 = add i64 %323, %322
  %326 = add i64 %325, %324
  %327 = xor i64 %326, %307
  %328 = getelementptr inbounds %"class.downloads::mojom::Data", %"class.downloads::mojom::Data"* %0, i64 0, i32 21
  %329 = bitcast %"class.std::__1::basic_string"* %328 to %"struct.std::__1::basic_string<char, std::__1::char_traits<char>, std::__1::allocator<char> >::__short"*
  %330 = getelementptr inbounds %"struct.std::__1::basic_string<char, std::__1::char_traits<char>, std::__1::allocator<char> >::__short", %"struct.std::__1::basic_string<char, std::__1::char_traits<char>, std::__1::allocator<char> >::__short"* %329, i64 0, i32 1, i32 0
  %331 = load i8, i8* %330, align 1
  %332 = icmp slt i8 %331, 0
  %333 = getelementptr inbounds %"class.std::__1::basic_string", %"class.std::__1::basic_string"* %328, i64 0, i32 0, i32 0, i32 0, i32 0, i32 0, i32 0
  %334 = load i8*, i8** %333, align 8
  %335 = getelementptr inbounds %"class.downloads::mojom::Data", %"class.downloads::mojom::Data"* %0, i64 0, i32 21, i32 0, i32 0, i32 0, i32 0, i32 0, i32 1
  %336 = load i64, i64* %335, align 8
  %337 = bitcast %"class.std::__1::basic_string"* %328 to i8*
  %338 = zext i8 %331 to i64
  %339 = select i1 %332, i8* %334, i8* %337
  %340 = select i1 %332, i64 %336, i64 %338
  %341 = getelementptr inbounds %"struct.std::__1::__murmur2_or_cityhash", %"struct.std::__1::__murmur2_or_cityhash"* %15, i64 0, i32 0
  call void @llvm.lifetime.start.p0i8(i64 1, i8* nonnull %341) #9
  %342 = call i64 @_ZNSt3__121__murmur2_or_cityhashImLm64EEclEPKvm(%"struct.std::__1::__murmur2_or_cityhash"* nonnull %15, i8* %339, i64 %340) #9
  call void @llvm.lifetime.end.p0i8(i64 1, i8* nonnull %341) #9
  %343 = shl i64 %327, 6
  %344 = lshr i64 %327, 2
  %345 = add i64 %344, %343
  %346 = add i64 %345, %342
  %347 = xor i64 %346, %327
  ret i64 %347
}

; Function Attrs: nounwind ssp uwtable
define hidden void @_ZNK9downloads5mojom4Data14WriteIntoTraceEN8perfetto11TracedValueE(%"class.downloads::mojom::Data"*, %"class.perfetto::TracedValue"*) local_unnamed_addr #0 align 2 {
  %3 = alloca %"class.perfetto::TracedValue", align 8
  %4 = alloca %"class.perfetto::TracedValue", align 8
  %5 = alloca %"class.perfetto::TracedValue", align 8
  %6 = alloca %"class.perfetto::TracedValue", align 8
  %7 = alloca %"class.perfetto::TracedValue", align 8
  %8 = alloca %"class.perfetto::TracedValue", align 8
  %9 = alloca %"class.perfetto::TracedValue", align 8
  %10 = alloca %"class.perfetto::TracedValue", align 8
  %11 = alloca %"class.perfetto::TracedValue", align 8
  %12 = alloca %"class.perfetto::TracedValue", align 8
  %13 = alloca %"class.perfetto::TracedValue", align 8
  %14 = alloca %"class.perfetto::TracedValue", align 8
  %15 = alloca %"class.perfetto::TracedValue", align 8
  %16 = alloca %"class.perfetto::TracedValue", align 8
  %17 = alloca %"class.perfetto::TracedValue", align 8
  %18 = alloca %"class.perfetto::TracedValue", align 8
  %19 = alloca %"class.perfetto::TracedValue", align 8
  %20 = alloca %"class.perfetto::TracedValue", align 8
  %21 = alloca %"class.perfetto::TracedValue", align 8
  %22 = alloca %"class.perfetto::TracedValue", align 8
  %23 = alloca %"class.perfetto::TracedValue", align 8
  %24 = alloca %"class.perfetto::TracedValue", align 8
  %25 = alloca %"class.perfetto::TracedDictionary", align 8
  %26 = alloca %"class.perfetto::TracedValue", align 8
  %27 = alloca %"class.perfetto::TracedValue", align 8
  %28 = alloca %"class.perfetto::TracedValue", align 8
  %29 = alloca %"class.perfetto::TracedValue", align 8
  %30 = alloca %"class.perfetto::TracedValue", align 8
  %31 = alloca %"class.perfetto::TracedValue", align 8
  %32 = alloca %"class.perfetto::TracedValue", align 8
  %33 = alloca %"class.perfetto::TracedValue", align 8
  %34 = alloca %"class.perfetto::TracedValue", align 8
  %35 = alloca %"class.perfetto::TracedValue", align 8
  %36 = alloca %"class.perfetto::TracedValue", align 8
  %37 = alloca %"class.perfetto::TracedValue", align 8
  %38 = alloca %"class.perfetto::TracedValue", align 8
  %39 = alloca %"class.perfetto::TracedValue", align 8
  %40 = alloca %"class.perfetto::TracedValue", align 8
  %41 = alloca %"class.perfetto::TracedValue", align 8
  %42 = alloca %"class.perfetto::TracedValue", align 8
  %43 = alloca %"class.perfetto::TracedValue", align 8
  %44 = alloca %"class.perfetto::TracedValue", align 8
  %45 = alloca %"class.perfetto::TracedValue", align 8
  %46 = alloca %"class.perfetto::TracedValue", align 8
  %47 = alloca %"class.perfetto::TracedValue", align 8
  %48 = bitcast %"class.perfetto::TracedDictionary"* %25 to i8*
  call void @llvm.lifetime.start.p0i8(i64 16, i8* nonnull %48) #9
  %49 = bitcast %"class.perfetto::TracedDictionary"* %25 to i8*
  call void @llvm.memset.p0i8.i64(i8* nonnull align 8 %49, i8 -86, i64 16, i1 false)
  call void @_ZNO8perfetto11TracedValue15WriteDictionaryEv(%"class.perfetto::TracedDictionary"* nonnull sret %25, %"class.perfetto::TracedValue"* %1) #9
  call void @_ZN8perfetto16TracedDictionary7AddItemENS_12StaticStringE(%"class.perfetto::TracedValue"* nonnull sret %26, %"class.perfetto::TracedDictionary"* nonnull %25, i8* getelementptr inbounds ([24 x i8], [24 x i8]* @.str, i64 0, i64 0)) #9
  %50 = getelementptr inbounds %"class.downloads::mojom::Data", %"class.downloads::mojom::Data"* %0, i64 0, i32 0
  %51 = bitcast %"class.perfetto::TracedValue"* %26 to i8*
  %52 = bitcast %"class.perfetto::TracedValue"* %23 to i8*
  call void @llvm.lifetime.start.p0i8(i64 16, i8* nonnull %52) #9
  call void @llvm.memcpy.p0i8.p0i8.i64(i8* nonnull align 8 %52, i8* nonnull align 8 %51, i64 16, i1 false) #9
  %53 = load i8, i8* %50, align 1, !range !2
  %54 = icmp ne i8 %53, 0
  call void @_ZNO8perfetto11TracedValue12WriteBooleanEb(%"class.perfetto::TracedValue"* nonnull %23, i1 zeroext %54) #9
  call void @llvm.lifetime.end.p0i8(i64 16, i8* nonnull %52) #9
  call void @_ZN8perfetto16TracedDictionary7AddItemENS_12StaticStringE(%"class.perfetto::TracedValue"* nonnull sret %27, %"class.perfetto::TracedDictionary"* nonnull %25, i8* getelementptr inbounds ([13 x i8], [13 x i8]* @.str.2, i64 0, i64 0)) #9
  %55 = getelementptr inbounds %"class.downloads::mojom::Data", %"class.downloads::mojom::Data"* %0, i64 0, i32 1
  %56 = bitcast %"class.perfetto::TracedValue"* %27 to i8*
  %57 = bitcast %"class.perfetto::TracedValue"* %22 to i8*
  call void @llvm.lifetime.start.p0i8(i64 16, i8* nonnull %57) #9
  call void @llvm.memcpy.p0i8.p0i8.i64(i8* nonnull align 8 %57, i8* nonnull align 8 %56, i64 16, i1 false) #9
  %58 = load i8, i8* %55, align 1, !range !2
  %59 = icmp ne i8 %58, 0
  call void @_ZNO8perfetto11TracedValue12WriteBooleanEb(%"class.perfetto::TracedValue"* nonnull %22, i1 zeroext %59) #9
  call void @llvm.lifetime.end.p0i8(i64 16, i8* nonnull %57) #9
  call void @_ZN8perfetto16TracedDictionary7AddItemENS_12StaticStringE(%"class.perfetto::TracedValue"* nonnull sret %28, %"class.perfetto::TracedDictionary"* nonnull %25, i8* getelementptr inbounds ([17 x i8], [17 x i8]* @.str.3, i64 0, i64 0)) #9
  %60 = getelementptr inbounds %"class.downloads::mojom::Data", %"class.downloads::mojom::Data"* %0, i64 0, i32 2
  %61 = bitcast %"class.perfetto::TracedValue"* %28 to i8*
  %62 = bitcast %"class.perfetto::TracedValue"* %21 to i8*
  call void @llvm.lifetime.start.p0i8(i64 16, i8* nonnull %62) #9
  call void @llvm.memcpy.p0i8.p0i8.i64(i8* nonnull align 8 %62, i8* nonnull align 8 %61, i64 16, i1 false) #9
  %63 = load i8, i8* %60, align 1, !range !2
  %64 = icmp ne i8 %63, 0
  call void @_ZNO8perfetto11TracedValue12WriteBooleanEb(%"class.perfetto::TracedValue"* nonnull %21, i1 zeroext %64) #9
  call void @llvm.lifetime.end.p0i8(i64 16, i8* nonnull %62) #9
  call void @_ZN8perfetto16TracedDictionary7AddItemENS_12StaticStringE(%"class.perfetto::TracedValue"* nonnull sret %29, %"class.perfetto::TracedDictionary"* nonnull %25, i8* getelementptr inbounds ([4 x i8], [4 x i8]* @.str.4, i64 0, i64 0)) #9
  %65 = getelementptr inbounds %"class.downloads::mojom::Data", %"class.downloads::mojom::Data"* %0, i64 0, i32 3
  %66 = bitcast %"class.perfetto::TracedValue"* %29 to i8*
  %67 = bitcast %"class.perfetto::TracedValue"* %20 to i8*
  call void @llvm.lifetime.start.p0i8(i64 16, i8* nonnull %67) #9
  call void @llvm.memcpy.p0i8.p0i8.i64(i8* nonnull align 8 %67, i8* nonnull align 8 %66, i64 16, i1 false) #9
  %68 = load i8, i8* %65, align 1, !range !2
  %69 = icmp ne i8 %68, 0
  call void @_ZNO8perfetto11TracedValue12WriteBooleanEb(%"class.perfetto::TracedValue"* nonnull %20, i1 zeroext %69) #9
  call void @llvm.lifetime.end.p0i8(i64 16, i8* nonnull %67) #9
  call void @_ZN8perfetto16TracedDictionary7AddItemENS_12StaticStringE(%"class.perfetto::TracedValue"* nonnull sret %30, %"class.perfetto::TracedDictionary"* nonnull %25, i8* getelementptr inbounds ([7 x i8], [7 x i8]* @.str.5, i64 0, i64 0)) #9
  %70 = getelementptr inbounds %"class.downloads::mojom::Data", %"class.downloads::mojom::Data"* %0, i64 0, i32 4
  %71 = bitcast %"class.perfetto::TracedValue"* %30 to i8*
  %72 = bitcast %"class.perfetto::TracedValue"* %19 to i8*
  call void @llvm.lifetime.start.p0i8(i64 16, i8* nonnull %72) #9
  call void @llvm.memcpy.p0i8.p0i8.i64(i8* nonnull align 8 %72, i8* nonnull align 8 %71, i64 16, i1 false) #9
  %73 = load i8, i8* %70, align 1, !range !2
  %74 = icmp ne i8 %73, 0
  call void @_ZNO8perfetto11TracedValue12WriteBooleanEb(%"class.perfetto::TracedValue"* nonnull %19, i1 zeroext %74) #9
  call void @llvm.lifetime.end.p0i8(i64 16, i8* nonnull %72) #9
  call void @_ZN8perfetto16TracedDictionary7AddItemENS_12StaticStringE(%"class.perfetto::TracedValue"* nonnull sret %31, %"class.perfetto::TracedDictionary"* nonnull %25, i8* getelementptr inbounds ([6 x i8], [6 x i8]* @.str.6, i64 0, i64 0)) #9
  %75 = getelementptr inbounds %"class.downloads::mojom::Data", %"class.downloads::mojom::Data"* %0, i64 0, i32 5
  %76 = bitcast %"class.perfetto::TracedValue"* %31 to i8*
  %77 = bitcast %"class.perfetto::TracedValue"* %18 to i8*
  call void @llvm.lifetime.start.p0i8(i64 16, i8* nonnull %77) #9
  call void @llvm.memcpy.p0i8.p0i8.i64(i8* nonnull align 8 %77, i8* nonnull align 8 %76, i64 16, i1 false) #9
  %78 = load i8, i8* %75, align 1, !range !2
  %79 = icmp ne i8 %78, 0
  call void @_ZNO8perfetto11TracedValue12WriteBooleanEb(%"class.perfetto::TracedValue"* nonnull %18, i1 zeroext %79) #9
  call void @llvm.lifetime.end.p0i8(i64 16, i8* nonnull %77) #9
  call void @_ZN8perfetto16TracedDictionary7AddItemENS_12StaticStringE(%"class.perfetto::TracedValue"* nonnull sret %32, %"class.perfetto::TracedDictionary"* nonnull %25, i8* getelementptr inbounds ([8 x i8], [8 x i8]* @.str.7, i64 0, i64 0)) #9
  %80 = getelementptr inbounds %"class.downloads::mojom::Data", %"class.downloads::mojom::Data"* %0, i64 0, i32 6
  %81 = bitcast %"class.perfetto::TracedValue"* %32 to i8*
  %82 = bitcast %"class.perfetto::TracedValue"* %17 to i8*
  call void @llvm.lifetime.start.p0i8(i64 16, i8* nonnull %82) #9
  call void @llvm.memcpy.p0i8.p0i8.i64(i8* nonnull align 8 %82, i8* nonnull align 8 %81, i64 16, i1 false) #9
  %83 = load i32, i32* %80, align 4
  %84 = sext i32 %83 to i64
  call void @_ZNO8perfetto11TracedValue10WriteInt64El(%"class.perfetto::TracedValue"* nonnull %17, i64 %84) #9
  call void @llvm.lifetime.end.p0i8(i64 16, i8* nonnull %82) #9
  call void @_ZN8perfetto16TracedDictionary7AddItemENS_12StaticStringE(%"class.perfetto::TracedValue"* nonnull sret %33, %"class.perfetto::TracedDictionary"* nonnull %25, i8* getelementptr inbounds ([8 x i8], [8 x i8]* @.str.8, i64 0, i64 0)) #9
  %85 = getelementptr inbounds %"class.downloads::mojom::Data", %"class.downloads::mojom::Data"* %0, i64 0, i32 7
  %86 = bitcast %"class.perfetto::TracedValue"* %33 to i8*
  %87 = bitcast %"class.perfetto::TracedValue"* %16 to i8*
  call void @llvm.lifetime.start.p0i8(i64 16, i8* nonnull %87) #9
  call void @llvm.memcpy.p0i8.p0i8.i64(i8* nonnull align 8 %87, i8* nonnull align 8 %86, i64 16, i1 false) #9
  %88 = load i32, i32* %85, align 4
  %89 = sext i32 %88 to i64
  call void @_ZNO8perfetto11TracedValue10WriteInt64El(%"class.perfetto::TracedValue"* nonnull %16, i64 %89) #9
  call void @llvm.lifetime.end.p0i8(i64 16, i8* nonnull %87) #9
  call void @_ZN8perfetto16TracedDictionary7AddItemENS_12StaticStringE(%"class.perfetto::TracedValue"* nonnull sret %34, %"class.perfetto::TracedDictionary"* nonnull %25, i8* getelementptr inbounds ([6 x i8], [6 x i8]* @.str.9, i64 0, i64 0)) #9
  %90 = getelementptr inbounds %"class.downloads::mojom::Data", %"class.downloads::mojom::Data"* %0, i64 0, i32 8
  %91 = bitcast %"class.perfetto::TracedValue"* %34 to i8*
  %92 = bitcast %"class.perfetto::TracedValue"* %15 to i8*
  call void @llvm.lifetime.start.p0i8(i64 16, i8* nonnull %92) #9
  call void @llvm.memcpy.p0i8.p0i8.i64(i8* nonnull align 8 %92, i8* nonnull align 8 %91, i64 16, i1 false) #9
  %93 = load i32, i32* %90, align 4
  %94 = sext i32 %93 to i64
  call void @_ZNO8perfetto11TracedValue10WriteInt64El(%"class.perfetto::TracedValue"* nonnull %15, i64 %94) #9
  call void @llvm.lifetime.end.p0i8(i64 16, i8* nonnull %92) #9
  call void @_ZN8perfetto16TracedDictionary7AddItemENS_12StaticStringE(%"class.perfetto::TracedValue"* nonnull sret %35, %"class.perfetto::TracedDictionary"* nonnull %25, i8* getelementptr inbounds ([10 x i8], [10 x i8]* @.str.10, i64 0, i64 0)) #9
  %95 = getelementptr inbounds %"class.downloads::mojom::Data", %"class.downloads::mojom::Data"* %0, i64 0, i32 9
  %96 = bitcast %"class.perfetto::TracedValue"* %35 to i8*
  %97 = bitcast %"class.perfetto::TracedValue"* %14 to i8*
  call void @llvm.lifetime.start.p0i8(i64 16, i8* nonnull %97) #9
  call void @llvm.memcpy.p0i8.p0i8.i64(i8* nonnull align 8 %97, i8* nonnull align 8 %96, i64 16, i1 false) #9
  call void @_ZNO8perfetto11TracedValue11WriteStringERKNSt3__112basic_stringIcNS1_11char_traitsIcEENS1_9allocatorIcEEEE(%"class.perfetto::TracedValue"* nonnull %14, %"class.std::__1::basic_string"* dereferenceable(24) %95) #9
  call void @llvm.lifetime.end.p0i8(i64 16, i8* nonnull %97) #9
  call void @_ZN8perfetto16TracedDictionary7AddItemENS_12StaticStringE(%"class.perfetto::TracedValue"* nonnull sret %36, %"class.perfetto::TracedDictionary"* nonnull %25, i8* getelementptr inbounds ([12 x i8], [12 x i8]* @.str.11, i64 0, i64 0)) #9
  %98 = getelementptr inbounds %"class.downloads::mojom::Data", %"class.downloads::mojom::Data"* %0, i64 0, i32 10
  %99 = bitcast %"class.perfetto::TracedValue"* %36 to i8*
  %100 = bitcast %"class.perfetto::TracedValue"* %13 to i8*
  call void @llvm.lifetime.start.p0i8(i64 16, i8* nonnull %100) #9
  call void @llvm.memcpy.p0i8.p0i8.i64(i8* nonnull align 8 %100, i8* nonnull align 8 %99, i64 16, i1 false) #9
  call void @_ZNO8perfetto11TracedValue11WriteStringERKNSt3__112basic_stringIcNS1_11char_traitsIcEENS1_9allocatorIcEEEE(%"class.perfetto::TracedValue"* nonnull %13, %"class.std::__1::basic_string"* dereferenceable(24) %98) #9
  call void @llvm.lifetime.end.p0i8(i64 16, i8* nonnull %100) #9
  call void @_ZN8perfetto16TracedDictionary7AddItemENS_12StaticStringE(%"class.perfetto::TracedValue"* nonnull sret %37, %"class.perfetto::TracedDictionary"* nonnull %25, i8* getelementptr inbounds ([12 x i8], [12 x i8]* @.str.12, i64 0, i64 0)) #9
  %101 = getelementptr inbounds %"class.downloads::mojom::Data", %"class.downloads::mojom::Data"* %0, i64 0, i32 11
  %102 = bitcast %"class.perfetto::TracedValue"* %37 to i8*
  %103 = bitcast %"class.perfetto::TracedValue"* %12 to i8*
  call void @llvm.lifetime.start.p0i8(i64 16, i8* nonnull %103) #9
  call void @llvm.memcpy.p0i8.p0i8.i64(i8* nonnull align 8 %103, i8* nonnull align 8 %102, i64 16, i1 false) #9
  call void @_ZNO8perfetto11TracedValue11WriteStringERKNSt3__112basic_stringIcNS1_11char_traitsIcEENS1_9allocatorIcEEEE(%"class.perfetto::TracedValue"* nonnull %12, %"class.std::__1::basic_string"* dereferenceable(24) %101) #9
  call void @llvm.lifetime.end.p0i8(i64 16, i8* nonnull %103) #9
  call void @_ZN8perfetto16TracedDictionary7AddItemENS_12StaticStringE(%"class.perfetto::TracedValue"* nonnull sret %38, %"class.perfetto::TracedDictionary"* nonnull %25, i8* getelementptr inbounds ([12 x i8], [12 x i8]* @.str.13, i64 0, i64 0)) #9
  %104 = getelementptr inbounds %"class.downloads::mojom::Data", %"class.downloads::mojom::Data"* %0, i64 0, i32 12
  %105 = bitcast %"class.perfetto::TracedValue"* %38 to i8*
  %106 = bitcast %"class.perfetto::TracedValue"* %11 to i8*
  call void @llvm.lifetime.start.p0i8(i64 16, i8* nonnull %106) #9
  call void @llvm.memcpy.p0i8.p0i8.i64(i8* nonnull align 8 %106, i8* nonnull align 8 %105, i64 16, i1 false) #9
  call void @_ZNO8perfetto11TracedValue11WriteStringERKNSt3__112basic_stringIcNS1_11char_traitsIcEENS1_9allocatorIcEEEE(%"class.perfetto::TracedValue"* nonnull %11, %"class.std::__1::basic_string"* dereferenceable(24) %104) #9
  call void @llvm.lifetime.end.p0i8(i64 16, i8* nonnull %106) #9
  call void @_ZN8perfetto16TracedDictionary7AddItemENS_12StaticStringE(%"class.perfetto::TracedValue"* nonnull sret %39, %"class.perfetto::TracedDictionary"* nonnull %25, i8* getelementptr inbounds ([10 x i8], [10 x i8]* @.str.14, i64 0, i64 0)) #9
  %107 = getelementptr inbounds %"class.downloads::mojom::Data", %"class.downloads::mojom::Data"* %0, i64 0, i32 13
  %108 = bitcast %"class.perfetto::TracedValue"* %39 to i8*
  %109 = bitcast %"class.perfetto::TracedValue"* %10 to i8*
  call void @llvm.lifetime.start.p0i8(i64 16, i8* nonnull %109) #9
  call void @llvm.memcpy.p0i8.p0i8.i64(i8* nonnull align 8 %109, i8* nonnull align 8 %108, i64 16, i1 false) #9
  call void @_ZNO8perfetto11TracedValue11WriteStringERKNSt3__112basic_stringIcNS1_11char_traitsIcEENS1_9allocatorIcEEEE(%"class.perfetto::TracedValue"* nonnull %10, %"class.std::__1::basic_string"* dereferenceable(24) %107) #9
  call void @llvm.lifetime.end.p0i8(i64 16, i8* nonnull %109) #9
  call void @_ZN8perfetto16TracedDictionary7AddItemENS_12StaticStringE(%"class.perfetto::TracedValue"* nonnull sret %40, %"class.perfetto::TracedDictionary"* nonnull %25, i8* getelementptr inbounds ([10 x i8], [10 x i8]* @.str.15, i64 0, i64 0)) #9
  %110 = getelementptr inbounds %"class.downloads::mojom::Data", %"class.downloads::mojom::Data"* %0, i64 0, i32 14
  %111 = bitcast %"class.perfetto::TracedValue"* %40 to i8*
  %112 = bitcast %"class.perfetto::TracedValue"* %9 to i8*
  call void @llvm.lifetime.start.p0i8(i64 16, i8* nonnull %112) #9
  call void @llvm.memcpy.p0i8.p0i8.i64(i8* nonnull align 8 %112, i8* nonnull align 8 %111, i64 16, i1 false) #9
  call void @_ZNO8perfetto11TracedValue11WriteStringERKNSt3__112basic_stringIcNS1_11char_traitsIcEENS1_9allocatorIcEEEE(%"class.perfetto::TracedValue"* nonnull %9, %"class.std::__1::basic_string"* dereferenceable(24) %110) #9
  call void @llvm.lifetime.end.p0i8(i64 16, i8* nonnull %112) #9
  call void @_ZN8perfetto16TracedDictionary7AddItemENS_12StaticStringE(%"class.perfetto::TracedValue"* nonnull sret %41, %"class.perfetto::TracedDictionary"* nonnull %25, i8* getelementptr inbounds ([9 x i8], [9 x i8]* @.str.16, i64 0, i64 0)) #9
  %113 = getelementptr inbounds %"class.downloads::mojom::Data", %"class.downloads::mojom::Data"* %0, i64 0, i32 15
  %114 = bitcast %"class.perfetto::TracedValue"* %41 to i8*
  %115 = bitcast %"class.perfetto::TracedValue"* %8 to i8*
  call void @llvm.lifetime.start.p0i8(i64 16, i8* nonnull %115) #9
  call void @llvm.memcpy.p0i8.p0i8.i64(i8* nonnull align 8 %115, i8* nonnull align 8 %114, i64 16, i1 false) #9
  call void @_ZNO8perfetto11TracedValue11WriteStringERKNSt3__112basic_stringIcNS1_11char_traitsIcEENS1_9allocatorIcEEEE(%"class.perfetto::TracedValue"* nonnull %8, %"class.std::__1::basic_string"* dereferenceable(24) %113) #9
  call void @llvm.lifetime.end.p0i8(i64 16, i8* nonnull %115) #9
  call void @_ZN8perfetto16TracedDictionary7AddItemENS_12StaticStringE(%"class.perfetto::TracedValue"* nonnull sret %42, %"class.perfetto::TracedDictionary"* nonnull %25, i8* getelementptr inbounds ([3 x i8], [3 x i8]* @.str.17, i64 0, i64 0)) #9
  %116 = getelementptr inbounds %"class.downloads::mojom::Data", %"class.downloads::mojom::Data"* %0, i64 0, i32 16
  %117 = bitcast %"class.perfetto::TracedValue"* %42 to i8*
  %118 = bitcast %"class.perfetto::TracedValue"* %7 to i8*
  call void @llvm.lifetime.start.p0i8(i64 16, i8* nonnull %118) #9
  call void @llvm.memcpy.p0i8.p0i8.i64(i8* nonnull align 8 %118, i8* nonnull align 8 %117, i64 16, i1 false) #9
  call void @_ZNO8perfetto11TracedValue11WriteStringERKNSt3__112basic_stringIcNS1_11char_traitsIcEENS1_9allocatorIcEEEE(%"class.perfetto::TracedValue"* nonnull %7, %"class.std::__1::basic_string"* dereferenceable(24) %116) #9
  call void @llvm.lifetime.end.p0i8(i64 16, i8* nonnull %118) #9
  call void @_ZN8perfetto16TracedDictionary7AddItemENS_12StaticStringE(%"class.perfetto::TracedValue"* nonnull sret %43, %"class.perfetto::TracedDictionary"* nonnull %25, i8* getelementptr inbounds ([17 x i8], [17 x i8]* @.str.18, i64 0, i64 0)) #9
  %119 = getelementptr inbounds %"class.downloads::mojom::Data", %"class.downloads::mojom::Data"* %0, i64 0, i32 17
  %120 = bitcast %"class.perfetto::TracedValue"* %43 to i8*
  %121 = bitcast %"class.perfetto::TracedValue"* %6 to i8*
  call void @llvm.lifetime.start.p0i8(i64 16, i8* nonnull %121) #9
  call void @llvm.memcpy.p0i8.p0i8.i64(i8* nonnull align 8 %121, i8* nonnull align 8 %120, i64 16, i1 false) #9
  call void @_ZNO8perfetto11TracedValue11WriteStringERKNSt3__112basic_stringIcNS1_11char_traitsIcEENS1_9allocatorIcEEEE(%"class.perfetto::TracedValue"* nonnull %6, %"class.std::__1::basic_string"* dereferenceable(24) %119) #9
  call void @llvm.lifetime.end.p0i8(i64 16, i8* nonnull %121) #9
  call void @_ZN8perfetto16TracedDictionary7AddItemENS_12StaticStringE(%"class.perfetto::TracedValue"* nonnull sret %44, %"class.perfetto::TracedDictionary"* nonnull %25, i8* getelementptr inbounds ([21 x i8], [21 x i8]* @.str.19, i64 0, i64 0)) #9
  %122 = getelementptr inbounds %"class.downloads::mojom::Data", %"class.downloads::mojom::Data"* %0, i64 0, i32 18
  %123 = bitcast %"class.perfetto::TracedValue"* %44 to i8*
  %124 = bitcast %"class.perfetto::TracedValue"* %5 to i8*
  call void @llvm.lifetime.start.p0i8(i64 16, i8* nonnull %124) #9
  call void @llvm.memcpy.p0i8.p0i8.i64(i8* nonnull align 8 %124, i8* nonnull align 8 %123, i64 16, i1 false) #9
  call void @_ZNO8perfetto11TracedValue11WriteStringERKNSt3__112basic_stringIcNS1_11char_traitsIcEENS1_9allocatorIcEEEE(%"class.perfetto::TracedValue"* nonnull %5, %"class.std::__1::basic_string"* dereferenceable(24) %122) #9
  call void @llvm.lifetime.end.p0i8(i64 16, i8* nonnull %124) #9
  call void @_ZN8perfetto16TracedDictionary7AddItemENS_12StaticStringE(%"class.perfetto::TracedValue"* nonnull sret %45, %"class.perfetto::TracedDictionary"* nonnull %25, i8* getelementptr inbounds ([13 x i8], [13 x i8]* @.str.20, i64 0, i64 0)) #9
  %125 = getelementptr inbounds %"class.downloads::mojom::Data", %"class.downloads::mojom::Data"* %0, i64 0, i32 19
  %126 = bitcast %"class.perfetto::TracedValue"* %45 to i8*
  %127 = bitcast %"class.perfetto::TracedValue"* %4 to i8*
  call void @llvm.lifetime.start.p0i8(i64 16, i8* nonnull %127) #9
  call void @llvm.memcpy.p0i8.p0i8.i64(i8* nonnull align 8 %127, i8* nonnull align 8 %126, i64 16, i1 false) #9
  call void @_ZNO8perfetto11TracedValue11WriteStringERKNSt3__112basic_stringIcNS1_11char_traitsIcEENS1_9allocatorIcEEEE(%"class.perfetto::TracedValue"* nonnull %4, %"class.std::__1::basic_string"* dereferenceable(24) %125) #9
  call void @llvm.lifetime.end.p0i8(i64 16, i8* nonnull %127) #9
  call void @_ZN8perfetto16TracedDictionary7AddItemENS_12StaticStringE(%"class.perfetto::TracedValue"* nonnull sret %46, %"class.perfetto::TracedDictionary"* nonnull %25, i8* getelementptr inbounds ([6 x i8], [6 x i8]* @.str.21, i64 0, i64 0)) #9
  %128 = getelementptr inbounds %"class.downloads::mojom::Data", %"class.downloads::mojom::Data"* %0, i64 0, i32 20
  %129 = bitcast %"class.perfetto::TracedValue"* %46 to i8*
  %130 = bitcast %"class.perfetto::TracedValue"* %3 to i8*
  call void @llvm.lifetime.start.p0i8(i64 16, i8* nonnull %130) #9
  call void @llvm.memcpy.p0i8.p0i8.i64(i8* nonnull align 8 %130, i8* nonnull align 8 %129, i64 16, i1 false) #9
  call void @_ZNO8perfetto11TracedValue11WriteStringERKNSt3__112basic_stringIcNS1_11char_traitsIcEENS1_9allocatorIcEEEE(%"class.perfetto::TracedValue"* nonnull %3, %"class.std::__1::basic_string"* dereferenceable(24) %128) #9
  call void @llvm.lifetime.end.p0i8(i64 16, i8* nonnull %130) #9
  call void @_ZN8perfetto16TracedDictionary7AddItemENS_12StaticStringE(%"class.perfetto::TracedValue"* nonnull sret %47, %"class.perfetto::TracedDictionary"* nonnull %25, i8* getelementptr inbounds ([4 x i8], [4 x i8]* @.str.22, i64 0, i64 0)) #9
  %131 = getelementptr inbounds %"class.downloads::mojom::Data", %"class.downloads::mojom::Data"* %0, i64 0, i32 21
  %132 = bitcast %"class.perfetto::TracedValue"* %47 to i8*
  %133 = bitcast %"class.perfetto::TracedValue"* %24 to i8*
  call void @llvm.lifetime.start.p0i8(i64 16, i8* nonnull %133) #9
  call void @llvm.memcpy.p0i8.p0i8.i64(i8* nonnull align 8 %133, i8* nonnull align 8 %132, i64 16, i1 false) #9
  call void @_ZNO8perfetto11TracedValue11WriteStringERKNSt3__112basic_stringIcNS1_11char_traitsIcEENS1_9allocatorIcEEEE(%"class.perfetto::TracedValue"* nonnull %24, %"class.std::__1::basic_string"* dereferenceable(24) %131) #9
  call void @llvm.lifetime.end.p0i8(i64 16, i8* nonnull %133) #9
  call void @llvm.lifetime.end.p0i8(i64 16, i8* nonnull %48) #9
  ret void
}

; Function Attrs: argmemonly nounwind
declare void @llvm.lifetime.start.p0i8(i64 immarg, i8* nocapture) #1

declare void @_ZNO8perfetto11TracedValue15WriteDictionaryEv(%"class.perfetto::TracedDictionary"* sret, %"class.perfetto::TracedValue"*) local_unnamed_addr #2

declare void @_ZN8perfetto16TracedDictionary7AddItemENS_12StaticStringE(%"class.perfetto::TracedValue"* sret, %"class.perfetto::TracedDictionary"*, i8*) local_unnamed_addr #2

; Function Attrs: argmemonly nounwind
declare void @llvm.lifetime.end.p0i8(i64 immarg, i8* nocapture) #1

; Function Attrs: nounwind ssp uwtable
define hidden zeroext i1 @_ZN9downloads5mojom4Data8ValidateEPKvPN4mojo8internal17ValidationContextE(i8*, %"class.mojo::internal::ValidationContext"*) local_unnamed_addr #0 align 2 {
  %3 = tail call zeroext i1 @_ZN9downloads5mojom8internal9Data_Data8ValidateEPKvPN4mojo8internal17ValidationContextE(i8* %0, %"class.mojo::internal::ValidationContext"* %1) #9
  ret i1 %3
}

declare zeroext i1 @_ZN9downloads5mojom8internal9Data_Data8ValidateEPKvPN4mojo8internal17ValidationContextE(i8*, %"class.mojo::internal::ValidationContext"*) local_unnamed_addr #2

; Function Attrs: nofree norecurse nounwind ssp uwtable writeonly
define hidden void @_ZN9downloads5mojom23PageHandlerFactoryProxyC2EPN4mojo28MessageReceiverWithResponderE(%"class.downloads::mojom::PageHandlerFactoryProxy"* nocapture, %"class.mojo::MessageReceiverWithResponder"*) unnamed_addr #3 align 2 {
  %3 = getelementptr inbounds %"class.downloads::mojom::PageHandlerFactoryProxy", %"class.downloads::mojom::PageHandlerFactoryProxy"* %0, i64 0, i32 0, i32 0
  store i32 (...)** bitcast (i8** getelementptr inbounds ({ [5 x i8*] }, { [5 x i8*] }* @_ZTVN9downloads5mojom23PageHandlerFactoryProxyE, i64 0, inrange i32 0, i64 2) to i32 (...)**), i32 (...)*** %3, align 8
  %4 = getelementptr inbounds %"class.downloads::mojom::PageHandlerFactoryProxy", %"class.downloads::mojom::PageHandlerFactoryProxy"* %0, i64 0, i32 1
  store %"class.mojo::MessageReceiverWithResponder"* %1, %"class.mojo::MessageReceiverWithResponder"** %4, align 8
  ret void
}

; Function Attrs: nounwind ssp uwtable
define hidden void @_ZN9downloads5mojom23PageHandlerFactoryProxy17CreatePageHandlerEN4mojo13PendingRemoteINS0_4PageEEENS2_15PendingReceiverINS0_11PageHandlerEEE(%"class.downloads::mojom::PageHandlerFactoryProxy"* nocapture readonly, %"class.mojo::PendingRemote"* nocapture, %"class.mojo::PendingReceiver"* nocapture) unnamed_addr #0 align 2 {
  %4 = alloca %"class.mojo::ScopedHandleBase.30", align 4
  %5 = alloca %"class.mojo::ScopedHandleBase.6", align 4
  %6 = alloca %"class.mojo::Message", align 8
  %7 = bitcast %"class.mojo::Message"* %6 to i8*
  call void @llvm.lifetime.start.p0i8(i64 120, i8* nonnull %7) #9
  call void @llvm.memset.p0i8.i64(i8* nonnull align 8 %7, i8 -86, i64 120, i1 false)
  call void @_ZN4mojo7MessageC1EjjmmPNSt3__16vectorINS_16ScopedHandleBaseINS_6HandleEEENS1_9allocatorIS5_EEEE(%"class.mojo::Message"* nonnull %6, i32 451374288, i32 0, i64 0, i64 0, %"class.std::__1::vector"* null) #9
  %8 = getelementptr inbounds %"class.mojo::Message", %"class.mojo::Message"* %6, i64 0, i32 1
  %9 = call i64 @_ZN4mojo8internal6Buffer8AllocateEm(%"class.mojo::internal::Buffer"* %8, i64 24) #9
  %10 = getelementptr inbounds %"class.mojo::Message", %"class.mojo::Message"* %6, i64 0, i32 1, i32 2
  %11 = load i8*, i8** %10, align 8
  %12 = getelementptr inbounds i8, i8* %11, i64 %9
  %13 = bitcast i8* %12 to %"class.downloads::mojom::internal::PageHandlerFactory_CreatePageHandler_Params_Data"*
  call void @_ZN9downloads5mojom8internal48PageHandlerFactory_CreatePageHandler_Params_DataC1Ev(%"class.downloads::mojom::internal::PageHandlerFactory_CreatePageHandler_Params_Data"* %13) #9
  %14 = load i8*, i8** %10, align 8
  %15 = getelementptr inbounds i8, i8* %14, i64 %9
  %16 = getelementptr inbounds i8, i8* %15, i64 8
  %17 = bitcast i8* %16 to %"struct.mojo::internal::Interface_Data"*
  %18 = bitcast %"class.mojo::ScopedHandleBase.30"* %4 to i8*
  call void @llvm.lifetime.start.p0i8(i64 4, i8* nonnull %18) #9
  %19 = getelementptr inbounds %"class.mojo::PendingRemote", %"class.mojo::PendingRemote"* %1, i64 0, i32 0, i32 1
  %20 = load i32, i32* %19, align 4
  store i32 0, i32* %19, align 4, !noalias !3
  %21 = getelementptr inbounds %"class.mojo::ScopedHandleBase.30", %"class.mojo::ScopedHandleBase.30"* %4, i64 0, i32 0, i32 0, i32 0
  %22 = getelementptr inbounds %"class.mojo::PendingRemote", %"class.mojo::PendingRemote"* %1, i64 0, i32 0, i32 0, i32 0, i32 0, i32 0
  %23 = load i32, i32* %22, align 4, !noalias !6
  store i32 %23, i32* %21, align 4, !alias.scope !6
  store i32 0, i32* %22, align 4, !noalias !6
  call void @_ZN4mojo8internal22SerializeInterfaceInfoENS_16ScopedHandleBaseINS_17MessagePipeHandleEEEjRNS_7MessageERNS0_14Interface_DataE(%"class.mojo::ScopedHandleBase.30"* nonnull %4, i32 %20, %"class.mojo::Message"* nonnull dereferenceable(120) %6, %"struct.mojo::internal::Interface_Data"* dereferenceable(8) %17) #9
  %24 = load i32, i32* %21, align 4
  %25 = icmp eq i32 %24, 0
  br i1 %25, label %28, label %26

26:                                               ; preds = %3
  %27 = call i32 @MojoClose(i32 %24) #9
  br label %28

28:                                               ; preds = %3, %26
  call void @llvm.lifetime.end.p0i8(i64 4, i8* nonnull %18) #9
  %29 = load i8*, i8** %10, align 8
  %30 = getelementptr inbounds i8, i8* %29, i64 %9
  %31 = getelementptr inbounds i8, i8* %30, i64 16
  %32 = bitcast i8* %31 to %"struct.mojo::internal::Handle_Data"*
  %33 = bitcast %"class.mojo::ScopedHandleBase.6"* %5 to i8*
  call void @llvm.lifetime.start.p0i8(i64 4, i8* nonnull %33) #9
  %34 = getelementptr inbounds %"class.mojo::PendingReceiver", %"class.mojo::PendingReceiver"* %2, i64 0, i32 0, i32 0, i32 0, i32 0, i32 0
  %35 = load i32, i32* %34, align 4, !noalias !9
  store i32 0, i32* %34, align 4, !noalias !9
  %36 = getelementptr inbounds %"class.mojo::ScopedHandleBase.6", %"class.mojo::ScopedHandleBase.6"* %5, i64 0, i32 0, i32 0
  store i32 %35, i32* %36, align 4, !alias.scope !14
  call void @_ZN4mojo8internal15SerializeHandleENS_16ScopedHandleBaseINS_6HandleEEERNS_7MessageERNS0_11Handle_DataE(%"class.mojo::ScopedHandleBase.6"* nonnull %5, %"class.mojo::Message"* nonnull dereferenceable(120) %6, %"struct.mojo::internal::Handle_Data"* dereferenceable(4) %32) #9
  %37 = load i32, i32* %36, align 4
  %38 = icmp eq i32 %37, 0
  br i1 %38, label %41, label %39

39:                                               ; preds = %28
  %40 = call i32 @MojoClose(i32 %37) #9
  br label %41

41:                                               ; preds = %28, %39
  call void @llvm.lifetime.end.p0i8(i64 4, i8* nonnull %33) #9
  %42 = getelementptr inbounds %"class.downloads::mojom::PageHandlerFactoryProxy", %"class.downloads::mojom::PageHandlerFactoryProxy"* %0, i64 0, i32 1
  %43 = bitcast %"class.mojo::MessageReceiverWithResponder"** %42 to %"class.mojo::MessageReceiver"**
  %44 = load %"class.mojo::MessageReceiver"*, %"class.mojo::MessageReceiver"** %43, align 8
  %45 = bitcast %"class.mojo::MessageReceiver"* %44 to i1 (%"class.mojo::MessageReceiver"*, %"class.mojo::Message"*)***
  %46 = load i1 (%"class.mojo::MessageReceiver"*, %"class.mojo::Message"*)**, i1 (%"class.mojo::MessageReceiver"*, %"class.mojo::Message"*)*** %45, align 8
  %47 = getelementptr inbounds i1 (%"class.mojo::MessageReceiver"*, %"class.mojo::Message"*)*, i1 (%"class.mojo::MessageReceiver"*, %"class.mojo::Message"*)** %46, i64 3
  %48 = load i1 (%"class.mojo::MessageReceiver"*, %"class.mojo::Message"*)*, i1 (%"class.mojo::MessageReceiver"*, %"class.mojo::Message"*)** %47, align 8
  %49 = call zeroext i1 %48(%"class.mojo::MessageReceiver"* %44, %"class.mojo::Message"* nonnull %6) #9
  call void @_ZN4mojo7MessageD1Ev(%"class.mojo::Message"* nonnull %6) #9
  call void @llvm.lifetime.end.p0i8(i64 120, i8* nonnull %7) #9
  ret void
}

; Function Attrs: argmemonly nounwind
declare void @llvm.memset.p0i8.i64(i8* nocapture writeonly, i8, i64, i1 immarg) #1

declare void @_ZN4mojo7MessageC1EjjmmPNSt3__16vectorINS_16ScopedHandleBaseINS_6HandleEEENS1_9allocatorIS5_EEEE(%"class.mojo::Message"*, i32, i32, i64, i64, %"class.std::__1::vector"*) unnamed_addr #2

; Function Attrs: nounwind
declare void @_ZN4mojo7MessageD1Ev(%"class.mojo::Message"*) unnamed_addr #4

; Function Attrs: nounwind ssp uwtable
define hidden zeroext i1 @_ZN9downloads5mojom30PageHandlerFactoryStubDispatch6AcceptEPNS0_18PageHandlerFactoryEPN4mojo7MessageE(%"class.downloads::mojom::PageHandlerFactory"*, %"class.mojo::Message"*) local_unnamed_addr #0 align 2 {
  %3 = alloca %"class.base::TaskAnnotator::ScopedSetIpcHash", align 8
  %4 = alloca i64, align 8
  %5 = alloca %"class.mojo::PendingReceiver", align 8
  %6 = alloca %"class.downloads::mojom::PageHandlerFactory_CreatePageHandler_ParamsDataView", align 8
  %7 = alloca %"class.mojo::PendingRemote", align 4
  %8 = alloca %"class.mojo::PendingReceiver", align 8
  %9 = alloca %"class.mojo::PendingRemote", align 4
  %10 = alloca %"class.mojo::PendingReceiver", align 8
  %11 = getelementptr inbounds %"class.mojo::Message", %"class.mojo::Message"* %1, i64 0, i32 1, i32 2
  %12 = bitcast i8** %11 to %"struct.mojo::internal::MessageHeader"**
  %13 = load %"struct.mojo::internal::MessageHeader"*, %"struct.mojo::internal::MessageHeader"** %12, align 8
  %14 = getelementptr inbounds %"struct.mojo::internal::MessageHeader", %"struct.mojo::internal::MessageHeader"* %13, i64 0, i32 2
  %15 = load i32, i32* %14, align 1
  %16 = icmp eq i32 %15, 451374288
  br i1 %16, label %17, label %43

17:                                               ; preds = %2
  %18 = bitcast %"class.base::TaskAnnotator::ScopedSetIpcHash"* %3 to i8*
  call void @llvm.lifetime.start.p0i8(i64 24, i8* nonnull %18) #9
  call void @llvm.memset.p0i8.i64(i8* nonnull align 8 %18, i8 -86, i64 24, i1 false)
  call void @_ZN4base13TaskAnnotator16ScopedSetIpcHashC1Ej(%"class.base::TaskAnnotator::ScopedSetIpcHash"* nonnull %3, i32 -974957744) #9
  %19 = call i8* @_ZNK4mojo7Message7payloadEv(%"class.mojo::Message"* %1) #9
  %20 = bitcast i64* %4 to i8*
  call void @llvm.lifetime.start.p0i8(i64 8, i8* nonnull %20) #9
  store i64 0, i64* %4, align 8
  %21 = bitcast i64* %4 to %"struct.mojo::internal::PendingRemoteState"*
  call void @_ZN4mojo8internal18PendingRemoteStateC1Ev(%"struct.mojo::internal::PendingRemoteState"* nonnull %21) #9
  %22 = bitcast %"class.mojo::PendingReceiver"* %5 to i8*
  call void @llvm.lifetime.start.p0i8(i64 24, i8* nonnull %22) #9
  call void @llvm.memset.p0i8.i64(i8* nonnull align 8 %22, i8 0, i64 24, i1 false)
  %23 = getelementptr inbounds %"class.mojo::PendingReceiver", %"class.mojo::PendingReceiver"* %5, i64 0, i32 0
  call void @_ZN4mojo8internal20PendingReceiverStateC1Ev(%"struct.mojo::internal::PendingReceiverState"* nonnull %23) #9
  %24 = bitcast %"class.downloads::mojom::PageHandlerFactory_CreatePageHandler_ParamsDataView"* %6 to i8*
  call void @llvm.lifetime.start.p0i8(i64 16, i8* nonnull %24) #9
  %25 = getelementptr inbounds %"class.downloads::mojom::PageHandlerFactory_CreatePageHandler_ParamsDataView", %"class.downloads::mojom::PageHandlerFactory_CreatePageHandler_ParamsDataView"* %6, i64 0, i32 0
  %26 = getelementptr inbounds %"class.downloads::mojom::PageHandlerFactory_CreatePageHandler_ParamsDataView", %"class.downloads::mojom::PageHandlerFactory_CreatePageHandler_ParamsDataView"* %6, i64 0, i32 1
  %27 = bitcast %"class.downloads::mojom::PageHandlerFactory_CreatePageHandler_ParamsDataView"* %6 to i8**
  store i8* %19, i8** %27, align 8
  store %"class.mojo::Message"* %1, %"class.mojo::Message"** %26, align 8
  %28 = bitcast %"class.mojo::PendingRemote"* %7 to i8*
  call void @llvm.lifetime.start.p0i8(i64 8, i8* nonnull %28) #9
  call void @_ZN9downloads5mojom51PageHandlerFactory_CreatePageHandler_ParamsDataView8TakePageIN4mojo13PendingRemoteINS0_4PageEEEEET_v(%"class.mojo::PendingRemote"* nonnull sret %7, %"class.downloads::mojom::PageHandlerFactory_CreatePageHandler_ParamsDataView"* nonnull %6)
  %29 = getelementptr inbounds %"class.mojo::PendingRemote", %"class.mojo::PendingRemote"* %7, i64 0, i32 0
  %30 = call dereferenceable(8) %"struct.mojo::internal::PendingRemoteState"* @_ZN4mojo8internal18PendingRemoteStateaSEOS1_(%"struct.mojo::internal::PendingRemoteState"* nonnull %21, %"struct.mojo::internal::PendingRemoteState"* nonnull dereferenceable(8) %29) #9
  call void @_ZN4mojo8internal18PendingRemoteStateD1Ev(%"struct.mojo::internal::PendingRemoteState"* nonnull %29) #9
  call void @llvm.lifetime.end.p0i8(i64 8, i8* nonnull %28) #9
  %31 = bitcast %"class.mojo::PendingReceiver"* %8 to i8*
  call void @llvm.lifetime.start.p0i8(i64 24, i8* nonnull %31) #9
  call void @llvm.memset.p0i8.i64(i8* nonnull align 8 %31, i8 -86, i64 24, i1 false) #9, !alias.scope !17
  %32 = getelementptr inbounds %"class.mojo::PendingReceiver", %"class.mojo::PendingReceiver"* %8, i64 0, i32 0
  call void @_ZN4mojo8internal20PendingReceiverStateC1Ev(%"struct.mojo::internal::PendingReceiverState"* nonnull %32) #9
  %33 = load %"class.downloads::mojom::internal::PageHandlerFactory_CreatePageHandler_Params_Data"*, %"class.downloads::mojom::internal::PageHandlerFactory_CreatePageHandler_Params_Data"** %25, align 8, !noalias !17
  %34 = getelementptr inbounds %"class.downloads::mojom::internal::PageHandlerFactory_CreatePageHandler_Params_Data", %"class.downloads::mojom::internal::PageHandlerFactory_CreatePageHandler_Params_Data"* %33, i64 0, i32 2
  %35 = load %"class.mojo::Message"*, %"class.mojo::Message"** %26, align 8, !noalias !17
  call void @_ZN4mojo8internal27DeserializeHandleAsReceiverERKNS0_11Handle_DataERNS_7MessageERNS0_20PendingReceiverStateE(%"struct.mojo::internal::Handle_Data"* dereferenceable(4) %34, %"class.mojo::Message"* dereferenceable(120) %35, %"struct.mojo::internal::PendingReceiverState"* nonnull dereferenceable(24) %32) #9
  %36 = call dereferenceable(24) %"struct.mojo::internal::PendingReceiverState"* @_ZN4mojo8internal20PendingReceiverStateaSEOS1_(%"struct.mojo::internal::PendingReceiverState"* nonnull %23, %"struct.mojo::internal::PendingReceiverState"* nonnull dereferenceable(24) %32) #9
  call void @_ZN4mojo8internal20PendingReceiverStateD1Ev(%"struct.mojo::internal::PendingReceiverState"* nonnull %32) #9
  call void @llvm.lifetime.end.p0i8(i64 24, i8* nonnull %31) #9
  %37 = getelementptr inbounds %"class.mojo::PendingRemote", %"class.mojo::PendingRemote"* %9, i64 0, i32 0
  call void @_ZN4mojo8internal18PendingRemoteStateC1EOS1_(%"struct.mojo::internal::PendingRemoteState"* nonnull %37, %"struct.mojo::internal::PendingRemoteState"* nonnull dereferenceable(8) %21) #9
  %38 = getelementptr inbounds %"class.mojo::PendingReceiver", %"class.mojo::PendingReceiver"* %10, i64 0, i32 0
  call void @_ZN4mojo8internal20PendingReceiverStateC1EOS1_(%"struct.mojo::internal::PendingReceiverState"* nonnull %38, %"struct.mojo::internal::PendingReceiverState"* nonnull dereferenceable(24) %23) #9
  %39 = bitcast %"class.downloads::mojom::PageHandlerFactory"* %0 to void (%"class.downloads::mojom::PageHandlerFactory"*, %"class.mojo::PendingRemote"*, %"class.mojo::PendingReceiver"*)***
  %40 = load void (%"class.downloads::mojom::PageHandlerFactory"*, %"class.mojo::PendingRemote"*, %"class.mojo::PendingReceiver"*)**, void (%"class.downloads::mojom::PageHandlerFactory"*, %"class.mojo::PendingRemote"*, %"class.mojo::PendingReceiver"*)*** %39, align 8
  %41 = getelementptr inbounds void (%"class.downloads::mojom::PageHandlerFactory"*, %"class.mojo::PendingRemote"*, %"class.mojo::PendingReceiver"*)*, void (%"class.downloads::mojom::PageHandlerFactory"*, %"class.mojo::PendingRemote"*, %"class.mojo::PendingReceiver"*)** %40, i64 2
  %42 = load void (%"class.downloads::mojom::PageHandlerFactory"*, %"class.mojo::PendingRemote"*, %"class.mojo::PendingReceiver"*)*, void (%"class.downloads::mojom::PageHandlerFactory"*, %"class.mojo::PendingRemote"*, %"class.mojo::PendingReceiver"*)** %41, align 8
  call void %42(%"class.downloads::mojom::PageHandlerFactory"* %0, %"class.mojo::PendingRemote"* nonnull %9, %"class.mojo::PendingReceiver"* nonnull %10) #9
  call void @_ZN4mojo8internal20PendingReceiverStateD1Ev(%"struct.mojo::internal::PendingReceiverState"* nonnull %38) #9
  call void @_ZN4mojo8internal18PendingRemoteStateD1Ev(%"struct.mojo::internal::PendingRemoteState"* nonnull %37) #9
  call void @llvm.lifetime.end.p0i8(i64 16, i8* nonnull %24) #9
  call void @_ZN4mojo8internal20PendingReceiverStateD1Ev(%"struct.mojo::internal::PendingReceiverState"* nonnull %23) #9
  call void @llvm.lifetime.end.p0i8(i64 24, i8* nonnull %22) #9
  call void @_ZN4mojo8internal18PendingRemoteStateD1Ev(%"struct.mojo::internal::PendingRemoteState"* nonnull %21) #9
  call void @llvm.lifetime.end.p0i8(i64 8, i8* nonnull %20) #9
  call void @_ZN4base13TaskAnnotator16ScopedSetIpcHashD1Ev(%"class.base::TaskAnnotator::ScopedSetIpcHash"* nonnull %3) #9
  call void @llvm.lifetime.end.p0i8(i64 24, i8* nonnull %18) #9
  br label %43

43:                                               ; preds = %2, %17
  %44 = phi i1 [ true, %17 ], [ false, %2 ]
  ret i1 %44
}

; Function Attrs: argmemonly nounwind
declare void @llvm.memcpy.p0i8.p0i8.i64(i8* nocapture writeonly, i8* nocapture readonly, i64, i1 immarg) #1

declare void @_ZN4base13TaskAnnotator16ScopedSetIpcHashC1Ej(%"class.base::TaskAnnotator::ScopedSetIpcHash"*, i32) unnamed_addr #2

; Function Attrs: nounwind ssp uwtable
define linkonce_odr hidden void @_ZN9downloads5mojom51PageHandlerFactory_CreatePageHandler_ParamsDataView8TakePageIN4mojo13PendingRemoteINS0_4PageEEEEET_v(%"class.mojo::PendingRemote"* noalias sret, %"class.downloads::mojom::PageHandlerFactory_CreatePageHandler_ParamsDataView"*) local_unnamed_addr #0 comdat align 2 {
  %3 = alloca %"class.mojo::ScopedHandleBase.30", align 4
  %4 = alloca %"class.mojo::ScopedHandleBase.6", align 4
  %5 = alloca %"class.mojo::PendingRemote", align 4
  %6 = getelementptr inbounds %"class.mojo::PendingRemote", %"class.mojo::PendingRemote"* %0, i64 0, i32 0, i32 0, i32 0, i32 0, i32 0
  store i32 -1431655766, i32* %6, align 4
  %7 = getelementptr inbounds %"class.mojo::PendingRemote", %"class.mojo::PendingRemote"* %0, i64 0, i32 0, i32 1
  store i32 -1431655766, i32* %7, align 4
  %8 = getelementptr inbounds %"class.mojo::PendingRemote", %"class.mojo::PendingRemote"* %0, i64 0, i32 0
  tail call void @_ZN4mojo8internal18PendingRemoteStateC1Ev(%"struct.mojo::internal::PendingRemoteState"* %8) #9
  %9 = getelementptr inbounds %"class.downloads::mojom::PageHandlerFactory_CreatePageHandler_ParamsDataView", %"class.downloads::mojom::PageHandlerFactory_CreatePageHandler_ParamsDataView"* %1, i64 0, i32 0
  %10 = load %"class.downloads::mojom::internal::PageHandlerFactory_CreatePageHandler_Params_Data"*, %"class.downloads::mojom::internal::PageHandlerFactory_CreatePageHandler_Params_Data"** %9, align 8
  %11 = getelementptr inbounds %"class.downloads::mojom::PageHandlerFactory_CreatePageHandler_ParamsDataView", %"class.downloads::mojom::PageHandlerFactory_CreatePageHandler_ParamsDataView"* %1, i64 0, i32 1
  %12 = load %"class.mojo::Message"*, %"class.mojo::Message"** %11, align 8
  %13 = bitcast %"class.mojo::PendingRemote"* %5 to i8*
  call void @llvm.lifetime.start.p0i8(i64 8, i8* nonnull %13) #9
  %14 = getelementptr inbounds %"class.downloads::mojom::internal::PageHandlerFactory_CreatePageHandler_Params_Data", %"class.downloads::mojom::internal::PageHandlerFactory_CreatePageHandler_Params_Data"* %10, i64 0, i32 1, i32 0
  %15 = bitcast %"class.mojo::ScopedHandleBase.6"* %4 to i8*
  call void @llvm.lifetime.start.p0i8(i64 4, i8* nonnull %15) #9
  call void @_ZN4mojo8internal17DeserializeHandleERKNS0_11Handle_DataERNS_7MessageE(%"class.mojo::ScopedHandleBase.6"* nonnull sret %4, %"struct.mojo::internal::Handle_Data"* dereferenceable(4) %14, %"class.mojo::Message"* dereferenceable(120) %12) #9, !noalias !20
  %16 = getelementptr inbounds %"class.mojo::ScopedHandleBase.6", %"class.mojo::ScopedHandleBase.6"* %4, i64 0, i32 0, i32 0
  %17 = load i32, i32* %16, align 4, !noalias !23
  call void @llvm.lifetime.end.p0i8(i64 4, i8* nonnull %15) #9
  %18 = getelementptr inbounds %"class.downloads::mojom::internal::PageHandlerFactory_CreatePageHandler_Params_Data", %"class.downloads::mojom::internal::PageHandlerFactory_CreatePageHandler_Params_Data"* %10, i64 0, i32 1, i32 1
  %19 = load i32, i32* %18, align 1
  %20 = bitcast %"class.mojo::ScopedHandleBase.30"* %3 to i8*
  call void @llvm.lifetime.start.p0i8(i64 4, i8* nonnull %20) #9
  %21 = getelementptr inbounds %"class.mojo::PendingRemote", %"class.mojo::PendingRemote"* %5, i64 0, i32 0
  %22 = getelementptr inbounds %"class.mojo::ScopedHandleBase.30", %"class.mojo::ScopedHandleBase.30"* %3, i64 0, i32 0, i32 0, i32 0
  store i32 %17, i32* %22, align 4, !alias.scope !28
  call void @_ZN4mojo8internal18PendingRemoteStateC1ENS_16ScopedHandleBaseINS_17MessagePipeHandleEEEj(%"struct.mojo::internal::PendingRemoteState"* nonnull %21, %"class.mojo::ScopedHandleBase.30"* nonnull %3, i32 %19) #9
  %23 = load i32, i32* %22, align 4
  %24 = icmp eq i32 %23, 0
  br i1 %24, label %27, label %25

25:                                               ; preds = %2
  %26 = call i32 @MojoClose(i32 %23) #9
  br label %27

27:                                               ; preds = %2, %25
  call void @llvm.lifetime.end.p0i8(i64 4, i8* nonnull %20) #9
  %28 = call dereferenceable(8) %"struct.mojo::internal::PendingRemoteState"* @_ZN4mojo8internal18PendingRemoteStateaSEOS1_(%"struct.mojo::internal::PendingRemoteState"* %8, %"struct.mojo::internal::PendingRemoteState"* nonnull dereferenceable(8) %21) #9
  call void @_ZN4mojo8internal18PendingRemoteStateD1Ev(%"struct.mojo::internal::PendingRemoteState"* nonnull %21) #9
  call void @llvm.lifetime.end.p0i8(i64 8, i8* nonnull %13) #9
  ret void
}

declare void @_ZN4mojo8internal31ReportValidationErrorForMessageEPNS_7MessageENS0_15ValidationErrorEPKcjb(%"class.mojo::Message"*, i32, i8*, i32, i1 zeroext) local_unnamed_addr #2

; Function Attrs: nounwind
declare void @_ZN4base13TaskAnnotator16ScopedSetIpcHashD1Ev(%"class.base::TaskAnnotator::ScopedSetIpcHash"*) unnamed_addr #4

; Function Attrs: nounwind ssp uwtable
define hidden zeroext i1 @_ZN9downloads5mojom30PageHandlerFactoryStubDispatch19AcceptWithResponderEPNS0_18PageHandlerFactoryEPN4mojo7MessageENSt3__110unique_ptrINS4_25MessageReceiverWithStatusENS7_14default_deleteIS9_EEEE(%"class.downloads::mojom::PageHandlerFactory"* nocapture readnone, %"class.mojo::Message"* nocapture readonly, %"class.mojo::MessageReceiverWithStatus"*) local_unnamed_addr #0 align 2 {
  %4 = icmp eq %"class.mojo::MessageReceiverWithStatus"* %2, null
  br i1 %4, label %10, label %5

5:                                                ; preds = %3
  %6 = bitcast %"class.mojo::MessageReceiverWithStatus"* %2 to void (%"class.mojo::MessageReceiverWithStatus"*)***
  %7 = load void (%"class.mojo::MessageReceiverWithStatus"*)**, void (%"class.mojo::MessageReceiverWithStatus"*)*** %6, align 8
  %8 = getelementptr inbounds void (%"class.mojo::MessageReceiverWithStatus"*)*, void (%"class.mojo::MessageReceiverWithStatus"*)** %7, i64 1
  %9 = load void (%"class.mojo::MessageReceiverWithStatus"*)*, void (%"class.mojo::MessageReceiverWithStatus"*)** %8, align 8
  tail call void %9(%"class.mojo::MessageReceiverWithStatus"* nonnull %2) #9
  br label %10

10:                                               ; preds = %3, %5
  ret i1 false
}

; Function Attrs: nounwind ssp uwtable
define hidden zeroext i1 @_ZN9downloads5mojom34PageHandlerFactoryRequestValidator6AcceptEPN4mojo7MessageE(%"class.downloads::mojom::PageHandlerFactoryRequestValidator"* nocapture readnone, %"class.mojo::Message"*) unnamed_addr #0 align 2 {
  %3 = tail call zeroext i1 @_ZN4mojo8internal22ValidateRequestGenericEPNS_7MessageEPKcN4base4spanIKNSt3__14pairIjNS0_21GenericValidationInfoEEELm18446744073709551615EEE(%"class.mojo::Message"* %1, i8* getelementptr inbounds ([35 x i8], [35 x i8]* @_ZN9downloads5mojom18PageHandlerFactory5Name_E, i64 0, i64 0), i64 1, %"struct.std::__1::pair"* getelementptr inbounds ([1 x %"struct.std::__1::pair"], [1 x %"struct.std::__1::pair"]* @_ZN9downloads5mojomL33kPageHandlerFactoryValidationInfoE, i64 0, i64 0)) #9
  ret i1 %3
}

declare zeroext i1 @_ZN4mojo8internal22ValidateRequestGenericEPNS_7MessageEPKcN4base4spanIKNSt3__14pairIjNS0_21GenericValidationInfoEEELm18446744073709551615EEE(%"class.mojo::Message"*, i8*, i64, %"struct.std::__1::pair"*) local_unnamed_addr #2

; Function Attrs: nofree norecurse nounwind ssp uwtable writeonly
define hidden void @_ZN9downloads5mojom16PageHandlerProxyC2EPN4mojo28MessageReceiverWithResponderE(%"class.downloads::mojom::PageHandlerProxy"* nocapture, %"class.mojo::MessageReceiverWithResponder"*) unnamed_addr #3 align 2 {
  %3 = getelementptr inbounds %"class.downloads::mojom::PageHandlerProxy", %"class.downloads::mojom::PageHandlerProxy"* %0, i64 0, i32 0, i32 0
  store i32 (...)** bitcast (i8** getelementptr inbounds ({ [19 x i8*] }, { [19 x i8*] }* @_ZTVN9downloads5mojom16PageHandlerProxyE, i64 0, inrange i32 0, i64 2) to i32 (...)**), i32 (...)*** %3, align 8
  %4 = getelementptr inbounds %"class.downloads::mojom::PageHandlerProxy", %"class.downloads::mojom::PageHandlerProxy"* %0, i64 0, i32 1
  store %"class.mojo::MessageReceiverWithResponder"* %1, %"class.mojo::MessageReceiverWithResponder"** %4, align 8
  ret void
}

; Function Attrs: nounwind ssp uwtable
define hidden void @_ZN9downloads5mojom16PageHandlerProxy12GetDownloadsERKNSt3__16vectorINS2_12basic_stringIcNS2_11char_traitsIcEENS2_9allocatorIcEEEENS7_IS9_EEEE(%"class.downloads::mojom::PageHandlerProxy"* nocapture readonly, %"class.std::__1::vector.34"* nocapture readonly dereferenceable(24)) unnamed_addr #0 align 2 {
  %3 = alloca %"class.mojo::internal::MessageFragment.44", align 8
  %4 = alloca %"class.mojo::Message", align 8
  %5 = alloca %"class.mojo::internal::ContainerValidateParams", align 8
  %6 = bitcast %"class.mojo::Message"* %4 to i8*
  call void @llvm.lifetime.start.p0i8(i64 120, i8* nonnull %6) #9
  call void @llvm.memset.p0i8.i64(i8* nonnull align 8 %6, i8 -86, i64 120, i1 false)
  call void @_ZN4mojo7MessageC1EjjmmPNSt3__16vectorINS_16ScopedHandleBaseINS_6HandleEEENS1_9allocatorIS5_EEEE(%"class.mojo::Message"* nonnull %4, i32 419757008, i32 0, i64 0, i64 0, %"class.std::__1::vector"* null) #9
  %7 = getelementptr inbounds %"class.mojo::Message", %"class.mojo::Message"* %4, i64 0, i32 1
  %8 = call i64 @_ZN4mojo8internal6Buffer8AllocateEm(%"class.mojo::internal::Buffer"* %7, i64 16) #9
  %9 = getelementptr inbounds %"class.mojo::Message", %"class.mojo::Message"* %4, i64 0, i32 1, i32 2
  %10 = load i8*, i8** %9, align 8
  %11 = getelementptr inbounds i8, i8* %10, i64 %8
  %12 = bitcast i8* %11 to %"class.downloads::mojom::internal::PageHandler_GetDownloads_Params_Data"*
  call void @_ZN9downloads5mojom8internal36PageHandler_GetDownloads_Params_DataC1Ev(%"class.downloads::mojom::internal::PageHandler_GetDownloads_Params_Data"* %12) #9
  %13 = ptrtoint %"class.mojo::Message"* %4 to i64
  %14 = bitcast %"class.mojo::internal::ContainerValidateParams"* %5 to i8*
  call void @llvm.lifetime.start.p0i8(i64 32, i8* nonnull %14) #9
  %15 = bitcast %"class.mojo::internal::ContainerValidateParams"* %5 to i64*
  store i64 -6148914691236517206, i64* %15, align 8
  %16 = call i8* @_Znwm(i64 32) #10
  %17 = bitcast i8* %16 to i32*
  store i32 0, i32* %17, align 8
  %18 = getelementptr inbounds i8, i8* %16, i64 4
  store i8 0, i8* %18, align 4
  %19 = getelementptr inbounds i8, i8* %16, i64 8
  %20 = getelementptr inbounds %"class.mojo::internal::ContainerValidateParams", %"class.mojo::internal::ContainerValidateParams"* %5, i64 0, i32 0
  call void @llvm.memset.p0i8.i64(i8* align 8 %19, i8 0, i64 24, i1 false)
  store i32 0, i32* %20, align 8
  %21 = getelementptr inbounds %"class.mojo::internal::ContainerValidateParams", %"class.mojo::internal::ContainerValidateParams"* %5, i64 0, i32 1
  store i8 0, i8* %21, align 4
  %22 = getelementptr inbounds %"class.mojo::internal::ContainerValidateParams", %"class.mojo::internal::ContainerValidateParams"* %5, i64 0, i32 2
  store %"class.mojo::internal::ContainerValidateParams"* null, %"class.mojo::internal::ContainerValidateParams"** %22, align 8
  %23 = getelementptr inbounds %"class.mojo::internal::ContainerValidateParams", %"class.mojo::internal::ContainerValidateParams"* %5, i64 0, i32 3
  %24 = bitcast %"class.mojo::internal::ContainerValidateParams"** %23 to i8**
  store i8* %16, i8** %24, align 8
  %25 = getelementptr inbounds %"class.mojo::internal::ContainerValidateParams", %"class.mojo::internal::ContainerValidateParams"* %5, i64 0, i32 4
  store i1 (i32, %"class.mojo::internal::ValidationContext"*)* null, i1 (i32, %"class.mojo::internal::ValidationContext"*)** %25, align 8
  %26 = getelementptr inbounds %"class.std::__1::vector.34", %"class.std::__1::vector.34"* %1, i64 0, i32 0, i32 1
  %27 = bitcast %"class.std::__1::basic_string"** %26 to i64*
  %28 = load i64, i64* %27, align 8
  %29 = bitcast %"class.std::__1::vector.34"* %1 to i64*
  %30 = load i64, i64* %29, align 8
  %31 = sub i64 %28, %30
  %32 = sdiv exact i64 %31, 24
  %33 = icmp ugt i64 %32, 536870910
  br i1 %33, label %49, label %34

34:                                               ; preds = %2
  %35 = trunc i64 %32 to i32
  %36 = shl i32 %35, 3
  %37 = add nuw i32 %36, 8
  %38 = zext i32 %37 to i64
  %39 = call i64 @_ZN4mojo8internal6Buffer8AllocateEm(%"class.mojo::internal::Buffer"* %7, i64 %38) #9
  %40 = load i8*, i8** %9, align 8
  %41 = getelementptr inbounds i8, i8* %40, i64 %39
  %42 = bitcast i8* %41 to i32*
  store i32 %37, i32* %42, align 1
  %43 = getelementptr inbounds i8, i8* %41, i64 4
  %44 = bitcast i8* %43 to i32*
  store i32 %35, i32* %44, align 1
  %45 = load i64, i64* %27, align 8
  %46 = load i64, i64* %29, align 8
  %47 = sub i64 %45, %46
  %48 = sdiv exact i64 %47, 24
  br label %49

49:                                               ; preds = %34, %2
  %50 = phi i64 [ -1, %2 ], [ %39, %34 ]
  %51 = phi i64 [ %32, %2 ], [ %48, %34 ]
  %52 = phi i64 [ %31, %2 ], [ %47, %34 ]
  %53 = phi i64 [ %30, %2 ], [ %46, %34 ]
  %54 = icmp eq i64 %52, 0
  br i1 %54, label %91, label %55

55:                                               ; preds = %49
  %56 = inttoptr i64 %53 to %"class.std::__1::basic_string"*
  %57 = bitcast %"class.mojo::internal::MessageFragment.44"* %3 to i8*
  %58 = getelementptr inbounds %"class.mojo::internal::MessageFragment.44", %"class.mojo::internal::MessageFragment.44"* %3, i64 0, i32 0
  %59 = getelementptr inbounds %"class.mojo::internal::MessageFragment.44", %"class.mojo::internal::MessageFragment.44"* %3, i64 0, i32 1
  %60 = bitcast %"class.mojo::internal::MessageFragment.44"* %3 to i64*
  %61 = getelementptr inbounds %"class.std::__1::vector.34", %"class.std::__1::vector.34"* %1, i64 0, i32 0, i32 0
  br label %62

62:                                               ; preds = %89, %55
  %63 = phi %"class.std::__1::basic_string"* [ %56, %55 ], [ %90, %89 ]
  %64 = phi i64 [ 0, %55 ], [ %65, %89 ]
  call void @llvm.lifetime.start.p0i8(i64 16, i8* nonnull %57) #9
  store i64 %13, i64* %60, align 8
  store i64 -1, i64* %59, align 8
  %65 = add nuw i64 %64, 1
  %66 = getelementptr inbounds %"class.std::__1::basic_string", %"class.std::__1::basic_string"* %63, i64 %64
  call void @_ZN4mojo8internal10SerializerINS_14StringDataViewEKNSt3__112basic_stringIcNS3_11char_traitsIcEENS3_9allocatorIcEEEEE9SerializeERSA_RNS0_15MessageFragmentINS0_10Array_DataIcEEEE(%"class.std::__1::basic_string"* dereferenceable(24) %66, %"class.mojo::internal::MessageFragment.44"* nonnull dereferenceable(16) %3) #9
  %67 = load i8*, i8** %9, align 8
  %68 = getelementptr inbounds i8, i8* %67, i64 8
  %69 = getelementptr inbounds i8, i8* %68, i64 %50
  %70 = bitcast i8* %69 to %"class.mojo::internal::Array_Data"*
  %71 = getelementptr inbounds %"class.mojo::internal::Array_Data", %"class.mojo::internal::Array_Data"* %70, i64 %64
  %72 = load i64, i64* %59, align 8
  %73 = icmp eq i64 %72, -1
  br i1 %73, label %80, label %74

74:                                               ; preds = %62
  %75 = load %"class.mojo::Message"*, %"class.mojo::Message"** %58, align 8
  %76 = getelementptr inbounds %"class.mojo::Message", %"class.mojo::Message"* %75, i64 0, i32 1, i32 2
  %77 = load i8*, i8** %76, align 8
  %78 = getelementptr inbounds i8, i8* %77, i64 %72
  %79 = bitcast i8* %78 to %"class.mojo::internal::Array_Data.46"*
  br label %80

80:                                               ; preds = %74, %62
  %81 = phi %"class.mojo::internal::Array_Data.46"* [ %79, %74 ], [ null, %62 ]
  %82 = bitcast %"class.mojo::internal::Array_Data"* %71 to i64*
  %83 = icmp eq %"class.mojo::internal::Array_Data.46"* %81, null
  %84 = ptrtoint %"class.mojo::internal::Array_Data.46"* %81 to i64
  %85 = ptrtoint %"class.mojo::internal::Array_Data"* %71 to i64
  %86 = sub i64 %84, %85
  %87 = select i1 %83, i64 0, i64 %86
  store i64 %87, i64* %82, align 8
  call void @llvm.lifetime.end.p0i8(i64 16, i8* nonnull %57) #9
  %88 = icmp ult i64 %65, %51
  br i1 %88, label %89, label %91

89:                                               ; preds = %80
  %90 = load %"class.std::__1::basic_string"*, %"class.std::__1::basic_string"** %61, align 8
  br label %62

91:                                               ; preds = %80, %49
  %92 = load i8*, i8** %9, align 8
  %93 = getelementptr inbounds i8, i8* %92, i64 %8
  %94 = getelementptr inbounds i8, i8* %93, i64 8
  %95 = icmp eq i64 %50, -1
  %96 = getelementptr inbounds i8, i8* %92, i64 %50
  %97 = bitcast i8* %96 to %"class.mojo::internal::Array_Data"*
  %98 = select i1 %95, %"class.mojo::internal::Array_Data"* null, %"class.mojo::internal::Array_Data"* %97
  %99 = bitcast i8* %94 to i64*
  %100 = icmp eq %"class.mojo::internal::Array_Data"* %98, null
  %101 = ptrtoint %"class.mojo::internal::Array_Data"* %98 to i64
  %102 = ptrtoint i8* %94 to i64
  %103 = sub i64 %101, %102
  %104 = select i1 %100, i64 0, i64 %103
  store i64 %104, i64* %99, align 8
  %105 = getelementptr inbounds %"class.downloads::mojom::PageHandlerProxy", %"class.downloads::mojom::PageHandlerProxy"* %0, i64 0, i32 1
  %106 = bitcast %"class.mojo::MessageReceiverWithResponder"** %105 to %"class.mojo::MessageReceiver"**
  %107 = load %"class.mojo::MessageReceiver"*, %"class.mojo::MessageReceiver"** %106, align 8
  %108 = bitcast %"class.mojo::MessageReceiver"* %107 to i1 (%"class.mojo::MessageReceiver"*, %"class.mojo::Message"*)***
  %109 = load i1 (%"class.mojo::MessageReceiver"*, %"class.mojo::Message"*)**, i1 (%"class.mojo::MessageReceiver"*, %"class.mojo::Message"*)*** %108, align 8
  %110 = getelementptr inbounds i1 (%"class.mojo::MessageReceiver"*, %"class.mojo::Message"*)*, i1 (%"class.mojo::MessageReceiver"*, %"class.mojo::Message"*)** %109, i64 3
  %111 = load i1 (%"class.mojo::MessageReceiver"*, %"class.mojo::Message"*)*, i1 (%"class.mojo::MessageReceiver"*, %"class.mojo::Message"*)** %110, align 8
  %112 = call zeroext i1 %111(%"class.mojo::MessageReceiver"* %107, %"class.mojo::Message"* nonnull %4) #9
  call void @_ZN4mojo8internal23ContainerValidateParamsD2Ev(%"class.mojo::internal::ContainerValidateParams"* nonnull %5) #9
  call void @llvm.lifetime.end.p0i8(i64 32, i8* nonnull %14) #9
  call void @_ZN4mojo7MessageD1Ev(%"class.mojo::Message"* nonnull %4) #9
  call void @llvm.lifetime.end.p0i8(i64 120, i8* nonnull %6) #9
  ret void
}

; Function Attrs: nobuiltin nofree
declare noalias nonnull i8* @_Znwm(i64) local_unnamed_addr #5

; Function Attrs: nounwind ssp uwtable
define linkonce_odr hidden void @_ZN4mojo8internal23ContainerValidateParamsD2Ev(%"class.mojo::internal::ContainerValidateParams"*) unnamed_addr #0 comdat align 2 {
  %2 = getelementptr inbounds %"class.mojo::internal::ContainerValidateParams", %"class.mojo::internal::ContainerValidateParams"* %0, i64 0, i32 3
  %3 = load %"class.mojo::internal::ContainerValidateParams"*, %"class.mojo::internal::ContainerValidateParams"** %2, align 8
  %4 = icmp eq %"class.mojo::internal::ContainerValidateParams"* %3, null
  br i1 %4, label %7, label %5

5:                                                ; preds = %1
  tail call void @_ZN4mojo8internal23ContainerValidateParamsD2Ev(%"class.mojo::internal::ContainerValidateParams"* nonnull %3) #9
  %6 = bitcast %"class.mojo::internal::ContainerValidateParams"* %3 to i8*
  tail call void @_ZdlPv(i8* %6) #10
  br label %7

7:                                                ; preds = %1, %5
  %8 = getelementptr inbounds %"class.mojo::internal::ContainerValidateParams", %"class.mojo::internal::ContainerValidateParams"* %0, i64 0, i32 2
  %9 = load %"class.mojo::internal::ContainerValidateParams"*, %"class.mojo::internal::ContainerValidateParams"** %8, align 8
  %10 = icmp eq %"class.mojo::internal::ContainerValidateParams"* %9, null
  br i1 %10, label %13, label %11

11:                                               ; preds = %7
  tail call void @_ZN4mojo8internal23ContainerValidateParamsD2Ev(%"class.mojo::internal::ContainerValidateParams"* nonnull %9) #9
  %12 = bitcast %"class.mojo::internal::ContainerValidateParams"* %9 to i8*
  tail call void @_ZdlPv(i8* %12) #10
  ret void

13:                                               ; preds = %7
  ret void
}

; Function Attrs: nounwind ssp uwtable
define hidden void @_ZN9downloads5mojom16PageHandlerProxy24OpenFileRequiringGestureERKNSt3__112basic_stringIcNS2_11char_traitsIcEENS2_9allocatorIcEEEE(%"class.downloads::mojom::PageHandlerProxy"* nocapture readonly, %"class.std::__1::basic_string"* dereferenceable(24)) unnamed_addr #0 align 2 {
  %3 = alloca %"class.mojo::Message", align 8
  %4 = alloca %"class.mojo::internal::MessageFragment.44", align 8
  %5 = bitcast %"class.mojo::Message"* %3 to i8*
  call void @llvm.lifetime.start.p0i8(i64 120, i8* nonnull %5) #9
  call void @llvm.memset.p0i8.i64(i8* nonnull align 8 %5, i8 -86, i64 120, i1 false)
  call void @_ZN4mojo7MessageC1EjjmmPNSt3__16vectorINS_16ScopedHandleBaseINS_6HandleEEENS1_9allocatorIS5_EEEE(%"class.mojo::Message"* nonnull %3, i32 1434640820, i32 0, i64 0, i64 0, %"class.std::__1::vector"* null) #9
  %6 = getelementptr inbounds %"class.mojo::Message", %"class.mojo::Message"* %3, i64 0, i32 1
  %7 = call i64 @_ZN4mojo8internal6Buffer8AllocateEm(%"class.mojo::internal::Buffer"* %6, i64 16) #9
  %8 = getelementptr inbounds %"class.mojo::Message", %"class.mojo::Message"* %3, i64 0, i32 1, i32 2
  %9 = load i8*, i8** %8, align 8
  %10 = getelementptr inbounds i8, i8* %9, i64 %7
  %11 = bitcast i8* %10 to %"class.downloads::mojom::internal::PageHandler_OpenFileRequiringGesture_Params_Data"*
  call void @_ZN9downloads5mojom8internal48PageHandler_OpenFileRequiringGesture_Params_DataC1Ev(%"class.downloads::mojom::internal::PageHandler_OpenFileRequiringGesture_Params_Data"* %11) #9
  %12 = bitcast %"class.mojo::internal::MessageFragment.44"* %4 to i8*
  call void @llvm.lifetime.start.p0i8(i64 16, i8* nonnull %12) #9
  %13 = getelementptr inbounds %"class.mojo::internal::MessageFragment.44", %"class.mojo::internal::MessageFragment.44"* %4, i64 0, i32 0
  %14 = getelementptr inbounds %"class.mojo::internal::MessageFragment.44", %"class.mojo::internal::MessageFragment.44"* %4, i64 0, i32 1
  store %"class.mojo::Message"* %3, %"class.mojo::Message"** %13, align 8
  store i64 -1, i64* %14, align 8
  call void @_ZN4mojo8internal10SerializerINS_14StringDataViewEKNSt3__112basic_stringIcNS3_11char_traitsIcEENS3_9allocatorIcEEEEE9SerializeERSA_RNS0_15MessageFragmentINS0_10Array_DataIcEEEE(%"class.std::__1::basic_string"* dereferenceable(24) %1, %"class.mojo::internal::MessageFragment.44"* nonnull dereferenceable(16) %4) #9
  %15 = load i8*, i8** %8, align 8
  %16 = getelementptr inbounds i8, i8* %15, i64 %7
  %17 = getelementptr inbounds i8, i8* %16, i64 8
  %18 = load i64, i64* %14, align 8
  %19 = icmp eq i64 %18, -1
  br i1 %19, label %26, label %20

20:                                               ; preds = %2
  %21 = load %"class.mojo::Message"*, %"class.mojo::Message"** %13, align 8
  %22 = getelementptr inbounds %"class.mojo::Message", %"class.mojo::Message"* %21, i64 0, i32 1, i32 2
  %23 = load i8*, i8** %22, align 8
  %24 = getelementptr inbounds i8, i8* %23, i64 %18
  %25 = bitcast i8* %24 to %"class.mojo::internal::Array_Data.46"*
  br label %26

26:                                               ; preds = %2, %20
  %27 = phi %"class.mojo::internal::Array_Data.46"* [ %25, %20 ], [ null, %2 ]
  %28 = bitcast i8* %17 to i64*
  %29 = icmp eq %"class.mojo::internal::Array_Data.46"* %27, null
  %30 = ptrtoint %"class.mojo::internal::Array_Data.46"* %27 to i64
  %31 = ptrtoint i8* %17 to i64
  %32 = sub i64 %30, %31
  %33 = select i1 %29, i64 0, i64 %32
  store i64 %33, i64* %28, align 8
  %34 = getelementptr inbounds %"class.downloads::mojom::PageHandlerProxy", %"class.downloads::mojom::PageHandlerProxy"* %0, i64 0, i32 1
  %35 = bitcast %"class.mojo::MessageReceiverWithResponder"** %34 to %"class.mojo::MessageReceiver"**
  %36 = load %"class.mojo::MessageReceiver"*, %"class.mojo::MessageReceiver"** %35, align 8
  %37 = bitcast %"class.mojo::MessageReceiver"* %36 to i1 (%"class.mojo::MessageReceiver"*, %"class.mojo::Message"*)***
  %38 = load i1 (%"class.mojo::MessageReceiver"*, %"class.mojo::Message"*)**, i1 (%"class.mojo::MessageReceiver"*, %"class.mojo::Message"*)*** %37, align 8
  %39 = getelementptr inbounds i1 (%"class.mojo::MessageReceiver"*, %"class.mojo::Message"*)*, i1 (%"class.mojo::MessageReceiver"*, %"class.mojo::Message"*)** %38, i64 3
  %40 = load i1 (%"class.mojo::MessageReceiver"*, %"class.mojo::Message"*)*, i1 (%"class.mojo::MessageReceiver"*, %"class.mojo::Message"*)** %39, align 8
  %41 = call zeroext i1 %40(%"class.mojo::MessageReceiver"* %36, %"class.mojo::Message"* nonnull %3) #9
  call void @llvm.lifetime.end.p0i8(i64 16, i8* nonnull %12) #9
  call void @_ZN4mojo7MessageD1Ev(%"class.mojo::Message"* nonnull %3) #9
  call void @llvm.lifetime.end.p0i8(i64 120, i8* nonnull %5) #9
  ret void
}

; Function Attrs: nounwind ssp uwtable
define hidden void @_ZN9downloads5mojom16PageHandlerProxy4DragERKNSt3__112basic_stringIcNS2_11char_traitsIcEENS2_9allocatorIcEEEE(%"class.downloads::mojom::PageHandlerProxy"* nocapture readonly, %"class.std::__1::basic_string"* dereferenceable(24)) unnamed_addr #0 align 2 {
  %3 = alloca %"class.mojo::Message", align 8
  %4 = alloca %"class.mojo::internal::MessageFragment.44", align 8
  %5 = bitcast %"class.mojo::Message"* %3 to i8*
  call void @llvm.lifetime.start.p0i8(i64 120, i8* nonnull %5) #9
  call void @llvm.memset.p0i8.i64(i8* nonnull align 8 %5, i8 -86, i64 120, i1 false)
  call void @_ZN4mojo7MessageC1EjjmmPNSt3__16vectorINS_16ScopedHandleBaseINS_6HandleEEENS1_9allocatorIS5_EEEE(%"class.mojo::Message"* nonnull %3, i32 720007318, i32 0, i64 0, i64 0, %"class.std::__1::vector"* null) #9
  %6 = getelementptr inbounds %"class.mojo::Message", %"class.mojo::Message"* %3, i64 0, i32 1
  %7 = call i64 @_ZN4mojo8internal6Buffer8AllocateEm(%"class.mojo::internal::Buffer"* %6, i64 16) #9
  %8 = getelementptr inbounds %"class.mojo::Message", %"class.mojo::Message"* %3, i64 0, i32 1, i32 2
  %9 = load i8*, i8** %8, align 8
  %10 = getelementptr inbounds i8, i8* %9, i64 %7
  %11 = bitcast i8* %10 to %"class.downloads::mojom::internal::PageHandler_Drag_Params_Data"*
  call void @_ZN9downloads5mojom8internal28PageHandler_Drag_Params_DataC1Ev(%"class.downloads::mojom::internal::PageHandler_Drag_Params_Data"* %11) #9
  %12 = bitcast %"class.mojo::internal::MessageFragment.44"* %4 to i8*
  call void @llvm.lifetime.start.p0i8(i64 16, i8* nonnull %12) #9
  %13 = getelementptr inbounds %"class.mojo::internal::MessageFragment.44", %"class.mojo::internal::MessageFragment.44"* %4, i64 0, i32 0
  %14 = getelementptr inbounds %"class.mojo::internal::MessageFragment.44", %"class.mojo::internal::MessageFragment.44"* %4, i64 0, i32 1
  store %"class.mojo::Message"* %3, %"class.mojo::Message"** %13, align 8
  store i64 -1, i64* %14, align 8
  call void @_ZN4mojo8internal10SerializerINS_14StringDataViewEKNSt3__112basic_stringIcNS3_11char_traitsIcEENS3_9allocatorIcEEEEE9SerializeERSA_RNS0_15MessageFragmentINS0_10Array_DataIcEEEE(%"class.std::__1::basic_string"* dereferenceable(24) %1, %"class.mojo::internal::MessageFragment.44"* nonnull dereferenceable(16) %4) #9
  %15 = load i8*, i8** %8, align 8
  %16 = getelementptr inbounds i8, i8* %15, i64 %7
  %17 = getelementptr inbounds i8, i8* %16, i64 8
  %18 = load i64, i64* %14, align 8
  %19 = icmp eq i64 %18, -1
  br i1 %19, label %26, label %20

20:                                               ; preds = %2
  %21 = load %"class.mojo::Message"*, %"class.mojo::Message"** %13, align 8
  %22 = getelementptr inbounds %"class.mojo::Message", %"class.mojo::Message"* %21, i64 0, i32 1, i32 2
  %23 = load i8*, i8** %22, align 8
  %24 = getelementptr inbounds i8, i8* %23, i64 %18
  %25 = bitcast i8* %24 to %"class.mojo::internal::Array_Data.46"*
  br label %26

26:                                               ; preds = %2, %20
  %27 = phi %"class.mojo::internal::Array_Data.46"* [ %25, %20 ], [ null, %2 ]
  %28 = bitcast i8* %17 to i64*
  %29 = icmp eq %"class.mojo::internal::Array_Data.46"* %27, null
  %30 = ptrtoint %"class.mojo::internal::Array_Data.46"* %27 to i64
  %31 = ptrtoint i8* %17 to i64
  %32 = sub i64 %30, %31
  %33 = select i1 %29, i64 0, i64 %32
  store i64 %33, i64* %28, align 8
  %34 = getelementptr inbounds %"class.downloads::mojom::PageHandlerProxy", %"class.downloads::mojom::PageHandlerProxy"* %0, i64 0, i32 1
  %35 = bitcast %"class.mojo::MessageReceiverWithResponder"** %34 to %"class.mojo::MessageReceiver"**
  %36 = load %"class.mojo::MessageReceiver"*, %"class.mojo::MessageReceiver"** %35, align 8
  %37 = bitcast %"class.mojo::MessageReceiver"* %36 to i1 (%"class.mojo::MessageReceiver"*, %"class.mojo::Message"*)***
  %38 = load i1 (%"class.mojo::MessageReceiver"*, %"class.mojo::Message"*)**, i1 (%"class.mojo::MessageReceiver"*, %"class.mojo::Message"*)*** %37, align 8
  %39 = getelementptr inbounds i1 (%"class.mojo::MessageReceiver"*, %"class.mojo::Message"*)*, i1 (%"class.mojo::MessageReceiver"*, %"class.mojo::Message"*)** %38, i64 3
  %40 = load i1 (%"class.mojo::MessageReceiver"*, %"class.mojo::Message"*)*, i1 (%"class.mojo::MessageReceiver"*, %"class.mojo::Message"*)** %39, align 8
  %41 = call zeroext i1 %40(%"class.mojo::MessageReceiver"* %36, %"class.mojo::Message"* nonnull %3) #9
  call void @llvm.lifetime.end.p0i8(i64 16, i8* nonnull %12) #9
  call void @_ZN4mojo7MessageD1Ev(%"class.mojo::Message"* nonnull %3) #9
  call void @llvm.lifetime.end.p0i8(i64 120, i8* nonnull %5) #9
  ret void
}

; Function Attrs: nounwind ssp uwtable
define hidden void @_ZN9downloads5mojom16PageHandlerProxy29SaveDangerousRequiringGestureERKNSt3__112basic_stringIcNS2_11char_traitsIcEENS2_9allocatorIcEEEE(%"class.downloads::mojom::PageHandlerProxy"* nocapture readonly, %"class.std::__1::basic_string"* dereferenceable(24)) unnamed_addr #0 align 2 {
  %3 = alloca %"class.mojo::Message", align 8
  %4 = alloca %"class.mojo::internal::MessageFragment.44", align 8
  %5 = bitcast %"class.mojo::Message"* %3 to i8*
  call void @llvm.lifetime.start.p0i8(i64 120, i8* nonnull %5) #9
  call void @llvm.memset.p0i8.i64(i8* nonnull align 8 %5, i8 -86, i64 120, i1 false)
  call void @_ZN4mojo7MessageC1EjjmmPNSt3__16vectorINS_16ScopedHandleBaseINS_6HandleEEENS1_9allocatorIS5_EEEE(%"class.mojo::Message"* nonnull %3, i32 1199387098, i32 0, i64 0, i64 0, %"class.std::__1::vector"* null) #9
  %6 = getelementptr inbounds %"class.mojo::Message", %"class.mojo::Message"* %3, i64 0, i32 1
  %7 = call i64 @_ZN4mojo8internal6Buffer8AllocateEm(%"class.mojo::internal::Buffer"* %6, i64 16) #9
  %8 = getelementptr inbounds %"class.mojo::Message", %"class.mojo::Message"* %3, i64 0, i32 1, i32 2
  %9 = load i8*, i8** %8, align 8
  %10 = getelementptr inbounds i8, i8* %9, i64 %7
  %11 = bitcast i8* %10 to %"class.downloads::mojom::internal::PageHandler_SaveDangerousRequiringGesture_Params_Data"*
  call void @_ZN9downloads5mojom8internal53PageHandler_SaveDangerousRequiringGesture_Params_DataC1Ev(%"class.downloads::mojom::internal::PageHandler_SaveDangerousRequiringGesture_Params_Data"* %11) #9
  %12 = bitcast %"class.mojo::internal::MessageFragment.44"* %4 to i8*
  call void @llvm.lifetime.start.p0i8(i64 16, i8* nonnull %12) #9
  %13 = getelementptr inbounds %"class.mojo::internal::MessageFragment.44", %"class.mojo::internal::MessageFragment.44"* %4, i64 0, i32 0
  %14 = getelementptr inbounds %"class.mojo::internal::MessageFragment.44", %"class.mojo::internal::MessageFragment.44"* %4, i64 0, i32 1
  store %"class.mojo::Message"* %3, %"class.mojo::Message"** %13, align 8
  store i64 -1, i64* %14, align 8
  call void @_ZN4mojo8internal10SerializerINS_14StringDataViewEKNSt3__112basic_stringIcNS3_11char_traitsIcEENS3_9allocatorIcEEEEE9SerializeERSA_RNS0_15MessageFragmentINS0_10Array_DataIcEEEE(%"class.std::__1::basic_string"* dereferenceable(24) %1, %"class.mojo::internal::MessageFragment.44"* nonnull dereferenceable(16) %4) #9
  %15 = load i8*, i8** %8, align 8
  %16 = getelementptr inbounds i8, i8* %15, i64 %7
  %17 = getelementptr inbounds i8, i8* %16, i64 8
  %18 = load i64, i64* %14, align 8
  %19 = icmp eq i64 %18, -1
  br i1 %19, label %26, label %20

20:                                               ; preds = %2
  %21 = load %"class.mojo::Message"*, %"class.mojo::Message"** %13, align 8
  %22 = getelementptr inbounds %"class.mojo::Message", %"class.mojo::Message"* %21, i64 0, i32 1, i32 2
  %23 = load i8*, i8** %22, align 8
  %24 = getelementptr inbounds i8, i8* %23, i64 %18
  %25 = bitcast i8* %24 to %"class.mojo::internal::Array_Data.46"*
  br label %26

26:                                               ; preds = %2, %20
  %27 = phi %"class.mojo::internal::Array_Data.46"* [ %25, %20 ], [ null, %2 ]
  %28 = bitcast i8* %17 to i64*
  %29 = icmp eq %"class.mojo::internal::Array_Data.46"* %27, null
  %30 = ptrtoint %"class.mojo::internal::Array_Data.46"* %27 to i64
  %31 = ptrtoint i8* %17 to i64
  %32 = sub i64 %30, %31
  %33 = select i1 %29, i64 0, i64 %32
  store i64 %33, i64* %28, align 8
  %34 = getelementptr inbounds %"class.downloads::mojom::PageHandlerProxy", %"class.downloads::mojom::PageHandlerProxy"* %0, i64 0, i32 1
  %35 = bitcast %"class.mojo::MessageReceiverWithResponder"** %34 to %"class.mojo::MessageReceiver"**
  %36 = load %"class.mojo::MessageReceiver"*, %"class.mojo::MessageReceiver"** %35, align 8
  %37 = bitcast %"class.mojo::MessageReceiver"* %36 to i1 (%"class.mojo::MessageReceiver"*, %"class.mojo::Message"*)***
  %38 = load i1 (%"class.mojo::MessageReceiver"*, %"class.mojo::Message"*)**, i1 (%"class.mojo::MessageReceiver"*, %"class.mojo::Message"*)*** %37, align 8
  %39 = getelementptr inbounds i1 (%"class.mojo::MessageReceiver"*, %"class.mojo::Message"*)*, i1 (%"class.mojo::MessageReceiver"*, %"class.mojo::Message"*)** %38, i64 3
  %40 = load i1 (%"class.mojo::MessageReceiver"*, %"class.mojo::Message"*)*, i1 (%"class.mojo::MessageReceiver"*, %"class.mojo::Message"*)** %39, align 8
  %41 = call zeroext i1 %40(%"class.mojo::MessageReceiver"* %36, %"class.mojo::Message"* nonnull %3) #9
  call void @llvm.lifetime.end.p0i8(i64 16, i8* nonnull %12) #9
  call void @_ZN4mojo7MessageD1Ev(%"class.mojo::Message"* nonnull %3) #9
  call void @llvm.lifetime.end.p0i8(i64 120, i8* nonnull %5) #9
  ret void
}

; Function Attrs: nounwind ssp uwtable
define hidden void @_ZN9downloads5mojom16PageHandlerProxy16DiscardDangerousERKNSt3__112basic_stringIcNS2_11char_traitsIcEENS2_9allocatorIcEEEE(%"class.downloads::mojom::PageHandlerProxy"* nocapture readonly, %"class.std::__1::basic_string"* dereferenceable(24)) unnamed_addr #0 align 2 {
  %3 = alloca %"class.mojo::Message", align 8
  %4 = alloca %"class.mojo::internal::MessageFragment.44", align 8
  %5 = bitcast %"class.mojo::Message"* %3 to i8*
  call void @llvm.lifetime.start.p0i8(i64 120, i8* nonnull %5) #9
  call void @llvm.memset.p0i8.i64(i8* nonnull align 8 %5, i8 -86, i64 120, i1 false)
  call void @_ZN4mojo7MessageC1EjjmmPNSt3__16vectorINS_16ScopedHandleBaseINS_6HandleEEENS1_9allocatorIS5_EEEE(%"class.mojo::Message"* nonnull %3, i32 1714121110, i32 0, i64 0, i64 0, %"class.std::__1::vector"* null) #9
  %6 = getelementptr inbounds %"class.mojo::Message", %"class.mojo::Message"* %3, i64 0, i32 1
  %7 = call i64 @_ZN4mojo8internal6Buffer8AllocateEm(%"class.mojo::internal::Buffer"* %6, i64 16) #9
  %8 = getelementptr inbounds %"class.mojo::Message", %"class.mojo::Message"* %3, i64 0, i32 1, i32 2
  %9 = load i8*, i8** %8, align 8
  %10 = getelementptr inbounds i8, i8* %9, i64 %7
  %11 = bitcast i8* %10 to %"class.downloads::mojom::internal::PageHandler_DiscardDangerous_Params_Data"*
  call void @_ZN9downloads5mojom8internal40PageHandler_DiscardDangerous_Params_DataC1Ev(%"class.downloads::mojom::internal::PageHandler_DiscardDangerous_Params_Data"* %11) #9
  %12 = bitcast %"class.mojo::internal::MessageFragment.44"* %4 to i8*
  call void @llvm.lifetime.start.p0i8(i64 16, i8* nonnull %12) #9
  %13 = getelementptr inbounds %"class.mojo::internal::MessageFragment.44", %"class.mojo::internal::MessageFragment.44"* %4, i64 0, i32 0
  %14 = getelementptr inbounds %"class.mojo::internal::MessageFragment.44", %"class.mojo::internal::MessageFragment.44"* %4, i64 0, i32 1
  store %"class.mojo::Message"* %3, %"class.mojo::Message"** %13, align 8
  store i64 -1, i64* %14, align 8
  call void @_ZN4mojo8internal10SerializerINS_14StringDataViewEKNSt3__112basic_stringIcNS3_11char_traitsIcEENS3_9allocatorIcEEEEE9SerializeERSA_RNS0_15MessageFragmentINS0_10Array_DataIcEEEE(%"class.std::__1::basic_string"* dereferenceable(24) %1, %"class.mojo::internal::MessageFragment.44"* nonnull dereferenceable(16) %4) #9
  %15 = load i8*, i8** %8, align 8
  %16 = getelementptr inbounds i8, i8* %15, i64 %7
  %17 = getelementptr inbounds i8, i8* %16, i64 8
  %18 = load i64, i64* %14, align 8
  %19 = icmp eq i64 %18, -1
  br i1 %19, label %26, label %20

20:                                               ; preds = %2
  %21 = load %"class.mojo::Message"*, %"class.mojo::Message"** %13, align 8
  %22 = getelementptr inbounds %"class.mojo::Message", %"class.mojo::Message"* %21, i64 0, i32 1, i32 2
  %23 = load i8*, i8** %22, align 8
  %24 = getelementptr inbounds i8, i8* %23, i64 %18
  %25 = bitcast i8* %24 to %"class.mojo::internal::Array_Data.46"*
  br label %26

26:                                               ; preds = %2, %20
  %27 = phi %"class.mojo::internal::Array_Data.46"* [ %25, %20 ], [ null, %2 ]
  %28 = bitcast i8* %17 to i64*
  %29 = icmp eq %"class.mojo::internal::Array_Data.46"* %27, null
  %30 = ptrtoint %"class.mojo::internal::Array_Data.46"* %27 to i64
  %31 = ptrtoint i8* %17 to i64
  %32 = sub i64 %30, %31
  %33 = select i1 %29, i64 0, i64 %32
  store i64 %33, i64* %28, align 8
  %34 = getelementptr inbounds %"class.downloads::mojom::PageHandlerProxy", %"class.downloads::mojom::PageHandlerProxy"* %0, i64 0, i32 1
  %35 = bitcast %"class.mojo::MessageReceiverWithResponder"** %34 to %"class.mojo::MessageReceiver"**
  %36 = load %"class.mojo::MessageReceiver"*, %"class.mojo::MessageReceiver"** %35, align 8
  %37 = bitcast %"class.mojo::MessageReceiver"* %36 to i1 (%"class.mojo::MessageReceiver"*, %"class.mojo::Message"*)***
  %38 = load i1 (%"class.mojo::MessageReceiver"*, %"class.mojo::Message"*)**, i1 (%"class.mojo::MessageReceiver"*, %"class.mojo::Message"*)*** %37, align 8
  %39 = getelementptr inbounds i1 (%"class.mojo::MessageReceiver"*, %"class.mojo::Message"*)*, i1 (%"class.mojo::MessageReceiver"*, %"class.mojo::Message"*)** %38, i64 3
  %40 = load i1 (%"class.mojo::MessageReceiver"*, %"class.mojo::Message"*)*, i1 (%"class.mojo::MessageReceiver"*, %"class.mojo::Message"*)** %39, align 8
  %41 = call zeroext i1 %40(%"class.mojo::MessageReceiver"* %36, %"class.mojo::Message"* nonnull %3) #9
  call void @llvm.lifetime.end.p0i8(i64 16, i8* nonnull %12) #9
  call void @_ZN4mojo7MessageD1Ev(%"class.mojo::Message"* nonnull %3) #9
  call void @llvm.lifetime.end.p0i8(i64 120, i8* nonnull %5) #9
  ret void
}

; Function Attrs: nounwind ssp uwtable
define hidden void @_ZN9downloads5mojom16PageHandlerProxy13RetryDownloadERKNSt3__112basic_stringIcNS2_11char_traitsIcEENS2_9allocatorIcEEEE(%"class.downloads::mojom::PageHandlerProxy"* nocapture readonly, %"class.std::__1::basic_string"* dereferenceable(24)) unnamed_addr #0 align 2 {
  %3 = alloca %"class.mojo::Message", align 8
  %4 = alloca %"class.mojo::internal::MessageFragment.44", align 8
  %5 = bitcast %"class.mojo::Message"* %3 to i8*
  call void @llvm.lifetime.start.p0i8(i64 120, i8* nonnull %5) #9
  call void @llvm.memset.p0i8.i64(i8* nonnull align 8 %5, i8 -86, i64 120, i1 false)
  call void @_ZN4mojo7MessageC1EjjmmPNSt3__16vectorINS_16ScopedHandleBaseINS_6HandleEEENS1_9allocatorIS5_EEEE(%"class.mojo::Message"* nonnull %3, i32 1656907928, i32 0, i64 0, i64 0, %"class.std::__1::vector"* null) #9
  %6 = getelementptr inbounds %"class.mojo::Message", %"class.mojo::Message"* %3, i64 0, i32 1
  %7 = call i64 @_ZN4mojo8internal6Buffer8AllocateEm(%"class.mojo::internal::Buffer"* %6, i64 16) #9
  %8 = getelementptr inbounds %"class.mojo::Message", %"class.mojo::Message"* %3, i64 0, i32 1, i32 2
  %9 = load i8*, i8** %8, align 8
  %10 = getelementptr inbounds i8, i8* %9, i64 %7
  %11 = bitcast i8* %10 to %"class.downloads::mojom::internal::PageHandler_RetryDownload_Params_Data"*
  call void @_ZN9downloads5mojom8internal37PageHandler_RetryDownload_Params_DataC1Ev(%"class.downloads::mojom::internal::PageHandler_RetryDownload_Params_Data"* %11) #9
  %12 = bitcast %"class.mojo::internal::MessageFragment.44"* %4 to i8*
  call void @llvm.lifetime.start.p0i8(i64 16, i8* nonnull %12) #9
  %13 = getelementptr inbounds %"class.mojo::internal::MessageFragment.44", %"class.mojo::internal::MessageFragment.44"* %4, i64 0, i32 0
  %14 = getelementptr inbounds %"class.mojo::internal::MessageFragment.44", %"class.mojo::internal::MessageFragment.44"* %4, i64 0, i32 1
  store %"class.mojo::Message"* %3, %"class.mojo::Message"** %13, align 8
  store i64 -1, i64* %14, align 8
  call void @_ZN4mojo8internal10SerializerINS_14StringDataViewEKNSt3__112basic_stringIcNS3_11char_traitsIcEENS3_9allocatorIcEEEEE9SerializeERSA_RNS0_15MessageFragmentINS0_10Array_DataIcEEEE(%"class.std::__1::basic_string"* dereferenceable(24) %1, %"class.mojo::internal::MessageFragment.44"* nonnull dereferenceable(16) %4) #9
  %15 = load i8*, i8** %8, align 8
  %16 = getelementptr inbounds i8, i8* %15, i64 %7
  %17 = getelementptr inbounds i8, i8* %16, i64 8
  %18 = load i64, i64* %14, align 8
  %19 = icmp eq i64 %18, -1
  br i1 %19, label %26, label %20

20:                                               ; preds = %2
  %21 = load %"class.mojo::Message"*, %"class.mojo::Message"** %13, align 8
  %22 = getelementptr inbounds %"class.mojo::Message", %"class.mojo::Message"* %21, i64 0, i32 1, i32 2
  %23 = load i8*, i8** %22, align 8
  %24 = getelementptr inbounds i8, i8* %23, i64 %18
  %25 = bitcast i8* %24 to %"class.mojo::internal::Array_Data.46"*
  br label %26

26:                                               ; preds = %2, %20
  %27 = phi %"class.mojo::internal::Array_Data.46"* [ %25, %20 ], [ null, %2 ]
  %28 = bitcast i8* %17 to i64*
  %29 = icmp eq %"class.mojo::internal::Array_Data.46"* %27, null
  %30 = ptrtoint %"class.mojo::internal::Array_Data.46"* %27 to i64
  %31 = ptrtoint i8* %17 to i64
  %32 = sub i64 %30, %31
  %33 = select i1 %29, i64 0, i64 %32
  store i64 %33, i64* %28, align 8
  %34 = getelementptr inbounds %"class.downloads::mojom::PageHandlerProxy", %"class.downloads::mojom::PageHandlerProxy"* %0, i64 0, i32 1
  %35 = bitcast %"class.mojo::MessageReceiverWithResponder"** %34 to %"class.mojo::MessageReceiver"**
  %36 = load %"class.mojo::MessageReceiver"*, %"class.mojo::MessageReceiver"** %35, align 8
  %37 = bitcast %"class.mojo::MessageReceiver"* %36 to i1 (%"class.mojo::MessageReceiver"*, %"class.mojo::Message"*)***
  %38 = load i1 (%"class.mojo::MessageReceiver"*, %"class.mojo::Message"*)**, i1 (%"class.mojo::MessageReceiver"*, %"class.mojo::Message"*)*** %37, align 8
  %39 = getelementptr inbounds i1 (%"class.mojo::MessageReceiver"*, %"class.mojo::Message"*)*, i1 (%"class.mojo::MessageReceiver"*, %"class.mojo::Message"*)** %38, i64 3
  %40 = load i1 (%"class.mojo::MessageReceiver"*, %"class.mojo::Message"*)*, i1 (%"class.mojo::MessageReceiver"*, %"class.mojo::Message"*)** %39, align 8
  %41 = call zeroext i1 %40(%"class.mojo::MessageReceiver"* %36, %"class.mojo::Message"* nonnull %3) #9
  call void @llvm.lifetime.end.p0i8(i64 16, i8* nonnull %12) #9
  call void @_ZN4mojo7MessageD1Ev(%"class.mojo::Message"* nonnull %3) #9
  call void @llvm.lifetime.end.p0i8(i64 120, i8* nonnull %5) #9
  ret void
}

; Function Attrs: nounwind ssp uwtable
define hidden void @_ZN9downloads5mojom16PageHandlerProxy4ShowERKNSt3__112basic_stringIcNS2_11char_traitsIcEENS2_9allocatorIcEEEE(%"class.downloads::mojom::PageHandlerProxy"* nocapture readonly, %"class.std::__1::basic_string"* dereferenceable(24)) unnamed_addr #0 align 2 {
  %3 = alloca %"class.mojo::Message", align 8
  %4 = alloca %"class.mojo::internal::MessageFragment.44", align 8
  %5 = bitcast %"class.mojo::Message"* %3 to i8*
  call void @llvm.lifetime.start.p0i8(i64 120, i8* nonnull %5) #9
  call void @llvm.memset.p0i8.i64(i8* nonnull align 8 %5, i8 -86, i64 120, i1 false)
  call void @_ZN4mojo7MessageC1EjjmmPNSt3__16vectorINS_16ScopedHandleBaseINS_6HandleEEENS1_9allocatorIS5_EEEE(%"class.mojo::Message"* nonnull %3, i32 1331854655, i32 0, i64 0, i64 0, %"class.std::__1::vector"* null) #9
  %6 = getelementptr inbounds %"class.mojo::Message", %"class.mojo::Message"* %3, i64 0, i32 1
  %7 = call i64 @_ZN4mojo8internal6Buffer8AllocateEm(%"class.mojo::internal::Buffer"* %6, i64 16) #9
  %8 = getelementptr inbounds %"class.mojo::Message", %"class.mojo::Message"* %3, i64 0, i32 1, i32 2
  %9 = load i8*, i8** %8, align 8
  %10 = getelementptr inbounds i8, i8* %9, i64 %7
  %11 = bitcast i8* %10 to %"class.downloads::mojom::internal::PageHandler_Show_Params_Data"*
  call void @_ZN9downloads5mojom8internal28PageHandler_Show_Params_DataC1Ev(%"class.downloads::mojom::internal::PageHandler_Show_Params_Data"* %11) #9
  %12 = bitcast %"class.mojo::internal::MessageFragment.44"* %4 to i8*
  call void @llvm.lifetime.start.p0i8(i64 16, i8* nonnull %12) #9
  %13 = getelementptr inbounds %"class.mojo::internal::MessageFragment.44", %"class.mojo::internal::MessageFragment.44"* %4, i64 0, i32 0
  %14 = getelementptr inbounds %"class.mojo::internal::MessageFragment.44", %"class.mojo::internal::MessageFragment.44"* %4, i64 0, i32 1
  store %"class.mojo::Message"* %3, %"class.mojo::Message"** %13, align 8
  store i64 -1, i64* %14, align 8
  call void @_ZN4mojo8internal10SerializerINS_14StringDataViewEKNSt3__112basic_stringIcNS3_11char_traitsIcEENS3_9allocatorIcEEEEE9SerializeERSA_RNS0_15MessageFragmentINS0_10Array_DataIcEEEE(%"class.std::__1::basic_string"* dereferenceable(24) %1, %"class.mojo::internal::MessageFragment.44"* nonnull dereferenceable(16) %4) #9
  %15 = load i8*, i8** %8, align 8
  %16 = getelementptr inbounds i8, i8* %15, i64 %7
  %17 = getelementptr inbounds i8, i8* %16, i64 8
  %18 = load i64, i64* %14, align 8
  %19 = icmp eq i64 %18, -1
  br i1 %19, label %26, label %20

20:                                               ; preds = %2
  %21 = load %"class.mojo::Message"*, %"class.mojo::Message"** %13, align 8
  %22 = getelementptr inbounds %"class.mojo::Message", %"class.mojo::Message"* %21, i64 0, i32 1, i32 2
  %23 = load i8*, i8** %22, align 8
  %24 = getelementptr inbounds i8, i8* %23, i64 %18
  %25 = bitcast i8* %24 to %"class.mojo::internal::Array_Data.46"*
  br label %26

26:                                               ; preds = %2, %20
  %27 = phi %"class.mojo::internal::Array_Data.46"* [ %25, %20 ], [ null, %2 ]
  %28 = bitcast i8* %17 to i64*
  %29 = icmp eq %"class.mojo::internal::Array_Data.46"* %27, null
  %30 = ptrtoint %"class.mojo::internal::Array_Data.46"* %27 to i64
  %31 = ptrtoint i8* %17 to i64
  %32 = sub i64 %30, %31
  %33 = select i1 %29, i64 0, i64 %32
  store i64 %33, i64* %28, align 8
  %34 = getelementptr inbounds %"class.downloads::mojom::PageHandlerProxy", %"class.downloads::mojom::PageHandlerProxy"* %0, i64 0, i32 1
  %35 = bitcast %"class.mojo::MessageReceiverWithResponder"** %34 to %"class.mojo::MessageReceiver"**
  %36 = load %"class.mojo::MessageReceiver"*, %"class.mojo::MessageReceiver"** %35, align 8
  %37 = bitcast %"class.mojo::MessageReceiver"* %36 to i1 (%"class.mojo::MessageReceiver"*, %"class.mojo::Message"*)***
  %38 = load i1 (%"class.mojo::MessageReceiver"*, %"class.mojo::Message"*)**, i1 (%"class.mojo::MessageReceiver"*, %"class.mojo::Message"*)*** %37, align 8
  %39 = getelementptr inbounds i1 (%"class.mojo::MessageReceiver"*, %"class.mojo::Message"*)*, i1 (%"class.mojo::MessageReceiver"*, %"class.mojo::Message"*)** %38, i64 3
  %40 = load i1 (%"class.mojo::MessageReceiver"*, %"class.mojo::Message"*)*, i1 (%"class.mojo::MessageReceiver"*, %"class.mojo::Message"*)** %39, align 8
  %41 = call zeroext i1 %40(%"class.mojo::MessageReceiver"* %36, %"class.mojo::Message"* nonnull %3) #9
  call void @llvm.lifetime.end.p0i8(i64 16, i8* nonnull %12) #9
  call void @_ZN4mojo7MessageD1Ev(%"class.mojo::Message"* nonnull %3) #9
  call void @llvm.lifetime.end.p0i8(i64 120, i8* nonnull %5) #9
  ret void
}

; Function Attrs: nounwind ssp uwtable
define hidden void @_ZN9downloads5mojom16PageHandlerProxy5PauseERKNSt3__112basic_stringIcNS2_11char_traitsIcEENS2_9allocatorIcEEEE(%"class.downloads::mojom::PageHandlerProxy"* nocapture readonly, %"class.std::__1::basic_string"* dereferenceable(24)) unnamed_addr #0 align 2 {
  %3 = alloca %"class.mojo::Message", align 8
  %4 = alloca %"class.mojo::internal::MessageFragment.44", align 8
  %5 = bitcast %"class.mojo::Message"* %3 to i8*
  call void @llvm.lifetime.start.p0i8(i64 120, i8* nonnull %5) #9
  call void @llvm.memset.p0i8.i64(i8* nonnull align 8 %5, i8 -86, i64 120, i1 false)
  call void @_ZN4mojo7MessageC1EjjmmPNSt3__16vectorINS_16ScopedHandleBaseINS_6HandleEEENS1_9allocatorIS5_EEEE(%"class.mojo::Message"* nonnull %3, i32 1215920917, i32 0, i64 0, i64 0, %"class.std::__1::vector"* null) #9
  %6 = getelementptr inbounds %"class.mojo::Message", %"class.mojo::Message"* %3, i64 0, i32 1
  %7 = call i64 @_ZN4mojo8internal6Buffer8AllocateEm(%"class.mojo::internal::Buffer"* %6, i64 16) #9
  %8 = getelementptr inbounds %"class.mojo::Message", %"class.mojo::Message"* %3, i64 0, i32 1, i32 2
  %9 = load i8*, i8** %8, align 8
  %10 = getelementptr inbounds i8, i8* %9, i64 %7
  %11 = bitcast i8* %10 to %"class.downloads::mojom::internal::PageHandler_Pause_Params_Data"*
  call void @_ZN9downloads5mojom8internal29PageHandler_Pause_Params_DataC1Ev(%"class.downloads::mojom::internal::PageHandler_Pause_Params_Data"* %11) #9
  %12 = bitcast %"class.mojo::internal::MessageFragment.44"* %4 to i8*
  call void @llvm.lifetime.start.p0i8(i64 16, i8* nonnull %12) #9
  %13 = getelementptr inbounds %"class.mojo::internal::MessageFragment.44", %"class.mojo::internal::MessageFragment.44"* %4, i64 0, i32 0
  %14 = getelementptr inbounds %"class.mojo::internal::MessageFragment.44", %"class.mojo::internal::MessageFragment.44"* %4, i64 0, i32 1
  store %"class.mojo::Message"* %3, %"class.mojo::Message"** %13, align 8
  store i64 -1, i64* %14, align 8
  call void @_ZN4mojo8internal10SerializerINS_14StringDataViewEKNSt3__112basic_stringIcNS3_11char_traitsIcEENS3_9allocatorIcEEEEE9SerializeERSA_RNS0_15MessageFragmentINS0_10Array_DataIcEEEE(%"class.std::__1::basic_string"* dereferenceable(24) %1, %"class.mojo::internal::MessageFragment.44"* nonnull dereferenceable(16) %4) #9
  %15 = load i8*, i8** %8, align 8
  %16 = getelementptr inbounds i8, i8* %15, i64 %7
  %17 = getelementptr inbounds i8, i8* %16, i64 8
  %18 = load i64, i64* %14, align 8
  %19 = icmp eq i64 %18, -1
  br i1 %19, label %26, label %20

20:                                               ; preds = %2
  %21 = load %"class.mojo::Message"*, %"class.mojo::Message"** %13, align 8
  %22 = getelementptr inbounds %"class.mojo::Message", %"class.mojo::Message"* %21, i64 0, i32 1, i32 2
  %23 = load i8*, i8** %22, align 8
  %24 = getelementptr inbounds i8, i8* %23, i64 %18
  %25 = bitcast i8* %24 to %"class.mojo::internal::Array_Data.46"*
  br label %26

26:                                               ; preds = %2, %20
  %27 = phi %"class.mojo::internal::Array_Data.46"* [ %25, %20 ], [ null, %2 ]
  %28 = bitcast i8* %17 to i64*
  %29 = icmp eq %"class.mojo::internal::Array_Data.46"* %27, null
  %30 = ptrtoint %"class.mojo::internal::Array_Data.46"* %27 to i64
  %31 = ptrtoint i8* %17 to i64
  %32 = sub i64 %30, %31
  %33 = select i1 %29, i64 0, i64 %32
  store i64 %33, i64* %28, align 8
  %34 = getelementptr inbounds %"class.downloads::mojom::PageHandlerProxy", %"class.downloads::mojom::PageHandlerProxy"* %0, i64 0, i32 1
  %35 = bitcast %"class.mojo::MessageReceiverWithResponder"** %34 to %"class.mojo::MessageReceiver"**
  %36 = load %"class.mojo::MessageReceiver"*, %"class.mojo::MessageReceiver"** %35, align 8
  %37 = bitcast %"class.mojo::MessageReceiver"* %36 to i1 (%"class.mojo::MessageReceiver"*, %"class.mojo::Message"*)***
  %38 = load i1 (%"class.mojo::MessageReceiver"*, %"class.mojo::Message"*)**, i1 (%"class.mojo::MessageReceiver"*, %"class.mojo::Message"*)*** %37, align 8
  %39 = getelementptr inbounds i1 (%"class.mojo::MessageReceiver"*, %"class.mojo::Message"*)*, i1 (%"class.mojo::MessageReceiver"*, %"class.mojo::Message"*)** %38, i64 3
  %40 = load i1 (%"class.mojo::MessageReceiver"*, %"class.mojo::Message"*)*, i1 (%"class.mojo::MessageReceiver"*, %"class.mojo::Message"*)** %39, align 8
  %41 = call zeroext i1 %40(%"class.mojo::MessageReceiver"* %36, %"class.mojo::Message"* nonnull %3) #9
  call void @llvm.lifetime.end.p0i8(i64 16, i8* nonnull %12) #9
  call void @_ZN4mojo7MessageD1Ev(%"class.mojo::Message"* nonnull %3) #9
  call void @llvm.lifetime.end.p0i8(i64 120, i8* nonnull %5) #9
  ret void
}

; Function Attrs: nounwind ssp uwtable
define hidden void @_ZN9downloads5mojom16PageHandlerProxy6ResumeERKNSt3__112basic_stringIcNS2_11char_traitsIcEENS2_9allocatorIcEEEE(%"class.downloads::mojom::PageHandlerProxy"* nocapture readonly, %"class.std::__1::basic_string"* dereferenceable(24)) unnamed_addr #0 align 2 {
  %3 = alloca %"class.mojo::Message", align 8
  %4 = alloca %"class.mojo::internal::MessageFragment.44", align 8
  %5 = bitcast %"class.mojo::Message"* %3 to i8*
  call void @llvm.lifetime.start.p0i8(i64 120, i8* nonnull %5) #9
  call void @llvm.memset.p0i8.i64(i8* nonnull align 8 %5, i8 -86, i64 120, i1 false)
  call void @_ZN4mojo7MessageC1EjjmmPNSt3__16vectorINS_16ScopedHandleBaseINS_6HandleEEENS1_9allocatorIS5_EEEE(%"class.mojo::Message"* nonnull %3, i32 736862928, i32 0, i64 0, i64 0, %"class.std::__1::vector"* null) #9
  %6 = getelementptr inbounds %"class.mojo::Message", %"class.mojo::Message"* %3, i64 0, i32 1
  %7 = call i64 @_ZN4mojo8internal6Buffer8AllocateEm(%"class.mojo::internal::Buffer"* %6, i64 16) #9
  %8 = getelementptr inbounds %"class.mojo::Message", %"class.mojo::Message"* %3, i64 0, i32 1, i32 2
  %9 = load i8*, i8** %8, align 8
  %10 = getelementptr inbounds i8, i8* %9, i64 %7
  %11 = bitcast i8* %10 to %"class.downloads::mojom::internal::PageHandler_Resume_Params_Data"*
  call void @_ZN9downloads5mojom8internal30PageHandler_Resume_Params_DataC1Ev(%"class.downloads::mojom::internal::PageHandler_Resume_Params_Data"* %11) #9
  %12 = bitcast %"class.mojo::internal::MessageFragment.44"* %4 to i8*
  call void @llvm.lifetime.start.p0i8(i64 16, i8* nonnull %12) #9
  %13 = getelementptr inbounds %"class.mojo::internal::MessageFragment.44", %"class.mojo::internal::MessageFragment.44"* %4, i64 0, i32 0
  %14 = getelementptr inbounds %"class.mojo::internal::MessageFragment.44", %"class.mojo::internal::MessageFragment.44"* %4, i64 0, i32 1
  store %"class.mojo::Message"* %3, %"class.mojo::Message"** %13, align 8
  store i64 -1, i64* %14, align 8
  call void @_ZN4mojo8internal10SerializerINS_14StringDataViewEKNSt3__112basic_stringIcNS3_11char_traitsIcEENS3_9allocatorIcEEEEE9SerializeERSA_RNS0_15MessageFragmentINS0_10Array_DataIcEEEE(%"class.std::__1::basic_string"* dereferenceable(24) %1, %"class.mojo::internal::MessageFragment.44"* nonnull dereferenceable(16) %4) #9
  %15 = load i8*, i8** %8, align 8
  %16 = getelementptr inbounds i8, i8* %15, i64 %7
  %17 = getelementptr inbounds i8, i8* %16, i64 8
  %18 = load i64, i64* %14, align 8
  %19 = icmp eq i64 %18, -1
  br i1 %19, label %26, label %20

20:                                               ; preds = %2
  %21 = load %"class.mojo::Message"*, %"class.mojo::Message"** %13, align 8
  %22 = getelementptr inbounds %"class.mojo::Message", %"class.mojo::Message"* %21, i64 0, i32 1, i32 2
  %23 = load i8*, i8** %22, align 8
  %24 = getelementptr inbounds i8, i8* %23, i64 %18
  %25 = bitcast i8* %24 to %"class.mojo::internal::Array_Data.46"*
  br label %26

26:                                               ; preds = %2, %20
  %27 = phi %"class.mojo::internal::Array_Data.46"* [ %25, %20 ], [ null, %2 ]
  %28 = bitcast i8* %17 to i64*
  %29 = icmp eq %"class.mojo::internal::Array_Data.46"* %27, null
  %30 = ptrtoint %"class.mojo::internal::Array_Data.46"* %27 to i64
  %31 = ptrtoint i8* %17 to i64
  %32 = sub i64 %30, %31
  %33 = select i1 %29, i64 0, i64 %32
  store i64 %33, i64* %28, align 8
  %34 = getelementptr inbounds %"class.downloads::mojom::PageHandlerProxy", %"class.downloads::mojom::PageHandlerProxy"* %0, i64 0, i32 1
  %35 = bitcast %"class.mojo::MessageReceiverWithResponder"** %34 to %"class.mojo::MessageReceiver"**
  %36 = load %"class.mojo::MessageReceiver"*, %"class.mojo::MessageReceiver"** %35, align 8
  %37 = bitcast %"class.mojo::MessageReceiver"* %36 to i1 (%"class.mojo::MessageReceiver"*, %"class.mojo::Message"*)***
  %38 = load i1 (%"class.mojo::MessageReceiver"*, %"class.mojo::Message"*)**, i1 (%"class.mojo::MessageReceiver"*, %"class.mojo::Message"*)*** %37, align 8
  %39 = getelementptr inbounds i1 (%"class.mojo::MessageReceiver"*, %"class.mojo::Message"*)*, i1 (%"class.mojo::MessageReceiver"*, %"class.mojo::Message"*)** %38, i64 3
  %40 = load i1 (%"class.mojo::MessageReceiver"*, %"class.mojo::Message"*)*, i1 (%"class.mojo::MessageReceiver"*, %"class.mojo::Message"*)** %39, align 8
  %41 = call zeroext i1 %40(%"class.mojo::MessageReceiver"* %36, %"class.mojo::Message"* nonnull %3) #9
  call void @llvm.lifetime.end.p0i8(i64 16, i8* nonnull %12) #9
  call void @_ZN4mojo7MessageD1Ev(%"class.mojo::Message"* nonnull %3) #9
  call void @llvm.lifetime.end.p0i8(i64 120, i8* nonnull %5) #9
  ret void
}

; Function Attrs: nounwind ssp uwtable
define hidden void @_ZN9downloads5mojom16PageHandlerProxy6RemoveERKNSt3__112basic_stringIcNS2_11char_traitsIcEENS2_9allocatorIcEEEE(%"class.downloads::mojom::PageHandlerProxy"* nocapture readonly, %"class.std::__1::basic_string"* dereferenceable(24)) unnamed_addr #0 align 2 {
  %3 = alloca %"class.mojo::Message", align 8
  %4 = alloca %"class.mojo::internal::MessageFragment.44", align 8
  %5 = bitcast %"class.mojo::Message"* %3 to i8*
  call void @llvm.lifetime.start.p0i8(i64 120, i8* nonnull %5) #9
  call void @llvm.memset.p0i8.i64(i8* nonnull align 8 %5, i8 -86, i64 120, i1 false)
  call void @_ZN4mojo7MessageC1EjjmmPNSt3__16vectorINS_16ScopedHandleBaseINS_6HandleEEENS1_9allocatorIS5_EEEE(%"class.mojo::Message"* nonnull %3, i32 1435478827, i32 0, i64 0, i64 0, %"class.std::__1::vector"* null) #9
  %6 = getelementptr inbounds %"class.mojo::Message", %"class.mojo::Message"* %3, i64 0, i32 1
  %7 = call i64 @_ZN4mojo8internal6Buffer8AllocateEm(%"class.mojo::internal::Buffer"* %6, i64 16) #9
  %8 = getelementptr inbounds %"class.mojo::Message", %"class.mojo::Message"* %3, i64 0, i32 1, i32 2
  %9 = load i8*, i8** %8, align 8
  %10 = getelementptr inbounds i8, i8* %9, i64 %7
  %11 = bitcast i8* %10 to %"class.downloads::mojom::internal::PageHandler_Remove_Params_Data"*
  call void @_ZN9downloads5mojom8internal30PageHandler_Remove_Params_DataC1Ev(%"class.downloads::mojom::internal::PageHandler_Remove_Params_Data"* %11) #9
  %12 = bitcast %"class.mojo::internal::MessageFragment.44"* %4 to i8*
  call void @llvm.lifetime.start.p0i8(i64 16, i8* nonnull %12) #9
  %13 = getelementptr inbounds %"class.mojo::internal::MessageFragment.44", %"class.mojo::internal::MessageFragment.44"* %4, i64 0, i32 0
  %14 = getelementptr inbounds %"class.mojo::internal::MessageFragment.44", %"class.mojo::internal::MessageFragment.44"* %4, i64 0, i32 1
  store %"class.mojo::Message"* %3, %"class.mojo::Message"** %13, align 8
  store i64 -1, i64* %14, align 8
  call void @_ZN4mojo8internal10SerializerINS_14StringDataViewEKNSt3__112basic_stringIcNS3_11char_traitsIcEENS3_9allocatorIcEEEEE9SerializeERSA_RNS0_15MessageFragmentINS0_10Array_DataIcEEEE(%"class.std::__1::basic_string"* dereferenceable(24) %1, %"class.mojo::internal::MessageFragment.44"* nonnull dereferenceable(16) %4) #9
  %15 = load i8*, i8** %8, align 8
  %16 = getelementptr inbounds i8, i8* %15, i64 %7
  %17 = getelementptr inbounds i8, i8* %16, i64 8
  %18 = load i64, i64* %14, align 8
  %19 = icmp eq i64 %18, -1
  br i1 %19, label %26, label %20

20:                                               ; preds = %2
  %21 = load %"class.mojo::Message"*, %"class.mojo::Message"** %13, align 8
  %22 = getelementptr inbounds %"class.mojo::Message", %"class.mojo::Message"* %21, i64 0, i32 1, i32 2
  %23 = load i8*, i8** %22, align 8
  %24 = getelementptr inbounds i8, i8* %23, i64 %18
  %25 = bitcast i8* %24 to %"class.mojo::internal::Array_Data.46"*
  br label %26

26:                                               ; preds = %2, %20
  %27 = phi %"class.mojo::internal::Array_Data.46"* [ %25, %20 ], [ null, %2 ]
  %28 = bitcast i8* %17 to i64*
  %29 = icmp eq %"class.mojo::internal::Array_Data.46"* %27, null
  %30 = ptrtoint %"class.mojo::internal::Array_Data.46"* %27 to i64
  %31 = ptrtoint i8* %17 to i64
  %32 = sub i64 %30, %31
  %33 = select i1 %29, i64 0, i64 %32
  store i64 %33, i64* %28, align 8
  %34 = getelementptr inbounds %"class.downloads::mojom::PageHandlerProxy", %"class.downloads::mojom::PageHandlerProxy"* %0, i64 0, i32 1
  %35 = bitcast %"class.mojo::MessageReceiverWithResponder"** %34 to %"class.mojo::MessageReceiver"**
  %36 = load %"class.mojo::MessageReceiver"*, %"class.mojo::MessageReceiver"** %35, align 8
  %37 = bitcast %"class.mojo::MessageReceiver"* %36 to i1 (%"class.mojo::MessageReceiver"*, %"class.mojo::Message"*)***
  %38 = load i1 (%"class.mojo::MessageReceiver"*, %"class.mojo::Message"*)**, i1 (%"class.mojo::MessageReceiver"*, %"class.mojo::Message"*)*** %37, align 8
  %39 = getelementptr inbounds i1 (%"class.mojo::MessageReceiver"*, %"class.mojo::Message"*)*, i1 (%"class.mojo::MessageReceiver"*, %"class.mojo::Message"*)** %38, i64 3
  %40 = load i1 (%"class.mojo::MessageReceiver"*, %"class.mojo::Message"*)*, i1 (%"class.mojo::MessageReceiver"*, %"class.mojo::Message"*)** %39, align 8
  %41 = call zeroext i1 %40(%"class.mojo::MessageReceiver"* %36, %"class.mojo::Message"* nonnull %3) #9
  call void @llvm.lifetime.end.p0i8(i64 16, i8* nonnull %12) #9
  call void @_ZN4mojo7MessageD1Ev(%"class.mojo::Message"* nonnull %3) #9
  call void @llvm.lifetime.end.p0i8(i64 120, i8* nonnull %5) #9
  ret void
}

; Function Attrs: nounwind ssp uwtable
define hidden void @_ZN9downloads5mojom16PageHandlerProxy4UndoEv(%"class.downloads::mojom::PageHandlerProxy"* nocapture readonly) unnamed_addr #0 align 2 {
  %2 = alloca %"class.mojo::Message", align 8
  %3 = bitcast %"class.mojo::Message"* %2 to i8*
  call void @llvm.lifetime.start.p0i8(i64 120, i8* nonnull %3) #9
  call void @llvm.memset.p0i8.i64(i8* nonnull align 8 %3, i8 -86, i64 120, i1 false)
  call void @_ZN4mojo7MessageC1EjjmmPNSt3__16vectorINS_16ScopedHandleBaseINS_6HandleEEENS1_9allocatorIS5_EEEE(%"class.mojo::Message"* nonnull %2, i32 236394735, i32 0, i64 0, i64 0, %"class.std::__1::vector"* null) #9
  %4 = getelementptr inbounds %"class.mojo::Message", %"class.mojo::Message"* %2, i64 0, i32 1
  %5 = call i64 @_ZN4mojo8internal6Buffer8AllocateEm(%"class.mojo::internal::Buffer"* %4, i64 8) #9
  %6 = getelementptr inbounds %"class.mojo::Message", %"class.mojo::Message"* %2, i64 0, i32 1, i32 2
  %7 = load i8*, i8** %6, align 8
  %8 = getelementptr inbounds i8, i8* %7, i64 %5
  %9 = bitcast i8* %8 to %"class.downloads::mojom::internal::PageHandler_Undo_Params_Data"*
  call void @_ZN9downloads5mojom8internal28PageHandler_Undo_Params_DataC1Ev(%"class.downloads::mojom::internal::PageHandler_Undo_Params_Data"* %9) #9
  %10 = getelementptr inbounds %"class.downloads::mojom::PageHandlerProxy", %"class.downloads::mojom::PageHandlerProxy"* %0, i64 0, i32 1
  %11 = bitcast %"class.mojo::MessageReceiverWithResponder"** %10 to %"class.mojo::MessageReceiver"**
  %12 = load %"class.mojo::MessageReceiver"*, %"class.mojo::MessageReceiver"** %11, align 8
  %13 = bitcast %"class.mojo::MessageReceiver"* %12 to i1 (%"class.mojo::MessageReceiver"*, %"class.mojo::Message"*)***
  %14 = load i1 (%"class.mojo::MessageReceiver"*, %"class.mojo::Message"*)**, i1 (%"class.mojo::MessageReceiver"*, %"class.mojo::Message"*)*** %13, align 8
  %15 = getelementptr inbounds i1 (%"class.mojo::MessageReceiver"*, %"class.mojo::Message"*)*, i1 (%"class.mojo::MessageReceiver"*, %"class.mojo::Message"*)** %14, i64 3
  %16 = load i1 (%"class.mojo::MessageReceiver"*, %"class.mojo::Message"*)*, i1 (%"class.mojo::MessageReceiver"*, %"class.mojo::Message"*)** %15, align 8
  %17 = call zeroext i1 %16(%"class.mojo::MessageReceiver"* %12, %"class.mojo::Message"* nonnull %2) #9
  call void @_ZN4mojo7MessageD1Ev(%"class.mojo::Message"* nonnull %2) #9
  call void @llvm.lifetime.end.p0i8(i64 120, i8* nonnull %3) #9
  ret void
}

; Function Attrs: nounwind ssp uwtable
define hidden void @_ZN9downloads5mojom16PageHandlerProxy6CancelERKNSt3__112basic_stringIcNS2_11char_traitsIcEENS2_9allocatorIcEEEE(%"class.downloads::mojom::PageHandlerProxy"* nocapture readonly, %"class.std::__1::basic_string"* dereferenceable(24)) unnamed_addr #0 align 2 {
  %3 = alloca %"class.mojo::Message", align 8
  %4 = alloca %"class.mojo::internal::MessageFragment.44", align 8
  %5 = bitcast %"class.mojo::Message"* %3 to i8*
  call void @llvm.lifetime.start.p0i8(i64 120, i8* nonnull %5) #9
  call void @llvm.memset.p0i8.i64(i8* nonnull align 8 %5, i8 -86, i64 120, i1 false)
  call void @_ZN4mojo7MessageC1EjjmmPNSt3__16vectorINS_16ScopedHandleBaseINS_6HandleEEENS1_9allocatorIS5_EEEE(%"class.mojo::Message"* nonnull %3, i32 16177670, i32 0, i64 0, i64 0, %"class.std::__1::vector"* null) #9
  %6 = getelementptr inbounds %"class.mojo::Message", %"class.mojo::Message"* %3, i64 0, i32 1
  %7 = call i64 @_ZN4mojo8internal6Buffer8AllocateEm(%"class.mojo::internal::Buffer"* %6, i64 16) #9
  %8 = getelementptr inbounds %"class.mojo::Message", %"class.mojo::Message"* %3, i64 0, i32 1, i32 2
  %9 = load i8*, i8** %8, align 8
  %10 = getelementptr inbounds i8, i8* %9, i64 %7
  %11 = bitcast i8* %10 to %"class.downloads::mojom::internal::PageHandler_Cancel_Params_Data"*
  call void @_ZN9downloads5mojom8internal30PageHandler_Cancel_Params_DataC1Ev(%"class.downloads::mojom::internal::PageHandler_Cancel_Params_Data"* %11) #9
  %12 = bitcast %"class.mojo::internal::MessageFragment.44"* %4 to i8*
  call void @llvm.lifetime.start.p0i8(i64 16, i8* nonnull %12) #9
  %13 = getelementptr inbounds %"class.mojo::internal::MessageFragment.44", %"class.mojo::internal::MessageFragment.44"* %4, i64 0, i32 0
  %14 = getelementptr inbounds %"class.mojo::internal::MessageFragment.44", %"class.mojo::internal::MessageFragment.44"* %4, i64 0, i32 1
  store %"class.mojo::Message"* %3, %"class.mojo::Message"** %13, align 8
  store i64 -1, i64* %14, align 8
  call void @_ZN4mojo8internal10SerializerINS_14StringDataViewEKNSt3__112basic_stringIcNS3_11char_traitsIcEENS3_9allocatorIcEEEEE9SerializeERSA_RNS0_15MessageFragmentINS0_10Array_DataIcEEEE(%"class.std::__1::basic_string"* dereferenceable(24) %1, %"class.mojo::internal::MessageFragment.44"* nonnull dereferenceable(16) %4) #9
  %15 = load i8*, i8** %8, align 8
  %16 = getelementptr inbounds i8, i8* %15, i64 %7
  %17 = getelementptr inbounds i8, i8* %16, i64 8
  %18 = load i64, i64* %14, align 8
  %19 = icmp eq i64 %18, -1
  br i1 %19, label %26, label %20

20:                                               ; preds = %2
  %21 = load %"class.mojo::Message"*, %"class.mojo::Message"** %13, align 8
  %22 = getelementptr inbounds %"class.mojo::Message", %"class.mojo::Message"* %21, i64 0, i32 1, i32 2
  %23 = load i8*, i8** %22, align 8
  %24 = getelementptr inbounds i8, i8* %23, i64 %18
  %25 = bitcast i8* %24 to %"class.mojo::internal::Array_Data.46"*
  br label %26

26:                                               ; preds = %2, %20
  %27 = phi %"class.mojo::internal::Array_Data.46"* [ %25, %20 ], [ null, %2 ]
  %28 = bitcast i8* %17 to i64*
  %29 = icmp eq %"class.mojo::internal::Array_Data.46"* %27, null
  %30 = ptrtoint %"class.mojo::internal::Array_Data.46"* %27 to i64
  %31 = ptrtoint i8* %17 to i64
  %32 = sub i64 %30, %31
  %33 = select i1 %29, i64 0, i64 %32
  store i64 %33, i64* %28, align 8
  %34 = getelementptr inbounds %"class.downloads::mojom::PageHandlerProxy", %"class.downloads::mojom::PageHandlerProxy"* %0, i64 0, i32 1
  %35 = bitcast %"class.mojo::MessageReceiverWithResponder"** %34 to %"class.mojo::MessageReceiver"**
  %36 = load %"class.mojo::MessageReceiver"*, %"class.mojo::MessageReceiver"** %35, align 8
  %37 = bitcast %"class.mojo::MessageReceiver"* %36 to i1 (%"class.mojo::MessageReceiver"*, %"class.mojo::Message"*)***
  %38 = load i1 (%"class.mojo::MessageReceiver"*, %"class.mojo::Message"*)**, i1 (%"class.mojo::MessageReceiver"*, %"class.mojo::Message"*)*** %37, align 8
  %39 = getelementptr inbounds i1 (%"class.mojo::MessageReceiver"*, %"class.mojo::Message"*)*, i1 (%"class.mojo::MessageReceiver"*, %"class.mojo::Message"*)** %38, i64 3
  %40 = load i1 (%"class.mojo::MessageReceiver"*, %"class.mojo::Message"*)*, i1 (%"class.mojo::MessageReceiver"*, %"class.mojo::Message"*)** %39, align 8
  %41 = call zeroext i1 %40(%"class.mojo::MessageReceiver"* %36, %"class.mojo::Message"* nonnull %3) #9
  call void @llvm.lifetime.end.p0i8(i64 16, i8* nonnull %12) #9
  call void @_ZN4mojo7MessageD1Ev(%"class.mojo::Message"* nonnull %3) #9
  call void @llvm.lifetime.end.p0i8(i64 120, i8* nonnull %5) #9
  ret void
}

; Function Attrs: nounwind ssp uwtable
define hidden void @_ZN9downloads5mojom16PageHandlerProxy8ClearAllEv(%"class.downloads::mojom::PageHandlerProxy"* nocapture readonly) unnamed_addr #0 align 2 {
  %2 = alloca %"class.mojo::Message", align 8
  %3 = bitcast %"class.mojo::Message"* %2 to i8*
  call void @llvm.lifetime.start.p0i8(i64 120, i8* nonnull %3) #9
  call void @llvm.memset.p0i8.i64(i8* nonnull align 8 %3, i8 -86, i64 120, i1 false)
  call void @_ZN4mojo7MessageC1EjjmmPNSt3__16vectorINS_16ScopedHandleBaseINS_6HandleEEENS1_9allocatorIS5_EEEE(%"class.mojo::Message"* nonnull %2, i32 1170089859, i32 0, i64 0, i64 0, %"class.std::__1::vector"* null) #9
  %4 = getelementptr inbounds %"class.mojo::Message", %"class.mojo::Message"* %2, i64 0, i32 1
  %5 = call i64 @_ZN4mojo8internal6Buffer8AllocateEm(%"class.mojo::internal::Buffer"* %4, i64 8) #9
  %6 = getelementptr inbounds %"class.mojo::Message", %"class.mojo::Message"* %2, i64 0, i32 1, i32 2
  %7 = load i8*, i8** %6, align 8
  %8 = getelementptr inbounds i8, i8* %7, i64 %5
  %9 = bitcast i8* %8 to %"class.downloads::mojom::internal::PageHandler_ClearAll_Params_Data"*
  call void @_ZN9downloads5mojom8internal32PageHandler_ClearAll_Params_DataC1Ev(%"class.downloads::mojom::internal::PageHandler_ClearAll_Params_Data"* %9) #9
  %10 = getelementptr inbounds %"class.downloads::mojom::PageHandlerProxy", %"class.downloads::mojom::PageHandlerProxy"* %0, i64 0, i32 1
  %11 = bitcast %"class.mojo::MessageReceiverWithResponder"** %10 to %"class.mojo::MessageReceiver"**
  %12 = load %"class.mojo::MessageReceiver"*, %"class.mojo::MessageReceiver"** %11, align 8
  %13 = bitcast %"class.mojo::MessageReceiver"* %12 to i1 (%"class.mojo::MessageReceiver"*, %"class.mojo::Message"*)***
  %14 = load i1 (%"class.mojo::MessageReceiver"*, %"class.mojo::Message"*)**, i1 (%"class.mojo::MessageReceiver"*, %"class.mojo::Message"*)*** %13, align 8
  %15 = getelementptr inbounds i1 (%"class.mojo::MessageReceiver"*, %"class.mojo::Message"*)*, i1 (%"class.mojo::MessageReceiver"*, %"class.mojo::Message"*)** %14, i64 3
  %16 = load i1 (%"class.mojo::MessageReceiver"*, %"class.mojo::Message"*)*, i1 (%"class.mojo::MessageReceiver"*, %"class.mojo::Message"*)** %15, align 8
  %17 = call zeroext i1 %16(%"class.mojo::MessageReceiver"* %12, %"class.mojo::Message"* nonnull %2) #9
  call void @_ZN4mojo7MessageD1Ev(%"class.mojo::Message"* nonnull %2) #9
  call void @llvm.lifetime.end.p0i8(i64 120, i8* nonnull %3) #9
  ret void
}

; Function Attrs: nounwind ssp uwtable
define hidden void @_ZN9downloads5mojom16PageHandlerProxy35OpenDownloadsFolderRequiringGestureEv(%"class.downloads::mojom::PageHandlerProxy"* nocapture readonly) unnamed_addr #0 align 2 {
  %2 = alloca %"class.mojo::Message", align 8
  %3 = bitcast %"class.mojo::Message"* %2 to i8*
  call void @llvm.lifetime.start.p0i8(i64 120, i8* nonnull %3) #9
  call void @llvm.memset.p0i8.i64(i8* nonnull align 8 %3, i8 -86, i64 120, i1 false)
  call void @_ZN4mojo7MessageC1EjjmmPNSt3__16vectorINS_16ScopedHandleBaseINS_6HandleEEENS1_9allocatorIS5_EEEE(%"class.mojo::Message"* nonnull %2, i32 1508690143, i32 0, i64 0, i64 0, %"class.std::__1::vector"* null) #9
  %4 = getelementptr inbounds %"class.mojo::Message", %"class.mojo::Message"* %2, i64 0, i32 1
  %5 = call i64 @_ZN4mojo8internal6Buffer8AllocateEm(%"class.mojo::internal::Buffer"* %4, i64 8) #9
  %6 = getelementptr inbounds %"class.mojo::Message", %"class.mojo::Message"* %2, i64 0, i32 1, i32 2
  %7 = load i8*, i8** %6, align 8
  %8 = getelementptr inbounds i8, i8* %7, i64 %5
  %9 = bitcast i8* %8 to %"class.downloads::mojom::internal::PageHandler_OpenDownloadsFolderRequiringGesture_Params_Data"*
  call void @_ZN9downloads5mojom8internal59PageHandler_OpenDownloadsFolderRequiringGesture_Params_DataC1Ev(%"class.downloads::mojom::internal::PageHandler_OpenDownloadsFolderRequiringGesture_Params_Data"* %9) #9
  %10 = getelementptr inbounds %"class.downloads::mojom::PageHandlerProxy", %"class.downloads::mojom::PageHandlerProxy"* %0, i64 0, i32 1
  %11 = bitcast %"class.mojo::MessageReceiverWithResponder"** %10 to %"class.mojo::MessageReceiver"**
  %12 = load %"class.mojo::MessageReceiver"*, %"class.mojo::MessageReceiver"** %11, align 8
  %13 = bitcast %"class.mojo::MessageReceiver"* %12 to i1 (%"class.mojo::MessageReceiver"*, %"class.mojo::Message"*)***
  %14 = load i1 (%"class.mojo::MessageReceiver"*, %"class.mojo::Message"*)**, i1 (%"class.mojo::MessageReceiver"*, %"class.mojo::Message"*)*** %13, align 8
  %15 = getelementptr inbounds i1 (%"class.mojo::MessageReceiver"*, %"class.mojo::Message"*)*, i1 (%"class.mojo::MessageReceiver"*, %"class.mojo::Message"*)** %14, i64 3
  %16 = load i1 (%"class.mojo::MessageReceiver"*, %"class.mojo::Message"*)*, i1 (%"class.mojo::MessageReceiver"*, %"class.mojo::Message"*)** %15, align 8
  %17 = call zeroext i1 %16(%"class.mojo::MessageReceiver"* %12, %"class.mojo::Message"* nonnull %2) #9
  call void @_ZN4mojo7MessageD1Ev(%"class.mojo::Message"* nonnull %2) #9
  call void @llvm.lifetime.end.p0i8(i64 120, i8* nonnull %3) #9
  ret void
}

; Function Attrs: nounwind ssp uwtable
define hidden void @_ZN9downloads5mojom16PageHandlerProxy34OpenDuringScanningRequiringGestureERKNSt3__112basic_stringIcNS2_11char_traitsIcEENS2_9allocatorIcEEEE(%"class.downloads::mojom::PageHandlerProxy"* nocapture readonly, %"class.std::__1::basic_string"* dereferenceable(24)) unnamed_addr #0 align 2 {
  %3 = alloca %"class.mojo::Message", align 8
  %4 = alloca %"class.mojo::internal::MessageFragment.44", align 8
  %5 = bitcast %"class.mojo::Message"* %3 to i8*
  call void @llvm.lifetime.start.p0i8(i64 120, i8* nonnull %5) #9
  call void @llvm.memset.p0i8.i64(i8* nonnull align 8 %5, i8 -86, i64 120, i1 false)
  call void @_ZN4mojo7MessageC1EjjmmPNSt3__16vectorINS_16ScopedHandleBaseINS_6HandleEEENS1_9allocatorIS5_EEEE(%"class.mojo::Message"* nonnull %3, i32 1735199682, i32 0, i64 0, i64 0, %"class.std::__1::vector"* null) #9
  %6 = getelementptr inbounds %"class.mojo::Message", %"class.mojo::Message"* %3, i64 0, i32 1
  %7 = call i64 @_ZN4mojo8internal6Buffer8AllocateEm(%"class.mojo::internal::Buffer"* %6, i64 16) #9
  %8 = getelementptr inbounds %"class.mojo::Message", %"class.mojo::Message"* %3, i64 0, i32 1, i32 2
  %9 = load i8*, i8** %8, align 8
  %10 = getelementptr inbounds i8, i8* %9, i64 %7
  %11 = bitcast i8* %10 to %"class.downloads::mojom::internal::PageHandler_OpenDuringScanningRequiringGesture_Params_Data"*
  call void @_ZN9downloads5mojom8internal58PageHandler_OpenDuringScanningRequiringGesture_Params_DataC1Ev(%"class.downloads::mojom::internal::PageHandler_OpenDuringScanningRequiringGesture_Params_Data"* %11) #9
  %12 = bitcast %"class.mojo::internal::MessageFragment.44"* %4 to i8*
  call void @llvm.lifetime.start.p0i8(i64 16, i8* nonnull %12) #9
  %13 = getelementptr inbounds %"class.mojo::internal::MessageFragment.44", %"class.mojo::internal::MessageFragment.44"* %4, i64 0, i32 0
  %14 = getelementptr inbounds %"class.mojo::internal::MessageFragment.44", %"class.mojo::internal::MessageFragment.44"* %4, i64 0, i32 1
  store %"class.mojo::Message"* %3, %"class.mojo::Message"** %13, align 8
  store i64 -1, i64* %14, align 8
  call void @_ZN4mojo8internal10SerializerINS_14StringDataViewEKNSt3__112basic_stringIcNS3_11char_traitsIcEENS3_9allocatorIcEEEEE9SerializeERSA_RNS0_15MessageFragmentINS0_10Array_DataIcEEEE(%"class.std::__1::basic_string"* dereferenceable(24) %1, %"class.mojo::internal::MessageFragment.44"* nonnull dereferenceable(16) %4) #9
  %15 = load i8*, i8** %8, align 8
  %16 = getelementptr inbounds i8, i8* %15, i64 %7
  %17 = getelementptr inbounds i8, i8* %16, i64 8
  %18 = load i64, i64* %14, align 8
  %19 = icmp eq i64 %18, -1
  br i1 %19, label %26, label %20

20:                                               ; preds = %2
  %21 = load %"class.mojo::Message"*, %"class.mojo::Message"** %13, align 8
  %22 = getelementptr inbounds %"class.mojo::Message", %"class.mojo::Message"* %21, i64 0, i32 1, i32 2
  %23 = load i8*, i8** %22, align 8
  %24 = getelementptr inbounds i8, i8* %23, i64 %18
  %25 = bitcast i8* %24 to %"class.mojo::internal::Array_Data.46"*
  br label %26

26:                                               ; preds = %2, %20
  %27 = phi %"class.mojo::internal::Array_Data.46"* [ %25, %20 ], [ null, %2 ]
  %28 = bitcast i8* %17 to i64*
  %29 = icmp eq %"class.mojo::internal::Array_Data.46"* %27, null
  %30 = ptrtoint %"class.mojo::internal::Array_Data.46"* %27 to i64
  %31 = ptrtoint i8* %17 to i64
  %32 = sub i64 %30, %31
  %33 = select i1 %29, i64 0, i64 %32
  store i64 %33, i64* %28, align 8
  %34 = getelementptr inbounds %"class.downloads::mojom::PageHandlerProxy", %"class.downloads::mojom::PageHandlerProxy"* %0, i64 0, i32 1
  %35 = bitcast %"class.mojo::MessageReceiverWithResponder"** %34 to %"class.mojo::MessageReceiver"**
  %36 = load %"class.mojo::MessageReceiver"*, %"class.mojo::MessageReceiver"** %35, align 8
  %37 = bitcast %"class.mojo::MessageReceiver"* %36 to i1 (%"class.mojo::MessageReceiver"*, %"class.mojo::Message"*)***
  %38 = load i1 (%"class.mojo::MessageReceiver"*, %"class.mojo::Message"*)**, i1 (%"class.mojo::MessageReceiver"*, %"class.mojo::Message"*)*** %37, align 8
  %39 = getelementptr inbounds i1 (%"class.mojo::MessageReceiver"*, %"class.mojo::Message"*)*, i1 (%"class.mojo::MessageReceiver"*, %"class.mojo::Message"*)** %38, i64 3
  %40 = load i1 (%"class.mojo::MessageReceiver"*, %"class.mojo::Message"*)*, i1 (%"class.mojo::MessageReceiver"*, %"class.mojo::Message"*)** %39, align 8
  %41 = call zeroext i1 %40(%"class.mojo::MessageReceiver"* %36, %"class.mojo::Message"* nonnull %3) #9
  call void @llvm.lifetime.end.p0i8(i64 16, i8* nonnull %12) #9
  call void @_ZN4mojo7MessageD1Ev(%"class.mojo::Message"* nonnull %3) #9
  call void @llvm.lifetime.end.p0i8(i64 120, i8* nonnull %5) #9
  ret void
}

; Function Attrs: nounwind ssp uwtable
define hidden zeroext i1 @_ZN9downloads5mojom23PageHandlerStubDispatch6AcceptEPNS0_11PageHandlerEPN4mojo7MessageE(%"class.downloads::mojom::PageHandler"*, %"class.mojo::Message"*) local_unnamed_addr #0 align 2 {
  %3 = alloca %"class.base::TaskAnnotator::ScopedSetIpcHash", align 8
  %4 = alloca %"class.std::__1::vector.34", align 8
  %5 = alloca %"class.base::TaskAnnotator::ScopedSetIpcHash", align 8
  %6 = alloca %"class.std::__1::basic_string", align 8
  %7 = alloca %"class.base::TaskAnnotator::ScopedSetIpcHash", align 8
  %8 = alloca %"class.std::__1::basic_string", align 8
  %9 = alloca %"class.base::TaskAnnotator::ScopedSetIpcHash", align 8
  %10 = alloca %"class.std::__1::basic_string", align 8
  %11 = alloca %"class.base::TaskAnnotator::ScopedSetIpcHash", align 8
  %12 = alloca %"class.std::__1::basic_string", align 8
  %13 = alloca %"class.base::TaskAnnotator::ScopedSetIpcHash", align 8
  %14 = alloca %"class.std::__1::basic_string", align 8
  %15 = alloca %"class.base::TaskAnnotator::ScopedSetIpcHash", align 8
  %16 = alloca %"class.std::__1::basic_string", align 8
  %17 = alloca %"class.base::TaskAnnotator::ScopedSetIpcHash", align 8
  %18 = alloca %"class.std::__1::basic_string", align 8
  %19 = alloca %"class.base::TaskAnnotator::ScopedSetIpcHash", align 8
  %20 = alloca %"class.std::__1::basic_string", align 8
  %21 = alloca %"class.base::TaskAnnotator::ScopedSetIpcHash", align 8
  %22 = alloca %"class.std::__1::basic_string", align 8
  %23 = alloca %"class.base::TaskAnnotator::ScopedSetIpcHash", align 8
  %24 = alloca %"class.base::TaskAnnotator::ScopedSetIpcHash", align 8
  %25 = alloca %"class.std::__1::basic_string", align 8
  %26 = alloca %"class.base::TaskAnnotator::ScopedSetIpcHash", align 8
  %27 = alloca %"class.base::TaskAnnotator::ScopedSetIpcHash", align 8
  %28 = alloca %"class.base::TaskAnnotator::ScopedSetIpcHash", align 8
  %29 = alloca %"class.std::__1::basic_string", align 8
  %30 = getelementptr inbounds %"class.mojo::Message", %"class.mojo::Message"* %1, i64 0, i32 1, i32 2
  %31 = bitcast i8** %30 to %"struct.mojo::internal::MessageHeader"**
  %32 = load %"struct.mojo::internal::MessageHeader"*, %"struct.mojo::internal::MessageHeader"** %31, align 8
  %33 = getelementptr inbounds %"struct.mojo::internal::MessageHeader", %"struct.mojo::internal::MessageHeader"* %32, i64 0, i32 2
  %34 = load i32, i32* %33, align 1
  switch i32 %34, label %712 [
    i32 419757008, label %35
    i32 1434640820, label %82
    i32 720007318, label %137
    i32 1199387098, label %192
    i32 1714121110, label %247
    i32 1656907928, label %302
    i32 1331854655, label %357
    i32 1215920917, label %412
    i32 736862928, label %467
    i32 1435478827, label %522
    i32 236394735, label %577
    i32 16177670, label %584
    i32 1170089859, label %639
    i32 1508690143, label %646
    i32 1735199682, label %653
  ]

35:                                               ; preds = %2
  %36 = bitcast %"class.base::TaskAnnotator::ScopedSetIpcHash"* %3 to i8*
  call void @llvm.lifetime.start.p0i8(i64 24, i8* nonnull %36) #9
  call void @llvm.memset.p0i8.i64(i8* nonnull align 8 %36, i8 -86, i64 24, i1 false)
  call void @_ZN4base13TaskAnnotator16ScopedSetIpcHashC1Ej(%"class.base::TaskAnnotator::ScopedSetIpcHash"* nonnull %3, i32 -1147726372) #9
  %37 = call i8* @_ZNK4mojo7Message7payloadEv(%"class.mojo::Message"* %1) #9
  %38 = bitcast %"class.std::__1::vector.34"* %4 to i8*
  call void @llvm.lifetime.start.p0i8(i64 24, i8* nonnull %38) #9
  %39 = getelementptr inbounds %"class.std::__1::vector.34", %"class.std::__1::vector.34"* %4, i64 0, i32 0, i32 0
  %40 = getelementptr inbounds %"class.std::__1::vector.34", %"class.std::__1::vector.34"* %4, i64 0, i32 0, i32 1
  call void @llvm.memset.p0i8.i64(i8* nonnull align 8 %38, i8 0, i64 24, i1 false) #9
  %41 = getelementptr inbounds i8, i8* %37, i64 8
  %42 = bitcast i8* %41 to i64*
  %43 = load i64, i64* %42, align 8
  %44 = icmp eq i64 %43, 0
  br i1 %44, label %45, label %46

45:                                               ; preds = %35
  store %"class.std::__1::basic_string"* null, %"class.std::__1::basic_string"** %40, align 8
  br label %51

46:                                               ; preds = %35
  %47 = getelementptr inbounds i8, i8* %41, i64 %43
  %48 = bitcast i8* %47 to %"class.mojo::internal::Array_Data"*
  %49 = call zeroext i1 @_ZN4mojo8internal15ArraySerializerINS_13ArrayDataViewINS_14StringDataViewEEENSt3__16vectorINS5_12basic_stringIcNS5_11char_traitsIcEENS5_9allocatorIcEEEENSA_ISC_EEEENS0_13ArrayIteratorINS_11ArrayTraitsISE_EESE_Lb0EEEvE19DeserializeElementsEPNS0_10Array_DataINS0_7PointerINSK_IcEEEEEEPSE_PNS_7MessageE(%"class.mojo::internal::Array_Data"* nonnull %48, %"class.std::__1::vector.34"* nonnull %4, %"class.mojo::Message"* %1) #9
  br i1 %49, label %51, label %50

50:                                               ; preds = %46
  call void @_ZN4mojo8internal31ReportValidationErrorForMessageEPNS_7MessageENS0_15ValidationErrorEPKcjb(%"class.mojo::Message"* %1, i32 17, i8* getelementptr inbounds ([28 x i8], [28 x i8]* @_ZN9downloads5mojom11PageHandler5Name_E, i64 0, i64 0), i32 0, i1 zeroext false) #9
  br label %56

51:                                               ; preds = %46, %45
  %52 = bitcast %"class.downloads::mojom::PageHandler"* %0 to void (%"class.downloads::mojom::PageHandler"*, %"class.std::__1::vector.34"*)***
  %53 = load void (%"class.downloads::mojom::PageHandler"*, %"class.std::__1::vector.34"*)**, void (%"class.downloads::mojom::PageHandler"*, %"class.std::__1::vector.34"*)*** %52, align 8
  %54 = getelementptr inbounds void (%"class.downloads::mojom::PageHandler"*, %"class.std::__1::vector.34"*)*, void (%"class.downloads::mojom::PageHandler"*, %"class.std::__1::vector.34"*)** %53, i64 2
  %55 = load void (%"class.downloads::mojom::PageHandler"*, %"class.std::__1::vector.34"*)*, void (%"class.downloads::mojom::PageHandler"*, %"class.std::__1::vector.34"*)** %54, align 8
  call void %55(%"class.downloads::mojom::PageHandler"* %0, %"class.std::__1::vector.34"* nonnull dereferenceable(24) %4) #9
  br label %56

56:                                               ; preds = %51, %50
  %57 = phi i1 [ true, %51 ], [ false, %50 ]
  %58 = load %"class.std::__1::basic_string"*, %"class.std::__1::basic_string"** %39, align 8
  %59 = icmp eq %"class.std::__1::basic_string"* %58, null
  br i1 %59, label %81, label %60

60:                                               ; preds = %56
  %61 = bitcast %"class.std::__1::basic_string"* %58 to i8*
  %62 = load %"class.std::__1::basic_string"*, %"class.std::__1::basic_string"** %40, align 8
  %63 = icmp eq %"class.std::__1::basic_string"* %62, %58
  br i1 %63, label %79, label %64

64:                                               ; preds = %60, %74
  %65 = phi %"class.std::__1::basic_string"* [ %66, %74 ], [ %62, %60 ]
  %66 = getelementptr inbounds %"class.std::__1::basic_string", %"class.std::__1::basic_string"* %65, i64 -1
  %67 = bitcast %"class.std::__1::basic_string"* %66 to %"struct.std::__1::basic_string<char, std::__1::char_traits<char>, std::__1::allocator<char> >::__short"*
  %68 = getelementptr inbounds %"struct.std::__1::basic_string<char, std::__1::char_traits<char>, std::__1::allocator<char> >::__short", %"struct.std::__1::basic_string<char, std::__1::char_traits<char>, std::__1::allocator<char> >::__short"* %67, i64 0, i32 1, i32 0
  %69 = load i8, i8* %68, align 1
  %70 = icmp slt i8 %69, 0
  br i1 %70, label %71, label %74

71:                                               ; preds = %64
  %72 = getelementptr inbounds %"class.std::__1::basic_string", %"class.std::__1::basic_string"* %66, i64 0, i32 0, i32 0, i32 0, i32 0, i32 0, i32 0
  %73 = load i8*, i8** %72, align 8
  call void @_ZdlPv(i8* %73) #10
  br label %74

74:                                               ; preds = %71, %64
  %75 = icmp eq %"class.std::__1::basic_string"* %66, %58
  br i1 %75, label %76, label %64

76:                                               ; preds = %74
  %77 = bitcast %"class.std::__1::vector.34"* %4 to i8**
  %78 = load i8*, i8** %77, align 8
  br label %79

79:                                               ; preds = %76, %60
  %80 = phi i8* [ %78, %76 ], [ %61, %60 ]
  store %"class.std::__1::basic_string"* %58, %"class.std::__1::basic_string"** %40, align 8
  call void @_ZdlPv(i8* %80) #10
  br label %81

81:                                               ; preds = %56, %79
  call void @llvm.lifetime.end.p0i8(i64 24, i8* nonnull %38) #9
  br label %708

82:                                               ; preds = %2
  %83 = bitcast %"class.base::TaskAnnotator::ScopedSetIpcHash"* %5 to i8*
  call void @llvm.lifetime.start.p0i8(i64 24, i8* nonnull %83) #9
  call void @llvm.memset.p0i8.i64(i8* nonnull align 8 %83, i8 -86, i64 24, i1 false)
  call void @_ZN4base13TaskAnnotator16ScopedSetIpcHashC1Ej(%"class.base::TaskAnnotator::ScopedSetIpcHash"* nonnull %5, i32 -2098654150) #9
  %84 = call i8* @_ZNK4mojo7Message7payloadEv(%"class.mojo::Message"* %1) #9
  %85 = bitcast %"class.std::__1::basic_string"* %6 to i8*
  call void @llvm.lifetime.start.p0i8(i64 24, i8* nonnull %85) #9
  %86 = getelementptr inbounds %"class.std::__1::basic_string", %"class.std::__1::basic_string"* %6, i64 0, i32 0, i32 0, i32 0, i32 0, i32 0, i32 0
  %87 = getelementptr inbounds %"class.std::__1::basic_string", %"class.std::__1::basic_string"* %6, i64 0, i32 0, i32 0, i32 0, i32 0, i32 0, i32 1
  call void @llvm.memset.p0i8.i64(i8* nonnull align 8 %85, i8 0, i64 24, i1 false) #9
  %88 = getelementptr inbounds i8, i8* %84, i64 8
  %89 = bitcast i8* %88 to i64*
  %90 = load i64, i64* %89, align 8
  %91 = icmp eq i64 %90, 0
  %92 = getelementptr inbounds i8, i8* %88, i64 %90
  br i1 %91, label %125, label %93

93:                                               ; preds = %82
  %94 = getelementptr inbounds i8, i8* %92, i64 8
  %95 = getelementptr inbounds i8, i8* %92, i64 4
  %96 = bitcast i8* %95 to i32*
  %97 = load i32, i32* %96, align 1
  %98 = zext i32 %97 to i64
  %99 = call i1 @llvm.is.constant.i64(i64 %98) #9
  %100 = icmp ult i32 %97, 23
  %101 = and i1 %100, %99
  br i1 %101, label %102, label %110

102:                                              ; preds = %93
  %103 = bitcast %"class.std::__1::basic_string"* %6 to %"struct.std::__1::basic_string<char, std::__1::char_traits<char>, std::__1::allocator<char> >::__short"*
  %104 = getelementptr inbounds %"struct.std::__1::basic_string<char, std::__1::char_traits<char>, std::__1::allocator<char> >::__short", %"struct.std::__1::basic_string<char, std::__1::char_traits<char>, std::__1::allocator<char> >::__short"* %103, i64 0, i32 1, i32 0
  %105 = trunc i32 %97 to i8
  store i8 %105, i8* %104, align 1
  %106 = icmp eq i32 %97, 0
  br i1 %106, label %108, label %107

107:                                              ; preds = %102
  call void @llvm.memmove.p0i8.p0i8.i64(i8* nonnull align 8 %85, i8* align 1 %94, i64 %98, i1 false) #9
  br label %108

108:                                              ; preds = %107, %102
  %109 = getelementptr inbounds i8, i8* %85, i64 %98
  store i8 0, i8* %109, align 1
  br label %113

110:                                              ; preds = %93
  %111 = call dereferenceable(24) %"class.std::__1::basic_string"* @_ZNSt3__112basic_stringIcNS_11char_traitsIcEENS_9allocatorIcEEE17__assign_externalEPKcm(%"class.std::__1::basic_string"* nonnull %6, i8* %94, i64 %98) #9
  %112 = bitcast %"class.std::__1::basic_string"* %6 to %"struct.std::__1::basic_string<char, std::__1::char_traits<char>, std::__1::allocator<char> >::__short"*
  br label %113

113:                                              ; preds = %110, %108
  %114 = phi %"struct.std::__1::basic_string<char, std::__1::char_traits<char>, std::__1::allocator<char> >::__short"* [ %112, %110 ], [ %103, %108 ]
  %115 = getelementptr inbounds %"struct.std::__1::basic_string<char, std::__1::char_traits<char>, std::__1::allocator<char> >::__short", %"struct.std::__1::basic_string<char, std::__1::char_traits<char>, std::__1::allocator<char> >::__short"* %114, i64 0, i32 1, i32 0
  %116 = load i8, i8* %115, align 1
  %117 = icmp slt i8 %116, 0
  %118 = load i8*, i8** %86, align 8
  %119 = select i1 %117, i8* %118, i8* %85
  %120 = load i64, i64* %87, align 8
  %121 = zext i8 %116 to i64
  %122 = select i1 %117, i64 %120, i64 %121
  %123 = call zeroext i1 @_ZN4base12IsStringUTF8ENS_16BasicStringPieceIcNSt3__111char_traitsIcEEEE(i8* %119, i64 %122) #9
  br i1 %123, label %125, label %124

124:                                              ; preds = %113
  call void @_ZN4mojo8internal34RecordInvalidStringDeserializationEv() #9
  br label %125

125:                                              ; preds = %82, %113, %124
  %126 = bitcast %"class.downloads::mojom::PageHandler"* %0 to void (%"class.downloads::mojom::PageHandler"*, %"class.std::__1::basic_string"*)***
  %127 = load void (%"class.downloads::mojom::PageHandler"*, %"class.std::__1::basic_string"*)**, void (%"class.downloads::mojom::PageHandler"*, %"class.std::__1::basic_string"*)*** %126, align 8
  %128 = getelementptr inbounds void (%"class.downloads::mojom::PageHandler"*, %"class.std::__1::basic_string"*)*, void (%"class.downloads::mojom::PageHandler"*, %"class.std::__1::basic_string"*)** %127, i64 3
  %129 = load void (%"class.downloads::mojom::PageHandler"*, %"class.std::__1::basic_string"*)*, void (%"class.downloads::mojom::PageHandler"*, %"class.std::__1::basic_string"*)** %128, align 8
  call void %129(%"class.downloads::mojom::PageHandler"* %0, %"class.std::__1::basic_string"* nonnull dereferenceable(24) %6) #9
  %130 = bitcast %"class.std::__1::basic_string"* %6 to %"struct.std::__1::basic_string<char, std::__1::char_traits<char>, std::__1::allocator<char> >::__short"*
  %131 = getelementptr inbounds %"struct.std::__1::basic_string<char, std::__1::char_traits<char>, std::__1::allocator<char> >::__short", %"struct.std::__1::basic_string<char, std::__1::char_traits<char>, std::__1::allocator<char> >::__short"* %130, i64 0, i32 1, i32 0
  %132 = load i8, i8* %131, align 1
  %133 = icmp slt i8 %132, 0
  br i1 %133, label %134, label %136

134:                                              ; preds = %125
  %135 = load i8*, i8** %86, align 8
  call void @_ZdlPv(i8* %135) #10
  br label %136

136:                                              ; preds = %125, %134
  call void @llvm.lifetime.end.p0i8(i64 24, i8* nonnull %85) #9
  br label %708

137:                                              ; preds = %2
  %138 = bitcast %"class.base::TaskAnnotator::ScopedSetIpcHash"* %7 to i8*
  call void @llvm.lifetime.start.p0i8(i64 24, i8* nonnull %138) #9
  call void @llvm.memset.p0i8.i64(i8* nonnull align 8 %138, i8 -86, i64 24, i1 false)
  call void @_ZN4base13TaskAnnotator16ScopedSetIpcHashC1Ej(%"class.base::TaskAnnotator::ScopedSetIpcHash"* nonnull %7, i32 -886254450) #9
  %139 = call i8* @_ZNK4mojo7Message7payloadEv(%"class.mojo::Message"* %1) #9
  %140 = bitcast %"class.std::__1::basic_string"* %8 to i8*
  call void @llvm.lifetime.start.p0i8(i64 24, i8* nonnull %140) #9
  %141 = getelementptr inbounds %"class.std::__1::basic_string", %"class.std::__1::basic_string"* %8, i64 0, i32 0, i32 0, i32 0, i32 0, i32 0, i32 0
  %142 = getelementptr inbounds %"class.std::__1::basic_string", %"class.std::__1::basic_string"* %8, i64 0, i32 0, i32 0, i32 0, i32 0, i32 0, i32 1
  call void @llvm.memset.p0i8.i64(i8* nonnull align 8 %140, i8 0, i64 24, i1 false) #9
  %143 = getelementptr inbounds i8, i8* %139, i64 8
  %144 = bitcast i8* %143 to i64*
  %145 = load i64, i64* %144, align 8
  %146 = icmp eq i64 %145, 0
  %147 = getelementptr inbounds i8, i8* %143, i64 %145
  br i1 %146, label %180, label %148

148:                                              ; preds = %137
  %149 = getelementptr inbounds i8, i8* %147, i64 8
  %150 = getelementptr inbounds i8, i8* %147, i64 4
  %151 = bitcast i8* %150 to i32*
  %152 = load i32, i32* %151, align 1
  %153 = zext i32 %152 to i64
  %154 = call i1 @llvm.is.constant.i64(i64 %153) #9
  %155 = icmp ult i32 %152, 23
  %156 = and i1 %155, %154
  br i1 %156, label %157, label %165

157:                                              ; preds = %148
  %158 = bitcast %"class.std::__1::basic_string"* %8 to %"struct.std::__1::basic_string<char, std::__1::char_traits<char>, std::__1::allocator<char> >::__short"*
  %159 = getelementptr inbounds %"struct.std::__1::basic_string<char, std::__1::char_traits<char>, std::__1::allocator<char> >::__short", %"struct.std::__1::basic_string<char, std::__1::char_traits<char>, std::__1::allocator<char> >::__short"* %158, i64 0, i32 1, i32 0
  %160 = trunc i32 %152 to i8
  store i8 %160, i8* %159, align 1
  %161 = icmp eq i32 %152, 0
  br i1 %161, label %163, label %162

162:                                              ; preds = %157
  call void @llvm.memmove.p0i8.p0i8.i64(i8* nonnull align 8 %140, i8* align 1 %149, i64 %153, i1 false) #9
  br label %163

163:                                              ; preds = %162, %157
  %164 = getelementptr inbounds i8, i8* %140, i64 %153
  store i8 0, i8* %164, align 1
  br label %168

165:                                              ; preds = %148
  %166 = call dereferenceable(24) %"class.std::__1::basic_string"* @_ZNSt3__112basic_stringIcNS_11char_traitsIcEENS_9allocatorIcEEE17__assign_externalEPKcm(%"class.std::__1::basic_string"* nonnull %8, i8* %149, i64 %153) #9
  %167 = bitcast %"class.std::__1::basic_string"* %8 to %"struct.std::__1::basic_string<char, std::__1::char_traits<char>, std::__1::allocator<char> >::__short"*
  br label %168

168:                                              ; preds = %165, %163
  %169 = phi %"struct.std::__1::basic_string<char, std::__1::char_traits<char>, std::__1::allocator<char> >::__short"* [ %167, %165 ], [ %158, %163 ]
  %170 = getelementptr inbounds %"struct.std::__1::basic_string<char, std::__1::char_traits<char>, std::__1::allocator<char> >::__short", %"struct.std::__1::basic_string<char, std::__1::char_traits<char>, std::__1::allocator<char> >::__short"* %169, i64 0, i32 1, i32 0
  %171 = load i8, i8* %170, align 1
  %172 = icmp slt i8 %171, 0
  %173 = load i8*, i8** %141, align 8
  %174 = select i1 %172, i8* %173, i8* %140
  %175 = load i64, i64* %142, align 8
  %176 = zext i8 %171 to i64
  %177 = select i1 %172, i64 %175, i64 %176
  %178 = call zeroext i1 @_ZN4base12IsStringUTF8ENS_16BasicStringPieceIcNSt3__111char_traitsIcEEEE(i8* %174, i64 %177) #9
  br i1 %178, label %180, label %179

179:                                              ; preds = %168
  call void @_ZN4mojo8internal34RecordInvalidStringDeserializationEv() #9
  br label %180

180:                                              ; preds = %137, %168, %179
  %181 = bitcast %"class.downloads::mojom::PageHandler"* %0 to void (%"class.downloads::mojom::PageHandler"*, %"class.std::__1::basic_string"*)***
  %182 = load void (%"class.downloads::mojom::PageHandler"*, %"class.std::__1::basic_string"*)**, void (%"class.downloads::mojom::PageHandler"*, %"class.std::__1::basic_string"*)*** %181, align 8
  %183 = getelementptr inbounds void (%"class.downloads::mojom::PageHandler"*, %"class.std::__1::basic_string"*)*, void (%"class.downloads::mojom::PageHandler"*, %"class.std::__1::basic_string"*)** %182, i64 4
  %184 = load void (%"class.downloads::mojom::PageHandler"*, %"class.std::__1::basic_string"*)*, void (%"class.downloads::mojom::PageHandler"*, %"class.std::__1::basic_string"*)** %183, align 8
  call void %184(%"class.downloads::mojom::PageHandler"* %0, %"class.std::__1::basic_string"* nonnull dereferenceable(24) %8) #9
  %185 = bitcast %"class.std::__1::basic_string"* %8 to %"struct.std::__1::basic_string<char, std::__1::char_traits<char>, std::__1::allocator<char> >::__short"*
  %186 = getelementptr inbounds %"struct.std::__1::basic_string<char, std::__1::char_traits<char>, std::__1::allocator<char> >::__short", %"struct.std::__1::basic_string<char, std::__1::char_traits<char>, std::__1::allocator<char> >::__short"* %185, i64 0, i32 1, i32 0
  %187 = load i8, i8* %186, align 1
  %188 = icmp slt i8 %187, 0
  br i1 %188, label %189, label %191

189:                                              ; preds = %180
  %190 = load i8*, i8** %141, align 8
  call void @_ZdlPv(i8* %190) #10
  br label %191

191:                                              ; preds = %180, %189
  call void @llvm.lifetime.end.p0i8(i64 24, i8* nonnull %140) #9
  br label %708

192:                                              ; preds = %2
  %193 = bitcast %"class.base::TaskAnnotator::ScopedSetIpcHash"* %9 to i8*
  call void @llvm.lifetime.start.p0i8(i64 24, i8* nonnull %193) #9
  call void @llvm.memset.p0i8.i64(i8* nonnull align 8 %193, i8 -86, i64 24, i1 false)
  call void @_ZN4base13TaskAnnotator16ScopedSetIpcHashC1Ej(%"class.base::TaskAnnotator::ScopedSetIpcHash"* nonnull %9, i32 -1963577283) #9
  %194 = call i8* @_ZNK4mojo7Message7payloadEv(%"class.mojo::Message"* %1) #9
  %195 = bitcast %"class.std::__1::basic_string"* %10 to i8*
  call void @llvm.lifetime.start.p0i8(i64 24, i8* nonnull %195) #9
  %196 = getelementptr inbounds %"class.std::__1::basic_string", %"class.std::__1::basic_string"* %10, i64 0, i32 0, i32 0, i32 0, i32 0, i32 0, i32 0
  %197 = getelementptr inbounds %"class.std::__1::basic_string", %"class.std::__1::basic_string"* %10, i64 0, i32 0, i32 0, i32 0, i32 0, i32 0, i32 1
  call void @llvm.memset.p0i8.i64(i8* nonnull align 8 %195, i8 0, i64 24, i1 false) #9
  %198 = getelementptr inbounds i8, i8* %194, i64 8
  %199 = bitcast i8* %198 to i64*
  %200 = load i64, i64* %199, align 8
  %201 = icmp eq i64 %200, 0
  %202 = getelementptr inbounds i8, i8* %198, i64 %200
  br i1 %201, label %235, label %203

203:                                              ; preds = %192
  %204 = getelementptr inbounds i8, i8* %202, i64 8
  %205 = getelementptr inbounds i8, i8* %202, i64 4
  %206 = bitcast i8* %205 to i32*
  %207 = load i32, i32* %206, align 1
  %208 = zext i32 %207 to i64
  %209 = call i1 @llvm.is.constant.i64(i64 %208) #9
  %210 = icmp ult i32 %207, 23
  %211 = and i1 %210, %209
  br i1 %211, label %212, label %220

212:                                              ; preds = %203
  %213 = bitcast %"class.std::__1::basic_string"* %10 to %"struct.std::__1::basic_string<char, std::__1::char_traits<char>, std::__1::allocator<char> >::__short"*
  %214 = getelementptr inbounds %"struct.std::__1::basic_string<char, std::__1::char_traits<char>, std::__1::allocator<char> >::__short", %"struct.std::__1::basic_string<char, std::__1::char_traits<char>, std::__1::allocator<char> >::__short"* %213, i64 0, i32 1, i32 0
  %215 = trunc i32 %207 to i8
  store i8 %215, i8* %214, align 1
  %216 = icmp eq i32 %207, 0
  br i1 %216, label %218, label %217

217:                                              ; preds = %212
  call void @llvm.memmove.p0i8.p0i8.i64(i8* nonnull align 8 %195, i8* align 1 %204, i64 %208, i1 false) #9
  br label %218

218:                                              ; preds = %217, %212
  %219 = getelementptr inbounds i8, i8* %195, i64 %208
  store i8 0, i8* %219, align 1
  br label %223

220:                                              ; preds = %203
  %221 = call dereferenceable(24) %"class.std::__1::basic_string"* @_ZNSt3__112basic_stringIcNS_11char_traitsIcEENS_9allocatorIcEEE17__assign_externalEPKcm(%"class.std::__1::basic_string"* nonnull %10, i8* %204, i64 %208) #9
  %222 = bitcast %"class.std::__1::basic_string"* %10 to %"struct.std::__1::basic_string<char, std::__1::char_traits<char>, std::__1::allocator<char> >::__short"*
  br label %223

223:                                              ; preds = %220, %218
  %224 = phi %"struct.std::__1::basic_string<char, std::__1::char_traits<char>, std::__1::allocator<char> >::__short"* [ %222, %220 ], [ %213, %218 ]
  %225 = getelementptr inbounds %"struct.std::__1::basic_string<char, std::__1::char_traits<char>, std::__1::allocator<char> >::__short", %"struct.std::__1::basic_string<char, std::__1::char_traits<char>, std::__1::allocator<char> >::__short"* %224, i64 0, i32 1, i32 0
  %226 = load i8, i8* %225, align 1
  %227 = icmp slt i8 %226, 0
  %228 = load i8*, i8** %196, align 8
  %229 = select i1 %227, i8* %228, i8* %195
  %230 = load i64, i64* %197, align 8
  %231 = zext i8 %226 to i64
  %232 = select i1 %227, i64 %230, i64 %231
  %233 = call zeroext i1 @_ZN4base12IsStringUTF8ENS_16BasicStringPieceIcNSt3__111char_traitsIcEEEE(i8* %229, i64 %232) #9
  br i1 %233, label %235, label %234

234:                                              ; preds = %223
  call void @_ZN4mojo8internal34RecordInvalidStringDeserializationEv() #9
  br label %235

235:                                              ; preds = %192, %223, %234
  %236 = bitcast %"class.downloads::mojom::PageHandler"* %0 to void (%"class.downloads::mojom::PageHandler"*, %"class.std::__1::basic_string"*)***
  %237 = load void (%"class.downloads::mojom::PageHandler"*, %"class.std::__1::basic_string"*)**, void (%"class.downloads::mojom::PageHandler"*, %"class.std::__1::basic_string"*)*** %236, align 8
  %238 = getelementptr inbounds void (%"class.downloads::mojom::PageHandler"*, %"class.std::__1::basic_string"*)*, void (%"class.downloads::mojom::PageHandler"*, %"class.std::__1::basic_string"*)** %237, i64 5
  %239 = load void (%"class.downloads::mojom::PageHandler"*, %"class.std::__1::basic_string"*)*, void (%"class.downloads::mojom::PageHandler"*, %"class.std::__1::basic_string"*)** %238, align 8
  call void %239(%"class.downloads::mojom::PageHandler"* %0, %"class.std::__1::basic_string"* nonnull dereferenceable(24) %10) #9
  %240 = bitcast %"class.std::__1::basic_string"* %10 to %"struct.std::__1::basic_string<char, std::__1::char_traits<char>, std::__1::allocator<char> >::__short"*
  %241 = getelementptr inbounds %"struct.std::__1::basic_string<char, std::__1::char_traits<char>, std::__1::allocator<char> >::__short", %"struct.std::__1::basic_string<char, std::__1::char_traits<char>, std::__1::allocator<char> >::__short"* %240, i64 0, i32 1, i32 0
  %242 = load i8, i8* %241, align 1
  %243 = icmp slt i8 %242, 0
  br i1 %243, label %244, label %246

244:                                              ; preds = %235
  %245 = load i8*, i8** %196, align 8
  call void @_ZdlPv(i8* %245) #10
  br label %246

246:                                              ; preds = %235, %244
  call void @llvm.lifetime.end.p0i8(i64 24, i8* nonnull %195) #9
  br label %708

247:                                              ; preds = %2
  %248 = bitcast %"class.base::TaskAnnotator::ScopedSetIpcHash"* %11 to i8*
  call void @llvm.lifetime.start.p0i8(i64 24, i8* nonnull %248) #9
  call void @llvm.memset.p0i8.i64(i8* nonnull align 8 %248, i8 -86, i64 24, i1 false)
  call void @_ZN4base13TaskAnnotator16ScopedSetIpcHashC1Ej(%"class.base::TaskAnnotator::ScopedSetIpcHash"* nonnull %11, i32 1342498329) #9
  %249 = call i8* @_ZNK4mojo7Message7payloadEv(%"class.mojo::Message"* %1) #9
  %250 = bitcast %"class.std::__1::basic_string"* %12 to i8*
  call void @llvm.lifetime.start.p0i8(i64 24, i8* nonnull %250) #9
  %251 = getelementptr inbounds %"class.std::__1::basic_string", %"class.std::__1::basic_string"* %12, i64 0, i32 0, i32 0, i32 0, i32 0, i32 0, i32 0
  %252 = getelementptr inbounds %"class.std::__1::basic_string", %"class.std::__1::basic_string"* %12, i64 0, i32 0, i32 0, i32 0, i32 0, i32 0, i32 1
